ARM GAS  C:\Users\RECEPC~1\AppData\Local\Temp\cc7aDVfG.s 			page 1


   1              		.syntax unified
   2              		.cpu cortex-m3
   3              		.fpu softvfp
   4              		.eabi_attribute 20, 1
   5              		.eabi_attribute 21, 1
   6              		.eabi_attribute 23, 3
   7              		.eabi_attribute 24, 1
   8              		.eabi_attribute 25, 1
   9              		.eabi_attribute 26, 1
  10              		.eabi_attribute 30, 6
  11              		.eabi_attribute 34, 1
  12              		.eabi_attribute 18, 4
  13              		.thumb
  14              		.file	"AdvantageImpl.c"
  15              		.text
  16              	.Ltext0:
  17              		.cfi_sections	.debug_frame
  18              		.global	errorCounter
  19              		.bss
  20              		.type	errorCounter, %object
  21              		.size	errorCounter, 1
  22              	errorCounter:
  23 0000 00       		.space	1
  24              		.section	.text.AcquirePumpStateResponse,"ax",%progbits
  25              		.align	2
  26              		.global	AcquirePumpStateResponse
  27              		.thumb
  28              		.thumb_func
  29              		.type	AcquirePumpStateResponse, %function
  30              	AcquirePumpStateResponse:
  31              	.LFB63:
  32              		.file 1 ".\\AdvantageImpl.c"
   1:.\AdvantageImpl.c **** /* ========================================
   2:.\AdvantageImpl.c ****  *
   3:.\AdvantageImpl.c ****  * Copyright INSEPET SISTEMAS, 2016
   4:.\AdvantageImpl.c ****  * All Rights Reserved
   5:.\AdvantageImpl.c ****  * UNPUBLISHED, LICENSED SOFTWARE.
   6:.\AdvantageImpl.c ****  *
   7:.\AdvantageImpl.c ****  * CONFIDENTIAL AND PROPRIETARY INFORMATION
   8:.\AdvantageImpl.c ****  * WHICH IS THE PROPERTY OF your company.
   9:.\AdvantageImpl.c ****  *
  10:.\AdvantageImpl.c ****  * ========================================
  11:.\AdvantageImpl.c **** @Created By: HIJH
  12:.\AdvantageImpl.c **** @Date: Novembre de 2016
  13:.\AdvantageImpl.c **** */
  14:.\AdvantageImpl.c **** 
  15:.\AdvantageImpl.c **** #include <project.h>
  16:.\AdvantageImpl.c **** #include "GlobalDefinitions.h"
  17:.\AdvantageImpl.c **** #include "SinkManager.h"
  18:.\AdvantageImpl.c **** #include "SinkObservables.h"
  19:.\AdvantageImpl.c **** #include "UARTManager.h"
  20:.\AdvantageImpl.c **** #include "Display.h"
  21:.\AdvantageImpl.c **** #include "Dispenser.h"
  22:.\AdvantageImpl.c **** #include "Eeprom.h"
  23:.\AdvantageImpl.c **** #include "RFLink.h"
  24:.\AdvantageImpl.c **** #include "Printer.h"
  25:.\AdvantageImpl.c **** #include "Rtc.h"
ARM GAS  C:\Users\RECEPC~1\AppData\Local\Temp\cc7aDVfG.s 			page 2


  26:.\AdvantageImpl.c **** 
  27:.\AdvantageImpl.c **** #ifdef ADVANTAGE_PROTOCOL
  28:.\AdvantageImpl.c **** 
  29:.\AdvantageImpl.c **** uint8_t FindLRC(char8 *_pbuffer);
  30:.\AdvantageImpl.c **** uint8_t GetLRC(char8 *_pbuffer);
  31:.\AdvantageImpl.c **** uint8 errorCounter = 0;
  32:.\AdvantageImpl.c **** 
  33:.\AdvantageImpl.c **** ///////////////////////////////////////////////////////////////////////////////////////////////////
  34:.\AdvantageImpl.c **** //////////////////////                 BLOCK OF AVAILABLE RESPONSE HANDLERS
  35:.\AdvantageImpl.c **** ///////////////////////////////////////////////////////////////////////////////////////////////////
  36:.\AdvantageImpl.c **** 
  37:.\AdvantageImpl.c **** void AdvantageActivateProgramming(LPVOID pparam);
  38:.\AdvantageImpl.c **** extern PNEARDISPENSERACTIVATEPROGRAMMING _g_ptractprogramming;
  39:.\AdvantageImpl.c **** 
  40:.\AdvantageImpl.c **** //@Created By: HIJH
  41:.\AdvantageImpl.c **** //@Date: Septembre de 2016
  42:.\AdvantageImpl.c **** //Updates the pump state into the pump structure
  43:.\AdvantageImpl.c **** void AcquirePumpStateResponse(void *pparam)
  44:.\AdvantageImpl.c **** {
  33              		.loc 1 44 0
  34              		.cfi_startproc
  35              		@ args = 0, pretend = 0, frame = 16
  36              		@ frame_needed = 1, uses_anonymous_args = 0
  37 0000 80B5     		push	{r7, lr}
  38              		.cfi_def_cfa_offset 8
  39              		.cfi_offset 7, -8
  40              		.cfi_offset 14, -4
  41 0002 84B0     		sub	sp, sp, #16
  42              		.cfi_def_cfa_offset 24
  43 0004 00AF     		add	r7, sp, #0
  44              		.cfi_def_cfa_register 7
  45 0006 7860     		str	r0, [r7, #4]
  45:.\AdvantageImpl.c ****     PPUMPTRANSACTIONJOBCONTEXTPTR pjob = (PPUMPTRANSACTIONJOBCONTEXTPTR)pparam;
  46              		.loc 1 45 0
  47 0008 7B68     		ldr	r3, [r7, #4]
  48 000a FB60     		str	r3, [r7, #12]
  46:.\AdvantageImpl.c ****     if(pjob)
  49              		.loc 1 46 0
  50 000c FB68     		ldr	r3, [r7, #12]
  51 000e 002B     		cmp	r3, #0
  52 0010 00F08A80 		beq	.L1
  53              	.LBB2:
  47:.\AdvantageImpl.c ****     {
  48:.\AdvantageImpl.c ****         uint8 prevstate = pjob->_ppump->_pumpstate;
  54              		.loc 1 48 0
  55 0014 FB68     		ldr	r3, [r7, #12]
  56 0016 DB69     		ldr	r3, [r3, #28]
  57 0018 9B78     		ldrb	r3, [r3, #2]
  58 001a FB72     		strb	r3, [r7, #11]
  49:.\AdvantageImpl.c ****         uint8 prevrfstate = pjob->_ppump->_pumprftransstate;
  59              		.loc 1 49 0
  60 001c FB68     		ldr	r3, [r7, #12]
  61 001e DB69     		ldr	r3, [r3, #28]
  62 0020 1B7B     		ldrb	r3, [r3, #12]
  63 0022 BB72     		strb	r3, [r7, #10]
  50:.\AdvantageImpl.c ****         pjob->_ppump->_pumpstate = ((pjob->_ppump->_rxbuffer[0x00] & 0xF0) >> 4);
  64              		.loc 1 50 0
ARM GAS  C:\Users\RECEPC~1\AppData\Local\Temp\cc7aDVfG.s 			page 3


  65 0024 FB68     		ldr	r3, [r7, #12]
  66 0026 DB69     		ldr	r3, [r3, #28]
  67 0028 FA68     		ldr	r2, [r7, #12]
  68 002a D269     		ldr	r2, [r2, #28]
  69 002c 92F8A021 		ldrb	r2, [r2, #416]	@ zero_extendqisi2
  70 0030 1209     		lsrs	r2, r2, #4
  71 0032 D2B2     		uxtb	r2, r2
  72 0034 9A70     		strb	r2, [r3, #2]
  51:.\AdvantageImpl.c ****         if(pjob->_ppump->PumpValidState(pjob->_ppump) && ((pjob->_ppump->_rxbuffer[0x00] & 0x0F)) =
  73              		.loc 1 51 0
  74 0036 FB68     		ldr	r3, [r7, #12]
  75 0038 DB69     		ldr	r3, [r3, #28]
  76 003a D3F8603B 		ldr	r3, [r3, #2912]
  77 003e FA68     		ldr	r2, [r7, #12]
  78 0040 D269     		ldr	r2, [r2, #28]
  79 0042 1046     		mov	r0, r2
  80 0044 9847     		blx	r3
  81 0046 0346     		mov	r3, r0
  82 0048 002B     		cmp	r3, #0
  83 004a 17D0     		beq	.L3
  84              		.loc 1 51 0 is_stmt 0 discriminator 1
  85 004c FB68     		ldr	r3, [r7, #12]
  86 004e DB69     		ldr	r3, [r3, #28]
  87 0050 93F8A031 		ldrb	r3, [r3, #416]	@ zero_extendqisi2
  88 0054 03F00F03 		and	r3, r3, #15
  89 0058 FA68     		ldr	r2, [r7, #12]
  90 005a D269     		ldr	r2, [r2, #28]
  91 005c 1278     		ldrb	r2, [r2]	@ zero_extendqisi2
  92 005e 9342     		cmp	r3, r2
  93 0060 0CD1     		bne	.L3
  52:.\AdvantageImpl.c ****             errorCounter = 0;
  94              		.loc 1 52 0 is_stmt 1
  95 0062 334B     		ldr	r3, .L12
  96 0064 0022     		movs	r2, #0
  97 0066 1A70     		strb	r2, [r3]
  53:.\AdvantageImpl.c ****             if(errorCounter == 0){
  98              		.loc 1 53 0
  99 0068 314B     		ldr	r3, .L12
 100 006a 1B78     		ldrb	r3, [r3]	@ zero_extendqisi2
 101 006c 002B     		cmp	r3, #0
 102 006e 04D1     		bne	.L4
  54:.\AdvantageImpl.c ****                 pjob->_ppump->_transhealth = _PUMP_OK_;  
 103              		.loc 1 54 0
 104 0070 FB68     		ldr	r3, [r7, #12]
 105 0072 DB69     		ldr	r3, [r3, #28]
 106 0074 0122     		movs	r2, #1
 107 0076 1A76     		strb	r2, [r3, #24]
  53:.\AdvantageImpl.c ****             if(errorCounter == 0){
 108              		.loc 1 53 0
 109 0078 15E0     		b	.L5
 110              	.L4:
 111 007a 14E0     		b	.L5
 112              	.L3:
  55:.\AdvantageImpl.c ****             }
  56:.\AdvantageImpl.c ****         }
  57:.\AdvantageImpl.c ****         else
  58:.\AdvantageImpl.c ****         {
ARM GAS  C:\Users\RECEPC~1\AppData\Local\Temp\cc7aDVfG.s 			page 4


  59:.\AdvantageImpl.c ****             errorCounter = errorCounter + 1;
 113              		.loc 1 59 0
 114 007c 2C4B     		ldr	r3, .L12
 115 007e 1B78     		ldrb	r3, [r3]	@ zero_extendqisi2
 116 0080 0133     		adds	r3, r3, #1
 117 0082 DAB2     		uxtb	r2, r3
 118 0084 2A4B     		ldr	r3, .L12
 119 0086 1A70     		strb	r2, [r3]
  60:.\AdvantageImpl.c ****             if(errorCounter == 3){
 120              		.loc 1 60 0
 121 0088 294B     		ldr	r3, .L12
 122 008a 1B78     		ldrb	r3, [r3]	@ zero_extendqisi2
 123 008c 032B     		cmp	r3, #3
 124 008e 0AD1     		bne	.L5
  61:.\AdvantageImpl.c ****                 pjob->_ppump->_transhealth = _PUMP_FAIL_;
 125              		.loc 1 61 0
 126 0090 FB68     		ldr	r3, [r7, #12]
 127 0092 DB69     		ldr	r3, [r3, #28]
 128 0094 0222     		movs	r2, #2
 129 0096 1A76     		strb	r2, [r3, #24]
  62:.\AdvantageImpl.c ****                 pjob->_ppump->_pumpstate = PUMP_FAIL;
 130              		.loc 1 62 0
 131 0098 FB68     		ldr	r3, [r7, #12]
 132 009a DB69     		ldr	r3, [r3, #28]
 133 009c 0022     		movs	r2, #0
 134 009e 9A70     		strb	r2, [r3, #2]
  63:.\AdvantageImpl.c ****                 errorCounter = 1;
 135              		.loc 1 63 0
 136 00a0 234B     		ldr	r3, .L12
 137 00a2 0122     		movs	r2, #1
 138 00a4 1A70     		strb	r2, [r3]
 139              	.L5:
  64:.\AdvantageImpl.c ****             }
  65:.\AdvantageImpl.c ****         }   
  66:.\AdvantageImpl.c ****         
  67:.\AdvantageImpl.c ****         if(pjob->_ppump->_pumpstate == PUMP_CALLING)
 140              		.loc 1 67 0
 141 00a6 FB68     		ldr	r3, [r7, #12]
 142 00a8 DB69     		ldr	r3, [r3, #28]
 143 00aa 9B78     		ldrb	r3, [r3, #2]
 144 00ac DBB2     		uxtb	r3, r3
 145 00ae 072B     		cmp	r3, #7
 146 00b0 03D1     		bne	.L6
  68:.\AdvantageImpl.c ****             pjob->_ppump->_pumplocked = false;                
 147              		.loc 1 68 0
 148 00b2 FB68     		ldr	r3, [r7, #12]
 149 00b4 DB69     		ldr	r3, [r3, #28]
 150 00b6 0022     		movs	r2, #0
 151 00b8 5A72     		strb	r2, [r3, #9]
 152              	.L6:
  69:.\AdvantageImpl.c ****         
  70:.\AdvantageImpl.c ****         if((pjob->_ppump->_pumpstate == PUMP_IDLE || pjob->_ppump->_pumpstate == PUMP_CALLING) && 
 153              		.loc 1 70 0
 154 00ba FB68     		ldr	r3, [r7, #12]
 155 00bc DB69     		ldr	r3, [r3, #28]
 156 00be 9B78     		ldrb	r3, [r3, #2]
 157 00c0 DBB2     		uxtb	r3, r3
ARM GAS  C:\Users\RECEPC~1\AppData\Local\Temp\cc7aDVfG.s 			page 5


 158 00c2 062B     		cmp	r3, #6
 159 00c4 05D0     		beq	.L7
 160              		.loc 1 70 0 is_stmt 0 discriminator 2
 161 00c6 FB68     		ldr	r3, [r7, #12]
 162 00c8 DB69     		ldr	r3, [r3, #28]
 163 00ca 9B78     		ldrb	r3, [r3, #2]
 164 00cc DBB2     		uxtb	r3, r3
 165 00ce 072B     		cmp	r3, #7
 166 00d0 09D1     		bne	.L8
 167              	.L7:
 168              		.loc 1 70 0 discriminator 3
 169 00d2 FB7A     		ldrb	r3, [r7, #11]	@ zero_extendqisi2
 170 00d4 092B     		cmp	r3, #9
 171 00d6 02D0     		beq	.L9
  71:.\AdvantageImpl.c ****             (prevstate == PUMP_BUSY || prevstate == PUMP_AUTHORIZED))
 172              		.loc 1 71 0 is_stmt 1
 173 00d8 FB7A     		ldrb	r3, [r7, #11]	@ zero_extendqisi2
 174 00da 082B     		cmp	r3, #8
 175 00dc 03D1     		bne	.L8
 176              	.L9:
  72:.\AdvantageImpl.c ****             pjob->_ppump->_pumprftransstate = RF_ZERO_SALE; 
 177              		.loc 1 72 0
 178 00de FB68     		ldr	r3, [r7, #12]
 179 00e0 DB69     		ldr	r3, [r3, #28]
 180 00e2 0C22     		movs	r2, #12
 181 00e4 1A73     		strb	r2, [r3, #12]
 182              	.L8:
  73:.\AdvantageImpl.c ****         
  74:.\AdvantageImpl.c ****         if((pjob->_ppump->_pumpstate == PUMP_IDLE ) && 
 183              		.loc 1 74 0
 184 00e6 FB68     		ldr	r3, [r7, #12]
 185 00e8 DB69     		ldr	r3, [r3, #28]
 186 00ea 9B78     		ldrb	r3, [r3, #2]
 187 00ec DBB2     		uxtb	r3, r3
 188 00ee 062B     		cmp	r3, #6
 189 00f0 06D1     		bne	.L10
 190              		.loc 1 74 0 is_stmt 0 discriminator 1
 191 00f2 BB7A     		ldrb	r3, [r7, #10]	@ zero_extendqisi2
 192 00f4 0C2B     		cmp	r3, #12
 193 00f6 03D1     		bne	.L10
  75:.\AdvantageImpl.c ****             (prevrfstate == RF_ZERO_SALE ))
  76:.\AdvantageImpl.c ****             pjob->_ppump->_pumprftransstate = RF_IDLE; 
 194              		.loc 1 76 0 is_stmt 1
 195 00f8 FB68     		ldr	r3, [r7, #12]
 196 00fa DB69     		ldr	r3, [r3, #28]
 197 00fc 0822     		movs	r2, #8
 198 00fe 1A73     		strb	r2, [r3, #12]
 199              	.L10:
  77:.\AdvantageImpl.c ****         
  78:.\AdvantageImpl.c ****         if((pjob->_ppump->_pumpstate == PUMP_IDLE   ) && 
 200              		.loc 1 78 0
 201 0100 FB68     		ldr	r3, [r7, #12]
 202 0102 DB69     		ldr	r3, [r3, #28]
 203 0104 9B78     		ldrb	r3, [r3, #2]
 204 0106 DBB2     		uxtb	r3, r3
 205 0108 062B     		cmp	r3, #6
 206 010a 09D1     		bne	.L11
ARM GAS  C:\Users\RECEPC~1\AppData\Local\Temp\cc7aDVfG.s 			page 6


  79:.\AdvantageImpl.c ****             (pjob->_ppump->_pumprftransstate == RF_COPY_RECEIPT ))
 207              		.loc 1 79 0 discriminator 1
 208 010c FB68     		ldr	r3, [r7, #12]
 209 010e DB69     		ldr	r3, [r3, #28]
 210 0110 1B7B     		ldrb	r3, [r3, #12]
 211 0112 DBB2     		uxtb	r3, r3
  78:.\AdvantageImpl.c ****             (pjob->_ppump->_pumprftransstate == RF_COPY_RECEIPT ))
 212              		.loc 1 78 0 discriminator 1
 213 0114 0B2B     		cmp	r3, #11
 214 0116 03D1     		bne	.L11
  80:.\AdvantageImpl.c ****             pjob->_ppump->_pumprftransstate = RF_IDLE;
 215              		.loc 1 80 0
 216 0118 FB68     		ldr	r3, [r7, #12]
 217 011a DB69     		ldr	r3, [r3, #28]
 218 011c 0822     		movs	r2, #8
 219 011e 1A73     		strb	r2, [r3, #12]
 220              	.L11:
  81:.\AdvantageImpl.c ****                 
  82:.\AdvantageImpl.c ****                 
  83:.\AdvantageImpl.c ****         pjob->_ppump->_acquiringstate = false;
 221              		.loc 1 83 0
 222 0120 FB68     		ldr	r3, [r7, #12]
 223 0122 DB69     		ldr	r3, [r3, #28]
 224 0124 0022     		movs	r2, #0
 225 0126 5A71     		strb	r2, [r3, #5]
 226              	.L1:
 227              	.LBE2:
  84:.\AdvantageImpl.c ****     }
  85:.\AdvantageImpl.c **** }
 228              		.loc 1 85 0
 229 0128 1037     		adds	r7, r7, #16
 230              		.cfi_def_cfa_offset 8
 231 012a BD46     		mov	sp, r7
 232              		.cfi_def_cfa_register 13
 233              		@ sp needed
 234 012c 80BD     		pop	{r7, pc}
 235              	.L13:
 236 012e 00BF     		.align	2
 237              	.L12:
 238 0130 00000000 		.word	errorCounter
 239              		.cfi_endproc
 240              	.LFE63:
 241              		.size	AcquirePumpStateResponse, .-AcquirePumpStateResponse
 242              		.section	.text.AcquireDatatoPumpResponse,"ax",%progbits
 243              		.align	2
 244              		.global	AcquireDatatoPumpResponse
 245              		.thumb
 246              		.thumb_func
 247              		.type	AcquireDatatoPumpResponse, %function
 248              	AcquireDatatoPumpResponse:
 249              	.LFB64:
  86:.\AdvantageImpl.c **** 
  87:.\AdvantageImpl.c **** //@Created By: HIJH
  88:.\AdvantageImpl.c **** //@Date: Septembre de 2016
  89:.\AdvantageImpl.c **** //Validates the response from the pump previous batch transfer (0xDp)
  90:.\AdvantageImpl.c **** void AcquireDatatoPumpResponse(void *pparam)
  91:.\AdvantageImpl.c **** {
ARM GAS  C:\Users\RECEPC~1\AppData\Local\Temp\cc7aDVfG.s 			page 7


 250              		.loc 1 91 0
 251              		.cfi_startproc
 252              		@ args = 0, pretend = 0, frame = 16
 253              		@ frame_needed = 1, uses_anonymous_args = 0
 254              		@ link register save eliminated.
 255 0000 80B4     		push	{r7}
 256              		.cfi_def_cfa_offset 4
 257              		.cfi_offset 7, -4
 258 0002 85B0     		sub	sp, sp, #20
 259              		.cfi_def_cfa_offset 24
 260 0004 00AF     		add	r7, sp, #0
 261              		.cfi_def_cfa_register 7
 262 0006 7860     		str	r0, [r7, #4]
  92:.\AdvantageImpl.c ****     PPUMPTRANSACTIONJOBCONTEXTPTR pjob = (PPUMPTRANSACTIONJOBCONTEXTPTR)pparam;
 263              		.loc 1 92 0
 264 0008 7B68     		ldr	r3, [r7, #4]
 265 000a FB60     		str	r3, [r7, #12]
  93:.\AdvantageImpl.c ****     if(pjob)
 266              		.loc 1 93 0
 267 000c FB68     		ldr	r3, [r7, #12]
 268 000e 002B     		cmp	r3, #0
 269 0010 19D0     		beq	.L14
  94:.\AdvantageImpl.c ****     {
  95:.\AdvantageImpl.c ****         if((0x0F & pjob->_ppump->_pumpid) == (pjob->_ppump->_rxbuffer[0x00] & 0x0F)){
 270              		.loc 1 95 0
 271 0012 FB68     		ldr	r3, [r7, #12]
 272 0014 DB69     		ldr	r3, [r3, #28]
 273 0016 1B78     		ldrb	r3, [r3]	@ zero_extendqisi2
 274 0018 1A46     		mov	r2, r3
 275 001a FB68     		ldr	r3, [r7, #12]
 276 001c DB69     		ldr	r3, [r3, #28]
 277 001e 93F8A031 		ldrb	r3, [r3, #416]	@ zero_extendqisi2
 278 0022 5340     		eors	r3, r3, r2
 279 0024 03F00F03 		and	r3, r3, #15
 280 0028 002B     		cmp	r3, #0
 281 002a 0CD1     		bne	.L14
  96:.\AdvantageImpl.c ****             pjob->_ppump->_pumpstate = ((pjob->_ppump->_rxbuffer[0x00] >> 4)& 0x0F);
 282              		.loc 1 96 0
 283 002c FB68     		ldr	r3, [r7, #12]
 284 002e DB69     		ldr	r3, [r3, #28]
 285 0030 FA68     		ldr	r2, [r7, #12]
 286 0032 D269     		ldr	r2, [r2, #28]
 287 0034 92F8A021 		ldrb	r2, [r2, #416]	@ zero_extendqisi2
 288 0038 1209     		lsrs	r2, r2, #4
 289 003a D2B2     		uxtb	r2, r2
 290 003c 9A70     		strb	r2, [r3, #2]
  97:.\AdvantageImpl.c ****             pjob->_ppump->_transhealth = _PUMP_OK_;
 291              		.loc 1 97 0
 292 003e FB68     		ldr	r3, [r7, #12]
 293 0040 DB69     		ldr	r3, [r3, #28]
 294 0042 0122     		movs	r2, #1
 295 0044 1A76     		strb	r2, [r3, #24]
 296              	.L14:
  98:.\AdvantageImpl.c ****         }
  99:.\AdvantageImpl.c ****     }
 100:.\AdvantageImpl.c **** }
 297              		.loc 1 100 0
ARM GAS  C:\Users\RECEPC~1\AppData\Local\Temp\cc7aDVfG.s 			page 8


 298 0046 1437     		adds	r7, r7, #20
 299              		.cfi_def_cfa_offset 4
 300 0048 BD46     		mov	sp, r7
 301              		.cfi_def_cfa_register 13
 302              		@ sp needed
 303 004a 5DF8047B 		ldr	r7, [sp], #4
 304              		.cfi_restore 7
 305              		.cfi_def_cfa_offset 0
 306 004e 7047     		bx	lr
 307              		.cfi_endproc
 308              	.LFE64:
 309              		.size	AcquireDatatoPumpResponse, .-AcquireDatatoPumpResponse
 310              		.section	.text.ProcessPumpRTMoneyRequest,"ax",%progbits
 311              		.align	2
 312              		.global	ProcessPumpRTMoneyRequest
 313              		.thumb
 314              		.thumb_func
 315              		.type	ProcessPumpRTMoneyRequest, %function
 316              	ProcessPumpRTMoneyRequest:
 317              	.LFB65:
 101:.\AdvantageImpl.c **** 
 102:.\AdvantageImpl.c **** void ProcessPumpRTMoneyRequest(void *pparam)
 103:.\AdvantageImpl.c **** {
 318              		.loc 1 103 0
 319              		.cfi_startproc
 320              		@ args = 0, pretend = 0, frame = 16
 321              		@ frame_needed = 1, uses_anonymous_args = 0
 322 0000 90B5     		push	{r4, r7, lr}
 323              		.cfi_def_cfa_offset 12
 324              		.cfi_offset 4, -12
 325              		.cfi_offset 7, -8
 326              		.cfi_offset 14, -4
 327 0002 85B0     		sub	sp, sp, #20
 328              		.cfi_def_cfa_offset 32
 329 0004 00AF     		add	r7, sp, #0
 330              		.cfi_def_cfa_register 7
 331 0006 7860     		str	r0, [r7, #4]
 104:.\AdvantageImpl.c ****     PPUMPTRANSACTIONJOBCONTEXTPTR pjob = (PPUMPTRANSACTIONJOBCONTEXTPTR)pparam;
 332              		.loc 1 104 0
 333 0008 7B68     		ldr	r3, [r7, #4]
 334 000a FB60     		str	r3, [r7, #12]
 105:.\AdvantageImpl.c ****     if(pjob)
 335              		.loc 1 105 0
 336 000c FB68     		ldr	r3, [r7, #12]
 337 000e 002B     		cmp	r3, #0
 338 0010 63D0     		beq	.L16
 106:.\AdvantageImpl.c ****     {
 107:.\AdvantageImpl.c ****         //Bytes from index 0 to 7 are the digits for the Real Time Money Data in BCD format
 108:.\AdvantageImpl.c ****         pjob->_ppump->_rxbuffer[0x00] = (pjob->_ppump->_rxbuffer[0x00] & 0x0F);
 339              		.loc 1 108 0
 340 0012 FB68     		ldr	r3, [r7, #12]
 341 0014 DB69     		ldr	r3, [r3, #28]
 342 0016 FA68     		ldr	r2, [r7, #12]
 343 0018 D269     		ldr	r2, [r2, #28]
 344 001a 92F8A021 		ldrb	r2, [r2, #416]	@ zero_extendqisi2
 345 001e 02F00F02 		and	r2, r2, #15
 346 0022 D2B2     		uxtb	r2, r2
ARM GAS  C:\Users\RECEPC~1\AppData\Local\Temp\cc7aDVfG.s 			page 9


 347 0024 83F8A021 		strb	r2, [r3, #416]
 109:.\AdvantageImpl.c ****         pjob->_ppump->_rxbuffer[0x01] = (pjob->_ppump->_rxbuffer[0x01] & 0x0F);
 348              		.loc 1 109 0
 349 0028 FB68     		ldr	r3, [r7, #12]
 350 002a DB69     		ldr	r3, [r3, #28]
 351 002c FA68     		ldr	r2, [r7, #12]
 352 002e D269     		ldr	r2, [r2, #28]
 353 0030 92F8A121 		ldrb	r2, [r2, #417]	@ zero_extendqisi2
 354 0034 02F00F02 		and	r2, r2, #15
 355 0038 D2B2     		uxtb	r2, r2
 356 003a 83F8A121 		strb	r2, [r3, #417]
 110:.\AdvantageImpl.c ****         pjob->_ppump->_rxbuffer[0x02] = (pjob->_ppump->_rxbuffer[0x02] & 0x0F);
 357              		.loc 1 110 0
 358 003e FB68     		ldr	r3, [r7, #12]
 359 0040 DB69     		ldr	r3, [r3, #28]
 360 0042 FA68     		ldr	r2, [r7, #12]
 361 0044 D269     		ldr	r2, [r2, #28]
 362 0046 92F8A221 		ldrb	r2, [r2, #418]	@ zero_extendqisi2
 363 004a 02F00F02 		and	r2, r2, #15
 364 004e D2B2     		uxtb	r2, r2
 365 0050 83F8A221 		strb	r2, [r3, #418]
 111:.\AdvantageImpl.c ****         pjob->_ppump->_rxbuffer[0x03] = (pjob->_ppump->_rxbuffer[0x03] & 0x0F);
 366              		.loc 1 111 0
 367 0054 FB68     		ldr	r3, [r7, #12]
 368 0056 DB69     		ldr	r3, [r3, #28]
 369 0058 FA68     		ldr	r2, [r7, #12]
 370 005a D269     		ldr	r2, [r2, #28]
 371 005c 92F8A321 		ldrb	r2, [r2, #419]	@ zero_extendqisi2
 372 0060 02F00F02 		and	r2, r2, #15
 373 0064 D2B2     		uxtb	r2, r2
 374 0066 83F8A321 		strb	r2, [r3, #419]
 112:.\AdvantageImpl.c ****         pjob->_ppump->_rxbuffer[0x04] = (pjob->_ppump->_rxbuffer[0x04] & 0x0F);
 375              		.loc 1 112 0
 376 006a FB68     		ldr	r3, [r7, #12]
 377 006c DB69     		ldr	r3, [r3, #28]
 378 006e FA68     		ldr	r2, [r7, #12]
 379 0070 D269     		ldr	r2, [r2, #28]
 380 0072 92F8A421 		ldrb	r2, [r2, #420]	@ zero_extendqisi2
 381 0076 02F00F02 		and	r2, r2, #15
 382 007a D2B2     		uxtb	r2, r2
 383 007c 83F8A421 		strb	r2, [r3, #420]
 113:.\AdvantageImpl.c ****         pjob->_ppump->_rxbuffer[0x05] = (pjob->_ppump->_rxbuffer[0x05] & 0x0F);
 384              		.loc 1 113 0
 385 0080 FB68     		ldr	r3, [r7, #12]
 386 0082 DB69     		ldr	r3, [r3, #28]
 387 0084 FA68     		ldr	r2, [r7, #12]
 388 0086 D269     		ldr	r2, [r2, #28]
 389 0088 92F8A521 		ldrb	r2, [r2, #421]	@ zero_extendqisi2
 390 008c 02F00F02 		and	r2, r2, #15
 391 0090 D2B2     		uxtb	r2, r2
 392 0092 83F8A521 		strb	r2, [r3, #421]
 114:.\AdvantageImpl.c ****         pjob->_ppump->_rxbuffer[0x06] = (pjob->_ppump->_rxbuffer[0x06] & 0x0F);
 393              		.loc 1 114 0
 394 0096 FB68     		ldr	r3, [r7, #12]
 395 0098 DB69     		ldr	r3, [r3, #28]
 396 009a FA68     		ldr	r2, [r7, #12]
 397 009c D269     		ldr	r2, [r2, #28]
ARM GAS  C:\Users\RECEPC~1\AppData\Local\Temp\cc7aDVfG.s 			page 10


 398 009e 92F8A621 		ldrb	r2, [r2, #422]	@ zero_extendqisi2
 399 00a2 02F00F02 		and	r2, r2, #15
 400 00a6 D2B2     		uxtb	r2, r2
 401 00a8 83F8A621 		strb	r2, [r3, #422]
 115:.\AdvantageImpl.c ****         pjob->_ppump->_rxbuffer[0x07] = (pjob->_ppump->_rxbuffer[0x07] & 0x0F);
 402              		.loc 1 115 0
 403 00ac FB68     		ldr	r3, [r7, #12]
 404 00ae DB69     		ldr	r3, [r3, #28]
 405 00b0 FA68     		ldr	r2, [r7, #12]
 406 00b2 D269     		ldr	r2, [r2, #28]
 407 00b4 92F8A721 		ldrb	r2, [r2, #423]	@ zero_extendqisi2
 408 00b8 02F00F02 		and	r2, r2, #15
 409 00bc D2B2     		uxtb	r2, r2
 410 00be 83F8A721 		strb	r2, [r3, #423]
 116:.\AdvantageImpl.c ****         pjob->_ppump->_rtmoneyamount = LSDBCDBUFF2HEX(PBYTECAST(&pjob->_ppump->_rxbuffer[0x00]), 0x
 411              		.loc 1 116 0
 412 00c2 FB68     		ldr	r3, [r7, #12]
 413 00c4 DC69     		ldr	r4, [r3, #28]
 414 00c6 FB68     		ldr	r3, [r7, #12]
 415 00c8 DB69     		ldr	r3, [r3, #28]
 416 00ca 03F5D073 		add	r3, r3, #416
 417 00ce 1846     		mov	r0, r3
 418 00d0 0821     		movs	r1, #8
 419 00d2 FFF7FEFF 		bl	LSDBCDBUFF2HEX
 420 00d6 0346     		mov	r3, r0
 421 00d8 2361     		str	r3, [r4, #16]
 422              	.L16:
 117:.\AdvantageImpl.c ****     }
 118:.\AdvantageImpl.c **** }
 423              		.loc 1 118 0
 424 00da 1437     		adds	r7, r7, #20
 425              		.cfi_def_cfa_offset 12
 426 00dc BD46     		mov	sp, r7
 427              		.cfi_def_cfa_register 13
 428              		@ sp needed
 429 00de 90BD     		pop	{r4, r7, pc}
 430              		.cfi_endproc
 431              	.LFE65:
 432              		.size	ProcessPumpRTMoneyRequest, .-ProcessPumpRTMoneyRequest
 433              		.section	.text.ProcessPumpTransactionData,"ax",%progbits
 434              		.align	2
 435              		.global	ProcessPumpTransactionData
 436              		.thumb
 437              		.thumb_func
 438              		.type	ProcessPumpTransactionData, %function
 439              	ProcessPumpTransactionData:
 440              	.LFB66:
 119:.\AdvantageImpl.c **** 
 120:.\AdvantageImpl.c **** void ProcessPumpTransactionData(void *pparam)
 121:.\AdvantageImpl.c **** {
 441              		.loc 1 121 0
 442              		.cfi_startproc
 443              		@ args = 0, pretend = 0, frame = 24
 444              		@ frame_needed = 1, uses_anonymous_args = 0
 445 0000 B0B5     		push	{r4, r5, r7, lr}
 446              		.cfi_def_cfa_offset 16
 447              		.cfi_offset 4, -16
ARM GAS  C:\Users\RECEPC~1\AppData\Local\Temp\cc7aDVfG.s 			page 11


 448              		.cfi_offset 5, -12
 449              		.cfi_offset 7, -8
 450              		.cfi_offset 14, -4
 451 0002 86B0     		sub	sp, sp, #24
 452              		.cfi_def_cfa_offset 40
 453 0004 00AF     		add	r7, sp, #0
 454              		.cfi_def_cfa_register 7
 455 0006 7860     		str	r0, [r7, #4]
 122:.\AdvantageImpl.c ****     PPUMPTRANSACTIONJOBCONTEXTPTR pjob = (PPUMPTRANSACTIONJOBCONTEXTPTR)pparam;
 456              		.loc 1 122 0
 457 0008 7B68     		ldr	r3, [r7, #4]
 458 000a 7B61     		str	r3, [r7, #20]
 123:.\AdvantageImpl.c ****     if(pjob)
 459              		.loc 1 123 0
 460 000c 7B69     		ldr	r3, [r7, #20]
 461 000e 002B     		cmp	r3, #0
 462 0010 00F0C087 		beq	.L18
 463              	.LBB3:
 124:.\AdvantageImpl.c ****     {
 125:.\AdvantageImpl.c ****         {
 126:.\AdvantageImpl.c ****             uint8 strmlrc = FindLRC(pjob->_ppump->_rxbuffer);
 464              		.loc 1 126 0
 465 0014 7B69     		ldr	r3, [r7, #20]
 466 0016 DB69     		ldr	r3, [r3, #28]
 467 0018 03F5D073 		add	r3, r3, #416
 468 001c 1846     		mov	r0, r3
 469 001e FFF7FEFF 		bl	FindLRC
 470 0022 0346     		mov	r3, r0
 471 0024 FB74     		strb	r3, [r7, #19]
 127:.\AdvantageImpl.c ****             uint8 locallrc = GetLRC(pjob->_ppump->_rxbuffer);
 472              		.loc 1 127 0
 473 0026 7B69     		ldr	r3, [r7, #20]
 474 0028 DB69     		ldr	r3, [r3, #28]
 475 002a 03F5D073 		add	r3, r3, #416
 476 002e 1846     		mov	r0, r3
 477 0030 FFF7FEFF 		bl	GetLRC
 478 0034 0346     		mov	r3, r0
 479 0036 BB74     		strb	r3, [r7, #18]
 128:.\AdvantageImpl.c ****             
 129:.\AdvantageImpl.c ****             if(strmlrc != locallrc && pjob->_reenqueuecounter < _MAX_RETRIES_)
 480              		.loc 1 129 0
 481 0038 FA7C     		ldrb	r2, [r7, #19]	@ zero_extendqisi2
 482 003a BB7C     		ldrb	r3, [r7, #18]	@ zero_extendqisi2
 483 003c 9A42     		cmp	r2, r3
 484 003e 10D0     		beq	.L20
 485              		.loc 1 129 0 is_stmt 0 discriminator 1
 486 0040 7B69     		ldr	r3, [r7, #20]
 487 0042 5B78     		ldrb	r3, [r3, #1]
 488 0044 DBB2     		uxtb	r3, r3
 489 0046 132B     		cmp	r3, #19
 490 0048 0BD8     		bhi	.L20
 130:.\AdvantageImpl.c ****             {
 131:.\AdvantageImpl.c ****                 pjob->_reenqueuecounter++;
 491              		.loc 1 131 0 is_stmt 1
 492 004a 7B69     		ldr	r3, [r7, #20]
 493 004c 5B78     		ldrb	r3, [r3, #1]
 494 004e DBB2     		uxtb	r3, r3
ARM GAS  C:\Users\RECEPC~1\AppData\Local\Temp\cc7aDVfG.s 			page 12


 495 0050 0133     		adds	r3, r3, #1
 496 0052 DAB2     		uxtb	r2, r3
 497 0054 7B69     		ldr	r3, [r7, #20]
 498 0056 5A70     		strb	r2, [r3, #1]
 132:.\AdvantageImpl.c ****                 pjob->_reenqueue = true;
 499              		.loc 1 132 0
 500 0058 7B69     		ldr	r3, [r7, #20]
 501 005a 0122     		movs	r2, #1
 502 005c 1A70     		strb	r2, [r3]
 133:.\AdvantageImpl.c ****                 return;
 503              		.loc 1 133 0
 504 005e 00F099BF 		b	.L18
 505              	.L20:
 134:.\AdvantageImpl.c ****             }
 135:.\AdvantageImpl.c ****             pjob->_reenqueue = false;
 506              		.loc 1 135 0
 507 0062 7B69     		ldr	r3, [r7, #20]
 508 0064 0022     		movs	r2, #0
 509 0066 1A70     		strb	r2, [r3]
 136:.\AdvantageImpl.c **** 
 137:.\AdvantageImpl.c ****             if(_g_dispenserlayoutinfo._displaydigitsmode == 0x06)
 510              		.loc 1 137 0
 511 0068 744B     		ldr	r3, .L57
 512 006a 1B7C     		ldrb	r3, [r3, #16]	@ zero_extendqisi2
 513 006c 062B     		cmp	r3, #6
 514 006e 40F07783 		bne	.L21
 138:.\AdvantageImpl.c ****             {            
 139:.\AdvantageImpl.c ****                 pjob->_ppump->_rxbuffer[0x09] = (pjob->_ppump->_rxbuffer[0x09] & 0x0F);//Hose id
 515              		.loc 1 139 0
 516 0072 7B69     		ldr	r3, [r7, #20]
 517 0074 DB69     		ldr	r3, [r3, #28]
 518 0076 7A69     		ldr	r2, [r7, #20]
 519 0078 D269     		ldr	r2, [r2, #28]
 520 007a 92F8A921 		ldrb	r2, [r2, #425]	@ zero_extendqisi2
 521 007e 02F00F02 		and	r2, r2, #15
 522 0082 D2B2     		uxtb	r2, r2
 523 0084 83F8A921 		strb	r2, [r3, #425]
 140:.\AdvantageImpl.c ****                 pjob->_ppump->_authorizationinfo._hoseid = pjob->_ppump->_rxbuffer[0x09];//Hose id
 524              		.loc 1 140 0
 525 0088 7B69     		ldr	r3, [r7, #20]
 526 008a DB69     		ldr	r3, [r3, #28]
 527 008c 7A69     		ldr	r2, [r7, #20]
 528 008e D269     		ldr	r2, [r2, #28]
 529 0090 92F8A921 		ldrb	r2, [r2, #425]	@ zero_extendqisi2
 530 0094 83F8AA2B 		strb	r2, [r3, #2986]
 141:.\AdvantageImpl.c ****                 
 142:.\AdvantageImpl.c ****                 //In this position is located the payment type (CREDIT: 0x0E , CASH:0x0D)
 143:.\AdvantageImpl.c ****                 if(pjob->_ppump->_trasactionbuffer[0x00] == 0x0D)
 531              		.loc 1 143 0
 532 0098 7B69     		ldr	r3, [r7, #20]
 533 009a DB69     		ldr	r3, [r3, #28]
 534 009c 93F82030 		ldrb	r3, [r3, #32]	@ zero_extendqisi2
 535 00a0 0D2B     		cmp	r3, #13
 536 00a2 40F0CD80 		bne	.L22
 537              	.LBB4:
 144:.\AdvantageImpl.c ****                 {
 145:.\AdvantageImpl.c ****                     I2CBusLock();
ARM GAS  C:\Users\RECEPC~1\AppData\Local\Temp\cc7aDVfG.s 			page 13


 538              		.loc 1 145 0
 539 00a6 FFF7FEFF 		bl	I2CBusLock
 146:.\AdvantageImpl.c ****                     ClearEepromBuffer();
 540              		.loc 1 146 0
 541 00aa FFF7FEFF 		bl	ClearEepromBuffer
 147:.\AdvantageImpl.c ****                     uint16 eeprompage = DispenserGetEepromPPUPageFromPumpID(pjob->_ppump->_pumpid);
 542              		.loc 1 147 0
 543 00ae 7B69     		ldr	r3, [r7, #20]
 544 00b0 DB69     		ldr	r3, [r3, #28]
 545 00b2 1B78     		ldrb	r3, [r3]	@ zero_extendqisi2
 546 00b4 1846     		mov	r0, r3
 547 00b6 FFF7FEFF 		bl	DispenserGetEepromPPUPageFromPumpID
 548 00ba 0346     		mov	r3, r0
 549 00bc 3B82     		strh	r3, [r7, #16]	@ movhi
 148:.\AdvantageImpl.c ****                     LoadEepromPage(eeprompage);
 550              		.loc 1 148 0
 551 00be 3B8A     		ldrh	r3, [r7, #16]
 552 00c0 1846     		mov	r0, r3
 553 00c2 FFF7FEFF 		bl	LoadEepromPage
 149:.\AdvantageImpl.c ****                     switch(pjob->_ppump->_authorizationinfo._hoseid)
 554              		.loc 1 149 0
 555 00c6 7B69     		ldr	r3, [r7, #20]
 556 00c8 DB69     		ldr	r3, [r3, #28]
 557 00ca 93F8AA3B 		ldrb	r3, [r3, #2986]
 558 00ce DBB2     		uxtb	r3, r3
 559 00d0 032B     		cmp	r3, #3
 560 00d2 65D8     		bhi	.L23
 561 00d4 01A2     		adr	r2, .L25
 562 00d6 52F823F0 		ldr	pc, [r2, r3, lsl #2]
 563 00da 00BF     		.p2align 2
 564              	.L25:
 565 00dc ED000000 		.word	.L24+1
 566 00e0 17010000 		.word	.L26+1
 567 00e4 45010000 		.word	.L27+1
 568 00e8 73010000 		.word	.L28+1
 569              		.p2align 1
 570              	.L24:
 150:.\AdvantageImpl.c ****                     {
 151:.\AdvantageImpl.c ****                         case 0x00:
 152:.\AdvantageImpl.c ****                         //Six bytes only since the PPU is constrained to this length
 153:.\AdvantageImpl.c ****                         memcpy(PBYTECAST(&pjob->_ppump->_trasactionbuffer[GetBufferIndexFromDisplay
 571              		.loc 1 153 0
 572 00ec 7B69     		ldr	r3, [r7, #20]
 573 00ee DC69     		ldr	r4, [r3, #28]
 574 00f0 6520     		movs	r0, #101
 575 00f2 FFF7FEFF 		bl	GetBufferIndexFromDisplayID
 576 00f6 0346     		mov	r3, r0
 577 00f8 2033     		adds	r3, r3, #32
 578 00fa 1C44     		add	r4, r4, r3
 579 00fc FFF7FEFF 		bl	GetEepromBuffer
 580 0100 0546     		mov	r5, r0
 581 0102 6520     		movs	r0, #101
 582 0104 FFF7FEFF 		bl	GetBufferLengthFromDisplayID
 583 0108 0346     		mov	r3, r0
 584 010a 2046     		mov	r0, r4
 585 010c 2946     		mov	r1, r5
 586 010e 1A46     		mov	r2, r3
ARM GAS  C:\Users\RECEPC~1\AppData\Local\Temp\cc7aDVfG.s 			page 14


 587 0110 FFF7FEFF 		bl	memcpy
 154:.\AdvantageImpl.c ****                         break;
 588              		.loc 1 154 0
 589 0114 44E0     		b	.L23
 590              	.L26:
 155:.\AdvantageImpl.c ****                         case 0x01:
 156:.\AdvantageImpl.c ****                         //Six bytes only since the PPU is constrained to this length
 157:.\AdvantageImpl.c ****                         memcpy(PBYTECAST(&pjob->_ppump->_trasactionbuffer[GetBufferIndexFromDisplay
 591              		.loc 1 157 0
 592 0116 7B69     		ldr	r3, [r7, #20]
 593 0118 DC69     		ldr	r4, [r3, #28]
 594 011a 6520     		movs	r0, #101
 595 011c FFF7FEFF 		bl	GetBufferIndexFromDisplayID
 596 0120 0346     		mov	r3, r0
 597 0122 2033     		adds	r3, r3, #32
 598 0124 E518     		adds	r5, r4, r3
 599 0126 FFF7FEFF 		bl	GetEepromBuffer
 600 012a 0346     		mov	r3, r0
 601 012c 03F11004 		add	r4, r3, #16
 602 0130 6520     		movs	r0, #101
 603 0132 FFF7FEFF 		bl	GetBufferLengthFromDisplayID
 604 0136 0346     		mov	r3, r0
 605 0138 2846     		mov	r0, r5
 606 013a 2146     		mov	r1, r4
 607 013c 1A46     		mov	r2, r3
 608 013e FFF7FEFF 		bl	memcpy
 158:.\AdvantageImpl.c ****                         break;
 609              		.loc 1 158 0
 610 0142 2DE0     		b	.L23
 611              	.L27:
 159:.\AdvantageImpl.c ****                         case 0x02:
 160:.\AdvantageImpl.c ****                         //Six bytes only since the PPU is constrained to this length
 161:.\AdvantageImpl.c ****                         memcpy(PBYTECAST(&pjob->_ppump->_trasactionbuffer[GetBufferIndexFromDisplay
 612              		.loc 1 161 0
 613 0144 7B69     		ldr	r3, [r7, #20]
 614 0146 DC69     		ldr	r4, [r3, #28]
 615 0148 6520     		movs	r0, #101
 616 014a FFF7FEFF 		bl	GetBufferIndexFromDisplayID
 617 014e 0346     		mov	r3, r0
 618 0150 2033     		adds	r3, r3, #32
 619 0152 E518     		adds	r5, r4, r3
 620 0154 FFF7FEFF 		bl	GetEepromBuffer
 621 0158 0346     		mov	r3, r0
 622 015a 03F12004 		add	r4, r3, #32
 623 015e 6520     		movs	r0, #101
 624 0160 FFF7FEFF 		bl	GetBufferLengthFromDisplayID
 625 0164 0346     		mov	r3, r0
 626 0166 2846     		mov	r0, r5
 627 0168 2146     		mov	r1, r4
 628 016a 1A46     		mov	r2, r3
 629 016c FFF7FEFF 		bl	memcpy
 162:.\AdvantageImpl.c ****                         break;
 630              		.loc 1 162 0
 631 0170 16E0     		b	.L23
 632              	.L28:
 163:.\AdvantageImpl.c ****                         case 0x03:
 164:.\AdvantageImpl.c ****                         //Six bytes only since the PPU is constrained to this length
ARM GAS  C:\Users\RECEPC~1\AppData\Local\Temp\cc7aDVfG.s 			page 15


 165:.\AdvantageImpl.c ****                         memcpy(PBYTECAST(&pjob->_ppump->_trasactionbuffer[GetBufferIndexFromDisplay
 633              		.loc 1 165 0
 634 0172 7B69     		ldr	r3, [r7, #20]
 635 0174 DC69     		ldr	r4, [r3, #28]
 636 0176 6520     		movs	r0, #101
 637 0178 FFF7FEFF 		bl	GetBufferIndexFromDisplayID
 638 017c 0346     		mov	r3, r0
 639 017e 2033     		adds	r3, r3, #32
 640 0180 E518     		adds	r5, r4, r3
 641 0182 FFF7FEFF 		bl	GetEepromBuffer
 642 0186 0346     		mov	r3, r0
 643 0188 03F13004 		add	r4, r3, #48
 644 018c 6520     		movs	r0, #101
 645 018e FFF7FEFF 		bl	GetBufferLengthFromDisplayID
 646 0192 0346     		mov	r3, r0
 647 0194 2846     		mov	r0, r5
 648 0196 2146     		mov	r1, r4
 649 0198 1A46     		mov	r2, r3
 650 019a FFF7FEFF 		bl	memcpy
 166:.\AdvantageImpl.c ****                         break;
 651              		.loc 1 166 0
 652 019e 00BF     		nop
 653              	.L23:
 167:.\AdvantageImpl.c ****                     }
 168:.\AdvantageImpl.c ****                     I2CBusUnlock();
 654              		.loc 1 168 0
 655 01a0 FFF7FEFF 		bl	I2CBusUnlock
 169:.\AdvantageImpl.c ****                     
 170:.\AdvantageImpl.c ****                     memcpy(PBYTECAST(&pjob->_ppump->_rxbuffer[0x0C]), PBYTECAST(&pjob->_ppump->_tra
 656              		.loc 1 170 0
 657 01a4 7B69     		ldr	r3, [r7, #20]
 658 01a6 DB69     		ldr	r3, [r3, #28]
 659 01a8 03F5D675 		add	r5, r3, #428
 660 01ac 7B69     		ldr	r3, [r7, #20]
 661 01ae DC69     		ldr	r4, [r3, #28]
 662 01b0 6520     		movs	r0, #101
 663 01b2 FFF7FEFF 		bl	GetBufferIndexFromDisplayID
 664 01b6 0346     		mov	r3, r0
 665 01b8 2033     		adds	r3, r3, #32
 666 01ba 2344     		add	r3, r3, r4
 667 01bc 2846     		mov	r0, r5
 668 01be 1946     		mov	r1, r3
 669 01c0 0422     		movs	r2, #4
 670 01c2 FFF7FEFF 		bl	memcpy
 171:.\AdvantageImpl.c ****                     
 172:.\AdvantageImpl.c ****                     //Bytes from index 12 to 17 are the digits for the PPU used for the transaction
 173:.\AdvantageImpl.c ****                     //Digits are in BCD format
 174:.\AdvantageImpl.c ****                     pjob->_ppump->_rxbuffer[0x0C] = (pjob->_ppump->_rxbuffer[0x0C] & 0x0F);
 671              		.loc 1 174 0
 672 01c6 7B69     		ldr	r3, [r7, #20]
 673 01c8 DB69     		ldr	r3, [r3, #28]
 674 01ca 7A69     		ldr	r2, [r7, #20]
 675 01cc D269     		ldr	r2, [r2, #28]
 676 01ce 92F8AC21 		ldrb	r2, [r2, #428]	@ zero_extendqisi2
 677 01d2 02F00F02 		and	r2, r2, #15
 678 01d6 D2B2     		uxtb	r2, r2
 679 01d8 83F8AC21 		strb	r2, [r3, #428]
ARM GAS  C:\Users\RECEPC~1\AppData\Local\Temp\cc7aDVfG.s 			page 16


 175:.\AdvantageImpl.c ****                     pjob->_ppump->_rxbuffer[0x0D] = (pjob->_ppump->_rxbuffer[0x0D] & 0x0F);
 680              		.loc 1 175 0
 681 01dc 7B69     		ldr	r3, [r7, #20]
 682 01de DB69     		ldr	r3, [r3, #28]
 683 01e0 7A69     		ldr	r2, [r7, #20]
 684 01e2 D269     		ldr	r2, [r2, #28]
 685 01e4 92F8AD21 		ldrb	r2, [r2, #429]	@ zero_extendqisi2
 686 01e8 02F00F02 		and	r2, r2, #15
 687 01ec D2B2     		uxtb	r2, r2
 688 01ee 83F8AD21 		strb	r2, [r3, #429]
 176:.\AdvantageImpl.c ****                     pjob->_ppump->_rxbuffer[0x0E] = (pjob->_ppump->_rxbuffer[0x0E] & 0x0F);
 689              		.loc 1 176 0
 690 01f2 7B69     		ldr	r3, [r7, #20]
 691 01f4 DB69     		ldr	r3, [r3, #28]
 692 01f6 7A69     		ldr	r2, [r7, #20]
 693 01f8 D269     		ldr	r2, [r2, #28]
 694 01fa 92F8AE21 		ldrb	r2, [r2, #430]	@ zero_extendqisi2
 695 01fe 02F00F02 		and	r2, r2, #15
 696 0202 D2B2     		uxtb	r2, r2
 697 0204 83F8AE21 		strb	r2, [r3, #430]
 177:.\AdvantageImpl.c ****                     pjob->_ppump->_rxbuffer[0x0F] = (pjob->_ppump->_rxbuffer[0x0F] & 0x0F);
 698              		.loc 1 177 0
 699 0208 7B69     		ldr	r3, [r7, #20]
 700 020a DB69     		ldr	r3, [r3, #28]
 701 020c 7A69     		ldr	r2, [r7, #20]
 702 020e D269     		ldr	r2, [r2, #28]
 703 0210 92F8AF21 		ldrb	r2, [r2, #431]	@ zero_extendqisi2
 704 0214 02F00F02 		and	r2, r2, #15
 705 0218 D2B2     		uxtb	r2, r2
 706 021a 83F8AF21 		strb	r2, [r3, #431]
 178:.\AdvantageImpl.c ****                     pjob->_ppump->_authorizationinfo._price = LSDBCDBUFF2HEX(PBYTECAST(&pjob->_ppum
 707              		.loc 1 178 0
 708 021e 7B69     		ldr	r3, [r7, #20]
 709 0220 DC69     		ldr	r4, [r3, #28]
 710 0222 7B69     		ldr	r3, [r7, #20]
 711 0224 DB69     		ldr	r3, [r3, #28]
 712 0226 03F5D673 		add	r3, r3, #428
 713 022a 1846     		mov	r0, r3
 714 022c 0421     		movs	r1, #4
 715 022e FFF7FEFF 		bl	LSDBCDBUFF2HEX
 716 0232 0346     		mov	r3, r0
 717 0234 9BB2     		uxth	r3, r3
 718 0236 A4F8AC3B 		strh	r3, [r4, #2988]	@ movhi
 719              	.LBE4:
 720 023a 2DE0     		b	.L29
 721              	.L58:
 722              		.align	2
 723              	.L57:
 724 023c 00000000 		.word	_g_dispenserlayoutinfo
 725              	.L22:
 179:.\AdvantageImpl.c ****                     
 180:.\AdvantageImpl.c ****                 }
 181:.\AdvantageImpl.c ****                 else
 182:.\AdvantageImpl.c ****                 {
 183:.\AdvantageImpl.c ****                     pjob->_ppump->_rxbuffer[0x0C] = (pjob->_ppump->_rxbuffer[0x0C] & 0x0F);
 726              		.loc 1 183 0
 727 0240 7B69     		ldr	r3, [r7, #20]
ARM GAS  C:\Users\RECEPC~1\AppData\Local\Temp\cc7aDVfG.s 			page 17


 728 0242 DB69     		ldr	r3, [r3, #28]
 729 0244 7A69     		ldr	r2, [r7, #20]
 730 0246 D269     		ldr	r2, [r2, #28]
 731 0248 92F8AC21 		ldrb	r2, [r2, #428]	@ zero_extendqisi2
 732 024c 02F00F02 		and	r2, r2, #15
 733 0250 D2B2     		uxtb	r2, r2
 734 0252 83F8AC21 		strb	r2, [r3, #428]
 184:.\AdvantageImpl.c ****                     pjob->_ppump->_rxbuffer[0x0D] = (pjob->_ppump->_rxbuffer[0x0D] & 0x0F);
 735              		.loc 1 184 0
 736 0256 7B69     		ldr	r3, [r7, #20]
 737 0258 DB69     		ldr	r3, [r3, #28]
 738 025a 7A69     		ldr	r2, [r7, #20]
 739 025c D269     		ldr	r2, [r2, #28]
 740 025e 92F8AD21 		ldrb	r2, [r2, #429]	@ zero_extendqisi2
 741 0262 02F00F02 		and	r2, r2, #15
 742 0266 D2B2     		uxtb	r2, r2
 743 0268 83F8AD21 		strb	r2, [r3, #429]
 185:.\AdvantageImpl.c ****                     pjob->_ppump->_rxbuffer[0x0E] = (pjob->_ppump->_rxbuffer[0x0E] & 0x0F);
 744              		.loc 1 185 0
 745 026c 7B69     		ldr	r3, [r7, #20]
 746 026e DB69     		ldr	r3, [r3, #28]
 747 0270 7A69     		ldr	r2, [r7, #20]
 748 0272 D269     		ldr	r2, [r2, #28]
 749 0274 92F8AE21 		ldrb	r2, [r2, #430]	@ zero_extendqisi2
 750 0278 02F00F02 		and	r2, r2, #15
 751 027c D2B2     		uxtb	r2, r2
 752 027e 83F8AE21 		strb	r2, [r3, #430]
 186:.\AdvantageImpl.c ****                     pjob->_ppump->_rxbuffer[0x0F] = (pjob->_ppump->_rxbuffer[0x0F] & 0x0F);
 753              		.loc 1 186 0
 754 0282 7B69     		ldr	r3, [r7, #20]
 755 0284 DB69     		ldr	r3, [r3, #28]
 756 0286 7A69     		ldr	r2, [r7, #20]
 757 0288 D269     		ldr	r2, [r2, #28]
 758 028a 92F8AF21 		ldrb	r2, [r2, #431]	@ zero_extendqisi2
 759 028e 02F00F02 		and	r2, r2, #15
 760 0292 D2B2     		uxtb	r2, r2
 761 0294 83F8AF21 		strb	r2, [r3, #431]
 762              	.L29:
 187:.\AdvantageImpl.c ****                 }
 188:.\AdvantageImpl.c ****                 
 189:.\AdvantageImpl.c ****                 //Bytes from index 19 to 26 are the digits for the fuel volume delivered in the tra
 190:.\AdvantageImpl.c ****                 //Digits are in BCD format
 191:.\AdvantageImpl.c ****                 pjob->_ppump->_rxbuffer[0x11] = (pjob->_ppump->_rxbuffer[0x11] & 0x0F);
 763              		.loc 1 191 0
 764 0298 7B69     		ldr	r3, [r7, #20]
 765 029a DB69     		ldr	r3, [r3, #28]
 766 029c 7A69     		ldr	r2, [r7, #20]
 767 029e D269     		ldr	r2, [r2, #28]
 768 02a0 92F8B121 		ldrb	r2, [r2, #433]	@ zero_extendqisi2
 769 02a4 02F00F02 		and	r2, r2, #15
 770 02a8 D2B2     		uxtb	r2, r2
 771 02aa 83F8B121 		strb	r2, [r3, #433]
 192:.\AdvantageImpl.c ****                 pjob->_ppump->_rxbuffer[0x12] = (pjob->_ppump->_rxbuffer[0x12] & 0x0F);
 772              		.loc 1 192 0
 773 02ae 7B69     		ldr	r3, [r7, #20]
 774 02b0 DB69     		ldr	r3, [r3, #28]
 775 02b2 7A69     		ldr	r2, [r7, #20]
ARM GAS  C:\Users\RECEPC~1\AppData\Local\Temp\cc7aDVfG.s 			page 18


 776 02b4 D269     		ldr	r2, [r2, #28]
 777 02b6 92F8B221 		ldrb	r2, [r2, #434]	@ zero_extendqisi2
 778 02ba 02F00F02 		and	r2, r2, #15
 779 02be D2B2     		uxtb	r2, r2
 780 02c0 83F8B221 		strb	r2, [r3, #434]
 193:.\AdvantageImpl.c ****                 pjob->_ppump->_rxbuffer[0x13] = (pjob->_ppump->_rxbuffer[0x13] & 0x0F);
 781              		.loc 1 193 0
 782 02c4 7B69     		ldr	r3, [r7, #20]
 783 02c6 DB69     		ldr	r3, [r3, #28]
 784 02c8 7A69     		ldr	r2, [r7, #20]
 785 02ca D269     		ldr	r2, [r2, #28]
 786 02cc 92F8B321 		ldrb	r2, [r2, #435]	@ zero_extendqisi2
 787 02d0 02F00F02 		and	r2, r2, #15
 788 02d4 D2B2     		uxtb	r2, r2
 789 02d6 83F8B321 		strb	r2, [r3, #435]
 194:.\AdvantageImpl.c ****                 pjob->_ppump->_rxbuffer[0x14] = (pjob->_ppump->_rxbuffer[0x14] & 0x0F);
 790              		.loc 1 194 0
 791 02da 7B69     		ldr	r3, [r7, #20]
 792 02dc DB69     		ldr	r3, [r3, #28]
 793 02de 7A69     		ldr	r2, [r7, #20]
 794 02e0 D269     		ldr	r2, [r2, #28]
 795 02e2 92F8B421 		ldrb	r2, [r2, #436]	@ zero_extendqisi2
 796 02e6 02F00F02 		and	r2, r2, #15
 797 02ea D2B2     		uxtb	r2, r2
 798 02ec 83F8B421 		strb	r2, [r3, #436]
 195:.\AdvantageImpl.c ****                 pjob->_ppump->_rxbuffer[0x15] = (pjob->_ppump->_rxbuffer[0x15] & 0x0F);
 799              		.loc 1 195 0
 800 02f0 7B69     		ldr	r3, [r7, #20]
 801 02f2 DB69     		ldr	r3, [r3, #28]
 802 02f4 7A69     		ldr	r2, [r7, #20]
 803 02f6 D269     		ldr	r2, [r2, #28]
 804 02f8 92F8B521 		ldrb	r2, [r2, #437]	@ zero_extendqisi2
 805 02fc 02F00F02 		and	r2, r2, #15
 806 0300 D2B2     		uxtb	r2, r2
 807 0302 83F8B521 		strb	r2, [r3, #437]
 196:.\AdvantageImpl.c ****                 pjob->_ppump->_rxbuffer[0x16] = (pjob->_ppump->_rxbuffer[0x16] & 0x0F);            
 808              		.loc 1 196 0
 809 0306 7B69     		ldr	r3, [r7, #20]
 810 0308 DB69     		ldr	r3, [r3, #28]
 811 030a 7A69     		ldr	r2, [r7, #20]
 812 030c D269     		ldr	r2, [r2, #28]
 813 030e 92F8B621 		ldrb	r2, [r2, #438]	@ zero_extendqisi2
 814 0312 02F00F02 		and	r2, r2, #15
 815 0316 D2B2     		uxtb	r2, r2
 816 0318 83F8B621 		strb	r2, [r3, #438]
 197:.\AdvantageImpl.c ****                 pjob->_ppump->_authorizationinfo._volumeamount = LSDBCDBUFF2HEX(PBYTECAST(&pjob->_p
 817              		.loc 1 197 0
 818 031c 7B69     		ldr	r3, [r7, #20]
 819 031e DC69     		ldr	r4, [r3, #28]
 820 0320 7B69     		ldr	r3, [r7, #20]
 821 0322 DB69     		ldr	r3, [r3, #28]
 822 0324 03F2B113 		addw	r3, r3, #433
 823 0328 1846     		mov	r0, r3
 824 032a 0621     		movs	r1, #6
 825 032c FFF7FEFF 		bl	LSDBCDBUFF2HEX
 826 0330 0346     		mov	r3, r0
 827 0332 C4F8B43B 		str	r3, [r4, #2996]
ARM GAS  C:\Users\RECEPC~1\AppData\Local\Temp\cc7aDVfG.s 			page 19


 198:.\AdvantageImpl.c ****                 
 199:.\AdvantageImpl.c ****                 ////////////////////////////////////////////////////////////////////////////////
 200:.\AdvantageImpl.c ****                 ////////////////////////////////////////////////////////////////////////////////
 201:.\AdvantageImpl.c ****                 
 202:.\AdvantageImpl.c ****                 //Bytes from index 28 to 35 are the digits for the money charged to the transaction
 203:.\AdvantageImpl.c ****                 //Digits are in BCD format
 204:.\AdvantageImpl.c ****                 pjob->_ppump->_rxbuffer[0x18] = (pjob->_ppump->_rxbuffer[0x18] & 0x0F);
 828              		.loc 1 204 0
 829 0336 7B69     		ldr	r3, [r7, #20]
 830 0338 DB69     		ldr	r3, [r3, #28]
 831 033a 7A69     		ldr	r2, [r7, #20]
 832 033c D269     		ldr	r2, [r2, #28]
 833 033e 92F8B821 		ldrb	r2, [r2, #440]	@ zero_extendqisi2
 834 0342 02F00F02 		and	r2, r2, #15
 835 0346 D2B2     		uxtb	r2, r2
 836 0348 83F8B821 		strb	r2, [r3, #440]
 205:.\AdvantageImpl.c ****                 
 206:.\AdvantageImpl.c ****                 pjob->_ppump->_rxbuffer[0x19] = (pjob->_ppump->_rxbuffer[0x19] & 0x0F);
 837              		.loc 1 206 0
 838 034c 7B69     		ldr	r3, [r7, #20]
 839 034e DB69     		ldr	r3, [r3, #28]
 840 0350 7A69     		ldr	r2, [r7, #20]
 841 0352 D269     		ldr	r2, [r2, #28]
 842 0354 92F8B921 		ldrb	r2, [r2, #441]	@ zero_extendqisi2
 843 0358 02F00F02 		and	r2, r2, #15
 844 035c D2B2     		uxtb	r2, r2
 845 035e 83F8B921 		strb	r2, [r3, #441]
 207:.\AdvantageImpl.c ****                 pjob->_ppump->_rxbuffer[0x1A] = (pjob->_ppump->_rxbuffer[0x1A] & 0x0F);
 846              		.loc 1 207 0
 847 0362 7B69     		ldr	r3, [r7, #20]
 848 0364 DB69     		ldr	r3, [r3, #28]
 849 0366 7A69     		ldr	r2, [r7, #20]
 850 0368 D269     		ldr	r2, [r2, #28]
 851 036a 92F8BA21 		ldrb	r2, [r2, #442]	@ zero_extendqisi2
 852 036e 02F00F02 		and	r2, r2, #15
 853 0372 D2B2     		uxtb	r2, r2
 854 0374 83F8BA21 		strb	r2, [r3, #442]
 208:.\AdvantageImpl.c ****                 pjob->_ppump->_rxbuffer[0x1B] = (pjob->_ppump->_rxbuffer[0x1B] & 0x0F);
 855              		.loc 1 208 0
 856 0378 7B69     		ldr	r3, [r7, #20]
 857 037a DB69     		ldr	r3, [r3, #28]
 858 037c 7A69     		ldr	r2, [r7, #20]
 859 037e D269     		ldr	r2, [r2, #28]
 860 0380 92F8BB21 		ldrb	r2, [r2, #443]	@ zero_extendqisi2
 861 0384 02F00F02 		and	r2, r2, #15
 862 0388 D2B2     		uxtb	r2, r2
 863 038a 83F8BB21 		strb	r2, [r3, #443]
 209:.\AdvantageImpl.c ****                 pjob->_ppump->_rxbuffer[0x1C] = (pjob->_ppump->_rxbuffer[0x1C] & 0x0F);
 864              		.loc 1 209 0
 865 038e 7B69     		ldr	r3, [r7, #20]
 866 0390 DB69     		ldr	r3, [r3, #28]
 867 0392 7A69     		ldr	r2, [r7, #20]
 868 0394 D269     		ldr	r2, [r2, #28]
 869 0396 92F8BC21 		ldrb	r2, [r2, #444]	@ zero_extendqisi2
 870 039a 02F00F02 		and	r2, r2, #15
 871 039e D2B2     		uxtb	r2, r2
 872 03a0 83F8BC21 		strb	r2, [r3, #444]
ARM GAS  C:\Users\RECEPC~1\AppData\Local\Temp\cc7aDVfG.s 			page 20


 210:.\AdvantageImpl.c ****                 pjob->_ppump->_rxbuffer[0x1D] = (pjob->_ppump->_rxbuffer[0x1D] & 0x0F);
 873              		.loc 1 210 0
 874 03a4 7B69     		ldr	r3, [r7, #20]
 875 03a6 DB69     		ldr	r3, [r3, #28]
 876 03a8 7A69     		ldr	r2, [r7, #20]
 877 03aa D269     		ldr	r2, [r2, #28]
 878 03ac 92F8BD21 		ldrb	r2, [r2, #445]	@ zero_extendqisi2
 879 03b0 02F00F02 		and	r2, r2, #15
 880 03b4 D2B2     		uxtb	r2, r2
 881 03b6 83F8BD21 		strb	r2, [r3, #445]
 211:.\AdvantageImpl.c ****                 //INQUIRY ABOUT THE EXTRA x10 RESULT SINCE THERE IS AN EXTRA 0 IN THE RESPONSE FOR 
 212:.\AdvantageImpl.c ****                 //MEANWHILE DIVIDING BY 10 TO REMOVE THE ZERO.
 213:.\AdvantageImpl.c ****                 pjob->_ppump->_authorizationinfo._presetamount = LSDBCDBUFF2HEX(PBYTECAST(&pjob->_p
 882              		.loc 1 213 0
 883 03ba 7B69     		ldr	r3, [r7, #20]
 884 03bc DC69     		ldr	r4, [r3, #28]
 885 03be 7B69     		ldr	r3, [r7, #20]
 886 03c0 DB69     		ldr	r3, [r3, #28]
 887 03c2 03F5DC73 		add	r3, r3, #440
 888 03c6 1846     		mov	r0, r3
 889 03c8 0621     		movs	r1, #6
 890 03ca FFF7FEFF 		bl	LSDBCDBUFF2HEX
 891 03ce 0346     		mov	r3, r0
 892 03d0 C4F8B03B 		str	r3, [r4, #2992]
 214:.\AdvantageImpl.c ****                     
 215:.\AdvantageImpl.c ****                 ClearRtcBuffer();
 893              		.loc 1 215 0
 894 03d4 FFF7FEFF 		bl	ClearRtcBuffer
 216:.\AdvantageImpl.c ****                 ReadRTC();
 895              		.loc 1 216 0
 896 03d8 FFF7FEFF 		bl	ReadRTC
 217:.\AdvantageImpl.c ****                 //CAREFUL WITH RETURNS BETWEEN THE LOCK/UNLOCK CALLS
 218:.\AdvantageImpl.c ****                 //AND RECURSIVE CALLS THAT WOULD DEADLOCK!
 219:.\AdvantageImpl.c ****                 I2CBusLock();
 897              		.loc 1 219 0
 898 03dc FFF7FEFF 		bl	I2CBusLock
 220:.\AdvantageImpl.c ****             
 221:.\AdvantageImpl.c ****                 ClearEepromBuffer();
 899              		.loc 1 221 0
 900 03e0 FFF7FEFF 		bl	ClearEepromBuffer
 222:.\AdvantageImpl.c ****                 //In this position is located the payment type (CREDIT: 0x0E , CASH:0x0D)
 223:.\AdvantageImpl.c ****                 if(pjob->_ppump->_trasactionbuffer[0x00] == 0x0D)
 901              		.loc 1 223 0
 902 03e4 7B69     		ldr	r3, [r7, #20]
 903 03e6 DB69     		ldr	r3, [r3, #28]
 904 03e8 93F82030 		ldrb	r3, [r3, #32]	@ zero_extendqisi2
 905 03ec 0D2B     		cmp	r3, #13
 906 03ee 40F0DB80 		bne	.L30
 224:.\AdvantageImpl.c ****                 {
 225:.\AdvantageImpl.c ****                     //HERE WE STORE THE LAST TRANSACTION IN EEPROM! ALWAYS THE PREVIOUS TRANSACTION
 226:.\AdvantageImpl.c ****                     //WILL BE OVERWRITTEN AND LOST.
 227:.\AdvantageImpl.c ****                     //IN CASE OF A "CREDIT SALE", THE WHOLE DATA WILL BE STORED IN A SEPARATE MEMOR
 228:.\AdvantageImpl.c ****                     //SINCE IN CASE OF A RF LINK DROP, THE STATE OF THE SALE COULD BE RECOVERED BY 
 229:.\AdvantageImpl.c ****                     LoadEepromPage(EEPROM_DISPENSER_PUMP1_LAYOUT_PAGE);
 907              		.loc 1 229 0
 908 03f2 4FF40070 		mov	r0, #512
 909 03f6 FFF7FEFF 		bl	LoadEepromPage
ARM GAS  C:\Users\RECEPC~1\AppData\Local\Temp\cc7aDVfG.s 			page 21


 230:.\AdvantageImpl.c ****                     if(GetEepromBuffer()[0] == ((pjob->_ppump->_rxbuffer[0x04] & 0x0F) + 1))
 910              		.loc 1 230 0
 911 03fa FFF7FEFF 		bl	GetEepromBuffer
 912 03fe 0346     		mov	r3, r0
 913 0400 1B78     		ldrb	r3, [r3]	@ zero_extendqisi2
 914 0402 1A46     		mov	r2, r3
 915 0404 7B69     		ldr	r3, [r7, #20]
 916 0406 DB69     		ldr	r3, [r3, #28]
 917 0408 93F8A431 		ldrb	r3, [r3, #420]	@ zero_extendqisi2
 918 040c 03F00F03 		and	r3, r3, #15
 919 0410 0133     		adds	r3, r3, #1
 920 0412 9A42     		cmp	r2, r3
 921 0414 22D1     		bne	.L31
 231:.\AdvantageImpl.c ****                     {
 232:.\AdvantageImpl.c ****                         ClearEepromBuffer();
 922              		.loc 1 232 0
 923 0416 FFF7FEFF 		bl	ClearEepromBuffer
 233:.\AdvantageImpl.c ****                         //Storing the current Date/Time for this transaction
 234:.\AdvantageImpl.c ****                         memcpy(GetEepromBuffer(), GetRtcBuffer(), 0x07);
 924              		.loc 1 234 0
 925 041a FFF7FEFF 		bl	GetEepromBuffer
 926 041e 0446     		mov	r4, r0
 927 0420 FFF7FEFF 		bl	GetRtcBuffer
 928 0424 0346     		mov	r3, r0
 929 0426 2046     		mov	r0, r4
 930 0428 1946     		mov	r1, r3
 931 042a 0722     		movs	r2, #7
 932 042c FFF7FEFF 		bl	memcpy
 235:.\AdvantageImpl.c ****                         memcpy(&GetEepromBuffer()[0x07], pjob->_ppump->_rxbuffer, pjob->_ppump->_rx
 933              		.loc 1 235 0
 934 0430 FFF7FEFF 		bl	GetEepromBuffer
 935 0434 0346     		mov	r3, r0
 936 0436 D91D     		adds	r1, r3, #7
 937 0438 7B69     		ldr	r3, [r7, #20]
 938 043a DB69     		ldr	r3, [r3, #28]
 939 043c 03F5D072 		add	r2, r3, #416
 940 0440 7B69     		ldr	r3, [r7, #20]
 941 0442 DB69     		ldr	r3, [r3, #28]
 942 0444 B3F82033 		ldrh	r3, [r3, #800]
 943 0448 0846     		mov	r0, r1
 944 044a 1146     		mov	r1, r2
 945 044c 1A46     		mov	r2, r3
 946 044e FFF7FEFF 		bl	memcpy
 236:.\AdvantageImpl.c ****                         StoreEepromPage(EEPROM_DISPENSER_PUMP12_TRANSACTION_PAGE);
 947              		.loc 1 236 0
 948 0452 4FF4C860 		mov	r0, #1600
 949 0456 FFF7FEFF 		bl	StoreEepromPage
 950 045a 7EE1     		b	.L35
 951              	.L31:
 237:.\AdvantageImpl.c ****                     }
 238:.\AdvantageImpl.c ****                     else
 239:.\AdvantageImpl.c ****                     {
 240:.\AdvantageImpl.c ****                         ClearEepromBuffer();
 952              		.loc 1 240 0
 953 045c FFF7FEFF 		bl	ClearEepromBuffer
 241:.\AdvantageImpl.c ****                         LoadEepromPage(EEPROM_DISPENSER_PUMP2_LAYOUT_PAGE);
 954              		.loc 1 241 0
ARM GAS  C:\Users\RECEPC~1\AppData\Local\Temp\cc7aDVfG.s 			page 22


 955 0460 4FF41070 		mov	r0, #576
 956 0464 FFF7FEFF 		bl	LoadEepromPage
 242:.\AdvantageImpl.c ****                         if(GetEepromBuffer()[0] == ((pjob->_ppump->_rxbuffer[0x04] & 0x0F) + 1))
 957              		.loc 1 242 0
 958 0468 FFF7FEFF 		bl	GetEepromBuffer
 959 046c 0346     		mov	r3, r0
 960 046e 1B78     		ldrb	r3, [r3]	@ zero_extendqisi2
 961 0470 1A46     		mov	r2, r3
 962 0472 7B69     		ldr	r3, [r7, #20]
 963 0474 DB69     		ldr	r3, [r3, #28]
 964 0476 93F8A431 		ldrb	r3, [r3, #420]	@ zero_extendqisi2
 965 047a 03F00F03 		and	r3, r3, #15
 966 047e 0133     		adds	r3, r3, #1
 967 0480 9A42     		cmp	r2, r3
 968 0482 22D1     		bne	.L33
 243:.\AdvantageImpl.c ****                         {
 244:.\AdvantageImpl.c ****                             ClearEepromBuffer();
 969              		.loc 1 244 0
 970 0484 FFF7FEFF 		bl	ClearEepromBuffer
 245:.\AdvantageImpl.c ****                             //Storing the current Date/Time for this transaction
 246:.\AdvantageImpl.c ****                             memcpy(GetEepromBuffer(), GetRtcBuffer(), 0x07);
 971              		.loc 1 246 0
 972 0488 FFF7FEFF 		bl	GetEepromBuffer
 973 048c 0446     		mov	r4, r0
 974 048e FFF7FEFF 		bl	GetRtcBuffer
 975 0492 0346     		mov	r3, r0
 976 0494 2046     		mov	r0, r4
 977 0496 1946     		mov	r1, r3
 978 0498 0722     		movs	r2, #7
 979 049a FFF7FEFF 		bl	memcpy
 247:.\AdvantageImpl.c ****                             memcpy(&GetEepromBuffer()[0x07], pjob->_ppump->_rxbuffer, pjob->_ppump-
 980              		.loc 1 247 0
 981 049e FFF7FEFF 		bl	GetEepromBuffer
 982 04a2 0346     		mov	r3, r0
 983 04a4 D91D     		adds	r1, r3, #7
 984 04a6 7B69     		ldr	r3, [r7, #20]
 985 04a8 DB69     		ldr	r3, [r3, #28]
 986 04aa 03F5D072 		add	r2, r3, #416
 987 04ae 7B69     		ldr	r3, [r7, #20]
 988 04b0 DB69     		ldr	r3, [r3, #28]
 989 04b2 B3F82033 		ldrh	r3, [r3, #800]
 990 04b6 0846     		mov	r0, r1
 991 04b8 1146     		mov	r1, r2
 992 04ba 1A46     		mov	r2, r3
 993 04bc FFF7FEFF 		bl	memcpy
 248:.\AdvantageImpl.c ****                             StoreEepromPage(EEPROM_DISPENSER_PUMP22_TRANSACTION_PAGE);
 994              		.loc 1 248 0
 995 04c0 4FF4E860 		mov	r0, #1856
 996 04c4 FFF7FEFF 		bl	StoreEepromPage
 997 04c8 47E1     		b	.L35
 998              	.L33:
 249:.\AdvantageImpl.c ****                         }
 250:.\AdvantageImpl.c ****                         else
 251:.\AdvantageImpl.c ****                         {
 252:.\AdvantageImpl.c ****                             ClearEepromBuffer();
 999              		.loc 1 252 0
 1000 04ca FFF7FEFF 		bl	ClearEepromBuffer
ARM GAS  C:\Users\RECEPC~1\AppData\Local\Temp\cc7aDVfG.s 			page 23


 253:.\AdvantageImpl.c ****                             LoadEepromPage(EEPROM_DISPENSER_PUMP3_LAYOUT_PAGE);
 1001              		.loc 1 253 0
 1002 04ce 4FF42070 		mov	r0, #640
 1003 04d2 FFF7FEFF 		bl	LoadEepromPage
 254:.\AdvantageImpl.c ****                             if(GetEepromBuffer()[0] == ((pjob->_ppump->_rxbuffer[0x04] & 0x0F) + 1)
 1004              		.loc 1 254 0
 1005 04d6 FFF7FEFF 		bl	GetEepromBuffer
 1006 04da 0346     		mov	r3, r0
 1007 04dc 1B78     		ldrb	r3, [r3]	@ zero_extendqisi2
 1008 04de 1A46     		mov	r2, r3
 1009 04e0 7B69     		ldr	r3, [r7, #20]
 1010 04e2 DB69     		ldr	r3, [r3, #28]
 1011 04e4 93F8A431 		ldrb	r3, [r3, #420]	@ zero_extendqisi2
 1012 04e8 03F00F03 		and	r3, r3, #15
 1013 04ec 0133     		adds	r3, r3, #1
 1014 04ee 9A42     		cmp	r2, r3
 1015 04f0 22D1     		bne	.L34
 255:.\AdvantageImpl.c ****                             {
 256:.\AdvantageImpl.c ****                                 ClearEepromBuffer();
 1016              		.loc 1 256 0
 1017 04f2 FFF7FEFF 		bl	ClearEepromBuffer
 257:.\AdvantageImpl.c ****                                 //Storing the current Date/Time for this transaction
 258:.\AdvantageImpl.c ****                                 memcpy(GetEepromBuffer(), GetRtcBuffer(), 0x07);
 1018              		.loc 1 258 0
 1019 04f6 FFF7FEFF 		bl	GetEepromBuffer
 1020 04fa 0446     		mov	r4, r0
 1021 04fc FFF7FEFF 		bl	GetRtcBuffer
 1022 0500 0346     		mov	r3, r0
 1023 0502 2046     		mov	r0, r4
 1024 0504 1946     		mov	r1, r3
 1025 0506 0722     		movs	r2, #7
 1026 0508 FFF7FEFF 		bl	memcpy
 259:.\AdvantageImpl.c ****                                 memcpy(&GetEepromBuffer()[0x07], pjob->_ppump->_rxbuffer, pjob->_pp
 1027              		.loc 1 259 0
 1028 050c FFF7FEFF 		bl	GetEepromBuffer
 1029 0510 0346     		mov	r3, r0
 1030 0512 D91D     		adds	r1, r3, #7
 1031 0514 7B69     		ldr	r3, [r7, #20]
 1032 0516 DB69     		ldr	r3, [r3, #28]
 1033 0518 03F5D072 		add	r2, r3, #416
 1034 051c 7B69     		ldr	r3, [r7, #20]
 1035 051e DB69     		ldr	r3, [r3, #28]
 1036 0520 B3F82033 		ldrh	r3, [r3, #800]
 1037 0524 0846     		mov	r0, r1
 1038 0526 1146     		mov	r1, r2
 1039 0528 1A46     		mov	r2, r3
 1040 052a FFF7FEFF 		bl	memcpy
 260:.\AdvantageImpl.c ****                                 StoreEepromPage(EEPROM_DISPENSER_PUMP32_TRANSACTION_PAGE);
 1041              		.loc 1 260 0
 1042 052e 4FF40460 		mov	r0, #2112
 1043 0532 FFF7FEFF 		bl	StoreEepromPage
 1044 0536 10E1     		b	.L35
 1045              	.L34:
 261:.\AdvantageImpl.c ****                             }
 262:.\AdvantageImpl.c ****                             else
 263:.\AdvantageImpl.c ****                             {
 264:.\AdvantageImpl.c ****                                 ClearEepromBuffer();
ARM GAS  C:\Users\RECEPC~1\AppData\Local\Temp\cc7aDVfG.s 			page 24


 1046              		.loc 1 264 0
 1047 0538 FFF7FEFF 		bl	ClearEepromBuffer
 265:.\AdvantageImpl.c ****                                 LoadEepromPage(EEPROM_DISPENSER_PUMP4_LAYOUT_PAGE);
 1048              		.loc 1 265 0
 1049 053c 4FF43070 		mov	r0, #704
 1050 0540 FFF7FEFF 		bl	LoadEepromPage
 266:.\AdvantageImpl.c ****                                 if(GetEepromBuffer()[0] == ((pjob->_ppump->_rxbuffer[0x04] & 0x0F) 
 1051              		.loc 1 266 0
 1052 0544 FFF7FEFF 		bl	GetEepromBuffer
 1053 0548 0346     		mov	r3, r0
 1054 054a 1B78     		ldrb	r3, [r3]	@ zero_extendqisi2
 1055 054c 1A46     		mov	r2, r3
 1056 054e 7B69     		ldr	r3, [r7, #20]
 1057 0550 DB69     		ldr	r3, [r3, #28]
 1058 0552 93F8A431 		ldrb	r3, [r3, #420]	@ zero_extendqisi2
 1059 0556 03F00F03 		and	r3, r3, #15
 1060 055a 0133     		adds	r3, r3, #1
 1061 055c 9A42     		cmp	r2, r3
 1062 055e 40F0FC80 		bne	.L35
 267:.\AdvantageImpl.c ****                                 {
 268:.\AdvantageImpl.c ****                                     ClearEepromBuffer();
 1063              		.loc 1 268 0
 1064 0562 FFF7FEFF 		bl	ClearEepromBuffer
 269:.\AdvantageImpl.c ****                                     //Storing the current Date/Time for this transaction
 270:.\AdvantageImpl.c ****                                     memcpy(GetEepromBuffer(), GetRtcBuffer(), 0x07);
 1065              		.loc 1 270 0
 1066 0566 FFF7FEFF 		bl	GetEepromBuffer
 1067 056a 0446     		mov	r4, r0
 1068 056c FFF7FEFF 		bl	GetRtcBuffer
 1069 0570 0346     		mov	r3, r0
 1070 0572 2046     		mov	r0, r4
 1071 0574 1946     		mov	r1, r3
 1072 0576 0722     		movs	r2, #7
 1073 0578 FFF7FEFF 		bl	memcpy
 271:.\AdvantageImpl.c ****                                     memcpy(&GetEepromBuffer()[0x07], pjob->_ppump->_rxbuffer, pjob-
 1074              		.loc 1 271 0
 1075 057c FFF7FEFF 		bl	GetEepromBuffer
 1076 0580 0346     		mov	r3, r0
 1077 0582 D91D     		adds	r1, r3, #7
 1078 0584 7B69     		ldr	r3, [r7, #20]
 1079 0586 DB69     		ldr	r3, [r3, #28]
 1080 0588 03F5D072 		add	r2, r3, #416
 1081 058c 7B69     		ldr	r3, [r7, #20]
 1082 058e DB69     		ldr	r3, [r3, #28]
 1083 0590 B3F82033 		ldrh	r3, [r3, #800]
 1084 0594 0846     		mov	r0, r1
 1085 0596 1146     		mov	r1, r2
 1086 0598 1A46     		mov	r2, r3
 1087 059a FFF7FEFF 		bl	memcpy
 272:.\AdvantageImpl.c ****                                     StoreEepromPage(EEPROM_DISPENSER_PUMP42_TRANSACTION_PAGE);
 1088              		.loc 1 272 0
 1089 059e 4FF41460 		mov	r0, #2368
 1090 05a2 FFF7FEFF 		bl	StoreEepromPage
 1091 05a6 D8E0     		b	.L35
 1092              	.L30:
 273:.\AdvantageImpl.c ****                                 }
 274:.\AdvantageImpl.c ****                             }
ARM GAS  C:\Users\RECEPC~1\AppData\Local\Temp\cc7aDVfG.s 			page 25


 275:.\AdvantageImpl.c ****                         }
 276:.\AdvantageImpl.c ****                     }
 277:.\AdvantageImpl.c ****                 }else{//CREDIT TRANSACTION
 278:.\AdvantageImpl.c ****                     //HERE WE STORE THE LAST TRANSACTION IN EEPROM! ALWAYS THE PREVIOUS TRANSACTION
 279:.\AdvantageImpl.c ****                     //WILL BE OVERWRITTEN AND LOST.
 280:.\AdvantageImpl.c ****                     //IN CASE OF A "CREDIT SALE", THE WHOLE DATA WILL BE STORED IN A SEPARATE MEMOR
 281:.\AdvantageImpl.c ****                     //SINCE IN CASE OF A RF LINK DROP, THE STATE OF THE SALE COULD BE RECOVERED BY 
 282:.\AdvantageImpl.c ****                     LoadEepromPage(EEPROM_DISPENSER_PUMP1_LAYOUT_PAGE);
 1093              		.loc 1 282 0
 1094 05a8 4FF40070 		mov	r0, #512
 1095 05ac FFF7FEFF 		bl	LoadEepromPage
 283:.\AdvantageImpl.c ****                     if(GetEepromBuffer()[0] == ((pjob->_ppump->_rxbuffer[0x04] & 0x0F) + 1))
 1096              		.loc 1 283 0
 1097 05b0 FFF7FEFF 		bl	GetEepromBuffer
 1098 05b4 0346     		mov	r3, r0
 1099 05b6 1B78     		ldrb	r3, [r3]	@ zero_extendqisi2
 1100 05b8 1A46     		mov	r2, r3
 1101 05ba 7B69     		ldr	r3, [r7, #20]
 1102 05bc DB69     		ldr	r3, [r3, #28]
 1103 05be 93F8A431 		ldrb	r3, [r3, #420]	@ zero_extendqisi2
 1104 05c2 03F00F03 		and	r3, r3, #15
 1105 05c6 0133     		adds	r3, r3, #1
 1106 05c8 9A42     		cmp	r2, r3
 1107 05ca 22D1     		bne	.L36
 284:.\AdvantageImpl.c ****                     {
 285:.\AdvantageImpl.c ****                         ClearEepromBuffer();
 1108              		.loc 1 285 0
 1109 05cc FFF7FEFF 		bl	ClearEepromBuffer
 286:.\AdvantageImpl.c ****                         //Storing the current Date/Time for this transaction
 287:.\AdvantageImpl.c ****                         memcpy(GetEepromBuffer(), GetRtcBuffer(), 0x07);
 1110              		.loc 1 287 0
 1111 05d0 FFF7FEFF 		bl	GetEepromBuffer
 1112 05d4 0446     		mov	r4, r0
 1113 05d6 FFF7FEFF 		bl	GetRtcBuffer
 1114 05da 0346     		mov	r3, r0
 1115 05dc 2046     		mov	r0, r4
 1116 05de 1946     		mov	r1, r3
 1117 05e0 0722     		movs	r2, #7
 1118 05e2 FFF7FEFF 		bl	memcpy
 288:.\AdvantageImpl.c ****                         memcpy(&GetEepromBuffer()[0x07], pjob->_ppump->_rxbuffer, pjob->_ppump->_rx
 1119              		.loc 1 288 0
 1120 05e6 FFF7FEFF 		bl	GetEepromBuffer
 1121 05ea 0346     		mov	r3, r0
 1122 05ec D91D     		adds	r1, r3, #7
 1123 05ee 7B69     		ldr	r3, [r7, #20]
 1124 05f0 DB69     		ldr	r3, [r3, #28]
 1125 05f2 03F5D072 		add	r2, r3, #416
 1126 05f6 7B69     		ldr	r3, [r7, #20]
 1127 05f8 DB69     		ldr	r3, [r3, #28]
 1128 05fa B3F82033 		ldrh	r3, [r3, #800]
 1129 05fe 0846     		mov	r0, r1
 1130 0600 1146     		mov	r1, r2
 1131 0602 1A46     		mov	r2, r3
 1132 0604 FFF7FEFF 		bl	memcpy
 289:.\AdvantageImpl.c ****                         StoreEepromPage(EEPROM_DISPENSER_PUMP14_TRANSACTION_PAGE);
 1133              		.loc 1 289 0
 1134 0608 4FF4D860 		mov	r0, #1728
ARM GAS  C:\Users\RECEPC~1\AppData\Local\Temp\cc7aDVfG.s 			page 26


 1135 060c FFF7FEFF 		bl	StoreEepromPage
 1136 0610 A3E0     		b	.L35
 1137              	.L36:
 290:.\AdvantageImpl.c ****                     }
 291:.\AdvantageImpl.c ****                     else
 292:.\AdvantageImpl.c ****                     {
 293:.\AdvantageImpl.c ****                         ClearEepromBuffer();
 1138              		.loc 1 293 0
 1139 0612 FFF7FEFF 		bl	ClearEepromBuffer
 294:.\AdvantageImpl.c ****                         LoadEepromPage(EEPROM_DISPENSER_PUMP2_LAYOUT_PAGE);
 1140              		.loc 1 294 0
 1141 0616 4FF41070 		mov	r0, #576
 1142 061a FFF7FEFF 		bl	LoadEepromPage
 295:.\AdvantageImpl.c ****                         if(GetEepromBuffer()[0] == ((pjob->_ppump->_rxbuffer[0x04] & 0x0F) + 1))
 1143              		.loc 1 295 0
 1144 061e FFF7FEFF 		bl	GetEepromBuffer
 1145 0622 0346     		mov	r3, r0
 1146 0624 1B78     		ldrb	r3, [r3]	@ zero_extendqisi2
 1147 0626 1A46     		mov	r2, r3
 1148 0628 7B69     		ldr	r3, [r7, #20]
 1149 062a DB69     		ldr	r3, [r3, #28]
 1150 062c 93F8A431 		ldrb	r3, [r3, #420]	@ zero_extendqisi2
 1151 0630 03F00F03 		and	r3, r3, #15
 1152 0634 0133     		adds	r3, r3, #1
 1153 0636 9A42     		cmp	r2, r3
 1154 0638 22D1     		bne	.L37
 296:.\AdvantageImpl.c ****                         {
 297:.\AdvantageImpl.c ****                             ClearEepromBuffer();
 1155              		.loc 1 297 0
 1156 063a FFF7FEFF 		bl	ClearEepromBuffer
 298:.\AdvantageImpl.c ****                             //Storing the current Date/Time for this transaction
 299:.\AdvantageImpl.c ****                             memcpy(GetEepromBuffer(), GetRtcBuffer(), 0x07);
 1157              		.loc 1 299 0
 1158 063e FFF7FEFF 		bl	GetEepromBuffer
 1159 0642 0446     		mov	r4, r0
 1160 0644 FFF7FEFF 		bl	GetRtcBuffer
 1161 0648 0346     		mov	r3, r0
 1162 064a 2046     		mov	r0, r4
 1163 064c 1946     		mov	r1, r3
 1164 064e 0722     		movs	r2, #7
 1165 0650 FFF7FEFF 		bl	memcpy
 300:.\AdvantageImpl.c ****                             memcpy(&GetEepromBuffer()[0x07], pjob->_ppump->_rxbuffer, pjob->_ppump-
 1166              		.loc 1 300 0
 1167 0654 FFF7FEFF 		bl	GetEepromBuffer
 1168 0658 0346     		mov	r3, r0
 1169 065a D91D     		adds	r1, r3, #7
 1170 065c 7B69     		ldr	r3, [r7, #20]
 1171 065e DB69     		ldr	r3, [r3, #28]
 1172 0660 03F5D072 		add	r2, r3, #416
 1173 0664 7B69     		ldr	r3, [r7, #20]
 1174 0666 DB69     		ldr	r3, [r3, #28]
 1175 0668 B3F82033 		ldrh	r3, [r3, #800]
 1176 066c 0846     		mov	r0, r1
 1177 066e 1146     		mov	r1, r2
 1178 0670 1A46     		mov	r2, r3
 1179 0672 FFF7FEFF 		bl	memcpy
 301:.\AdvantageImpl.c ****                             StoreEepromPage(EEPROM_DISPENSER_PUMP24_TRANSACTION_PAGE);
ARM GAS  C:\Users\RECEPC~1\AppData\Local\Temp\cc7aDVfG.s 			page 27


 1180              		.loc 1 301 0
 1181 0676 4FF4F860 		mov	r0, #1984
 1182 067a FFF7FEFF 		bl	StoreEepromPage
 1183 067e 6CE0     		b	.L35
 1184              	.L37:
 302:.\AdvantageImpl.c ****                         }
 303:.\AdvantageImpl.c ****                         else
 304:.\AdvantageImpl.c ****                         {
 305:.\AdvantageImpl.c ****                             ClearEepromBuffer();
 1185              		.loc 1 305 0
 1186 0680 FFF7FEFF 		bl	ClearEepromBuffer
 306:.\AdvantageImpl.c ****                             LoadEepromPage(EEPROM_DISPENSER_PUMP3_LAYOUT_PAGE);
 1187              		.loc 1 306 0
 1188 0684 4FF42070 		mov	r0, #640
 1189 0688 FFF7FEFF 		bl	LoadEepromPage
 307:.\AdvantageImpl.c ****                             if(GetEepromBuffer()[0] == ((pjob->_ppump->_rxbuffer[0x04] & 0x0F) + 1)
 1190              		.loc 1 307 0
 1191 068c FFF7FEFF 		bl	GetEepromBuffer
 1192 0690 0346     		mov	r3, r0
 1193 0692 1B78     		ldrb	r3, [r3]	@ zero_extendqisi2
 1194 0694 1A46     		mov	r2, r3
 1195 0696 7B69     		ldr	r3, [r7, #20]
 1196 0698 DB69     		ldr	r3, [r3, #28]
 1197 069a 93F8A431 		ldrb	r3, [r3, #420]	@ zero_extendqisi2
 1198 069e 03F00F03 		and	r3, r3, #15
 1199 06a2 0133     		adds	r3, r3, #1
 1200 06a4 9A42     		cmp	r2, r3
 1201 06a6 22D1     		bne	.L38
 308:.\AdvantageImpl.c ****                             {
 309:.\AdvantageImpl.c ****                                 ClearEepromBuffer();
 1202              		.loc 1 309 0
 1203 06a8 FFF7FEFF 		bl	ClearEepromBuffer
 310:.\AdvantageImpl.c ****                                 //Storing the current Date/Time for this transaction
 311:.\AdvantageImpl.c ****                                 memcpy(GetEepromBuffer(), GetRtcBuffer(), 0x07);
 1204              		.loc 1 311 0
 1205 06ac FFF7FEFF 		bl	GetEepromBuffer
 1206 06b0 0446     		mov	r4, r0
 1207 06b2 FFF7FEFF 		bl	GetRtcBuffer
 1208 06b6 0346     		mov	r3, r0
 1209 06b8 2046     		mov	r0, r4
 1210 06ba 1946     		mov	r1, r3
 1211 06bc 0722     		movs	r2, #7
 1212 06be FFF7FEFF 		bl	memcpy
 312:.\AdvantageImpl.c ****                                 memcpy(&GetEepromBuffer()[0x07], pjob->_ppump->_rxbuffer, pjob->_pp
 1213              		.loc 1 312 0
 1214 06c2 FFF7FEFF 		bl	GetEepromBuffer
 1215 06c6 0346     		mov	r3, r0
 1216 06c8 D91D     		adds	r1, r3, #7
 1217 06ca 7B69     		ldr	r3, [r7, #20]
 1218 06cc DB69     		ldr	r3, [r3, #28]
 1219 06ce 03F5D072 		add	r2, r3, #416
 1220 06d2 7B69     		ldr	r3, [r7, #20]
 1221 06d4 DB69     		ldr	r3, [r3, #28]
 1222 06d6 B3F82033 		ldrh	r3, [r3, #800]
 1223 06da 0846     		mov	r0, r1
 1224 06dc 1146     		mov	r1, r2
 1225 06de 1A46     		mov	r2, r3
ARM GAS  C:\Users\RECEPC~1\AppData\Local\Temp\cc7aDVfG.s 			page 28


 1226 06e0 FFF7FEFF 		bl	memcpy
 313:.\AdvantageImpl.c ****                                 StoreEepromPage(EEPROM_DISPENSER_PUMP34_TRANSACTION_PAGE);
 1227              		.loc 1 313 0
 1228 06e4 4FF40C60 		mov	r0, #2240
 1229 06e8 FFF7FEFF 		bl	StoreEepromPage
 1230 06ec 35E0     		b	.L35
 1231              	.L38:
 314:.\AdvantageImpl.c ****                             }
 315:.\AdvantageImpl.c ****                             else
 316:.\AdvantageImpl.c ****                             {
 317:.\AdvantageImpl.c ****                                 ClearEepromBuffer();
 1232              		.loc 1 317 0
 1233 06ee FFF7FEFF 		bl	ClearEepromBuffer
 318:.\AdvantageImpl.c ****                                 LoadEepromPage(EEPROM_DISPENSER_PUMP4_LAYOUT_PAGE);
 1234              		.loc 1 318 0
 1235 06f2 4FF43070 		mov	r0, #704
 1236 06f6 FFF7FEFF 		bl	LoadEepromPage
 319:.\AdvantageImpl.c ****                                 if(GetEepromBuffer()[0] == ((pjob->_ppump->_rxbuffer[0x04] & 0x0F) 
 1237              		.loc 1 319 0
 1238 06fa FFF7FEFF 		bl	GetEepromBuffer
 1239 06fe 0346     		mov	r3, r0
 1240 0700 1B78     		ldrb	r3, [r3]	@ zero_extendqisi2
 1241 0702 1A46     		mov	r2, r3
 1242 0704 7B69     		ldr	r3, [r7, #20]
 1243 0706 DB69     		ldr	r3, [r3, #28]
 1244 0708 93F8A431 		ldrb	r3, [r3, #420]	@ zero_extendqisi2
 1245 070c 03F00F03 		and	r3, r3, #15
 1246 0710 0133     		adds	r3, r3, #1
 1247 0712 9A42     		cmp	r2, r3
 1248 0714 21D1     		bne	.L35
 320:.\AdvantageImpl.c ****                                 {
 321:.\AdvantageImpl.c ****                                     ClearEepromBuffer();
 1249              		.loc 1 321 0
 1250 0716 FFF7FEFF 		bl	ClearEepromBuffer
 322:.\AdvantageImpl.c ****                                     //Storing the current Date/Time for this transaction
 323:.\AdvantageImpl.c ****                                     memcpy(GetEepromBuffer(), GetRtcBuffer(), 0x07);
 1251              		.loc 1 323 0
 1252 071a FFF7FEFF 		bl	GetEepromBuffer
 1253 071e 0446     		mov	r4, r0
 1254 0720 FFF7FEFF 		bl	GetRtcBuffer
 1255 0724 0346     		mov	r3, r0
 1256 0726 2046     		mov	r0, r4
 1257 0728 1946     		mov	r1, r3
 1258 072a 0722     		movs	r2, #7
 1259 072c FFF7FEFF 		bl	memcpy
 324:.\AdvantageImpl.c ****                                     memcpy(&GetEepromBuffer()[0x07], pjob->_ppump->_rxbuffer, pjob-
 1260              		.loc 1 324 0
 1261 0730 FFF7FEFF 		bl	GetEepromBuffer
 1262 0734 0346     		mov	r3, r0
 1263 0736 D91D     		adds	r1, r3, #7
 1264 0738 7B69     		ldr	r3, [r7, #20]
 1265 073a DB69     		ldr	r3, [r3, #28]
 1266 073c 03F5D072 		add	r2, r3, #416
 1267 0740 7B69     		ldr	r3, [r7, #20]
 1268 0742 DB69     		ldr	r3, [r3, #28]
 1269 0744 B3F82033 		ldrh	r3, [r3, #800]
 1270 0748 0846     		mov	r0, r1
ARM GAS  C:\Users\RECEPC~1\AppData\Local\Temp\cc7aDVfG.s 			page 29


 1271 074a 1146     		mov	r1, r2
 1272 074c 1A46     		mov	r2, r3
 1273 074e FFF7FEFF 		bl	memcpy
 325:.\AdvantageImpl.c ****                                     StoreEepromPage(EEPROM_DISPENSER_PUMP44_TRANSACTION_PAGE);
 1274              		.loc 1 325 0
 1275 0752 4FF41C60 		mov	r0, #2496
 1276 0756 FFF7FEFF 		bl	StoreEepromPage
 1277              	.L35:
 326:.\AdvantageImpl.c ****                                 }
 327:.\AdvantageImpl.c ****                             }
 328:.\AdvantageImpl.c ****                         }
 329:.\AdvantageImpl.c ****                     }
 330:.\AdvantageImpl.c ****                 }
 331:.\AdvantageImpl.c ****                 I2CBusUnlock();
 1278              		.loc 1 331 0
 1279 075a FFF7FEFF 		bl	I2CBusUnlock
 1280 075e CBE3     		b	.L39
 1281              	.L21:
 332:.\AdvantageImpl.c ****             }
 333:.\AdvantageImpl.c ****             else
 334:.\AdvantageImpl.c ****             {            
 335:.\AdvantageImpl.c ****                 pjob->_ppump->_rxbuffer[0x09] = (pjob->_ppump->_rxbuffer[0x09] & 0x0F);//Hose id
 1282              		.loc 1 335 0
 1283 0760 7B69     		ldr	r3, [r7, #20]
 1284 0762 DB69     		ldr	r3, [r3, #28]
 1285 0764 7A69     		ldr	r2, [r7, #20]
 1286 0766 D269     		ldr	r2, [r2, #28]
 1287 0768 92F8A921 		ldrb	r2, [r2, #425]	@ zero_extendqisi2
 1288 076c 02F00F02 		and	r2, r2, #15
 1289 0770 D2B2     		uxtb	r2, r2
 1290 0772 83F8A921 		strb	r2, [r3, #425]
 336:.\AdvantageImpl.c ****                 pjob->_ppump->_authorizationinfo._hoseid = pjob->_ppump->_rxbuffer[0x09];//Hose id
 1291              		.loc 1 336 0
 1292 0776 7B69     		ldr	r3, [r7, #20]
 1293 0778 DB69     		ldr	r3, [r3, #28]
 1294 077a 7A69     		ldr	r2, [r7, #20]
 1295 077c D269     		ldr	r2, [r2, #28]
 1296 077e 92F8A921 		ldrb	r2, [r2, #425]	@ zero_extendqisi2
 1297 0782 83F8AA2B 		strb	r2, [r3, #2986]
 337:.\AdvantageImpl.c ****                 
 338:.\AdvantageImpl.c ****                 //In this position is located the payment type (CREDIT: 0x0E , CASH:0x0D)
 339:.\AdvantageImpl.c ****                 if(pjob->_ppump->_trasactionbuffer[0x00] == 0x0D)
 1298              		.loc 1 339 0
 1299 0786 7B69     		ldr	r3, [r7, #20]
 1300 0788 DB69     		ldr	r3, [r3, #28]
 1301 078a 93F82030 		ldrb	r3, [r3, #32]	@ zero_extendqisi2
 1302 078e 0D2B     		cmp	r3, #13
 1303 0790 40F0E080 		bne	.L40
 1304              	.LBB5:
 340:.\AdvantageImpl.c ****                 {
 341:.\AdvantageImpl.c ****                     I2CBusLock();
 1305              		.loc 1 341 0
 1306 0794 FFF7FEFF 		bl	I2CBusLock
 342:.\AdvantageImpl.c ****                     ClearEepromBuffer();
 1307              		.loc 1 342 0
 1308 0798 FFF7FEFF 		bl	ClearEepromBuffer
 343:.\AdvantageImpl.c ****                     uint16 eeprompage = DispenserGetEepromPPUPageFromPumpID(pjob->_ppump->_pumpid);
ARM GAS  C:\Users\RECEPC~1\AppData\Local\Temp\cc7aDVfG.s 			page 30


 1309              		.loc 1 343 0
 1310 079c 7B69     		ldr	r3, [r7, #20]
 1311 079e DB69     		ldr	r3, [r3, #28]
 1312 07a0 1B78     		ldrb	r3, [r3]	@ zero_extendqisi2
 1313 07a2 1846     		mov	r0, r3
 1314 07a4 FFF7FEFF 		bl	DispenserGetEepromPPUPageFromPumpID
 1315 07a8 0346     		mov	r3, r0
 1316 07aa FB81     		strh	r3, [r7, #14]	@ movhi
 344:.\AdvantageImpl.c ****                     LoadEepromPage(eeprompage);
 1317              		.loc 1 344 0
 1318 07ac FB89     		ldrh	r3, [r7, #14]
 1319 07ae 1846     		mov	r0, r3
 1320 07b0 FFF7FEFF 		bl	LoadEepromPage
 345:.\AdvantageImpl.c ****                     switch(pjob->_ppump->_authorizationinfo._hoseid)
 1321              		.loc 1 345 0
 1322 07b4 7B69     		ldr	r3, [r7, #20]
 1323 07b6 DB69     		ldr	r3, [r3, #28]
 1324 07b8 93F8AA3B 		ldrb	r3, [r3, #2986]
 1325 07bc DBB2     		uxtb	r3, r3
 1326 07be 032B     		cmp	r3, #3
 1327 07c0 64D8     		bhi	.L41
 1328 07c2 01A2     		adr	r2, .L43
 1329 07c4 52F823F0 		ldr	pc, [r2, r3, lsl #2]
 1330              		.p2align 2
 1331              	.L43:
 1332 07c8 D9070000 		.word	.L42+1
 1333 07cc 03080000 		.word	.L44+1
 1334 07d0 31080000 		.word	.L45+1
 1335 07d4 5F080000 		.word	.L46+1
 1336              		.p2align 1
 1337              	.L42:
 346:.\AdvantageImpl.c ****                     {
 347:.\AdvantageImpl.c ****                         case 0x00:
 348:.\AdvantageImpl.c ****                         //Six bytes only since the PPU is constrained to this length
 349:.\AdvantageImpl.c ****                         memcpy(PBYTECAST(&pjob->_ppump->_trasactionbuffer[GetBufferIndexFromDisplay
 1338              		.loc 1 349 0
 1339 07d8 7B69     		ldr	r3, [r7, #20]
 1340 07da DC69     		ldr	r4, [r3, #28]
 1341 07dc 6520     		movs	r0, #101
 1342 07de FFF7FEFF 		bl	GetBufferIndexFromDisplayID
 1343 07e2 0346     		mov	r3, r0
 1344 07e4 2033     		adds	r3, r3, #32
 1345 07e6 1C44     		add	r4, r4, r3
 1346 07e8 FFF7FEFF 		bl	GetEepromBuffer
 1347 07ec 0546     		mov	r5, r0
 1348 07ee 6520     		movs	r0, #101
 1349 07f0 FFF7FEFF 		bl	GetBufferLengthFromDisplayID
 1350 07f4 0346     		mov	r3, r0
 1351 07f6 2046     		mov	r0, r4
 1352 07f8 2946     		mov	r1, r5
 1353 07fa 1A46     		mov	r2, r3
 1354 07fc FFF7FEFF 		bl	memcpy
 350:.\AdvantageImpl.c ****                         break;
 1355              		.loc 1 350 0
 1356 0800 44E0     		b	.L41
 1357              	.L44:
 351:.\AdvantageImpl.c ****                         case 0x01:
ARM GAS  C:\Users\RECEPC~1\AppData\Local\Temp\cc7aDVfG.s 			page 31


 352:.\AdvantageImpl.c ****                         //Six bytes only since the PPU is constrained to this length
 353:.\AdvantageImpl.c ****                         memcpy(PBYTECAST(&pjob->_ppump->_trasactionbuffer[GetBufferIndexFromDisplay
 1358              		.loc 1 353 0
 1359 0802 7B69     		ldr	r3, [r7, #20]
 1360 0804 DC69     		ldr	r4, [r3, #28]
 1361 0806 6520     		movs	r0, #101
 1362 0808 FFF7FEFF 		bl	GetBufferIndexFromDisplayID
 1363 080c 0346     		mov	r3, r0
 1364 080e 2033     		adds	r3, r3, #32
 1365 0810 E518     		adds	r5, r4, r3
 1366 0812 FFF7FEFF 		bl	GetEepromBuffer
 1367 0816 0346     		mov	r3, r0
 1368 0818 03F11004 		add	r4, r3, #16
 1369 081c 6520     		movs	r0, #101
 1370 081e FFF7FEFF 		bl	GetBufferLengthFromDisplayID
 1371 0822 0346     		mov	r3, r0
 1372 0824 2846     		mov	r0, r5
 1373 0826 2146     		mov	r1, r4
 1374 0828 1A46     		mov	r2, r3
 1375 082a FFF7FEFF 		bl	memcpy
 354:.\AdvantageImpl.c ****                         break;
 1376              		.loc 1 354 0
 1377 082e 2DE0     		b	.L41
 1378              	.L45:
 355:.\AdvantageImpl.c ****                         case 0x02:
 356:.\AdvantageImpl.c ****                         //Six bytes only since the PPU is constrained to this length
 357:.\AdvantageImpl.c ****                         memcpy(PBYTECAST(&pjob->_ppump->_trasactionbuffer[GetBufferIndexFromDisplay
 1379              		.loc 1 357 0
 1380 0830 7B69     		ldr	r3, [r7, #20]
 1381 0832 DC69     		ldr	r4, [r3, #28]
 1382 0834 6520     		movs	r0, #101
 1383 0836 FFF7FEFF 		bl	GetBufferIndexFromDisplayID
 1384 083a 0346     		mov	r3, r0
 1385 083c 2033     		adds	r3, r3, #32
 1386 083e E518     		adds	r5, r4, r3
 1387 0840 FFF7FEFF 		bl	GetEepromBuffer
 1388 0844 0346     		mov	r3, r0
 1389 0846 03F12004 		add	r4, r3, #32
 1390 084a 6520     		movs	r0, #101
 1391 084c FFF7FEFF 		bl	GetBufferLengthFromDisplayID
 1392 0850 0346     		mov	r3, r0
 1393 0852 2846     		mov	r0, r5
 1394 0854 2146     		mov	r1, r4
 1395 0856 1A46     		mov	r2, r3
 1396 0858 FFF7FEFF 		bl	memcpy
 358:.\AdvantageImpl.c ****                         break;
 1397              		.loc 1 358 0
 1398 085c 16E0     		b	.L41
 1399              	.L46:
 359:.\AdvantageImpl.c ****                         case 0x03:
 360:.\AdvantageImpl.c ****                         //Six bytes only since the PPU is constrained to this length
 361:.\AdvantageImpl.c ****                         memcpy(PBYTECAST(&pjob->_ppump->_trasactionbuffer[GetBufferIndexFromDisplay
 1400              		.loc 1 361 0
 1401 085e 7B69     		ldr	r3, [r7, #20]
 1402 0860 DC69     		ldr	r4, [r3, #28]
 1403 0862 6520     		movs	r0, #101
 1404 0864 FFF7FEFF 		bl	GetBufferIndexFromDisplayID
ARM GAS  C:\Users\RECEPC~1\AppData\Local\Temp\cc7aDVfG.s 			page 32


 1405 0868 0346     		mov	r3, r0
 1406 086a 2033     		adds	r3, r3, #32
 1407 086c E518     		adds	r5, r4, r3
 1408 086e FFF7FEFF 		bl	GetEepromBuffer
 1409 0872 0346     		mov	r3, r0
 1410 0874 03F13004 		add	r4, r3, #48
 1411 0878 6520     		movs	r0, #101
 1412 087a FFF7FEFF 		bl	GetBufferLengthFromDisplayID
 1413 087e 0346     		mov	r3, r0
 1414 0880 2846     		mov	r0, r5
 1415 0882 2146     		mov	r1, r4
 1416 0884 1A46     		mov	r2, r3
 1417 0886 FFF7FEFF 		bl	memcpy
 362:.\AdvantageImpl.c ****                         break;
 1418              		.loc 1 362 0
 1419 088a 00BF     		nop
 1420              	.L41:
 363:.\AdvantageImpl.c ****                     }
 364:.\AdvantageImpl.c ****                     I2CBusUnlock();
 1421              		.loc 1 364 0
 1422 088c FFF7FEFF 		bl	I2CBusUnlock
 365:.\AdvantageImpl.c ****                     
 366:.\AdvantageImpl.c ****                     memcpy(PBYTECAST(&pjob->_ppump->_rxbuffer[0x0C]), PBYTECAST(&pjob->_ppump->_tra
 1423              		.loc 1 366 0
 1424 0890 7B69     		ldr	r3, [r7, #20]
 1425 0892 DB69     		ldr	r3, [r3, #28]
 1426 0894 03F5D675 		add	r5, r3, #428
 1427 0898 7B69     		ldr	r3, [r7, #20]
 1428 089a DC69     		ldr	r4, [r3, #28]
 1429 089c 6520     		movs	r0, #101
 1430 089e FFF7FEFF 		bl	GetBufferIndexFromDisplayID
 1431 08a2 0346     		mov	r3, r0
 1432 08a4 2033     		adds	r3, r3, #32
 1433 08a6 2344     		add	r3, r3, r4
 1434 08a8 2846     		mov	r0, r5
 1435 08aa 1946     		mov	r1, r3
 1436 08ac 0622     		movs	r2, #6
 1437 08ae FFF7FEFF 		bl	memcpy
 367:.\AdvantageImpl.c ****                     
 368:.\AdvantageImpl.c ****                     //Bytes from index 12 to 17 are the digits for the PPU used for the transaction
 369:.\AdvantageImpl.c ****                     //Digits are in BCD format
 370:.\AdvantageImpl.c ****                     pjob->_ppump->_rxbuffer[0x0C] = (pjob->_ppump->_rxbuffer[0x0C] & 0x0F);
 1438              		.loc 1 370 0
 1439 08b2 7B69     		ldr	r3, [r7, #20]
 1440 08b4 DB69     		ldr	r3, [r3, #28]
 1441 08b6 7A69     		ldr	r2, [r7, #20]
 1442 08b8 D269     		ldr	r2, [r2, #28]
 1443 08ba 92F8AC21 		ldrb	r2, [r2, #428]	@ zero_extendqisi2
 1444 08be 02F00F02 		and	r2, r2, #15
 1445 08c2 D2B2     		uxtb	r2, r2
 1446 08c4 83F8AC21 		strb	r2, [r3, #428]
 371:.\AdvantageImpl.c ****                     pjob->_ppump->_rxbuffer[0x0D] = (pjob->_ppump->_rxbuffer[0x0D] & 0x0F);
 1447              		.loc 1 371 0
 1448 08c8 7B69     		ldr	r3, [r7, #20]
 1449 08ca DB69     		ldr	r3, [r3, #28]
 1450 08cc 7A69     		ldr	r2, [r7, #20]
 1451 08ce D269     		ldr	r2, [r2, #28]
ARM GAS  C:\Users\RECEPC~1\AppData\Local\Temp\cc7aDVfG.s 			page 33


 1452 08d0 92F8AD21 		ldrb	r2, [r2, #429]	@ zero_extendqisi2
 1453 08d4 02F00F02 		and	r2, r2, #15
 1454 08d8 D2B2     		uxtb	r2, r2
 1455 08da 83F8AD21 		strb	r2, [r3, #429]
 372:.\AdvantageImpl.c ****                     pjob->_ppump->_rxbuffer[0x0E] = (pjob->_ppump->_rxbuffer[0x0E] & 0x0F);
 1456              		.loc 1 372 0
 1457 08de 7B69     		ldr	r3, [r7, #20]
 1458 08e0 DB69     		ldr	r3, [r3, #28]
 1459 08e2 7A69     		ldr	r2, [r7, #20]
 1460 08e4 D269     		ldr	r2, [r2, #28]
 1461 08e6 92F8AE21 		ldrb	r2, [r2, #430]	@ zero_extendqisi2
 1462 08ea 02F00F02 		and	r2, r2, #15
 1463 08ee D2B2     		uxtb	r2, r2
 1464 08f0 83F8AE21 		strb	r2, [r3, #430]
 373:.\AdvantageImpl.c ****                     pjob->_ppump->_rxbuffer[0x0F] = (pjob->_ppump->_rxbuffer[0x0F] & 0x0F);
 1465              		.loc 1 373 0
 1466 08f4 7B69     		ldr	r3, [r7, #20]
 1467 08f6 DB69     		ldr	r3, [r3, #28]
 1468 08f8 7A69     		ldr	r2, [r7, #20]
 1469 08fa D269     		ldr	r2, [r2, #28]
 1470 08fc 92F8AF21 		ldrb	r2, [r2, #431]	@ zero_extendqisi2
 1471 0900 02F00F02 		and	r2, r2, #15
 1472 0904 D2B2     		uxtb	r2, r2
 1473 0906 83F8AF21 		strb	r2, [r3, #431]
 374:.\AdvantageImpl.c ****                     pjob->_ppump->_rxbuffer[0x10] = (pjob->_ppump->_rxbuffer[0x10] & 0x0F);
 1474              		.loc 1 374 0
 1475 090a 7B69     		ldr	r3, [r7, #20]
 1476 090c DB69     		ldr	r3, [r3, #28]
 1477 090e 7A69     		ldr	r2, [r7, #20]
 1478 0910 D269     		ldr	r2, [r2, #28]
 1479 0912 92F8B021 		ldrb	r2, [r2, #432]	@ zero_extendqisi2
 1480 0916 02F00F02 		and	r2, r2, #15
 1481 091a D2B2     		uxtb	r2, r2
 1482 091c 83F8B021 		strb	r2, [r3, #432]
 375:.\AdvantageImpl.c ****                     pjob->_ppump->_rxbuffer[0x11] = (pjob->_ppump->_rxbuffer[0x11] & 0x0F);
 1483              		.loc 1 375 0
 1484 0920 7B69     		ldr	r3, [r7, #20]
 1485 0922 DB69     		ldr	r3, [r3, #28]
 1486 0924 7A69     		ldr	r2, [r7, #20]
 1487 0926 D269     		ldr	r2, [r2, #28]
 1488 0928 92F8B121 		ldrb	r2, [r2, #433]	@ zero_extendqisi2
 1489 092c 02F00F02 		and	r2, r2, #15
 1490 0930 D2B2     		uxtb	r2, r2
 1491 0932 83F8B121 		strb	r2, [r3, #433]
 376:.\AdvantageImpl.c ****                     pjob->_ppump->_authorizationinfo._price = LSDBCDBUFF2HEX(PBYTECAST(&pjob->_ppum
 1492              		.loc 1 376 0
 1493 0936 7B69     		ldr	r3, [r7, #20]
 1494 0938 DC69     		ldr	r4, [r3, #28]
 1495 093a 7B69     		ldr	r3, [r7, #20]
 1496 093c DB69     		ldr	r3, [r3, #28]
 1497 093e 03F5D673 		add	r3, r3, #428
 1498 0942 1846     		mov	r0, r3
 1499 0944 0621     		movs	r1, #6
 1500 0946 FFF7FEFF 		bl	LSDBCDBUFF2HEX
 1501 094a 0346     		mov	r3, r0
 1502 094c 9BB2     		uxth	r3, r3
 1503 094e A4F8AC3B 		strh	r3, [r4, #2988]	@ movhi
ARM GAS  C:\Users\RECEPC~1\AppData\Local\Temp\cc7aDVfG.s 			page 34


 1504              	.LBE5:
 1505 0952 41E0     		b	.L47
 1506              	.L40:
 377:.\AdvantageImpl.c ****                     
 378:.\AdvantageImpl.c ****                 }
 379:.\AdvantageImpl.c ****                 else
 380:.\AdvantageImpl.c ****                 {
 381:.\AdvantageImpl.c ****                     pjob->_ppump->_rxbuffer[0x0C] = (pjob->_ppump->_rxbuffer[0x0C] & 0x0F);
 1507              		.loc 1 381 0
 1508 0954 7B69     		ldr	r3, [r7, #20]
 1509 0956 DB69     		ldr	r3, [r3, #28]
 1510 0958 7A69     		ldr	r2, [r7, #20]
 1511 095a D269     		ldr	r2, [r2, #28]
 1512 095c 92F8AC21 		ldrb	r2, [r2, #428]	@ zero_extendqisi2
 1513 0960 02F00F02 		and	r2, r2, #15
 1514 0964 D2B2     		uxtb	r2, r2
 1515 0966 83F8AC21 		strb	r2, [r3, #428]
 382:.\AdvantageImpl.c ****                     pjob->_ppump->_rxbuffer[0x0D] = (pjob->_ppump->_rxbuffer[0x0D] & 0x0F);
 1516              		.loc 1 382 0
 1517 096a 7B69     		ldr	r3, [r7, #20]
 1518 096c DB69     		ldr	r3, [r3, #28]
 1519 096e 7A69     		ldr	r2, [r7, #20]
 1520 0970 D269     		ldr	r2, [r2, #28]
 1521 0972 92F8AD21 		ldrb	r2, [r2, #429]	@ zero_extendqisi2
 1522 0976 02F00F02 		and	r2, r2, #15
 1523 097a D2B2     		uxtb	r2, r2
 1524 097c 83F8AD21 		strb	r2, [r3, #429]
 383:.\AdvantageImpl.c ****                     pjob->_ppump->_rxbuffer[0x0E] = (pjob->_ppump->_rxbuffer[0x0E] & 0x0F);
 1525              		.loc 1 383 0
 1526 0980 7B69     		ldr	r3, [r7, #20]
 1527 0982 DB69     		ldr	r3, [r3, #28]
 1528 0984 7A69     		ldr	r2, [r7, #20]
 1529 0986 D269     		ldr	r2, [r2, #28]
 1530 0988 92F8AE21 		ldrb	r2, [r2, #430]	@ zero_extendqisi2
 1531 098c 02F00F02 		and	r2, r2, #15
 1532 0990 D2B2     		uxtb	r2, r2
 1533 0992 83F8AE21 		strb	r2, [r3, #430]
 384:.\AdvantageImpl.c ****                     pjob->_ppump->_rxbuffer[0x0F] = (pjob->_ppump->_rxbuffer[0x0F] & 0x0F);
 1534              		.loc 1 384 0
 1535 0996 7B69     		ldr	r3, [r7, #20]
 1536 0998 DB69     		ldr	r3, [r3, #28]
 1537 099a 7A69     		ldr	r2, [r7, #20]
 1538 099c D269     		ldr	r2, [r2, #28]
 1539 099e 92F8AF21 		ldrb	r2, [r2, #431]	@ zero_extendqisi2
 1540 09a2 02F00F02 		and	r2, r2, #15
 1541 09a6 D2B2     		uxtb	r2, r2
 1542 09a8 83F8AF21 		strb	r2, [r3, #431]
 385:.\AdvantageImpl.c ****                     pjob->_ppump->_rxbuffer[0x10] = (pjob->_ppump->_rxbuffer[0x10] & 0x0F);
 1543              		.loc 1 385 0
 1544 09ac 7B69     		ldr	r3, [r7, #20]
 1545 09ae DB69     		ldr	r3, [r3, #28]
 1546 09b0 7A69     		ldr	r2, [r7, #20]
 1547 09b2 D269     		ldr	r2, [r2, #28]
 1548 09b4 92F8B021 		ldrb	r2, [r2, #432]	@ zero_extendqisi2
 1549 09b8 02F00F02 		and	r2, r2, #15
 1550 09bc D2B2     		uxtb	r2, r2
 1551 09be 83F8B021 		strb	r2, [r3, #432]
ARM GAS  C:\Users\RECEPC~1\AppData\Local\Temp\cc7aDVfG.s 			page 35


 386:.\AdvantageImpl.c ****                     pjob->_ppump->_rxbuffer[0x11] = (pjob->_ppump->_rxbuffer[0x11] & 0x0F);
 1552              		.loc 1 386 0
 1553 09c2 7B69     		ldr	r3, [r7, #20]
 1554 09c4 DB69     		ldr	r3, [r3, #28]
 1555 09c6 7A69     		ldr	r2, [r7, #20]
 1556 09c8 D269     		ldr	r2, [r2, #28]
 1557 09ca 92F8B121 		ldrb	r2, [r2, #433]	@ zero_extendqisi2
 1558 09ce 02F00F02 		and	r2, r2, #15
 1559 09d2 D2B2     		uxtb	r2, r2
 1560 09d4 83F8B121 		strb	r2, [r3, #433]
 1561              	.L47:
 387:.\AdvantageImpl.c ****                 }
 388:.\AdvantageImpl.c ****                 
 389:.\AdvantageImpl.c ****                 //Bytes from index 19 to 26 are the digits for the fuel volume delivered in the tra
 390:.\AdvantageImpl.c ****                 //Digits are in BCD format
 391:.\AdvantageImpl.c ****                 pjob->_ppump->_rxbuffer[0x13] = (pjob->_ppump->_rxbuffer[0x13] & 0x0F);
 1562              		.loc 1 391 0
 1563 09d8 7B69     		ldr	r3, [r7, #20]
 1564 09da DB69     		ldr	r3, [r3, #28]
 1565 09dc 7A69     		ldr	r2, [r7, #20]
 1566 09de D269     		ldr	r2, [r2, #28]
 1567 09e0 92F8B321 		ldrb	r2, [r2, #435]	@ zero_extendqisi2
 1568 09e4 02F00F02 		and	r2, r2, #15
 1569 09e8 D2B2     		uxtb	r2, r2
 1570 09ea 83F8B321 		strb	r2, [r3, #435]
 392:.\AdvantageImpl.c ****                 pjob->_ppump->_rxbuffer[0x14] = (pjob->_ppump->_rxbuffer[0x14] & 0x0F);
 1571              		.loc 1 392 0
 1572 09ee 7B69     		ldr	r3, [r7, #20]
 1573 09f0 DB69     		ldr	r3, [r3, #28]
 1574 09f2 7A69     		ldr	r2, [r7, #20]
 1575 09f4 D269     		ldr	r2, [r2, #28]
 1576 09f6 92F8B421 		ldrb	r2, [r2, #436]	@ zero_extendqisi2
 1577 09fa 02F00F02 		and	r2, r2, #15
 1578 09fe D2B2     		uxtb	r2, r2
 1579 0a00 83F8B421 		strb	r2, [r3, #436]
 393:.\AdvantageImpl.c ****                 pjob->_ppump->_rxbuffer[0x15] = (pjob->_ppump->_rxbuffer[0x15] & 0x0F);
 1580              		.loc 1 393 0
 1581 0a04 7B69     		ldr	r3, [r7, #20]
 1582 0a06 DB69     		ldr	r3, [r3, #28]
 1583 0a08 7A69     		ldr	r2, [r7, #20]
 1584 0a0a D269     		ldr	r2, [r2, #28]
 1585 0a0c 92F8B521 		ldrb	r2, [r2, #437]	@ zero_extendqisi2
 1586 0a10 02F00F02 		and	r2, r2, #15
 1587 0a14 D2B2     		uxtb	r2, r2
 1588 0a16 83F8B521 		strb	r2, [r3, #437]
 394:.\AdvantageImpl.c ****                 pjob->_ppump->_rxbuffer[0x16] = (pjob->_ppump->_rxbuffer[0x16] & 0x0F);
 1589              		.loc 1 394 0
 1590 0a1a 7B69     		ldr	r3, [r7, #20]
 1591 0a1c DB69     		ldr	r3, [r3, #28]
 1592 0a1e 7A69     		ldr	r2, [r7, #20]
 1593 0a20 D269     		ldr	r2, [r2, #28]
 1594 0a22 92F8B621 		ldrb	r2, [r2, #438]	@ zero_extendqisi2
 1595 0a26 02F00F02 		and	r2, r2, #15
 1596 0a2a D2B2     		uxtb	r2, r2
 1597 0a2c 83F8B621 		strb	r2, [r3, #438]
 395:.\AdvantageImpl.c ****                 pjob->_ppump->_rxbuffer[0x17] = (pjob->_ppump->_rxbuffer[0x17] & 0x0F);
 1598              		.loc 1 395 0
ARM GAS  C:\Users\RECEPC~1\AppData\Local\Temp\cc7aDVfG.s 			page 36


 1599 0a30 7B69     		ldr	r3, [r7, #20]
 1600 0a32 DB69     		ldr	r3, [r3, #28]
 1601 0a34 7A69     		ldr	r2, [r7, #20]
 1602 0a36 D269     		ldr	r2, [r2, #28]
 1603 0a38 92F8B721 		ldrb	r2, [r2, #439]	@ zero_extendqisi2
 1604 0a3c 02F00F02 		and	r2, r2, #15
 1605 0a40 D2B2     		uxtb	r2, r2
 1606 0a42 83F8B721 		strb	r2, [r3, #439]
 396:.\AdvantageImpl.c ****                 pjob->_ppump->_rxbuffer[0x18] = (pjob->_ppump->_rxbuffer[0x18] & 0x0F);
 1607              		.loc 1 396 0
 1608 0a46 7B69     		ldr	r3, [r7, #20]
 1609 0a48 DB69     		ldr	r3, [r3, #28]
 1610 0a4a 7A69     		ldr	r2, [r7, #20]
 1611 0a4c D269     		ldr	r2, [r2, #28]
 1612 0a4e 92F8B821 		ldrb	r2, [r2, #440]	@ zero_extendqisi2
 1613 0a52 02F00F02 		and	r2, r2, #15
 1614 0a56 D2B2     		uxtb	r2, r2
 1615 0a58 83F8B821 		strb	r2, [r3, #440]
 397:.\AdvantageImpl.c ****                 pjob->_ppump->_rxbuffer[0x19] = (pjob->_ppump->_rxbuffer[0x19] & 0x0F);
 1616              		.loc 1 397 0
 1617 0a5c 7B69     		ldr	r3, [r7, #20]
 1618 0a5e DB69     		ldr	r3, [r3, #28]
 1619 0a60 7A69     		ldr	r2, [r7, #20]
 1620 0a62 D269     		ldr	r2, [r2, #28]
 1621 0a64 92F8B921 		ldrb	r2, [r2, #441]	@ zero_extendqisi2
 1622 0a68 02F00F02 		and	r2, r2, #15
 1623 0a6c D2B2     		uxtb	r2, r2
 1624 0a6e 83F8B921 		strb	r2, [r3, #441]
 398:.\AdvantageImpl.c ****                 pjob->_ppump->_rxbuffer[0x1A] = (pjob->_ppump->_rxbuffer[0x1A] & 0x0F);
 1625              		.loc 1 398 0
 1626 0a72 7B69     		ldr	r3, [r7, #20]
 1627 0a74 DB69     		ldr	r3, [r3, #28]
 1628 0a76 7A69     		ldr	r2, [r7, #20]
 1629 0a78 D269     		ldr	r2, [r2, #28]
 1630 0a7a 92F8BA21 		ldrb	r2, [r2, #442]	@ zero_extendqisi2
 1631 0a7e 02F00F02 		and	r2, r2, #15
 1632 0a82 D2B2     		uxtb	r2, r2
 1633 0a84 83F8BA21 		strb	r2, [r3, #442]
 399:.\AdvantageImpl.c ****                 pjob->_ppump->_authorizationinfo._volumeamount = LSDBCDBUFF2HEX(PBYTECAST(&pjob->_p
 1634              		.loc 1 399 0
 1635 0a88 7B69     		ldr	r3, [r7, #20]
 1636 0a8a DC69     		ldr	r4, [r3, #28]
 1637 0a8c 7B69     		ldr	r3, [r7, #20]
 1638 0a8e DB69     		ldr	r3, [r3, #28]
 1639 0a90 03F2B313 		addw	r3, r3, #435
 1640 0a94 1846     		mov	r0, r3
 1641 0a96 0821     		movs	r1, #8
 1642 0a98 FFF7FEFF 		bl	LSDBCDBUFF2HEX
 1643 0a9c 0346     		mov	r3, r0
 1644 0a9e C4F8B43B 		str	r3, [r4, #2996]
 400:.\AdvantageImpl.c ****                 
 401:.\AdvantageImpl.c ****                 ////////////////////////////////////////////////////////////////////////////////
 402:.\AdvantageImpl.c ****                 ////////////////////////////////////////////////////////////////////////////////
 403:.\AdvantageImpl.c ****                 
 404:.\AdvantageImpl.c ****                 //Bytes from index 28 to 35 are the digits for the money charged to the transaction
 405:.\AdvantageImpl.c ****                 //Digits are in BCD format
 406:.\AdvantageImpl.c ****                 pjob->_ppump->_rxbuffer[0x1C] = (pjob->_ppump->_rxbuffer[0x1C] & 0x00);//Zero to ma
ARM GAS  C:\Users\RECEPC~1\AppData\Local\Temp\cc7aDVfG.s 			page 37


 1645              		.loc 1 406 0
 1646 0aa2 7B69     		ldr	r3, [r7, #20]
 1647 0aa4 DB69     		ldr	r3, [r3, #28]
 1648 0aa6 0022     		movs	r2, #0
 1649 0aa8 83F8BC21 		strb	r2, [r3, #444]
 407:.\AdvantageImpl.c ****                 
 408:.\AdvantageImpl.c ****                 pjob->_ppump->_rxbuffer[0x1D] = (pjob->_ppump->_rxbuffer[0x1D] & 0x0F);
 1650              		.loc 1 408 0
 1651 0aac 7B69     		ldr	r3, [r7, #20]
 1652 0aae DB69     		ldr	r3, [r3, #28]
 1653 0ab0 7A69     		ldr	r2, [r7, #20]
 1654 0ab2 D269     		ldr	r2, [r2, #28]
 1655 0ab4 92F8BD21 		ldrb	r2, [r2, #445]	@ zero_extendqisi2
 1656 0ab8 02F00F02 		and	r2, r2, #15
 1657 0abc D2B2     		uxtb	r2, r2
 1658 0abe 83F8BD21 		strb	r2, [r3, #445]
 409:.\AdvantageImpl.c ****                 pjob->_ppump->_rxbuffer[0x1E] = (pjob->_ppump->_rxbuffer[0x1E] & 0x0F);
 1659              		.loc 1 409 0
 1660 0ac2 7B69     		ldr	r3, [r7, #20]
 1661 0ac4 DB69     		ldr	r3, [r3, #28]
 1662 0ac6 7A69     		ldr	r2, [r7, #20]
 1663 0ac8 D269     		ldr	r2, [r2, #28]
 1664 0aca 92F8BE21 		ldrb	r2, [r2, #446]	@ zero_extendqisi2
 1665 0ace 02F00F02 		and	r2, r2, #15
 1666 0ad2 D2B2     		uxtb	r2, r2
 1667 0ad4 83F8BE21 		strb	r2, [r3, #446]
 410:.\AdvantageImpl.c ****                 pjob->_ppump->_rxbuffer[0x1F] = (pjob->_ppump->_rxbuffer[0x1F] & 0x0F);
 1668              		.loc 1 410 0
 1669 0ad8 7B69     		ldr	r3, [r7, #20]
 1670 0ada DB69     		ldr	r3, [r3, #28]
 1671 0adc 7A69     		ldr	r2, [r7, #20]
 1672 0ade D269     		ldr	r2, [r2, #28]
 1673 0ae0 92F8BF21 		ldrb	r2, [r2, #447]	@ zero_extendqisi2
 1674 0ae4 02F00F02 		and	r2, r2, #15
 1675 0ae8 D2B2     		uxtb	r2, r2
 1676 0aea 83F8BF21 		strb	r2, [r3, #447]
 411:.\AdvantageImpl.c ****                 pjob->_ppump->_rxbuffer[0x20] = (pjob->_ppump->_rxbuffer[0x20] & 0x0F);
 1677              		.loc 1 411 0
 1678 0aee 7B69     		ldr	r3, [r7, #20]
 1679 0af0 DB69     		ldr	r3, [r3, #28]
 1680 0af2 7A69     		ldr	r2, [r7, #20]
 1681 0af4 D269     		ldr	r2, [r2, #28]
 1682 0af6 92F8C021 		ldrb	r2, [r2, #448]	@ zero_extendqisi2
 1683 0afa 02F00F02 		and	r2, r2, #15
 1684 0afe D2B2     		uxtb	r2, r2
 1685 0b00 83F8C021 		strb	r2, [r3, #448]
 412:.\AdvantageImpl.c ****                 pjob->_ppump->_rxbuffer[0x21] = (pjob->_ppump->_rxbuffer[0x21] & 0x0F);
 1686              		.loc 1 412 0
 1687 0b04 7B69     		ldr	r3, [r7, #20]
 1688 0b06 DB69     		ldr	r3, [r3, #28]
 1689 0b08 7A69     		ldr	r2, [r7, #20]
 1690 0b0a D269     		ldr	r2, [r2, #28]
 1691 0b0c 92F8C121 		ldrb	r2, [r2, #449]	@ zero_extendqisi2
 1692 0b10 02F00F02 		and	r2, r2, #15
 1693 0b14 D2B2     		uxtb	r2, r2
 1694 0b16 83F8C121 		strb	r2, [r3, #449]
 413:.\AdvantageImpl.c ****                 pjob->_ppump->_rxbuffer[0x22] = (pjob->_ppump->_rxbuffer[0x22] & 0x0F);
ARM GAS  C:\Users\RECEPC~1\AppData\Local\Temp\cc7aDVfG.s 			page 38


 1695              		.loc 1 413 0
 1696 0b1a 7B69     		ldr	r3, [r7, #20]
 1697 0b1c DB69     		ldr	r3, [r3, #28]
 1698 0b1e 7A69     		ldr	r2, [r7, #20]
 1699 0b20 D269     		ldr	r2, [r2, #28]
 1700 0b22 92F8C221 		ldrb	r2, [r2, #450]	@ zero_extendqisi2
 1701 0b26 02F00F02 		and	r2, r2, #15
 1702 0b2a D2B2     		uxtb	r2, r2
 1703 0b2c 83F8C221 		strb	r2, [r3, #450]
 414:.\AdvantageImpl.c ****                 pjob->_ppump->_rxbuffer[0x23] = (pjob->_ppump->_rxbuffer[0x23] & 0x0F);
 1704              		.loc 1 414 0
 1705 0b30 7B69     		ldr	r3, [r7, #20]
 1706 0b32 DB69     		ldr	r3, [r3, #28]
 1707 0b34 7A69     		ldr	r2, [r7, #20]
 1708 0b36 D269     		ldr	r2, [r2, #28]
 1709 0b38 92F8C321 		ldrb	r2, [r2, #451]	@ zero_extendqisi2
 1710 0b3c 02F00F02 		and	r2, r2, #15
 1711 0b40 D2B2     		uxtb	r2, r2
 1712 0b42 83F8C321 		strb	r2, [r3, #451]
 415:.\AdvantageImpl.c ****                 //INQUIRY ABOUT THE EXTRA x10 RESULT SINCE THERE IS AN EXTRA 0 IN THE RESPONSE FOR 
 416:.\AdvantageImpl.c ****                 //MEANWHILE DIVIDING BY 10 TO REMOVE THE ZERO
 417:.\AdvantageImpl.c ****                 pjob->_ppump->_authorizationinfo._presetamount = (LSDBCDBUFF2HEX(PBYTECAST(&pjob->_
 1713              		.loc 1 417 0
 1714 0b46 7B69     		ldr	r3, [r7, #20]
 1715 0b48 DC69     		ldr	r4, [r3, #28]
 1716 0b4a 7B69     		ldr	r3, [r7, #20]
 1717 0b4c DB69     		ldr	r3, [r3, #28]
 1718 0b4e 03F5DE73 		add	r3, r3, #444
 1719 0b52 1846     		mov	r0, r3
 1720 0b54 0821     		movs	r1, #8
 1721 0b56 FFF7FEFF 		bl	LSDBCDBUFF2HEX
 1722 0b5a 0246     		mov	r2, r0
 1723 0b5c C94B     		ldr	r3, .L59
 1724 0b5e A3FB0223 		umull	r2, r3, r3, r2
 1725 0b62 DB08     		lsrs	r3, r3, #3
 1726 0b64 C4F8B03B 		str	r3, [r4, #2992]
 418:.\AdvantageImpl.c ****                     
 419:.\AdvantageImpl.c ****                 ClearRtcBuffer();
 1727              		.loc 1 419 0
 1728 0b68 FFF7FEFF 		bl	ClearRtcBuffer
 420:.\AdvantageImpl.c ****                 ReadRTC();
 1729              		.loc 1 420 0
 1730 0b6c FFF7FEFF 		bl	ReadRTC
 421:.\AdvantageImpl.c ****                 //CAREFUL WITH RETURNS BETWEEN THE LOCK/UNLOCK CALLS
 422:.\AdvantageImpl.c ****                 //AND RECURSIVE CALLS THAT WOULD DEAD LOCK!
 423:.\AdvantageImpl.c ****                 I2CBusLock();
 1731              		.loc 1 423 0
 1732 0b70 FFF7FEFF 		bl	I2CBusLock
 424:.\AdvantageImpl.c ****             
 425:.\AdvantageImpl.c ****                 ClearEepromBuffer();
 1733              		.loc 1 425 0
 1734 0b74 FFF7FEFF 		bl	ClearEepromBuffer
 426:.\AdvantageImpl.c ****                 //In this position is located the payment type (CREDIT: 0x0E , CASH:0x0D)
 427:.\AdvantageImpl.c ****                 if(pjob->_ppump->_trasactionbuffer[0x00] == 0x0D)
 1735              		.loc 1 427 0
 1736 0b78 7B69     		ldr	r3, [r7, #20]
 1737 0b7a DB69     		ldr	r3, [r3, #28]
ARM GAS  C:\Users\RECEPC~1\AppData\Local\Temp\cc7aDVfG.s 			page 39


 1738 0b7c 93F82030 		ldrb	r3, [r3, #32]	@ zero_extendqisi2
 1739 0b80 0D2B     		cmp	r3, #13
 1740 0b82 40F0DB80 		bne	.L48
 428:.\AdvantageImpl.c ****                 {
 429:.\AdvantageImpl.c ****                     //HERE WE STORE THE LAST TRANSACTION IN EEPROM! ALWAYS THE PREVIOUS TRANSACTION
 430:.\AdvantageImpl.c ****                     //WILL BE OVERWRITTEN AND LOST.
 431:.\AdvantageImpl.c ****                     //IN CASE OF A "CREDIT SALE", THE WHOLE DATA WILL BE STORED IN A SEPARATE MEMOR
 432:.\AdvantageImpl.c ****                     //SINCE IN CASE OF A RF LINK DROP, THE STATE OF THE SALE COULD BE RECOVERED BY 
 433:.\AdvantageImpl.c ****                     LoadEepromPage(EEPROM_DISPENSER_PUMP1_LAYOUT_PAGE);
 1741              		.loc 1 433 0
 1742 0b86 4FF40070 		mov	r0, #512
 1743 0b8a FFF7FEFF 		bl	LoadEepromPage
 434:.\AdvantageImpl.c ****                     if(GetEepromBuffer()[0] == ((pjob->_ppump->_rxbuffer[0x04] & 0x0F) + 1))
 1744              		.loc 1 434 0
 1745 0b8e FFF7FEFF 		bl	GetEepromBuffer
 1746 0b92 0346     		mov	r3, r0
 1747 0b94 1B78     		ldrb	r3, [r3]	@ zero_extendqisi2
 1748 0b96 1A46     		mov	r2, r3
 1749 0b98 7B69     		ldr	r3, [r7, #20]
 1750 0b9a DB69     		ldr	r3, [r3, #28]
 1751 0b9c 93F8A431 		ldrb	r3, [r3, #420]	@ zero_extendqisi2
 1752 0ba0 03F00F03 		and	r3, r3, #15
 1753 0ba4 0133     		adds	r3, r3, #1
 1754 0ba6 9A42     		cmp	r2, r3
 1755 0ba8 22D1     		bne	.L49
 435:.\AdvantageImpl.c ****                     {
 436:.\AdvantageImpl.c ****                         ClearEepromBuffer();
 1756              		.loc 1 436 0
 1757 0baa FFF7FEFF 		bl	ClearEepromBuffer
 437:.\AdvantageImpl.c ****                         //Storing the current Date/Time for this transaction
 438:.\AdvantageImpl.c ****                         memcpy(GetEepromBuffer(), GetRtcBuffer(), 0x07);
 1758              		.loc 1 438 0
 1759 0bae FFF7FEFF 		bl	GetEepromBuffer
 1760 0bb2 0446     		mov	r4, r0
 1761 0bb4 FFF7FEFF 		bl	GetRtcBuffer
 1762 0bb8 0346     		mov	r3, r0
 1763 0bba 2046     		mov	r0, r4
 1764 0bbc 1946     		mov	r1, r3
 1765 0bbe 0722     		movs	r2, #7
 1766 0bc0 FFF7FEFF 		bl	memcpy
 439:.\AdvantageImpl.c ****                         memcpy(&GetEepromBuffer()[0x07], pjob->_ppump->_rxbuffer, pjob->_ppump->_rx
 1767              		.loc 1 439 0
 1768 0bc4 FFF7FEFF 		bl	GetEepromBuffer
 1769 0bc8 0346     		mov	r3, r0
 1770 0bca D91D     		adds	r1, r3, #7
 1771 0bcc 7B69     		ldr	r3, [r7, #20]
 1772 0bce DB69     		ldr	r3, [r3, #28]
 1773 0bd0 03F5D072 		add	r2, r3, #416
 1774 0bd4 7B69     		ldr	r3, [r7, #20]
 1775 0bd6 DB69     		ldr	r3, [r3, #28]
 1776 0bd8 B3F82033 		ldrh	r3, [r3, #800]
 1777 0bdc 0846     		mov	r0, r1
 1778 0bde 1146     		mov	r1, r2
 1779 0be0 1A46     		mov	r2, r3
 1780 0be2 FFF7FEFF 		bl	memcpy
 440:.\AdvantageImpl.c ****                         StoreEepromPage(EEPROM_DISPENSER_PUMP12_TRANSACTION_PAGE);
 1781              		.loc 1 440 0
ARM GAS  C:\Users\RECEPC~1\AppData\Local\Temp\cc7aDVfG.s 			page 40


 1782 0be6 4FF4C860 		mov	r0, #1600
 1783 0bea FFF7FEFF 		bl	StoreEepromPage
 1784 0bee 81E1     		b	.L53
 1785              	.L49:
 441:.\AdvantageImpl.c ****                     }
 442:.\AdvantageImpl.c ****                     else
 443:.\AdvantageImpl.c ****                     {
 444:.\AdvantageImpl.c ****                         ClearEepromBuffer();
 1786              		.loc 1 444 0
 1787 0bf0 FFF7FEFF 		bl	ClearEepromBuffer
 445:.\AdvantageImpl.c ****                         LoadEepromPage(EEPROM_DISPENSER_PUMP2_LAYOUT_PAGE);
 1788              		.loc 1 445 0
 1789 0bf4 4FF41070 		mov	r0, #576
 1790 0bf8 FFF7FEFF 		bl	LoadEepromPage
 446:.\AdvantageImpl.c ****                         if(GetEepromBuffer()[0] == ((pjob->_ppump->_rxbuffer[0x04] & 0x0F) + 1))
 1791              		.loc 1 446 0
 1792 0bfc FFF7FEFF 		bl	GetEepromBuffer
 1793 0c00 0346     		mov	r3, r0
 1794 0c02 1B78     		ldrb	r3, [r3]	@ zero_extendqisi2
 1795 0c04 1A46     		mov	r2, r3
 1796 0c06 7B69     		ldr	r3, [r7, #20]
 1797 0c08 DB69     		ldr	r3, [r3, #28]
 1798 0c0a 93F8A431 		ldrb	r3, [r3, #420]	@ zero_extendqisi2
 1799 0c0e 03F00F03 		and	r3, r3, #15
 1800 0c12 0133     		adds	r3, r3, #1
 1801 0c14 9A42     		cmp	r2, r3
 1802 0c16 22D1     		bne	.L51
 447:.\AdvantageImpl.c ****                         {
 448:.\AdvantageImpl.c ****                             ClearEepromBuffer();
 1803              		.loc 1 448 0
 1804 0c18 FFF7FEFF 		bl	ClearEepromBuffer
 449:.\AdvantageImpl.c ****                             //Storing the current Date/Time for this transaction
 450:.\AdvantageImpl.c ****                             memcpy(GetEepromBuffer(), GetRtcBuffer(), 0x07);
 1805              		.loc 1 450 0
 1806 0c1c FFF7FEFF 		bl	GetEepromBuffer
 1807 0c20 0446     		mov	r4, r0
 1808 0c22 FFF7FEFF 		bl	GetRtcBuffer
 1809 0c26 0346     		mov	r3, r0
 1810 0c28 2046     		mov	r0, r4
 1811 0c2a 1946     		mov	r1, r3
 1812 0c2c 0722     		movs	r2, #7
 1813 0c2e FFF7FEFF 		bl	memcpy
 451:.\AdvantageImpl.c ****                             memcpy(&GetEepromBuffer()[0x07], pjob->_ppump->_rxbuffer, pjob->_ppump-
 1814              		.loc 1 451 0
 1815 0c32 FFF7FEFF 		bl	GetEepromBuffer
 1816 0c36 0346     		mov	r3, r0
 1817 0c38 D91D     		adds	r1, r3, #7
 1818 0c3a 7B69     		ldr	r3, [r7, #20]
 1819 0c3c DB69     		ldr	r3, [r3, #28]
 1820 0c3e 03F5D072 		add	r2, r3, #416
 1821 0c42 7B69     		ldr	r3, [r7, #20]
 1822 0c44 DB69     		ldr	r3, [r3, #28]
 1823 0c46 B3F82033 		ldrh	r3, [r3, #800]
 1824 0c4a 0846     		mov	r0, r1
 1825 0c4c 1146     		mov	r1, r2
 1826 0c4e 1A46     		mov	r2, r3
 1827 0c50 FFF7FEFF 		bl	memcpy
ARM GAS  C:\Users\RECEPC~1\AppData\Local\Temp\cc7aDVfG.s 			page 41


 452:.\AdvantageImpl.c ****                             StoreEepromPage(EEPROM_DISPENSER_PUMP22_TRANSACTION_PAGE);
 1828              		.loc 1 452 0
 1829 0c54 4FF4E860 		mov	r0, #1856
 1830 0c58 FFF7FEFF 		bl	StoreEepromPage
 1831 0c5c 4AE1     		b	.L53
 1832              	.L51:
 453:.\AdvantageImpl.c ****                         }
 454:.\AdvantageImpl.c ****                         else
 455:.\AdvantageImpl.c ****                         {
 456:.\AdvantageImpl.c ****                             ClearEepromBuffer();
 1833              		.loc 1 456 0
 1834 0c5e FFF7FEFF 		bl	ClearEepromBuffer
 457:.\AdvantageImpl.c ****                             LoadEepromPage(EEPROM_DISPENSER_PUMP3_LAYOUT_PAGE);
 1835              		.loc 1 457 0
 1836 0c62 4FF42070 		mov	r0, #640
 1837 0c66 FFF7FEFF 		bl	LoadEepromPage
 458:.\AdvantageImpl.c ****                             if(GetEepromBuffer()[0] == ((pjob->_ppump->_rxbuffer[0x04] & 0x0F) + 1)
 1838              		.loc 1 458 0
 1839 0c6a FFF7FEFF 		bl	GetEepromBuffer
 1840 0c6e 0346     		mov	r3, r0
 1841 0c70 1B78     		ldrb	r3, [r3]	@ zero_extendqisi2
 1842 0c72 1A46     		mov	r2, r3
 1843 0c74 7B69     		ldr	r3, [r7, #20]
 1844 0c76 DB69     		ldr	r3, [r3, #28]
 1845 0c78 93F8A431 		ldrb	r3, [r3, #420]	@ zero_extendqisi2
 1846 0c7c 03F00F03 		and	r3, r3, #15
 1847 0c80 0133     		adds	r3, r3, #1
 1848 0c82 9A42     		cmp	r2, r3
 1849 0c84 22D1     		bne	.L52
 459:.\AdvantageImpl.c ****                             {
 460:.\AdvantageImpl.c ****                                 ClearEepromBuffer();
 1850              		.loc 1 460 0
 1851 0c86 FFF7FEFF 		bl	ClearEepromBuffer
 461:.\AdvantageImpl.c ****                                 //Storing the current Date/Time for this transaction
 462:.\AdvantageImpl.c ****                                 memcpy(GetEepromBuffer(), GetRtcBuffer(), 0x07);
 1852              		.loc 1 462 0
 1853 0c8a FFF7FEFF 		bl	GetEepromBuffer
 1854 0c8e 0446     		mov	r4, r0
 1855 0c90 FFF7FEFF 		bl	GetRtcBuffer
 1856 0c94 0346     		mov	r3, r0
 1857 0c96 2046     		mov	r0, r4
 1858 0c98 1946     		mov	r1, r3
 1859 0c9a 0722     		movs	r2, #7
 1860 0c9c FFF7FEFF 		bl	memcpy
 463:.\AdvantageImpl.c ****                                 memcpy(&GetEepromBuffer()[0x07], pjob->_ppump->_rxbuffer, pjob->_pp
 1861              		.loc 1 463 0
 1862 0ca0 FFF7FEFF 		bl	GetEepromBuffer
 1863 0ca4 0346     		mov	r3, r0
 1864 0ca6 D91D     		adds	r1, r3, #7
 1865 0ca8 7B69     		ldr	r3, [r7, #20]
 1866 0caa DB69     		ldr	r3, [r3, #28]
 1867 0cac 03F5D072 		add	r2, r3, #416
 1868 0cb0 7B69     		ldr	r3, [r7, #20]
 1869 0cb2 DB69     		ldr	r3, [r3, #28]
 1870 0cb4 B3F82033 		ldrh	r3, [r3, #800]
 1871 0cb8 0846     		mov	r0, r1
 1872 0cba 1146     		mov	r1, r2
ARM GAS  C:\Users\RECEPC~1\AppData\Local\Temp\cc7aDVfG.s 			page 42


 1873 0cbc 1A46     		mov	r2, r3
 1874 0cbe FFF7FEFF 		bl	memcpy
 464:.\AdvantageImpl.c ****                                 StoreEepromPage(EEPROM_DISPENSER_PUMP32_TRANSACTION_PAGE);
 1875              		.loc 1 464 0
 1876 0cc2 4FF40460 		mov	r0, #2112
 1877 0cc6 FFF7FEFF 		bl	StoreEepromPage
 1878 0cca 13E1     		b	.L53
 1879              	.L52:
 465:.\AdvantageImpl.c ****                             }
 466:.\AdvantageImpl.c ****                             else
 467:.\AdvantageImpl.c ****                             {
 468:.\AdvantageImpl.c ****                                 ClearEepromBuffer();
 1880              		.loc 1 468 0
 1881 0ccc FFF7FEFF 		bl	ClearEepromBuffer
 469:.\AdvantageImpl.c ****                                 LoadEepromPage(EEPROM_DISPENSER_PUMP4_LAYOUT_PAGE);
 1882              		.loc 1 469 0
 1883 0cd0 4FF43070 		mov	r0, #704
 1884 0cd4 FFF7FEFF 		bl	LoadEepromPage
 470:.\AdvantageImpl.c ****                                 if(GetEepromBuffer()[0] == ((pjob->_ppump->_rxbuffer[0x04] & 0x0F) 
 1885              		.loc 1 470 0
 1886 0cd8 FFF7FEFF 		bl	GetEepromBuffer
 1887 0cdc 0346     		mov	r3, r0
 1888 0cde 1B78     		ldrb	r3, [r3]	@ zero_extendqisi2
 1889 0ce0 1A46     		mov	r2, r3
 1890 0ce2 7B69     		ldr	r3, [r7, #20]
 1891 0ce4 DB69     		ldr	r3, [r3, #28]
 1892 0ce6 93F8A431 		ldrb	r3, [r3, #420]	@ zero_extendqisi2
 1893 0cea 03F00F03 		and	r3, r3, #15
 1894 0cee 0133     		adds	r3, r3, #1
 1895 0cf0 9A42     		cmp	r2, r3
 1896 0cf2 40F0FF80 		bne	.L53
 471:.\AdvantageImpl.c ****                                 {
 472:.\AdvantageImpl.c ****                                     ClearEepromBuffer();
 1897              		.loc 1 472 0
 1898 0cf6 FFF7FEFF 		bl	ClearEepromBuffer
 473:.\AdvantageImpl.c ****                                     //Storing the current Date/Time for this transaction
 474:.\AdvantageImpl.c ****                                     memcpy(GetEepromBuffer(), GetRtcBuffer(), 0x07);
 1899              		.loc 1 474 0
 1900 0cfa FFF7FEFF 		bl	GetEepromBuffer
 1901 0cfe 0446     		mov	r4, r0
 1902 0d00 FFF7FEFF 		bl	GetRtcBuffer
 1903 0d04 0346     		mov	r3, r0
 1904 0d06 2046     		mov	r0, r4
 1905 0d08 1946     		mov	r1, r3
 1906 0d0a 0722     		movs	r2, #7
 1907 0d0c FFF7FEFF 		bl	memcpy
 475:.\AdvantageImpl.c ****                                     memcpy(&GetEepromBuffer()[0x07], pjob->_ppump->_rxbuffer, pjob-
 1908              		.loc 1 475 0
 1909 0d10 FFF7FEFF 		bl	GetEepromBuffer
 1910 0d14 0346     		mov	r3, r0
 1911 0d16 D91D     		adds	r1, r3, #7
 1912 0d18 7B69     		ldr	r3, [r7, #20]
 1913 0d1a DB69     		ldr	r3, [r3, #28]
 1914 0d1c 03F5D072 		add	r2, r3, #416
 1915 0d20 7B69     		ldr	r3, [r7, #20]
 1916 0d22 DB69     		ldr	r3, [r3, #28]
 1917 0d24 B3F82033 		ldrh	r3, [r3, #800]
ARM GAS  C:\Users\RECEPC~1\AppData\Local\Temp\cc7aDVfG.s 			page 43


 1918 0d28 0846     		mov	r0, r1
 1919 0d2a 1146     		mov	r1, r2
 1920 0d2c 1A46     		mov	r2, r3
 1921 0d2e FFF7FEFF 		bl	memcpy
 476:.\AdvantageImpl.c ****                                     StoreEepromPage(EEPROM_DISPENSER_PUMP42_TRANSACTION_PAGE);
 1922              		.loc 1 476 0
 1923 0d32 4FF41460 		mov	r0, #2368
 1924 0d36 FFF7FEFF 		bl	StoreEepromPage
 1925 0d3a DBE0     		b	.L53
 1926              	.L48:
 477:.\AdvantageImpl.c ****                                 }
 478:.\AdvantageImpl.c ****                             }
 479:.\AdvantageImpl.c ****                         }
 480:.\AdvantageImpl.c ****                     }
 481:.\AdvantageImpl.c ****                 }else{//CREDIT TRANSACTION
 482:.\AdvantageImpl.c ****                     //HERE WE STORE THE LAST TRANSACTION IN EEPROM! ALWAYS THE PREVIOUS TRANSACTION
 483:.\AdvantageImpl.c ****                     //WILL BE OVERWRITTEN AND LOST.
 484:.\AdvantageImpl.c ****                     //IN CASE OF A "CREDIT SALE", THE WHOLE DATA WILL BE STORED IN A SEPARATE MEMOR
 485:.\AdvantageImpl.c ****                     //SINCE IN CASE OF A RF LINK DROP, THE STATE OF THE SALE COULD BE RECOVERED BY 
 486:.\AdvantageImpl.c ****                     LoadEepromPage(EEPROM_DISPENSER_PUMP1_LAYOUT_PAGE);
 1927              		.loc 1 486 0
 1928 0d3c 4FF40070 		mov	r0, #512
 1929 0d40 FFF7FEFF 		bl	LoadEepromPage
 487:.\AdvantageImpl.c ****                     if(GetEepromBuffer()[0] == ((pjob->_ppump->_rxbuffer[0x04] & 0x0F) + 1))
 1930              		.loc 1 487 0
 1931 0d44 FFF7FEFF 		bl	GetEepromBuffer
 1932 0d48 0346     		mov	r3, r0
 1933 0d4a 1B78     		ldrb	r3, [r3]	@ zero_extendqisi2
 1934 0d4c 1A46     		mov	r2, r3
 1935 0d4e 7B69     		ldr	r3, [r7, #20]
 1936 0d50 DB69     		ldr	r3, [r3, #28]
 1937 0d52 93F8A431 		ldrb	r3, [r3, #420]	@ zero_extendqisi2
 1938 0d56 03F00F03 		and	r3, r3, #15
 1939 0d5a 0133     		adds	r3, r3, #1
 1940 0d5c 9A42     		cmp	r2, r3
 1941 0d5e 22D1     		bne	.L54
 488:.\AdvantageImpl.c ****                     {
 489:.\AdvantageImpl.c ****                         ClearEepromBuffer();
 1942              		.loc 1 489 0
 1943 0d60 FFF7FEFF 		bl	ClearEepromBuffer
 490:.\AdvantageImpl.c ****                         //Storing the current Date/Time for this transaction
 491:.\AdvantageImpl.c ****                         memcpy(GetEepromBuffer(), GetRtcBuffer(), 0x07);
 1944              		.loc 1 491 0
 1945 0d64 FFF7FEFF 		bl	GetEepromBuffer
 1946 0d68 0446     		mov	r4, r0
 1947 0d6a FFF7FEFF 		bl	GetRtcBuffer
 1948 0d6e 0346     		mov	r3, r0
 1949 0d70 2046     		mov	r0, r4
 1950 0d72 1946     		mov	r1, r3
 1951 0d74 0722     		movs	r2, #7
 1952 0d76 FFF7FEFF 		bl	memcpy
 492:.\AdvantageImpl.c ****                         memcpy(&GetEepromBuffer()[0x07], pjob->_ppump->_rxbuffer, pjob->_ppump->_rx
 1953              		.loc 1 492 0
 1954 0d7a FFF7FEFF 		bl	GetEepromBuffer
 1955 0d7e 0346     		mov	r3, r0
 1956 0d80 D91D     		adds	r1, r3, #7
 1957 0d82 7B69     		ldr	r3, [r7, #20]
ARM GAS  C:\Users\RECEPC~1\AppData\Local\Temp\cc7aDVfG.s 			page 44


 1958 0d84 DB69     		ldr	r3, [r3, #28]
 1959 0d86 03F5D072 		add	r2, r3, #416
 1960 0d8a 7B69     		ldr	r3, [r7, #20]
 1961 0d8c DB69     		ldr	r3, [r3, #28]
 1962 0d8e B3F82033 		ldrh	r3, [r3, #800]
 1963 0d92 0846     		mov	r0, r1
 1964 0d94 1146     		mov	r1, r2
 1965 0d96 1A46     		mov	r2, r3
 1966 0d98 FFF7FEFF 		bl	memcpy
 493:.\AdvantageImpl.c ****                         StoreEepromPage(EEPROM_DISPENSER_PUMP14_TRANSACTION_PAGE);
 1967              		.loc 1 493 0
 1968 0d9c 4FF4D860 		mov	r0, #1728
 1969 0da0 FFF7FEFF 		bl	StoreEepromPage
 1970 0da4 A6E0     		b	.L53
 1971              	.L54:
 494:.\AdvantageImpl.c ****                     }
 495:.\AdvantageImpl.c ****                     else
 496:.\AdvantageImpl.c ****                     {
 497:.\AdvantageImpl.c ****                         ClearEepromBuffer();
 1972              		.loc 1 497 0
 1973 0da6 FFF7FEFF 		bl	ClearEepromBuffer
 498:.\AdvantageImpl.c ****                         LoadEepromPage(EEPROM_DISPENSER_PUMP2_LAYOUT_PAGE);
 1974              		.loc 1 498 0
 1975 0daa 4FF41070 		mov	r0, #576
 1976 0dae FFF7FEFF 		bl	LoadEepromPage
 499:.\AdvantageImpl.c ****                         if(GetEepromBuffer()[0] == ((pjob->_ppump->_rxbuffer[0x04] & 0x0F) + 1))
 1977              		.loc 1 499 0
 1978 0db2 FFF7FEFF 		bl	GetEepromBuffer
 1979 0db6 0346     		mov	r3, r0
 1980 0db8 1B78     		ldrb	r3, [r3]	@ zero_extendqisi2
 1981 0dba 1A46     		mov	r2, r3
 1982 0dbc 7B69     		ldr	r3, [r7, #20]
 1983 0dbe DB69     		ldr	r3, [r3, #28]
 1984 0dc0 93F8A431 		ldrb	r3, [r3, #420]	@ zero_extendqisi2
 1985 0dc4 03F00F03 		and	r3, r3, #15
 1986 0dc8 0133     		adds	r3, r3, #1
 1987 0dca 9A42     		cmp	r2, r3
 1988 0dcc 22D1     		bne	.L55
 500:.\AdvantageImpl.c ****                         {
 501:.\AdvantageImpl.c ****                             ClearEepromBuffer();
 1989              		.loc 1 501 0
 1990 0dce FFF7FEFF 		bl	ClearEepromBuffer
 502:.\AdvantageImpl.c ****                             //Storing the current Date/Time for this transaction
 503:.\AdvantageImpl.c ****                             memcpy(GetEepromBuffer(), GetRtcBuffer(), 0x07);
 1991              		.loc 1 503 0
 1992 0dd2 FFF7FEFF 		bl	GetEepromBuffer
 1993 0dd6 0446     		mov	r4, r0
 1994 0dd8 FFF7FEFF 		bl	GetRtcBuffer
 1995 0ddc 0346     		mov	r3, r0
 1996 0dde 2046     		mov	r0, r4
 1997 0de0 1946     		mov	r1, r3
 1998 0de2 0722     		movs	r2, #7
 1999 0de4 FFF7FEFF 		bl	memcpy
 504:.\AdvantageImpl.c ****                             memcpy(&GetEepromBuffer()[0x07], pjob->_ppump->_rxbuffer, pjob->_ppump-
 2000              		.loc 1 504 0
 2001 0de8 FFF7FEFF 		bl	GetEepromBuffer
 2002 0dec 0346     		mov	r3, r0
ARM GAS  C:\Users\RECEPC~1\AppData\Local\Temp\cc7aDVfG.s 			page 45


 2003 0dee D91D     		adds	r1, r3, #7
 2004 0df0 7B69     		ldr	r3, [r7, #20]
 2005 0df2 DB69     		ldr	r3, [r3, #28]
 2006 0df4 03F5D072 		add	r2, r3, #416
 2007 0df8 7B69     		ldr	r3, [r7, #20]
 2008 0dfa DB69     		ldr	r3, [r3, #28]
 2009 0dfc B3F82033 		ldrh	r3, [r3, #800]
 2010 0e00 0846     		mov	r0, r1
 2011 0e02 1146     		mov	r1, r2
 2012 0e04 1A46     		mov	r2, r3
 2013 0e06 FFF7FEFF 		bl	memcpy
 505:.\AdvantageImpl.c ****                             StoreEepromPage(EEPROM_DISPENSER_PUMP24_TRANSACTION_PAGE);
 2014              		.loc 1 505 0
 2015 0e0a 4FF4F860 		mov	r0, #1984
 2016 0e0e FFF7FEFF 		bl	StoreEepromPage
 2017 0e12 6FE0     		b	.L53
 2018              	.L55:
 506:.\AdvantageImpl.c ****                         }
 507:.\AdvantageImpl.c ****                         else
 508:.\AdvantageImpl.c ****                         {
 509:.\AdvantageImpl.c ****                             ClearEepromBuffer();
 2019              		.loc 1 509 0
 2020 0e14 FFF7FEFF 		bl	ClearEepromBuffer
 510:.\AdvantageImpl.c ****                             LoadEepromPage(EEPROM_DISPENSER_PUMP3_LAYOUT_PAGE);
 2021              		.loc 1 510 0
 2022 0e18 4FF42070 		mov	r0, #640
 2023 0e1c FFF7FEFF 		bl	LoadEepromPage
 511:.\AdvantageImpl.c ****                             if(GetEepromBuffer()[0] == ((pjob->_ppump->_rxbuffer[0x04] & 0x0F) + 1)
 2024              		.loc 1 511 0
 2025 0e20 FFF7FEFF 		bl	GetEepromBuffer
 2026 0e24 0346     		mov	r3, r0
 2027 0e26 1B78     		ldrb	r3, [r3]	@ zero_extendqisi2
 2028 0e28 1A46     		mov	r2, r3
 2029 0e2a 7B69     		ldr	r3, [r7, #20]
 2030 0e2c DB69     		ldr	r3, [r3, #28]
 2031 0e2e 93F8A431 		ldrb	r3, [r3, #420]	@ zero_extendqisi2
 2032 0e32 03F00F03 		and	r3, r3, #15
 2033 0e36 0133     		adds	r3, r3, #1
 2034 0e38 9A42     		cmp	r2, r3
 2035 0e3a 25D1     		bne	.L56
 512:.\AdvantageImpl.c ****                             {
 513:.\AdvantageImpl.c ****                                 ClearEepromBuffer();
 2036              		.loc 1 513 0
 2037 0e3c FFF7FEFF 		bl	ClearEepromBuffer
 514:.\AdvantageImpl.c ****                                 //Storing the current Date/Time for this transaction
 515:.\AdvantageImpl.c ****                                 memcpy(GetEepromBuffer(), GetRtcBuffer(), 0x07);
 2038              		.loc 1 515 0
 2039 0e40 FFF7FEFF 		bl	GetEepromBuffer
 2040 0e44 0446     		mov	r4, r0
 2041 0e46 FFF7FEFF 		bl	GetRtcBuffer
 2042 0e4a 0346     		mov	r3, r0
 2043 0e4c 2046     		mov	r0, r4
 2044 0e4e 1946     		mov	r1, r3
 2045 0e50 0722     		movs	r2, #7
 2046 0e52 FFF7FEFF 		bl	memcpy
 516:.\AdvantageImpl.c ****                                 memcpy(&GetEepromBuffer()[0x07], pjob->_ppump->_rxbuffer, pjob->_pp
 2047              		.loc 1 516 0
ARM GAS  C:\Users\RECEPC~1\AppData\Local\Temp\cc7aDVfG.s 			page 46


 2048 0e56 FFF7FEFF 		bl	GetEepromBuffer
 2049 0e5a 0346     		mov	r3, r0
 2050 0e5c D91D     		adds	r1, r3, #7
 2051 0e5e 7B69     		ldr	r3, [r7, #20]
 2052 0e60 DB69     		ldr	r3, [r3, #28]
 2053 0e62 03F5D072 		add	r2, r3, #416
 2054 0e66 7B69     		ldr	r3, [r7, #20]
 2055 0e68 DB69     		ldr	r3, [r3, #28]
 2056 0e6a B3F82033 		ldrh	r3, [r3, #800]
 2057 0e6e 0846     		mov	r0, r1
 2058 0e70 1146     		mov	r1, r2
 2059 0e72 1A46     		mov	r2, r3
 2060 0e74 FFF7FEFF 		bl	memcpy
 517:.\AdvantageImpl.c ****                                 StoreEepromPage(EEPROM_DISPENSER_PUMP34_TRANSACTION_PAGE);
 2061              		.loc 1 517 0
 2062 0e78 4FF40C60 		mov	r0, #2240
 2063 0e7c FFF7FEFF 		bl	StoreEepromPage
 2064 0e80 38E0     		b	.L53
 2065              	.L60:
 2066 0e82 00BF     		.align	2
 2067              	.L59:
 2068 0e84 CDCCCCCC 		.word	-858993459
 2069              	.L56:
 518:.\AdvantageImpl.c ****                             }
 519:.\AdvantageImpl.c ****                             else
 520:.\AdvantageImpl.c ****                             {
 521:.\AdvantageImpl.c ****                                 ClearEepromBuffer();
 2070              		.loc 1 521 0
 2071 0e88 FFF7FEFF 		bl	ClearEepromBuffer
 522:.\AdvantageImpl.c ****                                 LoadEepromPage(EEPROM_DISPENSER_PUMP4_LAYOUT_PAGE);
 2072              		.loc 1 522 0
 2073 0e8c 4FF43070 		mov	r0, #704
 2074 0e90 FFF7FEFF 		bl	LoadEepromPage
 523:.\AdvantageImpl.c ****                                 if(GetEepromBuffer()[0] == ((pjob->_ppump->_rxbuffer[0x04] & 0x0F) 
 2075              		.loc 1 523 0
 2076 0e94 FFF7FEFF 		bl	GetEepromBuffer
 2077 0e98 0346     		mov	r3, r0
 2078 0e9a 1B78     		ldrb	r3, [r3]	@ zero_extendqisi2
 2079 0e9c 1A46     		mov	r2, r3
 2080 0e9e 7B69     		ldr	r3, [r7, #20]
 2081 0ea0 DB69     		ldr	r3, [r3, #28]
 2082 0ea2 93F8A431 		ldrb	r3, [r3, #420]	@ zero_extendqisi2
 2083 0ea6 03F00F03 		and	r3, r3, #15
 2084 0eaa 0133     		adds	r3, r3, #1
 2085 0eac 9A42     		cmp	r2, r3
 2086 0eae 21D1     		bne	.L53
 524:.\AdvantageImpl.c ****                                 {
 525:.\AdvantageImpl.c ****                                     ClearEepromBuffer();
 2087              		.loc 1 525 0
 2088 0eb0 FFF7FEFF 		bl	ClearEepromBuffer
 526:.\AdvantageImpl.c ****                                     //Storing the current Date/Time for this transaction
 527:.\AdvantageImpl.c ****                                     memcpy(GetEepromBuffer(), GetRtcBuffer(), 0x07);
 2089              		.loc 1 527 0
 2090 0eb4 FFF7FEFF 		bl	GetEepromBuffer
 2091 0eb8 0446     		mov	r4, r0
 2092 0eba FFF7FEFF 		bl	GetRtcBuffer
 2093 0ebe 0346     		mov	r3, r0
ARM GAS  C:\Users\RECEPC~1\AppData\Local\Temp\cc7aDVfG.s 			page 47


 2094 0ec0 2046     		mov	r0, r4
 2095 0ec2 1946     		mov	r1, r3
 2096 0ec4 0722     		movs	r2, #7
 2097 0ec6 FFF7FEFF 		bl	memcpy
 528:.\AdvantageImpl.c ****                                     memcpy(&GetEepromBuffer()[0x07], pjob->_ppump->_rxbuffer, pjob-
 2098              		.loc 1 528 0
 2099 0eca FFF7FEFF 		bl	GetEepromBuffer
 2100 0ece 0346     		mov	r3, r0
 2101 0ed0 D91D     		adds	r1, r3, #7
 2102 0ed2 7B69     		ldr	r3, [r7, #20]
 2103 0ed4 DB69     		ldr	r3, [r3, #28]
 2104 0ed6 03F5D072 		add	r2, r3, #416
 2105 0eda 7B69     		ldr	r3, [r7, #20]
 2106 0edc DB69     		ldr	r3, [r3, #28]
 2107 0ede B3F82033 		ldrh	r3, [r3, #800]
 2108 0ee2 0846     		mov	r0, r1
 2109 0ee4 1146     		mov	r1, r2
 2110 0ee6 1A46     		mov	r2, r3
 2111 0ee8 FFF7FEFF 		bl	memcpy
 529:.\AdvantageImpl.c ****                                     StoreEepromPage(EEPROM_DISPENSER_PUMP44_TRANSACTION_PAGE);
 2112              		.loc 1 529 0
 2113 0eec 4FF41C60 		mov	r0, #2496
 2114 0ef0 FFF7FEFF 		bl	StoreEepromPage
 2115              	.L53:
 530:.\AdvantageImpl.c ****                                 }
 531:.\AdvantageImpl.c ****                             }
 532:.\AdvantageImpl.c ****                         }
 533:.\AdvantageImpl.c ****                     }
 534:.\AdvantageImpl.c ****                 }
 535:.\AdvantageImpl.c ****                 I2CBusUnlock();
 2116              		.loc 1 535 0
 2117 0ef4 FFF7FEFF 		bl	I2CBusUnlock
 2118              	.L39:
 536:.\AdvantageImpl.c ****             }
 537:.\AdvantageImpl.c ****                 
 538:.\AdvantageImpl.c ****             //HERE WE ATTEMPT TO PUSH THE TRANSACTION INTO THE PUMP'S TRANSACTIONAL QUEUE.
 539:.\AdvantageImpl.c ****             //THIS IS DONE ONLY IF THERE IS ROOM IN THE QUEUE, OTHERWISE THIS STATE WON'T
 540:.\AdvantageImpl.c ****             //BE REPORTED TO THE REMOTE PEER.
 541:.\AdvantageImpl.c ****             pjob->_ppump->PumpTransQueueLock(pjob->_ppump);
 2119              		.loc 1 541 0
 2120 0ef8 7B69     		ldr	r3, [r7, #20]
 2121 0efa DB69     		ldr	r3, [r3, #28]
 2122 0efc D3F8443B 		ldr	r3, [r3, #2884]
 2123 0f00 7A69     		ldr	r2, [r7, #20]
 2124 0f02 D269     		ldr	r2, [r2, #28]
 2125 0f04 1046     		mov	r0, r2
 2126 0f06 9847     		blx	r3
 542:.\AdvantageImpl.c ****             PNEAR_PUMPTRANSACTIONALSTATEPTR pts = pjob->_ppump->PumpTransQueueAllocate(pjob->_ppump
 2127              		.loc 1 542 0
 2128 0f08 7B69     		ldr	r3, [r7, #20]
 2129 0f0a DB69     		ldr	r3, [r3, #28]
 2130 0f0c D3F8583B 		ldr	r3, [r3, #2904]
 2131 0f10 7A69     		ldr	r2, [r7, #20]
 2132 0f12 D269     		ldr	r2, [r2, #28]
 2133 0f14 1046     		mov	r0, r2
 2134 0f16 9847     		blx	r3
 2135 0f18 B860     		str	r0, [r7, #8]
ARM GAS  C:\Users\RECEPC~1\AppData\Local\Temp\cc7aDVfG.s 			page 48


 543:.\AdvantageImpl.c ****             pjob->_ppump->PumpTransQueueUnlock(pjob->_ppump);
 2136              		.loc 1 543 0
 2137 0f1a 7B69     		ldr	r3, [r7, #20]
 2138 0f1c DB69     		ldr	r3, [r3, #28]
 2139 0f1e D3F8483B 		ldr	r3, [r3, #2888]
 2140 0f22 7A69     		ldr	r2, [r7, #20]
 2141 0f24 D269     		ldr	r2, [r2, #28]
 2142 0f26 1046     		mov	r0, r2
 2143 0f28 9847     		blx	r3
 544:.\AdvantageImpl.c ****             if(pts)
 2144              		.loc 1 544 0
 2145 0f2a BB68     		ldr	r3, [r7, #8]
 2146 0f2c 002B     		cmp	r3, #0
 2147 0f2e 31D0     		beq	.L18
 545:.\AdvantageImpl.c ****             {
 546:.\AdvantageImpl.c ****                 //pjob->_ppump->_transhealth = _PUMP_OK_;
 547:.\AdvantageImpl.c ****                 pts->_transtate = RF_MUX_CASH_SALE_END_REPORT_RESPONSE;
 2148              		.loc 1 547 0
 2149 0f30 BB68     		ldr	r3, [r7, #8]
 2150 0f32 A422     		movs	r2, #164
 2151 0f34 5A70     		strb	r2, [r3, #1]
 548:.\AdvantageImpl.c ****                 memcpy(pts->_buffer, pjob->_ppump->_rxbuffer, pjob->_ppump->_rxbuffersize);
 2152              		.loc 1 548 0
 2153 0f36 BB68     		ldr	r3, [r7, #8]
 2154 0f38 991C     		adds	r1, r3, #2
 2155 0f3a 7B69     		ldr	r3, [r7, #20]
 2156 0f3c DB69     		ldr	r3, [r3, #28]
 2157 0f3e 03F5D072 		add	r2, r3, #416
 2158 0f42 7B69     		ldr	r3, [r7, #20]
 2159 0f44 DB69     		ldr	r3, [r3, #28]
 2160 0f46 B3F82033 		ldrh	r3, [r3, #800]
 2161 0f4a 0846     		mov	r0, r1
 2162 0f4c 1146     		mov	r1, r2
 2163 0f4e 1A46     		mov	r2, r3
 2164 0f50 FFF7FEFF 		bl	memcpy
 549:.\AdvantageImpl.c ****                 pts->_buffersize = pjob->_ppump->_rxbuffersize;
 2165              		.loc 1 549 0
 2166 0f54 7B69     		ldr	r3, [r7, #20]
 2167 0f56 DB69     		ldr	r3, [r3, #28]
 2168 0f58 B3F82023 		ldrh	r2, [r3, #800]
 2169 0f5c BB68     		ldr	r3, [r7, #8]
 2170 0f5e A3F80221 		strh	r2, [r3, #258]	@ movhi
 550:.\AdvantageImpl.c ****                 
 551:.\AdvantageImpl.c ****                 pjob->_ppump->PumpTransQueueLock(pjob->_ppump);
 2171              		.loc 1 551 0
 2172 0f62 7B69     		ldr	r3, [r7, #20]
 2173 0f64 DB69     		ldr	r3, [r3, #28]
 2174 0f66 D3F8443B 		ldr	r3, [r3, #2884]
 2175 0f6a 7A69     		ldr	r2, [r7, #20]
 2176 0f6c D269     		ldr	r2, [r2, #28]
 2177 0f6e 1046     		mov	r0, r2
 2178 0f70 9847     		blx	r3
 552:.\AdvantageImpl.c ****                 pjob->_ppump->PumpTransQueueEnqueue(pjob->_ppump, pts);
 2179              		.loc 1 552 0
 2180 0f72 7B69     		ldr	r3, [r7, #20]
 2181 0f74 DB69     		ldr	r3, [r3, #28]
 2182 0f76 D3F8503B 		ldr	r3, [r3, #2896]
ARM GAS  C:\Users\RECEPC~1\AppData\Local\Temp\cc7aDVfG.s 			page 49


 2183 0f7a 7A69     		ldr	r2, [r7, #20]
 2184 0f7c D269     		ldr	r2, [r2, #28]
 2185 0f7e 1046     		mov	r0, r2
 2186 0f80 B968     		ldr	r1, [r7, #8]
 2187 0f82 9847     		blx	r3
 553:.\AdvantageImpl.c ****                 pjob->_ppump->PumpTransQueueUnlock(pjob->_ppump);
 2188              		.loc 1 553 0
 2189 0f84 7B69     		ldr	r3, [r7, #20]
 2190 0f86 DB69     		ldr	r3, [r3, #28]
 2191 0f88 D3F8483B 		ldr	r3, [r3, #2888]
 2192 0f8c 7A69     		ldr	r2, [r7, #20]
 2193 0f8e D269     		ldr	r2, [r2, #28]
 2194 0f90 1046     		mov	r0, r2
 2195 0f92 9847     		blx	r3
 2196              	.L18:
 2197              	.LBE3:
 554:.\AdvantageImpl.c ****             }
 555:.\AdvantageImpl.c ****             
 556:.\AdvantageImpl.c ****         }  
 557:.\AdvantageImpl.c ****     }
 558:.\AdvantageImpl.c **** }
 2198              		.loc 1 558 0
 2199 0f94 1837     		adds	r7, r7, #24
 2200              		.cfi_def_cfa_offset 16
 2201 0f96 BD46     		mov	sp, r7
 2202              		.cfi_def_cfa_register 13
 2203              		@ sp needed
 2204 0f98 B0BD     		pop	{r4, r5, r7, pc}
 2205              		.cfi_endproc
 2206              	.LFE66:
 2207              		.size	ProcessPumpTransactionData, .-ProcessPumpTransactionData
 2208 0f9a 00BF     		.section	.text.ProcessPumpTotalsDataReport,"ax",%progbits
 2209              		.align	2
 2210              		.global	ProcessPumpTotalsDataReport
 2211              		.thumb
 2212              		.thumb_func
 2213              		.type	ProcessPumpTotalsDataReport, %function
 2214              	ProcessPumpTotalsDataReport:
 2215              	.LFB67:
 559:.\AdvantageImpl.c **** 
 560:.\AdvantageImpl.c **** //@Created By: HIJH
 561:.\AdvantageImpl.c **** //@Septembre de 2016
 562:.\AdvantageImpl.c **** void ProcessPumpTotalsDataReport(void *pparam)
 563:.\AdvantageImpl.c **** {
 2216              		.loc 1 563 0
 2217              		.cfi_startproc
 2218              		@ args = 0, pretend = 0, frame = 24
 2219              		@ frame_needed = 1, uses_anonymous_args = 0
 2220 0000 80B5     		push	{r7, lr}
 2221              		.cfi_def_cfa_offset 8
 2222              		.cfi_offset 7, -8
 2223              		.cfi_offset 14, -4
 2224 0002 86B0     		sub	sp, sp, #24
 2225              		.cfi_def_cfa_offset 32
 2226 0004 00AF     		add	r7, sp, #0
 2227              		.cfi_def_cfa_register 7
 2228 0006 7860     		str	r0, [r7, #4]
ARM GAS  C:\Users\RECEPC~1\AppData\Local\Temp\cc7aDVfG.s 			page 50


 564:.\AdvantageImpl.c ****     PPUMPTRANSACTIONJOBCONTEXTPTR pjob = (PPUMPTRANSACTIONJOBCONTEXTPTR)pparam;
 2229              		.loc 1 564 0
 2230 0008 7B68     		ldr	r3, [r7, #4]
 2231 000a 7B61     		str	r3, [r7, #20]
 565:.\AdvantageImpl.c ****     if(pjob)
 2232              		.loc 1 565 0
 2233 000c 7B69     		ldr	r3, [r7, #20]
 2234 000e 002B     		cmp	r3, #0
 2235 0010 00F0C580 		beq	.L61
 2236              	.LBB6:
 566:.\AdvantageImpl.c ****     {
 567:.\AdvantageImpl.c ****            
 568:.\AdvantageImpl.c ****         bool dataok = true;
 2237              		.loc 1 568 0
 2238 0014 0123     		movs	r3, #1
 2239 0016 FB74     		strb	r3, [r7, #19]
 569:.\AdvantageImpl.c ****         uint8 numhoses = 0x00;
 2240              		.loc 1 569 0
 2241 0018 0023     		movs	r3, #0
 2242 001a BB74     		strb	r3, [r7, #18]
 570:.\AdvantageImpl.c ****         switch(pjob->_ppump->_pumpindex)
 2243              		.loc 1 570 0
 2244 001c 7B69     		ldr	r3, [r7, #20]
 2245 001e DB69     		ldr	r3, [r3, #28]
 2246 0020 5B78     		ldrb	r3, [r3, #1]	@ zero_extendqisi2
 2247 0022 002B     		cmp	r3, #0
 2248 0024 02D0     		beq	.L64
 2249 0026 012B     		cmp	r3, #1
 2250 0028 04D0     		beq	.L65
 2251 002a 07E0     		b	.L63
 2252              	.L64:
 571:.\AdvantageImpl.c ****         {
 572:.\AdvantageImpl.c ****             case 0x00:
 573:.\AdvantageImpl.c ****             {
 574:.\AdvantageImpl.c ****                 numhoses = _g_dispenserlayoutinfo._hosesposition1;
 2253              		.loc 1 574 0
 2254 002c 5D4B     		ldr	r3, .L69
 2255 002e DB78     		ldrb	r3, [r3, #3]
 2256 0030 BB74     		strb	r3, [r7, #18]
 575:.\AdvantageImpl.c ****                 break;
 2257              		.loc 1 575 0
 2258 0032 03E0     		b	.L63
 2259              	.L65:
 576:.\AdvantageImpl.c ****             }
 577:.\AdvantageImpl.c ****             case 0x01:
 578:.\AdvantageImpl.c ****             {
 579:.\AdvantageImpl.c ****                 numhoses = _g_dispenserlayoutinfo._hosesposition2;
 2260              		.loc 1 579 0
 2261 0034 5B4B     		ldr	r3, .L69
 2262 0036 1B79     		ldrb	r3, [r3, #4]
 2263 0038 BB74     		strb	r3, [r7, #18]
 580:.\AdvantageImpl.c ****                 break;
 2264              		.loc 1 580 0
 2265 003a 00BF     		nop
 2266              	.L63:
 581:.\AdvantageImpl.c ****             }
 582:.\AdvantageImpl.c ****         }
ARM GAS  C:\Users\RECEPC~1\AppData\Local\Temp\cc7aDVfG.s 			page 51


 583:.\AdvantageImpl.c ****         
 584:.\AdvantageImpl.c ****         pjob->_reenqueue = false;
 2267              		.loc 1 584 0
 2268 003c 7B69     		ldr	r3, [r7, #20]
 2269 003e 0022     		movs	r2, #0
 2270 0040 1A70     		strb	r2, [r3]
 585:.\AdvantageImpl.c ****         
 586:.\AdvantageImpl.c ****         pjob->_ppump->PumpTransQueueLock(pjob->_ppump);
 2271              		.loc 1 586 0
 2272 0042 7B69     		ldr	r3, [r7, #20]
 2273 0044 DB69     		ldr	r3, [r3, #28]
 2274 0046 D3F8443B 		ldr	r3, [r3, #2884]
 2275 004a 7A69     		ldr	r2, [r7, #20]
 2276 004c D269     		ldr	r2, [r2, #28]
 2277 004e 1046     		mov	r0, r2
 2278 0050 9847     		blx	r3
 587:.\AdvantageImpl.c ****         bool transtatefound = pjob->_ppump->PumpTransQueueFind(pjob->_ppump, RF_MUX_TOTALS_REPORT_R
 2279              		.loc 1 587 0
 2280 0052 7B69     		ldr	r3, [r7, #20]
 2281 0054 DB69     		ldr	r3, [r3, #28]
 2282 0056 D3F84C3B 		ldr	r3, [r3, #2892]
 2283 005a 7A69     		ldr	r2, [r7, #20]
 2284 005c D269     		ldr	r2, [r2, #28]
 2285 005e 1046     		mov	r0, r2
 2286 0060 E821     		movs	r1, #232
 2287 0062 9847     		blx	r3
 2288 0064 0346     		mov	r3, r0
 2289 0066 7B74     		strb	r3, [r7, #17]
 588:.\AdvantageImpl.c ****         PNEAR_PUMPTRANSACTIONALSTATEPTR pts = pjob->_ppump->PumpTransQueueAllocate(pjob->_ppump);
 2290              		.loc 1 588 0
 2291 0068 7B69     		ldr	r3, [r7, #20]
 2292 006a DB69     		ldr	r3, [r3, #28]
 2293 006c D3F8583B 		ldr	r3, [r3, #2904]
 2294 0070 7A69     		ldr	r2, [r7, #20]
 2295 0072 D269     		ldr	r2, [r2, #28]
 2296 0074 1046     		mov	r0, r2
 2297 0076 9847     		blx	r3
 2298 0078 F860     		str	r0, [r7, #12]
 589:.\AdvantageImpl.c ****         PNEAR_PUMPTRANSACTIONALSTATEPTR ptstemp = pjob->_ppump->PumpTransQueueAllocate(pjob->_ppump
 2299              		.loc 1 589 0
 2300 007a 7B69     		ldr	r3, [r7, #20]
 2301 007c DB69     		ldr	r3, [r3, #28]
 2302 007e D3F8583B 		ldr	r3, [r3, #2904]
 2303 0082 7A69     		ldr	r2, [r7, #20]
 2304 0084 D269     		ldr	r2, [r2, #28]
 2305 0086 1046     		mov	r0, r2
 2306 0088 9847     		blx	r3
 2307 008a B860     		str	r0, [r7, #8]
 590:.\AdvantageImpl.c ****         
 591:.\AdvantageImpl.c ****         pjob->_ppump->PumpTransQueueUnlock(pjob->_ppump);
 2308              		.loc 1 591 0
 2309 008c 7B69     		ldr	r3, [r7, #20]
 2310 008e DB69     		ldr	r3, [r3, #28]
 2311 0090 D3F8483B 		ldr	r3, [r3, #2888]
 2312 0094 7A69     		ldr	r2, [r7, #20]
 2313 0096 D269     		ldr	r2, [r2, #28]
 2314 0098 1046     		mov	r0, r2
ARM GAS  C:\Users\RECEPC~1\AppData\Local\Temp\cc7aDVfG.s 			page 52


 2315 009a 9847     		blx	r3
 592:.\AdvantageImpl.c ****         pjob->_ppump->_transhealth = _PUMP_OK_;
 2316              		.loc 1 592 0
 2317 009c 7B69     		ldr	r3, [r7, #20]
 2318 009e DB69     		ldr	r3, [r3, #28]
 2319 00a0 0122     		movs	r2, #1
 2320 00a2 1A76     		strb	r2, [r3, #24]
 593:.\AdvantageImpl.c ****         if(ptstemp)
 2321              		.loc 1 593 0
 2322 00a4 BB68     		ldr	r3, [r7, #8]
 2323 00a6 002B     		cmp	r3, #0
 2324 00a8 68D0     		beq	.L66
 594:.\AdvantageImpl.c ****         {
 595:.\AdvantageImpl.c ****             if(pts && !transtatefound)
 2325              		.loc 1 595 0
 2326 00aa FB68     		ldr	r3, [r7, #12]
 2327 00ac 002B     		cmp	r3, #0
 2328 00ae 41D0     		beq	.L67
 2329              		.loc 1 595 0 is_stmt 0 discriminator 1
 2330 00b0 7B7C     		ldrb	r3, [r7, #17]
 2331 00b2 83F00103 		eor	r3, r3, #1
 2332 00b6 DBB2     		uxtb	r3, r3
 2333 00b8 002B     		cmp	r3, #0
 2334 00ba 3BD0     		beq	.L67
 596:.\AdvantageImpl.c ****             {
 597:.\AdvantageImpl.c ****                 pts->_transtate = RF_MUX_TOTALS_REPORT_RESPONSE;
 2335              		.loc 1 597 0 is_stmt 1
 2336 00bc FB68     		ldr	r3, [r7, #12]
 2337 00be E822     		movs	r2, #232
 2338 00c0 5A70     		strb	r2, [r3, #1]
 598:.\AdvantageImpl.c ****                 
 599:.\AdvantageImpl.c ****                 memcpy(pts->_buffer, pjob->_ppump->_rxbuffer, pjob->_ppump->_rxbuffersize);
 2339              		.loc 1 599 0
 2340 00c2 FB68     		ldr	r3, [r7, #12]
 2341 00c4 991C     		adds	r1, r3, #2
 2342 00c6 7B69     		ldr	r3, [r7, #20]
 2343 00c8 DB69     		ldr	r3, [r3, #28]
 2344 00ca 03F5D072 		add	r2, r3, #416
 2345 00ce 7B69     		ldr	r3, [r7, #20]
 2346 00d0 DB69     		ldr	r3, [r3, #28]
 2347 00d2 B3F82033 		ldrh	r3, [r3, #800]
 2348 00d6 0846     		mov	r0, r1
 2349 00d8 1146     		mov	r1, r2
 2350 00da 1A46     		mov	r2, r3
 2351 00dc FFF7FEFF 		bl	memcpy
 600:.\AdvantageImpl.c ****                 pts->_buffersize = pjob->_ppump->_rxbuffersize;
 2352              		.loc 1 600 0
 2353 00e0 7B69     		ldr	r3, [r7, #20]
 2354 00e2 DB69     		ldr	r3, [r3, #28]
 2355 00e4 B3F82023 		ldrh	r2, [r3, #800]
 2356 00e8 FB68     		ldr	r3, [r7, #12]
 2357 00ea A3F80221 		strh	r2, [r3, #258]	@ movhi
 601:.\AdvantageImpl.c ****                 
 602:.\AdvantageImpl.c ****                 pjob->_ppump->PumpTransQueueDeallocate(pjob->_ppump,ptstemp);
 2358              		.loc 1 602 0
 2359 00ee 7B69     		ldr	r3, [r7, #20]
 2360 00f0 DB69     		ldr	r3, [r3, #28]
ARM GAS  C:\Users\RECEPC~1\AppData\Local\Temp\cc7aDVfG.s 			page 53


 2361 00f2 D3F8543B 		ldr	r3, [r3, #2900]
 2362 00f6 7A69     		ldr	r2, [r7, #20]
 2363 00f8 D269     		ldr	r2, [r2, #28]
 2364 00fa 1046     		mov	r0, r2
 2365 00fc B968     		ldr	r1, [r7, #8]
 2366 00fe 9847     		blx	r3
 603:.\AdvantageImpl.c ****                 pjob->_ppump->PumpTransQueueLock(pjob->_ppump);
 2367              		.loc 1 603 0
 2368 0100 7B69     		ldr	r3, [r7, #20]
 2369 0102 DB69     		ldr	r3, [r3, #28]
 2370 0104 D3F8443B 		ldr	r3, [r3, #2884]
 2371 0108 7A69     		ldr	r2, [r7, #20]
 2372 010a D269     		ldr	r2, [r2, #28]
 2373 010c 1046     		mov	r0, r2
 2374 010e 9847     		blx	r3
 604:.\AdvantageImpl.c ****                 pjob->_ppump->PumpTransQueueEnqueue(pjob->_ppump, pts);
 2375              		.loc 1 604 0
 2376 0110 7B69     		ldr	r3, [r7, #20]
 2377 0112 DB69     		ldr	r3, [r3, #28]
 2378 0114 D3F8503B 		ldr	r3, [r3, #2896]
 2379 0118 7A69     		ldr	r2, [r7, #20]
 2380 011a D269     		ldr	r2, [r2, #28]
 2381 011c 1046     		mov	r0, r2
 2382 011e F968     		ldr	r1, [r7, #12]
 2383 0120 9847     		blx	r3
 605:.\AdvantageImpl.c ****                 pjob->_ppump->PumpTransQueueUnlock(pjob->_ppump);
 2384              		.loc 1 605 0
 2385 0122 7B69     		ldr	r3, [r7, #20]
 2386 0124 DB69     		ldr	r3, [r3, #28]
 2387 0126 D3F8483B 		ldr	r3, [r3, #2888]
 2388 012a 7A69     		ldr	r2, [r7, #20]
 2389 012c D269     		ldr	r2, [r2, #28]
 2390 012e 1046     		mov	r0, r2
 2391 0130 9847     		blx	r3
 2392 0132 18E0     		b	.L68
 2393              	.L67:
 606:.\AdvantageImpl.c ****             }
 607:.\AdvantageImpl.c ****             else
 608:.\AdvantageImpl.c ****             {
 609:.\AdvantageImpl.c ****                 pjob->_ppump->PumpTransQueueLock(pjob->_ppump);
 2394              		.loc 1 609 0
 2395 0134 7B69     		ldr	r3, [r7, #20]
 2396 0136 DB69     		ldr	r3, [r3, #28]
 2397 0138 D3F8443B 		ldr	r3, [r3, #2884]
 2398 013c 7A69     		ldr	r2, [r7, #20]
 2399 013e D269     		ldr	r2, [r2, #28]
 2400 0140 1046     		mov	r0, r2
 2401 0142 9847     		blx	r3
 610:.\AdvantageImpl.c ****                 pjob->_ppump->PumpTransQueueDeallocate(pjob->_ppump, pts);
 2402              		.loc 1 610 0
 2403 0144 7B69     		ldr	r3, [r7, #20]
 2404 0146 DB69     		ldr	r3, [r3, #28]
 2405 0148 D3F8543B 		ldr	r3, [r3, #2900]
 2406 014c 7A69     		ldr	r2, [r7, #20]
 2407 014e D269     		ldr	r2, [r2, #28]
 2408 0150 1046     		mov	r0, r2
 2409 0152 F968     		ldr	r1, [r7, #12]
ARM GAS  C:\Users\RECEPC~1\AppData\Local\Temp\cc7aDVfG.s 			page 54


 2410 0154 9847     		blx	r3
 611:.\AdvantageImpl.c ****                 pjob->_ppump->PumpTransQueueUnlock(pjob->_ppump);
 2411              		.loc 1 611 0
 2412 0156 7B69     		ldr	r3, [r7, #20]
 2413 0158 DB69     		ldr	r3, [r3, #28]
 2414 015a D3F8483B 		ldr	r3, [r3, #2888]
 2415 015e 7A69     		ldr	r2, [r7, #20]
 2416 0160 D269     		ldr	r2, [r2, #28]
 2417 0162 1046     		mov	r0, r2
 2418 0164 9847     		blx	r3
 2419              	.L68:
 612:.\AdvantageImpl.c ****             }
 613:.\AdvantageImpl.c ****             memset(pjob->_ppump->_rxbuffer, 0x00, _PUMP_RX_BUFFER_SIZE_);
 2420              		.loc 1 613 0
 2421 0166 7B69     		ldr	r3, [r7, #20]
 2422 0168 DB69     		ldr	r3, [r3, #28]
 2423 016a 03F5D073 		add	r3, r3, #416
 2424 016e 1846     		mov	r0, r3
 2425 0170 0021     		movs	r1, #0
 2426 0172 4FF4C072 		mov	r2, #384
 2427 0176 FFF7FEFF 		bl	memset
 2428 017a 10E0     		b	.L61
 2429              	.L66:
 614:.\AdvantageImpl.c ****         }else{
 615:.\AdvantageImpl.c ****             pjob->_ppump->PumpTransQueueDeallocate(pjob->_ppump, pts);
 2430              		.loc 1 615 0
 2431 017c 7B69     		ldr	r3, [r7, #20]
 2432 017e DB69     		ldr	r3, [r3, #28]
 2433 0180 D3F8543B 		ldr	r3, [r3, #2900]
 2434 0184 7A69     		ldr	r2, [r7, #20]
 2435 0186 D269     		ldr	r2, [r2, #28]
 2436 0188 1046     		mov	r0, r2
 2437 018a F968     		ldr	r1, [r7, #12]
 2438 018c 9847     		blx	r3
 616:.\AdvantageImpl.c ****             pjob->_ppump->PumpTransQueueUnlock(pjob->_ppump);
 2439              		.loc 1 616 0
 2440 018e 7B69     		ldr	r3, [r7, #20]
 2441 0190 DB69     		ldr	r3, [r3, #28]
 2442 0192 D3F8483B 		ldr	r3, [r3, #2888]
 2443 0196 7A69     		ldr	r2, [r7, #20]
 2444 0198 D269     		ldr	r2, [r2, #28]
 2445 019a 1046     		mov	r0, r2
 2446 019c 9847     		blx	r3
 2447              	.L61:
 2448              	.LBE6:
 617:.\AdvantageImpl.c ****         }
 618:.\AdvantageImpl.c ****     }
 619:.\AdvantageImpl.c **** }
 2449              		.loc 1 619 0
 2450 019e 1837     		adds	r7, r7, #24
 2451              		.cfi_def_cfa_offset 8
 2452 01a0 BD46     		mov	sp, r7
 2453              		.cfi_def_cfa_register 13
 2454              		@ sp needed
 2455 01a2 80BD     		pop	{r7, pc}
 2456              	.L70:
 2457              		.align	2
ARM GAS  C:\Users\RECEPC~1\AppData\Local\Temp\cc7aDVfG.s 			page 55


 2458              	.L69:
 2459 01a4 00000000 		.word	_g_dispenserlayoutinfo
 2460              		.cfi_endproc
 2461              	.LFE67:
 2462              		.size	ProcessPumpTotalsDataReport, .-ProcessPumpTotalsDataReport
 2463              		.section	.text.ProcessPumpTotalsDataPpuCheck,"ax",%progbits
 2464              		.align	2
 2465              		.global	ProcessPumpTotalsDataPpuCheck
 2466              		.thumb
 2467              		.thumb_func
 2468              		.type	ProcessPumpTotalsDataPpuCheck, %function
 2469              	ProcessPumpTotalsDataPpuCheck:
 2470              	.LFB68:
 620:.\AdvantageImpl.c **** 
 621:.\AdvantageImpl.c **** //@Created By: HIJH
 622:.\AdvantageImpl.c **** //@Septembre de 2016
 623:.\AdvantageImpl.c **** void ProcessPumpTotalsDataPpuCheck(void *pparam)
 624:.\AdvantageImpl.c **** {
 2471              		.loc 1 624 0
 2472              		.cfi_startproc
 2473              		@ args = 0, pretend = 0, frame = 16
 2474              		@ frame_needed = 1, uses_anonymous_args = 0
 2475 0000 80B5     		push	{r7, lr}
 2476              		.cfi_def_cfa_offset 8
 2477              		.cfi_offset 7, -8
 2478              		.cfi_offset 14, -4
 2479 0002 84B0     		sub	sp, sp, #16
 2480              		.cfi_def_cfa_offset 24
 2481 0004 00AF     		add	r7, sp, #0
 2482              		.cfi_def_cfa_register 7
 2483 0006 7860     		str	r0, [r7, #4]
 625:.\AdvantageImpl.c ****     PPUMPTRANSACTIONJOBCONTEXTPTR pjob = (PPUMPTRANSACTIONJOBCONTEXTPTR)pparam;
 2484              		.loc 1 625 0
 2485 0008 7B68     		ldr	r3, [r7, #4]
 2486 000a FB60     		str	r3, [r7, #12]
 626:.\AdvantageImpl.c ****     if(pjob)
 2487              		.loc 1 626 0
 2488 000c FB68     		ldr	r3, [r7, #12]
 2489 000e 002B     		cmp	r3, #0
 2490 0010 09D0     		beq	.L71
 627:.\AdvantageImpl.c ****     {
 628:.\AdvantageImpl.c **** /*        
 629:.\AdvantageImpl.c ****         
 630:.\AdvantageImpl.c ****         PNEAR_PUMPTRANSACTIONALSTATEPTR pts = pjob->_ppump->PumpTransQueueAllocate(pjob->_ppump);
 631:.\AdvantageImpl.c ****         if(pts)
 632:.\AdvantageImpl.c ****         {
 633:.\AdvantageImpl.c ****             pts->_transtate = _PUMP_POSITION_TRANSREPORT_;
 634:.\AdvantageImpl.c ****             memcpy(pts->_buffer, pjob->_ppump->_rxbuffer, pjob->_ppump->_rxbuffersize);
 635:.\AdvantageImpl.c ****             pts->_buffersize = pjob->_ppump->_rxbuffersize;
 636:.\AdvantageImpl.c ****         }
 637:.\AdvantageImpl.c ****         
 638:.\AdvantageImpl.c ****         
 639:.\AdvantageImpl.c ****         uint8 var = 0;//THIS IS A DUMMY VAR TO DROP THE WARNING IF THERE IS NO ASSIGNMENT!!
 640:.\AdvantageImpl.c ****         uint8 index = 0;
 641:.\AdvantageImpl.c ****         //All indexes were taken according to the documentation
 642:.\AdvantageImpl.c ****         var = (pjob->_ppump->_rxbuffer[0x02 + _PUMP_TOTALS_BUFFER_SHIFT_*index] & 0x0F);//Hose id
 643:.\AdvantageImpl.c **** 
ARM GAS  C:\Users\RECEPC~1\AppData\Local\Temp\cc7aDVfG.s 			page 56


 644:.\AdvantageImpl.c ****         //Bytes from index 0x04 + _PUMP_TOTALS_BUFFER_SHIFT_*index to 0x0F + _PUMP_TOTALS_BUFFER_SH
 645:.\AdvantageImpl.c ****         //are the digits for the total fuel volume delivered until now on this pump
 646:.\AdvantageImpl.c ****         //Digits are in BCD format
 647:.\AdvantageImpl.c ****         var = (pjob->_ppump->_rxbuffer[0x04 + _PUMP_TOTALS_BUFFER_SHIFT_*index] & 0x0F);
 648:.\AdvantageImpl.c ****         var = (pjob->_ppump->_rxbuffer[0x05 + _PUMP_TOTALS_BUFFER_SHIFT_*index] & 0x0F);
 649:.\AdvantageImpl.c ****         var = (pjob->_ppump->_rxbuffer[0x06 + _PUMP_TOTALS_BUFFER_SHIFT_*index] & 0x0F);
 650:.\AdvantageImpl.c ****         var = (pjob->_ppump->_rxbuffer[0x07 + _PUMP_TOTALS_BUFFER_SHIFT_*index] & 0x0F);
 651:.\AdvantageImpl.c ****         var = (pjob->_ppump->_rxbuffer[0x08 + _PUMP_TOTALS_BUFFER_SHIFT_*index] & 0x0F);
 652:.\AdvantageImpl.c ****         var = (pjob->_ppump->_rxbuffer[0x09 + _PUMP_TOTALS_BUFFER_SHIFT_*index] & 0x0F);
 653:.\AdvantageImpl.c ****         var = (pjob->_ppump->_rxbuffer[0x0A + _PUMP_TOTALS_BUFFER_SHIFT_*index] & 0x0F);
 654:.\AdvantageImpl.c ****         var = (pjob->_ppump->_rxbuffer[0x0B + _PUMP_TOTALS_BUFFER_SHIFT_*index] & 0x0F);
 655:.\AdvantageImpl.c ****         var = (pjob->_ppump->_rxbuffer[0x0C + _PUMP_TOTALS_BUFFER_SHIFT_*index] & 0x0F);
 656:.\AdvantageImpl.c ****         var = (pjob->_ppump->_rxbuffer[0x0D + _PUMP_TOTALS_BUFFER_SHIFT_*index] & 0x0F);
 657:.\AdvantageImpl.c ****         var = (pjob->_ppump->_rxbuffer[0x0E + _PUMP_TOTALS_BUFFER_SHIFT_*index] & 0x0F);
 658:.\AdvantageImpl.c ****         var = (pjob->_ppump->_rxbuffer[0x0F + _PUMP_TOTALS_BUFFER_SHIFT_*index] & 0x0F);
 659:.\AdvantageImpl.c **** 
 660:.\AdvantageImpl.c ****         //Bytes from index 0x11 + _PUMP_TOTALS_BUFFER_SHIFT_*index to 0x1C + _PUMP_TOTALS_BUFFER_SH
 661:.\AdvantageImpl.c ****         //are the digits for the total money charged until now on this pump
 662:.\AdvantageImpl.c ****         //Digits are in BCD format
 663:.\AdvantageImpl.c ****         var = (pjob->_ppump->_rxbuffer[0x11 + _PUMP_TOTALS_BUFFER_SHIFT_*index] & 0x0F);
 664:.\AdvantageImpl.c ****         var = (pjob->_ppump->_rxbuffer[0x12 + _PUMP_TOTALS_BUFFER_SHIFT_*index] & 0x0F);
 665:.\AdvantageImpl.c ****         var = (pjob->_ppump->_rxbuffer[0x13 + _PUMP_TOTALS_BUFFER_SHIFT_*index] & 0x0F);
 666:.\AdvantageImpl.c ****         var = (pjob->_ppump->_rxbuffer[0x14 + _PUMP_TOTALS_BUFFER_SHIFT_*index] & 0x0F);
 667:.\AdvantageImpl.c ****         var = (pjob->_ppump->_rxbuffer[0x15 + _PUMP_TOTALS_BUFFER_SHIFT_*index] & 0x0F);
 668:.\AdvantageImpl.c ****         var = (pjob->_ppump->_rxbuffer[0x16 + _PUMP_TOTALS_BUFFER_SHIFT_*index] & 0x0F);
 669:.\AdvantageImpl.c ****         var = (pjob->_ppump->_rxbuffer[0x17 + _PUMP_TOTALS_BUFFER_SHIFT_*index] & 0x0F);
 670:.\AdvantageImpl.c ****         var = (pjob->_ppump->_rxbuffer[0x18 + _PUMP_TOTALS_BUFFER_SHIFT_*index] & 0x0F);
 671:.\AdvantageImpl.c ****         var = (pjob->_ppump->_rxbuffer[0x19 + _PUMP_TOTALS_BUFFER_SHIFT_*index] & 0x0F);
 672:.\AdvantageImpl.c ****         var = (pjob->_ppump->_rxbuffer[0x1A + _PUMP_TOTALS_BUFFER_SHIFT_*index] & 0x0F);
 673:.\AdvantageImpl.c ****         var = (pjob->_ppump->_rxbuffer[0x1B + _PUMP_TOTALS_BUFFER_SHIFT_*index] & 0x0F);
 674:.\AdvantageImpl.c ****         var = (pjob->_ppump->_rxbuffer[0x1C + _PUMP_TOTALS_BUFFER_SHIFT_*index] & 0x0F);
 675:.\AdvantageImpl.c ****         
 676:.\AdvantageImpl.c ****         //Bytes from index 0x1E + _PUMP_TOTALS_BUFFER_SHIFT_*index to 0x23 + _PUMP_TOTALS_BUFFER_SH
 677:.\AdvantageImpl.c ****         //are the digits for the reference PPU used on this pump/hose
 678:.\AdvantageImpl.c ****         //Digits are in BCD format
 679:.\AdvantageImpl.c ****         var = (pjob->_ppump->_rxbuffer[0x1E + _PUMP_TOTALS_BUFFER_SHIFT_*index] & 0x0F);
 680:.\AdvantageImpl.c ****         var = (pjob->_ppump->_rxbuffer[0x1F + _PUMP_TOTALS_BUFFER_SHIFT_*index] & 0x0F);
 681:.\AdvantageImpl.c ****         var = (pjob->_ppump->_rxbuffer[0x20 + _PUMP_TOTALS_BUFFER_SHIFT_*index] & 0x0F);
 682:.\AdvantageImpl.c ****         var = (pjob->_ppump->_rxbuffer[0x21 + _PUMP_TOTALS_BUFFER_SHIFT_*index] & 0x0F);
 683:.\AdvantageImpl.c ****         var = (pjob->_ppump->_rxbuffer[0x22 + _PUMP_TOTALS_BUFFER_SHIFT_*index] & 0x0F);
 684:.\AdvantageImpl.c ****         var = (pjob->_ppump->_rxbuffer[0x23 + _PUMP_TOTALS_BUFFER_SHIFT_*index] & 0x0F);
 685:.\AdvantageImpl.c **** */        
 686:.\AdvantageImpl.c ****         memset(pjob->_ppump->_rxbuffer, 0x00, _PUMP_RX_BUFFER_SIZE_);
 2491              		.loc 1 686 0
 2492 0012 FB68     		ldr	r3, [r7, #12]
 2493 0014 DB69     		ldr	r3, [r3, #28]
 2494 0016 03F5D073 		add	r3, r3, #416
 2495 001a 1846     		mov	r0, r3
 2496 001c 0021     		movs	r1, #0
 2497 001e 4FF4C072 		mov	r2, #384
 2498 0022 FFF7FEFF 		bl	memset
 2499              	.L71:
 687:.\AdvantageImpl.c ****     }
 688:.\AdvantageImpl.c **** }
 2500              		.loc 1 688 0
 2501 0026 1037     		adds	r7, r7, #16
 2502              		.cfi_def_cfa_offset 8
ARM GAS  C:\Users\RECEPC~1\AppData\Local\Temp\cc7aDVfG.s 			page 57


 2503 0028 BD46     		mov	sp, r7
 2504              		.cfi_def_cfa_register 13
 2505              		@ sp needed
 2506 002a 80BD     		pop	{r7, pc}
 2507              		.cfi_endproc
 2508              	.LFE68:
 2509              		.size	ProcessPumpTotalsDataPpuCheck, .-ProcessPumpTotalsDataPpuCheck
 2510              		.section	.text.PumpJobTimeout,"ax",%progbits
 2511              		.align	2
 2512              		.global	PumpJobTimeout
 2513              		.thumb
 2514              		.thumb_func
 2515              		.type	PumpJobTimeout, %function
 2516              	PumpJobTimeout:
 2517              	.LFB69:
 689:.\AdvantageImpl.c **** 
 690:.\AdvantageImpl.c **** //@Created By: HIJH
 691:.\AdvantageImpl.c **** //@Date: Septembre de 2016
 692:.\AdvantageImpl.c **** //This must be used to notify the log registry about the timeout issue
 693:.\AdvantageImpl.c **** void PumpJobTimeout(void *pparam)
 694:.\AdvantageImpl.c **** {
 2518              		.loc 1 694 0
 2519              		.cfi_startproc
 2520              		@ args = 0, pretend = 0, frame = 16
 2521              		@ frame_needed = 1, uses_anonymous_args = 0
 2522              		@ link register save eliminated.
 2523 0000 80B4     		push	{r7}
 2524              		.cfi_def_cfa_offset 4
 2525              		.cfi_offset 7, -4
 2526 0002 85B0     		sub	sp, sp, #20
 2527              		.cfi_def_cfa_offset 24
 2528 0004 00AF     		add	r7, sp, #0
 2529              		.cfi_def_cfa_register 7
 2530 0006 7860     		str	r0, [r7, #4]
 695:.\AdvantageImpl.c ****     PPUMPTRANSACTIONJOBCONTEXTPTR pjob = (PPUMPTRANSACTIONJOBCONTEXTPTR)pparam;
 2531              		.loc 1 695 0
 2532 0008 7B68     		ldr	r3, [r7, #4]
 2533 000a FB60     		str	r3, [r7, #12]
 696:.\AdvantageImpl.c ****     if(pjob)
 2534              		.loc 1 696 0
 2535 000c FB68     		ldr	r3, [r7, #12]
 2536 000e 002B     		cmp	r3, #0
 2537 0010 0CD0     		beq	.L73
 697:.\AdvantageImpl.c ****     {
 698:.\AdvantageImpl.c ****         //Release the Current Loop and log if possible
 699:.\AdvantageImpl.c ****         if(pjob->_retriescounter >= _MAX_RETRIES_)
 2538              		.loc 1 699 0
 2539 0012 FB68     		ldr	r3, [r7, #12]
 2540 0014 DB89     		ldrh	r3, [r3, #14]	@ movhi
 2541 0016 9BB2     		uxth	r3, r3
 2542 0018 132B     		cmp	r3, #19
 2543 001a 07D9     		bls	.L73
 700:.\AdvantageImpl.c ****         {
 701:.\AdvantageImpl.c ****             pjob->_ppump->_pumpstate = PUMP_UNKNOWN;
 2544              		.loc 1 701 0
 2545 001c FB68     		ldr	r3, [r7, #12]
 2546 001e DB69     		ldr	r3, [r3, #28]
ARM GAS  C:\Users\RECEPC~1\AppData\Local\Temp\cc7aDVfG.s 			page 58


 2547 0020 FF22     		movs	r2, #255
 2548 0022 9A70     		strb	r2, [r3, #2]
 702:.\AdvantageImpl.c ****             pjob->_ppump->_transhealth = _PUMP_FAIL_;
 2549              		.loc 1 702 0
 2550 0024 FB68     		ldr	r3, [r7, #12]
 2551 0026 DB69     		ldr	r3, [r3, #28]
 2552 0028 0222     		movs	r2, #2
 2553 002a 1A76     		strb	r2, [r3, #24]
 2554              	.L73:
 703:.\AdvantageImpl.c ****         }
 704:.\AdvantageImpl.c ****     }
 705:.\AdvantageImpl.c **** }
 2555              		.loc 1 705 0
 2556 002c 1437     		adds	r7, r7, #20
 2557              		.cfi_def_cfa_offset 4
 2558 002e BD46     		mov	sp, r7
 2559              		.cfi_def_cfa_register 13
 2560              		@ sp needed
 2561 0030 5DF8047B 		ldr	r7, [sp], #4
 2562              		.cfi_restore 7
 2563              		.cfi_def_cfa_offset 0
 2564 0034 7047     		bx	lr
 2565              		.cfi_endproc
 2566              	.LFE69:
 2567              		.size	PumpJobTimeout, .-PumpJobTimeout
 2568 0036 00BF     		.section	.text.PumpStateJobTimeout,"ax",%progbits
 2569              		.align	2
 2570              		.global	PumpStateJobTimeout
 2571              		.thumb
 2572              		.thumb_func
 2573              		.type	PumpStateJobTimeout, %function
 2574              	PumpStateJobTimeout:
 2575              	.LFB70:
 706:.\AdvantageImpl.c **** 
 707:.\AdvantageImpl.c **** //@Created By: HIJH
 708:.\AdvantageImpl.c **** //@Date: Septembre de 2016
 709:.\AdvantageImpl.c **** //This must be used to notify the log registry about the timeout issue
 710:.\AdvantageImpl.c **** void PumpStateJobTimeout(void *pparam)
 711:.\AdvantageImpl.c **** {
 2576              		.loc 1 711 0
 2577              		.cfi_startproc
 2578              		@ args = 0, pretend = 0, frame = 16
 2579              		@ frame_needed = 1, uses_anonymous_args = 0
 2580              		@ link register save eliminated.
 2581 0000 80B4     		push	{r7}
 2582              		.cfi_def_cfa_offset 4
 2583              		.cfi_offset 7, -4
 2584 0002 85B0     		sub	sp, sp, #20
 2585              		.cfi_def_cfa_offset 24
 2586 0004 00AF     		add	r7, sp, #0
 2587              		.cfi_def_cfa_register 7
 2588 0006 7860     		str	r0, [r7, #4]
 712:.\AdvantageImpl.c ****     PPUMPTRANSACTIONJOBCONTEXTPTR pjob = (PPUMPTRANSACTIONJOBCONTEXTPTR)pparam;
 2589              		.loc 1 712 0
 2590 0008 7B68     		ldr	r3, [r7, #4]
 2591 000a FB60     		str	r3, [r7, #12]
 713:.\AdvantageImpl.c ****     if(pjob)
ARM GAS  C:\Users\RECEPC~1\AppData\Local\Temp\cc7aDVfG.s 			page 59


 2592              		.loc 1 713 0
 2593 000c FB68     		ldr	r3, [r7, #12]
 2594 000e 002B     		cmp	r3, #0
 2595 0010 0CD0     		beq	.L75
 714:.\AdvantageImpl.c ****     {
 715:.\AdvantageImpl.c ****         //Release the Current Loop and log if possible
 716:.\AdvantageImpl.c ****         if(pjob->_retriescounter >= _MAX_RETRIES_)
 2596              		.loc 1 716 0
 2597 0012 FB68     		ldr	r3, [r7, #12]
 2598 0014 DB89     		ldrh	r3, [r3, #14]	@ movhi
 2599 0016 9BB2     		uxth	r3, r3
 2600 0018 132B     		cmp	r3, #19
 2601 001a 07D9     		bls	.L75
 717:.\AdvantageImpl.c ****         {
 718:.\AdvantageImpl.c ****             pjob->_ppump->_pumpstate = PUMP_UNKNOWN;
 2602              		.loc 1 718 0
 2603 001c FB68     		ldr	r3, [r7, #12]
 2604 001e DB69     		ldr	r3, [r3, #28]
 2605 0020 FF22     		movs	r2, #255
 2606 0022 9A70     		strb	r2, [r3, #2]
 719:.\AdvantageImpl.c ****             pjob->_ppump->_transhealth = _PUMP_FAIL_;
 2607              		.loc 1 719 0
 2608 0024 FB68     		ldr	r3, [r7, #12]
 2609 0026 DB69     		ldr	r3, [r3, #28]
 2610 0028 0222     		movs	r2, #2
 2611 002a 1A76     		strb	r2, [r3, #24]
 2612              	.L75:
 720:.\AdvantageImpl.c ****         }
 721:.\AdvantageImpl.c ****     }
 722:.\AdvantageImpl.c **** }
 2613              		.loc 1 722 0
 2614 002c 1437     		adds	r7, r7, #20
 2615              		.cfi_def_cfa_offset 4
 2616 002e BD46     		mov	sp, r7
 2617              		.cfi_def_cfa_register 13
 2618              		@ sp needed
 2619 0030 5DF8047B 		ldr	r7, [sp], #4
 2620              		.cfi_restore 7
 2621              		.cfi_def_cfa_offset 0
 2622 0034 7047     		bx	lr
 2623              		.cfi_endproc
 2624              	.LFE70:
 2625              		.size	PumpStateJobTimeout, .-PumpStateJobTimeout
 2626 0036 00BF     		.section	.text.PumpAuthorization,"ax",%progbits
 2627              		.align	2
 2628              		.global	PumpAuthorization
 2629              		.thumb
 2630              		.thumb_func
 2631              		.type	PumpAuthorization, %function
 2632              	PumpAuthorization:
 2633              	.LFB71:
 723:.\AdvantageImpl.c **** 
 724:.\AdvantageImpl.c **** ///////////////////////////////////////////////////////////////////////////////////////////////////
 725:.\AdvantageImpl.c **** //////////////////////                 BLOCK OF AVAILABLE REQUEST HANDLERS
 726:.\AdvantageImpl.c **** ///////////////////////////////////////////////////////////////////////////////////////////////////
 727:.\AdvantageImpl.c **** 
 728:.\AdvantageImpl.c **** //@Created By: HIJH
ARM GAS  C:\Users\RECEPC~1\AppData\Local\Temp\cc7aDVfG.s 			page 60


 729:.\AdvantageImpl.c **** //@Date: Septembre de 2016
 730:.\AdvantageImpl.c **** //Sends the authorization request to the pump. This is a single byte command with no response
 731:.\AdvantageImpl.c **** void PumpAuthorization(void *pparam)
 732:.\AdvantageImpl.c **** {
 2634              		.loc 1 732 0
 2635              		.cfi_startproc
 2636              		@ args = 0, pretend = 0, frame = 24
 2637              		@ frame_needed = 1, uses_anonymous_args = 0
 2638 0000 80B5     		push	{r7, lr}
 2639              		.cfi_def_cfa_offset 8
 2640              		.cfi_offset 7, -8
 2641              		.cfi_offset 14, -4
 2642 0002 86B0     		sub	sp, sp, #24
 2643              		.cfi_def_cfa_offset 32
 2644 0004 00AF     		add	r7, sp, #0
 2645              		.cfi_def_cfa_register 7
 2646 0006 7860     		str	r0, [r7, #4]
 733:.\AdvantageImpl.c ****     PNEAR_PUMPPTR ppump = (PNEAR_PUMPPTR)pparam;
 2647              		.loc 1 733 0
 2648 0008 7B68     		ldr	r3, [r7, #4]
 2649 000a 7B61     		str	r3, [r7, #20]
 734:.\AdvantageImpl.c ****     if(ppump)
 2650              		.loc 1 734 0
 2651 000c 7B69     		ldr	r3, [r7, #20]
 2652 000e 002B     		cmp	r3, #0
 2653 0010 34D0     		beq	.L77
 2654              	.LBB7:
 735:.\AdvantageImpl.c ****     {
 736:.\AdvantageImpl.c **** 
 737:.\AdvantageImpl.c ****         if(!ppump->_presetdone)
 2655              		.loc 1 737 0
 2656 0012 7B69     		ldr	r3, [r7, #20]
 2657 0014 1B7A     		ldrb	r3, [r3, #8]
 2658 0016 DBB2     		uxtb	r3, r3
 2659 0018 83F00103 		eor	r3, r3, #1
 2660 001c DBB2     		uxtb	r3, r3
 2661 001e 002B     		cmp	r3, #0
 2662 0020 00D0     		beq	.L79
 738:.\AdvantageImpl.c ****             return;
 2663              		.loc 1 738 0
 2664 0022 2BE0     		b	.L77
 2665              	.L79:
 739:.\AdvantageImpl.c **** 
 740:.\AdvantageImpl.c ****         uint8_t index = 0;
 2666              		.loc 1 740 0
 2667 0024 0023     		movs	r3, #0
 2668 0026 FB74     		strb	r3, [r7, #19]
 741:.\AdvantageImpl.c ****         memset(ppump->_rxbuffer, 0x00, _PUMP_RX_BUFFER_SIZE_);
 2669              		.loc 1 741 0
 2670 0028 7B69     		ldr	r3, [r7, #20]
 2671 002a 03F5D073 		add	r3, r3, #416
 2672 002e 1846     		mov	r0, r3
 2673 0030 0021     		movs	r1, #0
 2674 0032 4FF4C072 		mov	r2, #384
 2675 0036 FFF7FEFF 		bl	memset
 742:.\AdvantageImpl.c ****         PUARTMESSAGEPTR puartdisp = GetUARTMessageSlot(UART_DISPENSER);
 2676              		.loc 1 742 0
ARM GAS  C:\Users\RECEPC~1\AppData\Local\Temp\cc7aDVfG.s 			page 61


 2677 003a A220     		movs	r0, #162
 2678 003c FFF7FEFF 		bl	GetUARTMessageSlot
 2679 0040 F860     		str	r0, [r7, #12]
 743:.\AdvantageImpl.c ****         if(puartdisp)
 2680              		.loc 1 743 0
 2681 0042 FB68     		ldr	r3, [r7, #12]
 2682 0044 002B     		cmp	r3, #0
 2683 0046 19D0     		beq	.L77
 744:.\AdvantageImpl.c ****         {
 745:.\AdvantageImpl.c ****             //Just one byte for the response
 746:.\AdvantageImpl.c ****             puartdisp->_messagetx[index++] = PUMP_COMMAND(PUMP_AUTHORIZATION, ppump->_pumpid);
 2684              		.loc 1 746 0
 2685 0048 FB7C     		ldrb	r3, [r7, #19]	@ zero_extendqisi2
 2686 004a 5A1C     		adds	r2, r3, #1
 2687 004c FA74     		strb	r2, [r7, #19]
 2688 004e 1946     		mov	r1, r3
 2689 0050 7B69     		ldr	r3, [r7, #20]
 2690 0052 1B78     		ldrb	r3, [r3]	@ zero_extendqisi2
 2691 0054 DBB2     		uxtb	r3, r3
 2692 0056 03F00F03 		and	r3, r3, #15
 2693 005a DBB2     		uxtb	r3, r3
 2694 005c 43F01003 		orr	r3, r3, #16
 2695 0060 DBB2     		uxtb	r3, r3
 2696 0062 DAB2     		uxtb	r2, r3
 2697 0064 FB68     		ldr	r3, [r7, #12]
 2698 0066 0B44     		add	r3, r3, r1
 2699 0068 1A71     		strb	r2, [r3, #4]
 747:.\AdvantageImpl.c ****             puartdisp->_messagelength = 1;//One byte
 2700              		.loc 1 747 0
 2701 006a FB68     		ldr	r3, [r7, #12]
 2702 006c 0122     		movs	r2, #1
 2703 006e 5A80     		strh	r2, [r3, #2]	@ movhi
 748:.\AdvantageImpl.c ****             puartdisp->_messagestate = PENDING;
 2704              		.loc 1 748 0
 2705 0070 FB68     		ldr	r3, [r7, #12]
 2706 0072 C222     		movs	r2, #194
 2707 0074 1A70     		strb	r2, [r3]
 749:.\AdvantageImpl.c ****          
 750:.\AdvantageImpl.c ****             ppump->_authorized = true;
 2708              		.loc 1 750 0
 2709 0076 7B69     		ldr	r3, [r7, #20]
 2710 0078 0122     		movs	r2, #1
 2711 007a 9A71     		strb	r2, [r3, #6]
 2712              	.L77:
 2713              	.LBE7:
 751:.\AdvantageImpl.c ****         }        
 752:.\AdvantageImpl.c ****     }
 753:.\AdvantageImpl.c **** }
 2714              		.loc 1 753 0
 2715 007c 1837     		adds	r7, r7, #24
 2716              		.cfi_def_cfa_offset 8
 2717 007e BD46     		mov	sp, r7
 2718              		.cfi_def_cfa_register 13
 2719              		@ sp needed
 2720 0080 80BD     		pop	{r7, pc}
 2721              		.cfi_endproc
 2722              	.LFE71:
ARM GAS  C:\Users\RECEPC~1\AppData\Local\Temp\cc7aDVfG.s 			page 62


 2723              		.size	PumpAuthorization, .-PumpAuthorization
 2724 0082 00BF     		.section	.text.PumpStartupAuthorization,"ax",%progbits
 2725              		.align	2
 2726              		.global	PumpStartupAuthorization
 2727              		.thumb
 2728              		.thumb_func
 2729              		.type	PumpStartupAuthorization, %function
 2730              	PumpStartupAuthorization:
 2731              	.LFB72:
 754:.\AdvantageImpl.c **** 
 755:.\AdvantageImpl.c **** //@Created By: HIJH
 756:.\AdvantageImpl.c **** //@Date: Septembre de 2016
 757:.\AdvantageImpl.c **** //Sends the authorization request to the pump. This is a single byte command with no response
 758:.\AdvantageImpl.c **** void PumpStartupAuthorization(void *pparam)
 759:.\AdvantageImpl.c **** {
 2732              		.loc 1 759 0
 2733              		.cfi_startproc
 2734              		@ args = 0, pretend = 0, frame = 24
 2735              		@ frame_needed = 1, uses_anonymous_args = 0
 2736 0000 80B5     		push	{r7, lr}
 2737              		.cfi_def_cfa_offset 8
 2738              		.cfi_offset 7, -8
 2739              		.cfi_offset 14, -4
 2740 0002 86B0     		sub	sp, sp, #24
 2741              		.cfi_def_cfa_offset 32
 2742 0004 00AF     		add	r7, sp, #0
 2743              		.cfi_def_cfa_register 7
 2744 0006 7860     		str	r0, [r7, #4]
 760:.\AdvantageImpl.c ****     PNEAR_PUMPPTR ppump = (PNEAR_PUMPPTR)pparam;
 2745              		.loc 1 760 0
 2746 0008 7B68     		ldr	r3, [r7, #4]
 2747 000a 7B61     		str	r3, [r7, #20]
 761:.\AdvantageImpl.c ****     if(ppump)
 2748              		.loc 1 761 0
 2749 000c 7B69     		ldr	r3, [r7, #20]
 2750 000e 002B     		cmp	r3, #0
 2751 0010 2BD0     		beq	.L80
 2752              	.LBB8:
 762:.\AdvantageImpl.c ****     {                
 763:.\AdvantageImpl.c ****         uint8_t index = 0;
 2753              		.loc 1 763 0
 2754 0012 0023     		movs	r3, #0
 2755 0014 FB74     		strb	r3, [r7, #19]
 764:.\AdvantageImpl.c ****         memset(ppump->_rxbuffer, 0x00, _PUMP_RX_BUFFER_SIZE_);
 2756              		.loc 1 764 0
 2757 0016 7B69     		ldr	r3, [r7, #20]
 2758 0018 03F5D073 		add	r3, r3, #416
 2759 001c 1846     		mov	r0, r3
 2760 001e 0021     		movs	r1, #0
 2761 0020 4FF4C072 		mov	r2, #384
 2762 0024 FFF7FEFF 		bl	memset
 765:.\AdvantageImpl.c ****         PUARTMESSAGEPTR puartdisp = GetUARTMessageSlot(UART_DISPENSER);
 2763              		.loc 1 765 0
 2764 0028 A220     		movs	r0, #162
 2765 002a FFF7FEFF 		bl	GetUARTMessageSlot
 2766 002e F860     		str	r0, [r7, #12]
 766:.\AdvantageImpl.c ****         if(puartdisp)
ARM GAS  C:\Users\RECEPC~1\AppData\Local\Temp\cc7aDVfG.s 			page 63


 2767              		.loc 1 766 0
 2768 0030 FB68     		ldr	r3, [r7, #12]
 2769 0032 002B     		cmp	r3, #0
 2770 0034 16D0     		beq	.L82
 767:.\AdvantageImpl.c ****         {
 768:.\AdvantageImpl.c ****             //Just one byte for the response
 769:.\AdvantageImpl.c ****             puartdisp->_messagetx[index++] = PUMP_COMMAND(PUMP_AUTHORIZATION, ppump->_pumpid);
 2771              		.loc 1 769 0
 2772 0036 FB7C     		ldrb	r3, [r7, #19]	@ zero_extendqisi2
 2773 0038 5A1C     		adds	r2, r3, #1
 2774 003a FA74     		strb	r2, [r7, #19]
 2775 003c 1946     		mov	r1, r3
 2776 003e 7B69     		ldr	r3, [r7, #20]
 2777 0040 1B78     		ldrb	r3, [r3]	@ zero_extendqisi2
 2778 0042 DBB2     		uxtb	r3, r3
 2779 0044 03F00F03 		and	r3, r3, #15
 2780 0048 DBB2     		uxtb	r3, r3
 2781 004a 43F01003 		orr	r3, r3, #16
 2782 004e DBB2     		uxtb	r3, r3
 2783 0050 DAB2     		uxtb	r2, r3
 2784 0052 FB68     		ldr	r3, [r7, #12]
 2785 0054 0B44     		add	r3, r3, r1
 2786 0056 1A71     		strb	r2, [r3, #4]
 770:.\AdvantageImpl.c ****             puartdisp->_messagelength = 1;//One byte
 2787              		.loc 1 770 0
 2788 0058 FB68     		ldr	r3, [r7, #12]
 2789 005a 0122     		movs	r2, #1
 2790 005c 5A80     		strh	r2, [r3, #2]	@ movhi
 771:.\AdvantageImpl.c ****             puartdisp->_messagestate = PENDING;
 2791              		.loc 1 771 0
 2792 005e FB68     		ldr	r3, [r7, #12]
 2793 0060 C222     		movs	r2, #194
 2794 0062 1A70     		strb	r2, [r3]
 2795              	.L82:
 772:.\AdvantageImpl.c ****             
 773:.\AdvantageImpl.c ****         }
 774:.\AdvantageImpl.c ****         CyDelay(100);
 2796              		.loc 1 774 0
 2797 0064 6420     		movs	r0, #100
 2798 0066 FFF7FEFF 		bl	CyDelay
 2799              	.L80:
 2800              	.LBE8:
 775:.\AdvantageImpl.c ****     }
 776:.\AdvantageImpl.c **** }
 2801              		.loc 1 776 0
 2802 006a 1837     		adds	r7, r7, #24
 2803              		.cfi_def_cfa_offset 8
 2804 006c BD46     		mov	sp, r7
 2805              		.cfi_def_cfa_register 13
 2806              		@ sp needed
 2807 006e 80BD     		pop	{r7, pc}
 2808              		.cfi_endproc
 2809              	.LFE72:
 2810              		.size	PumpStartupAuthorization, .-PumpStartupAuthorization
 2811              		.section	.text.PumpStateRequest,"ax",%progbits
 2812              		.align	2
 2813              		.global	PumpStateRequest
ARM GAS  C:\Users\RECEPC~1\AppData\Local\Temp\cc7aDVfG.s 			page 64


 2814              		.thumb
 2815              		.thumb_func
 2816              		.type	PumpStateRequest, %function
 2817              	PumpStateRequest:
 2818              	.LFB73:
 777:.\AdvantageImpl.c **** 
 778:.\AdvantageImpl.c **** //@Created By: HIJH
 779:.\AdvantageImpl.c **** //@Date: Septembre de 2016
 780:.\AdvantageImpl.c **** //Sends the state request to the pump. This is a single byte command with one byte of response
 781:.\AdvantageImpl.c **** void PumpStateRequest(void *pparam)
 782:.\AdvantageImpl.c **** {
 2819              		.loc 1 782 0
 2820              		.cfi_startproc
 2821              		@ args = 0, pretend = 0, frame = 24
 2822              		@ frame_needed = 1, uses_anonymous_args = 0
 2823 0000 80B5     		push	{r7, lr}
 2824              		.cfi_def_cfa_offset 8
 2825              		.cfi_offset 7, -8
 2826              		.cfi_offset 14, -4
 2827 0002 86B0     		sub	sp, sp, #24
 2828              		.cfi_def_cfa_offset 32
 2829 0004 00AF     		add	r7, sp, #0
 2830              		.cfi_def_cfa_register 7
 2831 0006 7860     		str	r0, [r7, #4]
 783:.\AdvantageImpl.c ****     PNEAR_PUMPPTR ppump = (PNEAR_PUMPPTR)pparam;
 2832              		.loc 1 783 0
 2833 0008 7B68     		ldr	r3, [r7, #4]
 2834 000a 7B61     		str	r3, [r7, #20]
 784:.\AdvantageImpl.c ****     if(ppump)
 2835              		.loc 1 784 0
 2836 000c 7B69     		ldr	r3, [r7, #20]
 2837 000e 002B     		cmp	r3, #0
 2838 0010 23D0     		beq	.L83
 2839              	.LBB9:
 785:.\AdvantageImpl.c ****     {
 786:.\AdvantageImpl.c ****         uint8_t index = 0;
 2840              		.loc 1 786 0
 2841 0012 0023     		movs	r3, #0
 2842 0014 FB74     		strb	r3, [r7, #19]
 787:.\AdvantageImpl.c ****         memset(ppump->_rxbuffer, 0x00, _PUMP_RX_BUFFER_SIZE_);
 2843              		.loc 1 787 0
 2844 0016 7B69     		ldr	r3, [r7, #20]
 2845 0018 03F5D073 		add	r3, r3, #416
 2846 001c 1846     		mov	r0, r3
 2847 001e 0021     		movs	r1, #0
 2848 0020 4FF4C072 		mov	r2, #384
 2849 0024 FFF7FEFF 		bl	memset
 788:.\AdvantageImpl.c ****         PUARTMESSAGEPTR puartdisp = GetUARTMessageSlot(UART_DISPENSER);
 2850              		.loc 1 788 0
 2851 0028 A220     		movs	r0, #162
 2852 002a FFF7FEFF 		bl	GetUARTMessageSlot
 2853 002e F860     		str	r0, [r7, #12]
 789:.\AdvantageImpl.c ****         if(puartdisp)
 2854              		.loc 1 789 0
 2855 0030 FB68     		ldr	r3, [r7, #12]
 2856 0032 002B     		cmp	r3, #0
 2857 0034 11D0     		beq	.L83
ARM GAS  C:\Users\RECEPC~1\AppData\Local\Temp\cc7aDVfG.s 			page 65


 790:.\AdvantageImpl.c ****         {
 791:.\AdvantageImpl.c ****             puartdisp->_messagetx[index++] = PUMP_COMMAND(PUMP_STATE_REQUEST, ppump->_pumpid);
 2858              		.loc 1 791 0
 2859 0036 FB7C     		ldrb	r3, [r7, #19]	@ zero_extendqisi2
 2860 0038 5A1C     		adds	r2, r3, #1
 2861 003a FA74     		strb	r2, [r7, #19]
 2862 003c 1946     		mov	r1, r3
 2863 003e 7B69     		ldr	r3, [r7, #20]
 2864 0040 1B78     		ldrb	r3, [r3]	@ zero_extendqisi2
 2865 0042 03F00F03 		and	r3, r3, #15
 2866 0046 DAB2     		uxtb	r2, r3
 2867 0048 FB68     		ldr	r3, [r7, #12]
 2868 004a 0B44     		add	r3, r3, r1
 2869 004c 1A71     		strb	r2, [r3, #4]
 792:.\AdvantageImpl.c ****             puartdisp->_messagelength = 1;//One byte
 2870              		.loc 1 792 0
 2871 004e FB68     		ldr	r3, [r7, #12]
 2872 0050 0122     		movs	r2, #1
 2873 0052 5A80     		strh	r2, [r3, #2]	@ movhi
 793:.\AdvantageImpl.c ****             puartdisp->_messagestate = PENDING;
 2874              		.loc 1 793 0
 2875 0054 FB68     		ldr	r3, [r7, #12]
 2876 0056 C222     		movs	r2, #194
 2877 0058 1A70     		strb	r2, [r3]
 2878              	.L83:
 2879              	.LBE9:
 794:.\AdvantageImpl.c ****         }
 795:.\AdvantageImpl.c ****     }
 796:.\AdvantageImpl.c **** }
 2880              		.loc 1 796 0
 2881 005a 1837     		adds	r7, r7, #24
 2882              		.cfi_def_cfa_offset 8
 2883 005c BD46     		mov	sp, r7
 2884              		.cfi_def_cfa_register 13
 2885              		@ sp needed
 2886 005e 80BD     		pop	{r7, pc}
 2887              		.cfi_endproc
 2888              	.LFE73:
 2889              		.size	PumpStateRequest, .-PumpStateRequest
 2890              		.section	.text.PumpRTMoneyRequest,"ax",%progbits
 2891              		.align	2
 2892              		.global	PumpRTMoneyRequest
 2893              		.thumb
 2894              		.thumb_func
 2895              		.type	PumpRTMoneyRequest, %function
 2896              	PumpRTMoneyRequest:
 2897              	.LFB74:
 797:.\AdvantageImpl.c **** 
 798:.\AdvantageImpl.c **** //@Created By: HIJH
 799:.\AdvantageImpl.c **** //@Date: Septembre de 2016
 800:.\AdvantageImpl.c **** void PumpRTMoneyRequest(void *pparam)
 801:.\AdvantageImpl.c **** {
 2898              		.loc 1 801 0
 2899              		.cfi_startproc
 2900              		@ args = 0, pretend = 0, frame = 24
 2901              		@ frame_needed = 1, uses_anonymous_args = 0
 2902 0000 80B5     		push	{r7, lr}
ARM GAS  C:\Users\RECEPC~1\AppData\Local\Temp\cc7aDVfG.s 			page 66


 2903              		.cfi_def_cfa_offset 8
 2904              		.cfi_offset 7, -8
 2905              		.cfi_offset 14, -4
 2906 0002 86B0     		sub	sp, sp, #24
 2907              		.cfi_def_cfa_offset 32
 2908 0004 00AF     		add	r7, sp, #0
 2909              		.cfi_def_cfa_register 7
 2910 0006 7860     		str	r0, [r7, #4]
 802:.\AdvantageImpl.c ****     PNEAR_PUMPPTR ppump = (PNEAR_PUMPPTR)pparam;
 2911              		.loc 1 802 0
 2912 0008 7B68     		ldr	r3, [r7, #4]
 2913 000a 7B61     		str	r3, [r7, #20]
 803:.\AdvantageImpl.c ****     if(ppump)
 2914              		.loc 1 803 0
 2915 000c 7B69     		ldr	r3, [r7, #20]
 2916 000e 002B     		cmp	r3, #0
 2917 0010 28D0     		beq	.L85
 2918              	.LBB10:
 804:.\AdvantageImpl.c ****     {
 805:.\AdvantageImpl.c ****         uint8_t index = 0;
 2919              		.loc 1 805 0
 2920 0012 0023     		movs	r3, #0
 2921 0014 FB74     		strb	r3, [r7, #19]
 806:.\AdvantageImpl.c ****         memset(ppump->_rxbuffer, 0x00, _PUMP_RX_BUFFER_SIZE_);
 2922              		.loc 1 806 0
 2923 0016 7B69     		ldr	r3, [r7, #20]
 2924 0018 03F5D073 		add	r3, r3, #416
 2925 001c 1846     		mov	r0, r3
 2926 001e 0021     		movs	r1, #0
 2927 0020 4FF4C072 		mov	r2, #384
 2928 0024 FFF7FEFF 		bl	memset
 807:.\AdvantageImpl.c ****         PUARTMESSAGEPTR puartdisp = GetUARTMessageSlot(UART_DISPENSER);
 2929              		.loc 1 807 0
 2930 0028 A220     		movs	r0, #162
 2931 002a FFF7FEFF 		bl	GetUARTMessageSlot
 2932 002e F860     		str	r0, [r7, #12]
 808:.\AdvantageImpl.c ****         if(puartdisp)
 2933              		.loc 1 808 0
 2934 0030 FB68     		ldr	r3, [r7, #12]
 2935 0032 002B     		cmp	r3, #0
 2936 0034 16D0     		beq	.L85
 809:.\AdvantageImpl.c ****         {
 810:.\AdvantageImpl.c ****             puartdisp->_messagetx[index++] = PUMP_COMMAND(PUMP_REAL_TIME_MONEY_REQUEST, ppump->_pum
 2937              		.loc 1 810 0
 2938 0036 FB7C     		ldrb	r3, [r7, #19]	@ zero_extendqisi2
 2939 0038 5A1C     		adds	r2, r3, #1
 2940 003a FA74     		strb	r2, [r7, #19]
 2941 003c 1946     		mov	r1, r3
 2942 003e 7B69     		ldr	r3, [r7, #20]
 2943 0040 1B78     		ldrb	r3, [r3]	@ zero_extendqisi2
 2944 0042 DBB2     		uxtb	r3, r3
 2945 0044 03F00F03 		and	r3, r3, #15
 2946 0048 DBB2     		uxtb	r3, r3
 2947 004a 43F06003 		orr	r3, r3, #96
 2948 004e DBB2     		uxtb	r3, r3
 2949 0050 DAB2     		uxtb	r2, r3
 2950 0052 FB68     		ldr	r3, [r7, #12]
ARM GAS  C:\Users\RECEPC~1\AppData\Local\Temp\cc7aDVfG.s 			page 67


 2951 0054 0B44     		add	r3, r3, r1
 2952 0056 1A71     		strb	r2, [r3, #4]
 811:.\AdvantageImpl.c ****             puartdisp->_messagelength = 1;//One byte
 2953              		.loc 1 811 0
 2954 0058 FB68     		ldr	r3, [r7, #12]
 2955 005a 0122     		movs	r2, #1
 2956 005c 5A80     		strh	r2, [r3, #2]	@ movhi
 812:.\AdvantageImpl.c ****             puartdisp->_messagestate = PENDING;
 2957              		.loc 1 812 0
 2958 005e FB68     		ldr	r3, [r7, #12]
 2959 0060 C222     		movs	r2, #194
 2960 0062 1A70     		strb	r2, [r3]
 2961              	.L85:
 2962              	.LBE10:
 813:.\AdvantageImpl.c ****         }
 814:.\AdvantageImpl.c ****     }
 815:.\AdvantageImpl.c **** }
 2963              		.loc 1 815 0
 2964 0064 1837     		adds	r7, r7, #24
 2965              		.cfi_def_cfa_offset 8
 2966 0066 BD46     		mov	sp, r7
 2967              		.cfi_def_cfa_register 13
 2968              		@ sp needed
 2969 0068 80BD     		pop	{r7, pc}
 2970              		.cfi_endproc
 2971              	.LFE74:
 2972              		.size	PumpRTMoneyRequest, .-PumpRTMoneyRequest
 2973 006a 00BF     		.section	.text.PumpTransactionDataRequest,"ax",%progbits
 2974              		.align	2
 2975              		.global	PumpTransactionDataRequest
 2976              		.thumb
 2977              		.thumb_func
 2978              		.type	PumpTransactionDataRequest, %function
 2979              	PumpTransactionDataRequest:
 2980              	.LFB75:
 816:.\AdvantageImpl.c **** 
 817:.\AdvantageImpl.c **** //@Created By: HIJH
 818:.\AdvantageImpl.c **** //@Date: Septembre de 2016
 819:.\AdvantageImpl.c **** //Requests the last transaction data to the pump. This is a single byte command with a fixed length
 820:.\AdvantageImpl.c **** void PumpTransactionDataRequest(void *pparam)
 821:.\AdvantageImpl.c **** {
 2981              		.loc 1 821 0
 2982              		.cfi_startproc
 2983              		@ args = 0, pretend = 0, frame = 24
 2984              		@ frame_needed = 1, uses_anonymous_args = 0
 2985 0000 80B5     		push	{r7, lr}
 2986              		.cfi_def_cfa_offset 8
 2987              		.cfi_offset 7, -8
 2988              		.cfi_offset 14, -4
 2989 0002 86B0     		sub	sp, sp, #24
 2990              		.cfi_def_cfa_offset 32
 2991 0004 00AF     		add	r7, sp, #0
 2992              		.cfi_def_cfa_register 7
 2993 0006 7860     		str	r0, [r7, #4]
 822:.\AdvantageImpl.c ****     PNEAR_PUMPPTR ppump = (PNEAR_PUMPPTR)pparam;
 2994              		.loc 1 822 0
 2995 0008 7B68     		ldr	r3, [r7, #4]
ARM GAS  C:\Users\RECEPC~1\AppData\Local\Temp\cc7aDVfG.s 			page 68


 2996 000a 7B61     		str	r3, [r7, #20]
 823:.\AdvantageImpl.c ****     if(ppump)
 2997              		.loc 1 823 0
 2998 000c 7B69     		ldr	r3, [r7, #20]
 2999 000e 002B     		cmp	r3, #0
 3000 0010 28D0     		beq	.L87
 3001              	.LBB11:
 824:.\AdvantageImpl.c ****     {        
 825:.\AdvantageImpl.c ****         uint8_t index = 0;
 3002              		.loc 1 825 0
 3003 0012 0023     		movs	r3, #0
 3004 0014 FB74     		strb	r3, [r7, #19]
 826:.\AdvantageImpl.c ****         memset(ppump->_rxbuffer, 0x00, _PUMP_RX_BUFFER_SIZE_);
 3005              		.loc 1 826 0
 3006 0016 7B69     		ldr	r3, [r7, #20]
 3007 0018 03F5D073 		add	r3, r3, #416
 3008 001c 1846     		mov	r0, r3
 3009 001e 0021     		movs	r1, #0
 3010 0020 4FF4C072 		mov	r2, #384
 3011 0024 FFF7FEFF 		bl	memset
 827:.\AdvantageImpl.c ****         PUARTMESSAGEPTR puartdisp = GetUARTMessageSlot(UART_DISPENSER);
 3012              		.loc 1 827 0
 3013 0028 A220     		movs	r0, #162
 3014 002a FFF7FEFF 		bl	GetUARTMessageSlot
 3015 002e F860     		str	r0, [r7, #12]
 828:.\AdvantageImpl.c ****         if(puartdisp)
 3016              		.loc 1 828 0
 3017 0030 FB68     		ldr	r3, [r7, #12]
 3018 0032 002B     		cmp	r3, #0
 3019 0034 16D0     		beq	.L87
 829:.\AdvantageImpl.c ****         {
 830:.\AdvantageImpl.c ****             puartdisp->_messagetx[index++] = PUMP_COMMAND(PUMP_TRANSACTION_DATA_REQUEST, ppump->_pu
 3020              		.loc 1 830 0
 3021 0036 FB7C     		ldrb	r3, [r7, #19]	@ zero_extendqisi2
 3022 0038 5A1C     		adds	r2, r3, #1
 3023 003a FA74     		strb	r2, [r7, #19]
 3024 003c 1946     		mov	r1, r3
 3025 003e 7B69     		ldr	r3, [r7, #20]
 3026 0040 1B78     		ldrb	r3, [r3]	@ zero_extendqisi2
 3027 0042 DBB2     		uxtb	r3, r3
 3028 0044 03F00F03 		and	r3, r3, #15
 3029 0048 DBB2     		uxtb	r3, r3
 3030 004a 43F04003 		orr	r3, r3, #64
 3031 004e DBB2     		uxtb	r3, r3
 3032 0050 DAB2     		uxtb	r2, r3
 3033 0052 FB68     		ldr	r3, [r7, #12]
 3034 0054 0B44     		add	r3, r3, r1
 3035 0056 1A71     		strb	r2, [r3, #4]
 831:.\AdvantageImpl.c ****             puartdisp->_messagelength = 1;//One byte
 3036              		.loc 1 831 0
 3037 0058 FB68     		ldr	r3, [r7, #12]
 3038 005a 0122     		movs	r2, #1
 3039 005c 5A80     		strh	r2, [r3, #2]	@ movhi
 832:.\AdvantageImpl.c ****             puartdisp->_messagestate = PENDING;
 3040              		.loc 1 832 0
 3041 005e FB68     		ldr	r3, [r7, #12]
 3042 0060 C222     		movs	r2, #194
ARM GAS  C:\Users\RECEPC~1\AppData\Local\Temp\cc7aDVfG.s 			page 69


 3043 0062 1A70     		strb	r2, [r3]
 3044              	.L87:
 3045              	.LBE11:
 833:.\AdvantageImpl.c ****         }
 834:.\AdvantageImpl.c ****     }
 835:.\AdvantageImpl.c **** }
 3046              		.loc 1 835 0
 3047 0064 1837     		adds	r7, r7, #24
 3048              		.cfi_def_cfa_offset 8
 3049 0066 BD46     		mov	sp, r7
 3050              		.cfi_def_cfa_register 13
 3051              		@ sp needed
 3052 0068 80BD     		pop	{r7, pc}
 3053              		.cfi_endproc
 3054              	.LFE75:
 3055              		.size	PumpTransactionDataRequest, .-PumpTransactionDataRequest
 3056 006a 00BF     		.section	.text.PumpTotalsDataRequest,"ax",%progbits
 3057              		.align	2
 3058              		.global	PumpTotalsDataRequest
 3059              		.thumb
 3060              		.thumb_func
 3061              		.type	PumpTotalsDataRequest, %function
 3062              	PumpTotalsDataRequest:
 3063              	.LFB76:
 836:.\AdvantageImpl.c **** 
 837:.\AdvantageImpl.c **** //@Created By: HIJH
 838:.\AdvantageImpl.c **** //@Date: Septembre de 2016
 839:.\AdvantageImpl.c **** //Requests the report of totals for the current pump. This is a single byte command with a variable
 840:.\AdvantageImpl.c **** //that depends on the number of available hoses.
 841:.\AdvantageImpl.c **** void PumpTotalsDataRequest(void *pparam)
 842:.\AdvantageImpl.c **** {
 3064              		.loc 1 842 0
 3065              		.cfi_startproc
 3066              		@ args = 0, pretend = 0, frame = 24
 3067              		@ frame_needed = 1, uses_anonymous_args = 0
 3068 0000 80B5     		push	{r7, lr}
 3069              		.cfi_def_cfa_offset 8
 3070              		.cfi_offset 7, -8
 3071              		.cfi_offset 14, -4
 3072 0002 86B0     		sub	sp, sp, #24
 3073              		.cfi_def_cfa_offset 32
 3074 0004 00AF     		add	r7, sp, #0
 3075              		.cfi_def_cfa_register 7
 3076 0006 7860     		str	r0, [r7, #4]
 843:.\AdvantageImpl.c ****     PNEAR_PUMPPTR ppump = (PNEAR_PUMPPTR)pparam;
 3077              		.loc 1 843 0
 3078 0008 7B68     		ldr	r3, [r7, #4]
 3079 000a 7B61     		str	r3, [r7, #20]
 844:.\AdvantageImpl.c ****     if(ppump)
 3080              		.loc 1 844 0
 3081 000c 7B69     		ldr	r3, [r7, #20]
 3082 000e 002B     		cmp	r3, #0
 3083 0010 28D0     		beq	.L89
 3084              	.LBB12:
 845:.\AdvantageImpl.c ****     {        
 846:.\AdvantageImpl.c ****         uint8_t index = 0;
 3085              		.loc 1 846 0
ARM GAS  C:\Users\RECEPC~1\AppData\Local\Temp\cc7aDVfG.s 			page 70


 3086 0012 0023     		movs	r3, #0
 3087 0014 FB74     		strb	r3, [r7, #19]
 847:.\AdvantageImpl.c ****         memset(ppump->_rxbuffer, 0x00, _PUMP_RX_BUFFER_SIZE_);
 3088              		.loc 1 847 0
 3089 0016 7B69     		ldr	r3, [r7, #20]
 3090 0018 03F5D073 		add	r3, r3, #416
 3091 001c 1846     		mov	r0, r3
 3092 001e 0021     		movs	r1, #0
 3093 0020 4FF4C072 		mov	r2, #384
 3094 0024 FFF7FEFF 		bl	memset
 848:.\AdvantageImpl.c ****         PUARTMESSAGEPTR puartdisp = GetUARTMessageSlot(UART_DISPENSER);
 3095              		.loc 1 848 0
 3096 0028 A220     		movs	r0, #162
 3097 002a FFF7FEFF 		bl	GetUARTMessageSlot
 3098 002e F860     		str	r0, [r7, #12]
 849:.\AdvantageImpl.c ****         if(puartdisp)
 3099              		.loc 1 849 0
 3100 0030 FB68     		ldr	r3, [r7, #12]
 3101 0032 002B     		cmp	r3, #0
 3102 0034 16D0     		beq	.L89
 850:.\AdvantageImpl.c ****         {
 851:.\AdvantageImpl.c ****             puartdisp->_messagetx[index++] = PUMP_COMMAND(PUMP_TOTALS_DATA_REQUEST, ppump->_pumpid)
 3103              		.loc 1 851 0
 3104 0036 FB7C     		ldrb	r3, [r7, #19]	@ zero_extendqisi2
 3105 0038 5A1C     		adds	r2, r3, #1
 3106 003a FA74     		strb	r2, [r7, #19]
 3107 003c 1946     		mov	r1, r3
 3108 003e 7B69     		ldr	r3, [r7, #20]
 3109 0040 1B78     		ldrb	r3, [r3]	@ zero_extendqisi2
 3110 0042 DBB2     		uxtb	r3, r3
 3111 0044 03F00F03 		and	r3, r3, #15
 3112 0048 DBB2     		uxtb	r3, r3
 3113 004a 43F05003 		orr	r3, r3, #80
 3114 004e DBB2     		uxtb	r3, r3
 3115 0050 DAB2     		uxtb	r2, r3
 3116 0052 FB68     		ldr	r3, [r7, #12]
 3117 0054 0B44     		add	r3, r3, r1
 3118 0056 1A71     		strb	r2, [r3, #4]
 852:.\AdvantageImpl.c ****             puartdisp->_messagelength = 1;//One byte
 3119              		.loc 1 852 0
 3120 0058 FB68     		ldr	r3, [r7, #12]
 3121 005a 0122     		movs	r2, #1
 3122 005c 5A80     		strh	r2, [r3, #2]	@ movhi
 853:.\AdvantageImpl.c ****             puartdisp->_messagestate = PENDING;
 3123              		.loc 1 853 0
 3124 005e FB68     		ldr	r3, [r7, #12]
 3125 0060 C222     		movs	r2, #194
 3126 0062 1A70     		strb	r2, [r3]
 3127              	.L89:
 3128              	.LBE12:
 854:.\AdvantageImpl.c ****         }
 855:.\AdvantageImpl.c ****     }
 856:.\AdvantageImpl.c **** }
 3129              		.loc 1 856 0
 3130 0064 1837     		adds	r7, r7, #24
 3131              		.cfi_def_cfa_offset 8
 3132 0066 BD46     		mov	sp, r7
ARM GAS  C:\Users\RECEPC~1\AppData\Local\Temp\cc7aDVfG.s 			page 71


 3133              		.cfi_def_cfa_register 13
 3134              		@ sp needed
 3135 0068 80BD     		pop	{r7, pc}
 3136              		.cfi_endproc
 3137              	.LFE76:
 3138              		.size	PumpTotalsDataRequest, .-PumpTotalsDataRequest
 3139 006a 00BF     		.section	.text.PumpDataToPump,"ax",%progbits
 3140              		.align	2
 3141              		.global	PumpDataToPump
 3142              		.thumb
 3143              		.thumb_func
 3144              		.type	PumpDataToPump, %function
 3145              	PumpDataToPump:
 3146              	.LFB77:
 857:.\AdvantageImpl.c **** 
 858:.\AdvantageImpl.c **** //@Created By: HIJH
 859:.\AdvantageImpl.c **** //@Date: Septembre de 2016
 860:.\AdvantageImpl.c **** //Requests the pump to enter in "SEND DATA" mode. This is a single byte command with a special one 
 861:.\AdvantageImpl.c **** //that indicates that the pump is ready to receive data.
 862:.\AdvantageImpl.c **** void PumpDataToPump(void *pparam)
 863:.\AdvantageImpl.c **** {
 3147              		.loc 1 863 0
 3148              		.cfi_startproc
 3149              		@ args = 0, pretend = 0, frame = 24
 3150              		@ frame_needed = 1, uses_anonymous_args = 0
 3151 0000 80B5     		push	{r7, lr}
 3152              		.cfi_def_cfa_offset 8
 3153              		.cfi_offset 7, -8
 3154              		.cfi_offset 14, -4
 3155 0002 86B0     		sub	sp, sp, #24
 3156              		.cfi_def_cfa_offset 32
 3157 0004 00AF     		add	r7, sp, #0
 3158              		.cfi_def_cfa_register 7
 3159 0006 7860     		str	r0, [r7, #4]
 864:.\AdvantageImpl.c ****     PNEAR_PUMPPTR ppump = (PNEAR_PUMPPTR)pparam;
 3160              		.loc 1 864 0
 3161 0008 7B68     		ldr	r3, [r7, #4]
 3162 000a 7B61     		str	r3, [r7, #20]
 865:.\AdvantageImpl.c ****     if(ppump)
 3163              		.loc 1 865 0
 3164 000c 7B69     		ldr	r3, [r7, #20]
 3165 000e 002B     		cmp	r3, #0
 3166 0010 28D0     		beq	.L91
 3167              	.LBB13:
 866:.\AdvantageImpl.c ****     {
 867:.\AdvantageImpl.c ****         uint8_t index = 0;        
 3168              		.loc 1 867 0
 3169 0012 0023     		movs	r3, #0
 3170 0014 FB74     		strb	r3, [r7, #19]
 868:.\AdvantageImpl.c ****         memset(ppump->_rxbuffer, 0x00, _PUMP_RX_BUFFER_SIZE_);
 3171              		.loc 1 868 0
 3172 0016 7B69     		ldr	r3, [r7, #20]
 3173 0018 03F5D073 		add	r3, r3, #416
 3174 001c 1846     		mov	r0, r3
 3175 001e 0021     		movs	r1, #0
 3176 0020 4FF4C072 		mov	r2, #384
 3177 0024 FFF7FEFF 		bl	memset
ARM GAS  C:\Users\RECEPC~1\AppData\Local\Temp\cc7aDVfG.s 			page 72


 869:.\AdvantageImpl.c ****         PUARTMESSAGEPTR puartdisp = GetUARTMessageSlot(UART_DISPENSER);
 3178              		.loc 1 869 0
 3179 0028 A220     		movs	r0, #162
 3180 002a FFF7FEFF 		bl	GetUARTMessageSlot
 3181 002e F860     		str	r0, [r7, #12]
 870:.\AdvantageImpl.c ****         if(puartdisp)
 3182              		.loc 1 870 0
 3183 0030 FB68     		ldr	r3, [r7, #12]
 3184 0032 002B     		cmp	r3, #0
 3185 0034 16D0     		beq	.L91
 871:.\AdvantageImpl.c ****         {
 872:.\AdvantageImpl.c ****             puartdisp->_messagetx[index++] = PUMP_COMMAND(PUMP_DATA_TO_PUMP, ppump->_pumpid);
 3186              		.loc 1 872 0
 3187 0036 FB7C     		ldrb	r3, [r7, #19]	@ zero_extendqisi2
 3188 0038 5A1C     		adds	r2, r3, #1
 3189 003a FA74     		strb	r2, [r7, #19]
 3190 003c 1946     		mov	r1, r3
 3191 003e 7B69     		ldr	r3, [r7, #20]
 3192 0040 1B78     		ldrb	r3, [r3]	@ zero_extendqisi2
 3193 0042 DBB2     		uxtb	r3, r3
 3194 0044 03F00F03 		and	r3, r3, #15
 3195 0048 DBB2     		uxtb	r3, r3
 3196 004a 43F02003 		orr	r3, r3, #32
 3197 004e DBB2     		uxtb	r3, r3
 3198 0050 DAB2     		uxtb	r2, r3
 3199 0052 FB68     		ldr	r3, [r7, #12]
 3200 0054 0B44     		add	r3, r3, r1
 3201 0056 1A71     		strb	r2, [r3, #4]
 873:.\AdvantageImpl.c ****             puartdisp->_messagelength = 1;//One byte
 3202              		.loc 1 873 0
 3203 0058 FB68     		ldr	r3, [r7, #12]
 3204 005a 0122     		movs	r2, #1
 3205 005c 5A80     		strh	r2, [r3, #2]	@ movhi
 874:.\AdvantageImpl.c ****             puartdisp->_messagestate = PENDING;
 3206              		.loc 1 874 0
 3207 005e FB68     		ldr	r3, [r7, #12]
 3208 0060 C222     		movs	r2, #194
 3209 0062 1A70     		strb	r2, [r3]
 3210              	.L91:
 3211              	.LBE13:
 875:.\AdvantageImpl.c ****         }
 876:.\AdvantageImpl.c ****     }
 877:.\AdvantageImpl.c **** }
 3212              		.loc 1 877 0
 3213 0064 1837     		adds	r7, r7, #24
 3214              		.cfi_def_cfa_offset 8
 3215 0066 BD46     		mov	sp, r7
 3216              		.cfi_def_cfa_register 13
 3217              		@ sp needed
 3218 0068 80BD     		pop	{r7, pc}
 3219              		.cfi_endproc
 3220              	.LFE77:
 3221              		.size	PumpDataToPump, .-PumpDataToPump
 3222 006a 00BF     		.section	.text.PumpCreditPresetHose,"ax",%progbits
 3223              		.align	2
 3224              		.global	PumpCreditPresetHose
 3225              		.thumb
ARM GAS  C:\Users\RECEPC~1\AppData\Local\Temp\cc7aDVfG.s 			page 73


 3226              		.thumb_func
 3227              		.type	PumpCreditPresetHose, %function
 3228              	PumpCreditPresetHose:
 3229              	.LFB78:
 878:.\AdvantageImpl.c **** 
 879:.\AdvantageImpl.c **** 
 880:.\AdvantageImpl.c **** //@Created By: HIJH
 881:.\AdvantageImpl.c **** //@Septembre de 2016
 882:.\AdvantageImpl.c **** ///////////////////////////////////////////////////////////////////////////////////////////////////
 883:.\AdvantageImpl.c **** //This preset is a convention that applies to "Credit Transactions"
 884:.\AdvantageImpl.c **** //The pump will hold all the necessary information for the preset.
 885:.\AdvantageImpl.c **** //For this message the data comes as follows:
 886:.\AdvantageImpl.c **** void PumpCreditPresetHose(void *pparam)
 887:.\AdvantageImpl.c **** {
 3230              		.loc 1 887 0
 3231              		.cfi_startproc
 3232              		@ args = 0, pretend = 0, frame = 40
 3233              		@ frame_needed = 1, uses_anonymous_args = 0
 3234 0000 90B5     		push	{r4, r7, lr}
 3235              		.cfi_def_cfa_offset 12
 3236              		.cfi_offset 4, -12
 3237              		.cfi_offset 7, -8
 3238              		.cfi_offset 14, -4
 3239 0002 8BB0     		sub	sp, sp, #44
 3240              		.cfi_def_cfa_offset 56
 3241 0004 00AF     		add	r7, sp, #0
 3242              		.cfi_def_cfa_register 7
 3243 0006 7860     		str	r0, [r7, #4]
 888:.\AdvantageImpl.c ****     PNEAR_PUMPPTR ppump = (PNEAR_PUMPPTR)pparam;
 3244              		.loc 1 888 0
 3245 0008 7B68     		ldr	r3, [r7, #4]
 3246 000a 3B62     		str	r3, [r7, #32]
 889:.\AdvantageImpl.c ****     if(ppump)
 3247              		.loc 1 889 0
 3248 000c 3B6A     		ldr	r3, [r7, #32]
 3249 000e 002B     		cmp	r3, #0
 3250 0010 00F0C881 		beq	.L93
 3251              	.LBB14:
 890:.\AdvantageImpl.c ****     {
 891:.\AdvantageImpl.c ****         uint8_t index = 0;        
 3252              		.loc 1 891 0
 3253 0014 0023     		movs	r3, #0
 3254 0016 87F82730 		strb	r3, [r7, #39]
 892:.\AdvantageImpl.c ****         PUARTMESSAGEPTR puartdisp = GetUARTMessageSlot(UART_DISPENSER);
 3255              		.loc 1 892 0
 3256 001a A220     		movs	r0, #162
 3257 001c FFF7FEFF 		bl	GetUARTMessageSlot
 3258 0020 F861     		str	r0, [r7, #28]
 893:.\AdvantageImpl.c ****         memset(ppump->_rxbuffer, 0x00, _PUMP_RX_BUFFER_SIZE_);
 3259              		.loc 1 893 0
 3260 0022 3B6A     		ldr	r3, [r7, #32]
 3261 0024 03F5D073 		add	r3, r3, #416
 3262 0028 1846     		mov	r0, r3
 3263 002a 0021     		movs	r1, #0
 3264 002c 4FF4C072 		mov	r2, #384
 3265 0030 FFF7FEFF 		bl	memset
 894:.\AdvantageImpl.c ****         if(puartdisp)
ARM GAS  C:\Users\RECEPC~1\AppData\Local\Temp\cc7aDVfG.s 			page 74


 3266              		.loc 1 894 0
 3267 0034 FB69     		ldr	r3, [r7, #28]
 3268 0036 002B     		cmp	r3, #0
 3269 0038 00F0B481 		beq	.L93
 895:.\AdvantageImpl.c ****         {
 896:.\AdvantageImpl.c **** ///////////////////////////////////////////////////////////////////////////////////////////////////
 897:.\AdvantageImpl.c ****             puartdisp->_messagetx[index++] = SOM;
 3270              		.loc 1 897 0
 3271 003c 97F82730 		ldrb	r3, [r7, #39]	@ zero_extendqisi2
 3272 0040 5A1C     		adds	r2, r3, #1
 3273 0042 87F82720 		strb	r2, [r7, #39]
 3274 0046 1A46     		mov	r2, r3
 3275 0048 FB69     		ldr	r3, [r7, #28]
 3276 004a 1344     		add	r3, r3, r2
 3277 004c FF22     		movs	r2, #255
 3278 004e 1A71     		strb	r2, [r3, #4]
 898:.\AdvantageImpl.c ****             if(_g_dispenserlayoutinfo._displaydigitsmode == 0x06)
 3279              		.loc 1 898 0
 3280 0050 AC4B     		ldr	r3, .L116
 3281 0052 1B7C     		ldrb	r3, [r3, #16]	@ zero_extendqisi2
 3282 0054 062B     		cmp	r3, #6
 3283 0056 40F0D580 		bne	.L95
 3284              	.LBB15:
 899:.\AdvantageImpl.c ****             {
 900:.\AdvantageImpl.c ****                 uint8 transtype = ((0xF0 | ppump->_authorizationinfo._presettype) == 0xF1)? 0xF2: 0
 3285              		.loc 1 900 0
 3286 005a 3B6A     		ldr	r3, [r7, #32]
 3287 005c 93F8A93B 		ldrb	r3, [r3, #2985]
 3288 0060 DBB2     		uxtb	r3, r3
 3289 0062 63F00F03 		orn	r3, r3, #15
 3290 0066 DBB2     		uxtb	r3, r3
 3291 0068 F12B     		cmp	r3, #241
 3292 006a 01D1     		bne	.L96
 3293              		.loc 1 900 0 is_stmt 0 discriminator 1
 3294 006c F223     		movs	r3, #242
 3295 006e 00E0     		b	.L97
 3296              	.L96:
 3297              		.loc 1 900 0 discriminator 2
 3298 0070 F123     		movs	r3, #241
 3299              	.L97:
 3300              		.loc 1 900 0 discriminator 4
 3301 0072 FB76     		strb	r3, [r7, #27]
 901:.\AdvantageImpl.c ****                 if(transtype == 0xF1)
 3302              		.loc 1 901 0 is_stmt 1 discriminator 4
 3303 0074 FB7E     		ldrb	r3, [r7, #27]	@ zero_extendqisi2
 3304 0076 F12B     		cmp	r3, #241
 3305 0078 0AD1     		bne	.L98
 902:.\AdvantageImpl.c ****                     puartdisp->_messagetx[index++] = 0xE3;
 3306              		.loc 1 902 0
 3307 007a 97F82730 		ldrb	r3, [r7, #39]	@ zero_extendqisi2
 3308 007e 5A1C     		adds	r2, r3, #1
 3309 0080 87F82720 		strb	r2, [r7, #39]
 3310 0084 1A46     		mov	r2, r3
 3311 0086 FB69     		ldr	r3, [r7, #28]
 3312 0088 1344     		add	r3, r3, r2
 3313 008a E322     		movs	r2, #227
 3314 008c 1A71     		strb	r2, [r3, #4]
ARM GAS  C:\Users\RECEPC~1\AppData\Local\Temp\cc7aDVfG.s 			page 75


 3315 008e 09E0     		b	.L99
 3316              	.L98:
 903:.\AdvantageImpl.c ****                 else
 904:.\AdvantageImpl.c ****                     puartdisp->_messagetx[index++] = 0xE2;
 3317              		.loc 1 904 0
 3318 0090 97F82730 		ldrb	r3, [r7, #39]	@ zero_extendqisi2
 3319 0094 5A1C     		adds	r2, r3, #1
 3320 0096 87F82720 		strb	r2, [r7, #39]
 3321 009a 1A46     		mov	r2, r3
 3322 009c FB69     		ldr	r3, [r7, #28]
 3323 009e 1344     		add	r3, r3, r2
 3324 00a0 E222     		movs	r2, #226
 3325 00a2 1A71     		strb	r2, [r3, #4]
 3326              	.L99:
 905:.\AdvantageImpl.c ****                     
 906:.\AdvantageImpl.c ****                 ///THIS IS AN APPLIED CONVENTION ===>> 0x0004 INDEX POSITION WITHIN THE PUMP'S BUFF
 907:.\AdvantageImpl.c ****                 ///THESE CODES MUST BE MATCHED OTHERWISE THE LOGIC WILL BREAKUP THE CODE!
 908:.\AdvantageImpl.c ****                 puartdisp->_messagetx[index++] = transtype;
 3327              		.loc 1 908 0
 3328 00a4 97F82730 		ldrb	r3, [r7, #39]	@ zero_extendqisi2
 3329 00a8 5A1C     		adds	r2, r3, #1
 3330 00aa 87F82720 		strb	r2, [r7, #39]
 3331 00ae 1A46     		mov	r2, r3
 3332 00b0 FB69     		ldr	r3, [r7, #28]
 3333 00b2 1344     		add	r3, r3, r2
 3334 00b4 FA7E     		ldrb	r2, [r7, #27]
 3335 00b6 1A71     		strb	r2, [r3, #4]
 909:.\AdvantageImpl.c ****                 puartdisp->_messagetx[index++] = 0xF4;
 3336              		.loc 1 909 0
 3337 00b8 97F82730 		ldrb	r3, [r7, #39]	@ zero_extendqisi2
 3338 00bc 5A1C     		adds	r2, r3, #1
 3339 00be 87F82720 		strb	r2, [r7, #39]
 3340 00c2 1A46     		mov	r2, r3
 3341 00c4 FB69     		ldr	r3, [r7, #28]
 3342 00c6 1344     		add	r3, r3, r2
 3343 00c8 F422     		movs	r2, #244
 3344 00ca 1A71     		strb	r2, [r3, #4]
 910:.\AdvantageImpl.c ****                 puartdisp->_messagetx[index++] = 0xF6; //Hose Data next
 3345              		.loc 1 910 0
 3346 00cc 97F82730 		ldrb	r3, [r7, #39]	@ zero_extendqisi2
 3347 00d0 5A1C     		adds	r2, r3, #1
 3348 00d2 87F82720 		strb	r2, [r7, #39]
 3349 00d6 1A46     		mov	r2, r3
 3350 00d8 FB69     		ldr	r3, [r7, #28]
 3351 00da 1344     		add	r3, r3, r2
 3352 00dc F622     		movs	r2, #246
 3353 00de 1A71     		strb	r2, [r3, #4]
 911:.\AdvantageImpl.c ****                 ///THIS IS AN APPLIED CONVENTION ===>> 0x0006 INDEX POSITION WITHIN THE PUMP'S BUFF
 912:.\AdvantageImpl.c ****                 ///THESE CODES MUST BE MATCHED OTHERWISE THE LOGIC WILL BREAKUP THE CODE!
 913:.\AdvantageImpl.c ****                 puartdisp->_messagetx[index++] = (0xE0 | (ppump->_authorizationinfo._hoseid & 0x0F)
 3354              		.loc 1 913 0
 3355 00e0 97F82730 		ldrb	r3, [r7, #39]	@ zero_extendqisi2
 3356 00e4 5A1C     		adds	r2, r3, #1
 3357 00e6 87F82720 		strb	r2, [r7, #39]
 3358 00ea 1946     		mov	r1, r3
 3359 00ec 3B6A     		ldr	r3, [r7, #32]
 3360 00ee 93F8AA3B 		ldrb	r3, [r3, #2986]
ARM GAS  C:\Users\RECEPC~1\AppData\Local\Temp\cc7aDVfG.s 			page 76


 3361 00f2 DBB2     		uxtb	r3, r3
 3362 00f4 DBB2     		uxtb	r3, r3
 3363 00f6 03F00F03 		and	r3, r3, #15
 3364 00fa DBB2     		uxtb	r3, r3
 3365 00fc 63F01F03 		orn	r3, r3, #31
 3366 0100 DBB2     		uxtb	r3, r3
 3367 0102 DAB2     		uxtb	r2, r3
 3368 0104 FB69     		ldr	r3, [r7, #28]
 3369 0106 0B44     		add	r3, r3, r1
 3370 0108 1A71     		strb	r2, [r3, #4]
 914:.\AdvantageImpl.c ****                 
 915:.\AdvantageImpl.c ****                 puartdisp->_messagetx[index++] = 0xF8; //Preset Data next
 3371              		.loc 1 915 0
 3372 010a 97F82730 		ldrb	r3, [r7, #39]	@ zero_extendqisi2
 3373 010e 5A1C     		adds	r2, r3, #1
 3374 0110 87F82720 		strb	r2, [r7, #39]
 3375 0114 1A46     		mov	r2, r3
 3376 0116 FB69     		ldr	r3, [r7, #28]
 3377 0118 1344     		add	r3, r3, r2
 3378 011a F822     		movs	r2, #248
 3379 011c 1A71     		strb	r2, [r3, #4]
 916:.\AdvantageImpl.c ****                 //Here we copy the remaining 8 bytes for the preset value
 917:.\AdvantageImpl.c ****                 ///THIS IS AN APPLIED CONVENTION ===>> 0x0008 INDEX POSITION WITHIN THE PUMP'S BUFF
 918:.\AdvantageImpl.c ****                 ///THESE CODES MUST BE MATCHED OTHERWISE THE LOGIC WILL BREAKUP THE CODE!
 919:.\AdvantageImpl.c ****                 memset(PBYTECAST(&ppump->_trasactionbuffer[0x0008]),0x00, 0x0008);
 3380              		.loc 1 919 0
 3381 011e 3B6A     		ldr	r3, [r7, #32]
 3382 0120 2833     		adds	r3, r3, #40
 3383 0122 1846     		mov	r0, r3
 3384 0124 0021     		movs	r1, #0
 3385 0126 0822     		movs	r2, #8
 3386 0128 FFF7FEFF 		bl	memset
 920:.\AdvantageImpl.c ****                 B78AD90CF552D9B30A(ppump->_authorizationinfo._presetamount, PBYTECAST(&ppump->_tras
 3387              		.loc 1 920 0
 3388 012c 3B6A     		ldr	r3, [r7, #32]
 3389 012e D3F8B03B 		ldr	r3, [r3, #2992]
 3390 0132 1A46     		mov	r2, r3
 3391 0134 4FF00003 		mov	r3, #0
 3392 0138 396A     		ldr	r1, [r7, #32]
 3393 013a 01F12804 		add	r4, r1, #40
 3394 013e 1046     		mov	r0, r2
 3395 0140 1946     		mov	r1, r3
 3396 0142 2246     		mov	r2, r4
 3397 0144 FFF7FEFF 		bl	B78AD90CF552D9B30A
 921:.\AdvantageImpl.c ****                 char8 *ptr = &ppump->_trasactionbuffer[0x0008];
 3398              		.loc 1 921 0
 3399 0148 3B6A     		ldr	r3, [r7, #32]
 3400 014a 2833     		adds	r3, r3, #40
 3401 014c 7B61     		str	r3, [r7, #20]
 922:.\AdvantageImpl.c ****                 if(transtype == 0xF1) //Volume PRESET, then multiply by 1000
 3402              		.loc 1 922 0
 3403 014e FB7E     		ldrb	r3, [r7, #27]	@ zero_extendqisi2
 3404 0150 F12B     		cmp	r3, #241
 3405 0152 27D1     		bne	.L100
 3406              	.LBB16:
 923:.\AdvantageImpl.c ****                 {
 924:.\AdvantageImpl.c ****                     CastVolumeValue(ptr, 0x08);
ARM GAS  C:\Users\RECEPC~1\AppData\Local\Temp\cc7aDVfG.s 			page 77


 3407              		.loc 1 924 0
 3408 0154 7869     		ldr	r0, [r7, #20]
 3409 0156 0821     		movs	r1, #8
 3410 0158 FFF7FEFF 		bl	CastVolumeValue
 925:.\AdvantageImpl.c ****                     
 926:.\AdvantageImpl.c ****                     FOR(uint8 buffndx = 0, buffndx < 0x05, buffndx++)
 3411              		.loc 1 926 0
 3412 015c 0023     		movs	r3, #0
 3413 015e 87F82630 		strb	r3, [r7, #38]
 3414 0162 1AE0     		b	.L101
 3415              	.L102:
 927:.\AdvantageImpl.c ****                         puartdisp->_messagetx[index++] = (0xE0 | (ptr[buffndx] & 0x0F)); //Translat
 3416              		.loc 1 927 0 discriminator 3
 3417 0164 97F82730 		ldrb	r3, [r7, #39]	@ zero_extendqisi2
 3418 0168 5A1C     		adds	r2, r3, #1
 3419 016a 87F82720 		strb	r2, [r7, #39]
 3420 016e 1946     		mov	r1, r3
 3421 0170 97F82630 		ldrb	r3, [r7, #38]	@ zero_extendqisi2
 3422 0174 7A69     		ldr	r2, [r7, #20]
 3423 0176 1344     		add	r3, r3, r2
 3424 0178 1B78     		ldrb	r3, [r3]	@ zero_extendqisi2
 3425 017a DBB2     		uxtb	r3, r3
 3426 017c 03F00F03 		and	r3, r3, #15
 3427 0180 DBB2     		uxtb	r3, r3
 3428 0182 63F01F03 		orn	r3, r3, #31
 3429 0186 DBB2     		uxtb	r3, r3
 3430 0188 DAB2     		uxtb	r2, r3
 3431 018a FB69     		ldr	r3, [r7, #28]
 3432 018c 0B44     		add	r3, r3, r1
 3433 018e 1A71     		strb	r2, [r3, #4]
 926:.\AdvantageImpl.c ****                         puartdisp->_messagetx[index++] = (0xE0 | (ptr[buffndx] & 0x0F)); //Translat
 3434              		.loc 1 926 0 discriminator 3
 3435 0190 97F82630 		ldrb	r3, [r7, #38]	@ zero_extendqisi2
 3436 0194 0133     		adds	r3, r3, #1
 3437 0196 87F82630 		strb	r3, [r7, #38]
 3438              	.L101:
 926:.\AdvantageImpl.c ****                         puartdisp->_messagetx[index++] = (0xE0 | (ptr[buffndx] & 0x0F)); //Translat
 3439              		.loc 1 926 0 is_stmt 0 discriminator 1
 3440 019a 97F82630 		ldrb	r3, [r7, #38]	@ zero_extendqisi2
 3441 019e 042B     		cmp	r3, #4
 3442 01a0 E0D9     		bls	.L102
 3443              	.LBE16:
 3444 01a2 2EE0     		b	.L103
 3445              	.L100:
 3446              	.LBB17:
 928:.\AdvantageImpl.c ****                 }
 929:.\AdvantageImpl.c ****                 else
 930:.\AdvantageImpl.c ****                 {
 931:.\AdvantageImpl.c ****                     if(!(_g_dispenserlayoutinfo._moneydecimals == 0x03 && _g_dispenserlayoutinfo._p
 3447              		.loc 1 931 0 is_stmt 1
 3448 01a4 574B     		ldr	r3, .L116
 3449 01a6 DB79     		ldrb	r3, [r3, #7]	@ zero_extendqisi2
 3450 01a8 032B     		cmp	r3, #3
 3451 01aa 03D1     		bne	.L104
 3452              		.loc 1 931 0 is_stmt 0 discriminator 1
 3453 01ac 554B     		ldr	r3, .L116
 3454 01ae 1B7A     		ldrb	r3, [r3, #8]	@ zero_extendqisi2
ARM GAS  C:\Users\RECEPC~1\AppData\Local\Temp\cc7aDVfG.s 			page 78


 3455 01b0 022B     		cmp	r3, #2
 3456 01b2 03D0     		beq	.L105
 3457              	.L104:
 932:.\AdvantageImpl.c ****                         CastMoneyValue(ptr, 0x08);
 3458              		.loc 1 932 0 is_stmt 1
 3459 01b4 7869     		ldr	r0, [r7, #20]
 3460 01b6 0821     		movs	r1, #8
 3461 01b8 FFF7FEFF 		bl	CastMoneyValue
 3462              	.L105:
 933:.\AdvantageImpl.c ****                     
 934:.\AdvantageImpl.c ****                     FOR(uint8 buffndx = 0, buffndx < 0x06, buffndx++)
 3463              		.loc 1 934 0
 3464 01bc 0023     		movs	r3, #0
 3465 01be 87F82530 		strb	r3, [r7, #37]
 3466 01c2 1AE0     		b	.L106
 3467              	.L107:
 935:.\AdvantageImpl.c ****                         puartdisp->_messagetx[index++] = (0xE0 | (ptr[buffndx] & 0x0F)); //Translat
 3468              		.loc 1 935 0 discriminator 3
 3469 01c4 97F82730 		ldrb	r3, [r7, #39]	@ zero_extendqisi2
 3470 01c8 5A1C     		adds	r2, r3, #1
 3471 01ca 87F82720 		strb	r2, [r7, #39]
 3472 01ce 1946     		mov	r1, r3
 3473 01d0 97F82530 		ldrb	r3, [r7, #37]	@ zero_extendqisi2
 3474 01d4 7A69     		ldr	r2, [r7, #20]
 3475 01d6 1344     		add	r3, r3, r2
 3476 01d8 1B78     		ldrb	r3, [r3]	@ zero_extendqisi2
 3477 01da DBB2     		uxtb	r3, r3
 3478 01dc 03F00F03 		and	r3, r3, #15
 3479 01e0 DBB2     		uxtb	r3, r3
 3480 01e2 63F01F03 		orn	r3, r3, #31
 3481 01e6 DBB2     		uxtb	r3, r3
 3482 01e8 DAB2     		uxtb	r2, r3
 3483 01ea FB69     		ldr	r3, [r7, #28]
 3484 01ec 0B44     		add	r3, r3, r1
 3485 01ee 1A71     		strb	r2, [r3, #4]
 934:.\AdvantageImpl.c ****                         puartdisp->_messagetx[index++] = (0xE0 | (ptr[buffndx] & 0x0F)); //Translat
 3486              		.loc 1 934 0 discriminator 3
 3487 01f0 97F82530 		ldrb	r3, [r7, #37]	@ zero_extendqisi2
 3488 01f4 0133     		adds	r3, r3, #1
 3489 01f6 87F82530 		strb	r3, [r7, #37]
 3490              	.L106:
 934:.\AdvantageImpl.c ****                         puartdisp->_messagetx[index++] = (0xE0 | (ptr[buffndx] & 0x0F)); //Translat
 3491              		.loc 1 934 0 is_stmt 0 discriminator 1
 3492 01fa 97F82530 		ldrb	r3, [r7, #37]	@ zero_extendqisi2
 3493 01fe 052B     		cmp	r3, #5
 3494 0200 E0D9     		bls	.L107
 3495              	.L103:
 3496              	.LBE17:
 3497              	.LBE15:
 3498 0202 A0E0     		b	.L108
 3499              	.L95:
 936:.\AdvantageImpl.c ****                 }
 937:.\AdvantageImpl.c ****             }
 938:.\AdvantageImpl.c ****             else if(_g_dispenserlayoutinfo._displaydigitsmode == 0x07)
 3500              		.loc 1 938 0 is_stmt 1
 3501 0204 3F4B     		ldr	r3, .L116
 3502 0206 1B7C     		ldrb	r3, [r3, #16]	@ zero_extendqisi2
ARM GAS  C:\Users\RECEPC~1\AppData\Local\Temp\cc7aDVfG.s 			page 79


 3503 0208 072B     		cmp	r3, #7
 3504 020a 40F09C80 		bne	.L108
 3505              	.LBB18:
 939:.\AdvantageImpl.c ****             {
 940:.\AdvantageImpl.c ****                 puartdisp->_messagetx[index++] = 0xE1;
 3506              		.loc 1 940 0
 3507 020e 97F82730 		ldrb	r3, [r7, #39]	@ zero_extendqisi2
 3508 0212 5A1C     		adds	r2, r3, #1
 3509 0214 87F82720 		strb	r2, [r7, #39]
 3510 0218 1A46     		mov	r2, r3
 3511 021a FB69     		ldr	r3, [r7, #28]
 3512 021c 1344     		add	r3, r3, r2
 3513 021e E122     		movs	r2, #225
 3514 0220 1A71     		strb	r2, [r3, #4]
 941:.\AdvantageImpl.c ****                     
 942:.\AdvantageImpl.c ****                 ///THIS IS AN APPLIED CONVENTION ===>> 0x0004 INDEX POSITION WITHIN THE PUMP'S BUFF
 943:.\AdvantageImpl.c ****                 ///THESE CODES MUST BE MATCHED OTHERWISE THE LOGIC WILL BREAKUP THE CODE!
 944:.\AdvantageImpl.c ****                 uint8 transtype = ((0xF0 | ppump->_authorizationinfo._presettype) == 0xF1)? 0xF2: 0
 3515              		.loc 1 944 0
 3516 0222 3B6A     		ldr	r3, [r7, #32]
 3517 0224 93F8A93B 		ldrb	r3, [r3, #2985]
 3518 0228 DBB2     		uxtb	r3, r3
 3519 022a 63F00F03 		orn	r3, r3, #15
 3520 022e DBB2     		uxtb	r3, r3
 3521 0230 F12B     		cmp	r3, #241
 3522 0232 01D1     		bne	.L109
 3523              		.loc 1 944 0 is_stmt 0 discriminator 1
 3524 0234 F223     		movs	r3, #242
 3525 0236 00E0     		b	.L110
 3526              	.L109:
 3527              		.loc 1 944 0 discriminator 2
 3528 0238 F123     		movs	r3, #241
 3529              	.L110:
 3530              		.loc 1 944 0 discriminator 4
 3531 023a FB74     		strb	r3, [r7, #19]
 945:.\AdvantageImpl.c ****                 puartdisp->_messagetx[index++] = transtype;
 3532              		.loc 1 945 0 is_stmt 1 discriminator 4
 3533 023c 97F82730 		ldrb	r3, [r7, #39]	@ zero_extendqisi2
 3534 0240 5A1C     		adds	r2, r3, #1
 3535 0242 87F82720 		strb	r2, [r7, #39]
 3536 0246 1A46     		mov	r2, r3
 3537 0248 FB69     		ldr	r3, [r7, #28]
 3538 024a 1344     		add	r3, r3, r2
 3539 024c FA7C     		ldrb	r2, [r7, #19]
 3540 024e 1A71     		strb	r2, [r3, #4]
 946:.\AdvantageImpl.c **** 
 947:.\AdvantageImpl.c ****                 puartdisp->_messagetx[index++] = 0xF6; //Hose Data next
 3541              		.loc 1 947 0 discriminator 4
 3542 0250 97F82730 		ldrb	r3, [r7, #39]	@ zero_extendqisi2
 3543 0254 5A1C     		adds	r2, r3, #1
 3544 0256 87F82720 		strb	r2, [r7, #39]
 3545 025a 1A46     		mov	r2, r3
 3546 025c FB69     		ldr	r3, [r7, #28]
 3547 025e 1344     		add	r3, r3, r2
 3548 0260 F622     		movs	r2, #246
 3549 0262 1A71     		strb	r2, [r3, #4]
 948:.\AdvantageImpl.c ****                 ///THIS IS AN APPLIED CONVENTION ===>> 0x0006 INDEX POSITION WITHIN THE PUMP'S BUFF
ARM GAS  C:\Users\RECEPC~1\AppData\Local\Temp\cc7aDVfG.s 			page 80


 949:.\AdvantageImpl.c ****                 ///THESE CODES MUST BE MATCHED OTHERWISE THE LOGIC WILL BREAKUP THE CODE!
 950:.\AdvantageImpl.c ****                 puartdisp->_messagetx[index++] = (0xE0 | (ppump->_authorizationinfo._hoseid & 0x0F)
 3550              		.loc 1 950 0 discriminator 4
 3551 0264 97F82730 		ldrb	r3, [r7, #39]	@ zero_extendqisi2
 3552 0268 5A1C     		adds	r2, r3, #1
 3553 026a 87F82720 		strb	r2, [r7, #39]
 3554 026e 1946     		mov	r1, r3
 3555 0270 3B6A     		ldr	r3, [r7, #32]
 3556 0272 93F8AA3B 		ldrb	r3, [r3, #2986]
 3557 0276 DBB2     		uxtb	r3, r3
 3558 0278 DBB2     		uxtb	r3, r3
 3559 027a 03F00F03 		and	r3, r3, #15
 3560 027e DBB2     		uxtb	r3, r3
 3561 0280 63F01F03 		orn	r3, r3, #31
 3562 0284 DBB2     		uxtb	r3, r3
 3563 0286 DAB2     		uxtb	r2, r3
 3564 0288 FB69     		ldr	r3, [r7, #28]
 3565 028a 0B44     		add	r3, r3, r1
 3566 028c 1A71     		strb	r2, [r3, #4]
 951:.\AdvantageImpl.c ****                 
 952:.\AdvantageImpl.c ****                 puartdisp->_messagetx[index++] = 0xF8; //Preset Data next
 3567              		.loc 1 952 0 discriminator 4
 3568 028e 97F82730 		ldrb	r3, [r7, #39]	@ zero_extendqisi2
 3569 0292 5A1C     		adds	r2, r3, #1
 3570 0294 87F82720 		strb	r2, [r7, #39]
 3571 0298 1A46     		mov	r2, r3
 3572 029a FB69     		ldr	r3, [r7, #28]
 3573 029c 1344     		add	r3, r3, r2
 3574 029e F822     		movs	r2, #248
 3575 02a0 1A71     		strb	r2, [r3, #4]
 953:.\AdvantageImpl.c ****                 //Here we copy the remaining 8 bytes for the preset value
 954:.\AdvantageImpl.c ****                 ///THIS IS AN APPLIED CONVENTION ===>> 0x0008 INDEX POSITION WITHIN THE PUMP'S BUFF
 955:.\AdvantageImpl.c ****                 ///THESE CODES MUST BE MATCHED OTHERWISE THE LOGIC WILL BREAKUP THE CODE!
 956:.\AdvantageImpl.c ****                 memset(PBYTECAST(&ppump->_trasactionbuffer[0x0008]),0x00, 0x0008);
 3576              		.loc 1 956 0 discriminator 4
 3577 02a2 3B6A     		ldr	r3, [r7, #32]
 3578 02a4 2833     		adds	r3, r3, #40
 3579 02a6 1846     		mov	r0, r3
 3580 02a8 0021     		movs	r1, #0
 3581 02aa 0822     		movs	r2, #8
 3582 02ac FFF7FEFF 		bl	memset
 957:.\AdvantageImpl.c ****                 B78AD90CF552D9B30A(ppump->_authorizationinfo._presetamount, PBYTECAST(&ppump->_tras
 3583              		.loc 1 957 0 discriminator 4
 3584 02b0 3B6A     		ldr	r3, [r7, #32]
 3585 02b2 D3F8B03B 		ldr	r3, [r3, #2992]
 3586 02b6 1A46     		mov	r2, r3
 3587 02b8 4FF00003 		mov	r3, #0
 3588 02bc 396A     		ldr	r1, [r7, #32]
 3589 02be 01F12804 		add	r4, r1, #40
 3590 02c2 1046     		mov	r0, r2
 3591 02c4 1946     		mov	r1, r3
 3592 02c6 2246     		mov	r2, r4
 3593 02c8 FFF7FEFF 		bl	B78AD90CF552D9B30A
 958:.\AdvantageImpl.c ****                 char8 *ptr = &ppump->_trasactionbuffer[0x0008];
 3594              		.loc 1 958 0 discriminator 4
 3595 02cc 3B6A     		ldr	r3, [r7, #32]
 3596 02ce 2833     		adds	r3, r3, #40
ARM GAS  C:\Users\RECEPC~1\AppData\Local\Temp\cc7aDVfG.s 			page 81


 3597 02d0 FB60     		str	r3, [r7, #12]
 959:.\AdvantageImpl.c ****                 if(transtype == 0xF1) //Volume PRESET, then multiply by 1000
 3598              		.loc 1 959 0 discriminator 4
 3599 02d2 FB7C     		ldrb	r3, [r7, #19]	@ zero_extendqisi2
 3600 02d4 F12B     		cmp	r3, #241
 3601 02d6 04D1     		bne	.L111
 960:.\AdvantageImpl.c ****                     CastVolumeValue(ptr, 0x08);
 3602              		.loc 1 960 0
 3603 02d8 F868     		ldr	r0, [r7, #12]
 3604 02da 0821     		movs	r1, #8
 3605 02dc FFF7FEFF 		bl	CastVolumeValue
 3606 02e0 0BE0     		b	.L112
 3607              	.L111:
 961:.\AdvantageImpl.c ****                 else if(!(_g_dispenserlayoutinfo._moneydecimals == 0x03 && _g_dispenserlayoutinfo._
 3608              		.loc 1 961 0
 3609 02e2 084B     		ldr	r3, .L116
 3610 02e4 DB79     		ldrb	r3, [r3, #7]	@ zero_extendqisi2
 3611 02e6 032B     		cmp	r3, #3
 3612 02e8 03D1     		bne	.L113
 3613              		.loc 1 961 0 is_stmt 0 discriminator 1
 3614 02ea 064B     		ldr	r3, .L116
 3615 02ec 1B7A     		ldrb	r3, [r3, #8]	@ zero_extendqisi2
 3616 02ee 022B     		cmp	r3, #2
 3617 02f0 03D0     		beq	.L112
 3618              	.L113:
 962:.\AdvantageImpl.c ****                     CastMoneyValue(ptr, 0x08);
 3619              		.loc 1 962 0 is_stmt 1
 3620 02f2 F868     		ldr	r0, [r7, #12]
 3621 02f4 0821     		movs	r1, #8
 3622 02f6 FFF7FEFF 		bl	CastMoneyValue
 3623              	.L112:
 963:.\AdvantageImpl.c ****                     
 964:.\AdvantageImpl.c ****                 FOR(uint8 buffndx = 0, buffndx < 0x08, buffndx++)
 3624              		.loc 1 964 0
 3625 02fa 0023     		movs	r3, #0
 3626 02fc 87F82430 		strb	r3, [r7, #36]
 3627 0300 1DE0     		b	.L114
 3628              	.L117:
 3629 0302 00BF     		.align	2
 3630              	.L116:
 3631 0304 00000000 		.word	_g_dispenserlayoutinfo
 3632              	.L115:
 965:.\AdvantageImpl.c ****                     puartdisp->_messagetx[index++] = (0xE0 | (ptr[buffndx] & 0x0F)); //Translate fr
 3633              		.loc 1 965 0 discriminator 3
 3634 0308 97F82730 		ldrb	r3, [r7, #39]	@ zero_extendqisi2
 3635 030c 5A1C     		adds	r2, r3, #1
 3636 030e 87F82720 		strb	r2, [r7, #39]
 3637 0312 1946     		mov	r1, r3
 3638 0314 97F82430 		ldrb	r3, [r7, #36]	@ zero_extendqisi2
 3639 0318 FA68     		ldr	r2, [r7, #12]
 3640 031a 1344     		add	r3, r3, r2
 3641 031c 1B78     		ldrb	r3, [r3]	@ zero_extendqisi2
 3642 031e DBB2     		uxtb	r3, r3
 3643 0320 03F00F03 		and	r3, r3, #15
 3644 0324 DBB2     		uxtb	r3, r3
 3645 0326 63F01F03 		orn	r3, r3, #31
 3646 032a DBB2     		uxtb	r3, r3
ARM GAS  C:\Users\RECEPC~1\AppData\Local\Temp\cc7aDVfG.s 			page 82


 3647 032c DAB2     		uxtb	r2, r3
 3648 032e FB69     		ldr	r3, [r7, #28]
 3649 0330 0B44     		add	r3, r3, r1
 3650 0332 1A71     		strb	r2, [r3, #4]
 964:.\AdvantageImpl.c ****                     puartdisp->_messagetx[index++] = (0xE0 | (ptr[buffndx] & 0x0F)); //Translate fr
 3651              		.loc 1 964 0 discriminator 3
 3652 0334 97F82430 		ldrb	r3, [r7, #36]	@ zero_extendqisi2
 3653 0338 0133     		adds	r3, r3, #1
 3654 033a 87F82430 		strb	r3, [r7, #36]
 3655              	.L114:
 964:.\AdvantageImpl.c ****                     puartdisp->_messagetx[index++] = (0xE0 | (ptr[buffndx] & 0x0F)); //Translate fr
 3656              		.loc 1 964 0 is_stmt 0 discriminator 1
 3657 033e 97F82430 		ldrb	r3, [r7, #36]	@ zero_extendqisi2
 3658 0342 072B     		cmp	r3, #7
 3659 0344 E0D9     		bls	.L115
 3660              	.L108:
 3661              	.LBE18:
 966:.\AdvantageImpl.c ****             }
 967:.\AdvantageImpl.c ****             ppump->_presetdone = true;
 3662              		.loc 1 967 0 is_stmt 1
 3663 0346 3B6A     		ldr	r3, [r7, #32]
 3664 0348 0122     		movs	r2, #1
 3665 034a 1A72     		strb	r2, [r3, #8]
 968:.\AdvantageImpl.c ****             
 969:.\AdvantageImpl.c ****             puartdisp->_messagetx[index++] = LRCn; //LRC next
 3666              		.loc 1 969 0
 3667 034c 97F82730 		ldrb	r3, [r7, #39]	@ zero_extendqisi2
 3668 0350 5A1C     		adds	r2, r3, #1
 3669 0352 87F82720 		strb	r2, [r7, #39]
 3670 0356 1A46     		mov	r2, r3
 3671 0358 FB69     		ldr	r3, [r7, #28]
 3672 035a 1344     		add	r3, r3, r2
 3673 035c FB22     		movs	r2, #251
 3674 035e 1A71     		strb	r2, [r3, #4]
 970:.\AdvantageImpl.c ****             puartdisp->_messagetx[index++] = GetLRC(puartdisp->_messagetx);
 3675              		.loc 1 970 0
 3676 0360 97F82730 		ldrb	r3, [r7, #39]	@ zero_extendqisi2
 3677 0364 5A1C     		adds	r2, r3, #1
 3678 0366 87F82720 		strb	r2, [r7, #39]
 3679 036a 1C46     		mov	r4, r3
 3680 036c FB69     		ldr	r3, [r7, #28]
 3681 036e 0433     		adds	r3, r3, #4
 3682 0370 1846     		mov	r0, r3
 3683 0372 FFF7FEFF 		bl	GetLRC
 3684 0376 0346     		mov	r3, r0
 3685 0378 1A46     		mov	r2, r3
 3686 037a FB69     		ldr	r3, [r7, #28]
 3687 037c 2344     		add	r3, r3, r4
 3688 037e 1A71     		strb	r2, [r3, #4]
 971:.\AdvantageImpl.c ****             puartdisp->_messagetx[index++] = EOM;
 3689              		.loc 1 971 0
 3690 0380 97F82730 		ldrb	r3, [r7, #39]	@ zero_extendqisi2
 3691 0384 5A1C     		adds	r2, r3, #1
 3692 0386 87F82720 		strb	r2, [r7, #39]
 3693 038a 1A46     		mov	r2, r3
 3694 038c FB69     		ldr	r3, [r7, #28]
 3695 038e 1344     		add	r3, r3, r2
ARM GAS  C:\Users\RECEPC~1\AppData\Local\Temp\cc7aDVfG.s 			page 83


 3696 0390 F022     		movs	r2, #240
 3697 0392 1A71     		strb	r2, [r3, #4]
 972:.\AdvantageImpl.c **** ///////////////////////////////////////////////////////////////////////////////////////////////////
 973:.\AdvantageImpl.c ****             
 974:.\AdvantageImpl.c ****             puartdisp->_messagelength = index;
 3698              		.loc 1 974 0
 3699 0394 97F82730 		ldrb	r3, [r7, #39]	@ zero_extendqisi2
 3700 0398 9AB2     		uxth	r2, r3
 3701 039a FB69     		ldr	r3, [r7, #28]
 3702 039c 5A80     		strh	r2, [r3, #2]	@ movhi
 975:.\AdvantageImpl.c ****             puartdisp->_messagestate = PENDING;
 3703              		.loc 1 975 0
 3704 039e FB69     		ldr	r3, [r7, #28]
 3705 03a0 C222     		movs	r2, #194
 3706 03a2 1A70     		strb	r2, [r3]
 3707              	.L93:
 3708              	.LBE14:
 976:.\AdvantageImpl.c ****         }
 977:.\AdvantageImpl.c ****     }
 978:.\AdvantageImpl.c ****     
 979:.\AdvantageImpl.c **** }
 3709              		.loc 1 979 0
 3710 03a4 2C37     		adds	r7, r7, #44
 3711              		.cfi_def_cfa_offset 12
 3712 03a6 BD46     		mov	sp, r7
 3713              		.cfi_def_cfa_register 13
 3714              		@ sp needed
 3715 03a8 90BD     		pop	{r4, r7, pc}
 3716              		.cfi_endproc
 3717              	.LFE78:
 3718              		.size	PumpCreditPresetHose, .-PumpCreditPresetHose
 3719 03aa 00BF     		.section	.text.PumpPresetHose,"ax",%progbits
 3720              		.align	2
 3721              		.global	PumpPresetHose
 3722              		.thumb
 3723              		.thumb_func
 3724              		.type	PumpPresetHose, %function
 3725              	PumpPresetHose:
 3726              	.LFB79:
 980:.\AdvantageImpl.c **** 
 981:.\AdvantageImpl.c **** //@Created By: HIJH
 982:.\AdvantageImpl.c **** //@Septembre de 2016
 983:.\AdvantageImpl.c **** ///////////////////////////////////////////////////////////////////////////////////////////////////
 984:.\AdvantageImpl.c **** //Preset values will be placed within the SinkMessage's buffer. This is a convention that applies t
 985:.\AdvantageImpl.c **** //all of the available transactions. The pump function must deal with this while it is assembling t
 986:.\AdvantageImpl.c **** //For this message the data comes as follows:
 987:.\AdvantageImpl.c **** // - First byte is the preset type (Volume:1 / Money:2 )
 988:.\AdvantageImpl.c **** // - Second byte is the Hose (A:0, B:1, C:2, D:3)
 989:.\AdvantageImpl.c **** // - Block of 8 bytes for the preset value
 990:.\AdvantageImpl.c **** //This block of data (10 bytes) must be moved to another position within the same buffer (even posi
 991:.\AdvantageImpl.c **** void PumpPresetHose(void *pparam)
 992:.\AdvantageImpl.c **** {
 3727              		.loc 1 992 0
 3728              		.cfi_startproc
 3729              		@ args = 0, pretend = 0, frame = 40
 3730              		@ frame_needed = 1, uses_anonymous_args = 0
 3731 0000 90B5     		push	{r4, r7, lr}
ARM GAS  C:\Users\RECEPC~1\AppData\Local\Temp\cc7aDVfG.s 			page 84


 3732              		.cfi_def_cfa_offset 12
 3733              		.cfi_offset 4, -12
 3734              		.cfi_offset 7, -8
 3735              		.cfi_offset 14, -4
 3736 0002 8BB0     		sub	sp, sp, #44
 3737              		.cfi_def_cfa_offset 56
 3738 0004 00AF     		add	r7, sp, #0
 3739              		.cfi_def_cfa_register 7
 3740 0006 7860     		str	r0, [r7, #4]
 993:.\AdvantageImpl.c ****     PNEAR_PUMPPTR ppump = (PNEAR_PUMPPTR)pparam;
 3741              		.loc 1 993 0
 3742 0008 7B68     		ldr	r3, [r7, #4]
 3743 000a 3B62     		str	r3, [r7, #32]
 994:.\AdvantageImpl.c ****     if(ppump)
 3744              		.loc 1 994 0
 3745 000c 3B6A     		ldr	r3, [r7, #32]
 3746 000e 002B     		cmp	r3, #0
 3747 0010 00F0C981 		beq	.L118
 3748              	.LBB19:
 995:.\AdvantageImpl.c ****     {
 996:.\AdvantageImpl.c ****         uint8_t index = 0;        
 3749              		.loc 1 996 0
 3750 0014 0023     		movs	r3, #0
 3751 0016 87F82730 		strb	r3, [r7, #39]
 997:.\AdvantageImpl.c ****         PUARTMESSAGEPTR puartdisp = GetUARTMessageSlot(UART_DISPENSER);
 3752              		.loc 1 997 0
 3753 001a A220     		movs	r0, #162
 3754 001c FFF7FEFF 		bl	GetUARTMessageSlot
 3755 0020 F861     		str	r0, [r7, #28]
 998:.\AdvantageImpl.c ****         memset(ppump->_rxbuffer, 0x00, _PUMP_RX_BUFFER_SIZE_);
 3756              		.loc 1 998 0
 3757 0022 3B6A     		ldr	r3, [r7, #32]
 3758 0024 03F5D073 		add	r3, r3, #416
 3759 0028 1846     		mov	r0, r3
 3760 002a 0021     		movs	r1, #0
 3761 002c 4FF4C072 		mov	r2, #384
 3762 0030 FFF7FEFF 		bl	memset
 999:.\AdvantageImpl.c ****         if(puartdisp)
 3763              		.loc 1 999 0
 3764 0034 FB69     		ldr	r3, [r7, #28]
 3765 0036 002B     		cmp	r3, #0
 3766 0038 00F0B581 		beq	.L118
1000:.\AdvantageImpl.c ****         {
1001:.\AdvantageImpl.c **** ///////////////////////////////////////////////////////////////////////////////////////////////////
1002:.\AdvantageImpl.c ****             puartdisp->_messagetx[index++] = SOM;
 3767              		.loc 1 1002 0
 3768 003c 97F82730 		ldrb	r3, [r7, #39]	@ zero_extendqisi2
 3769 0040 5A1C     		adds	r2, r3, #1
 3770 0042 87F82720 		strb	r2, [r7, #39]
 3771 0046 1A46     		mov	r2, r3
 3772 0048 FB69     		ldr	r3, [r7, #28]
 3773 004a 1344     		add	r3, r3, r2
 3774 004c FF22     		movs	r2, #255
 3775 004e 1A71     		strb	r2, [r3, #4]
1003:.\AdvantageImpl.c ****             if(_g_dispenserlayoutinfo._displaydigitsmode == 0x06)
 3776              		.loc 1 1003 0
 3777 0050 AA4B     		ldr	r3, .L141
ARM GAS  C:\Users\RECEPC~1\AppData\Local\Temp\cc7aDVfG.s 			page 85


 3778 0052 1B7C     		ldrb	r3, [r3, #16]	@ zero_extendqisi2
 3779 0054 062B     		cmp	r3, #6
 3780 0056 40F0DE80 		bne	.L120
 3781              	.LBB20:
1004:.\AdvantageImpl.c ****             {
1005:.\AdvantageImpl.c ****                 uint8 transtype = (0xF0 | ((ppump->_trasactionbuffer[0x0004] == 0x0F)? 0x02: 0x01))
 3782              		.loc 1 1005 0
 3783 005a 3B6A     		ldr	r3, [r7, #32]
 3784 005c 93F82430 		ldrb	r3, [r3, #36]	@ zero_extendqisi2
 3785 0060 0F2B     		cmp	r3, #15
 3786 0062 01D1     		bne	.L121
 3787              		.loc 1 1005 0 is_stmt 0 discriminator 1
 3788 0064 F223     		movs	r3, #242
 3789 0066 00E0     		b	.L122
 3790              	.L121:
 3791              		.loc 1 1005 0 discriminator 2
 3792 0068 F123     		movs	r3, #241
 3793              	.L122:
 3794              		.loc 1 1005 0 discriminator 4
 3795 006a FB76     		strb	r3, [r7, #27]
1006:.\AdvantageImpl.c ****                 if(transtype == 0xF1)
 3796              		.loc 1 1006 0 is_stmt 1 discriminator 4
 3797 006c FB7E     		ldrb	r3, [r7, #27]	@ zero_extendqisi2
 3798 006e F12B     		cmp	r3, #241
 3799 0070 0AD1     		bne	.L123
1007:.\AdvantageImpl.c ****                     puartdisp->_messagetx[index++] = 0xE3;
 3800              		.loc 1 1007 0
 3801 0072 97F82730 		ldrb	r3, [r7, #39]	@ zero_extendqisi2
 3802 0076 5A1C     		adds	r2, r3, #1
 3803 0078 87F82720 		strb	r2, [r7, #39]
 3804 007c 1A46     		mov	r2, r3
 3805 007e FB69     		ldr	r3, [r7, #28]
 3806 0080 1344     		add	r3, r3, r2
 3807 0082 E322     		movs	r2, #227
 3808 0084 1A71     		strb	r2, [r3, #4]
 3809 0086 09E0     		b	.L124
 3810              	.L123:
1008:.\AdvantageImpl.c ****                 else
1009:.\AdvantageImpl.c ****                     puartdisp->_messagetx[index++] = 0xE2;
 3811              		.loc 1 1009 0
 3812 0088 97F82730 		ldrb	r3, [r7, #39]	@ zero_extendqisi2
 3813 008c 5A1C     		adds	r2, r3, #1
 3814 008e 87F82720 		strb	r2, [r7, #39]
 3815 0092 1A46     		mov	r2, r3
 3816 0094 FB69     		ldr	r3, [r7, #28]
 3817 0096 1344     		add	r3, r3, r2
 3818 0098 E222     		movs	r2, #226
 3819 009a 1A71     		strb	r2, [r3, #4]
 3820              	.L124:
1010:.\AdvantageImpl.c ****                 
1011:.\AdvantageImpl.c ****                 ///THIS IS AN APPLIED CONVENTION ===>> 0x0004 INDEX POSITION WITHIN THE PUMP'S BUFF
1012:.\AdvantageImpl.c ****                 ///THESE CODES MUST BE MATCHED OTHERWISE THE LOGIC WILL BREAKUP THE CODE!
1013:.\AdvantageImpl.c ****                 puartdisp->_messagetx[index++] = transtype;
 3821              		.loc 1 1013 0
 3822 009c 97F82730 		ldrb	r3, [r7, #39]	@ zero_extendqisi2
 3823 00a0 5A1C     		adds	r2, r3, #1
 3824 00a2 87F82720 		strb	r2, [r7, #39]
ARM GAS  C:\Users\RECEPC~1\AppData\Local\Temp\cc7aDVfG.s 			page 86


 3825 00a6 1A46     		mov	r2, r3
 3826 00a8 FB69     		ldr	r3, [r7, #28]
 3827 00aa 1344     		add	r3, r3, r2
 3828 00ac FA7E     		ldrb	r2, [r7, #27]
 3829 00ae 1A71     		strb	r2, [r3, #4]
1014:.\AdvantageImpl.c ****                 puartdisp->_messagetx[index++] = 0xF4;
 3830              		.loc 1 1014 0
 3831 00b0 97F82730 		ldrb	r3, [r7, #39]	@ zero_extendqisi2
 3832 00b4 5A1C     		adds	r2, r3, #1
 3833 00b6 87F82720 		strb	r2, [r7, #39]
 3834 00ba 1A46     		mov	r2, r3
 3835 00bc FB69     		ldr	r3, [r7, #28]
 3836 00be 1344     		add	r3, r3, r2
 3837 00c0 F422     		movs	r2, #244
 3838 00c2 1A71     		strb	r2, [r3, #4]
1015:.\AdvantageImpl.c ****                 puartdisp->_messagetx[index++] = 0xF6; //Hose Data next
 3839              		.loc 1 1015 0
 3840 00c4 97F82730 		ldrb	r3, [r7, #39]	@ zero_extendqisi2
 3841 00c8 5A1C     		adds	r2, r3, #1
 3842 00ca 87F82720 		strb	r2, [r7, #39]
 3843 00ce 1A46     		mov	r2, r3
 3844 00d0 FB69     		ldr	r3, [r7, #28]
 3845 00d2 1344     		add	r3, r3, r2
 3846 00d4 F622     		movs	r2, #246
 3847 00d6 1A71     		strb	r2, [r3, #4]
1016:.\AdvantageImpl.c ****                 ///THIS IS AN APPLIED CONVENTION ===>> 0x0006 INDEX POSITION WITHIN THE PUMP'S BUFF
1017:.\AdvantageImpl.c ****                 ///THESE CODES MUST BE MATCHED OTHERWISE THE LOGIC WILL BREAKUP THE CODE!
1018:.\AdvantageImpl.c ****                 puartdisp->_messagetx[index++] = (0xE0 | (0x0F & ppump->_trasactionbuffer[GetBuffer
 3848              		.loc 1 1018 0
 3849 00d8 97F82730 		ldrb	r3, [r7, #39]	@ zero_extendqisi2
 3850 00dc 5A1C     		adds	r2, r3, #1
 3851 00de 87F82720 		strb	r2, [r7, #39]
 3852 00e2 1C46     		mov	r4, r3
 3853 00e4 0720     		movs	r0, #7
 3854 00e6 FFF7FEFF 		bl	GetBufferIndexFromDisplayID
 3855 00ea 0346     		mov	r3, r0
 3856 00ec 1A46     		mov	r2, r3
 3857 00ee 3B6A     		ldr	r3, [r7, #32]
 3858 00f0 1344     		add	r3, r3, r2
 3859 00f2 93F82030 		ldrb	r3, [r3, #32]	@ zero_extendqisi2
 3860 00f6 03F00F03 		and	r3, r3, #15
 3861 00fa DBB2     		uxtb	r3, r3
 3862 00fc 63F01F03 		orn	r3, r3, #31
 3863 0100 DAB2     		uxtb	r2, r3
 3864 0102 FB69     		ldr	r3, [r7, #28]
 3865 0104 2344     		add	r3, r3, r4
 3866 0106 1A71     		strb	r2, [r3, #4]
1019:.\AdvantageImpl.c ****                 //puartdisp->_messagetx[index++] = 0xE0;
1020:.\AdvantageImpl.c ****                 _g_pumps[(ppump->_pumpid)-1]._currenthose = (0x0F & ppump->_trasactionbuffer[GetBuf
 3867              		.loc 1 1020 0
 3868 0108 3B6A     		ldr	r3, [r7, #32]
 3869 010a 1B78     		ldrb	r3, [r3]	@ zero_extendqisi2
 3870 010c 5C1E     		subs	r4, r3, #1
 3871 010e 0720     		movs	r0, #7
 3872 0110 FFF7FEFF 		bl	GetBufferIndexFromDisplayID
 3873 0114 0346     		mov	r3, r0
 3874 0116 1A46     		mov	r2, r3
ARM GAS  C:\Users\RECEPC~1\AppData\Local\Temp\cc7aDVfG.s 			page 87


 3875 0118 3B6A     		ldr	r3, [r7, #32]
 3876 011a 1344     		add	r3, r3, r2
 3877 011c 93F82030 		ldrb	r3, [r3, #32]	@ zero_extendqisi2
 3878 0120 03F00F03 		and	r3, r3, #15
 3879 0124 DBB2     		uxtb	r3, r3
 3880 0126 0133     		adds	r3, r3, #1
 3881 0128 D9B2     		uxtb	r1, r3
 3882 012a 754A     		ldr	r2, .L141+4
 3883 012c 40F6C833 		movw	r3, #3016
 3884 0130 03FB04F3 		mul	r3, r3, r4
 3885 0134 1344     		add	r3, r3, r2
 3886 0136 0A46     		mov	r2, r1
 3887 0138 DA70     		strb	r2, [r3, #3]
1021:.\AdvantageImpl.c ****                 puartdisp->_messagetx[index++] = 0xF8; //Preset Data next
 3888              		.loc 1 1021 0
 3889 013a 97F82730 		ldrb	r3, [r7, #39]	@ zero_extendqisi2
 3890 013e 5A1C     		adds	r2, r3, #1
 3891 0140 87F82720 		strb	r2, [r7, #39]
 3892 0144 1A46     		mov	r2, r3
 3893 0146 FB69     		ldr	r3, [r7, #28]
 3894 0148 1344     		add	r3, r3, r2
 3895 014a F822     		movs	r2, #248
 3896 014c 1A71     		strb	r2, [r3, #4]
1022:.\AdvantageImpl.c ****                 //Here we copy the remaining 8 bytes for the preset value
1023:.\AdvantageImpl.c ****                 ///THIS IS AN APPLIED CONVENTION ===>> 0x0008 INDEX POSITION WITHIN THE PUMP'S BUFF
1024:.\AdvantageImpl.c ****                 ///THESE CODES MUST BE MATCHED OTHERWISE THE LOGIC WILL BREAKUP THE CODE!
1025:.\AdvantageImpl.c ****                 char8 *ptr = &ppump->_trasactionbuffer[0x0008];
 3897              		.loc 1 1025 0
 3898 014e 3B6A     		ldr	r3, [r7, #32]
 3899 0150 2833     		adds	r3, r3, #40
 3900 0152 7B61     		str	r3, [r7, #20]
1026:.\AdvantageImpl.c ****                 if(transtype == 0xF1) //Volume PRESET, then multiply by 1000
 3901              		.loc 1 1026 0
 3902 0154 FB7E     		ldrb	r3, [r7, #27]	@ zero_extendqisi2
 3903 0156 F12B     		cmp	r3, #241
 3904 0158 2AD1     		bne	.L125
 3905              	.LBB21:
1027:.\AdvantageImpl.c ****                 {
1028:.\AdvantageImpl.c ****                     CastVolumeValue(ptr, 0x08);
 3906              		.loc 1 1028 0
 3907 015a 7869     		ldr	r0, [r7, #20]
 3908 015c 0821     		movs	r1, #8
 3909 015e FFF7FEFF 		bl	CastVolumeValue
1029:.\AdvantageImpl.c ****                     
1030:.\AdvantageImpl.c ****                     FOR(uint8 buffndx = 0, buffndx < 0x05, buffndx++)
 3910              		.loc 1 1030 0
 3911 0162 0023     		movs	r3, #0
 3912 0164 87F82630 		strb	r3, [r7, #38]
 3913 0168 1DE0     		b	.L126
 3914              	.L127:
1031:.\AdvantageImpl.c ****                         puartdisp->_messagetx[index++] = (0xE0 | (ptr[7 - buffndx] & 0x0F)); //Tran
 3915              		.loc 1 1031 0 discriminator 3
 3916 016a 97F82730 		ldrb	r3, [r7, #39]	@ zero_extendqisi2
 3917 016e 5A1C     		adds	r2, r3, #1
 3918 0170 87F82720 		strb	r2, [r7, #39]
 3919 0174 1946     		mov	r1, r3
 3920 0176 97F82630 		ldrb	r3, [r7, #38]	@ zero_extendqisi2
ARM GAS  C:\Users\RECEPC~1\AppData\Local\Temp\cc7aDVfG.s 			page 88


 3921 017a C3F10703 		rsb	r3, r3, #7
 3922 017e 1A46     		mov	r2, r3
 3923 0180 7B69     		ldr	r3, [r7, #20]
 3924 0182 1344     		add	r3, r3, r2
 3925 0184 1B78     		ldrb	r3, [r3]	@ zero_extendqisi2
 3926 0186 DBB2     		uxtb	r3, r3
 3927 0188 03F00F03 		and	r3, r3, #15
 3928 018c DBB2     		uxtb	r3, r3
 3929 018e 63F01F03 		orn	r3, r3, #31
 3930 0192 DBB2     		uxtb	r3, r3
 3931 0194 DAB2     		uxtb	r2, r3
 3932 0196 FB69     		ldr	r3, [r7, #28]
 3933 0198 0B44     		add	r3, r3, r1
 3934 019a 1A71     		strb	r2, [r3, #4]
1030:.\AdvantageImpl.c ****                         puartdisp->_messagetx[index++] = (0xE0 | (ptr[7 - buffndx] & 0x0F)); //Tran
 3935              		.loc 1 1030 0 discriminator 3
 3936 019c 97F82630 		ldrb	r3, [r7, #38]	@ zero_extendqisi2
 3937 01a0 0133     		adds	r3, r3, #1
 3938 01a2 87F82630 		strb	r3, [r7, #38]
 3939              	.L126:
1030:.\AdvantageImpl.c ****                         puartdisp->_messagetx[index++] = (0xE0 | (ptr[7 - buffndx] & 0x0F)); //Tran
 3940              		.loc 1 1030 0 is_stmt 0 discriminator 1
 3941 01a6 97F82630 		ldrb	r3, [r7, #38]	@ zero_extendqisi2
 3942 01aa 042B     		cmp	r3, #4
 3943 01ac DDD9     		bls	.L127
 3944              	.LBE21:
 3945 01ae 31E0     		b	.L128
 3946              	.L125:
 3947              	.LBB22:
1032:.\AdvantageImpl.c ****                 }
1033:.\AdvantageImpl.c ****                 else
1034:.\AdvantageImpl.c ****                 {
1035:.\AdvantageImpl.c ****                     if(!(_g_dispenserlayoutinfo._moneydecimals == 0x03 && _g_dispenserlayoutinfo._p
 3948              		.loc 1 1035 0 is_stmt 1
 3949 01b0 524B     		ldr	r3, .L141
 3950 01b2 DB79     		ldrb	r3, [r3, #7]	@ zero_extendqisi2
 3951 01b4 032B     		cmp	r3, #3
 3952 01b6 03D1     		bne	.L129
 3953              		.loc 1 1035 0 is_stmt 0 discriminator 1
 3954 01b8 504B     		ldr	r3, .L141
 3955 01ba 1B7A     		ldrb	r3, [r3, #8]	@ zero_extendqisi2
 3956 01bc 022B     		cmp	r3, #2
 3957 01be 03D0     		beq	.L130
 3958              	.L129:
1036:.\AdvantageImpl.c ****                         CastMoneyValue(ptr, 0x08);
 3959              		.loc 1 1036 0 is_stmt 1
 3960 01c0 7869     		ldr	r0, [r7, #20]
 3961 01c2 0821     		movs	r1, #8
 3962 01c4 FFF7FEFF 		bl	CastMoneyValue
 3963              	.L130:
1037:.\AdvantageImpl.c ****                     
1038:.\AdvantageImpl.c ****                     FOR(uint8 buffndx = 0, buffndx < 0x06, buffndx++)
 3964              		.loc 1 1038 0
 3965 01c8 0023     		movs	r3, #0
 3966 01ca 87F82530 		strb	r3, [r7, #37]
 3967 01ce 1DE0     		b	.L131
 3968              	.L132:
ARM GAS  C:\Users\RECEPC~1\AppData\Local\Temp\cc7aDVfG.s 			page 89


1039:.\AdvantageImpl.c ****                         puartdisp->_messagetx[index++] = (0xE0 | (ptr[7 - buffndx] & 0x0F)); //Tran
 3969              		.loc 1 1039 0 discriminator 3
 3970 01d0 97F82730 		ldrb	r3, [r7, #39]	@ zero_extendqisi2
 3971 01d4 5A1C     		adds	r2, r3, #1
 3972 01d6 87F82720 		strb	r2, [r7, #39]
 3973 01da 1946     		mov	r1, r3
 3974 01dc 97F82530 		ldrb	r3, [r7, #37]	@ zero_extendqisi2
 3975 01e0 C3F10703 		rsb	r3, r3, #7
 3976 01e4 1A46     		mov	r2, r3
 3977 01e6 7B69     		ldr	r3, [r7, #20]
 3978 01e8 1344     		add	r3, r3, r2
 3979 01ea 1B78     		ldrb	r3, [r3]	@ zero_extendqisi2
 3980 01ec DBB2     		uxtb	r3, r3
 3981 01ee 03F00F03 		and	r3, r3, #15
 3982 01f2 DBB2     		uxtb	r3, r3
 3983 01f4 63F01F03 		orn	r3, r3, #31
 3984 01f8 DBB2     		uxtb	r3, r3
 3985 01fa DAB2     		uxtb	r2, r3
 3986 01fc FB69     		ldr	r3, [r7, #28]
 3987 01fe 0B44     		add	r3, r3, r1
 3988 0200 1A71     		strb	r2, [r3, #4]
1038:.\AdvantageImpl.c ****                         puartdisp->_messagetx[index++] = (0xE0 | (ptr[7 - buffndx] & 0x0F)); //Tran
 3989              		.loc 1 1038 0 discriminator 3
 3990 0202 97F82530 		ldrb	r3, [r7, #37]	@ zero_extendqisi2
 3991 0206 0133     		adds	r3, r3, #1
 3992 0208 87F82530 		strb	r3, [r7, #37]
 3993              	.L131:
1038:.\AdvantageImpl.c ****                         puartdisp->_messagetx[index++] = (0xE0 | (ptr[7 - buffndx] & 0x0F)); //Tran
 3994              		.loc 1 1038 0 is_stmt 0 discriminator 1
 3995 020c 97F82530 		ldrb	r3, [r7, #37]	@ zero_extendqisi2
 3996 0210 052B     		cmp	r3, #5
 3997 0212 DDD9     		bls	.L132
 3998              	.L128:
 3999              	.LBE22:
 4000              	.LBE20:
 4001 0214 98E0     		b	.L133
 4002              	.L120:
1040:.\AdvantageImpl.c ****                 }
1041:.\AdvantageImpl.c ****             }
1042:.\AdvantageImpl.c ****             else if(_g_dispenserlayoutinfo._displaydigitsmode == 0x07)
 4003              		.loc 1 1042 0 is_stmt 1
 4004 0216 394B     		ldr	r3, .L141
 4005 0218 1B7C     		ldrb	r3, [r3, #16]	@ zero_extendqisi2
 4006 021a 072B     		cmp	r3, #7
 4007 021c 40F09480 		bne	.L133
 4008              	.LBB23:
1043:.\AdvantageImpl.c ****             {
1044:.\AdvantageImpl.c ****                 puartdisp->_messagetx[index++] = 0xE1;
 4009              		.loc 1 1044 0
 4010 0220 97F82730 		ldrb	r3, [r7, #39]	@ zero_extendqisi2
 4011 0224 5A1C     		adds	r2, r3, #1
 4012 0226 87F82720 		strb	r2, [r7, #39]
 4013 022a 1A46     		mov	r2, r3
 4014 022c FB69     		ldr	r3, [r7, #28]
 4015 022e 1344     		add	r3, r3, r2
 4016 0230 E122     		movs	r2, #225
 4017 0232 1A71     		strb	r2, [r3, #4]
ARM GAS  C:\Users\RECEPC~1\AppData\Local\Temp\cc7aDVfG.s 			page 90


1045:.\AdvantageImpl.c ****                     
1046:.\AdvantageImpl.c ****                 ///THIS IS AN APPLIED CONVENTION ===>> 0x0004 INDEX POSITION WITHIN THE PUMP'S BUFF
1047:.\AdvantageImpl.c ****                 ///THESE CODES MUST BE MATCHED OTHERWISE THE LOGIC WILL BREAKUP THE CODE!
1048:.\AdvantageImpl.c ****                 uint8 transtype = (0xF0 | ((ppump->_trasactionbuffer[0x0004] == 0x0F)? 0x02: 0x01))
 4018              		.loc 1 1048 0
 4019 0234 3B6A     		ldr	r3, [r7, #32]
 4020 0236 93F82430 		ldrb	r3, [r3, #36]	@ zero_extendqisi2
 4021 023a 0F2B     		cmp	r3, #15
 4022 023c 01D1     		bne	.L134
 4023              		.loc 1 1048 0 is_stmt 0 discriminator 1
 4024 023e F223     		movs	r3, #242
 4025 0240 00E0     		b	.L135
 4026              	.L134:
 4027              		.loc 1 1048 0 discriminator 2
 4028 0242 F123     		movs	r3, #241
 4029              	.L135:
 4030              		.loc 1 1048 0 discriminator 4
 4031 0244 FB74     		strb	r3, [r7, #19]
1049:.\AdvantageImpl.c ****                 puartdisp->_messagetx[index++] = transtype;
 4032              		.loc 1 1049 0 is_stmt 1 discriminator 4
 4033 0246 97F82730 		ldrb	r3, [r7, #39]	@ zero_extendqisi2
 4034 024a 5A1C     		adds	r2, r3, #1
 4035 024c 87F82720 		strb	r2, [r7, #39]
 4036 0250 1A46     		mov	r2, r3
 4037 0252 FB69     		ldr	r3, [r7, #28]
 4038 0254 1344     		add	r3, r3, r2
 4039 0256 FA7C     		ldrb	r2, [r7, #19]
 4040 0258 1A71     		strb	r2, [r3, #4]
1050:.\AdvantageImpl.c ****                 puartdisp->_messagetx[index++] = 0xF4;
 4041              		.loc 1 1050 0 discriminator 4
 4042 025a 97F82730 		ldrb	r3, [r7, #39]	@ zero_extendqisi2
 4043 025e 5A1C     		adds	r2, r3, #1
 4044 0260 87F82720 		strb	r2, [r7, #39]
 4045 0264 1A46     		mov	r2, r3
 4046 0266 FB69     		ldr	r3, [r7, #28]
 4047 0268 1344     		add	r3, r3, r2
 4048 026a F422     		movs	r2, #244
 4049 026c 1A71     		strb	r2, [r3, #4]
1051:.\AdvantageImpl.c ****                 puartdisp->_messagetx[index++] = 0xF6; //Hose Data next
 4050              		.loc 1 1051 0 discriminator 4
 4051 026e 97F82730 		ldrb	r3, [r7, #39]	@ zero_extendqisi2
 4052 0272 5A1C     		adds	r2, r3, #1
 4053 0274 87F82720 		strb	r2, [r7, #39]
 4054 0278 1A46     		mov	r2, r3
 4055 027a FB69     		ldr	r3, [r7, #28]
 4056 027c 1344     		add	r3, r3, r2
 4057 027e F622     		movs	r2, #246
 4058 0280 1A71     		strb	r2, [r3, #4]
1052:.\AdvantageImpl.c ****                 ///THIS IS AN APPLIED CONVENTION ===>> 0x0006 INDEX POSITION WITHIN THE PUMP'S BUFF
1053:.\AdvantageImpl.c ****                 ///THESE CODES MUST BE MATCHED OTHERWISE THE LOGIC WILL BREAKUP THE CODE!
1054:.\AdvantageImpl.c ****                 puartdisp->_messagetx[index++] = (0xE0 | (0x0F & ppump->_trasactionbuffer[GetBuffer
 4059              		.loc 1 1054 0 discriminator 4
 4060 0282 97F82730 		ldrb	r3, [r7, #39]	@ zero_extendqisi2
 4061 0286 5A1C     		adds	r2, r3, #1
 4062 0288 87F82720 		strb	r2, [r7, #39]
 4063 028c 1C46     		mov	r4, r3
 4064 028e 0720     		movs	r0, #7
ARM GAS  C:\Users\RECEPC~1\AppData\Local\Temp\cc7aDVfG.s 			page 91


 4065 0290 FFF7FEFF 		bl	GetBufferIndexFromDisplayID
 4066 0294 0346     		mov	r3, r0
 4067 0296 1A46     		mov	r2, r3
 4068 0298 3B6A     		ldr	r3, [r7, #32]
 4069 029a 1344     		add	r3, r3, r2
 4070 029c 93F82030 		ldrb	r3, [r3, #32]	@ zero_extendqisi2
 4071 02a0 03F00F03 		and	r3, r3, #15
 4072 02a4 DBB2     		uxtb	r3, r3
 4073 02a6 63F01F03 		orn	r3, r3, #31
 4074 02aa DAB2     		uxtb	r2, r3
 4075 02ac FB69     		ldr	r3, [r7, #28]
 4076 02ae 2344     		add	r3, r3, r4
 4077 02b0 1A71     		strb	r2, [r3, #4]
1055:.\AdvantageImpl.c ****                 //puartdisp->_messagetx[index++] = 0xE0;
1056:.\AdvantageImpl.c ****                 
1057:.\AdvantageImpl.c ****                 puartdisp->_messagetx[index++] = 0xF8; //Preset Data next
 4078              		.loc 1 1057 0 discriminator 4
 4079 02b2 97F82730 		ldrb	r3, [r7, #39]	@ zero_extendqisi2
 4080 02b6 5A1C     		adds	r2, r3, #1
 4081 02b8 87F82720 		strb	r2, [r7, #39]
 4082 02bc 1A46     		mov	r2, r3
 4083 02be FB69     		ldr	r3, [r7, #28]
 4084 02c0 1344     		add	r3, r3, r2
 4085 02c2 F822     		movs	r2, #248
 4086 02c4 1A71     		strb	r2, [r3, #4]
1058:.\AdvantageImpl.c ****                 //Here we copy the remaining 8 bytes for the preset value
1059:.\AdvantageImpl.c ****                 ///THIS IS AN APPLIED CONVENTION ===>> 0x0008 INDEX POSITION WITHIN THE PUMP'S BUFF
1060:.\AdvantageImpl.c ****                 ///THESE CODES MUST BE MATCHED OTHERWISE THE LOGIC WILL BREAKUP THE CODE!
1061:.\AdvantageImpl.c ****                 char8 *ptr = &ppump->_trasactionbuffer[0x0008];
 4087              		.loc 1 1061 0 discriminator 4
 4088 02c6 3B6A     		ldr	r3, [r7, #32]
 4089 02c8 2833     		adds	r3, r3, #40
 4090 02ca FB60     		str	r3, [r7, #12]
1062:.\AdvantageImpl.c ****                 if(transtype == 0xF1) //Volume PRESET, then multiply by 1000
 4091              		.loc 1 1062 0 discriminator 4
 4092 02cc FB7C     		ldrb	r3, [r7, #19]	@ zero_extendqisi2
 4093 02ce F12B     		cmp	r3, #241
 4094 02d0 04D1     		bne	.L136
1063:.\AdvantageImpl.c ****                     CastVolumeValue(ptr, 0x08);
 4095              		.loc 1 1063 0
 4096 02d2 F868     		ldr	r0, [r7, #12]
 4097 02d4 0821     		movs	r1, #8
 4098 02d6 FFF7FEFF 		bl	CastVolumeValue
 4099 02da 0BE0     		b	.L137
 4100              	.L136:
1064:.\AdvantageImpl.c ****                 else if(!(_g_dispenserlayoutinfo._moneydecimals == 0x03 && _g_dispenserlayoutinfo._
 4101              		.loc 1 1064 0
 4102 02dc 074B     		ldr	r3, .L141
 4103 02de DB79     		ldrb	r3, [r3, #7]	@ zero_extendqisi2
 4104 02e0 032B     		cmp	r3, #3
 4105 02e2 03D1     		bne	.L138
 4106              		.loc 1 1064 0 is_stmt 0 discriminator 1
 4107 02e4 054B     		ldr	r3, .L141
 4108 02e6 1B7A     		ldrb	r3, [r3, #8]	@ zero_extendqisi2
 4109 02e8 022B     		cmp	r3, #2
 4110 02ea 03D0     		beq	.L137
 4111              	.L138:
ARM GAS  C:\Users\RECEPC~1\AppData\Local\Temp\cc7aDVfG.s 			page 92


1065:.\AdvantageImpl.c ****                     CastMoneyValue(ptr, 0x08);
 4112              		.loc 1 1065 0 is_stmt 1
 4113 02ec F868     		ldr	r0, [r7, #12]
 4114 02ee 0821     		movs	r1, #8
 4115 02f0 FFF7FEFF 		bl	CastMoneyValue
 4116              	.L137:
1066:.\AdvantageImpl.c ****                     
1067:.\AdvantageImpl.c ****                 FOR(uint8 buffndx = 0, buffndx < 0x08, buffndx++)
 4117              		.loc 1 1067 0
 4118 02f4 0023     		movs	r3, #0
 4119 02f6 87F82430 		strb	r3, [r7, #36]
 4120 02fa 21E0     		b	.L139
 4121              	.L142:
 4122              		.align	2
 4123              	.L141:
 4124 02fc 00000000 		.word	_g_dispenserlayoutinfo
 4125 0300 00000000 		.word	_g_pumps
 4126              	.L140:
1068:.\AdvantageImpl.c ****                     puartdisp->_messagetx[index++] = (0xE0 | (ptr[7 - buffndx] & 0x0F)); //Translat
 4127              		.loc 1 1068 0 discriminator 3
 4128 0304 97F82730 		ldrb	r3, [r7, #39]	@ zero_extendqisi2
 4129 0308 5A1C     		adds	r2, r3, #1
 4130 030a 87F82720 		strb	r2, [r7, #39]
 4131 030e 1946     		mov	r1, r3
 4132 0310 97F82430 		ldrb	r3, [r7, #36]	@ zero_extendqisi2
 4133 0314 C3F10703 		rsb	r3, r3, #7
 4134 0318 1A46     		mov	r2, r3
 4135 031a FB68     		ldr	r3, [r7, #12]
 4136 031c 1344     		add	r3, r3, r2
 4137 031e 1B78     		ldrb	r3, [r3]	@ zero_extendqisi2
 4138 0320 DBB2     		uxtb	r3, r3
 4139 0322 03F00F03 		and	r3, r3, #15
 4140 0326 DBB2     		uxtb	r3, r3
 4141 0328 63F01F03 		orn	r3, r3, #31
 4142 032c DBB2     		uxtb	r3, r3
 4143 032e DAB2     		uxtb	r2, r3
 4144 0330 FB69     		ldr	r3, [r7, #28]
 4145 0332 0B44     		add	r3, r3, r1
 4146 0334 1A71     		strb	r2, [r3, #4]
1067:.\AdvantageImpl.c ****                     puartdisp->_messagetx[index++] = (0xE0 | (ptr[7 - buffndx] & 0x0F)); //Translat
 4147              		.loc 1 1067 0 discriminator 3
 4148 0336 97F82430 		ldrb	r3, [r7, #36]	@ zero_extendqisi2
 4149 033a 0133     		adds	r3, r3, #1
 4150 033c 87F82430 		strb	r3, [r7, #36]
 4151              	.L139:
1067:.\AdvantageImpl.c ****                     puartdisp->_messagetx[index++] = (0xE0 | (ptr[7 - buffndx] & 0x0F)); //Translat
 4152              		.loc 1 1067 0 is_stmt 0 discriminator 1
 4153 0340 97F82430 		ldrb	r3, [r7, #36]	@ zero_extendqisi2
 4154 0344 072B     		cmp	r3, #7
 4155 0346 DDD9     		bls	.L140
 4156              	.L133:
 4157              	.LBE23:
1069:.\AdvantageImpl.c ****             }
1070:.\AdvantageImpl.c ****             ppump->_presetdone = true;
 4158              		.loc 1 1070 0 is_stmt 1
 4159 0348 3B6A     		ldr	r3, [r7, #32]
 4160 034a 0122     		movs	r2, #1
ARM GAS  C:\Users\RECEPC~1\AppData\Local\Temp\cc7aDVfG.s 			page 93


 4161 034c 1A72     		strb	r2, [r3, #8]
1071:.\AdvantageImpl.c ****             
1072:.\AdvantageImpl.c ****             puartdisp->_messagetx[index++] = LRCn; //LRC next
 4162              		.loc 1 1072 0
 4163 034e 97F82730 		ldrb	r3, [r7, #39]	@ zero_extendqisi2
 4164 0352 5A1C     		adds	r2, r3, #1
 4165 0354 87F82720 		strb	r2, [r7, #39]
 4166 0358 1A46     		mov	r2, r3
 4167 035a FB69     		ldr	r3, [r7, #28]
 4168 035c 1344     		add	r3, r3, r2
 4169 035e FB22     		movs	r2, #251
 4170 0360 1A71     		strb	r2, [r3, #4]
1073:.\AdvantageImpl.c ****             puartdisp->_messagetx[index++] = GetLRC(puartdisp->_messagetx);
 4171              		.loc 1 1073 0
 4172 0362 97F82730 		ldrb	r3, [r7, #39]	@ zero_extendqisi2
 4173 0366 5A1C     		adds	r2, r3, #1
 4174 0368 87F82720 		strb	r2, [r7, #39]
 4175 036c 1C46     		mov	r4, r3
 4176 036e FB69     		ldr	r3, [r7, #28]
 4177 0370 0433     		adds	r3, r3, #4
 4178 0372 1846     		mov	r0, r3
 4179 0374 FFF7FEFF 		bl	GetLRC
 4180 0378 0346     		mov	r3, r0
 4181 037a 1A46     		mov	r2, r3
 4182 037c FB69     		ldr	r3, [r7, #28]
 4183 037e 2344     		add	r3, r3, r4
 4184 0380 1A71     		strb	r2, [r3, #4]
1074:.\AdvantageImpl.c ****             puartdisp->_messagetx[index++] = EOM;
 4185              		.loc 1 1074 0
 4186 0382 97F82730 		ldrb	r3, [r7, #39]	@ zero_extendqisi2
 4187 0386 5A1C     		adds	r2, r3, #1
 4188 0388 87F82720 		strb	r2, [r7, #39]
 4189 038c 1A46     		mov	r2, r3
 4190 038e FB69     		ldr	r3, [r7, #28]
 4191 0390 1344     		add	r3, r3, r2
 4192 0392 F022     		movs	r2, #240
 4193 0394 1A71     		strb	r2, [r3, #4]
1075:.\AdvantageImpl.c **** ///////////////////////////////////////////////////////////////////////////////////////////////////
1076:.\AdvantageImpl.c ****             
1077:.\AdvantageImpl.c ****             puartdisp->_messagelength = index;
 4194              		.loc 1 1077 0
 4195 0396 97F82730 		ldrb	r3, [r7, #39]	@ zero_extendqisi2
 4196 039a 9AB2     		uxth	r2, r3
 4197 039c FB69     		ldr	r3, [r7, #28]
 4198 039e 5A80     		strh	r2, [r3, #2]	@ movhi
1078:.\AdvantageImpl.c ****             puartdisp->_messagestate = PENDING;
 4199              		.loc 1 1078 0
 4200 03a0 FB69     		ldr	r3, [r7, #28]
 4201 03a2 C222     		movs	r2, #194
 4202 03a4 1A70     		strb	r2, [r3]
 4203              	.L118:
 4204              	.LBE19:
1079:.\AdvantageImpl.c ****         }
1080:.\AdvantageImpl.c ****     }
1081:.\AdvantageImpl.c ****     
1082:.\AdvantageImpl.c **** }
 4205              		.loc 1 1082 0
ARM GAS  C:\Users\RECEPC~1\AppData\Local\Temp\cc7aDVfG.s 			page 94


 4206 03a6 2C37     		adds	r7, r7, #44
 4207              		.cfi_def_cfa_offset 12
 4208 03a8 BD46     		mov	sp, r7
 4209              		.cfi_def_cfa_register 13
 4210              		@ sp needed
 4211 03aa 90BD     		pop	{r4, r7, pc}
 4212              		.cfi_endproc
 4213              	.LFE79:
 4214              		.size	PumpPresetHose, .-PumpPresetHose
 4215              		.section	.text.PumpPresetNoHose,"ax",%progbits
 4216              		.align	2
 4217              		.global	PumpPresetNoHose
 4218              		.thumb
 4219              		.thumb_func
 4220              		.type	PumpPresetNoHose, %function
 4221              	PumpPresetNoHose:
 4222              	.LFB80:
1083:.\AdvantageImpl.c **** 
1084:.\AdvantageImpl.c **** //@Created By: HIJH
1085:.\AdvantageImpl.c **** //@Septembre de 2016
1086:.\AdvantageImpl.c **** ///////////////////////////////////////////////////////////////////////////////////////////////////
1087:.\AdvantageImpl.c **** //Preset values will be placed within the SinkMessage's buffer. This is a convention that applies t
1088:.\AdvantageImpl.c **** //all of the available transactions. The pump function must deal with this while it is assembling t
1089:.\AdvantageImpl.c **** //For this message the data comes as follows:
1090:.\AdvantageImpl.c **** // - First byte is the preset type (Volume:1 / Money:2 )
1091:.\AdvantageImpl.c **** // - Block of 8 bytes for the preset value
1092:.\AdvantageImpl.c **** //This block of data (10 bytes) must be moved to another position within the same buffer (even posi
1093:.\AdvantageImpl.c **** void PumpPresetNoHose(void *pparam)
1094:.\AdvantageImpl.c **** {
 4223              		.loc 1 1094 0
 4224              		.cfi_startproc
 4225              		@ args = 0, pretend = 0, frame = 40
 4226              		@ frame_needed = 1, uses_anonymous_args = 0
 4227 0000 90B5     		push	{r4, r7, lr}
 4228              		.cfi_def_cfa_offset 12
 4229              		.cfi_offset 4, -12
 4230              		.cfi_offset 7, -8
 4231              		.cfi_offset 14, -4
 4232 0002 8BB0     		sub	sp, sp, #44
 4233              		.cfi_def_cfa_offset 56
 4234 0004 00AF     		add	r7, sp, #0
 4235              		.cfi_def_cfa_register 7
 4236 0006 7860     		str	r0, [r7, #4]
1095:.\AdvantageImpl.c ****     PNEAR_PUMPPTR ppump = (PNEAR_PUMPPTR)pparam;
 4237              		.loc 1 1095 0
 4238 0008 7B68     		ldr	r3, [r7, #4]
 4239 000a 3B62     		str	r3, [r7, #32]
1096:.\AdvantageImpl.c ****     if(ppump)
 4240              		.loc 1 1096 0
 4241 000c 3B6A     		ldr	r3, [r7, #32]
 4242 000e 002B     		cmp	r3, #0
 4243 0010 00F05381 		beq	.L143
 4244              	.LBB24:
1097:.\AdvantageImpl.c ****     {
1098:.\AdvantageImpl.c ****         uint8_t index = 0;
 4245              		.loc 1 1098 0
 4246 0014 0023     		movs	r3, #0
ARM GAS  C:\Users\RECEPC~1\AppData\Local\Temp\cc7aDVfG.s 			page 95


 4247 0016 87F82730 		strb	r3, [r7, #39]
1099:.\AdvantageImpl.c ****         memset(ppump->_rxbuffer, 0x00, _PUMP_RX_BUFFER_SIZE_);
 4248              		.loc 1 1099 0
 4249 001a 3B6A     		ldr	r3, [r7, #32]
 4250 001c 03F5D073 		add	r3, r3, #416
 4251 0020 1846     		mov	r0, r3
 4252 0022 0021     		movs	r1, #0
 4253 0024 4FF4C072 		mov	r2, #384
 4254 0028 FFF7FEFF 		bl	memset
1100:.\AdvantageImpl.c ****         PUARTMESSAGEPTR puartdisp = GetUARTMessageSlot(UART_DISPENSER);
 4255              		.loc 1 1100 0
 4256 002c A220     		movs	r0, #162
 4257 002e FFF7FEFF 		bl	GetUARTMessageSlot
 4258 0032 F861     		str	r0, [r7, #28]
1101:.\AdvantageImpl.c ****         if(puartdisp)
 4259              		.loc 1 1101 0
 4260 0034 FB69     		ldr	r3, [r7, #28]
 4261 0036 002B     		cmp	r3, #0
 4262 0038 00F03F81 		beq	.L143
1102:.\AdvantageImpl.c ****         {
1103:.\AdvantageImpl.c **** ///////////////////////////////////////////////////////////////////////////////////////////////////
1104:.\AdvantageImpl.c ****             puartdisp->_messagetx[index++] = SOM;
 4263              		.loc 1 1104 0
 4264 003c 97F82730 		ldrb	r3, [r7, #39]	@ zero_extendqisi2
 4265 0040 5A1C     		adds	r2, r3, #1
 4266 0042 87F82720 		strb	r2, [r7, #39]
 4267 0046 1A46     		mov	r2, r3
 4268 0048 FB69     		ldr	r3, [r7, #28]
 4269 004a 1344     		add	r3, r3, r2
 4270 004c FF22     		movs	r2, #255
 4271 004e 1A71     		strb	r2, [r3, #4]
1105:.\AdvantageImpl.c ****             if(_g_dispenserlayoutinfo._displaydigitsmode == 0x06)
 4272              		.loc 1 1105 0
 4273 0050 9B4B     		ldr	r3, .L166
 4274 0052 1B7C     		ldrb	r3, [r3, #16]	@ zero_extendqisi2
 4275 0054 062B     		cmp	r3, #6
 4276 0056 40F09980 		bne	.L145
 4277              	.LBB25:
1106:.\AdvantageImpl.c ****             {
1107:.\AdvantageImpl.c ****                 uint8 transtype = (0xF0 | ((ppump->_trasactionbuffer[0x0004] == 0x0F)? 0x02: 0x01))
 4278              		.loc 1 1107 0
 4279 005a 3B6A     		ldr	r3, [r7, #32]
 4280 005c 93F82430 		ldrb	r3, [r3, #36]	@ zero_extendqisi2
 4281 0060 0F2B     		cmp	r3, #15
 4282 0062 01D1     		bne	.L146
 4283              		.loc 1 1107 0 is_stmt 0 discriminator 1
 4284 0064 F223     		movs	r3, #242
 4285 0066 00E0     		b	.L147
 4286              	.L146:
 4287              		.loc 1 1107 0 discriminator 2
 4288 0068 F123     		movs	r3, #241
 4289              	.L147:
 4290              		.loc 1 1107 0 discriminator 4
 4291 006a FB76     		strb	r3, [r7, #27]
1108:.\AdvantageImpl.c ****                 if(transtype == 0xF1)
 4292              		.loc 1 1108 0 is_stmt 1 discriminator 4
 4293 006c FB7E     		ldrb	r3, [r7, #27]	@ zero_extendqisi2
ARM GAS  C:\Users\RECEPC~1\AppData\Local\Temp\cc7aDVfG.s 			page 96


 4294 006e F12B     		cmp	r3, #241
 4295 0070 0AD1     		bne	.L148
1109:.\AdvantageImpl.c ****                     puartdisp->_messagetx[index++] = 0xE6;
 4296              		.loc 1 1109 0
 4297 0072 97F82730 		ldrb	r3, [r7, #39]	@ zero_extendqisi2
 4298 0076 5A1C     		adds	r2, r3, #1
 4299 0078 87F82720 		strb	r2, [r7, #39]
 4300 007c 1A46     		mov	r2, r3
 4301 007e FB69     		ldr	r3, [r7, #28]
 4302 0080 1344     		add	r3, r3, r2
 4303 0082 E622     		movs	r2, #230
 4304 0084 1A71     		strb	r2, [r3, #4]
 4305 0086 09E0     		b	.L149
 4306              	.L148:
1110:.\AdvantageImpl.c ****                 else
1111:.\AdvantageImpl.c ****                     puartdisp->_messagetx[index++] = 0xE5;
 4307              		.loc 1 1111 0
 4308 0088 97F82730 		ldrb	r3, [r7, #39]	@ zero_extendqisi2
 4309 008c 5A1C     		adds	r2, r3, #1
 4310 008e 87F82720 		strb	r2, [r7, #39]
 4311 0092 1A46     		mov	r2, r3
 4312 0094 FB69     		ldr	r3, [r7, #28]
 4313 0096 1344     		add	r3, r3, r2
 4314 0098 E522     		movs	r2, #229
 4315 009a 1A71     		strb	r2, [r3, #4]
 4316              	.L149:
1112:.\AdvantageImpl.c **** 
1113:.\AdvantageImpl.c ****                 ///THIS IS AN APPLIED CONVENTION ===>> 0x0004 INDEX POSITION WITHIN THE PUMP'S BUFF
1114:.\AdvantageImpl.c ****                 ///THESE CODES MUST BE MATCHED OTHERWISE THE LOGIC WILL BREAKUP THE CODE!
1115:.\AdvantageImpl.c ****                 puartdisp->_messagetx[index++] = transtype;
 4317              		.loc 1 1115 0
 4318 009c 97F82730 		ldrb	r3, [r7, #39]	@ zero_extendqisi2
 4319 00a0 5A1C     		adds	r2, r3, #1
 4320 00a2 87F82720 		strb	r2, [r7, #39]
 4321 00a6 1A46     		mov	r2, r3
 4322 00a8 FB69     		ldr	r3, [r7, #28]
 4323 00aa 1344     		add	r3, r3, r2
 4324 00ac FA7E     		ldrb	r2, [r7, #27]
 4325 00ae 1A71     		strb	r2, [r3, #4]
1116:.\AdvantageImpl.c ****                             
1117:.\AdvantageImpl.c ****                 puartdisp->_messagetx[index++] = 0xF8; //Preset Data next
 4326              		.loc 1 1117 0
 4327 00b0 97F82730 		ldrb	r3, [r7, #39]	@ zero_extendqisi2
 4328 00b4 5A1C     		adds	r2, r3, #1
 4329 00b6 87F82720 		strb	r2, [r7, #39]
 4330 00ba 1A46     		mov	r2, r3
 4331 00bc FB69     		ldr	r3, [r7, #28]
 4332 00be 1344     		add	r3, r3, r2
 4333 00c0 F822     		movs	r2, #248
 4334 00c2 1A71     		strb	r2, [r3, #4]
1118:.\AdvantageImpl.c ****                 //Here we copy the remaining 8 bytes for the preset value
1119:.\AdvantageImpl.c ****                 ///THIS IS AN APPLIED CONVENTION ===>> 0x0008 INDEX POSITION WITHIN THE PUMP'S BUFF
1120:.\AdvantageImpl.c ****                 ///THESE CODES MUST BE MATCHED OTHERWISE THE LOGIC WILL BREAKUP THE CODE!
1121:.\AdvantageImpl.c ****                 char8 *ptr = &ppump->_trasactionbuffer[0x0008];
 4335              		.loc 1 1121 0
 4336 00c4 3B6A     		ldr	r3, [r7, #32]
 4337 00c6 2833     		adds	r3, r3, #40
ARM GAS  C:\Users\RECEPC~1\AppData\Local\Temp\cc7aDVfG.s 			page 97


 4338 00c8 7B61     		str	r3, [r7, #20]
1122:.\AdvantageImpl.c ****                 if(transtype == 0xF1) //Volume PRESET, then multiply by 1000
 4339              		.loc 1 1122 0
 4340 00ca FB7E     		ldrb	r3, [r7, #27]	@ zero_extendqisi2
 4341 00cc F12B     		cmp	r3, #241
 4342 00ce 2AD1     		bne	.L150
 4343              	.LBB26:
1123:.\AdvantageImpl.c ****                 {
1124:.\AdvantageImpl.c ****                     CastVolumeValue(ptr, 0x08);
 4344              		.loc 1 1124 0
 4345 00d0 7869     		ldr	r0, [r7, #20]
 4346 00d2 0821     		movs	r1, #8
 4347 00d4 FFF7FEFF 		bl	CastVolumeValue
1125:.\AdvantageImpl.c ****                 
1126:.\AdvantageImpl.c ****                     FOR(uint8 buffndx = 0, buffndx < 0x05, buffndx++)
 4348              		.loc 1 1126 0
 4349 00d8 0023     		movs	r3, #0
 4350 00da 87F82630 		strb	r3, [r7, #38]
 4351 00de 1DE0     		b	.L151
 4352              	.L152:
1127:.\AdvantageImpl.c ****                         puartdisp->_messagetx[index++] = (0xE0 | (ptr[7 - buffndx] & 0x0F)); //Tran
 4353              		.loc 1 1127 0 discriminator 3
 4354 00e0 97F82730 		ldrb	r3, [r7, #39]	@ zero_extendqisi2
 4355 00e4 5A1C     		adds	r2, r3, #1
 4356 00e6 87F82720 		strb	r2, [r7, #39]
 4357 00ea 1946     		mov	r1, r3
 4358 00ec 97F82630 		ldrb	r3, [r7, #38]	@ zero_extendqisi2
 4359 00f0 C3F10703 		rsb	r3, r3, #7
 4360 00f4 1A46     		mov	r2, r3
 4361 00f6 7B69     		ldr	r3, [r7, #20]
 4362 00f8 1344     		add	r3, r3, r2
 4363 00fa 1B78     		ldrb	r3, [r3]	@ zero_extendqisi2
 4364 00fc DBB2     		uxtb	r3, r3
 4365 00fe 03F00F03 		and	r3, r3, #15
 4366 0102 DBB2     		uxtb	r3, r3
 4367 0104 63F01F03 		orn	r3, r3, #31
 4368 0108 DBB2     		uxtb	r3, r3
 4369 010a DAB2     		uxtb	r2, r3
 4370 010c FB69     		ldr	r3, [r7, #28]
 4371 010e 0B44     		add	r3, r3, r1
 4372 0110 1A71     		strb	r2, [r3, #4]
1126:.\AdvantageImpl.c ****                         puartdisp->_messagetx[index++] = (0xE0 | (ptr[7 - buffndx] & 0x0F)); //Tran
 4373              		.loc 1 1126 0 discriminator 3
 4374 0112 97F82630 		ldrb	r3, [r7, #38]	@ zero_extendqisi2
 4375 0116 0133     		adds	r3, r3, #1
 4376 0118 87F82630 		strb	r3, [r7, #38]
 4377              	.L151:
1126:.\AdvantageImpl.c ****                         puartdisp->_messagetx[index++] = (0xE0 | (ptr[7 - buffndx] & 0x0F)); //Tran
 4378              		.loc 1 1126 0 is_stmt 0 discriminator 1
 4379 011c 97F82630 		ldrb	r3, [r7, #38]	@ zero_extendqisi2
 4380 0120 042B     		cmp	r3, #4
 4381 0122 DDD9     		bls	.L152
 4382              	.LBE26:
 4383 0124 31E0     		b	.L153
 4384              	.L150:
 4385              	.LBB27:
1128:.\AdvantageImpl.c ****                 }
ARM GAS  C:\Users\RECEPC~1\AppData\Local\Temp\cc7aDVfG.s 			page 98


1129:.\AdvantageImpl.c ****                 else
1130:.\AdvantageImpl.c ****                 {
1131:.\AdvantageImpl.c ****                     if(!(_g_dispenserlayoutinfo._moneydecimals == 0x03 && _g_dispenserlayoutinfo._p
 4386              		.loc 1 1131 0 is_stmt 1
 4387 0126 664B     		ldr	r3, .L166
 4388 0128 DB79     		ldrb	r3, [r3, #7]	@ zero_extendqisi2
 4389 012a 032B     		cmp	r3, #3
 4390 012c 03D1     		bne	.L154
 4391              		.loc 1 1131 0 is_stmt 0 discriminator 1
 4392 012e 644B     		ldr	r3, .L166
 4393 0130 1B7A     		ldrb	r3, [r3, #8]	@ zero_extendqisi2
 4394 0132 022B     		cmp	r3, #2
 4395 0134 03D0     		beq	.L155
 4396              	.L154:
1132:.\AdvantageImpl.c ****                         CastMoneyValue(ptr, 0x08);
 4397              		.loc 1 1132 0 is_stmt 1
 4398 0136 7869     		ldr	r0, [r7, #20]
 4399 0138 0821     		movs	r1, #8
 4400 013a FFF7FEFF 		bl	CastMoneyValue
 4401              	.L155:
1133:.\AdvantageImpl.c ****                     
1134:.\AdvantageImpl.c ****                     FOR(uint8 buffndx = 0, buffndx < 0x06, buffndx++)
 4402              		.loc 1 1134 0
 4403 013e 0023     		movs	r3, #0
 4404 0140 87F82530 		strb	r3, [r7, #37]
 4405 0144 1DE0     		b	.L156
 4406              	.L157:
1135:.\AdvantageImpl.c ****                         puartdisp->_messagetx[index++] = (0xE0 | (ptr[7 - buffndx] & 0x0F)); //Tran
 4407              		.loc 1 1135 0 discriminator 3
 4408 0146 97F82730 		ldrb	r3, [r7, #39]	@ zero_extendqisi2
 4409 014a 5A1C     		adds	r2, r3, #1
 4410 014c 87F82720 		strb	r2, [r7, #39]
 4411 0150 1946     		mov	r1, r3
 4412 0152 97F82530 		ldrb	r3, [r7, #37]	@ zero_extendqisi2
 4413 0156 C3F10703 		rsb	r3, r3, #7
 4414 015a 1A46     		mov	r2, r3
 4415 015c 7B69     		ldr	r3, [r7, #20]
 4416 015e 1344     		add	r3, r3, r2
 4417 0160 1B78     		ldrb	r3, [r3]	@ zero_extendqisi2
 4418 0162 DBB2     		uxtb	r3, r3
 4419 0164 03F00F03 		and	r3, r3, #15
 4420 0168 DBB2     		uxtb	r3, r3
 4421 016a 63F01F03 		orn	r3, r3, #31
 4422 016e DBB2     		uxtb	r3, r3
 4423 0170 DAB2     		uxtb	r2, r3
 4424 0172 FB69     		ldr	r3, [r7, #28]
 4425 0174 0B44     		add	r3, r3, r1
 4426 0176 1A71     		strb	r2, [r3, #4]
1134:.\AdvantageImpl.c ****                         puartdisp->_messagetx[index++] = (0xE0 | (ptr[7 - buffndx] & 0x0F)); //Tran
 4427              		.loc 1 1134 0 discriminator 3
 4428 0178 97F82530 		ldrb	r3, [r7, #37]	@ zero_extendqisi2
 4429 017c 0133     		adds	r3, r3, #1
 4430 017e 87F82530 		strb	r3, [r7, #37]
 4431              	.L156:
1134:.\AdvantageImpl.c ****                         puartdisp->_messagetx[index++] = (0xE0 | (ptr[7 - buffndx] & 0x0F)); //Tran
 4432              		.loc 1 1134 0 is_stmt 0 discriminator 1
 4433 0182 97F82530 		ldrb	r3, [r7, #37]	@ zero_extendqisi2
ARM GAS  C:\Users\RECEPC~1\AppData\Local\Temp\cc7aDVfG.s 			page 99


 4434 0186 052B     		cmp	r3, #5
 4435 0188 DDD9     		bls	.L157
 4436              	.L153:
 4437              	.LBE27:
 4438              	.LBE25:
 4439 018a 67E0     		b	.L158
 4440              	.L145:
1136:.\AdvantageImpl.c ****                 }
1137:.\AdvantageImpl.c ****             }
1138:.\AdvantageImpl.c ****             else if(_g_dispenserlayoutinfo._displaydigitsmode == 0x07)
 4441              		.loc 1 1138 0 is_stmt 1
 4442 018c 4C4B     		ldr	r3, .L166
 4443 018e 1B7C     		ldrb	r3, [r3, #16]	@ zero_extendqisi2
 4444 0190 072B     		cmp	r3, #7
 4445 0192 63D1     		bne	.L158
 4446              	.LBB28:
1139:.\AdvantageImpl.c ****             {
1140:.\AdvantageImpl.c ****                 puartdisp->_messagetx[index++] = 0xE3;
 4447              		.loc 1 1140 0
 4448 0194 97F82730 		ldrb	r3, [r7, #39]	@ zero_extendqisi2
 4449 0198 5A1C     		adds	r2, r3, #1
 4450 019a 87F82720 		strb	r2, [r7, #39]
 4451 019e 1A46     		mov	r2, r3
 4452 01a0 FB69     		ldr	r3, [r7, #28]
 4453 01a2 1344     		add	r3, r3, r2
 4454 01a4 E322     		movs	r2, #227
 4455 01a6 1A71     		strb	r2, [r3, #4]
1141:.\AdvantageImpl.c **** 
1142:.\AdvantageImpl.c ****                 ///THIS IS AN APPLIED CONVENTION ===>> 0x0004 INDEX POSITION WITHIN THE PUMP'S BUFF
1143:.\AdvantageImpl.c ****                 ///THESE CODES MUST BE MATCHED OTHERWISE THE LOGIC WILL BREAKUP THE CODE!
1144:.\AdvantageImpl.c ****                 uint8 transtype = (0xF0 | ((ppump->_trasactionbuffer[0x0004] == 0x0F)? 0x02: 0x01))
 4456              		.loc 1 1144 0
 4457 01a8 3B6A     		ldr	r3, [r7, #32]
 4458 01aa 93F82430 		ldrb	r3, [r3, #36]	@ zero_extendqisi2
 4459 01ae 0F2B     		cmp	r3, #15
 4460 01b0 01D1     		bne	.L159
 4461              		.loc 1 1144 0 is_stmt 0 discriminator 1
 4462 01b2 F223     		movs	r3, #242
 4463 01b4 00E0     		b	.L160
 4464              	.L159:
 4465              		.loc 1 1144 0 discriminator 2
 4466 01b6 F123     		movs	r3, #241
 4467              	.L160:
 4468              		.loc 1 1144 0 discriminator 4
 4469 01b8 FB74     		strb	r3, [r7, #19]
1145:.\AdvantageImpl.c ****                 puartdisp->_messagetx[index++] = transtype;
 4470              		.loc 1 1145 0 is_stmt 1 discriminator 4
 4471 01ba 97F82730 		ldrb	r3, [r7, #39]	@ zero_extendqisi2
 4472 01be 5A1C     		adds	r2, r3, #1
 4473 01c0 87F82720 		strb	r2, [r7, #39]
 4474 01c4 1A46     		mov	r2, r3
 4475 01c6 FB69     		ldr	r3, [r7, #28]
 4476 01c8 1344     		add	r3, r3, r2
 4477 01ca FA7C     		ldrb	r2, [r7, #19]
 4478 01cc 1A71     		strb	r2, [r3, #4]
1146:.\AdvantageImpl.c ****                             
1147:.\AdvantageImpl.c ****                 puartdisp->_messagetx[index++] = 0xF8; //Preset Data next
ARM GAS  C:\Users\RECEPC~1\AppData\Local\Temp\cc7aDVfG.s 			page 100


 4479              		.loc 1 1147 0 discriminator 4
 4480 01ce 97F82730 		ldrb	r3, [r7, #39]	@ zero_extendqisi2
 4481 01d2 5A1C     		adds	r2, r3, #1
 4482 01d4 87F82720 		strb	r2, [r7, #39]
 4483 01d8 1A46     		mov	r2, r3
 4484 01da FB69     		ldr	r3, [r7, #28]
 4485 01dc 1344     		add	r3, r3, r2
 4486 01de F822     		movs	r2, #248
 4487 01e0 1A71     		strb	r2, [r3, #4]
1148:.\AdvantageImpl.c ****                 //Here we copy the remaining 8 bytes for the preset value
1149:.\AdvantageImpl.c ****                 ///THIS IS AN APPLIED CONVENTION ===>> 0x0008 INDEX POSITION WITHIN THE PUMP'S BUFF
1150:.\AdvantageImpl.c ****                 ///THESE CODES MUST BE MATCHED OTHERWISE THE LOGIC WILL BREAKUP THE CODE!
1151:.\AdvantageImpl.c ****                 char8 *ptr = &ppump->_trasactionbuffer[0x0008];
 4488              		.loc 1 1151 0 discriminator 4
 4489 01e2 3B6A     		ldr	r3, [r7, #32]
 4490 01e4 2833     		adds	r3, r3, #40
 4491 01e6 FB60     		str	r3, [r7, #12]
1152:.\AdvantageImpl.c ****                 if(transtype == 0xF1) //Volume PRESET, then multiply by 1000
 4492              		.loc 1 1152 0 discriminator 4
 4493 01e8 FB7C     		ldrb	r3, [r7, #19]	@ zero_extendqisi2
 4494 01ea F12B     		cmp	r3, #241
 4495 01ec 04D1     		bne	.L161
1153:.\AdvantageImpl.c ****                     CastVolumeValue(ptr, 0x08);
 4496              		.loc 1 1153 0
 4497 01ee F868     		ldr	r0, [r7, #12]
 4498 01f0 0821     		movs	r1, #8
 4499 01f2 FFF7FEFF 		bl	CastVolumeValue
 4500 01f6 0BE0     		b	.L162
 4501              	.L161:
1154:.\AdvantageImpl.c ****                 else if(!(_g_dispenserlayoutinfo._moneydecimals == 0x03 && _g_dispenserlayoutinfo._
 4502              		.loc 1 1154 0
 4503 01f8 314B     		ldr	r3, .L166
 4504 01fa DB79     		ldrb	r3, [r3, #7]	@ zero_extendqisi2
 4505 01fc 032B     		cmp	r3, #3
 4506 01fe 03D1     		bne	.L163
 4507              		.loc 1 1154 0 is_stmt 0 discriminator 1
 4508 0200 2F4B     		ldr	r3, .L166
 4509 0202 1B7A     		ldrb	r3, [r3, #8]	@ zero_extendqisi2
 4510 0204 022B     		cmp	r3, #2
 4511 0206 03D0     		beq	.L162
 4512              	.L163:
1155:.\AdvantageImpl.c ****                     CastMoneyValue(ptr, 0x08);
 4513              		.loc 1 1155 0 is_stmt 1
 4514 0208 F868     		ldr	r0, [r7, #12]
 4515 020a 0821     		movs	r1, #8
 4516 020c FFF7FEFF 		bl	CastMoneyValue
 4517              	.L162:
1156:.\AdvantageImpl.c ****                 
1157:.\AdvantageImpl.c ****                 FOR(uint8 buffndx = 0, buffndx < 0x08, buffndx++)
 4518              		.loc 1 1157 0
 4519 0210 0023     		movs	r3, #0
 4520 0212 87F82430 		strb	r3, [r7, #36]
 4521 0216 1DE0     		b	.L164
 4522              	.L165:
1158:.\AdvantageImpl.c ****                     puartdisp->_messagetx[index++] = (0xE0 | (ptr[7 - buffndx] & 0x0F)); //Translat
 4523              		.loc 1 1158 0 discriminator 3
 4524 0218 97F82730 		ldrb	r3, [r7, #39]	@ zero_extendqisi2
ARM GAS  C:\Users\RECEPC~1\AppData\Local\Temp\cc7aDVfG.s 			page 101


 4525 021c 5A1C     		adds	r2, r3, #1
 4526 021e 87F82720 		strb	r2, [r7, #39]
 4527 0222 1946     		mov	r1, r3
 4528 0224 97F82430 		ldrb	r3, [r7, #36]	@ zero_extendqisi2
 4529 0228 C3F10703 		rsb	r3, r3, #7
 4530 022c 1A46     		mov	r2, r3
 4531 022e FB68     		ldr	r3, [r7, #12]
 4532 0230 1344     		add	r3, r3, r2
 4533 0232 1B78     		ldrb	r3, [r3]	@ zero_extendqisi2
 4534 0234 DBB2     		uxtb	r3, r3
 4535 0236 03F00F03 		and	r3, r3, #15
 4536 023a DBB2     		uxtb	r3, r3
 4537 023c 63F01F03 		orn	r3, r3, #31
 4538 0240 DBB2     		uxtb	r3, r3
 4539 0242 DAB2     		uxtb	r2, r3
 4540 0244 FB69     		ldr	r3, [r7, #28]
 4541 0246 0B44     		add	r3, r3, r1
 4542 0248 1A71     		strb	r2, [r3, #4]
1157:.\AdvantageImpl.c ****                     puartdisp->_messagetx[index++] = (0xE0 | (ptr[7 - buffndx] & 0x0F)); //Translat
 4543              		.loc 1 1157 0 discriminator 3
 4544 024a 97F82430 		ldrb	r3, [r7, #36]	@ zero_extendqisi2
 4545 024e 0133     		adds	r3, r3, #1
 4546 0250 87F82430 		strb	r3, [r7, #36]
 4547              	.L164:
1157:.\AdvantageImpl.c ****                     puartdisp->_messagetx[index++] = (0xE0 | (ptr[7 - buffndx] & 0x0F)); //Translat
 4548              		.loc 1 1157 0 is_stmt 0 discriminator 1
 4549 0254 97F82430 		ldrb	r3, [r7, #36]	@ zero_extendqisi2
 4550 0258 072B     		cmp	r3, #7
 4551 025a DDD9     		bls	.L165
 4552              	.L158:
 4553              	.LBE28:
1159:.\AdvantageImpl.c ****             }
1160:.\AdvantageImpl.c ****             ppump->_presetdone = true;
 4554              		.loc 1 1160 0 is_stmt 1
 4555 025c 3B6A     		ldr	r3, [r7, #32]
 4556 025e 0122     		movs	r2, #1
 4557 0260 1A72     		strb	r2, [r3, #8]
1161:.\AdvantageImpl.c **** 
1162:.\AdvantageImpl.c ****             puartdisp->_messagetx[index++] = LRCn; //LRC next
 4558              		.loc 1 1162 0
 4559 0262 97F82730 		ldrb	r3, [r7, #39]	@ zero_extendqisi2
 4560 0266 5A1C     		adds	r2, r3, #1
 4561 0268 87F82720 		strb	r2, [r7, #39]
 4562 026c 1A46     		mov	r2, r3
 4563 026e FB69     		ldr	r3, [r7, #28]
 4564 0270 1344     		add	r3, r3, r2
 4565 0272 FB22     		movs	r2, #251
 4566 0274 1A71     		strb	r2, [r3, #4]
1163:.\AdvantageImpl.c ****             puartdisp->_messagetx[index++] = GetLRC(puartdisp->_messagetx);
 4567              		.loc 1 1163 0
 4568 0276 97F82730 		ldrb	r3, [r7, #39]	@ zero_extendqisi2
 4569 027a 5A1C     		adds	r2, r3, #1
 4570 027c 87F82720 		strb	r2, [r7, #39]
 4571 0280 1C46     		mov	r4, r3
 4572 0282 FB69     		ldr	r3, [r7, #28]
 4573 0284 0433     		adds	r3, r3, #4
 4574 0286 1846     		mov	r0, r3
ARM GAS  C:\Users\RECEPC~1\AppData\Local\Temp\cc7aDVfG.s 			page 102


 4575 0288 FFF7FEFF 		bl	GetLRC
 4576 028c 0346     		mov	r3, r0
 4577 028e 1A46     		mov	r2, r3
 4578 0290 FB69     		ldr	r3, [r7, #28]
 4579 0292 2344     		add	r3, r3, r4
 4580 0294 1A71     		strb	r2, [r3, #4]
1164:.\AdvantageImpl.c ****             puartdisp->_messagetx[index++] = EOM;
 4581              		.loc 1 1164 0
 4582 0296 97F82730 		ldrb	r3, [r7, #39]	@ zero_extendqisi2
 4583 029a 5A1C     		adds	r2, r3, #1
 4584 029c 87F82720 		strb	r2, [r7, #39]
 4585 02a0 1A46     		mov	r2, r3
 4586 02a2 FB69     		ldr	r3, [r7, #28]
 4587 02a4 1344     		add	r3, r3, r2
 4588 02a6 F022     		movs	r2, #240
 4589 02a8 1A71     		strb	r2, [r3, #4]
1165:.\AdvantageImpl.c **** ///////////////////////////////////////////////////////////////////////////////////////////////////
1166:.\AdvantageImpl.c ****             
1167:.\AdvantageImpl.c ****             puartdisp->_messagelength = index;
 4590              		.loc 1 1167 0
 4591 02aa 97F82730 		ldrb	r3, [r7, #39]	@ zero_extendqisi2
 4592 02ae 9AB2     		uxth	r2, r3
 4593 02b0 FB69     		ldr	r3, [r7, #28]
 4594 02b2 5A80     		strh	r2, [r3, #2]	@ movhi
1168:.\AdvantageImpl.c ****             puartdisp->_messagestate = PENDING;
 4595              		.loc 1 1168 0
 4596 02b4 FB69     		ldr	r3, [r7, #28]
 4597 02b6 C222     		movs	r2, #194
 4598 02b8 1A70     		strb	r2, [r3]
 4599              	.L143:
 4600              	.LBE24:
1169:.\AdvantageImpl.c ****         }
1170:.\AdvantageImpl.c ****     }
1171:.\AdvantageImpl.c ****     
1172:.\AdvantageImpl.c **** }
 4601              		.loc 1 1172 0
 4602 02ba 2C37     		adds	r7, r7, #44
 4603              		.cfi_def_cfa_offset 12
 4604 02bc BD46     		mov	sp, r7
 4605              		.cfi_def_cfa_register 13
 4606              		@ sp needed
 4607 02be 90BD     		pop	{r4, r7, pc}
 4608              	.L167:
 4609              		.align	2
 4610              	.L166:
 4611 02c0 00000000 		.word	_g_dispenserlayoutinfo
 4612              		.cfi_endproc
 4613              	.LFE80:
 4614              		.size	PumpPresetNoHose, .-PumpPresetNoHose
 4615              		.section	.text.PumpPresetNotification,"ax",%progbits
 4616              		.align	2
 4617              		.global	PumpPresetNotification
 4618              		.thumb
 4619              		.thumb_func
 4620              		.type	PumpPresetNotification, %function
 4621              	PumpPresetNotification:
 4622              	.LFB81:
ARM GAS  C:\Users\RECEPC~1\AppData\Local\Temp\cc7aDVfG.s 			page 103


1173:.\AdvantageImpl.c **** 
1174:.\AdvantageImpl.c **** //@Created By: HIJH
1175:.\AdvantageImpl.c **** //@Septembre de 2016
1176:.\AdvantageImpl.c **** //Message to be notified to the remote peer (NSX)
1177:.\AdvantageImpl.c **** void PumpPresetNotification(LPVOID pparam)
1178:.\AdvantageImpl.c **** {
 4623              		.loc 1 1178 0
 4624              		.cfi_startproc
 4625              		@ args = 0, pretend = 0, frame = 32
 4626              		@ frame_needed = 1, uses_anonymous_args = 0
 4627 0000 B0B5     		push	{r4, r5, r7, lr}
 4628              		.cfi_def_cfa_offset 16
 4629              		.cfi_offset 4, -16
 4630              		.cfi_offset 5, -12
 4631              		.cfi_offset 7, -8
 4632              		.cfi_offset 14, -4
 4633 0002 88B0     		sub	sp, sp, #32
 4634              		.cfi_def_cfa_offset 48
 4635 0004 00AF     		add	r7, sp, #0
 4636              		.cfi_def_cfa_register 7
 4637 0006 7860     		str	r0, [r7, #4]
1179:.\AdvantageImpl.c ****     PPUMPTRANSACTIONJOBCONTEXTPTR pjob = (PPUMPTRANSACTIONJOBCONTEXTPTR)pparam;
 4638              		.loc 1 1179 0
 4639 0008 7B68     		ldr	r3, [r7, #4]
 4640 000a FB61     		str	r3, [r7, #28]
1180:.\AdvantageImpl.c ****     if(pjob)
 4641              		.loc 1 1180 0
 4642 000c FB69     		ldr	r3, [r7, #28]
 4643 000e 002B     		cmp	r3, #0
 4644 0010 00F0FD80 		beq	.L168
 4645              	.LBB29:
1181:.\AdvantageImpl.c ****     {
1182:.\AdvantageImpl.c ****         //HERE WE ATTEMPT TO PUSH THE TRANSACTION INTO THE PUMP'S TRANSACTIONAL QUEUE.
1183:.\AdvantageImpl.c ****         //THIS IS DONE ONLY IF THERE IS ROOM IN THE QUEUE, OTHERWISE THIS STATE WON'T
1184:.\AdvantageImpl.c ****         //BE REPORTED TO THE REMOTE PEER.
1185:.\AdvantageImpl.c ****         pjob->_ppump->PumpTransQueueLock(pjob->_ppump);
 4646              		.loc 1 1185 0
 4647 0014 FB69     		ldr	r3, [r7, #28]
 4648 0016 DB69     		ldr	r3, [r3, #28]
 4649 0018 D3F8443B 		ldr	r3, [r3, #2884]
 4650 001c FA69     		ldr	r2, [r7, #28]
 4651 001e D269     		ldr	r2, [r2, #28]
 4652 0020 1046     		mov	r0, r2
 4653 0022 9847     		blx	r3
1186:.\AdvantageImpl.c ****         PNEAR_PUMPTRANSACTIONALSTATEPTR pts = pjob->_ppump->PumpTransQueueAllocate(pjob->_ppump);
 4654              		.loc 1 1186 0
 4655 0024 FB69     		ldr	r3, [r7, #28]
 4656 0026 DB69     		ldr	r3, [r3, #28]
 4657 0028 D3F8583B 		ldr	r3, [r3, #2904]
 4658 002c FA69     		ldr	r2, [r7, #28]
 4659 002e D269     		ldr	r2, [r2, #28]
 4660 0030 1046     		mov	r0, r2
 4661 0032 9847     		blx	r3
 4662 0034 B861     		str	r0, [r7, #24]
1187:.\AdvantageImpl.c ****         pjob->_ppump->PumpTransQueueUnlock(pjob->_ppump);
 4663              		.loc 1 1187 0
 4664 0036 FB69     		ldr	r3, [r7, #28]
ARM GAS  C:\Users\RECEPC~1\AppData\Local\Temp\cc7aDVfG.s 			page 104


 4665 0038 DB69     		ldr	r3, [r3, #28]
 4666 003a D3F8483B 		ldr	r3, [r3, #2888]
 4667 003e FA69     		ldr	r2, [r7, #28]
 4668 0040 D269     		ldr	r2, [r2, #28]
 4669 0042 1046     		mov	r0, r2
 4670 0044 9847     		blx	r3
1188:.\AdvantageImpl.c ****         if(pts)
 4671              		.loc 1 1188 0
 4672 0046 BB69     		ldr	r3, [r7, #24]
 4673 0048 002B     		cmp	r3, #0
 4674 004a 00F0E080 		beq	.L168
 4675              	.LBB30:
1189:.\AdvantageImpl.c ****         {
1190:.\AdvantageImpl.c ****             uint8 index = 0;
 4676              		.loc 1 1190 0
 4677 004e 0023     		movs	r3, #0
 4678 0050 FB75     		strb	r3, [r7, #23]
1191:.\AdvantageImpl.c ****             pts->_transtate = RF_MUX_CASH_SALE_START_REQUEST;
 4679              		.loc 1 1191 0
 4680 0052 BB69     		ldr	r3, [r7, #24]
 4681 0054 AA22     		movs	r2, #170
 4682 0056 5A70     		strb	r2, [r3, #1]
1192:.\AdvantageImpl.c ****             //Pump ID always comes in position 0x00
1193:.\AdvantageImpl.c ****             pts->_buffer[index++] = pjob->_ppump->_pumpid;
 4683              		.loc 1 1193 0
 4684 0058 FB7D     		ldrb	r3, [r7, #23]	@ zero_extendqisi2
 4685 005a 5A1C     		adds	r2, r3, #1
 4686 005c FA75     		strb	r2, [r7, #23]
 4687 005e 1946     		mov	r1, r3
 4688 0060 FB69     		ldr	r3, [r7, #28]
 4689 0062 DB69     		ldr	r3, [r3, #28]
 4690 0064 1A78     		ldrb	r2, [r3]	@ zero_extendqisi2
 4691 0066 BB69     		ldr	r3, [r7, #24]
 4692 0068 0B44     		add	r3, r3, r1
 4693 006a 9A70     		strb	r2, [r3, #2]
1194:.\AdvantageImpl.c ****             //PRESET type
1195:.\AdvantageImpl.c ****             pts->_buffer[index++] = (0xF0 | ((pjob->_ppump->_trasactionbuffer[0x0004] == 0x0F)? 0x0
 4694              		.loc 1 1195 0
 4695 006c FB7D     		ldrb	r3, [r7, #23]	@ zero_extendqisi2
 4696 006e 5A1C     		adds	r2, r3, #1
 4697 0070 FA75     		strb	r2, [r7, #23]
 4698 0072 1946     		mov	r1, r3
 4699 0074 FB69     		ldr	r3, [r7, #28]
 4700 0076 DB69     		ldr	r3, [r3, #28]
 4701 0078 93F82430 		ldrb	r3, [r3, #36]	@ zero_extendqisi2
 4702 007c 0F2B     		cmp	r3, #15
 4703 007e 01D1     		bne	.L170
 4704              		.loc 1 1195 0 is_stmt 0 discriminator 1
 4705 0080 F222     		movs	r2, #242
 4706 0082 00E0     		b	.L171
 4707              	.L170:
 4708              		.loc 1 1195 0 discriminator 2
 4709 0084 F122     		movs	r2, #241
 4710              	.L171:
 4711              		.loc 1 1195 0 discriminator 4
 4712 0086 BB69     		ldr	r3, [r7, #24]
 4713 0088 0B44     		add	r3, r3, r1
ARM GAS  C:\Users\RECEPC~1\AppData\Local\Temp\cc7aDVfG.s 			page 105


 4714 008a 9A70     		strb	r2, [r3, #2]
1196:.\AdvantageImpl.c ****             
1197:.\AdvantageImpl.c ****             //Entering here means that volume preset was chosen and since this is a 6-6-4 dispenser
1198:.\AdvantageImpl.c ****             if(pjob->_ppump->_trasactionbuffer[0x0004] == 0x10)
 4715              		.loc 1 1198 0 is_stmt 1 discriminator 4
 4716 008c FB69     		ldr	r3, [r7, #28]
 4717 008e DB69     		ldr	r3, [r3, #28]
 4718 0090 93F82430 		ldrb	r3, [r3, #36]	@ zero_extendqisi2
 4719 0094 102B     		cmp	r3, #16
 4720 0096 28D1     		bne	.L172
 4721              	.LBB31:
1199:.\AdvantageImpl.c ****             {
1200:.\AdvantageImpl.c ****                 PSTRBUFFTOGG(PBYTECAST(&pjob->_ppump->_trasactionbuffer[0x0008]), 0x08);
 4722              		.loc 1 1200 0
 4723 0098 FB69     		ldr	r3, [r7, #28]
 4724 009a DB69     		ldr	r3, [r3, #28]
 4725 009c 2833     		adds	r3, r3, #40
 4726 009e 1846     		mov	r0, r3
 4727 00a0 0821     		movs	r1, #8
 4728 00a2 FFF7FEFF 		bl	PSTRBUFFTOGG
1201:.\AdvantageImpl.c ****                 uint32 volumeamount = LSDBCDBUFF2HEX(PBYTECAST(&pjob->_ppump->_trasactionbuffer[0x0
 4729              		.loc 1 1201 0
 4730 00a6 FB69     		ldr	r3, [r7, #28]
 4731 00a8 DB69     		ldr	r3, [r3, #28]
 4732 00aa 2833     		adds	r3, r3, #40
 4733 00ac 1846     		mov	r0, r3
 4734 00ae 0821     		movs	r1, #8
 4735 00b0 FFF7FEFF 		bl	LSDBCDBUFF2HEX
 4736 00b4 3861     		str	r0, [r7, #16]
1202:.\AdvantageImpl.c ****                 memset(PBYTECAST(&pjob->_ppump->_trasactionbuffer[0x0008]), 0x00, 0x08);
 4737              		.loc 1 1202 0
 4738 00b6 FB69     		ldr	r3, [r7, #28]
 4739 00b8 DB69     		ldr	r3, [r3, #28]
 4740 00ba 2833     		adds	r3, r3, #40
 4741 00bc 1846     		mov	r0, r3
 4742 00be 0021     		movs	r1, #0
 4743 00c0 0822     		movs	r2, #8
 4744 00c2 FFF7FEFF 		bl	memset
1203:.\AdvantageImpl.c ****                 B78AD90CF552D9B30A(volumeamount * 10, PBYTECAST(&pjob->_ppump->_trasactionbuffer[0x
 4745              		.loc 1 1203 0
 4746 00c6 3A69     		ldr	r2, [r7, #16]
 4747 00c8 1346     		mov	r3, r2
 4748 00ca 9B00     		lsls	r3, r3, #2
 4749 00cc 1344     		add	r3, r3, r2
 4750 00ce 5B00     		lsls	r3, r3, #1
 4751 00d0 1A46     		mov	r2, r3
 4752 00d2 4FF00003 		mov	r3, #0
 4753 00d6 F969     		ldr	r1, [r7, #28]
 4754 00d8 C969     		ldr	r1, [r1, #28]
 4755 00da 01F12804 		add	r4, r1, #40
 4756 00de 1046     		mov	r0, r2
 4757 00e0 1946     		mov	r1, r3
 4758 00e2 2246     		mov	r2, r4
 4759 00e4 FFF7FEFF 		bl	B78AD90CF552D9B30A
 4760              	.LBE31:
 4761 00e8 06E0     		b	.L173
 4762              	.L172:
ARM GAS  C:\Users\RECEPC~1\AppData\Local\Temp\cc7aDVfG.s 			page 106


1204:.\AdvantageImpl.c ****             }else//Money PRESET
1205:.\AdvantageImpl.c ****                 PSTRBUFFTOGG(PBYTECAST(&pjob->_ppump->_trasactionbuffer[0x0008]), 0x08);
 4763              		.loc 1 1205 0
 4764 00ea FB69     		ldr	r3, [r7, #28]
 4765 00ec DB69     		ldr	r3, [r3, #28]
 4766 00ee 2833     		adds	r3, r3, #40
 4767 00f0 1846     		mov	r0, r3
 4768 00f2 0821     		movs	r1, #8
 4769 00f4 FFF7FEFF 		bl	PSTRBUFFTOGG
 4770              	.L173:
1206:.\AdvantageImpl.c ****                 
1207:.\AdvantageImpl.c ****             memcpy(&pts->_buffer[index], &pjob->_ppump->_trasactionbuffer[0x0008], 0x08);
 4771              		.loc 1 1207 0
 4772 00f8 FB7D     		ldrb	r3, [r7, #23]	@ zero_extendqisi2
 4773 00fa BA69     		ldr	r2, [r7, #24]
 4774 00fc 1344     		add	r3, r3, r2
 4775 00fe 9A1C     		adds	r2, r3, #2
 4776 0100 FB69     		ldr	r3, [r7, #28]
 4777 0102 DB69     		ldr	r3, [r3, #28]
 4778 0104 2833     		adds	r3, r3, #40
 4779 0106 1046     		mov	r0, r2
 4780 0108 1946     		mov	r1, r3
 4781 010a 0822     		movs	r2, #8
 4782 010c FFF7FEFF 		bl	memcpy
1208:.\AdvantageImpl.c ****             index += 0x08;
 4783              		.loc 1 1208 0
 4784 0110 FB7D     		ldrb	r3, [r7, #23]
 4785 0112 0833     		adds	r3, r3, #8
 4786 0114 FB75     		strb	r3, [r7, #23]
1209:.\AdvantageImpl.c ****             //Car's Plate
1210:.\AdvantageImpl.c ****             memcpy(&pts->_buffer[index], &pjob->_ppump->_trasactionbuffer[GetBufferIndexFromDisplay
 4787              		.loc 1 1210 0
 4788 0116 FB7D     		ldrb	r3, [r7, #23]	@ zero_extendqisi2
 4789 0118 BA69     		ldr	r2, [r7, #24]
 4790 011a 1344     		add	r3, r3, r2
 4791 011c 9D1C     		adds	r5, r3, #2
 4792 011e FB69     		ldr	r3, [r7, #28]
 4793 0120 DC69     		ldr	r4, [r3, #28]
 4794 0122 0A20     		movs	r0, #10
 4795 0124 FFF7FEFF 		bl	GetBufferIndexFromDisplayID
 4796 0128 0346     		mov	r3, r0
 4797 012a 2033     		adds	r3, r3, #32
 4798 012c 1C44     		add	r4, r4, r3
 4799 012e 0A20     		movs	r0, #10
 4800 0130 FFF7FEFF 		bl	GetBufferLengthFromDisplayID
 4801 0134 0346     		mov	r3, r0
 4802 0136 2846     		mov	r0, r5
 4803 0138 2146     		mov	r1, r4
 4804 013a 1A46     		mov	r2, r3
 4805 013c FFF7FEFF 		bl	memcpy
1211:.\AdvantageImpl.c ****             index += GetBufferLengthFromDisplayID(DISPLAY_DIGITE_PLACA);
 4806              		.loc 1 1211 0
 4807 0140 0A20     		movs	r0, #10
 4808 0142 FFF7FEFF 		bl	GetBufferLengthFromDisplayID
 4809 0146 0346     		mov	r3, r0
 4810 0148 1A46     		mov	r2, r3
 4811 014a FB7D     		ldrb	r3, [r7, #23]
ARM GAS  C:\Users\RECEPC~1\AppData\Local\Temp\cc7aDVfG.s 			page 107


 4812 014c 1344     		add	r3, r3, r2
 4813 014e FB75     		strb	r3, [r7, #23]
1212:.\AdvantageImpl.c ****             pts->_buffer[index] = index;
 4814              		.loc 1 1212 0
 4815 0150 FB7D     		ldrb	r3, [r7, #23]	@ zero_extendqisi2
 4816 0152 BA69     		ldr	r2, [r7, #24]
 4817 0154 1344     		add	r3, r3, r2
 4818 0156 FA7D     		ldrb	r2, [r7, #23]
 4819 0158 9A70     		strb	r2, [r3, #2]
1213:.\AdvantageImpl.c ****             //Car's Milleage
1214:.\AdvantageImpl.c ****             memcpy(&pts->_buffer[index], &pjob->_ppump->_trasactionbuffer[GetBufferIndexFromDisplay
 4820              		.loc 1 1214 0
 4821 015a FB7D     		ldrb	r3, [r7, #23]	@ zero_extendqisi2
 4822 015c BA69     		ldr	r2, [r7, #24]
 4823 015e 1344     		add	r3, r3, r2
 4824 0160 9D1C     		adds	r5, r3, #2
 4825 0162 FB69     		ldr	r3, [r7, #28]
 4826 0164 DC69     		ldr	r4, [r3, #28]
 4827 0166 0E20     		movs	r0, #14
 4828 0168 FFF7FEFF 		bl	GetBufferIndexFromDisplayID
 4829 016c 0346     		mov	r3, r0
 4830 016e 2033     		adds	r3, r3, #32
 4831 0170 1C44     		add	r4, r4, r3
 4832 0172 0E20     		movs	r0, #14
 4833 0174 FFF7FEFF 		bl	GetBufferLengthFromDisplayID
 4834 0178 0346     		mov	r3, r0
 4835 017a 2846     		mov	r0, r5
 4836 017c 2146     		mov	r1, r4
 4837 017e 1A46     		mov	r2, r3
 4838 0180 FFF7FEFF 		bl	memcpy
1215:.\AdvantageImpl.c ****             index += GetBufferLengthFromDisplayID(DISPLAY_INTRODUZCA_KILOMETRAJE);
 4839              		.loc 1 1215 0
 4840 0184 0E20     		movs	r0, #14
 4841 0186 FFF7FEFF 		bl	GetBufferLengthFromDisplayID
 4842 018a 0346     		mov	r3, r0
 4843 018c 1A46     		mov	r2, r3
 4844 018e FB7D     		ldrb	r3, [r7, #23]
 4845 0190 1344     		add	r3, r3, r2
 4846 0192 FB75     		strb	r3, [r7, #23]
1216:.\AdvantageImpl.c ****             
1217:.\AdvantageImpl.c ****             pts->_buffersize = index;
 4847              		.loc 1 1217 0
 4848 0194 FB7D     		ldrb	r3, [r7, #23]	@ zero_extendqisi2
 4849 0196 9AB2     		uxth	r2, r3
 4850 0198 BB69     		ldr	r3, [r7, #24]
 4851 019a A3F80221 		strh	r2, [r3, #258]	@ movhi
1218:.\AdvantageImpl.c ****             
1219:.\AdvantageImpl.c ****             PNEAR_PUMPTRANSACTIONALSTATEPTR ptstemp = pjob->_ppump->PumpTransQueueAllocate(pjob->_p
 4852              		.loc 1 1219 0
 4853 019e FB69     		ldr	r3, [r7, #28]
 4854 01a0 DB69     		ldr	r3, [r3, #28]
 4855 01a2 D3F8583B 		ldr	r3, [r3, #2904]
 4856 01a6 FA69     		ldr	r2, [r7, #28]
 4857 01a8 D269     		ldr	r2, [r2, #28]
 4858 01aa 1046     		mov	r0, r2
 4859 01ac 9847     		blx	r3
 4860 01ae F860     		str	r0, [r7, #12]
ARM GAS  C:\Users\RECEPC~1\AppData\Local\Temp\cc7aDVfG.s 			page 108


1220:.\AdvantageImpl.c ****             if(ptstemp)
 4861              		.loc 1 1220 0
 4862 01b0 FB68     		ldr	r3, [r7, #12]
 4863 01b2 002B     		cmp	r3, #0
 4864 01b4 22D0     		beq	.L174
1221:.\AdvantageImpl.c ****             {
1222:.\AdvantageImpl.c ****                 pjob->_ppump->PumpTransQueueDeallocate(pjob->_ppump,ptstemp);
 4865              		.loc 1 1222 0
 4866 01b6 FB69     		ldr	r3, [r7, #28]
 4867 01b8 DB69     		ldr	r3, [r3, #28]
 4868 01ba D3F8543B 		ldr	r3, [r3, #2900]
 4869 01be FA69     		ldr	r2, [r7, #28]
 4870 01c0 D269     		ldr	r2, [r2, #28]
 4871 01c2 1046     		mov	r0, r2
 4872 01c4 F968     		ldr	r1, [r7, #12]
 4873 01c6 9847     		blx	r3
1223:.\AdvantageImpl.c ****                 pjob->_ppump->PumpTransQueueLock(pjob->_ppump);
 4874              		.loc 1 1223 0
 4875 01c8 FB69     		ldr	r3, [r7, #28]
 4876 01ca DB69     		ldr	r3, [r3, #28]
 4877 01cc D3F8443B 		ldr	r3, [r3, #2884]
 4878 01d0 FA69     		ldr	r2, [r7, #28]
 4879 01d2 D269     		ldr	r2, [r2, #28]
 4880 01d4 1046     		mov	r0, r2
 4881 01d6 9847     		blx	r3
1224:.\AdvantageImpl.c ****                 pjob->_ppump->PumpTransQueueEnqueue(pjob->_ppump, pts);
 4882              		.loc 1 1224 0
 4883 01d8 FB69     		ldr	r3, [r7, #28]
 4884 01da DB69     		ldr	r3, [r3, #28]
 4885 01dc D3F8503B 		ldr	r3, [r3, #2896]
 4886 01e0 FA69     		ldr	r2, [r7, #28]
 4887 01e2 D269     		ldr	r2, [r2, #28]
 4888 01e4 1046     		mov	r0, r2
 4889 01e6 B969     		ldr	r1, [r7, #24]
 4890 01e8 9847     		blx	r3
1225:.\AdvantageImpl.c ****                 pjob->_ppump->PumpTransQueueUnlock(pjob->_ppump);
 4891              		.loc 1 1225 0
 4892 01ea FB69     		ldr	r3, [r7, #28]
 4893 01ec DB69     		ldr	r3, [r3, #28]
 4894 01ee D3F8483B 		ldr	r3, [r3, #2888]
 4895 01f2 FA69     		ldr	r2, [r7, #28]
 4896 01f4 D269     		ldr	r2, [r2, #28]
 4897 01f6 1046     		mov	r0, r2
 4898 01f8 9847     		blx	r3
 4899 01fa 08E0     		b	.L168
 4900              	.L174:
1226:.\AdvantageImpl.c ****             }else
1227:.\AdvantageImpl.c ****                 pjob->_ppump->PumpTransQueueDeallocate(pjob->_ppump, pts);
 4901              		.loc 1 1227 0
 4902 01fc FB69     		ldr	r3, [r7, #28]
 4903 01fe DB69     		ldr	r3, [r3, #28]
 4904 0200 D3F8543B 		ldr	r3, [r3, #2900]
 4905 0204 FA69     		ldr	r2, [r7, #28]
 4906 0206 D269     		ldr	r2, [r2, #28]
 4907 0208 1046     		mov	r0, r2
 4908 020a B969     		ldr	r1, [r7, #24]
 4909 020c 9847     		blx	r3
ARM GAS  C:\Users\RECEPC~1\AppData\Local\Temp\cc7aDVfG.s 			page 109


 4910              	.L168:
 4911              	.LBE30:
 4912              	.LBE29:
1228:.\AdvantageImpl.c ****         }
1229:.\AdvantageImpl.c ****     }
1230:.\AdvantageImpl.c **** }
 4913              		.loc 1 1230 0
 4914 020e 2037     		adds	r7, r7, #32
 4915              		.cfi_def_cfa_offset 16
 4916 0210 BD46     		mov	sp, r7
 4917              		.cfi_def_cfa_register 13
 4918              		@ sp needed
 4919 0212 B0BD     		pop	{r4, r5, r7, pc}
 4920              		.cfi_endproc
 4921              	.LFE81:
 4922              		.size	PumpPresetNotification, .-PumpPresetNotification
 4923              		.section	.text.PumpCreditPresetNotification,"ax",%progbits
 4924              		.align	2
 4925              		.global	PumpCreditPresetNotification
 4926              		.thumb
 4927              		.thumb_func
 4928              		.type	PumpCreditPresetNotification, %function
 4929              	PumpCreditPresetNotification:
 4930              	.LFB82:
1231:.\AdvantageImpl.c **** 
1232:.\AdvantageImpl.c **** 
1233:.\AdvantageImpl.c **** //@Created By: HIJH
1234:.\AdvantageImpl.c **** //@Septembre de 2016
1235:.\AdvantageImpl.c **** //Message to be notified to the remote peer (NSX)
1236:.\AdvantageImpl.c **** void PumpCreditPresetNotification(LPVOID pparam)
1237:.\AdvantageImpl.c **** {
 4931              		.loc 1 1237 0
 4932              		.cfi_startproc
 4933              		@ args = 0, pretend = 0, frame = 24
 4934              		@ frame_needed = 1, uses_anonymous_args = 0
 4935 0000 80B5     		push	{r7, lr}
 4936              		.cfi_def_cfa_offset 8
 4937              		.cfi_offset 7, -8
 4938              		.cfi_offset 14, -4
 4939 0002 86B0     		sub	sp, sp, #24
 4940              		.cfi_def_cfa_offset 32
 4941 0004 00AF     		add	r7, sp, #0
 4942              		.cfi_def_cfa_register 7
 4943 0006 7860     		str	r0, [r7, #4]
1238:.\AdvantageImpl.c ****     PPUMPTRANSACTIONJOBCONTEXTPTR pjob = (PPUMPTRANSACTIONJOBCONTEXTPTR)pparam;
 4944              		.loc 1 1238 0
 4945 0008 7B68     		ldr	r3, [r7, #4]
 4946 000a 7B61     		str	r3, [r7, #20]
1239:.\AdvantageImpl.c ****     if(pjob)
 4947              		.loc 1 1239 0
 4948 000c 7B69     		ldr	r3, [r7, #20]
 4949 000e 002B     		cmp	r3, #0
 4950 0010 67D0     		beq	.L175
 4951              	.LBB32:
1240:.\AdvantageImpl.c ****     {
1241:.\AdvantageImpl.c ****         //HERE WE ATTEMPT TO PUSH THE TRANSACTION INTO THE PUMP'S TRANSACTIONAL QUEUE.
1242:.\AdvantageImpl.c ****         //THIS IS DONE ONLY IF THERE IS ROOM IN THE QUEUE, OTHERWISE THIS STATE WON'T
ARM GAS  C:\Users\RECEPC~1\AppData\Local\Temp\cc7aDVfG.s 			page 110


1243:.\AdvantageImpl.c ****         //BE REPORTED TO THE REMOTE PEER.
1244:.\AdvantageImpl.c ****         pjob->_ppump->PumpTransQueueLock(pjob->_ppump);
 4952              		.loc 1 1244 0
 4953 0012 7B69     		ldr	r3, [r7, #20]
 4954 0014 DB69     		ldr	r3, [r3, #28]
 4955 0016 D3F8443B 		ldr	r3, [r3, #2884]
 4956 001a 7A69     		ldr	r2, [r7, #20]
 4957 001c D269     		ldr	r2, [r2, #28]
 4958 001e 1046     		mov	r0, r2
 4959 0020 9847     		blx	r3
1245:.\AdvantageImpl.c ****         PNEAR_PUMPTRANSACTIONALSTATEPTR pts = pjob->_ppump->PumpTransQueueAllocate(pjob->_ppump);
 4960              		.loc 1 1245 0
 4961 0022 7B69     		ldr	r3, [r7, #20]
 4962 0024 DB69     		ldr	r3, [r3, #28]
 4963 0026 D3F8583B 		ldr	r3, [r3, #2904]
 4964 002a 7A69     		ldr	r2, [r7, #20]
 4965 002c D269     		ldr	r2, [r2, #28]
 4966 002e 1046     		mov	r0, r2
 4967 0030 9847     		blx	r3
 4968 0032 3861     		str	r0, [r7, #16]
1246:.\AdvantageImpl.c ****         pjob->_ppump->PumpTransQueueUnlock(pjob->_ppump);
 4969              		.loc 1 1246 0
 4970 0034 7B69     		ldr	r3, [r7, #20]
 4971 0036 DB69     		ldr	r3, [r3, #28]
 4972 0038 D3F8483B 		ldr	r3, [r3, #2888]
 4973 003c 7A69     		ldr	r2, [r7, #20]
 4974 003e D269     		ldr	r2, [r2, #28]
 4975 0040 1046     		mov	r0, r2
 4976 0042 9847     		blx	r3
1247:.\AdvantageImpl.c ****         if(pts)
 4977              		.loc 1 1247 0
 4978 0044 3B69     		ldr	r3, [r7, #16]
 4979 0046 002B     		cmp	r3, #0
 4980 0048 4BD0     		beq	.L175
 4981              	.LBB33:
1248:.\AdvantageImpl.c ****         {
1249:.\AdvantageImpl.c ****             uint8 index = 0;
 4982              		.loc 1 1249 0
 4983 004a 0023     		movs	r3, #0
 4984 004c FB73     		strb	r3, [r7, #15]
1250:.\AdvantageImpl.c ****             pts->_transtate = RF_MUX_CREDIT_PRESET_NOTIFICATION_REQUEST;
 4985              		.loc 1 1250 0
 4986 004e 3B69     		ldr	r3, [r7, #16]
 4987 0050 AE22     		movs	r2, #174
 4988 0052 5A70     		strb	r2, [r3, #1]
1251:.\AdvantageImpl.c ****             //Pump ID always comes in position 0x00
1252:.\AdvantageImpl.c ****             pts->_buffer[index++] = pjob->_ppump->_pumpid;
 4989              		.loc 1 1252 0
 4990 0054 FB7B     		ldrb	r3, [r7, #15]	@ zero_extendqisi2
 4991 0056 5A1C     		adds	r2, r3, #1
 4992 0058 FA73     		strb	r2, [r7, #15]
 4993 005a 1946     		mov	r1, r3
 4994 005c 7B69     		ldr	r3, [r7, #20]
 4995 005e DB69     		ldr	r3, [r3, #28]
 4996 0060 1A78     		ldrb	r2, [r3]	@ zero_extendqisi2
 4997 0062 3B69     		ldr	r3, [r7, #16]
 4998 0064 0B44     		add	r3, r3, r1
ARM GAS  C:\Users\RECEPC~1\AppData\Local\Temp\cc7aDVfG.s 			page 111


 4999 0066 9A70     		strb	r2, [r3, #2]
1253:.\AdvantageImpl.c ****             pts->_buffersize = index;
 5000              		.loc 1 1253 0
 5001 0068 FB7B     		ldrb	r3, [r7, #15]	@ zero_extendqisi2
 5002 006a 9AB2     		uxth	r2, r3
 5003 006c 3B69     		ldr	r3, [r7, #16]
 5004 006e A3F80221 		strh	r2, [r3, #258]	@ movhi
1254:.\AdvantageImpl.c ****             
1255:.\AdvantageImpl.c ****             PNEAR_PUMPTRANSACTIONALSTATEPTR ptstemp = pjob->_ppump->PumpTransQueueAllocate(pjob->_p
 5005              		.loc 1 1255 0
 5006 0072 7B69     		ldr	r3, [r7, #20]
 5007 0074 DB69     		ldr	r3, [r3, #28]
 5008 0076 D3F8583B 		ldr	r3, [r3, #2904]
 5009 007a 7A69     		ldr	r2, [r7, #20]
 5010 007c D269     		ldr	r2, [r2, #28]
 5011 007e 1046     		mov	r0, r2
 5012 0080 9847     		blx	r3
 5013 0082 B860     		str	r0, [r7, #8]
1256:.\AdvantageImpl.c ****             if(ptstemp)
 5014              		.loc 1 1256 0
 5015 0084 BB68     		ldr	r3, [r7, #8]
 5016 0086 002B     		cmp	r3, #0
 5017 0088 22D0     		beq	.L177
1257:.\AdvantageImpl.c ****             {
1258:.\AdvantageImpl.c ****                 pjob->_ppump->PumpTransQueueDeallocate(pjob->_ppump,ptstemp);
 5018              		.loc 1 1258 0
 5019 008a 7B69     		ldr	r3, [r7, #20]
 5020 008c DB69     		ldr	r3, [r3, #28]
 5021 008e D3F8543B 		ldr	r3, [r3, #2900]
 5022 0092 7A69     		ldr	r2, [r7, #20]
 5023 0094 D269     		ldr	r2, [r2, #28]
 5024 0096 1046     		mov	r0, r2
 5025 0098 B968     		ldr	r1, [r7, #8]
 5026 009a 9847     		blx	r3
1259:.\AdvantageImpl.c ****                 pjob->_ppump->PumpTransQueueLock(pjob->_ppump);
 5027              		.loc 1 1259 0
 5028 009c 7B69     		ldr	r3, [r7, #20]
 5029 009e DB69     		ldr	r3, [r3, #28]
 5030 00a0 D3F8443B 		ldr	r3, [r3, #2884]
 5031 00a4 7A69     		ldr	r2, [r7, #20]
 5032 00a6 D269     		ldr	r2, [r2, #28]
 5033 00a8 1046     		mov	r0, r2
 5034 00aa 9847     		blx	r3
1260:.\AdvantageImpl.c ****                 pjob->_ppump->PumpTransQueueEnqueue(pjob->_ppump, pts);
 5035              		.loc 1 1260 0
 5036 00ac 7B69     		ldr	r3, [r7, #20]
 5037 00ae DB69     		ldr	r3, [r3, #28]
 5038 00b0 D3F8503B 		ldr	r3, [r3, #2896]
 5039 00b4 7A69     		ldr	r2, [r7, #20]
 5040 00b6 D269     		ldr	r2, [r2, #28]
 5041 00b8 1046     		mov	r0, r2
 5042 00ba 3969     		ldr	r1, [r7, #16]
 5043 00bc 9847     		blx	r3
1261:.\AdvantageImpl.c ****                 pjob->_ppump->PumpTransQueueUnlock(pjob->_ppump);
 5044              		.loc 1 1261 0
 5045 00be 7B69     		ldr	r3, [r7, #20]
 5046 00c0 DB69     		ldr	r3, [r3, #28]
ARM GAS  C:\Users\RECEPC~1\AppData\Local\Temp\cc7aDVfG.s 			page 112


 5047 00c2 D3F8483B 		ldr	r3, [r3, #2888]
 5048 00c6 7A69     		ldr	r2, [r7, #20]
 5049 00c8 D269     		ldr	r2, [r2, #28]
 5050 00ca 1046     		mov	r0, r2
 5051 00cc 9847     		blx	r3
 5052 00ce 08E0     		b	.L175
 5053              	.L177:
1262:.\AdvantageImpl.c ****             }else
1263:.\AdvantageImpl.c ****                 pjob->_ppump->PumpTransQueueDeallocate(pjob->_ppump, pts);
 5054              		.loc 1 1263 0
 5055 00d0 7B69     		ldr	r3, [r7, #20]
 5056 00d2 DB69     		ldr	r3, [r3, #28]
 5057 00d4 D3F8543B 		ldr	r3, [r3, #2900]
 5058 00d8 7A69     		ldr	r2, [r7, #20]
 5059 00da D269     		ldr	r2, [r2, #28]
 5060 00dc 1046     		mov	r0, r2
 5061 00de 3969     		ldr	r1, [r7, #16]
 5062 00e0 9847     		blx	r3
 5063              	.L175:
 5064              	.LBE33:
 5065              	.LBE32:
1264:.\AdvantageImpl.c ****         }
1265:.\AdvantageImpl.c ****     }
1266:.\AdvantageImpl.c **** }
 5066              		.loc 1 1266 0
 5067 00e2 1837     		adds	r7, r7, #24
 5068              		.cfi_def_cfa_offset 8
 5069 00e4 BD46     		mov	sp, r7
 5070              		.cfi_def_cfa_register 13
 5071              		@ sp needed
 5072 00e6 80BD     		pop	{r7, pc}
 5073              		.cfi_endproc
 5074              	.LFE82:
 5075              		.size	PumpCreditPresetNotification, .-PumpCreditPresetNotification
 5076              		.section	.text.PumpFullPresetHose,"ax",%progbits
 5077              		.align	2
 5078              		.global	PumpFullPresetHose
 5079              		.thumb
 5080              		.thumb_func
 5081              		.type	PumpFullPresetHose, %function
 5082              	PumpFullPresetHose:
 5083              	.LFB83:
1267:.\AdvantageImpl.c **** 
1268:.\AdvantageImpl.c **** //@Created By: HIJH
1269:.\AdvantageImpl.c **** //@Septembre de 2016
1270:.\AdvantageImpl.c **** ///////////////////////////////////////////////////////////////////////////////////////////////////
1271:.\AdvantageImpl.c **** //Preset values will be placed within the SinkMessage's buffer. This is a convention that applies t
1272:.\AdvantageImpl.c **** //all of the available transactions. The pump function must deal with this while it is assembling t
1273:.\AdvantageImpl.c **** //For this message the data comes as follows:
1274:.\AdvantageImpl.c **** // - First byte is the preset type (Volume:1 / Money:2 )
1275:.\AdvantageImpl.c **** // - Second byte is the Hose (A:0, B:1, C:2, D:3)
1276:.\AdvantageImpl.c **** // - Block of 8 bytes for the preset value
1277:.\AdvantageImpl.c **** //This block of data (10 bytes) must be moved to another position within the same buffer (even posi
1278:.\AdvantageImpl.c **** void PumpFullPresetHose(void *pparam)
1279:.\AdvantageImpl.c **** {
 5084              		.loc 1 1279 0
 5085              		.cfi_startproc
ARM GAS  C:\Users\RECEPC~1\AppData\Local\Temp\cc7aDVfG.s 			page 113


 5086              		@ args = 0, pretend = 0, frame = 40
 5087              		@ frame_needed = 1, uses_anonymous_args = 0
 5088 0000 90B5     		push	{r4, r7, lr}
 5089              		.cfi_def_cfa_offset 12
 5090              		.cfi_offset 4, -12
 5091              		.cfi_offset 7, -8
 5092              		.cfi_offset 14, -4
 5093 0002 8BB0     		sub	sp, sp, #44
 5094              		.cfi_def_cfa_offset 56
 5095 0004 00AF     		add	r7, sp, #0
 5096              		.cfi_def_cfa_register 7
 5097 0006 7860     		str	r0, [r7, #4]
1280:.\AdvantageImpl.c ****     PNEAR_PUMPPTR ppump = (PNEAR_PUMPPTR)pparam;
 5098              		.loc 1 1280 0
 5099 0008 7B68     		ldr	r3, [r7, #4]
 5100 000a 3B62     		str	r3, [r7, #32]
1281:.\AdvantageImpl.c ****     if(ppump)
 5101              		.loc 1 1281 0
 5102 000c 3B6A     		ldr	r3, [r7, #32]
 5103 000e 002B     		cmp	r3, #0
 5104 0010 00F09D81 		beq	.L178
 5105              	.LBB34:
1282:.\AdvantageImpl.c ****     {
1283:.\AdvantageImpl.c ****         uint8_t index = 0;        
 5106              		.loc 1 1283 0
 5107 0014 0023     		movs	r3, #0
 5108 0016 87F82730 		strb	r3, [r7, #39]
1284:.\AdvantageImpl.c ****         PUARTMESSAGEPTR puartdisp = GetUARTMessageSlot(UART_DISPENSER);
 5109              		.loc 1 1284 0
 5110 001a A220     		movs	r0, #162
 5111 001c FFF7FEFF 		bl	GetUARTMessageSlot
 5112 0020 F861     		str	r0, [r7, #28]
1285:.\AdvantageImpl.c ****         memset(ppump->_rxbuffer, 0x00, _PUMP_RX_BUFFER_SIZE_);
 5113              		.loc 1 1285 0
 5114 0022 3B6A     		ldr	r3, [r7, #32]
 5115 0024 03F5D073 		add	r3, r3, #416
 5116 0028 1846     		mov	r0, r3
 5117 002a 0021     		movs	r1, #0
 5118 002c 4FF4C072 		mov	r2, #384
 5119 0030 FFF7FEFF 		bl	memset
1286:.\AdvantageImpl.c ****         if(puartdisp)
 5120              		.loc 1 1286 0
 5121 0034 FB69     		ldr	r3, [r7, #28]
 5122 0036 002B     		cmp	r3, #0
 5123 0038 00F08981 		beq	.L178
1287:.\AdvantageImpl.c ****         {
1288:.\AdvantageImpl.c **** ///////////////////////////////////////////////////////////////////////////////////////////////////
1289:.\AdvantageImpl.c ****             puartdisp->_messagetx[index++] = SOM;
 5124              		.loc 1 1289 0
 5125 003c 97F82730 		ldrb	r3, [r7, #39]	@ zero_extendqisi2
 5126 0040 5A1C     		adds	r2, r3, #1
 5127 0042 87F82720 		strb	r2, [r7, #39]
 5128 0046 1A46     		mov	r2, r3
 5129 0048 FB69     		ldr	r3, [r7, #28]
 5130 004a 1344     		add	r3, r3, r2
 5131 004c FF22     		movs	r2, #255
 5132 004e 1A71     		strb	r2, [r3, #4]
ARM GAS  C:\Users\RECEPC~1\AppData\Local\Temp\cc7aDVfG.s 			page 114


1290:.\AdvantageImpl.c ****             if(_g_dispenserlayoutinfo._displaydigitsmode == 0x06)
 5133              		.loc 1 1290 0
 5134 0050 C04B     		ldr	r3, .L192
 5135 0052 1B7C     		ldrb	r3, [r3, #16]	@ zero_extendqisi2
 5136 0054 062B     		cmp	r3, #6
 5137 0056 40F0B080 		bne	.L180
 5138              	.LBB35:
1291:.\AdvantageImpl.c ****             {
1292:.\AdvantageImpl.c ****                 puartdisp->_messagetx[index++] = 0xE3;
 5139              		.loc 1 1292 0
 5140 005a 97F82730 		ldrb	r3, [r7, #39]	@ zero_extendqisi2
 5141 005e 5A1C     		adds	r2, r3, #1
 5142 0060 87F82720 		strb	r2, [r7, #39]
 5143 0064 1A46     		mov	r2, r3
 5144 0066 FB69     		ldr	r3, [r7, #28]
 5145 0068 1344     		add	r3, r3, r2
 5146 006a E322     		movs	r2, #227
 5147 006c 1A71     		strb	r2, [r3, #4]
1293:.\AdvantageImpl.c **** 
1294:.\AdvantageImpl.c ****                 ///THIS IS AN APPLIED CONVENTION ===>> 0x0004 INDEX POSITION WITHIN THE PUMP'S BUFF
1295:.\AdvantageImpl.c ****                 ///THESE CODES MUST BE MATCHED OTHERWISE THE LOGIC WILL BREAKUP THE CODE!
1296:.\AdvantageImpl.c ****                 uint8 transtype = 0xF1;//preset type (0xF2 = Money, 0xF1 = Volume)
 5148              		.loc 1 1296 0
 5149 006e F123     		movs	r3, #241
 5150 0070 FB76     		strb	r3, [r7, #27]
1297:.\AdvantageImpl.c ****                 puartdisp->_messagetx[index++] = transtype;//preset type (0xF2 = Money, 0xF1 = Volu
 5151              		.loc 1 1297 0
 5152 0072 97F82730 		ldrb	r3, [r7, #39]	@ zero_extendqisi2
 5153 0076 5A1C     		adds	r2, r3, #1
 5154 0078 87F82720 		strb	r2, [r7, #39]
 5155 007c 1A46     		mov	r2, r3
 5156 007e FB69     		ldr	r3, [r7, #28]
 5157 0080 1344     		add	r3, r3, r2
 5158 0082 FA7E     		ldrb	r2, [r7, #27]
 5159 0084 1A71     		strb	r2, [r3, #4]
1298:.\AdvantageImpl.c ****                 puartdisp->_messagetx[index++] = 0xF4;
 5160              		.loc 1 1298 0
 5161 0086 97F82730 		ldrb	r3, [r7, #39]	@ zero_extendqisi2
 5162 008a 5A1C     		adds	r2, r3, #1
 5163 008c 87F82720 		strb	r2, [r7, #39]
 5164 0090 1A46     		mov	r2, r3
 5165 0092 FB69     		ldr	r3, [r7, #28]
 5166 0094 1344     		add	r3, r3, r2
 5167 0096 F422     		movs	r2, #244
 5168 0098 1A71     		strb	r2, [r3, #4]
1299:.\AdvantageImpl.c ****                 puartdisp->_messagetx[index++] = 0xF6; //Hose Data next
 5169              		.loc 1 1299 0
 5170 009a 97F82730 		ldrb	r3, [r7, #39]	@ zero_extendqisi2
 5171 009e 5A1C     		adds	r2, r3, #1
 5172 00a0 87F82720 		strb	r2, [r7, #39]
 5173 00a4 1A46     		mov	r2, r3
 5174 00a6 FB69     		ldr	r3, [r7, #28]
 5175 00a8 1344     		add	r3, r3, r2
 5176 00aa F622     		movs	r2, #246
 5177 00ac 1A71     		strb	r2, [r3, #4]
1300:.\AdvantageImpl.c ****                 ///THIS IS AN APPLIED CONVENTION ===>> 0x0006 INDEX POSITION WITHIN THE PUMP'S BUFF
1301:.\AdvantageImpl.c ****                 ///THESE CODES MUST BE MATCHED OTHERWISE THE LOGIC WILL BREAKUP THE CODE!
ARM GAS  C:\Users\RECEPC~1\AppData\Local\Temp\cc7aDVfG.s 			page 115


1302:.\AdvantageImpl.c ****                 puartdisp->_messagetx[index++] = (0xE0 | (0x0F & ppump->_trasactionbuffer[GetBuffer
 5178              		.loc 1 1302 0
 5179 00ae 97F82730 		ldrb	r3, [r7, #39]	@ zero_extendqisi2
 5180 00b2 5A1C     		adds	r2, r3, #1
 5181 00b4 87F82720 		strb	r2, [r7, #39]
 5182 00b8 1C46     		mov	r4, r3
 5183 00ba 0720     		movs	r0, #7
 5184 00bc FFF7FEFF 		bl	GetBufferIndexFromDisplayID
 5185 00c0 0346     		mov	r3, r0
 5186 00c2 1A46     		mov	r2, r3
 5187 00c4 3B6A     		ldr	r3, [r7, #32]
 5188 00c6 1344     		add	r3, r3, r2
 5189 00c8 93F82030 		ldrb	r3, [r3, #32]	@ zero_extendqisi2
 5190 00cc 03F00F03 		and	r3, r3, #15
 5191 00d0 DBB2     		uxtb	r3, r3
 5192 00d2 63F01F03 		orn	r3, r3, #31
 5193 00d6 DAB2     		uxtb	r2, r3
 5194 00d8 FB69     		ldr	r3, [r7, #28]
 5195 00da 2344     		add	r3, r3, r4
 5196 00dc 1A71     		strb	r2, [r3, #4]
1303:.\AdvantageImpl.c ****                 
1304:.\AdvantageImpl.c ****                 _g_pumps[(ppump->_pumpid)-1]._currenthose = (0x0F & ppump->_trasactionbuffer[GetBuf
 5197              		.loc 1 1304 0
 5198 00de 3B6A     		ldr	r3, [r7, #32]
 5199 00e0 1B78     		ldrb	r3, [r3]	@ zero_extendqisi2
 5200 00e2 5C1E     		subs	r4, r3, #1
 5201 00e4 0720     		movs	r0, #7
 5202 00e6 FFF7FEFF 		bl	GetBufferIndexFromDisplayID
 5203 00ea 0346     		mov	r3, r0
 5204 00ec 1A46     		mov	r2, r3
 5205 00ee 3B6A     		ldr	r3, [r7, #32]
 5206 00f0 1344     		add	r3, r3, r2
 5207 00f2 93F82030 		ldrb	r3, [r3, #32]	@ zero_extendqisi2
 5208 00f6 03F00F03 		and	r3, r3, #15
 5209 00fa DBB2     		uxtb	r3, r3
 5210 00fc 0133     		adds	r3, r3, #1
 5211 00fe D9B2     		uxtb	r1, r3
 5212 0100 954A     		ldr	r2, .L192+4
 5213 0102 40F6C833 		movw	r3, #3016
 5214 0106 03FB04F3 		mul	r3, r3, r4
 5215 010a 1344     		add	r3, r3, r2
 5216 010c 0A46     		mov	r2, r1
 5217 010e DA70     		strb	r2, [r3, #3]
1305:.\AdvantageImpl.c ****                 
1306:.\AdvantageImpl.c ****                 puartdisp->_messagetx[index++] = 0xF8; //Preset Data next
 5218              		.loc 1 1306 0
 5219 0110 97F82730 		ldrb	r3, [r7, #39]	@ zero_extendqisi2
 5220 0114 5A1C     		adds	r2, r3, #1
 5221 0116 87F82720 		strb	r2, [r7, #39]
 5222 011a 1A46     		mov	r2, r3
 5223 011c FB69     		ldr	r3, [r7, #28]
 5224 011e 1344     		add	r3, r3, r2
 5225 0120 F822     		movs	r2, #248
 5226 0122 1A71     		strb	r2, [r3, #4]
1307:.\AdvantageImpl.c ****                 //Here we copy the remaining 8 bytes for the preset value
1308:.\AdvantageImpl.c ****                 ///THIS IS AN APPLIED CONVENTION ===>> 0x0008 INDEX POSITION WITHIN THE PUMP'S BUFF
1309:.\AdvantageImpl.c ****                 ///THESE CODES MUST BE MATCHED OTHERWISE THE LOGIC WILL BREAKUP THE CODE!
ARM GAS  C:\Users\RECEPC~1\AppData\Local\Temp\cc7aDVfG.s 			page 116


1310:.\AdvantageImpl.c ****                 char8 *ptr = &ppump->_trasactionbuffer[0x0008];
 5227              		.loc 1 1310 0
 5228 0124 3B6A     		ldr	r3, [r7, #32]
 5229 0126 2833     		adds	r3, r3, #40
 5230 0128 7B61     		str	r3, [r7, #20]
1311:.\AdvantageImpl.c ****                 B78AD90CF552D9B30A(_PUMP_MAXIMUM_PRESET_GALLONS_, (LPRAWPTR)ptr);
 5231              		.loc 1 1311 0
 5232 012a 4FF4FA70 		mov	r0, #500
 5233 012e 4FF00001 		mov	r1, #0
 5234 0132 7A69     		ldr	r2, [r7, #20]
 5235 0134 FFF7FEFF 		bl	B78AD90CF552D9B30A
1312:.\AdvantageImpl.c **** 
1313:.\AdvantageImpl.c ****                 PSTRBUFFTOGG(PBYTECAST(&ppump->_trasactionbuffer[0x0008]), 0x08);
 5236              		.loc 1 1313 0
 5237 0138 3B6A     		ldr	r3, [r7, #32]
 5238 013a 2833     		adds	r3, r3, #40
 5239 013c 1846     		mov	r0, r3
 5240 013e 0821     		movs	r1, #8
 5241 0140 FFF7FEFF 		bl	PSTRBUFFTOGG
1314:.\AdvantageImpl.c ****                 if(transtype == 0xF1) //Volume PRESET, then multiply by 1000
 5242              		.loc 1 1314 0
 5243 0144 FB7E     		ldrb	r3, [r7, #27]	@ zero_extendqisi2
 5244 0146 F12B     		cmp	r3, #241
 5245 0148 04D1     		bne	.L181
1315:.\AdvantageImpl.c ****                     CastVolumeValue(ptr, 0x08);
 5246              		.loc 1 1315 0
 5247 014a 7869     		ldr	r0, [r7, #20]
 5248 014c 0821     		movs	r1, #8
 5249 014e FFF7FEFF 		bl	CastVolumeValue
 5250 0152 0BE0     		b	.L182
 5251              	.L181:
1316:.\AdvantageImpl.c ****                 else if(!(_g_dispenserlayoutinfo._moneydecimals == 0x03 && _g_dispenserlayoutinfo._
 5252              		.loc 1 1316 0
 5253 0154 7F4B     		ldr	r3, .L192
 5254 0156 DB79     		ldrb	r3, [r3, #7]	@ zero_extendqisi2
 5255 0158 032B     		cmp	r3, #3
 5256 015a 03D1     		bne	.L183
 5257              		.loc 1 1316 0 is_stmt 0 discriminator 1
 5258 015c 7D4B     		ldr	r3, .L192
 5259 015e 1B7A     		ldrb	r3, [r3, #8]	@ zero_extendqisi2
 5260 0160 022B     		cmp	r3, #2
 5261 0162 03D0     		beq	.L182
 5262              	.L183:
1317:.\AdvantageImpl.c ****                     CastMoneyValue(ptr, 0x08);
 5263              		.loc 1 1317 0 is_stmt 1
 5264 0164 7869     		ldr	r0, [r7, #20]
 5265 0166 0821     		movs	r1, #8
 5266 0168 FFF7FEFF 		bl	CastMoneyValue
 5267              	.L182:
1318:.\AdvantageImpl.c **** 
1319:.\AdvantageImpl.c ****                 FOR(uint8 buffndx = 0, buffndx < 0x05, buffndx++)
 5268              		.loc 1 1319 0
 5269 016c 0023     		movs	r3, #0
 5270 016e 87F82630 		strb	r3, [r7, #38]
 5271 0172 1DE0     		b	.L184
 5272              	.L185:
1320:.\AdvantageImpl.c ****                     puartdisp->_messagetx[index++] = (0xE0 | (ptr[7 - buffndx] & 0x0F)); //Translat
ARM GAS  C:\Users\RECEPC~1\AppData\Local\Temp\cc7aDVfG.s 			page 117


 5273              		.loc 1 1320 0 discriminator 3
 5274 0174 97F82730 		ldrb	r3, [r7, #39]	@ zero_extendqisi2
 5275 0178 5A1C     		adds	r2, r3, #1
 5276 017a 87F82720 		strb	r2, [r7, #39]
 5277 017e 1946     		mov	r1, r3
 5278 0180 97F82630 		ldrb	r3, [r7, #38]	@ zero_extendqisi2
 5279 0184 C3F10703 		rsb	r3, r3, #7
 5280 0188 1A46     		mov	r2, r3
 5281 018a 7B69     		ldr	r3, [r7, #20]
 5282 018c 1344     		add	r3, r3, r2
 5283 018e 1B78     		ldrb	r3, [r3]	@ zero_extendqisi2
 5284 0190 DBB2     		uxtb	r3, r3
 5285 0192 03F00F03 		and	r3, r3, #15
 5286 0196 DBB2     		uxtb	r3, r3
 5287 0198 63F01F03 		orn	r3, r3, #31
 5288 019c DBB2     		uxtb	r3, r3
 5289 019e DAB2     		uxtb	r2, r3
 5290 01a0 FB69     		ldr	r3, [r7, #28]
 5291 01a2 0B44     		add	r3, r3, r1
 5292 01a4 1A71     		strb	r2, [r3, #4]
1319:.\AdvantageImpl.c ****                     puartdisp->_messagetx[index++] = (0xE0 | (ptr[7 - buffndx] & 0x0F)); //Translat
 5293              		.loc 1 1319 0 discriminator 3
 5294 01a6 97F82630 		ldrb	r3, [r7, #38]	@ zero_extendqisi2
 5295 01aa 0133     		adds	r3, r3, #1
 5296 01ac 87F82630 		strb	r3, [r7, #38]
 5297              	.L184:
1319:.\AdvantageImpl.c ****                     puartdisp->_messagetx[index++] = (0xE0 | (ptr[7 - buffndx] & 0x0F)); //Translat
 5298              		.loc 1 1319 0 is_stmt 0 discriminator 1
 5299 01b0 97F82630 		ldrb	r3, [r7, #38]	@ zero_extendqisi2
 5300 01b4 042B     		cmp	r3, #4
 5301 01b6 DDD9     		bls	.L185
 5302              	.LBE35:
 5303 01b8 9AE0     		b	.L186
 5304              	.L180:
1321:.\AdvantageImpl.c ****                     
1322:.\AdvantageImpl.c ****             }
1323:.\AdvantageImpl.c ****             else if(_g_dispenserlayoutinfo._displaydigitsmode == 0x07)
 5305              		.loc 1 1323 0 is_stmt 1
 5306 01ba 664B     		ldr	r3, .L192
 5307 01bc 1B7C     		ldrb	r3, [r3, #16]	@ zero_extendqisi2
 5308 01be 072B     		cmp	r3, #7
 5309 01c0 40F09680 		bne	.L186
 5310              	.LBB36:
1324:.\AdvantageImpl.c ****             {
1325:.\AdvantageImpl.c ****                 puartdisp->_messagetx[index++] = 0xE1;
 5311              		.loc 1 1325 0
 5312 01c4 97F82730 		ldrb	r3, [r7, #39]	@ zero_extendqisi2
 5313 01c8 5A1C     		adds	r2, r3, #1
 5314 01ca 87F82720 		strb	r2, [r7, #39]
 5315 01ce 1A46     		mov	r2, r3
 5316 01d0 FB69     		ldr	r3, [r7, #28]
 5317 01d2 1344     		add	r3, r3, r2
 5318 01d4 E122     		movs	r2, #225
 5319 01d6 1A71     		strb	r2, [r3, #4]
1326:.\AdvantageImpl.c **** 
1327:.\AdvantageImpl.c ****                 ///THIS IS AN APPLIED CONVENTION ===>> 0x0004 INDEX POSITION WITHIN THE PUMP'S BUFF
1328:.\AdvantageImpl.c ****                 ///THESE CODES MUST BE MATCHED OTHERWISE THE LOGIC WILL BREAKUP THE CODE!
ARM GAS  C:\Users\RECEPC~1\AppData\Local\Temp\cc7aDVfG.s 			page 118


1329:.\AdvantageImpl.c ****                 uint8 transtype = 0xF1;//preset type (0xF2 = Money, 0xF1 = Volume)
 5320              		.loc 1 1329 0
 5321 01d8 F123     		movs	r3, #241
 5322 01da FB74     		strb	r3, [r7, #19]
1330:.\AdvantageImpl.c ****                 puartdisp->_messagetx[index++] = transtype;//preset type (0xF2 = Money, 0xF1 = Volu
 5323              		.loc 1 1330 0
 5324 01dc 97F82730 		ldrb	r3, [r7, #39]	@ zero_extendqisi2
 5325 01e0 5A1C     		adds	r2, r3, #1
 5326 01e2 87F82720 		strb	r2, [r7, #39]
 5327 01e6 1A46     		mov	r2, r3
 5328 01e8 FB69     		ldr	r3, [r7, #28]
 5329 01ea 1344     		add	r3, r3, r2
 5330 01ec FA7C     		ldrb	r2, [r7, #19]
 5331 01ee 1A71     		strb	r2, [r3, #4]
1331:.\AdvantageImpl.c ****                 puartdisp->_messagetx[index++] = 0xF4;
 5332              		.loc 1 1331 0
 5333 01f0 97F82730 		ldrb	r3, [r7, #39]	@ zero_extendqisi2
 5334 01f4 5A1C     		adds	r2, r3, #1
 5335 01f6 87F82720 		strb	r2, [r7, #39]
 5336 01fa 1A46     		mov	r2, r3
 5337 01fc FB69     		ldr	r3, [r7, #28]
 5338 01fe 1344     		add	r3, r3, r2
 5339 0200 F422     		movs	r2, #244
 5340 0202 1A71     		strb	r2, [r3, #4]
1332:.\AdvantageImpl.c ****                 puartdisp->_messagetx[index++] = 0xF6; //Hose Data next
 5341              		.loc 1 1332 0
 5342 0204 97F82730 		ldrb	r3, [r7, #39]	@ zero_extendqisi2
 5343 0208 5A1C     		adds	r2, r3, #1
 5344 020a 87F82720 		strb	r2, [r7, #39]
 5345 020e 1A46     		mov	r2, r3
 5346 0210 FB69     		ldr	r3, [r7, #28]
 5347 0212 1344     		add	r3, r3, r2
 5348 0214 F622     		movs	r2, #246
 5349 0216 1A71     		strb	r2, [r3, #4]
1333:.\AdvantageImpl.c ****                 ///THIS IS AN APPLIED CONVENTION ===>> 0x0006 INDEX POSITION WITHIN THE PUMP'S BUFF
1334:.\AdvantageImpl.c ****                 ///THESE CODES MUST BE MATCHED OTHERWISE THE LOGIC WILL BREAKUP THE CODE!
1335:.\AdvantageImpl.c ****                 puartdisp->_messagetx[index++] = (0xE0 | (0x0F & ppump->_trasactionbuffer[GetBuffer
 5350              		.loc 1 1335 0
 5351 0218 97F82730 		ldrb	r3, [r7, #39]	@ zero_extendqisi2
 5352 021c 5A1C     		adds	r2, r3, #1
 5353 021e 87F82720 		strb	r2, [r7, #39]
 5354 0222 1C46     		mov	r4, r3
 5355 0224 0720     		movs	r0, #7
 5356 0226 FFF7FEFF 		bl	GetBufferIndexFromDisplayID
 5357 022a 0346     		mov	r3, r0
 5358 022c 1A46     		mov	r2, r3
 5359 022e 3B6A     		ldr	r3, [r7, #32]
 5360 0230 1344     		add	r3, r3, r2
 5361 0232 93F82030 		ldrb	r3, [r3, #32]	@ zero_extendqisi2
 5362 0236 03F00F03 		and	r3, r3, #15
 5363 023a DBB2     		uxtb	r3, r3
 5364 023c 63F01F03 		orn	r3, r3, #31
 5365 0240 DAB2     		uxtb	r2, r3
 5366 0242 FB69     		ldr	r3, [r7, #28]
 5367 0244 2344     		add	r3, r3, r4
 5368 0246 1A71     		strb	r2, [r3, #4]
1336:.\AdvantageImpl.c ****                 
ARM GAS  C:\Users\RECEPC~1\AppData\Local\Temp\cc7aDVfG.s 			page 119


1337:.\AdvantageImpl.c ****                 puartdisp->_messagetx[index++] = 0xF8; //Preset Data next
 5369              		.loc 1 1337 0
 5370 0248 97F82730 		ldrb	r3, [r7, #39]	@ zero_extendqisi2
 5371 024c 5A1C     		adds	r2, r3, #1
 5372 024e 87F82720 		strb	r2, [r7, #39]
 5373 0252 1A46     		mov	r2, r3
 5374 0254 FB69     		ldr	r3, [r7, #28]
 5375 0256 1344     		add	r3, r3, r2
 5376 0258 F822     		movs	r2, #248
 5377 025a 1A71     		strb	r2, [r3, #4]
1338:.\AdvantageImpl.c ****                 //Here we copy the remaining 8 bytes for the preset value
1339:.\AdvantageImpl.c ****                 ///THIS IS AN APPLIED CONVENTION ===>> 0x0008 INDEX POSITION WITHIN THE PUMP'S BUFF
1340:.\AdvantageImpl.c ****                 ///THESE CODES MUST BE MATCHED OTHERWISE THE LOGIC WILL BREAKUP THE CODE!
1341:.\AdvantageImpl.c ****                 char8 *ptr = &ppump->_trasactionbuffer[0x0008];
 5378              		.loc 1 1341 0
 5379 025c 3B6A     		ldr	r3, [r7, #32]
 5380 025e 2833     		adds	r3, r3, #40
 5381 0260 FB60     		str	r3, [r7, #12]
1342:.\AdvantageImpl.c ****                 B78AD90CF552D9B30A(_PUMP_MAXIMUM_PRESET_GALLONS_, (LPRAWPTR)ptr);
 5382              		.loc 1 1342 0
 5383 0262 4FF4FA70 		mov	r0, #500
 5384 0266 4FF00001 		mov	r1, #0
 5385 026a FA68     		ldr	r2, [r7, #12]
 5386 026c FFF7FEFF 		bl	B78AD90CF552D9B30A
1343:.\AdvantageImpl.c **** 
1344:.\AdvantageImpl.c ****                 PSTRBUFFTOGG(PBYTECAST(&ppump->_trasactionbuffer[0x0008]), 0x08);
 5387              		.loc 1 1344 0
 5388 0270 3B6A     		ldr	r3, [r7, #32]
 5389 0272 2833     		adds	r3, r3, #40
 5390 0274 1846     		mov	r0, r3
 5391 0276 0821     		movs	r1, #8
 5392 0278 FFF7FEFF 		bl	PSTRBUFFTOGG
1345:.\AdvantageImpl.c ****                 if(transtype == 0xF1) //Volume PRESET, then multiply by 1000
 5393              		.loc 1 1345 0
 5394 027c FB7C     		ldrb	r3, [r7, #19]	@ zero_extendqisi2
 5395 027e F12B     		cmp	r3, #241
 5396 0280 04D1     		bne	.L187
1346:.\AdvantageImpl.c ****                     CastVolumeValue(ptr, 0x08);
 5397              		.loc 1 1346 0
 5398 0282 F868     		ldr	r0, [r7, #12]
 5399 0284 0821     		movs	r1, #8
 5400 0286 FFF7FEFF 		bl	CastVolumeValue
 5401 028a 0BE0     		b	.L188
 5402              	.L187:
1347:.\AdvantageImpl.c ****                 else if(!(_g_dispenserlayoutinfo._moneydecimals == 0x03 && _g_dispenserlayoutinfo._
 5403              		.loc 1 1347 0
 5404 028c 314B     		ldr	r3, .L192
 5405 028e DB79     		ldrb	r3, [r3, #7]	@ zero_extendqisi2
 5406 0290 032B     		cmp	r3, #3
 5407 0292 03D1     		bne	.L189
 5408              		.loc 1 1347 0 is_stmt 0 discriminator 1
 5409 0294 2F4B     		ldr	r3, .L192
 5410 0296 1B7A     		ldrb	r3, [r3, #8]	@ zero_extendqisi2
 5411 0298 022B     		cmp	r3, #2
 5412 029a 03D0     		beq	.L188
 5413              	.L189:
1348:.\AdvantageImpl.c ****                     CastMoneyValue(ptr, 0x08);
ARM GAS  C:\Users\RECEPC~1\AppData\Local\Temp\cc7aDVfG.s 			page 120


 5414              		.loc 1 1348 0 is_stmt 1
 5415 029c F868     		ldr	r0, [r7, #12]
 5416 029e 0821     		movs	r1, #8
 5417 02a0 FFF7FEFF 		bl	CastMoneyValue
 5418              	.L188:
1349:.\AdvantageImpl.c **** 
1350:.\AdvantageImpl.c ****                 FOR(uint8 buffndx = 0, buffndx < 0x08, buffndx++)
 5419              		.loc 1 1350 0
 5420 02a4 0023     		movs	r3, #0
 5421 02a6 87F82530 		strb	r3, [r7, #37]
 5422 02aa 1DE0     		b	.L190
 5423              	.L191:
1351:.\AdvantageImpl.c ****                     puartdisp->_messagetx[index++] = (0xE0 | (ptr[7 - buffndx] & 0x0F)); //Translat
 5424              		.loc 1 1351 0 discriminator 3
 5425 02ac 97F82730 		ldrb	r3, [r7, #39]	@ zero_extendqisi2
 5426 02b0 5A1C     		adds	r2, r3, #1
 5427 02b2 87F82720 		strb	r2, [r7, #39]
 5428 02b6 1946     		mov	r1, r3
 5429 02b8 97F82530 		ldrb	r3, [r7, #37]	@ zero_extendqisi2
 5430 02bc C3F10703 		rsb	r3, r3, #7
 5431 02c0 1A46     		mov	r2, r3
 5432 02c2 FB68     		ldr	r3, [r7, #12]
 5433 02c4 1344     		add	r3, r3, r2
 5434 02c6 1B78     		ldrb	r3, [r3]	@ zero_extendqisi2
 5435 02c8 DBB2     		uxtb	r3, r3
 5436 02ca 03F00F03 		and	r3, r3, #15
 5437 02ce DBB2     		uxtb	r3, r3
 5438 02d0 63F01F03 		orn	r3, r3, #31
 5439 02d4 DBB2     		uxtb	r3, r3
 5440 02d6 DAB2     		uxtb	r2, r3
 5441 02d8 FB69     		ldr	r3, [r7, #28]
 5442 02da 0B44     		add	r3, r3, r1
 5443 02dc 1A71     		strb	r2, [r3, #4]
1350:.\AdvantageImpl.c ****                     puartdisp->_messagetx[index++] = (0xE0 | (ptr[7 - buffndx] & 0x0F)); //Translat
 5444              		.loc 1 1350 0 discriminator 3
 5445 02de 97F82530 		ldrb	r3, [r7, #37]	@ zero_extendqisi2
 5446 02e2 0133     		adds	r3, r3, #1
 5447 02e4 87F82530 		strb	r3, [r7, #37]
 5448              	.L190:
1350:.\AdvantageImpl.c ****                     puartdisp->_messagetx[index++] = (0xE0 | (ptr[7 - buffndx] & 0x0F)); //Translat
 5449              		.loc 1 1350 0 is_stmt 0 discriminator 1
 5450 02e8 97F82530 		ldrb	r3, [r7, #37]	@ zero_extendqisi2
 5451 02ec 072B     		cmp	r3, #7
 5452 02ee DDD9     		bls	.L191
 5453              	.L186:
 5454              	.LBE36:
1352:.\AdvantageImpl.c ****                     
1353:.\AdvantageImpl.c ****             }
1354:.\AdvantageImpl.c ****             ppump->_presetdone = true;
 5455              		.loc 1 1354 0 is_stmt 1
 5456 02f0 3B6A     		ldr	r3, [r7, #32]
 5457 02f2 0122     		movs	r2, #1
 5458 02f4 1A72     		strb	r2, [r3, #8]
1355:.\AdvantageImpl.c **** 
1356:.\AdvantageImpl.c ****             puartdisp->_messagetx[index++] = LRCn; //LRC next
 5459              		.loc 1 1356 0
 5460 02f6 97F82730 		ldrb	r3, [r7, #39]	@ zero_extendqisi2
ARM GAS  C:\Users\RECEPC~1\AppData\Local\Temp\cc7aDVfG.s 			page 121


 5461 02fa 5A1C     		adds	r2, r3, #1
 5462 02fc 87F82720 		strb	r2, [r7, #39]
 5463 0300 1A46     		mov	r2, r3
 5464 0302 FB69     		ldr	r3, [r7, #28]
 5465 0304 1344     		add	r3, r3, r2
 5466 0306 FB22     		movs	r2, #251
 5467 0308 1A71     		strb	r2, [r3, #4]
1357:.\AdvantageImpl.c ****             puartdisp->_messagetx[index++] = GetLRC(puartdisp->_messagetx);
 5468              		.loc 1 1357 0
 5469 030a 97F82730 		ldrb	r3, [r7, #39]	@ zero_extendqisi2
 5470 030e 5A1C     		adds	r2, r3, #1
 5471 0310 87F82720 		strb	r2, [r7, #39]
 5472 0314 1C46     		mov	r4, r3
 5473 0316 FB69     		ldr	r3, [r7, #28]
 5474 0318 0433     		adds	r3, r3, #4
 5475 031a 1846     		mov	r0, r3
 5476 031c FFF7FEFF 		bl	GetLRC
 5477 0320 0346     		mov	r3, r0
 5478 0322 1A46     		mov	r2, r3
 5479 0324 FB69     		ldr	r3, [r7, #28]
 5480 0326 2344     		add	r3, r3, r4
 5481 0328 1A71     		strb	r2, [r3, #4]
1358:.\AdvantageImpl.c ****             puartdisp->_messagetx[index++] = EOM;
 5482              		.loc 1 1358 0
 5483 032a 97F82730 		ldrb	r3, [r7, #39]	@ zero_extendqisi2
 5484 032e 5A1C     		adds	r2, r3, #1
 5485 0330 87F82720 		strb	r2, [r7, #39]
 5486 0334 1A46     		mov	r2, r3
 5487 0336 FB69     		ldr	r3, [r7, #28]
 5488 0338 1344     		add	r3, r3, r2
 5489 033a F022     		movs	r2, #240
 5490 033c 1A71     		strb	r2, [r3, #4]
1359:.\AdvantageImpl.c **** ///////////////////////////////////////////////////////////////////////////////////////////////////
1360:.\AdvantageImpl.c ****             
1361:.\AdvantageImpl.c ****             puartdisp->_messagelength = index;
 5491              		.loc 1 1361 0
 5492 033e 97F82730 		ldrb	r3, [r7, #39]	@ zero_extendqisi2
 5493 0342 9AB2     		uxth	r2, r3
 5494 0344 FB69     		ldr	r3, [r7, #28]
 5495 0346 5A80     		strh	r2, [r3, #2]	@ movhi
1362:.\AdvantageImpl.c ****             puartdisp->_messagestate = PENDING;
 5496              		.loc 1 1362 0
 5497 0348 FB69     		ldr	r3, [r7, #28]
 5498 034a C222     		movs	r2, #194
 5499 034c 1A70     		strb	r2, [r3]
 5500              	.L178:
 5501              	.LBE34:
1363:.\AdvantageImpl.c ****         }
1364:.\AdvantageImpl.c ****     }
1365:.\AdvantageImpl.c ****     
1366:.\AdvantageImpl.c **** }
 5502              		.loc 1 1366 0
 5503 034e 2C37     		adds	r7, r7, #44
 5504              		.cfi_def_cfa_offset 12
 5505 0350 BD46     		mov	sp, r7
 5506              		.cfi_def_cfa_register 13
 5507              		@ sp needed
ARM GAS  C:\Users\RECEPC~1\AppData\Local\Temp\cc7aDVfG.s 			page 122


 5508 0352 90BD     		pop	{r4, r7, pc}
 5509              	.L193:
 5510              		.align	2
 5511              	.L192:
 5512 0354 00000000 		.word	_g_dispenserlayoutinfo
 5513 0358 00000000 		.word	_g_pumps
 5514              		.cfi_endproc
 5515              	.LFE83:
 5516              		.size	PumpFullPresetHose, .-PumpFullPresetHose
 5517              		.section	.text.PumpFullPresetNoHose,"ax",%progbits
 5518              		.align	2
 5519              		.global	PumpFullPresetNoHose
 5520              		.thumb
 5521              		.thumb_func
 5522              		.type	PumpFullPresetNoHose, %function
 5523              	PumpFullPresetNoHose:
 5524              	.LFB84:
1367:.\AdvantageImpl.c **** 
1368:.\AdvantageImpl.c **** //@Created By: HIJH
1369:.\AdvantageImpl.c **** //@Septembre de 2016
1370:.\AdvantageImpl.c **** ///////////////////////////////////////////////////////////////////////////////////////////////////
1371:.\AdvantageImpl.c **** //Preset values will be placed within the SinkMessage's buffer. This is a convention that applies t
1372:.\AdvantageImpl.c **** //all of the available transactions. The pump function must deal with this while it is assembling t
1373:.\AdvantageImpl.c **** //For this message the data comes as follows:
1374:.\AdvantageImpl.c **** // - First byte is the preset type (Volume:1 / Money:2 )
1375:.\AdvantageImpl.c **** // - Second byte is the Hose (A:0, B:1, C:2, D:3)
1376:.\AdvantageImpl.c **** // - Block of 8 bytes for the preset value
1377:.\AdvantageImpl.c **** //This block of data (10 bytes) must be moved to another position within the same buffer (even posi
1378:.\AdvantageImpl.c **** void PumpFullPresetNoHose(void *pparam)
1379:.\AdvantageImpl.c **** {
 5525              		.loc 1 1379 0
 5526              		.cfi_startproc
 5527              		@ args = 0, pretend = 0, frame = 40
 5528              		@ frame_needed = 1, uses_anonymous_args = 0
 5529 0000 90B5     		push	{r4, r7, lr}
 5530              		.cfi_def_cfa_offset 12
 5531              		.cfi_offset 4, -12
 5532              		.cfi_offset 7, -8
 5533              		.cfi_offset 14, -4
 5534 0002 8BB0     		sub	sp, sp, #44
 5535              		.cfi_def_cfa_offset 56
 5536 0004 00AF     		add	r7, sp, #0
 5537              		.cfi_def_cfa_register 7
 5538 0006 7860     		str	r0, [r7, #4]
1380:.\AdvantageImpl.c ****     PNEAR_PUMPPTR ppump = (PNEAR_PUMPPTR)pparam;
 5539              		.loc 1 1380 0
 5540 0008 7B68     		ldr	r3, [r7, #4]
 5541 000a 3B62     		str	r3, [r7, #32]
1381:.\AdvantageImpl.c ****     if(ppump)
 5542              		.loc 1 1381 0
 5543 000c 3B6A     		ldr	r3, [r7, #32]
 5544 000e 002B     		cmp	r3, #0
 5545 0010 00F02A81 		beq	.L194
 5546              	.LBB37:
1382:.\AdvantageImpl.c ****     {
1383:.\AdvantageImpl.c ****         uint8_t index = 0;        
 5547              		.loc 1 1383 0
ARM GAS  C:\Users\RECEPC~1\AppData\Local\Temp\cc7aDVfG.s 			page 123


 5548 0014 0023     		movs	r3, #0
 5549 0016 87F82730 		strb	r3, [r7, #39]
1384:.\AdvantageImpl.c ****         PUARTMESSAGEPTR puartdisp = GetUARTMessageSlot(UART_DISPENSER);
 5550              		.loc 1 1384 0
 5551 001a A220     		movs	r0, #162
 5552 001c FFF7FEFF 		bl	GetUARTMessageSlot
 5553 0020 F861     		str	r0, [r7, #28]
1385:.\AdvantageImpl.c ****         memset(ppump->_rxbuffer, 0x00, _PUMP_RX_BUFFER_SIZE_);
 5554              		.loc 1 1385 0
 5555 0022 3B6A     		ldr	r3, [r7, #32]
 5556 0024 03F5D073 		add	r3, r3, #416
 5557 0028 1846     		mov	r0, r3
 5558 002a 0021     		movs	r1, #0
 5559 002c 4FF4C072 		mov	r2, #384
 5560 0030 FFF7FEFF 		bl	memset
1386:.\AdvantageImpl.c ****         if(puartdisp)
 5561              		.loc 1 1386 0
 5562 0034 FB69     		ldr	r3, [r7, #28]
 5563 0036 002B     		cmp	r3, #0
 5564 0038 00F01681 		beq	.L194
1387:.\AdvantageImpl.c ****         {
1388:.\AdvantageImpl.c ****             //This is required for the "Temination Handler" that will post the preset to the remote
1389:.\AdvantageImpl.c ****             ppump->_trasactionbuffer[0x0004] = 0x0F;
 5565              		.loc 1 1389 0
 5566 003c 3B6A     		ldr	r3, [r7, #32]
 5567 003e 0F22     		movs	r2, #15
 5568 0040 83F82420 		strb	r2, [r3, #36]
1390:.\AdvantageImpl.c **** ///////////////////////////////////////////////////////////////////////////////////////////////////
1391:.\AdvantageImpl.c ****             puartdisp->_messagetx[index++] = SOM;
 5569              		.loc 1 1391 0
 5570 0044 97F82730 		ldrb	r3, [r7, #39]	@ zero_extendqisi2
 5571 0048 5A1C     		adds	r2, r3, #1
 5572 004a 87F82720 		strb	r2, [r7, #39]
 5573 004e 1A46     		mov	r2, r3
 5574 0050 FB69     		ldr	r3, [r7, #28]
 5575 0052 1344     		add	r3, r3, r2
 5576 0054 FF22     		movs	r2, #255
 5577 0056 1A71     		strb	r2, [r3, #4]
1392:.\AdvantageImpl.c ****             if(_g_dispenserlayoutinfo._displaydigitsmode == 0x06)
 5578              		.loc 1 1392 0
 5579 0058 854B     		ldr	r3, .L208
 5580 005a 1B7C     		ldrb	r3, [r3, #16]	@ zero_extendqisi2
 5581 005c 062B     		cmp	r3, #6
 5582 005e 6AD1     		bne	.L196
 5583              	.LBB38:
1393:.\AdvantageImpl.c ****             {
1394:.\AdvantageImpl.c ****                 puartdisp->_messagetx[index++] = 0xE5;
 5584              		.loc 1 1394 0
 5585 0060 97F82730 		ldrb	r3, [r7, #39]	@ zero_extendqisi2
 5586 0064 5A1C     		adds	r2, r3, #1
 5587 0066 87F82720 		strb	r2, [r7, #39]
 5588 006a 1A46     		mov	r2, r3
 5589 006c FB69     		ldr	r3, [r7, #28]
 5590 006e 1344     		add	r3, r3, r2
 5591 0070 E522     		movs	r2, #229
 5592 0072 1A71     		strb	r2, [r3, #4]
1395:.\AdvantageImpl.c ****                 
ARM GAS  C:\Users\RECEPC~1\AppData\Local\Temp\cc7aDVfG.s 			page 124


1396:.\AdvantageImpl.c ****                 ///THIS IS AN APPLIED CONVENTION ===>> 0x0004 INDEX POSITION WITHIN THE PUMP'S BUFF
1397:.\AdvantageImpl.c ****                 ///THESE CODES MUST BE MATCHED OTHERWISE THE LOGIC WILL BREAKUP THE CODE!
1398:.\AdvantageImpl.c ****                 uint8 transtype = 0xF1;//preset type (0xF2 = Money, 0xF1 = Volume)
 5593              		.loc 1 1398 0
 5594 0074 F123     		movs	r3, #241
 5595 0076 FB76     		strb	r3, [r7, #27]
1399:.\AdvantageImpl.c ****                 puartdisp->_messagetx[index++] = transtype;//preset type (0xF2 = Money, 0xF1 = Volu
 5596              		.loc 1 1399 0
 5597 0078 97F82730 		ldrb	r3, [r7, #39]	@ zero_extendqisi2
 5598 007c 5A1C     		adds	r2, r3, #1
 5599 007e 87F82720 		strb	r2, [r7, #39]
 5600 0082 1A46     		mov	r2, r3
 5601 0084 FB69     		ldr	r3, [r7, #28]
 5602 0086 1344     		add	r3, r3, r2
 5603 0088 FA7E     		ldrb	r2, [r7, #27]
 5604 008a 1A71     		strb	r2, [r3, #4]
1400:.\AdvantageImpl.c ****                 
1401:.\AdvantageImpl.c ****                 puartdisp->_messagetx[index++] = 0xF8; //Preset Data next
 5605              		.loc 1 1401 0
 5606 008c 97F82730 		ldrb	r3, [r7, #39]	@ zero_extendqisi2
 5607 0090 5A1C     		adds	r2, r3, #1
 5608 0092 87F82720 		strb	r2, [r7, #39]
 5609 0096 1A46     		mov	r2, r3
 5610 0098 FB69     		ldr	r3, [r7, #28]
 5611 009a 1344     		add	r3, r3, r2
 5612 009c F822     		movs	r2, #248
 5613 009e 1A71     		strb	r2, [r3, #4]
1402:.\AdvantageImpl.c ****                 //Here we copy the remaining 8 bytes for the preset value
1403:.\AdvantageImpl.c ****                 ///THIS IS AN APPLIED CONVENTION ===>> 0x0008 INDEX POSITION WITHIN THE PUMP'S BUFF
1404:.\AdvantageImpl.c ****                 ///THESE CODES MUST BE MATCHED OTHERWISE THE LOGIC WILL BREAKUP THE CODE!
1405:.\AdvantageImpl.c ****                 char8 *ptr = &ppump->_trasactionbuffer[0x0008];
 5614              		.loc 1 1405 0
 5615 00a0 3B6A     		ldr	r3, [r7, #32]
 5616 00a2 2833     		adds	r3, r3, #40
 5617 00a4 7B61     		str	r3, [r7, #20]
1406:.\AdvantageImpl.c ****                 //B78AD90CF552D9B30A(_PUMP_MAXIMUM_PRESET_6_DIGITS_, (LPRAWPTR)ptr);
1407:.\AdvantageImpl.c ****                 B78AD90CF552D9B30A(10 * _PUMP_MAXIMUM_PRESET_GALLONS_, (LPRAWPTR)ptr);
 5618              		.loc 1 1407 0
 5619 00a6 41F28830 		movw	r0, #5000
 5620 00aa 4FF00001 		mov	r1, #0
 5621 00ae 7A69     		ldr	r2, [r7, #20]
 5622 00b0 FFF7FEFF 		bl	B78AD90CF552D9B30A
1408:.\AdvantageImpl.c **** 
1409:.\AdvantageImpl.c ****                 PSTRBUFFTOGG(PBYTECAST(&ppump->_trasactionbuffer[0x0008]), 0x08);
 5623              		.loc 1 1409 0
 5624 00b4 3B6A     		ldr	r3, [r7, #32]
 5625 00b6 2833     		adds	r3, r3, #40
 5626 00b8 1846     		mov	r0, r3
 5627 00ba 0821     		movs	r1, #8
 5628 00bc FFF7FEFF 		bl	PSTRBUFFTOGG
1410:.\AdvantageImpl.c ****                 if(transtype == 0xF1) //Volume PRESET, then multiply by 1000
 5629              		.loc 1 1410 0
 5630 00c0 FB7E     		ldrb	r3, [r7, #27]	@ zero_extendqisi2
 5631 00c2 F12B     		cmp	r3, #241
 5632 00c4 04D1     		bne	.L197
1411:.\AdvantageImpl.c ****                     CastVolumeValue(ptr, 0x08);
 5633              		.loc 1 1411 0
ARM GAS  C:\Users\RECEPC~1\AppData\Local\Temp\cc7aDVfG.s 			page 125


 5634 00c6 7869     		ldr	r0, [r7, #20]
 5635 00c8 0821     		movs	r1, #8
 5636 00ca FFF7FEFF 		bl	CastVolumeValue
 5637 00ce 0BE0     		b	.L198
 5638              	.L197:
1412:.\AdvantageImpl.c ****                 else if(!(_g_dispenserlayoutinfo._moneydecimals == 0x03 && _g_dispenserlayoutinfo._
 5639              		.loc 1 1412 0
 5640 00d0 674B     		ldr	r3, .L208
 5641 00d2 DB79     		ldrb	r3, [r3, #7]	@ zero_extendqisi2
 5642 00d4 032B     		cmp	r3, #3
 5643 00d6 03D1     		bne	.L199
 5644              		.loc 1 1412 0 is_stmt 0 discriminator 1
 5645 00d8 654B     		ldr	r3, .L208
 5646 00da 1B7A     		ldrb	r3, [r3, #8]	@ zero_extendqisi2
 5647 00dc 022B     		cmp	r3, #2
 5648 00de 03D0     		beq	.L198
 5649              	.L199:
1413:.\AdvantageImpl.c ****                     CastMoneyValue(ptr, 0x08);
 5650              		.loc 1 1413 0 is_stmt 1
 5651 00e0 7869     		ldr	r0, [r7, #20]
 5652 00e2 0821     		movs	r1, #8
 5653 00e4 FFF7FEFF 		bl	CastMoneyValue
 5654              	.L198:
1414:.\AdvantageImpl.c **** 
1415:.\AdvantageImpl.c ****                 FOR(uint8 buffndx = 0, buffndx < 0x05, buffndx++)
 5655              		.loc 1 1415 0
 5656 00e8 0023     		movs	r3, #0
 5657 00ea 87F82630 		strb	r3, [r7, #38]
 5658 00ee 1DE0     		b	.L200
 5659              	.L201:
1416:.\AdvantageImpl.c ****                     puartdisp->_messagetx[index++] = (0xE0 | (ptr[7 - buffndx] & 0x0F)); //Translat
 5660              		.loc 1 1416 0 discriminator 3
 5661 00f0 97F82730 		ldrb	r3, [r7, #39]	@ zero_extendqisi2
 5662 00f4 5A1C     		adds	r2, r3, #1
 5663 00f6 87F82720 		strb	r2, [r7, #39]
 5664 00fa 1946     		mov	r1, r3
 5665 00fc 97F82630 		ldrb	r3, [r7, #38]	@ zero_extendqisi2
 5666 0100 C3F10703 		rsb	r3, r3, #7
 5667 0104 1A46     		mov	r2, r3
 5668 0106 7B69     		ldr	r3, [r7, #20]
 5669 0108 1344     		add	r3, r3, r2
 5670 010a 1B78     		ldrb	r3, [r3]	@ zero_extendqisi2
 5671 010c DBB2     		uxtb	r3, r3
 5672 010e 03F00F03 		and	r3, r3, #15
 5673 0112 DBB2     		uxtb	r3, r3
 5674 0114 63F01F03 		orn	r3, r3, #31
 5675 0118 DBB2     		uxtb	r3, r3
 5676 011a DAB2     		uxtb	r2, r3
 5677 011c FB69     		ldr	r3, [r7, #28]
 5678 011e 0B44     		add	r3, r3, r1
 5679 0120 1A71     		strb	r2, [r3, #4]
1415:.\AdvantageImpl.c ****                     puartdisp->_messagetx[index++] = (0xE0 | (ptr[7 - buffndx] & 0x0F)); //Translat
 5680              		.loc 1 1415 0 discriminator 3
 5681 0122 97F82630 		ldrb	r3, [r7, #38]	@ zero_extendqisi2
 5682 0126 0133     		adds	r3, r3, #1
 5683 0128 87F82630 		strb	r3, [r7, #38]
 5684              	.L200:
ARM GAS  C:\Users\RECEPC~1\AppData\Local\Temp\cc7aDVfG.s 			page 126


1415:.\AdvantageImpl.c ****                     puartdisp->_messagetx[index++] = (0xE0 | (ptr[7 - buffndx] & 0x0F)); //Translat
 5685              		.loc 1 1415 0 is_stmt 0 discriminator 1
 5686 012c 97F82630 		ldrb	r3, [r7, #38]	@ zero_extendqisi2
 5687 0130 042B     		cmp	r3, #4
 5688 0132 DDD9     		bls	.L201
 5689              	.LBE38:
 5690 0134 69E0     		b	.L202
 5691              	.L196:
 5692              	.LBB39:
1417:.\AdvantageImpl.c ****                     
1418:.\AdvantageImpl.c ****             }
1419:.\AdvantageImpl.c ****             else
1420:.\AdvantageImpl.c ****             {
1421:.\AdvantageImpl.c ****                 puartdisp->_messagetx[index++] = 0xE3;
 5693              		.loc 1 1421 0 is_stmt 1
 5694 0136 97F82730 		ldrb	r3, [r7, #39]	@ zero_extendqisi2
 5695 013a 5A1C     		adds	r2, r3, #1
 5696 013c 87F82720 		strb	r2, [r7, #39]
 5697 0140 1A46     		mov	r2, r3
 5698 0142 FB69     		ldr	r3, [r7, #28]
 5699 0144 1344     		add	r3, r3, r2
 5700 0146 E322     		movs	r2, #227
 5701 0148 1A71     		strb	r2, [r3, #4]
1422:.\AdvantageImpl.c ****                 
1423:.\AdvantageImpl.c ****                 ///THIS IS AN APPLIED CONVENTION ===>> 0x0004 INDEX POSITION WITHIN THE PUMP'S BUFF
1424:.\AdvantageImpl.c ****                 ///THESE CODES MUST BE MATCHED OTHERWISE THE LOGIC WILL BREAKUP THE CODE!
1425:.\AdvantageImpl.c ****                 uint8 transtype = 0xF1;//preset type (0xF2 = Money, 0xF1 = Volume)
 5702              		.loc 1 1425 0
 5703 014a F123     		movs	r3, #241
 5704 014c FB74     		strb	r3, [r7, #19]
1426:.\AdvantageImpl.c ****                 puartdisp->_messagetx[index++] = transtype;//preset type (0xF2 = Money, 0xF1 = Volu
 5705              		.loc 1 1426 0
 5706 014e 97F82730 		ldrb	r3, [r7, #39]	@ zero_extendqisi2
 5707 0152 5A1C     		adds	r2, r3, #1
 5708 0154 87F82720 		strb	r2, [r7, #39]
 5709 0158 1A46     		mov	r2, r3
 5710 015a FB69     		ldr	r3, [r7, #28]
 5711 015c 1344     		add	r3, r3, r2
 5712 015e FA7C     		ldrb	r2, [r7, #19]
 5713 0160 1A71     		strb	r2, [r3, #4]
1427:.\AdvantageImpl.c ****                 
1428:.\AdvantageImpl.c ****                 puartdisp->_messagetx[index++] = 0xF8; //Preset Data next
 5714              		.loc 1 1428 0
 5715 0162 97F82730 		ldrb	r3, [r7, #39]	@ zero_extendqisi2
 5716 0166 5A1C     		adds	r2, r3, #1
 5717 0168 87F82720 		strb	r2, [r7, #39]
 5718 016c 1A46     		mov	r2, r3
 5719 016e FB69     		ldr	r3, [r7, #28]
 5720 0170 1344     		add	r3, r3, r2
 5721 0172 F822     		movs	r2, #248
 5722 0174 1A71     		strb	r2, [r3, #4]
1429:.\AdvantageImpl.c ****                 //Here we copy the remaining 8 bytes for the preset value
1430:.\AdvantageImpl.c ****                 ///THIS IS AN APPLIED CONVENTION ===>> 0x0008 INDEX POSITION WITHIN THE PUMP'S BUFF
1431:.\AdvantageImpl.c ****                 ///THESE CODES MUST BE MATCHED OTHERWISE THE LOGIC WILL BREAKUP THE CODE!
1432:.\AdvantageImpl.c ****                 char8 *ptr = &ppump->_trasactionbuffer[0x0008];
 5723              		.loc 1 1432 0
 5724 0176 3B6A     		ldr	r3, [r7, #32]
ARM GAS  C:\Users\RECEPC~1\AppData\Local\Temp\cc7aDVfG.s 			page 127


 5725 0178 2833     		adds	r3, r3, #40
 5726 017a FB60     		str	r3, [r7, #12]
1433:.\AdvantageImpl.c ****                 //B78AD90CF552D9B30A(_PUMP_MAXIMUM_PRESET_6_DIGITS_, (LPRAWPTR)ptr);
1434:.\AdvantageImpl.c ****                 B78AD90CF552D9B30A(_PUMP_MAXIMUM_PRESET_GALLONS_, (LPRAWPTR)ptr);
 5727              		.loc 1 1434 0
 5728 017c 4FF4FA70 		mov	r0, #500
 5729 0180 4FF00001 		mov	r1, #0
 5730 0184 FA68     		ldr	r2, [r7, #12]
 5731 0186 FFF7FEFF 		bl	B78AD90CF552D9B30A
1435:.\AdvantageImpl.c **** 
1436:.\AdvantageImpl.c ****                 PSTRBUFFTOGG(PBYTECAST(&ppump->_trasactionbuffer[0x0008]), 0x08);
 5732              		.loc 1 1436 0
 5733 018a 3B6A     		ldr	r3, [r7, #32]
 5734 018c 2833     		adds	r3, r3, #40
 5735 018e 1846     		mov	r0, r3
 5736 0190 0821     		movs	r1, #8
 5737 0192 FFF7FEFF 		bl	PSTRBUFFTOGG
1437:.\AdvantageImpl.c ****                 if(transtype == 0xF1) //Volume PRESET, then multiply by 1000
 5738              		.loc 1 1437 0
 5739 0196 FB7C     		ldrb	r3, [r7, #19]	@ zero_extendqisi2
 5740 0198 F12B     		cmp	r3, #241
 5741 019a 04D1     		bne	.L203
1438:.\AdvantageImpl.c ****                     CastVolumeValue(ptr, 0x08);
 5742              		.loc 1 1438 0
 5743 019c F868     		ldr	r0, [r7, #12]
 5744 019e 0821     		movs	r1, #8
 5745 01a0 FFF7FEFF 		bl	CastVolumeValue
 5746 01a4 0BE0     		b	.L204
 5747              	.L203:
1439:.\AdvantageImpl.c ****                 else if(!(_g_dispenserlayoutinfo._moneydecimals == 0x03 && _g_dispenserlayoutinfo._
 5748              		.loc 1 1439 0
 5749 01a6 324B     		ldr	r3, .L208
 5750 01a8 DB79     		ldrb	r3, [r3, #7]	@ zero_extendqisi2
 5751 01aa 032B     		cmp	r3, #3
 5752 01ac 03D1     		bne	.L205
 5753              		.loc 1 1439 0 is_stmt 0 discriminator 1
 5754 01ae 304B     		ldr	r3, .L208
 5755 01b0 1B7A     		ldrb	r3, [r3, #8]	@ zero_extendqisi2
 5756 01b2 022B     		cmp	r3, #2
 5757 01b4 03D0     		beq	.L204
 5758              	.L205:
1440:.\AdvantageImpl.c ****                     CastMoneyValue(ptr, 0x08);
 5759              		.loc 1 1440 0 is_stmt 1
 5760 01b6 F868     		ldr	r0, [r7, #12]
 5761 01b8 0821     		movs	r1, #8
 5762 01ba FFF7FEFF 		bl	CastMoneyValue
 5763              	.L204:
1441:.\AdvantageImpl.c **** 
1442:.\AdvantageImpl.c ****                 FOR(uint8 buffndx = 0, buffndx < 0x08, buffndx++)
 5764              		.loc 1 1442 0
 5765 01be 0023     		movs	r3, #0
 5766 01c0 87F82530 		strb	r3, [r7, #37]
 5767 01c4 1DE0     		b	.L206
 5768              	.L207:
1443:.\AdvantageImpl.c ****                     puartdisp->_messagetx[index++] = (0xE0 | (ptr[7 - buffndx] & 0x0F)); //Translat
 5769              		.loc 1 1443 0 discriminator 3
 5770 01c6 97F82730 		ldrb	r3, [r7, #39]	@ zero_extendqisi2
ARM GAS  C:\Users\RECEPC~1\AppData\Local\Temp\cc7aDVfG.s 			page 128


 5771 01ca 5A1C     		adds	r2, r3, #1
 5772 01cc 87F82720 		strb	r2, [r7, #39]
 5773 01d0 1946     		mov	r1, r3
 5774 01d2 97F82530 		ldrb	r3, [r7, #37]	@ zero_extendqisi2
 5775 01d6 C3F10703 		rsb	r3, r3, #7
 5776 01da 1A46     		mov	r2, r3
 5777 01dc FB68     		ldr	r3, [r7, #12]
 5778 01de 1344     		add	r3, r3, r2
 5779 01e0 1B78     		ldrb	r3, [r3]	@ zero_extendqisi2
 5780 01e2 DBB2     		uxtb	r3, r3
 5781 01e4 03F00F03 		and	r3, r3, #15
 5782 01e8 DBB2     		uxtb	r3, r3
 5783 01ea 63F01F03 		orn	r3, r3, #31
 5784 01ee DBB2     		uxtb	r3, r3
 5785 01f0 DAB2     		uxtb	r2, r3
 5786 01f2 FB69     		ldr	r3, [r7, #28]
 5787 01f4 0B44     		add	r3, r3, r1
 5788 01f6 1A71     		strb	r2, [r3, #4]
1442:.\AdvantageImpl.c ****                     puartdisp->_messagetx[index++] = (0xE0 | (ptr[7 - buffndx] & 0x0F)); //Translat
 5789              		.loc 1 1442 0 discriminator 3
 5790 01f8 97F82530 		ldrb	r3, [r7, #37]	@ zero_extendqisi2
 5791 01fc 0133     		adds	r3, r3, #1
 5792 01fe 87F82530 		strb	r3, [r7, #37]
 5793              	.L206:
1442:.\AdvantageImpl.c ****                     puartdisp->_messagetx[index++] = (0xE0 | (ptr[7 - buffndx] & 0x0F)); //Translat
 5794              		.loc 1 1442 0 is_stmt 0 discriminator 1
 5795 0202 97F82530 		ldrb	r3, [r7, #37]	@ zero_extendqisi2
 5796 0206 072B     		cmp	r3, #7
 5797 0208 DDD9     		bls	.L207
 5798              	.L202:
 5799              	.LBE39:
1444:.\AdvantageImpl.c ****             }
1445:.\AdvantageImpl.c ****             ppump->_presetdone = true;
 5800              		.loc 1 1445 0 is_stmt 1
 5801 020a 3B6A     		ldr	r3, [r7, #32]
 5802 020c 0122     		movs	r2, #1
 5803 020e 1A72     		strb	r2, [r3, #8]
1446:.\AdvantageImpl.c **** 
1447:.\AdvantageImpl.c ****             puartdisp->_messagetx[index++] = 0xFB; //LRC next
 5804              		.loc 1 1447 0
 5805 0210 97F82730 		ldrb	r3, [r7, #39]	@ zero_extendqisi2
 5806 0214 5A1C     		adds	r2, r3, #1
 5807 0216 87F82720 		strb	r2, [r7, #39]
 5808 021a 1A46     		mov	r2, r3
 5809 021c FB69     		ldr	r3, [r7, #28]
 5810 021e 1344     		add	r3, r3, r2
 5811 0220 FB22     		movs	r2, #251
 5812 0222 1A71     		strb	r2, [r3, #4]
1448:.\AdvantageImpl.c ****             puartdisp->_messagetx[index++] = GetLRC(puartdisp->_messagetx);
 5813              		.loc 1 1448 0
 5814 0224 97F82730 		ldrb	r3, [r7, #39]	@ zero_extendqisi2
 5815 0228 5A1C     		adds	r2, r3, #1
 5816 022a 87F82720 		strb	r2, [r7, #39]
 5817 022e 1C46     		mov	r4, r3
 5818 0230 FB69     		ldr	r3, [r7, #28]
 5819 0232 0433     		adds	r3, r3, #4
 5820 0234 1846     		mov	r0, r3
ARM GAS  C:\Users\RECEPC~1\AppData\Local\Temp\cc7aDVfG.s 			page 129


 5821 0236 FFF7FEFF 		bl	GetLRC
 5822 023a 0346     		mov	r3, r0
 5823 023c 1A46     		mov	r2, r3
 5824 023e FB69     		ldr	r3, [r7, #28]
 5825 0240 2344     		add	r3, r3, r4
 5826 0242 1A71     		strb	r2, [r3, #4]
1449:.\AdvantageImpl.c ****             puartdisp->_messagetx[index++] = EOM;
 5827              		.loc 1 1449 0
 5828 0244 97F82730 		ldrb	r3, [r7, #39]	@ zero_extendqisi2
 5829 0248 5A1C     		adds	r2, r3, #1
 5830 024a 87F82720 		strb	r2, [r7, #39]
 5831 024e 1A46     		mov	r2, r3
 5832 0250 FB69     		ldr	r3, [r7, #28]
 5833 0252 1344     		add	r3, r3, r2
 5834 0254 F022     		movs	r2, #240
 5835 0256 1A71     		strb	r2, [r3, #4]
1450:.\AdvantageImpl.c **** ///////////////////////////////////////////////////////////////////////////////////////////////////
1451:.\AdvantageImpl.c ****             
1452:.\AdvantageImpl.c ****             puartdisp->_messagelength = index;
 5836              		.loc 1 1452 0
 5837 0258 97F82730 		ldrb	r3, [r7, #39]	@ zero_extendqisi2
 5838 025c 9AB2     		uxth	r2, r3
 5839 025e FB69     		ldr	r3, [r7, #28]
 5840 0260 5A80     		strh	r2, [r3, #2]	@ movhi
1453:.\AdvantageImpl.c ****             puartdisp->_messagestate = PENDING;
 5841              		.loc 1 1453 0
 5842 0262 FB69     		ldr	r3, [r7, #28]
 5843 0264 C222     		movs	r2, #194
 5844 0266 1A70     		strb	r2, [r3]
 5845              	.L194:
 5846              	.LBE37:
1454:.\AdvantageImpl.c ****         }
1455:.\AdvantageImpl.c ****     }
1456:.\AdvantageImpl.c ****     
1457:.\AdvantageImpl.c **** }
 5847              		.loc 1 1457 0
 5848 0268 2C37     		adds	r7, r7, #44
 5849              		.cfi_def_cfa_offset 12
 5850 026a BD46     		mov	sp, r7
 5851              		.cfi_def_cfa_register 13
 5852              		@ sp needed
 5853 026c 90BD     		pop	{r4, r7, pc}
 5854              	.L209:
 5855 026e 00BF     		.align	2
 5856              	.L208:
 5857 0270 00000000 		.word	_g_dispenserlayoutinfo
 5858              		.cfi_endproc
 5859              	.LFE84:
 5860              		.size	PumpFullPresetNoHose, .-PumpFullPresetNoHose
 5861              		.section	.text.PumpPpuChange,"ax",%progbits
 5862              		.align	2
 5863              		.global	PumpPpuChange
 5864              		.thumb
 5865              		.thumb_func
 5866              		.type	PumpPpuChange, %function
 5867              	PumpPpuChange:
 5868              	.LFB85:
ARM GAS  C:\Users\RECEPC~1\AppData\Local\Temp\cc7aDVfG.s 			page 130


1458:.\AdvantageImpl.c **** 
1459:.\AdvantageImpl.c **** //@Created By: HIJH
1460:.\AdvantageImpl.c **** //@Septembre de 2016
1461:.\AdvantageImpl.c **** ///////////////////////////////////////////////////////////////////////////////////////////////////
1462:.\AdvantageImpl.c **** //PPU value will be placed within the SinkMessage's buffer. This is a convention that applies to 
1463:.\AdvantageImpl.c **** //all of the available transactions. The pump function must deal with this while it is assembling t
1464:.\AdvantageImpl.c **** //For this message the data comes as follows:
1465:.\AdvantageImpl.c **** // - First byte is the Hose (A:0, B:1, C:2, D:3)
1466:.\AdvantageImpl.c **** // - Block of 6 bytes for the PPU value
1467:.\AdvantageImpl.c **** //This block of data (6 bytes) must be moved to another position within the same buffer (even posit
1468:.\AdvantageImpl.c **** void PumpPpuChange(void *pparam)
1469:.\AdvantageImpl.c **** {
 5869              		.loc 1 1469 0
 5870              		.cfi_startproc
 5871              		@ args = 0, pretend = 0, frame = 32
 5872              		@ frame_needed = 1, uses_anonymous_args = 0
 5873 0000 B0B5     		push	{r4, r5, r7, lr}
 5874              		.cfi_def_cfa_offset 16
 5875              		.cfi_offset 4, -16
 5876              		.cfi_offset 5, -12
 5877              		.cfi_offset 7, -8
 5878              		.cfi_offset 14, -4
 5879 0002 88B0     		sub	sp, sp, #32
 5880              		.cfi_def_cfa_offset 48
 5881 0004 00AF     		add	r7, sp, #0
 5882              		.cfi_def_cfa_register 7
 5883 0006 7860     		str	r0, [r7, #4]
1470:.\AdvantageImpl.c ****     PNEAR_PUMPPTR ppump = (PNEAR_PUMPPTR)pparam;
 5884              		.loc 1 1470 0
 5885 0008 7B68     		ldr	r3, [r7, #4]
 5886 000a BB61     		str	r3, [r7, #24]
1471:.\AdvantageImpl.c ****     if(ppump)
 5887              		.loc 1 1471 0
 5888 000c BB69     		ldr	r3, [r7, #24]
 5889 000e 002B     		cmp	r3, #0
 5890 0010 00F05281 		beq	.L210
 5891              	.LBB40:
1472:.\AdvantageImpl.c ****     {
1473:.\AdvantageImpl.c ****         uint8_t index = 0;  
 5892              		.loc 1 1473 0
 5893 0014 0023     		movs	r3, #0
 5894 0016 FB77     		strb	r3, [r7, #31]
1474:.\AdvantageImpl.c ****         memset(ppump->_rxbuffer, 0x00, _PUMP_RX_BUFFER_SIZE_);
 5895              		.loc 1 1474 0
 5896 0018 BB69     		ldr	r3, [r7, #24]
 5897 001a 03F5D073 		add	r3, r3, #416
 5898 001e 1846     		mov	r0, r3
 5899 0020 0021     		movs	r1, #0
 5900 0022 4FF4C072 		mov	r2, #384
 5901 0026 FFF7FEFF 		bl	memset
1475:.\AdvantageImpl.c ****         PUARTMESSAGEPTR puartdisp = GetUARTMessageSlot(UART_DISPENSER);
 5902              		.loc 1 1475 0
 5903 002a A220     		movs	r0, #162
 5904 002c FFF7FEFF 		bl	GetUARTMessageSlot
 5905 0030 7861     		str	r0, [r7, #20]
1476:.\AdvantageImpl.c ****         if(puartdisp)
 5906              		.loc 1 1476 0
ARM GAS  C:\Users\RECEPC~1\AppData\Local\Temp\cc7aDVfG.s 			page 131


 5907 0032 7B69     		ldr	r3, [r7, #20]
 5908 0034 002B     		cmp	r3, #0
 5909 0036 00F03F81 		beq	.L210
 5910              	.LBB41:
1477:.\AdvantageImpl.c ****         {
1478:.\AdvantageImpl.c **** ///////////////////////////////////////////////////////////////////////////////////////////////////
1479:.\AdvantageImpl.c ****             puartdisp->_messagetx[index++] = SOM;
 5911              		.loc 1 1479 0
 5912 003a FB7F     		ldrb	r3, [r7, #31]	@ zero_extendqisi2
 5913 003c 5A1C     		adds	r2, r3, #1
 5914 003e FA77     		strb	r2, [r7, #31]
 5915 0040 1A46     		mov	r2, r3
 5916 0042 7B69     		ldr	r3, [r7, #20]
 5917 0044 1344     		add	r3, r3, r2
 5918 0046 FF22     		movs	r2, #255
 5919 0048 1A71     		strb	r2, [r3, #4]
1480:.\AdvantageImpl.c ****             if(_g_dispenserlayoutinfo._displaydigitsmode == 0x06)
 5920              		.loc 1 1480 0
 5921 004a 9D4B     		ldr	r3, .L226
 5922 004c 1B7C     		ldrb	r3, [r3, #16]	@ zero_extendqisi2
 5923 004e 062B     		cmp	r3, #6
 5924 0050 08D1     		bne	.L212
1481:.\AdvantageImpl.c ****                 puartdisp->_messagetx[index++] = 0xE5;//Standard Price Data
 5925              		.loc 1 1481 0
 5926 0052 FB7F     		ldrb	r3, [r7, #31]	@ zero_extendqisi2
 5927 0054 5A1C     		adds	r2, r3, #1
 5928 0056 FA77     		strb	r2, [r7, #31]
 5929 0058 1A46     		mov	r2, r3
 5930 005a 7B69     		ldr	r3, [r7, #20]
 5931 005c 1344     		add	r3, r3, r2
 5932 005e E522     		movs	r2, #229
 5933 0060 1A71     		strb	r2, [r3, #4]
 5934 0062 07E0     		b	.L213
 5935              	.L212:
1482:.\AdvantageImpl.c ****             else
1483:.\AdvantageImpl.c ****                 puartdisp->_messagetx[index++] = 0xE3;//Long Price Data - Extended Two-Wire Mode
 5936              		.loc 1 1483 0
 5937 0064 FB7F     		ldrb	r3, [r7, #31]	@ zero_extendqisi2
 5938 0066 5A1C     		adds	r2, r3, #1
 5939 0068 FA77     		strb	r2, [r7, #31]
 5940 006a 1A46     		mov	r2, r3
 5941 006c 7B69     		ldr	r3, [r7, #20]
 5942 006e 1344     		add	r3, r3, r2
 5943 0070 E322     		movs	r2, #227
 5944 0072 1A71     		strb	r2, [r3, #4]
 5945              	.L213:
1484:.\AdvantageImpl.c ****                 
1485:.\AdvantageImpl.c ****             puartdisp->_messagetx[index++] = 0xF4;
 5946              		.loc 1 1485 0
 5947 0074 FB7F     		ldrb	r3, [r7, #31]	@ zero_extendqisi2
 5948 0076 5A1C     		adds	r2, r3, #1
 5949 0078 FA77     		strb	r2, [r7, #31]
 5950 007a 1A46     		mov	r2, r3
 5951 007c 7B69     		ldr	r3, [r7, #20]
 5952 007e 1344     		add	r3, r3, r2
 5953 0080 F422     		movs	r2, #244
 5954 0082 1A71     		strb	r2, [r3, #4]
ARM GAS  C:\Users\RECEPC~1\AppData\Local\Temp\cc7aDVfG.s 			page 132


1486:.\AdvantageImpl.c ****             puartdisp->_messagetx[index++] = 0xF6; //Hose Data next
 5955              		.loc 1 1486 0
 5956 0084 FB7F     		ldrb	r3, [r7, #31]	@ zero_extendqisi2
 5957 0086 5A1C     		adds	r2, r3, #1
 5958 0088 FA77     		strb	r2, [r7, #31]
 5959 008a 1A46     		mov	r2, r3
 5960 008c 7B69     		ldr	r3, [r7, #20]
 5961 008e 1344     		add	r3, r3, r2
 5962 0090 F622     		movs	r2, #246
 5963 0092 1A71     		strb	r2, [r3, #4]
1487:.\AdvantageImpl.c ****             ///THIS IS AN APPLIED CONVENTION ===>> 0x0006 INDEX POSITION WITHIN THE PUMP'S BUFFER P
1488:.\AdvantageImpl.c ****             ///THESE CODES MUST BE MATCHED OTHERWISE THE LOGIC WILL BREAKUP THE CODE!
1489:.\AdvantageImpl.c ****             puartdisp->_messagetx[index++] = (0xE0 | (0x0F & ppump->_currenthose));
 5964              		.loc 1 1489 0
 5965 0094 FB7F     		ldrb	r3, [r7, #31]	@ zero_extendqisi2
 5966 0096 5A1C     		adds	r2, r3, #1
 5967 0098 FA77     		strb	r2, [r7, #31]
 5968 009a 1946     		mov	r1, r3
 5969 009c BB69     		ldr	r3, [r7, #24]
 5970 009e DB78     		ldrb	r3, [r3, #3]
 5971 00a0 DBB2     		uxtb	r3, r3
 5972 00a2 03F00F03 		and	r3, r3, #15
 5973 00a6 DBB2     		uxtb	r3, r3
 5974 00a8 63F01F03 		orn	r3, r3, #31
 5975 00ac DAB2     		uxtb	r2, r3
 5976 00ae 7B69     		ldr	r3, [r7, #20]
 5977 00b0 0B44     		add	r3, r3, r1
 5978 00b2 1A71     		strb	r2, [r3, #4]
1490:.\AdvantageImpl.c ****             
1491:.\AdvantageImpl.c ****             I2CBusLock();
 5979              		.loc 1 1491 0
 5980 00b4 FFF7FEFF 		bl	I2CBusLock
1492:.\AdvantageImpl.c ****             ClearEepromBuffer();
 5981              		.loc 1 1492 0
 5982 00b8 FFF7FEFF 		bl	ClearEepromBuffer
1493:.\AdvantageImpl.c ****             uint16 eeprompage = DispenserGetEepromPPUPageFromPumpID(ppump->_pumpid);
 5983              		.loc 1 1493 0
 5984 00bc BB69     		ldr	r3, [r7, #24]
 5985 00be 1B78     		ldrb	r3, [r3]	@ zero_extendqisi2
 5986 00c0 1846     		mov	r0, r3
 5987 00c2 FFF7FEFF 		bl	DispenserGetEepromPPUPageFromPumpID
 5988 00c6 0346     		mov	r3, r0
 5989 00c8 7B82     		strh	r3, [r7, #18]	@ movhi
1494:.\AdvantageImpl.c ****             LoadEepromPage(eeprompage);
 5990              		.loc 1 1494 0
 5991 00ca 7B8A     		ldrh	r3, [r7, #18]
 5992 00cc 1846     		mov	r0, r3
 5993 00ce FFF7FEFF 		bl	LoadEepromPage
1495:.\AdvantageImpl.c ****             switch(ppump->_currenthose)
 5994              		.loc 1 1495 0
 5995 00d2 BB69     		ldr	r3, [r7, #24]
 5996 00d4 DB78     		ldrb	r3, [r3, #3]
 5997 00d6 DBB2     		uxtb	r3, r3
 5998 00d8 032B     		cmp	r3, #3
 5999 00da 61D8     		bhi	.L214
 6000 00dc 01A2     		adr	r2, .L216
 6001 00de 52F823F0 		ldr	pc, [r2, r3, lsl #2]
ARM GAS  C:\Users\RECEPC~1\AppData\Local\Temp\cc7aDVfG.s 			page 133


 6002 00e2 00BF     		.p2align 2
 6003              	.L216:
 6004 00e4 F5000000 		.word	.L215+1
 6005 00e8 1D010000 		.word	.L217+1
 6006 00ec 49010000 		.word	.L218+1
 6007 00f0 75010000 		.word	.L219+1
 6008              		.p2align 1
 6009              	.L215:
1496:.\AdvantageImpl.c ****             {
1497:.\AdvantageImpl.c ****                 case 0x00:
1498:.\AdvantageImpl.c ****                 //Six bytes only since the PPU is constrained to this length
1499:.\AdvantageImpl.c ****                 memcpy(PBYTECAST(&ppump->_trasactionbuffer[GetBufferIndexFromDisplayID(DISPLAY_PREC
 6010              		.loc 1 1499 0
 6011 00f4 6520     		movs	r0, #101
 6012 00f6 FFF7FEFF 		bl	GetBufferIndexFromDisplayID
 6013 00fa 0346     		mov	r3, r0
 6014 00fc 2033     		adds	r3, r3, #32
 6015 00fe BA69     		ldr	r2, [r7, #24]
 6016 0100 D418     		adds	r4, r2, r3
 6017 0102 FFF7FEFF 		bl	GetEepromBuffer
 6018 0106 0546     		mov	r5, r0
 6019 0108 6520     		movs	r0, #101
 6020 010a FFF7FEFF 		bl	GetBufferLengthFromDisplayID
 6021 010e 0346     		mov	r3, r0
 6022 0110 2046     		mov	r0, r4
 6023 0112 2946     		mov	r1, r5
 6024 0114 1A46     		mov	r2, r3
 6025 0116 FFF7FEFF 		bl	memcpy
1500:.\AdvantageImpl.c ****                 break;
 6026              		.loc 1 1500 0
 6027 011a 41E0     		b	.L214
 6028              	.L217:
1501:.\AdvantageImpl.c ****                 case 0x01:
1502:.\AdvantageImpl.c ****                 //Six bytes only since the PPU is constrained to this length
1503:.\AdvantageImpl.c ****                 memcpy(PBYTECAST(&ppump->_trasactionbuffer[GetBufferIndexFromDisplayID(DISPLAY_PREC
 6029              		.loc 1 1503 0
 6030 011c 6520     		movs	r0, #101
 6031 011e FFF7FEFF 		bl	GetBufferIndexFromDisplayID
 6032 0122 0346     		mov	r3, r0
 6033 0124 2033     		adds	r3, r3, #32
 6034 0126 BA69     		ldr	r2, [r7, #24]
 6035 0128 D518     		adds	r5, r2, r3
 6036 012a FFF7FEFF 		bl	GetEepromBuffer
 6037 012e 0346     		mov	r3, r0
 6038 0130 03F11004 		add	r4, r3, #16
 6039 0134 6520     		movs	r0, #101
 6040 0136 FFF7FEFF 		bl	GetBufferLengthFromDisplayID
 6041 013a 0346     		mov	r3, r0
 6042 013c 2846     		mov	r0, r5
 6043 013e 2146     		mov	r1, r4
 6044 0140 1A46     		mov	r2, r3
 6045 0142 FFF7FEFF 		bl	memcpy
1504:.\AdvantageImpl.c ****                 break;
 6046              		.loc 1 1504 0
 6047 0146 2BE0     		b	.L214
 6048              	.L218:
1505:.\AdvantageImpl.c ****                 case 0x02:
ARM GAS  C:\Users\RECEPC~1\AppData\Local\Temp\cc7aDVfG.s 			page 134


1506:.\AdvantageImpl.c ****                 //Six bytes only since the PPU is constrained to this length
1507:.\AdvantageImpl.c ****                 memcpy(PBYTECAST(&ppump->_trasactionbuffer[GetBufferIndexFromDisplayID(DISPLAY_PREC
 6049              		.loc 1 1507 0
 6050 0148 6520     		movs	r0, #101
 6051 014a FFF7FEFF 		bl	GetBufferIndexFromDisplayID
 6052 014e 0346     		mov	r3, r0
 6053 0150 2033     		adds	r3, r3, #32
 6054 0152 BA69     		ldr	r2, [r7, #24]
 6055 0154 D518     		adds	r5, r2, r3
 6056 0156 FFF7FEFF 		bl	GetEepromBuffer
 6057 015a 0346     		mov	r3, r0
 6058 015c 03F12004 		add	r4, r3, #32
 6059 0160 6520     		movs	r0, #101
 6060 0162 FFF7FEFF 		bl	GetBufferLengthFromDisplayID
 6061 0166 0346     		mov	r3, r0
 6062 0168 2846     		mov	r0, r5
 6063 016a 2146     		mov	r1, r4
 6064 016c 1A46     		mov	r2, r3
 6065 016e FFF7FEFF 		bl	memcpy
1508:.\AdvantageImpl.c ****                 break;
 6066              		.loc 1 1508 0
 6067 0172 15E0     		b	.L214
 6068              	.L219:
1509:.\AdvantageImpl.c ****                 case 0x03:
1510:.\AdvantageImpl.c ****                 //Six bytes only since the PPU is constrained to this length
1511:.\AdvantageImpl.c ****                 memcpy(PBYTECAST(&ppump->_trasactionbuffer[GetBufferIndexFromDisplayID(DISPLAY_PREC
 6069              		.loc 1 1511 0
 6070 0174 6520     		movs	r0, #101
 6071 0176 FFF7FEFF 		bl	GetBufferIndexFromDisplayID
 6072 017a 0346     		mov	r3, r0
 6073 017c 2033     		adds	r3, r3, #32
 6074 017e BA69     		ldr	r2, [r7, #24]
 6075 0180 D518     		adds	r5, r2, r3
 6076 0182 FFF7FEFF 		bl	GetEepromBuffer
 6077 0186 0346     		mov	r3, r0
 6078 0188 03F13004 		add	r4, r3, #48
 6079 018c 6520     		movs	r0, #101
 6080 018e FFF7FEFF 		bl	GetBufferLengthFromDisplayID
 6081 0192 0346     		mov	r3, r0
 6082 0194 2846     		mov	r0, r5
 6083 0196 2146     		mov	r1, r4
 6084 0198 1A46     		mov	r2, r3
 6085 019a FFF7FEFF 		bl	memcpy
1512:.\AdvantageImpl.c ****                 break;
 6086              		.loc 1 1512 0
 6087 019e 00BF     		nop
 6088              	.L214:
1513:.\AdvantageImpl.c ****             }
1514:.\AdvantageImpl.c ****             I2CBusUnlock();
 6089              		.loc 1 1514 0
 6090 01a0 FFF7FEFF 		bl	I2CBusUnlock
1515:.\AdvantageImpl.c **** 
1516:.\AdvantageImpl.c ****             puartdisp->_messagetx[index++] = 0xF7; //PPU Data next            
 6091              		.loc 1 1516 0
 6092 01a4 FB7F     		ldrb	r3, [r7, #31]	@ zero_extendqisi2
 6093 01a6 5A1C     		adds	r2, r3, #1
 6094 01a8 FA77     		strb	r2, [r7, #31]
ARM GAS  C:\Users\RECEPC~1\AppData\Local\Temp\cc7aDVfG.s 			page 135


 6095 01aa 1A46     		mov	r2, r3
 6096 01ac 7B69     		ldr	r3, [r7, #20]
 6097 01ae 1344     		add	r3, r3, r2
 6098 01b0 F722     		movs	r2, #247
 6099 01b2 1A71     		strb	r2, [r3, #4]
1517:.\AdvantageImpl.c ****             //Here we copy the remaining 6 bytes for the preset value
1518:.\AdvantageImpl.c ****             ///THIS IS AN APPLIED CONVENTION ===>> 0x0008 INDEX POSITION WITHIN THE PUMP'S BUFFER P
1519:.\AdvantageImpl.c ****             ///THESE CODES MUST BE MATCHED OTHERWISE THE LOGIC WILL BREAKUP THE CODE!
1520:.\AdvantageImpl.c ****             uint8 bufferlength = GetBufferLengthFromDisplayID(DISPLAY_PRECIO_POR_UNIDAD);
 6100              		.loc 1 1520 0
 6101 01b4 6520     		movs	r0, #101
 6102 01b6 FFF7FEFF 		bl	GetBufferLengthFromDisplayID
 6103 01ba 0346     		mov	r3, r0
 6104 01bc 7B74     		strb	r3, [r7, #17]
1521:.\AdvantageImpl.c ****             char8 *ptr = &ppump->_trasactionbuffer[GetBufferIndexFromDisplayID(DISPLAY_PRECIO_POR_U
 6105              		.loc 1 1521 0
 6106 01be 6520     		movs	r0, #101
 6107 01c0 FFF7FEFF 		bl	GetBufferIndexFromDisplayID
 6108 01c4 0346     		mov	r3, r0
 6109 01c6 2033     		adds	r3, r3, #32
 6110 01c8 BA69     		ldr	r2, [r7, #24]
 6111 01ca 1344     		add	r3, r3, r2
 6112 01cc FB60     		str	r3, [r7, #12]
1522:.\AdvantageImpl.c ****             
1523:.\AdvantageImpl.c ****             if(_g_dispenserlayoutinfo._displaydigitsmode == 0x06)
 6113              		.loc 1 1523 0
 6114 01ce 3C4B     		ldr	r3, .L226
 6115 01d0 1B7C     		ldrb	r3, [r3, #16]	@ zero_extendqisi2
 6116 01d2 062B     		cmp	r3, #6
 6117 01d4 1AD1     		bne	.L220
 6118              	.LBB42:
1524:.\AdvantageImpl.c ****             {
1525:.\AdvantageImpl.c ****                 FOR(uint8 buffndx = 0, buffndx < 4, buffndx++)//Standard Price Data
 6119              		.loc 1 1525 0
 6120 01d6 0023     		movs	r3, #0
 6121 01d8 BB77     		strb	r3, [r7, #30]
 6122 01da 13E0     		b	.L221
 6123              	.L222:
1526:.\AdvantageImpl.c ****                     puartdisp->_messagetx[index++] = (0xE0 | (0x0F & ptr[buffndx])); //Translate fr
 6124              		.loc 1 1526 0 discriminator 3
 6125 01dc FB7F     		ldrb	r3, [r7, #31]	@ zero_extendqisi2
 6126 01de 5A1C     		adds	r2, r3, #1
 6127 01e0 FA77     		strb	r2, [r7, #31]
 6128 01e2 1946     		mov	r1, r3
 6129 01e4 BB7F     		ldrb	r3, [r7, #30]	@ zero_extendqisi2
 6130 01e6 FA68     		ldr	r2, [r7, #12]
 6131 01e8 1344     		add	r3, r3, r2
 6132 01ea 1B78     		ldrb	r3, [r3]	@ zero_extendqisi2
 6133 01ec 03F00F03 		and	r3, r3, #15
 6134 01f0 DBB2     		uxtb	r3, r3
 6135 01f2 63F01F03 		orn	r3, r3, #31
 6136 01f6 DAB2     		uxtb	r2, r3
 6137 01f8 7B69     		ldr	r3, [r7, #20]
 6138 01fa 0B44     		add	r3, r3, r1
 6139 01fc 1A71     		strb	r2, [r3, #4]
1525:.\AdvantageImpl.c ****                     puartdisp->_messagetx[index++] = (0xE0 | (0x0F & ptr[buffndx])); //Translate fr
 6140              		.loc 1 1525 0 discriminator 3
ARM GAS  C:\Users\RECEPC~1\AppData\Local\Temp\cc7aDVfG.s 			page 136


 6141 01fe BB7F     		ldrb	r3, [r7, #30]	@ zero_extendqisi2
 6142 0200 0133     		adds	r3, r3, #1
 6143 0202 BB77     		strb	r3, [r7, #30]
 6144              	.L221:
1525:.\AdvantageImpl.c ****                     puartdisp->_messagetx[index++] = (0xE0 | (0x0F & ptr[buffndx])); //Translate fr
 6145              		.loc 1 1525 0 is_stmt 0 discriminator 1
 6146 0204 BB7F     		ldrb	r3, [r7, #30]	@ zero_extendqisi2
 6147 0206 032B     		cmp	r3, #3
 6148 0208 E8D9     		bls	.L222
 6149              	.LBE42:
 6150 020a 19E0     		b	.L223
 6151              	.L220:
 6152              	.LBB43:
1527:.\AdvantageImpl.c ****             }
1528:.\AdvantageImpl.c ****             else
1529:.\AdvantageImpl.c ****             {
1530:.\AdvantageImpl.c ****                 FOR(uint8 buffndx = 0, buffndx < 6, buffndx++)//Long Price Data - Extended Two-Wire
 6153              		.loc 1 1530 0 is_stmt 1
 6154 020c 0023     		movs	r3, #0
 6155 020e 7B77     		strb	r3, [r7, #29]
 6156 0210 13E0     		b	.L224
 6157              	.L225:
1531:.\AdvantageImpl.c ****                     puartdisp->_messagetx[index++] = (0xE0 | (0x0F & ptr[buffndx])); //Translate fr
 6158              		.loc 1 1531 0 discriminator 3
 6159 0212 FB7F     		ldrb	r3, [r7, #31]	@ zero_extendqisi2
 6160 0214 5A1C     		adds	r2, r3, #1
 6161 0216 FA77     		strb	r2, [r7, #31]
 6162 0218 1946     		mov	r1, r3
 6163 021a 7B7F     		ldrb	r3, [r7, #29]	@ zero_extendqisi2
 6164 021c FA68     		ldr	r2, [r7, #12]
 6165 021e 1344     		add	r3, r3, r2
 6166 0220 1B78     		ldrb	r3, [r3]	@ zero_extendqisi2
 6167 0222 03F00F03 		and	r3, r3, #15
 6168 0226 DBB2     		uxtb	r3, r3
 6169 0228 63F01F03 		orn	r3, r3, #31
 6170 022c DAB2     		uxtb	r2, r3
 6171 022e 7B69     		ldr	r3, [r7, #20]
 6172 0230 0B44     		add	r3, r3, r1
 6173 0232 1A71     		strb	r2, [r3, #4]
1530:.\AdvantageImpl.c ****                     puartdisp->_messagetx[index++] = (0xE0 | (0x0F & ptr[buffndx])); //Translate fr
 6174              		.loc 1 1530 0 discriminator 3
 6175 0234 7B7F     		ldrb	r3, [r7, #29]	@ zero_extendqisi2
 6176 0236 0133     		adds	r3, r3, #1
 6177 0238 7B77     		strb	r3, [r7, #29]
 6178              	.L224:
1530:.\AdvantageImpl.c ****                     puartdisp->_messagetx[index++] = (0xE0 | (0x0F & ptr[buffndx])); //Translate fr
 6179              		.loc 1 1530 0 is_stmt 0 discriminator 1
 6180 023a 7B7F     		ldrb	r3, [r7, #29]	@ zero_extendqisi2
 6181 023c 052B     		cmp	r3, #5
 6182 023e E8D9     		bls	.L225
 6183              	.L223:
 6184              	.LBE43:
1532:.\AdvantageImpl.c ****             }
1533:.\AdvantageImpl.c **** 
1534:.\AdvantageImpl.c ****             memset(&ppump->_trasactionbuffer[GetBufferIndexFromDisplayID(DISPLAY_PRECIO_POR_UNIDAD)
 6185              		.loc 1 1534 0 is_stmt 1
 6186 0240 6520     		movs	r0, #101
ARM GAS  C:\Users\RECEPC~1\AppData\Local\Temp\cc7aDVfG.s 			page 137


 6187 0242 FFF7FEFF 		bl	GetBufferIndexFromDisplayID
 6188 0246 0346     		mov	r3, r0
 6189 0248 2033     		adds	r3, r3, #32
 6190 024a BA69     		ldr	r2, [r7, #24]
 6191 024c D418     		adds	r4, r2, r3
 6192 024e 6520     		movs	r0, #101
 6193 0250 FFF7FEFF 		bl	GetBufferLengthFromDisplayID
 6194 0254 0346     		mov	r3, r0
 6195 0256 2046     		mov	r0, r4
 6196 0258 0021     		movs	r1, #0
 6197 025a 1A46     		mov	r2, r3
 6198 025c FFF7FEFF 		bl	memset
1535:.\AdvantageImpl.c ****             puartdisp->_messagetx[index++] = 0xFB; //LRC next
 6199              		.loc 1 1535 0
 6200 0260 FB7F     		ldrb	r3, [r7, #31]	@ zero_extendqisi2
 6201 0262 5A1C     		adds	r2, r3, #1
 6202 0264 FA77     		strb	r2, [r7, #31]
 6203 0266 1A46     		mov	r2, r3
 6204 0268 7B69     		ldr	r3, [r7, #20]
 6205 026a 1344     		add	r3, r3, r2
 6206 026c FB22     		movs	r2, #251
 6207 026e 1A71     		strb	r2, [r3, #4]
1536:.\AdvantageImpl.c ****             puartdisp->_messagetx[index++] = GetLRC(puartdisp->_messagetx);
 6208              		.loc 1 1536 0
 6209 0270 FB7F     		ldrb	r3, [r7, #31]	@ zero_extendqisi2
 6210 0272 5A1C     		adds	r2, r3, #1
 6211 0274 FA77     		strb	r2, [r7, #31]
 6212 0276 1C46     		mov	r4, r3
 6213 0278 7B69     		ldr	r3, [r7, #20]
 6214 027a 0433     		adds	r3, r3, #4
 6215 027c 1846     		mov	r0, r3
 6216 027e FFF7FEFF 		bl	GetLRC
 6217 0282 0346     		mov	r3, r0
 6218 0284 1A46     		mov	r2, r3
 6219 0286 7B69     		ldr	r3, [r7, #20]
 6220 0288 2344     		add	r3, r3, r4
 6221 028a 1A71     		strb	r2, [r3, #4]
1537:.\AdvantageImpl.c ****             puartdisp->_messagetx[index++] = EOM;
 6222              		.loc 1 1537 0
 6223 028c FB7F     		ldrb	r3, [r7, #31]	@ zero_extendqisi2
 6224 028e 5A1C     		adds	r2, r3, #1
 6225 0290 FA77     		strb	r2, [r7, #31]
 6226 0292 1A46     		mov	r2, r3
 6227 0294 7B69     		ldr	r3, [r7, #20]
 6228 0296 1344     		add	r3, r3, r2
 6229 0298 F022     		movs	r2, #240
 6230 029a 1A71     		strb	r2, [r3, #4]
1538:.\AdvantageImpl.c **** ///////////////////////////////////////////////////////////////////////////////////////////////////
1539:.\AdvantageImpl.c ****             
1540:.\AdvantageImpl.c ****             puartdisp->_messagelength = index;
 6231              		.loc 1 1540 0
 6232 029c FB7F     		ldrb	r3, [r7, #31]	@ zero_extendqisi2
 6233 029e 9AB2     		uxth	r2, r3
 6234 02a0 7B69     		ldr	r3, [r7, #20]
 6235 02a2 5A80     		strh	r2, [r3, #2]	@ movhi
1541:.\AdvantageImpl.c ****             puartdisp->_messagestate = PENDING;
 6236              		.loc 1 1541 0
ARM GAS  C:\Users\RECEPC~1\AppData\Local\Temp\cc7aDVfG.s 			page 138


 6237 02a4 7B69     		ldr	r3, [r7, #20]
 6238 02a6 C222     		movs	r2, #194
 6239 02a8 1A70     		strb	r2, [r3]
1542:.\AdvantageImpl.c ****             
1543:.\AdvantageImpl.c ****             ppump->_currenthose++;
 6240              		.loc 1 1543 0
 6241 02aa BB69     		ldr	r3, [r7, #24]
 6242 02ac DB78     		ldrb	r3, [r3, #3]
 6243 02ae DBB2     		uxtb	r3, r3
 6244 02b0 0133     		adds	r3, r3, #1
 6245 02b2 DAB2     		uxtb	r2, r3
 6246 02b4 BB69     		ldr	r3, [r7, #24]
 6247 02b6 DA70     		strb	r2, [r3, #3]
 6248              	.L210:
 6249              	.LBE41:
 6250              	.LBE40:
1544:.\AdvantageImpl.c ****         }
1545:.\AdvantageImpl.c ****     }    
1546:.\AdvantageImpl.c **** }
 6251              		.loc 1 1546 0
 6252 02b8 2037     		adds	r7, r7, #32
 6253              		.cfi_def_cfa_offset 16
 6254 02ba BD46     		mov	sp, r7
 6255              		.cfi_def_cfa_register 13
 6256              		@ sp needed
 6257 02bc B0BD     		pop	{r4, r5, r7, pc}
 6258              	.L227:
 6259 02be 00BF     		.align	2
 6260              	.L226:
 6261 02c0 00000000 		.word	_g_dispenserlayoutinfo
 6262              		.cfi_endproc
 6263              	.LFE85:
 6264              		.size	PumpPpuChange, .-PumpPpuChange
 6265              		.section	.text.PumpDefault2CreditPpuChange,"ax",%progbits
 6266              		.align	2
 6267              		.global	PumpDefault2CreditPpuChange
 6268              		.thumb
 6269              		.thumb_func
 6270              		.type	PumpDefault2CreditPpuChange, %function
 6271              	PumpDefault2CreditPpuChange:
 6272              	.LFB86:
1547:.\AdvantageImpl.c **** 
1548:.\AdvantageImpl.c **** void PumpDefault2CreditPpuChange(void *pparam)
1549:.\AdvantageImpl.c **** {
 6273              		.loc 1 1549 0
 6274              		.cfi_startproc
 6275              		@ args = 0, pretend = 0, frame = 24
 6276              		@ frame_needed = 1, uses_anonymous_args = 0
 6277 0000 90B5     		push	{r4, r7, lr}
 6278              		.cfi_def_cfa_offset 12
 6279              		.cfi_offset 4, -12
 6280              		.cfi_offset 7, -8
 6281              		.cfi_offset 14, -4
 6282 0002 87B0     		sub	sp, sp, #28
 6283              		.cfi_def_cfa_offset 40
 6284 0004 00AF     		add	r7, sp, #0
 6285              		.cfi_def_cfa_register 7
ARM GAS  C:\Users\RECEPC~1\AppData\Local\Temp\cc7aDVfG.s 			page 139


 6286 0006 7860     		str	r0, [r7, #4]
1550:.\AdvantageImpl.c ****     PNEAR_PUMPPTR ppump = (PNEAR_PUMPPTR)pparam;
 6287              		.loc 1 1550 0
 6288 0008 7B68     		ldr	r3, [r7, #4]
 6289 000a 3B61     		str	r3, [r7, #16]
1551:.\AdvantageImpl.c ****     if(ppump)
 6290              		.loc 1 1551 0
 6291 000c 3B69     		ldr	r3, [r7, #16]
 6292 000e 002B     		cmp	r3, #0
 6293 0010 00F0C980 		beq	.L228
 6294              	.LBB44:
1552:.\AdvantageImpl.c ****     {
1553:.\AdvantageImpl.c ****         uint8_t index = 0;  
 6295              		.loc 1 1553 0
 6296 0014 0023     		movs	r3, #0
 6297 0016 FB75     		strb	r3, [r7, #23]
1554:.\AdvantageImpl.c ****         memset(ppump->_rxbuffer, 0x00, _PUMP_RX_BUFFER_SIZE_);
 6298              		.loc 1 1554 0
 6299 0018 3B69     		ldr	r3, [r7, #16]
 6300 001a 03F5D073 		add	r3, r3, #416
 6301 001e 1846     		mov	r0, r3
 6302 0020 0021     		movs	r1, #0
 6303 0022 4FF4C072 		mov	r2, #384
 6304 0026 FFF7FEFF 		bl	memset
1555:.\AdvantageImpl.c ****         PUARTMESSAGEPTR puartdisp = GetUARTMessageSlot(UART_DISPENSER);
 6305              		.loc 1 1555 0
 6306 002a A220     		movs	r0, #162
 6307 002c FFF7FEFF 		bl	GetUARTMessageSlot
 6308 0030 F860     		str	r0, [r7, #12]
1556:.\AdvantageImpl.c ****         if(puartdisp)
 6309              		.loc 1 1556 0
 6310 0032 FB68     		ldr	r3, [r7, #12]
 6311 0034 002B     		cmp	r3, #0
 6312 0036 00F0B680 		beq	.L228
 6313              	.LBB45:
1557:.\AdvantageImpl.c ****         {
1558:.\AdvantageImpl.c **** ///////////////////////////////////////////////////////////////////////////////////////////////////
1559:.\AdvantageImpl.c ****             puartdisp->_messagetx[index++] = SOM;
 6314              		.loc 1 1559 0
 6315 003a FB7D     		ldrb	r3, [r7, #23]	@ zero_extendqisi2
 6316 003c 5A1C     		adds	r2, r3, #1
 6317 003e FA75     		strb	r2, [r7, #23]
 6318 0040 1A46     		mov	r2, r3
 6319 0042 FB68     		ldr	r3, [r7, #12]
 6320 0044 1344     		add	r3, r3, r2
 6321 0046 FF22     		movs	r2, #255
 6322 0048 1A71     		strb	r2, [r3, #4]
1560:.\AdvantageImpl.c ****             if(_g_dispenserlayoutinfo._displaydigitsmode == 0x06)
 6323              		.loc 1 1560 0
 6324 004a 584B     		ldr	r3, .L238
 6325 004c 1B7C     		ldrb	r3, [r3, #16]	@ zero_extendqisi2
 6326 004e 062B     		cmp	r3, #6
 6327 0050 08D1     		bne	.L230
1561:.\AdvantageImpl.c ****                 puartdisp->_messagetx[index++] = 0xE5;//Standard Price Data
 6328              		.loc 1 1561 0
 6329 0052 FB7D     		ldrb	r3, [r7, #23]	@ zero_extendqisi2
 6330 0054 5A1C     		adds	r2, r3, #1
ARM GAS  C:\Users\RECEPC~1\AppData\Local\Temp\cc7aDVfG.s 			page 140


 6331 0056 FA75     		strb	r2, [r7, #23]
 6332 0058 1A46     		mov	r2, r3
 6333 005a FB68     		ldr	r3, [r7, #12]
 6334 005c 1344     		add	r3, r3, r2
 6335 005e E522     		movs	r2, #229
 6336 0060 1A71     		strb	r2, [r3, #4]
 6337 0062 07E0     		b	.L231
 6338              	.L230:
1562:.\AdvantageImpl.c ****             else
1563:.\AdvantageImpl.c ****                 puartdisp->_messagetx[index++] = 0xE3;//Long Price Data - Extended Two-Wire Mode
 6339              		.loc 1 1563 0
 6340 0064 FB7D     		ldrb	r3, [r7, #23]	@ zero_extendqisi2
 6341 0066 5A1C     		adds	r2, r3, #1
 6342 0068 FA75     		strb	r2, [r7, #23]
 6343 006a 1A46     		mov	r2, r3
 6344 006c FB68     		ldr	r3, [r7, #12]
 6345 006e 1344     		add	r3, r3, r2
 6346 0070 E322     		movs	r2, #227
 6347 0072 1A71     		strb	r2, [r3, #4]
 6348              	.L231:
1564:.\AdvantageImpl.c ****             
1565:.\AdvantageImpl.c ****             puartdisp->_messagetx[index++] = 0xF4;
 6349              		.loc 1 1565 0
 6350 0074 FB7D     		ldrb	r3, [r7, #23]	@ zero_extendqisi2
 6351 0076 5A1C     		adds	r2, r3, #1
 6352 0078 FA75     		strb	r2, [r7, #23]
 6353 007a 1A46     		mov	r2, r3
 6354 007c FB68     		ldr	r3, [r7, #12]
 6355 007e 1344     		add	r3, r3, r2
 6356 0080 F422     		movs	r2, #244
 6357 0082 1A71     		strb	r2, [r3, #4]
1566:.\AdvantageImpl.c ****             puartdisp->_messagetx[index++] = 0xF6; //Hose Data next
 6358              		.loc 1 1566 0
 6359 0084 FB7D     		ldrb	r3, [r7, #23]	@ zero_extendqisi2
 6360 0086 5A1C     		adds	r2, r3, #1
 6361 0088 FA75     		strb	r2, [r7, #23]
 6362 008a 1A46     		mov	r2, r3
 6363 008c FB68     		ldr	r3, [r7, #12]
 6364 008e 1344     		add	r3, r3, r2
 6365 0090 F622     		movs	r2, #246
 6366 0092 1A71     		strb	r2, [r3, #4]
1567:.\AdvantageImpl.c ****             ///THIS IS AN APPLIED CONVENTION ===>> 0x0006 INDEX POSITION WITHIN THE PUMP'S BUFFER P
1568:.\AdvantageImpl.c ****             ///THESE CODES MUST BE MATCHED OTHERWISE THE LOGIC WILL BREAKUP THE CODE!
1569:.\AdvantageImpl.c ****             puartdisp->_messagetx[index++] = (0xE0 | ppump->_authorizationinfo._hoseid);
 6367              		.loc 1 1569 0
 6368 0094 FB7D     		ldrb	r3, [r7, #23]	@ zero_extendqisi2
 6369 0096 5A1C     		adds	r2, r3, #1
 6370 0098 FA75     		strb	r2, [r7, #23]
 6371 009a 1946     		mov	r1, r3
 6372 009c 3B69     		ldr	r3, [r7, #16]
 6373 009e 93F8AA3B 		ldrb	r3, [r3, #2986]
 6374 00a2 DBB2     		uxtb	r3, r3
 6375 00a4 63F01F03 		orn	r3, r3, #31
 6376 00a8 DAB2     		uxtb	r2, r3
 6377 00aa FB68     		ldr	r3, [r7, #12]
 6378 00ac 0B44     		add	r3, r3, r1
 6379 00ae 1A71     		strb	r2, [r3, #4]
ARM GAS  C:\Users\RECEPC~1\AppData\Local\Temp\cc7aDVfG.s 			page 141


1570:.\AdvantageImpl.c ****             
1571:.\AdvantageImpl.c ****             puartdisp->_messagetx[index++] = 0xF7; //PPU Data next            
 6380              		.loc 1 1571 0
 6381 00b0 FB7D     		ldrb	r3, [r7, #23]	@ zero_extendqisi2
 6382 00b2 5A1C     		adds	r2, r3, #1
 6383 00b4 FA75     		strb	r2, [r7, #23]
 6384 00b6 1A46     		mov	r2, r3
 6385 00b8 FB68     		ldr	r3, [r7, #12]
 6386 00ba 1344     		add	r3, r3, r2
 6387 00bc F722     		movs	r2, #247
 6388 00be 1A71     		strb	r2, [r3, #4]
1572:.\AdvantageImpl.c ****             //Here we copy the remaining 6 bytes for the preset value
1573:.\AdvantageImpl.c ****             ///THIS IS AN APPLIED CONVENTION ===>> 0x0008 INDEX POSITION WITHIN THE PUMP'S BUFFER P
1574:.\AdvantageImpl.c ****             ///THESE CODES MUST BE MATCHED OTHERWISE THE LOGIC WILL BREAKUP THE CODE!
1575:.\AdvantageImpl.c ****             B78AD90CF552D9B30A(ppump->_authorizationinfo._price, PBYTECAST(&ppump->_trasactionbuffe
 6389              		.loc 1 1575 0
 6390 00c0 3B69     		ldr	r3, [r7, #16]
 6391 00c2 B3F8AC3B 		ldrh	r3, [r3, #2988]	@ movhi
 6392 00c6 9BB2     		uxth	r3, r3
 6393 00c8 9AB2     		uxth	r2, r3
 6394 00ca 4FF00003 		mov	r3, #0
 6395 00ce 3969     		ldr	r1, [r7, #16]
 6396 00d0 01F12804 		add	r4, r1, #40
 6397 00d4 1046     		mov	r0, r2
 6398 00d6 1946     		mov	r1, r3
 6399 00d8 2246     		mov	r2, r4
 6400 00da FFF7FEFF 		bl	B78AD90CF552D9B30A
1576:.\AdvantageImpl.c ****             char8 *ptr = &ppump->_trasactionbuffer[0x0008];
 6401              		.loc 1 1576 0
 6402 00de 3B69     		ldr	r3, [r7, #16]
 6403 00e0 2833     		adds	r3, r3, #40
 6404 00e2 BB60     		str	r3, [r7, #8]
1577:.\AdvantageImpl.c ****             
1578:.\AdvantageImpl.c ****             if(_g_dispenserlayoutinfo._displaydigitsmode == 0x06)
 6405              		.loc 1 1578 0
 6406 00e4 314B     		ldr	r3, .L238
 6407 00e6 1B7C     		ldrb	r3, [r3, #16]	@ zero_extendqisi2
 6408 00e8 062B     		cmp	r3, #6
 6409 00ea 1AD1     		bne	.L232
 6410              	.LBB46:
1579:.\AdvantageImpl.c ****             {
1580:.\AdvantageImpl.c ****                 FOR(uint8 buffndx = 0, buffndx < 4, buffndx++)//Standard Price Data
 6411              		.loc 1 1580 0
 6412 00ec 0023     		movs	r3, #0
 6413 00ee BB75     		strb	r3, [r7, #22]
 6414 00f0 13E0     		b	.L233
 6415              	.L234:
1581:.\AdvantageImpl.c ****                     puartdisp->_messagetx[index++] = (0xE0 | (0x0F & ptr[buffndx])); //Translate fr
 6416              		.loc 1 1581 0 discriminator 3
 6417 00f2 FB7D     		ldrb	r3, [r7, #23]	@ zero_extendqisi2
 6418 00f4 5A1C     		adds	r2, r3, #1
 6419 00f6 FA75     		strb	r2, [r7, #23]
 6420 00f8 1946     		mov	r1, r3
 6421 00fa BB7D     		ldrb	r3, [r7, #22]	@ zero_extendqisi2
 6422 00fc BA68     		ldr	r2, [r7, #8]
 6423 00fe 1344     		add	r3, r3, r2
 6424 0100 1B78     		ldrb	r3, [r3]	@ zero_extendqisi2
ARM GAS  C:\Users\RECEPC~1\AppData\Local\Temp\cc7aDVfG.s 			page 142


 6425 0102 03F00F03 		and	r3, r3, #15
 6426 0106 DBB2     		uxtb	r3, r3
 6427 0108 63F01F03 		orn	r3, r3, #31
 6428 010c DAB2     		uxtb	r2, r3
 6429 010e FB68     		ldr	r3, [r7, #12]
 6430 0110 0B44     		add	r3, r3, r1
 6431 0112 1A71     		strb	r2, [r3, #4]
1580:.\AdvantageImpl.c ****                     puartdisp->_messagetx[index++] = (0xE0 | (0x0F & ptr[buffndx])); //Translate fr
 6432              		.loc 1 1580 0 discriminator 3
 6433 0114 BB7D     		ldrb	r3, [r7, #22]	@ zero_extendqisi2
 6434 0116 0133     		adds	r3, r3, #1
 6435 0118 BB75     		strb	r3, [r7, #22]
 6436              	.L233:
1580:.\AdvantageImpl.c ****                     puartdisp->_messagetx[index++] = (0xE0 | (0x0F & ptr[buffndx])); //Translate fr
 6437              		.loc 1 1580 0 is_stmt 0 discriminator 1
 6438 011a BB7D     		ldrb	r3, [r7, #22]	@ zero_extendqisi2
 6439 011c 032B     		cmp	r3, #3
 6440 011e E8D9     		bls	.L234
 6441              	.LBE46:
 6442 0120 19E0     		b	.L235
 6443              	.L232:
 6444              	.LBB47:
1582:.\AdvantageImpl.c ****             }
1583:.\AdvantageImpl.c ****             else
1584:.\AdvantageImpl.c ****             {
1585:.\AdvantageImpl.c ****                 FOR(uint8 buffndx = 0, buffndx < 6, buffndx++)//Long Price Data - Extended Two-Wire
 6445              		.loc 1 1585 0 is_stmt 1
 6446 0122 0023     		movs	r3, #0
 6447 0124 7B75     		strb	r3, [r7, #21]
 6448 0126 13E0     		b	.L236
 6449              	.L237:
1586:.\AdvantageImpl.c ****                     puartdisp->_messagetx[index++] = (0xE0 | (0x0F & ptr[buffndx])); //Translate fr
 6450              		.loc 1 1586 0 discriminator 3
 6451 0128 FB7D     		ldrb	r3, [r7, #23]	@ zero_extendqisi2
 6452 012a 5A1C     		adds	r2, r3, #1
 6453 012c FA75     		strb	r2, [r7, #23]
 6454 012e 1946     		mov	r1, r3
 6455 0130 7B7D     		ldrb	r3, [r7, #21]	@ zero_extendqisi2
 6456 0132 BA68     		ldr	r2, [r7, #8]
 6457 0134 1344     		add	r3, r3, r2
 6458 0136 1B78     		ldrb	r3, [r3]	@ zero_extendqisi2
 6459 0138 03F00F03 		and	r3, r3, #15
 6460 013c DBB2     		uxtb	r3, r3
 6461 013e 63F01F03 		orn	r3, r3, #31
 6462 0142 DAB2     		uxtb	r2, r3
 6463 0144 FB68     		ldr	r3, [r7, #12]
 6464 0146 0B44     		add	r3, r3, r1
 6465 0148 1A71     		strb	r2, [r3, #4]
1585:.\AdvantageImpl.c ****                     puartdisp->_messagetx[index++] = (0xE0 | (0x0F & ptr[buffndx])); //Translate fr
 6466              		.loc 1 1585 0 discriminator 3
 6467 014a 7B7D     		ldrb	r3, [r7, #21]	@ zero_extendqisi2
 6468 014c 0133     		adds	r3, r3, #1
 6469 014e 7B75     		strb	r3, [r7, #21]
 6470              	.L236:
1585:.\AdvantageImpl.c ****                     puartdisp->_messagetx[index++] = (0xE0 | (0x0F & ptr[buffndx])); //Translate fr
 6471              		.loc 1 1585 0 is_stmt 0 discriminator 1
 6472 0150 7B7D     		ldrb	r3, [r7, #21]	@ zero_extendqisi2
ARM GAS  C:\Users\RECEPC~1\AppData\Local\Temp\cc7aDVfG.s 			page 143


 6473 0152 052B     		cmp	r3, #5
 6474 0154 E8D9     		bls	.L237
 6475              	.L235:
 6476              	.LBE47:
1587:.\AdvantageImpl.c ****             }
1588:.\AdvantageImpl.c ****             
1589:.\AdvantageImpl.c ****             puartdisp->_messagetx[index++] = 0xFB; //LRC next
 6477              		.loc 1 1589 0 is_stmt 1
 6478 0156 FB7D     		ldrb	r3, [r7, #23]	@ zero_extendqisi2
 6479 0158 5A1C     		adds	r2, r3, #1
 6480 015a FA75     		strb	r2, [r7, #23]
 6481 015c 1A46     		mov	r2, r3
 6482 015e FB68     		ldr	r3, [r7, #12]
 6483 0160 1344     		add	r3, r3, r2
 6484 0162 FB22     		movs	r2, #251
 6485 0164 1A71     		strb	r2, [r3, #4]
1590:.\AdvantageImpl.c ****             puartdisp->_messagetx[index++] = GetLRC(puartdisp->_messagetx);
 6486              		.loc 1 1590 0
 6487 0166 FB7D     		ldrb	r3, [r7, #23]	@ zero_extendqisi2
 6488 0168 5A1C     		adds	r2, r3, #1
 6489 016a FA75     		strb	r2, [r7, #23]
 6490 016c 1C46     		mov	r4, r3
 6491 016e FB68     		ldr	r3, [r7, #12]
 6492 0170 0433     		adds	r3, r3, #4
 6493 0172 1846     		mov	r0, r3
 6494 0174 FFF7FEFF 		bl	GetLRC
 6495 0178 0346     		mov	r3, r0
 6496 017a 1A46     		mov	r2, r3
 6497 017c FB68     		ldr	r3, [r7, #12]
 6498 017e 2344     		add	r3, r3, r4
 6499 0180 1A71     		strb	r2, [r3, #4]
1591:.\AdvantageImpl.c ****             puartdisp->_messagetx[index++] = EOM;
 6500              		.loc 1 1591 0
 6501 0182 FB7D     		ldrb	r3, [r7, #23]	@ zero_extendqisi2
 6502 0184 5A1C     		adds	r2, r3, #1
 6503 0186 FA75     		strb	r2, [r7, #23]
 6504 0188 1A46     		mov	r2, r3
 6505 018a FB68     		ldr	r3, [r7, #12]
 6506 018c 1344     		add	r3, r3, r2
 6507 018e F022     		movs	r2, #240
 6508 0190 1A71     		strb	r2, [r3, #4]
1592:.\AdvantageImpl.c **** ///////////////////////////////////////////////////////////////////////////////////////////////////
1593:.\AdvantageImpl.c ****             
1594:.\AdvantageImpl.c ****             puartdisp->_messagelength = index;
 6509              		.loc 1 1594 0
 6510 0192 FB7D     		ldrb	r3, [r7, #23]	@ zero_extendqisi2
 6511 0194 9AB2     		uxth	r2, r3
 6512 0196 FB68     		ldr	r3, [r7, #12]
 6513 0198 5A80     		strh	r2, [r3, #2]	@ movhi
1595:.\AdvantageImpl.c ****             puartdisp->_messagestate = PENDING;
 6514              		.loc 1 1595 0
 6515 019a FB68     		ldr	r3, [r7, #12]
 6516 019c C222     		movs	r2, #194
 6517 019e 1A70     		strb	r2, [r3]
1596:.\AdvantageImpl.c ****             
1597:.\AdvantageImpl.c ****             //This marker flag is set to notify the transactional engine about the price restore re
1598:.\AdvantageImpl.c ****             ppump->_restoreprice = true;
ARM GAS  C:\Users\RECEPC~1\AppData\Local\Temp\cc7aDVfG.s 			page 144


 6518              		.loc 1 1598 0
 6519 01a0 3B69     		ldr	r3, [r7, #16]
 6520 01a2 0122     		movs	r2, #1
 6521 01a4 DA71     		strb	r2, [r3, #7]
 6522              	.L228:
 6523              	.LBE45:
 6524              	.LBE44:
1599:.\AdvantageImpl.c ****         }
1600:.\AdvantageImpl.c ****     }    
1601:.\AdvantageImpl.c **** }
 6525              		.loc 1 1601 0
 6526 01a6 1C37     		adds	r7, r7, #28
 6527              		.cfi_def_cfa_offset 12
 6528 01a8 BD46     		mov	sp, r7
 6529              		.cfi_def_cfa_register 13
 6530              		@ sp needed
 6531 01aa 90BD     		pop	{r4, r7, pc}
 6532              	.L239:
 6533              		.align	2
 6534              	.L238:
 6535 01ac 00000000 		.word	_g_dispenserlayoutinfo
 6536              		.cfi_endproc
 6537              	.LFE86:
 6538              		.size	PumpDefault2CreditPpuChange, .-PumpDefault2CreditPpuChange
 6539              		.section	.text.PumpCredit2DefaultPpuChange,"ax",%progbits
 6540              		.align	2
 6541              		.global	PumpCredit2DefaultPpuChange
 6542              		.thumb
 6543              		.thumb_func
 6544              		.type	PumpCredit2DefaultPpuChange, %function
 6545              	PumpCredit2DefaultPpuChange:
 6546              	.LFB87:
1602:.\AdvantageImpl.c **** 
1603:.\AdvantageImpl.c **** void PumpCredit2DefaultPpuChange(void *pparam)
1604:.\AdvantageImpl.c **** {
 6547              		.loc 1 1604 0
 6548              		.cfi_startproc
 6549              		@ args = 0, pretend = 0, frame = 32
 6550              		@ frame_needed = 1, uses_anonymous_args = 0
 6551 0000 90B5     		push	{r4, r7, lr}
 6552              		.cfi_def_cfa_offset 12
 6553              		.cfi_offset 4, -12
 6554              		.cfi_offset 7, -8
 6555              		.cfi_offset 14, -4
 6556 0002 89B0     		sub	sp, sp, #36
 6557              		.cfi_def_cfa_offset 48
 6558 0004 00AF     		add	r7, sp, #0
 6559              		.cfi_def_cfa_register 7
 6560 0006 7860     		str	r0, [r7, #4]
1605:.\AdvantageImpl.c ****     PNEAR_PUMPPTR ppump = (PNEAR_PUMPPTR)pparam;
 6561              		.loc 1 1605 0
 6562 0008 7B68     		ldr	r3, [r7, #4]
 6563 000a BB61     		str	r3, [r7, #24]
1606:.\AdvantageImpl.c ****     if(ppump)
 6564              		.loc 1 1606 0
 6565 000c BB69     		ldr	r3, [r7, #24]
 6566 000e 002B     		cmp	r3, #0
ARM GAS  C:\Users\RECEPC~1\AppData\Local\Temp\cc7aDVfG.s 			page 145


 6567 0010 00F00F81 		beq	.L240
 6568              	.LBB48:
1607:.\AdvantageImpl.c ****     {
1608:.\AdvantageImpl.c ****         uint8_t index = 0;  
 6569              		.loc 1 1608 0
 6570 0014 0023     		movs	r3, #0
 6571 0016 FB77     		strb	r3, [r7, #31]
1609:.\AdvantageImpl.c ****         memset(ppump->_rxbuffer, 0x00, _PUMP_RX_BUFFER_SIZE_);
 6572              		.loc 1 1609 0
 6573 0018 BB69     		ldr	r3, [r7, #24]
 6574 001a 03F5D073 		add	r3, r3, #416
 6575 001e 1846     		mov	r0, r3
 6576 0020 0021     		movs	r1, #0
 6577 0022 4FF4C072 		mov	r2, #384
 6578 0026 FFF7FEFF 		bl	memset
1610:.\AdvantageImpl.c ****         PUARTMESSAGEPTR puartdisp = GetUARTMessageSlot(UART_DISPENSER);
 6579              		.loc 1 1610 0
 6580 002a A220     		movs	r0, #162
 6581 002c FFF7FEFF 		bl	GetUARTMessageSlot
 6582 0030 7861     		str	r0, [r7, #20]
1611:.\AdvantageImpl.c ****         if(puartdisp)
 6583              		.loc 1 1611 0
 6584 0032 7B69     		ldr	r3, [r7, #20]
 6585 0034 002B     		cmp	r3, #0
 6586 0036 00F0F980 		beq	.L242
 6587              	.LBB49:
1612:.\AdvantageImpl.c ****         {
1613:.\AdvantageImpl.c **** ///////////////////////////////////////////////////////////////////////////////////////////////////
1614:.\AdvantageImpl.c ****             puartdisp->_messagetx[index++] = SOM;
 6588              		.loc 1 1614 0
 6589 003a FB7F     		ldrb	r3, [r7, #31]	@ zero_extendqisi2
 6590 003c 5A1C     		adds	r2, r3, #1
 6591 003e FA77     		strb	r2, [r7, #31]
 6592 0040 1A46     		mov	r2, r3
 6593 0042 7B69     		ldr	r3, [r7, #20]
 6594 0044 1344     		add	r3, r3, r2
 6595 0046 FF22     		movs	r2, #255
 6596 0048 1A71     		strb	r2, [r3, #4]
1615:.\AdvantageImpl.c ****             if(_g_dispenserlayoutinfo._displaydigitsmode == 0x06)
 6597              		.loc 1 1615 0
 6598 004a 7B4B     		ldr	r3, .L257
 6599 004c 1B7C     		ldrb	r3, [r3, #16]	@ zero_extendqisi2
 6600 004e 062B     		cmp	r3, #6
 6601 0050 08D1     		bne	.L243
1616:.\AdvantageImpl.c ****                 puartdisp->_messagetx[index++] = 0xE5;//Standard Price Data
 6602              		.loc 1 1616 0
 6603 0052 FB7F     		ldrb	r3, [r7, #31]	@ zero_extendqisi2
 6604 0054 5A1C     		adds	r2, r3, #1
 6605 0056 FA77     		strb	r2, [r7, #31]
 6606 0058 1A46     		mov	r2, r3
 6607 005a 7B69     		ldr	r3, [r7, #20]
 6608 005c 1344     		add	r3, r3, r2
 6609 005e E522     		movs	r2, #229
 6610 0060 1A71     		strb	r2, [r3, #4]
 6611 0062 07E0     		b	.L244
 6612              	.L243:
1617:.\AdvantageImpl.c ****             else
ARM GAS  C:\Users\RECEPC~1\AppData\Local\Temp\cc7aDVfG.s 			page 146


1618:.\AdvantageImpl.c ****                 puartdisp->_messagetx[index++] = 0xE3;//Long Price Data - Extended Two-Wire Mode
 6613              		.loc 1 1618 0
 6614 0064 FB7F     		ldrb	r3, [r7, #31]	@ zero_extendqisi2
 6615 0066 5A1C     		adds	r2, r3, #1
 6616 0068 FA77     		strb	r2, [r7, #31]
 6617 006a 1A46     		mov	r2, r3
 6618 006c 7B69     		ldr	r3, [r7, #20]
 6619 006e 1344     		add	r3, r3, r2
 6620 0070 E322     		movs	r2, #227
 6621 0072 1A71     		strb	r2, [r3, #4]
 6622              	.L244:
1619:.\AdvantageImpl.c ****             
1620:.\AdvantageImpl.c ****             puartdisp->_messagetx[index++] = 0xF4;
 6623              		.loc 1 1620 0
 6624 0074 FB7F     		ldrb	r3, [r7, #31]	@ zero_extendqisi2
 6625 0076 5A1C     		adds	r2, r3, #1
 6626 0078 FA77     		strb	r2, [r7, #31]
 6627 007a 1A46     		mov	r2, r3
 6628 007c 7B69     		ldr	r3, [r7, #20]
 6629 007e 1344     		add	r3, r3, r2
 6630 0080 F422     		movs	r2, #244
 6631 0082 1A71     		strb	r2, [r3, #4]
1621:.\AdvantageImpl.c ****             puartdisp->_messagetx[index++] = 0xF6; //Hose Data next
 6632              		.loc 1 1621 0
 6633 0084 FB7F     		ldrb	r3, [r7, #31]	@ zero_extendqisi2
 6634 0086 5A1C     		adds	r2, r3, #1
 6635 0088 FA77     		strb	r2, [r7, #31]
 6636 008a 1A46     		mov	r2, r3
 6637 008c 7B69     		ldr	r3, [r7, #20]
 6638 008e 1344     		add	r3, r3, r2
 6639 0090 F622     		movs	r2, #246
 6640 0092 1A71     		strb	r2, [r3, #4]
1622:.\AdvantageImpl.c ****             ///THIS IS AN APPLIED CONVENTION ===>> 0x0006 INDEX POSITION WITHIN THE PUMP'S BUFFER P
1623:.\AdvantageImpl.c ****             ///THESE CODES MUST BE MATCHED OTHERWISE THE LOGIC WILL BREAKUP THE CODE!
1624:.\AdvantageImpl.c ****             puartdisp->_messagetx[index++] = (0xE0 | ppump->_authorizationinfo._hoseid);
 6641              		.loc 1 1624 0
 6642 0094 FB7F     		ldrb	r3, [r7, #31]	@ zero_extendqisi2
 6643 0096 5A1C     		adds	r2, r3, #1
 6644 0098 FA77     		strb	r2, [r7, #31]
 6645 009a 1946     		mov	r1, r3
 6646 009c BB69     		ldr	r3, [r7, #24]
 6647 009e 93F8AA3B 		ldrb	r3, [r3, #2986]
 6648 00a2 DBB2     		uxtb	r3, r3
 6649 00a4 63F01F03 		orn	r3, r3, #31
 6650 00a8 DAB2     		uxtb	r2, r3
 6651 00aa 7B69     		ldr	r3, [r7, #20]
 6652 00ac 0B44     		add	r3, r3, r1
 6653 00ae 1A71     		strb	r2, [r3, #4]
1625:.\AdvantageImpl.c **** 
1626:.\AdvantageImpl.c ****             puartdisp->_messagetx[index++] = 0xF7; //PPU Data next
 6654              		.loc 1 1626 0
 6655 00b0 FB7F     		ldrb	r3, [r7, #31]	@ zero_extendqisi2
 6656 00b2 5A1C     		adds	r2, r3, #1
 6657 00b4 FA77     		strb	r2, [r7, #31]
 6658 00b6 1A46     		mov	r2, r3
 6659 00b8 7B69     		ldr	r3, [r7, #20]
 6660 00ba 1344     		add	r3, r3, r2
ARM GAS  C:\Users\RECEPC~1\AppData\Local\Temp\cc7aDVfG.s 			page 147


 6661 00bc F722     		movs	r2, #247
 6662 00be 1A71     		strb	r2, [r3, #4]
1627:.\AdvantageImpl.c ****             
1628:.\AdvantageImpl.c ****             I2CBusLock();
 6663              		.loc 1 1628 0
 6664 00c0 FFF7FEFF 		bl	I2CBusLock
1629:.\AdvantageImpl.c ****             ClearEepromBuffer();
 6665              		.loc 1 1629 0
 6666 00c4 FFF7FEFF 		bl	ClearEepromBuffer
1630:.\AdvantageImpl.c ****             uint16 eeprompage = DispenserGetEepromPPUPageFromPumpID(ppump->_pumpid);
 6667              		.loc 1 1630 0
 6668 00c8 BB69     		ldr	r3, [r7, #24]
 6669 00ca 1B78     		ldrb	r3, [r3]	@ zero_extendqisi2
 6670 00cc 1846     		mov	r0, r3
 6671 00ce FFF7FEFF 		bl	DispenserGetEepromPPUPageFromPumpID
 6672 00d2 0346     		mov	r3, r0
 6673 00d4 7B82     		strh	r3, [r7, #18]	@ movhi
1631:.\AdvantageImpl.c ****             LoadEepromPage(eeprompage);
 6674              		.loc 1 1631 0
 6675 00d6 7B8A     		ldrh	r3, [r7, #18]
 6676 00d8 1846     		mov	r0, r3
 6677 00da FFF7FEFF 		bl	LoadEepromPage
1632:.\AdvantageImpl.c ****             switch(ppump->_authorizationinfo._hoseid)
 6678              		.loc 1 1632 0
 6679 00de BB69     		ldr	r3, [r7, #24]
 6680 00e0 93F8AA3B 		ldrb	r3, [r3, #2986]
 6681 00e4 DBB2     		uxtb	r3, r3
 6682 00e6 032B     		cmp	r3, #3
 6683 00e8 3DD8     		bhi	.L245
 6684 00ea 01A2     		adr	r2, .L247
 6685 00ec 52F823F0 		ldr	pc, [r2, r3, lsl #2]
 6686              		.p2align 2
 6687              	.L247:
 6688 00f0 01010000 		.word	.L246+1
 6689 00f4 19010000 		.word	.L248+1
 6690 00f8 33010000 		.word	.L249+1
 6691 00fc 4D010000 		.word	.L250+1
 6692              		.p2align 1
 6693              	.L246:
1633:.\AdvantageImpl.c ****             {
1634:.\AdvantageImpl.c ****                 case 0x00:
1635:.\AdvantageImpl.c ****                 //Six bytes only since the PPU is constrained to this length
1636:.\AdvantageImpl.c ****                 memcpy(PBYTECAST(&ppump->_trasactionbuffer[0x0008]), &GetEepromBuffer()[_EEPROM_PAG
 6694              		.loc 1 1636 0
 6695 0100 BB69     		ldr	r3, [r7, #24]
 6696 0102 03F12804 		add	r4, r3, #40
 6697 0106 FFF7FEFF 		bl	GetEepromBuffer
 6698 010a 0346     		mov	r3, r0
 6699 010c 2046     		mov	r0, r4
 6700 010e 1946     		mov	r1, r3
 6701 0110 0622     		movs	r2, #6
 6702 0112 FFF7FEFF 		bl	memcpy
1637:.\AdvantageImpl.c ****                 break;
 6703              		.loc 1 1637 0
 6704 0116 26E0     		b	.L245
 6705              	.L248:
1638:.\AdvantageImpl.c ****                 case 0x01:
ARM GAS  C:\Users\RECEPC~1\AppData\Local\Temp\cc7aDVfG.s 			page 148


1639:.\AdvantageImpl.c ****                 //Six bytes only since the PPU is constrained to this length
1640:.\AdvantageImpl.c ****                 memcpy(PBYTECAST(&ppump->_trasactionbuffer[0x0008]), &GetEepromBuffer()[_EEPROM_PAG
 6706              		.loc 1 1640 0
 6707 0118 BB69     		ldr	r3, [r7, #24]
 6708 011a 03F12804 		add	r4, r3, #40
 6709 011e FFF7FEFF 		bl	GetEepromBuffer
 6710 0122 0346     		mov	r3, r0
 6711 0124 1033     		adds	r3, r3, #16
 6712 0126 2046     		mov	r0, r4
 6713 0128 1946     		mov	r1, r3
 6714 012a 0622     		movs	r2, #6
 6715 012c FFF7FEFF 		bl	memcpy
1641:.\AdvantageImpl.c ****                 break;
 6716              		.loc 1 1641 0
 6717 0130 19E0     		b	.L245
 6718              	.L249:
1642:.\AdvantageImpl.c ****                 case 0x02:
1643:.\AdvantageImpl.c ****                 //Six bytes only since the PPU is constrained to this length
1644:.\AdvantageImpl.c ****                 memcpy(PBYTECAST(&ppump->_trasactionbuffer[0x0008]), &GetEepromBuffer()[_EEPROM_PAG
 6719              		.loc 1 1644 0
 6720 0132 BB69     		ldr	r3, [r7, #24]
 6721 0134 03F12804 		add	r4, r3, #40
 6722 0138 FFF7FEFF 		bl	GetEepromBuffer
 6723 013c 0346     		mov	r3, r0
 6724 013e 2033     		adds	r3, r3, #32
 6725 0140 2046     		mov	r0, r4
 6726 0142 1946     		mov	r1, r3
 6727 0144 0622     		movs	r2, #6
 6728 0146 FFF7FEFF 		bl	memcpy
1645:.\AdvantageImpl.c ****                 break;
 6729              		.loc 1 1645 0
 6730 014a 0CE0     		b	.L245
 6731              	.L250:
1646:.\AdvantageImpl.c ****                 case 0x03:
1647:.\AdvantageImpl.c ****                 //Six bytes only since the PPU is constrained to this length
1648:.\AdvantageImpl.c ****                 memcpy(PBYTECAST(&ppump->_trasactionbuffer[0x0008]), &GetEepromBuffer()[_EEPROM_PAG
 6732              		.loc 1 1648 0
 6733 014c BB69     		ldr	r3, [r7, #24]
 6734 014e 03F12804 		add	r4, r3, #40
 6735 0152 FFF7FEFF 		bl	GetEepromBuffer
 6736 0156 0346     		mov	r3, r0
 6737 0158 3033     		adds	r3, r3, #48
 6738 015a 2046     		mov	r0, r4
 6739 015c 1946     		mov	r1, r3
 6740 015e 0622     		movs	r2, #6
 6741 0160 FFF7FEFF 		bl	memcpy
1649:.\AdvantageImpl.c ****                 break;
 6742              		.loc 1 1649 0
 6743 0164 00BF     		nop
 6744              	.L245:
1650:.\AdvantageImpl.c ****             }
1651:.\AdvantageImpl.c ****             I2CBusUnlock();
 6745              		.loc 1 1651 0
 6746 0166 FFF7FEFF 		bl	I2CBusUnlock
1652:.\AdvantageImpl.c **** 
1653:.\AdvantageImpl.c ****             char8 *ptr = &ppump->_trasactionbuffer[0x0008];
 6747              		.loc 1 1653 0
ARM GAS  C:\Users\RECEPC~1\AppData\Local\Temp\cc7aDVfG.s 			page 149


 6748 016a BB69     		ldr	r3, [r7, #24]
 6749 016c 2833     		adds	r3, r3, #40
 6750 016e FB60     		str	r3, [r7, #12]
1654:.\AdvantageImpl.c ****             
1655:.\AdvantageImpl.c ****             if(_g_dispenserlayoutinfo._displaydigitsmode == 0x06)
 6751              		.loc 1 1655 0
 6752 0170 314B     		ldr	r3, .L257
 6753 0172 1B7C     		ldrb	r3, [r3, #16]	@ zero_extendqisi2
 6754 0174 062B     		cmp	r3, #6
 6755 0176 1AD1     		bne	.L251
 6756              	.LBB50:
1656:.\AdvantageImpl.c ****             {
1657:.\AdvantageImpl.c ****                 FOR(uint8 buffndx = 0, buffndx < 4, buffndx++)//Standard Price Data
 6757              		.loc 1 1657 0
 6758 0178 0023     		movs	r3, #0
 6759 017a BB77     		strb	r3, [r7, #30]
 6760 017c 13E0     		b	.L252
 6761              	.L253:
1658:.\AdvantageImpl.c ****                     puartdisp->_messagetx[index++] = (0xE0 | (0x0F & ptr[buffndx])); //Translate fr
 6762              		.loc 1 1658 0 discriminator 3
 6763 017e FB7F     		ldrb	r3, [r7, #31]	@ zero_extendqisi2
 6764 0180 5A1C     		adds	r2, r3, #1
 6765 0182 FA77     		strb	r2, [r7, #31]
 6766 0184 1946     		mov	r1, r3
 6767 0186 BB7F     		ldrb	r3, [r7, #30]	@ zero_extendqisi2
 6768 0188 FA68     		ldr	r2, [r7, #12]
 6769 018a 1344     		add	r3, r3, r2
 6770 018c 1B78     		ldrb	r3, [r3]	@ zero_extendqisi2
 6771 018e 03F00F03 		and	r3, r3, #15
 6772 0192 DBB2     		uxtb	r3, r3
 6773 0194 63F01F03 		orn	r3, r3, #31
 6774 0198 DAB2     		uxtb	r2, r3
 6775 019a 7B69     		ldr	r3, [r7, #20]
 6776 019c 0B44     		add	r3, r3, r1
 6777 019e 1A71     		strb	r2, [r3, #4]
1657:.\AdvantageImpl.c ****                     puartdisp->_messagetx[index++] = (0xE0 | (0x0F & ptr[buffndx])); //Translate fr
 6778              		.loc 1 1657 0 discriminator 3
 6779 01a0 BB7F     		ldrb	r3, [r7, #30]	@ zero_extendqisi2
 6780 01a2 0133     		adds	r3, r3, #1
 6781 01a4 BB77     		strb	r3, [r7, #30]
 6782              	.L252:
1657:.\AdvantageImpl.c ****                     puartdisp->_messagetx[index++] = (0xE0 | (0x0F & ptr[buffndx])); //Translate fr
 6783              		.loc 1 1657 0 is_stmt 0 discriminator 1
 6784 01a6 BB7F     		ldrb	r3, [r7, #30]	@ zero_extendqisi2
 6785 01a8 032B     		cmp	r3, #3
 6786 01aa E8D9     		bls	.L253
 6787              	.LBE50:
 6788 01ac 19E0     		b	.L254
 6789              	.L251:
 6790              	.LBB51:
1659:.\AdvantageImpl.c ****             }
1660:.\AdvantageImpl.c ****             else
1661:.\AdvantageImpl.c ****             {
1662:.\AdvantageImpl.c ****                 FOR(uint8 buffndx = 0, buffndx < 6, buffndx++)//Long Price Data - Extended Two-Wire
 6791              		.loc 1 1662 0 is_stmt 1
 6792 01ae 0023     		movs	r3, #0
 6793 01b0 7B77     		strb	r3, [r7, #29]
ARM GAS  C:\Users\RECEPC~1\AppData\Local\Temp\cc7aDVfG.s 			page 150


 6794 01b2 13E0     		b	.L255
 6795              	.L256:
1663:.\AdvantageImpl.c ****                     puartdisp->_messagetx[index++] = (0xE0 | (0x0F & ptr[buffndx])); //Translate fr
 6796              		.loc 1 1663 0 discriminator 3
 6797 01b4 FB7F     		ldrb	r3, [r7, #31]	@ zero_extendqisi2
 6798 01b6 5A1C     		adds	r2, r3, #1
 6799 01b8 FA77     		strb	r2, [r7, #31]
 6800 01ba 1946     		mov	r1, r3
 6801 01bc 7B7F     		ldrb	r3, [r7, #29]	@ zero_extendqisi2
 6802 01be FA68     		ldr	r2, [r7, #12]
 6803 01c0 1344     		add	r3, r3, r2
 6804 01c2 1B78     		ldrb	r3, [r3]	@ zero_extendqisi2
 6805 01c4 03F00F03 		and	r3, r3, #15
 6806 01c8 DBB2     		uxtb	r3, r3
 6807 01ca 63F01F03 		orn	r3, r3, #31
 6808 01ce DAB2     		uxtb	r2, r3
 6809 01d0 7B69     		ldr	r3, [r7, #20]
 6810 01d2 0B44     		add	r3, r3, r1
 6811 01d4 1A71     		strb	r2, [r3, #4]
1662:.\AdvantageImpl.c ****                     puartdisp->_messagetx[index++] = (0xE0 | (0x0F & ptr[buffndx])); //Translate fr
 6812              		.loc 1 1662 0 discriminator 3
 6813 01d6 7B7F     		ldrb	r3, [r7, #29]	@ zero_extendqisi2
 6814 01d8 0133     		adds	r3, r3, #1
 6815 01da 7B77     		strb	r3, [r7, #29]
 6816              	.L255:
1662:.\AdvantageImpl.c ****                     puartdisp->_messagetx[index++] = (0xE0 | (0x0F & ptr[buffndx])); //Translate fr
 6817              		.loc 1 1662 0 is_stmt 0 discriminator 1
 6818 01dc 7B7F     		ldrb	r3, [r7, #29]	@ zero_extendqisi2
 6819 01de 052B     		cmp	r3, #5
 6820 01e0 E8D9     		bls	.L256
 6821              	.L254:
 6822              	.LBE51:
1664:.\AdvantageImpl.c ****             }
1665:.\AdvantageImpl.c ****             
1666:.\AdvantageImpl.c ****             puartdisp->_messagetx[index++] = 0xFB; //LRC next
 6823              		.loc 1 1666 0 is_stmt 1
 6824 01e2 FB7F     		ldrb	r3, [r7, #31]	@ zero_extendqisi2
 6825 01e4 5A1C     		adds	r2, r3, #1
 6826 01e6 FA77     		strb	r2, [r7, #31]
 6827 01e8 1A46     		mov	r2, r3
 6828 01ea 7B69     		ldr	r3, [r7, #20]
 6829 01ec 1344     		add	r3, r3, r2
 6830 01ee FB22     		movs	r2, #251
 6831 01f0 1A71     		strb	r2, [r3, #4]
1667:.\AdvantageImpl.c ****             puartdisp->_messagetx[index++] = GetLRC(puartdisp->_messagetx);
 6832              		.loc 1 1667 0
 6833 01f2 FB7F     		ldrb	r3, [r7, #31]	@ zero_extendqisi2
 6834 01f4 5A1C     		adds	r2, r3, #1
 6835 01f6 FA77     		strb	r2, [r7, #31]
 6836 01f8 1C46     		mov	r4, r3
 6837 01fa 7B69     		ldr	r3, [r7, #20]
 6838 01fc 0433     		adds	r3, r3, #4
 6839 01fe 1846     		mov	r0, r3
 6840 0200 FFF7FEFF 		bl	GetLRC
 6841 0204 0346     		mov	r3, r0
 6842 0206 1A46     		mov	r2, r3
 6843 0208 7B69     		ldr	r3, [r7, #20]
ARM GAS  C:\Users\RECEPC~1\AppData\Local\Temp\cc7aDVfG.s 			page 151


 6844 020a 2344     		add	r3, r3, r4
 6845 020c 1A71     		strb	r2, [r3, #4]
1668:.\AdvantageImpl.c ****             puartdisp->_messagetx[index++] = EOM;
 6846              		.loc 1 1668 0
 6847 020e FB7F     		ldrb	r3, [r7, #31]	@ zero_extendqisi2
 6848 0210 5A1C     		adds	r2, r3, #1
 6849 0212 FA77     		strb	r2, [r7, #31]
 6850 0214 1A46     		mov	r2, r3
 6851 0216 7B69     		ldr	r3, [r7, #20]
 6852 0218 1344     		add	r3, r3, r2
 6853 021a F022     		movs	r2, #240
 6854 021c 1A71     		strb	r2, [r3, #4]
1669:.\AdvantageImpl.c **** ///////////////////////////////////////////////////////////////////////////////////////////////////
1670:.\AdvantageImpl.c ****             
1671:.\AdvantageImpl.c ****             puartdisp->_messagelength = index;
 6855              		.loc 1 1671 0
 6856 021e FB7F     		ldrb	r3, [r7, #31]	@ zero_extendqisi2
 6857 0220 9AB2     		uxth	r2, r3
 6858 0222 7B69     		ldr	r3, [r7, #20]
 6859 0224 5A80     		strh	r2, [r3, #2]	@ movhi
1672:.\AdvantageImpl.c ****             puartdisp->_messagestate = PENDING;
 6860              		.loc 1 1672 0
 6861 0226 7B69     		ldr	r3, [r7, #20]
 6862 0228 C222     		movs	r2, #194
 6863 022a 1A70     		strb	r2, [r3]
 6864              	.L242:
 6865              	.LBE49:
1673:.\AdvantageImpl.c ****         }
1674:.\AdvantageImpl.c ****         ppump->_restoreprice = false;
 6866              		.loc 1 1674 0
 6867 022c BB69     		ldr	r3, [r7, #24]
 6868 022e 0022     		movs	r2, #0
 6869 0230 DA71     		strb	r2, [r3, #7]
 6870              	.L240:
 6871              	.LBE48:
1675:.\AdvantageImpl.c ****         //This lock is to force the operator to activate/deactivate the hose once the credit transa
1676:.\AdvantageImpl.c ****         #ifdef CREDIT_SALE_PUMP_LOCK
1677:.\AdvantageImpl.c ****         ppump->_pumplocked = true;
1678:.\AdvantageImpl.c ****         #endif
1679:.\AdvantageImpl.c ****     }    
1680:.\AdvantageImpl.c **** }
 6872              		.loc 1 1680 0
 6873 0232 2437     		adds	r7, r7, #36
 6874              		.cfi_def_cfa_offset 12
 6875 0234 BD46     		mov	sp, r7
 6876              		.cfi_def_cfa_register 13
 6877              		@ sp needed
 6878 0236 90BD     		pop	{r4, r7, pc}
 6879              	.L258:
 6880              		.align	2
 6881              	.L257:
 6882 0238 00000000 		.word	_g_dispenserlayoutinfo
 6883              		.cfi_endproc
 6884              	.LFE87:
 6885              		.size	PumpCredit2DefaultPpuChange, .-PumpCredit2DefaultPpuChange
 6886              		.section	.text.PumpStopRequest,"ax",%progbits
 6887              		.align	2
ARM GAS  C:\Users\RECEPC~1\AppData\Local\Temp\cc7aDVfG.s 			page 152


 6888              		.global	PumpStopRequest
 6889              		.thumb
 6890              		.thumb_func
 6891              		.type	PumpStopRequest, %function
 6892              	PumpStopRequest:
 6893              	.LFB88:
1681:.\AdvantageImpl.c **** 
1682:.\AdvantageImpl.c **** //@Created By: HIJH
1683:.\AdvantageImpl.c **** //@Septembre de 2016
1684:.\AdvantageImpl.c **** void PumpStopRequest(void *pparam)
1685:.\AdvantageImpl.c **** {
 6894              		.loc 1 1685 0
 6895              		.cfi_startproc
 6896              		@ args = 0, pretend = 0, frame = 24
 6897              		@ frame_needed = 1, uses_anonymous_args = 0
 6898 0000 80B5     		push	{r7, lr}
 6899              		.cfi_def_cfa_offset 8
 6900              		.cfi_offset 7, -8
 6901              		.cfi_offset 14, -4
 6902 0002 86B0     		sub	sp, sp, #24
 6903              		.cfi_def_cfa_offset 32
 6904 0004 00AF     		add	r7, sp, #0
 6905              		.cfi_def_cfa_register 7
 6906 0006 7860     		str	r0, [r7, #4]
1686:.\AdvantageImpl.c ****     PNEAR_PUMPPTR ppump = (PNEAR_PUMPPTR)pparam;
 6907              		.loc 1 1686 0
 6908 0008 7B68     		ldr	r3, [r7, #4]
 6909 000a 7B61     		str	r3, [r7, #20]
1687:.\AdvantageImpl.c ****     if(ppump)
 6910              		.loc 1 1687 0
 6911 000c 7B69     		ldr	r3, [r7, #20]
 6912 000e 002B     		cmp	r3, #0
 6913 0010 28D0     		beq	.L259
 6914              	.LBB52:
1688:.\AdvantageImpl.c ****     {                
1689:.\AdvantageImpl.c ****         uint8_t index = 0;
 6915              		.loc 1 1689 0
 6916 0012 0023     		movs	r3, #0
 6917 0014 FB74     		strb	r3, [r7, #19]
1690:.\AdvantageImpl.c ****         memset(ppump->_rxbuffer, 0x00, _PUMP_RX_BUFFER_SIZE_);
 6918              		.loc 1 1690 0
 6919 0016 7B69     		ldr	r3, [r7, #20]
 6920 0018 03F5D073 		add	r3, r3, #416
 6921 001c 1846     		mov	r0, r3
 6922 001e 0021     		movs	r1, #0
 6923 0020 4FF4C072 		mov	r2, #384
 6924 0024 FFF7FEFF 		bl	memset
1691:.\AdvantageImpl.c ****         PUARTMESSAGEPTR puartdisp = GetUARTMessageSlot(UART_DISPENSER);
 6925              		.loc 1 1691 0
 6926 0028 A220     		movs	r0, #162
 6927 002a FFF7FEFF 		bl	GetUARTMessageSlot
 6928 002e F860     		str	r0, [r7, #12]
1692:.\AdvantageImpl.c ****         if(puartdisp)
 6929              		.loc 1 1692 0
 6930 0030 FB68     		ldr	r3, [r7, #12]
 6931 0032 002B     		cmp	r3, #0
 6932 0034 16D0     		beq	.L259
ARM GAS  C:\Users\RECEPC~1\AppData\Local\Temp\cc7aDVfG.s 			page 153


1693:.\AdvantageImpl.c ****         {
1694:.\AdvantageImpl.c ****             //Just one byte for the response
1695:.\AdvantageImpl.c ****             puartdisp->_messagetx[index++] = PUMP_COMMAND(PUMP_PUMP_STOP, ppump->_pumpid);
 6933              		.loc 1 1695 0
 6934 0036 FB7C     		ldrb	r3, [r7, #19]	@ zero_extendqisi2
 6935 0038 5A1C     		adds	r2, r3, #1
 6936 003a FA74     		strb	r2, [r7, #19]
 6937 003c 1946     		mov	r1, r3
 6938 003e 7B69     		ldr	r3, [r7, #20]
 6939 0040 1B78     		ldrb	r3, [r3]	@ zero_extendqisi2
 6940 0042 DBB2     		uxtb	r3, r3
 6941 0044 03F00F03 		and	r3, r3, #15
 6942 0048 DBB2     		uxtb	r3, r3
 6943 004a 43F03003 		orr	r3, r3, #48
 6944 004e DBB2     		uxtb	r3, r3
 6945 0050 DAB2     		uxtb	r2, r3
 6946 0052 FB68     		ldr	r3, [r7, #12]
 6947 0054 0B44     		add	r3, r3, r1
 6948 0056 1A71     		strb	r2, [r3, #4]
1696:.\AdvantageImpl.c ****             puartdisp->_messagelength = 1;//One byte
 6949              		.loc 1 1696 0
 6950 0058 FB68     		ldr	r3, [r7, #12]
 6951 005a 0122     		movs	r2, #1
 6952 005c 5A80     		strh	r2, [r3, #2]	@ movhi
1697:.\AdvantageImpl.c ****             puartdisp->_messagestate = PENDING;
 6953              		.loc 1 1697 0
 6954 005e FB68     		ldr	r3, [r7, #12]
 6955 0060 C222     		movs	r2, #194
 6956 0062 1A70     		strb	r2, [r3]
 6957              	.L259:
 6958              	.LBE52:
1698:.\AdvantageImpl.c ****         }        
1699:.\AdvantageImpl.c ****     }
1700:.\AdvantageImpl.c **** }
 6959              		.loc 1 1700 0
 6960 0064 1837     		adds	r7, r7, #24
 6961              		.cfi_def_cfa_offset 8
 6962 0066 BD46     		mov	sp, r7
 6963              		.cfi_def_cfa_register 13
 6964              		@ sp needed
 6965 0068 80BD     		pop	{r7, pc}
 6966              		.cfi_endproc
 6967              	.LFE88:
 6968              		.size	PumpStopRequest, .-PumpStopRequest
 6969 006a 00BF     		.section	.text.PumpStopAllRequest,"ax",%progbits
 6970              		.align	2
 6971              		.global	PumpStopAllRequest
 6972              		.thumb
 6973              		.thumb_func
 6974              		.type	PumpStopAllRequest, %function
 6975              	PumpStopAllRequest:
 6976              	.LFB89:
1701:.\AdvantageImpl.c **** 
1702:.\AdvantageImpl.c **** //@Created By: HIJH
1703:.\AdvantageImpl.c **** //@Septembre de 2016
1704:.\AdvantageImpl.c **** void PumpStopAllRequest(void *pparam)
1705:.\AdvantageImpl.c **** {
ARM GAS  C:\Users\RECEPC~1\AppData\Local\Temp\cc7aDVfG.s 			page 154


 6977              		.loc 1 1705 0
 6978              		.cfi_startproc
 6979              		@ args = 0, pretend = 0, frame = 24
 6980              		@ frame_needed = 1, uses_anonymous_args = 0
 6981 0000 80B5     		push	{r7, lr}
 6982              		.cfi_def_cfa_offset 8
 6983              		.cfi_offset 7, -8
 6984              		.cfi_offset 14, -4
 6985 0002 86B0     		sub	sp, sp, #24
 6986              		.cfi_def_cfa_offset 32
 6987 0004 00AF     		add	r7, sp, #0
 6988              		.cfi_def_cfa_register 7
 6989 0006 7860     		str	r0, [r7, #4]
1706:.\AdvantageImpl.c ****     PNEAR_PUMPPTR ppump = (PNEAR_PUMPPTR)pparam;
 6990              		.loc 1 1706 0
 6991 0008 7B68     		ldr	r3, [r7, #4]
 6992 000a 7B61     		str	r3, [r7, #20]
1707:.\AdvantageImpl.c ****     if(ppump)
 6993              		.loc 1 1707 0
 6994 000c 7B69     		ldr	r3, [r7, #20]
 6995 000e 002B     		cmp	r3, #0
 6996 0010 23D0     		beq	.L261
 6997              	.LBB53:
1708:.\AdvantageImpl.c ****     {                
1709:.\AdvantageImpl.c ****         uint8_t index = 0;
 6998              		.loc 1 1709 0
 6999 0012 0023     		movs	r3, #0
 7000 0014 FB74     		strb	r3, [r7, #19]
1710:.\AdvantageImpl.c ****         memset(ppump->_rxbuffer, 0x00, _PUMP_RX_BUFFER_SIZE_);
 7001              		.loc 1 1710 0
 7002 0016 7B69     		ldr	r3, [r7, #20]
 7003 0018 03F5D073 		add	r3, r3, #416
 7004 001c 1846     		mov	r0, r3
 7005 001e 0021     		movs	r1, #0
 7006 0020 4FF4C072 		mov	r2, #384
 7007 0024 FFF7FEFF 		bl	memset
1711:.\AdvantageImpl.c ****         PUARTMESSAGEPTR puartdisp = GetUARTMessageSlot(UART_DISPENSER);
 7008              		.loc 1 1711 0
 7009 0028 A220     		movs	r0, #162
 7010 002a FFF7FEFF 		bl	GetUARTMessageSlot
 7011 002e F860     		str	r0, [r7, #12]
1712:.\AdvantageImpl.c ****         if(puartdisp)
 7012              		.loc 1 1712 0
 7013 0030 FB68     		ldr	r3, [r7, #12]
 7014 0032 002B     		cmp	r3, #0
 7015 0034 11D0     		beq	.L261
1713:.\AdvantageImpl.c ****         {
1714:.\AdvantageImpl.c ****             //Just one byte for the response
1715:.\AdvantageImpl.c ****             puartdisp->_messagetx[index++] = PUMP_COMMAND(PUMP_ALL_PUMPS_STOP, ppump->_pumpid);
 7016              		.loc 1 1715 0
 7017 0036 FB7C     		ldrb	r3, [r7, #19]	@ zero_extendqisi2
 7018 0038 5A1C     		adds	r2, r3, #1
 7019 003a FA74     		strb	r2, [r7, #19]
 7020 003c 1946     		mov	r1, r3
 7021 003e 7B69     		ldr	r3, [r7, #20]
 7022 0040 1B78     		ldrb	r3, [r3]	@ zero_extendqisi2
 7023 0042 63F00F03 		orn	r3, r3, #15
ARM GAS  C:\Users\RECEPC~1\AppData\Local\Temp\cc7aDVfG.s 			page 155


 7024 0046 DAB2     		uxtb	r2, r3
 7025 0048 FB68     		ldr	r3, [r7, #12]
 7026 004a 0B44     		add	r3, r3, r1
 7027 004c 1A71     		strb	r2, [r3, #4]
1716:.\AdvantageImpl.c ****             puartdisp->_messagelength = 1;//One byte
 7028              		.loc 1 1716 0
 7029 004e FB68     		ldr	r3, [r7, #12]
 7030 0050 0122     		movs	r2, #1
 7031 0052 5A80     		strh	r2, [r3, #2]	@ movhi
1717:.\AdvantageImpl.c ****             puartdisp->_messagestate = PENDING;
 7032              		.loc 1 1717 0
 7033 0054 FB68     		ldr	r3, [r7, #12]
 7034 0056 C222     		movs	r2, #194
 7035 0058 1A70     		strb	r2, [r3]
 7036              	.L261:
 7037              	.LBE53:
1718:.\AdvantageImpl.c ****         }        
1719:.\AdvantageImpl.c ****     }
1720:.\AdvantageImpl.c **** }
 7038              		.loc 1 1720 0
 7039 005a 1837     		adds	r7, r7, #24
 7040              		.cfi_def_cfa_offset 8
 7041 005c BD46     		mov	sp, r7
 7042              		.cfi_def_cfa_register 13
 7043              		@ sp needed
 7044 005e 80BD     		pop	{r7, pc}
 7045              		.cfi_endproc
 7046              	.LFE89:
 7047              		.size	PumpStopAllRequest, .-PumpStopAllRequest
 7048              		.section	.text.PumpCompleteConfiguration,"ax",%progbits
 7049              		.align	2
 7050              		.global	PumpCompleteConfiguration
 7051              		.thumb
 7052              		.thumb_func
 7053              		.type	PumpCompleteConfiguration, %function
 7054              	PumpCompleteConfiguration:
 7055              	.LFB90:
1721:.\AdvantageImpl.c **** 
1722:.\AdvantageImpl.c **** //@Created By: HIJH
1723:.\AdvantageImpl.c **** //@Septembre de 2016
1724:.\AdvantageImpl.c **** void PumpCompleteConfiguration(LPVOID pparam)
1725:.\AdvantageImpl.c **** {
 7056              		.loc 1 1725 0
 7057              		.cfi_startproc
 7058              		@ args = 0, pretend = 0, frame = 24
 7059              		@ frame_needed = 1, uses_anonymous_args = 0
 7060 0000 90B5     		push	{r4, r7, lr}
 7061              		.cfi_def_cfa_offset 12
 7062              		.cfi_offset 4, -12
 7063              		.cfi_offset 7, -8
 7064              		.cfi_offset 14, -4
 7065 0002 87B0     		sub	sp, sp, #28
 7066              		.cfi_def_cfa_offset 40
 7067 0004 00AF     		add	r7, sp, #0
 7068              		.cfi_def_cfa_register 7
 7069 0006 7860     		str	r0, [r7, #4]
1726:.\AdvantageImpl.c ****     PNEAR_PUMPPTR ppump = (PNEAR_PUMPPTR)pparam;
ARM GAS  C:\Users\RECEPC~1\AppData\Local\Temp\cc7aDVfG.s 			page 156


 7070              		.loc 1 1726 0
 7071 0008 7B68     		ldr	r3, [r7, #4]
 7072 000a 7B61     		str	r3, [r7, #20]
1727:.\AdvantageImpl.c ****     if(ppump)
 7073              		.loc 1 1727 0
 7074 000c 7B69     		ldr	r3, [r7, #20]
 7075 000e 002B     		cmp	r3, #0
 7076 0010 66D0     		beq	.L263
 7077              	.LBB54:
1728:.\AdvantageImpl.c ****     {
1729:.\AdvantageImpl.c ****         uint8_t index = 0;  
 7078              		.loc 1 1729 0
 7079 0012 0023     		movs	r3, #0
 7080 0014 FB74     		strb	r3, [r7, #19]
1730:.\AdvantageImpl.c ****         memset(ppump->_rxbuffer, 0x00, _PUMP_RX_BUFFER_SIZE_);
 7081              		.loc 1 1730 0
 7082 0016 7B69     		ldr	r3, [r7, #20]
 7083 0018 03F5D073 		add	r3, r3, #416
 7084 001c 1846     		mov	r0, r3
 7085 001e 0021     		movs	r1, #0
 7086 0020 4FF4C072 		mov	r2, #384
 7087 0024 FFF7FEFF 		bl	memset
1731:.\AdvantageImpl.c ****         PUARTMESSAGEPTR puartdisp = GetUARTMessageSlot(UART_DISPENSER);
 7088              		.loc 1 1731 0
 7089 0028 A220     		movs	r0, #162
 7090 002a FFF7FEFF 		bl	GetUARTMessageSlot
 7091 002e F860     		str	r0, [r7, #12]
1732:.\AdvantageImpl.c ****         if(puartdisp)
 7092              		.loc 1 1732 0
 7093 0030 FB68     		ldr	r3, [r7, #12]
 7094 0032 002B     		cmp	r3, #0
 7095 0034 54D0     		beq	.L263
1733:.\AdvantageImpl.c ****         {
1734:.\AdvantageImpl.c **** ///////////////////////////////////////////////////////////////////////////////////////////////////
1735:.\AdvantageImpl.c ****             puartdisp->_messagetx[index++] = SOM;//Start Of Message
 7096              		.loc 1 1735 0
 7097 0036 FB7C     		ldrb	r3, [r7, #19]	@ zero_extendqisi2
 7098 0038 5A1C     		adds	r2, r3, #1
 7099 003a FA74     		strb	r2, [r7, #19]
 7100 003c 1A46     		mov	r2, r3
 7101 003e FB68     		ldr	r3, [r7, #12]
 7102 0040 1344     		add	r3, r3, r2
 7103 0042 FF22     		movs	r2, #255
 7104 0044 1A71     		strb	r2, [r3, #4]
1736:.\AdvantageImpl.c ****             puartdisp->_messagetx[index++] = 0xE9;//Data Length
 7105              		.loc 1 1736 0
 7106 0046 FB7C     		ldrb	r3, [r7, #19]	@ zero_extendqisi2
 7107 0048 5A1C     		adds	r2, r3, #1
 7108 004a FA74     		strb	r2, [r7, #19]
 7109 004c 1A46     		mov	r2, r3
 7110 004e FB68     		ldr	r3, [r7, #12]
 7111 0050 1344     		add	r3, r3, r2
 7112 0052 E922     		movs	r2, #233
 7113 0054 1A71     		strb	r2, [r3, #4]
1737:.\AdvantageImpl.c ****             puartdisp->_messagetx[index++] = 0xFE;//Special Functions Next (0xB0 0xB0 0xBE)
 7114              		.loc 1 1737 0
 7115 0056 FB7C     		ldrb	r3, [r7, #19]	@ zero_extendqisi2
ARM GAS  C:\Users\RECEPC~1\AppData\Local\Temp\cc7aDVfG.s 			page 157


 7116 0058 5A1C     		adds	r2, r3, #1
 7117 005a FA74     		strb	r2, [r7, #19]
 7118 005c 1A46     		mov	r2, r3
 7119 005e FB68     		ldr	r3, [r7, #12]
 7120 0060 1344     		add	r3, r3, r2
 7121 0062 FE22     		movs	r2, #254
 7122 0064 1A71     		strb	r2, [r3, #4]
1738:.\AdvantageImpl.c ****             puartdisp->_messagetx[index++] = 0xEE;//Complete Pump Configuration Request (sf1)
 7123              		.loc 1 1738 0
 7124 0066 FB7C     		ldrb	r3, [r7, #19]	@ zero_extendqisi2
 7125 0068 5A1C     		adds	r2, r3, #1
 7126 006a FA74     		strb	r2, [r7, #19]
 7127 006c 1A46     		mov	r2, r3
 7128 006e FB68     		ldr	r3, [r7, #12]
 7129 0070 1344     		add	r3, r3, r2
 7130 0072 EE22     		movs	r2, #238
 7131 0074 1A71     		strb	r2, [r3, #4]
1739:.\AdvantageImpl.c ****             puartdisp->_messagetx[index++] = 0xE0;//Complete Pump Configuration Request (sf2)
 7132              		.loc 1 1739 0
 7133 0076 FB7C     		ldrb	r3, [r7, #19]	@ zero_extendqisi2
 7134 0078 5A1C     		adds	r2, r3, #1
 7135 007a FA74     		strb	r2, [r7, #19]
 7136 007c 1A46     		mov	r2, r3
 7137 007e FB68     		ldr	r3, [r7, #12]
 7138 0080 1344     		add	r3, r3, r2
 7139 0082 E022     		movs	r2, #224
 7140 0084 1A71     		strb	r2, [r3, #4]
1740:.\AdvantageImpl.c ****             puartdisp->_messagetx[index++] = 0xE0;//Complete Pump Configuration Request (sf3)
 7141              		.loc 1 1740 0
 7142 0086 FB7C     		ldrb	r3, [r7, #19]	@ zero_extendqisi2
 7143 0088 5A1C     		adds	r2, r3, #1
 7144 008a FA74     		strb	r2, [r7, #19]
 7145 008c 1A46     		mov	r2, r3
 7146 008e FB68     		ldr	r3, [r7, #12]
 7147 0090 1344     		add	r3, r3, r2
 7148 0092 E022     		movs	r2, #224
 7149 0094 1A71     		strb	r2, [r3, #4]
1741:.\AdvantageImpl.c ****             puartdisp->_messagetx[index++] = 0xFB;
 7150              		.loc 1 1741 0
 7151 0096 FB7C     		ldrb	r3, [r7, #19]	@ zero_extendqisi2
 7152 0098 5A1C     		adds	r2, r3, #1
 7153 009a FA74     		strb	r2, [r7, #19]
 7154 009c 1A46     		mov	r2, r3
 7155 009e FB68     		ldr	r3, [r7, #12]
 7156 00a0 1344     		add	r3, r3, r2
 7157 00a2 FB22     		movs	r2, #251
 7158 00a4 1A71     		strb	r2, [r3, #4]
1742:.\AdvantageImpl.c ****             puartdisp->_messagetx[index++] = GetLRC(puartdisp->_messagetx);
 7159              		.loc 1 1742 0
 7160 00a6 FB7C     		ldrb	r3, [r7, #19]	@ zero_extendqisi2
 7161 00a8 5A1C     		adds	r2, r3, #1
 7162 00aa FA74     		strb	r2, [r7, #19]
 7163 00ac 1C46     		mov	r4, r3
 7164 00ae FB68     		ldr	r3, [r7, #12]
 7165 00b0 0433     		adds	r3, r3, #4
 7166 00b2 1846     		mov	r0, r3
 7167 00b4 FFF7FEFF 		bl	GetLRC
ARM GAS  C:\Users\RECEPC~1\AppData\Local\Temp\cc7aDVfG.s 			page 158


 7168 00b8 0346     		mov	r3, r0
 7169 00ba 1A46     		mov	r2, r3
 7170 00bc FB68     		ldr	r3, [r7, #12]
 7171 00be 2344     		add	r3, r3, r4
 7172 00c0 1A71     		strb	r2, [r3, #4]
1743:.\AdvantageImpl.c ****             puartdisp->_messagetx[index++] = EOM;
 7173              		.loc 1 1743 0
 7174 00c2 FB7C     		ldrb	r3, [r7, #19]	@ zero_extendqisi2
 7175 00c4 5A1C     		adds	r2, r3, #1
 7176 00c6 FA74     		strb	r2, [r7, #19]
 7177 00c8 1A46     		mov	r2, r3
 7178 00ca FB68     		ldr	r3, [r7, #12]
 7179 00cc 1344     		add	r3, r3, r2
 7180 00ce F022     		movs	r2, #240
 7181 00d0 1A71     		strb	r2, [r3, #4]
1744:.\AdvantageImpl.c **** ///////////////////////////////////////////////////////////////////////////////////////////////////
1745:.\AdvantageImpl.c ****             
1746:.\AdvantageImpl.c ****             puartdisp->_messagelength = index;
 7182              		.loc 1 1746 0
 7183 00d2 FB7C     		ldrb	r3, [r7, #19]	@ zero_extendqisi2
 7184 00d4 9AB2     		uxth	r2, r3
 7185 00d6 FB68     		ldr	r3, [r7, #12]
 7186 00d8 5A80     		strh	r2, [r3, #2]	@ movhi
1747:.\AdvantageImpl.c ****             puartdisp->_messagestate = PENDING;
 7187              		.loc 1 1747 0
 7188 00da FB68     		ldr	r3, [r7, #12]
 7189 00dc C222     		movs	r2, #194
 7190 00de 1A70     		strb	r2, [r3]
 7191              	.L263:
 7192              	.LBE54:
1748:.\AdvantageImpl.c ****         }
1749:.\AdvantageImpl.c ****     }
1750:.\AdvantageImpl.c **** }
 7193              		.loc 1 1750 0
 7194 00e0 1C37     		adds	r7, r7, #28
 7195              		.cfi_def_cfa_offset 12
 7196 00e2 BD46     		mov	sp, r7
 7197              		.cfi_def_cfa_register 13
 7198              		@ sp needed
 7199 00e4 90BD     		pop	{r4, r7, pc}
 7200              		.cfi_endproc
 7201              	.LFE90:
 7202              		.size	PumpCompleteConfiguration, .-PumpCompleteConfiguration
 7203 00e6 00BF     		.section	.text.AcquirePumpCompleteConfiguration,"ax",%progbits
 7204              		.align	2
 7205              		.global	AcquirePumpCompleteConfiguration
 7206              		.thumb
 7207              		.thumb_func
 7208              		.type	AcquirePumpCompleteConfiguration, %function
 7209              	AcquirePumpCompleteConfiguration:
 7210              	.LFB91:
1751:.\AdvantageImpl.c **** 
1752:.\AdvantageImpl.c **** //@Created By: HIJH
1753:.\AdvantageImpl.c **** //@Date: Septembre de 2016
1754:.\AdvantageImpl.c **** //Receives the complete pump configuration information
1755:.\AdvantageImpl.c **** void AcquirePumpCompleteConfiguration(void *pparam)
1756:.\AdvantageImpl.c **** {
ARM GAS  C:\Users\RECEPC~1\AppData\Local\Temp\cc7aDVfG.s 			page 159


 7211              		.loc 1 1756 0
 7212              		.cfi_startproc
 7213              		@ args = 0, pretend = 0, frame = 32
 7214              		@ frame_needed = 1, uses_anonymous_args = 0
 7215 0000 90B5     		push	{r4, r7, lr}
 7216              		.cfi_def_cfa_offset 12
 7217              		.cfi_offset 4, -12
 7218              		.cfi_offset 7, -8
 7219              		.cfi_offset 14, -4
 7220 0002 89B0     		sub	sp, sp, #36
 7221              		.cfi_def_cfa_offset 48
 7222 0004 00AF     		add	r7, sp, #0
 7223              		.cfi_def_cfa_register 7
 7224 0006 7860     		str	r0, [r7, #4]
1757:.\AdvantageImpl.c ****     PPUMPTRANSACTIONJOBCONTEXTPTR pjob = (PPUMPTRANSACTIONJOBCONTEXTPTR)pparam;
 7225              		.loc 1 1757 0
 7226 0008 7B68     		ldr	r3, [r7, #4]
 7227 000a BB61     		str	r3, [r7, #24]
1758:.\AdvantageImpl.c ****     if(pjob)    
 7228              		.loc 1 1758 0
 7229 000c BB69     		ldr	r3, [r7, #24]
 7230 000e 002B     		cmp	r3, #0
 7231 0010 00F01E82 		beq	.L265
 7232              	.LBB55:
1759:.\AdvantageImpl.c ****     {
1760:.\AdvantageImpl.c ****         uint8 index = 0;
 7233              		.loc 1 1760 0
 7234 0014 0023     		movs	r3, #0
 7235 0016 FB75     		strb	r3, [r7, #23]
1761:.\AdvantageImpl.c ****         //NOT USED!! JUST FOR DEBUGGING PURPOSES!
1762:.\AdvantageImpl.c ****         //The "index" variable has been kept in some lines of code just for reference.
1763:.\AdvantageImpl.c ****         uint8 remblocks = (TranslateSpecialFuncionDigit(pjob->_ppump->_rxbuffer[7 + 45*index]) << 0
 7236              		.loc 1 1763 0
 7237 0018 BB69     		ldr	r3, [r7, #24]
 7238 001a D969     		ldr	r1, [r3, #28]
 7239 001c FA7D     		ldrb	r2, [r7, #23]	@ zero_extendqisi2
 7240 001e 1346     		mov	r3, r2
 7241 0020 5B00     		lsls	r3, r3, #1
 7242 0022 1344     		add	r3, r3, r2
 7243 0024 1A01     		lsls	r2, r3, #4
 7244 0026 D31A     		subs	r3, r2, r3
 7245 0028 0733     		adds	r3, r3, #7
 7246 002a 0B44     		add	r3, r3, r1
 7247 002c 93F8A031 		ldrb	r3, [r3, #416]	@ zero_extendqisi2
 7248 0030 1846     		mov	r0, r3
 7249 0032 FFF7FEFF 		bl	TranslateSpecialFuncionDigit
 7250 0036 0346     		mov	r3, r0
 7251 0038 1B01     		lsls	r3, r3, #4
 7252 003a DCB2     		uxtb	r4, r3
 7253 003c BB69     		ldr	r3, [r7, #24]
 7254 003e D969     		ldr	r1, [r3, #28]
 7255 0040 FA7D     		ldrb	r2, [r7, #23]	@ zero_extendqisi2
 7256 0042 1346     		mov	r3, r2
 7257 0044 5B00     		lsls	r3, r3, #1
 7258 0046 1344     		add	r3, r3, r2
 7259 0048 1A01     		lsls	r2, r3, #4
 7260 004a D31A     		subs	r3, r2, r3
ARM GAS  C:\Users\RECEPC~1\AppData\Local\Temp\cc7aDVfG.s 			page 160


 7261 004c 0833     		adds	r3, r3, #8
 7262 004e 0B44     		add	r3, r3, r1
 7263 0050 93F8A031 		ldrb	r3, [r3, #416]	@ zero_extendqisi2
 7264 0054 1846     		mov	r0, r3
 7265 0056 FFF7FEFF 		bl	TranslateSpecialFuncionDigit
 7266 005a 0346     		mov	r3, r0
 7267 005c DBB2     		uxtb	r3, r3
 7268 005e 2246     		mov	r2, r4
 7269 0060 1343     		orrs	r3, r3, r2
 7270 0062 DBB2     		uxtb	r3, r3
 7271 0064 BB75     		strb	r3, [r7, #22]
1764:.\AdvantageImpl.c ****         //HERE WE ACQUIRE THE MISCELLANEOUS PUMP CONFIGURATION INFORMATION AND STORE IT INTO
1765:.\AdvantageImpl.c ****         //THE PERSISTENT FILE SYSTEM (EEPROM)        
1766:.\AdvantageImpl.c ****         if(pjob->_ppump->_rxbuffer[0x00] == 0xBA)
 7272              		.loc 1 1766 0
 7273 0066 BB69     		ldr	r3, [r7, #24]
 7274 0068 DB69     		ldr	r3, [r3, #28]
 7275 006a 93F8A031 		ldrb	r3, [r3, #416]	@ zero_extendqisi2
 7276 006e BA2B     		cmp	r3, #186
 7277 0070 40F0EE81 		bne	.L265
 7278              	.LBB56:
1767:.\AdvantageImpl.c ****         {
1768:.\AdvantageImpl.c ****             pjob->_ppump->_transhealth = _PUMP_OK_;   
 7279              		.loc 1 1768 0
 7280 0074 BB69     		ldr	r3, [r7, #24]
 7281 0076 DB69     		ldr	r3, [r3, #28]
 7282 0078 0122     		movs	r2, #1
 7283 007a 1A76     		strb	r2, [r3, #24]
1769:.\AdvantageImpl.c ****             ClearEepromBuffer();
 7284              		.loc 1 1769 0
 7285 007c FFF7FEFF 		bl	ClearEepromBuffer
1770:.\AdvantageImpl.c ****             bool targetmemoryareafound = false;
 7286              		.loc 1 1770 0
 7287 0080 0023     		movs	r3, #0
 7288 0082 FB77     		strb	r3, [r7, #31]
1771:.\AdvantageImpl.c ****             uint16 eeprompumpconfigmemorypageid = 0;
 7289              		.loc 1 1771 0
 7290 0084 0023     		movs	r3, #0
 7291 0086 BB83     		strh	r3, [r7, #28]	@ movhi
1772:.\AdvantageImpl.c ****             //WE ALWAYS READ THE PAGE FROM THE EEPROM BEFORE SINCE AFTER MODIFYING ANY FIELD IT MUS
1773:.\AdvantageImpl.c ****             eeprompumpconfigmemorypageid = (uint16)EEPROM_DISPENSER_PUMP1_LAYOUT_PAGE;
 7292              		.loc 1 1773 0
 7293 0088 4FF40073 		mov	r3, #512
 7294 008c BB83     		strh	r3, [r7, #28]	@ movhi
1774:.\AdvantageImpl.c ****             LoadEepromPage(eeprompumpconfigmemorypageid);
 7295              		.loc 1 1774 0
 7296 008e BB8B     		ldrh	r3, [r7, #28]
 7297 0090 1846     		mov	r0, r3
 7298 0092 FFF7FEFF 		bl	LoadEepromPage
1775:.\AdvantageImpl.c ****             if(TranslateSpecialFuncionDigit(pjob->_ppump->_rxbuffer[0x03]) != (GetEepromBuffer()[0x
 7299              		.loc 1 1775 0
 7300 0096 BB69     		ldr	r3, [r7, #24]
 7301 0098 DB69     		ldr	r3, [r3, #28]
 7302 009a 93F8A331 		ldrb	r3, [r3, #419]	@ zero_extendqisi2
 7303 009e 1846     		mov	r0, r3
 7304 00a0 FFF7FEFF 		bl	TranslateSpecialFuncionDigit
 7305 00a4 0346     		mov	r3, r0
ARM GAS  C:\Users\RECEPC~1\AppData\Local\Temp\cc7aDVfG.s 			page 161


 7306 00a6 1C46     		mov	r4, r3
 7307 00a8 FFF7FEFF 		bl	GetEepromBuffer
 7308 00ac 0346     		mov	r3, r0
 7309 00ae 1B78     		ldrb	r3, [r3]	@ zero_extendqisi2
 7310 00b0 03F00F03 		and	r3, r3, #15
 7311 00b4 9C42     		cmp	r4, r3
 7312 00b6 50D0     		beq	.L267
1776:.\AdvantageImpl.c ****             {
1777:.\AdvantageImpl.c ****                 eeprompumpconfigmemorypageid = (uint16)EEPROM_DISPENSER_PUMP2_LAYOUT_PAGE;
 7313              		.loc 1 1777 0
 7314 00b8 4FF41073 		mov	r3, #576
 7315 00bc BB83     		strh	r3, [r7, #28]	@ movhi
1778:.\AdvantageImpl.c ****                 LoadEepromPage(eeprompumpconfigmemorypageid);
 7316              		.loc 1 1778 0
 7317 00be BB8B     		ldrh	r3, [r7, #28]
 7318 00c0 1846     		mov	r0, r3
 7319 00c2 FFF7FEFF 		bl	LoadEepromPage
1779:.\AdvantageImpl.c ****                 if(TranslateSpecialFuncionDigit(pjob->_ppump->_rxbuffer[0x03]) != (GetEepromBuffer(
 7320              		.loc 1 1779 0
 7321 00c6 BB69     		ldr	r3, [r7, #24]
 7322 00c8 DB69     		ldr	r3, [r3, #28]
 7323 00ca 93F8A331 		ldrb	r3, [r3, #419]	@ zero_extendqisi2
 7324 00ce 1846     		mov	r0, r3
 7325 00d0 FFF7FEFF 		bl	TranslateSpecialFuncionDigit
 7326 00d4 0346     		mov	r3, r0
 7327 00d6 1C46     		mov	r4, r3
 7328 00d8 FFF7FEFF 		bl	GetEepromBuffer
 7329 00dc 0346     		mov	r3, r0
 7330 00de 1B78     		ldrb	r3, [r3]	@ zero_extendqisi2
 7331 00e0 03F00F03 		and	r3, r3, #15
 7332 00e4 9C42     		cmp	r4, r3
 7333 00e6 35D0     		beq	.L268
1780:.\AdvantageImpl.c ****                 {
1781:.\AdvantageImpl.c ****                     eeprompumpconfigmemorypageid = (uint16)EEPROM_DISPENSER_PUMP3_LAYOUT_PAGE;
 7334              		.loc 1 1781 0
 7335 00e8 4FF42073 		mov	r3, #640
 7336 00ec BB83     		strh	r3, [r7, #28]	@ movhi
1782:.\AdvantageImpl.c ****                     LoadEepromPage(eeprompumpconfigmemorypageid);
 7337              		.loc 1 1782 0
 7338 00ee BB8B     		ldrh	r3, [r7, #28]
 7339 00f0 1846     		mov	r0, r3
 7340 00f2 FFF7FEFF 		bl	LoadEepromPage
1783:.\AdvantageImpl.c ****                     if(TranslateSpecialFuncionDigit(pjob->_ppump->_rxbuffer[0x03]) != (GetEepromBuf
 7341              		.loc 1 1783 0
 7342 00f6 BB69     		ldr	r3, [r7, #24]
 7343 00f8 DB69     		ldr	r3, [r3, #28]
 7344 00fa 93F8A331 		ldrb	r3, [r3, #419]	@ zero_extendqisi2
 7345 00fe 1846     		mov	r0, r3
 7346 0100 FFF7FEFF 		bl	TranslateSpecialFuncionDigit
 7347 0104 0346     		mov	r3, r0
 7348 0106 1C46     		mov	r4, r3
 7349 0108 FFF7FEFF 		bl	GetEepromBuffer
 7350 010c 0346     		mov	r3, r0
 7351 010e 1B78     		ldrb	r3, [r3]	@ zero_extendqisi2
 7352 0110 03F00F03 		and	r3, r3, #15
 7353 0114 9C42     		cmp	r4, r3
 7354 0116 1AD0     		beq	.L269
ARM GAS  C:\Users\RECEPC~1\AppData\Local\Temp\cc7aDVfG.s 			page 162


1784:.\AdvantageImpl.c ****                     {
1785:.\AdvantageImpl.c ****                         eeprompumpconfigmemorypageid = (uint16)EEPROM_DISPENSER_PUMP4_LAYOUT_PAGE;
 7355              		.loc 1 1785 0
 7356 0118 4FF43073 		mov	r3, #704
 7357 011c BB83     		strh	r3, [r7, #28]	@ movhi
1786:.\AdvantageImpl.c ****                         LoadEepromPage(eeprompumpconfigmemorypageid);
 7358              		.loc 1 1786 0
 7359 011e BB8B     		ldrh	r3, [r7, #28]
 7360 0120 1846     		mov	r0, r3
 7361 0122 FFF7FEFF 		bl	LoadEepromPage
1787:.\AdvantageImpl.c ****                         if(TranslateSpecialFuncionDigit(pjob->_ppump->_rxbuffer[0x03]) == (GetEepro
 7362              		.loc 1 1787 0
 7363 0126 BB69     		ldr	r3, [r7, #24]
 7364 0128 DB69     		ldr	r3, [r3, #28]
 7365 012a 93F8A331 		ldrb	r3, [r3, #419]	@ zero_extendqisi2
 7366 012e 1846     		mov	r0, r3
 7367 0130 FFF7FEFF 		bl	TranslateSpecialFuncionDigit
 7368 0134 0346     		mov	r3, r0
 7369 0136 1C46     		mov	r4, r3
 7370 0138 FFF7FEFF 		bl	GetEepromBuffer
 7371 013c 0346     		mov	r3, r0
 7372 013e 1B78     		ldrb	r3, [r3]	@ zero_extendqisi2
 7373 0140 03F00F03 		and	r3, r3, #15
 7374 0144 9C42     		cmp	r4, r3
 7375 0146 0AD1     		bne	.L273
1788:.\AdvantageImpl.c ****                             targetmemoryareafound = true;
 7376              		.loc 1 1788 0
 7377 0148 0123     		movs	r3, #1
 7378 014a FB77     		strb	r3, [r7, #31]
 7379 014c 07E0     		b	.L273
 7380              	.L269:
1789:.\AdvantageImpl.c ****                             
1790:.\AdvantageImpl.c ****                     }else
1791:.\AdvantageImpl.c ****                         targetmemoryareafound = true;
 7381              		.loc 1 1791 0
 7382 014e 0123     		movs	r3, #1
 7383 0150 FB77     		strb	r3, [r7, #31]
 7384 0152 04E0     		b	.L273
 7385              	.L268:
1792:.\AdvantageImpl.c ****                 }else
1793:.\AdvantageImpl.c ****                     targetmemoryareafound = true;
 7386              		.loc 1 1793 0
 7387 0154 0123     		movs	r3, #1
 7388 0156 FB77     		strb	r3, [r7, #31]
 7389 0158 01E0     		b	.L273
 7390              	.L267:
1794:.\AdvantageImpl.c ****             }else
1795:.\AdvantageImpl.c ****                 targetmemoryareafound = true;
 7391              		.loc 1 1795 0
 7392 015a 0123     		movs	r3, #1
 7393 015c FB77     		strb	r3, [r7, #31]
 7394              	.L273:
1796:.\AdvantageImpl.c ****             
1797:.\AdvantageImpl.c ****             ///////////////////////////////////////////////////////////////////////////////////////
1798:.\AdvantageImpl.c ****             //JUST RETURN SINCE IT MEANS THAT THE PUMP/POSITION IDENTIFIERS HAVE NOT YET BEEN DEFIN
1799:.\AdvantageImpl.c ****             if(!targetmemoryareafound)
 7395              		.loc 1 1799 0
ARM GAS  C:\Users\RECEPC~1\AppData\Local\Temp\cc7aDVfG.s 			page 163


 7396 015e FB7F     		ldrb	r3, [r7, #31]
 7397 0160 83F00103 		eor	r3, r3, #1
 7398 0164 DBB2     		uxtb	r3, r3
 7399 0166 002B     		cmp	r3, #0
 7400 0168 00D0     		beq	.L274
1800:.\AdvantageImpl.c ****                 return;
 7401              		.loc 1 1800 0
 7402 016a 71E1     		b	.L265
 7403              	.L274:
1801:.\AdvantageImpl.c ****                 
1802:.\AdvantageImpl.c ****             //THE FIRST 16 BYTES ARE RESERVED FOR LOCAL PUMP CONFIGURATION INFORMATION
1803:.\AdvantageImpl.c ****             LPRAWPTR ptreeprom = &(GetEepromBuffer()[0x10]);
 7404              		.loc 1 1803 0
 7405 016c FFF7FEFF 		bl	GetEepromBuffer
 7406 0170 0346     		mov	r3, r0
 7407 0172 1033     		adds	r3, r3, #16
 7408 0174 3B61     		str	r3, [r7, #16]
1804:.\AdvantageImpl.c ****             
1805:.\AdvantageImpl.c ****             uint8 blkindex = 0;
 7409              		.loc 1 1805 0
 7410 0176 0023     		movs	r3, #0
 7411 0178 FB73     		strb	r3, [r7, #15]
1806:.\AdvantageImpl.c ****             uint8 msglength = (TranslateSpecialFuncionDigit(pjob->_ppump->_rxbuffer[0x01]) << 0x04)
 7412              		.loc 1 1806 0
 7413 017a BB69     		ldr	r3, [r7, #24]
 7414 017c DB69     		ldr	r3, [r3, #28]
 7415 017e 93F8A131 		ldrb	r3, [r3, #417]	@ zero_extendqisi2
 7416 0182 1846     		mov	r0, r3
 7417 0184 FFF7FEFF 		bl	TranslateSpecialFuncionDigit
 7418 0188 0346     		mov	r3, r0
 7419 018a 1B01     		lsls	r3, r3, #4
 7420 018c DCB2     		uxtb	r4, r3
 7421 018e BB69     		ldr	r3, [r7, #24]
 7422 0190 DB69     		ldr	r3, [r3, #28]
 7423 0192 93F8A231 		ldrb	r3, [r3, #418]	@ zero_extendqisi2
 7424 0196 1846     		mov	r0, r3
 7425 0198 FFF7FEFF 		bl	TranslateSpecialFuncionDigit
 7426 019c 0346     		mov	r3, r0
 7427 019e DBB2     		uxtb	r3, r3
 7428 01a0 2246     		mov	r2, r4
 7429 01a2 1343     		orrs	r3, r3, r2
 7430 01a4 DBB2     		uxtb	r3, r3
 7431 01a6 BB73     		strb	r3, [r7, #14]
1807:.\AdvantageImpl.c ****             
1808:.\AdvantageImpl.c ****             //0
1809:.\AdvantageImpl.c ****             //Pump Type / Unit Type Code
1810:.\AdvantageImpl.c ****             *ptreeprom = ((TranslateSpecialFuncionDigit(pjob->_ppump->_rxbuffer[0x09 + 2*blkindex])
 7432              		.loc 1 1810 0
 7433 01a8 BB69     		ldr	r3, [r7, #24]
 7434 01aa DA69     		ldr	r2, [r3, #28]
 7435 01ac FB7B     		ldrb	r3, [r7, #15]	@ zero_extendqisi2
 7436 01ae 5B00     		lsls	r3, r3, #1
 7437 01b0 0933     		adds	r3, r3, #9
 7438 01b2 1344     		add	r3, r3, r2
 7439 01b4 93F8A031 		ldrb	r3, [r3, #416]	@ zero_extendqisi2
 7440 01b8 1846     		mov	r0, r3
 7441 01ba FFF7FEFF 		bl	TranslateSpecialFuncionDigit
ARM GAS  C:\Users\RECEPC~1\AppData\Local\Temp\cc7aDVfG.s 			page 164


 7442 01be 0346     		mov	r3, r0
 7443 01c0 1B01     		lsls	r3, r3, #4
 7444 01c2 DCB2     		uxtb	r4, r3
1811:.\AdvantageImpl.c ****                             (TranslateSpecialFuncionDigit(pjob->_ppump->_rxbuffer[0x09 + (2*blkinde
 7445              		.loc 1 1811 0
 7446 01c4 BB69     		ldr	r3, [r7, #24]
 7447 01c6 DA69     		ldr	r2, [r3, #28]
 7448 01c8 FB7B     		ldrb	r3, [r7, #15]	@ zero_extendqisi2
 7449 01ca 0533     		adds	r3, r3, #5
 7450 01cc 5B00     		lsls	r3, r3, #1
 7451 01ce 1344     		add	r3, r3, r2
 7452 01d0 93F8A031 		ldrb	r3, [r3, #416]	@ zero_extendqisi2
 7453 01d4 1846     		mov	r0, r3
 7454 01d6 FFF7FEFF 		bl	TranslateSpecialFuncionDigit
 7455 01da 0346     		mov	r3, r0
1810:.\AdvantageImpl.c ****                             (TranslateSpecialFuncionDigit(pjob->_ppump->_rxbuffer[0x09 + (2*blkinde
 7456              		.loc 1 1810 0
 7457 01dc DBB2     		uxtb	r3, r3
 7458 01de 03F00F03 		and	r3, r3, #15
 7459 01e2 DBB2     		uxtb	r3, r3
 7460 01e4 2246     		mov	r2, r4
 7461 01e6 1343     		orrs	r3, r3, r2
 7462 01e8 DBB2     		uxtb	r3, r3
 7463 01ea DAB2     		uxtb	r2, r3
 7464 01ec 3B69     		ldr	r3, [r7, #16]
 7465 01ee 1A70     		strb	r2, [r3]
1812:.\AdvantageImpl.c **** 
1813:.\AdvantageImpl.c ****             //1
1814:.\AdvantageImpl.c ****             ptreeprom++;
 7466              		.loc 1 1814 0
 7467 01f0 3B69     		ldr	r3, [r7, #16]
 7468 01f2 0133     		adds	r3, r3, #1
 7469 01f4 3B61     		str	r3, [r7, #16]
1815:.\AdvantageImpl.c ****             blkindex++;
 7470              		.loc 1 1815 0
 7471 01f6 FB7B     		ldrb	r3, [r7, #15]	@ zero_extendqisi2
 7472 01f8 0133     		adds	r3, r3, #1
 7473 01fa FB73     		strb	r3, [r7, #15]
1816:.\AdvantageImpl.c ****             //Conversion Factor Code
1817:.\AdvantageImpl.c ****             *ptreeprom = ((TranslateSpecialFuncionDigit(pjob->_ppump->_rxbuffer[0x09 + 2*blkindex])
 7474              		.loc 1 1817 0
 7475 01fc BB69     		ldr	r3, [r7, #24]
 7476 01fe DA69     		ldr	r2, [r3, #28]
 7477 0200 FB7B     		ldrb	r3, [r7, #15]	@ zero_extendqisi2
 7478 0202 5B00     		lsls	r3, r3, #1
 7479 0204 0933     		adds	r3, r3, #9
 7480 0206 1344     		add	r3, r3, r2
 7481 0208 93F8A031 		ldrb	r3, [r3, #416]	@ zero_extendqisi2
 7482 020c 1846     		mov	r0, r3
 7483 020e FFF7FEFF 		bl	TranslateSpecialFuncionDigit
 7484 0212 0346     		mov	r3, r0
 7485 0214 1B01     		lsls	r3, r3, #4
 7486 0216 DCB2     		uxtb	r4, r3
1818:.\AdvantageImpl.c ****                             (TranslateSpecialFuncionDigit(pjob->_ppump->_rxbuffer[0x09 + (2*blkinde
 7487              		.loc 1 1818 0
 7488 0218 BB69     		ldr	r3, [r7, #24]
 7489 021a DA69     		ldr	r2, [r3, #28]
ARM GAS  C:\Users\RECEPC~1\AppData\Local\Temp\cc7aDVfG.s 			page 165


 7490 021c FB7B     		ldrb	r3, [r7, #15]	@ zero_extendqisi2
 7491 021e 0533     		adds	r3, r3, #5
 7492 0220 5B00     		lsls	r3, r3, #1
 7493 0222 1344     		add	r3, r3, r2
 7494 0224 93F8A031 		ldrb	r3, [r3, #416]	@ zero_extendqisi2
 7495 0228 1846     		mov	r0, r3
 7496 022a FFF7FEFF 		bl	TranslateSpecialFuncionDigit
 7497 022e 0346     		mov	r3, r0
1817:.\AdvantageImpl.c ****                             (TranslateSpecialFuncionDigit(pjob->_ppump->_rxbuffer[0x09 + (2*blkinde
 7498              		.loc 1 1817 0
 7499 0230 DBB2     		uxtb	r3, r3
 7500 0232 03F00F03 		and	r3, r3, #15
 7501 0236 DBB2     		uxtb	r3, r3
 7502 0238 2246     		mov	r2, r4
 7503 023a 1343     		orrs	r3, r3, r2
 7504 023c DBB2     		uxtb	r3, r3
 7505 023e DAB2     		uxtb	r2, r3
 7506 0240 3B69     		ldr	r3, [r7, #16]
 7507 0242 1A70     		strb	r2, [r3]
1819:.\AdvantageImpl.c **** 
1820:.\AdvantageImpl.c ****             //2
1821:.\AdvantageImpl.c ****             ptreeprom++;
 7508              		.loc 1 1821 0
 7509 0244 3B69     		ldr	r3, [r7, #16]
 7510 0246 0133     		adds	r3, r3, #1
 7511 0248 3B61     		str	r3, [r7, #16]
1822:.\AdvantageImpl.c ****             blkindex++;
 7512              		.loc 1 1822 0
 7513 024a FB7B     		ldrb	r3, [r7, #15]	@ zero_extendqisi2
 7514 024c 0133     		adds	r3, r3, #1
 7515 024e FB73     		strb	r3, [r7, #15]
1823:.\AdvantageImpl.c ****             //Money Decimal Point Code
1824:.\AdvantageImpl.c ****             *ptreeprom = ((TranslateSpecialFuncionDigit(pjob->_ppump->_rxbuffer[0x09 + 2*blkindex])
 7516              		.loc 1 1824 0
 7517 0250 BB69     		ldr	r3, [r7, #24]
 7518 0252 DA69     		ldr	r2, [r3, #28]
 7519 0254 FB7B     		ldrb	r3, [r7, #15]	@ zero_extendqisi2
 7520 0256 5B00     		lsls	r3, r3, #1
 7521 0258 0933     		adds	r3, r3, #9
 7522 025a 1344     		add	r3, r3, r2
 7523 025c 93F8A031 		ldrb	r3, [r3, #416]	@ zero_extendqisi2
 7524 0260 1846     		mov	r0, r3
 7525 0262 FFF7FEFF 		bl	TranslateSpecialFuncionDigit
 7526 0266 0346     		mov	r3, r0
 7527 0268 1B01     		lsls	r3, r3, #4
 7528 026a DCB2     		uxtb	r4, r3
1825:.\AdvantageImpl.c ****                             (TranslateSpecialFuncionDigit(pjob->_ppump->_rxbuffer[0x09 + (2*blkinde
 7529              		.loc 1 1825 0
 7530 026c BB69     		ldr	r3, [r7, #24]
 7531 026e DA69     		ldr	r2, [r3, #28]
 7532 0270 FB7B     		ldrb	r3, [r7, #15]	@ zero_extendqisi2
 7533 0272 0533     		adds	r3, r3, #5
 7534 0274 5B00     		lsls	r3, r3, #1
 7535 0276 1344     		add	r3, r3, r2
 7536 0278 93F8A031 		ldrb	r3, [r3, #416]	@ zero_extendqisi2
 7537 027c 1846     		mov	r0, r3
 7538 027e FFF7FEFF 		bl	TranslateSpecialFuncionDigit
ARM GAS  C:\Users\RECEPC~1\AppData\Local\Temp\cc7aDVfG.s 			page 166


 7539 0282 0346     		mov	r3, r0
1824:.\AdvantageImpl.c ****                             (TranslateSpecialFuncionDigit(pjob->_ppump->_rxbuffer[0x09 + (2*blkinde
 7540              		.loc 1 1824 0
 7541 0284 DBB2     		uxtb	r3, r3
 7542 0286 03F00F03 		and	r3, r3, #15
 7543 028a DBB2     		uxtb	r3, r3
 7544 028c 2246     		mov	r2, r4
 7545 028e 1343     		orrs	r3, r3, r2
 7546 0290 DBB2     		uxtb	r3, r3
 7547 0292 DAB2     		uxtb	r2, r3
 7548 0294 3B69     		ldr	r3, [r7, #16]
 7549 0296 1A70     		strb	r2, [r3]
1826:.\AdvantageImpl.c ****                             
1827:.\AdvantageImpl.c ****             //3
1828:.\AdvantageImpl.c ****             ptreeprom++;
 7550              		.loc 1 1828 0
 7551 0298 3B69     		ldr	r3, [r7, #16]
 7552 029a 0133     		adds	r3, r3, #1
 7553 029c 3B61     		str	r3, [r7, #16]
1829:.\AdvantageImpl.c ****             blkindex++;
 7554              		.loc 1 1829 0
 7555 029e FB7B     		ldrb	r3, [r7, #15]	@ zero_extendqisi2
 7556 02a0 0133     		adds	r3, r3, #1
 7557 02a2 FB73     		strb	r3, [r7, #15]
1830:.\AdvantageImpl.c ****             //Volume Decimal Point Code
1831:.\AdvantageImpl.c ****             *ptreeprom = ((TranslateSpecialFuncionDigit(pjob->_ppump->_rxbuffer[0x09 + 2*blkindex])
 7558              		.loc 1 1831 0
 7559 02a4 BB69     		ldr	r3, [r7, #24]
 7560 02a6 DA69     		ldr	r2, [r3, #28]
 7561 02a8 FB7B     		ldrb	r3, [r7, #15]	@ zero_extendqisi2
 7562 02aa 5B00     		lsls	r3, r3, #1
 7563 02ac 0933     		adds	r3, r3, #9
 7564 02ae 1344     		add	r3, r3, r2
 7565 02b0 93F8A031 		ldrb	r3, [r3, #416]	@ zero_extendqisi2
 7566 02b4 1846     		mov	r0, r3
 7567 02b6 FFF7FEFF 		bl	TranslateSpecialFuncionDigit
 7568 02ba 0346     		mov	r3, r0
 7569 02bc 1B01     		lsls	r3, r3, #4
 7570 02be DCB2     		uxtb	r4, r3
1832:.\AdvantageImpl.c ****                             (TranslateSpecialFuncionDigit(pjob->_ppump->_rxbuffer[0x09 + (2*blkinde
 7571              		.loc 1 1832 0
 7572 02c0 BB69     		ldr	r3, [r7, #24]
 7573 02c2 DA69     		ldr	r2, [r3, #28]
 7574 02c4 FB7B     		ldrb	r3, [r7, #15]	@ zero_extendqisi2
 7575 02c6 0533     		adds	r3, r3, #5
 7576 02c8 5B00     		lsls	r3, r3, #1
 7577 02ca 1344     		add	r3, r3, r2
 7578 02cc 93F8A031 		ldrb	r3, [r3, #416]	@ zero_extendqisi2
 7579 02d0 1846     		mov	r0, r3
 7580 02d2 FFF7FEFF 		bl	TranslateSpecialFuncionDigit
 7581 02d6 0346     		mov	r3, r0
1831:.\AdvantageImpl.c ****                             (TranslateSpecialFuncionDigit(pjob->_ppump->_rxbuffer[0x09 + (2*blkinde
 7582              		.loc 1 1831 0
 7583 02d8 DBB2     		uxtb	r3, r3
 7584 02da 03F00F03 		and	r3, r3, #15
 7585 02de DBB2     		uxtb	r3, r3
 7586 02e0 2246     		mov	r2, r4
ARM GAS  C:\Users\RECEPC~1\AppData\Local\Temp\cc7aDVfG.s 			page 167


 7587 02e2 1343     		orrs	r3, r3, r2
 7588 02e4 DBB2     		uxtb	r3, r3
 7589 02e6 DAB2     		uxtb	r2, r3
 7590 02e8 3B69     		ldr	r3, [r7, #16]
 7591 02ea 1A70     		strb	r2, [r3]
1833:.\AdvantageImpl.c ****             
1834:.\AdvantageImpl.c ****             //4
1835:.\AdvantageImpl.c ****             ptreeprom++;
 7592              		.loc 1 1835 0
 7593 02ec 3B69     		ldr	r3, [r7, #16]
 7594 02ee 0133     		adds	r3, r3, #1
 7595 02f0 3B61     		str	r3, [r7, #16]
1836:.\AdvantageImpl.c ****             blkindex++;
 7596              		.loc 1 1836 0
 7597 02f2 FB7B     		ldrb	r3, [r7, #15]	@ zero_extendqisi2
 7598 02f4 0133     		adds	r3, r3, #1
 7599 02f6 FB73     		strb	r3, [r7, #15]
1837:.\AdvantageImpl.c ****             //PPU Decimal Point Code
1838:.\AdvantageImpl.c ****             *ptreeprom = ((TranslateSpecialFuncionDigit(pjob->_ppump->_rxbuffer[0x09 + 2*blkindex])
 7600              		.loc 1 1838 0
 7601 02f8 BB69     		ldr	r3, [r7, #24]
 7602 02fa DA69     		ldr	r2, [r3, #28]
 7603 02fc FB7B     		ldrb	r3, [r7, #15]	@ zero_extendqisi2
 7604 02fe 5B00     		lsls	r3, r3, #1
 7605 0300 0933     		adds	r3, r3, #9
 7606 0302 1344     		add	r3, r3, r2
 7607 0304 93F8A031 		ldrb	r3, [r3, #416]	@ zero_extendqisi2
 7608 0308 1846     		mov	r0, r3
 7609 030a FFF7FEFF 		bl	TranslateSpecialFuncionDigit
 7610 030e 0346     		mov	r3, r0
 7611 0310 1B01     		lsls	r3, r3, #4
 7612 0312 DCB2     		uxtb	r4, r3
1839:.\AdvantageImpl.c ****                             (TranslateSpecialFuncionDigit(pjob->_ppump->_rxbuffer[0x09 + (2*blkinde
 7613              		.loc 1 1839 0
 7614 0314 BB69     		ldr	r3, [r7, #24]
 7615 0316 DA69     		ldr	r2, [r3, #28]
 7616 0318 FB7B     		ldrb	r3, [r7, #15]	@ zero_extendqisi2
 7617 031a 0533     		adds	r3, r3, #5
 7618 031c 5B00     		lsls	r3, r3, #1
 7619 031e 1344     		add	r3, r3, r2
 7620 0320 93F8A031 		ldrb	r3, [r3, #416]	@ zero_extendqisi2
 7621 0324 1846     		mov	r0, r3
 7622 0326 FFF7FEFF 		bl	TranslateSpecialFuncionDigit
 7623 032a 0346     		mov	r3, r0
1838:.\AdvantageImpl.c ****                             (TranslateSpecialFuncionDigit(pjob->_ppump->_rxbuffer[0x09 + (2*blkinde
 7624              		.loc 1 1838 0
 7625 032c DBB2     		uxtb	r3, r3
 7626 032e 03F00F03 		and	r3, r3, #15
 7627 0332 DBB2     		uxtb	r3, r3
 7628 0334 2246     		mov	r2, r4
 7629 0336 1343     		orrs	r3, r3, r2
 7630 0338 DBB2     		uxtb	r3, r3
 7631 033a DAB2     		uxtb	r2, r3
 7632 033c 3B69     		ldr	r3, [r7, #16]
 7633 033e 1A70     		strb	r2, [r3]
1840:.\AdvantageImpl.c **** 
1841:.\AdvantageImpl.c ****             //5
ARM GAS  C:\Users\RECEPC~1\AppData\Local\Temp\cc7aDVfG.s 			page 168


1842:.\AdvantageImpl.c ****             ptreeprom++;
 7634              		.loc 1 1842 0
 7635 0340 3B69     		ldr	r3, [r7, #16]
 7636 0342 0133     		adds	r3, r3, #1
 7637 0344 3B61     		str	r3, [r7, #16]
1843:.\AdvantageImpl.c ****             blkindex++;
 7638              		.loc 1 1843 0
 7639 0346 FB7B     		ldrb	r3, [r7, #15]	@ zero_extendqisi2
 7640 0348 0133     		adds	r3, r3, #1
 7641 034a FB73     		strb	r3, [r7, #15]
1844:.\AdvantageImpl.c ****             //5/6/7/8 Digit Money Mode
1845:.\AdvantageImpl.c ****             *ptreeprom = ((TranslateSpecialFuncionDigit(pjob->_ppump->_rxbuffer[0x09 + 2*blkindex])
 7642              		.loc 1 1845 0
 7643 034c BB69     		ldr	r3, [r7, #24]
 7644 034e DA69     		ldr	r2, [r3, #28]
 7645 0350 FB7B     		ldrb	r3, [r7, #15]	@ zero_extendqisi2
 7646 0352 5B00     		lsls	r3, r3, #1
 7647 0354 0933     		adds	r3, r3, #9
 7648 0356 1344     		add	r3, r3, r2
 7649 0358 93F8A031 		ldrb	r3, [r3, #416]	@ zero_extendqisi2
 7650 035c 1846     		mov	r0, r3
 7651 035e FFF7FEFF 		bl	TranslateSpecialFuncionDigit
 7652 0362 0346     		mov	r3, r0
 7653 0364 1B01     		lsls	r3, r3, #4
 7654 0366 DCB2     		uxtb	r4, r3
1846:.\AdvantageImpl.c ****                             (TranslateSpecialFuncionDigit(pjob->_ppump->_rxbuffer[0x09 + (2*blkinde
 7655              		.loc 1 1846 0
 7656 0368 BB69     		ldr	r3, [r7, #24]
 7657 036a DA69     		ldr	r2, [r3, #28]
 7658 036c FB7B     		ldrb	r3, [r7, #15]	@ zero_extendqisi2
 7659 036e 0533     		adds	r3, r3, #5
 7660 0370 5B00     		lsls	r3, r3, #1
 7661 0372 1344     		add	r3, r3, r2
 7662 0374 93F8A031 		ldrb	r3, [r3, #416]	@ zero_extendqisi2
 7663 0378 1846     		mov	r0, r3
 7664 037a FFF7FEFF 		bl	TranslateSpecialFuncionDigit
 7665 037e 0346     		mov	r3, r0
1845:.\AdvantageImpl.c ****                             (TranslateSpecialFuncionDigit(pjob->_ppump->_rxbuffer[0x09 + (2*blkinde
 7666              		.loc 1 1845 0
 7667 0380 DBB2     		uxtb	r3, r3
 7668 0382 03F00F03 		and	r3, r3, #15
 7669 0386 DBB2     		uxtb	r3, r3
 7670 0388 2246     		mov	r2, r4
 7671 038a 1343     		orrs	r3, r3, r2
 7672 038c DBB2     		uxtb	r3, r3
 7673 038e DAB2     		uxtb	r2, r3
 7674 0390 3B69     		ldr	r3, [r7, #16]
 7675 0392 1A70     		strb	r2, [r3]
1847:.\AdvantageImpl.c **** 
1848:.\AdvantageImpl.c ****             //6
1849:.\AdvantageImpl.c ****             ptreeprom++;
 7676              		.loc 1 1849 0
 7677 0394 3B69     		ldr	r3, [r7, #16]
 7678 0396 0133     		adds	r3, r3, #1
 7679 0398 3B61     		str	r3, [r7, #16]
1850:.\AdvantageImpl.c ****             blkindex++;
 7680              		.loc 1 1850 0
ARM GAS  C:\Users\RECEPC~1\AppData\Local\Temp\cc7aDVfG.s 			page 169


 7681 039a FB7B     		ldrb	r3, [r7, #15]	@ zero_extendqisi2
 7682 039c 0133     		adds	r3, r3, #1
 7683 039e FB73     		strb	r3, [r7, #15]
1851:.\AdvantageImpl.c ****             //Auto On/Push to Start Mode
1852:.\AdvantageImpl.c ****             *ptreeprom = ((TranslateSpecialFuncionDigit(pjob->_ppump->_rxbuffer[0x09 + 2*blkindex])
 7684              		.loc 1 1852 0
 7685 03a0 BB69     		ldr	r3, [r7, #24]
 7686 03a2 DA69     		ldr	r2, [r3, #28]
 7687 03a4 FB7B     		ldrb	r3, [r7, #15]	@ zero_extendqisi2
 7688 03a6 5B00     		lsls	r3, r3, #1
 7689 03a8 0933     		adds	r3, r3, #9
 7690 03aa 1344     		add	r3, r3, r2
 7691 03ac 93F8A031 		ldrb	r3, [r3, #416]	@ zero_extendqisi2
 7692 03b0 1846     		mov	r0, r3
 7693 03b2 FFF7FEFF 		bl	TranslateSpecialFuncionDigit
 7694 03b6 0346     		mov	r3, r0
 7695 03b8 1B01     		lsls	r3, r3, #4
 7696 03ba DCB2     		uxtb	r4, r3
1853:.\AdvantageImpl.c ****                             (TranslateSpecialFuncionDigit(pjob->_ppump->_rxbuffer[0x09 + (2*blkinde
 7697              		.loc 1 1853 0
 7698 03bc BB69     		ldr	r3, [r7, #24]
 7699 03be DA69     		ldr	r2, [r3, #28]
 7700 03c0 FB7B     		ldrb	r3, [r7, #15]	@ zero_extendqisi2
 7701 03c2 0533     		adds	r3, r3, #5
 7702 03c4 5B00     		lsls	r3, r3, #1
 7703 03c6 1344     		add	r3, r3, r2
 7704 03c8 93F8A031 		ldrb	r3, [r3, #416]	@ zero_extendqisi2
 7705 03cc 1846     		mov	r0, r3
 7706 03ce FFF7FEFF 		bl	TranslateSpecialFuncionDigit
 7707 03d2 0346     		mov	r3, r0
1852:.\AdvantageImpl.c ****                             (TranslateSpecialFuncionDigit(pjob->_ppump->_rxbuffer[0x09 + (2*blkinde
 7708              		.loc 1 1852 0
 7709 03d4 DBB2     		uxtb	r3, r3
 7710 03d6 03F00F03 		and	r3, r3, #15
 7711 03da DBB2     		uxtb	r3, r3
 7712 03dc 2246     		mov	r2, r4
 7713 03de 1343     		orrs	r3, r3, r2
 7714 03e0 DBB2     		uxtb	r3, r3
 7715 03e2 DAB2     		uxtb	r2, r3
 7716 03e4 3B69     		ldr	r3, [r7, #16]
 7717 03e6 1A70     		strb	r2, [r3]
1854:.\AdvantageImpl.c **** 
1855:.\AdvantageImpl.c **** 
1856:.\AdvantageImpl.c ****             //STORING BACK THE EEPROM PAGE
1857:.\AdvantageImpl.c ****             StoreEepromPage(eeprompumpconfigmemorypageid);
 7718              		.loc 1 1857 0
 7719 03e8 BB8B     		ldrh	r3, [r7, #28]
 7720 03ea 1846     		mov	r0, r3
 7721 03ec FFF7FEFF 		bl	StoreEepromPage
1858:.\AdvantageImpl.c ****             AcquireDispenserLayoutInformation(&GetEepromBuffer()[0x10]);
 7722              		.loc 1 1858 0
 7723 03f0 FFF7FEFF 		bl	GetEepromBuffer
 7724 03f4 0346     		mov	r3, r0
 7725 03f6 1033     		adds	r3, r3, #16
 7726 03f8 1846     		mov	r0, r3
 7727 03fa FFF7FEFF 		bl	AcquireDispenserLayoutInformation
1859:.\AdvantageImpl.c ****          
ARM GAS  C:\Users\RECEPC~1\AppData\Local\Temp\cc7aDVfG.s 			page 170


1860:.\AdvantageImpl.c ****             _g_dispenserlayoutinfo._inconfiguration = false;
 7728              		.loc 1 1860 0
 7729 03fe 164B     		ldr	r3, .L276
 7730 0400 0022     		movs	r2, #0
 7731 0402 1A70     		strb	r2, [r3]
1861:.\AdvantageImpl.c ****             _ALLOCATE_SINKMESSAGE_SLOT(psinkmsg);
 7732              		.loc 1 1861 0
 7733 0404 FFF7FEFF 		bl	AllocateMessageSlot
 7734 0408 B860     		str	r0, [r7, #8]
1862:.\AdvantageImpl.c ****             if(psinkmsg)
 7735              		.loc 1 1862 0
 7736 040a BB68     		ldr	r3, [r7, #8]
 7737 040c 002B     		cmp	r3, #0
 7738 040e 0CD0     		beq	.L275
1863:.\AdvantageImpl.c ****             {
1864:.\AdvantageImpl.c ****                 psinkmsg->_messageid = DISPENSER_LOAD_EEPROM_SETTINGS;
 7739              		.loc 1 1864 0
 7740 0410 BB68     		ldr	r3, [r7, #8]
 7741 0412 0D22     		movs	r2, #13
 7742 0414 5A70     		strb	r2, [r3, #1]
1865:.\AdvantageImpl.c ****                 psinkmsg->_messagedelay = _SINK_TIMEOUT_1S_;
 7743              		.loc 1 1865 0
 7744 0416 BB68     		ldr	r3, [r7, #8]
 7745 0418 4FF47A72 		mov	r2, #1000
 7746 041c 9A80     		strh	r2, [r3, #4]	@ movhi
1866:.\AdvantageImpl.c ****                 psinkmsg->_messagetype = FIRSTFOUND;
 7747              		.loc 1 1866 0
 7748 041e BB68     		ldr	r3, [r7, #8]
 7749 0420 0322     		movs	r2, #3
 7750 0422 9A70     		strb	r2, [r3, #2]
1867:.\AdvantageImpl.c ****                 psinkmsg->_messagestate = SINK_BUSY;
 7751              		.loc 1 1867 0
 7752 0424 BB68     		ldr	r3, [r7, #8]
 7753 0426 0322     		movs	r2, #3
 7754 0428 DA70     		strb	r2, [r3, #3]
 7755              	.L275:
1868:.\AdvantageImpl.c ****             }
1869:.\AdvantageImpl.c ****             
1870:.\AdvantageImpl.c ****             _REALLOCATE_SINKMESSAGE_SLOT(psinkmsg);
 7756              		.loc 1 1870 0
 7757 042a FFF7FEFF 		bl	AllocateMessageSlot
 7758 042e B860     		str	r0, [r7, #8]
1871:.\AdvantageImpl.c ****             if(psinkmsg)
 7759              		.loc 1 1871 0
 7760 0430 BB68     		ldr	r3, [r7, #8]
 7761 0432 002B     		cmp	r3, #0
 7762 0434 0CD0     		beq	.L265
1872:.\AdvantageImpl.c ****             {
1873:.\AdvantageImpl.c ****                 psinkmsg->_messageid = DISPENSER_CONFIGURE_PRICES;
 7763              		.loc 1 1873 0
 7764 0436 BB68     		ldr	r3, [r7, #8]
 7765 0438 1022     		movs	r2, #16
 7766 043a 5A70     		strb	r2, [r3, #1]
1874:.\AdvantageImpl.c ****                 psinkmsg->_messagedelay = _SINK_TIMEOUT_2S_;
 7767              		.loc 1 1874 0
 7768 043c BB68     		ldr	r3, [r7, #8]
 7769 043e 4FF4FA62 		mov	r2, #2000
ARM GAS  C:\Users\RECEPC~1\AppData\Local\Temp\cc7aDVfG.s 			page 171


 7770 0442 9A80     		strh	r2, [r3, #4]	@ movhi
1875:.\AdvantageImpl.c ****                 psinkmsg->_messagetype = FIRSTFOUND;
 7771              		.loc 1 1875 0
 7772 0444 BB68     		ldr	r3, [r7, #8]
 7773 0446 0322     		movs	r2, #3
 7774 0448 9A70     		strb	r2, [r3, #2]
1876:.\AdvantageImpl.c ****                 psinkmsg->_messagestate = SINK_BUSY;
 7775              		.loc 1 1876 0
 7776 044a BB68     		ldr	r3, [r7, #8]
 7777 044c 0322     		movs	r2, #3
 7778 044e DA70     		strb	r2, [r3, #3]
 7779              	.L265:
 7780              	.LBE56:
 7781              	.LBE55:
1877:.\AdvantageImpl.c ****             }
1878:.\AdvantageImpl.c ****         }
1879:.\AdvantageImpl.c ****     }
1880:.\AdvantageImpl.c **** }
 7782              		.loc 1 1880 0
 7783 0450 2437     		adds	r7, r7, #36
 7784              		.cfi_def_cfa_offset 12
 7785 0452 BD46     		mov	sp, r7
 7786              		.cfi_def_cfa_register 13
 7787              		@ sp needed
 7788 0454 90BD     		pop	{r4, r7, pc}
 7789              	.L277:
 7790 0456 00BF     		.align	2
 7791              	.L276:
 7792 0458 00000000 		.word	_g_dispenserlayoutinfo
 7793              		.cfi_endproc
 7794              	.LFE91:
 7795              		.size	AcquirePumpCompleteConfiguration, .-AcquirePumpCompleteConfiguration
 7796              		.section	.text.AcquireDispenserLayoutInformation,"ax",%progbits
 7797              		.align	2
 7798              		.global	AcquireDispenserLayoutInformation
 7799              		.thumb
 7800              		.thumb_func
 7801              		.type	AcquireDispenserLayoutInformation, %function
 7802              	AcquireDispenserLayoutInformation:
 7803              	.LFB92:
1881:.\AdvantageImpl.c **** 
1882:.\AdvantageImpl.c **** //@Created By: HIJH
1883:.\AdvantageImpl.c **** //@Septembre de 2016
1884:.\AdvantageImpl.c **** void AcquireDispenserLayoutInformation(LPVOID pparam)
1885:.\AdvantageImpl.c **** {
 7804              		.loc 1 1885 0
 7805              		.cfi_startproc
 7806              		@ args = 0, pretend = 0, frame = 16
 7807              		@ frame_needed = 1, uses_anonymous_args = 0
 7808              		@ link register save eliminated.
 7809 0000 80B4     		push	{r7}
 7810              		.cfi_def_cfa_offset 4
 7811              		.cfi_offset 7, -4
 7812 0002 85B0     		sub	sp, sp, #20
 7813              		.cfi_def_cfa_offset 24
 7814 0004 00AF     		add	r7, sp, #0
 7815              		.cfi_def_cfa_register 7
ARM GAS  C:\Users\RECEPC~1\AppData\Local\Temp\cc7aDVfG.s 			page 172


 7816 0006 7860     		str	r0, [r7, #4]
1886:.\AdvantageImpl.c ****     LPRAWPTR ptrbuff = (LPRAWPTR)pparam;
 7817              		.loc 1 1886 0
 7818 0008 7B68     		ldr	r3, [r7, #4]
 7819 000a FB60     		str	r3, [r7, #12]
1887:.\AdvantageImpl.c ****     
1888:.\AdvantageImpl.c ****     _g_dispenserlayoutinfo._hosesposition3 = 0x00;
 7820              		.loc 1 1888 0
 7821 000c C04B     		ldr	r3, .L340
 7822 000e 0022     		movs	r2, #0
 7823 0010 5A71     		strb	r2, [r3, #5]
1889:.\AdvantageImpl.c ****     _g_dispenserlayoutinfo._hosesposition4 = 0x00;
 7824              		.loc 1 1889 0
 7825 0012 BF4B     		ldr	r3, .L340
 7826 0014 0022     		movs	r2, #0
 7827 0016 9A71     		strb	r2, [r3, #6]
1890:.\AdvantageImpl.c ****     if(_g_dispenserlayoutinfo._numpositions == 0x02)
 7828              		.loc 1 1890 0
 7829 0018 BD4B     		ldr	r3, .L340
 7830 001a 9B78     		ldrb	r3, [r3, #2]	@ zero_extendqisi2
 7831 001c 022B     		cmp	r3, #2
 7832 001e 40F09C80 		bne	.L279
1891:.\AdvantageImpl.c ****     {
1892:.\AdvantageImpl.c ****         //PLEASE CHECK THE DOCUMENTATION TO UNDERSTAND THE COMPARISON VALUES
1893:.\AdvantageImpl.c ****         switch(ptrbuff[0x00])
 7833              		.loc 1 1893 0
 7834 0022 FB68     		ldr	r3, [r7, #12]
 7835 0024 1B78     		ldrb	r3, [r3]	@ zero_extendqisi2
 7836 0026 103B     		subs	r3, r3, #16
 7837 0028 172B     		cmp	r3, #23
 7838 002a 00F28D81 		bhi	.L296
 7839 002e 01A2     		adr	r2, .L282
 7840 0030 52F823F0 		ldr	pc, [r2, r3, lsl #2]
 7841              		.p2align 2
 7842              	.L282:
 7843 0034 95000000 		.word	.L281+1
 7844 0038 A3000000 		.word	.L283+1
 7845 003c B1000000 		.word	.L284+1
 7846 0040 BF000000 		.word	.L285+1
 7847 0044 CD000000 		.word	.L286+1
 7848 0048 DB000000 		.word	.L287+1
 7849 004c 49030000 		.word	.L296+1
 7850 0050 49030000 		.word	.L296+1
 7851 0054 49030000 		.word	.L296+1
 7852 0058 49030000 		.word	.L296+1
 7853 005c 49030000 		.word	.L296+1
 7854 0060 49030000 		.word	.L296+1
 7855 0064 49030000 		.word	.L296+1
 7856 0068 49030000 		.word	.L296+1
 7857 006c 49030000 		.word	.L296+1
 7858 0070 49030000 		.word	.L296+1
 7859 0074 E9000000 		.word	.L288+1
 7860 0078 F7000000 		.word	.L289+1
 7861 007c 05010000 		.word	.L290+1
 7862 0080 13010000 		.word	.L291+1
 7863 0084 21010000 		.word	.L292+1
 7864 0088 2F010000 		.word	.L293+1
ARM GAS  C:\Users\RECEPC~1\AppData\Local\Temp\cc7aDVfG.s 			page 173


 7865 008c 3D010000 		.word	.L294+1
 7866 0090 4B010000 		.word	.L295+1
 7867              		.p2align 1
 7868              	.L281:
1894:.\AdvantageImpl.c ****         {
1895:.\AdvantageImpl.c ****             //Multi-Product Dispenser
1896:.\AdvantageImpl.c ****             case 0x10://MPD with 1 grade/hose per side
1897:.\AdvantageImpl.c ****             {
1898:.\AdvantageImpl.c ****                 _g_dispenserlayoutinfo._hosesposition1 = 0x01;
 7869              		.loc 1 1898 0
 7870 0094 9E4B     		ldr	r3, .L340
 7871 0096 0122     		movs	r2, #1
 7872 0098 DA70     		strb	r2, [r3, #3]
1899:.\AdvantageImpl.c ****                 _g_dispenserlayoutinfo._hosesposition2 = 0x01;
 7873              		.loc 1 1899 0
 7874 009a 9D4B     		ldr	r3, .L340
 7875 009c 0122     		movs	r2, #1
 7876 009e 1A71     		strb	r2, [r3, #4]
1900:.\AdvantageImpl.c ****                 break;
 7877              		.loc 1 1900 0
 7878 00a0 5AE0     		b	.L280
 7879              	.L283:
1901:.\AdvantageImpl.c ****             }
1902:.\AdvantageImpl.c ****             case 0x11://MPD with 2 grades/hoses per side
1903:.\AdvantageImpl.c ****             {
1904:.\AdvantageImpl.c ****                 _g_dispenserlayoutinfo._hosesposition1 = 0x02;
 7880              		.loc 1 1904 0
 7881 00a2 9B4B     		ldr	r3, .L340
 7882 00a4 0222     		movs	r2, #2
 7883 00a6 DA70     		strb	r2, [r3, #3]
1905:.\AdvantageImpl.c ****                 _g_dispenserlayoutinfo._hosesposition2 = 0x02;
 7884              		.loc 1 1905 0
 7885 00a8 994B     		ldr	r3, .L340
 7886 00aa 0222     		movs	r2, #2
 7887 00ac 1A71     		strb	r2, [r3, #4]
1906:.\AdvantageImpl.c ****                 break;
 7888              		.loc 1 1906 0
 7889 00ae 53E0     		b	.L280
 7890              	.L284:
1907:.\AdvantageImpl.c ****             }
1908:.\AdvantageImpl.c ****             case 0x12://MPD with 3 grades/hoses per side
1909:.\AdvantageImpl.c ****             {
1910:.\AdvantageImpl.c ****                 _g_dispenserlayoutinfo._hosesposition1 = 0x03;
 7891              		.loc 1 1910 0
 7892 00b0 974B     		ldr	r3, .L340
 7893 00b2 0322     		movs	r2, #3
 7894 00b4 DA70     		strb	r2, [r3, #3]
1911:.\AdvantageImpl.c ****                 _g_dispenserlayoutinfo._hosesposition2 = 0x03;
 7895              		.loc 1 1911 0
 7896 00b6 964B     		ldr	r3, .L340
 7897 00b8 0322     		movs	r2, #3
 7898 00ba 1A71     		strb	r2, [r3, #4]
1912:.\AdvantageImpl.c ****                 break;
 7899              		.loc 1 1912 0
 7900 00bc 4CE0     		b	.L280
 7901              	.L285:
1913:.\AdvantageImpl.c ****             }
ARM GAS  C:\Users\RECEPC~1\AppData\Local\Temp\cc7aDVfG.s 			page 174


1914:.\AdvantageImpl.c ****             case 0x13://MPD with 4 grades/hoses per side
1915:.\AdvantageImpl.c ****             {
1916:.\AdvantageImpl.c ****                 _g_dispenserlayoutinfo._hosesposition1 = 0x04;
 7902              		.loc 1 1916 0
 7903 00be 944B     		ldr	r3, .L340
 7904 00c0 0422     		movs	r2, #4
 7905 00c2 DA70     		strb	r2, [r3, #3]
1917:.\AdvantageImpl.c ****                 _g_dispenserlayoutinfo._hosesposition2 = 0x04;
 7906              		.loc 1 1917 0
 7907 00c4 924B     		ldr	r3, .L340
 7908 00c6 0422     		movs	r2, #4
 7909 00c8 1A71     		strb	r2, [r3, #4]
1918:.\AdvantageImpl.c ****                 break;
 7910              		.loc 1 1918 0
 7911 00ca 45E0     		b	.L280
 7912              	.L286:
1919:.\AdvantageImpl.c ****             }
1920:.\AdvantageImpl.c ****             case 0x14://MPD with 5 grades/hoses per side
1921:.\AdvantageImpl.c ****             {
1922:.\AdvantageImpl.c ****                 _g_dispenserlayoutinfo._hosesposition1 = 0x05;
 7913              		.loc 1 1922 0
 7914 00cc 904B     		ldr	r3, .L340
 7915 00ce 0522     		movs	r2, #5
 7916 00d0 DA70     		strb	r2, [r3, #3]
1923:.\AdvantageImpl.c ****                 _g_dispenserlayoutinfo._hosesposition2 = 0x05;
 7917              		.loc 1 1923 0
 7918 00d2 8F4B     		ldr	r3, .L340
 7919 00d4 0522     		movs	r2, #5
 7920 00d6 1A71     		strb	r2, [r3, #4]
1924:.\AdvantageImpl.c ****                 break;
 7921              		.loc 1 1924 0
 7922 00d8 3EE0     		b	.L280
 7923              	.L287:
1925:.\AdvantageImpl.c ****             }
1926:.\AdvantageImpl.c ****             case 0x15://MPD with 6 grades/hoses per side
1927:.\AdvantageImpl.c ****             {
1928:.\AdvantageImpl.c ****                 _g_dispenserlayoutinfo._hosesposition1 = 0x05;
 7924              		.loc 1 1928 0
 7925 00da 8D4B     		ldr	r3, .L340
 7926 00dc 0522     		movs	r2, #5
 7927 00de DA70     		strb	r2, [r3, #3]
1929:.\AdvantageImpl.c ****                 _g_dispenserlayoutinfo._hosesposition2 = 0x05;
 7928              		.loc 1 1929 0
 7929 00e0 8B4B     		ldr	r3, .L340
 7930 00e2 0522     		movs	r2, #5
 7931 00e4 1A71     		strb	r2, [r3, #4]
1930:.\AdvantageImpl.c ****                 break;
 7932              		.loc 1 1930 0
 7933 00e6 37E0     		b	.L280
 7934              	.L288:
1931:.\AdvantageImpl.c ****             }
1932:.\AdvantageImpl.c ****             //Single-Hose Multi-Product Dispenser
1933:.\AdvantageImpl.c ****             case 0x20://SHMPD 2+0 (2 grades, 1 hose/side)
1934:.\AdvantageImpl.c ****             {
1935:.\AdvantageImpl.c ****                 _g_dispenserlayoutinfo._hosesposition1 = 0x01;
 7935              		.loc 1 1935 0
 7936 00e8 894B     		ldr	r3, .L340
ARM GAS  C:\Users\RECEPC~1\AppData\Local\Temp\cc7aDVfG.s 			page 175


 7937 00ea 0122     		movs	r2, #1
 7938 00ec DA70     		strb	r2, [r3, #3]
1936:.\AdvantageImpl.c ****                 _g_dispenserlayoutinfo._hosesposition2 = 0x01;
 7939              		.loc 1 1936 0
 7940 00ee 884B     		ldr	r3, .L340
 7941 00f0 0122     		movs	r2, #1
 7942 00f2 1A71     		strb	r2, [r3, #4]
1937:.\AdvantageImpl.c ****                 break;
 7943              		.loc 1 1937 0
 7944 00f4 30E0     		b	.L280
 7945              	.L289:
1938:.\AdvantageImpl.c ****             }
1939:.\AdvantageImpl.c ****             case 0x21://SHMPD 2+1 (3 grades, 2 hoses/side)
1940:.\AdvantageImpl.c ****             {
1941:.\AdvantageImpl.c ****                 _g_dispenserlayoutinfo._hosesposition1 = 0x02;
 7946              		.loc 1 1941 0
 7947 00f6 864B     		ldr	r3, .L340
 7948 00f8 0222     		movs	r2, #2
 7949 00fa DA70     		strb	r2, [r3, #3]
1942:.\AdvantageImpl.c ****                 _g_dispenserlayoutinfo._hosesposition2 = 0x02;
 7950              		.loc 1 1942 0
 7951 00fc 844B     		ldr	r3, .L340
 7952 00fe 0222     		movs	r2, #2
 7953 0100 1A71     		strb	r2, [r3, #4]
1943:.\AdvantageImpl.c ****                 break;
 7954              		.loc 1 1943 0
 7955 0102 29E0     		b	.L280
 7956              	.L290:
1944:.\AdvantageImpl.c ****             }
1945:.\AdvantageImpl.c ****             case 0x22://SHMPD 3+0 (3 grades, 1 hose/side)
1946:.\AdvantageImpl.c ****             {
1947:.\AdvantageImpl.c ****                 _g_dispenserlayoutinfo._hosesposition1 = 0x01;
 7957              		.loc 1 1947 0
 7958 0104 824B     		ldr	r3, .L340
 7959 0106 0122     		movs	r2, #1
 7960 0108 DA70     		strb	r2, [r3, #3]
1948:.\AdvantageImpl.c ****                 _g_dispenserlayoutinfo._hosesposition2 = 0x01;
 7961              		.loc 1 1948 0
 7962 010a 814B     		ldr	r3, .L340
 7963 010c 0122     		movs	r2, #1
 7964 010e 1A71     		strb	r2, [r3, #4]
1949:.\AdvantageImpl.c ****                 break;
 7965              		.loc 1 1949 0
 7966 0110 22E0     		b	.L280
 7967              	.L291:
1950:.\AdvantageImpl.c ****             }
1951:.\AdvantageImpl.c ****             case 0x23://SHMPD 3+1 (4 grades, 2 hoses/side)
1952:.\AdvantageImpl.c ****             {
1953:.\AdvantageImpl.c ****                 _g_dispenserlayoutinfo._hosesposition1 = 0x02;
 7968              		.loc 1 1953 0
 7969 0112 7F4B     		ldr	r3, .L340
 7970 0114 0222     		movs	r2, #2
 7971 0116 DA70     		strb	r2, [r3, #3]
1954:.\AdvantageImpl.c ****                 _g_dispenserlayoutinfo._hosesposition2 = 0x02;
 7972              		.loc 1 1954 0
 7973 0118 7D4B     		ldr	r3, .L340
 7974 011a 0222     		movs	r2, #2
ARM GAS  C:\Users\RECEPC~1\AppData\Local\Temp\cc7aDVfG.s 			page 176


 7975 011c 1A71     		strb	r2, [r3, #4]
1955:.\AdvantageImpl.c ****                 break;
 7976              		.loc 1 1955 0
 7977 011e 1BE0     		b	.L280
 7978              	.L292:
1956:.\AdvantageImpl.c ****             }
1957:.\AdvantageImpl.c ****             case 0x24://SHMPD 4+0 (4 grades, 1 hose/side)
1958:.\AdvantageImpl.c ****             {
1959:.\AdvantageImpl.c ****                 _g_dispenserlayoutinfo._hosesposition1 = 0x01;
 7979              		.loc 1 1959 0
 7980 0120 7B4B     		ldr	r3, .L340
 7981 0122 0122     		movs	r2, #1
 7982 0124 DA70     		strb	r2, [r3, #3]
1960:.\AdvantageImpl.c ****                 _g_dispenserlayoutinfo._hosesposition2 = 0x01;
 7983              		.loc 1 1960 0
 7984 0126 7A4B     		ldr	r3, .L340
 7985 0128 0122     		movs	r2, #1
 7986 012a 1A71     		strb	r2, [r3, #4]
1961:.\AdvantageImpl.c ****                 break;
 7987              		.loc 1 1961 0
 7988 012c 14E0     		b	.L280
 7989              	.L293:
1962:.\AdvantageImpl.c ****             }
1963:.\AdvantageImpl.c ****             case 0x25://SHMPD 4+1 (5 grades, 2 hoses/side)
1964:.\AdvantageImpl.c ****             {
1965:.\AdvantageImpl.c ****                 _g_dispenserlayoutinfo._hosesposition1 = 0x02;
 7990              		.loc 1 1965 0
 7991 012e 784B     		ldr	r3, .L340
 7992 0130 0222     		movs	r2, #2
 7993 0132 DA70     		strb	r2, [r3, #3]
1966:.\AdvantageImpl.c ****                 _g_dispenserlayoutinfo._hosesposition2 = 0x02;
 7994              		.loc 1 1966 0
 7995 0134 764B     		ldr	r3, .L340
 7996 0136 0222     		movs	r2, #2
 7997 0138 1A71     		strb	r2, [r3, #4]
1967:.\AdvantageImpl.c ****                 break;
 7998              		.loc 1 1967 0
 7999 013a 0DE0     		b	.L280
 8000              	.L294:
1968:.\AdvantageImpl.c ****             }
1969:.\AdvantageImpl.c ****             case 0x26://SHMPD 5+0 (5 grades, 1 hose/side)
1970:.\AdvantageImpl.c ****             {
1971:.\AdvantageImpl.c ****                 _g_dispenserlayoutinfo._hosesposition1 = 0x01;
 8001              		.loc 1 1971 0
 8002 013c 744B     		ldr	r3, .L340
 8003 013e 0122     		movs	r2, #1
 8004 0140 DA70     		strb	r2, [r3, #3]
1972:.\AdvantageImpl.c ****                 _g_dispenserlayoutinfo._hosesposition2 = 0x01;
 8005              		.loc 1 1972 0
 8006 0142 734B     		ldr	r3, .L340
 8007 0144 0122     		movs	r2, #1
 8008 0146 1A71     		strb	r2, [r3, #4]
1973:.\AdvantageImpl.c ****                 break;
 8009              		.loc 1 1973 0
 8010 0148 06E0     		b	.L280
 8011              	.L295:
1974:.\AdvantageImpl.c ****             }
ARM GAS  C:\Users\RECEPC~1\AppData\Local\Temp\cc7aDVfG.s 			page 177


1975:.\AdvantageImpl.c ****             case 0x27://SHMPD 5+1 (6 grades, 2 hoses/side)
1976:.\AdvantageImpl.c ****             {
1977:.\AdvantageImpl.c ****                 _g_dispenserlayoutinfo._hosesposition1 = 0x02;
 8012              		.loc 1 1977 0
 8013 014a 714B     		ldr	r3, .L340
 8014 014c 0222     		movs	r2, #2
 8015 014e DA70     		strb	r2, [r3, #3]
1978:.\AdvantageImpl.c ****                 _g_dispenserlayoutinfo._hosesposition2 = 0x02;
 8016              		.loc 1 1978 0
 8017 0150 6F4B     		ldr	r3, .L340
 8018 0152 0222     		movs	r2, #2
 8019 0154 1A71     		strb	r2, [r3, #4]
1979:.\AdvantageImpl.c ****                 break;
 8020              		.loc 1 1979 0
 8021 0156 00BF     		nop
 8022              	.L280:
 8023 0158 F6E0     		b	.L296
 8024              	.L279:
1980:.\AdvantageImpl.c ****             }
1981:.\AdvantageImpl.c ****             //MISSING (NOT NEEDED) ...
1982:.\AdvantageImpl.c ****             //0x28 ~ 0x29
1983:.\AdvantageImpl.c ****             //0x3X Multi-Hose Blender
1984:.\AdvantageImpl.c ****             //0x4X Single-Hose Blender
1985:.\AdvantageImpl.c ****             //0x50 MH Hybrid Blender
1986:.\AdvantageImpl.c ****         }
1987:.\AdvantageImpl.c ****     }
1988:.\AdvantageImpl.c ****     else if(_g_dispenserlayoutinfo._numpositions == 0x04)
 8025              		.loc 1 1988 0
 8026 015a 6D4B     		ldr	r3, .L340
 8027 015c 9B78     		ldrb	r3, [r3, #2]	@ zero_extendqisi2
 8028 015e 042B     		cmp	r3, #4
 8029 0160 40F0F280 		bne	.L296
1989:.\AdvantageImpl.c ****     {
1990:.\AdvantageImpl.c ****         //PLEASE CHECK THE DOCUMENTATION TO UNDERSTAND THE COMPARISON VALUES
1991:.\AdvantageImpl.c ****         switch(ptrbuff[0x00])
 8030              		.loc 1 1991 0
 8031 0164 FB68     		ldr	r3, [r7, #12]
 8032 0166 1B78     		ldrb	r3, [r3]	@ zero_extendqisi2
 8033 0168 103B     		subs	r3, r3, #16
 8034 016a 172B     		cmp	r3, #23
 8035 016c 00F2EC80 		bhi	.L296
 8036 0170 01A2     		adr	r2, .L298
 8037 0172 52F823F0 		ldr	pc, [r2, r3, lsl #2]
 8038 0176 00BF     		.p2align 2
 8039              	.L298:
 8040 0178 D9010000 		.word	.L297+1
 8041 017c F3010000 		.word	.L299+1
 8042 0180 0D020000 		.word	.L300+1
 8043 0184 27020000 		.word	.L301+1
 8044 0188 41020000 		.word	.L302+1
 8045 018c 5B020000 		.word	.L303+1
 8046 0190 49030000 		.word	.L296+1
 8047 0194 49030000 		.word	.L296+1
 8048 0198 49030000 		.word	.L296+1
 8049 019c 49030000 		.word	.L296+1
 8050 01a0 49030000 		.word	.L296+1
 8051 01a4 49030000 		.word	.L296+1
ARM GAS  C:\Users\RECEPC~1\AppData\Local\Temp\cc7aDVfG.s 			page 178


 8052 01a8 49030000 		.word	.L296+1
 8053 01ac 49030000 		.word	.L296+1
 8054 01b0 49030000 		.word	.L296+1
 8055 01b4 49030000 		.word	.L296+1
 8056 01b8 75020000 		.word	.L304+1
 8057 01bc 8F020000 		.word	.L305+1
 8058 01c0 A9020000 		.word	.L306+1
 8059 01c4 C3020000 		.word	.L307+1
 8060 01c8 DD020000 		.word	.L308+1
 8061 01cc F7020000 		.word	.L309+1
 8062 01d0 15030000 		.word	.L310+1
 8063 01d4 2F030000 		.word	.L311+1
 8064              		.p2align 1
 8065              	.L297:
1992:.\AdvantageImpl.c ****         {
1993:.\AdvantageImpl.c ****             //Multi-Product Dispenser
1994:.\AdvantageImpl.c ****             case 0x10://MPD with 1 grade/hose per side
1995:.\AdvantageImpl.c ****             {
1996:.\AdvantageImpl.c ****                 _g_dispenserlayoutinfo._hosesposition1 = 0x01;
 8066              		.loc 1 1996 0
 8067 01d8 4D4B     		ldr	r3, .L340
 8068 01da 0122     		movs	r2, #1
 8069 01dc DA70     		strb	r2, [r3, #3]
1997:.\AdvantageImpl.c ****                 _g_dispenserlayoutinfo._hosesposition2 = 0x01;
 8070              		.loc 1 1997 0
 8071 01de 4C4B     		ldr	r3, .L340
 8072 01e0 0122     		movs	r2, #1
 8073 01e2 1A71     		strb	r2, [r3, #4]
1998:.\AdvantageImpl.c ****                 _g_dispenserlayoutinfo._hosesposition3 = 0x01;
 8074              		.loc 1 1998 0
 8075 01e4 4A4B     		ldr	r3, .L340
 8076 01e6 0122     		movs	r2, #1
 8077 01e8 5A71     		strb	r2, [r3, #5]
1999:.\AdvantageImpl.c ****                 _g_dispenserlayoutinfo._hosesposition4 = 0x01;
 8078              		.loc 1 1999 0
 8079 01ea 494B     		ldr	r3, .L340
 8080 01ec 0122     		movs	r2, #1
 8081 01ee 9A71     		strb	r2, [r3, #6]
2000:.\AdvantageImpl.c ****                 break;
 8082              		.loc 1 2000 0
 8083 01f0 AAE0     		b	.L296
 8084              	.L299:
2001:.\AdvantageImpl.c ****             }
2002:.\AdvantageImpl.c ****             case 0x11://MPD with 2 grades/hoses per side
2003:.\AdvantageImpl.c ****             {
2004:.\AdvantageImpl.c ****                 _g_dispenserlayoutinfo._hosesposition1 = 0x02;
 8085              		.loc 1 2004 0
 8086 01f2 474B     		ldr	r3, .L340
 8087 01f4 0222     		movs	r2, #2
 8088 01f6 DA70     		strb	r2, [r3, #3]
2005:.\AdvantageImpl.c ****                 _g_dispenserlayoutinfo._hosesposition2 = 0x02;
 8089              		.loc 1 2005 0
 8090 01f8 454B     		ldr	r3, .L340
 8091 01fa 0222     		movs	r2, #2
 8092 01fc 1A71     		strb	r2, [r3, #4]
2006:.\AdvantageImpl.c ****                 _g_dispenserlayoutinfo._hosesposition3 = 0x02;
 8093              		.loc 1 2006 0
ARM GAS  C:\Users\RECEPC~1\AppData\Local\Temp\cc7aDVfG.s 			page 179


 8094 01fe 444B     		ldr	r3, .L340
 8095 0200 0222     		movs	r2, #2
 8096 0202 5A71     		strb	r2, [r3, #5]
2007:.\AdvantageImpl.c ****                 _g_dispenserlayoutinfo._hosesposition4 = 0x02;
 8097              		.loc 1 2007 0
 8098 0204 424B     		ldr	r3, .L340
 8099 0206 0222     		movs	r2, #2
 8100 0208 9A71     		strb	r2, [r3, #6]
2008:.\AdvantageImpl.c ****                 break;
 8101              		.loc 1 2008 0
 8102 020a 9DE0     		b	.L296
 8103              	.L300:
2009:.\AdvantageImpl.c ****             }
2010:.\AdvantageImpl.c ****             case 0x12://MPD with 3 grades/hoses per side
2011:.\AdvantageImpl.c ****             {
2012:.\AdvantageImpl.c ****                 _g_dispenserlayoutinfo._hosesposition1 = 0x03;
 8104              		.loc 1 2012 0
 8105 020c 404B     		ldr	r3, .L340
 8106 020e 0322     		movs	r2, #3
 8107 0210 DA70     		strb	r2, [r3, #3]
2013:.\AdvantageImpl.c ****                 _g_dispenserlayoutinfo._hosesposition2 = 0x03;
 8108              		.loc 1 2013 0
 8109 0212 3F4B     		ldr	r3, .L340
 8110 0214 0322     		movs	r2, #3
 8111 0216 1A71     		strb	r2, [r3, #4]
2014:.\AdvantageImpl.c ****                 _g_dispenserlayoutinfo._hosesposition3 = 0x03;
 8112              		.loc 1 2014 0
 8113 0218 3D4B     		ldr	r3, .L340
 8114 021a 0322     		movs	r2, #3
 8115 021c 5A71     		strb	r2, [r3, #5]
2015:.\AdvantageImpl.c ****                 _g_dispenserlayoutinfo._hosesposition4 = 0x03;
 8116              		.loc 1 2015 0
 8117 021e 3C4B     		ldr	r3, .L340
 8118 0220 0322     		movs	r2, #3
 8119 0222 9A71     		strb	r2, [r3, #6]
2016:.\AdvantageImpl.c ****                 break;
 8120              		.loc 1 2016 0
 8121 0224 90E0     		b	.L296
 8122              	.L301:
2017:.\AdvantageImpl.c ****             }
2018:.\AdvantageImpl.c ****             case 0x13://MPD with 4 grades/hoses per side
2019:.\AdvantageImpl.c ****             {
2020:.\AdvantageImpl.c ****                 _g_dispenserlayoutinfo._hosesposition1 = 0x04;
 8123              		.loc 1 2020 0
 8124 0226 3A4B     		ldr	r3, .L340
 8125 0228 0422     		movs	r2, #4
 8126 022a DA70     		strb	r2, [r3, #3]
2021:.\AdvantageImpl.c ****                 _g_dispenserlayoutinfo._hosesposition2 = 0x04;
 8127              		.loc 1 2021 0
 8128 022c 384B     		ldr	r3, .L340
 8129 022e 0422     		movs	r2, #4
 8130 0230 1A71     		strb	r2, [r3, #4]
2022:.\AdvantageImpl.c ****                 _g_dispenserlayoutinfo._hosesposition3 = 0x04;
 8131              		.loc 1 2022 0
 8132 0232 374B     		ldr	r3, .L340
 8133 0234 0422     		movs	r2, #4
 8134 0236 5A71     		strb	r2, [r3, #5]
ARM GAS  C:\Users\RECEPC~1\AppData\Local\Temp\cc7aDVfG.s 			page 180


2023:.\AdvantageImpl.c ****                 _g_dispenserlayoutinfo._hosesposition4 = 0x04;
 8135              		.loc 1 2023 0
 8136 0238 354B     		ldr	r3, .L340
 8137 023a 0422     		movs	r2, #4
 8138 023c 9A71     		strb	r2, [r3, #6]
2024:.\AdvantageImpl.c ****                 break;
 8139              		.loc 1 2024 0
 8140 023e 83E0     		b	.L296
 8141              	.L302:
2025:.\AdvantageImpl.c ****             }
2026:.\AdvantageImpl.c ****             case 0x14://MPD with 5 grades/hoses per side
2027:.\AdvantageImpl.c ****             {
2028:.\AdvantageImpl.c ****                 _g_dispenserlayoutinfo._hosesposition1 = 0x05;
 8142              		.loc 1 2028 0
 8143 0240 334B     		ldr	r3, .L340
 8144 0242 0522     		movs	r2, #5
 8145 0244 DA70     		strb	r2, [r3, #3]
2029:.\AdvantageImpl.c ****                 _g_dispenserlayoutinfo._hosesposition2 = 0x05;
 8146              		.loc 1 2029 0
 8147 0246 324B     		ldr	r3, .L340
 8148 0248 0522     		movs	r2, #5
 8149 024a 1A71     		strb	r2, [r3, #4]
2030:.\AdvantageImpl.c ****                 _g_dispenserlayoutinfo._hosesposition3 = 0x05;
 8150              		.loc 1 2030 0
 8151 024c 304B     		ldr	r3, .L340
 8152 024e 0522     		movs	r2, #5
 8153 0250 5A71     		strb	r2, [r3, #5]
2031:.\AdvantageImpl.c ****                 _g_dispenserlayoutinfo._hosesposition4 = 0x05;
 8154              		.loc 1 2031 0
 8155 0252 2F4B     		ldr	r3, .L340
 8156 0254 0522     		movs	r2, #5
 8157 0256 9A71     		strb	r2, [r3, #6]
2032:.\AdvantageImpl.c ****                 break;
 8158              		.loc 1 2032 0
 8159 0258 76E0     		b	.L296
 8160              	.L303:
2033:.\AdvantageImpl.c ****             }
2034:.\AdvantageImpl.c ****             case 0x15://MPD with 6 grades/hoses per side
2035:.\AdvantageImpl.c ****             {
2036:.\AdvantageImpl.c ****                 _g_dispenserlayoutinfo._hosesposition1 = 0x05;
 8161              		.loc 1 2036 0
 8162 025a 2D4B     		ldr	r3, .L340
 8163 025c 0522     		movs	r2, #5
 8164 025e DA70     		strb	r2, [r3, #3]
2037:.\AdvantageImpl.c ****                 _g_dispenserlayoutinfo._hosesposition2 = 0x05;
 8165              		.loc 1 2037 0
 8166 0260 2B4B     		ldr	r3, .L340
 8167 0262 0522     		movs	r2, #5
 8168 0264 1A71     		strb	r2, [r3, #4]
2038:.\AdvantageImpl.c ****                 _g_dispenserlayoutinfo._hosesposition3 = 0x05;
 8169              		.loc 1 2038 0
 8170 0266 2A4B     		ldr	r3, .L340
 8171 0268 0522     		movs	r2, #5
 8172 026a 5A71     		strb	r2, [r3, #5]
2039:.\AdvantageImpl.c ****                 _g_dispenserlayoutinfo._hosesposition4 = 0x05;
 8173              		.loc 1 2039 0
 8174 026c 284B     		ldr	r3, .L340
ARM GAS  C:\Users\RECEPC~1\AppData\Local\Temp\cc7aDVfG.s 			page 181


 8175 026e 0522     		movs	r2, #5
 8176 0270 9A71     		strb	r2, [r3, #6]
2040:.\AdvantageImpl.c ****                 break;
 8177              		.loc 1 2040 0
 8178 0272 69E0     		b	.L296
 8179              	.L304:
2041:.\AdvantageImpl.c ****             }
2042:.\AdvantageImpl.c ****             //Single-Hose Multi-Product Dispenser
2043:.\AdvantageImpl.c ****             case 0x20://SHMPD 2+0 (2 grades, 1 hose/side)
2044:.\AdvantageImpl.c ****             {
2045:.\AdvantageImpl.c ****                 _g_dispenserlayoutinfo._hosesposition1 = 0x01;
 8180              		.loc 1 2045 0
 8181 0274 264B     		ldr	r3, .L340
 8182 0276 0122     		movs	r2, #1
 8183 0278 DA70     		strb	r2, [r3, #3]
2046:.\AdvantageImpl.c ****                 _g_dispenserlayoutinfo._hosesposition2 = 0x01;
 8184              		.loc 1 2046 0
 8185 027a 254B     		ldr	r3, .L340
 8186 027c 0122     		movs	r2, #1
 8187 027e 1A71     		strb	r2, [r3, #4]
2047:.\AdvantageImpl.c ****                 _g_dispenserlayoutinfo._hosesposition3 = 0x01;
 8188              		.loc 1 2047 0
 8189 0280 234B     		ldr	r3, .L340
 8190 0282 0122     		movs	r2, #1
 8191 0284 5A71     		strb	r2, [r3, #5]
2048:.\AdvantageImpl.c ****                 _g_dispenserlayoutinfo._hosesposition4 = 0x01;
 8192              		.loc 1 2048 0
 8193 0286 224B     		ldr	r3, .L340
 8194 0288 0122     		movs	r2, #1
 8195 028a 9A71     		strb	r2, [r3, #6]
2049:.\AdvantageImpl.c ****                 break;
 8196              		.loc 1 2049 0
 8197 028c 5CE0     		b	.L296
 8198              	.L305:
2050:.\AdvantageImpl.c ****             }
2051:.\AdvantageImpl.c ****             case 0x21://SHMPD 2+1 (3 grades, 2 hoses/side)
2052:.\AdvantageImpl.c ****             {
2053:.\AdvantageImpl.c ****                 _g_dispenserlayoutinfo._hosesposition1 = 0x02;
 8199              		.loc 1 2053 0
 8200 028e 204B     		ldr	r3, .L340
 8201 0290 0222     		movs	r2, #2
 8202 0292 DA70     		strb	r2, [r3, #3]
2054:.\AdvantageImpl.c ****                 _g_dispenserlayoutinfo._hosesposition2 = 0x02;
 8203              		.loc 1 2054 0
 8204 0294 1E4B     		ldr	r3, .L340
 8205 0296 0222     		movs	r2, #2
 8206 0298 1A71     		strb	r2, [r3, #4]
2055:.\AdvantageImpl.c ****                 _g_dispenserlayoutinfo._hosesposition3 = 0x02;
 8207              		.loc 1 2055 0
 8208 029a 1D4B     		ldr	r3, .L340
 8209 029c 0222     		movs	r2, #2
 8210 029e 5A71     		strb	r2, [r3, #5]
2056:.\AdvantageImpl.c ****                 _g_dispenserlayoutinfo._hosesposition4 = 0x02;
 8211              		.loc 1 2056 0
 8212 02a0 1B4B     		ldr	r3, .L340
 8213 02a2 0222     		movs	r2, #2
 8214 02a4 9A71     		strb	r2, [r3, #6]
ARM GAS  C:\Users\RECEPC~1\AppData\Local\Temp\cc7aDVfG.s 			page 182


2057:.\AdvantageImpl.c ****                 break;
 8215              		.loc 1 2057 0
 8216 02a6 4FE0     		b	.L296
 8217              	.L306:
2058:.\AdvantageImpl.c ****             }
2059:.\AdvantageImpl.c ****             case 0x22://SHMPD 3+0 (3 grades, 1 hose/side)
2060:.\AdvantageImpl.c ****             {
2061:.\AdvantageImpl.c ****                 _g_dispenserlayoutinfo._hosesposition1 = 0x01;
 8218              		.loc 1 2061 0
 8219 02a8 194B     		ldr	r3, .L340
 8220 02aa 0122     		movs	r2, #1
 8221 02ac DA70     		strb	r2, [r3, #3]
2062:.\AdvantageImpl.c ****                 _g_dispenserlayoutinfo._hosesposition2 = 0x01;
 8222              		.loc 1 2062 0
 8223 02ae 184B     		ldr	r3, .L340
 8224 02b0 0122     		movs	r2, #1
 8225 02b2 1A71     		strb	r2, [r3, #4]
2063:.\AdvantageImpl.c ****                 _g_dispenserlayoutinfo._hosesposition3 = 0x01;
 8226              		.loc 1 2063 0
 8227 02b4 164B     		ldr	r3, .L340
 8228 02b6 0122     		movs	r2, #1
 8229 02b8 5A71     		strb	r2, [r3, #5]
2064:.\AdvantageImpl.c ****                 _g_dispenserlayoutinfo._hosesposition4 = 0x01;
 8230              		.loc 1 2064 0
 8231 02ba 154B     		ldr	r3, .L340
 8232 02bc 0122     		movs	r2, #1
 8233 02be 9A71     		strb	r2, [r3, #6]
2065:.\AdvantageImpl.c ****                 break;
 8234              		.loc 1 2065 0
 8235 02c0 42E0     		b	.L296
 8236              	.L307:
2066:.\AdvantageImpl.c ****             }
2067:.\AdvantageImpl.c ****             case 0x23://SHMPD 3+1 (4 grades, 2 hoses/side)
2068:.\AdvantageImpl.c ****             {
2069:.\AdvantageImpl.c ****                 _g_dispenserlayoutinfo._hosesposition1 = 0x02;
 8237              		.loc 1 2069 0
 8238 02c2 134B     		ldr	r3, .L340
 8239 02c4 0222     		movs	r2, #2
 8240 02c6 DA70     		strb	r2, [r3, #3]
2070:.\AdvantageImpl.c ****                 _g_dispenserlayoutinfo._hosesposition2 = 0x02;
 8241              		.loc 1 2070 0
 8242 02c8 114B     		ldr	r3, .L340
 8243 02ca 0222     		movs	r2, #2
 8244 02cc 1A71     		strb	r2, [r3, #4]
2071:.\AdvantageImpl.c ****                 _g_dispenserlayoutinfo._hosesposition3 = 0x02;
 8245              		.loc 1 2071 0
 8246 02ce 104B     		ldr	r3, .L340
 8247 02d0 0222     		movs	r2, #2
 8248 02d2 5A71     		strb	r2, [r3, #5]
2072:.\AdvantageImpl.c ****                 _g_dispenserlayoutinfo._hosesposition4 = 0x02;
 8249              		.loc 1 2072 0
 8250 02d4 0E4B     		ldr	r3, .L340
 8251 02d6 0222     		movs	r2, #2
 8252 02d8 9A71     		strb	r2, [r3, #6]
2073:.\AdvantageImpl.c ****                 break;
 8253              		.loc 1 2073 0
 8254 02da 35E0     		b	.L296
ARM GAS  C:\Users\RECEPC~1\AppData\Local\Temp\cc7aDVfG.s 			page 183


 8255              	.L308:
2074:.\AdvantageImpl.c ****             }
2075:.\AdvantageImpl.c ****             case 0x24://SHMPD 4+0 (4 grades, 1 hose/side)
2076:.\AdvantageImpl.c ****             {
2077:.\AdvantageImpl.c ****                 _g_dispenserlayoutinfo._hosesposition1 = 0x01;
 8256              		.loc 1 2077 0
 8257 02dc 0C4B     		ldr	r3, .L340
 8258 02de 0122     		movs	r2, #1
 8259 02e0 DA70     		strb	r2, [r3, #3]
2078:.\AdvantageImpl.c ****                 _g_dispenserlayoutinfo._hosesposition2 = 0x01;
 8260              		.loc 1 2078 0
 8261 02e2 0B4B     		ldr	r3, .L340
 8262 02e4 0122     		movs	r2, #1
 8263 02e6 1A71     		strb	r2, [r3, #4]
2079:.\AdvantageImpl.c ****                 _g_dispenserlayoutinfo._hosesposition3 = 0x01;
 8264              		.loc 1 2079 0
 8265 02e8 094B     		ldr	r3, .L340
 8266 02ea 0122     		movs	r2, #1
 8267 02ec 5A71     		strb	r2, [r3, #5]
2080:.\AdvantageImpl.c ****                 _g_dispenserlayoutinfo._hosesposition4 = 0x01;
 8268              		.loc 1 2080 0
 8269 02ee 084B     		ldr	r3, .L340
 8270 02f0 0122     		movs	r2, #1
 8271 02f2 9A71     		strb	r2, [r3, #6]
2081:.\AdvantageImpl.c ****                 break;
 8272              		.loc 1 2081 0
 8273 02f4 28E0     		b	.L296
 8274              	.L309:
2082:.\AdvantageImpl.c ****             }
2083:.\AdvantageImpl.c ****             case 0x25://SHMPD 4+1 (5 grades, 2 hoses/side)
2084:.\AdvantageImpl.c ****             {
2085:.\AdvantageImpl.c ****                 _g_dispenserlayoutinfo._hosesposition1 = 0x02;
 8275              		.loc 1 2085 0
 8276 02f6 064B     		ldr	r3, .L340
 8277 02f8 0222     		movs	r2, #2
 8278 02fa DA70     		strb	r2, [r3, #3]
2086:.\AdvantageImpl.c ****                 _g_dispenserlayoutinfo._hosesposition2 = 0x02;
 8279              		.loc 1 2086 0
 8280 02fc 044B     		ldr	r3, .L340
 8281 02fe 0222     		movs	r2, #2
 8282 0300 1A71     		strb	r2, [r3, #4]
2087:.\AdvantageImpl.c ****                 _g_dispenserlayoutinfo._hosesposition3 = 0x02;
 8283              		.loc 1 2087 0
 8284 0302 034B     		ldr	r3, .L340
 8285 0304 0222     		movs	r2, #2
 8286 0306 5A71     		strb	r2, [r3, #5]
2088:.\AdvantageImpl.c ****                 _g_dispenserlayoutinfo._hosesposition4 = 0x02;
 8287              		.loc 1 2088 0
 8288 0308 014B     		ldr	r3, .L340
 8289 030a 0222     		movs	r2, #2
 8290 030c 9A71     		strb	r2, [r3, #6]
2089:.\AdvantageImpl.c ****                 break;
 8291              		.loc 1 2089 0
 8292 030e 1BE0     		b	.L296
 8293              	.L341:
 8294              		.align	2
 8295              	.L340:
ARM GAS  C:\Users\RECEPC~1\AppData\Local\Temp\cc7aDVfG.s 			page 184


 8296 0310 00000000 		.word	_g_dispenserlayoutinfo
 8297              	.L310:
2090:.\AdvantageImpl.c ****             }
2091:.\AdvantageImpl.c ****             case 0x26://SHMPD 5+0 (5 grades, 1 hose/side)
2092:.\AdvantageImpl.c ****             {
2093:.\AdvantageImpl.c ****                 _g_dispenserlayoutinfo._hosesposition1 = 0x01;
 8298              		.loc 1 2093 0
 8299 0314 6B4B     		ldr	r3, .L342
 8300 0316 0122     		movs	r2, #1
 8301 0318 DA70     		strb	r2, [r3, #3]
2094:.\AdvantageImpl.c ****                 _g_dispenserlayoutinfo._hosesposition2 = 0x01;
 8302              		.loc 1 2094 0
 8303 031a 6A4B     		ldr	r3, .L342
 8304 031c 0122     		movs	r2, #1
 8305 031e 1A71     		strb	r2, [r3, #4]
2095:.\AdvantageImpl.c ****                 _g_dispenserlayoutinfo._hosesposition3 = 0x01;
 8306              		.loc 1 2095 0
 8307 0320 684B     		ldr	r3, .L342
 8308 0322 0122     		movs	r2, #1
 8309 0324 5A71     		strb	r2, [r3, #5]
2096:.\AdvantageImpl.c ****                 _g_dispenserlayoutinfo._hosesposition4 = 0x01;
 8310              		.loc 1 2096 0
 8311 0326 674B     		ldr	r3, .L342
 8312 0328 0122     		movs	r2, #1
 8313 032a 9A71     		strb	r2, [r3, #6]
2097:.\AdvantageImpl.c ****                 break;
 8314              		.loc 1 2097 0
 8315 032c 0CE0     		b	.L296
 8316              	.L311:
2098:.\AdvantageImpl.c ****             }
2099:.\AdvantageImpl.c ****             case 0x27://SHMPD 5+1 (6 grades, 2 hoses/side)
2100:.\AdvantageImpl.c ****             {
2101:.\AdvantageImpl.c ****                 _g_dispenserlayoutinfo._hosesposition1 = 0x02;
 8317              		.loc 1 2101 0
 8318 032e 654B     		ldr	r3, .L342
 8319 0330 0222     		movs	r2, #2
 8320 0332 DA70     		strb	r2, [r3, #3]
2102:.\AdvantageImpl.c ****                 _g_dispenserlayoutinfo._hosesposition2 = 0x02;
 8321              		.loc 1 2102 0
 8322 0334 634B     		ldr	r3, .L342
 8323 0336 0222     		movs	r2, #2
 8324 0338 1A71     		strb	r2, [r3, #4]
2103:.\AdvantageImpl.c ****                 _g_dispenserlayoutinfo._hosesposition3 = 0x02;
 8325              		.loc 1 2103 0
 8326 033a 624B     		ldr	r3, .L342
 8327 033c 0222     		movs	r2, #2
 8328 033e 5A71     		strb	r2, [r3, #5]
2104:.\AdvantageImpl.c ****                 _g_dispenserlayoutinfo._hosesposition4 = 0x02;
 8329              		.loc 1 2104 0
 8330 0340 604B     		ldr	r3, .L342
 8331 0342 0222     		movs	r2, #2
 8332 0344 9A71     		strb	r2, [r3, #6]
2105:.\AdvantageImpl.c ****                 break;
 8333              		.loc 1 2105 0
 8334 0346 00BF     		nop
 8335              	.L296:
2106:.\AdvantageImpl.c ****             }
ARM GAS  C:\Users\RECEPC~1\AppData\Local\Temp\cc7aDVfG.s 			page 185


2107:.\AdvantageImpl.c ****             //MISSING (NOT NEEDED) ...
2108:.\AdvantageImpl.c ****             //0x28 ~ 0x29
2109:.\AdvantageImpl.c ****             //0x3X Multi-Hose Blender
2110:.\AdvantageImpl.c ****             //0x4X Single-Hose Blender
2111:.\AdvantageImpl.c ****             //0x50 MH Hybrid Blender
2112:.\AdvantageImpl.c ****         }
2113:.\AdvantageImpl.c ****     }
2114:.\AdvantageImpl.c **** 
2115:.\AdvantageImpl.c **** 
2116:.\AdvantageImpl.c ****     //0x01 => U.S. Gallons
2117:.\AdvantageImpl.c ****     //0x02 => Imperial Gallons / UK Gallons
2118:.\AdvantageImpl.c ****     //0x03 => Liters
2119:.\AdvantageImpl.c ****     //0x04 => 1012 pulses/gallon (Hawaii, N/A for ECAL)
2120:.\AdvantageImpl.c ****     _g_dispenserlayoutinfo._volumeunit = ptrbuff[0x01];
 8336              		.loc 1 2120 0
 8337 0348 FB68     		ldr	r3, [r7, #12]
 8338 034a 5A78     		ldrb	r2, [r3, #1]	@ zero_extendqisi2
 8339 034c 5D4B     		ldr	r3, .L342
 8340 034e 9A72     		strb	r2, [r3, #10]
2121:.\AdvantageImpl.c ****     
2122:.\AdvantageImpl.c ****     
2123:.\AdvantageImpl.c ****     //Money Decimal Points
2124:.\AdvantageImpl.c ****     switch(ptrbuff[0x02])
 8341              		.loc 1 2124 0
 8342 0350 FB68     		ldr	r3, [r7, #12]
 8343 0352 0233     		adds	r3, r3, #2
 8344 0354 1B78     		ldrb	r3, [r3]	@ zero_extendqisi2
 8345 0356 013B     		subs	r3, r3, #1
 8346 0358 032B     		cmp	r3, #3
 8347 035a 1BD8     		bhi	.L312
 8348 035c 01A2     		adr	r2, .L314
 8349 035e 52F823F0 		ldr	pc, [r2, r3, lsl #2]
 8350 0362 00BF     		.p2align 2
 8351              	.L314:
 8352 0364 75030000 		.word	.L313+1
 8353 0368 7D030000 		.word	.L315+1
 8354 036c 85030000 		.word	.L316+1
 8355 0370 8D030000 		.word	.L317+1
 8356              		.p2align 1
 8357              	.L313:
2125:.\AdvantageImpl.c ****     {
2126:.\AdvantageImpl.c ****         case 0x01:
2127:.\AdvantageImpl.c ****         _g_dispenserlayoutinfo._moneydecimals = 0;
 8358              		.loc 1 2127 0
 8359 0374 534B     		ldr	r3, .L342
 8360 0376 0022     		movs	r2, #0
 8361 0378 DA71     		strb	r2, [r3, #7]
2128:.\AdvantageImpl.c ****         break;
 8362              		.loc 1 2128 0
 8363 037a 0BE0     		b	.L312
 8364              	.L315:
2129:.\AdvantageImpl.c ****         case 0x02:
2130:.\AdvantageImpl.c ****         _g_dispenserlayoutinfo._moneydecimals = 1;
 8365              		.loc 1 2130 0
 8366 037c 514B     		ldr	r3, .L342
 8367 037e 0122     		movs	r2, #1
 8368 0380 DA71     		strb	r2, [r3, #7]
ARM GAS  C:\Users\RECEPC~1\AppData\Local\Temp\cc7aDVfG.s 			page 186


2131:.\AdvantageImpl.c ****         break;
 8369              		.loc 1 2131 0
 8370 0382 07E0     		b	.L312
 8371              	.L316:
2132:.\AdvantageImpl.c ****         case 0x03:
2133:.\AdvantageImpl.c ****         _g_dispenserlayoutinfo._moneydecimals = 2;
 8372              		.loc 1 2133 0
 8373 0384 4F4B     		ldr	r3, .L342
 8374 0386 0222     		movs	r2, #2
 8375 0388 DA71     		strb	r2, [r3, #7]
2134:.\AdvantageImpl.c ****         break;
 8376              		.loc 1 2134 0
 8377 038a 03E0     		b	.L312
 8378              	.L317:
2135:.\AdvantageImpl.c ****         case 0x04:
2136:.\AdvantageImpl.c ****         _g_dispenserlayoutinfo._moneydecimals = 3;
 8379              		.loc 1 2136 0
 8380 038c 4D4B     		ldr	r3, .L342
 8381 038e 0322     		movs	r2, #3
 8382 0390 DA71     		strb	r2, [r3, #7]
2137:.\AdvantageImpl.c ****         break;
 8383              		.loc 1 2137 0
 8384 0392 00BF     		nop
 8385              	.L312:
2138:.\AdvantageImpl.c ****     }
2139:.\AdvantageImpl.c ****     
2140:.\AdvantageImpl.c ****     //Volume Decimal Points
2141:.\AdvantageImpl.c ****     switch(ptrbuff[0x03])
 8386              		.loc 1 2141 0
 8387 0394 FB68     		ldr	r3, [r7, #12]
 8388 0396 0333     		adds	r3, r3, #3
 8389 0398 1B78     		ldrb	r3, [r3]	@ zero_extendqisi2
 8390 039a 013B     		subs	r3, r3, #1
 8391 039c 102B     		cmp	r3, #16
 8392 039e 45D8     		bhi	.L318
 8393 03a0 01A2     		adr	r2, .L320
 8394 03a2 52F823F0 		ldr	pc, [r2, r3, lsl #2]
 8395 03a6 00BF     		.p2align 2
 8396              	.L320:
 8397 03a8 ED030000 		.word	.L319+1
 8398 03ac F5030000 		.word	.L321+1
 8399 03b0 FD030000 		.word	.L322+1
 8400 03b4 05040000 		.word	.L323+1
 8401 03b8 0D040000 		.word	.L324+1
 8402 03bc 15040000 		.word	.L325+1
 8403 03c0 1D040000 		.word	.L326+1
 8404 03c4 2D040000 		.word	.L318+1
 8405 03c8 2D040000 		.word	.L318+1
 8406 03cc 2D040000 		.word	.L318+1
 8407 03d0 2D040000 		.word	.L318+1
 8408 03d4 2D040000 		.word	.L318+1
 8409 03d8 2D040000 		.word	.L318+1
 8410 03dc 2D040000 		.word	.L318+1
 8411 03e0 2D040000 		.word	.L318+1
 8412 03e4 2D040000 		.word	.L318+1
 8413 03e8 25040000 		.word	.L327+1
 8414              		.p2align 1
ARM GAS  C:\Users\RECEPC~1\AppData\Local\Temp\cc7aDVfG.s 			page 187


 8415              	.L319:
2142:.\AdvantageImpl.c ****     {
2143:.\AdvantageImpl.c ****         case 0x01:
2144:.\AdvantageImpl.c ****         _g_dispenserlayoutinfo._volumedecimals = 3;
 8416              		.loc 1 2144 0
 8417 03ec 354B     		ldr	r3, .L342
 8418 03ee 0322     		movs	r2, #3
 8419 03f0 5A72     		strb	r2, [r3, #9]
2145:.\AdvantageImpl.c ****         break;
 8420              		.loc 1 2145 0
 8421 03f2 1BE0     		b	.L318
 8422              	.L321:
2146:.\AdvantageImpl.c ****         case 0x02:
2147:.\AdvantageImpl.c ****         _g_dispenserlayoutinfo._volumedecimals = 1;
 8423              		.loc 1 2147 0
 8424 03f4 334B     		ldr	r3, .L342
 8425 03f6 0122     		movs	r2, #1
 8426 03f8 5A72     		strb	r2, [r3, #9]
2148:.\AdvantageImpl.c ****         break;
 8427              		.loc 1 2148 0
 8428 03fa 17E0     		b	.L318
 8429              	.L322:
2149:.\AdvantageImpl.c ****         case 0x03:
2150:.\AdvantageImpl.c ****         _g_dispenserlayoutinfo._volumedecimals = 2;
 8430              		.loc 1 2150 0
 8431 03fc 314B     		ldr	r3, .L342
 8432 03fe 0222     		movs	r2, #2
 8433 0400 5A72     		strb	r2, [r3, #9]
2151:.\AdvantageImpl.c ****         break;
 8434              		.loc 1 2151 0
 8435 0402 13E0     		b	.L318
 8436              	.L323:
2152:.\AdvantageImpl.c ****         case 0x04:
2153:.\AdvantageImpl.c ****         _g_dispenserlayoutinfo._volumedecimals = 3;
 8437              		.loc 1 2153 0
 8438 0404 2F4B     		ldr	r3, .L342
 8439 0406 0322     		movs	r2, #3
 8440 0408 5A72     		strb	r2, [r3, #9]
2154:.\AdvantageImpl.c ****         break;
 8441              		.loc 1 2154 0
 8442 040a 0FE0     		b	.L318
 8443              	.L324:
2155:.\AdvantageImpl.c ****         case 0x05:
2156:.\AdvantageImpl.c ****         _g_dispenserlayoutinfo._volumedecimals = 4;
 8444              		.loc 1 2156 0
 8445 040c 2D4B     		ldr	r3, .L342
 8446 040e 0422     		movs	r2, #4
 8447 0410 5A72     		strb	r2, [r3, #9]
2157:.\AdvantageImpl.c ****         break;
 8448              		.loc 1 2157 0
 8449 0412 0BE0     		b	.L318
 8450              	.L325:
2158:.\AdvantageImpl.c ****         case 0x06:
2159:.\AdvantageImpl.c ****         _g_dispenserlayoutinfo._volumedecimals = 5;
 8451              		.loc 1 2159 0
 8452 0414 2B4B     		ldr	r3, .L342
 8453 0416 0522     		movs	r2, #5
ARM GAS  C:\Users\RECEPC~1\AppData\Local\Temp\cc7aDVfG.s 			page 188


 8454 0418 5A72     		strb	r2, [r3, #9]
2160:.\AdvantageImpl.c ****         break;
 8455              		.loc 1 2160 0
 8456 041a 07E0     		b	.L318
 8457              	.L326:
2161:.\AdvantageImpl.c ****         case 0x07:
2162:.\AdvantageImpl.c ****         _g_dispenserlayoutinfo._volumedecimals = 6;
 8458              		.loc 1 2162 0
 8459 041c 294B     		ldr	r3, .L342
 8460 041e 0622     		movs	r2, #6
 8461 0420 5A72     		strb	r2, [r3, #9]
2163:.\AdvantageImpl.c ****         break;
 8462              		.loc 1 2163 0
 8463 0422 03E0     		b	.L318
 8464              	.L327:
2164:.\AdvantageImpl.c ****         case 0x11:
2165:.\AdvantageImpl.c ****         _g_dispenserlayoutinfo._volumedecimals = 0;
 8465              		.loc 1 2165 0
 8466 0424 274B     		ldr	r3, .L342
 8467 0426 0022     		movs	r2, #0
 8468 0428 5A72     		strb	r2, [r3, #9]
2166:.\AdvantageImpl.c ****         break;
 8469              		.loc 1 2166 0
 8470 042a 00BF     		nop
 8471              	.L318:
2167:.\AdvantageImpl.c ****     }
2168:.\AdvantageImpl.c ****     
2169:.\AdvantageImpl.c ****     //PPU Decimal Points
2170:.\AdvantageImpl.c ****     switch(ptrbuff[0x04])
 8472              		.loc 1 2170 0
 8473 042c FB68     		ldr	r3, [r7, #12]
 8474 042e 0433     		adds	r3, r3, #4
 8475 0430 1B78     		ldrb	r3, [r3]	@ zero_extendqisi2
 8476 0432 013B     		subs	r3, r3, #1
 8477 0434 032B     		cmp	r3, #3
 8478 0436 1BD8     		bhi	.L328
 8479 0438 01A2     		adr	r2, .L330
 8480 043a 52F823F0 		ldr	pc, [r2, r3, lsl #2]
 8481 043e 00BF     		.p2align 2
 8482              	.L330:
 8483 0440 51040000 		.word	.L329+1
 8484 0444 59040000 		.word	.L331+1
 8485 0448 61040000 		.word	.L332+1
 8486 044c 69040000 		.word	.L333+1
 8487              		.p2align 1
 8488              	.L329:
2171:.\AdvantageImpl.c ****     {
2172:.\AdvantageImpl.c ****         case 0x01:
2173:.\AdvantageImpl.c ****         _g_dispenserlayoutinfo._ppudecimals = 0;
 8489              		.loc 1 2173 0
 8490 0450 1C4B     		ldr	r3, .L342
 8491 0452 0022     		movs	r2, #0
 8492 0454 1A72     		strb	r2, [r3, #8]
2174:.\AdvantageImpl.c ****         break;
 8493              		.loc 1 2174 0
 8494 0456 0BE0     		b	.L328
 8495              	.L331:
ARM GAS  C:\Users\RECEPC~1\AppData\Local\Temp\cc7aDVfG.s 			page 189


2175:.\AdvantageImpl.c ****         case 0x02:
2176:.\AdvantageImpl.c ****         _g_dispenserlayoutinfo._ppudecimals = 1;
 8496              		.loc 1 2176 0
 8497 0458 1A4B     		ldr	r3, .L342
 8498 045a 0122     		movs	r2, #1
 8499 045c 1A72     		strb	r2, [r3, #8]
2177:.\AdvantageImpl.c ****         break;
 8500              		.loc 1 2177 0
 8501 045e 07E0     		b	.L328
 8502              	.L332:
2178:.\AdvantageImpl.c ****         case 0x03:
2179:.\AdvantageImpl.c ****         _g_dispenserlayoutinfo._ppudecimals = 2;
 8503              		.loc 1 2179 0
 8504 0460 184B     		ldr	r3, .L342
 8505 0462 0222     		movs	r2, #2
 8506 0464 1A72     		strb	r2, [r3, #8]
2180:.\AdvantageImpl.c ****         break;
 8507              		.loc 1 2180 0
 8508 0466 03E0     		b	.L328
 8509              	.L333:
2181:.\AdvantageImpl.c ****         case 0x04:
2182:.\AdvantageImpl.c ****         _g_dispenserlayoutinfo._ppudecimals = 3;
 8510              		.loc 1 2182 0
 8511 0468 164B     		ldr	r3, .L342
 8512 046a 0322     		movs	r2, #3
 8513 046c 1A72     		strb	r2, [r3, #8]
2183:.\AdvantageImpl.c ****         break;
 8514              		.loc 1 2183 0
 8515 046e 00BF     		nop
 8516              	.L328:
2184:.\AdvantageImpl.c ****     }
2185:.\AdvantageImpl.c ****     
2186:.\AdvantageImpl.c ****     switch(ptrbuff[0x05])
 8517              		.loc 1 2186 0
 8518 0470 FB68     		ldr	r3, [r7, #12]
 8519 0472 0533     		adds	r3, r3, #5
 8520 0474 1B78     		ldrb	r3, [r3]	@ zero_extendqisi2
 8521 0476 032B     		cmp	r3, #3
 8522 0478 1AD8     		bhi	.L334
 8523 047a 01A2     		adr	r2, .L336
 8524 047c 52F823F0 		ldr	pc, [r2, r3, lsl #2]
 8525              		.p2align 2
 8526              	.L336:
 8527 0480 91040000 		.word	.L335+1
 8528 0484 99040000 		.word	.L337+1
 8529 0488 A1040000 		.word	.L338+1
 8530 048c A9040000 		.word	.L339+1
 8531              		.p2align 1
 8532              	.L335:
2187:.\AdvantageImpl.c ****     {
2188:.\AdvantageImpl.c ****         case 0x00:
2189:.\AdvantageImpl.c ****             _g_dispenserlayoutinfo._displaydigitsmode = 0x05; //5 money digits
 8533              		.loc 1 2189 0
 8534 0490 0C4B     		ldr	r3, .L342
 8535 0492 0522     		movs	r2, #5
 8536 0494 1A74     		strb	r2, [r3, #16]
2190:.\AdvantageImpl.c ****             break;
ARM GAS  C:\Users\RECEPC~1\AppData\Local\Temp\cc7aDVfG.s 			page 190


 8537              		.loc 1 2190 0
 8538 0496 0BE0     		b	.L334
 8539              	.L337:
2191:.\AdvantageImpl.c ****         case 0x01:
2192:.\AdvantageImpl.c ****             _g_dispenserlayoutinfo._displaydigitsmode = 0x06; //6 money digits
 8540              		.loc 1 2192 0
 8541 0498 0A4B     		ldr	r3, .L342
 8542 049a 0622     		movs	r2, #6
 8543 049c 1A74     		strb	r2, [r3, #16]
2193:.\AdvantageImpl.c ****             break;
 8544              		.loc 1 2193 0
 8545 049e 07E0     		b	.L334
 8546              	.L338:
2194:.\AdvantageImpl.c ****         case 0x02:
2195:.\AdvantageImpl.c ****             _g_dispenserlayoutinfo._displaydigitsmode = 0x07; //7 money digits
 8547              		.loc 1 2195 0
 8548 04a0 084B     		ldr	r3, .L342
 8549 04a2 0722     		movs	r2, #7
 8550 04a4 1A74     		strb	r2, [r3, #16]
2196:.\AdvantageImpl.c ****             break;
 8551              		.loc 1 2196 0
 8552 04a6 03E0     		b	.L334
 8553              	.L339:
2197:.\AdvantageImpl.c ****         case 0x03:
2198:.\AdvantageImpl.c ****             _g_dispenserlayoutinfo._displaydigitsmode = 0x08; //8 money digits
 8554              		.loc 1 2198 0
 8555 04a8 064B     		ldr	r3, .L342
 8556 04aa 0822     		movs	r2, #8
 8557 04ac 1A74     		strb	r2, [r3, #16]
2199:.\AdvantageImpl.c ****             break;
 8558              		.loc 1 2199 0
 8559 04ae 00BF     		nop
 8560              	.L334:
2200:.\AdvantageImpl.c ****     }
2201:.\AdvantageImpl.c ****     
2202:.\AdvantageImpl.c ****     //_g_dispenserlayoutinfo._pointcommadecimalmode = _POINT_AS_DECIMAL_SEPARATOR_;
2203:.\AdvantageImpl.c ****     _g_dispenserlayoutinfo._pointcommadecimalmode = _COMMA_AS_DECIMAL_SEPARATOR_;
 8561              		.loc 1 2203 0
 8562 04b0 044A     		ldr	r2, .L342
 8563 04b2 D37C     		ldrb	r3, [r2, #19]
 8564 04b4 43F00103 		orr	r3, r3, #1
 8565 04b8 D374     		strb	r3, [r2, #19]
2204:.\AdvantageImpl.c **** }
 8566              		.loc 1 2204 0
 8567 04ba 1437     		adds	r7, r7, #20
 8568              		.cfi_def_cfa_offset 4
 8569 04bc BD46     		mov	sp, r7
 8570              		.cfi_def_cfa_register 13
 8571              		@ sp needed
 8572 04be 5DF8047B 		ldr	r7, [sp], #4
 8573              		.cfi_restore 7
 8574              		.cfi_def_cfa_offset 0
 8575 04c2 7047     		bx	lr
 8576              	.L343:
 8577              		.align	2
 8578              	.L342:
 8579 04c4 00000000 		.word	_g_dispenserlayoutinfo
ARM GAS  C:\Users\RECEPC~1\AppData\Local\Temp\cc7aDVfG.s 			page 191


 8580              		.cfi_endproc
 8581              	.LFE92:
 8582              		.size	AcquireDispenserLayoutInformation, .-AcquireDispenserLayoutInformation
 8583              		.section	.text.AcquirePumpSpecialFunctionResponseResolver,"ax",%progbits
 8584              		.align	2
 8585              		.global	AcquirePumpSpecialFunctionResponseResolver
 8586              		.thumb
 8587              		.thumb_func
 8588              		.type	AcquirePumpSpecialFunctionResponseResolver, %function
 8589              	AcquirePumpSpecialFunctionResponseResolver:
 8590              	.LFB93:
2205:.\AdvantageImpl.c **** 
2206:.\AdvantageImpl.c **** //@Created By: HIJH
2207:.\AdvantageImpl.c **** //@Date: Septembre de 2016
2208:.\AdvantageImpl.c **** //Resolves the completeness for the arriving data after the SFs invocation
2209:.\AdvantageImpl.c **** bool AcquirePumpSpecialFunctionResponseResolver(void *pparam, void *pbuffer, uint16 buffersize)
2210:.\AdvantageImpl.c **** {
 8591              		.loc 1 2210 0
 8592              		.cfi_startproc
 8593              		@ args = 0, pretend = 0, frame = 32
 8594              		@ frame_needed = 1, uses_anonymous_args = 0
 8595 0000 90B5     		push	{r4, r7, lr}
 8596              		.cfi_def_cfa_offset 12
 8597              		.cfi_offset 4, -12
 8598              		.cfi_offset 7, -8
 8599              		.cfi_offset 14, -4
 8600 0002 89B0     		sub	sp, sp, #36
 8601              		.cfi_def_cfa_offset 48
 8602 0004 00AF     		add	r7, sp, #0
 8603              		.cfi_def_cfa_register 7
 8604 0006 F860     		str	r0, [r7, #12]
 8605 0008 B960     		str	r1, [r7, #8]
 8606 000a 1346     		mov	r3, r2
 8607 000c FB80     		strh	r3, [r7, #6]	@ movhi
2211:.\AdvantageImpl.c ****     bool retval = false;
 8608              		.loc 1 2211 0
 8609 000e 0023     		movs	r3, #0
 8610 0010 FB77     		strb	r3, [r7, #31]
2212:.\AdvantageImpl.c ****     static uint8 index = 0;
2213:.\AdvantageImpl.c ****     PNEAR_PUMPPTR ppump = (PNEAR_PUMPPTR)pparam;
 8611              		.loc 1 2213 0
 8612 0012 FB68     		ldr	r3, [r7, #12]
 8613 0014 BB61     		str	r3, [r7, #24]
2214:.\AdvantageImpl.c ****     //Since after the third byte we can start inquiry for the message length in words (this is acco
2215:.\AdvantageImpl.c ****     //that is  the reason for the number "3"
2216:.\AdvantageImpl.c ****     if((PSTRCAST(pbuffer)[0 + 45*index] == 0xBA) && buffersize >= 3)
 8614              		.loc 1 2216 0
 8615 0016 434B     		ldr	r3, .L348
 8616 0018 1B78     		ldrb	r3, [r3]	@ zero_extendqisi2
 8617 001a 1A46     		mov	r2, r3
 8618 001c 1346     		mov	r3, r2
 8619 001e 5B00     		lsls	r3, r3, #1
 8620 0020 1344     		add	r3, r3, r2
 8621 0022 1A01     		lsls	r2, r3, #4
 8622 0024 D31A     		subs	r3, r2, r3
 8623 0026 1A46     		mov	r2, r3
 8624 0028 BB68     		ldr	r3, [r7, #8]
ARM GAS  C:\Users\RECEPC~1\AppData\Local\Temp\cc7aDVfG.s 			page 192


 8625 002a 1344     		add	r3, r3, r2
 8626 002c 1B78     		ldrb	r3, [r3]	@ zero_extendqisi2
 8627 002e BA2B     		cmp	r3, #186
 8628 0030 73D1     		bne	.L345
 8629              		.loc 1 2216 0 is_stmt 0 discriminator 1
 8630 0032 FB88     		ldrh	r3, [r7, #6]
 8631 0034 022B     		cmp	r3, #2
 8632 0036 70D9     		bls	.L345
 8633              	.LBB57:
2217:.\AdvantageImpl.c ****     {
2218:.\AdvantageImpl.c ****         //char8 buff[24];
2219:.\AdvantageImpl.c ****         //memcpy(buff, PSTRCAST(pbuffer), buffersize);
2220:.\AdvantageImpl.c ****         uint8 msglength = (TranslateSpecialFuncionDigit(PSTRCAST(pbuffer)[1 + 45*index]) << 0x04) |
 8634              		.loc 1 2220 0 is_stmt 1
 8635 0038 3A4B     		ldr	r3, .L348
 8636 003a 1B78     		ldrb	r3, [r3]	@ zero_extendqisi2
 8637 003c 1A46     		mov	r2, r3
 8638 003e 1346     		mov	r3, r2
 8639 0040 5B00     		lsls	r3, r3, #1
 8640 0042 1344     		add	r3, r3, r2
 8641 0044 1A01     		lsls	r2, r3, #4
 8642 0046 D31A     		subs	r3, r2, r3
 8643 0048 0133     		adds	r3, r3, #1
 8644 004a 1A46     		mov	r2, r3
 8645 004c BB68     		ldr	r3, [r7, #8]
 8646 004e 1344     		add	r3, r3, r2
 8647 0050 1B78     		ldrb	r3, [r3]	@ zero_extendqisi2
 8648 0052 1846     		mov	r0, r3
 8649 0054 FFF7FEFF 		bl	TranslateSpecialFuncionDigit
 8650 0058 0346     		mov	r3, r0
 8651 005a 1B01     		lsls	r3, r3, #4
 8652 005c DCB2     		uxtb	r4, r3
 8653 005e 314B     		ldr	r3, .L348
 8654 0060 1B78     		ldrb	r3, [r3]	@ zero_extendqisi2
 8655 0062 1A46     		mov	r2, r3
 8656 0064 1346     		mov	r3, r2
 8657 0066 5B00     		lsls	r3, r3, #1
 8658 0068 1344     		add	r3, r3, r2
 8659 006a 1A01     		lsls	r2, r3, #4
 8660 006c D31A     		subs	r3, r2, r3
 8661 006e 0233     		adds	r3, r3, #2
 8662 0070 1A46     		mov	r2, r3
 8663 0072 BB68     		ldr	r3, [r7, #8]
 8664 0074 1344     		add	r3, r3, r2
 8665 0076 1B78     		ldrb	r3, [r3]	@ zero_extendqisi2
 8666 0078 1846     		mov	r0, r3
 8667 007a FFF7FEFF 		bl	TranslateSpecialFuncionDigit
 8668 007e 0346     		mov	r3, r0
 8669 0080 DBB2     		uxtb	r3, r3
 8670 0082 2246     		mov	r2, r4
 8671 0084 1343     		orrs	r3, r3, r2
 8672 0086 DBB2     		uxtb	r3, r3
 8673 0088 FB75     		strb	r3, [r7, #23]
2221:.\AdvantageImpl.c ****         //plus 13 since there are some fixed bytes in the frame that sum that value
2222:.\AdvantageImpl.c ****         //msglength must be multiplied by 2 since this length is in words instead
2223:.\AdvantageImpl.c ****         //If more than 1 block is coming then the first blocks come full which means that they carr
2224:.\AdvantageImpl.c ****         //the maximum frame size which is 45 bytes (13 fixed bytes + 32 bytes for the message)
ARM GAS  C:\Users\RECEPC~1\AppData\Local\Temp\cc7aDVfG.s 			page 193


2225:.\AdvantageImpl.c ****         if(buffersize >= ((2*msglength + 13) + 45*index))
 8674              		.loc 1 2225 0
 8675 008a FA88     		ldrh	r2, [r7, #6]
 8676 008c FB7D     		ldrb	r3, [r7, #23]	@ zero_extendqisi2
 8677 008e 5B00     		lsls	r3, r3, #1
 8678 0090 03F10D01 		add	r1, r3, #13
 8679 0094 234B     		ldr	r3, .L348
 8680 0096 1B78     		ldrb	r3, [r3]	@ zero_extendqisi2
 8681 0098 1846     		mov	r0, r3
 8682 009a 0346     		mov	r3, r0
 8683 009c 5B00     		lsls	r3, r3, #1
 8684 009e 0344     		add	r3, r3, r0
 8685 00a0 1801     		lsls	r0, r3, #4
 8686 00a2 C31A     		subs	r3, r0, r3
 8687 00a4 0B44     		add	r3, r3, r1
 8688 00a6 9A42     		cmp	r2, r3
 8689 00a8 37DB     		blt	.L345
 8690              	.LBB58:
2226:.\AdvantageImpl.c ****         {
2227:.\AdvantageImpl.c ****             uint8 remblocks = (TranslateSpecialFuncionDigit(PSTRCAST(pbuffer)[7 + 45*index]) << 0x0
 8691              		.loc 1 2227 0
 8692 00aa 1E4B     		ldr	r3, .L348
 8693 00ac 1B78     		ldrb	r3, [r3]	@ zero_extendqisi2
 8694 00ae 1A46     		mov	r2, r3
 8695 00b0 1346     		mov	r3, r2
 8696 00b2 5B00     		lsls	r3, r3, #1
 8697 00b4 1344     		add	r3, r3, r2
 8698 00b6 1A01     		lsls	r2, r3, #4
 8699 00b8 D31A     		subs	r3, r2, r3
 8700 00ba 0733     		adds	r3, r3, #7
 8701 00bc 1A46     		mov	r2, r3
 8702 00be BB68     		ldr	r3, [r7, #8]
 8703 00c0 1344     		add	r3, r3, r2
 8704 00c2 1B78     		ldrb	r3, [r3]	@ zero_extendqisi2
 8705 00c4 1846     		mov	r0, r3
 8706 00c6 FFF7FEFF 		bl	TranslateSpecialFuncionDigit
 8707 00ca 0346     		mov	r3, r0
 8708 00cc 1B01     		lsls	r3, r3, #4
 8709 00ce DCB2     		uxtb	r4, r3
 8710 00d0 144B     		ldr	r3, .L348
 8711 00d2 1B78     		ldrb	r3, [r3]	@ zero_extendqisi2
 8712 00d4 1A46     		mov	r2, r3
 8713 00d6 1346     		mov	r3, r2
 8714 00d8 5B00     		lsls	r3, r3, #1
 8715 00da 1344     		add	r3, r3, r2
 8716 00dc 1A01     		lsls	r2, r3, #4
 8717 00de D31A     		subs	r3, r2, r3
 8718 00e0 0833     		adds	r3, r3, #8
 8719 00e2 1A46     		mov	r2, r3
 8720 00e4 BB68     		ldr	r3, [r7, #8]
 8721 00e6 1344     		add	r3, r3, r2
 8722 00e8 1B78     		ldrb	r3, [r3]	@ zero_extendqisi2
 8723 00ea 1846     		mov	r0, r3
 8724 00ec FFF7FEFF 		bl	TranslateSpecialFuncionDigit
 8725 00f0 0346     		mov	r3, r0
 8726 00f2 DBB2     		uxtb	r3, r3
 8727 00f4 2246     		mov	r2, r4
ARM GAS  C:\Users\RECEPC~1\AppData\Local\Temp\cc7aDVfG.s 			page 194


 8728 00f6 1343     		orrs	r3, r3, r2
 8729 00f8 DBB2     		uxtb	r3, r3
 8730 00fa BB75     		strb	r3, [r7, #22]
2228:.\AdvantageImpl.c ****             if(remblocks == 0)
 8731              		.loc 1 2228 0
 8732 00fc BB7D     		ldrb	r3, [r7, #22]	@ zero_extendqisi2
 8733 00fe 002B     		cmp	r3, #0
 8734 0100 05D1     		bne	.L346
2229:.\AdvantageImpl.c ****             {
2230:.\AdvantageImpl.c ****                 index = 0;
 8735              		.loc 1 2230 0
 8736 0102 084B     		ldr	r3, .L348
 8737 0104 0022     		movs	r2, #0
 8738 0106 1A70     		strb	r2, [r3]
2231:.\AdvantageImpl.c ****                 retval = true;
 8739              		.loc 1 2231 0
 8740 0108 0123     		movs	r3, #1
 8741 010a FB77     		strb	r3, [r7, #31]
 8742 010c 05E0     		b	.L345
 8743              	.L346:
2232:.\AdvantageImpl.c ****             }else{
2233:.\AdvantageImpl.c ****                 index++;
 8744              		.loc 1 2233 0
 8745 010e 054B     		ldr	r3, .L348
 8746 0110 1B78     		ldrb	r3, [r3]	@ zero_extendqisi2
 8747 0112 0133     		adds	r3, r3, #1
 8748 0114 DAB2     		uxtb	r2, r3
 8749 0116 034B     		ldr	r3, .L348
 8750 0118 1A70     		strb	r2, [r3]
 8751              	.L345:
 8752              	.LBE58:
 8753              	.LBE57:
2234:.\AdvantageImpl.c ****             }
2235:.\AdvantageImpl.c ****         }
2236:.\AdvantageImpl.c ****     }
2237:.\AdvantageImpl.c ****     return retval;
 8754              		.loc 1 2237 0
 8755 011a FB7F     		ldrb	r3, [r7, #31]	@ zero_extendqisi2
2238:.\AdvantageImpl.c **** }
 8756              		.loc 1 2238 0
 8757 011c 1846     		mov	r0, r3
 8758 011e 2437     		adds	r7, r7, #36
 8759              		.cfi_def_cfa_offset 12
 8760 0120 BD46     		mov	sp, r7
 8761              		.cfi_def_cfa_register 13
 8762              		@ sp needed
 8763 0122 90BD     		pop	{r4, r7, pc}
 8764              	.L349:
 8765              		.align	2
 8766              	.L348:
 8767 0124 01000000 		.word	index.9618
 8768              		.cfi_endproc
 8769              	.LFE93:
 8770              		.size	AcquirePumpSpecialFunctionResponseResolver, .-AcquirePumpSpecialFunctionResponseResolver
 8771              		.section	.text.PumpEnumeratorRequest,"ax",%progbits
 8772              		.align	2
 8773              		.global	PumpEnumeratorRequest
ARM GAS  C:\Users\RECEPC~1\AppData\Local\Temp\cc7aDVfG.s 			page 195


 8774              		.thumb
 8775              		.thumb_func
 8776              		.type	PumpEnumeratorRequest, %function
 8777              	PumpEnumeratorRequest:
 8778              	.LFB94:
2239:.\AdvantageImpl.c **** 
2240:.\AdvantageImpl.c **** //@Created By: HIJH
2241:.\AdvantageImpl.c **** //@Septembre de 2016
2242:.\AdvantageImpl.c **** void PumpEnumeratorRequest(LPVOID pparam)
2243:.\AdvantageImpl.c **** {
 8779              		.loc 1 2243 0
 8780              		.cfi_startproc
 8781              		@ args = 0, pretend = 0, frame = 24
 8782              		@ frame_needed = 1, uses_anonymous_args = 0
 8783 0000 80B5     		push	{r7, lr}
 8784              		.cfi_def_cfa_offset 8
 8785              		.cfi_offset 7, -8
 8786              		.cfi_offset 14, -4
 8787 0002 86B0     		sub	sp, sp, #24
 8788              		.cfi_def_cfa_offset 32
 8789 0004 00AF     		add	r7, sp, #0
 8790              		.cfi_def_cfa_register 7
 8791 0006 7860     		str	r0, [r7, #4]
2244:.\AdvantageImpl.c ****     PNEAR_PUMPPTR ppump = (PNEAR_PUMPPTR)pparam;
 8792              		.loc 1 2244 0
 8793 0008 7B68     		ldr	r3, [r7, #4]
 8794 000a 7B61     		str	r3, [r7, #20]
2245:.\AdvantageImpl.c ****     if(ppump)
 8795              		.loc 1 2245 0
 8796 000c 7B69     		ldr	r3, [r7, #20]
 8797 000e 002B     		cmp	r3, #0
 8798 0010 23D0     		beq	.L350
 8799              	.LBB59:
2246:.\AdvantageImpl.c ****     {
2247:.\AdvantageImpl.c ****         uint8_t index = 0;
 8800              		.loc 1 2247 0
 8801 0012 0023     		movs	r3, #0
 8802 0014 FB74     		strb	r3, [r7, #19]
2248:.\AdvantageImpl.c ****         memset(ppump->_rxbuffer, 0x00, _PUMP_RX_BUFFER_SIZE_);
 8803              		.loc 1 2248 0
 8804 0016 7B69     		ldr	r3, [r7, #20]
 8805 0018 03F5D073 		add	r3, r3, #416
 8806 001c 1846     		mov	r0, r3
 8807 001e 0021     		movs	r1, #0
 8808 0020 4FF4C072 		mov	r2, #384
 8809 0024 FFF7FEFF 		bl	memset
2249:.\AdvantageImpl.c ****         PUARTMESSAGEPTR puartdisp = GetUARTMessageSlot(UART_DISPENSER);
 8810              		.loc 1 2249 0
 8811 0028 A220     		movs	r0, #162
 8812 002a FFF7FEFF 		bl	GetUARTMessageSlot
 8813 002e F860     		str	r0, [r7, #12]
2250:.\AdvantageImpl.c ****         if(puartdisp)
 8814              		.loc 1 2250 0
 8815 0030 FB68     		ldr	r3, [r7, #12]
 8816 0032 002B     		cmp	r3, #0
 8817 0034 11D0     		beq	.L350
2251:.\AdvantageImpl.c ****         {
ARM GAS  C:\Users\RECEPC~1\AppData\Local\Temp\cc7aDVfG.s 			page 196


2252:.\AdvantageImpl.c ****             puartdisp->_messagetx[index++] = PUMP_COMMAND(PUMP_STATE_REQUEST, ppump->_pumpid);
 8818              		.loc 1 2252 0
 8819 0036 FB7C     		ldrb	r3, [r7, #19]	@ zero_extendqisi2
 8820 0038 5A1C     		adds	r2, r3, #1
 8821 003a FA74     		strb	r2, [r7, #19]
 8822 003c 1946     		mov	r1, r3
 8823 003e 7B69     		ldr	r3, [r7, #20]
 8824 0040 1B78     		ldrb	r3, [r3]	@ zero_extendqisi2
 8825 0042 03F00F03 		and	r3, r3, #15
 8826 0046 DAB2     		uxtb	r2, r3
 8827 0048 FB68     		ldr	r3, [r7, #12]
 8828 004a 0B44     		add	r3, r3, r1
 8829 004c 1A71     		strb	r2, [r3, #4]
2253:.\AdvantageImpl.c ****             puartdisp->_messagelength = 1;//One byte
 8830              		.loc 1 2253 0
 8831 004e FB68     		ldr	r3, [r7, #12]
 8832 0050 0122     		movs	r2, #1
 8833 0052 5A80     		strh	r2, [r3, #2]	@ movhi
2254:.\AdvantageImpl.c ****             puartdisp->_messagestate = PENDING;
 8834              		.loc 1 2254 0
 8835 0054 FB68     		ldr	r3, [r7, #12]
 8836 0056 C222     		movs	r2, #194
 8837 0058 1A70     		strb	r2, [r3]
 8838              	.L350:
 8839              	.LBE59:
2255:.\AdvantageImpl.c ****         }
2256:.\AdvantageImpl.c ****     }
2257:.\AdvantageImpl.c **** }
 8840              		.loc 1 2257 0
 8841 005a 1837     		adds	r7, r7, #24
 8842              		.cfi_def_cfa_offset 8
 8843 005c BD46     		mov	sp, r7
 8844              		.cfi_def_cfa_register 13
 8845              		@ sp needed
 8846 005e 80BD     		pop	{r7, pc}
 8847              		.cfi_endproc
 8848              	.LFE94:
 8849              		.size	PumpEnumeratorRequest, .-PumpEnumeratorRequest
 8850              		.section	.text.AcquirePumpEnumeratorResponse,"ax",%progbits
 8851              		.align	2
 8852              		.global	AcquirePumpEnumeratorResponse
 8853              		.thumb
 8854              		.thumb_func
 8855              		.type	AcquirePumpEnumeratorResponse, %function
 8856              	AcquirePumpEnumeratorResponse:
 8857              	.LFB95:
2258:.\AdvantageImpl.c **** 
2259:.\AdvantageImpl.c **** //@Created By: HIJH
2260:.\AdvantageImpl.c **** //@Septembre de 2016
2261:.\AdvantageImpl.c **** void AcquirePumpEnumeratorResponse(LPVOID pparam)
2262:.\AdvantageImpl.c **** {
 8858              		.loc 1 2262 0
 8859              		.cfi_startproc
 8860              		@ args = 0, pretend = 0, frame = 24
 8861              		@ frame_needed = 1, uses_anonymous_args = 0
 8862 0000 80B5     		push	{r7, lr}
 8863              		.cfi_def_cfa_offset 8
ARM GAS  C:\Users\RECEPC~1\AppData\Local\Temp\cc7aDVfG.s 			page 197


 8864              		.cfi_offset 7, -8
 8865              		.cfi_offset 14, -4
 8866 0002 86B0     		sub	sp, sp, #24
 8867              		.cfi_def_cfa_offset 32
 8868 0004 00AF     		add	r7, sp, #0
 8869              		.cfi_def_cfa_register 7
 8870 0006 7860     		str	r0, [r7, #4]
2263:.\AdvantageImpl.c ****     AcquirePumpStateResponse(pparam);
 8871              		.loc 1 2263 0
 8872 0008 7868     		ldr	r0, [r7, #4]
 8873 000a FFF7FEFF 		bl	AcquirePumpStateResponse
2264:.\AdvantageImpl.c ****     PPUMPTRANSACTIONJOBCONTEXTPTR pjob = (PPUMPTRANSACTIONJOBCONTEXTPTR)pparam;
 8874              		.loc 1 2264 0
 8875 000e 7B68     		ldr	r3, [r7, #4]
 8876 0010 7B61     		str	r3, [r7, #20]
2265:.\AdvantageImpl.c ****     if(pjob->_ppump->_datacontainer._var0 < 0xF)
 8877              		.loc 1 2265 0
 8878 0012 7B69     		ldr	r3, [r7, #20]
 8879 0014 DB69     		ldr	r3, [r3, #28]
 8880 0016 93F8683B 		ldrb	r3, [r3, #2920]
 8881 001a DBB2     		uxtb	r3, r3
 8882 001c 0E2B     		cmp	r3, #14
 8883 001e 00F2FA80 		bhi	.L353
2266:.\AdvantageImpl.c ****     {
2267:.\AdvantageImpl.c ****         switch(pjob->_ppump->_datacontainer._var1)
 8884              		.loc 1 2267 0
 8885 0022 7B69     		ldr	r3, [r7, #20]
 8886 0024 DB69     		ldr	r3, [r3, #28]
 8887 0026 93F8693B 		ldrb	r3, [r3, #2921]
 8888 002a DBB2     		uxtb	r3, r3
 8889 002c 032B     		cmp	r3, #3
 8890 002e 00F2C580 		bhi	.L354
 8891 0032 01A2     		adr	r2, .L356
 8892 0034 52F823F0 		ldr	pc, [r2, r3, lsl #2]
 8893              		.p2align 2
 8894              	.L356:
 8895 0038 49000000 		.word	.L355+1
 8896 003c B5000000 		.word	.L357+1
 8897 0040 21010000 		.word	.L358+1
 8898 0044 8D010000 		.word	.L359+1
 8899              		.p2align 1
 8900              	.L355:
 8901              	.LBB60:
2268:.\AdvantageImpl.c ****         {
2269:.\AdvantageImpl.c ****             case 0:
2270:.\AdvantageImpl.c ****             {
2271:.\AdvantageImpl.c ****                 
2272:.\AdvantageImpl.c ****                 ClearEepromBuffer();
 8902              		.loc 1 2272 0
 8903 0048 FFF7FEFF 		bl	ClearEepromBuffer
2273:.\AdvantageImpl.c ****                 //Cleanup of the pump identifier in order to start the enumeration procedure
2274:.\AdvantageImpl.c ****                 LoadEepromPage(EEPROM_DISPENSER_PUMP1_LAYOUT_PAGE);
 8904              		.loc 1 2274 0
 8905 004c 4FF40070 		mov	r0, #512
 8906 0050 FFF7FEFF 		bl	LoadEepromPage
2275:.\AdvantageImpl.c ****                 GetEepromBuffer()[0] = pjob->_ppump->_pumpid;
 8907              		.loc 1 2275 0
ARM GAS  C:\Users\RECEPC~1\AppData\Local\Temp\cc7aDVfG.s 			page 198


 8908 0054 FFF7FEFF 		bl	GetEepromBuffer
 8909 0058 0246     		mov	r2, r0
 8910 005a 7B69     		ldr	r3, [r7, #20]
 8911 005c DB69     		ldr	r3, [r3, #28]
 8912 005e 1B78     		ldrb	r3, [r3]	@ zero_extendqisi2
 8913 0060 1370     		strb	r3, [r2]
2276:.\AdvantageImpl.c ****                 StoreEepromPage(EEPROM_DISPENSER_PUMP1_LAYOUT_PAGE);
 8914              		.loc 1 2276 0
 8915 0062 4FF40070 		mov	r0, #512
 8916 0066 FFF7FEFF 		bl	StoreEepromPage
2277:.\AdvantageImpl.c **** 
2278:.\AdvantageImpl.c ****                 uint8 var0 = pjob->_ppump->_datacontainer._var0;
 8917              		.loc 1 2278 0
 8918 006a 7B69     		ldr	r3, [r7, #20]
 8919 006c DB69     		ldr	r3, [r3, #28]
 8920 006e 93F8683B 		ldrb	r3, [r3, #2920]
 8921 0072 FB74     		strb	r3, [r7, #19]
2279:.\AdvantageImpl.c ****                 uint8 var1 = pjob->_ppump->_datacontainer._var1;
 8922              		.loc 1 2279 0
 8923 0074 7B69     		ldr	r3, [r7, #20]
 8924 0076 DB69     		ldr	r3, [r3, #28]
 8925 0078 93F8693B 		ldrb	r3, [r3, #2921]
 8926 007c BB74     		strb	r3, [r7, #18]
2280:.\AdvantageImpl.c ****                 pjob->_ppump = &_g_pumps[var1 + 1];
 8927              		.loc 1 2280 0
 8928 007e BB7C     		ldrb	r3, [r7, #18]	@ zero_extendqisi2
 8929 0080 0133     		adds	r3, r3, #1
 8930 0082 40F6C832 		movw	r2, #3016
 8931 0086 02FB03F3 		mul	r3, r2, r3
 8932 008a 694A     		ldr	r2, .L363
 8933 008c 1A44     		add	r2, r2, r3
 8934 008e 7B69     		ldr	r3, [r7, #20]
 8935 0090 DA61     		str	r2, [r3, #28]
2281:.\AdvantageImpl.c ****                 pjob->_ppump->_datacontainer._var1 = var1;
 8936              		.loc 1 2281 0
 8937 0092 7B69     		ldr	r3, [r7, #20]
 8938 0094 DB69     		ldr	r3, [r3, #28]
 8939 0096 BA7C     		ldrb	r2, [r7, #18]
 8940 0098 83F8692B 		strb	r2, [r3, #2921]
2282:.\AdvantageImpl.c ****                 pjob->_ppump->_datacontainer._var0 = var0;
 8941              		.loc 1 2282 0
 8942 009c 7B69     		ldr	r3, [r7, #20]
 8943 009e DB69     		ldr	r3, [r3, #28]
 8944 00a0 FA7C     		ldrb	r2, [r7, #19]
 8945 00a2 83F8682B 		strb	r2, [r3, #2920]
2283:.\AdvantageImpl.c ****                 _g_dispenserlayoutinfo._numpositions++;
 8946              		.loc 1 2283 0
 8947 00a6 634B     		ldr	r3, .L363+4
 8948 00a8 9B78     		ldrb	r3, [r3, #2]	@ zero_extendqisi2
 8949 00aa 0133     		adds	r3, r3, #1
 8950 00ac DAB2     		uxtb	r2, r3
 8951 00ae 614B     		ldr	r3, .L363+4
 8952 00b0 9A70     		strb	r2, [r3, #2]
2284:.\AdvantageImpl.c ****                 
2285:.\AdvantageImpl.c ****                 break;
 8953              		.loc 1 2285 0
 8954 00b2 83E0     		b	.L354
ARM GAS  C:\Users\RECEPC~1\AppData\Local\Temp\cc7aDVfG.s 			page 199


 8955              	.L357:
 8956              	.LBE60:
 8957              	.LBB61:
2286:.\AdvantageImpl.c ****             }
2287:.\AdvantageImpl.c ****             case 1:
2288:.\AdvantageImpl.c ****             {
2289:.\AdvantageImpl.c ****                 
2290:.\AdvantageImpl.c ****                 ClearEepromBuffer();
 8958              		.loc 1 2290 0
 8959 00b4 FFF7FEFF 		bl	ClearEepromBuffer
2291:.\AdvantageImpl.c ****                 //Cleanup of the pump identifier in order to start the enumeration procedure
2292:.\AdvantageImpl.c ****                 LoadEepromPage(EEPROM_DISPENSER_PUMP2_LAYOUT_PAGE);
 8960              		.loc 1 2292 0
 8961 00b8 4FF41070 		mov	r0, #576
 8962 00bc FFF7FEFF 		bl	LoadEepromPage
2293:.\AdvantageImpl.c ****                 GetEepromBuffer()[0] = pjob->_ppump->_pumpid;
 8963              		.loc 1 2293 0
 8964 00c0 FFF7FEFF 		bl	GetEepromBuffer
 8965 00c4 0246     		mov	r2, r0
 8966 00c6 7B69     		ldr	r3, [r7, #20]
 8967 00c8 DB69     		ldr	r3, [r3, #28]
 8968 00ca 1B78     		ldrb	r3, [r3]	@ zero_extendqisi2
 8969 00cc 1370     		strb	r3, [r2]
2294:.\AdvantageImpl.c ****                 StoreEepromPage(EEPROM_DISPENSER_PUMP2_LAYOUT_PAGE);
 8970              		.loc 1 2294 0
 8971 00ce 4FF41070 		mov	r0, #576
 8972 00d2 FFF7FEFF 		bl	StoreEepromPage
2295:.\AdvantageImpl.c ****                 
2296:.\AdvantageImpl.c ****                 uint8 var0 = pjob->_ppump->_datacontainer._var0;
 8973              		.loc 1 2296 0
 8974 00d6 7B69     		ldr	r3, [r7, #20]
 8975 00d8 DB69     		ldr	r3, [r3, #28]
 8976 00da 93F8683B 		ldrb	r3, [r3, #2920]
 8977 00de 7B74     		strb	r3, [r7, #17]
2297:.\AdvantageImpl.c ****                 uint8 var1 = pjob->_ppump->_datacontainer._var1;
 8978              		.loc 1 2297 0
 8979 00e0 7B69     		ldr	r3, [r7, #20]
 8980 00e2 DB69     		ldr	r3, [r3, #28]
 8981 00e4 93F8693B 		ldrb	r3, [r3, #2921]
 8982 00e8 3B74     		strb	r3, [r7, #16]
2298:.\AdvantageImpl.c ****                 pjob->_ppump = &_g_pumps[var1 + 1];
 8983              		.loc 1 2298 0
 8984 00ea 3B7C     		ldrb	r3, [r7, #16]	@ zero_extendqisi2
 8985 00ec 0133     		adds	r3, r3, #1
 8986 00ee 40F6C832 		movw	r2, #3016
 8987 00f2 02FB03F3 		mul	r3, r2, r3
 8988 00f6 4E4A     		ldr	r2, .L363
 8989 00f8 1A44     		add	r2, r2, r3
 8990 00fa 7B69     		ldr	r3, [r7, #20]
 8991 00fc DA61     		str	r2, [r3, #28]
2299:.\AdvantageImpl.c ****                 pjob->_ppump->_datacontainer._var1 = var1;
 8992              		.loc 1 2299 0
 8993 00fe 7B69     		ldr	r3, [r7, #20]
 8994 0100 DB69     		ldr	r3, [r3, #28]
 8995 0102 3A7C     		ldrb	r2, [r7, #16]
 8996 0104 83F8692B 		strb	r2, [r3, #2921]
2300:.\AdvantageImpl.c ****                 pjob->_ppump->_datacontainer._var0 = var0;
ARM GAS  C:\Users\RECEPC~1\AppData\Local\Temp\cc7aDVfG.s 			page 200


 8997              		.loc 1 2300 0
 8998 0108 7B69     		ldr	r3, [r7, #20]
 8999 010a DB69     		ldr	r3, [r3, #28]
 9000 010c 7A7C     		ldrb	r2, [r7, #17]
 9001 010e 83F8682B 		strb	r2, [r3, #2920]
2301:.\AdvantageImpl.c ****                 _g_dispenserlayoutinfo._numpositions++;
 9002              		.loc 1 2301 0
 9003 0112 484B     		ldr	r3, .L363+4
 9004 0114 9B78     		ldrb	r3, [r3, #2]	@ zero_extendqisi2
 9005 0116 0133     		adds	r3, r3, #1
 9006 0118 DAB2     		uxtb	r2, r3
 9007 011a 464B     		ldr	r3, .L363+4
 9008 011c 9A70     		strb	r2, [r3, #2]
2302:.\AdvantageImpl.c ****                 
2303:.\AdvantageImpl.c ****                 break;
 9009              		.loc 1 2303 0
 9010 011e 4DE0     		b	.L354
 9011              	.L358:
 9012              	.LBE61:
 9013              	.LBB62:
2304:.\AdvantageImpl.c ****             }
2305:.\AdvantageImpl.c ****             case 2:
2306:.\AdvantageImpl.c ****             {
2307:.\AdvantageImpl.c ****                 
2308:.\AdvantageImpl.c ****                 ClearEepromBuffer();
 9014              		.loc 1 2308 0
 9015 0120 FFF7FEFF 		bl	ClearEepromBuffer
2309:.\AdvantageImpl.c ****                 //Cleanup of the pump identifier in order to start the enumeration procedure
2310:.\AdvantageImpl.c ****                 LoadEepromPage(EEPROM_DISPENSER_PUMP3_LAYOUT_PAGE);
 9016              		.loc 1 2310 0
 9017 0124 4FF42070 		mov	r0, #640
 9018 0128 FFF7FEFF 		bl	LoadEepromPage
2311:.\AdvantageImpl.c ****                 GetEepromBuffer()[0] = pjob->_ppump->_pumpid;
 9019              		.loc 1 2311 0
 9020 012c FFF7FEFF 		bl	GetEepromBuffer
 9021 0130 0246     		mov	r2, r0
 9022 0132 7B69     		ldr	r3, [r7, #20]
 9023 0134 DB69     		ldr	r3, [r3, #28]
 9024 0136 1B78     		ldrb	r3, [r3]	@ zero_extendqisi2
 9025 0138 1370     		strb	r3, [r2]
2312:.\AdvantageImpl.c ****                 StoreEepromPage(EEPROM_DISPENSER_PUMP3_LAYOUT_PAGE);
 9026              		.loc 1 2312 0
 9027 013a 4FF42070 		mov	r0, #640
 9028 013e FFF7FEFF 		bl	StoreEepromPage
2313:.\AdvantageImpl.c ****                 
2314:.\AdvantageImpl.c ****                 uint8 var0 = pjob->_ppump->_datacontainer._var0;
 9029              		.loc 1 2314 0
 9030 0142 7B69     		ldr	r3, [r7, #20]
 9031 0144 DB69     		ldr	r3, [r3, #28]
 9032 0146 93F8683B 		ldrb	r3, [r3, #2920]
 9033 014a FB73     		strb	r3, [r7, #15]
2315:.\AdvantageImpl.c ****                 uint8 var1 = pjob->_ppump->_datacontainer._var1;
 9034              		.loc 1 2315 0
 9035 014c 7B69     		ldr	r3, [r7, #20]
 9036 014e DB69     		ldr	r3, [r3, #28]
 9037 0150 93F8693B 		ldrb	r3, [r3, #2921]
 9038 0154 BB73     		strb	r3, [r7, #14]
ARM GAS  C:\Users\RECEPC~1\AppData\Local\Temp\cc7aDVfG.s 			page 201


2316:.\AdvantageImpl.c ****                 pjob->_ppump = &_g_pumps[var1 + 1];
 9039              		.loc 1 2316 0
 9040 0156 BB7B     		ldrb	r3, [r7, #14]	@ zero_extendqisi2
 9041 0158 0133     		adds	r3, r3, #1
 9042 015a 40F6C832 		movw	r2, #3016
 9043 015e 02FB03F3 		mul	r3, r2, r3
 9044 0162 334A     		ldr	r2, .L363
 9045 0164 1A44     		add	r2, r2, r3
 9046 0166 7B69     		ldr	r3, [r7, #20]
 9047 0168 DA61     		str	r2, [r3, #28]
2317:.\AdvantageImpl.c ****                 pjob->_ppump->_datacontainer._var1 = var1;
 9048              		.loc 1 2317 0
 9049 016a 7B69     		ldr	r3, [r7, #20]
 9050 016c DB69     		ldr	r3, [r3, #28]
 9051 016e BA7B     		ldrb	r2, [r7, #14]
 9052 0170 83F8692B 		strb	r2, [r3, #2921]
2318:.\AdvantageImpl.c ****                 pjob->_ppump->_datacontainer._var0 = var0;
 9053              		.loc 1 2318 0
 9054 0174 7B69     		ldr	r3, [r7, #20]
 9055 0176 DB69     		ldr	r3, [r3, #28]
 9056 0178 FA7B     		ldrb	r2, [r7, #15]
 9057 017a 83F8682B 		strb	r2, [r3, #2920]
2319:.\AdvantageImpl.c ****                 _g_dispenserlayoutinfo._numpositions++;
 9058              		.loc 1 2319 0
 9059 017e 2D4B     		ldr	r3, .L363+4
 9060 0180 9B78     		ldrb	r3, [r3, #2]	@ zero_extendqisi2
 9061 0182 0133     		adds	r3, r3, #1
 9062 0184 DAB2     		uxtb	r2, r3
 9063 0186 2B4B     		ldr	r3, .L363+4
 9064 0188 9A70     		strb	r2, [r3, #2]
2320:.\AdvantageImpl.c ****                 
2321:.\AdvantageImpl.c ****                 break;
 9065              		.loc 1 2321 0
 9066 018a 17E0     		b	.L354
 9067              	.L359:
 9068              	.LBE62:
2322:.\AdvantageImpl.c ****             }
2323:.\AdvantageImpl.c ****             case 3:
2324:.\AdvantageImpl.c ****             {
2325:.\AdvantageImpl.c ****                 
2326:.\AdvantageImpl.c ****                 ClearEepromBuffer();
 9069              		.loc 1 2326 0
 9070 018c FFF7FEFF 		bl	ClearEepromBuffer
2327:.\AdvantageImpl.c ****                 //Cleanup of the pump identifier in order to start the enumeration procedure
2328:.\AdvantageImpl.c ****                 LoadEepromPage(EEPROM_DISPENSER_PUMP4_LAYOUT_PAGE);
 9071              		.loc 1 2328 0
 9072 0190 4FF43070 		mov	r0, #704
 9073 0194 FFF7FEFF 		bl	LoadEepromPage
2329:.\AdvantageImpl.c ****                 GetEepromBuffer()[0] = pjob->_ppump->_pumpid;                
 9074              		.loc 1 2329 0
 9075 0198 FFF7FEFF 		bl	GetEepromBuffer
 9076 019c 0246     		mov	r2, r0
 9077 019e 7B69     		ldr	r3, [r7, #20]
 9078 01a0 DB69     		ldr	r3, [r3, #28]
 9079 01a2 1B78     		ldrb	r3, [r3]	@ zero_extendqisi2
 9080 01a4 1370     		strb	r3, [r2]
2330:.\AdvantageImpl.c ****                 StoreEepromPage(EEPROM_DISPENSER_PUMP4_LAYOUT_PAGE);
ARM GAS  C:\Users\RECEPC~1\AppData\Local\Temp\cc7aDVfG.s 			page 202


 9081              		.loc 1 2330 0
 9082 01a6 4FF43070 		mov	r0, #704
 9083 01aa FFF7FEFF 		bl	StoreEepromPage
2331:.\AdvantageImpl.c ****                 _g_dispenserlayoutinfo._numpositions++;
 9084              		.loc 1 2331 0
 9085 01ae 214B     		ldr	r3, .L363+4
 9086 01b0 9B78     		ldrb	r3, [r3, #2]	@ zero_extendqisi2
 9087 01b2 0133     		adds	r3, r3, #1
 9088 01b4 DAB2     		uxtb	r2, r3
 9089 01b6 1F4B     		ldr	r3, .L363+4
 9090 01b8 9A70     		strb	r2, [r3, #2]
2332:.\AdvantageImpl.c ****                 
2333:.\AdvantageImpl.c ****                 break;
 9091              		.loc 1 2333 0
 9092 01ba 00BF     		nop
 9093              	.L354:
2334:.\AdvantageImpl.c ****             }
2335:.\AdvantageImpl.c ****         }
2336:.\AdvantageImpl.c ****         pjob->_ppump->_datacontainer._var1++;
 9094              		.loc 1 2336 0
 9095 01bc 7B69     		ldr	r3, [r7, #20]
 9096 01be DB69     		ldr	r3, [r3, #28]
 9097 01c0 93F8692B 		ldrb	r2, [r3, #2921]
 9098 01c4 D2B2     		uxtb	r2, r2
 9099 01c6 0132     		adds	r2, r2, #1
 9100 01c8 D2B2     		uxtb	r2, r2
 9101 01ca 83F8692B 		strb	r2, [r3, #2921]
2337:.\AdvantageImpl.c ****         if(pjob->_ppump->_datacontainer._var1 < _MAX_NUMBER_OF_PUMPS_)
 9102              		.loc 1 2337 0
 9103 01ce 7B69     		ldr	r3, [r7, #20]
 9104 01d0 DB69     		ldr	r3, [r3, #28]
 9105 01d2 93F8693B 		ldrb	r3, [r3, #2921]
 9106 01d6 DBB2     		uxtb	r3, r3
 9107 01d8 032B     		cmp	r3, #3
 9108 01da 11D8     		bhi	.L360
2338:.\AdvantageImpl.c ****         {
2339:.\AdvantageImpl.c ****             pjob->_ppump->_datacontainer._var0++;
 9109              		.loc 1 2339 0
 9110 01dc 7B69     		ldr	r3, [r7, #20]
 9111 01de DB69     		ldr	r3, [r3, #28]
 9112 01e0 93F8682B 		ldrb	r2, [r3, #2920]
 9113 01e4 D2B2     		uxtb	r2, r2
 9114 01e6 0132     		adds	r2, r2, #1
 9115 01e8 D2B2     		uxtb	r2, r2
 9116 01ea 83F8682B 		strb	r2, [r3, #2920]
2340:.\AdvantageImpl.c ****             pjob->_ppump->_pumpid = pjob->_ppump->_datacontainer._var0;
 9117              		.loc 1 2340 0
 9118 01ee 7B69     		ldr	r3, [r7, #20]
 9119 01f0 DB69     		ldr	r3, [r3, #28]
 9120 01f2 7A69     		ldr	r2, [r7, #20]
 9121 01f4 D269     		ldr	r2, [r2, #28]
 9122 01f6 92F8682B 		ldrb	r2, [r2, #2920]
 9123 01fa D2B2     		uxtb	r2, r2
 9124 01fc 1A70     		strb	r2, [r3]
 9125 01fe 14E0     		b	.L352
 9126              	.L360:
2341:.\AdvantageImpl.c ****         }else{//This is the end of the enumeration procedure
ARM GAS  C:\Users\RECEPC~1\AppData\Local\Temp\cc7aDVfG.s 			page 203


2342:.\AdvantageImpl.c ****             pjob->_reenqueue = false;
 9127              		.loc 1 2342 0
 9128 0200 7B69     		ldr	r3, [r7, #20]
 9129 0202 0022     		movs	r2, #0
 9130 0204 1A70     		strb	r2, [r3]
2343:.\AdvantageImpl.c ****             
2344:.\AdvantageImpl.c ****             //Chance for any extra initialization
2345:.\AdvantageImpl.c ****             if(_g_ptractprogramming == PNEAR_NULLPTR)
 9131              		.loc 1 2345 0
 9132 0206 0C4B     		ldr	r3, .L363+8
 9133 0208 1B68     		ldr	r3, [r3]
 9134 020a 002B     		cmp	r3, #0
 9135 020c 0DD1     		bne	.L352
2346:.\AdvantageImpl.c ****                 _g_ptractprogramming = AdvantageActivateProgramming;
 9136              		.loc 1 2346 0
 9137 020e 0A4B     		ldr	r3, .L363+8
 9138 0210 0A4A     		ldr	r2, .L363+12
 9139 0212 1A60     		str	r2, [r3]
 9140 0214 09E0     		b	.L352
 9141              	.L353:
2347:.\AdvantageImpl.c ****         }
2348:.\AdvantageImpl.c ****         
2349:.\AdvantageImpl.c ****     }else{//This is the end of the enumeration procedure
2350:.\AdvantageImpl.c ****         pjob->_reenqueue = false;
 9142              		.loc 1 2350 0
 9143 0216 7B69     		ldr	r3, [r7, #20]
 9144 0218 0022     		movs	r2, #0
 9145 021a 1A70     		strb	r2, [r3]
2351:.\AdvantageImpl.c ****         
2352:.\AdvantageImpl.c ****         //Chance for any extra initialization
2353:.\AdvantageImpl.c ****         if(_g_ptractprogramming == PNEAR_NULLPTR)
 9146              		.loc 1 2353 0
 9147 021c 064B     		ldr	r3, .L363+8
 9148 021e 1B68     		ldr	r3, [r3]
 9149 0220 002B     		cmp	r3, #0
 9150 0222 02D1     		bne	.L352
2354:.\AdvantageImpl.c ****             _g_ptractprogramming = AdvantageActivateProgramming;
 9151              		.loc 1 2354 0
 9152 0224 044B     		ldr	r3, .L363+8
 9153 0226 054A     		ldr	r2, .L363+12
 9154 0228 1A60     		str	r2, [r3]
 9155              	.L352:
2355:.\AdvantageImpl.c ****     }
2356:.\AdvantageImpl.c **** }
 9156              		.loc 1 2356 0
 9157 022a 1837     		adds	r7, r7, #24
 9158              		.cfi_def_cfa_offset 8
 9159 022c BD46     		mov	sp, r7
 9160              		.cfi_def_cfa_register 13
 9161              		@ sp needed
 9162 022e 80BD     		pop	{r7, pc}
 9163              	.L364:
 9164              		.align	2
 9165              	.L363:
 9166 0230 00000000 		.word	_g_pumps
 9167 0234 00000000 		.word	_g_dispenserlayoutinfo
 9168 0238 00000000 		.word	_g_ptractprogramming
ARM GAS  C:\Users\RECEPC~1\AppData\Local\Temp\cc7aDVfG.s 			page 204


 9169 023c 00000000 		.word	AdvantageActivateProgramming
 9170              		.cfi_endproc
 9171              	.LFE95:
 9172              		.size	AcquirePumpEnumeratorResponse, .-AcquirePumpEnumeratorResponse
 9173              		.section	.text.PumpEnumeratorTimeout,"ax",%progbits
 9174              		.align	2
 9175              		.global	PumpEnumeratorTimeout
 9176              		.thumb
 9177              		.thumb_func
 9178              		.type	PumpEnumeratorTimeout, %function
 9179              	PumpEnumeratorTimeout:
 9180              	.LFB96:
2357:.\AdvantageImpl.c **** 
2358:.\AdvantageImpl.c **** //@Created By: HIJH
2359:.\AdvantageImpl.c **** //@Septembre de 2016
2360:.\AdvantageImpl.c **** void PumpEnumeratorTimeout(void *pparam)
2361:.\AdvantageImpl.c **** {
 9181              		.loc 1 2361 0
 9182              		.cfi_startproc
 9183              		@ args = 0, pretend = 0, frame = 16
 9184              		@ frame_needed = 1, uses_anonymous_args = 0
 9185              		@ link register save eliminated.
 9186 0000 80B4     		push	{r7}
 9187              		.cfi_def_cfa_offset 4
 9188              		.cfi_offset 7, -4
 9189 0002 85B0     		sub	sp, sp, #20
 9190              		.cfi_def_cfa_offset 24
 9191 0004 00AF     		add	r7, sp, #0
 9192              		.cfi_def_cfa_register 7
 9193 0006 7860     		str	r0, [r7, #4]
2362:.\AdvantageImpl.c ****     PPUMPTRANSACTIONJOBCONTEXTPTR pjob = (PPUMPTRANSACTIONJOBCONTEXTPTR)pparam;
 9194              		.loc 1 2362 0
 9195 0008 7B68     		ldr	r3, [r7, #4]
 9196 000a FB60     		str	r3, [r7, #12]
2363:.\AdvantageImpl.c ****     //_var0 holds the iterator index that goes from 0x0:pump16 to 0xF:pump15
2364:.\AdvantageImpl.c ****     if(pjob->_ppump->_datacontainer._var0 < 0x10)
 9197              		.loc 1 2364 0
 9198 000c FB68     		ldr	r3, [r7, #12]
 9199 000e DB69     		ldr	r3, [r3, #28]
 9200 0010 93F8683B 		ldrb	r3, [r3, #2920]
 9201 0014 DBB2     		uxtb	r3, r3
 9202 0016 0F2B     		cmp	r3, #15
 9203 0018 14D8     		bhi	.L366
2365:.\AdvantageImpl.c ****     {
2366:.\AdvantageImpl.c ****         pjob->_retriescounter = 0;
 9204              		.loc 1 2366 0
 9205 001a FB68     		ldr	r3, [r7, #12]
 9206 001c 0022     		movs	r2, #0
 9207 001e DA81     		strh	r2, [r3, #14]	@ movhi
2367:.\AdvantageImpl.c ****         pjob->_ppump->_datacontainer._var0++;
 9208              		.loc 1 2367 0
 9209 0020 FB68     		ldr	r3, [r7, #12]
 9210 0022 DB69     		ldr	r3, [r3, #28]
 9211 0024 93F8682B 		ldrb	r2, [r3, #2920]
 9212 0028 D2B2     		uxtb	r2, r2
 9213 002a 0132     		adds	r2, r2, #1
 9214 002c D2B2     		uxtb	r2, r2
ARM GAS  C:\Users\RECEPC~1\AppData\Local\Temp\cc7aDVfG.s 			page 205


 9215 002e 83F8682B 		strb	r2, [r3, #2920]
2368:.\AdvantageImpl.c ****         pjob->_ppump->_pumpid = pjob->_ppump->_datacontainer._var0;
 9216              		.loc 1 2368 0
 9217 0032 FB68     		ldr	r3, [r7, #12]
 9218 0034 DB69     		ldr	r3, [r3, #28]
 9219 0036 FA68     		ldr	r2, [r7, #12]
 9220 0038 D269     		ldr	r2, [r2, #28]
 9221 003a 92F8682B 		ldrb	r2, [r2, #2920]
 9222 003e D2B2     		uxtb	r2, r2
 9223 0040 1A70     		strb	r2, [r3]
 9224 0042 09E0     		b	.L365
 9225              	.L366:
2369:.\AdvantageImpl.c ****     }else{
2370:.\AdvantageImpl.c ****         pjob->_reenqueue = false;
 9226              		.loc 1 2370 0
 9227 0044 FB68     		ldr	r3, [r7, #12]
 9228 0046 0022     		movs	r2, #0
 9229 0048 1A70     		strb	r2, [r3]
2371:.\AdvantageImpl.c ****         
2372:.\AdvantageImpl.c ****         if(_g_ptractprogramming == PNEAR_NULLPTR)
 9230              		.loc 1 2372 0
 9231 004a 064B     		ldr	r3, .L368
 9232 004c 1B68     		ldr	r3, [r3]
 9233 004e 002B     		cmp	r3, #0
 9234 0050 02D1     		bne	.L365
2373:.\AdvantageImpl.c ****             _g_ptractprogramming = AdvantageActivateProgramming;
 9235              		.loc 1 2373 0
 9236 0052 044B     		ldr	r3, .L368
 9237 0054 044A     		ldr	r2, .L368+4
 9238 0056 1A60     		str	r2, [r3]
 9239              	.L365:
2374:.\AdvantageImpl.c ****     }
2375:.\AdvantageImpl.c **** }
 9240              		.loc 1 2375 0
 9241 0058 1437     		adds	r7, r7, #20
 9242              		.cfi_def_cfa_offset 4
 9243 005a BD46     		mov	sp, r7
 9244              		.cfi_def_cfa_register 13
 9245              		@ sp needed
 9246 005c 5DF8047B 		ldr	r7, [sp], #4
 9247              		.cfi_restore 7
 9248              		.cfi_def_cfa_offset 0
 9249 0060 7047     		bx	lr
 9250              	.L369:
 9251 0062 00BF     		.align	2
 9252              	.L368:
 9253 0064 00000000 		.word	_g_ptractprogramming
 9254 0068 00000000 		.word	AdvantageActivateProgramming
 9255              		.cfi_endproc
 9256              	.LFE96:
 9257              		.size	PumpEnumeratorTimeout, .-PumpEnumeratorTimeout
 9258              		.section	.text.AcquirePumpTotalsResponseResolver,"ax",%progbits
 9259              		.align	2
 9260              		.global	AcquirePumpTotalsResponseResolver
 9261              		.thumb
 9262              		.thumb_func
 9263              		.type	AcquirePumpTotalsResponseResolver, %function
ARM GAS  C:\Users\RECEPC~1\AppData\Local\Temp\cc7aDVfG.s 			page 206


 9264              	AcquirePumpTotalsResponseResolver:
 9265              	.LFB97:
2376:.\AdvantageImpl.c **** 
2377:.\AdvantageImpl.c **** //@Created By: HIJH
2378:.\AdvantageImpl.c **** //@Septembre de 2016
2379:.\AdvantageImpl.c **** bool AcquirePumpTotalsResponseResolver(void *pparam, void *pbuffer, uint16 buffersize)
2380:.\AdvantageImpl.c **** {
 9266              		.loc 1 2380 0
 9267              		.cfi_startproc
 9268              		@ args = 0, pretend = 0, frame = 24
 9269              		@ frame_needed = 1, uses_anonymous_args = 0
 9270              		@ link register save eliminated.
 9271 0000 80B4     		push	{r7}
 9272              		.cfi_def_cfa_offset 4
 9273              		.cfi_offset 7, -4
 9274 0002 87B0     		sub	sp, sp, #28
 9275              		.cfi_def_cfa_offset 32
 9276 0004 00AF     		add	r7, sp, #0
 9277              		.cfi_def_cfa_register 7
 9278 0006 F860     		str	r0, [r7, #12]
 9279 0008 B960     		str	r1, [r7, #8]
 9280 000a 1346     		mov	r3, r2
 9281 000c FB80     		strh	r3, [r7, #6]	@ movhi
2381:.\AdvantageImpl.c ****     bool retval = false;
 9282              		.loc 1 2381 0
 9283 000e 0023     		movs	r3, #0
 9284 0010 FB75     		strb	r3, [r7, #23]
2382:.\AdvantageImpl.c ****     PNEAR_PUMPPTR ppump = (PNEAR_PUMPPTR)pparam;
 9285              		.loc 1 2382 0
 9286 0012 FB68     		ldr	r3, [r7, #12]
 9287 0014 3B61     		str	r3, [r7, #16]
2383:.\AdvantageImpl.c ****     //ppump->_transhealth = _PUMP_OK_;
2384:.\AdvantageImpl.c ****     if(_g_dispenserlayoutinfo._displaydigitsmode == 0x06)
 9288              		.loc 1 2384 0
 9289 0016 504B     		ldr	r3, .L385
 9290 0018 1B7C     		ldrb	r3, [r3, #16]	@ zero_extendqisi2
 9291 001a 062B     		cmp	r3, #6
 9292 001c 4DD1     		bne	.L371
2385:.\AdvantageImpl.c ****     {            
2386:.\AdvantageImpl.c ****         switch(ppump->_pumpindex)
 9293              		.loc 1 2386 0
 9294 001e 3B69     		ldr	r3, [r7, #16]
 9295 0020 5B78     		ldrb	r3, [r3, #1]	@ zero_extendqisi2
 9296 0022 032B     		cmp	r3, #3
 9297 0024 00F29080 		bhi	.L378
 9298 0028 01A2     		adr	r2, .L374
 9299 002a 52F823F0 		ldr	pc, [r2, r3, lsl #2]
 9300 002e 00BF     		.p2align 2
 9301              	.L374:
 9302 0030 41000000 		.word	.L373+1
 9303 0034 5F000000 		.word	.L375+1
 9304 0038 7D000000 		.word	.L376+1
 9305 003c 9B000000 		.word	.L377+1
 9306              		.p2align 1
 9307              	.L373:
2387:.\AdvantageImpl.c ****         {
2388:.\AdvantageImpl.c ****             case 0x00:
ARM GAS  C:\Users\RECEPC~1\AppData\Local\Temp\cc7aDVfG.s 			page 207


2389:.\AdvantageImpl.c ****                 retval = (buffersize >= (_g_dispenserlayoutinfo._hosesposition1*_PUMP_TOTALS_BUFFER
 9308              		.loc 1 2389 0
 9309 0040 FA88     		ldrh	r2, [r7, #6]
 9310 0042 454B     		ldr	r3, .L385
 9311 0044 DB78     		ldrb	r3, [r3, #3]	@ zero_extendqisi2
 9312 0046 1946     		mov	r1, r3
 9313 0048 0B46     		mov	r3, r1
 9314 004a 1B01     		lsls	r3, r3, #4
 9315 004c 5B1A     		subs	r3, r3, r1
 9316 004e 5B00     		lsls	r3, r3, #1
 9317 0050 0433     		adds	r3, r3, #4
 9318 0052 9A42     		cmp	r2, r3
 9319 0054 ACBF     		ite	ge
 9320 0056 0123     		movge	r3, #1
 9321 0058 0023     		movlt	r3, #0
 9322 005a FB75     		strb	r3, [r7, #23]
2390:.\AdvantageImpl.c ****             break;
 9323              		.loc 1 2390 0
 9324 005c 2CE0     		b	.L372
 9325              	.L375:
2391:.\AdvantageImpl.c ****             case 0x01:
2392:.\AdvantageImpl.c ****                 retval = (buffersize >= (_g_dispenserlayoutinfo._hosesposition2*_PUMP_TOTALS_BUFFER
 9326              		.loc 1 2392 0
 9327 005e FA88     		ldrh	r2, [r7, #6]
 9328 0060 3D4B     		ldr	r3, .L385
 9329 0062 1B79     		ldrb	r3, [r3, #4]	@ zero_extendqisi2
 9330 0064 1946     		mov	r1, r3
 9331 0066 0B46     		mov	r3, r1
 9332 0068 1B01     		lsls	r3, r3, #4
 9333 006a 5B1A     		subs	r3, r3, r1
 9334 006c 5B00     		lsls	r3, r3, #1
 9335 006e 0433     		adds	r3, r3, #4
 9336 0070 9A42     		cmp	r2, r3
 9337 0072 ACBF     		ite	ge
 9338 0074 0123     		movge	r3, #1
 9339 0076 0023     		movlt	r3, #0
 9340 0078 FB75     		strb	r3, [r7, #23]
2393:.\AdvantageImpl.c ****             break;
 9341              		.loc 1 2393 0
 9342 007a 1DE0     		b	.L372
 9343              	.L376:
2394:.\AdvantageImpl.c ****             case 0x02:
2395:.\AdvantageImpl.c ****                 retval = (buffersize >= (_g_dispenserlayoutinfo._hosesposition3*_PUMP_TOTALS_BUFFER
 9344              		.loc 1 2395 0
 9345 007c FA88     		ldrh	r2, [r7, #6]
 9346 007e 364B     		ldr	r3, .L385
 9347 0080 5B79     		ldrb	r3, [r3, #5]	@ zero_extendqisi2
 9348 0082 1946     		mov	r1, r3
 9349 0084 0B46     		mov	r3, r1
 9350 0086 1B01     		lsls	r3, r3, #4
 9351 0088 5B1A     		subs	r3, r3, r1
 9352 008a 5B00     		lsls	r3, r3, #1
 9353 008c 0433     		adds	r3, r3, #4
 9354 008e 9A42     		cmp	r2, r3
 9355 0090 ACBF     		ite	ge
 9356 0092 0123     		movge	r3, #1
 9357 0094 0023     		movlt	r3, #0
ARM GAS  C:\Users\RECEPC~1\AppData\Local\Temp\cc7aDVfG.s 			page 208


 9358 0096 FB75     		strb	r3, [r7, #23]
2396:.\AdvantageImpl.c ****             break;
 9359              		.loc 1 2396 0
 9360 0098 0EE0     		b	.L372
 9361              	.L377:
2397:.\AdvantageImpl.c ****             case 0x03:
2398:.\AdvantageImpl.c ****                 retval = (buffersize >= (_g_dispenserlayoutinfo._hosesposition4*_PUMP_TOTALS_BUFFER
 9362              		.loc 1 2398 0
 9363 009a FA88     		ldrh	r2, [r7, #6]
 9364 009c 2E4B     		ldr	r3, .L385
 9365 009e 9B79     		ldrb	r3, [r3, #6]	@ zero_extendqisi2
 9366 00a0 1946     		mov	r1, r3
 9367 00a2 0B46     		mov	r3, r1
 9368 00a4 1B01     		lsls	r3, r3, #4
 9369 00a6 5B1A     		subs	r3, r3, r1
 9370 00a8 5B00     		lsls	r3, r3, #1
 9371 00aa 0433     		adds	r3, r3, #4
 9372 00ac 9A42     		cmp	r2, r3
 9373 00ae ACBF     		ite	ge
 9374 00b0 0123     		movge	r3, #1
 9375 00b2 0023     		movlt	r3, #0
 9376 00b4 FB75     		strb	r3, [r7, #23]
2399:.\AdvantageImpl.c ****             break;
 9377              		.loc 1 2399 0
 9378 00b6 00BF     		nop
 9379              	.L372:
 9380 00b8 46E0     		b	.L378
 9381              	.L371:
2400:.\AdvantageImpl.c ****         }
2401:.\AdvantageImpl.c ****     }
2402:.\AdvantageImpl.c ****     else
2403:.\AdvantageImpl.c ****     {            
2404:.\AdvantageImpl.c ****         switch(ppump->_pumpindex)
 9382              		.loc 1 2404 0
 9383 00ba 3B69     		ldr	r3, [r7, #16]
 9384 00bc 5B78     		ldrb	r3, [r3, #1]	@ zero_extendqisi2
 9385 00be 032B     		cmp	r3, #3
 9386 00c0 42D8     		bhi	.L378
 9387 00c2 01A2     		adr	r2, .L380
 9388 00c4 52F823F0 		ldr	pc, [r2, r3, lsl #2]
 9389              		.p2align 2
 9390              	.L380:
 9391 00c8 D9000000 		.word	.L379+1
 9392 00cc F5000000 		.word	.L381+1
 9393 00d0 11010000 		.word	.L382+1
 9394 00d4 2D010000 		.word	.L383+1
 9395              		.p2align 1
 9396              	.L379:
2405:.\AdvantageImpl.c ****         {
2406:.\AdvantageImpl.c ****             case 0x00:
2407:.\AdvantageImpl.c ****                 retval = (buffersize >= (_g_dispenserlayoutinfo._hosesposition1*_PUMP_TOTALS_BUFFER
 9397              		.loc 1 2407 0
 9398 00d8 FA88     		ldrh	r2, [r7, #6]
 9399 00da 1F4B     		ldr	r3, .L385
 9400 00dc DB78     		ldrb	r3, [r3, #3]	@ zero_extendqisi2
 9401 00de 1946     		mov	r1, r3
 9402 00e0 2A23     		movs	r3, #42
ARM GAS  C:\Users\RECEPC~1\AppData\Local\Temp\cc7aDVfG.s 			page 209


 9403 00e2 03FB01F3 		mul	r3, r3, r1
 9404 00e6 0433     		adds	r3, r3, #4
 9405 00e8 9A42     		cmp	r2, r3
 9406 00ea ACBF     		ite	ge
 9407 00ec 0123     		movge	r3, #1
 9408 00ee 0023     		movlt	r3, #0
 9409 00f0 FB75     		strb	r3, [r7, #23]
2408:.\AdvantageImpl.c ****             break;
 9410              		.loc 1 2408 0
 9411 00f2 29E0     		b	.L378
 9412              	.L381:
2409:.\AdvantageImpl.c ****             case 0x01:
2410:.\AdvantageImpl.c ****                 retval = (buffersize >= (_g_dispenserlayoutinfo._hosesposition2*_PUMP_TOTALS_BUFFER
 9413              		.loc 1 2410 0
 9414 00f4 FA88     		ldrh	r2, [r7, #6]
 9415 00f6 184B     		ldr	r3, .L385
 9416 00f8 1B79     		ldrb	r3, [r3, #4]	@ zero_extendqisi2
 9417 00fa 1946     		mov	r1, r3
 9418 00fc 2A23     		movs	r3, #42
 9419 00fe 03FB01F3 		mul	r3, r3, r1
 9420 0102 0433     		adds	r3, r3, #4
 9421 0104 9A42     		cmp	r2, r3
 9422 0106 ACBF     		ite	ge
 9423 0108 0123     		movge	r3, #1
 9424 010a 0023     		movlt	r3, #0
 9425 010c FB75     		strb	r3, [r7, #23]
2411:.\AdvantageImpl.c ****             break;
 9426              		.loc 1 2411 0
 9427 010e 1BE0     		b	.L378
 9428              	.L382:
2412:.\AdvantageImpl.c ****             case 0x02:
2413:.\AdvantageImpl.c ****                 retval = (buffersize >= (_g_dispenserlayoutinfo._hosesposition3*_PUMP_TOTALS_BUFFER
 9429              		.loc 1 2413 0
 9430 0110 FA88     		ldrh	r2, [r7, #6]
 9431 0112 114B     		ldr	r3, .L385
 9432 0114 5B79     		ldrb	r3, [r3, #5]	@ zero_extendqisi2
 9433 0116 1946     		mov	r1, r3
 9434 0118 2A23     		movs	r3, #42
 9435 011a 03FB01F3 		mul	r3, r3, r1
 9436 011e 0433     		adds	r3, r3, #4
 9437 0120 9A42     		cmp	r2, r3
 9438 0122 ACBF     		ite	ge
 9439 0124 0123     		movge	r3, #1
 9440 0126 0023     		movlt	r3, #0
 9441 0128 FB75     		strb	r3, [r7, #23]
2414:.\AdvantageImpl.c ****             break;
 9442              		.loc 1 2414 0
 9443 012a 0DE0     		b	.L378
 9444              	.L383:
2415:.\AdvantageImpl.c ****             case 0x03:
2416:.\AdvantageImpl.c ****                 retval = (buffersize >= (_g_dispenserlayoutinfo._hosesposition4*_PUMP_TOTALS_BUFFER
 9445              		.loc 1 2416 0
 9446 012c FA88     		ldrh	r2, [r7, #6]
 9447 012e 0A4B     		ldr	r3, .L385
 9448 0130 9B79     		ldrb	r3, [r3, #6]	@ zero_extendqisi2
 9449 0132 1946     		mov	r1, r3
 9450 0134 2A23     		movs	r3, #42
ARM GAS  C:\Users\RECEPC~1\AppData\Local\Temp\cc7aDVfG.s 			page 210


 9451 0136 03FB01F3 		mul	r3, r3, r1
 9452 013a 0433     		adds	r3, r3, #4
 9453 013c 9A42     		cmp	r2, r3
 9454 013e ACBF     		ite	ge
 9455 0140 0123     		movge	r3, #1
 9456 0142 0023     		movlt	r3, #0
 9457 0144 FB75     		strb	r3, [r7, #23]
2417:.\AdvantageImpl.c ****             break;
 9458              		.loc 1 2417 0
 9459 0146 00BF     		nop
 9460              	.L378:
2418:.\AdvantageImpl.c ****         }
2419:.\AdvantageImpl.c ****     }
2420:.\AdvantageImpl.c ****     
2421:.\AdvantageImpl.c ****     return retval;
 9461              		.loc 1 2421 0
 9462 0148 FB7D     		ldrb	r3, [r7, #23]	@ zero_extendqisi2
2422:.\AdvantageImpl.c **** }
 9463              		.loc 1 2422 0
 9464 014a 1846     		mov	r0, r3
 9465 014c 1C37     		adds	r7, r7, #28
 9466              		.cfi_def_cfa_offset 4
 9467 014e BD46     		mov	sp, r7
 9468              		.cfi_def_cfa_register 13
 9469              		@ sp needed
 9470 0150 5DF8047B 		ldr	r7, [sp], #4
 9471              		.cfi_restore 7
 9472              		.cfi_def_cfa_offset 0
 9473 0154 7047     		bx	lr
 9474              	.L386:
 9475 0156 00BF     		.align	2
 9476              	.L385:
 9477 0158 00000000 		.word	_g_dispenserlayoutinfo
 9478              		.cfi_endproc
 9479              	.LFE97:
 9480              		.size	AcquirePumpTotalsResponseResolver, .-AcquirePumpTotalsResponseResolver
 9481              		.section	.text.AcquirePumpTransactionDataResponseResolver,"ax",%progbits
 9482              		.align	2
 9483              		.global	AcquirePumpTransactionDataResponseResolver
 9484              		.thumb
 9485              		.thumb_func
 9486              		.type	AcquirePumpTransactionDataResponseResolver, %function
 9487              	AcquirePumpTransactionDataResponseResolver:
 9488              	.LFB98:
2423:.\AdvantageImpl.c **** 
2424:.\AdvantageImpl.c **** //@Created By: HIJH
2425:.\AdvantageImpl.c **** //@Septembre de 2016
2426:.\AdvantageImpl.c **** bool AcquirePumpTransactionDataResponseResolver(void *pparam, void *pbuffer, uint16 buffersize)
2427:.\AdvantageImpl.c **** {
 9489              		.loc 1 2427 0
 9490              		.cfi_startproc
 9491              		@ args = 0, pretend = 0, frame = 24
 9492              		@ frame_needed = 1, uses_anonymous_args = 0
 9493              		@ link register save eliminated.
 9494 0000 80B4     		push	{r7}
 9495              		.cfi_def_cfa_offset 4
 9496              		.cfi_offset 7, -4
ARM GAS  C:\Users\RECEPC~1\AppData\Local\Temp\cc7aDVfG.s 			page 211


 9497 0002 87B0     		sub	sp, sp, #28
 9498              		.cfi_def_cfa_offset 32
 9499 0004 00AF     		add	r7, sp, #0
 9500              		.cfi_def_cfa_register 7
 9501 0006 F860     		str	r0, [r7, #12]
 9502 0008 B960     		str	r1, [r7, #8]
 9503 000a 1346     		mov	r3, r2
 9504 000c FB80     		strh	r3, [r7, #6]	@ movhi
2428:.\AdvantageImpl.c ****     bool retval = false;
 9505              		.loc 1 2428 0
 9506 000e 0023     		movs	r3, #0
 9507 0010 FB75     		strb	r3, [r7, #23]
2429:.\AdvantageImpl.c ****     PNEAR_PUMPPTR ppump = (PNEAR_PUMPPTR)pparam;
 9508              		.loc 1 2429 0
 9509 0012 FB68     		ldr	r3, [r7, #12]
 9510 0014 3B61     		str	r3, [r7, #16]
2430:.\AdvantageImpl.c ****     
2431:.\AdvantageImpl.c ****     if(_g_dispenserlayoutinfo._displaydigitsmode == 0x06)
 9511              		.loc 1 2431 0
 9512 0016 0C4B     		ldr	r3, .L391
 9513 0018 1B7C     		ldrb	r3, [r3, #16]	@ zero_extendqisi2
 9514 001a 062B     		cmp	r3, #6
 9515 001c 06D1     		bne	.L388
2432:.\AdvantageImpl.c ****     {            
2433:.\AdvantageImpl.c ****         retval = (buffersize >= PUMP_TRANSACTION_DATA_REQUEST_RESPONSE_SIZE_4DIGITS);
 9516              		.loc 1 2433 0
 9517 001e FB88     		ldrh	r3, [r7, #6]
 9518 0020 202B     		cmp	r3, #32
 9519 0022 8CBF     		ite	hi
 9520 0024 0123     		movhi	r3, #1
 9521 0026 0023     		movls	r3, #0
 9522 0028 FB75     		strb	r3, [r7, #23]
 9523 002a 05E0     		b	.L389
 9524              	.L388:
2434:.\AdvantageImpl.c ****     }
2435:.\AdvantageImpl.c ****     else
2436:.\AdvantageImpl.c ****     {
2437:.\AdvantageImpl.c ****         retval = (buffersize >= PUMP_TRANSACTION_DATA_REQUEST_RESPONSE_SIZE);
 9525              		.loc 1 2437 0
 9526 002c FB88     		ldrh	r3, [r7, #6]
 9527 002e 262B     		cmp	r3, #38
 9528 0030 8CBF     		ite	hi
 9529 0032 0123     		movhi	r3, #1
 9530 0034 0023     		movls	r3, #0
 9531 0036 FB75     		strb	r3, [r7, #23]
 9532              	.L389:
2438:.\AdvantageImpl.c ****     }
2439:.\AdvantageImpl.c ****     
2440:.\AdvantageImpl.c ****     return retval;
 9533              		.loc 1 2440 0
 9534 0038 FB7D     		ldrb	r3, [r7, #23]	@ zero_extendqisi2
2441:.\AdvantageImpl.c **** }
 9535              		.loc 1 2441 0
 9536 003a 1846     		mov	r0, r3
 9537 003c 1C37     		adds	r7, r7, #28
 9538              		.cfi_def_cfa_offset 4
 9539 003e BD46     		mov	sp, r7
ARM GAS  C:\Users\RECEPC~1\AppData\Local\Temp\cc7aDVfG.s 			page 212


 9540              		.cfi_def_cfa_register 13
 9541              		@ sp needed
 9542 0040 5DF8047B 		ldr	r7, [sp], #4
 9543              		.cfi_restore 7
 9544              		.cfi_def_cfa_offset 0
 9545 0044 7047     		bx	lr
 9546              	.L392:
 9547 0046 00BF     		.align	2
 9548              	.L391:
 9549 0048 00000000 		.word	_g_dispenserlayoutinfo
 9550              		.cfi_endproc
 9551              	.LFE98:
 9552              		.size	AcquirePumpTransactionDataResponseResolver, .-AcquirePumpTransactionDataResponseResolver
 9553              		.section	.text.AcquirePpuChangeResponse,"ax",%progbits
 9554              		.align	2
 9555              		.global	AcquirePpuChangeResponse
 9556              		.thumb
 9557              		.thumb_func
 9558              		.type	AcquirePpuChangeResponse, %function
 9559              	AcquirePpuChangeResponse:
 9560              	.LFB99:
2442:.\AdvantageImpl.c **** 
2443:.\AdvantageImpl.c **** void AcquirePpuChangeResponse(void *pparam)
2444:.\AdvantageImpl.c **** {
 9561              		.loc 1 2444 0
 9562              		.cfi_startproc
 9563              		@ args = 0, pretend = 0, frame = 16
 9564              		@ frame_needed = 1, uses_anonymous_args = 0
 9565              		@ link register save eliminated.
 9566 0000 80B4     		push	{r7}
 9567              		.cfi_def_cfa_offset 4
 9568              		.cfi_offset 7, -4
 9569 0002 85B0     		sub	sp, sp, #20
 9570              		.cfi_def_cfa_offset 24
 9571 0004 00AF     		add	r7, sp, #0
 9572              		.cfi_def_cfa_register 7
 9573 0006 7860     		str	r0, [r7, #4]
2445:.\AdvantageImpl.c ****     PPUMPTRANSACTIONJOBCONTEXTPTR pjob = (PPUMPTRANSACTIONJOBCONTEXTPTR)pparam;
 9574              		.loc 1 2445 0
 9575 0008 7B68     		ldr	r3, [r7, #4]
 9576 000a FB60     		str	r3, [r7, #12]
2446:.\AdvantageImpl.c ****     if(pjob)
 9577              		.loc 1 2446 0
 9578 000c FB68     		ldr	r3, [r7, #12]
 9579 000e 002B     		cmp	r3, #0
 9580 0010 3AD0     		beq	.L393
2447:.\AdvantageImpl.c ****     {
2448:.\AdvantageImpl.c ****         pjob->_ppump->_pumpstate = ((pjob->_ppump->_rxbuffer[0x00] & 0xF0) >> 4);
 9581              		.loc 1 2448 0
 9582 0012 FB68     		ldr	r3, [r7, #12]
 9583 0014 DB69     		ldr	r3, [r3, #28]
 9584 0016 FA68     		ldr	r2, [r7, #12]
 9585 0018 D269     		ldr	r2, [r2, #28]
 9586 001a 92F8A021 		ldrb	r2, [r2, #416]	@ zero_extendqisi2
 9587 001e 1209     		lsrs	r2, r2, #4
 9588 0020 D2B2     		uxtb	r2, r2
 9589 0022 9A70     		strb	r2, [r3, #2]
ARM GAS  C:\Users\RECEPC~1\AppData\Local\Temp\cc7aDVfG.s 			page 213


2449:.\AdvantageImpl.c ****         
2450:.\AdvantageImpl.c ****         switch(_g_dispenserlayoutinfo._numpositions)
 9590              		.loc 1 2450 0
 9591 0024 1B4B     		ldr	r3, .L399
 9592 0026 9B78     		ldrb	r3, [r3, #2]	@ zero_extendqisi2
 9593 0028 022B     		cmp	r3, #2
 9594 002a 02D0     		beq	.L395
 9595 002c 042B     		cmp	r3, #4
 9596 002e 16D0     		beq	.L396
 9597 0030 2AE0     		b	.L393
 9598              	.L395:
2451:.\AdvantageImpl.c ****         {
2452:.\AdvantageImpl.c ****             case 0x02:
2453:.\AdvantageImpl.c ****             {
2454:.\AdvantageImpl.c ****                 if(pjob->_ppump->_pumpindex == (_g_dispenserlayoutinfo._numpositions - 1) && (pjob-
 9599              		.loc 1 2454 0
 9600 0032 FB68     		ldr	r3, [r7, #12]
 9601 0034 DB69     		ldr	r3, [r3, #28]
 9602 0036 5B78     		ldrb	r3, [r3, #1]	@ zero_extendqisi2
 9603 0038 1A46     		mov	r2, r3
 9604 003a 164B     		ldr	r3, .L399
 9605 003c 9B78     		ldrb	r3, [r3, #2]	@ zero_extendqisi2
 9606 003e 013B     		subs	r3, r3, #1
 9607 0040 9A42     		cmp	r2, r3
 9608 0042 0BD1     		bne	.L397
 9609              		.loc 1 2454 0 is_stmt 0 discriminator 1
 9610 0044 FB68     		ldr	r3, [r7, #12]
 9611 0046 DB69     		ldr	r3, [r3, #28]
 9612 0048 DB78     		ldrb	r3, [r3, #3]
 9613 004a DAB2     		uxtb	r2, r3
 9614 004c 114B     		ldr	r3, .L399
 9615 004e 1B79     		ldrb	r3, [r3, #4]	@ zero_extendqisi2
 9616 0050 9A42     		cmp	r2, r3
 9617 0052 03D1     		bne	.L397
2455:.\AdvantageImpl.c ****                     _g_dispenserlayoutinfo._inconfiguration = false;
 9618              		.loc 1 2455 0 is_stmt 1
 9619 0054 0F4B     		ldr	r3, .L399
 9620 0056 0022     		movs	r2, #0
 9621 0058 1A70     		strb	r2, [r3]
2456:.\AdvantageImpl.c ****                 
2457:.\AdvantageImpl.c ****                 break;
 9622              		.loc 1 2457 0
 9623 005a 15E0     		b	.L393
 9624              	.L397:
 9625 005c 14E0     		b	.L393
 9626              	.L396:
2458:.\AdvantageImpl.c ****             }
2459:.\AdvantageImpl.c ****             case 0x04:
2460:.\AdvantageImpl.c ****             {
2461:.\AdvantageImpl.c ****                 if(pjob->_ppump->_pumpindex == (_g_dispenserlayoutinfo._numpositions - 1) && (pjob-
 9627              		.loc 1 2461 0
 9628 005e FB68     		ldr	r3, [r7, #12]
 9629 0060 DB69     		ldr	r3, [r3, #28]
 9630 0062 5B78     		ldrb	r3, [r3, #1]	@ zero_extendqisi2
 9631 0064 1A46     		mov	r2, r3
 9632 0066 0B4B     		ldr	r3, .L399
 9633 0068 9B78     		ldrb	r3, [r3, #2]	@ zero_extendqisi2
ARM GAS  C:\Users\RECEPC~1\AppData\Local\Temp\cc7aDVfG.s 			page 214


 9634 006a 013B     		subs	r3, r3, #1
 9635 006c 9A42     		cmp	r2, r3
 9636 006e 0AD1     		bne	.L398
 9637              		.loc 1 2461 0 is_stmt 0 discriminator 1
 9638 0070 FB68     		ldr	r3, [r7, #12]
 9639 0072 DB69     		ldr	r3, [r3, #28]
 9640 0074 DB78     		ldrb	r3, [r3, #3]
 9641 0076 DAB2     		uxtb	r2, r3
 9642 0078 064B     		ldr	r3, .L399
 9643 007a 9B79     		ldrb	r3, [r3, #6]	@ zero_extendqisi2
 9644 007c 9A42     		cmp	r2, r3
 9645 007e 02D1     		bne	.L398
2462:.\AdvantageImpl.c ****                     _g_dispenserlayoutinfo._inconfiguration = false;
 9646              		.loc 1 2462 0 is_stmt 1
 9647 0080 044B     		ldr	r3, .L399
 9648 0082 0022     		movs	r2, #0
 9649 0084 1A70     		strb	r2, [r3]
 9650              	.L398:
2463:.\AdvantageImpl.c ****                 
2464:.\AdvantageImpl.c ****                 break;
 9651              		.loc 1 2464 0
 9652 0086 00BF     		nop
 9653              	.L393:
2465:.\AdvantageImpl.c ****             }
2466:.\AdvantageImpl.c ****         }
2467:.\AdvantageImpl.c ****     }
2468:.\AdvantageImpl.c **** }
 9654              		.loc 1 2468 0
 9655 0088 1437     		adds	r7, r7, #20
 9656              		.cfi_def_cfa_offset 4
 9657 008a BD46     		mov	sp, r7
 9658              		.cfi_def_cfa_register 13
 9659              		@ sp needed
 9660 008c 5DF8047B 		ldr	r7, [sp], #4
 9661              		.cfi_restore 7
 9662              		.cfi_def_cfa_offset 0
 9663 0090 7047     		bx	lr
 9664              	.L400:
 9665 0092 00BF     		.align	2
 9666              	.L399:
 9667 0094 00000000 		.word	_g_dispenserlayoutinfo
 9668              		.cfi_endproc
 9669              	.LFE99:
 9670              		.size	AcquirePpuChangeResponse, .-AcquirePpuChangeResponse
 9671              		.section	.text.AdvantageActivateProgramming,"ax",%progbits
 9672              		.align	2
 9673              		.global	AdvantageActivateProgramming
 9674              		.thumb
 9675              		.thumb_func
 9676              		.type	AdvantageActivateProgramming, %function
 9677              	AdvantageActivateProgramming:
 9678              	.LFB100:
2469:.\AdvantageImpl.c **** 
2470:.\AdvantageImpl.c **** //@Created By: HIJH
2471:.\AdvantageImpl.c **** //@Novembre de 2016
2472:.\AdvantageImpl.c **** void AdvantageActivateProgramming(LPVOID pparam)
2473:.\AdvantageImpl.c **** {
ARM GAS  C:\Users\RECEPC~1\AppData\Local\Temp\cc7aDVfG.s 			page 215


 9679              		.loc 1 2473 0
 9680              		.cfi_startproc
 9681              		@ args = 0, pretend = 0, frame = 24
 9682              		@ frame_needed = 1, uses_anonymous_args = 0
 9683 0000 80B5     		push	{r7, lr}
 9684              		.cfi_def_cfa_offset 8
 9685              		.cfi_offset 7, -8
 9686              		.cfi_offset 14, -4
 9687 0002 86B0     		sub	sp, sp, #24
 9688              		.cfi_def_cfa_offset 32
 9689 0004 00AF     		add	r7, sp, #0
 9690              		.cfi_def_cfa_register 7
 9691 0006 7860     		str	r0, [r7, #4]
2474:.\AdvantageImpl.c ****     PNEAR_PUMPPTR ppump = &_g_pumps[0x00];
 9692              		.loc 1 2474 0
 9693 0008 264B     		ldr	r3, .L406
 9694 000a 3B61     		str	r3, [r7, #16]
2475:.\AdvantageImpl.c ****     PSINKMESSAGEPTR pmsg = (PSINKMESSAGEPTR)pparam;
 9695              		.loc 1 2475 0
 9696 000c 7B68     		ldr	r3, [r7, #4]
 9697 000e FB60     		str	r3, [r7, #12]
2476:.\AdvantageImpl.c ****     if(ppump)
 9698              		.loc 1 2476 0
 9699 0010 3B69     		ldr	r3, [r7, #16]
 9700 0012 002B     		cmp	r3, #0
 9701 0014 42D0     		beq	.L401
 9702              	.LBB63:
2477:.\AdvantageImpl.c ****     {
2478:.\AdvantageImpl.c ****         ppump->_acquiringstate = true;
 9703              		.loc 1 2478 0
 9704 0016 3B69     		ldr	r3, [r7, #16]
 9705 0018 0122     		movs	r2, #1
 9706 001a 5A71     		strb	r2, [r3, #5]
2479:.\AdvantageImpl.c ****         ppump->_pcurrtransaction = GetTransactionByName(_PUMP_PROGRAM_MODE_);
 9707              		.loc 1 2479 0
 9708 001c 4F20     		movs	r0, #79
 9709 001e FFF7FEFF 		bl	GetTransactionByName
 9710 0022 0246     		mov	r2, r0
 9711 0024 3B69     		ldr	r3, [r7, #16]
 9712 0026 DA61     		str	r2, [r3, #28]
2480:.\AdvantageImpl.c ****         PumpTransactionJob *ptrjob = &((PumpTransaction*)ppump->_pcurrtransaction)->_jobs[0];
 9713              		.loc 1 2480 0
 9714 0028 3B69     		ldr	r3, [r7, #16]
 9715 002a DB69     		ldr	r3, [r3, #28]
 9716 002c 0433     		adds	r3, r3, #4
 9717 002e 7B61     		str	r3, [r7, #20]
2481:.\AdvantageImpl.c ****         if(ptrjob)
 9718              		.loc 1 2481 0
 9719 0030 7B69     		ldr	r3, [r7, #20]
 9720 0032 002B     		cmp	r3, #0
 9721 0034 32D0     		beq	.L401
2482:.\AdvantageImpl.c ****         {
2483:.\AdvantageImpl.c ****             while(ptrjob->Request != NULL)
 9722              		.loc 1 2483 0
 9723 0036 2DE0     		b	.L403
 9724              	.L405:
 9725              	.LBB64:
ARM GAS  C:\Users\RECEPC~1\AppData\Local\Temp\cc7aDVfG.s 			page 216


2484:.\AdvantageImpl.c ****             {
2485:.\AdvantageImpl.c ****                 PPUMPTRANSACTIONJOBCONTEXTPTR pjobcntr = _g_pumpjobqueue.Allocate(&_g_pumpjobqueue)
 9726              		.loc 1 2485 0
 9727 0038 1B4B     		ldr	r3, .L406+4
 9728 003a D3F84838 		ldr	r3, [r3, #2120]
 9729 003e 1A48     		ldr	r0, .L406+4
 9730 0040 9847     		blx	r3
 9731 0042 B860     		str	r0, [r7, #8]
2486:.\AdvantageImpl.c ****                 if(pjobcntr)
 9732              		.loc 1 2486 0
 9733 0044 BB68     		ldr	r3, [r7, #8]
 9734 0046 002B     		cmp	r3, #0
 9735 0048 21D0     		beq	.L404
2487:.\AdvantageImpl.c ****                 {
2488:.\AdvantageImpl.c ****                     pjobcntr->_reenqueue = false;
 9736              		.loc 1 2488 0
 9737 004a BB68     		ldr	r3, [r7, #8]
 9738 004c 0022     		movs	r2, #0
 9739 004e 1A70     		strb	r2, [r3]
2489:.\AdvantageImpl.c ****                     pjobcntr->_prequest = ptrjob;
 9740              		.loc 1 2489 0
 9741 0050 BB68     		ldr	r3, [r7, #8]
 9742 0052 7A69     		ldr	r2, [r7, #20]
 9743 0054 5A61     		str	r2, [r3, #20]
2490:.\AdvantageImpl.c ****                     pjobcntr->_presponse = NULL;
 9744              		.loc 1 2490 0
 9745 0056 BB68     		ldr	r3, [r7, #8]
 9746 0058 0022     		movs	r2, #0
 9747 005a 9A61     		str	r2, [r3, #24]
2491:.\AdvantageImpl.c ****                     pjobcntr->_ppump = ppump;
 9748              		.loc 1 2491 0
 9749 005c BB68     		ldr	r3, [r7, #8]
 9750 005e 3A69     		ldr	r2, [r7, #16]
 9751 0060 DA61     		str	r2, [r3, #28]
2492:.\AdvantageImpl.c ****                     pjobcntr->_ppump->CleanUp(pjobcntr->_ppump);
 9752              		.loc 1 2492 0
 9753 0062 BB68     		ldr	r3, [r7, #8]
 9754 0064 DB69     		ldr	r3, [r3, #28]
 9755 0066 D3F8C03B 		ldr	r3, [r3, #3008]
 9756 006a BA68     		ldr	r2, [r7, #8]
 9757 006c D269     		ldr	r2, [r2, #28]
 9758 006e 1046     		mov	r0, r2
 9759 0070 9847     		blx	r3
2493:.\AdvantageImpl.c ****                     //This callback will be invoked upon response (if exists)
2494:.\AdvantageImpl.c ****                     pjobcntr->Callback = pmsg->Callback;
 9760              		.loc 1 2494 0
 9761 0072 FB68     		ldr	r3, [r7, #12]
 9762 0074 D3F89421 		ldr	r2, [r3, #404]
 9763 0078 BB68     		ldr	r3, [r7, #8]
 9764 007a 1A62     		str	r2, [r3, #32]
2495:.\AdvantageImpl.c ****                     pjobcntr->_pdata = pmsg;
 9765              		.loc 1 2495 0
 9766 007c BB68     		ldr	r3, [r7, #8]
 9767 007e FA68     		ldr	r2, [r7, #12]
 9768 0080 5A62     		str	r2, [r3, #36]
2496:.\AdvantageImpl.c ****                     
2497:.\AdvantageImpl.c ****                     _g_pumpjobqueue.Enqueue(&_g_pumpjobqueue, pjobcntr);
ARM GAS  C:\Users\RECEPC~1\AppData\Local\Temp\cc7aDVfG.s 			page 217


 9769              		.loc 1 2497 0
 9770 0082 094B     		ldr	r3, .L406+4
 9771 0084 D3F84C38 		ldr	r3, [r3, #2124]
 9772 0088 0748     		ldr	r0, .L406+4
 9773 008a B968     		ldr	r1, [r7, #8]
 9774 008c 9847     		blx	r3
 9775              	.L404:
2498:.\AdvantageImpl.c ****                 }
2499:.\AdvantageImpl.c ****                 ptrjob++;
 9776              		.loc 1 2499 0
 9777 008e 7B69     		ldr	r3, [r7, #20]
 9778 0090 3433     		adds	r3, r3, #52
 9779 0092 7B61     		str	r3, [r7, #20]
 9780              	.L403:
 9781              	.LBE64:
2483:.\AdvantageImpl.c ****             {
 9782              		.loc 1 2483 0
 9783 0094 7B69     		ldr	r3, [r7, #20]
 9784 0096 1B68     		ldr	r3, [r3]
 9785 0098 002B     		cmp	r3, #0
 9786 009a CDD1     		bne	.L405
 9787              	.L401:
 9788              	.LBE63:
2500:.\AdvantageImpl.c ****             }
2501:.\AdvantageImpl.c ****         }
2502:.\AdvantageImpl.c ****     }
2503:.\AdvantageImpl.c **** }
 9789              		.loc 1 2503 0
 9790 009c 1837     		adds	r7, r7, #24
 9791              		.cfi_def_cfa_offset 8
 9792 009e BD46     		mov	sp, r7
 9793              		.cfi_def_cfa_register 13
 9794              		@ sp needed
 9795 00a0 80BD     		pop	{r7, pc}
 9796              	.L407:
 9797 00a2 00BF     		.align	2
 9798              	.L406:
 9799 00a4 00000000 		.word	_g_pumps
 9800 00a8 00000000 		.word	_g_pumpjobqueue
 9801              		.cfi_endproc
 9802              	.LFE100:
 9803              		.size	AdvantageActivateProgramming, .-AdvantageActivateProgramming
 9804              		.section	.text.GetLRC,"ax",%progbits
 9805              		.align	2
 9806              		.global	GetLRC
 9807              		.thumb
 9808              		.thumb_func
 9809              		.type	GetLRC, %function
 9810              	GetLRC:
 9811              	.LFB101:
2504:.\AdvantageImpl.c **** 
2505:.\AdvantageImpl.c **** ///////////////////////////////////////////////////////////////////////////////////////////////////
2506:.\AdvantageImpl.c **** //THESE ARE SUPPORT METHODS THAT WILL BE USED IN THE TRANSACTIONAL MACHINE
2507:.\AdvantageImpl.c **** ///////////////////////////////////////////////////////////////////////////////////////////////////
2508:.\AdvantageImpl.c **** //Calculation of the LRC according to the documentation
2509:.\AdvantageImpl.c **** uint8_t GetLRC(char8 *_pbuffer)
2510:.\AdvantageImpl.c **** {
ARM GAS  C:\Users\RECEPC~1\AppData\Local\Temp\cc7aDVfG.s 			page 218


 9812              		.loc 1 2510 0
 9813              		.cfi_startproc
 9814              		@ args = 0, pretend = 0, frame = 16
 9815              		@ frame_needed = 1, uses_anonymous_args = 0
 9816              		@ link register save eliminated.
 9817 0000 80B4     		push	{r7}
 9818              		.cfi_def_cfa_offset 4
 9819              		.cfi_offset 7, -4
 9820 0002 85B0     		sub	sp, sp, #20
 9821              		.cfi_def_cfa_offset 24
 9822 0004 00AF     		add	r7, sp, #0
 9823              		.cfi_def_cfa_register 7
 9824 0006 7860     		str	r0, [r7, #4]
2511:.\AdvantageImpl.c ****     uint8_t lrc = 0;
 9825              		.loc 1 2511 0
 9826 0008 0023     		movs	r3, #0
 9827 000a FB73     		strb	r3, [r7, #15]
2512:.\AdvantageImpl.c ****     while(*_pbuffer != 0xFB)
 9828              		.loc 1 2512 0
 9829 000c 0AE0     		b	.L409
 9830              	.L410:
2513:.\AdvantageImpl.c ****     {
2514:.\AdvantageImpl.c ****         lrc += (*_pbuffer & 0x0F);
 9831              		.loc 1 2514 0
 9832 000e 7B68     		ldr	r3, [r7, #4]
 9833 0010 1B78     		ldrb	r3, [r3]	@ zero_extendqisi2
 9834 0012 03F00F03 		and	r3, r3, #15
 9835 0016 DAB2     		uxtb	r2, r3
 9836 0018 FB7B     		ldrb	r3, [r7, #15]
 9837 001a 1344     		add	r3, r3, r2
 9838 001c FB73     		strb	r3, [r7, #15]
2515:.\AdvantageImpl.c ****         _pbuffer++;
 9839              		.loc 1 2515 0
 9840 001e 7B68     		ldr	r3, [r7, #4]
 9841 0020 0133     		adds	r3, r3, #1
 9842 0022 7B60     		str	r3, [r7, #4]
 9843              	.L409:
2512:.\AdvantageImpl.c ****     while(*_pbuffer != 0xFB)
 9844              		.loc 1 2512 0
 9845 0024 7B68     		ldr	r3, [r7, #4]
 9846 0026 1B78     		ldrb	r3, [r3]	@ zero_extendqisi2
 9847 0028 FB2B     		cmp	r3, #251
 9848 002a F0D1     		bne	.L410
2516:.\AdvantageImpl.c ****     }
2517:.\AdvantageImpl.c ****     lrc += (*_pbuffer & 0x0F);
 9849              		.loc 1 2517 0
 9850 002c 7B68     		ldr	r3, [r7, #4]
 9851 002e 1B78     		ldrb	r3, [r3]	@ zero_extendqisi2
 9852 0030 03F00F03 		and	r3, r3, #15
 9853 0034 DAB2     		uxtb	r2, r3
 9854 0036 FB7B     		ldrb	r3, [r7, #15]
 9855 0038 1344     		add	r3, r3, r2
 9856 003a FB73     		strb	r3, [r7, #15]
2518:.\AdvantageImpl.c ****     return (((~lrc + 1) & 0x0F) | 0xE0);
 9857              		.loc 1 2518 0
 9858 003c FB7B     		ldrb	r3, [r7, #15]
 9859 003e 5B42     		negs	r3, r3
ARM GAS  C:\Users\RECEPC~1\AppData\Local\Temp\cc7aDVfG.s 			page 219


 9860 0040 DBB2     		uxtb	r3, r3
 9861 0042 DBB2     		uxtb	r3, r3
 9862 0044 03F00F03 		and	r3, r3, #15
 9863 0048 DBB2     		uxtb	r3, r3
 9864 004a 63F01F03 		orn	r3, r3, #31
 9865 004e DBB2     		uxtb	r3, r3
 9866 0050 DBB2     		uxtb	r3, r3
2519:.\AdvantageImpl.c **** }
 9867              		.loc 1 2519 0
 9868 0052 1846     		mov	r0, r3
 9869 0054 1437     		adds	r7, r7, #20
 9870              		.cfi_def_cfa_offset 4
 9871 0056 BD46     		mov	sp, r7
 9872              		.cfi_def_cfa_register 13
 9873              		@ sp needed
 9874 0058 5DF8047B 		ldr	r7, [sp], #4
 9875              		.cfi_restore 7
 9876              		.cfi_def_cfa_offset 0
 9877 005c 7047     		bx	lr
 9878              		.cfi_endproc
 9879              	.LFE101:
 9880              		.size	GetLRC, .-GetLRC
 9881 005e 00BF     		.section	.text.FindLRC,"ax",%progbits
 9882              		.align	2
 9883              		.global	FindLRC
 9884              		.thumb
 9885              		.thumb_func
 9886              		.type	FindLRC, %function
 9887              	FindLRC:
 9888              	.LFB102:
2520:.\AdvantageImpl.c **** 
2521:.\AdvantageImpl.c **** uint8_t FindLRC(char8 *_pbuffer)
2522:.\AdvantageImpl.c **** {
 9889              		.loc 1 2522 0
 9890              		.cfi_startproc
 9891              		@ args = 0, pretend = 0, frame = 16
 9892              		@ frame_needed = 1, uses_anonymous_args = 0
 9893              		@ link register save eliminated.
 9894 0000 80B4     		push	{r7}
 9895              		.cfi_def_cfa_offset 4
 9896              		.cfi_offset 7, -4
 9897 0002 85B0     		sub	sp, sp, #20
 9898              		.cfi_def_cfa_offset 24
 9899 0004 00AF     		add	r7, sp, #0
 9900              		.cfi_def_cfa_register 7
 9901 0006 7860     		str	r0, [r7, #4]
2523:.\AdvantageImpl.c ****     uint8_t lrc = 0;
 9902              		.loc 1 2523 0
 9903 0008 0023     		movs	r3, #0
 9904 000a FB73     		strb	r3, [r7, #15]
2524:.\AdvantageImpl.c ****     while(*_pbuffer != 0xFB)
 9905              		.loc 1 2524 0
 9906 000c 02E0     		b	.L413
 9907              	.L414:
2525:.\AdvantageImpl.c ****     {
2526:.\AdvantageImpl.c ****         _pbuffer++;
 9908              		.loc 1 2526 0
ARM GAS  C:\Users\RECEPC~1\AppData\Local\Temp\cc7aDVfG.s 			page 220


 9909 000e 7B68     		ldr	r3, [r7, #4]
 9910 0010 0133     		adds	r3, r3, #1
 9911 0012 7B60     		str	r3, [r7, #4]
 9912              	.L413:
2524:.\AdvantageImpl.c ****     while(*_pbuffer != 0xFB)
 9913              		.loc 1 2524 0
 9914 0014 7B68     		ldr	r3, [r7, #4]
 9915 0016 1B78     		ldrb	r3, [r3]	@ zero_extendqisi2
 9916 0018 FB2B     		cmp	r3, #251
 9917 001a F8D1     		bne	.L414
2527:.\AdvantageImpl.c ****     }
2528:.\AdvantageImpl.c ****     return *(++_pbuffer);
 9918              		.loc 1 2528 0
 9919 001c 7B68     		ldr	r3, [r7, #4]
 9920 001e 0133     		adds	r3, r3, #1
 9921 0020 7B60     		str	r3, [r7, #4]
 9922 0022 7B68     		ldr	r3, [r7, #4]
 9923 0024 1B78     		ldrb	r3, [r3]	@ zero_extendqisi2
2529:.\AdvantageImpl.c **** }
 9924              		.loc 1 2529 0
 9925 0026 1846     		mov	r0, r3
 9926 0028 1437     		adds	r7, r7, #20
 9927              		.cfi_def_cfa_offset 4
 9928 002a BD46     		mov	sp, r7
 9929              		.cfi_def_cfa_register 13
 9930              		@ sp needed
 9931 002c 5DF8047B 		ldr	r7, [sp], #4
 9932              		.cfi_restore 7
 9933              		.cfi_def_cfa_offset 0
 9934 0030 7047     		bx	lr
 9935              		.cfi_endproc
 9936              	.LFE102:
 9937              		.size	FindLRC, .-FindLRC
 9938 0032 00BF     		.section	.text.InitiateTransaction,"ax",%progbits
 9939              		.align	2
 9940              		.global	InitiateTransaction
 9941              		.thumb
 9942              		.thumb_func
 9943              		.type	InitiateTransaction, %function
 9944              	InitiateTransaction:
 9945              	.LFB103:
2530:.\AdvantageImpl.c **** 
2531:.\AdvantageImpl.c **** //@Created By: HIJH
2532:.\AdvantageImpl.c **** //@Septembre de 2016
2533:.\AdvantageImpl.c **** void InitiateTransaction(void *pparam)
2534:.\AdvantageImpl.c **** {
 9946              		.loc 1 2534 0
 9947              		.cfi_startproc
 9948              		@ args = 0, pretend = 0, frame = 16
 9949              		@ frame_needed = 1, uses_anonymous_args = 0
 9950              		@ link register save eliminated.
 9951 0000 80B4     		push	{r7}
 9952              		.cfi_def_cfa_offset 4
 9953              		.cfi_offset 7, -4
 9954 0002 85B0     		sub	sp, sp, #20
 9955              		.cfi_def_cfa_offset 24
 9956 0004 00AF     		add	r7, sp, #0
ARM GAS  C:\Users\RECEPC~1\AppData\Local\Temp\cc7aDVfG.s 			page 221


 9957              		.cfi_def_cfa_register 7
 9958 0006 7860     		str	r0, [r7, #4]
2535:.\AdvantageImpl.c ****     PumpTransactionJobContext *pjob = (PumpTransactionJobContext*)pparam;
 9959              		.loc 1 2535 0
 9960 0008 7B68     		ldr	r3, [r7, #4]
 9961 000a FB60     		str	r3, [r7, #12]
2536:.\AdvantageImpl.c ****     if(pjob)
 9962              		.loc 1 2536 0
 9963 000c FB68     		ldr	r3, [r7, #12]
 9964 000e 002B     		cmp	r3, #0
 9965 0010 07D0     		beq	.L416
2537:.\AdvantageImpl.c ****     {
2538:.\AdvantageImpl.c ****         pjob->_ppump->_transhealth = _PUMP_OK_;
 9966              		.loc 1 2538 0
 9967 0012 FB68     		ldr	r3, [r7, #12]
 9968 0014 DB69     		ldr	r3, [r3, #28]
 9969 0016 0122     		movs	r2, #1
 9970 0018 1A76     		strb	r2, [r3, #24]
2539:.\AdvantageImpl.c ****         pjob->_ppump->_transtate = _PUMP_BUSY_;
 9971              		.loc 1 2539 0
 9972 001a FB68     		ldr	r3, [r7, #12]
 9973 001c DB69     		ldr	r3, [r3, #28]
 9974 001e 0122     		movs	r2, #1
 9975 0020 5A76     		strb	r2, [r3, #25]
 9976              	.L416:
2540:.\AdvantageImpl.c ****     }
2541:.\AdvantageImpl.c **** }
 9977              		.loc 1 2541 0
 9978 0022 1437     		adds	r7, r7, #20
 9979              		.cfi_def_cfa_offset 4
 9980 0024 BD46     		mov	sp, r7
 9981              		.cfi_def_cfa_register 13
 9982              		@ sp needed
 9983 0026 5DF8047B 		ldr	r7, [sp], #4
 9984              		.cfi_restore 7
 9985              		.cfi_def_cfa_offset 0
 9986 002a 7047     		bx	lr
 9987              		.cfi_endproc
 9988              	.LFE103:
 9989              		.size	InitiateTransaction, .-InitiateTransaction
 9990              		.section	.text.TerminateTransaction,"ax",%progbits
 9991              		.align	2
 9992              		.global	TerminateTransaction
 9993              		.thumb
 9994              		.thumb_func
 9995              		.type	TerminateTransaction, %function
 9996              	TerminateTransaction:
 9997              	.LFB104:
2542:.\AdvantageImpl.c **** 
2543:.\AdvantageImpl.c **** //@Created By: HIJH
2544:.\AdvantageImpl.c **** //@Septembre de 2016
2545:.\AdvantageImpl.c **** void TerminateTransaction(void *pparam)
2546:.\AdvantageImpl.c **** {
 9998              		.loc 1 2546 0
 9999              		.cfi_startproc
 10000              		@ args = 0, pretend = 0, frame = 16
 10001              		@ frame_needed = 1, uses_anonymous_args = 0
ARM GAS  C:\Users\RECEPC~1\AppData\Local\Temp\cc7aDVfG.s 			page 222


 10002              		@ link register save eliminated.
 10003 0000 80B4     		push	{r7}
 10004              		.cfi_def_cfa_offset 4
 10005              		.cfi_offset 7, -4
 10006 0002 85B0     		sub	sp, sp, #20
 10007              		.cfi_def_cfa_offset 24
 10008 0004 00AF     		add	r7, sp, #0
 10009              		.cfi_def_cfa_register 7
 10010 0006 7860     		str	r0, [r7, #4]
2547:.\AdvantageImpl.c ****     PPUMPTRANSACTIONJOBCONTEXTPTR pjob = (PPUMPTRANSACTIONJOBCONTEXTPTR)pparam;
 10011              		.loc 1 2547 0
 10012 0008 7B68     		ldr	r3, [r7, #4]
 10013 000a FB60     		str	r3, [r7, #12]
2548:.\AdvantageImpl.c ****     if(pjob)
 10014              		.loc 1 2548 0
 10015 000c FB68     		ldr	r3, [r7, #12]
 10016 000e 002B     		cmp	r3, #0
 10017 0010 07D0     		beq	.L418
2549:.\AdvantageImpl.c ****     {
2550:.\AdvantageImpl.c ****         pjob->_ppump->_transhealth = _PUMP_OK_;
 10018              		.loc 1 2550 0
 10019 0012 FB68     		ldr	r3, [r7, #12]
 10020 0014 DB69     		ldr	r3, [r3, #28]
 10021 0016 0122     		movs	r2, #1
 10022 0018 1A76     		strb	r2, [r3, #24]
2551:.\AdvantageImpl.c ****         pjob->_ppump->_transtate = _PUMP_IDLE_;
 10023              		.loc 1 2551 0
 10024 001a FB68     		ldr	r3, [r7, #12]
 10025 001c DB69     		ldr	r3, [r3, #28]
 10026 001e 0222     		movs	r2, #2
 10027 0020 5A76     		strb	r2, [r3, #25]
 10028              	.L418:
2552:.\AdvantageImpl.c ****         
2553:.\AdvantageImpl.c ****     }
2554:.\AdvantageImpl.c **** }
 10029              		.loc 1 2554 0
 10030 0022 1437     		adds	r7, r7, #20
 10031              		.cfi_def_cfa_offset 4
 10032 0024 BD46     		mov	sp, r7
 10033              		.cfi_def_cfa_register 13
 10034              		@ sp needed
 10035 0026 5DF8047B 		ldr	r7, [sp], #4
 10036              		.cfi_restore 7
 10037              		.cfi_def_cfa_offset 0
 10038 002a 7047     		bx	lr
 10039              		.cfi_endproc
 10040              	.LFE104:
 10041              		.size	TerminateTransaction, .-TerminateTransaction
 10042              		.section	.text.TerminateTransactionAndPrint,"ax",%progbits
 10043              		.align	2
 10044              		.global	TerminateTransactionAndPrint
 10045              		.thumb
 10046              		.thumb_func
 10047              		.type	TerminateTransactionAndPrint, %function
 10048              	TerminateTransactionAndPrint:
 10049              	.LFB105:
2555:.\AdvantageImpl.c **** 
ARM GAS  C:\Users\RECEPC~1\AppData\Local\Temp\cc7aDVfG.s 			page 223


2556:.\AdvantageImpl.c **** void TerminateTransactionAndPrint(void *pparam)
2557:.\AdvantageImpl.c **** {
 10050              		.loc 1 2557 0
 10051              		.cfi_startproc
 10052              		@ args = 0, pretend = 0, frame = 16
 10053              		@ frame_needed = 1, uses_anonymous_args = 0
 10054 0000 90B5     		push	{r4, r7, lr}
 10055              		.cfi_def_cfa_offset 12
 10056              		.cfi_offset 4, -12
 10057              		.cfi_offset 7, -8
 10058              		.cfi_offset 14, -4
 10059 0002 85B0     		sub	sp, sp, #20
 10060              		.cfi_def_cfa_offset 32
 10061 0004 00AF     		add	r7, sp, #0
 10062              		.cfi_def_cfa_register 7
 10063 0006 7860     		str	r0, [r7, #4]
2558:.\AdvantageImpl.c ****     PPUMPTRANSACTIONJOBCONTEXTPTR pjob = (PPUMPTRANSACTIONJOBCONTEXTPTR)pparam;
 10064              		.loc 1 2558 0
 10065 0008 7B68     		ldr	r3, [r7, #4]
 10066 000a FB60     		str	r3, [r7, #12]
2559:.\AdvantageImpl.c ****     if(pjob)
 10067              		.loc 1 2559 0
 10068 000c FB68     		ldr	r3, [r7, #12]
 10069 000e 002B     		cmp	r3, #0
 10070 0010 00F01181 		beq	.L420
2560:.\AdvantageImpl.c ****     {
2561:.\AdvantageImpl.c ****         pjob->_ppump->_transhealth = _PUMP_OK_;
 10071              		.loc 1 2561 0
 10072 0014 FB68     		ldr	r3, [r7, #12]
 10073 0016 DB69     		ldr	r3, [r3, #28]
 10074 0018 0122     		movs	r2, #1
 10075 001a 1A76     		strb	r2, [r3, #24]
2562:.\AdvantageImpl.c ****         pjob->_ppump->_transtate = _PUMP_IDLE_;
 10076              		.loc 1 2562 0
 10077 001c FB68     		ldr	r3, [r7, #12]
 10078 001e DB69     		ldr	r3, [r3, #28]
 10079 0020 0222     		movs	r2, #2
 10080 0022 5A76     		strb	r2, [r3, #25]
2563:.\AdvantageImpl.c ****         
2564:.\AdvantageImpl.c ****         //If printing has been selected then post the print job
2565:.\AdvantageImpl.c ****         if(pjob->_ppump->_trasactionbuffer[GetBufferIndexFromDisplayID(DISPLAY_DESEA_IMPRIMIR_RECIB
 10081              		.loc 1 2565 0
 10082 0024 FB68     		ldr	r3, [r7, #12]
 10083 0026 DC69     		ldr	r4, [r3, #28]
 10084 0028 0B20     		movs	r0, #11
 10085 002a FFF7FEFF 		bl	GetBufferIndexFromDisplayID
 10086 002e 0346     		mov	r3, r0
 10087 0030 2344     		add	r3, r3, r4
 10088 0032 93F82030 		ldrb	r3, [r3, #32]	@ zero_extendqisi2
 10089 0036 392B     		cmp	r3, #57
 10090 0038 40F0FD80 		bne	.L420
 10091              	.LBB65:
2566:.\AdvantageImpl.c ****         {
2567:.\AdvantageImpl.c ****             _ALLOCATE_SINKMESSAGE_SLOT(psinkmsg);
 10092              		.loc 1 2567 0
 10093 003c FFF7FEFF 		bl	AllocateMessageSlot
 10094 0040 B860     		str	r0, [r7, #8]
ARM GAS  C:\Users\RECEPC~1\AppData\Local\Temp\cc7aDVfG.s 			page 224


2568:.\AdvantageImpl.c ****             if(psinkmsg)
 10095              		.loc 1 2568 0
 10096 0042 BB68     		ldr	r3, [r7, #8]
 10097 0044 002B     		cmp	r3, #0
 10098 0046 00F0F680 		beq	.L420
2569:.\AdvantageImpl.c ****             {
2570:.\AdvantageImpl.c ****                 switch(pjob->_ppump->_trasactionbuffer[GetBufferIndexFromDisplayID(DISPLAY_SIDE_DUM
 10099              		.loc 1 2570 0
 10100 004a FB68     		ldr	r3, [r7, #12]
 10101 004c DC69     		ldr	r4, [r3, #28]
 10102 004e FA20     		movs	r0, #250
 10103 0050 FFF7FEFF 		bl	GetBufferIndexFromDisplayID
 10104 0054 0346     		mov	r3, r0
 10105 0056 2344     		add	r3, r3, r4
 10106 0058 93F82030 		ldrb	r3, [r3, #32]	@ zero_extendqisi2
 10107 005c 002B     		cmp	r3, #0
 10108 005e 02D0     		beq	.L423
 10109 0060 012B     		cmp	r3, #1
 10110 0062 05D0     		beq	.L424
 10111 0064 09E0     		b	.L422
 10112              	.L423:
2571:.\AdvantageImpl.c ****                 {
2572:.\AdvantageImpl.c ****                     case DISPLAY1:
2573:.\AdvantageImpl.c ****                     psinkmsg->_messageid = _g_printerlayout._printerportside1;
 10113              		.loc 1 2573 0
 10114 0066 754B     		ldr	r3, .L429
 10115 0068 1A78     		ldrb	r2, [r3]	@ zero_extendqisi2
 10116 006a BB68     		ldr	r3, [r7, #8]
 10117 006c 5A70     		strb	r2, [r3, #1]
2574:.\AdvantageImpl.c ****                     break;
 10118              		.loc 1 2574 0
 10119 006e 04E0     		b	.L422
 10120              	.L424:
2575:.\AdvantageImpl.c ****                     case DISPLAY2:
2576:.\AdvantageImpl.c ****                     psinkmsg->_messageid = _g_printerlayout._printerportside2;
 10121              		.loc 1 2576 0
 10122 0070 724B     		ldr	r3, .L429
 10123 0072 5A78     		ldrb	r2, [r3, #1]	@ zero_extendqisi2
 10124 0074 BB68     		ldr	r3, [r7, #8]
 10125 0076 5A70     		strb	r2, [r3, #1]
2577:.\AdvantageImpl.c ****                     break;
 10126              		.loc 1 2577 0
 10127 0078 00BF     		nop
 10128              	.L422:
2578:.\AdvantageImpl.c ****                 }
2579:.\AdvantageImpl.c ****                 psinkmsg->_messagetype = DELAYEDALLINTERESTED;
 10129              		.loc 1 2579 0
 10130 007a BB68     		ldr	r3, [r7, #8]
 10131 007c 0522     		movs	r2, #5
 10132 007e 9A70     		strb	r2, [r3, #2]
2580:.\AdvantageImpl.c ****                 //Wait for 30 seconds before sending the command to the printer!
2581:.\AdvantageImpl.c ****                 //This will give some time to allow the remote peer (NSX) to respond with the appro
2582:.\AdvantageImpl.c ****                 if(_g_rfautorun._state == RF_AUTONOMOUS)
 10133              		.loc 1 2582 0
 10134 0080 6F4B     		ldr	r3, .L429+4
 10135 0082 1B78     		ldrb	r3, [r3]
 10136 0084 DBB2     		uxtb	r3, r3
ARM GAS  C:\Users\RECEPC~1\AppData\Local\Temp\cc7aDVfG.s 			page 225


 10137 0086 012B     		cmp	r3, #1
 10138 0088 04D1     		bne	.L425
2583:.\AdvantageImpl.c ****                     psinkmsg->_messagedelay = _SINK_TIMEOUT_1S_;
 10139              		.loc 1 2583 0
 10140 008a BB68     		ldr	r3, [r7, #8]
 10141 008c 4FF47A72 		mov	r2, #1000
 10142 0090 9A80     		strh	r2, [r3, #4]	@ movhi
 10143 0092 03E0     		b	.L426
 10144              	.L425:
2584:.\AdvantageImpl.c ****                 else
2585:.\AdvantageImpl.c ****                     psinkmsg->_messagedelay = _SINK_TIMEOUT_30S_;
 10145              		.loc 1 2585 0
 10146 0094 BB68     		ldr	r3, [r7, #8]
 10147 0096 47F23052 		movw	r2, #30000
 10148 009a 9A80     		strh	r2, [r3, #4]	@ movhi
 10149              	.L426:
2586:.\AdvantageImpl.c ****                 
2587:.\AdvantageImpl.c ****                 //PUMP POSITION GOES IN THE ARRAY INDEX 0X00 (SEE THE FILE "PRINTERBLL.C")
2588:.\AdvantageImpl.c ****                 psinkmsg->_buffer[0x00] = pjob->_ppump->_pumpid;
 10150              		.loc 1 2588 0
 10151 009c FB68     		ldr	r3, [r7, #12]
 10152 009e DB69     		ldr	r3, [r3, #28]
 10153 00a0 1A78     		ldrb	r2, [r3]	@ zero_extendqisi2
 10154 00a2 BB68     		ldr	r3, [r7, #8]
 10155 00a4 1A73     		strb	r2, [r3, #12]
2589:.\AdvantageImpl.c ****                 //PUMP HOSE TO SELECT THE PRODUCT NAME
2590:.\AdvantageImpl.c ****                 psinkmsg->_buffer[0x01] = pjob->_ppump->_authorizationinfo._hoseid;
 10156              		.loc 1 2590 0
 10157 00a6 FB68     		ldr	r3, [r7, #12]
 10158 00a8 DB69     		ldr	r3, [r3, #28]
 10159 00aa 93F8AA3B 		ldrb	r3, [r3, #2986]
 10160 00ae DAB2     		uxtb	r2, r3
 10161 00b0 BB68     		ldr	r3, [r7, #8]
 10162 00b2 5A73     		strb	r2, [r3, #13]
2591:.\AdvantageImpl.c ****                 psinkmsg->_buffer[0x02] = 0x06;//Six bytes for the price (PPU)
 10163              		.loc 1 2591 0
 10164 00b4 BB68     		ldr	r3, [r7, #8]
 10165 00b6 0622     		movs	r2, #6
 10166 00b8 9A73     		strb	r2, [r3, #14]
2592:.\AdvantageImpl.c ****                 memset(&psinkmsg->_buffer[0x03], 0x00, 0x08);
 10167              		.loc 1 2592 0
 10168 00ba BB68     		ldr	r3, [r7, #8]
 10169 00bc 0F33     		adds	r3, r3, #15
 10170 00be 1846     		mov	r0, r3
 10171 00c0 0021     		movs	r1, #0
 10172 00c2 0822     		movs	r2, #8
 10173 00c4 FFF7FEFF 		bl	memset
2593:.\AdvantageImpl.c ****                 
2594:.\AdvantageImpl.c ****                 if(_g_dispenserlayoutinfo._moneydecimals == 0x03 && _g_dispenserlayoutinfo._ppudeci
 10174              		.loc 1 2594 0
 10175 00c8 5E4B     		ldr	r3, .L429+8
 10176 00ca DB79     		ldrb	r3, [r3, #7]	@ zero_extendqisi2
 10177 00cc 032B     		cmp	r3, #3
 10178 00ce 19D1     		bne	.L427
 10179              		.loc 1 2594 0 is_stmt 0 discriminator 1
 10180 00d0 5C4B     		ldr	r3, .L429+8
 10181 00d2 1B7A     		ldrb	r3, [r3, #8]	@ zero_extendqisi2
ARM GAS  C:\Users\RECEPC~1\AppData\Local\Temp\cc7aDVfG.s 			page 226


 10182 00d4 022B     		cmp	r3, #2
 10183 00d6 15D1     		bne	.L427
2595:.\AdvantageImpl.c ****                     B78AD90CF552D9B30A(pjob->_ppump->_authorizationinfo._price * 10, PBYTECAST(&psi
 10184              		.loc 1 2595 0 is_stmt 1
 10185 00d8 FB68     		ldr	r3, [r7, #12]
 10186 00da DB69     		ldr	r3, [r3, #28]
 10187 00dc B3F8AC3B 		ldrh	r3, [r3, #2988]	@ movhi
 10188 00e0 9BB2     		uxth	r3, r3
 10189 00e2 1A46     		mov	r2, r3
 10190 00e4 1346     		mov	r3, r2
 10191 00e6 9B00     		lsls	r3, r3, #2
 10192 00e8 1344     		add	r3, r3, r2
 10193 00ea 5B00     		lsls	r3, r3, #1
 10194 00ec 1A46     		mov	r2, r3
 10195 00ee 4FEAE273 		asr	r3, r2, #31
 10196 00f2 B968     		ldr	r1, [r7, #8]
 10197 00f4 01F10F04 		add	r4, r1, #15
 10198 00f8 1046     		mov	r0, r2
 10199 00fa 1946     		mov	r1, r3
 10200 00fc 2246     		mov	r2, r4
 10201 00fe FFF7FEFF 		bl	B78AD90CF552D9B30A
 10202 0102 0FE0     		b	.L428
 10203              	.L427:
2596:.\AdvantageImpl.c ****                 else
2597:.\AdvantageImpl.c ****                     B78AD90CF552D9B30A(pjob->_ppump->_authorizationinfo._price, PBYTECAST(&psinkmsg
 10204              		.loc 1 2597 0
 10205 0104 FB68     		ldr	r3, [r7, #12]
 10206 0106 DB69     		ldr	r3, [r3, #28]
 10207 0108 B3F8AC3B 		ldrh	r3, [r3, #2988]	@ movhi
 10208 010c 9BB2     		uxth	r3, r3
 10209 010e 9AB2     		uxth	r2, r3
 10210 0110 4FF00003 		mov	r3, #0
 10211 0114 B968     		ldr	r1, [r7, #8]
 10212 0116 01F10F04 		add	r4, r1, #15
 10213 011a 1046     		mov	r0, r2
 10214 011c 1946     		mov	r1, r3
 10215 011e 2246     		mov	r2, r4
 10216 0120 FFF7FEFF 		bl	B78AD90CF552D9B30A
 10217              	.L428:
2598:.\AdvantageImpl.c ****                     
2599:.\AdvantageImpl.c ****                 psinkmsg->_buffer[0x09] = 0x08;//Eight bytes for the Volume
 10218              		.loc 1 2599 0
 10219 0124 BB68     		ldr	r3, [r7, #8]
 10220 0126 0822     		movs	r2, #8
 10221 0128 5A75     		strb	r2, [r3, #21]
2600:.\AdvantageImpl.c ****                 memset(&psinkmsg->_buffer[0x0A], 0x00, 0x08);
 10222              		.loc 1 2600 0
 10223 012a BB68     		ldr	r3, [r7, #8]
 10224 012c 1633     		adds	r3, r3, #22
 10225 012e 1846     		mov	r0, r3
 10226 0130 0021     		movs	r1, #0
 10227 0132 0822     		movs	r2, #8
 10228 0134 FFF7FEFF 		bl	memset
2601:.\AdvantageImpl.c ****                 B78AD90CF552D9B30A(pjob->_ppump->_authorizationinfo._volumeamount, PBYTECAST(&psink
 10229              		.loc 1 2601 0
 10230 0138 FB68     		ldr	r3, [r7, #12]
 10231 013a DB69     		ldr	r3, [r3, #28]
ARM GAS  C:\Users\RECEPC~1\AppData\Local\Temp\cc7aDVfG.s 			page 227


 10232 013c D3F8B43B 		ldr	r3, [r3, #2996]
 10233 0140 1A46     		mov	r2, r3
 10234 0142 4FF00003 		mov	r3, #0
 10235 0146 B968     		ldr	r1, [r7, #8]
 10236 0148 01F11604 		add	r4, r1, #22
 10237 014c 1046     		mov	r0, r2
 10238 014e 1946     		mov	r1, r3
 10239 0150 2246     		mov	r2, r4
 10240 0152 FFF7FEFF 		bl	B78AD90CF552D9B30A
2602:.\AdvantageImpl.c ****                 psinkmsg->_buffer[0x12] = 0x08;//Eight bytes for the Preset
 10241              		.loc 1 2602 0
 10242 0156 BB68     		ldr	r3, [r7, #8]
 10243 0158 0822     		movs	r2, #8
 10244 015a 9A77     		strb	r2, [r3, #30]
2603:.\AdvantageImpl.c ****                 memset(&psinkmsg->_buffer[0x13], 0x00, 0x08);
 10245              		.loc 1 2603 0
 10246 015c BB68     		ldr	r3, [r7, #8]
 10247 015e 1F33     		adds	r3, r3, #31
 10248 0160 1846     		mov	r0, r3
 10249 0162 0021     		movs	r1, #0
 10250 0164 0822     		movs	r2, #8
 10251 0166 FFF7FEFF 		bl	memset
2604:.\AdvantageImpl.c ****                 B78AD90CF552D9B30A(pjob->_ppump->_authorizationinfo._presetamount, PBYTECAST(&psink
 10252              		.loc 1 2604 0
 10253 016a FB68     		ldr	r3, [r7, #12]
 10254 016c DB69     		ldr	r3, [r3, #28]
 10255 016e D3F8B03B 		ldr	r3, [r3, #2992]
 10256 0172 1A46     		mov	r2, r3
 10257 0174 4FF00003 		mov	r3, #0
 10258 0178 B968     		ldr	r1, [r7, #8]
 10259 017a 01F11F04 		add	r4, r1, #31
 10260 017e 1046     		mov	r0, r2
 10261 0180 1946     		mov	r1, r3
 10262 0182 2246     		mov	r2, r4
 10263 0184 FFF7FEFF 		bl	B78AD90CF552D9B30A
2605:.\AdvantageImpl.c ****                 
2606:.\AdvantageImpl.c ****                 //This is the transaction type (Cash: 0x0D / Credit: 0x0E). See the documentation t
2607:.\AdvantageImpl.c ****                 psinkmsg->_buffer[0x1B] = pjob->_ppump->_trasactionbuffer[GetBufferIndexFromDisplay
 10264              		.loc 1 2607 0
 10265 0188 FB68     		ldr	r3, [r7, #12]
 10266 018a DC69     		ldr	r4, [r3, #28]
 10267 018c 0420     		movs	r0, #4
 10268 018e FFF7FEFF 		bl	GetBufferIndexFromDisplayID
 10269 0192 0346     		mov	r3, r0
 10270 0194 2344     		add	r3, r3, r4
 10271 0196 93F82020 		ldrb	r2, [r3, #32]	@ zero_extendqisi2
 10272 019a BB68     		ldr	r3, [r7, #8]
 10273 019c 83F82720 		strb	r2, [r3, #39]
2608:.\AdvantageImpl.c ****                 
2609:.\AdvantageImpl.c ****                 //This means "N/A". This will be printed once the timeout has expired and no invoic
2610:.\AdvantageImpl.c ****                 //has been received
2611:.\AdvantageImpl.c ****                 psinkmsg->_buffer[0x20] = 0x4E;
 10274              		.loc 1 2611 0
 10275 01a0 BB68     		ldr	r3, [r7, #8]
 10276 01a2 4E22     		movs	r2, #78
 10277 01a4 83F82C20 		strb	r2, [r3, #44]
2612:.\AdvantageImpl.c ****                 psinkmsg->_buffer[0x21] = 0x2F;
ARM GAS  C:\Users\RECEPC~1\AppData\Local\Temp\cc7aDVfG.s 			page 228


 10278              		.loc 1 2612 0
 10279 01a8 BB68     		ldr	r3, [r7, #8]
 10280 01aa 2F22     		movs	r2, #47
 10281 01ac 83F82D20 		strb	r2, [r3, #45]
2613:.\AdvantageImpl.c ****                 psinkmsg->_buffer[0x22] = 0x41;
 10282              		.loc 1 2613 0
 10283 01b0 BB68     		ldr	r3, [r7, #8]
 10284 01b2 4122     		movs	r2, #65
 10285 01b4 83F82E20 		strb	r2, [r3, #46]
2614:.\AdvantageImpl.c ****                 //Car's plate
2615:.\AdvantageImpl.c ****                 psinkmsg->_buffer[0x2A] = 0x4E;
 10286              		.loc 1 2615 0
 10287 01b8 BB68     		ldr	r3, [r7, #8]
 10288 01ba 4E22     		movs	r2, #78
 10289 01bc 83F83620 		strb	r2, [r3, #54]
2616:.\AdvantageImpl.c ****                 psinkmsg->_buffer[0x2B] = 0x2F;
 10290              		.loc 1 2616 0
 10291 01c0 BB68     		ldr	r3, [r7, #8]
 10292 01c2 2F22     		movs	r2, #47
 10293 01c4 83F83720 		strb	r2, [r3, #55]
2617:.\AdvantageImpl.c ****                 psinkmsg->_buffer[0x2C] = 0x41;
 10294              		.loc 1 2617 0
 10295 01c8 BB68     		ldr	r3, [r7, #8]
 10296 01ca 4122     		movs	r2, #65
 10297 01cc 83F83820 		strb	r2, [r3, #56]
2618:.\AdvantageImpl.c ****                 //Balance
2619:.\AdvantageImpl.c ****                 psinkmsg->_buffer[0x32] = 0x4E;
 10298              		.loc 1 2619 0
 10299 01d0 BB68     		ldr	r3, [r7, #8]
 10300 01d2 4E22     		movs	r2, #78
 10301 01d4 83F83E20 		strb	r2, [r3, #62]
2620:.\AdvantageImpl.c ****                 psinkmsg->_buffer[0x33] = 0x2F;
 10302              		.loc 1 2620 0
 10303 01d8 BB68     		ldr	r3, [r7, #8]
 10304 01da 2F22     		movs	r2, #47
 10305 01dc 83F83F20 		strb	r2, [r3, #63]
2621:.\AdvantageImpl.c ****                 psinkmsg->_buffer[0x34] = 0x41;
 10306              		.loc 1 2621 0
 10307 01e0 BB68     		ldr	r3, [r7, #8]
 10308 01e2 4122     		movs	r2, #65
 10309 01e4 83F84020 		strb	r2, [r3, #64]
2622:.\AdvantageImpl.c ****                 //Company
2623:.\AdvantageImpl.c ****                 psinkmsg->_buffer[0x3C] = 0x4E;
 10310              		.loc 1 2623 0
 10311 01e8 BB68     		ldr	r3, [r7, #8]
 10312 01ea 4E22     		movs	r2, #78
 10313 01ec 83F84820 		strb	r2, [r3, #72]
2624:.\AdvantageImpl.c ****                 psinkmsg->_buffer[0x3D] = 0x2F;
 10314              		.loc 1 2624 0
 10315 01f0 BB68     		ldr	r3, [r7, #8]
 10316 01f2 2F22     		movs	r2, #47
 10317 01f4 83F84920 		strb	r2, [r3, #73]
2625:.\AdvantageImpl.c ****                 psinkmsg->_buffer[0x3E] = 0x41;
 10318              		.loc 1 2625 0
 10319 01f8 BB68     		ldr	r3, [r7, #8]
 10320 01fa 4122     		movs	r2, #65
 10321 01fc 83F84A20 		strb	r2, [r3, #74]
ARM GAS  C:\Users\RECEPC~1\AppData\Local\Temp\cc7aDVfG.s 			page 229


2626:.\AdvantageImpl.c ****                 //Account Name
2627:.\AdvantageImpl.c ****                 psinkmsg->_buffer[0x50] = 0x4E;
 10322              		.loc 1 2627 0
 10323 0200 BB68     		ldr	r3, [r7, #8]
 10324 0202 4E22     		movs	r2, #78
 10325 0204 83F85C20 		strb	r2, [r3, #92]
2628:.\AdvantageImpl.c ****                 psinkmsg->_buffer[0x51] = 0x2F;
 10326              		.loc 1 2628 0
 10327 0208 BB68     		ldr	r3, [r7, #8]
 10328 020a 2F22     		movs	r2, #47
 10329 020c 83F85D20 		strb	r2, [r3, #93]
2629:.\AdvantageImpl.c ****                 psinkmsg->_buffer[0x52] = 0x41;
 10330              		.loc 1 2629 0
 10331 0210 BB68     		ldr	r3, [r7, #8]
 10332 0212 4122     		movs	r2, #65
 10333 0214 83F85E20 		strb	r2, [r3, #94]
2630:.\AdvantageImpl.c ****                 //Daily Visits
2631:.\AdvantageImpl.c ****                 psinkmsg->_buffer[0x64] = 0x00;
 10334              		.loc 1 2631 0
 10335 0218 BB68     		ldr	r3, [r7, #8]
 10336 021a 0022     		movs	r2, #0
 10337 021c 83F87020 		strb	r2, [r3, #112]
2632:.\AdvantageImpl.c ****                 //Weekly Visits
2633:.\AdvantageImpl.c ****                 psinkmsg->_buffer[0x65] = 0x00;
 10338              		.loc 1 2633 0
 10339 0220 BB68     		ldr	r3, [r7, #8]
 10340 0222 0022     		movs	r2, #0
 10341 0224 83F87120 		strb	r2, [r3, #113]
2634:.\AdvantageImpl.c ****                 //Monthly Visits
2635:.\AdvantageImpl.c ****                 psinkmsg->_buffer[0x66] = 0x00;
 10342              		.loc 1 2635 0
 10343 0228 BB68     		ldr	r3, [r7, #8]
 10344 022a 0022     		movs	r2, #0
 10345 022c 83F87220 		strb	r2, [r3, #114]
2636:.\AdvantageImpl.c **** 
2637:.\AdvantageImpl.c ****                 psinkmsg->_messagestate = SINK_BUSY;
 10346              		.loc 1 2637 0
 10347 0230 BB68     		ldr	r3, [r7, #8]
 10348 0232 0322     		movs	r2, #3
 10349 0234 DA70     		strb	r2, [r3, #3]
 10350              	.L420:
 10351              	.LBE65:
2638:.\AdvantageImpl.c ****             }   
2639:.\AdvantageImpl.c ****             
2640:.\AdvantageImpl.c ****         }        
2641:.\AdvantageImpl.c ****     }
2642:.\AdvantageImpl.c **** }
 10352              		.loc 1 2642 0
 10353 0236 1437     		adds	r7, r7, #20
 10354              		.cfi_def_cfa_offset 12
 10355 0238 BD46     		mov	sp, r7
 10356              		.cfi_def_cfa_register 13
 10357              		@ sp needed
 10358 023a 90BD     		pop	{r4, r7, pc}
 10359              	.L430:
 10360              		.align	2
 10361              	.L429:
ARM GAS  C:\Users\RECEPC~1\AppData\Local\Temp\cc7aDVfG.s 			page 230


 10362 023c 00000000 		.word	_g_printerlayout
 10363 0240 00000000 		.word	_g_rfautorun
 10364 0244 00000000 		.word	_g_dispenserlayoutinfo
 10365              		.cfi_endproc
 10366              	.LFE105:
 10367              		.size	TerminateTransactionAndPrint, .-TerminateTransactionAndPrint
 10368              		.section	.text.CastVolumeValue,"ax",%progbits
 10369              		.align	2
 10370              		.global	CastVolumeValue
 10371              		.thumb
 10372              		.thumb_func
 10373              		.type	CastVolumeValue, %function
 10374              	CastVolumeValue:
 10375              	.LFB106:
2643:.\AdvantageImpl.c **** 
2644:.\AdvantageImpl.c **** //@Created by: HIJH
2645:.\AdvantageImpl.c **** //@Date: Septembre de 2016
2646:.\AdvantageImpl.c **** //This method arranges the PRESET buffer when this is a "Volume PRESET".
2647:.\AdvantageImpl.c **** //Volume PRESETS must be multiplied by 1000
2648:.\AdvantageImpl.c **** void CastVolumeValue(char8 *pbuffer, uint8 buffersize)
2649:.\AdvantageImpl.c **** {
 10376              		.loc 1 2649 0
 10377              		.cfi_startproc
 10378              		@ args = 0, pretend = 0, frame = 16
 10379              		@ frame_needed = 1, uses_anonymous_args = 0
 10380              		@ link register save eliminated.
 10381 0000 80B4     		push	{r7}
 10382              		.cfi_def_cfa_offset 4
 10383              		.cfi_offset 7, -4
 10384 0002 85B0     		sub	sp, sp, #20
 10385              		.cfi_def_cfa_offset 24
 10386 0004 00AF     		add	r7, sp, #0
 10387              		.cfi_def_cfa_register 7
 10388 0006 7860     		str	r0, [r7, #4]
 10389 0008 0B46     		mov	r3, r1
 10390 000a FB70     		strb	r3, [r7, #3]
2650:.\AdvantageImpl.c ****     uint8 delimiterindex = 0x00;
 10391              		.loc 1 2650 0
 10392 000c 0023     		movs	r3, #0
 10393 000e FB73     		strb	r3, [r7, #15]
2651:.\AdvantageImpl.c ****     bool shiftbydelimiter = false;
 10394              		.loc 1 2651 0
 10395 0010 0023     		movs	r3, #0
 10396 0012 BB73     		strb	r3, [r7, #14]
2652:.\AdvantageImpl.c ****     //If there is a "Comma" inside of the buffer, then just remove it before and count this for the
2653:.\AdvantageImpl.c ****     FOR(int8 index = (buffersize - 1), index > 0, index--)
 10397              		.loc 1 2653 0
 10398 0014 FB78     		ldrb	r3, [r7, #3]
 10399 0016 013B     		subs	r3, r3, #1
 10400 0018 DBB2     		uxtb	r3, r3
 10401 001a 7B73     		strb	r3, [r7, #13]
 10402 001c 2CE0     		b	.L432
 10403              	.L436:
2654:.\AdvantageImpl.c ****     {
2655:.\AdvantageImpl.c ****         if(pbuffer[index] == 0x2C && !shiftbydelimiter)
 10404              		.loc 1 2655 0
 10405 001e 97F90D30 		ldrsb	r3, [r7, #13]
ARM GAS  C:\Users\RECEPC~1\AppData\Local\Temp\cc7aDVfG.s 			page 231


 10406 0022 7A68     		ldr	r2, [r7, #4]
 10407 0024 1344     		add	r3, r3, r2
 10408 0026 1B78     		ldrb	r3, [r3]	@ zero_extendqisi2
 10409 0028 2C2B     		cmp	r3, #44
 10410 002a 07D1     		bne	.L433
 10411              		.loc 1 2655 0 is_stmt 0 discriminator 1
 10412 002c BB7B     		ldrb	r3, [r7, #14]
 10413 002e 83F00103 		eor	r3, r3, #1
 10414 0032 DBB2     		uxtb	r3, r3
 10415 0034 002B     		cmp	r3, #0
 10416 0036 01D0     		beq	.L433
2656:.\AdvantageImpl.c ****             shiftbydelimiter = true;
 10417              		.loc 1 2656 0 is_stmt 1
 10418 0038 0123     		movs	r3, #1
 10419 003a BB73     		strb	r3, [r7, #14]
 10420              	.L433:
2657:.\AdvantageImpl.c **** 
2658:.\AdvantageImpl.c ****         if(shiftbydelimiter)
 10421              		.loc 1 2658 0
 10422 003c BB7B     		ldrb	r3, [r7, #14]	@ zero_extendqisi2
 10423 003e 002B     		cmp	r3, #0
 10424 0040 12D0     		beq	.L434
2659:.\AdvantageImpl.c ****         {
2660:.\AdvantageImpl.c ****             pbuffer[index] = pbuffer[index - 1];
 10425              		.loc 1 2660 0
 10426 0042 97F90D30 		ldrsb	r3, [r7, #13]
 10427 0046 7A68     		ldr	r2, [r7, #4]
 10428 0048 1344     		add	r3, r3, r2
 10429 004a 97F90D20 		ldrsb	r2, [r7, #13]
 10430 004e 013A     		subs	r2, r2, #1
 10431 0050 7968     		ldr	r1, [r7, #4]
 10432 0052 0A44     		add	r2, r2, r1
 10433 0054 1278     		ldrb	r2, [r2]	@ zero_extendqisi2
 10434 0056 1A70     		strb	r2, [r3]
2661:.\AdvantageImpl.c ****             pbuffer[index - 1] = 0x00;
 10435              		.loc 1 2661 0
 10436 0058 97F90D30 		ldrsb	r3, [r7, #13]
 10437 005c 013B     		subs	r3, r3, #1
 10438 005e 7A68     		ldr	r2, [r7, #4]
 10439 0060 1344     		add	r3, r3, r2
 10440 0062 0022     		movs	r2, #0
 10441 0064 1A70     		strb	r2, [r3]
 10442 0066 02E0     		b	.L435
 10443              	.L434:
2662:.\AdvantageImpl.c ****         }else
2663:.\AdvantageImpl.c ****             delimiterindex++;
 10444              		.loc 1 2663 0
 10445 0068 FB7B     		ldrb	r3, [r7, #15]	@ zero_extendqisi2
 10446 006a 0133     		adds	r3, r3, #1
 10447 006c FB73     		strb	r3, [r7, #15]
 10448              	.L435:
2653:.\AdvantageImpl.c ****     {
 10449              		.loc 1 2653 0 discriminator 2
 10450 006e 7B7B     		ldrb	r3, [r7, #13]	@ zero_extendqisi2
 10451 0070 DBB2     		uxtb	r3, r3
 10452 0072 013B     		subs	r3, r3, #1
 10453 0074 DBB2     		uxtb	r3, r3
ARM GAS  C:\Users\RECEPC~1\AppData\Local\Temp\cc7aDVfG.s 			page 232


 10454 0076 7B73     		strb	r3, [r7, #13]
 10455              	.L432:
2653:.\AdvantageImpl.c ****     {
 10456              		.loc 1 2653 0 is_stmt 0 discriminator 1
 10457 0078 97F90D30 		ldrsb	r3, [r7, #13]
 10458 007c 002B     		cmp	r3, #0
 10459 007e CEDC     		bgt	.L436
2664:.\AdvantageImpl.c ****         
2665:.\AdvantageImpl.c ****     }
2666:.\AdvantageImpl.c ****     if(!shiftbydelimiter)
 10460              		.loc 1 2666 0 is_stmt 1
 10461 0080 BB7B     		ldrb	r3, [r7, #14]
 10462 0082 83F00103 		eor	r3, r3, #1
 10463 0086 DBB2     		uxtb	r3, r3
 10464 0088 002B     		cmp	r3, #0
 10465 008a 01D0     		beq	.L437
2667:.\AdvantageImpl.c ****         delimiterindex = 0x00;
 10466              		.loc 1 2667 0
 10467 008c 0023     		movs	r3, #0
 10468 008e FB73     		strb	r3, [r7, #15]
 10469              	.L437:
2668:.\AdvantageImpl.c ****     
2669:.\AdvantageImpl.c ****     int8 shiftcount = (delimiterindex - ((_g_dispenserlayoutinfo._displaydigitsmode == 0x06)?_g_dis
 10470              		.loc 1 2669 0
 10471 0090 374B     		ldr	r3, .L450
 10472 0092 1B7C     		ldrb	r3, [r3, #16]	@ zero_extendqisi2
 10473 0094 062B     		cmp	r3, #6
 10474 0096 04D1     		bne	.L438
 10475              		.loc 1 2669 0 is_stmt 0 discriminator 1
 10476 0098 354B     		ldr	r3, .L450
 10477 009a 5B7A     		ldrb	r3, [r3, #9]	@ zero_extendqisi2
 10478 009c 013B     		subs	r3, r3, #1
 10479 009e DBB2     		uxtb	r3, r3
 10480 00a0 01E0     		b	.L439
 10481              	.L438:
 10482              		.loc 1 2669 0 discriminator 2
 10483 00a2 334B     		ldr	r3, .L450
 10484 00a4 5B7A     		ldrb	r3, [r3, #9]	@ zero_extendqisi2
 10485              	.L439:
 10486              		.loc 1 2669 0 discriminator 4
 10487 00a6 FA7B     		ldrb	r2, [r7, #15]
 10488 00a8 D31A     		subs	r3, r2, r3
 10489 00aa DBB2     		uxtb	r3, r3
 10490 00ac 3B73     		strb	r3, [r7, #12]
2670:.\AdvantageImpl.c ****     //8 is the size of the allocated buffer space for the preset values according to the protocol.
2671:.\AdvantageImpl.c ****     //The real buffer size allocated from the display side is 16 bytes. The buffer will be cast fro
2672:.\AdvantageImpl.c ****     //the end to the beginning, so the startup index has been calculated "explicitly", this is (8 -
2673:.\AdvantageImpl.c ****     //To multiply by 1000 we need to shift the entire buffer three bytes to shift the comma, so we
2674:.\AdvantageImpl.c ****     //will subtract 3 bytes to the starting position in order to make the shifting.
2675:.\AdvantageImpl.c ****     if(shiftcount > 0)
 10491              		.loc 1 2675 0 is_stmt 1 discriminator 4
 10492 00ae 97F90C30 		ldrsb	r3, [r7, #12]
 10493 00b2 002B     		cmp	r3, #0
 10494 00b4 29DD     		ble	.L440
2676:.\AdvantageImpl.c ****     {
2677:.\AdvantageImpl.c ****         while(shiftcount > 0)
 10495              		.loc 1 2677 0
ARM GAS  C:\Users\RECEPC~1\AppData\Local\Temp\cc7aDVfG.s 			page 233


 10496 00b6 23E0     		b	.L441
 10497              	.L444:
2678:.\AdvantageImpl.c ****         {
2679:.\AdvantageImpl.c ****             FOR(index = (buffersize - 1), index > 0, index--)
 10498              		.loc 1 2679 0
 10499 00b8 FB78     		ldrb	r3, [r7, #3]
 10500 00ba 013B     		subs	r3, r3, #1
 10501 00bc DBB2     		uxtb	r3, r3
 10502 00be 7B73     		strb	r3, [r7, #13]
 10503 00c0 15E0     		b	.L442
 10504              	.L443:
2680:.\AdvantageImpl.c ****             {
2681:.\AdvantageImpl.c ****                 pbuffer[index] = pbuffer[index - 1];
 10505              		.loc 1 2681 0 discriminator 3
 10506 00c2 97F90D30 		ldrsb	r3, [r7, #13]
 10507 00c6 7A68     		ldr	r2, [r7, #4]
 10508 00c8 1344     		add	r3, r3, r2
 10509 00ca 97F90D20 		ldrsb	r2, [r7, #13]
 10510 00ce 013A     		subs	r2, r2, #1
 10511 00d0 7968     		ldr	r1, [r7, #4]
 10512 00d2 0A44     		add	r2, r2, r1
 10513 00d4 1278     		ldrb	r2, [r2]	@ zero_extendqisi2
 10514 00d6 1A70     		strb	r2, [r3]
2682:.\AdvantageImpl.c ****                 pbuffer[index] = 0x00;
 10515              		.loc 1 2682 0 discriminator 3
 10516 00d8 97F90D30 		ldrsb	r3, [r7, #13]
 10517 00dc 7A68     		ldr	r2, [r7, #4]
 10518 00de 1344     		add	r3, r3, r2
 10519 00e0 0022     		movs	r2, #0
 10520 00e2 1A70     		strb	r2, [r3]
2679:.\AdvantageImpl.c ****             {
 10521              		.loc 1 2679 0 discriminator 3
 10522 00e4 7B7B     		ldrb	r3, [r7, #13]	@ zero_extendqisi2
 10523 00e6 DBB2     		uxtb	r3, r3
 10524 00e8 013B     		subs	r3, r3, #1
 10525 00ea DBB2     		uxtb	r3, r3
 10526 00ec 7B73     		strb	r3, [r7, #13]
 10527              	.L442:
2679:.\AdvantageImpl.c ****             {
 10528              		.loc 1 2679 0 is_stmt 0 discriminator 1
 10529 00ee 97F90D30 		ldrsb	r3, [r7, #13]
 10530 00f2 002B     		cmp	r3, #0
 10531 00f4 E5DC     		bgt	.L443
2683:.\AdvantageImpl.c ****             }
2684:.\AdvantageImpl.c ****             shiftcount--;
 10532              		.loc 1 2684 0 is_stmt 1
 10533 00f6 3B7B     		ldrb	r3, [r7, #12]	@ zero_extendqisi2
 10534 00f8 DBB2     		uxtb	r3, r3
 10535 00fa 013B     		subs	r3, r3, #1
 10536 00fc DBB2     		uxtb	r3, r3
 10537 00fe 3B73     		strb	r3, [r7, #12]
 10538              	.L441:
2677:.\AdvantageImpl.c ****         {
 10539              		.loc 1 2677 0
 10540 0100 97F90C30 		ldrsb	r3, [r7, #12]
 10541 0104 002B     		cmp	r3, #0
 10542 0106 D7DC     		bgt	.L444
ARM GAS  C:\Users\RECEPC~1\AppData\Local\Temp\cc7aDVfG.s 			page 234


 10543 0108 2DE0     		b	.L431
 10544              	.L440:
2685:.\AdvantageImpl.c ****         }
2686:.\AdvantageImpl.c ****     }
2687:.\AdvantageImpl.c ****     else if(shiftcount < 0)
 10545              		.loc 1 2687 0
 10546 010a 97F90C30 		ldrsb	r3, [r7, #12]
 10547 010e 002B     		cmp	r3, #0
 10548 0110 29DA     		bge	.L431
2688:.\AdvantageImpl.c ****     {
2689:.\AdvantageImpl.c ****         while(shiftcount < 0)
 10549              		.loc 1 2689 0
 10550 0112 24E0     		b	.L446
 10551              	.L449:
2690:.\AdvantageImpl.c ****         {
2691:.\AdvantageImpl.c ****             FOR(index = 0, index < (buffersize  - 1), index++)
 10552              		.loc 1 2691 0
 10553 0114 0023     		movs	r3, #0
 10554 0116 7B73     		strb	r3, [r7, #13]
 10555 0118 16E0     		b	.L447
 10556              	.L448:
2692:.\AdvantageImpl.c ****             {
2693:.\AdvantageImpl.c ****                 pbuffer[index] = pbuffer[index + 1];
 10557              		.loc 1 2693 0 discriminator 3
 10558 011a 97F90D30 		ldrsb	r3, [r7, #13]
 10559 011e 7A68     		ldr	r2, [r7, #4]
 10560 0120 1344     		add	r3, r3, r2
 10561 0122 97F90D20 		ldrsb	r2, [r7, #13]
 10562 0126 0132     		adds	r2, r2, #1
 10563 0128 7968     		ldr	r1, [r7, #4]
 10564 012a 0A44     		add	r2, r2, r1
 10565 012c 1278     		ldrb	r2, [r2]	@ zero_extendqisi2
 10566 012e 1A70     		strb	r2, [r3]
2694:.\AdvantageImpl.c ****                 pbuffer[index + 1] = 0x30;
 10567              		.loc 1 2694 0 discriminator 3
 10568 0130 97F90D30 		ldrsb	r3, [r7, #13]
 10569 0134 0133     		adds	r3, r3, #1
 10570 0136 7A68     		ldr	r2, [r7, #4]
 10571 0138 1344     		add	r3, r3, r2
 10572 013a 3022     		movs	r2, #48
 10573 013c 1A70     		strb	r2, [r3]
2691:.\AdvantageImpl.c ****             {
 10574              		.loc 1 2691 0 discriminator 3
 10575 013e 7B7B     		ldrb	r3, [r7, #13]	@ zero_extendqisi2
 10576 0140 DBB2     		uxtb	r3, r3
 10577 0142 0133     		adds	r3, r3, #1
 10578 0144 DBB2     		uxtb	r3, r3
 10579 0146 7B73     		strb	r3, [r7, #13]
 10580              	.L447:
2691:.\AdvantageImpl.c ****             {
 10581              		.loc 1 2691 0 is_stmt 0 discriminator 1
 10582 0148 97F90D20 		ldrsb	r2, [r7, #13]
 10583 014c FB78     		ldrb	r3, [r7, #3]	@ zero_extendqisi2
 10584 014e 013B     		subs	r3, r3, #1
 10585 0150 9A42     		cmp	r2, r3
 10586 0152 E2DB     		blt	.L448
2695:.\AdvantageImpl.c ****             }
ARM GAS  C:\Users\RECEPC~1\AppData\Local\Temp\cc7aDVfG.s 			page 235


2696:.\AdvantageImpl.c ****             shiftcount++;
 10587              		.loc 1 2696 0 is_stmt 1
 10588 0154 3B7B     		ldrb	r3, [r7, #12]	@ zero_extendqisi2
 10589 0156 DBB2     		uxtb	r3, r3
 10590 0158 0133     		adds	r3, r3, #1
 10591 015a DBB2     		uxtb	r3, r3
 10592 015c 3B73     		strb	r3, [r7, #12]
 10593              	.L446:
2689:.\AdvantageImpl.c ****         {
 10594              		.loc 1 2689 0
 10595 015e 97F90C30 		ldrsb	r3, [r7, #12]
 10596 0162 002B     		cmp	r3, #0
 10597 0164 D6DB     		blt	.L449
 10598              	.L431:
2697:.\AdvantageImpl.c ****         }
2698:.\AdvantageImpl.c ****     }
2699:.\AdvantageImpl.c **** }
 10599              		.loc 1 2699 0
 10600 0166 1437     		adds	r7, r7, #20
 10601              		.cfi_def_cfa_offset 4
 10602 0168 BD46     		mov	sp, r7
 10603              		.cfi_def_cfa_register 13
 10604              		@ sp needed
 10605 016a 5DF8047B 		ldr	r7, [sp], #4
 10606              		.cfi_restore 7
 10607              		.cfi_def_cfa_offset 0
 10608 016e 7047     		bx	lr
 10609              	.L451:
 10610              		.align	2
 10611              	.L450:
 10612 0170 00000000 		.word	_g_dispenserlayoutinfo
 10613              		.cfi_endproc
 10614              	.LFE106:
 10615              		.size	CastVolumeValue, .-CastVolumeValue
 10616              		.section	.text.CastMoneyValue,"ax",%progbits
 10617              		.align	2
 10618              		.global	CastMoneyValue
 10619              		.thumb
 10620              		.thumb_func
 10621              		.type	CastMoneyValue, %function
 10622              	CastMoneyValue:
 10623              	.LFB107:
2700:.\AdvantageImpl.c **** 
2701:.\AdvantageImpl.c **** //@Created by: HIJH
2702:.\AdvantageImpl.c **** //@Date: Septembre de 2016
2703:.\AdvantageImpl.c **** //This method arranges the PRESET buffer when this is a "Money PRESET".
2704:.\AdvantageImpl.c **** void CastMoneyValue(char8 *pbuffer, uint8 buffersize)
2705:.\AdvantageImpl.c **** {
 10624              		.loc 1 2705 0
 10625              		.cfi_startproc
 10626              		@ args = 0, pretend = 0, frame = 16
 10627              		@ frame_needed = 1, uses_anonymous_args = 0
 10628              		@ link register save eliminated.
 10629 0000 80B4     		push	{r7}
 10630              		.cfi_def_cfa_offset 4
 10631              		.cfi_offset 7, -4
 10632 0002 85B0     		sub	sp, sp, #20
ARM GAS  C:\Users\RECEPC~1\AppData\Local\Temp\cc7aDVfG.s 			page 236


 10633              		.cfi_def_cfa_offset 24
 10634 0004 00AF     		add	r7, sp, #0
 10635              		.cfi_def_cfa_register 7
 10636 0006 7860     		str	r0, [r7, #4]
 10637 0008 0B46     		mov	r3, r1
 10638 000a FB70     		strb	r3, [r7, #3]
2706:.\AdvantageImpl.c ****     uint8 delimiterindex = 0x00;
 10639              		.loc 1 2706 0
 10640 000c 0023     		movs	r3, #0
 10641 000e FB73     		strb	r3, [r7, #15]
2707:.\AdvantageImpl.c ****     bool shiftbydelimiter = false;
 10642              		.loc 1 2707 0
 10643 0010 0023     		movs	r3, #0
 10644 0012 BB73     		strb	r3, [r7, #14]
2708:.\AdvantageImpl.c ****     //If there is a "Comma" inside of the buffer, then just remove it before and count this for the
2709:.\AdvantageImpl.c ****     FOR(int8 index = (buffersize - 1), index > 0, index--)
 10645              		.loc 1 2709 0
 10646 0014 FB78     		ldrb	r3, [r7, #3]
 10647 0016 013B     		subs	r3, r3, #1
 10648 0018 DBB2     		uxtb	r3, r3
 10649 001a 7B73     		strb	r3, [r7, #13]
 10650 001c 2CE0     		b	.L453
 10651              	.L457:
2710:.\AdvantageImpl.c ****     {
2711:.\AdvantageImpl.c ****         if(pbuffer[index] == 0x2C && !shiftbydelimiter)
 10652              		.loc 1 2711 0
 10653 001e 97F90D30 		ldrsb	r3, [r7, #13]
 10654 0022 7A68     		ldr	r2, [r7, #4]
 10655 0024 1344     		add	r3, r3, r2
 10656 0026 1B78     		ldrb	r3, [r3]	@ zero_extendqisi2
 10657 0028 2C2B     		cmp	r3, #44
 10658 002a 07D1     		bne	.L454
 10659              		.loc 1 2711 0 is_stmt 0 discriminator 1
 10660 002c BB7B     		ldrb	r3, [r7, #14]
 10661 002e 83F00103 		eor	r3, r3, #1
 10662 0032 DBB2     		uxtb	r3, r3
 10663 0034 002B     		cmp	r3, #0
 10664 0036 01D0     		beq	.L454
2712:.\AdvantageImpl.c ****             shiftbydelimiter = true;
 10665              		.loc 1 2712 0 is_stmt 1
 10666 0038 0123     		movs	r3, #1
 10667 003a BB73     		strb	r3, [r7, #14]
 10668              	.L454:
2713:.\AdvantageImpl.c **** 
2714:.\AdvantageImpl.c ****         if(shiftbydelimiter)
 10669              		.loc 1 2714 0
 10670 003c BB7B     		ldrb	r3, [r7, #14]	@ zero_extendqisi2
 10671 003e 002B     		cmp	r3, #0
 10672 0040 12D0     		beq	.L455
2715:.\AdvantageImpl.c ****         {
2716:.\AdvantageImpl.c ****             pbuffer[index] = pbuffer[index - 1];
 10673              		.loc 1 2716 0
 10674 0042 97F90D30 		ldrsb	r3, [r7, #13]
 10675 0046 7A68     		ldr	r2, [r7, #4]
 10676 0048 1344     		add	r3, r3, r2
 10677 004a 97F90D20 		ldrsb	r2, [r7, #13]
 10678 004e 013A     		subs	r2, r2, #1
ARM GAS  C:\Users\RECEPC~1\AppData\Local\Temp\cc7aDVfG.s 			page 237


 10679 0050 7968     		ldr	r1, [r7, #4]
 10680 0052 0A44     		add	r2, r2, r1
 10681 0054 1278     		ldrb	r2, [r2]	@ zero_extendqisi2
 10682 0056 1A70     		strb	r2, [r3]
2717:.\AdvantageImpl.c ****             pbuffer[index - 1] = 0x00;
 10683              		.loc 1 2717 0
 10684 0058 97F90D30 		ldrsb	r3, [r7, #13]
 10685 005c 013B     		subs	r3, r3, #1
 10686 005e 7A68     		ldr	r2, [r7, #4]
 10687 0060 1344     		add	r3, r3, r2
 10688 0062 0022     		movs	r2, #0
 10689 0064 1A70     		strb	r2, [r3]
 10690 0066 02E0     		b	.L456
 10691              	.L455:
2718:.\AdvantageImpl.c ****         }else
2719:.\AdvantageImpl.c ****             delimiterindex++;
 10692              		.loc 1 2719 0
 10693 0068 FB7B     		ldrb	r3, [r7, #15]	@ zero_extendqisi2
 10694 006a 0133     		adds	r3, r3, #1
 10695 006c FB73     		strb	r3, [r7, #15]
 10696              	.L456:
2709:.\AdvantageImpl.c ****     {
 10697              		.loc 1 2709 0 discriminator 2
 10698 006e 7B7B     		ldrb	r3, [r7, #13]	@ zero_extendqisi2
 10699 0070 DBB2     		uxtb	r3, r3
 10700 0072 013B     		subs	r3, r3, #1
 10701 0074 DBB2     		uxtb	r3, r3
 10702 0076 7B73     		strb	r3, [r7, #13]
 10703              	.L453:
2709:.\AdvantageImpl.c ****     {
 10704              		.loc 1 2709 0 is_stmt 0 discriminator 1
 10705 0078 97F90D30 		ldrsb	r3, [r7, #13]
 10706 007c 002B     		cmp	r3, #0
 10707 007e CEDC     		bgt	.L457
2720:.\AdvantageImpl.c ****         
2721:.\AdvantageImpl.c ****     }
2722:.\AdvantageImpl.c ****     if(!shiftbydelimiter)
 10708              		.loc 1 2722 0 is_stmt 1
 10709 0080 BB7B     		ldrb	r3, [r7, #14]
 10710 0082 83F00103 		eor	r3, r3, #1
 10711 0086 DBB2     		uxtb	r3, r3
 10712 0088 002B     		cmp	r3, #0
 10713 008a 01D0     		beq	.L458
2723:.\AdvantageImpl.c ****         delimiterindex = 0x00;
 10714              		.loc 1 2723 0
 10715 008c 0023     		movs	r3, #0
 10716 008e FB73     		strb	r3, [r7, #15]
 10717              	.L458:
2724:.\AdvantageImpl.c ****     
2725:.\AdvantageImpl.c ****     int8 shiftcount = (delimiterindex - _g_dispenserlayoutinfo._moneydecimals);
 10718              		.loc 1 2725 0
 10719 0090 334B     		ldr	r3, .L469
 10720 0092 DB79     		ldrb	r3, [r3, #7]	@ zero_extendqisi2
 10721 0094 FA7B     		ldrb	r2, [r7, #15]
 10722 0096 D31A     		subs	r3, r2, r3
 10723 0098 DBB2     		uxtb	r3, r3
 10724 009a 3B73     		strb	r3, [r7, #12]
ARM GAS  C:\Users\RECEPC~1\AppData\Local\Temp\cc7aDVfG.s 			page 238


2726:.\AdvantageImpl.c ****     //8 is the size of the allocated buffer space for the preset values according to the protocol.
2727:.\AdvantageImpl.c ****     //The real buffer size allocated from the display side is 16 bytes. The buffer will be cast fro
2728:.\AdvantageImpl.c ****     //the end to the beginning, so the startup index has been calculated "explicitly", this is (8 -
2729:.\AdvantageImpl.c ****     //To multiply by 1000 we need to shift the entire buffer three bytes to shift the comma, so we
2730:.\AdvantageImpl.c ****     //will subtract 3 bytes to the starting position in order to make the shifting.
2731:.\AdvantageImpl.c ****     if(shiftcount > 0)
 10725              		.loc 1 2731 0
 10726 009c 97F90C30 		ldrsb	r3, [r7, #12]
 10727 00a0 002B     		cmp	r3, #0
 10728 00a2 29DD     		ble	.L459
2732:.\AdvantageImpl.c ****     {
2733:.\AdvantageImpl.c ****         while(shiftcount > 0)
 10729              		.loc 1 2733 0
 10730 00a4 23E0     		b	.L460
 10731              	.L463:
2734:.\AdvantageImpl.c ****         {
2735:.\AdvantageImpl.c ****             FOR(index = (buffersize - 1), index > 0, index--)
 10732              		.loc 1 2735 0
 10733 00a6 FB78     		ldrb	r3, [r7, #3]
 10734 00a8 013B     		subs	r3, r3, #1
 10735 00aa DBB2     		uxtb	r3, r3
 10736 00ac 7B73     		strb	r3, [r7, #13]
 10737 00ae 15E0     		b	.L461
 10738              	.L462:
2736:.\AdvantageImpl.c ****             {
2737:.\AdvantageImpl.c ****                 pbuffer[index] = pbuffer[index - 1];
 10739              		.loc 1 2737 0 discriminator 3
 10740 00b0 97F90D30 		ldrsb	r3, [r7, #13]
 10741 00b4 7A68     		ldr	r2, [r7, #4]
 10742 00b6 1344     		add	r3, r3, r2
 10743 00b8 97F90D20 		ldrsb	r2, [r7, #13]
 10744 00bc 013A     		subs	r2, r2, #1
 10745 00be 7968     		ldr	r1, [r7, #4]
 10746 00c0 0A44     		add	r2, r2, r1
 10747 00c2 1278     		ldrb	r2, [r2]	@ zero_extendqisi2
 10748 00c4 1A70     		strb	r2, [r3]
2738:.\AdvantageImpl.c ****                 pbuffer[index] = 0x00;
 10749              		.loc 1 2738 0 discriminator 3
 10750 00c6 97F90D30 		ldrsb	r3, [r7, #13]
 10751 00ca 7A68     		ldr	r2, [r7, #4]
 10752 00cc 1344     		add	r3, r3, r2
 10753 00ce 0022     		movs	r2, #0
 10754 00d0 1A70     		strb	r2, [r3]
2735:.\AdvantageImpl.c ****             {
 10755              		.loc 1 2735 0 discriminator 3
 10756 00d2 7B7B     		ldrb	r3, [r7, #13]	@ zero_extendqisi2
 10757 00d4 DBB2     		uxtb	r3, r3
 10758 00d6 013B     		subs	r3, r3, #1
 10759 00d8 DBB2     		uxtb	r3, r3
 10760 00da 7B73     		strb	r3, [r7, #13]
 10761              	.L461:
2735:.\AdvantageImpl.c ****             {
 10762              		.loc 1 2735 0 is_stmt 0 discriminator 1
 10763 00dc 97F90D30 		ldrsb	r3, [r7, #13]
 10764 00e0 002B     		cmp	r3, #0
 10765 00e2 E5DC     		bgt	.L462
2739:.\AdvantageImpl.c ****             }
ARM GAS  C:\Users\RECEPC~1\AppData\Local\Temp\cc7aDVfG.s 			page 239


2740:.\AdvantageImpl.c ****             shiftcount--;
 10766              		.loc 1 2740 0 is_stmt 1
 10767 00e4 3B7B     		ldrb	r3, [r7, #12]	@ zero_extendqisi2
 10768 00e6 DBB2     		uxtb	r3, r3
 10769 00e8 013B     		subs	r3, r3, #1
 10770 00ea DBB2     		uxtb	r3, r3
 10771 00ec 3B73     		strb	r3, [r7, #12]
 10772              	.L460:
2733:.\AdvantageImpl.c ****         {
 10773              		.loc 1 2733 0
 10774 00ee 97F90C30 		ldrsb	r3, [r7, #12]
 10775 00f2 002B     		cmp	r3, #0
 10776 00f4 D7DC     		bgt	.L463
 10777 00f6 2DE0     		b	.L452
 10778              	.L459:
2741:.\AdvantageImpl.c ****         }
2742:.\AdvantageImpl.c ****     }
2743:.\AdvantageImpl.c ****     else if(shiftcount < 0)
 10779              		.loc 1 2743 0
 10780 00f8 97F90C30 		ldrsb	r3, [r7, #12]
 10781 00fc 002B     		cmp	r3, #0
 10782 00fe 29DA     		bge	.L452
2744:.\AdvantageImpl.c ****     {
2745:.\AdvantageImpl.c ****         while(shiftcount < 0)
 10783              		.loc 1 2745 0
 10784 0100 24E0     		b	.L465
 10785              	.L468:
2746:.\AdvantageImpl.c ****         {
2747:.\AdvantageImpl.c ****             FOR(index = 0, index < (buffersize  - 1), index++)
 10786              		.loc 1 2747 0
 10787 0102 0023     		movs	r3, #0
 10788 0104 7B73     		strb	r3, [r7, #13]
 10789 0106 16E0     		b	.L466
 10790              	.L467:
2748:.\AdvantageImpl.c ****             {
2749:.\AdvantageImpl.c ****                 pbuffer[index] = pbuffer[index + 1];
 10791              		.loc 1 2749 0 discriminator 3
 10792 0108 97F90D30 		ldrsb	r3, [r7, #13]
 10793 010c 7A68     		ldr	r2, [r7, #4]
 10794 010e 1344     		add	r3, r3, r2
 10795 0110 97F90D20 		ldrsb	r2, [r7, #13]
 10796 0114 0132     		adds	r2, r2, #1
 10797 0116 7968     		ldr	r1, [r7, #4]
 10798 0118 0A44     		add	r2, r2, r1
 10799 011a 1278     		ldrb	r2, [r2]	@ zero_extendqisi2
 10800 011c 1A70     		strb	r2, [r3]
2750:.\AdvantageImpl.c ****                 pbuffer[index + 1] = 0x30;
 10801              		.loc 1 2750 0 discriminator 3
 10802 011e 97F90D30 		ldrsb	r3, [r7, #13]
 10803 0122 0133     		adds	r3, r3, #1
 10804 0124 7A68     		ldr	r2, [r7, #4]
 10805 0126 1344     		add	r3, r3, r2
 10806 0128 3022     		movs	r2, #48
 10807 012a 1A70     		strb	r2, [r3]
2747:.\AdvantageImpl.c ****             {
 10808              		.loc 1 2747 0 discriminator 3
 10809 012c 7B7B     		ldrb	r3, [r7, #13]	@ zero_extendqisi2
ARM GAS  C:\Users\RECEPC~1\AppData\Local\Temp\cc7aDVfG.s 			page 240


 10810 012e DBB2     		uxtb	r3, r3
 10811 0130 0133     		adds	r3, r3, #1
 10812 0132 DBB2     		uxtb	r3, r3
 10813 0134 7B73     		strb	r3, [r7, #13]
 10814              	.L466:
2747:.\AdvantageImpl.c ****             {
 10815              		.loc 1 2747 0 is_stmt 0 discriminator 1
 10816 0136 97F90D20 		ldrsb	r2, [r7, #13]
 10817 013a FB78     		ldrb	r3, [r7, #3]	@ zero_extendqisi2
 10818 013c 013B     		subs	r3, r3, #1
 10819 013e 9A42     		cmp	r2, r3
 10820 0140 E2DB     		blt	.L467
2751:.\AdvantageImpl.c ****             }
2752:.\AdvantageImpl.c ****             shiftcount++;
 10821              		.loc 1 2752 0 is_stmt 1
 10822 0142 3B7B     		ldrb	r3, [r7, #12]	@ zero_extendqisi2
 10823 0144 DBB2     		uxtb	r3, r3
 10824 0146 0133     		adds	r3, r3, #1
 10825 0148 DBB2     		uxtb	r3, r3
 10826 014a 3B73     		strb	r3, [r7, #12]
 10827              	.L465:
2745:.\AdvantageImpl.c ****         {
 10828              		.loc 1 2745 0
 10829 014c 97F90C30 		ldrsb	r3, [r7, #12]
 10830 0150 002B     		cmp	r3, #0
 10831 0152 D6DB     		blt	.L468
 10832              	.L452:
2753:.\AdvantageImpl.c ****         }
2754:.\AdvantageImpl.c ****     }
2755:.\AdvantageImpl.c **** }
 10833              		.loc 1 2755 0
 10834 0154 1437     		adds	r7, r7, #20
 10835              		.cfi_def_cfa_offset 4
 10836 0156 BD46     		mov	sp, r7
 10837              		.cfi_def_cfa_register 13
 10838              		@ sp needed
 10839 0158 5DF8047B 		ldr	r7, [sp], #4
 10840              		.cfi_restore 7
 10841              		.cfi_def_cfa_offset 0
 10842 015c 7047     		bx	lr
 10843              	.L470:
 10844 015e 00BF     		.align	2
 10845              	.L469:
 10846 0160 00000000 		.word	_g_dispenserlayoutinfo
 10847              		.cfi_endproc
 10848              	.LFE107:
 10849              		.size	CastMoneyValue, .-CastMoneyValue
 10850              		.global	_g_sfcharmap
 10851              		.data
 10852              		.align	2
 10853              		.type	_g_sfcharmap, %object
 10854              		.size	_g_sfcharmap, 32
 10855              	_g_sfcharmap:
 10856 0000 B1       		.byte	-79
 10857 0001 01       		.byte	1
 10858 0002 B2       		.byte	-78
 10859 0003 02       		.byte	2
ARM GAS  C:\Users\RECEPC~1\AppData\Local\Temp\cc7aDVfG.s 			page 241


 10860 0004 B3       		.byte	-77
 10861 0005 03       		.byte	3
 10862 0006 B4       		.byte	-76
 10863 0007 04       		.byte	4
 10864 0008 B5       		.byte	-75
 10865 0009 05       		.byte	5
 10866 000a B6       		.byte	-74
 10867 000b 06       		.byte	6
 10868 000c B7       		.byte	-73
 10869 000d 07       		.byte	7
 10870 000e B8       		.byte	-72
 10871 000f 08       		.byte	8
 10872 0010 B9       		.byte	-71
 10873 0011 09       		.byte	9
 10874 0012 C1       		.byte	-63
 10875 0013 0A       		.byte	10
 10876 0014 C2       		.byte	-62
 10877 0015 0B       		.byte	11
 10878 0016 C3       		.byte	-61
 10879 0017 0C       		.byte	12
 10880 0018 C4       		.byte	-60
 10881 0019 0D       		.byte	13
 10882 001a C5       		.byte	-59
 10883 001b 0E       		.byte	14
 10884 001c C6       		.byte	-58
 10885 001d 0F       		.byte	15
 10886 001e 00       		.byte	0
 10887 001f 00       		.byte	0
 10888              		.section	.text.TranslateSpecialFuncionDigit,"ax",%progbits
 10889              		.align	2
 10890              		.global	TranslateSpecialFuncionDigit
 10891              		.thumb
 10892              		.thumb_func
 10893              		.type	TranslateSpecialFuncionDigit, %function
 10894              	TranslateSpecialFuncionDigit:
 10895              	.LFB108:
2756:.\AdvantageImpl.c **** 
2757:.\AdvantageImpl.c **** //This is a char map to translate from the special functions word domain to the normal byte domain
2758:.\AdvantageImpl.c **** char8 _g_sfcharmap[][2] = 
2759:.\AdvantageImpl.c **** {
2760:.\AdvantageImpl.c ****     { 0xB1, 0x01 }, { 0xB2, 0x02 }, { 0xB3, 0x03 }, { 0xB4, 0x04 }, { 0xB5, 0x05 }, { 0xB6, 0x06 },
2761:.\AdvantageImpl.c ****     { 0xC1, 0x0A }, { 0xC2, 0x0B }, { 0xC3, 0x0C }, { 0xC4, 0x0D }, { 0xC5, 0x0E }, { 0xC6, 0x0F },
2762:.\AdvantageImpl.c **** };
2763:.\AdvantageImpl.c **** 
2764:.\AdvantageImpl.c **** //@Created By: HIJH
2765:.\AdvantageImpl.c **** //@Septembre de 2016
2766:.\AdvantageImpl.c **** char8 TranslateSpecialFuncionDigit(char8 refval)
2767:.\AdvantageImpl.c **** {
 10896              		.loc 1 2767 0
 10897              		.cfi_startproc
 10898              		@ args = 0, pretend = 0, frame = 16
 10899              		@ frame_needed = 1, uses_anonymous_args = 0
 10900              		@ link register save eliminated.
 10901 0000 80B4     		push	{r7}
 10902              		.cfi_def_cfa_offset 4
 10903              		.cfi_offset 7, -4
 10904 0002 85B0     		sub	sp, sp, #20
ARM GAS  C:\Users\RECEPC~1\AppData\Local\Temp\cc7aDVfG.s 			page 242


 10905              		.cfi_def_cfa_offset 24
 10906 0004 00AF     		add	r7, sp, #0
 10907              		.cfi_def_cfa_register 7
 10908 0006 0346     		mov	r3, r0
 10909 0008 FB71     		strb	r3, [r7, #7]
2768:.\AdvantageImpl.c ****     char8 retval = 0x00;
 10910              		.loc 1 2768 0
 10911 000a 0023     		movs	r3, #0
 10912 000c FB73     		strb	r3, [r7, #15]
2769:.\AdvantageImpl.c ****     PSTR ptrstr = (PSTR)&_g_sfcharmap[0];
 10913              		.loc 1 2769 0
 10914 000e 0D4B     		ldr	r3, .L477
 10915 0010 BB60     		str	r3, [r7, #8]
2770:.\AdvantageImpl.c ****     while(*ptrstr != 0x00)
 10916              		.loc 1 2770 0
 10917 0012 0BE0     		b	.L472
 10918              	.L475:
2771:.\AdvantageImpl.c ****     {
2772:.\AdvantageImpl.c ****         if(ptrstr[0] == refval)
 10919              		.loc 1 2772 0
 10920 0014 BB68     		ldr	r3, [r7, #8]
 10921 0016 1B78     		ldrb	r3, [r3]	@ zero_extendqisi2
 10922 0018 FA79     		ldrb	r2, [r7, #7]	@ zero_extendqisi2
 10923 001a 9A42     		cmp	r2, r3
 10924 001c 03D1     		bne	.L473
2773:.\AdvantageImpl.c ****         {
2774:.\AdvantageImpl.c ****             retval = ptrstr[1];
 10925              		.loc 1 2774 0
 10926 001e BB68     		ldr	r3, [r7, #8]
 10927 0020 5B78     		ldrb	r3, [r3, #1]
 10928 0022 FB73     		strb	r3, [r7, #15]
2775:.\AdvantageImpl.c ****             break;
 10929              		.loc 1 2775 0
 10930 0024 06E0     		b	.L474
 10931              	.L473:
2776:.\AdvantageImpl.c ****         }
2777:.\AdvantageImpl.c ****         ptrstr++;
 10932              		.loc 1 2777 0
 10933 0026 BB68     		ldr	r3, [r7, #8]
 10934 0028 0133     		adds	r3, r3, #1
 10935 002a BB60     		str	r3, [r7, #8]
 10936              	.L472:
2770:.\AdvantageImpl.c ****     {
 10937              		.loc 1 2770 0
 10938 002c BB68     		ldr	r3, [r7, #8]
 10939 002e 1B78     		ldrb	r3, [r3]	@ zero_extendqisi2
 10940 0030 002B     		cmp	r3, #0
 10941 0032 EFD1     		bne	.L475
 10942              	.L474:
2778:.\AdvantageImpl.c ****     }    
2779:.\AdvantageImpl.c ****     return retval;
 10943              		.loc 1 2779 0
 10944 0034 FB7B     		ldrb	r3, [r7, #15]	@ zero_extendqisi2
2780:.\AdvantageImpl.c **** }
 10945              		.loc 1 2780 0
 10946 0036 1846     		mov	r0, r3
 10947 0038 1437     		adds	r7, r7, #20
ARM GAS  C:\Users\RECEPC~1\AppData\Local\Temp\cc7aDVfG.s 			page 243


 10948              		.cfi_def_cfa_offset 4
 10949 003a BD46     		mov	sp, r7
 10950              		.cfi_def_cfa_register 13
 10951              		@ sp needed
 10952 003c 5DF8047B 		ldr	r7, [sp], #4
 10953              		.cfi_restore 7
 10954              		.cfi_def_cfa_offset 0
 10955 0040 7047     		bx	lr
 10956              	.L478:
 10957 0042 00BF     		.align	2
 10958              	.L477:
 10959 0044 00000000 		.word	_g_sfcharmap
 10960              		.cfi_endproc
 10961              	.LFE108:
 10962              		.size	TranslateSpecialFuncionDigit, .-TranslateSpecialFuncionDigit
 10963              		.bss
 10964              	index.9618:
 10965 0001 00       		.space	1
 10966              		.text
 10967              	.Letext0:
 10968              		.file 2 "c:\\program files (x86)\\cypress\\psoc creator\\3.3\\psoc creator\\import\\gnu\\arm\\4.9.
 10969              		.file 3 "c:\\program files (x86)\\cypress\\psoc creator\\3.3\\psoc creator\\import\\gnu\\arm\\4.9.
 10970              		.file 4 "Generated_Source\\PSoC5/cytypes.h"
 10971              		.file 5 ".\\GlobalDefinitions.h"
 10972              		.file 6 ".\\SinkManager.h"
 10973              		.file 7 ".\\SinkObservables.h"
 10974              		.file 8 ".\\UARTManager.h"
 10975              		.file 9 ".\\Display.h"
 10976              		.file 10 ".\\Advantage.h"
 10977              		.file 11 ".\\Dispenser.h"
 10978              		.file 12 ".\\Eeprom.h"
 10979              		.file 13 ".\\RFLink.h"
 10980              		.file 14 ".\\Printer.h"
 10981              		.file 15 "Generated_Source\\PSoC5/core_cm3.h"
 10982              		.section	.debug_info,"",%progbits
 10983              	.Ldebug_info0:
 10984 0000 AB290000 		.4byte	0x29ab
 10985 0004 0400     		.2byte	0x4
 10986 0006 00000000 		.4byte	.Ldebug_abbrev0
 10987 000a 04       		.byte	0x4
 10988 000b 01       		.uleb128 0x1
 10989 000c B3240000 		.4byte	.LASF568
 10990 0010 01       		.byte	0x1
 10991 0011 A21A0000 		.4byte	.LASF569
 10992 0015 F1170000 		.4byte	.LASF570
 10993 0019 00000000 		.4byte	.Ldebug_ranges0+0
 10994 001d 00000000 		.4byte	0
 10995 0021 00000000 		.4byte	.Ldebug_line0
 10996 0025 02       		.uleb128 0x2
 10997 0026 01       		.byte	0x1
 10998 0027 06       		.byte	0x6
 10999 0028 E30A0000 		.4byte	.LASF0
 11000 002c 03       		.uleb128 0x3
 11001 002d F1060000 		.4byte	.LASF4
 11002 0031 02       		.byte	0x2
 11003 0032 1D       		.byte	0x1d
 11004 0033 37000000 		.4byte	0x37
ARM GAS  C:\Users\RECEPC~1\AppData\Local\Temp\cc7aDVfG.s 			page 244


 11005 0037 02       		.uleb128 0x2
 11006 0038 01       		.byte	0x1
 11007 0039 08       		.byte	0x8
 11008 003a 360C0000 		.4byte	.LASF1
 11009 003e 02       		.uleb128 0x2
 11010 003f 02       		.byte	0x2
 11011 0040 05       		.byte	0x5
 11012 0041 63230000 		.4byte	.LASF2
 11013 0045 02       		.uleb128 0x2
 11014 0046 02       		.byte	0x2
 11015 0047 07       		.byte	0x7
 11016 0048 6E280000 		.4byte	.LASF3
 11017 004c 03       		.uleb128 0x3
 11018 004d 1B290000 		.4byte	.LASF5
 11019 0051 02       		.byte	0x2
 11020 0052 3F       		.byte	0x3f
 11021 0053 57000000 		.4byte	0x57
 11022 0057 02       		.uleb128 0x2
 11023 0058 04       		.byte	0x4
 11024 0059 05       		.byte	0x5
 11025 005a 27080000 		.4byte	.LASF6
 11026 005e 02       		.uleb128 0x2
 11027 005f 04       		.byte	0x4
 11028 0060 07       		.byte	0x7
 11029 0061 F1130000 		.4byte	.LASF7
 11030 0065 02       		.uleb128 0x2
 11031 0066 08       		.byte	0x8
 11032 0067 05       		.byte	0x5
 11033 0068 C2160000 		.4byte	.LASF8
 11034 006c 02       		.uleb128 0x2
 11035 006d 08       		.byte	0x8
 11036 006e 07       		.byte	0x7
 11037 006f 161F0000 		.4byte	.LASF9
 11038 0073 04       		.uleb128 0x4
 11039 0074 04       		.byte	0x4
 11040 0075 05       		.byte	0x5
 11041 0076 696E7400 		.ascii	"int\000"
 11042 007a 02       		.uleb128 0x2
 11043 007b 04       		.byte	0x4
 11044 007c 07       		.byte	0x7
 11045 007d B3190000 		.4byte	.LASF10
 11046 0081 03       		.uleb128 0x3
 11047 0082 EF0A0000 		.4byte	.LASF11
 11048 0086 03       		.byte	0x3
 11049 0087 15       		.byte	0x15
 11050 0088 2C000000 		.4byte	0x2c
 11051 008c 03       		.uleb128 0x3
 11052 008d 3A020000 		.4byte	.LASF12
 11053 0091 03       		.byte	0x3
 11054 0092 2C       		.byte	0x2c
 11055 0093 4C000000 		.4byte	0x4c
 11056 0097 05       		.uleb128 0x5
 11057 0098 1A230000 		.4byte	.LASF13
 11058 009c 04       		.byte	0x4
 11059 009d 3801     		.2byte	0x138
 11060 009f 37000000 		.4byte	0x37
 11061 00a3 05       		.uleb128 0x5
ARM GAS  C:\Users\RECEPC~1\AppData\Local\Temp\cc7aDVfG.s 			page 245


 11062 00a4 802A0000 		.4byte	.LASF14
 11063 00a8 04       		.byte	0x4
 11064 00a9 3901     		.2byte	0x139
 11065 00ab 45000000 		.4byte	0x45
 11066 00af 05       		.uleb128 0x5
 11067 00b0 E6020000 		.4byte	.LASF15
 11068 00b4 04       		.byte	0x4
 11069 00b5 3A01     		.2byte	0x13a
 11070 00b7 5E000000 		.4byte	0x5e
 11071 00bb 05       		.uleb128 0x5
 11072 00bc F4050000 		.4byte	.LASF16
 11073 00c0 04       		.byte	0x4
 11074 00c1 3B01     		.2byte	0x13b
 11075 00c3 25000000 		.4byte	0x25
 11076 00c7 02       		.uleb128 0x2
 11077 00c8 04       		.byte	0x4
 11078 00c9 04       		.byte	0x4
 11079 00ca DE180000 		.4byte	.LASF17
 11080 00ce 02       		.uleb128 0x2
 11081 00cf 08       		.byte	0x8
 11082 00d0 04       		.byte	0x4
 11083 00d1 A9170000 		.4byte	.LASF18
 11084 00d5 05       		.uleb128 0x5
 11085 00d6 20080000 		.4byte	.LASF19
 11086 00da 04       		.byte	0x4
 11087 00db 4401     		.2byte	0x144
 11088 00dd 6C000000 		.4byte	0x6c
 11089 00e1 05       		.uleb128 0x5
 11090 00e2 CD040000 		.4byte	.LASF20
 11091 00e6 04       		.byte	0x4
 11092 00e7 4901     		.2byte	0x149
 11093 00e9 ED000000 		.4byte	0xed
 11094 00ed 02       		.uleb128 0x2
 11095 00ee 01       		.byte	0x1
 11096 00ef 08       		.byte	0x8
 11097 00f0 BE0D0000 		.4byte	.LASF21
 11098 00f4 06       		.uleb128 0x6
 11099 00f5 97000000 		.4byte	0x97
 11100 00f9 06       		.uleb128 0x6
 11101 00fa A3000000 		.4byte	0xa3
 11102 00fe 06       		.uleb128 0x6
 11103 00ff AF000000 		.4byte	0xaf
 11104 0103 07       		.uleb128 0x7
 11105 0104 04       		.byte	0x4
 11106 0105 09010000 		.4byte	0x109
 11107 0109 08       		.uleb128 0x8
 11108 010a 02       		.uleb128 0x2
 11109 010b 04       		.byte	0x4
 11110 010c 07       		.byte	0x7
 11111 010d B7000000 		.4byte	.LASF22
 11112 0111 09       		.uleb128 0x9
 11113 0112 04       		.byte	0x4
 11114 0113 07       		.uleb128 0x7
 11115 0114 04       		.byte	0x4
 11116 0115 ED000000 		.4byte	0xed
 11117 0119 0A       		.uleb128 0xa
 11118 011a 97000000 		.4byte	0x97
ARM GAS  C:\Users\RECEPC~1\AppData\Local\Temp\cc7aDVfG.s 			page 246


 11119 011e 29010000 		.4byte	0x129
 11120 0122 0B       		.uleb128 0xb
 11121 0123 0A010000 		.4byte	0x10a
 11122 0127 03       		.byte	0x3
 11123 0128 00       		.byte	0
 11124 0129 02       		.uleb128 0x2
 11125 012a 08       		.byte	0x8
 11126 012b 04       		.byte	0x4
 11127 012c 311D0000 		.4byte	.LASF23
 11128 0130 03       		.uleb128 0x3
 11129 0131 011C0000 		.4byte	.LASF24
 11130 0135 05       		.byte	0x5
 11131 0136 29       		.byte	0x29
 11132 0137 11010000 		.4byte	0x111
 11133 013b 07       		.uleb128 0x7
 11134 013c 04       		.byte	0x4
 11135 013d E1000000 		.4byte	0xe1
 11136 0141 07       		.uleb128 0x7
 11137 0142 04       		.byte	0x4
 11138 0143 97000000 		.4byte	0x97
 11139 0147 0C       		.uleb128 0xc
 11140 0148 89270000 		.4byte	.LASF33
 11141 014c 01       		.byte	0x1
 11142 014d 06       		.byte	0x6
 11143 014e 3F       		.byte	0x3f
 11144 014f 84010000 		.4byte	0x184
 11145 0153 0D       		.uleb128 0xd
 11146 0154 052A0000 		.4byte	.LASF25
 11147 0158 01       		.sleb128 1
 11148 0159 0D       		.uleb128 0xd
 11149 015a 581A0000 		.4byte	.LASF26
 11150 015e 02       		.sleb128 2
 11151 015f 0D       		.uleb128 0xd
 11152 0160 ED1B0000 		.4byte	.LASF27
 11153 0164 03       		.sleb128 3
 11154 0165 0D       		.uleb128 0xd
 11155 0166 91220000 		.4byte	.LASF28
 11156 016a 04       		.sleb128 4
 11157 016b 0D       		.uleb128 0xd
 11158 016c 7C110000 		.4byte	.LASF29
 11159 0170 05       		.sleb128 5
 11160 0171 0D       		.uleb128 0xd
 11161 0172 B7250000 		.4byte	.LASF30
 11162 0176 06       		.sleb128 6
 11163 0177 0D       		.uleb128 0xd
 11164 0178 280E0000 		.4byte	.LASF31
 11165 017c 07       		.sleb128 7
 11166 017d 0D       		.uleb128 0xd
 11167 017e 7F130000 		.4byte	.LASF32
 11168 0182 08       		.sleb128 8
 11169 0183 00       		.byte	0
 11170 0184 0C       		.uleb128 0xc
 11171 0185 EB290000 		.4byte	.LASF34
 11172 0189 01       		.byte	0x1
 11173 018a 06       		.byte	0x6
 11174 018b 4C       		.byte	0x4c
 11175 018c A3010000 		.4byte	0x1a3
ARM GAS  C:\Users\RECEPC~1\AppData\Local\Temp\cc7aDVfG.s 			page 247


 11176 0190 0D       		.uleb128 0xd
 11177 0191 FB290000 		.4byte	.LASF35
 11178 0195 01       		.sleb128 1
 11179 0196 0D       		.uleb128 0xd
 11180 0197 940D0000 		.4byte	.LASF36
 11181 019b 02       		.sleb128 2
 11182 019c 0D       		.uleb128 0xd
 11183 019d 73010000 		.4byte	.LASF37
 11184 01a1 03       		.sleb128 3
 11185 01a2 00       		.byte	0
 11186 01a3 0E       		.uleb128 0xe
 11187 01a4 58000000 		.4byte	.LASF96
 11188 01a8 9801     		.2byte	0x198
 11189 01aa 06       		.byte	0x6
 11190 01ab 53       		.byte	0x53
 11191 01ac 44020000 		.4byte	0x244
 11192 01b0 0F       		.uleb128 0xf
 11193 01b1 D4180000 		.4byte	.LASF38
 11194 01b5 06       		.byte	0x6
 11195 01b6 55       		.byte	0x55
 11196 01b7 44020000 		.4byte	0x244
 11197 01bb 00       		.byte	0
 11198 01bc 0F       		.uleb128 0xf
 11199 01bd F0220000 		.4byte	.LASF39
 11200 01c1 06       		.byte	0x6
 11201 01c2 56       		.byte	0x56
 11202 01c3 F4000000 		.4byte	0xf4
 11203 01c7 01       		.byte	0x1
 11204 01c8 0F       		.uleb128 0xf
 11205 01c9 8F250000 		.4byte	.LASF40
 11206 01cd 06       		.byte	0x6
 11207 01ce 57       		.byte	0x57
 11208 01cf F4000000 		.4byte	0xf4
 11209 01d3 02       		.byte	0x2
 11210 01d4 0F       		.uleb128 0xf
 11211 01d5 10270000 		.4byte	.LASF41
 11212 01d9 06       		.byte	0x6
 11213 01da 58       		.byte	0x58
 11214 01db F4000000 		.4byte	0xf4
 11215 01df 03       		.byte	0x3
 11216 01e0 0F       		.uleb128 0xf
 11217 01e1 360D0000 		.4byte	.LASF42
 11218 01e5 06       		.byte	0x6
 11219 01e6 5A       		.byte	0x5a
 11220 01e7 F9000000 		.4byte	0xf9
 11221 01eb 04       		.byte	0x4
 11222 01ec 0F       		.uleb128 0xf
 11223 01ed 28100000 		.4byte	.LASF43
 11224 01f1 06       		.byte	0x6
 11225 01f2 5B       		.byte	0x5b
 11226 01f3 F9000000 		.4byte	0xf9
 11227 01f7 06       		.byte	0x6
 11228 01f8 0F       		.uleb128 0xf
 11229 01f9 84080000 		.4byte	.LASF44
 11230 01fd 06       		.byte	0x6
 11231 01fe 5C       		.byte	0x5c
 11232 01ff F9000000 		.4byte	0xf9
ARM GAS  C:\Users\RECEPC~1\AppData\Local\Temp\cc7aDVfG.s 			page 248


 11233 0203 08       		.byte	0x8
 11234 0204 0F       		.uleb128 0xf
 11235 0205 84240000 		.4byte	.LASF45
 11236 0209 06       		.byte	0x6
 11237 020a 5D       		.byte	0x5d
 11238 020b F9000000 		.4byte	0xf9
 11239 020f 0A       		.byte	0xa
 11240 0210 0F       		.uleb128 0xf
 11241 0211 8A070000 		.4byte	.LASF46
 11242 0215 06       		.byte	0x6
 11243 0216 5E       		.byte	0x5e
 11244 0217 50020000 		.4byte	0x250
 11245 021b 0C       		.byte	0xc
 11246 021c 10       		.uleb128 0x10
 11247 021d 0C2B0000 		.4byte	.LASF47
 11248 0221 06       		.byte	0x6
 11249 0222 5F       		.byte	0x5f
 11250 0223 F9000000 		.4byte	0xf9
 11251 0227 8C01     		.2byte	0x18c
 11252 0229 10       		.uleb128 0x10
 11253 022a F0140000 		.4byte	.LASF48
 11254 022e 06       		.byte	0x6
 11255 022f 62       		.byte	0x62
 11256 0230 11010000 		.4byte	0x111
 11257 0234 9001     		.2byte	0x190
 11258 0236 10       		.uleb128 0x10
 11259 0237 44150000 		.4byte	.LASF49
 11260 023b 06       		.byte	0x6
 11261 023c 63       		.byte	0x63
 11262 023d 6C020000 		.4byte	0x26c
 11263 0241 9401     		.2byte	0x194
 11264 0243 00       		.byte	0
 11265 0244 06       		.uleb128 0x6
 11266 0245 49020000 		.4byte	0x249
 11267 0249 02       		.uleb128 0x2
 11268 024a 01       		.byte	0x1
 11269 024b 02       		.byte	0x2
 11270 024c 540D0000 		.4byte	.LASF50
 11271 0250 0A       		.uleb128 0xa
 11272 0251 E1000000 		.4byte	0xe1
 11273 0255 61020000 		.4byte	0x261
 11274 0259 11       		.uleb128 0x11
 11275 025a 0A010000 		.4byte	0x10a
 11276 025e 7F01     		.2byte	0x17f
 11277 0260 00       		.byte	0
 11278 0261 12       		.uleb128 0x12
 11279 0262 6C020000 		.4byte	0x26c
 11280 0266 13       		.uleb128 0x13
 11281 0267 11010000 		.4byte	0x111
 11282 026b 00       		.byte	0
 11283 026c 07       		.uleb128 0x7
 11284 026d 04       		.byte	0x4
 11285 026e 61020000 		.4byte	0x261
 11286 0272 03       		.uleb128 0x3
 11287 0273 191A0000 		.4byte	.LASF51
 11288 0277 06       		.byte	0x6
 11289 0278 64       		.byte	0x64
ARM GAS  C:\Users\RECEPC~1\AppData\Local\Temp\cc7aDVfG.s 			page 249


 11290 0279 7D020000 		.4byte	0x27d
 11291 027d 07       		.uleb128 0x7
 11292 027e 04       		.byte	0x4
 11293 027f A3010000 		.4byte	0x1a3
 11294 0283 0C       		.uleb128 0xc
 11295 0284 D8070000 		.4byte	.LASF52
 11296 0288 01       		.byte	0x1
 11297 0289 07       		.byte	0x7
 11298 028a 0F       		.byte	0xf
 11299 028b 92030000 		.4byte	0x392
 11300 028f 0D       		.uleb128 0xd
 11301 0290 E81C0000 		.4byte	.LASF53
 11302 0294 01       		.sleb128 1
 11303 0295 0D       		.uleb128 0xd
 11304 0296 3F210000 		.4byte	.LASF54
 11305 029a 02       		.sleb128 2
 11306 029b 0D       		.uleb128 0xd
 11307 029c 92020000 		.4byte	.LASF55
 11308 02a0 03       		.sleb128 3
 11309 02a1 0D       		.uleb128 0xd
 11310 02a2 AF1F0000 		.4byte	.LASF56
 11311 02a6 04       		.sleb128 4
 11312 02a7 0D       		.uleb128 0xd
 11313 02a8 1F020000 		.4byte	.LASF57
 11314 02ac 05       		.sleb128 5
 11315 02ad 0D       		.uleb128 0xd
 11316 02ae 09050000 		.4byte	.LASF58
 11317 02b2 06       		.sleb128 6
 11318 02b3 0D       		.uleb128 0xd
 11319 02b4 49170000 		.4byte	.LASF59
 11320 02b8 07       		.sleb128 7
 11321 02b9 0D       		.uleb128 0xd
 11322 02ba DE000000 		.4byte	.LASF60
 11323 02be 08       		.sleb128 8
 11324 02bf 0D       		.uleb128 0xd
 11325 02c0 4D150000 		.4byte	.LASF61
 11326 02c4 09       		.sleb128 9
 11327 02c5 0D       		.uleb128 0xd
 11328 02c6 61080000 		.4byte	.LASF62
 11329 02ca 0A       		.sleb128 10
 11330 02cb 0D       		.uleb128 0xd
 11331 02cc 100A0000 		.4byte	.LASF63
 11332 02d0 0B       		.sleb128 11
 11333 02d1 0D       		.uleb128 0xd
 11334 02d2 94030000 		.4byte	.LASF64
 11335 02d6 0C       		.sleb128 12
 11336 02d7 0D       		.uleb128 0xd
 11337 02d8 21200000 		.4byte	.LASF65
 11338 02dc 0D       		.sleb128 13
 11339 02dd 0D       		.uleb128 0xd
 11340 02de 3A240000 		.4byte	.LASF66
 11341 02e2 0E       		.sleb128 14
 11342 02e3 0D       		.uleb128 0xd
 11343 02e4 0A0D0000 		.4byte	.LASF67
 11344 02e8 0F       		.sleb128 15
 11345 02e9 0D       		.uleb128 0xd
 11346 02ea DF080000 		.4byte	.LASF68
ARM GAS  C:\Users\RECEPC~1\AppData\Local\Temp\cc7aDVfG.s 			page 250


 11347 02ee 10       		.sleb128 16
 11348 02ef 0D       		.uleb128 0xd
 11349 02f0 98270000 		.4byte	.LASF69
 11350 02f4 11       		.sleb128 17
 11351 02f5 0D       		.uleb128 0xd
 11352 02f6 BE230000 		.4byte	.LASF70
 11353 02fa 12       		.sleb128 18
 11354 02fb 0D       		.uleb128 0xd
 11355 02fc F0040000 		.4byte	.LASF71
 11356 0300 13       		.sleb128 19
 11357 0301 0D       		.uleb128 0xd
 11358 0302 081C0000 		.4byte	.LASF72
 11359 0306 14       		.sleb128 20
 11360 0307 0D       		.uleb128 0xd
 11361 0308 9E080000 		.4byte	.LASF73
 11362 030c 15       		.sleb128 21
 11363 030d 0D       		.uleb128 0xd
 11364 030e 7D160000 		.4byte	.LASF74
 11365 0312 16       		.sleb128 22
 11366 0313 0D       		.uleb128 0xd
 11367 0314 E30F0000 		.4byte	.LASF75
 11368 0318 17       		.sleb128 23
 11369 0319 0D       		.uleb128 0xd
 11370 031a D3050000 		.4byte	.LASF76
 11371 031e 18       		.sleb128 24
 11372 031f 0D       		.uleb128 0xd
 11373 0320 D3280000 		.4byte	.LASF77
 11374 0324 19       		.sleb128 25
 11375 0325 0D       		.uleb128 0xd
 11376 0326 F6210000 		.4byte	.LASF78
 11377 032a 1A       		.sleb128 26
 11378 032b 0D       		.uleb128 0xd
 11379 032c 350A0000 		.4byte	.LASF79
 11380 0330 1B       		.sleb128 27
 11381 0331 0D       		.uleb128 0xd
 11382 0332 27120000 		.4byte	.LASF80
 11383 0336 1C       		.sleb128 28
 11384 0337 0D       		.uleb128 0xd
 11385 0338 F22A0000 		.4byte	.LASF81
 11386 033c 1D       		.sleb128 29
 11387 033d 0D       		.uleb128 0xd
 11388 033e 6F270000 		.4byte	.LASF82
 11389 0342 1E       		.sleb128 30
 11390 0343 0D       		.uleb128 0xd
 11391 0344 FB230000 		.4byte	.LASF83
 11392 0348 1F       		.sleb128 31
 11393 0349 0D       		.uleb128 0xd
 11394 034a 72030000 		.4byte	.LASF84
 11395 034e 20       		.sleb128 32
 11396 034f 0D       		.uleb128 0xd
 11397 0350 0A0C0000 		.4byte	.LASF85
 11398 0354 21       		.sleb128 33
 11399 0355 0D       		.uleb128 0xd
 11400 0356 74070000 		.4byte	.LASF86
 11401 035a 22       		.sleb128 34
 11402 035b 0D       		.uleb128 0xd
 11403 035c 28230000 		.4byte	.LASF87
ARM GAS  C:\Users\RECEPC~1\AppData\Local\Temp\cc7aDVfG.s 			page 251


 11404 0360 23       		.sleb128 35
 11405 0361 0D       		.uleb128 0xd
 11406 0362 390E0000 		.4byte	.LASF88
 11407 0366 24       		.sleb128 36
 11408 0367 0D       		.uleb128 0xd
 11409 0368 EB090000 		.4byte	.LASF89
 11410 036c 25       		.sleb128 37
 11411 036d 0D       		.uleb128 0xd
 11412 036e 45270000 		.4byte	.LASF90
 11413 0372 26       		.sleb128 38
 11414 0373 0D       		.uleb128 0xd
 11415 0374 74020000 		.4byte	.LASF91
 11416 0378 27       		.sleb128 39
 11417 0379 0D       		.uleb128 0xd
 11418 037a 1E2A0000 		.4byte	.LASF92
 11419 037e 28       		.sleb128 40
 11420 037f 0D       		.uleb128 0xd
 11421 0380 C71B0000 		.4byte	.LASF93
 11422 0384 29       		.sleb128 41
 11423 0385 0D       		.uleb128 0xd
 11424 0386 D3040000 		.4byte	.LASF94
 11425 038a 2A       		.sleb128 42
 11426 038b 0D       		.uleb128 0xd
 11427 038c 4B160000 		.4byte	.LASF95
 11428 0390 2B       		.sleb128 43
 11429 0391 00       		.byte	0
 11430 0392 14       		.uleb128 0x14
 11431 0393 621A0000 		.4byte	.LASF97
 11432 0397 4C       		.byte	0x4c
 11433 0398 08       		.byte	0x8
 11434 0399 2C       		.byte	0x2c
 11435 039a 83040000 		.4byte	0x483
 11436 039e 0F       		.uleb128 0xf
 11437 039f 4E200000 		.4byte	.LASF98
 11438 03a3 08       		.byte	0x8
 11439 03a4 2E       		.byte	0x2e
 11440 03a5 97000000 		.4byte	0x97
 11441 03a9 00       		.byte	0
 11442 03aa 0F       		.uleb128 0xf
 11443 03ab D7100000 		.4byte	.LASF99
 11444 03af 08       		.byte	0x8
 11445 03b0 31       		.byte	0x31
 11446 03b1 6C020000 		.4byte	0x26c
 11447 03b5 04       		.byte	0x4
 11448 03b6 0F       		.uleb128 0xf
 11449 03b7 A11D0000 		.4byte	.LASF100
 11450 03bb 08       		.byte	0x8
 11451 03bc 34       		.byte	0x34
 11452 03bd 03010000 		.4byte	0x103
 11453 03c1 08       		.byte	0x8
 11454 03c2 0F       		.uleb128 0xf
 11455 03c3 AF030000 		.4byte	.LASF101
 11456 03c7 08       		.byte	0x8
 11457 03c8 35       		.byte	0x35
 11458 03c9 03010000 		.4byte	0x103
 11459 03cd 0C       		.byte	0xc
 11460 03ce 0F       		.uleb128 0xf
ARM GAS  C:\Users\RECEPC~1\AppData\Local\Temp\cc7aDVfG.s 			page 252


 11461 03cf C41F0000 		.4byte	.LASF102
 11462 03d3 08       		.byte	0x8
 11463 03d4 36       		.byte	0x36
 11464 03d5 88040000 		.4byte	0x488
 11465 03d9 10       		.byte	0x10
 11466 03da 0F       		.uleb128 0xf
 11467 03db B21B0000 		.4byte	.LASF103
 11468 03df 08       		.byte	0x8
 11469 03e0 37       		.byte	0x37
 11470 03e1 99040000 		.4byte	0x499
 11471 03e5 14       		.byte	0x14
 11472 03e6 0F       		.uleb128 0xf
 11473 03e7 5C240000 		.4byte	.LASF104
 11474 03eb 08       		.byte	0x8
 11475 03ec 39       		.byte	0x39
 11476 03ed 88040000 		.4byte	0x488
 11477 03f1 18       		.byte	0x18
 11478 03f2 0F       		.uleb128 0xf
 11479 03f3 BA0E0000 		.4byte	.LASF105
 11480 03f7 08       		.byte	0x8
 11481 03f8 3A       		.byte	0x3a
 11482 03f9 88040000 		.4byte	0x488
 11483 03fd 1C       		.byte	0x1c
 11484 03fe 0F       		.uleb128 0xf
 11485 03ff 520B0000 		.4byte	.LASF106
 11486 0403 08       		.byte	0x8
 11487 0404 3B       		.byte	0x3b
 11488 0405 88040000 		.4byte	0x488
 11489 0409 20       		.byte	0x20
 11490 040a 0F       		.uleb128 0xf
 11491 040b 07210000 		.4byte	.LASF107
 11492 040f 08       		.byte	0x8
 11493 0410 3C       		.byte	0x3c
 11494 0411 A4040000 		.4byte	0x4a4
 11495 0415 24       		.byte	0x24
 11496 0416 0F       		.uleb128 0xf
 11497 0417 2F1C0000 		.4byte	.LASF108
 11498 041b 08       		.byte	0x8
 11499 041c 3D       		.byte	0x3d
 11500 041d A4040000 		.4byte	0x4a4
 11501 0421 28       		.byte	0x28
 11502 0422 0F       		.uleb128 0xf
 11503 0423 440B0000 		.4byte	.LASF109
 11504 0427 08       		.byte	0x8
 11505 0428 3E       		.byte	0x3e
 11506 0429 03010000 		.4byte	0x103
 11507 042d 2C       		.byte	0x2c
 11508 042e 0F       		.uleb128 0xf
 11509 042f 880D0000 		.4byte	.LASF110
 11510 0433 08       		.byte	0x8
 11511 0434 40       		.byte	0x40
 11512 0435 99040000 		.4byte	0x499
 11513 0439 30       		.byte	0x30
 11514 043a 0F       		.uleb128 0xf
 11515 043b C0190000 		.4byte	.LASF111
 11516 043f 08       		.byte	0x8
 11517 0440 41       		.byte	0x41
ARM GAS  C:\Users\RECEPC~1\AppData\Local\Temp\cc7aDVfG.s 			page 253


 11518 0441 88040000 		.4byte	0x488
 11519 0445 34       		.byte	0x34
 11520 0446 0F       		.uleb128 0xf
 11521 0447 20230000 		.4byte	.LASF112
 11522 044b 08       		.byte	0x8
 11523 044c 42       		.byte	0x42
 11524 044d 99040000 		.4byte	0x499
 11525 0451 38       		.byte	0x38
 11526 0452 0F       		.uleb128 0xf
 11527 0453 98100000 		.4byte	.LASF113
 11528 0457 08       		.byte	0x8
 11529 0458 43       		.byte	0x43
 11530 0459 C0040000 		.4byte	0x4c0
 11531 045d 3C       		.byte	0x3c
 11532 045e 0F       		.uleb128 0xf
 11533 045f 3F1F0000 		.4byte	.LASF114
 11534 0463 08       		.byte	0x8
 11535 0464 44       		.byte	0x44
 11536 0465 E1040000 		.4byte	0x4e1
 11537 0469 40       		.byte	0x40
 11538 046a 0F       		.uleb128 0xf
 11539 046b 380F0000 		.4byte	.LASF115
 11540 046f 08       		.byte	0x8
 11541 0470 45       		.byte	0x45
 11542 0471 99040000 		.4byte	0x499
 11543 0475 44       		.byte	0x44
 11544 0476 0F       		.uleb128 0xf
 11545 0477 9B170000 		.4byte	.LASF116
 11546 047b 08       		.byte	0x8
 11547 047c 46       		.byte	0x46
 11548 047d 03010000 		.4byte	0x103
 11549 0481 48       		.byte	0x48
 11550 0482 00       		.byte	0
 11551 0483 15       		.uleb128 0x15
 11552 0484 97000000 		.4byte	0x97
 11553 0488 07       		.uleb128 0x7
 11554 0489 04       		.byte	0x4
 11555 048a 83040000 		.4byte	0x483
 11556 048e 12       		.uleb128 0x12
 11557 048f 99040000 		.4byte	0x499
 11558 0493 13       		.uleb128 0x13
 11559 0494 97000000 		.4byte	0x97
 11560 0498 00       		.byte	0
 11561 0499 07       		.uleb128 0x7
 11562 049a 04       		.byte	0x4
 11563 049b 8E040000 		.4byte	0x48e
 11564 049f 15       		.uleb128 0x15
 11565 04a0 A3000000 		.4byte	0xa3
 11566 04a4 07       		.uleb128 0x7
 11567 04a5 04       		.byte	0x4
 11568 04a6 9F040000 		.4byte	0x49f
 11569 04aa 12       		.uleb128 0x12
 11570 04ab B5040000 		.4byte	0x4b5
 11571 04af 13       		.uleb128 0x13
 11572 04b0 B5040000 		.4byte	0x4b5
 11573 04b4 00       		.byte	0
 11574 04b5 07       		.uleb128 0x7
ARM GAS  C:\Users\RECEPC~1\AppData\Local\Temp\cc7aDVfG.s 			page 254


 11575 04b6 04       		.byte	0x4
 11576 04b7 BB040000 		.4byte	0x4bb
 11577 04bb 16       		.uleb128 0x16
 11578 04bc E1000000 		.4byte	0xe1
 11579 04c0 07       		.uleb128 0x7
 11580 04c1 04       		.byte	0x4
 11581 04c2 AA040000 		.4byte	0x4aa
 11582 04c6 12       		.uleb128 0x12
 11583 04c7 D6040000 		.4byte	0x4d6
 11584 04cb 13       		.uleb128 0x13
 11585 04cc D6040000 		.4byte	0x4d6
 11586 04d0 13       		.uleb128 0x13
 11587 04d1 97000000 		.4byte	0x97
 11588 04d5 00       		.byte	0
 11589 04d6 07       		.uleb128 0x7
 11590 04d7 04       		.byte	0x4
 11591 04d8 DC040000 		.4byte	0x4dc
 11592 04dc 16       		.uleb128 0x16
 11593 04dd 97000000 		.4byte	0x97
 11594 04e1 07       		.uleb128 0x7
 11595 04e2 04       		.byte	0x4
 11596 04e3 C6040000 		.4byte	0x4c6
 11597 04e7 03       		.uleb128 0x3
 11598 04e8 B4030000 		.4byte	.LASF117
 11599 04ec 08       		.byte	0x8
 11600 04ed 48       		.byte	0x48
 11601 04ee 92030000 		.4byte	0x392
 11602 04f2 0C       		.uleb128 0xc
 11603 04f3 BF060000 		.4byte	.LASF118
 11604 04f7 01       		.byte	0x1
 11605 04f8 08       		.byte	0x8
 11606 04f9 51       		.byte	0x51
 11607 04fa 14050000 		.4byte	0x514
 11608 04fe 0D       		.uleb128 0xd
 11609 04ff DA0C0000 		.4byte	.LASF119
 11610 0503 C001     		.sleb128 192
 11611 0505 0D       		.uleb128 0xd
 11612 0506 10230000 		.4byte	.LASF120
 11613 050a C101     		.sleb128 193
 11614 050c 0D       		.uleb128 0xd
 11615 050d 020C0000 		.4byte	.LASF121
 11616 0511 C201     		.sleb128 194
 11617 0513 00       		.byte	0
 11618 0514 0E       		.uleb128 0xe
 11619 0515 A71D0000 		.4byte	.LASF122
 11620 0519 0C01     		.2byte	0x10c
 11621 051b 08       		.byte	0x8
 11622 051c 59       		.byte	0x59
 11623 051d 60050000 		.4byte	0x560
 11624 0521 0F       		.uleb128 0xf
 11625 0522 10270000 		.4byte	.LASF41
 11626 0526 08       		.byte	0x8
 11627 0527 5B       		.byte	0x5b
 11628 0528 F4000000 		.4byte	0xf4
 11629 052c 00       		.byte	0
 11630 052d 0F       		.uleb128 0xf
 11631 052e FB000000 		.4byte	.LASF123
ARM GAS  C:\Users\RECEPC~1\AppData\Local\Temp\cc7aDVfG.s 			page 255


 11632 0532 08       		.byte	0x8
 11633 0533 5C       		.byte	0x5c
 11634 0534 F9000000 		.4byte	0xf9
 11635 0538 02       		.byte	0x2
 11636 0539 0F       		.uleb128 0xf
 11637 053a 82040000 		.4byte	.LASF124
 11638 053e 08       		.byte	0x8
 11639 053f 5D       		.byte	0x5d
 11640 0540 60050000 		.4byte	0x560
 11641 0544 04       		.byte	0x4
 11642 0545 10       		.uleb128 0x10
 11643 0546 AA280000 		.4byte	.LASF125
 11644 054a 08       		.byte	0x8
 11645 054b 5E       		.byte	0x5e
 11646 054c 80050000 		.4byte	0x580
 11647 0550 0401     		.2byte	0x104
 11648 0552 10       		.uleb128 0x10
 11649 0553 BC2A0000 		.4byte	.LASF126
 11650 0557 08       		.byte	0x8
 11651 0558 60       		.byte	0x60
 11652 0559 86050000 		.4byte	0x586
 11653 055d 0801     		.2byte	0x108
 11654 055f 00       		.byte	0
 11655 0560 0A       		.uleb128 0xa
 11656 0561 E1000000 		.4byte	0xe1
 11657 0565 70050000 		.4byte	0x570
 11658 0569 0B       		.uleb128 0xb
 11659 056a 0A010000 		.4byte	0x10a
 11660 056e FF       		.byte	0xff
 11661 056f 00       		.byte	0
 11662 0570 12       		.uleb128 0x12
 11663 0571 80050000 		.4byte	0x580
 11664 0575 13       		.uleb128 0x13
 11665 0576 97000000 		.4byte	0x97
 11666 057a 13       		.uleb128 0x13
 11667 057b 3B010000 		.4byte	0x13b
 11668 057f 00       		.byte	0
 11669 0580 07       		.uleb128 0x7
 11670 0581 04       		.byte	0x4
 11671 0582 70050000 		.4byte	0x570
 11672 0586 07       		.uleb128 0x7
 11673 0587 04       		.byte	0x4
 11674 0588 E7040000 		.4byte	0x4e7
 11675 058c 03       		.uleb128 0x3
 11676 058d 0D1E0000 		.4byte	.LASF127
 11677 0591 08       		.byte	0x8
 11678 0592 61       		.byte	0x61
 11679 0593 97050000 		.4byte	0x597
 11680 0597 07       		.uleb128 0x7
 11681 0598 04       		.byte	0x4
 11682 0599 14050000 		.4byte	0x514
 11683 059d 0C       		.uleb128 0xc
 11684 059e 99240000 		.4byte	.LASF128
 11685 05a2 01       		.byte	0x1
 11686 05a3 08       		.byte	0x8
 11687 05a4 6D       		.byte	0x6d
 11688 05a5 D4050000 		.4byte	0x5d4
ARM GAS  C:\Users\RECEPC~1\AppData\Local\Temp\cc7aDVfG.s 			page 256


 11689 05a9 0D       		.uleb128 0xd
 11690 05aa 32020000 		.4byte	.LASF129
 11691 05ae A001     		.sleb128 160
 11692 05b0 0D       		.uleb128 0xd
 11693 05b1 740E0000 		.4byte	.LASF130
 11694 05b5 A101     		.sleb128 161
 11695 05b7 0D       		.uleb128 0xd
 11696 05b8 BA150000 		.4byte	.LASF131
 11697 05bc A201     		.sleb128 162
 11698 05be 0D       		.uleb128 0xd
 11699 05bf 57090000 		.4byte	.LASF132
 11700 05c3 A301     		.sleb128 163
 11701 05c5 0D       		.uleb128 0xd
 11702 05c6 65090000 		.4byte	.LASF133
 11703 05ca A401     		.sleb128 164
 11704 05cc 0D       		.uleb128 0xd
 11705 05cd FE1A0000 		.4byte	.LASF134
 11706 05d1 A501     		.sleb128 165
 11707 05d3 00       		.byte	0
 11708 05d4 0C       		.uleb128 0xc
 11709 05d5 4C080000 		.4byte	.LASF135
 11710 05d9 01       		.byte	0x1
 11711 05da 09       		.byte	0x9
 11712 05db 21       		.byte	0x21
 11713 05dc 47070000 		.4byte	0x747
 11714 05e0 0D       		.uleb128 0xd
 11715 05e1 4C110000 		.4byte	.LASF136
 11716 05e5 01       		.sleb128 1
 11717 05e6 0D       		.uleb128 0xd
 11718 05e7 5C110000 		.4byte	.LASF137
 11719 05eb 02       		.sleb128 2
 11720 05ec 0D       		.uleb128 0xd
 11721 05ed 6C110000 		.4byte	.LASF138
 11722 05f1 03       		.sleb128 3
 11723 05f2 0D       		.uleb128 0xd
 11724 05f3 F61E0000 		.4byte	.LASF139
 11725 05f7 04       		.sleb128 4
 11726 05f8 0D       		.uleb128 0xd
 11727 05f9 7D100000 		.4byte	.LASF140
 11728 05fd 05       		.sleb128 5
 11729 05fe 0D       		.uleb128 0xd
 11730 05ff 520C0000 		.4byte	.LASF141
 11731 0603 06       		.sleb128 6
 11732 0604 0D       		.uleb128 0xd
 11733 0605 32070000 		.4byte	.LASF142
 11734 0609 0F       		.sleb128 15
 11735 060a 0D       		.uleb128 0xd
 11736 060b 50180000 		.4byte	.LASF143
 11737 060f FE00     		.sleb128 126
 11738 0611 0D       		.uleb128 0xd
 11739 0612 6D180000 		.4byte	.LASF144
 11740 0616 8601     		.sleb128 134
 11741 0618 0D       		.uleb128 0xd
 11742 0619 44010000 		.4byte	.LASF145
 11743 061d 07       		.sleb128 7
 11744 061e 0D       		.uleb128 0xd
 11745 061f B4210000 		.4byte	.LASF146
ARM GAS  C:\Users\RECEPC~1\AppData\Local\Temp\cc7aDVfG.s 			page 257


 11746 0623 08       		.sleb128 8
 11747 0624 0D       		.uleb128 0xd
 11748 0625 B50F0000 		.4byte	.LASF147
 11749 0629 09       		.sleb128 9
 11750 062a 0D       		.uleb128 0xd
 11751 062b 431A0000 		.4byte	.LASF148
 11752 062f 0A       		.sleb128 10
 11753 0630 0D       		.uleb128 0xd
 11754 0631 FF160000 		.4byte	.LASF149
 11755 0635 0B       		.sleb128 11
 11756 0636 0D       		.uleb128 0xd
 11757 0637 92160000 		.4byte	.LASF150
 11758 063b 25       		.sleb128 37
 11759 063c 0D       		.uleb128 0xd
 11760 063d D9170000 		.4byte	.LASF151
 11761 0641 26       		.sleb128 38
 11762 0642 0D       		.uleb128 0xd
 11763 0643 9E180000 		.4byte	.LASF152
 11764 0647 27       		.sleb128 39
 11765 0648 0D       		.uleb128 0xd
 11766 0649 5E1E0000 		.4byte	.LASF153
 11767 064d 2F       		.sleb128 47
 11768 064e 0D       		.uleb128 0xd
 11769 064f 230B0000 		.4byte	.LASF154
 11770 0653 2C       		.sleb128 44
 11771 0654 0D       		.uleb128 0xd
 11772 0655 1D170000 		.4byte	.LASF155
 11773 0659 0C       		.sleb128 12
 11774 065a 0D       		.uleb128 0xd
 11775 065b 100B0000 		.4byte	.LASF156
 11776 065f 8501     		.sleb128 133
 11777 0661 0D       		.uleb128 0xd
 11778 0662 001A0000 		.4byte	.LASF157
 11779 0666 1C       		.sleb128 28
 11780 0667 0D       		.uleb128 0xd
 11781 0668 9D1E0000 		.4byte	.LASF158
 11782 066c 12       		.sleb128 18
 11783 066d 0D       		.uleb128 0xd
 11784 066e C9150000 		.4byte	.LASF159
 11785 0672 13       		.sleb128 19
 11786 0673 0D       		.uleb128 0xd
 11787 0674 5A250000 		.4byte	.LASF160
 11788 0678 24       		.sleb128 36
 11789 0679 0D       		.uleb128 0xd
 11790 067a 76220000 		.4byte	.LASF161
 11791 067e 0D       		.sleb128 13
 11792 067f 0D       		.uleb128 0xd
 11793 0680 A1090000 		.4byte	.LASF162
 11794 0684 0E       		.sleb128 14
 11795 0685 0D       		.uleb128 0xd
 11796 0686 D21D0000 		.4byte	.LASF163
 11797 068a 8301     		.sleb128 131
 11798 068c 0D       		.uleb128 0xd
 11799 068d 6A040000 		.4byte	.LASF164
 11800 0691 DA00     		.sleb128 90
 11801 0693 0D       		.uleb128 0xd
 11802 0694 F4020000 		.4byte	.LASF165
ARM GAS  C:\Users\RECEPC~1\AppData\Local\Temp\cc7aDVfG.s 			page 258


 11803 0698 31       		.sleb128 49
 11804 0699 0D       		.uleb128 0xd
 11805 069a 75140000 		.4byte	.LASF166
 11806 069e 35       		.sleb128 53
 11807 069f 0D       		.uleb128 0xd
 11808 06a0 E60B0000 		.4byte	.LASF167
 11809 06a4 2E       		.sleb128 46
 11810 06a5 0D       		.uleb128 0xd
 11811 06a6 B61D0000 		.4byte	.LASF168
 11812 06aa 8C01     		.sleb128 140
 11813 06ac 0D       		.uleb128 0xd
 11814 06ad 9B0C0000 		.4byte	.LASF169
 11815 06b1 9601     		.sleb128 150
 11816 06b3 0D       		.uleb128 0xd
 11817 06b4 4A0A0000 		.4byte	.LASF170
 11818 06b8 39       		.sleb128 57
 11819 06b9 0D       		.uleb128 0xd
 11820 06ba E1160000 		.4byte	.LASF171
 11821 06be 9701     		.sleb128 151
 11822 06c0 0D       		.uleb128 0xd
 11823 06c1 412B0000 		.4byte	.LASF172
 11824 06c5 9801     		.sleb128 152
 11825 06c7 0D       		.uleb128 0xd
 11826 06c8 AC1C0000 		.4byte	.LASF173
 11827 06cc 3E       		.sleb128 62
 11828 06cd 0D       		.uleb128 0xd
 11829 06ce E9210000 		.4byte	.LASF174
 11830 06d2 3F       		.sleb128 63
 11831 06d3 0D       		.uleb128 0xd
 11832 06d4 A20A0000 		.4byte	.LASF175
 11833 06d8 C000     		.sleb128 64
 11834 06da 0D       		.uleb128 0xd
 11835 06db AD260000 		.4byte	.LASF176
 11836 06df 8D01     		.sleb128 141
 11837 06e1 0D       		.uleb128 0xd
 11838 06e2 22040000 		.4byte	.LASF177
 11839 06e6 23       		.sleb128 35
 11840 06e7 0D       		.uleb128 0xd
 11841 06e8 C60B0000 		.4byte	.LASF178
 11842 06ec 2A       		.sleb128 42
 11843 06ed 0D       		.uleb128 0xd
 11844 06ee 9F220000 		.4byte	.LASF179
 11845 06f2 2B       		.sleb128 43
 11846 06f3 0D       		.uleb128 0xd
 11847 06f4 A20B0000 		.4byte	.LASF180
 11848 06f8 3C       		.sleb128 60
 11849 06f9 0D       		.uleb128 0xd
 11850 06fa D0110000 		.4byte	.LASF181
 11851 06fe C100     		.sleb128 65
 11852 0700 0D       		.uleb128 0xd
 11853 0701 030E0000 		.4byte	.LASF182
 11854 0705 EB00     		.sleb128 107
 11855 0707 0D       		.uleb128 0xd
 11856 0708 5C160000 		.4byte	.LASF183
 11857 070c E700     		.sleb128 103
 11858 070e 0D       		.uleb128 0xd
 11859 070f 55070000 		.4byte	.LASF184
ARM GAS  C:\Users\RECEPC~1\AppData\Local\Temp\cc7aDVfG.s 			page 259


 11860 0713 E400     		.sleb128 100
 11861 0715 0D       		.uleb128 0xd
 11862 0716 6D230000 		.4byte	.LASF185
 11863 071a E500     		.sleb128 101
 11864 071c 0D       		.uleb128 0xd
 11865 071d 17140000 		.4byte	.LASF186
 11866 0721 9901     		.sleb128 153
 11867 0723 0D       		.uleb128 0xd
 11868 0724 26140000 		.4byte	.LASF187
 11869 0728 9A01     		.sleb128 154
 11870 072a 0D       		.uleb128 0xd
 11871 072b 35140000 		.4byte	.LASF188
 11872 072f 9B01     		.sleb128 155
 11873 0731 0D       		.uleb128 0xd
 11874 0732 44140000 		.4byte	.LASF189
 11875 0736 9C01     		.sleb128 156
 11876 0738 0D       		.uleb128 0xd
 11877 0739 911C0000 		.4byte	.LASF190
 11878 073d FA01     		.sleb128 250
 11879 073f 0D       		.uleb128 0xd
 11880 0740 9A230000 		.4byte	.LASF191
 11881 0744 FF01     		.sleb128 255
 11882 0746 00       		.byte	0
 11883 0747 17       		.uleb128 0x17
 11884 0748 01       		.byte	0x1
 11885 0749 09       		.byte	0x9
 11886 074a 82       		.byte	0x82
 11887 074b 5C070000 		.4byte	0x75c
 11888 074f 0D       		.uleb128 0xd
 11889 0750 46000000 		.4byte	.LASF192
 11890 0754 00       		.sleb128 0
 11891 0755 0D       		.uleb128 0xd
 11892 0756 4F000000 		.4byte	.LASF193
 11893 075a 01       		.sleb128 1
 11894 075b 00       		.byte	0
 11895 075c 07       		.uleb128 0x7
 11896 075d 04       		.byte	0x4
 11897 075e 62070000 		.4byte	0x762
 11898 0762 18       		.uleb128 0x18
 11899 0763 49020000 		.4byte	0x249
 11900 0767 71070000 		.4byte	0x771
 11901 076b 13       		.uleb128 0x13
 11902 076c 11010000 		.4byte	0x111
 11903 0770 00       		.byte	0
 11904 0771 03       		.uleb128 0x3
 11905 0772 C70E0000 		.4byte	.LASF194
 11906 0776 0A       		.byte	0xa
 11907 0777 22       		.byte	0x22
 11908 0778 13010000 		.4byte	0x113
 11909 077c 03       		.uleb128 0x3
 11910 077d 5B270000 		.4byte	.LASF195
 11911 0781 0A       		.byte	0xa
 11912 0782 23       		.byte	0x23
 11913 0783 41010000 		.4byte	0x141
 11914 0787 0C       		.uleb128 0xc
 11915 0788 111D0000 		.4byte	.LASF196
 11916 078c 01       		.byte	0x1
ARM GAS  C:\Users\RECEPC~1\AppData\Local\Temp\cc7aDVfG.s 			page 260


 11917 078d 0A       		.byte	0xa
 11918 078e 65       		.byte	0x65
 11919 078f A0070000 		.4byte	0x7a0
 11920 0793 0D       		.uleb128 0xd
 11921 0794 0C150000 		.4byte	.LASF197
 11922 0798 00       		.sleb128 0
 11923 0799 0D       		.uleb128 0xd
 11924 079a B3200000 		.4byte	.LASF198
 11925 079e 01       		.sleb128 1
 11926 079f 00       		.byte	0
 11927 07a0 0C       		.uleb128 0xc
 11928 07a1 03040000 		.4byte	.LASF199
 11929 07a5 01       		.byte	0x1
 11930 07a6 0A       		.byte	0xa
 11931 07a7 7D       		.byte	0x7d
 11932 07a8 E8070000 		.4byte	0x7e8
 11933 07ac 0D       		.uleb128 0xd
 11934 07ad 461D0000 		.4byte	.LASF200
 11935 07b1 00       		.sleb128 0
 11936 07b2 0D       		.uleb128 0xd
 11937 07b3 1D010000 		.4byte	.LASF201
 11938 07b7 10       		.sleb128 16
 11939 07b8 0D       		.uleb128 0xd
 11940 07b9 B1270000 		.4byte	.LASF202
 11941 07bd 20       		.sleb128 32
 11942 07be 0D       		.uleb128 0xd
 11943 07bf 54230000 		.4byte	.LASF203
 11944 07c3 30       		.sleb128 48
 11945 07c4 0D       		.uleb128 0xd
 11946 07c5 38260000 		.4byte	.LASF204
 11947 07c9 C000     		.sleb128 64
 11948 07cb 0D       		.uleb128 0xd
 11949 07cc 920F0000 		.4byte	.LASF205
 11950 07d0 D000     		.sleb128 80
 11951 07d2 0D       		.uleb128 0xd
 11952 07d3 80060000 		.4byte	.LASF206
 11953 07d7 E000     		.sleb128 96
 11954 07d9 0D       		.uleb128 0xd
 11955 07da 4F030000 		.4byte	.LASF207
 11956 07de F000     		.sleb128 112
 11957 07e0 0D       		.uleb128 0xd
 11958 07e1 8A180000 		.4byte	.LASF208
 11959 07e5 FC01     		.sleb128 252
 11960 07e7 00       		.byte	0
 11961 07e8 0C       		.uleb128 0xc
 11962 07e9 96200000 		.4byte	.LASF209
 11963 07ed 01       		.byte	0x1
 11964 07ee 0A       		.byte	0xa
 11965 07ef 8C       		.byte	0x8c
 11966 07f0 42080000 		.4byte	0x842
 11967 07f4 19       		.uleb128 0x19
 11968 07f5 534F4D00 		.ascii	"SOM\000"
 11969 07f9 FF01     		.sleb128 255
 11970 07fb 19       		.uleb128 0x19
 11971 07fc 56505400 		.ascii	"VPT\000"
 11972 0800 F101     		.sleb128 241
 11973 0802 19       		.uleb128 0x19
ARM GAS  C:\Users\RECEPC~1\AppData\Local\Temp\cc7aDVfG.s 			page 261


 11974 0803 4D505400 		.ascii	"MPT\000"
 11975 0807 F201     		.sleb128 242
 11976 0809 19       		.uleb128 0x19
 11977 080a 48446E00 		.ascii	"HDn\000"
 11978 080e F601     		.sleb128 246
 11979 0810 0D       		.uleb128 0xd
 11980 0811 6D260000 		.4byte	.LASF210
 11981 0815 F701     		.sleb128 247
 11982 0817 0D       		.uleb128 0xd
 11983 0818 4A0E0000 		.4byte	.LASF211
 11984 081c F801     		.sleb128 248
 11985 081e 19       		.uleb128 0x19
 11986 081f 56446E00 		.ascii	"VDn\000"
 11987 0823 F901     		.sleb128 249
 11988 0825 19       		.uleb128 0x19
 11989 0826 4D446E00 		.ascii	"MDn\000"
 11990 082a FA01     		.sleb128 250
 11991 082c 0D       		.uleb128 0xd
 11992 082d 310C0000 		.4byte	.LASF212
 11993 0831 FB01     		.sleb128 251
 11994 0833 19       		.uleb128 0x19
 11995 0834 53466E00 		.ascii	"SFn\000"
 11996 0838 FE01     		.sleb128 254
 11997 083a 19       		.uleb128 0x19
 11998 083b 454F4D00 		.ascii	"EOM\000"
 11999 083f F001     		.sleb128 240
 12000 0841 00       		.byte	0
 12001 0842 0C       		.uleb128 0xc
 12002 0843 0D290000 		.4byte	.LASF213
 12003 0847 01       		.byte	0x1
 12004 0848 0A       		.byte	0xa
 12005 0849 9B       		.byte	0x9b
 12006 084a 8C080000 		.4byte	0x88c
 12007 084e 0D       		.uleb128 0xd
 12008 084f 971D0000 		.4byte	.LASF214
 12009 0853 00       		.sleb128 0
 12010 0854 0D       		.uleb128 0xd
 12011 0855 EB250000 		.4byte	.LASF215
 12012 0859 06       		.sleb128 6
 12013 085a 0D       		.uleb128 0xd
 12014 085b E01B0000 		.4byte	.LASF216
 12015 085f 07       		.sleb128 7
 12016 0860 0D       		.uleb128 0xd
 12017 0861 82020000 		.4byte	.LASF217
 12018 0865 08       		.sleb128 8
 12019 0866 0D       		.uleb128 0xd
 12020 0867 AB0F0000 		.4byte	.LASF218
 12021 086b 09       		.sleb128 9
 12022 086c 0D       		.uleb128 0xd
 12023 086d A51F0000 		.4byte	.LASF219
 12024 0871 0A       		.sleb128 10
 12025 0872 0D       		.uleb128 0xd
 12026 0873 E61D0000 		.4byte	.LASF220
 12027 0877 0B       		.sleb128 11
 12028 0878 0D       		.uleb128 0xd
 12029 0879 DE290000 		.4byte	.LASF221
 12030 087d 0C       		.sleb128 12
ARM GAS  C:\Users\RECEPC~1\AppData\Local\Temp\cc7aDVfG.s 			page 262


 12031 087e 0D       		.uleb128 0xd
 12032 087f C8210000 		.4byte	.LASF222
 12033 0883 0D       		.sleb128 13
 12034 0884 0D       		.uleb128 0xd
 12035 0885 42030000 		.4byte	.LASF223
 12036 0889 FF01     		.sleb128 255
 12037 088b 00       		.byte	0
 12038 088c 0C       		.uleb128 0xc
 12039 088d 14100000 		.4byte	.LASF224
 12040 0891 01       		.byte	0x1
 12041 0892 0A       		.byte	0xa
 12042 0893 F0       		.byte	0xf0
 12043 0894 00090000 		.4byte	0x900
 12044 0898 0D       		.uleb128 0xd
 12045 0899 FB220000 		.4byte	.LASF225
 12046 089d 0F       		.sleb128 15
 12047 089e 0D       		.uleb128 0xd
 12048 089f 591D0000 		.4byte	.LASF226
 12049 08a3 10       		.sleb128 16
 12050 08a4 0D       		.uleb128 0xd
 12051 08a5 34270000 		.4byte	.LASF227
 12052 08a9 C300     		.sleb128 67
 12053 08ab 0D       		.uleb128 0xd
 12054 08ac E1050000 		.4byte	.LASF228
 12055 08b0 C400     		.sleb128 68
 12056 08b2 0D       		.uleb128 0xd
 12057 08b3 2D1F0000 		.4byte	.LASF229
 12058 08b7 C500     		.sleb128 69
 12059 08b9 0D       		.uleb128 0xd
 12060 08ba 45220000 		.4byte	.LASF230
 12061 08be C600     		.sleb128 70
 12062 08c0 0D       		.uleb128 0xd
 12063 08c1 FE070000 		.4byte	.LASF231
 12064 08c5 C700     		.sleb128 71
 12065 08c7 0D       		.uleb128 0xd
 12066 08c8 D0130000 		.4byte	.LASF232
 12067 08cc C800     		.sleb128 72
 12068 08ce 0D       		.uleb128 0xd
 12069 08cf 64270000 		.4byte	.LASF233
 12070 08d3 C900     		.sleb128 73
 12071 08d5 0D       		.uleb128 0xd
 12072 08d6 31060000 		.4byte	.LASF234
 12073 08da CA00     		.sleb128 74
 12074 08dc 0D       		.uleb128 0xd
 12075 08dd 73090000 		.4byte	.LASF235
 12076 08e1 CB00     		.sleb128 75
 12077 08e3 0D       		.uleb128 0xd
 12078 08e4 EA1E0000 		.4byte	.LASF236
 12079 08e8 CC00     		.sleb128 76
 12080 08ea 0D       		.uleb128 0xd
 12081 08eb 94260000 		.4byte	.LASF237
 12082 08ef CD00     		.sleb128 77
 12083 08f1 0D       		.uleb128 0xd
 12084 08f2 A2100000 		.4byte	.LASF238
 12085 08f6 CE00     		.sleb128 78
 12086 08f8 0D       		.uleb128 0xd
 12087 08f9 03140000 		.4byte	.LASF239
ARM GAS  C:\Users\RECEPC~1\AppData\Local\Temp\cc7aDVfG.s 			page 263


 12088 08fd CF00     		.sleb128 79
 12089 08ff 00       		.byte	0
 12090 0900 1A       		.uleb128 0x1a
 12091 0901 F70E0000 		.4byte	.LASF240
 12092 0905 01       		.byte	0x1
 12093 0906 0A       		.byte	0xa
 12094 0907 0301     		.2byte	0x103
 12095 0909 20090000 		.4byte	0x920
 12096 090d 0D       		.uleb128 0xd
 12097 090e 22280000 		.4byte	.LASF241
 12098 0912 01       		.sleb128 1
 12099 0913 0D       		.uleb128 0xd
 12100 0914 040A0000 		.4byte	.LASF242
 12101 0918 02       		.sleb128 2
 12102 0919 0D       		.uleb128 0xd
 12103 091a 53140000 		.4byte	.LASF243
 12104 091e 03       		.sleb128 3
 12105 091f 00       		.byte	0
 12106 0920 1A       		.uleb128 0x1a
 12107 0921 EF030000 		.4byte	.LASF244
 12108 0925 01       		.byte	0x1
 12109 0926 0A       		.byte	0xa
 12110 0927 1001     		.2byte	0x110
 12111 0929 3A090000 		.4byte	0x93a
 12112 092d 0D       		.uleb128 0xd
 12113 092e 17190000 		.4byte	.LASF245
 12114 0932 01       		.sleb128 1
 12115 0933 0D       		.uleb128 0xd
 12116 0934 98210000 		.4byte	.LASF246
 12117 0938 02       		.sleb128 2
 12118 0939 00       		.byte	0
 12119 093a 1B       		.uleb128 0x1b
 12120 093b 0401     		.2byte	0x104
 12121 093d 0A       		.byte	0xa
 12122 093e 1D01     		.2byte	0x11d
 12123 0940 7A090000 		.4byte	0x97a
 12124 0944 1C       		.uleb128 0x1c
 12125 0945 ED020000 		.4byte	.LASF247
 12126 0949 0A       		.byte	0xa
 12127 094a 1F01     		.2byte	0x11f
 12128 094c 97000000 		.4byte	0x97
 12129 0950 00       		.byte	0
 12130 0951 1C       		.uleb128 0x1c
 12131 0952 8C1D0000 		.4byte	.LASF248
 12132 0956 0A       		.byte	0xa
 12133 0957 2001     		.2byte	0x120
 12134 0959 97000000 		.4byte	0x97
 12135 095d 01       		.byte	0x1
 12136 095e 1C       		.uleb128 0x1c
 12137 095f 8A070000 		.4byte	.LASF46
 12138 0963 0A       		.byte	0xa
 12139 0964 2101     		.2byte	0x121
 12140 0966 7A090000 		.4byte	0x97a
 12141 096a 02       		.byte	0x2
 12142 096b 1D       		.uleb128 0x1d
 12143 096c 0C2B0000 		.4byte	.LASF47
 12144 0970 0A       		.byte	0xa
ARM GAS  C:\Users\RECEPC~1\AppData\Local\Temp\cc7aDVfG.s 			page 264


 12145 0971 2201     		.2byte	0x122
 12146 0973 A3000000 		.4byte	0xa3
 12147 0977 0201     		.2byte	0x102
 12148 0979 00       		.byte	0
 12149 097a 0A       		.uleb128 0xa
 12150 097b ED000000 		.4byte	0xed
 12151 097f 8A090000 		.4byte	0x98a
 12152 0983 0B       		.uleb128 0xb
 12153 0984 0A010000 		.4byte	0x10a
 12154 0988 FF       		.byte	0xff
 12155 0989 00       		.byte	0
 12156 098a 05       		.uleb128 0x5
 12157 098b A6290000 		.4byte	.LASF249
 12158 098f 0A       		.byte	0xa
 12159 0990 2401     		.2byte	0x124
 12160 0992 3A090000 		.4byte	0x93a
 12161 0996 05       		.uleb128 0x5
 12162 0997 B0110000 		.4byte	.LASF250
 12163 099b 0A       		.byte	0xa
 12164 099c 2401     		.2byte	0x124
 12165 099e A2090000 		.4byte	0x9a2
 12166 09a2 07       		.uleb128 0x7
 12167 09a3 04       		.byte	0x4
 12168 09a4 3A090000 		.4byte	0x93a
 12169 09a8 1E       		.uleb128 0x1e
 12170 09a9 40       		.byte	0x40
 12171 09aa 0A       		.byte	0xa
 12172 09ab 2601     		.2byte	0x126
 12173 09ad 4E0A0000 		.4byte	0xa4e
 12174 09b1 1C       		.uleb128 0x1c
 12175 09b2 D7210000 		.4byte	.LASF251
 12176 09b6 0A       		.byte	0xa
 12177 09b7 2801     		.2byte	0x128
 12178 09b9 F4000000 		.4byte	0xf4
 12179 09bd 00       		.byte	0
 12180 09be 1C       		.uleb128 0x1c
 12181 09bf DD210000 		.4byte	.LASF252
 12182 09c3 0A       		.byte	0xa
 12183 09c4 2901     		.2byte	0x129
 12184 09c6 F4000000 		.4byte	0xf4
 12185 09ca 01       		.byte	0x1
 12186 09cb 1C       		.uleb128 0x1c
 12187 09cc E3210000 		.4byte	.LASF253
 12188 09d0 0A       		.byte	0xa
 12189 09d1 2B01     		.2byte	0x12b
 12190 09d3 F9000000 		.4byte	0xf9
 12191 09d7 02       		.byte	0x2
 12192 09d8 1C       		.uleb128 0x1c
 12193 09d9 F41F0000 		.4byte	.LASF254
 12194 09dd 0A       		.byte	0xa
 12195 09de 2C01     		.2byte	0x12c
 12196 09e0 F9000000 		.4byte	0xf9
 12197 09e4 04       		.byte	0x4
 12198 09e5 1C       		.uleb128 0x1c
 12199 09e6 FA1F0000 		.4byte	.LASF255
 12200 09ea 0A       		.byte	0xa
 12201 09eb 2E01     		.2byte	0x12e
ARM GAS  C:\Users\RECEPC~1\AppData\Local\Temp\cc7aDVfG.s 			page 265


 12202 09ed FE000000 		.4byte	0xfe
 12203 09f1 08       		.byte	0x8
 12204 09f2 1C       		.uleb128 0x1c
 12205 09f3 0B220000 		.4byte	.LASF256
 12206 09f7 0A       		.byte	0xa
 12207 09f8 2F01     		.2byte	0x12f
 12208 09fa FE000000 		.4byte	0xfe
 12209 09fe 0C       		.byte	0xc
 12210 09ff 1C       		.uleb128 0x1c
 12211 0a00 11220000 		.4byte	.LASF257
 12212 0a04 0A       		.byte	0xa
 12213 0a05 3401     		.2byte	0x134
 12214 0a07 4E0A0000 		.4byte	0xa4e
 12215 0a0b 10       		.byte	0x10
 12216 0a0c 1C       		.uleb128 0x1c
 12217 0a0d 17220000 		.4byte	.LASF258
 12218 0a11 0A       		.byte	0xa
 12219 0a12 3501     		.2byte	0x135
 12220 0a14 4E0A0000 		.4byte	0xa4e
 12221 0a18 18       		.byte	0x18
 12222 0a19 1C       		.uleb128 0x1c
 12223 0a1a 1D220000 		.4byte	.LASF259
 12224 0a1e 0A       		.byte	0xa
 12225 0a1f 3601     		.2byte	0x136
 12226 0a21 4E0A0000 		.4byte	0xa4e
 12227 0a25 20       		.byte	0x20
 12228 0a26 1C       		.uleb128 0x1c
 12229 0a27 23220000 		.4byte	.LASF260
 12230 0a2b 0A       		.byte	0xa
 12231 0a2c 3701     		.2byte	0x137
 12232 0a2e 4E0A0000 		.4byte	0xa4e
 12233 0a32 28       		.byte	0x28
 12234 0a33 1C       		.uleb128 0x1c
 12235 0a34 5A220000 		.4byte	.LASF261
 12236 0a38 0A       		.byte	0xa
 12237 0a39 3901     		.2byte	0x139
 12238 0a3b 530A0000 		.4byte	0xa53
 12239 0a3f 30       		.byte	0x30
 12240 0a40 1C       		.uleb128 0x1c
 12241 0a41 60220000 		.4byte	.LASF262
 12242 0a45 0A       		.byte	0xa
 12243 0a46 3A01     		.2byte	0x13a
 12244 0a48 530A0000 		.4byte	0xa53
 12245 0a4c 38       		.byte	0x38
 12246 0a4d 00       		.byte	0
 12247 0a4e 06       		.uleb128 0x6
 12248 0a4f D5000000 		.4byte	0xd5
 12249 0a53 06       		.uleb128 0x6
 12250 0a54 CE000000 		.4byte	0xce
 12251 0a58 05       		.uleb128 0x5
 12252 0a59 7C190000 		.4byte	.LASF263
 12253 0a5d 0A       		.byte	0xa
 12254 0a5e 3C01     		.2byte	0x13c
 12255 0a60 A8090000 		.4byte	0x9a8
 12256 0a64 1E       		.uleb128 0x1e
 12257 0a65 18       		.byte	0x18
 12258 0a66 0A       		.byte	0xa
ARM GAS  C:\Users\RECEPC~1\AppData\Local\Temp\cc7aDVfG.s 			page 266


 12259 0a67 4401     		.2byte	0x144
 12260 0a69 C90A0000 		.4byte	0xac9
 12261 0a6d 1C       		.uleb128 0x1c
 12262 0a6e 251D0000 		.4byte	.LASF264
 12263 0a72 0A       		.byte	0xa
 12264 0a73 4701     		.2byte	0x147
 12265 0a75 44020000 		.4byte	0x244
 12266 0a79 00       		.byte	0
 12267 0a7a 1C       		.uleb128 0x1c
 12268 0a7b 8E050000 		.4byte	.LASF265
 12269 0a7f 0A       		.byte	0xa
 12270 0a80 4801     		.2byte	0x148
 12271 0a82 F4000000 		.4byte	0xf4
 12272 0a86 01       		.byte	0x1
 12273 0a87 1C       		.uleb128 0x1c
 12274 0a88 D5260000 		.4byte	.LASF266
 12275 0a8c 0A       		.byte	0xa
 12276 0a8d 4901     		.2byte	0x149
 12277 0a8f F4000000 		.4byte	0xf4
 12278 0a93 02       		.byte	0x2
 12279 0a94 1C       		.uleb128 0x1c
 12280 0a95 AC190000 		.4byte	.LASF267
 12281 0a99 0A       		.byte	0xa
 12282 0a9a 4A01     		.2byte	0x14a
 12283 0a9c F9000000 		.4byte	0xf9
 12284 0aa0 04       		.byte	0x4
 12285 0aa1 1C       		.uleb128 0x1c
 12286 0aa2 40200000 		.4byte	.LASF268
 12287 0aa6 0A       		.byte	0xa
 12288 0aa7 4B01     		.2byte	0x14b
 12289 0aa9 FE000000 		.4byte	0xfe
 12290 0aad 08       		.byte	0x8
 12291 0aae 1C       		.uleb128 0x1c
 12292 0aaf 6A0D0000 		.4byte	.LASF269
 12293 0ab3 0A       		.byte	0xa
 12294 0ab4 4C01     		.2byte	0x14c
 12295 0ab6 FE000000 		.4byte	0xfe
 12296 0aba 0C       		.byte	0xc
 12297 0abb 1C       		.uleb128 0x1c
 12298 0abc 930C0000 		.4byte	.LASF270
 12299 0ac0 0A       		.byte	0xa
 12300 0ac1 4D01     		.2byte	0x14d
 12301 0ac3 C90A0000 		.4byte	0xac9
 12302 0ac7 10       		.byte	0x10
 12303 0ac8 00       		.byte	0
 12304 0ac9 0A       		.uleb128 0xa
 12305 0aca E1000000 		.4byte	0xe1
 12306 0ace D90A0000 		.4byte	0xad9
 12307 0ad2 0B       		.uleb128 0xb
 12308 0ad3 0A010000 		.4byte	0x10a
 12309 0ad7 07       		.byte	0x7
 12310 0ad8 00       		.byte	0
 12311 0ad9 05       		.uleb128 0x5
 12312 0ada 82120000 		.4byte	.LASF271
 12313 0ade 0A       		.byte	0xa
 12314 0adf 4F01     		.2byte	0x14f
 12315 0ae1 640A0000 		.4byte	0xa64
ARM GAS  C:\Users\RECEPC~1\AppData\Local\Temp\cc7aDVfG.s 			page 267


 12316 0ae5 1F       		.uleb128 0x1f
 12317 0ae6 1C160000 		.4byte	.LASF272
 12318 0aea C80B     		.2byte	0xbc8
 12319 0aec 0A       		.byte	0xa
 12320 0aed 5201     		.2byte	0x152
 12321 0aef CA0C0000 		.4byte	0xcca
 12322 0af3 1C       		.uleb128 0x1c
 12323 0af4 22110000 		.4byte	.LASF273
 12324 0af8 0A       		.byte	0xa
 12325 0af9 5401     		.2byte	0x154
 12326 0afb 97000000 		.4byte	0x97
 12327 0aff 00       		.byte	0
 12328 0b00 1C       		.uleb128 0x1c
 12329 0b01 B6220000 		.4byte	.LASF274
 12330 0b05 0A       		.byte	0xa
 12331 0b06 5501     		.2byte	0x155
 12332 0b08 97000000 		.4byte	0x97
 12333 0b0c 01       		.byte	0x1
 12334 0b0d 1C       		.uleb128 0x1c
 12335 0b0e 41080000 		.4byte	.LASF275
 12336 0b12 0A       		.byte	0xa
 12337 0b13 5701     		.2byte	0x157
 12338 0b15 F4000000 		.4byte	0xf4
 12339 0b19 02       		.byte	0x2
 12340 0b1a 1C       		.uleb128 0x1c
 12341 0b1b 78200000 		.4byte	.LASF276
 12342 0b1f 0A       		.byte	0xa
 12343 0b20 5801     		.2byte	0x158
 12344 0b22 F4000000 		.4byte	0xf4
 12345 0b26 03       		.byte	0x3
 12346 0b27 1C       		.uleb128 0x1c
 12347 0b28 2D1E0000 		.4byte	.LASF277
 12348 0b2c 0A       		.byte	0xa
 12349 0b2d 5901     		.2byte	0x159
 12350 0b2f F4000000 		.4byte	0xf4
 12351 0b33 04       		.byte	0x4
 12352 0b34 1C       		.uleb128 0x1c
 12353 0b35 A4210000 		.4byte	.LASF278
 12354 0b39 0A       		.byte	0xa
 12355 0b3a 5A01     		.2byte	0x15a
 12356 0b3c 44020000 		.4byte	0x244
 12357 0b40 05       		.byte	0x5
 12358 0b41 1C       		.uleb128 0x1c
 12359 0b42 251D0000 		.4byte	.LASF264
 12360 0b46 0A       		.byte	0xa
 12361 0b47 5D01     		.2byte	0x15d
 12362 0b49 44020000 		.4byte	0x244
 12363 0b4d 06       		.byte	0x6
 12364 0b4e 1C       		.uleb128 0x1c
 12365 0b4f 29150000 		.4byte	.LASF279
 12366 0b53 0A       		.byte	0xa
 12367 0b54 5E01     		.2byte	0x15e
 12368 0b56 44020000 		.4byte	0x244
 12369 0b5a 07       		.byte	0x7
 12370 0b5b 1C       		.uleb128 0x1c
 12371 0b5c D0200000 		.4byte	.LASF280
 12372 0b60 0A       		.byte	0xa
ARM GAS  C:\Users\RECEPC~1\AppData\Local\Temp\cc7aDVfG.s 			page 268


 12373 0b61 5F01     		.2byte	0x15f
 12374 0b63 44020000 		.4byte	0x244
 12375 0b67 08       		.byte	0x8
 12376 0b68 1C       		.uleb128 0x1c
 12377 0b69 E4220000 		.4byte	.LASF281
 12378 0b6d 0A       		.byte	0xa
 12379 0b6e 6001     		.2byte	0x160
 12380 0b70 44020000 		.4byte	0x244
 12381 0b74 09       		.byte	0x9
 12382 0b75 1C       		.uleb128 0x1c
 12383 0b76 30080000 		.4byte	.LASF282
 12384 0b7a 0A       		.byte	0xa
 12385 0b7b 6101     		.2byte	0x161
 12386 0b7d F4000000 		.4byte	0xf4
 12387 0b81 0A       		.byte	0xa
 12388 0b82 1C       		.uleb128 0x1c
 12389 0b83 E00E0000 		.4byte	.LASF283
 12390 0b87 0A       		.byte	0xa
 12391 0b88 6201     		.2byte	0x162
 12392 0b8a 44020000 		.4byte	0x244
 12393 0b8e 0B       		.byte	0xb
 12394 0b8f 1C       		.uleb128 0x1c
 12395 0b90 22000000 		.4byte	.LASF284
 12396 0b94 0A       		.byte	0xa
 12397 0b95 6301     		.2byte	0x163
 12398 0b97 F4000000 		.4byte	0xf4
 12399 0b9b 0C       		.byte	0xc
 12400 0b9c 1C       		.uleb128 0x1c
 12401 0b9d 1B280000 		.4byte	.LASF285
 12402 0ba1 0A       		.byte	0xa
 12403 0ba2 6501     		.2byte	0x165
 12404 0ba4 44020000 		.4byte	0x244
 12405 0ba8 0D       		.byte	0xd
 12406 0ba9 1C       		.uleb128 0x1c
 12407 0baa B8180000 		.4byte	.LASF286
 12408 0bae 0A       		.byte	0xa
 12409 0baf 6701     		.2byte	0x167
 12410 0bb1 FE000000 		.4byte	0xfe
 12411 0bb5 10       		.byte	0x10
 12412 0bb6 1C       		.uleb128 0x1c
 12413 0bb7 10130000 		.4byte	.LASF287
 12414 0bbb 0A       		.byte	0xa
 12415 0bbc 6801     		.2byte	0x168
 12416 0bbe FE000000 		.4byte	0xfe
 12417 0bc2 14       		.byte	0x14
 12418 0bc3 1C       		.uleb128 0x1c
 12419 0bc4 3F1C0000 		.4byte	.LASF288
 12420 0bc8 0A       		.byte	0xa
 12421 0bc9 6B01     		.2byte	0x16b
 12422 0bcb F4000000 		.4byte	0xf4
 12423 0bcf 18       		.byte	0x18
 12424 0bd0 1C       		.uleb128 0x1c
 12425 0bd1 8C1D0000 		.4byte	.LASF248
 12426 0bd5 0A       		.byte	0xa
 12427 0bd6 6C01     		.2byte	0x16c
 12428 0bd8 F4000000 		.4byte	0xf4
 12429 0bdc 19       		.byte	0x19
ARM GAS  C:\Users\RECEPC~1\AppData\Local\Temp\cc7aDVfG.s 			page 269


 12430 0bdd 1C       		.uleb128 0x1c
 12431 0bde 481F0000 		.4byte	.LASF289
 12432 0be2 0A       		.byte	0xa
 12433 0be3 6E01     		.2byte	0x16e
 12434 0be5 11010000 		.4byte	0x111
 12435 0be9 1C       		.byte	0x1c
 12436 0bea 1C       		.uleb128 0x1c
 12437 0beb 41120000 		.4byte	.LASF290
 12438 0bef 0A       		.byte	0xa
 12439 0bf0 6F01     		.2byte	0x16f
 12440 0bf2 50020000 		.4byte	0x250
 12441 0bf6 20       		.byte	0x20
 12442 0bf7 1D       		.uleb128 0x1d
 12443 0bf8 91110000 		.4byte	.LASF291
 12444 0bfc 0A       		.byte	0xa
 12445 0bfd 7101     		.2byte	0x171
 12446 0bff 50020000 		.4byte	0x250
 12447 0c03 A001     		.2byte	0x1a0
 12448 0c05 1D       		.uleb128 0x1d
 12449 0c06 66020000 		.4byte	.LASF292
 12450 0c0a 0A       		.byte	0xa
 12451 0c0b 7201     		.2byte	0x172
 12452 0c0d A3000000 		.4byte	0xa3
 12453 0c11 2003     		.2byte	0x320
 12454 0c13 1D       		.uleb128 0x1d
 12455 0c14 1D050000 		.4byte	.LASF293
 12456 0c18 0A       		.byte	0xa
 12457 0c19 7601     		.2byte	0x176
 12458 0c1b CA0C0000 		.4byte	0xcca
 12459 0c1f 2203     		.2byte	0x322
 12460 0c21 1D       		.uleb128 0x1d
 12461 0c22 5F0F0000 		.4byte	.LASF294
 12462 0c26 0A       		.byte	0xa
 12463 0c27 7801     		.2byte	0x178
 12464 0c29 44020000 		.4byte	0x244
 12465 0c2d 420B     		.2byte	0xb42
 12466 0c2f 1D       		.uleb128 0x1d
 12467 0c30 87230000 		.4byte	.LASF295
 12468 0c34 0A       		.byte	0xa
 12469 0c35 7A01     		.2byte	0x17a
 12470 0c37 6C020000 		.4byte	0x26c
 12471 0c3b 440B     		.2byte	0xb44
 12472 0c3d 1D       		.uleb128 0x1d
 12473 0c3e A72A0000 		.4byte	.LASF296
 12474 0c42 0A       		.byte	0xa
 12475 0c43 7B01     		.2byte	0x17b
 12476 0c45 6C020000 		.4byte	0x26c
 12477 0c49 480B     		.2byte	0xb48
 12478 0c4b 1D       		.uleb128 0x1d
 12479 0c4c 97280000 		.4byte	.LASF297
 12480 0c50 0A       		.byte	0xa
 12481 0c51 7C01     		.2byte	0x17c
 12482 0c53 EE0C0000 		.4byte	0xcee
 12483 0c57 4C0B     		.2byte	0xb4c
 12484 0c59 1D       		.uleb128 0x1d
 12485 0c5a 0E240000 		.4byte	.LASF298
 12486 0c5e 0A       		.byte	0xa
ARM GAS  C:\Users\RECEPC~1\AppData\Local\Temp\cc7aDVfG.s 			page 270


 12487 0c5f 7D01     		.2byte	0x17d
 12488 0c61 040D0000 		.4byte	0xd04
 12489 0c65 500B     		.2byte	0xb50
 12490 0c67 1D       		.uleb128 0x1d
 12491 0c68 67060000 		.4byte	.LASF299
 12492 0c6c 0A       		.byte	0xa
 12493 0c6d 7E01     		.2byte	0x17e
 12494 0c6f 040D0000 		.4byte	0xd04
 12495 0c73 540B     		.2byte	0xb54
 12496 0c75 1D       		.uleb128 0x1d
 12497 0c76 A7230000 		.4byte	.LASF300
 12498 0c7a 0A       		.byte	0xa
 12499 0c7b 7F01     		.2byte	0x17f
 12500 0c7d 190D0000 		.4byte	0xd19
 12501 0c81 580B     		.2byte	0xb58
 12502 0c83 1D       		.uleb128 0x1d
 12503 0c84 A80D0000 		.4byte	.LASF301
 12504 0c88 0A       		.byte	0xa
 12505 0c89 8001     		.2byte	0x180
 12506 0c8b 190D0000 		.4byte	0xd19
 12507 0c8f 5C0B     		.2byte	0xb5c
 12508 0c91 1D       		.uleb128 0x1d
 12509 0c92 72260000 		.4byte	.LASF302
 12510 0c96 0A       		.byte	0xa
 12511 0c97 8201     		.2byte	0x182
 12512 0c99 5C070000 		.4byte	0x75c
 12513 0c9d 600B     		.2byte	0xb60
 12514 0c9f 1D       		.uleb128 0x1d
 12515 0ca0 BD290000 		.4byte	.LASF303
 12516 0ca4 0A       		.byte	0xa
 12517 0ca5 8401     		.2byte	0x184
 12518 0ca7 580A0000 		.4byte	0xa58
 12519 0cab 680B     		.2byte	0xb68
 12520 0cad 1D       		.uleb128 0x1d
 12521 0cae 81260000 		.4byte	.LASF304
 12522 0cb2 0A       		.byte	0xa
 12523 0cb3 8501     		.2byte	0x185
 12524 0cb5 D90A0000 		.4byte	0xad9
 12525 0cb9 A80B     		.2byte	0xba8
 12526 0cbb 1D       		.uleb128 0x1d
 12527 0cbc 951E0000 		.4byte	.LASF305
 12528 0cc0 0A       		.byte	0xa
 12529 0cc1 8701     		.2byte	0x187
 12530 0cc3 6C020000 		.4byte	0x26c
 12531 0cc7 C00B     		.2byte	0xbc0
 12532 0cc9 00       		.byte	0
 12533 0cca 0A       		.uleb128 0xa
 12534 0ccb 8A090000 		.4byte	0x98a
 12535 0ccf DA0C0000 		.4byte	0xcda
 12536 0cd3 0B       		.uleb128 0xb
 12537 0cd4 0A010000 		.4byte	0x10a
 12538 0cd8 07       		.byte	0x7
 12539 0cd9 00       		.byte	0
 12540 0cda 18       		.uleb128 0x18
 12541 0cdb 49020000 		.4byte	0x249
 12542 0cdf EE0C0000 		.4byte	0xcee
 12543 0ce3 13       		.uleb128 0x13
ARM GAS  C:\Users\RECEPC~1\AppData\Local\Temp\cc7aDVfG.s 			page 271


 12544 0ce4 11010000 		.4byte	0x111
 12545 0ce8 13       		.uleb128 0x13
 12546 0ce9 97000000 		.4byte	0x97
 12547 0ced 00       		.byte	0
 12548 0cee 07       		.uleb128 0x7
 12549 0cef 04       		.byte	0x4
 12550 0cf0 DA0C0000 		.4byte	0xcda
 12551 0cf4 12       		.uleb128 0x12
 12552 0cf5 040D0000 		.4byte	0xd04
 12553 0cf9 13       		.uleb128 0x13
 12554 0cfa 11010000 		.4byte	0x111
 12555 0cfe 13       		.uleb128 0x13
 12556 0cff 96090000 		.4byte	0x996
 12557 0d03 00       		.byte	0
 12558 0d04 07       		.uleb128 0x7
 12559 0d05 04       		.byte	0x4
 12560 0d06 F40C0000 		.4byte	0xcf4
 12561 0d0a 18       		.uleb128 0x18
 12562 0d0b 96090000 		.4byte	0x996
 12563 0d0f 190D0000 		.4byte	0xd19
 12564 0d13 13       		.uleb128 0x13
 12565 0d14 11010000 		.4byte	0x111
 12566 0d18 00       		.byte	0
 12567 0d19 07       		.uleb128 0x7
 12568 0d1a 04       		.byte	0x4
 12569 0d1b 0A0D0000 		.4byte	0xd0a
 12570 0d1f 05       		.uleb128 0x5
 12571 0d20 E51E0000 		.4byte	.LASF306
 12572 0d24 0A       		.byte	0xa
 12573 0d25 8901     		.2byte	0x189
 12574 0d27 E50A0000 		.4byte	0xae5
 12575 0d2b 05       		.uleb128 0x5
 12576 0d2c FF1D0000 		.4byte	.LASF307
 12577 0d30 0A       		.byte	0xa
 12578 0d31 8901     		.2byte	0x189
 12579 0d33 370D0000 		.4byte	0xd37
 12580 0d37 07       		.uleb128 0x7
 12581 0d38 04       		.byte	0x4
 12582 0d39 E50A0000 		.4byte	0xae5
 12583 0d3d 20       		.uleb128 0x20
 12584 0d3e FA1C0000 		.4byte	.LASF308
 12585 0d42 34       		.byte	0x34
 12586 0d43 0A       		.byte	0xa
 12587 0d44 8E01     		.2byte	0x18e
 12588 0d46 010E0000 		.4byte	0xe01
 12589 0d4a 1C       		.uleb128 0x1c
 12590 0d4b C1220000 		.4byte	.LASF309
 12591 0d4f 0A       		.byte	0xa
 12592 0d50 9001     		.2byte	0x190
 12593 0d52 6C020000 		.4byte	0x26c
 12594 0d56 00       		.byte	0
 12595 0d57 1C       		.uleb128 0x1c
 12596 0d58 700B0000 		.4byte	.LASF310
 12597 0d5c 0A       		.byte	0xa
 12598 0d5d 9101     		.2byte	0x191
 12599 0d5f 6C020000 		.4byte	0x26c
 12600 0d63 04       		.byte	0x4
ARM GAS  C:\Users\RECEPC~1\AppData\Local\Temp\cc7aDVfG.s 			page 272


 12601 0d64 1C       		.uleb128 0x1c
 12602 0d65 851E0000 		.4byte	.LASF311
 12603 0d69 0A       		.byte	0xa
 12604 0d6a 9201     		.2byte	0x192
 12605 0d6c 6C020000 		.4byte	0x26c
 12606 0d70 08       		.byte	0x8
 12607 0d71 1C       		.uleb128 0x1c
 12608 0d72 89000000 		.4byte	.LASF312
 12609 0d76 0A       		.byte	0xa
 12610 0d77 9301     		.2byte	0x193
 12611 0d79 1A0E0000 		.4byte	0xe1a
 12612 0d7d 0C       		.byte	0xc
 12613 0d7e 1C       		.uleb128 0x1c
 12614 0d7f E3270000 		.4byte	.LASF313
 12615 0d83 0A       		.byte	0xa
 12616 0d84 9401     		.2byte	0x194
 12617 0d86 A3000000 		.4byte	0xa3
 12618 0d8a 10       		.byte	0x10
 12619 0d8b 1C       		.uleb128 0x1c
 12620 0d8c 00200000 		.4byte	.LASF314
 12621 0d90 0A       		.byte	0xa
 12622 0d91 9501     		.2byte	0x195
 12623 0d93 AF000000 		.4byte	0xaf
 12624 0d97 14       		.byte	0x14
 12625 0d98 1C       		.uleb128 0x1c
 12626 0d99 9B110000 		.4byte	.LASF315
 12627 0d9d 0A       		.byte	0xa
 12628 0d9e 9601     		.2byte	0x196
 12629 0da0 97000000 		.4byte	0x97
 12630 0da4 18       		.byte	0x18
 12631 0da5 1C       		.uleb128 0x1c
 12632 0da6 1E270000 		.4byte	.LASF316
 12633 0daa 0A       		.byte	0xa
 12634 0dab 9801     		.2byte	0x198
 12635 0dad 49020000 		.4byte	0x249
 12636 0db1 19       		.byte	0x19
 12637 0db2 1C       		.uleb128 0x1c
 12638 0db3 5E0E0000 		.4byte	.LASF317
 12639 0db7 0A       		.byte	0xa
 12640 0db8 9C01     		.2byte	0x19c
 12641 0dba 200E0000 		.4byte	0xe20
 12642 0dbe 1A       		.byte	0x1a
 12643 0dbf 1C       		.uleb128 0x1c
 12644 0dc0 F01D0000 		.4byte	.LASF318
 12645 0dc4 0A       		.byte	0xa
 12646 0dc5 9E01     		.2byte	0x19e
 12647 0dc7 19010000 		.4byte	0x119
 12648 0dcb 1E       		.byte	0x1e
 12649 0dcc 1C       		.uleb128 0x1c
 12650 0dcd E9190000 		.4byte	.LASF319
 12651 0dd1 0A       		.byte	0xa
 12652 0dd2 A201     		.2byte	0x1a2
 12653 0dd4 200E0000 		.4byte	0xe20
 12654 0dd8 22       		.byte	0x22
 12655 0dd9 1C       		.uleb128 0x1c
 12656 0dda 8D040000 		.4byte	.LASF320
 12657 0dde 0A       		.byte	0xa
ARM GAS  C:\Users\RECEPC~1\AppData\Local\Temp\cc7aDVfG.s 			page 273


 12658 0ddf A401     		.2byte	0x1a4
 12659 0de1 19010000 		.4byte	0x119
 12660 0de5 26       		.byte	0x26
 12661 0de6 1C       		.uleb128 0x1c
 12662 0de7 6B050000 		.4byte	.LASF321
 12663 0deb 0A       		.byte	0xa
 12664 0dec A601     		.2byte	0x1a6
 12665 0dee 6C020000 		.4byte	0x26c
 12666 0df2 2C       		.byte	0x2c
 12667 0df3 1C       		.uleb128 0x1c
 12668 0df4 37150000 		.4byte	.LASF322
 12669 0df8 0A       		.byte	0xa
 12670 0df9 A701     		.2byte	0x1a7
 12671 0dfb 6C020000 		.4byte	0x26c
 12672 0dff 30       		.byte	0x30
 12673 0e00 00       		.byte	0
 12674 0e01 18       		.uleb128 0x18
 12675 0e02 49020000 		.4byte	0x249
 12676 0e06 1A0E0000 		.4byte	0xe1a
 12677 0e0a 13       		.uleb128 0x13
 12678 0e0b 11010000 		.4byte	0x111
 12679 0e0f 13       		.uleb128 0x13
 12680 0e10 11010000 		.4byte	0x111
 12681 0e14 13       		.uleb128 0x13
 12682 0e15 A3000000 		.4byte	0xa3
 12683 0e19 00       		.byte	0
 12684 0e1a 07       		.uleb128 0x7
 12685 0e1b 04       		.byte	0x4
 12686 0e1c 010E0000 		.4byte	0xe01
 12687 0e20 0A       		.uleb128 0xa
 12688 0e21 49020000 		.4byte	0x249
 12689 0e25 300E0000 		.4byte	0xe30
 12690 0e29 0B       		.uleb128 0xb
 12691 0e2a 0A010000 		.4byte	0x10a
 12692 0e2e 03       		.byte	0x3
 12693 0e2f 00       		.byte	0
 12694 0e30 05       		.uleb128 0x5
 12695 0e31 D00A0000 		.4byte	.LASF323
 12696 0e35 0A       		.byte	0xa
 12697 0e36 A801     		.2byte	0x1a8
 12698 0e38 3D0D0000 		.4byte	0xd3d
 12699 0e3c 1F       		.uleb128 0x1f
 12700 0e3d 0A010000 		.4byte	.LASF324
 12701 0e41 AC03     		.2byte	0x3ac
 12702 0e43 0A       		.byte	0xa
 12703 0e44 AA01     		.2byte	0x1aa
 12704 0e46 650E0000 		.4byte	0xe65
 12705 0e4a 1C       		.uleb128 0x1c
 12706 0e4b D0160000 		.4byte	.LASF325
 12707 0e4f 0A       		.byte	0xa
 12708 0e50 AC01     		.2byte	0x1ac
 12709 0e52 81000000 		.4byte	0x81
 12710 0e56 00       		.byte	0
 12711 0e57 1C       		.uleb128 0x1c
 12712 0e58 60020000 		.4byte	.LASF326
 12713 0e5c 0A       		.byte	0xa
 12714 0e5d AD01     		.2byte	0x1ad
ARM GAS  C:\Users\RECEPC~1\AppData\Local\Temp\cc7aDVfG.s 			page 274


 12715 0e5f 650E0000 		.4byte	0xe65
 12716 0e63 04       		.byte	0x4
 12717 0e64 00       		.byte	0
 12718 0e65 0A       		.uleb128 0xa
 12719 0e66 300E0000 		.4byte	0xe30
 12720 0e6a 750E0000 		.4byte	0xe75
 12721 0e6e 0B       		.uleb128 0xb
 12722 0e6f 0A010000 		.4byte	0x10a
 12723 0e73 11       		.byte	0x11
 12724 0e74 00       		.byte	0
 12725 0e75 05       		.uleb128 0x5
 12726 0e76 EF0C0000 		.4byte	.LASF327
 12727 0e7a 0A       		.byte	0xa
 12728 0e7b AE01     		.2byte	0x1ae
 12729 0e7d 3C0E0000 		.4byte	0xe3c
 12730 0e81 1E       		.uleb128 0x1e
 12731 0e82 28       		.byte	0x28
 12732 0e83 0A       		.byte	0xa
 12733 0e84 B701     		.2byte	0x1b7
 12734 0e86 5B0F0000 		.4byte	0xf5b
 12735 0e8a 1C       		.uleb128 0x1c
 12736 0e8b B00A0000 		.4byte	.LASF328
 12737 0e8f 0A       		.byte	0xa
 12738 0e90 B901     		.2byte	0x1b9
 12739 0e92 44020000 		.4byte	0x244
 12740 0e96 00       		.byte	0
 12741 0e97 1C       		.uleb128 0x1c
 12742 0e98 CC290000 		.4byte	.LASF329
 12743 0e9c 0A       		.byte	0xa
 12744 0e9d BA01     		.2byte	0x1ba
 12745 0e9f F4000000 		.4byte	0xf4
 12746 0ea3 01       		.byte	0x1
 12747 0ea4 1C       		.uleb128 0x1c
 12748 0ea5 ED020000 		.4byte	.LASF247
 12749 0ea9 0A       		.byte	0xa
 12750 0eaa BD01     		.2byte	0x1bd
 12751 0eac F4000000 		.4byte	0xf4
 12752 0eb0 02       		.byte	0x2
 12753 0eb1 1C       		.uleb128 0x1c
 12754 0eb2 20130000 		.4byte	.LASF330
 12755 0eb6 0A       		.byte	0xa
 12756 0eb7 BF01     		.2byte	0x1bf
 12757 0eb9 F9000000 		.4byte	0xf9
 12758 0ebd 04       		.byte	0x4
 12759 0ebe 1C       		.uleb128 0x1c
 12760 0ebf 8E190000 		.4byte	.LASF331
 12761 0ec3 0A       		.byte	0xa
 12762 0ec4 C001     		.2byte	0x1c0
 12763 0ec6 F9000000 		.4byte	0xf9
 12764 0eca 06       		.byte	0x6
 12765 0ecb 1C       		.uleb128 0x1c
 12766 0ecc 74250000 		.4byte	.LASF332
 12767 0ed0 0A       		.byte	0xa
 12768 0ed1 C201     		.2byte	0x1c2
 12769 0ed3 F9000000 		.4byte	0xf9
 12770 0ed7 08       		.byte	0x8
 12771 0ed8 1C       		.uleb128 0x1c
ARM GAS  C:\Users\RECEPC~1\AppData\Local\Temp\cc7aDVfG.s 			page 275


 12772 0ed9 C2260000 		.4byte	.LASF333
 12773 0edd 0A       		.byte	0xa
 12774 0ede C301     		.2byte	0x1c3
 12775 0ee0 F9000000 		.4byte	0xf9
 12776 0ee4 0A       		.byte	0xa
 12777 0ee5 1C       		.uleb128 0x1c
 12778 0ee6 9E000000 		.4byte	.LASF334
 12779 0eea 0A       		.byte	0xa
 12780 0eeb C401     		.2byte	0x1c4
 12781 0eed F9000000 		.4byte	0xf9
 12782 0ef1 0C       		.byte	0xc
 12783 0ef2 1C       		.uleb128 0x1c
 12784 0ef3 1F1C0000 		.4byte	.LASF335
 12785 0ef7 0A       		.byte	0xa
 12786 0ef8 C601     		.2byte	0x1c6
 12787 0efa F9000000 		.4byte	0xf9
 12788 0efe 0E       		.byte	0xe
 12789 0eff 1C       		.uleb128 0x1c
 12790 0f00 DF150000 		.4byte	.LASF336
 12791 0f04 0A       		.byte	0xa
 12792 0f05 C701     		.2byte	0x1c7
 12793 0f07 F9000000 		.4byte	0xf9
 12794 0f0b 10       		.byte	0x10
 12795 0f0c 1C       		.uleb128 0x1c
 12796 0f0d EB070000 		.4byte	.LASF337
 12797 0f11 0A       		.byte	0xa
 12798 0f12 C801     		.2byte	0x1c8
 12799 0f14 F9000000 		.4byte	0xf9
 12800 0f18 12       		.byte	0x12
 12801 0f19 1C       		.uleb128 0x1c
 12802 0f1a 8F150000 		.4byte	.LASF338
 12803 0f1e 0A       		.byte	0xa
 12804 0f1f CA01     		.2byte	0x1ca
 12805 0f21 5B0F0000 		.4byte	0xf5b
 12806 0f25 14       		.byte	0x14
 12807 0f26 1C       		.uleb128 0x1c
 12808 0f27 DB0B0000 		.4byte	.LASF339
 12809 0f2b 0A       		.byte	0xa
 12810 0f2c CB01     		.2byte	0x1cb
 12811 0f2e 5B0F0000 		.4byte	0xf5b
 12812 0f32 18       		.byte	0x18
 12813 0f33 1C       		.uleb128 0x1c
 12814 0f34 F00E0000 		.4byte	.LASF340
 12815 0f38 0A       		.byte	0xa
 12816 0f39 CC01     		.2byte	0x1cc
 12817 0f3b 610F0000 		.4byte	0xf61
 12818 0f3f 1C       		.byte	0x1c
 12819 0f40 1C       		.uleb128 0x1c
 12820 0f41 44150000 		.4byte	.LASF49
 12821 0f45 0A       		.byte	0xa
 12822 0f46 CE01     		.2byte	0x1ce
 12823 0f48 6C020000 		.4byte	0x26c
 12824 0f4c 20       		.byte	0x20
 12825 0f4d 1C       		.uleb128 0x1c
 12826 0f4e F0140000 		.4byte	.LASF48
 12827 0f52 0A       		.byte	0xa
 12828 0f53 CF01     		.2byte	0x1cf
ARM GAS  C:\Users\RECEPC~1\AppData\Local\Temp\cc7aDVfG.s 			page 276


 12829 0f55 11010000 		.4byte	0x111
 12830 0f59 24       		.byte	0x24
 12831 0f5a 00       		.byte	0
 12832 0f5b 07       		.uleb128 0x7
 12833 0f5c 04       		.byte	0x4
 12834 0f5d 300E0000 		.4byte	0xe30
 12835 0f61 07       		.uleb128 0x7
 12836 0f62 04       		.byte	0x4
 12837 0f63 1F0D0000 		.4byte	0xd1f
 12838 0f67 05       		.uleb128 0x5
 12839 0f68 7A1F0000 		.4byte	.LASF341
 12840 0f6c 0A       		.byte	0xa
 12841 0f6d D101     		.2byte	0x1d1
 12842 0f6f 810E0000 		.4byte	0xe81
 12843 0f73 05       		.uleb128 0x5
 12844 0f74 621B0000 		.4byte	.LASF342
 12845 0f78 0A       		.byte	0xa
 12846 0f79 D101     		.2byte	0x1d1
 12847 0f7b 7F0F0000 		.4byte	0xf7f
 12848 0f7f 07       		.uleb128 0x7
 12849 0f80 04       		.byte	0x4
 12850 0f81 810E0000 		.4byte	0xe81
 12851 0f85 1F       		.uleb128 0x1f
 12852 0f86 4F020000 		.4byte	.LASF343
 12853 0f8a 5C08     		.2byte	0x85c
 12854 0f8c 0A       		.byte	0xa
 12855 0f8d D301     		.2byte	0x1d3
 12856 0f8f 10100000 		.4byte	0x1010
 12857 0f93 1C       		.uleb128 0x1c
 12858 0f94 961A0000 		.4byte	.LASF344
 12859 0f98 0A       		.byte	0xa
 12860 0f99 D501     		.2byte	0x1d5
 12861 0f9b F9000000 		.4byte	0xf9
 12862 0f9f 00       		.byte	0
 12863 0fa0 1C       		.uleb128 0x1c
 12864 0fa1 B21E0000 		.4byte	.LASF345
 12865 0fa5 0A       		.byte	0xa
 12866 0fa6 D701     		.2byte	0x1d7
 12867 0fa8 10100000 		.4byte	0x1010
 12868 0fac 04       		.byte	0x4
 12869 0fad 1D       		.uleb128 0x1d
 12870 0fae 8D090000 		.4byte	.LASF346
 12871 0fb2 0A       		.byte	0xa
 12872 0fb3 D801     		.2byte	0x1d8
 12873 0fb5 20100000 		.4byte	0x1020
 12874 0fb9 8407     		.2byte	0x784
 12875 0fbb 1D       		.uleb128 0x1d
 12876 0fbc A9110000 		.4byte	.LASF347
 12877 0fc0 0A       		.byte	0xa
 12878 0fc1 DA01     		.2byte	0x1da
 12879 0fc3 6C020000 		.4byte	0x26c
 12880 0fc7 4408     		.2byte	0x844
 12881 0fc9 1D       		.uleb128 0x1d
 12882 0fca 3D1D0000 		.4byte	.LASF348
 12883 0fce 0A       		.byte	0xa
 12884 0fcf DB01     		.2byte	0x1db
 12885 0fd1 45100000 		.4byte	0x1045
ARM GAS  C:\Users\RECEPC~1\AppData\Local\Temp\cc7aDVfG.s 			page 277


 12886 0fd5 4808     		.2byte	0x848
 12887 0fd7 1D       		.uleb128 0x1d
 12888 0fd8 64120000 		.4byte	.LASF349
 12889 0fdc 0A       		.byte	0xa
 12890 0fdd DC01     		.2byte	0x1dc
 12891 0fdf 5B100000 		.4byte	0x105b
 12892 0fe3 4C08     		.2byte	0x84c
 12893 0fe5 1D       		.uleb128 0x1d
 12894 0fe6 A30D0000 		.4byte	.LASF350
 12895 0fea 0A       		.byte	0xa
 12896 0feb DD01     		.2byte	0x1dd
 12897 0fed 45100000 		.4byte	0x1045
 12898 0ff1 5008     		.2byte	0x850
 12899 0ff3 1D       		.uleb128 0x1d
 12900 0ff4 32240000 		.4byte	.LASF351
 12901 0ff8 0A       		.byte	0xa
 12902 0ff9 DE01     		.2byte	0x1de
 12903 0ffb 6C020000 		.4byte	0x26c
 12904 0fff 5408     		.2byte	0x854
 12905 1001 1D       		.uleb128 0x1d
 12906 1002 C0100000 		.4byte	.LASF352
 12907 1006 0A       		.byte	0xa
 12908 1007 DF01     		.2byte	0x1df
 12909 1009 6C020000 		.4byte	0x26c
 12910 100d 5808     		.2byte	0x858
 12911 100f 00       		.byte	0
 12912 1010 0A       		.uleb128 0xa
 12913 1011 670F0000 		.4byte	0xf67
 12914 1015 20100000 		.4byte	0x1020
 12915 1019 0B       		.uleb128 0xb
 12916 101a 0A010000 		.4byte	0x10a
 12917 101e 2F       		.byte	0x2f
 12918 101f 00       		.byte	0
 12919 1020 0A       		.uleb128 0xa
 12920 1021 30100000 		.4byte	0x1030
 12921 1025 30100000 		.4byte	0x1030
 12922 1029 0B       		.uleb128 0xb
 12923 102a 0A010000 		.4byte	0x10a
 12924 102e 2F       		.byte	0x2f
 12925 102f 00       		.byte	0
 12926 1030 07       		.uleb128 0x7
 12927 1031 04       		.byte	0x4
 12928 1032 670F0000 		.4byte	0xf67
 12929 1036 18       		.uleb128 0x18
 12930 1037 30100000 		.4byte	0x1030
 12931 103b 45100000 		.4byte	0x1045
 12932 103f 13       		.uleb128 0x13
 12933 1040 11010000 		.4byte	0x111
 12934 1044 00       		.byte	0
 12935 1045 07       		.uleb128 0x7
 12936 1046 04       		.byte	0x4
 12937 1047 36100000 		.4byte	0x1036
 12938 104b 12       		.uleb128 0x12
 12939 104c 5B100000 		.4byte	0x105b
 12940 1050 13       		.uleb128 0x13
 12941 1051 11010000 		.4byte	0x111
 12942 1055 13       		.uleb128 0x13
ARM GAS  C:\Users\RECEPC~1\AppData\Local\Temp\cc7aDVfG.s 			page 278


 12943 1056 30100000 		.4byte	0x1030
 12944 105a 00       		.byte	0
 12945 105b 07       		.uleb128 0x7
 12946 105c 04       		.byte	0x4
 12947 105d 4B100000 		.4byte	0x104b
 12948 1061 05       		.uleb128 0x5
 12949 1062 E2030000 		.4byte	.LASF353
 12950 1066 0A       		.byte	0xa
 12951 1067 E101     		.2byte	0x1e1
 12952 1069 850F0000 		.4byte	0xf85
 12953 106d 1E       		.uleb128 0x1e
 12954 106e 14       		.byte	0x14
 12955 106f 0A       		.byte	0xa
 12956 1070 ED01     		.2byte	0x1ed
 12957 1072 57110000 		.4byte	0x1157
 12958 1076 1C       		.uleb128 0x1c
 12959 1077 BF130000 		.4byte	.LASF354
 12960 107b 0A       		.byte	0xa
 12961 107c EF01     		.2byte	0x1ef
 12962 107e 44020000 		.4byte	0x244
 12963 1082 00       		.byte	0
 12964 1083 1C       		.uleb128 0x1c
 12965 1084 941F0000 		.4byte	.LASF355
 12966 1088 0A       		.byte	0xa
 12967 1089 F001     		.2byte	0x1f0
 12968 108b 44020000 		.4byte	0x244
 12969 108f 01       		.byte	0x1
 12970 1090 1C       		.uleb128 0x1c
 12971 1091 440C0000 		.4byte	.LASF356
 12972 1095 0A       		.byte	0xa
 12973 1096 F401     		.2byte	0x1f4
 12974 1098 97000000 		.4byte	0x97
 12975 109c 02       		.byte	0x2
 12976 109d 1C       		.uleb128 0x1c
 12977 109e 1D1E0000 		.4byte	.LASF357
 12978 10a2 0A       		.byte	0xa
 12979 10a3 0202     		.2byte	0x202
 12980 10a5 97000000 		.4byte	0x97
 12981 10a9 03       		.byte	0x3
 12982 10aa 1C       		.uleb128 0x1c
 12983 10ab 5A0D0000 		.4byte	.LASF358
 12984 10af 0A       		.byte	0xa
 12985 10b0 0302     		.2byte	0x203
 12986 10b2 97000000 		.4byte	0x97
 12987 10b6 04       		.byte	0x4
 12988 10b7 1C       		.uleb128 0x1c
 12989 10b8 3E1E0000 		.4byte	.LASF359
 12990 10bc 0A       		.byte	0xa
 12991 10bd 0402     		.2byte	0x204
 12992 10bf 97000000 		.4byte	0x97
 12993 10c3 05       		.byte	0x5
 12994 10c4 1C       		.uleb128 0x1c
 12995 10c5 4E1E0000 		.4byte	.LASF360
 12996 10c9 0A       		.byte	0xa
 12997 10ca 0502     		.2byte	0x205
 12998 10cc 97000000 		.4byte	0x97
 12999 10d0 06       		.byte	0x6
ARM GAS  C:\Users\RECEPC~1\AppData\Local\Temp\cc7aDVfG.s 			page 279


 13000 10d1 1C       		.uleb128 0x1c
 13001 10d2 AB0E0000 		.4byte	.LASF361
 13002 10d6 0A       		.byte	0xa
 13003 10d7 0702     		.2byte	0x207
 13004 10d9 97000000 		.4byte	0x97
 13005 10dd 07       		.byte	0x7
 13006 10de 1C       		.uleb128 0x1c
 13007 10df 15110000 		.4byte	.LASF362
 13008 10e3 0A       		.byte	0xa
 13009 10e4 0802     		.2byte	0x208
 13010 10e6 97000000 		.4byte	0x97
 13011 10ea 08       		.byte	0x8
 13012 10eb 1C       		.uleb128 0x1c
 13013 10ec 440D0000 		.4byte	.LASF363
 13014 10f0 0A       		.byte	0xa
 13015 10f1 0902     		.2byte	0x209
 13016 10f3 97000000 		.4byte	0x97
 13017 10f7 09       		.byte	0x9
 13018 10f8 1C       		.uleb128 0x1c
 13019 10f9 3A000000 		.4byte	.LASF364
 13020 10fd 0A       		.byte	0xa
 13021 10fe 0B02     		.2byte	0x20b
 13022 1100 97000000 		.4byte	0x97
 13023 1104 0A       		.byte	0xa
 13024 1105 1C       		.uleb128 0x1c
 13025 1106 CC0E0000 		.4byte	.LASF365
 13026 110a 0A       		.byte	0xa
 13027 110b 0D02     		.2byte	0x20d
 13028 110d A3000000 		.4byte	0xa3
 13029 1111 0C       		.byte	0xc
 13030 1112 1C       		.uleb128 0x1c
 13031 1113 751E0000 		.4byte	.LASF366
 13032 1117 0A       		.byte	0xa
 13033 1118 0E02     		.2byte	0x20e
 13034 111a A3000000 		.4byte	0xa3
 13035 111e 0E       		.byte	0xe
 13036 111f 1C       		.uleb128 0x1c
 13037 1120 6D2A0000 		.4byte	.LASF367
 13038 1124 0A       		.byte	0xa
 13039 1125 1002     		.2byte	0x210
 13040 1127 97000000 		.4byte	0x97
 13041 112b 10       		.byte	0x10
 13042 112c 1C       		.uleb128 0x1c
 13043 112d 230C0000 		.4byte	.LASF368
 13044 1131 0A       		.byte	0xa
 13045 1132 1202     		.2byte	0x212
 13046 1134 97000000 		.4byte	0x97
 13047 1138 11       		.byte	0x11
 13048 1139 1C       		.uleb128 0x1c
 13049 113a 12000000 		.4byte	.LASF369
 13050 113e 0A       		.byte	0xa
 13051 113f 1402     		.2byte	0x214
 13052 1141 97000000 		.4byte	0x97
 13053 1145 12       		.byte	0x12
 13054 1146 21       		.uleb128 0x21
 13055 1147 BE1A0000 		.4byte	.LASF571
 13056 114b 0A       		.byte	0xa
ARM GAS  C:\Users\RECEPC~1\AppData\Local\Temp\cc7aDVfG.s 			page 280


 13057 114c 1602     		.2byte	0x216
 13058 114e 97000000 		.4byte	0x97
 13059 1152 01       		.byte	0x1
 13060 1153 01       		.byte	0x1
 13061 1154 07       		.byte	0x7
 13062 1155 13       		.byte	0x13
 13063 1156 00       		.byte	0
 13064 1157 05       		.uleb128 0x5
 13065 1158 0F210000 		.4byte	.LASF370
 13066 115c 0A       		.byte	0xa
 13067 115d 1702     		.2byte	0x217
 13068 115f 6D100000 		.4byte	0x106d
 13069 1163 03       		.uleb128 0x3
 13070 1164 67000000 		.4byte	.LASF371
 13071 1168 0B       		.byte	0xb
 13072 1169 97       		.byte	0x97
 13073 116a 6C020000 		.4byte	0x26c
 13074 116e 0C       		.uleb128 0xc
 13075 116f 0C080000 		.4byte	.LASF372
 13076 1173 02       		.byte	0x2
 13077 1174 0C       		.byte	0xc
 13078 1175 2A       		.byte	0x2a
 13079 1176 92120000 		.4byte	0x1292
 13080 117a 0D       		.uleb128 0xd
 13081 117b 58010000 		.4byte	.LASF373
 13082 117f 00       		.sleb128 0
 13083 1180 0D       		.uleb128 0xd
 13084 1181 36040000 		.4byte	.LASF374
 13085 1185 C000     		.sleb128 64
 13086 1187 0D       		.uleb128 0xd
 13087 1188 7D010000 		.4byte	.LASF375
 13088 118c 8001     		.sleb128 128
 13089 118e 0D       		.uleb128 0xd
 13090 118f 98010000 		.4byte	.LASF376
 13091 1193 C001     		.sleb128 192
 13092 1195 0D       		.uleb128 0xd
 13093 1196 B3010000 		.4byte	.LASF377
 13094 119a 8002     		.sleb128 256
 13095 119c 0D       		.uleb128 0xd
 13096 119d CE010000 		.4byte	.LASF378
 13097 11a1 C002     		.sleb128 320
 13098 11a3 0D       		.uleb128 0xd
 13099 11a4 E9010000 		.4byte	.LASF379
 13100 11a8 8003     		.sleb128 384
 13101 11aa 0D       		.uleb128 0xd
 13102 11ab 04020000 		.4byte	.LASF380
 13103 11af C003     		.sleb128 448
 13104 11b1 0D       		.uleb128 0xd
 13105 11b2 44060000 		.4byte	.LASF381
 13106 11b6 8004     		.sleb128 512
 13107 11b8 0D       		.uleb128 0xd
 13108 11b9 FA080000 		.4byte	.LASF382
 13109 11bd C004     		.sleb128 576
 13110 11bf 0D       		.uleb128 0xd
 13111 11c0 2E280000 		.4byte	.LASF383
 13112 11c4 8005     		.sleb128 640
 13113 11c6 0D       		.uleb128 0xd
ARM GAS  C:\Users\RECEPC~1\AppData\Local\Temp\cc7aDVfG.s 			page 281


 13114 11c7 F10F0000 		.4byte	.LASF384
 13115 11cb C005     		.sleb128 704
 13116 11cd 0D       		.uleb128 0xd
 13117 11ce 33050000 		.4byte	.LASF385
 13118 11d2 8006     		.sleb128 768
 13119 11d4 0D       		.uleb128 0xd
 13120 11d5 810E0000 		.4byte	.LASF386
 13121 11d9 C006     		.sleb128 832
 13122 11db 0D       		.uleb128 0xd
 13123 11dc 7C290000 		.4byte	.LASF387
 13124 11e0 8007     		.sleb128 896
 13125 11e2 0D       		.uleb128 0xd
 13126 11e3 27130000 		.4byte	.LASF388
 13127 11e7 C007     		.sleb128 960
 13128 11e9 0D       		.uleb128 0xd
 13129 11ea 1D090000 		.4byte	.LASF389
 13130 11ee 8008     		.sleb128 1024
 13131 11f0 0D       		.uleb128 0xd
 13132 11f1 C01E0000 		.4byte	.LASF390
 13133 11f5 C008     		.sleb128 1088
 13134 11f7 0D       		.uleb128 0xd
 13135 11f8 F5250000 		.4byte	.LASF391
 13136 11fc 8009     		.sleb128 1152
 13137 11fe 0D       		.uleb128 0xd
 13138 11ff 02120000 		.4byte	.LASF392
 13139 1203 C009     		.sleb128 1216
 13140 1205 0D       		.uleb128 0xd
 13141 1206 98120000 		.4byte	.LASF393
 13142 120a 800A     		.sleb128 1280
 13143 120c 0D       		.uleb128 0xd
 13144 120d B6120000 		.4byte	.LASF394
 13145 1211 C00A     		.sleb128 1344
 13146 1213 0D       		.uleb128 0xd
 13147 1214 D4120000 		.4byte	.LASF395
 13148 1218 800B     		.sleb128 1408
 13149 121a 0D       		.uleb128 0xd
 13150 121b F2120000 		.4byte	.LASF396
 13151 121f C00B     		.sleb128 1472
 13152 1221 0D       		.uleb128 0xd
 13153 1222 21190000 		.4byte	.LASF397
 13154 1226 800C     		.sleb128 1536
 13155 1228 0D       		.uleb128 0xd
 13156 1229 801B0000 		.4byte	.LASF398
 13157 122d C00C     		.sleb128 1600
 13158 122f 0D       		.uleb128 0xd
 13159 1230 790B0000 		.4byte	.LASF399
 13160 1234 800D     		.sleb128 1664
 13161 1236 0D       		.uleb128 0xd
 13162 1237 AF070000 		.4byte	.LASF400
 13163 123b C00D     		.sleb128 1728
 13164 123d 0D       		.uleb128 0xd
 13165 123e 681C0000 		.4byte	.LASF401
 13166 1242 800E     		.sleb128 1792
 13167 1244 0D       		.uleb128 0xd
 13168 1245 182B0000 		.4byte	.LASF402
 13169 1249 C00E     		.sleb128 1856
 13170 124b 0D       		.uleb128 0xd
ARM GAS  C:\Users\RECEPC~1\AppData\Local\Temp\cc7aDVfG.s 			page 282


 13171 124c 0A0F0000 		.4byte	.LASF403
 13172 1250 800F     		.sleb128 1920
 13173 1252 0D       		.uleb128 0xd
 13174 1253 AA050000 		.4byte	.LASF404
 13175 1257 C00F     		.sleb128 1984
 13176 1259 0D       		.uleb128 0xd
 13177 125a D51A0000 		.4byte	.LASF405
 13178 125e 8010     		.sleb128 2048
 13179 1260 0D       		.uleb128 0xd
 13180 1261 B0170000 		.4byte	.LASF406
 13181 1265 C010     		.sleb128 2112
 13182 1267 0D       		.uleb128 0xd
 13183 1268 FB060000 		.4byte	.LASF407
 13184 126c 8011     		.sleb128 2176
 13185 126e 0D       		.uleb128 0xd
 13186 126f 19030000 		.4byte	.LASF408
 13187 1273 C011     		.sleb128 2240
 13188 1275 0D       		.uleb128 0xd
 13189 1276 EE180000 		.4byte	.LASF409
 13190 127a 8012     		.sleb128 2304
 13191 127c 0D       		.uleb128 0xd
 13192 127d F3150000 		.4byte	.LASF410
 13193 1281 C012     		.sleb128 2368
 13194 1283 0D       		.uleb128 0xd
 13195 1284 A4040000 		.4byte	.LASF411
 13196 1288 8013     		.sleb128 2432
 13197 128a 0D       		.uleb128 0xd
 13198 128b 6F210000 		.4byte	.LASF412
 13199 128f C013     		.sleb128 2496
 13200 1291 00       		.byte	0
 13201 1292 17       		.uleb128 0x17
 13202 1293 01       		.byte	0x1
 13203 1294 0D       		.byte	0xd
 13204 1295 26       		.byte	0x26
 13205 1296 AC130000 		.4byte	0x13ac
 13206 129a 0D       		.uleb128 0xd
 13207 129b 630A0000 		.4byte	.LASF413
 13208 129f A101     		.sleb128 161
 13209 12a1 0D       		.uleb128 0xd
 13210 12a2 5A0B0000 		.4byte	.LASF414
 13211 12a6 A101     		.sleb128 161
 13212 12a8 0D       		.uleb128 0xd
 13213 12a9 AD020000 		.4byte	.LASF415
 13214 12ad A201     		.sleb128 162
 13215 12af 0D       		.uleb128 0xd
 13216 12b0 4C210000 		.4byte	.LASF416
 13217 12b4 A201     		.sleb128 162
 13218 12b6 0D       		.uleb128 0xd
 13219 12b7 38100000 		.4byte	.LASF417
 13220 12bb A301     		.sleb128 163
 13221 12bd 0D       		.uleb128 0xd
 13222 12be E4260000 		.4byte	.LASF418
 13223 12c2 A301     		.sleb128 163
 13224 12c4 0D       		.uleb128 0xd
 13225 12c5 780A0000 		.4byte	.LASF419
 13226 12c9 AE01     		.sleb128 174
 13227 12cb 0D       		.uleb128 0xd
ARM GAS  C:\Users\RECEPC~1\AppData\Local\Temp\cc7aDVfG.s 			page 283


 13228 12cc C0090000 		.4byte	.LASF420
 13229 12d0 AE01     		.sleb128 174
 13230 12d2 0D       		.uleb128 0xd
 13231 12d3 6B0C0000 		.4byte	.LASF421
 13232 12d7 AA01     		.sleb128 170
 13233 12d9 0D       		.uleb128 0xd
 13234 12da C3270000 		.4byte	.LASF422
 13235 12de AA01     		.sleb128 170
 13236 12e0 0D       		.uleb128 0xd
 13237 12e1 081B0000 		.4byte	.LASF423
 13238 12e5 A401     		.sleb128 164
 13239 12e7 0D       		.uleb128 0xd
 13240 12e8 B5140000 		.4byte	.LASF424
 13241 12ec A401     		.sleb128 164
 13242 12ee 0D       		.uleb128 0xd
 13243 12ef DA140000 		.4byte	.LASF425
 13244 12f3 A501     		.sleb128 165
 13245 12f5 0D       		.uleb128 0xd
 13246 12f6 AB160000 		.4byte	.LASF426
 13247 12fa A501     		.sleb128 165
 13248 12fc 0D       		.uleb128 0xd
 13249 12fd F8100000 		.4byte	.LASF427
 13250 1301 E801     		.sleb128 232
 13251 1303 0D       		.uleb128 0xd
 13252 1304 CA1C0000 		.4byte	.LASF428
 13253 1308 E801     		.sleb128 232
 13254 130a 0D       		.uleb128 0xd
 13255 130b 29220000 		.4byte	.LASF429
 13256 130f A601     		.sleb128 166
 13257 1311 0D       		.uleb128 0xd
 13258 1312 51280000 		.4byte	.LASF430
 13259 1316 A601     		.sleb128 166
 13260 1318 0D       		.uleb128 0xd
 13261 1319 5F290000 		.4byte	.LASF431
 13262 131d A701     		.sleb128 167
 13263 131f 0D       		.uleb128 0xd
 13264 1320 CA2A0000 		.4byte	.LASF432
 13265 1324 A701     		.sleb128 167
 13266 1326 0D       		.uleb128 0xd
 13267 1327 E20D0000 		.4byte	.LASF433
 13268 132b A801     		.sleb128 168
 13269 132d 0D       		.uleb128 0xd
 13270 132e 9D060000 		.4byte	.LASF434
 13271 1332 A801     		.sleb128 168
 13272 1334 0D       		.uleb128 0xd
 13273 1335 74170000 		.4byte	.LASF435
 13274 1339 A901     		.sleb128 169
 13275 133b 0D       		.uleb128 0xd
 13276 133c 5A1F0000 		.4byte	.LASF436
 13277 1340 A901     		.sleb128 169
 13278 1342 0D       		.uleb128 0xd
 13279 1343 51130000 		.4byte	.LASF437
 13280 1347 AC01     		.sleb128 172
 13281 1349 0D       		.uleb128 0xd
 13282 134a 2C2A0000 		.4byte	.LASF438
 13283 134e AC01     		.sleb128 172
 13284 1350 0D       		.uleb128 0xd
ARM GAS  C:\Users\RECEPC~1\AppData\Local\Temp\cc7aDVfG.s 			page 284


 13285 1351 5A200000 		.4byte	.LASF439
 13286 1355 AD01     		.sleb128 173
 13287 1357 0D       		.uleb128 0xd
 13288 1358 C30D0000 		.4byte	.LASF440
 13289 135c AD01     		.sleb128 173
 13290 135e 0D       		.uleb128 0xd
 13291 135f E1280000 		.4byte	.LASF441
 13292 1363 E101     		.sleb128 225
 13293 1365 0D       		.uleb128 0xd
 13294 1366 1A260000 		.4byte	.LASF442
 13295 136a E101     		.sleb128 225
 13296 136c 0D       		.uleb128 0xd
 13297 136d DF230000 		.4byte	.LASF443
 13298 1371 E201     		.sleb128 226
 13299 1373 0D       		.uleb128 0xd
 13300 1374 D4060000 		.4byte	.LASF444
 13301 1378 E201     		.sleb128 226
 13302 137a 0D       		.uleb128 0xd
 13303 137b 872A0000 		.4byte	.LASF445
 13304 137f E301     		.sleb128 227
 13305 1381 0D       		.uleb128 0xd
 13306 1382 F9050000 		.4byte	.LASF446
 13307 1386 E301     		.sleb128 227
 13308 1388 0D       		.uleb128 0xd
 13309 1389 D81F0000 		.4byte	.LASF447
 13310 138d E401     		.sleb128 228
 13311 138f 0D       		.uleb128 0xd
 13312 1390 92070000 		.4byte	.LASF448
 13313 1394 E401     		.sleb128 228
 13314 1396 0D       		.uleb128 0xd
 13315 1397 7A050000 		.4byte	.LASF449
 13316 139b E601     		.sleb128 230
 13317 139d 0D       		.uleb128 0xd
 13318 139e 25290000 		.4byte	.LASF450
 13319 13a2 E601     		.sleb128 230
 13320 13a4 0D       		.uleb128 0xd
 13321 13a5 AE150000 		.4byte	.LASF451
 13322 13a9 FF01     		.sleb128 255
 13323 13ab 00       		.byte	0
 13324 13ac 0C       		.uleb128 0xc
 13325 13ad C0030000 		.4byte	.LASF452
 13326 13b1 01       		.byte	0x1
 13327 13b2 0D       		.byte	0xd
 13328 13b3 8A       		.byte	0x8a
 13329 13b4 EF130000 		.4byte	0x13ef
 13330 13b8 0D       		.uleb128 0xd
 13331 13b9 51040000 		.4byte	.LASF453
 13332 13bd 08       		.sleb128 8
 13333 13be 0D       		.uleb128 0xd
 13334 13bf 3B170000 		.4byte	.LASF454
 13335 13c3 01       		.sleb128 1
 13336 13c4 0D       		.uleb128 0xd
 13337 13c5 4C1C0000 		.4byte	.LASF455
 13338 13c9 02       		.sleb128 2
 13339 13ca 0D       		.uleb128 0xd
 13340 13cb 42230000 		.4byte	.LASF456
 13341 13cf 03       		.sleb128 3
ARM GAS  C:\Users\RECEPC~1\AppData\Local\Temp\cc7aDVfG.s 			page 285


 13342 13d0 0D       		.uleb128 0xd
 13343 13d1 DF0C0000 		.4byte	.LASF457
 13344 13d5 05       		.sleb128 5
 13345 13d6 0D       		.uleb128 0xd
 13346 13d7 30010000 		.4byte	.LASF458
 13347 13db 06       		.sleb128 6
 13348 13dc 0D       		.uleb128 0xd
 13349 13dd F81B0000 		.4byte	.LASF459
 13350 13e1 04       		.sleb128 4
 13351 13e2 0D       		.uleb128 0xd
 13352 13e3 66220000 		.4byte	.LASF460
 13353 13e7 0B       		.sleb128 11
 13354 13e8 0D       		.uleb128 0xd
 13355 13e9 B90B0000 		.4byte	.LASF461
 13356 13ed 0C       		.sleb128 12
 13357 13ee 00       		.byte	0
 13358 13ef 0C       		.uleb128 0xc
 13359 13f0 42090000 		.4byte	.LASF462
 13360 13f4 01       		.byte	0x1
 13361 13f5 0D       		.byte	0xd
 13362 13f6 AC       		.byte	0xac
 13363 13f7 08140000 		.4byte	0x1408
 13364 13fb 0D       		.uleb128 0xd
 13365 13fc 5D050000 		.4byte	.LASF463
 13366 1400 01       		.sleb128 1
 13367 1401 0D       		.uleb128 0xd
 13368 1402 E9110000 		.4byte	.LASF464
 13369 1406 02       		.sleb128 2
 13370 1407 00       		.byte	0
 13371 1408 22       		.uleb128 0x22
 13372 1409 0A       		.byte	0xa
 13373 140a 0D       		.byte	0xd
 13374 140b B2       		.byte	0xb2
 13375 140c 4D140000 		.4byte	0x144d
 13376 1410 0F       		.uleb128 0xf
 13377 1411 ED020000 		.4byte	.LASF247
 13378 1415 0D       		.byte	0xd
 13379 1416 B4       		.byte	0xb4
 13380 1417 F4000000 		.4byte	0xf4
 13381 141b 00       		.byte	0
 13382 141c 0F       		.uleb128 0xf
 13383 141d 1A060000 		.4byte	.LASF465
 13384 1421 0D       		.byte	0xd
 13385 1422 B5       		.byte	0xb5
 13386 1423 F9000000 		.4byte	0xf9
 13387 1427 02       		.byte	0x2
 13388 1428 0F       		.uleb128 0xf
 13389 1429 99150000 		.4byte	.LASF466
 13390 142d 0D       		.byte	0xd
 13391 142e B6       		.byte	0xb6
 13392 142f F4000000 		.4byte	0xf4
 13393 1433 04       		.byte	0x4
 13394 1434 0F       		.uleb128 0xf
 13395 1435 10040000 		.4byte	.LASF467
 13396 1439 0D       		.byte	0xd
 13397 143a B8       		.byte	0xb8
 13398 143b F9000000 		.4byte	0xf9
ARM GAS  C:\Users\RECEPC~1\AppData\Local\Temp\cc7aDVfG.s 			page 286


 13399 143f 06       		.byte	0x6
 13400 1440 0F       		.uleb128 0xf
 13401 1441 B7280000 		.4byte	.LASF468
 13402 1445 0D       		.byte	0xd
 13403 1446 B9       		.byte	0xb9
 13404 1447 F9000000 		.4byte	0xf9
 13405 144b 08       		.byte	0x8
 13406 144c 00       		.byte	0
 13407 144d 03       		.uleb128 0x3
 13408 144e E82A0000 		.4byte	.LASF469
 13409 1452 0D       		.byte	0xd
 13410 1453 BA       		.byte	0xba
 13411 1454 08140000 		.4byte	0x1408
 13412 1458 22       		.uleb128 0x22
 13413 1459 02       		.byte	0x2
 13414 145a 0E       		.byte	0xe
 13415 145b 72       		.byte	0x72
 13416 145c 79140000 		.4byte	0x1479
 13417 1460 0F       		.uleb128 0xf
 13418 1461 602B0000 		.4byte	.LASF470
 13419 1465 0E       		.byte	0xe
 13420 1466 74       		.byte	0x74
 13421 1467 97000000 		.4byte	0x97
 13422 146b 00       		.byte	0
 13423 146c 0F       		.uleb128 0xf
 13424 146d 00000000 		.4byte	.LASF471
 13425 1471 0E       		.byte	0xe
 13426 1472 75       		.byte	0x75
 13427 1473 97000000 		.4byte	0x97
 13428 1477 01       		.byte	0x1
 13429 1478 00       		.byte	0
 13430 1479 03       		.uleb128 0x3
 13431 147a 24240000 		.4byte	.LASF472
 13432 147e 0E       		.byte	0xe
 13433 147f 77       		.byte	0x77
 13434 1480 58140000 		.4byte	0x1458
 13435 1484 23       		.uleb128 0x23
 13436 1485 90140000 		.4byte	.LASF476
 13437 1489 01       		.byte	0x1
 13438 148a 2B       		.byte	0x2b
 13439 148b 00000000 		.4byte	.LFB63
 13440 148f 34010000 		.4byte	.LFE63-.LFB63
 13441 1493 01       		.uleb128 0x1
 13442 1494 9C       		.byte	0x9c
 13443 1495 DC140000 		.4byte	0x14dc
 13444 1499 24       		.uleb128 0x24
 13445 149a 3B230000 		.4byte	.LASF478
 13446 149e 01       		.byte	0x1
 13447 149f 2B       		.byte	0x2b
 13448 14a0 11010000 		.4byte	0x111
 13449 14a4 02       		.uleb128 0x2
 13450 14a5 91       		.byte	0x91
 13451 14a6 6C       		.sleb128 -20
 13452 14a7 25       		.uleb128 0x25
 13453 14a8 111F0000 		.4byte	.LASF473
 13454 14ac 01       		.byte	0x1
 13455 14ad 2D       		.byte	0x2d
ARM GAS  C:\Users\RECEPC~1\AppData\Local\Temp\cc7aDVfG.s 			page 287


 13456 14ae 730F0000 		.4byte	0xf73
 13457 14b2 02       		.uleb128 0x2
 13458 14b3 91       		.byte	0x91
 13459 14b4 74       		.sleb128 -12
 13460 14b5 26       		.uleb128 0x26
 13461 14b6 14000000 		.4byte	.LBB2
 13462 14ba 14010000 		.4byte	.LBE2-.LBB2
 13463 14be 25       		.uleb128 0x25
 13464 14bf 29050000 		.4byte	.LASF474
 13465 14c3 01       		.byte	0x1
 13466 14c4 30       		.byte	0x30
 13467 14c5 97000000 		.4byte	0x97
 13468 14c9 02       		.uleb128 0x2
 13469 14ca 91       		.byte	0x91
 13470 14cb 73       		.sleb128 -13
 13471 14cc 25       		.uleb128 0x25
 13472 14cd A9140000 		.4byte	.LASF475
 13473 14d1 01       		.byte	0x1
 13474 14d2 31       		.byte	0x31
 13475 14d3 97000000 		.4byte	0x97
 13476 14d7 02       		.uleb128 0x2
 13477 14d8 91       		.byte	0x91
 13478 14d9 72       		.sleb128 -14
 13479 14da 00       		.byte	0
 13480 14db 00       		.byte	0
 13481 14dc 27       		.uleb128 0x27
 13482 14dd 63100000 		.4byte	.LASF477
 13483 14e1 01       		.byte	0x1
 13484 14e2 5A       		.byte	0x5a
 13485 14e3 00000000 		.4byte	.LFB64
 13486 14e7 50000000 		.4byte	.LFE64-.LFB64
 13487 14eb 01       		.uleb128 0x1
 13488 14ec 9C       		.byte	0x9c
 13489 14ed 0E150000 		.4byte	0x150e
 13490 14f1 24       		.uleb128 0x24
 13491 14f2 3B230000 		.4byte	.LASF478
 13492 14f6 01       		.byte	0x1
 13493 14f7 5A       		.byte	0x5a
 13494 14f8 11010000 		.4byte	0x111
 13495 14fc 02       		.uleb128 0x2
 13496 14fd 91       		.byte	0x91
 13497 14fe 6C       		.sleb128 -20
 13498 14ff 25       		.uleb128 0x25
 13499 1500 111F0000 		.4byte	.LASF473
 13500 1504 01       		.byte	0x1
 13501 1505 5C       		.byte	0x5c
 13502 1506 730F0000 		.4byte	0xf73
 13503 150a 02       		.uleb128 0x2
 13504 150b 91       		.byte	0x91
 13505 150c 74       		.sleb128 -12
 13506 150d 00       		.byte	0
 13507 150e 23       		.uleb128 0x23
 13508 150f C90F0000 		.4byte	.LASF479
 13509 1513 01       		.byte	0x1
 13510 1514 66       		.byte	0x66
 13511 1515 00000000 		.4byte	.LFB65
 13512 1519 E0000000 		.4byte	.LFE65-.LFB65
ARM GAS  C:\Users\RECEPC~1\AppData\Local\Temp\cc7aDVfG.s 			page 288


 13513 151d 01       		.uleb128 0x1
 13514 151e 9C       		.byte	0x9c
 13515 151f 40150000 		.4byte	0x1540
 13516 1523 24       		.uleb128 0x24
 13517 1524 3B230000 		.4byte	.LASF478
 13518 1528 01       		.byte	0x1
 13519 1529 66       		.byte	0x66
 13520 152a 11010000 		.4byte	0x111
 13521 152e 02       		.uleb128 0x2
 13522 152f 91       		.byte	0x91
 13523 1530 64       		.sleb128 -28
 13524 1531 25       		.uleb128 0x25
 13525 1532 111F0000 		.4byte	.LASF473
 13526 1536 01       		.byte	0x1
 13527 1537 68       		.byte	0x68
 13528 1538 730F0000 		.4byte	0xf73
 13529 153c 02       		.uleb128 0x2
 13530 153d 91       		.byte	0x91
 13531 153e 6C       		.sleb128 -20
 13532 153f 00       		.byte	0
 13533 1540 23       		.uleb128 0x23
 13534 1541 C9220000 		.4byte	.LASF480
 13535 1545 01       		.byte	0x1
 13536 1546 78       		.byte	0x78
 13537 1547 00000000 		.4byte	.LFB66
 13538 154b 9A0F0000 		.4byte	.LFE66-.LFB66
 13539 154f 01       		.uleb128 0x1
 13540 1550 9C       		.byte	0x9c
 13541 1551 DC150000 		.4byte	0x15dc
 13542 1555 24       		.uleb128 0x24
 13543 1556 3B230000 		.4byte	.LASF478
 13544 155a 01       		.byte	0x1
 13545 155b 78       		.byte	0x78
 13546 155c 11010000 		.4byte	0x111
 13547 1560 02       		.uleb128 0x2
 13548 1561 91       		.byte	0x91
 13549 1562 5C       		.sleb128 -36
 13550 1563 25       		.uleb128 0x25
 13551 1564 111F0000 		.4byte	.LASF473
 13552 1568 01       		.byte	0x1
 13553 1569 7A       		.byte	0x7a
 13554 156a 730F0000 		.4byte	0xf73
 13555 156e 02       		.uleb128 0x2
 13556 156f 91       		.byte	0x91
 13557 1570 6C       		.sleb128 -20
 13558 1571 26       		.uleb128 0x26
 13559 1572 14000000 		.4byte	.LBB3
 13560 1576 800F0000 		.4byte	.LBE3-.LBB3
 13561 157a 25       		.uleb128 0x25
 13562 157b 56260000 		.4byte	.LASF481
 13563 157f 01       		.byte	0x1
 13564 1580 7E       		.byte	0x7e
 13565 1581 97000000 		.4byte	0x97
 13566 1585 02       		.uleb128 0x2
 13567 1586 91       		.byte	0x91
 13568 1587 6B       		.sleb128 -21
 13569 1588 25       		.uleb128 0x25
ARM GAS  C:\Users\RECEPC~1\AppData\Local\Temp\cc7aDVfG.s 			page 289


 13570 1589 4C070000 		.4byte	.LASF482
 13571 158d 01       		.byte	0x1
 13572 158e 7F       		.byte	0x7f
 13573 158f 97000000 		.4byte	0x97
 13574 1593 02       		.uleb128 0x2
 13575 1594 91       		.byte	0x91
 13576 1595 6A       		.sleb128 -22
 13577 1596 28       		.uleb128 0x28
 13578 1597 70747300 		.ascii	"pts\000"
 13579 159b 01       		.byte	0x1
 13580 159c 1E02     		.2byte	0x21e
 13581 159e 96090000 		.4byte	0x996
 13582 15a2 02       		.uleb128 0x2
 13583 15a3 91       		.byte	0x91
 13584 15a4 60       		.sleb128 -32
 13585 15a5 29       		.uleb128 0x29
 13586 15a6 A6000000 		.4byte	.LBB4
 13587 15aa 94010000 		.4byte	.LBE4-.LBB4
 13588 15ae C1150000 		.4byte	0x15c1
 13589 15b2 25       		.uleb128 0x25
 13590 15b3 FF0C0000 		.4byte	.LASF483
 13591 15b7 01       		.byte	0x1
 13592 15b8 93       		.byte	0x93
 13593 15b9 A3000000 		.4byte	0xa3
 13594 15bd 02       		.uleb128 0x2
 13595 15be 91       		.byte	0x91
 13596 15bf 68       		.sleb128 -24
 13597 15c0 00       		.byte	0
 13598 15c1 26       		.uleb128 0x26
 13599 15c2 94070000 		.4byte	.LBB5
 13600 15c6 BE010000 		.4byte	.LBE5-.LBB5
 13601 15ca 2A       		.uleb128 0x2a
 13602 15cb FF0C0000 		.4byte	.LASF483
 13603 15cf 01       		.byte	0x1
 13604 15d0 5701     		.2byte	0x157
 13605 15d2 A3000000 		.4byte	0xa3
 13606 15d6 02       		.uleb128 0x2
 13607 15d7 91       		.byte	0x91
 13608 15d8 66       		.sleb128 -26
 13609 15d9 00       		.byte	0
 13610 15da 00       		.byte	0
 13611 15db 00       		.byte	0
 13612 15dc 2B       		.uleb128 0x2b
 13613 15dd 7A1A0000 		.4byte	.LASF484
 13614 15e1 01       		.byte	0x1
 13615 15e2 3202     		.2byte	0x232
 13616 15e4 00000000 		.4byte	.LFB67
 13617 15e8 A8010000 		.4byte	.LFE67-.LFB67
 13618 15ec 01       		.uleb128 0x1
 13619 15ed 9C       		.byte	0x9c
 13620 15ee 66160000 		.4byte	0x1666
 13621 15f2 2C       		.uleb128 0x2c
 13622 15f3 3B230000 		.4byte	.LASF478
 13623 15f7 01       		.byte	0x1
 13624 15f8 3202     		.2byte	0x232
 13625 15fa 11010000 		.4byte	0x111
 13626 15fe 02       		.uleb128 0x2
ARM GAS  C:\Users\RECEPC~1\AppData\Local\Temp\cc7aDVfG.s 			page 290


 13627 15ff 91       		.byte	0x91
 13628 1600 64       		.sleb128 -28
 13629 1601 2A       		.uleb128 0x2a
 13630 1602 111F0000 		.4byte	.LASF473
 13631 1606 01       		.byte	0x1
 13632 1607 3402     		.2byte	0x234
 13633 1609 730F0000 		.4byte	0xf73
 13634 160d 02       		.uleb128 0x2
 13635 160e 91       		.byte	0x91
 13636 160f 74       		.sleb128 -12
 13637 1610 26       		.uleb128 0x26
 13638 1611 14000000 		.4byte	.LBB6
 13639 1615 8A010000 		.4byte	.LBE6-.LBB6
 13640 1619 2A       		.uleb128 0x2a
 13641 161a 9D040000 		.4byte	.LASF485
 13642 161e 01       		.byte	0x1
 13643 161f 3802     		.2byte	0x238
 13644 1621 49020000 		.4byte	0x249
 13645 1625 02       		.uleb128 0x2
 13646 1626 91       		.byte	0x91
 13647 1627 73       		.sleb128 -13
 13648 1628 2A       		.uleb128 0x2a
 13649 1629 711A0000 		.4byte	.LASF486
 13650 162d 01       		.byte	0x1
 13651 162e 3902     		.2byte	0x239
 13652 1630 97000000 		.4byte	0x97
 13653 1634 02       		.uleb128 0x2
 13654 1635 91       		.byte	0x91
 13655 1636 72       		.sleb128 -14
 13656 1637 2A       		.uleb128 0x2a
 13657 1638 DC250000 		.4byte	.LASF487
 13658 163c 01       		.byte	0x1
 13659 163d 4B02     		.2byte	0x24b
 13660 163f 49020000 		.4byte	0x249
 13661 1643 02       		.uleb128 0x2
 13662 1644 91       		.byte	0x91
 13663 1645 71       		.sleb128 -15
 13664 1646 28       		.uleb128 0x28
 13665 1647 70747300 		.ascii	"pts\000"
 13666 164b 01       		.byte	0x1
 13667 164c 4C02     		.2byte	0x24c
 13668 164e 96090000 		.4byte	0x996
 13669 1652 02       		.uleb128 0x2
 13670 1653 91       		.byte	0x91
 13671 1654 6C       		.sleb128 -20
 13672 1655 2A       		.uleb128 0x2a
 13673 1656 69150000 		.4byte	.LASF488
 13674 165a 01       		.byte	0x1
 13675 165b 4D02     		.2byte	0x24d
 13676 165d 96090000 		.4byte	0x996
 13677 1661 02       		.uleb128 0x2
 13678 1662 91       		.byte	0x91
 13679 1663 68       		.sleb128 -24
 13680 1664 00       		.byte	0
 13681 1665 00       		.byte	0
 13682 1666 2B       		.uleb128 0x2b
 13683 1667 C0000000 		.4byte	.LASF489
ARM GAS  C:\Users\RECEPC~1\AppData\Local\Temp\cc7aDVfG.s 			page 291


 13684 166b 01       		.byte	0x1
 13685 166c 6F02     		.2byte	0x26f
 13686 166e 00000000 		.4byte	.LFB68
 13687 1672 2C000000 		.4byte	.LFE68-.LFB68
 13688 1676 01       		.uleb128 0x1
 13689 1677 9C       		.byte	0x9c
 13690 1678 9B160000 		.4byte	0x169b
 13691 167c 2C       		.uleb128 0x2c
 13692 167d 3B230000 		.4byte	.LASF478
 13693 1681 01       		.byte	0x1
 13694 1682 6F02     		.2byte	0x26f
 13695 1684 11010000 		.4byte	0x111
 13696 1688 02       		.uleb128 0x2
 13697 1689 91       		.byte	0x91
 13698 168a 6C       		.sleb128 -20
 13699 168b 2A       		.uleb128 0x2a
 13700 168c 111F0000 		.4byte	.LASF473
 13701 1690 01       		.byte	0x1
 13702 1691 7102     		.2byte	0x271
 13703 1693 730F0000 		.4byte	0xf73
 13704 1697 02       		.uleb128 0x2
 13705 1698 91       		.byte	0x91
 13706 1699 74       		.sleb128 -12
 13707 169a 00       		.byte	0
 13708 169b 2D       		.uleb128 0x2d
 13709 169c FE280000 		.4byte	.LASF490
 13710 16a0 01       		.byte	0x1
 13711 16a1 B502     		.2byte	0x2b5
 13712 16a3 00000000 		.4byte	.LFB69
 13713 16a7 36000000 		.4byte	.LFE69-.LFB69
 13714 16ab 01       		.uleb128 0x1
 13715 16ac 9C       		.byte	0x9c
 13716 16ad D0160000 		.4byte	0x16d0
 13717 16b1 2C       		.uleb128 0x2c
 13718 16b2 3B230000 		.4byte	.LASF478
 13719 16b6 01       		.byte	0x1
 13720 16b7 B502     		.2byte	0x2b5
 13721 16b9 11010000 		.4byte	0x111
 13722 16bd 02       		.uleb128 0x2
 13723 16be 91       		.byte	0x91
 13724 16bf 6C       		.sleb128 -20
 13725 16c0 2A       		.uleb128 0x2a
 13726 16c1 111F0000 		.4byte	.LASF473
 13727 16c5 01       		.byte	0x1
 13728 16c6 B702     		.2byte	0x2b7
 13729 16c8 730F0000 		.4byte	0xf73
 13730 16cc 02       		.uleb128 0x2
 13731 16cd 91       		.byte	0x91
 13732 16ce 74       		.sleb128 -12
 13733 16cf 00       		.byte	0
 13734 16d0 2D       		.uleb128 0x2d
 13735 16d1 0A2A0000 		.4byte	.LASF491
 13736 16d5 01       		.byte	0x1
 13737 16d6 C602     		.2byte	0x2c6
 13738 16d8 00000000 		.4byte	.LFB70
 13739 16dc 36000000 		.4byte	.LFE70-.LFB70
 13740 16e0 01       		.uleb128 0x1
ARM GAS  C:\Users\RECEPC~1\AppData\Local\Temp\cc7aDVfG.s 			page 292


 13741 16e1 9C       		.byte	0x9c
 13742 16e2 05170000 		.4byte	0x1705
 13743 16e6 2C       		.uleb128 0x2c
 13744 16e7 3B230000 		.4byte	.LASF478
 13745 16eb 01       		.byte	0x1
 13746 16ec C602     		.2byte	0x2c6
 13747 16ee 11010000 		.4byte	0x111
 13748 16f2 02       		.uleb128 0x2
 13749 16f3 91       		.byte	0x91
 13750 16f4 6C       		.sleb128 -20
 13751 16f5 2A       		.uleb128 0x2a
 13752 16f6 111F0000 		.4byte	.LASF473
 13753 16fa 01       		.byte	0x1
 13754 16fb C802     		.2byte	0x2c8
 13755 16fd 730F0000 		.4byte	0xf73
 13756 1701 02       		.uleb128 0x2
 13757 1702 91       		.byte	0x91
 13758 1703 74       		.sleb128 -12
 13759 1704 00       		.byte	0
 13760 1705 2B       		.uleb128 0x2b
 13761 1706 E6100000 		.4byte	.LASF492
 13762 170a 01       		.byte	0x1
 13763 170b DB02     		.2byte	0x2db
 13764 170d 00000000 		.4byte	.LFB71
 13765 1711 82000000 		.4byte	.LFE71-.LFB71
 13766 1715 01       		.uleb128 0x1
 13767 1716 9C       		.byte	0x9c
 13768 1717 62170000 		.4byte	0x1762
 13769 171b 2C       		.uleb128 0x2c
 13770 171c 3B230000 		.4byte	.LASF478
 13771 1720 01       		.byte	0x1
 13772 1721 DB02     		.2byte	0x2db
 13773 1723 11010000 		.4byte	0x111
 13774 1727 02       		.uleb128 0x2
 13775 1728 91       		.byte	0x91
 13776 1729 64       		.sleb128 -28
 13777 172a 2A       		.uleb128 0x2a
 13778 172b 34000000 		.4byte	.LASF493
 13779 172f 01       		.byte	0x1
 13780 1730 DD02     		.2byte	0x2dd
 13781 1732 2B0D0000 		.4byte	0xd2b
 13782 1736 02       		.uleb128 0x2
 13783 1737 91       		.byte	0x91
 13784 1738 74       		.sleb128 -12
 13785 1739 26       		.uleb128 0x26
 13786 173a 12000000 		.4byte	.LBB7
 13787 173e 6A000000 		.4byte	.LBE7-.LBB7
 13788 1742 2A       		.uleb128 0x2a
 13789 1743 54250000 		.4byte	.LASF494
 13790 1747 01       		.byte	0x1
 13791 1748 E402     		.2byte	0x2e4
 13792 174a 81000000 		.4byte	0x81
 13793 174e 02       		.uleb128 0x2
 13794 174f 91       		.byte	0x91
 13795 1750 73       		.sleb128 -13
 13796 1751 2A       		.uleb128 0x2a
 13797 1752 D00C0000 		.4byte	.LASF495
ARM GAS  C:\Users\RECEPC~1\AppData\Local\Temp\cc7aDVfG.s 			page 293


 13798 1756 01       		.byte	0x1
 13799 1757 E602     		.2byte	0x2e6
 13800 1759 8C050000 		.4byte	0x58c
 13801 175d 02       		.uleb128 0x2
 13802 175e 91       		.byte	0x91
 13803 175f 6C       		.sleb128 -20
 13804 1760 00       		.byte	0
 13805 1761 00       		.byte	0
 13806 1762 2B       		.uleb128 0x2b
 13807 1763 F70A0000 		.4byte	.LASF496
 13808 1767 01       		.byte	0x1
 13809 1768 F602     		.2byte	0x2f6
 13810 176a 00000000 		.4byte	.LFB72
 13811 176e 70000000 		.4byte	.LFE72-.LFB72
 13812 1772 01       		.uleb128 0x1
 13813 1773 9C       		.byte	0x9c
 13814 1774 BF170000 		.4byte	0x17bf
 13815 1778 2C       		.uleb128 0x2c
 13816 1779 3B230000 		.4byte	.LASF478
 13817 177d 01       		.byte	0x1
 13818 177e F602     		.2byte	0x2f6
 13819 1780 11010000 		.4byte	0x111
 13820 1784 02       		.uleb128 0x2
 13821 1785 91       		.byte	0x91
 13822 1786 64       		.sleb128 -28
 13823 1787 2A       		.uleb128 0x2a
 13824 1788 34000000 		.4byte	.LASF493
 13825 178c 01       		.byte	0x1
 13826 178d F802     		.2byte	0x2f8
 13827 178f 2B0D0000 		.4byte	0xd2b
 13828 1793 02       		.uleb128 0x2
 13829 1794 91       		.byte	0x91
 13830 1795 74       		.sleb128 -12
 13831 1796 26       		.uleb128 0x26
 13832 1797 12000000 		.4byte	.LBB8
 13833 179b 58000000 		.4byte	.LBE8-.LBB8
 13834 179f 2A       		.uleb128 0x2a
 13835 17a0 54250000 		.4byte	.LASF494
 13836 17a4 01       		.byte	0x1
 13837 17a5 FB02     		.2byte	0x2fb
 13838 17a7 81000000 		.4byte	0x81
 13839 17ab 02       		.uleb128 0x2
 13840 17ac 91       		.byte	0x91
 13841 17ad 73       		.sleb128 -13
 13842 17ae 2A       		.uleb128 0x2a
 13843 17af D00C0000 		.4byte	.LASF495
 13844 17b3 01       		.byte	0x1
 13845 17b4 FD02     		.2byte	0x2fd
 13846 17b6 8C050000 		.4byte	0x58c
 13847 17ba 02       		.uleb128 0x2
 13848 17bb 91       		.byte	0x91
 13849 17bc 6C       		.sleb128 -20
 13850 17bd 00       		.byte	0
 13851 17be 00       		.byte	0
 13852 17bf 2B       		.uleb128 0x2b
 13853 17c0 59040000 		.4byte	.LASF497
 13854 17c4 01       		.byte	0x1
ARM GAS  C:\Users\RECEPC~1\AppData\Local\Temp\cc7aDVfG.s 			page 294


 13855 17c5 0D03     		.2byte	0x30d
 13856 17c7 00000000 		.4byte	.LFB73
 13857 17cb 60000000 		.4byte	.LFE73-.LFB73
 13858 17cf 01       		.uleb128 0x1
 13859 17d0 9C       		.byte	0x9c
 13860 17d1 1C180000 		.4byte	0x181c
 13861 17d5 2C       		.uleb128 0x2c
 13862 17d6 3B230000 		.4byte	.LASF478
 13863 17da 01       		.byte	0x1
 13864 17db 0D03     		.2byte	0x30d
 13865 17dd 11010000 		.4byte	0x111
 13866 17e1 02       		.uleb128 0x2
 13867 17e2 91       		.byte	0x91
 13868 17e3 64       		.sleb128 -28
 13869 17e4 2A       		.uleb128 0x2a
 13870 17e5 34000000 		.4byte	.LASF493
 13871 17e9 01       		.byte	0x1
 13872 17ea 0F03     		.2byte	0x30f
 13873 17ec 2B0D0000 		.4byte	0xd2b
 13874 17f0 02       		.uleb128 0x2
 13875 17f1 91       		.byte	0x91
 13876 17f2 74       		.sleb128 -12
 13877 17f3 26       		.uleb128 0x26
 13878 17f4 12000000 		.4byte	.LBB9
 13879 17f8 48000000 		.4byte	.LBE9-.LBB9
 13880 17fc 2A       		.uleb128 0x2a
 13881 17fd 54250000 		.4byte	.LASF494
 13882 1801 01       		.byte	0x1
 13883 1802 1203     		.2byte	0x312
 13884 1804 81000000 		.4byte	0x81
 13885 1808 02       		.uleb128 0x2
 13886 1809 91       		.byte	0x91
 13887 180a 73       		.sleb128 -13
 13888 180b 2A       		.uleb128 0x2a
 13889 180c D00C0000 		.4byte	.LASF495
 13890 1810 01       		.byte	0x1
 13891 1811 1403     		.2byte	0x314
 13892 1813 8C050000 		.4byte	0x58c
 13893 1817 02       		.uleb128 0x2
 13894 1818 91       		.byte	0x91
 13895 1819 6C       		.sleb128 -20
 13896 181a 00       		.byte	0
 13897 181b 00       		.byte	0
 13898 181c 2B       		.uleb128 0x2b
 13899 181d 41250000 		.4byte	.LASF498
 13900 1821 01       		.byte	0x1
 13901 1822 2003     		.2byte	0x320
 13902 1824 00000000 		.4byte	.LFB74
 13903 1828 6A000000 		.4byte	.LFE74-.LFB74
 13904 182c 01       		.uleb128 0x1
 13905 182d 9C       		.byte	0x9c
 13906 182e 79180000 		.4byte	0x1879
 13907 1832 2C       		.uleb128 0x2c
 13908 1833 3B230000 		.4byte	.LASF478
 13909 1837 01       		.byte	0x1
 13910 1838 2003     		.2byte	0x320
 13911 183a 11010000 		.4byte	0x111
ARM GAS  C:\Users\RECEPC~1\AppData\Local\Temp\cc7aDVfG.s 			page 295


 13912 183e 02       		.uleb128 0x2
 13913 183f 91       		.byte	0x91
 13914 1840 64       		.sleb128 -28
 13915 1841 2A       		.uleb128 0x2a
 13916 1842 34000000 		.4byte	.LASF493
 13917 1846 01       		.byte	0x1
 13918 1847 2203     		.2byte	0x322
 13919 1849 2B0D0000 		.4byte	0xd2b
 13920 184d 02       		.uleb128 0x2
 13921 184e 91       		.byte	0x91
 13922 184f 74       		.sleb128 -12
 13923 1850 26       		.uleb128 0x26
 13924 1851 12000000 		.4byte	.LBB10
 13925 1855 52000000 		.4byte	.LBE10-.LBB10
 13926 1859 2A       		.uleb128 0x2a
 13927 185a 54250000 		.4byte	.LASF494
 13928 185e 01       		.byte	0x1
 13929 185f 2503     		.2byte	0x325
 13930 1861 81000000 		.4byte	0x81
 13931 1865 02       		.uleb128 0x2
 13932 1866 91       		.byte	0x91
 13933 1867 73       		.sleb128 -13
 13934 1868 2A       		.uleb128 0x2a
 13935 1869 D00C0000 		.4byte	.LASF495
 13936 186d 01       		.byte	0x1
 13937 186e 2703     		.2byte	0x327
 13938 1870 8C050000 		.4byte	0x58c
 13939 1874 02       		.uleb128 0x2
 13940 1875 91       		.byte	0x91
 13941 1876 6C       		.sleb128 -20
 13942 1877 00       		.byte	0
 13943 1878 00       		.byte	0
 13944 1879 2B       		.uleb128 0x2b
 13945 187a 9C250000 		.4byte	.LASF499
 13946 187e 01       		.byte	0x1
 13947 187f 3403     		.2byte	0x334
 13948 1881 00000000 		.4byte	.LFB75
 13949 1885 6A000000 		.4byte	.LFE75-.LFB75
 13950 1889 01       		.uleb128 0x1
 13951 188a 9C       		.byte	0x9c
 13952 188b D6180000 		.4byte	0x18d6
 13953 188f 2C       		.uleb128 0x2c
 13954 1890 3B230000 		.4byte	.LASF478
 13955 1894 01       		.byte	0x1
 13956 1895 3403     		.2byte	0x334
 13957 1897 11010000 		.4byte	0x111
 13958 189b 02       		.uleb128 0x2
 13959 189c 91       		.byte	0x91
 13960 189d 64       		.sleb128 -28
 13961 189e 2A       		.uleb128 0x2a
 13962 189f 34000000 		.4byte	.LASF493
 13963 18a3 01       		.byte	0x1
 13964 18a4 3603     		.2byte	0x336
 13965 18a6 2B0D0000 		.4byte	0xd2b
 13966 18aa 02       		.uleb128 0x2
 13967 18ab 91       		.byte	0x91
 13968 18ac 74       		.sleb128 -12
ARM GAS  C:\Users\RECEPC~1\AppData\Local\Temp\cc7aDVfG.s 			page 296


 13969 18ad 26       		.uleb128 0x26
 13970 18ae 12000000 		.4byte	.LBB11
 13971 18b2 52000000 		.4byte	.LBE11-.LBB11
 13972 18b6 2A       		.uleb128 0x2a
 13973 18b7 54250000 		.4byte	.LASF494
 13974 18bb 01       		.byte	0x1
 13975 18bc 3903     		.2byte	0x339
 13976 18be 81000000 		.4byte	0x81
 13977 18c2 02       		.uleb128 0x2
 13978 18c3 91       		.byte	0x91
 13979 18c4 73       		.sleb128 -13
 13980 18c5 2A       		.uleb128 0x2a
 13981 18c6 D00C0000 		.4byte	.LASF495
 13982 18ca 01       		.byte	0x1
 13983 18cb 3B03     		.2byte	0x33b
 13984 18cd 8C050000 		.4byte	0x58c
 13985 18d1 02       		.uleb128 0x2
 13986 18d2 91       		.byte	0x91
 13987 18d3 6C       		.sleb128 -20
 13988 18d4 00       		.byte	0
 13989 18d5 00       		.byte	0
 13990 18d6 2B       		.uleb128 0x2b
 13991 18d7 CC030000 		.4byte	.LASF500
 13992 18db 01       		.byte	0x1
 13993 18dc 4903     		.2byte	0x349
 13994 18de 00000000 		.4byte	.LFB76
 13995 18e2 6A000000 		.4byte	.LFE76-.LFB76
 13996 18e6 01       		.uleb128 0x1
 13997 18e7 9C       		.byte	0x9c
 13998 18e8 33190000 		.4byte	0x1933
 13999 18ec 2C       		.uleb128 0x2c
 14000 18ed 3B230000 		.4byte	.LASF478
 14001 18f1 01       		.byte	0x1
 14002 18f2 4903     		.2byte	0x349
 14003 18f4 11010000 		.4byte	0x111
 14004 18f8 02       		.uleb128 0x2
 14005 18f9 91       		.byte	0x91
 14006 18fa 64       		.sleb128 -28
 14007 18fb 2A       		.uleb128 0x2a
 14008 18fc 34000000 		.4byte	.LASF493
 14009 1900 01       		.byte	0x1
 14010 1901 4B03     		.2byte	0x34b
 14011 1903 2B0D0000 		.4byte	0xd2b
 14012 1907 02       		.uleb128 0x2
 14013 1908 91       		.byte	0x91
 14014 1909 74       		.sleb128 -12
 14015 190a 26       		.uleb128 0x26
 14016 190b 12000000 		.4byte	.LBB12
 14017 190f 52000000 		.4byte	.LBE12-.LBB12
 14018 1913 2A       		.uleb128 0x2a
 14019 1914 54250000 		.4byte	.LASF494
 14020 1918 01       		.byte	0x1
 14021 1919 4E03     		.2byte	0x34e
 14022 191b 81000000 		.4byte	0x81
 14023 191f 02       		.uleb128 0x2
 14024 1920 91       		.byte	0x91
 14025 1921 73       		.sleb128 -13
ARM GAS  C:\Users\RECEPC~1\AppData\Local\Temp\cc7aDVfG.s 			page 297


 14026 1922 2A       		.uleb128 0x2a
 14027 1923 D00C0000 		.4byte	.LASF495
 14028 1927 01       		.byte	0x1
 14029 1928 5003     		.2byte	0x350
 14030 192a 8C050000 		.4byte	0x58c
 14031 192e 02       		.uleb128 0x2
 14032 192f 91       		.byte	0x91
 14033 1930 6C       		.sleb128 -20
 14034 1931 00       		.byte	0
 14035 1932 00       		.byte	0
 14036 1933 2B       		.uleb128 0x2b
 14037 1934 4F0E0000 		.4byte	.LASF501
 14038 1938 01       		.byte	0x1
 14039 1939 5E03     		.2byte	0x35e
 14040 193b 00000000 		.4byte	.LFB77
 14041 193f 6A000000 		.4byte	.LFE77-.LFB77
 14042 1943 01       		.uleb128 0x1
 14043 1944 9C       		.byte	0x9c
 14044 1945 90190000 		.4byte	0x1990
 14045 1949 2C       		.uleb128 0x2c
 14046 194a 3B230000 		.4byte	.LASF478
 14047 194e 01       		.byte	0x1
 14048 194f 5E03     		.2byte	0x35e
 14049 1951 11010000 		.4byte	0x111
 14050 1955 02       		.uleb128 0x2
 14051 1956 91       		.byte	0x91
 14052 1957 64       		.sleb128 -28
 14053 1958 2A       		.uleb128 0x2a
 14054 1959 34000000 		.4byte	.LASF493
 14055 195d 01       		.byte	0x1
 14056 195e 6003     		.2byte	0x360
 14057 1960 2B0D0000 		.4byte	0xd2b
 14058 1964 02       		.uleb128 0x2
 14059 1965 91       		.byte	0x91
 14060 1966 74       		.sleb128 -12
 14061 1967 26       		.uleb128 0x26
 14062 1968 12000000 		.4byte	.LBB13
 14063 196c 52000000 		.4byte	.LBE13-.LBB13
 14064 1970 2A       		.uleb128 0x2a
 14065 1971 54250000 		.4byte	.LASF494
 14066 1975 01       		.byte	0x1
 14067 1976 6303     		.2byte	0x363
 14068 1978 81000000 		.4byte	0x81
 14069 197c 02       		.uleb128 0x2
 14070 197d 91       		.byte	0x91
 14071 197e 73       		.sleb128 -13
 14072 197f 2A       		.uleb128 0x2a
 14073 1980 D00C0000 		.4byte	.LASF495
 14074 1984 01       		.byte	0x1
 14075 1985 6503     		.2byte	0x365
 14076 1987 8C050000 		.4byte	0x58c
 14077 198b 02       		.uleb128 0x2
 14078 198c 91       		.byte	0x91
 14079 198d 6C       		.sleb128 -20
 14080 198e 00       		.byte	0
 14081 198f 00       		.byte	0
 14082 1990 2B       		.uleb128 0x2b
ARM GAS  C:\Users\RECEPC~1\AppData\Local\Temp\cc7aDVfG.s 			page 298


 14083 1991 461B0000 		.4byte	.LASF502
 14084 1995 01       		.byte	0x1
 14085 1996 7603     		.2byte	0x376
 14086 1998 00000000 		.4byte	.LFB78
 14087 199c AA030000 		.4byte	.LFE78-.LFB78
 14088 19a0 01       		.uleb128 0x1
 14089 19a1 9C       		.byte	0x9c
 14090 19a2 861A0000 		.4byte	0x1a86
 14091 19a6 2C       		.uleb128 0x2c
 14092 19a7 3B230000 		.4byte	.LASF478
 14093 19ab 01       		.byte	0x1
 14094 19ac 7603     		.2byte	0x376
 14095 19ae 11010000 		.4byte	0x111
 14096 19b2 02       		.uleb128 0x2
 14097 19b3 91       		.byte	0x91
 14098 19b4 4C       		.sleb128 -52
 14099 19b5 2A       		.uleb128 0x2a
 14100 19b6 34000000 		.4byte	.LASF493
 14101 19ba 01       		.byte	0x1
 14102 19bb 7803     		.2byte	0x378
 14103 19bd 2B0D0000 		.4byte	0xd2b
 14104 19c1 02       		.uleb128 0x2
 14105 19c2 91       		.byte	0x91
 14106 19c3 68       		.sleb128 -24
 14107 19c4 26       		.uleb128 0x26
 14108 19c5 14000000 		.4byte	.LBB14
 14109 19c9 90030000 		.4byte	.LBE14-.LBB14
 14110 19cd 2A       		.uleb128 0x2a
 14111 19ce 54250000 		.4byte	.LASF494
 14112 19d2 01       		.byte	0x1
 14113 19d3 7B03     		.2byte	0x37b
 14114 19d5 81000000 		.4byte	0x81
 14115 19d9 02       		.uleb128 0x2
 14116 19da 91       		.byte	0x91
 14117 19db 6F       		.sleb128 -17
 14118 19dc 2A       		.uleb128 0x2a
 14119 19dd D00C0000 		.4byte	.LASF495
 14120 19e1 01       		.byte	0x1
 14121 19e2 7C03     		.2byte	0x37c
 14122 19e4 8C050000 		.4byte	0x58c
 14123 19e8 02       		.uleb128 0x2
 14124 19e9 91       		.byte	0x91
 14125 19ea 64       		.sleb128 -28
 14126 19eb 29       		.uleb128 0x29
 14127 19ec 5A000000 		.4byte	.LBB15
 14128 19f0 A8010000 		.4byte	.LBE15-.LBB15
 14129 19f4 4D1A0000 		.4byte	0x1a4d
 14130 19f8 2A       		.uleb128 0x2a
 14131 19f9 A3260000 		.4byte	.LASF503
 14132 19fd 01       		.byte	0x1
 14133 19fe 8403     		.2byte	0x384
 14134 1a00 97000000 		.4byte	0x97
 14135 1a04 02       		.uleb128 0x2
 14136 1a05 91       		.byte	0x91
 14137 1a06 63       		.sleb128 -29
 14138 1a07 28       		.uleb128 0x28
 14139 1a08 70747200 		.ascii	"ptr\000"
ARM GAS  C:\Users\RECEPC~1\AppData\Local\Temp\cc7aDVfG.s 			page 299


 14140 1a0c 01       		.byte	0x1
 14141 1a0d 9903     		.2byte	0x399
 14142 1a0f 3B010000 		.4byte	0x13b
 14143 1a13 02       		.uleb128 0x2
 14144 1a14 91       		.byte	0x91
 14145 1a15 5C       		.sleb128 -36
 14146 1a16 29       		.uleb128 0x29
 14147 1a17 54010000 		.4byte	.LBB16
 14148 1a1b 4E000000 		.4byte	.LBE16-.LBB16
 14149 1a1f 331A0000 		.4byte	0x1a33
 14150 1a23 2A       		.uleb128 0x2a
 14151 1a24 43160000 		.4byte	.LASF504
 14152 1a28 01       		.byte	0x1
 14153 1a29 9E03     		.2byte	0x39e
 14154 1a2b 97000000 		.4byte	0x97
 14155 1a2f 02       		.uleb128 0x2
 14156 1a30 91       		.byte	0x91
 14157 1a31 6E       		.sleb128 -18
 14158 1a32 00       		.byte	0
 14159 1a33 26       		.uleb128 0x26
 14160 1a34 A4010000 		.4byte	.LBB17
 14161 1a38 5E000000 		.4byte	.LBE17-.LBB17
 14162 1a3c 2A       		.uleb128 0x2a
 14163 1a3d 43160000 		.4byte	.LASF504
 14164 1a41 01       		.byte	0x1
 14165 1a42 A603     		.2byte	0x3a6
 14166 1a44 97000000 		.4byte	0x97
 14167 1a48 02       		.uleb128 0x2
 14168 1a49 91       		.byte	0x91
 14169 1a4a 6D       		.sleb128 -19
 14170 1a4b 00       		.byte	0
 14171 1a4c 00       		.byte	0
 14172 1a4d 26       		.uleb128 0x26
 14173 1a4e 0E020000 		.4byte	.LBB18
 14174 1a52 38010000 		.4byte	.LBE18-.LBB18
 14175 1a56 2A       		.uleb128 0x2a
 14176 1a57 A3260000 		.4byte	.LASF503
 14177 1a5b 01       		.byte	0x1
 14178 1a5c B003     		.2byte	0x3b0
 14179 1a5e 97000000 		.4byte	0x97
 14180 1a62 02       		.uleb128 0x2
 14181 1a63 91       		.byte	0x91
 14182 1a64 5B       		.sleb128 -37
 14183 1a65 28       		.uleb128 0x28
 14184 1a66 70747200 		.ascii	"ptr\000"
 14185 1a6a 01       		.byte	0x1
 14186 1a6b BE03     		.2byte	0x3be
 14187 1a6d 3B010000 		.4byte	0x13b
 14188 1a71 02       		.uleb128 0x2
 14189 1a72 91       		.byte	0x91
 14190 1a73 54       		.sleb128 -44
 14191 1a74 2A       		.uleb128 0x2a
 14192 1a75 43160000 		.4byte	.LASF504
 14193 1a79 01       		.byte	0x1
 14194 1a7a C403     		.2byte	0x3c4
 14195 1a7c 97000000 		.4byte	0x97
 14196 1a80 02       		.uleb128 0x2
ARM GAS  C:\Users\RECEPC~1\AppData\Local\Temp\cc7aDVfG.s 			page 300


 14197 1a81 91       		.byte	0x91
 14198 1a82 6C       		.sleb128 -20
 14199 1a83 00       		.byte	0
 14200 1a84 00       		.byte	0
 14201 1a85 00       		.byte	0
 14202 1a86 2B       		.uleb128 0x2b
 14203 1a87 BA080000 		.4byte	.LASF505
 14204 1a8b 01       		.byte	0x1
 14205 1a8c DF03     		.2byte	0x3df
 14206 1a8e 00000000 		.4byte	.LFB79
 14207 1a92 AC030000 		.4byte	.LFE79-.LFB79
 14208 1a96 01       		.uleb128 0x1
 14209 1a97 9C       		.byte	0x9c
 14210 1a98 7C1B0000 		.4byte	0x1b7c
 14211 1a9c 2C       		.uleb128 0x2c
 14212 1a9d 3B230000 		.4byte	.LASF478
 14213 1aa1 01       		.byte	0x1
 14214 1aa2 DF03     		.2byte	0x3df
 14215 1aa4 11010000 		.4byte	0x111
 14216 1aa8 02       		.uleb128 0x2
 14217 1aa9 91       		.byte	0x91
 14218 1aaa 4C       		.sleb128 -52
 14219 1aab 2A       		.uleb128 0x2a
 14220 1aac 34000000 		.4byte	.LASF493
 14221 1ab0 01       		.byte	0x1
 14222 1ab1 E103     		.2byte	0x3e1
 14223 1ab3 2B0D0000 		.4byte	0xd2b
 14224 1ab7 02       		.uleb128 0x2
 14225 1ab8 91       		.byte	0x91
 14226 1ab9 68       		.sleb128 -24
 14227 1aba 26       		.uleb128 0x26
 14228 1abb 14000000 		.4byte	.LBB19
 14229 1abf 92030000 		.4byte	.LBE19-.LBB19
 14230 1ac3 2A       		.uleb128 0x2a
 14231 1ac4 54250000 		.4byte	.LASF494
 14232 1ac8 01       		.byte	0x1
 14233 1ac9 E403     		.2byte	0x3e4
 14234 1acb 81000000 		.4byte	0x81
 14235 1acf 02       		.uleb128 0x2
 14236 1ad0 91       		.byte	0x91
 14237 1ad1 6F       		.sleb128 -17
 14238 1ad2 2A       		.uleb128 0x2a
 14239 1ad3 D00C0000 		.4byte	.LASF495
 14240 1ad7 01       		.byte	0x1
 14241 1ad8 E503     		.2byte	0x3e5
 14242 1ada 8C050000 		.4byte	0x58c
 14243 1ade 02       		.uleb128 0x2
 14244 1adf 91       		.byte	0x91
 14245 1ae0 64       		.sleb128 -28
 14246 1ae1 29       		.uleb128 0x29
 14247 1ae2 5A000000 		.4byte	.LBB20
 14248 1ae6 BA010000 		.4byte	.LBE20-.LBB20
 14249 1aea 431B0000 		.4byte	0x1b43
 14250 1aee 2A       		.uleb128 0x2a
 14251 1aef A3260000 		.4byte	.LASF503
 14252 1af3 01       		.byte	0x1
 14253 1af4 ED03     		.2byte	0x3ed
ARM GAS  C:\Users\RECEPC~1\AppData\Local\Temp\cc7aDVfG.s 			page 301


 14254 1af6 97000000 		.4byte	0x97
 14255 1afa 02       		.uleb128 0x2
 14256 1afb 91       		.byte	0x91
 14257 1afc 63       		.sleb128 -29
 14258 1afd 28       		.uleb128 0x28
 14259 1afe 70747200 		.ascii	"ptr\000"
 14260 1b02 01       		.byte	0x1
 14261 1b03 0104     		.2byte	0x401
 14262 1b05 3B010000 		.4byte	0x13b
 14263 1b09 02       		.uleb128 0x2
 14264 1b0a 91       		.byte	0x91
 14265 1b0b 5C       		.sleb128 -36
 14266 1b0c 29       		.uleb128 0x29
 14267 1b0d 5A010000 		.4byte	.LBB21
 14268 1b11 54000000 		.4byte	.LBE21-.LBB21
 14269 1b15 291B0000 		.4byte	0x1b29
 14270 1b19 2A       		.uleb128 0x2a
 14271 1b1a 43160000 		.4byte	.LASF504
 14272 1b1e 01       		.byte	0x1
 14273 1b1f 0604     		.2byte	0x406
 14274 1b21 97000000 		.4byte	0x97
 14275 1b25 02       		.uleb128 0x2
 14276 1b26 91       		.byte	0x91
 14277 1b27 6E       		.sleb128 -18
 14278 1b28 00       		.byte	0
 14279 1b29 26       		.uleb128 0x26
 14280 1b2a B0010000 		.4byte	.LBB22
 14281 1b2e 64000000 		.4byte	.LBE22-.LBB22
 14282 1b32 2A       		.uleb128 0x2a
 14283 1b33 43160000 		.4byte	.LASF504
 14284 1b37 01       		.byte	0x1
 14285 1b38 0E04     		.2byte	0x40e
 14286 1b3a 97000000 		.4byte	0x97
 14287 1b3e 02       		.uleb128 0x2
 14288 1b3f 91       		.byte	0x91
 14289 1b40 6D       		.sleb128 -19
 14290 1b41 00       		.byte	0
 14291 1b42 00       		.byte	0
 14292 1b43 26       		.uleb128 0x26
 14293 1b44 20020000 		.4byte	.LBB23
 14294 1b48 28010000 		.4byte	.LBE23-.LBB23
 14295 1b4c 2A       		.uleb128 0x2a
 14296 1b4d A3260000 		.4byte	.LASF503
 14297 1b51 01       		.byte	0x1
 14298 1b52 1804     		.2byte	0x418
 14299 1b54 97000000 		.4byte	0x97
 14300 1b58 02       		.uleb128 0x2
 14301 1b59 91       		.byte	0x91
 14302 1b5a 5B       		.sleb128 -37
 14303 1b5b 28       		.uleb128 0x28
 14304 1b5c 70747200 		.ascii	"ptr\000"
 14305 1b60 01       		.byte	0x1
 14306 1b61 2504     		.2byte	0x425
 14307 1b63 3B010000 		.4byte	0x13b
 14308 1b67 02       		.uleb128 0x2
 14309 1b68 91       		.byte	0x91
 14310 1b69 54       		.sleb128 -44
ARM GAS  C:\Users\RECEPC~1\AppData\Local\Temp\cc7aDVfG.s 			page 302


 14311 1b6a 2A       		.uleb128 0x2a
 14312 1b6b 43160000 		.4byte	.LASF504
 14313 1b6f 01       		.byte	0x1
 14314 1b70 2B04     		.2byte	0x42b
 14315 1b72 97000000 		.4byte	0x97
 14316 1b76 02       		.uleb128 0x2
 14317 1b77 91       		.byte	0x91
 14318 1b78 6C       		.sleb128 -20
 14319 1b79 00       		.byte	0
 14320 1b7a 00       		.byte	0
 14321 1b7b 00       		.byte	0
 14322 1b7c 2B       		.uleb128 0x2b
 14323 1b7d 83030000 		.4byte	.LASF506
 14324 1b81 01       		.byte	0x1
 14325 1b82 4504     		.2byte	0x445
 14326 1b84 00000000 		.4byte	.LFB80
 14327 1b88 C4020000 		.4byte	.LFE80-.LFB80
 14328 1b8c 01       		.uleb128 0x1
 14329 1b8d 9C       		.byte	0x9c
 14330 1b8e 721C0000 		.4byte	0x1c72
 14331 1b92 2C       		.uleb128 0x2c
 14332 1b93 3B230000 		.4byte	.LASF478
 14333 1b97 01       		.byte	0x1
 14334 1b98 4504     		.2byte	0x445
 14335 1b9a 11010000 		.4byte	0x111
 14336 1b9e 02       		.uleb128 0x2
 14337 1b9f 91       		.byte	0x91
 14338 1ba0 4C       		.sleb128 -52
 14339 1ba1 2A       		.uleb128 0x2a
 14340 1ba2 34000000 		.4byte	.LASF493
 14341 1ba6 01       		.byte	0x1
 14342 1ba7 4704     		.2byte	0x447
 14343 1ba9 2B0D0000 		.4byte	0xd2b
 14344 1bad 02       		.uleb128 0x2
 14345 1bae 91       		.byte	0x91
 14346 1baf 68       		.sleb128 -24
 14347 1bb0 26       		.uleb128 0x26
 14348 1bb1 14000000 		.4byte	.LBB24
 14349 1bb5 A6020000 		.4byte	.LBE24-.LBB24
 14350 1bb9 2A       		.uleb128 0x2a
 14351 1bba 54250000 		.4byte	.LASF494
 14352 1bbe 01       		.byte	0x1
 14353 1bbf 4A04     		.2byte	0x44a
 14354 1bc1 81000000 		.4byte	0x81
 14355 1bc5 02       		.uleb128 0x2
 14356 1bc6 91       		.byte	0x91
 14357 1bc7 6F       		.sleb128 -17
 14358 1bc8 2A       		.uleb128 0x2a
 14359 1bc9 D00C0000 		.4byte	.LASF495
 14360 1bcd 01       		.byte	0x1
 14361 1bce 4C04     		.2byte	0x44c
 14362 1bd0 8C050000 		.4byte	0x58c
 14363 1bd4 02       		.uleb128 0x2
 14364 1bd5 91       		.byte	0x91
 14365 1bd6 64       		.sleb128 -28
 14366 1bd7 29       		.uleb128 0x29
 14367 1bd8 5A000000 		.4byte	.LBB25
ARM GAS  C:\Users\RECEPC~1\AppData\Local\Temp\cc7aDVfG.s 			page 303


 14368 1bdc 30010000 		.4byte	.LBE25-.LBB25
 14369 1be0 391C0000 		.4byte	0x1c39
 14370 1be4 2A       		.uleb128 0x2a
 14371 1be5 A3260000 		.4byte	.LASF503
 14372 1be9 01       		.byte	0x1
 14373 1bea 5304     		.2byte	0x453
 14374 1bec 97000000 		.4byte	0x97
 14375 1bf0 02       		.uleb128 0x2
 14376 1bf1 91       		.byte	0x91
 14377 1bf2 63       		.sleb128 -29
 14378 1bf3 28       		.uleb128 0x28
 14379 1bf4 70747200 		.ascii	"ptr\000"
 14380 1bf8 01       		.byte	0x1
 14381 1bf9 6104     		.2byte	0x461
 14382 1bfb 3B010000 		.4byte	0x13b
 14383 1bff 02       		.uleb128 0x2
 14384 1c00 91       		.byte	0x91
 14385 1c01 5C       		.sleb128 -36
 14386 1c02 29       		.uleb128 0x29
 14387 1c03 D0000000 		.4byte	.LBB26
 14388 1c07 54000000 		.4byte	.LBE26-.LBB26
 14389 1c0b 1F1C0000 		.4byte	0x1c1f
 14390 1c0f 2A       		.uleb128 0x2a
 14391 1c10 43160000 		.4byte	.LASF504
 14392 1c14 01       		.byte	0x1
 14393 1c15 6604     		.2byte	0x466
 14394 1c17 97000000 		.4byte	0x97
 14395 1c1b 02       		.uleb128 0x2
 14396 1c1c 91       		.byte	0x91
 14397 1c1d 6E       		.sleb128 -18
 14398 1c1e 00       		.byte	0
 14399 1c1f 26       		.uleb128 0x26
 14400 1c20 26010000 		.4byte	.LBB27
 14401 1c24 64000000 		.4byte	.LBE27-.LBB27
 14402 1c28 2A       		.uleb128 0x2a
 14403 1c29 43160000 		.4byte	.LASF504
 14404 1c2d 01       		.byte	0x1
 14405 1c2e 6E04     		.2byte	0x46e
 14406 1c30 97000000 		.4byte	0x97
 14407 1c34 02       		.uleb128 0x2
 14408 1c35 91       		.byte	0x91
 14409 1c36 6D       		.sleb128 -19
 14410 1c37 00       		.byte	0
 14411 1c38 00       		.byte	0
 14412 1c39 26       		.uleb128 0x26
 14413 1c3a 94010000 		.4byte	.LBB28
 14414 1c3e C8000000 		.4byte	.LBE28-.LBB28
 14415 1c42 2A       		.uleb128 0x2a
 14416 1c43 A3260000 		.4byte	.LASF503
 14417 1c47 01       		.byte	0x1
 14418 1c48 7804     		.2byte	0x478
 14419 1c4a 97000000 		.4byte	0x97
 14420 1c4e 02       		.uleb128 0x2
 14421 1c4f 91       		.byte	0x91
 14422 1c50 5B       		.sleb128 -37
 14423 1c51 28       		.uleb128 0x28
 14424 1c52 70747200 		.ascii	"ptr\000"
ARM GAS  C:\Users\RECEPC~1\AppData\Local\Temp\cc7aDVfG.s 			page 304


 14425 1c56 01       		.byte	0x1
 14426 1c57 7F04     		.2byte	0x47f
 14427 1c59 3B010000 		.4byte	0x13b
 14428 1c5d 02       		.uleb128 0x2
 14429 1c5e 91       		.byte	0x91
 14430 1c5f 54       		.sleb128 -44
 14431 1c60 2A       		.uleb128 0x2a
 14432 1c61 43160000 		.4byte	.LASF504
 14433 1c65 01       		.byte	0x1
 14434 1c66 8504     		.2byte	0x485
 14435 1c68 97000000 		.4byte	0x97
 14436 1c6c 02       		.uleb128 0x2
 14437 1c6d 91       		.byte	0x91
 14438 1c6e 6C       		.sleb128 -20
 14439 1c6f 00       		.byte	0
 14440 1c70 00       		.byte	0
 14441 1c71 00       		.byte	0
 14442 1c72 2B       		.uleb128 0x2b
 14443 1c73 480F0000 		.4byte	.LASF507
 14444 1c77 01       		.byte	0x1
 14445 1c78 9904     		.2byte	0x499
 14446 1c7a 00000000 		.4byte	.LFB81
 14447 1c7e 14020000 		.4byte	.LFE81-.LFB81
 14448 1c82 01       		.uleb128 0x1
 14449 1c83 9C       		.byte	0x9c
 14450 1c84 011D0000 		.4byte	0x1d01
 14451 1c88 2C       		.uleb128 0x2c
 14452 1c89 3B230000 		.4byte	.LASF478
 14453 1c8d 01       		.byte	0x1
 14454 1c8e 9904     		.2byte	0x499
 14455 1c90 30010000 		.4byte	0x130
 14456 1c94 02       		.uleb128 0x2
 14457 1c95 91       		.byte	0x91
 14458 1c96 54       		.sleb128 -44
 14459 1c97 2A       		.uleb128 0x2a
 14460 1c98 111F0000 		.4byte	.LASF473
 14461 1c9c 01       		.byte	0x1
 14462 1c9d 9B04     		.2byte	0x49b
 14463 1c9f 730F0000 		.4byte	0xf73
 14464 1ca3 02       		.uleb128 0x2
 14465 1ca4 91       		.byte	0x91
 14466 1ca5 6C       		.sleb128 -20
 14467 1ca6 26       		.uleb128 0x26
 14468 1ca7 14000000 		.4byte	.LBB29
 14469 1cab FA010000 		.4byte	.LBE29-.LBB29
 14470 1caf 28       		.uleb128 0x28
 14471 1cb0 70747300 		.ascii	"pts\000"
 14472 1cb4 01       		.byte	0x1
 14473 1cb5 A204     		.2byte	0x4a2
 14474 1cb7 96090000 		.4byte	0x996
 14475 1cbb 02       		.uleb128 0x2
 14476 1cbc 91       		.byte	0x91
 14477 1cbd 68       		.sleb128 -24
 14478 1cbe 26       		.uleb128 0x26
 14479 1cbf 4E000000 		.4byte	.LBB30
 14480 1cc3 C0010000 		.4byte	.LBE30-.LBB30
 14481 1cc7 2A       		.uleb128 0x2a
ARM GAS  C:\Users\RECEPC~1\AppData\Local\Temp\cc7aDVfG.s 			page 305


 14482 1cc8 54250000 		.4byte	.LASF494
 14483 1ccc 01       		.byte	0x1
 14484 1ccd A604     		.2byte	0x4a6
 14485 1ccf 97000000 		.4byte	0x97
 14486 1cd3 02       		.uleb128 0x2
 14487 1cd4 91       		.byte	0x91
 14488 1cd5 67       		.sleb128 -25
 14489 1cd6 2A       		.uleb128 0x2a
 14490 1cd7 69150000 		.4byte	.LASF488
 14491 1cdb 01       		.byte	0x1
 14492 1cdc C304     		.2byte	0x4c3
 14493 1cde 96090000 		.4byte	0x996
 14494 1ce2 02       		.uleb128 0x2
 14495 1ce3 91       		.byte	0x91
 14496 1ce4 5C       		.sleb128 -36
 14497 1ce5 26       		.uleb128 0x26
 14498 1ce6 98000000 		.4byte	.LBB31
 14499 1cea 50000000 		.4byte	.LBE31-.LBB31
 14500 1cee 2A       		.uleb128 0x2a
 14501 1cef 14200000 		.4byte	.LASF508
 14502 1cf3 01       		.byte	0x1
 14503 1cf4 B104     		.2byte	0x4b1
 14504 1cf6 AF000000 		.4byte	0xaf
 14505 1cfa 02       		.uleb128 0x2
 14506 1cfb 91       		.byte	0x91
 14507 1cfc 60       		.sleb128 -32
 14508 1cfd 00       		.byte	0
 14509 1cfe 00       		.byte	0
 14510 1cff 00       		.byte	0
 14511 1d00 00       		.byte	0
 14512 1d01 2B       		.uleb128 0x2b
 14513 1d02 6F1D0000 		.4byte	.LASF509
 14514 1d06 01       		.byte	0x1
 14515 1d07 D404     		.2byte	0x4d4
 14516 1d09 00000000 		.4byte	.LFB82
 14517 1d0d E8000000 		.4byte	.LFE82-.LFB82
 14518 1d11 01       		.uleb128 0x1
 14519 1d12 9C       		.byte	0x9c
 14520 1d13 771D0000 		.4byte	0x1d77
 14521 1d17 2C       		.uleb128 0x2c
 14522 1d18 3B230000 		.4byte	.LASF478
 14523 1d1c 01       		.byte	0x1
 14524 1d1d D404     		.2byte	0x4d4
 14525 1d1f 30010000 		.4byte	0x130
 14526 1d23 02       		.uleb128 0x2
 14527 1d24 91       		.byte	0x91
 14528 1d25 64       		.sleb128 -28
 14529 1d26 2A       		.uleb128 0x2a
 14530 1d27 111F0000 		.4byte	.LASF473
 14531 1d2b 01       		.byte	0x1
 14532 1d2c D604     		.2byte	0x4d6
 14533 1d2e 730F0000 		.4byte	0xf73
 14534 1d32 02       		.uleb128 0x2
 14535 1d33 91       		.byte	0x91
 14536 1d34 74       		.sleb128 -12
 14537 1d35 26       		.uleb128 0x26
 14538 1d36 12000000 		.4byte	.LBB32
ARM GAS  C:\Users\RECEPC~1\AppData\Local\Temp\cc7aDVfG.s 			page 306


 14539 1d3a D0000000 		.4byte	.LBE32-.LBB32
 14540 1d3e 28       		.uleb128 0x28
 14541 1d3f 70747300 		.ascii	"pts\000"
 14542 1d43 01       		.byte	0x1
 14543 1d44 DD04     		.2byte	0x4dd
 14544 1d46 96090000 		.4byte	0x996
 14545 1d4a 02       		.uleb128 0x2
 14546 1d4b 91       		.byte	0x91
 14547 1d4c 70       		.sleb128 -16
 14548 1d4d 26       		.uleb128 0x26
 14549 1d4e 4A000000 		.4byte	.LBB33
 14550 1d52 98000000 		.4byte	.LBE33-.LBB33
 14551 1d56 2A       		.uleb128 0x2a
 14552 1d57 54250000 		.4byte	.LASF494
 14553 1d5b 01       		.byte	0x1
 14554 1d5c E104     		.2byte	0x4e1
 14555 1d5e 97000000 		.4byte	0x97
 14556 1d62 02       		.uleb128 0x2
 14557 1d63 91       		.byte	0x91
 14558 1d64 6F       		.sleb128 -17
 14559 1d65 2A       		.uleb128 0x2a
 14560 1d66 69150000 		.4byte	.LASF488
 14561 1d6a 01       		.byte	0x1
 14562 1d6b E704     		.2byte	0x4e7
 14563 1d6d 96090000 		.4byte	0x996
 14564 1d71 02       		.uleb128 0x2
 14565 1d72 91       		.byte	0x91
 14566 1d73 68       		.sleb128 -24
 14567 1d74 00       		.byte	0
 14568 1d75 00       		.byte	0
 14569 1d76 00       		.byte	0
 14570 1d77 2B       		.uleb128 0x2b
 14571 1d78 C9250000 		.4byte	.LASF510
 14572 1d7c 01       		.byte	0x1
 14573 1d7d FE04     		.2byte	0x4fe
 14574 1d7f 00000000 		.4byte	.LFB83
 14575 1d83 5C030000 		.4byte	.LFE83-.LFB83
 14576 1d87 01       		.uleb128 0x1
 14577 1d88 9C       		.byte	0x9c
 14578 1d89 461E0000 		.4byte	0x1e46
 14579 1d8d 2C       		.uleb128 0x2c
 14580 1d8e 3B230000 		.4byte	.LASF478
 14581 1d92 01       		.byte	0x1
 14582 1d93 FE04     		.2byte	0x4fe
 14583 1d95 11010000 		.4byte	0x111
 14584 1d99 02       		.uleb128 0x2
 14585 1d9a 91       		.byte	0x91
 14586 1d9b 4C       		.sleb128 -52
 14587 1d9c 2A       		.uleb128 0x2a
 14588 1d9d 34000000 		.4byte	.LASF493
 14589 1da1 01       		.byte	0x1
 14590 1da2 0005     		.2byte	0x500
 14591 1da4 2B0D0000 		.4byte	0xd2b
 14592 1da8 02       		.uleb128 0x2
 14593 1da9 91       		.byte	0x91
 14594 1daa 68       		.sleb128 -24
 14595 1dab 26       		.uleb128 0x26
ARM GAS  C:\Users\RECEPC~1\AppData\Local\Temp\cc7aDVfG.s 			page 307


 14596 1dac 14000000 		.4byte	.LBB34
 14597 1db0 3A030000 		.4byte	.LBE34-.LBB34
 14598 1db4 2A       		.uleb128 0x2a
 14599 1db5 54250000 		.4byte	.LASF494
 14600 1db9 01       		.byte	0x1
 14601 1dba 0305     		.2byte	0x503
 14602 1dbc 81000000 		.4byte	0x81
 14603 1dc0 02       		.uleb128 0x2
 14604 1dc1 91       		.byte	0x91
 14605 1dc2 6F       		.sleb128 -17
 14606 1dc3 2A       		.uleb128 0x2a
 14607 1dc4 D00C0000 		.4byte	.LASF495
 14608 1dc8 01       		.byte	0x1
 14609 1dc9 0405     		.2byte	0x504
 14610 1dcb 8C050000 		.4byte	0x58c
 14611 1dcf 02       		.uleb128 0x2
 14612 1dd0 91       		.byte	0x91
 14613 1dd1 64       		.sleb128 -28
 14614 1dd2 29       		.uleb128 0x29
 14615 1dd3 5A000000 		.4byte	.LBB35
 14616 1dd7 5E010000 		.4byte	.LBE35-.LBB35
 14617 1ddb 0D1E0000 		.4byte	0x1e0d
 14618 1ddf 2A       		.uleb128 0x2a
 14619 1de0 A3260000 		.4byte	.LASF503
 14620 1de4 01       		.byte	0x1
 14621 1de5 1005     		.2byte	0x510
 14622 1de7 97000000 		.4byte	0x97
 14623 1deb 02       		.uleb128 0x2
 14624 1dec 91       		.byte	0x91
 14625 1ded 63       		.sleb128 -29
 14626 1dee 28       		.uleb128 0x28
 14627 1def 70747200 		.ascii	"ptr\000"
 14628 1df3 01       		.byte	0x1
 14629 1df4 1E05     		.2byte	0x51e
 14630 1df6 3B010000 		.4byte	0x13b
 14631 1dfa 02       		.uleb128 0x2
 14632 1dfb 91       		.byte	0x91
 14633 1dfc 5C       		.sleb128 -36
 14634 1dfd 2A       		.uleb128 0x2a
 14635 1dfe 43160000 		.4byte	.LASF504
 14636 1e02 01       		.byte	0x1
 14637 1e03 2705     		.2byte	0x527
 14638 1e05 97000000 		.4byte	0x97
 14639 1e09 02       		.uleb128 0x2
 14640 1e0a 91       		.byte	0x91
 14641 1e0b 6E       		.sleb128 -18
 14642 1e0c 00       		.byte	0
 14643 1e0d 26       		.uleb128 0x26
 14644 1e0e C4010000 		.4byte	.LBB36
 14645 1e12 2C010000 		.4byte	.LBE36-.LBB36
 14646 1e16 2A       		.uleb128 0x2a
 14647 1e17 A3260000 		.4byte	.LASF503
 14648 1e1b 01       		.byte	0x1
 14649 1e1c 3105     		.2byte	0x531
 14650 1e1e 97000000 		.4byte	0x97
 14651 1e22 02       		.uleb128 0x2
 14652 1e23 91       		.byte	0x91
ARM GAS  C:\Users\RECEPC~1\AppData\Local\Temp\cc7aDVfG.s 			page 308


 14653 1e24 5B       		.sleb128 -37
 14654 1e25 28       		.uleb128 0x28
 14655 1e26 70747200 		.ascii	"ptr\000"
 14656 1e2a 01       		.byte	0x1
 14657 1e2b 3D05     		.2byte	0x53d
 14658 1e2d 3B010000 		.4byte	0x13b
 14659 1e31 02       		.uleb128 0x2
 14660 1e32 91       		.byte	0x91
 14661 1e33 54       		.sleb128 -44
 14662 1e34 2A       		.uleb128 0x2a
 14663 1e35 43160000 		.4byte	.LASF504
 14664 1e39 01       		.byte	0x1
 14665 1e3a 4605     		.2byte	0x546
 14666 1e3c 97000000 		.4byte	0x97
 14667 1e40 02       		.uleb128 0x2
 14668 1e41 91       		.byte	0x91
 14669 1e42 6D       		.sleb128 -19
 14670 1e43 00       		.byte	0
 14671 1e44 00       		.byte	0
 14672 1e45 00       		.byte	0
 14673 1e46 2B       		.uleb128 0x2b
 14674 1e47 BB0A0000 		.4byte	.LASF511
 14675 1e4b 01       		.byte	0x1
 14676 1e4c 6205     		.2byte	0x562
 14677 1e4e 00000000 		.4byte	.LFB84
 14678 1e52 74020000 		.4byte	.LFE84-.LFB84
 14679 1e56 01       		.uleb128 0x1
 14680 1e57 9C       		.byte	0x9c
 14681 1e58 151F0000 		.4byte	0x1f15
 14682 1e5c 2C       		.uleb128 0x2c
 14683 1e5d 3B230000 		.4byte	.LASF478
 14684 1e61 01       		.byte	0x1
 14685 1e62 6205     		.2byte	0x562
 14686 1e64 11010000 		.4byte	0x111
 14687 1e68 02       		.uleb128 0x2
 14688 1e69 91       		.byte	0x91
 14689 1e6a 4C       		.sleb128 -52
 14690 1e6b 2A       		.uleb128 0x2a
 14691 1e6c 34000000 		.4byte	.LASF493
 14692 1e70 01       		.byte	0x1
 14693 1e71 6405     		.2byte	0x564
 14694 1e73 2B0D0000 		.4byte	0xd2b
 14695 1e77 02       		.uleb128 0x2
 14696 1e78 91       		.byte	0x91
 14697 1e79 68       		.sleb128 -24
 14698 1e7a 26       		.uleb128 0x26
 14699 1e7b 14000000 		.4byte	.LBB37
 14700 1e7f 54020000 		.4byte	.LBE37-.LBB37
 14701 1e83 2A       		.uleb128 0x2a
 14702 1e84 54250000 		.4byte	.LASF494
 14703 1e88 01       		.byte	0x1
 14704 1e89 6705     		.2byte	0x567
 14705 1e8b 81000000 		.4byte	0x81
 14706 1e8f 02       		.uleb128 0x2
 14707 1e90 91       		.byte	0x91
 14708 1e91 6F       		.sleb128 -17
 14709 1e92 2A       		.uleb128 0x2a
ARM GAS  C:\Users\RECEPC~1\AppData\Local\Temp\cc7aDVfG.s 			page 309


 14710 1e93 D00C0000 		.4byte	.LASF495
 14711 1e97 01       		.byte	0x1
 14712 1e98 6805     		.2byte	0x568
 14713 1e9a 8C050000 		.4byte	0x58c
 14714 1e9e 02       		.uleb128 0x2
 14715 1e9f 91       		.byte	0x91
 14716 1ea0 64       		.sleb128 -28
 14717 1ea1 29       		.uleb128 0x29
 14718 1ea2 60000000 		.4byte	.LBB38
 14719 1ea6 D4000000 		.4byte	.LBE38-.LBB38
 14720 1eaa DC1E0000 		.4byte	0x1edc
 14721 1eae 2A       		.uleb128 0x2a
 14722 1eaf A3260000 		.4byte	.LASF503
 14723 1eb3 01       		.byte	0x1
 14724 1eb4 7605     		.2byte	0x576
 14725 1eb6 97000000 		.4byte	0x97
 14726 1eba 02       		.uleb128 0x2
 14727 1ebb 91       		.byte	0x91
 14728 1ebc 63       		.sleb128 -29
 14729 1ebd 28       		.uleb128 0x28
 14730 1ebe 70747200 		.ascii	"ptr\000"
 14731 1ec2 01       		.byte	0x1
 14732 1ec3 7D05     		.2byte	0x57d
 14733 1ec5 3B010000 		.4byte	0x13b
 14734 1ec9 02       		.uleb128 0x2
 14735 1eca 91       		.byte	0x91
 14736 1ecb 5C       		.sleb128 -36
 14737 1ecc 2A       		.uleb128 0x2a
 14738 1ecd 43160000 		.4byte	.LASF504
 14739 1ed1 01       		.byte	0x1
 14740 1ed2 8705     		.2byte	0x587
 14741 1ed4 97000000 		.4byte	0x97
 14742 1ed8 02       		.uleb128 0x2
 14743 1ed9 91       		.byte	0x91
 14744 1eda 6E       		.sleb128 -18
 14745 1edb 00       		.byte	0
 14746 1edc 26       		.uleb128 0x26
 14747 1edd 36010000 		.4byte	.LBB39
 14748 1ee1 D4000000 		.4byte	.LBE39-.LBB39
 14749 1ee5 2A       		.uleb128 0x2a
 14750 1ee6 A3260000 		.4byte	.LASF503
 14751 1eea 01       		.byte	0x1
 14752 1eeb 9105     		.2byte	0x591
 14753 1eed 97000000 		.4byte	0x97
 14754 1ef1 02       		.uleb128 0x2
 14755 1ef2 91       		.byte	0x91
 14756 1ef3 5B       		.sleb128 -37
 14757 1ef4 28       		.uleb128 0x28
 14758 1ef5 70747200 		.ascii	"ptr\000"
 14759 1ef9 01       		.byte	0x1
 14760 1efa 9805     		.2byte	0x598
 14761 1efc 3B010000 		.4byte	0x13b
 14762 1f00 02       		.uleb128 0x2
 14763 1f01 91       		.byte	0x91
 14764 1f02 54       		.sleb128 -44
 14765 1f03 2A       		.uleb128 0x2a
 14766 1f04 43160000 		.4byte	.LASF504
ARM GAS  C:\Users\RECEPC~1\AppData\Local\Temp\cc7aDVfG.s 			page 310


 14767 1f08 01       		.byte	0x1
 14768 1f09 A205     		.2byte	0x5a2
 14769 1f0b 97000000 		.4byte	0x97
 14770 1f0f 02       		.uleb128 0x2
 14771 1f10 91       		.byte	0x91
 14772 1f11 6D       		.sleb128 -19
 14773 1f12 00       		.byte	0
 14774 1f13 00       		.byte	0
 14775 1f14 00       		.byte	0
 14776 1f15 2B       		.uleb128 0x2b
 14777 1f16 24070000 		.4byte	.LASF512
 14778 1f1a 01       		.byte	0x1
 14779 1f1b BC05     		.2byte	0x5bc
 14780 1f1d 00000000 		.4byte	.LFB85
 14781 1f21 C4020000 		.4byte	.LFE85-.LFB85
 14782 1f25 01       		.uleb128 0x1
 14783 1f26 9C       		.byte	0x9c
 14784 1f27 DF1F0000 		.4byte	0x1fdf
 14785 1f2b 2C       		.uleb128 0x2c
 14786 1f2c 3B230000 		.4byte	.LASF478
 14787 1f30 01       		.byte	0x1
 14788 1f31 BC05     		.2byte	0x5bc
 14789 1f33 11010000 		.4byte	0x111
 14790 1f37 02       		.uleb128 0x2
 14791 1f38 91       		.byte	0x91
 14792 1f39 54       		.sleb128 -44
 14793 1f3a 2A       		.uleb128 0x2a
 14794 1f3b 34000000 		.4byte	.LASF493
 14795 1f3f 01       		.byte	0x1
 14796 1f40 BE05     		.2byte	0x5be
 14797 1f42 2B0D0000 		.4byte	0xd2b
 14798 1f46 02       		.uleb128 0x2
 14799 1f47 91       		.byte	0x91
 14800 1f48 68       		.sleb128 -24
 14801 1f49 26       		.uleb128 0x26
 14802 1f4a 14000000 		.4byte	.LBB40
 14803 1f4e A4020000 		.4byte	.LBE40-.LBB40
 14804 1f52 2A       		.uleb128 0x2a
 14805 1f53 54250000 		.4byte	.LASF494
 14806 1f57 01       		.byte	0x1
 14807 1f58 C105     		.2byte	0x5c1
 14808 1f5a 81000000 		.4byte	0x81
 14809 1f5e 02       		.uleb128 0x2
 14810 1f5f 91       		.byte	0x91
 14811 1f60 6F       		.sleb128 -17
 14812 1f61 2A       		.uleb128 0x2a
 14813 1f62 D00C0000 		.4byte	.LASF495
 14814 1f66 01       		.byte	0x1
 14815 1f67 C305     		.2byte	0x5c3
 14816 1f69 8C050000 		.4byte	0x58c
 14817 1f6d 02       		.uleb128 0x2
 14818 1f6e 91       		.byte	0x91
 14819 1f6f 64       		.sleb128 -28
 14820 1f70 26       		.uleb128 0x26
 14821 1f71 3A000000 		.4byte	.LBB41
 14822 1f75 7E020000 		.4byte	.LBE41-.LBB41
 14823 1f79 2A       		.uleb128 0x2a
ARM GAS  C:\Users\RECEPC~1\AppData\Local\Temp\cc7aDVfG.s 			page 311


 14824 1f7a FF0C0000 		.4byte	.LASF483
 14825 1f7e 01       		.byte	0x1
 14826 1f7f D505     		.2byte	0x5d5
 14827 1f81 A3000000 		.4byte	0xa3
 14828 1f85 02       		.uleb128 0x2
 14829 1f86 91       		.byte	0x91
 14830 1f87 62       		.sleb128 -30
 14831 1f88 2A       		.uleb128 0x2a
 14832 1f89 75120000 		.4byte	.LASF513
 14833 1f8d 01       		.byte	0x1
 14834 1f8e F005     		.2byte	0x5f0
 14835 1f90 97000000 		.4byte	0x97
 14836 1f94 02       		.uleb128 0x2
 14837 1f95 91       		.byte	0x91
 14838 1f96 61       		.sleb128 -31
 14839 1f97 28       		.uleb128 0x28
 14840 1f98 70747200 		.ascii	"ptr\000"
 14841 1f9c 01       		.byte	0x1
 14842 1f9d F105     		.2byte	0x5f1
 14843 1f9f 3B010000 		.4byte	0x13b
 14844 1fa3 02       		.uleb128 0x2
 14845 1fa4 91       		.byte	0x91
 14846 1fa5 5C       		.sleb128 -36
 14847 1fa6 29       		.uleb128 0x29
 14848 1fa7 D6010000 		.4byte	.LBB42
 14849 1fab 34000000 		.4byte	.LBE42-.LBB42
 14850 1faf C31F0000 		.4byte	0x1fc3
 14851 1fb3 2A       		.uleb128 0x2a
 14852 1fb4 43160000 		.4byte	.LASF504
 14853 1fb8 01       		.byte	0x1
 14854 1fb9 F505     		.2byte	0x5f5
 14855 1fbb 97000000 		.4byte	0x97
 14856 1fbf 02       		.uleb128 0x2
 14857 1fc0 91       		.byte	0x91
 14858 1fc1 6E       		.sleb128 -18
 14859 1fc2 00       		.byte	0
 14860 1fc3 26       		.uleb128 0x26
 14861 1fc4 0C020000 		.4byte	.LBB43
 14862 1fc8 34000000 		.4byte	.LBE43-.LBB43
 14863 1fcc 2A       		.uleb128 0x2a
 14864 1fcd 43160000 		.4byte	.LASF504
 14865 1fd1 01       		.byte	0x1
 14866 1fd2 FA05     		.2byte	0x5fa
 14867 1fd4 97000000 		.4byte	0x97
 14868 1fd8 02       		.uleb128 0x2
 14869 1fd9 91       		.byte	0x91
 14870 1fda 6D       		.sleb128 -19
 14871 1fdb 00       		.byte	0
 14872 1fdc 00       		.byte	0
 14873 1fdd 00       		.byte	0
 14874 1fde 00       		.byte	0
 14875 1fdf 2B       		.uleb128 0x2b
 14876 1fe0 CD190000 		.4byte	.LASF514
 14877 1fe4 01       		.byte	0x1
 14878 1fe5 0C06     		.2byte	0x60c
 14879 1fe7 00000000 		.4byte	.LFB86
 14880 1feb B0010000 		.4byte	.LFE86-.LFB86
ARM GAS  C:\Users\RECEPC~1\AppData\Local\Temp\cc7aDVfG.s 			page 312


 14881 1fef 01       		.uleb128 0x1
 14882 1ff0 9C       		.byte	0x9c
 14883 1ff1 8B200000 		.4byte	0x208b
 14884 1ff5 2C       		.uleb128 0x2c
 14885 1ff6 3B230000 		.4byte	.LASF478
 14886 1ffa 01       		.byte	0x1
 14887 1ffb 0C06     		.2byte	0x60c
 14888 1ffd 11010000 		.4byte	0x111
 14889 2001 02       		.uleb128 0x2
 14890 2002 91       		.byte	0x91
 14891 2003 5C       		.sleb128 -36
 14892 2004 2A       		.uleb128 0x2a
 14893 2005 34000000 		.4byte	.LASF493
 14894 2009 01       		.byte	0x1
 14895 200a 0E06     		.2byte	0x60e
 14896 200c 2B0D0000 		.4byte	0xd2b
 14897 2010 02       		.uleb128 0x2
 14898 2011 91       		.byte	0x91
 14899 2012 68       		.sleb128 -24
 14900 2013 26       		.uleb128 0x26
 14901 2014 14000000 		.4byte	.LBB44
 14902 2018 92010000 		.4byte	.LBE44-.LBB44
 14903 201c 2A       		.uleb128 0x2a
 14904 201d 54250000 		.4byte	.LASF494
 14905 2021 01       		.byte	0x1
 14906 2022 1106     		.2byte	0x611
 14907 2024 81000000 		.4byte	0x81
 14908 2028 02       		.uleb128 0x2
 14909 2029 91       		.byte	0x91
 14910 202a 6F       		.sleb128 -17
 14911 202b 2A       		.uleb128 0x2a
 14912 202c D00C0000 		.4byte	.LASF495
 14913 2030 01       		.byte	0x1
 14914 2031 1306     		.2byte	0x613
 14915 2033 8C050000 		.4byte	0x58c
 14916 2037 02       		.uleb128 0x2
 14917 2038 91       		.byte	0x91
 14918 2039 64       		.sleb128 -28
 14919 203a 26       		.uleb128 0x26
 14920 203b 3A000000 		.4byte	.LBB45
 14921 203f 6C010000 		.4byte	.LBE45-.LBB45
 14922 2043 28       		.uleb128 0x28
 14923 2044 70747200 		.ascii	"ptr\000"
 14924 2048 01       		.byte	0x1
 14925 2049 2806     		.2byte	0x628
 14926 204b 3B010000 		.4byte	0x13b
 14927 204f 02       		.uleb128 0x2
 14928 2050 91       		.byte	0x91
 14929 2051 60       		.sleb128 -32
 14930 2052 29       		.uleb128 0x29
 14931 2053 EC000000 		.4byte	.LBB46
 14932 2057 34000000 		.4byte	.LBE46-.LBB46
 14933 205b 6F200000 		.4byte	0x206f
 14934 205f 2A       		.uleb128 0x2a
 14935 2060 43160000 		.4byte	.LASF504
 14936 2064 01       		.byte	0x1
 14937 2065 2C06     		.2byte	0x62c
ARM GAS  C:\Users\RECEPC~1\AppData\Local\Temp\cc7aDVfG.s 			page 313


 14938 2067 97000000 		.4byte	0x97
 14939 206b 02       		.uleb128 0x2
 14940 206c 91       		.byte	0x91
 14941 206d 6E       		.sleb128 -18
 14942 206e 00       		.byte	0
 14943 206f 26       		.uleb128 0x26
 14944 2070 22010000 		.4byte	.LBB47
 14945 2074 34000000 		.4byte	.LBE47-.LBB47
 14946 2078 2A       		.uleb128 0x2a
 14947 2079 43160000 		.4byte	.LASF504
 14948 207d 01       		.byte	0x1
 14949 207e 3106     		.2byte	0x631
 14950 2080 97000000 		.4byte	0x97
 14951 2084 02       		.uleb128 0x2
 14952 2085 91       		.byte	0x91
 14953 2086 6D       		.sleb128 -19
 14954 2087 00       		.byte	0
 14955 2088 00       		.byte	0
 14956 2089 00       		.byte	0
 14957 208a 00       		.byte	0
 14958 208b 2B       		.uleb128 0x2b
 14959 208c 23210000 		.4byte	.LASF515
 14960 2090 01       		.byte	0x1
 14961 2091 4306     		.2byte	0x643
 14962 2093 00000000 		.4byte	.LFB87
 14963 2097 3C020000 		.4byte	.LFE87-.LFB87
 14964 209b 01       		.uleb128 0x1
 14965 209c 9C       		.byte	0x9c
 14966 209d 46210000 		.4byte	0x2146
 14967 20a1 2C       		.uleb128 0x2c
 14968 20a2 3B230000 		.4byte	.LASF478
 14969 20a6 01       		.byte	0x1
 14970 20a7 4306     		.2byte	0x643
 14971 20a9 11010000 		.4byte	0x111
 14972 20ad 02       		.uleb128 0x2
 14973 20ae 91       		.byte	0x91
 14974 20af 54       		.sleb128 -44
 14975 20b0 2A       		.uleb128 0x2a
 14976 20b1 34000000 		.4byte	.LASF493
 14977 20b5 01       		.byte	0x1
 14978 20b6 4506     		.2byte	0x645
 14979 20b8 2B0D0000 		.4byte	0xd2b
 14980 20bc 02       		.uleb128 0x2
 14981 20bd 91       		.byte	0x91
 14982 20be 68       		.sleb128 -24
 14983 20bf 26       		.uleb128 0x26
 14984 20c0 14000000 		.4byte	.LBB48
 14985 20c4 1E020000 		.4byte	.LBE48-.LBB48
 14986 20c8 2A       		.uleb128 0x2a
 14987 20c9 54250000 		.4byte	.LASF494
 14988 20cd 01       		.byte	0x1
 14989 20ce 4806     		.2byte	0x648
 14990 20d0 81000000 		.4byte	0x81
 14991 20d4 02       		.uleb128 0x2
 14992 20d5 91       		.byte	0x91
 14993 20d6 6F       		.sleb128 -17
 14994 20d7 2A       		.uleb128 0x2a
ARM GAS  C:\Users\RECEPC~1\AppData\Local\Temp\cc7aDVfG.s 			page 314


 14995 20d8 D00C0000 		.4byte	.LASF495
 14996 20dc 01       		.byte	0x1
 14997 20dd 4A06     		.2byte	0x64a
 14998 20df 8C050000 		.4byte	0x58c
 14999 20e3 02       		.uleb128 0x2
 15000 20e4 91       		.byte	0x91
 15001 20e5 64       		.sleb128 -28
 15002 20e6 26       		.uleb128 0x26
 15003 20e7 3A000000 		.4byte	.LBB49
 15004 20eb F2010000 		.4byte	.LBE49-.LBB49
 15005 20ef 2A       		.uleb128 0x2a
 15006 20f0 FF0C0000 		.4byte	.LASF483
 15007 20f4 01       		.byte	0x1
 15008 20f5 5E06     		.2byte	0x65e
 15009 20f7 A3000000 		.4byte	0xa3
 15010 20fb 02       		.uleb128 0x2
 15011 20fc 91       		.byte	0x91
 15012 20fd 62       		.sleb128 -30
 15013 20fe 28       		.uleb128 0x28
 15014 20ff 70747200 		.ascii	"ptr\000"
 15015 2103 01       		.byte	0x1
 15016 2104 7506     		.2byte	0x675
 15017 2106 3B010000 		.4byte	0x13b
 15018 210a 02       		.uleb128 0x2
 15019 210b 91       		.byte	0x91
 15020 210c 5C       		.sleb128 -36
 15021 210d 29       		.uleb128 0x29
 15022 210e 78010000 		.4byte	.LBB50
 15023 2112 34000000 		.4byte	.LBE50-.LBB50
 15024 2116 2A210000 		.4byte	0x212a
 15025 211a 2A       		.uleb128 0x2a
 15026 211b 43160000 		.4byte	.LASF504
 15027 211f 01       		.byte	0x1
 15028 2120 7906     		.2byte	0x679
 15029 2122 97000000 		.4byte	0x97
 15030 2126 02       		.uleb128 0x2
 15031 2127 91       		.byte	0x91
 15032 2128 6E       		.sleb128 -18
 15033 2129 00       		.byte	0
 15034 212a 26       		.uleb128 0x26
 15035 212b AE010000 		.4byte	.LBB51
 15036 212f 34000000 		.4byte	.LBE51-.LBB51
 15037 2133 2A       		.uleb128 0x2a
 15038 2134 43160000 		.4byte	.LASF504
 15039 2138 01       		.byte	0x1
 15040 2139 7E06     		.2byte	0x67e
 15041 213b 97000000 		.4byte	0x97
 15042 213f 02       		.uleb128 0x2
 15043 2140 91       		.byte	0x91
 15044 2141 6D       		.sleb128 -19
 15045 2142 00       		.byte	0
 15046 2143 00       		.byte	0
 15047 2144 00       		.byte	0
 15048 2145 00       		.byte	0
 15049 2146 2B       		.uleb128 0x2b
 15050 2147 09030000 		.4byte	.LASF516
 15051 214b 01       		.byte	0x1
ARM GAS  C:\Users\RECEPC~1\AppData\Local\Temp\cc7aDVfG.s 			page 315


 15052 214c 9406     		.2byte	0x694
 15053 214e 00000000 		.4byte	.LFB88
 15054 2152 6A000000 		.4byte	.LFE88-.LFB88
 15055 2156 01       		.uleb128 0x1
 15056 2157 9C       		.byte	0x9c
 15057 2158 A3210000 		.4byte	0x21a3
 15058 215c 2C       		.uleb128 0x2c
 15059 215d 3B230000 		.4byte	.LASF478
 15060 2161 01       		.byte	0x1
 15061 2162 9406     		.2byte	0x694
 15062 2164 11010000 		.4byte	0x111
 15063 2168 02       		.uleb128 0x2
 15064 2169 91       		.byte	0x91
 15065 216a 64       		.sleb128 -28
 15066 216b 2A       		.uleb128 0x2a
 15067 216c 34000000 		.4byte	.LASF493
 15068 2170 01       		.byte	0x1
 15069 2171 9606     		.2byte	0x696
 15070 2173 2B0D0000 		.4byte	0xd2b
 15071 2177 02       		.uleb128 0x2
 15072 2178 91       		.byte	0x91
 15073 2179 74       		.sleb128 -12
 15074 217a 26       		.uleb128 0x26
 15075 217b 12000000 		.4byte	.LBB52
 15076 217f 52000000 		.4byte	.LBE52-.LBB52
 15077 2183 2A       		.uleb128 0x2a
 15078 2184 54250000 		.4byte	.LASF494
 15079 2188 01       		.byte	0x1
 15080 2189 9906     		.2byte	0x699
 15081 218b 81000000 		.4byte	0x81
 15082 218f 02       		.uleb128 0x2
 15083 2190 91       		.byte	0x91
 15084 2191 73       		.sleb128 -13
 15085 2192 2A       		.uleb128 0x2a
 15086 2193 D00C0000 		.4byte	.LASF495
 15087 2197 01       		.byte	0x1
 15088 2198 9B06     		.2byte	0x69b
 15089 219a 8C050000 		.4byte	0x58c
 15090 219e 02       		.uleb128 0x2
 15091 219f 91       		.byte	0x91
 15092 21a0 6C       		.sleb128 -20
 15093 21a1 00       		.byte	0
 15094 21a2 00       		.byte	0
 15095 21a3 2B       		.uleb128 0x2b
 15096 21a4 62140000 		.4byte	.LASF517
 15097 21a8 01       		.byte	0x1
 15098 21a9 A806     		.2byte	0x6a8
 15099 21ab 00000000 		.4byte	.LFB89
 15100 21af 60000000 		.4byte	.LFE89-.LFB89
 15101 21b3 01       		.uleb128 0x1
 15102 21b4 9C       		.byte	0x9c
 15103 21b5 00220000 		.4byte	0x2200
 15104 21b9 2C       		.uleb128 0x2c
 15105 21ba 3B230000 		.4byte	.LASF478
 15106 21be 01       		.byte	0x1
 15107 21bf A806     		.2byte	0x6a8
 15108 21c1 11010000 		.4byte	0x111
ARM GAS  C:\Users\RECEPC~1\AppData\Local\Temp\cc7aDVfG.s 			page 316


 15109 21c5 02       		.uleb128 0x2
 15110 21c6 91       		.byte	0x91
 15111 21c7 64       		.sleb128 -28
 15112 21c8 2A       		.uleb128 0x2a
 15113 21c9 34000000 		.4byte	.LASF493
 15114 21cd 01       		.byte	0x1
 15115 21ce AA06     		.2byte	0x6aa
 15116 21d0 2B0D0000 		.4byte	0xd2b
 15117 21d4 02       		.uleb128 0x2
 15118 21d5 91       		.byte	0x91
 15119 21d6 74       		.sleb128 -12
 15120 21d7 26       		.uleb128 0x26
 15121 21d8 12000000 		.4byte	.LBB53
 15122 21dc 48000000 		.4byte	.LBE53-.LBB53
 15123 21e0 2A       		.uleb128 0x2a
 15124 21e1 54250000 		.4byte	.LASF494
 15125 21e5 01       		.byte	0x1
 15126 21e6 AD06     		.2byte	0x6ad
 15127 21e8 81000000 		.4byte	0x81
 15128 21ec 02       		.uleb128 0x2
 15129 21ed 91       		.byte	0x91
 15130 21ee 73       		.sleb128 -13
 15131 21ef 2A       		.uleb128 0x2a
 15132 21f0 D00C0000 		.4byte	.LASF495
 15133 21f4 01       		.byte	0x1
 15134 21f5 AF06     		.2byte	0x6af
 15135 21f7 8C050000 		.4byte	0x58c
 15136 21fb 02       		.uleb128 0x2
 15137 21fc 91       		.byte	0x91
 15138 21fd 6C       		.sleb128 -20
 15139 21fe 00       		.byte	0
 15140 21ff 00       		.byte	0
 15141 2200 2B       		.uleb128 0x2b
 15142 2201 2C1B0000 		.4byte	.LASF518
 15143 2205 01       		.byte	0x1
 15144 2206 BC06     		.2byte	0x6bc
 15145 2208 00000000 		.4byte	.LFB90
 15146 220c E6000000 		.4byte	.LFE90-.LFB90
 15147 2210 01       		.uleb128 0x1
 15148 2211 9C       		.byte	0x9c
 15149 2212 5D220000 		.4byte	0x225d
 15150 2216 2C       		.uleb128 0x2c
 15151 2217 3B230000 		.4byte	.LASF478
 15152 221b 01       		.byte	0x1
 15153 221c BC06     		.2byte	0x6bc
 15154 221e 30010000 		.4byte	0x130
 15155 2222 02       		.uleb128 0x2
 15156 2223 91       		.byte	0x91
 15157 2224 5C       		.sleb128 -36
 15158 2225 2A       		.uleb128 0x2a
 15159 2226 34000000 		.4byte	.LASF493
 15160 222a 01       		.byte	0x1
 15161 222b BE06     		.2byte	0x6be
 15162 222d 2B0D0000 		.4byte	0xd2b
 15163 2231 02       		.uleb128 0x2
 15164 2232 91       		.byte	0x91
 15165 2233 6C       		.sleb128 -20
ARM GAS  C:\Users\RECEPC~1\AppData\Local\Temp\cc7aDVfG.s 			page 317


 15166 2234 26       		.uleb128 0x26
 15167 2235 12000000 		.4byte	.LBB54
 15168 2239 CE000000 		.4byte	.LBE54-.LBB54
 15169 223d 2A       		.uleb128 0x2a
 15170 223e 54250000 		.4byte	.LASF494
 15171 2242 01       		.byte	0x1
 15172 2243 C106     		.2byte	0x6c1
 15173 2245 81000000 		.4byte	0x81
 15174 2249 02       		.uleb128 0x2
 15175 224a 91       		.byte	0x91
 15176 224b 6B       		.sleb128 -21
 15177 224c 2A       		.uleb128 0x2a
 15178 224d D00C0000 		.4byte	.LASF495
 15179 2251 01       		.byte	0x1
 15180 2252 C306     		.2byte	0x6c3
 15181 2254 8C050000 		.4byte	0x58c
 15182 2258 02       		.uleb128 0x2
 15183 2259 91       		.byte	0x91
 15184 225a 64       		.sleb128 -28
 15185 225b 00       		.byte	0
 15186 225c 00       		.byte	0
 15187 225d 2B       		.uleb128 0x2b
 15188 225e 710F0000 		.4byte	.LASF519
 15189 2262 01       		.byte	0x1
 15190 2263 DB06     		.2byte	0x6db
 15191 2265 00000000 		.4byte	.LFB91
 15192 2269 5C040000 		.4byte	.LFE91-.LFB91
 15193 226d 01       		.uleb128 0x1
 15194 226e 9C       		.byte	0x9c
 15195 226f 1E230000 		.4byte	0x231e
 15196 2273 2C       		.uleb128 0x2c
 15197 2274 3B230000 		.4byte	.LASF478
 15198 2278 01       		.byte	0x1
 15199 2279 DB06     		.2byte	0x6db
 15200 227b 11010000 		.4byte	0x111
 15201 227f 02       		.uleb128 0x2
 15202 2280 91       		.byte	0x91
 15203 2281 54       		.sleb128 -44
 15204 2282 2A       		.uleb128 0x2a
 15205 2283 111F0000 		.4byte	.LASF473
 15206 2287 01       		.byte	0x1
 15207 2288 DD06     		.2byte	0x6dd
 15208 228a 730F0000 		.4byte	0xf73
 15209 228e 02       		.uleb128 0x2
 15210 228f 91       		.byte	0x91
 15211 2290 68       		.sleb128 -24
 15212 2291 26       		.uleb128 0x26
 15213 2292 14000000 		.4byte	.LBB55
 15214 2296 3C040000 		.4byte	.LBE55-.LBB55
 15215 229a 2A       		.uleb128 0x2a
 15216 229b 54250000 		.4byte	.LASF494
 15217 229f 01       		.byte	0x1
 15218 22a0 E006     		.2byte	0x6e0
 15219 22a2 97000000 		.4byte	0x97
 15220 22a6 02       		.uleb128 0x2
 15221 22a7 91       		.byte	0x91
 15222 22a8 67       		.sleb128 -25
ARM GAS  C:\Users\RECEPC~1\AppData\Local\Temp\cc7aDVfG.s 			page 318


 15223 22a9 2A       		.uleb128 0x2a
 15224 22aa 5E1C0000 		.4byte	.LASF520
 15225 22ae 01       		.byte	0x1
 15226 22af E306     		.2byte	0x6e3
 15227 22b1 97000000 		.4byte	0x97
 15228 22b5 02       		.uleb128 0x2
 15229 22b6 91       		.byte	0x91
 15230 22b7 66       		.sleb128 -26
 15231 22b8 26       		.uleb128 0x26
 15232 22b9 74000000 		.4byte	.LBB56
 15233 22bd DC030000 		.4byte	.LBE56-.LBB56
 15234 22c1 2A       		.uleb128 0x2a
 15235 22c2 81280000 		.4byte	.LASF521
 15236 22c6 01       		.byte	0x1
 15237 22c7 EA06     		.2byte	0x6ea
 15238 22c9 49020000 		.4byte	0x249
 15239 22cd 02       		.uleb128 0x2
 15240 22ce 91       		.byte	0x91
 15241 22cf 6F       		.sleb128 -17
 15242 22d0 2A       		.uleb128 0x2a
 15243 22d1 42290000 		.4byte	.LASF522
 15244 22d5 01       		.byte	0x1
 15245 22d6 EB06     		.2byte	0x6eb
 15246 22d8 A3000000 		.4byte	0xa3
 15247 22dc 02       		.uleb128 0x2
 15248 22dd 91       		.byte	0x91
 15249 22de 6C       		.sleb128 -20
 15250 22df 2A       		.uleb128 0x2a
 15251 22e0 E4180000 		.4byte	.LASF523
 15252 22e4 01       		.byte	0x1
 15253 22e5 0B07     		.2byte	0x70b
 15254 22e7 7C070000 		.4byte	0x77c
 15255 22eb 02       		.uleb128 0x2
 15256 22ec 91       		.byte	0x91
 15257 22ed 60       		.sleb128 -32
 15258 22ee 2A       		.uleb128 0x2a
 15259 22ef A91B0000 		.4byte	.LASF524
 15260 22f3 01       		.byte	0x1
 15261 22f4 0D07     		.2byte	0x70d
 15262 22f6 97000000 		.4byte	0x97
 15263 22fa 02       		.uleb128 0x2
 15264 22fb 91       		.byte	0x91
 15265 22fc 5F       		.sleb128 -33
 15266 22fd 2A       		.uleb128 0x2a
 15267 22fe B41A0000 		.4byte	.LASF525
 15268 2302 01       		.byte	0x1
 15269 2303 0E07     		.2byte	0x70e
 15270 2305 97000000 		.4byte	0x97
 15271 2309 02       		.uleb128 0x2
 15272 230a 91       		.byte	0x91
 15273 230b 5E       		.sleb128 -34
 15274 230c 2A       		.uleb128 0x2a
 15275 230d 6C120000 		.4byte	.LASF526
 15276 2311 01       		.byte	0x1
 15277 2312 4507     		.2byte	0x745
 15278 2314 72020000 		.4byte	0x272
 15279 2318 02       		.uleb128 0x2
ARM GAS  C:\Users\RECEPC~1\AppData\Local\Temp\cc7aDVfG.s 			page 319


 15280 2319 91       		.byte	0x91
 15281 231a 58       		.sleb128 -40
 15282 231b 00       		.byte	0
 15283 231c 00       		.byte	0
 15284 231d 00       		.byte	0
 15285 231e 2D       		.uleb128 0x2d
 15286 231f 2A110000 		.4byte	.LASF527
 15287 2323 01       		.byte	0x1
 15288 2324 5C07     		.2byte	0x75c
 15289 2326 00000000 		.4byte	.LFB92
 15290 232a C8040000 		.4byte	.LFE92-.LFB92
 15291 232e 01       		.uleb128 0x1
 15292 232f 9C       		.byte	0x9c
 15293 2330 53230000 		.4byte	0x2353
 15294 2334 2C       		.uleb128 0x2c
 15295 2335 3B230000 		.4byte	.LASF478
 15296 2339 01       		.byte	0x1
 15297 233a 5C07     		.2byte	0x75c
 15298 233c 30010000 		.4byte	0x130
 15299 2340 02       		.uleb128 0x2
 15300 2341 91       		.byte	0x91
 15301 2342 6C       		.sleb128 -20
 15302 2343 2A       		.uleb128 0x2a
 15303 2344 93170000 		.4byte	.LASF528
 15304 2348 01       		.byte	0x1
 15305 2349 5E07     		.2byte	0x75e
 15306 234b 7C070000 		.4byte	0x77c
 15307 234f 02       		.uleb128 0x2
 15308 2350 91       		.byte	0x91
 15309 2351 74       		.sleb128 -12
 15310 2352 00       		.byte	0
 15311 2353 2E       		.uleb128 0x2e
 15312 2354 94130000 		.4byte	.LASF537
 15313 2358 01       		.byte	0x1
 15314 2359 A108     		.2byte	0x8a1
 15315 235b 49020000 		.4byte	0x249
 15316 235f 00000000 		.4byte	.LFB93
 15317 2363 28010000 		.4byte	.LFE93-.LFB93
 15318 2367 01       		.uleb128 0x1
 15319 2368 9C       		.byte	0x9c
 15320 2369 FD230000 		.4byte	0x23fd
 15321 236d 2C       		.uleb128 0x2c
 15322 236e 3B230000 		.4byte	.LASF478
 15323 2372 01       		.byte	0x1
 15324 2373 A108     		.2byte	0x8a1
 15325 2375 11010000 		.4byte	0x111
 15326 2379 02       		.uleb128 0x2
 15327 237a 91       		.byte	0x91
 15328 237b 5C       		.sleb128 -36
 15329 237c 2C       		.uleb128 0x2c
 15330 237d 400F0000 		.4byte	.LASF529
 15331 2381 01       		.byte	0x1
 15332 2382 A108     		.2byte	0x8a1
 15333 2384 11010000 		.4byte	0x111
 15334 2388 02       		.uleb128 0x2
 15335 2389 91       		.byte	0x91
 15336 238a 58       		.sleb128 -40
ARM GAS  C:\Users\RECEPC~1\AppData\Local\Temp\cc7aDVfG.s 			page 320


 15337 238b 2C       		.uleb128 0x2c
 15338 238c 291A0000 		.4byte	.LASF530
 15339 2390 01       		.byte	0x1
 15340 2391 A108     		.2byte	0x8a1
 15341 2393 A3000000 		.4byte	0xa3
 15342 2397 02       		.uleb128 0x2
 15343 2398 91       		.byte	0x91
 15344 2399 56       		.sleb128 -42
 15345 239a 2A       		.uleb128 0x2a
 15346 239b EC150000 		.4byte	.LASF531
 15347 239f 01       		.byte	0x1
 15348 23a0 A308     		.2byte	0x8a3
 15349 23a2 49020000 		.4byte	0x249
 15350 23a6 02       		.uleb128 0x2
 15351 23a7 91       		.byte	0x91
 15352 23a8 6F       		.sleb128 -17
 15353 23a9 2A       		.uleb128 0x2a
 15354 23aa 54250000 		.4byte	.LASF494
 15355 23ae 01       		.byte	0x1
 15356 23af A408     		.2byte	0x8a4
 15357 23b1 97000000 		.4byte	0x97
 15358 23b5 05       		.uleb128 0x5
 15359 23b6 03       		.byte	0x3
 15360 23b7 01000000 		.4byte	index.9618
 15361 23bb 2A       		.uleb128 0x2a
 15362 23bc 34000000 		.4byte	.LASF493
 15363 23c0 01       		.byte	0x1
 15364 23c1 A508     		.2byte	0x8a5
 15365 23c3 2B0D0000 		.4byte	0xd2b
 15366 23c7 02       		.uleb128 0x2
 15367 23c8 91       		.byte	0x91
 15368 23c9 68       		.sleb128 -24
 15369 23ca 26       		.uleb128 0x26
 15370 23cb 38000000 		.4byte	.LBB57
 15371 23cf E2000000 		.4byte	.LBE57-.LBB57
 15372 23d3 2A       		.uleb128 0x2a
 15373 23d4 B41A0000 		.4byte	.LASF525
 15374 23d8 01       		.byte	0x1
 15375 23d9 AC08     		.2byte	0x8ac
 15376 23db 97000000 		.4byte	0x97
 15377 23df 02       		.uleb128 0x2
 15378 23e0 91       		.byte	0x91
 15379 23e1 67       		.sleb128 -25
 15380 23e2 26       		.uleb128 0x26
 15381 23e3 AA000000 		.4byte	.LBB58
 15382 23e7 70000000 		.4byte	.LBE58-.LBB58
 15383 23eb 2A       		.uleb128 0x2a
 15384 23ec 5E1C0000 		.4byte	.LASF520
 15385 23f0 01       		.byte	0x1
 15386 23f1 B308     		.2byte	0x8b3
 15387 23f3 97000000 		.4byte	0x97
 15388 23f7 02       		.uleb128 0x2
 15389 23f8 91       		.byte	0x91
 15390 23f9 66       		.sleb128 -26
 15391 23fa 00       		.byte	0
 15392 23fb 00       		.byte	0
 15393 23fc 00       		.byte	0
ARM GAS  C:\Users\RECEPC~1\AppData\Local\Temp\cc7aDVfG.s 			page 321


 15394 23fd 2B       		.uleb128 0x2b
 15395 23fe C9080000 		.4byte	.LASF532
 15396 2402 01       		.byte	0x1
 15397 2403 C208     		.2byte	0x8c2
 15398 2405 00000000 		.4byte	.LFB94
 15399 2409 60000000 		.4byte	.LFE94-.LFB94
 15400 240d 01       		.uleb128 0x1
 15401 240e 9C       		.byte	0x9c
 15402 240f 5A240000 		.4byte	0x245a
 15403 2413 2C       		.uleb128 0x2c
 15404 2414 3B230000 		.4byte	.LASF478
 15405 2418 01       		.byte	0x1
 15406 2419 C208     		.2byte	0x8c2
 15407 241b 30010000 		.4byte	0x130
 15408 241f 02       		.uleb128 0x2
 15409 2420 91       		.byte	0x91
 15410 2421 64       		.sleb128 -28
 15411 2422 2A       		.uleb128 0x2a
 15412 2423 34000000 		.4byte	.LASF493
 15413 2427 01       		.byte	0x1
 15414 2428 C408     		.2byte	0x8c4
 15415 242a 2B0D0000 		.4byte	0xd2b
 15416 242e 02       		.uleb128 0x2
 15417 242f 91       		.byte	0x91
 15418 2430 74       		.sleb128 -12
 15419 2431 26       		.uleb128 0x26
 15420 2432 12000000 		.4byte	.LBB59
 15421 2436 48000000 		.4byte	.LBE59-.LBB59
 15422 243a 2A       		.uleb128 0x2a
 15423 243b 54250000 		.4byte	.LASF494
 15424 243f 01       		.byte	0x1
 15425 2440 C708     		.2byte	0x8c7
 15426 2442 81000000 		.4byte	0x81
 15427 2446 02       		.uleb128 0x2
 15428 2447 91       		.byte	0x91
 15429 2448 73       		.sleb128 -13
 15430 2449 2A       		.uleb128 0x2a
 15431 244a D00C0000 		.4byte	.LASF495
 15432 244e 01       		.byte	0x1
 15433 244f C908     		.2byte	0x8c9
 15434 2451 8C050000 		.4byte	0x58c
 15435 2455 02       		.uleb128 0x2
 15436 2456 91       		.byte	0x91
 15437 2457 6C       		.sleb128 -20
 15438 2458 00       		.byte	0
 15439 2459 00       		.byte	0
 15440 245a 2B       		.uleb128 0x2b
 15441 245b 71150000 		.4byte	.LASF533
 15442 245f 01       		.byte	0x1
 15443 2460 D508     		.2byte	0x8d5
 15444 2462 00000000 		.4byte	.LFB95
 15445 2466 40020000 		.4byte	.LFE95-.LFB95
 15446 246a 01       		.uleb128 0x1
 15447 246b 9C       		.byte	0x9c
 15448 246c 0F250000 		.4byte	0x250f
 15449 2470 2C       		.uleb128 0x2c
 15450 2471 3B230000 		.4byte	.LASF478
ARM GAS  C:\Users\RECEPC~1\AppData\Local\Temp\cc7aDVfG.s 			page 322


 15451 2475 01       		.byte	0x1
 15452 2476 D508     		.2byte	0x8d5
 15453 2478 30010000 		.4byte	0x130
 15454 247c 02       		.uleb128 0x2
 15455 247d 91       		.byte	0x91
 15456 247e 64       		.sleb128 -28
 15457 247f 2A       		.uleb128 0x2a
 15458 2480 111F0000 		.4byte	.LASF473
 15459 2484 01       		.byte	0x1
 15460 2485 D808     		.2byte	0x8d8
 15461 2487 730F0000 		.4byte	0xf73
 15462 248b 02       		.uleb128 0x2
 15463 248c 91       		.byte	0x91
 15464 248d 74       		.sleb128 -12
 15465 248e 29       		.uleb128 0x29
 15466 248f 48000000 		.4byte	.LBB60
 15467 2493 6C000000 		.4byte	.LBE60-.LBB60
 15468 2497 BA240000 		.4byte	0x24ba
 15469 249b 2A       		.uleb128 0x2a
 15470 249c DB0E0000 		.4byte	.LASF534
 15471 24a0 01       		.byte	0x1
 15472 24a1 E608     		.2byte	0x8e6
 15473 24a3 97000000 		.4byte	0x97
 15474 24a7 02       		.uleb128 0x2
 15475 24a8 91       		.byte	0x91
 15476 24a9 73       		.sleb128 -13
 15477 24aa 2A       		.uleb128 0x2a
 15478 24ab 330F0000 		.4byte	.LASF535
 15479 24af 01       		.byte	0x1
 15480 24b0 E708     		.2byte	0x8e7
 15481 24b2 97000000 		.4byte	0x97
 15482 24b6 02       		.uleb128 0x2
 15483 24b7 91       		.byte	0x91
 15484 24b8 72       		.sleb128 -14
 15485 24b9 00       		.byte	0
 15486 24ba 29       		.uleb128 0x29
 15487 24bb B4000000 		.4byte	.LBB61
 15488 24bf 6C000000 		.4byte	.LBE61-.LBB61
 15489 24c3 E6240000 		.4byte	0x24e6
 15490 24c7 2A       		.uleb128 0x2a
 15491 24c8 DB0E0000 		.4byte	.LASF534
 15492 24cc 01       		.byte	0x1
 15493 24cd F808     		.2byte	0x8f8
 15494 24cf 97000000 		.4byte	0x97
 15495 24d3 02       		.uleb128 0x2
 15496 24d4 91       		.byte	0x91
 15497 24d5 71       		.sleb128 -15
 15498 24d6 2A       		.uleb128 0x2a
 15499 24d7 330F0000 		.4byte	.LASF535
 15500 24db 01       		.byte	0x1
 15501 24dc F908     		.2byte	0x8f9
 15502 24de 97000000 		.4byte	0x97
 15503 24e2 02       		.uleb128 0x2
 15504 24e3 91       		.byte	0x91
 15505 24e4 70       		.sleb128 -16
 15506 24e5 00       		.byte	0
 15507 24e6 26       		.uleb128 0x26
ARM GAS  C:\Users\RECEPC~1\AppData\Local\Temp\cc7aDVfG.s 			page 323


 15508 24e7 20010000 		.4byte	.LBB62
 15509 24eb 6C000000 		.4byte	.LBE62-.LBB62
 15510 24ef 2A       		.uleb128 0x2a
 15511 24f0 DB0E0000 		.4byte	.LASF534
 15512 24f4 01       		.byte	0x1
 15513 24f5 0A09     		.2byte	0x90a
 15514 24f7 97000000 		.4byte	0x97
 15515 24fb 02       		.uleb128 0x2
 15516 24fc 91       		.byte	0x91
 15517 24fd 6F       		.sleb128 -17
 15518 24fe 2A       		.uleb128 0x2a
 15519 24ff 330F0000 		.4byte	.LASF535
 15520 2503 01       		.byte	0x1
 15521 2504 0B09     		.2byte	0x90b
 15522 2506 97000000 		.4byte	0x97
 15523 250a 02       		.uleb128 0x2
 15524 250b 91       		.byte	0x91
 15525 250c 6E       		.sleb128 -18
 15526 250d 00       		.byte	0
 15527 250e 00       		.byte	0
 15528 250f 2D       		.uleb128 0x2d
 15529 2510 BA0C0000 		.4byte	.LASF536
 15530 2514 01       		.byte	0x1
 15531 2515 3809     		.2byte	0x938
 15532 2517 00000000 		.4byte	.LFB96
 15533 251b 6C000000 		.4byte	.LFE96-.LFB96
 15534 251f 01       		.uleb128 0x1
 15535 2520 9C       		.byte	0x9c
 15536 2521 44250000 		.4byte	0x2544
 15537 2525 2C       		.uleb128 0x2c
 15538 2526 3B230000 		.4byte	.LASF478
 15539 252a 01       		.byte	0x1
 15540 252b 3809     		.2byte	0x938
 15541 252d 11010000 		.4byte	0x111
 15542 2531 02       		.uleb128 0x2
 15543 2532 91       		.byte	0x91
 15544 2533 6C       		.sleb128 -20
 15545 2534 2A       		.uleb128 0x2a
 15546 2535 111F0000 		.4byte	.LASF473
 15547 2539 01       		.byte	0x1
 15548 253a 3A09     		.2byte	0x93a
 15549 253c 730F0000 		.4byte	0xf73
 15550 2540 02       		.uleb128 0x2
 15551 2541 91       		.byte	0x91
 15552 2542 74       		.sleb128 -12
 15553 2543 00       		.byte	0
 15554 2544 2F       		.uleb128 0x2f
 15555 2545 F9270000 		.4byte	.LASF538
 15556 2549 01       		.byte	0x1
 15557 254a 4B09     		.2byte	0x94b
 15558 254c 49020000 		.4byte	0x249
 15559 2550 00000000 		.4byte	.LFB97
 15560 2554 5C010000 		.4byte	.LFE97-.LFB97
 15561 2558 01       		.uleb128 0x1
 15562 2559 9C       		.byte	0x9c
 15563 255a AA250000 		.4byte	0x25aa
 15564 255e 2C       		.uleb128 0x2c
ARM GAS  C:\Users\RECEPC~1\AppData\Local\Temp\cc7aDVfG.s 			page 324


 15565 255f 3B230000 		.4byte	.LASF478
 15566 2563 01       		.byte	0x1
 15567 2564 4B09     		.2byte	0x94b
 15568 2566 11010000 		.4byte	0x111
 15569 256a 02       		.uleb128 0x2
 15570 256b 91       		.byte	0x91
 15571 256c 6C       		.sleb128 -20
 15572 256d 2C       		.uleb128 0x2c
 15573 256e 400F0000 		.4byte	.LASF529
 15574 2572 01       		.byte	0x1
 15575 2573 4B09     		.2byte	0x94b
 15576 2575 11010000 		.4byte	0x111
 15577 2579 02       		.uleb128 0x2
 15578 257a 91       		.byte	0x91
 15579 257b 68       		.sleb128 -24
 15580 257c 2C       		.uleb128 0x2c
 15581 257d 291A0000 		.4byte	.LASF530
 15582 2581 01       		.byte	0x1
 15583 2582 4B09     		.2byte	0x94b
 15584 2584 A3000000 		.4byte	0xa3
 15585 2588 02       		.uleb128 0x2
 15586 2589 91       		.byte	0x91
 15587 258a 66       		.sleb128 -26
 15588 258b 2A       		.uleb128 0x2a
 15589 258c EC150000 		.4byte	.LASF531
 15590 2590 01       		.byte	0x1
 15591 2591 4D09     		.2byte	0x94d
 15592 2593 49020000 		.4byte	0x249
 15593 2597 02       		.uleb128 0x2
 15594 2598 91       		.byte	0x91
 15595 2599 77       		.sleb128 -9
 15596 259a 2A       		.uleb128 0x2a
 15597 259b 34000000 		.4byte	.LASF493
 15598 259f 01       		.byte	0x1
 15599 25a0 4E09     		.2byte	0x94e
 15600 25a2 2B0D0000 		.4byte	0xd2b
 15601 25a6 02       		.uleb128 0x2
 15602 25a7 91       		.byte	0x91
 15603 25a8 70       		.sleb128 -16
 15604 25a9 00       		.byte	0
 15605 25aa 2F       		.uleb128 0x2f
 15606 25ab DC200000 		.4byte	.LASF539
 15607 25af 01       		.byte	0x1
 15608 25b0 7A09     		.2byte	0x97a
 15609 25b2 49020000 		.4byte	0x249
 15610 25b6 00000000 		.4byte	.LFB98
 15611 25ba 4C000000 		.4byte	.LFE98-.LFB98
 15612 25be 01       		.uleb128 0x1
 15613 25bf 9C       		.byte	0x9c
 15614 25c0 10260000 		.4byte	0x2610
 15615 25c4 2C       		.uleb128 0x2c
 15616 25c5 3B230000 		.4byte	.LASF478
 15617 25c9 01       		.byte	0x1
 15618 25ca 7A09     		.2byte	0x97a
 15619 25cc 11010000 		.4byte	0x111
 15620 25d0 02       		.uleb128 0x2
 15621 25d1 91       		.byte	0x91
ARM GAS  C:\Users\RECEPC~1\AppData\Local\Temp\cc7aDVfG.s 			page 325


 15622 25d2 6C       		.sleb128 -20
 15623 25d3 2C       		.uleb128 0x2c
 15624 25d4 400F0000 		.4byte	.LASF529
 15625 25d8 01       		.byte	0x1
 15626 25d9 7A09     		.2byte	0x97a
 15627 25db 11010000 		.4byte	0x111
 15628 25df 02       		.uleb128 0x2
 15629 25e0 91       		.byte	0x91
 15630 25e1 68       		.sleb128 -24
 15631 25e2 2C       		.uleb128 0x2c
 15632 25e3 291A0000 		.4byte	.LASF530
 15633 25e7 01       		.byte	0x1
 15634 25e8 7A09     		.2byte	0x97a
 15635 25ea A3000000 		.4byte	0xa3
 15636 25ee 02       		.uleb128 0x2
 15637 25ef 91       		.byte	0x91
 15638 25f0 66       		.sleb128 -26
 15639 25f1 2A       		.uleb128 0x2a
 15640 25f2 EC150000 		.4byte	.LASF531
 15641 25f6 01       		.byte	0x1
 15642 25f7 7C09     		.2byte	0x97c
 15643 25f9 49020000 		.4byte	0x249
 15644 25fd 02       		.uleb128 0x2
 15645 25fe 91       		.byte	0x91
 15646 25ff 77       		.sleb128 -9
 15647 2600 2A       		.uleb128 0x2a
 15648 2601 34000000 		.4byte	.LASF493
 15649 2605 01       		.byte	0x1
 15650 2606 7D09     		.2byte	0x97d
 15651 2608 2B0D0000 		.4byte	0xd2b
 15652 260c 02       		.uleb128 0x2
 15653 260d 91       		.byte	0x91
 15654 260e 70       		.sleb128 -16
 15655 260f 00       		.byte	0
 15656 2610 2D       		.uleb128 0x2d
 15657 2611 2A160000 		.4byte	.LASF540
 15658 2615 01       		.byte	0x1
 15659 2616 8B09     		.2byte	0x98b
 15660 2618 00000000 		.4byte	.LFB99
 15661 261c 98000000 		.4byte	.LFE99-.LFB99
 15662 2620 01       		.uleb128 0x1
 15663 2621 9C       		.byte	0x9c
 15664 2622 45260000 		.4byte	0x2645
 15665 2626 2C       		.uleb128 0x2c
 15666 2627 3B230000 		.4byte	.LASF478
 15667 262b 01       		.byte	0x1
 15668 262c 8B09     		.2byte	0x98b
 15669 262e 11010000 		.4byte	0x111
 15670 2632 02       		.uleb128 0x2
 15671 2633 91       		.byte	0x91
 15672 2634 6C       		.sleb128 -20
 15673 2635 2A       		.uleb128 0x2a
 15674 2636 111F0000 		.4byte	.LASF473
 15675 263a 01       		.byte	0x1
 15676 263b 8D09     		.2byte	0x98d
 15677 263d 730F0000 		.4byte	0xf73
 15678 2641 02       		.uleb128 0x2
ARM GAS  C:\Users\RECEPC~1\AppData\Local\Temp\cc7aDVfG.s 			page 326


 15679 2642 91       		.byte	0x91
 15680 2643 74       		.sleb128 -12
 15681 2644 00       		.byte	0
 15682 2645 2B       		.uleb128 0x2b
 15683 2646 502A0000 		.4byte	.LASF541
 15684 264a 01       		.byte	0x1
 15685 264b A809     		.2byte	0x9a8
 15686 264d 00000000 		.4byte	.LFB100
 15687 2651 AC000000 		.4byte	.LFE100-.LFB100
 15688 2655 01       		.uleb128 0x1
 15689 2656 9C       		.byte	0x9c
 15690 2657 BB260000 		.4byte	0x26bb
 15691 265b 2C       		.uleb128 0x2c
 15692 265c 3B230000 		.4byte	.LASF478
 15693 2660 01       		.byte	0x1
 15694 2661 A809     		.2byte	0x9a8
 15695 2663 30010000 		.4byte	0x130
 15696 2667 02       		.uleb128 0x2
 15697 2668 91       		.byte	0x91
 15698 2669 64       		.sleb128 -28
 15699 266a 2A       		.uleb128 0x2a
 15700 266b 34000000 		.4byte	.LASF493
 15701 266f 01       		.byte	0x1
 15702 2670 AA09     		.2byte	0x9aa
 15703 2672 2B0D0000 		.4byte	0xd2b
 15704 2676 02       		.uleb128 0x2
 15705 2677 91       		.byte	0x91
 15706 2678 70       		.sleb128 -16
 15707 2679 2A       		.uleb128 0x2a
 15708 267a 8A250000 		.4byte	.LASF542
 15709 267e 01       		.byte	0x1
 15710 267f AB09     		.2byte	0x9ab
 15711 2681 72020000 		.4byte	0x272
 15712 2685 02       		.uleb128 0x2
 15713 2686 91       		.byte	0x91
 15714 2687 6C       		.sleb128 -20
 15715 2688 26       		.uleb128 0x26
 15716 2689 16000000 		.4byte	.LBB63
 15717 268d 86000000 		.4byte	.LBE63-.LBB63
 15718 2691 2A       		.uleb128 0x2a
 15719 2692 FB110000 		.4byte	.LASF543
 15720 2696 01       		.byte	0x1
 15721 2697 B009     		.2byte	0x9b0
 15722 2699 5B0F0000 		.4byte	0xf5b
 15723 269d 02       		.uleb128 0x2
 15724 269e 91       		.byte	0x91
 15725 269f 74       		.sleb128 -12
 15726 26a0 26       		.uleb128 0x26
 15727 26a1 38000000 		.4byte	.LBB64
 15728 26a5 5C000000 		.4byte	.LBE64-.LBB64
 15729 26a9 2A       		.uleb128 0x2a
 15730 26aa 8A0C0000 		.4byte	.LASF544
 15731 26ae 01       		.byte	0x1
 15732 26af B509     		.2byte	0x9b5
 15733 26b1 730F0000 		.4byte	0xf73
 15734 26b5 02       		.uleb128 0x2
 15735 26b6 91       		.byte	0x91
ARM GAS  C:\Users\RECEPC~1\AppData\Local\Temp\cc7aDVfG.s 			page 327


 15736 26b7 68       		.sleb128 -24
 15737 26b8 00       		.byte	0
 15738 26b9 00       		.byte	0
 15739 26ba 00       		.byte	0
 15740 26bb 2F       		.uleb128 0x2f
 15741 26bc 8B160000 		.4byte	.LASF545
 15742 26c0 01       		.byte	0x1
 15743 26c1 CD09     		.2byte	0x9cd
 15744 26c3 81000000 		.4byte	0x81
 15745 26c7 00000000 		.4byte	.LFB101
 15746 26cb 5E000000 		.4byte	.LFE101-.LFB101
 15747 26cf 01       		.uleb128 0x1
 15748 26d0 9C       		.byte	0x9c
 15749 26d1 F4260000 		.4byte	0x26f4
 15750 26d5 2C       		.uleb128 0x2c
 15751 26d6 3B0B0000 		.4byte	.LASF546
 15752 26da 01       		.byte	0x1
 15753 26db CD09     		.2byte	0x9cd
 15754 26dd 3B010000 		.4byte	0x13b
 15755 26e1 02       		.uleb128 0x2
 15756 26e2 91       		.byte	0x91
 15757 26e3 6C       		.sleb128 -20
 15758 26e4 28       		.uleb128 0x28
 15759 26e5 6C726300 		.ascii	"lrc\000"
 15760 26e9 01       		.byte	0x1
 15761 26ea CF09     		.2byte	0x9cf
 15762 26ec 81000000 		.4byte	0x81
 15763 26f0 02       		.uleb128 0x2
 15764 26f1 91       		.byte	0x91
 15765 26f2 77       		.sleb128 -9
 15766 26f3 00       		.byte	0
 15767 26f4 2F       		.uleb128 0x2f
 15768 26f5 53120000 		.4byte	.LASF547
 15769 26f9 01       		.byte	0x1
 15770 26fa D909     		.2byte	0x9d9
 15771 26fc 81000000 		.4byte	0x81
 15772 2700 00000000 		.4byte	.LFB102
 15773 2704 32000000 		.4byte	.LFE102-.LFB102
 15774 2708 01       		.uleb128 0x1
 15775 2709 9C       		.byte	0x9c
 15776 270a 2D270000 		.4byte	0x272d
 15777 270e 2C       		.uleb128 0x2c
 15778 270f 3B0B0000 		.4byte	.LASF546
 15779 2713 01       		.byte	0x1
 15780 2714 D909     		.2byte	0x9d9
 15781 2716 3B010000 		.4byte	0x13b
 15782 271a 02       		.uleb128 0x2
 15783 271b 91       		.byte	0x91
 15784 271c 6C       		.sleb128 -20
 15785 271d 28       		.uleb128 0x28
 15786 271e 6C726300 		.ascii	"lrc\000"
 15787 2722 01       		.byte	0x1
 15788 2723 DB09     		.2byte	0x9db
 15789 2725 81000000 		.4byte	0x81
 15790 2729 02       		.uleb128 0x2
 15791 272a 91       		.byte	0x91
 15792 272b 77       		.sleb128 -9
ARM GAS  C:\Users\RECEPC~1\AppData\Local\Temp\cc7aDVfG.s 			page 328


 15793 272c 00       		.byte	0
 15794 272d 2D       		.uleb128 0x2d
 15795 272e DD130000 		.4byte	.LASF548
 15796 2732 01       		.byte	0x1
 15797 2733 E509     		.2byte	0x9e5
 15798 2735 00000000 		.4byte	.LFB103
 15799 2739 2C000000 		.4byte	.LFE103-.LFB103
 15800 273d 01       		.uleb128 0x1
 15801 273e 9C       		.byte	0x9c
 15802 273f 62270000 		.4byte	0x2762
 15803 2743 2C       		.uleb128 0x2c
 15804 2744 3B230000 		.4byte	.LASF478
 15805 2748 01       		.byte	0x1
 15806 2749 E509     		.2byte	0x9e5
 15807 274b 11010000 		.4byte	0x111
 15808 274f 02       		.uleb128 0x2
 15809 2750 91       		.byte	0x91
 15810 2751 6C       		.sleb128 -20
 15811 2752 2A       		.uleb128 0x2a
 15812 2753 111F0000 		.4byte	.LASF473
 15813 2757 01       		.byte	0x1
 15814 2758 E709     		.2byte	0x9e7
 15815 275a 30100000 		.4byte	0x1030
 15816 275e 02       		.uleb128 0x2
 15817 275f 91       		.byte	0x91
 15818 2760 74       		.sleb128 -12
 15819 2761 00       		.byte	0
 15820 2762 2D       		.uleb128 0x2d
 15821 2763 F7140000 		.4byte	.LASF549
 15822 2767 01       		.byte	0x1
 15823 2768 F109     		.2byte	0x9f1
 15824 276a 00000000 		.4byte	.LFB104
 15825 276e 2C000000 		.4byte	.LFE104-.LFB104
 15826 2772 01       		.uleb128 0x1
 15827 2773 9C       		.byte	0x9c
 15828 2774 97270000 		.4byte	0x2797
 15829 2778 2C       		.uleb128 0x2c
 15830 2779 3B230000 		.4byte	.LASF478
 15831 277d 01       		.byte	0x1
 15832 277e F109     		.2byte	0x9f1
 15833 2780 11010000 		.4byte	0x111
 15834 2784 02       		.uleb128 0x2
 15835 2785 91       		.byte	0x91
 15836 2786 6C       		.sleb128 -20
 15837 2787 2A       		.uleb128 0x2a
 15838 2788 111F0000 		.4byte	.LASF473
 15839 278c 01       		.byte	0x1
 15840 278d F309     		.2byte	0x9f3
 15841 278f 730F0000 		.4byte	0xf73
 15842 2793 02       		.uleb128 0x2
 15843 2794 91       		.byte	0x91
 15844 2795 74       		.sleb128 -12
 15845 2796 00       		.byte	0
 15846 2797 2B       		.uleb128 0x2b
 15847 2798 4A190000 		.4byte	.LASF550
 15848 279c 01       		.byte	0x1
 15849 279d FC09     		.2byte	0x9fc
ARM GAS  C:\Users\RECEPC~1\AppData\Local\Temp\cc7aDVfG.s 			page 329


 15850 279f 00000000 		.4byte	.LFB105
 15851 27a3 48020000 		.4byte	.LFE105-.LFB105
 15852 27a7 01       		.uleb128 0x1
 15853 27a8 9C       		.byte	0x9c
 15854 27a9 E5270000 		.4byte	0x27e5
 15855 27ad 2C       		.uleb128 0x2c
 15856 27ae 3B230000 		.4byte	.LASF478
 15857 27b2 01       		.byte	0x1
 15858 27b3 FC09     		.2byte	0x9fc
 15859 27b5 11010000 		.4byte	0x111
 15860 27b9 02       		.uleb128 0x2
 15861 27ba 91       		.byte	0x91
 15862 27bb 64       		.sleb128 -28
 15863 27bc 2A       		.uleb128 0x2a
 15864 27bd 111F0000 		.4byte	.LASF473
 15865 27c1 01       		.byte	0x1
 15866 27c2 FE09     		.2byte	0x9fe
 15867 27c4 730F0000 		.4byte	0xf73
 15868 27c8 02       		.uleb128 0x2
 15869 27c9 91       		.byte	0x91
 15870 27ca 6C       		.sleb128 -20
 15871 27cb 26       		.uleb128 0x26
 15872 27cc 3C000000 		.4byte	.LBB65
 15873 27d0 FA010000 		.4byte	.LBE65-.LBB65
 15874 27d4 2A       		.uleb128 0x2a
 15875 27d5 6C120000 		.4byte	.LASF526
 15876 27d9 01       		.byte	0x1
 15877 27da 070A     		.2byte	0xa07
 15878 27dc 72020000 		.4byte	0x272
 15879 27e0 02       		.uleb128 0x2
 15880 27e1 91       		.byte	0x91
 15881 27e2 68       		.sleb128 -24
 15882 27e3 00       		.byte	0
 15883 27e4 00       		.byte	0
 15884 27e5 2D       		.uleb128 0x2d
 15885 27e6 780D0000 		.4byte	.LASF551
 15886 27ea 01       		.byte	0x1
 15887 27eb 580A     		.2byte	0xa58
 15888 27ed 00000000 		.4byte	.LFB106
 15889 27f1 74010000 		.4byte	.LFE106-.LFB106
 15890 27f5 01       		.uleb128 0x1
 15891 27f6 9C       		.byte	0x9c
 15892 27f7 56280000 		.4byte	0x2856
 15893 27fb 2C       		.uleb128 0x2c
 15894 27fc 400F0000 		.4byte	.LASF529
 15895 2800 01       		.byte	0x1
 15896 2801 580A     		.2byte	0xa58
 15897 2803 3B010000 		.4byte	0x13b
 15898 2807 02       		.uleb128 0x2
 15899 2808 91       		.byte	0x91
 15900 2809 6C       		.sleb128 -20
 15901 280a 2C       		.uleb128 0x2c
 15902 280b 291A0000 		.4byte	.LASF530
 15903 280f 01       		.byte	0x1
 15904 2810 580A     		.2byte	0xa58
 15905 2812 97000000 		.4byte	0x97
 15906 2816 02       		.uleb128 0x2
ARM GAS  C:\Users\RECEPC~1\AppData\Local\Temp\cc7aDVfG.s 			page 330


 15907 2817 91       		.byte	0x91
 15908 2818 6B       		.sleb128 -21
 15909 2819 2A       		.uleb128 0x2a
 15910 281a 341A0000 		.4byte	.LASF552
 15911 281e 01       		.byte	0x1
 15912 281f 5A0A     		.2byte	0xa5a
 15913 2821 97000000 		.4byte	0x97
 15914 2825 02       		.uleb128 0x2
 15915 2826 91       		.byte	0x91
 15916 2827 77       		.sleb128 -9
 15917 2828 2A       		.uleb128 0x2a
 15918 2829 C6100000 		.4byte	.LASF553
 15919 282d 01       		.byte	0x1
 15920 282e 5B0A     		.2byte	0xa5b
 15921 2830 49020000 		.4byte	0x249
 15922 2834 02       		.uleb128 0x2
 15923 2835 91       		.byte	0x91
 15924 2836 76       		.sleb128 -10
 15925 2837 2A       		.uleb128 0x2a
 15926 2838 54250000 		.4byte	.LASF494
 15927 283c 01       		.byte	0x1
 15928 283d 5D0A     		.2byte	0xa5d
 15929 283f BB000000 		.4byte	0xbb
 15930 2843 02       		.uleb128 0x2
 15931 2844 91       		.byte	0x91
 15932 2845 75       		.sleb128 -11
 15933 2846 2A       		.uleb128 0x2a
 15934 2847 74130000 		.4byte	.LASF554
 15935 284b 01       		.byte	0x1
 15936 284c 6D0A     		.2byte	0xa6d
 15937 284e BB000000 		.4byte	0xbb
 15938 2852 02       		.uleb128 0x2
 15939 2853 91       		.byte	0x91
 15940 2854 74       		.sleb128 -12
 15941 2855 00       		.byte	0
 15942 2856 2D       		.uleb128 0x2d
 15943 2857 5E260000 		.4byte	.LASF555
 15944 285b 01       		.byte	0x1
 15945 285c 900A     		.2byte	0xa90
 15946 285e 00000000 		.4byte	.LFB107
 15947 2862 64010000 		.4byte	.LFE107-.LFB107
 15948 2866 01       		.uleb128 0x1
 15949 2867 9C       		.byte	0x9c
 15950 2868 C7280000 		.4byte	0x28c7
 15951 286c 2C       		.uleb128 0x2c
 15952 286d 400F0000 		.4byte	.LASF529
 15953 2871 01       		.byte	0x1
 15954 2872 900A     		.2byte	0xa90
 15955 2874 3B010000 		.4byte	0x13b
 15956 2878 02       		.uleb128 0x2
 15957 2879 91       		.byte	0x91
 15958 287a 6C       		.sleb128 -20
 15959 287b 2C       		.uleb128 0x2c
 15960 287c 291A0000 		.4byte	.LASF530
 15961 2880 01       		.byte	0x1
 15962 2881 900A     		.2byte	0xa90
 15963 2883 97000000 		.4byte	0x97
ARM GAS  C:\Users\RECEPC~1\AppData\Local\Temp\cc7aDVfG.s 			page 331


 15964 2887 02       		.uleb128 0x2
 15965 2888 91       		.byte	0x91
 15966 2889 6B       		.sleb128 -21
 15967 288a 2A       		.uleb128 0x2a
 15968 288b 341A0000 		.4byte	.LASF552
 15969 288f 01       		.byte	0x1
 15970 2890 920A     		.2byte	0xa92
 15971 2892 97000000 		.4byte	0x97
 15972 2896 02       		.uleb128 0x2
 15973 2897 91       		.byte	0x91
 15974 2898 77       		.sleb128 -9
 15975 2899 2A       		.uleb128 0x2a
 15976 289a C6100000 		.4byte	.LASF553
 15977 289e 01       		.byte	0x1
 15978 289f 930A     		.2byte	0xa93
 15979 28a1 49020000 		.4byte	0x249
 15980 28a5 02       		.uleb128 0x2
 15981 28a6 91       		.byte	0x91
 15982 28a7 76       		.sleb128 -10
 15983 28a8 2A       		.uleb128 0x2a
 15984 28a9 54250000 		.4byte	.LASF494
 15985 28ad 01       		.byte	0x1
 15986 28ae 950A     		.2byte	0xa95
 15987 28b0 BB000000 		.4byte	0xbb
 15988 28b4 02       		.uleb128 0x2
 15989 28b5 91       		.byte	0x91
 15990 28b6 75       		.sleb128 -11
 15991 28b7 2A       		.uleb128 0x2a
 15992 28b8 74130000 		.4byte	.LASF554
 15993 28bc 01       		.byte	0x1
 15994 28bd A50A     		.2byte	0xaa5
 15995 28bf BB000000 		.4byte	0xbb
 15996 28c3 02       		.uleb128 0x2
 15997 28c4 91       		.byte	0x91
 15998 28c5 74       		.sleb128 -12
 15999 28c6 00       		.byte	0
 16000 28c7 2F       		.uleb128 0x2f
 16001 28c8 67240000 		.4byte	.LASF556
 16002 28cc 01       		.byte	0x1
 16003 28cd CE0A     		.2byte	0xace
 16004 28cf E1000000 		.4byte	0xe1
 16005 28d3 00000000 		.4byte	.LFB108
 16006 28d7 48000000 		.4byte	.LFE108-.LFB108
 16007 28db 01       		.uleb128 0x1
 16008 28dc 9C       		.byte	0x9c
 16009 28dd 0F290000 		.4byte	0x290f
 16010 28e1 2C       		.uleb128 0x2c
 16011 28e2 DD260000 		.4byte	.LASF557
 16012 28e6 01       		.byte	0x1
 16013 28e7 CE0A     		.2byte	0xace
 16014 28e9 E1000000 		.4byte	0xe1
 16015 28ed 02       		.uleb128 0x2
 16016 28ee 91       		.byte	0x91
 16017 28ef 6F       		.sleb128 -17
 16018 28f0 2A       		.uleb128 0x2a
 16019 28f1 EC150000 		.4byte	.LASF531
 16020 28f5 01       		.byte	0x1
ARM GAS  C:\Users\RECEPC~1\AppData\Local\Temp\cc7aDVfG.s 			page 332


 16021 28f6 D00A     		.2byte	0xad0
 16022 28f8 E1000000 		.4byte	0xe1
 16023 28fc 02       		.uleb128 0x2
 16024 28fd 91       		.byte	0x91
 16025 28fe 77       		.sleb128 -9
 16026 28ff 2A       		.uleb128 0x2a
 16027 2900 5B1B0000 		.4byte	.LASF558
 16028 2904 01       		.byte	0x1
 16029 2905 D10A     		.2byte	0xad1
 16030 2907 71070000 		.4byte	0x771
 16031 290b 02       		.uleb128 0x2
 16032 290c 91       		.byte	0x91
 16033 290d 70       		.sleb128 -16
 16034 290e 00       		.byte	0
 16035 290f 30       		.uleb128 0x30
 16036 2910 C7180000 		.4byte	.LASF559
 16037 2914 0F       		.byte	0xf
 16038 2915 5506     		.2byte	0x655
 16039 2917 1B290000 		.4byte	0x291b
 16040 291b 06       		.uleb128 0x6
 16041 291c 8C000000 		.4byte	0x8c
 16042 2920 30       		.uleb128 0x30
 16043 2921 9A050000 		.4byte	.LASF560
 16044 2925 0A       		.byte	0xa
 16045 2926 5002     		.2byte	0x250
 16046 2928 61100000 		.4byte	0x1061
 16047 292c 0A       		.uleb128 0xa
 16048 292d 1F0D0000 		.4byte	0xd1f
 16049 2931 3C290000 		.4byte	0x293c
 16050 2935 0B       		.uleb128 0xb
 16051 2936 0A010000 		.4byte	0x10a
 16052 293a 03       		.byte	0x3
 16053 293b 00       		.byte	0
 16054 293c 30       		.uleb128 0x30
 16055 293d 5B120000 		.4byte	.LASF561
 16056 2941 0A       		.byte	0xa
 16057 2942 5102     		.2byte	0x251
 16058 2944 2C290000 		.4byte	0x292c
 16059 2948 30       		.uleb128 0x30
 16060 2949 CF020000 		.4byte	.LASF562
 16061 294d 0A       		.byte	0xa
 16062 294e 5302     		.2byte	0x253
 16063 2950 57110000 		.4byte	0x1157
 16064 2954 31       		.uleb128 0x31
 16065 2955 A6200000 		.4byte	.LASF563
 16066 2959 0D       		.byte	0xd
 16067 295a C3       		.byte	0xc3
 16068 295b 4D140000 		.4byte	0x144d
 16069 295f 31       		.uleb128 0x31
 16070 2960 85200000 		.4byte	.LASF564
 16071 2964 0E       		.byte	0xe
 16072 2965 79       		.byte	0x79
 16073 2966 79140000 		.4byte	0x1479
 16074 296a 32       		.uleb128 0x32
 16075 296b 42020000 		.4byte	.LASF565
 16076 296f 01       		.byte	0x1
 16077 2970 1F       		.byte	0x1f
ARM GAS  C:\Users\RECEPC~1\AppData\Local\Temp\cc7aDVfG.s 			page 333


 16078 2971 97000000 		.4byte	0x97
 16079 2975 05       		.uleb128 0x5
 16080 2976 03       		.byte	0x3
 16081 2977 00000000 		.4byte	errorCounter
 16082 297b 31       		.uleb128 0x31
 16083 297c 67190000 		.4byte	.LASF566
 16084 2980 01       		.byte	0x1
 16085 2981 26       		.byte	0x26
 16086 2982 63110000 		.4byte	0x1163
 16087 2986 0A       		.uleb128 0xa
 16088 2987 E1000000 		.4byte	0xe1
 16089 298b 9C290000 		.4byte	0x299c
 16090 298f 0B       		.uleb128 0xb
 16091 2990 0A010000 		.4byte	0x10a
 16092 2994 0F       		.byte	0xf
 16093 2995 0B       		.uleb128 0xb
 16094 2996 0A010000 		.4byte	0x10a
 16095 299a 01       		.byte	0x1
 16096 299b 00       		.byte	0
 16097 299c 33       		.uleb128 0x33
 16098 299d 9F190000 		.4byte	.LASF567
 16099 29a1 01       		.byte	0x1
 16100 29a2 C60A     		.2byte	0xac6
 16101 29a4 86290000 		.4byte	0x2986
 16102 29a8 05       		.uleb128 0x5
 16103 29a9 03       		.byte	0x3
 16104 29aa 00000000 		.4byte	_g_sfcharmap
 16105 29ae 00       		.byte	0
 16106              		.section	.debug_abbrev,"",%progbits
 16107              	.Ldebug_abbrev0:
 16108 0000 01       		.uleb128 0x1
 16109 0001 11       		.uleb128 0x11
 16110 0002 01       		.byte	0x1
 16111 0003 25       		.uleb128 0x25
 16112 0004 0E       		.uleb128 0xe
 16113 0005 13       		.uleb128 0x13
 16114 0006 0B       		.uleb128 0xb
 16115 0007 03       		.uleb128 0x3
 16116 0008 0E       		.uleb128 0xe
 16117 0009 1B       		.uleb128 0x1b
 16118 000a 0E       		.uleb128 0xe
 16119 000b 55       		.uleb128 0x55
 16120 000c 17       		.uleb128 0x17
 16121 000d 11       		.uleb128 0x11
 16122 000e 01       		.uleb128 0x1
 16123 000f 10       		.uleb128 0x10
 16124 0010 17       		.uleb128 0x17
 16125 0011 00       		.byte	0
 16126 0012 00       		.byte	0
 16127 0013 02       		.uleb128 0x2
 16128 0014 24       		.uleb128 0x24
 16129 0015 00       		.byte	0
 16130 0016 0B       		.uleb128 0xb
 16131 0017 0B       		.uleb128 0xb
 16132 0018 3E       		.uleb128 0x3e
 16133 0019 0B       		.uleb128 0xb
 16134 001a 03       		.uleb128 0x3
ARM GAS  C:\Users\RECEPC~1\AppData\Local\Temp\cc7aDVfG.s 			page 334


 16135 001b 0E       		.uleb128 0xe
 16136 001c 00       		.byte	0
 16137 001d 00       		.byte	0
 16138 001e 03       		.uleb128 0x3
 16139 001f 16       		.uleb128 0x16
 16140 0020 00       		.byte	0
 16141 0021 03       		.uleb128 0x3
 16142 0022 0E       		.uleb128 0xe
 16143 0023 3A       		.uleb128 0x3a
 16144 0024 0B       		.uleb128 0xb
 16145 0025 3B       		.uleb128 0x3b
 16146 0026 0B       		.uleb128 0xb
 16147 0027 49       		.uleb128 0x49
 16148 0028 13       		.uleb128 0x13
 16149 0029 00       		.byte	0
 16150 002a 00       		.byte	0
 16151 002b 04       		.uleb128 0x4
 16152 002c 24       		.uleb128 0x24
 16153 002d 00       		.byte	0
 16154 002e 0B       		.uleb128 0xb
 16155 002f 0B       		.uleb128 0xb
 16156 0030 3E       		.uleb128 0x3e
 16157 0031 0B       		.uleb128 0xb
 16158 0032 03       		.uleb128 0x3
 16159 0033 08       		.uleb128 0x8
 16160 0034 00       		.byte	0
 16161 0035 00       		.byte	0
 16162 0036 05       		.uleb128 0x5
 16163 0037 16       		.uleb128 0x16
 16164 0038 00       		.byte	0
 16165 0039 03       		.uleb128 0x3
 16166 003a 0E       		.uleb128 0xe
 16167 003b 3A       		.uleb128 0x3a
 16168 003c 0B       		.uleb128 0xb
 16169 003d 3B       		.uleb128 0x3b
 16170 003e 05       		.uleb128 0x5
 16171 003f 49       		.uleb128 0x49
 16172 0040 13       		.uleb128 0x13
 16173 0041 00       		.byte	0
 16174 0042 00       		.byte	0
 16175 0043 06       		.uleb128 0x6
 16176 0044 35       		.uleb128 0x35
 16177 0045 00       		.byte	0
 16178 0046 49       		.uleb128 0x49
 16179 0047 13       		.uleb128 0x13
 16180 0048 00       		.byte	0
 16181 0049 00       		.byte	0
 16182 004a 07       		.uleb128 0x7
 16183 004b 0F       		.uleb128 0xf
 16184 004c 00       		.byte	0
 16185 004d 0B       		.uleb128 0xb
 16186 004e 0B       		.uleb128 0xb
 16187 004f 49       		.uleb128 0x49
 16188 0050 13       		.uleb128 0x13
 16189 0051 00       		.byte	0
 16190 0052 00       		.byte	0
 16191 0053 08       		.uleb128 0x8
ARM GAS  C:\Users\RECEPC~1\AppData\Local\Temp\cc7aDVfG.s 			page 335


 16192 0054 15       		.uleb128 0x15
 16193 0055 00       		.byte	0
 16194 0056 27       		.uleb128 0x27
 16195 0057 19       		.uleb128 0x19
 16196 0058 00       		.byte	0
 16197 0059 00       		.byte	0
 16198 005a 09       		.uleb128 0x9
 16199 005b 0F       		.uleb128 0xf
 16200 005c 00       		.byte	0
 16201 005d 0B       		.uleb128 0xb
 16202 005e 0B       		.uleb128 0xb
 16203 005f 00       		.byte	0
 16204 0060 00       		.byte	0
 16205 0061 0A       		.uleb128 0xa
 16206 0062 01       		.uleb128 0x1
 16207 0063 01       		.byte	0x1
 16208 0064 49       		.uleb128 0x49
 16209 0065 13       		.uleb128 0x13
 16210 0066 01       		.uleb128 0x1
 16211 0067 13       		.uleb128 0x13
 16212 0068 00       		.byte	0
 16213 0069 00       		.byte	0
 16214 006a 0B       		.uleb128 0xb
 16215 006b 21       		.uleb128 0x21
 16216 006c 00       		.byte	0
 16217 006d 49       		.uleb128 0x49
 16218 006e 13       		.uleb128 0x13
 16219 006f 2F       		.uleb128 0x2f
 16220 0070 0B       		.uleb128 0xb
 16221 0071 00       		.byte	0
 16222 0072 00       		.byte	0
 16223 0073 0C       		.uleb128 0xc
 16224 0074 04       		.uleb128 0x4
 16225 0075 01       		.byte	0x1
 16226 0076 03       		.uleb128 0x3
 16227 0077 0E       		.uleb128 0xe
 16228 0078 0B       		.uleb128 0xb
 16229 0079 0B       		.uleb128 0xb
 16230 007a 3A       		.uleb128 0x3a
 16231 007b 0B       		.uleb128 0xb
 16232 007c 3B       		.uleb128 0x3b
 16233 007d 0B       		.uleb128 0xb
 16234 007e 01       		.uleb128 0x1
 16235 007f 13       		.uleb128 0x13
 16236 0080 00       		.byte	0
 16237 0081 00       		.byte	0
 16238 0082 0D       		.uleb128 0xd
 16239 0083 28       		.uleb128 0x28
 16240 0084 00       		.byte	0
 16241 0085 03       		.uleb128 0x3
 16242 0086 0E       		.uleb128 0xe
 16243 0087 1C       		.uleb128 0x1c
 16244 0088 0D       		.uleb128 0xd
 16245 0089 00       		.byte	0
 16246 008a 00       		.byte	0
 16247 008b 0E       		.uleb128 0xe
 16248 008c 13       		.uleb128 0x13
ARM GAS  C:\Users\RECEPC~1\AppData\Local\Temp\cc7aDVfG.s 			page 336


 16249 008d 01       		.byte	0x1
 16250 008e 03       		.uleb128 0x3
 16251 008f 0E       		.uleb128 0xe
 16252 0090 0B       		.uleb128 0xb
 16253 0091 05       		.uleb128 0x5
 16254 0092 3A       		.uleb128 0x3a
 16255 0093 0B       		.uleb128 0xb
 16256 0094 3B       		.uleb128 0x3b
 16257 0095 0B       		.uleb128 0xb
 16258 0096 01       		.uleb128 0x1
 16259 0097 13       		.uleb128 0x13
 16260 0098 00       		.byte	0
 16261 0099 00       		.byte	0
 16262 009a 0F       		.uleb128 0xf
 16263 009b 0D       		.uleb128 0xd
 16264 009c 00       		.byte	0
 16265 009d 03       		.uleb128 0x3
 16266 009e 0E       		.uleb128 0xe
 16267 009f 3A       		.uleb128 0x3a
 16268 00a0 0B       		.uleb128 0xb
 16269 00a1 3B       		.uleb128 0x3b
 16270 00a2 0B       		.uleb128 0xb
 16271 00a3 49       		.uleb128 0x49
 16272 00a4 13       		.uleb128 0x13
 16273 00a5 38       		.uleb128 0x38
 16274 00a6 0B       		.uleb128 0xb
 16275 00a7 00       		.byte	0
 16276 00a8 00       		.byte	0
 16277 00a9 10       		.uleb128 0x10
 16278 00aa 0D       		.uleb128 0xd
 16279 00ab 00       		.byte	0
 16280 00ac 03       		.uleb128 0x3
 16281 00ad 0E       		.uleb128 0xe
 16282 00ae 3A       		.uleb128 0x3a
 16283 00af 0B       		.uleb128 0xb
 16284 00b0 3B       		.uleb128 0x3b
 16285 00b1 0B       		.uleb128 0xb
 16286 00b2 49       		.uleb128 0x49
 16287 00b3 13       		.uleb128 0x13
 16288 00b4 38       		.uleb128 0x38
 16289 00b5 05       		.uleb128 0x5
 16290 00b6 00       		.byte	0
 16291 00b7 00       		.byte	0
 16292 00b8 11       		.uleb128 0x11
 16293 00b9 21       		.uleb128 0x21
 16294 00ba 00       		.byte	0
 16295 00bb 49       		.uleb128 0x49
 16296 00bc 13       		.uleb128 0x13
 16297 00bd 2F       		.uleb128 0x2f
 16298 00be 05       		.uleb128 0x5
 16299 00bf 00       		.byte	0
 16300 00c0 00       		.byte	0
 16301 00c1 12       		.uleb128 0x12
 16302 00c2 15       		.uleb128 0x15
 16303 00c3 01       		.byte	0x1
 16304 00c4 27       		.uleb128 0x27
 16305 00c5 19       		.uleb128 0x19
ARM GAS  C:\Users\RECEPC~1\AppData\Local\Temp\cc7aDVfG.s 			page 337


 16306 00c6 01       		.uleb128 0x1
 16307 00c7 13       		.uleb128 0x13
 16308 00c8 00       		.byte	0
 16309 00c9 00       		.byte	0
 16310 00ca 13       		.uleb128 0x13
 16311 00cb 05       		.uleb128 0x5
 16312 00cc 00       		.byte	0
 16313 00cd 49       		.uleb128 0x49
 16314 00ce 13       		.uleb128 0x13
 16315 00cf 00       		.byte	0
 16316 00d0 00       		.byte	0
 16317 00d1 14       		.uleb128 0x14
 16318 00d2 13       		.uleb128 0x13
 16319 00d3 01       		.byte	0x1
 16320 00d4 03       		.uleb128 0x3
 16321 00d5 0E       		.uleb128 0xe
 16322 00d6 0B       		.uleb128 0xb
 16323 00d7 0B       		.uleb128 0xb
 16324 00d8 3A       		.uleb128 0x3a
 16325 00d9 0B       		.uleb128 0xb
 16326 00da 3B       		.uleb128 0x3b
 16327 00db 0B       		.uleb128 0xb
 16328 00dc 01       		.uleb128 0x1
 16329 00dd 13       		.uleb128 0x13
 16330 00de 00       		.byte	0
 16331 00df 00       		.byte	0
 16332 00e0 15       		.uleb128 0x15
 16333 00e1 15       		.uleb128 0x15
 16334 00e2 00       		.byte	0
 16335 00e3 27       		.uleb128 0x27
 16336 00e4 19       		.uleb128 0x19
 16337 00e5 49       		.uleb128 0x49
 16338 00e6 13       		.uleb128 0x13
 16339 00e7 00       		.byte	0
 16340 00e8 00       		.byte	0
 16341 00e9 16       		.uleb128 0x16
 16342 00ea 26       		.uleb128 0x26
 16343 00eb 00       		.byte	0
 16344 00ec 49       		.uleb128 0x49
 16345 00ed 13       		.uleb128 0x13
 16346 00ee 00       		.byte	0
 16347 00ef 00       		.byte	0
 16348 00f0 17       		.uleb128 0x17
 16349 00f1 04       		.uleb128 0x4
 16350 00f2 01       		.byte	0x1
 16351 00f3 0B       		.uleb128 0xb
 16352 00f4 0B       		.uleb128 0xb
 16353 00f5 3A       		.uleb128 0x3a
 16354 00f6 0B       		.uleb128 0xb
 16355 00f7 3B       		.uleb128 0x3b
 16356 00f8 0B       		.uleb128 0xb
 16357 00f9 01       		.uleb128 0x1
 16358 00fa 13       		.uleb128 0x13
 16359 00fb 00       		.byte	0
 16360 00fc 00       		.byte	0
 16361 00fd 18       		.uleb128 0x18
 16362 00fe 15       		.uleb128 0x15
ARM GAS  C:\Users\RECEPC~1\AppData\Local\Temp\cc7aDVfG.s 			page 338


 16363 00ff 01       		.byte	0x1
 16364 0100 27       		.uleb128 0x27
 16365 0101 19       		.uleb128 0x19
 16366 0102 49       		.uleb128 0x49
 16367 0103 13       		.uleb128 0x13
 16368 0104 01       		.uleb128 0x1
 16369 0105 13       		.uleb128 0x13
 16370 0106 00       		.byte	0
 16371 0107 00       		.byte	0
 16372 0108 19       		.uleb128 0x19
 16373 0109 28       		.uleb128 0x28
 16374 010a 00       		.byte	0
 16375 010b 03       		.uleb128 0x3
 16376 010c 08       		.uleb128 0x8
 16377 010d 1C       		.uleb128 0x1c
 16378 010e 0D       		.uleb128 0xd
 16379 010f 00       		.byte	0
 16380 0110 00       		.byte	0
 16381 0111 1A       		.uleb128 0x1a
 16382 0112 04       		.uleb128 0x4
 16383 0113 01       		.byte	0x1
 16384 0114 03       		.uleb128 0x3
 16385 0115 0E       		.uleb128 0xe
 16386 0116 0B       		.uleb128 0xb
 16387 0117 0B       		.uleb128 0xb
 16388 0118 3A       		.uleb128 0x3a
 16389 0119 0B       		.uleb128 0xb
 16390 011a 3B       		.uleb128 0x3b
 16391 011b 05       		.uleb128 0x5
 16392 011c 01       		.uleb128 0x1
 16393 011d 13       		.uleb128 0x13
 16394 011e 00       		.byte	0
 16395 011f 00       		.byte	0
 16396 0120 1B       		.uleb128 0x1b
 16397 0121 13       		.uleb128 0x13
 16398 0122 01       		.byte	0x1
 16399 0123 0B       		.uleb128 0xb
 16400 0124 05       		.uleb128 0x5
 16401 0125 3A       		.uleb128 0x3a
 16402 0126 0B       		.uleb128 0xb
 16403 0127 3B       		.uleb128 0x3b
 16404 0128 05       		.uleb128 0x5
 16405 0129 01       		.uleb128 0x1
 16406 012a 13       		.uleb128 0x13
 16407 012b 00       		.byte	0
 16408 012c 00       		.byte	0
 16409 012d 1C       		.uleb128 0x1c
 16410 012e 0D       		.uleb128 0xd
 16411 012f 00       		.byte	0
 16412 0130 03       		.uleb128 0x3
 16413 0131 0E       		.uleb128 0xe
 16414 0132 3A       		.uleb128 0x3a
 16415 0133 0B       		.uleb128 0xb
 16416 0134 3B       		.uleb128 0x3b
 16417 0135 05       		.uleb128 0x5
 16418 0136 49       		.uleb128 0x49
 16419 0137 13       		.uleb128 0x13
ARM GAS  C:\Users\RECEPC~1\AppData\Local\Temp\cc7aDVfG.s 			page 339


 16420 0138 38       		.uleb128 0x38
 16421 0139 0B       		.uleb128 0xb
 16422 013a 00       		.byte	0
 16423 013b 00       		.byte	0
 16424 013c 1D       		.uleb128 0x1d
 16425 013d 0D       		.uleb128 0xd
 16426 013e 00       		.byte	0
 16427 013f 03       		.uleb128 0x3
 16428 0140 0E       		.uleb128 0xe
 16429 0141 3A       		.uleb128 0x3a
 16430 0142 0B       		.uleb128 0xb
 16431 0143 3B       		.uleb128 0x3b
 16432 0144 05       		.uleb128 0x5
 16433 0145 49       		.uleb128 0x49
 16434 0146 13       		.uleb128 0x13
 16435 0147 38       		.uleb128 0x38
 16436 0148 05       		.uleb128 0x5
 16437 0149 00       		.byte	0
 16438 014a 00       		.byte	0
 16439 014b 1E       		.uleb128 0x1e
 16440 014c 13       		.uleb128 0x13
 16441 014d 01       		.byte	0x1
 16442 014e 0B       		.uleb128 0xb
 16443 014f 0B       		.uleb128 0xb
 16444 0150 3A       		.uleb128 0x3a
 16445 0151 0B       		.uleb128 0xb
 16446 0152 3B       		.uleb128 0x3b
 16447 0153 05       		.uleb128 0x5
 16448 0154 01       		.uleb128 0x1
 16449 0155 13       		.uleb128 0x13
 16450 0156 00       		.byte	0
 16451 0157 00       		.byte	0
 16452 0158 1F       		.uleb128 0x1f
 16453 0159 13       		.uleb128 0x13
 16454 015a 01       		.byte	0x1
 16455 015b 03       		.uleb128 0x3
 16456 015c 0E       		.uleb128 0xe
 16457 015d 0B       		.uleb128 0xb
 16458 015e 05       		.uleb128 0x5
 16459 015f 3A       		.uleb128 0x3a
 16460 0160 0B       		.uleb128 0xb
 16461 0161 3B       		.uleb128 0x3b
 16462 0162 05       		.uleb128 0x5
 16463 0163 01       		.uleb128 0x1
 16464 0164 13       		.uleb128 0x13
 16465 0165 00       		.byte	0
 16466 0166 00       		.byte	0
 16467 0167 20       		.uleb128 0x20
 16468 0168 13       		.uleb128 0x13
 16469 0169 01       		.byte	0x1
 16470 016a 03       		.uleb128 0x3
 16471 016b 0E       		.uleb128 0xe
 16472 016c 0B       		.uleb128 0xb
 16473 016d 0B       		.uleb128 0xb
 16474 016e 3A       		.uleb128 0x3a
 16475 016f 0B       		.uleb128 0xb
 16476 0170 3B       		.uleb128 0x3b
ARM GAS  C:\Users\RECEPC~1\AppData\Local\Temp\cc7aDVfG.s 			page 340


 16477 0171 05       		.uleb128 0x5
 16478 0172 01       		.uleb128 0x1
 16479 0173 13       		.uleb128 0x13
 16480 0174 00       		.byte	0
 16481 0175 00       		.byte	0
 16482 0176 21       		.uleb128 0x21
 16483 0177 0D       		.uleb128 0xd
 16484 0178 00       		.byte	0
 16485 0179 03       		.uleb128 0x3
 16486 017a 0E       		.uleb128 0xe
 16487 017b 3A       		.uleb128 0x3a
 16488 017c 0B       		.uleb128 0xb
 16489 017d 3B       		.uleb128 0x3b
 16490 017e 05       		.uleb128 0x5
 16491 017f 49       		.uleb128 0x49
 16492 0180 13       		.uleb128 0x13
 16493 0181 0B       		.uleb128 0xb
 16494 0182 0B       		.uleb128 0xb
 16495 0183 0D       		.uleb128 0xd
 16496 0184 0B       		.uleb128 0xb
 16497 0185 0C       		.uleb128 0xc
 16498 0186 0B       		.uleb128 0xb
 16499 0187 38       		.uleb128 0x38
 16500 0188 0B       		.uleb128 0xb
 16501 0189 00       		.byte	0
 16502 018a 00       		.byte	0
 16503 018b 22       		.uleb128 0x22
 16504 018c 13       		.uleb128 0x13
 16505 018d 01       		.byte	0x1
 16506 018e 0B       		.uleb128 0xb
 16507 018f 0B       		.uleb128 0xb
 16508 0190 3A       		.uleb128 0x3a
 16509 0191 0B       		.uleb128 0xb
 16510 0192 3B       		.uleb128 0x3b
 16511 0193 0B       		.uleb128 0xb
 16512 0194 01       		.uleb128 0x1
 16513 0195 13       		.uleb128 0x13
 16514 0196 00       		.byte	0
 16515 0197 00       		.byte	0
 16516 0198 23       		.uleb128 0x23
 16517 0199 2E       		.uleb128 0x2e
 16518 019a 01       		.byte	0x1
 16519 019b 3F       		.uleb128 0x3f
 16520 019c 19       		.uleb128 0x19
 16521 019d 03       		.uleb128 0x3
 16522 019e 0E       		.uleb128 0xe
 16523 019f 3A       		.uleb128 0x3a
 16524 01a0 0B       		.uleb128 0xb
 16525 01a1 3B       		.uleb128 0x3b
 16526 01a2 0B       		.uleb128 0xb
 16527 01a3 27       		.uleb128 0x27
 16528 01a4 19       		.uleb128 0x19
 16529 01a5 11       		.uleb128 0x11
 16530 01a6 01       		.uleb128 0x1
 16531 01a7 12       		.uleb128 0x12
 16532 01a8 06       		.uleb128 0x6
 16533 01a9 40       		.uleb128 0x40
ARM GAS  C:\Users\RECEPC~1\AppData\Local\Temp\cc7aDVfG.s 			page 341


 16534 01aa 18       		.uleb128 0x18
 16535 01ab 9642     		.uleb128 0x2116
 16536 01ad 19       		.uleb128 0x19
 16537 01ae 01       		.uleb128 0x1
 16538 01af 13       		.uleb128 0x13
 16539 01b0 00       		.byte	0
 16540 01b1 00       		.byte	0
 16541 01b2 24       		.uleb128 0x24
 16542 01b3 05       		.uleb128 0x5
 16543 01b4 00       		.byte	0
 16544 01b5 03       		.uleb128 0x3
 16545 01b6 0E       		.uleb128 0xe
 16546 01b7 3A       		.uleb128 0x3a
 16547 01b8 0B       		.uleb128 0xb
 16548 01b9 3B       		.uleb128 0x3b
 16549 01ba 0B       		.uleb128 0xb
 16550 01bb 49       		.uleb128 0x49
 16551 01bc 13       		.uleb128 0x13
 16552 01bd 02       		.uleb128 0x2
 16553 01be 18       		.uleb128 0x18
 16554 01bf 00       		.byte	0
 16555 01c0 00       		.byte	0
 16556 01c1 25       		.uleb128 0x25
 16557 01c2 34       		.uleb128 0x34
 16558 01c3 00       		.byte	0
 16559 01c4 03       		.uleb128 0x3
 16560 01c5 0E       		.uleb128 0xe
 16561 01c6 3A       		.uleb128 0x3a
 16562 01c7 0B       		.uleb128 0xb
 16563 01c8 3B       		.uleb128 0x3b
 16564 01c9 0B       		.uleb128 0xb
 16565 01ca 49       		.uleb128 0x49
 16566 01cb 13       		.uleb128 0x13
 16567 01cc 02       		.uleb128 0x2
 16568 01cd 18       		.uleb128 0x18
 16569 01ce 00       		.byte	0
 16570 01cf 00       		.byte	0
 16571 01d0 26       		.uleb128 0x26
 16572 01d1 0B       		.uleb128 0xb
 16573 01d2 01       		.byte	0x1
 16574 01d3 11       		.uleb128 0x11
 16575 01d4 01       		.uleb128 0x1
 16576 01d5 12       		.uleb128 0x12
 16577 01d6 06       		.uleb128 0x6
 16578 01d7 00       		.byte	0
 16579 01d8 00       		.byte	0
 16580 01d9 27       		.uleb128 0x27
 16581 01da 2E       		.uleb128 0x2e
 16582 01db 01       		.byte	0x1
 16583 01dc 3F       		.uleb128 0x3f
 16584 01dd 19       		.uleb128 0x19
 16585 01de 03       		.uleb128 0x3
 16586 01df 0E       		.uleb128 0xe
 16587 01e0 3A       		.uleb128 0x3a
 16588 01e1 0B       		.uleb128 0xb
 16589 01e2 3B       		.uleb128 0x3b
 16590 01e3 0B       		.uleb128 0xb
ARM GAS  C:\Users\RECEPC~1\AppData\Local\Temp\cc7aDVfG.s 			page 342


 16591 01e4 27       		.uleb128 0x27
 16592 01e5 19       		.uleb128 0x19
 16593 01e6 11       		.uleb128 0x11
 16594 01e7 01       		.uleb128 0x1
 16595 01e8 12       		.uleb128 0x12
 16596 01e9 06       		.uleb128 0x6
 16597 01ea 40       		.uleb128 0x40
 16598 01eb 18       		.uleb128 0x18
 16599 01ec 9742     		.uleb128 0x2117
 16600 01ee 19       		.uleb128 0x19
 16601 01ef 01       		.uleb128 0x1
 16602 01f0 13       		.uleb128 0x13
 16603 01f1 00       		.byte	0
 16604 01f2 00       		.byte	0
 16605 01f3 28       		.uleb128 0x28
 16606 01f4 34       		.uleb128 0x34
 16607 01f5 00       		.byte	0
 16608 01f6 03       		.uleb128 0x3
 16609 01f7 08       		.uleb128 0x8
 16610 01f8 3A       		.uleb128 0x3a
 16611 01f9 0B       		.uleb128 0xb
 16612 01fa 3B       		.uleb128 0x3b
 16613 01fb 05       		.uleb128 0x5
 16614 01fc 49       		.uleb128 0x49
 16615 01fd 13       		.uleb128 0x13
 16616 01fe 02       		.uleb128 0x2
 16617 01ff 18       		.uleb128 0x18
 16618 0200 00       		.byte	0
 16619 0201 00       		.byte	0
 16620 0202 29       		.uleb128 0x29
 16621 0203 0B       		.uleb128 0xb
 16622 0204 01       		.byte	0x1
 16623 0205 11       		.uleb128 0x11
 16624 0206 01       		.uleb128 0x1
 16625 0207 12       		.uleb128 0x12
 16626 0208 06       		.uleb128 0x6
 16627 0209 01       		.uleb128 0x1
 16628 020a 13       		.uleb128 0x13
 16629 020b 00       		.byte	0
 16630 020c 00       		.byte	0
 16631 020d 2A       		.uleb128 0x2a
 16632 020e 34       		.uleb128 0x34
 16633 020f 00       		.byte	0
 16634 0210 03       		.uleb128 0x3
 16635 0211 0E       		.uleb128 0xe
 16636 0212 3A       		.uleb128 0x3a
 16637 0213 0B       		.uleb128 0xb
 16638 0214 3B       		.uleb128 0x3b
 16639 0215 05       		.uleb128 0x5
 16640 0216 49       		.uleb128 0x49
 16641 0217 13       		.uleb128 0x13
 16642 0218 02       		.uleb128 0x2
 16643 0219 18       		.uleb128 0x18
 16644 021a 00       		.byte	0
 16645 021b 00       		.byte	0
 16646 021c 2B       		.uleb128 0x2b
 16647 021d 2E       		.uleb128 0x2e
ARM GAS  C:\Users\RECEPC~1\AppData\Local\Temp\cc7aDVfG.s 			page 343


 16648 021e 01       		.byte	0x1
 16649 021f 3F       		.uleb128 0x3f
 16650 0220 19       		.uleb128 0x19
 16651 0221 03       		.uleb128 0x3
 16652 0222 0E       		.uleb128 0xe
 16653 0223 3A       		.uleb128 0x3a
 16654 0224 0B       		.uleb128 0xb
 16655 0225 3B       		.uleb128 0x3b
 16656 0226 05       		.uleb128 0x5
 16657 0227 27       		.uleb128 0x27
 16658 0228 19       		.uleb128 0x19
 16659 0229 11       		.uleb128 0x11
 16660 022a 01       		.uleb128 0x1
 16661 022b 12       		.uleb128 0x12
 16662 022c 06       		.uleb128 0x6
 16663 022d 40       		.uleb128 0x40
 16664 022e 18       		.uleb128 0x18
 16665 022f 9642     		.uleb128 0x2116
 16666 0231 19       		.uleb128 0x19
 16667 0232 01       		.uleb128 0x1
 16668 0233 13       		.uleb128 0x13
 16669 0234 00       		.byte	0
 16670 0235 00       		.byte	0
 16671 0236 2C       		.uleb128 0x2c
 16672 0237 05       		.uleb128 0x5
 16673 0238 00       		.byte	0
 16674 0239 03       		.uleb128 0x3
 16675 023a 0E       		.uleb128 0xe
 16676 023b 3A       		.uleb128 0x3a
 16677 023c 0B       		.uleb128 0xb
 16678 023d 3B       		.uleb128 0x3b
 16679 023e 05       		.uleb128 0x5
 16680 023f 49       		.uleb128 0x49
 16681 0240 13       		.uleb128 0x13
 16682 0241 02       		.uleb128 0x2
 16683 0242 18       		.uleb128 0x18
 16684 0243 00       		.byte	0
 16685 0244 00       		.byte	0
 16686 0245 2D       		.uleb128 0x2d
 16687 0246 2E       		.uleb128 0x2e
 16688 0247 01       		.byte	0x1
 16689 0248 3F       		.uleb128 0x3f
 16690 0249 19       		.uleb128 0x19
 16691 024a 03       		.uleb128 0x3
 16692 024b 0E       		.uleb128 0xe
 16693 024c 3A       		.uleb128 0x3a
 16694 024d 0B       		.uleb128 0xb
 16695 024e 3B       		.uleb128 0x3b
 16696 024f 05       		.uleb128 0x5
 16697 0250 27       		.uleb128 0x27
 16698 0251 19       		.uleb128 0x19
 16699 0252 11       		.uleb128 0x11
 16700 0253 01       		.uleb128 0x1
 16701 0254 12       		.uleb128 0x12
 16702 0255 06       		.uleb128 0x6
 16703 0256 40       		.uleb128 0x40
 16704 0257 18       		.uleb128 0x18
ARM GAS  C:\Users\RECEPC~1\AppData\Local\Temp\cc7aDVfG.s 			page 344


 16705 0258 9742     		.uleb128 0x2117
 16706 025a 19       		.uleb128 0x19
 16707 025b 01       		.uleb128 0x1
 16708 025c 13       		.uleb128 0x13
 16709 025d 00       		.byte	0
 16710 025e 00       		.byte	0
 16711 025f 2E       		.uleb128 0x2e
 16712 0260 2E       		.uleb128 0x2e
 16713 0261 01       		.byte	0x1
 16714 0262 3F       		.uleb128 0x3f
 16715 0263 19       		.uleb128 0x19
 16716 0264 03       		.uleb128 0x3
 16717 0265 0E       		.uleb128 0xe
 16718 0266 3A       		.uleb128 0x3a
 16719 0267 0B       		.uleb128 0xb
 16720 0268 3B       		.uleb128 0x3b
 16721 0269 05       		.uleb128 0x5
 16722 026a 27       		.uleb128 0x27
 16723 026b 19       		.uleb128 0x19
 16724 026c 49       		.uleb128 0x49
 16725 026d 13       		.uleb128 0x13
 16726 026e 11       		.uleb128 0x11
 16727 026f 01       		.uleb128 0x1
 16728 0270 12       		.uleb128 0x12
 16729 0271 06       		.uleb128 0x6
 16730 0272 40       		.uleb128 0x40
 16731 0273 18       		.uleb128 0x18
 16732 0274 9642     		.uleb128 0x2116
 16733 0276 19       		.uleb128 0x19
 16734 0277 01       		.uleb128 0x1
 16735 0278 13       		.uleb128 0x13
 16736 0279 00       		.byte	0
 16737 027a 00       		.byte	0
 16738 027b 2F       		.uleb128 0x2f
 16739 027c 2E       		.uleb128 0x2e
 16740 027d 01       		.byte	0x1
 16741 027e 3F       		.uleb128 0x3f
 16742 027f 19       		.uleb128 0x19
 16743 0280 03       		.uleb128 0x3
 16744 0281 0E       		.uleb128 0xe
 16745 0282 3A       		.uleb128 0x3a
 16746 0283 0B       		.uleb128 0xb
 16747 0284 3B       		.uleb128 0x3b
 16748 0285 05       		.uleb128 0x5
 16749 0286 27       		.uleb128 0x27
 16750 0287 19       		.uleb128 0x19
 16751 0288 49       		.uleb128 0x49
 16752 0289 13       		.uleb128 0x13
 16753 028a 11       		.uleb128 0x11
 16754 028b 01       		.uleb128 0x1
 16755 028c 12       		.uleb128 0x12
 16756 028d 06       		.uleb128 0x6
 16757 028e 40       		.uleb128 0x40
 16758 028f 18       		.uleb128 0x18
 16759 0290 9742     		.uleb128 0x2117
 16760 0292 19       		.uleb128 0x19
 16761 0293 01       		.uleb128 0x1
ARM GAS  C:\Users\RECEPC~1\AppData\Local\Temp\cc7aDVfG.s 			page 345


 16762 0294 13       		.uleb128 0x13
 16763 0295 00       		.byte	0
 16764 0296 00       		.byte	0
 16765 0297 30       		.uleb128 0x30
 16766 0298 34       		.uleb128 0x34
 16767 0299 00       		.byte	0
 16768 029a 03       		.uleb128 0x3
 16769 029b 0E       		.uleb128 0xe
 16770 029c 3A       		.uleb128 0x3a
 16771 029d 0B       		.uleb128 0xb
 16772 029e 3B       		.uleb128 0x3b
 16773 029f 05       		.uleb128 0x5
 16774 02a0 49       		.uleb128 0x49
 16775 02a1 13       		.uleb128 0x13
 16776 02a2 3F       		.uleb128 0x3f
 16777 02a3 19       		.uleb128 0x19
 16778 02a4 3C       		.uleb128 0x3c
 16779 02a5 19       		.uleb128 0x19
 16780 02a6 00       		.byte	0
 16781 02a7 00       		.byte	0
 16782 02a8 31       		.uleb128 0x31
 16783 02a9 34       		.uleb128 0x34
 16784 02aa 00       		.byte	0
 16785 02ab 03       		.uleb128 0x3
 16786 02ac 0E       		.uleb128 0xe
 16787 02ad 3A       		.uleb128 0x3a
 16788 02ae 0B       		.uleb128 0xb
 16789 02af 3B       		.uleb128 0x3b
 16790 02b0 0B       		.uleb128 0xb
 16791 02b1 49       		.uleb128 0x49
 16792 02b2 13       		.uleb128 0x13
 16793 02b3 3F       		.uleb128 0x3f
 16794 02b4 19       		.uleb128 0x19
 16795 02b5 3C       		.uleb128 0x3c
 16796 02b6 19       		.uleb128 0x19
 16797 02b7 00       		.byte	0
 16798 02b8 00       		.byte	0
 16799 02b9 32       		.uleb128 0x32
 16800 02ba 34       		.uleb128 0x34
 16801 02bb 00       		.byte	0
 16802 02bc 03       		.uleb128 0x3
 16803 02bd 0E       		.uleb128 0xe
 16804 02be 3A       		.uleb128 0x3a
 16805 02bf 0B       		.uleb128 0xb
 16806 02c0 3B       		.uleb128 0x3b
 16807 02c1 0B       		.uleb128 0xb
 16808 02c2 49       		.uleb128 0x49
 16809 02c3 13       		.uleb128 0x13
 16810 02c4 3F       		.uleb128 0x3f
 16811 02c5 19       		.uleb128 0x19
 16812 02c6 02       		.uleb128 0x2
 16813 02c7 18       		.uleb128 0x18
 16814 02c8 00       		.byte	0
 16815 02c9 00       		.byte	0
 16816 02ca 33       		.uleb128 0x33
 16817 02cb 34       		.uleb128 0x34
 16818 02cc 00       		.byte	0
ARM GAS  C:\Users\RECEPC~1\AppData\Local\Temp\cc7aDVfG.s 			page 346


 16819 02cd 03       		.uleb128 0x3
 16820 02ce 0E       		.uleb128 0xe
 16821 02cf 3A       		.uleb128 0x3a
 16822 02d0 0B       		.uleb128 0xb
 16823 02d1 3B       		.uleb128 0x3b
 16824 02d2 05       		.uleb128 0x5
 16825 02d3 49       		.uleb128 0x49
 16826 02d4 13       		.uleb128 0x13
 16827 02d5 3F       		.uleb128 0x3f
 16828 02d6 19       		.uleb128 0x19
 16829 02d7 02       		.uleb128 0x2
 16830 02d8 18       		.uleb128 0x18
 16831 02d9 00       		.byte	0
 16832 02da 00       		.byte	0
 16833 02db 00       		.byte	0
 16834              		.section	.debug_aranges,"",%progbits
 16835 0000 84010000 		.4byte	0x184
 16836 0004 0200     		.2byte	0x2
 16837 0006 00000000 		.4byte	.Ldebug_info0
 16838 000a 04       		.byte	0x4
 16839 000b 00       		.byte	0
 16840 000c 0000     		.2byte	0
 16841 000e 0000     		.2byte	0
 16842 0010 00000000 		.4byte	.LFB63
 16843 0014 34010000 		.4byte	.LFE63-.LFB63
 16844 0018 00000000 		.4byte	.LFB64
 16845 001c 50000000 		.4byte	.LFE64-.LFB64
 16846 0020 00000000 		.4byte	.LFB65
 16847 0024 E0000000 		.4byte	.LFE65-.LFB65
 16848 0028 00000000 		.4byte	.LFB66
 16849 002c 9A0F0000 		.4byte	.LFE66-.LFB66
 16850 0030 00000000 		.4byte	.LFB67
 16851 0034 A8010000 		.4byte	.LFE67-.LFB67
 16852 0038 00000000 		.4byte	.LFB68
 16853 003c 2C000000 		.4byte	.LFE68-.LFB68
 16854 0040 00000000 		.4byte	.LFB69
 16855 0044 36000000 		.4byte	.LFE69-.LFB69
 16856 0048 00000000 		.4byte	.LFB70
 16857 004c 36000000 		.4byte	.LFE70-.LFB70
 16858 0050 00000000 		.4byte	.LFB71
 16859 0054 82000000 		.4byte	.LFE71-.LFB71
 16860 0058 00000000 		.4byte	.LFB72
 16861 005c 70000000 		.4byte	.LFE72-.LFB72
 16862 0060 00000000 		.4byte	.LFB73
 16863 0064 60000000 		.4byte	.LFE73-.LFB73
 16864 0068 00000000 		.4byte	.LFB74
 16865 006c 6A000000 		.4byte	.LFE74-.LFB74
 16866 0070 00000000 		.4byte	.LFB75
 16867 0074 6A000000 		.4byte	.LFE75-.LFB75
 16868 0078 00000000 		.4byte	.LFB76
 16869 007c 6A000000 		.4byte	.LFE76-.LFB76
 16870 0080 00000000 		.4byte	.LFB77
 16871 0084 6A000000 		.4byte	.LFE77-.LFB77
 16872 0088 00000000 		.4byte	.LFB78
 16873 008c AA030000 		.4byte	.LFE78-.LFB78
 16874 0090 00000000 		.4byte	.LFB79
 16875 0094 AC030000 		.4byte	.LFE79-.LFB79
ARM GAS  C:\Users\RECEPC~1\AppData\Local\Temp\cc7aDVfG.s 			page 347


 16876 0098 00000000 		.4byte	.LFB80
 16877 009c C4020000 		.4byte	.LFE80-.LFB80
 16878 00a0 00000000 		.4byte	.LFB81
 16879 00a4 14020000 		.4byte	.LFE81-.LFB81
 16880 00a8 00000000 		.4byte	.LFB82
 16881 00ac E8000000 		.4byte	.LFE82-.LFB82
 16882 00b0 00000000 		.4byte	.LFB83
 16883 00b4 5C030000 		.4byte	.LFE83-.LFB83
 16884 00b8 00000000 		.4byte	.LFB84
 16885 00bc 74020000 		.4byte	.LFE84-.LFB84
 16886 00c0 00000000 		.4byte	.LFB85
 16887 00c4 C4020000 		.4byte	.LFE85-.LFB85
 16888 00c8 00000000 		.4byte	.LFB86
 16889 00cc B0010000 		.4byte	.LFE86-.LFB86
 16890 00d0 00000000 		.4byte	.LFB87
 16891 00d4 3C020000 		.4byte	.LFE87-.LFB87
 16892 00d8 00000000 		.4byte	.LFB88
 16893 00dc 6A000000 		.4byte	.LFE88-.LFB88
 16894 00e0 00000000 		.4byte	.LFB89
 16895 00e4 60000000 		.4byte	.LFE89-.LFB89
 16896 00e8 00000000 		.4byte	.LFB90
 16897 00ec E6000000 		.4byte	.LFE90-.LFB90
 16898 00f0 00000000 		.4byte	.LFB91
 16899 00f4 5C040000 		.4byte	.LFE91-.LFB91
 16900 00f8 00000000 		.4byte	.LFB92
 16901 00fc C8040000 		.4byte	.LFE92-.LFB92
 16902 0100 00000000 		.4byte	.LFB93
 16903 0104 28010000 		.4byte	.LFE93-.LFB93
 16904 0108 00000000 		.4byte	.LFB94
 16905 010c 60000000 		.4byte	.LFE94-.LFB94
 16906 0110 00000000 		.4byte	.LFB95
 16907 0114 40020000 		.4byte	.LFE95-.LFB95
 16908 0118 00000000 		.4byte	.LFB96
 16909 011c 6C000000 		.4byte	.LFE96-.LFB96
 16910 0120 00000000 		.4byte	.LFB97
 16911 0124 5C010000 		.4byte	.LFE97-.LFB97
 16912 0128 00000000 		.4byte	.LFB98
 16913 012c 4C000000 		.4byte	.LFE98-.LFB98
 16914 0130 00000000 		.4byte	.LFB99
 16915 0134 98000000 		.4byte	.LFE99-.LFB99
 16916 0138 00000000 		.4byte	.LFB100
 16917 013c AC000000 		.4byte	.LFE100-.LFB100
 16918 0140 00000000 		.4byte	.LFB101
 16919 0144 5E000000 		.4byte	.LFE101-.LFB101
 16920 0148 00000000 		.4byte	.LFB102
 16921 014c 32000000 		.4byte	.LFE102-.LFB102
 16922 0150 00000000 		.4byte	.LFB103
 16923 0154 2C000000 		.4byte	.LFE103-.LFB103
 16924 0158 00000000 		.4byte	.LFB104
 16925 015c 2C000000 		.4byte	.LFE104-.LFB104
 16926 0160 00000000 		.4byte	.LFB105
 16927 0164 48020000 		.4byte	.LFE105-.LFB105
 16928 0168 00000000 		.4byte	.LFB106
 16929 016c 74010000 		.4byte	.LFE106-.LFB106
 16930 0170 00000000 		.4byte	.LFB107
 16931 0174 64010000 		.4byte	.LFE107-.LFB107
 16932 0178 00000000 		.4byte	.LFB108
ARM GAS  C:\Users\RECEPC~1\AppData\Local\Temp\cc7aDVfG.s 			page 348


 16933 017c 48000000 		.4byte	.LFE108-.LFB108
 16934 0180 00000000 		.4byte	0
 16935 0184 00000000 		.4byte	0
 16936              		.section	.debug_ranges,"",%progbits
 16937              	.Ldebug_ranges0:
 16938 0000 00000000 		.4byte	.LFB63
 16939 0004 34010000 		.4byte	.LFE63
 16940 0008 00000000 		.4byte	.LFB64
 16941 000c 50000000 		.4byte	.LFE64
 16942 0010 00000000 		.4byte	.LFB65
 16943 0014 E0000000 		.4byte	.LFE65
 16944 0018 00000000 		.4byte	.LFB66
 16945 001c 9A0F0000 		.4byte	.LFE66
 16946 0020 00000000 		.4byte	.LFB67
 16947 0024 A8010000 		.4byte	.LFE67
 16948 0028 00000000 		.4byte	.LFB68
 16949 002c 2C000000 		.4byte	.LFE68
 16950 0030 00000000 		.4byte	.LFB69
 16951 0034 36000000 		.4byte	.LFE69
 16952 0038 00000000 		.4byte	.LFB70
 16953 003c 36000000 		.4byte	.LFE70
 16954 0040 00000000 		.4byte	.LFB71
 16955 0044 82000000 		.4byte	.LFE71
 16956 0048 00000000 		.4byte	.LFB72
 16957 004c 70000000 		.4byte	.LFE72
 16958 0050 00000000 		.4byte	.LFB73
 16959 0054 60000000 		.4byte	.LFE73
 16960 0058 00000000 		.4byte	.LFB74
 16961 005c 6A000000 		.4byte	.LFE74
 16962 0060 00000000 		.4byte	.LFB75
 16963 0064 6A000000 		.4byte	.LFE75
 16964 0068 00000000 		.4byte	.LFB76
 16965 006c 6A000000 		.4byte	.LFE76
 16966 0070 00000000 		.4byte	.LFB77
 16967 0074 6A000000 		.4byte	.LFE77
 16968 0078 00000000 		.4byte	.LFB78
 16969 007c AA030000 		.4byte	.LFE78
 16970 0080 00000000 		.4byte	.LFB79
 16971 0084 AC030000 		.4byte	.LFE79
 16972 0088 00000000 		.4byte	.LFB80
 16973 008c C4020000 		.4byte	.LFE80
 16974 0090 00000000 		.4byte	.LFB81
 16975 0094 14020000 		.4byte	.LFE81
 16976 0098 00000000 		.4byte	.LFB82
 16977 009c E8000000 		.4byte	.LFE82
 16978 00a0 00000000 		.4byte	.LFB83
 16979 00a4 5C030000 		.4byte	.LFE83
 16980 00a8 00000000 		.4byte	.LFB84
 16981 00ac 74020000 		.4byte	.LFE84
 16982 00b0 00000000 		.4byte	.LFB85
 16983 00b4 C4020000 		.4byte	.LFE85
 16984 00b8 00000000 		.4byte	.LFB86
 16985 00bc B0010000 		.4byte	.LFE86
 16986 00c0 00000000 		.4byte	.LFB87
 16987 00c4 3C020000 		.4byte	.LFE87
 16988 00c8 00000000 		.4byte	.LFB88
 16989 00cc 6A000000 		.4byte	.LFE88
ARM GAS  C:\Users\RECEPC~1\AppData\Local\Temp\cc7aDVfG.s 			page 349


 16990 00d0 00000000 		.4byte	.LFB89
 16991 00d4 60000000 		.4byte	.LFE89
 16992 00d8 00000000 		.4byte	.LFB90
 16993 00dc E6000000 		.4byte	.LFE90
 16994 00e0 00000000 		.4byte	.LFB91
 16995 00e4 5C040000 		.4byte	.LFE91
 16996 00e8 00000000 		.4byte	.LFB92
 16997 00ec C8040000 		.4byte	.LFE92
 16998 00f0 00000000 		.4byte	.LFB93
 16999 00f4 28010000 		.4byte	.LFE93
 17000 00f8 00000000 		.4byte	.LFB94
 17001 00fc 60000000 		.4byte	.LFE94
 17002 0100 00000000 		.4byte	.LFB95
 17003 0104 40020000 		.4byte	.LFE95
 17004 0108 00000000 		.4byte	.LFB96
 17005 010c 6C000000 		.4byte	.LFE96
 17006 0110 00000000 		.4byte	.LFB97
 17007 0114 5C010000 		.4byte	.LFE97
 17008 0118 00000000 		.4byte	.LFB98
 17009 011c 4C000000 		.4byte	.LFE98
 17010 0120 00000000 		.4byte	.LFB99
 17011 0124 98000000 		.4byte	.LFE99
 17012 0128 00000000 		.4byte	.LFB100
 17013 012c AC000000 		.4byte	.LFE100
 17014 0130 00000000 		.4byte	.LFB101
 17015 0134 5E000000 		.4byte	.LFE101
 17016 0138 00000000 		.4byte	.LFB102
 17017 013c 32000000 		.4byte	.LFE102
 17018 0140 00000000 		.4byte	.LFB103
 17019 0144 2C000000 		.4byte	.LFE103
 17020 0148 00000000 		.4byte	.LFB104
 17021 014c 2C000000 		.4byte	.LFE104
 17022 0150 00000000 		.4byte	.LFB105
 17023 0154 48020000 		.4byte	.LFE105
 17024 0158 00000000 		.4byte	.LFB106
 17025 015c 74010000 		.4byte	.LFE106
 17026 0160 00000000 		.4byte	.LFB107
 17027 0164 64010000 		.4byte	.LFE107
 17028 0168 00000000 		.4byte	.LFB108
 17029 016c 48000000 		.4byte	.LFE108
 17030 0170 00000000 		.4byte	0
 17031 0174 00000000 		.4byte	0
 17032              		.section	.debug_line,"",%progbits
 17033              	.Ldebug_line0:
 17034 0000 DE0D0000 		.section	.debug_str,"MS",%progbits,1
 17034      02000402 
 17034      00000201 
 17034      FB0E0D00 
 17034      01010101 
 17035              	.LASF471:
 17036 0000 5F707269 		.ascii	"_printerportside2\000"
 17036      6E746572 
 17036      706F7274 
 17036      73696465 
 17036      3200
 17037              	.LASF369:
 17038 0012 5F706F73 		.ascii	"_positionoffset\000"
ARM GAS  C:\Users\RECEPC~1\AppData\Local\Temp\cc7aDVfG.s 			page 350


 17038      6974696F 
 17038      6E6F6666 
 17038      73657400 
 17039              	.LASF284:
 17040 0022 5F70756D 		.ascii	"_pumprftransstate\000"
 17040      70726674 
 17040      72616E73 
 17040      73746174 
 17040      6500
 17041              	.LASF493:
 17042 0034 7070756D 		.ascii	"ppump\000"
 17042      7000
 17043              	.LASF364:
 17044 003a 5F766F6C 		.ascii	"_volumeunit\000"
 17044      756D6575 
 17044      6E697400 
 17045              	.LASF192:
 17046 0046 44495350 		.ascii	"DISPLAY1\000"
 17046      4C415931 
 17046      00
 17047              	.LASF193:
 17048 004f 44495350 		.ascii	"DISPLAY2\000"
 17048      4C415932 
 17048      00
 17049              	.LASF96:
 17050 0058 5F53494E 		.ascii	"_SINK_MESSAGE_\000"
 17050      4B5F4D45 
 17050      53534147 
 17050      455F00
 17051              	.LASF371:
 17052 0067 504E4541 		.ascii	"PNEARDISPENSERACTIVATEPROGRAMMING\000"
 17052      52444953 
 17052      50454E53 
 17052      45524143 
 17052      54495641 
 17053              	.LASF312:
 17054 0089 52657370 		.ascii	"ResponseSizeResolver\000"
 17054      6F6E7365 
 17054      53697A65 
 17054      5265736F 
 17054      6C766572 
 17055              	.LASF334:
 17056 009e 5F726570 		.ascii	"_repushtimeoutmultiplier\000"
 17056      75736874 
 17056      696D656F 
 17056      75746D75 
 17056      6C746970 
 17057              	.LASF22:
 17058 00b7 73697A65 		.ascii	"sizetype\000"
 17058      74797065 
 17058      00
 17059              	.LASF489:
 17060 00c0 50726F63 		.ascii	"ProcessPumpTotalsDataPpuCheck\000"
 17060      65737350 
 17060      756D7054 
 17060      6F74616C 
 17060      73446174 
ARM GAS  C:\Users\RECEPC~1\AppData\Local\Temp\cc7aDVfG.s 			page 351


 17061              	.LASF60:
 17062 00de 44495350 		.ascii	"DISPENSER_ACQUIRE_PUMP_STATE\000"
 17062      454E5345 
 17062      525F4143 
 17062      51554952 
 17062      455F5055 
 17063              	.LASF123:
 17064 00fb 5F6D6573 		.ascii	"_messagelength\000"
 17064      73616765 
 17064      6C656E67 
 17064      746800
 17065              	.LASF324:
 17066 010a 5F50554D 		.ascii	"_PUMP_TRANSACTION_\000"
 17066      505F5452 
 17066      414E5341 
 17066      4354494F 
 17066      4E5F00
 17067              	.LASF201:
 17068 011d 50554D50 		.ascii	"PUMP_AUTHORIZATION\000"
 17068      5F415554 
 17068      484F5249 
 17068      5A415449 
 17068      4F4E00
 17069              	.LASF458:
 17070 0130 52465F43 		.ascii	"RF_CREDITSALEREPORT\000"
 17070      52454449 
 17070      5453414C 
 17070      45524550 
 17070      4F525400 
 17071              	.LASF145:
 17072 0144 44495350 		.ascii	"DISPLAY_SUBA_MANIJA\000"
 17072      4C41595F 
 17072      53554241 
 17072      5F4D414E 
 17072      494A4100 
 17073              	.LASF373:
 17074 0158 45455052 		.ascii	"EEPROM_CONFIGURATION_PAGE0\000"
 17074      4F4D5F43 
 17074      4F4E4649 
 17074      47555241 
 17074      54494F4E 
 17075              	.LASF37:
 17076 0173 53494E4B 		.ascii	"SINK_BUSY\000"
 17076      5F425553 
 17076      5900
 17077              	.LASF375:
 17078 017d 45455052 		.ascii	"EEPROM_CONFIGURATION_PAGE2\000"
 17078      4F4D5F43 
 17078      4F4E4649 
 17078      47555241 
 17078      54494F4E 
 17079              	.LASF376:
 17080 0198 45455052 		.ascii	"EEPROM_CONFIGURATION_PAGE3\000"
 17080      4F4D5F43 
 17080      4F4E4649 
 17080      47555241 
 17080      54494F4E 
ARM GAS  C:\Users\RECEPC~1\AppData\Local\Temp\cc7aDVfG.s 			page 352


 17081              	.LASF377:
 17082 01b3 45455052 		.ascii	"EEPROM_CONFIGURATION_PAGE4\000"
 17082      4F4D5F43 
 17082      4F4E4649 
 17082      47555241 
 17082      54494F4E 
 17083              	.LASF378:
 17084 01ce 45455052 		.ascii	"EEPROM_CONFIGURATION_PAGE5\000"
 17084      4F4D5F43 
 17084      4F4E4649 
 17084      47555241 
 17084      54494F4E 
 17085              	.LASF379:
 17086 01e9 45455052 		.ascii	"EEPROM_CONFIGURATION_PAGE6\000"
 17086      4F4D5F43 
 17086      4F4E4649 
 17086      47555241 
 17086      54494F4E 
 17087              	.LASF380:
 17088 0204 45455052 		.ascii	"EEPROM_CONFIGURATION_PAGE7\000"
 17088      4F4D5F43 
 17088      4F4E4649 
 17088      47555241 
 17088      54494F4E 
 17089              	.LASF57:
 17090 021f 53494E4B 		.ascii	"SINK_RELEASE_BY_ID\000"
 17090      5F52454C 
 17090      45415345 
 17090      5F42595F 
 17090      494400
 17091              	.LASF129:
 17092 0232 55415254 		.ascii	"UART_RF\000"
 17092      5F524600 
 17093              	.LASF12:
 17094 023a 696E7433 		.ascii	"int32_t\000"
 17094      325F7400 
 17095              	.LASF565:
 17096 0242 6572726F 		.ascii	"errorCounter\000"
 17096      72436F75 
 17096      6E746572 
 17096      00
 17097              	.LASF343:
 17098 024f 5F50554D 		.ascii	"_PUMP_JOB_QUEUE_\000"
 17098      505F4A4F 
 17098      425F5155 
 17098      4555455F 
 17098      00
 17099              	.LASF326:
 17100 0260 5F6A6F62 		.ascii	"_jobs\000"
 17100      7300
 17101              	.LASF292:
 17102 0266 5F727862 		.ascii	"_rxbuffersize\000"
 17102      75666665 
 17102      7273697A 
 17102      6500
 17103              	.LASF91:
 17104 0274 49425554 		.ascii	"IBUTTON1_SCAN\000"
ARM GAS  C:\Users\RECEPC~1\AppData\Local\Temp\cc7aDVfG.s 			page 353


 17104      544F4E31 
 17104      5F534341 
 17104      4E00
 17105              	.LASF217:
 17106 0282 50554D50 		.ascii	"PUMP_AUTHORIZED\000"
 17106      5F415554 
 17106      484F5249 
 17106      5A454400 
 17107              	.LASF55:
 17108 0292 55415254 		.ascii	"UART_RF_AUTONOMOUS_MONITOR\000"
 17108      5F52465F 
 17108      4155544F 
 17108      4E4F4D4F 
 17108      55535F4D 
 17109              	.LASF415:
 17110 02ad 52465F4D 		.ascii	"RF_MUX_CREDIT_SERIAL_AUTH_REQUEST\000"
 17110      55585F43 
 17110      52454449 
 17110      545F5345 
 17110      5249414C 
 17111              	.LASF562:
 17112 02cf 5F675F64 		.ascii	"_g_dispenserlayoutinfo\000"
 17112      69737065 
 17112      6E736572 
 17112      6C61796F 
 17112      7574696E 
 17113              	.LASF15:
 17114 02e6 75696E74 		.ascii	"uint32\000"
 17114      333200
 17115              	.LASF247:
 17116 02ed 5F737461 		.ascii	"_state\000"
 17116      746500
 17117              	.LASF165:
 17118 02f4 44495350 		.ascii	"DISPLAY_COPIA_RECIBO\000"
 17118      4C41595F 
 17118      434F5049 
 17118      415F5245 
 17118      4349424F 
 17119              	.LASF516:
 17120 0309 50756D70 		.ascii	"PumpStopRequest\000"
 17120      53746F70 
 17120      52657175 
 17120      65737400 
 17121              	.LASF408:
 17122 0319 45455052 		.ascii	"EEPROM_DISPENSER_PUMP34_TRANSACTION_PAGE\000"
 17122      4F4D5F44 
 17122      49535045 
 17122      4E534552 
 17122      5F50554D 
 17123              	.LASF223:
 17124 0342 50554D50 		.ascii	"PUMP_UNKNOWN\000"
 17124      5F554E4B 
 17124      4E4F574E 
 17124      00
 17125              	.LASF207:
 17126 034f 50554D50 		.ascii	"PUMP_REAL_TIME_HOSE_VOLUME_REQUEST\000"
 17126      5F524541 
ARM GAS  C:\Users\RECEPC~1\AppData\Local\Temp\cc7aDVfG.s 			page 354


 17126      4C5F5449 
 17126      4D455F48 
 17126      4F53455F 
 17127              	.LASF84:
 17128 0372 44495350 		.ascii	"DISPLAY1_MESSAGE\000"
 17128      4C415931 
 17128      5F4D4553 
 17128      53414745 
 17128      00
 17129              	.LASF506:
 17130 0383 50756D70 		.ascii	"PumpPresetNoHose\000"
 17130      50726573 
 17130      65744E6F 
 17130      486F7365 
 17130      00
 17131              	.LASF64:
 17132 0394 44495350 		.ascii	"DISPENSER_UNLOCK_EOT_PUMPS\000"
 17132      454E5345 
 17132      525F554E 
 17132      4C4F434B 
 17132      5F454F54 
 17133              	.LASF101:
 17134 03af 53746F70 		.ascii	"Stop\000"
 17134      00
 17135              	.LASF117:
 17136 03b4 55415254 		.ascii	"UARTManager\000"
 17136      4D616E61 
 17136      67657200 
 17137              	.LASF452:
 17138 03c0 5F52465F 		.ascii	"_RF_STATES_\000"
 17138      53544154 
 17138      45535F00 
 17139              	.LASF500:
 17140 03cc 50756D70 		.ascii	"PumpTotalsDataRequest\000"
 17140      546F7461 
 17140      6C734461 
 17140      74615265 
 17140      71756573 
 17141              	.LASF353:
 17142 03e2 50756D70 		.ascii	"PumpJobQueue\000"
 17142      4A6F6251 
 17142      75657565 
 17142      00
 17143              	.LASF244:
 17144 03ef 5F50554D 		.ascii	"_PUMP_TRANS_HEALTH_\000"
 17144      505F5452 
 17144      414E535F 
 17144      4845414C 
 17144      54485F00 
 17145              	.LASF199:
 17146 0403 5F434F4D 		.ascii	"_COMMAND_ID_\000"
 17146      4D414E44 
 17146      5F49445F 
 17146      00
 17147              	.LASF467:
 17148 0410 5F74696D 		.ascii	"_timeouttoreceive\000"
 17148      656F7574 
ARM GAS  C:\Users\RECEPC~1\AppData\Local\Temp\cc7aDVfG.s 			page 355


 17148      746F7265 
 17148      63656976 
 17148      6500
 17149              	.LASF177:
 17150 0422 44495350 		.ascii	"DISPLAY_ABRIR_TURNO\000"
 17150      4C41595F 
 17150      41425249 
 17150      525F5455 
 17150      524E4F00 
 17151              	.LASF374:
 17152 0436 45455052 		.ascii	"EEPROM_CONFIGURATION_PAGE1\000"
 17152      4F4D5F43 
 17152      4F4E4649 
 17152      47555241 
 17152      54494F4E 
 17153              	.LASF453:
 17154 0451 52465F49 		.ascii	"RF_IDLE\000"
 17154      444C4500 
 17155              	.LASF497:
 17156 0459 50756D70 		.ascii	"PumpStateRequest\000"
 17156      53746174 
 17156      65526571 
 17156      75657374 
 17156      00
 17157              	.LASF164:
 17158 046a 44495350 		.ascii	"DISPLAY_CONFIGURACIONES\000"
 17158      4C41595F 
 17158      434F4E46 
 17158      49475552 
 17158      4143494F 
 17159              	.LASF124:
 17160 0482 5F6D6573 		.ascii	"_messagetx\000"
 17160      73616765 
 17160      747800
 17161              	.LASF320:
 17162 048d 5F706F73 		.ascii	"_postconditions\000"
 17162      74636F6E 
 17162      64697469 
 17162      6F6E7300 
 17163              	.LASF485:
 17164 049d 64617461 		.ascii	"dataok\000"
 17164      6F6B00
 17165              	.LASF411:
 17166 04a4 45455052 		.ascii	"EEPROM_DISPENSER_PUMP43_TRANSACTION_PAGE\000"
 17166      4F4D5F44 
 17166      49535045 
 17166      4E534552 
 17166      5F50554D 
 17167              	.LASF20:
 17168 04cd 63686172 		.ascii	"char8\000"
 17168      3800
 17169              	.LASF94:
 17170 04d3 544F4747 		.ascii	"TOGGLE_SCREEN_AND_WRITE_TEST\000"
 17170      4C455F53 
 17170      43524545 
 17170      4E5F414E 
 17170      445F5752 
ARM GAS  C:\Users\RECEPC~1\AppData\Local\Temp\cc7aDVfG.s 			page 356


 17171              	.LASF71:
 17172 04f0 44495350 		.ascii	"DISPENSER_ACQUIRE_TOTALS\000"
 17172      454E5345 
 17172      525F4143 
 17172      51554952 
 17172      455F544F 
 17173              	.LASF58:
 17174 0509 53494E4B 		.ascii	"SINK_RELEASE_BY_PTR\000"
 17174      5F52454C 
 17174      45415345 
 17174      5F42595F 
 17174      50545200 
 17175              	.LASF293:
 17176 051d 5F747261 		.ascii	"_transqueue\000"
 17176      6E737175 
 17176      65756500 
 17177              	.LASF474:
 17178 0529 70726576 		.ascii	"prevstate\000"
 17178      73746174 
 17178      6500
 17179              	.LASF385:
 17180 0533 45455052 		.ascii	"EEPROM_DISPENSER_PUMP1_PRODUCT_NAMES_PAGE\000"
 17180      4F4D5F44 
 17180      49535045 
 17180      4E534552 
 17180      5F50554D 
 17181              	.LASF463:
 17182 055d 52465F41 		.ascii	"RF_AUTONOMOUS\000"
 17182      55544F4E 
 17182      4F4D4F55 
 17182      5300
 17183              	.LASF321:
 17184 056b 496E6974 		.ascii	"Initialization\000"
 17184      69616C69 
 17184      7A617469 
 17184      6F6E00
 17185              	.LASF449:
 17186 057a 52465F4D 		.ascii	"RF_MUX_COPY_REQUEST\000"
 17186      55585F43 
 17186      4F50595F 
 17186      52455155 
 17186      45535400 
 17187              	.LASF265:
 17188 058e 5F707265 		.ascii	"_presettype\000"
 17188      73657474 
 17188      79706500 
 17189              	.LASF560:
 17190 059a 5F675F70 		.ascii	"_g_pumpjobqueue\000"
 17190      756D706A 
 17190      6F627175 
 17190      65756500 
 17191              	.LASF404:
 17192 05aa 45455052 		.ascii	"EEPROM_DISPENSER_PUMP24_TRANSACTION_PAGE\000"
 17192      4F4D5F44 
 17192      49535045 
 17192      4E534552 
 17192      5F50554D 
ARM GAS  C:\Users\RECEPC~1\AppData\Local\Temp\cc7aDVfG.s 			page 357


 17193              	.LASF76:
 17194 05d3 5052494E 		.ascii	"PRINTER21_JOB\000"
 17194      54455232 
 17194      315F4A4F 
 17194      4200
 17195              	.LASF228:
 17196 05e1 5F50554D 		.ascii	"_PUMP_FILL_CREDIT_\000"
 17196      505F4649 
 17196      4C4C5F43 
 17196      52454449 
 17196      545F00
 17197              	.LASF16:
 17198 05f4 696E7438 		.ascii	"int8\000"
 17198      00
 17199              	.LASF446:
 17200 05f9 52465F4D 		.ascii	"RF_MUX_ISLAND_OPER_DATA_RESPONSE\000"
 17200      55585F49 
 17200      534C414E 
 17200      445F4F50 
 17200      45525F44 
 17201              	.LASF465:
 17202 061a 5F746F61 		.ascii	"_toautonomoustimetoken\000"
 17202      75746F6E 
 17202      6F6D6F75 
 17202      7374696D 
 17202      65746F6B 
 17203              	.LASF234:
 17204 0631 5F50554D 		.ascii	"_PUMP_EOT_STARTUP_\000"
 17204      505F454F 
 17204      545F5354 
 17204      41525455 
 17204      505F00
 17205              	.LASF381:
 17206 0644 45455052 		.ascii	"EEPROM_DISPENSER_PUMP1_LAYOUT_PAGE\000"
 17206      4F4D5F44 
 17206      49535045 
 17206      4E534552 
 17206      5F50554D 
 17207              	.LASF299:
 17208 0667 50756D70 		.ascii	"PumpTransQueueDeallocate\000"
 17208      5472616E 
 17208      73517565 
 17208      75654465 
 17208      616C6C6F 
 17209              	.LASF206:
 17210 0680 50554D50 		.ascii	"PUMP_REAL_TIME_MONEY_REQUEST\000"
 17210      5F524541 
 17210      4C5F5449 
 17210      4D455F4D 
 17210      4F4E4559 
 17211              	.LASF434:
 17212 069d 52465F4D 		.ascii	"RF_MUX_CREDIT_SALE_PRINT_RESPONSE\000"
 17212      55585F43 
 17212      52454449 
 17212      545F5341 
 17212      4C455F50 
 17213              	.LASF118:
ARM GAS  C:\Users\RECEPC~1\AppData\Local\Temp\cc7aDVfG.s 			page 358


 17214 06bf 5F554152 		.ascii	"_UART_MESSAGE_STATE_\000"
 17214      545F4D45 
 17214      53534147 
 17214      455F5354 
 17214      4154455F 
 17215              	.LASF444:
 17216 06d4 52465F4D 		.ascii	"RF_MUX_POSITION_CFG_RESPONSE\000"
 17216      55585F50 
 17216      4F534954 
 17216      494F4E5F 
 17216      4346475F 
 17217              	.LASF4:
 17218 06f1 5F5F7569 		.ascii	"__uint8_t\000"
 17218      6E74385F 
 17218      7400
 17219              	.LASF407:
 17220 06fb 45455052 		.ascii	"EEPROM_DISPENSER_PUMP33_TRANSACTION_PAGE\000"
 17220      4F4D5F44 
 17220      49535045 
 17220      4E534552 
 17220      5F50554D 
 17221              	.LASF512:
 17222 0724 50756D70 		.ascii	"PumpPpuChange\000"
 17222      50707543 
 17222      68616E67 
 17222      6500
 17223              	.LASF142:
 17224 0732 44495350 		.ascii	"DISPLAY_INTRODUZCA_VALOR2\000"
 17224      4C41595F 
 17224      494E5452 
 17224      4F44555A 
 17224      43415F56 
 17225              	.LASF482:
 17226 074c 6C6F6361 		.ascii	"locallrc\000"
 17226      6C6C7263 
 17226      00
 17227              	.LASF184:
 17228 0755 44495350 		.ascii	"DISPLAY_IDENTIFICADOR_ESTACION\000"
 17228      4C41595F 
 17228      4944454E 
 17228      54494649 
 17228      4341444F 
 17229              	.LASF86:
 17230 0774 44495350 		.ascii	"DISPLAY1_ANIMATE_HOME\000"
 17230      4C415931 
 17230      5F414E49 
 17230      4D415445 
 17230      5F484F4D 
 17231              	.LASF46:
 17232 078a 5F627566 		.ascii	"_buffer\000"
 17232      66657200 
 17233              	.LASF448:
 17234 0792 52465F4D 		.ascii	"RF_MUX_ISLAND_ADMIN_RESPONSE\000"
 17234      55585F49 
 17234      534C414E 
 17234      445F4144 
 17234      4D494E5F 
ARM GAS  C:\Users\RECEPC~1\AppData\Local\Temp\cc7aDVfG.s 			page 359


 17235              	.LASF400:
 17236 07af 45455052 		.ascii	"EEPROM_DISPENSER_PUMP14_TRANSACTION_PAGE\000"
 17236      4F4D5F44 
 17236      49535045 
 17236      4E534552 
 17236      5F50554D 
 17237              	.LASF52:
 17238 07d8 5F53494E 		.ascii	"_SINK_OBSERVABLES_\000"
 17238      4B5F4F42 
 17238      53455256 
 17238      41424C45 
 17238      535F00
 17239              	.LASF337:
 17240 07eb 5F74696D 		.ascii	"_timeoutmultiplier\000"
 17240      656F7574 
 17240      6D756C74 
 17240      69706C69 
 17240      657200
 17241              	.LASF231:
 17242 07fe 5F50554D 		.ascii	"_PUMP_TOTALS_\000"
 17242      505F544F 
 17242      54414C53 
 17242      5F00
 17243              	.LASF372:
 17244 080c 5F454550 		.ascii	"_EEPROM_MEM_FORMAT_\000"
 17244      524F4D5F 
 17244      4D454D5F 
 17244      464F524D 
 17244      41545F00 
 17245              	.LASF19:
 17246 0820 75696E74 		.ascii	"uint64\000"
 17246      363400
 17247              	.LASF6:
 17248 0827 6C6F6E67 		.ascii	"long int\000"
 17248      20696E74 
 17248      00
 17249              	.LASF282:
 17250 0830 5F726F75 		.ascii	"_roundrobinstate\000"
 17250      6E64726F 
 17250      62696E73 
 17250      74617465 
 17250      00
 17251              	.LASF275:
 17252 0841 5F70756D 		.ascii	"_pumpstate\000"
 17252      70737461 
 17252      746500
 17253              	.LASF135:
 17254 084c 5F415641 		.ascii	"_AVAILABLE_DISPLAYS_\000"
 17254      494C4142 
 17254      4C455F44 
 17254      4953504C 
 17254      4159535F 
 17255              	.LASF62:
 17256 0861 44495350 		.ascii	"DISPENSER_EXECUTE_CASH_TRANSACTION\000"
 17256      454E5345 
 17256      525F4558 
 17256      45435554 
ARM GAS  C:\Users\RECEPC~1\AppData\Local\Temp\cc7aDVfG.s 			page 360


 17256      455F4341 
 17257              	.LASF44:
 17258 0884 5F6D6573 		.ascii	"_messagetimeoutmultiplier\000"
 17258      73616765 
 17258      74696D65 
 17258      6F75746D 
 17258      756C7469 
 17259              	.LASF73:
 17260 089e 44495350 		.ascii	"DISPENSER_PUMP_BEEP_WARNING\000"
 17260      454E5345 
 17260      525F5055 
 17260      4D505F42 
 17260      4545505F 
 17261              	.LASF505:
 17262 08ba 50756D70 		.ascii	"PumpPresetHose\000"
 17262      50726573 
 17262      6574486F 
 17262      736500
 17263              	.LASF532:
 17264 08c9 50756D70 		.ascii	"PumpEnumeratorRequest\000"
 17264      456E756D 
 17264      65726174 
 17264      6F725265 
 17264      71756573 
 17265              	.LASF68:
 17266 08df 44495350 		.ascii	"DISPENSER_CONFIGURE_PRICES\000"
 17266      454E5345 
 17266      525F434F 
 17266      4E464947 
 17266      5552455F 
 17267              	.LASF382:
 17268 08fa 45455052 		.ascii	"EEPROM_DISPENSER_PUMP2_LAYOUT_PAGE\000"
 17268      4F4D5F44 
 17268      49535045 
 17268      4E534552 
 17268      5F50554D 
 17269              	.LASF389:
 17270 091d 45455052 		.ascii	"EEPROM_DISPENSER_PUMP1_PPU_INFO_PAGE\000"
 17270      4F4D5F44 
 17270      49535045 
 17270      4E534552 
 17270      5F50554D 
 17271              	.LASF462:
 17272 0942 5F52465F 		.ascii	"_RF_AUTONOMOUS_MODE_\000"
 17272      4155544F 
 17272      4E4F4D4F 
 17272      55535F4D 
 17272      4F44455F 
 17273              	.LASF132:
 17274 0957 55415254 		.ascii	"UART_DISPLAY1\000"
 17274      5F444953 
 17274      504C4159 
 17274      3100
 17275              	.LASF133:
 17276 0965 55415254 		.ascii	"UART_DISPLAY2\000"
 17276      5F444953 
 17276      504C4159 
ARM GAS  C:\Users\RECEPC~1\AppData\Local\Temp\cc7aDVfG.s 			page 361


 17276      3200
 17277              	.LASF235:
 17278 0973 5F50554D 		.ascii	"_PUMP_NETWORK_ENUMERATOR_\000"
 17278      505F4E45 
 17278      54574F52 
 17278      4B5F454E 
 17278      554D4552 
 17279              	.LASF346:
 17280 098d 5F706A6F 		.ascii	"_pjobqueueallocated\000"
 17280      62717565 
 17280      7565616C 
 17280      6C6F6361 
 17280      74656400 
 17281              	.LASF162:
 17282 09a1 44495350 		.ascii	"DISPLAY_INTRODUZCA_KILOMETRAJE\000"
 17282      4C41595F 
 17282      494E5452 
 17282      4F44555A 
 17282      43415F4B 
 17283              	.LASF420:
 17284 09c0 52465F4D 		.ascii	"RF_MUX_CREDIT_PRESET_NOTIFICATION_RESPONSE\000"
 17284      55585F43 
 17284      52454449 
 17284      545F5052 
 17284      45534554 
 17285              	.LASF89:
 17286 09eb 44495350 		.ascii	"DISPLAY2_UPDATE_DATETIME\000"
 17286      4C415932 
 17286      5F555044 
 17286      4154455F 
 17286      44415445 
 17287              	.LASF242:
 17288 0a04 5F50554D 		.ascii	"_PUMP_IDLE_\000"
 17288      505F4944 
 17288      4C455F00 
 17289              	.LASF63:
 17290 0a10 44495350 		.ascii	"DISPENSER_EXECUTE_CREDIT_TRANSACTION\000"
 17290      454E5345 
 17290      525F4558 
 17290      45435554 
 17290      455F4352 
 17291              	.LASF79:
 17292 0a35 5052494E 		.ascii	"PRINTER2_GENERIC_JOB\000"
 17292      54455232 
 17292      5F47454E 
 17292      45524943 
 17292      5F4A4F42 
 17293              	.LASF170:
 17294 0a4a 44495350 		.ascii	"DISPLAY_POR_FAVOR_ESPERE\000"
 17294      4C41595F 
 17294      504F525F 
 17294      4641564F 
 17294      525F4553 
 17295              	.LASF413:
 17296 0a63 52465F4D 		.ascii	"RF_MUX_STATE_REQUEST\000"
 17296      55585F53 
 17296      54415445 
ARM GAS  C:\Users\RECEPC~1\AppData\Local\Temp\cc7aDVfG.s 			page 362


 17296      5F524551 
 17296      55455354 
 17297              	.LASF419:
 17298 0a78 52465F4D 		.ascii	"RF_MUX_CREDIT_PRESET_NOTIFICATION_REQUEST\000"
 17298      55585F43 
 17298      52454449 
 17298      545F5052 
 17298      45534554 
 17299              	.LASF175:
 17300 0aa2 44495350 		.ascii	"DISPLAY_FECHA\000"
 17300      4C41595F 
 17300      46454348 
 17300      4100
 17301              	.LASF328:
 17302 0ab0 5F726565 		.ascii	"_reenqueue\000"
 17302      6E717565 
 17302      756500
 17303              	.LASF511:
 17304 0abb 50756D70 		.ascii	"PumpFullPresetNoHose\000"
 17304      46756C6C 
 17304      50726573 
 17304      65744E6F 
 17304      486F7365 
 17305              	.LASF323:
 17306 0ad0 50756D70 		.ascii	"PumpTransactionJob\000"
 17306      5472616E 
 17306      73616374 
 17306      696F6E4A 
 17306      6F6200
 17307              	.LASF0:
 17308 0ae3 7369676E 		.ascii	"signed char\000"
 17308      65642063 
 17308      68617200 
 17309              	.LASF11:
 17310 0aef 75696E74 		.ascii	"uint8_t\000"
 17310      385F7400 
 17311              	.LASF496:
 17312 0af7 50756D70 		.ascii	"PumpStartupAuthorization\000"
 17312      53746172 
 17312      74757041 
 17312      7574686F 
 17312      72697A61 
 17313              	.LASF156:
 17314 0b10 44495350 		.ascii	"DISPLAY_ID_DIGITAL\000"
 17314      4C41595F 
 17314      49445F44 
 17314      49474954 
 17314      414C00
 17315              	.LASF154:
 17316 0b23 44495350 		.ascii	"DISPLAY_TIEMPO_EXPIRADO\000"
 17316      4C41595F 
 17316      5449454D 
 17316      504F5F45 
 17316      58504952 
 17317              	.LASF546:
 17318 0b3b 5F706275 		.ascii	"_pbuffer\000"
 17318      66666572 
ARM GAS  C:\Users\RECEPC~1\AppData\Local\Temp\cc7aDVfG.s 			page 363


 17318      00
 17319              	.LASF109:
 17320 0b44 436C6561 		.ascii	"ClearRxBuffer\000"
 17320      72527842 
 17320      75666665 
 17320      7200
 17321              	.LASF106:
 17322 0b52 47657443 		.ascii	"GetChar\000"
 17322      68617200 
 17323              	.LASF414:
 17324 0b5a 52465F4D 		.ascii	"RF_MUX_STATE_RESPONSE\000"
 17324      55585F53 
 17324      54415445 
 17324      5F524553 
 17324      504F4E53 
 17325              	.LASF310:
 17326 0b70 52657370 		.ascii	"Response\000"
 17326      6F6E7365 
 17326      00
 17327              	.LASF399:
 17328 0b79 45455052 		.ascii	"EEPROM_DISPENSER_PUMP13_TRANSACTION_PAGE\000"
 17328      4F4D5F44 
 17328      49535045 
 17328      4E534552 
 17328      5F50554D 
 17329              	.LASF180:
 17330 0ba2 44495350 		.ascii	"DISPLAY_USUARIO_VALIDO\000"
 17330      4C41595F 
 17330      55535541 
 17330      52494F5F 
 17330      56414C49 
 17331              	.LASF461:
 17332 0bb9 52465F5A 		.ascii	"RF_ZERO_SALE\000"
 17332      45524F5F 
 17332      53414C45 
 17332      00
 17333              	.LASF178:
 17334 0bc6 44495350 		.ascii	"DISPLAY_CERRAR_TURNO\000"
 17334      4C41595F 
 17334      43455252 
 17334      41525F54 
 17334      55524E4F 
 17335              	.LASF339:
 17336 0bdb 5F707265 		.ascii	"_presponse\000"
 17336      73706F6E 
 17336      736500
 17337              	.LASF167:
 17338 0be6 44495350 		.ascii	"DISPLAY_SELECCIONE_POSICION\000"
 17338      4C41595F 
 17338      53454C45 
 17338      4343494F 
 17338      4E455F50 
 17339              	.LASF121:
 17340 0c02 50454E44 		.ascii	"PENDING\000"
 17340      494E4700 
 17341              	.LASF85:
 17342 0c0a 44495350 		.ascii	"DISPLAY1_UPDATE_DATETIME\000"
ARM GAS  C:\Users\RECEPC~1\AppData\Local\Temp\cc7aDVfG.s 			page 364


 17342      4C415931 
 17342      5F555044 
 17342      4154455F 
 17342      44415445 
 17343              	.LASF368:
 17344 0c23 5F707265 		.ascii	"_presetdigits\000"
 17344      73657464 
 17344      69676974 
 17344      7300
 17345              	.LASF212:
 17346 0c31 4C52436E 		.ascii	"LRCn\000"
 17346      00
 17347              	.LASF1:
 17348 0c36 756E7369 		.ascii	"unsigned char\000"
 17348      676E6564 
 17348      20636861 
 17348      7200
 17349              	.LASF356:
 17350 0c44 5F6E756D 		.ascii	"_numpositions\000"
 17350      706F7369 
 17350      74696F6E 
 17350      7300
 17351              	.LASF141:
 17352 0c52 44495350 		.ascii	"DISPLAY_INTRODUZCA_VALOR\000"
 17352      4C41595F 
 17352      494E5452 
 17352      4F44555A 
 17352      43415F56 
 17353              	.LASF421:
 17354 0c6b 52465F4D 		.ascii	"RF_MUX_CASH_SALE_START_REQUEST\000"
 17354      55585F43 
 17354      4153485F 
 17354      53414C45 
 17354      5F535441 
 17355              	.LASF544:
 17356 0c8a 706A6F62 		.ascii	"pjobcntr\000"
 17356      636E7472 
 17356      00
 17357              	.LASF270:
 17358 0c93 5F736572 		.ascii	"_serial\000"
 17358      69616C00 
 17359              	.LASF169:
 17360 0c9b 44495350 		.ascii	"DISPLAY_ESPERANDO_AUTORIZACION\000"
 17360      4C41595F 
 17360      45535045 
 17360      52414E44 
 17360      4F5F4155 
 17361              	.LASF536:
 17362 0cba 50756D70 		.ascii	"PumpEnumeratorTimeout\000"
 17362      456E756D 
 17362      65726174 
 17362      6F725469 
 17362      6D656F75 
 17363              	.LASF495:
 17364 0cd0 70756172 		.ascii	"puartdisp\000"
 17364      74646973 
 17364      7000
ARM GAS  C:\Users\RECEPC~1\AppData\Local\Temp\cc7aDVfG.s 			page 365


 17365              	.LASF119:
 17366 0cda 46524545 		.ascii	"FREE\000"
 17366      00
 17367              	.LASF457:
 17368 0cdf 52465F57 		.ascii	"RF_WORKSHIFTREQ\000"
 17368      4F524B53 
 17368      48494654 
 17368      52455100 
 17369              	.LASF327:
 17370 0cef 50756D70 		.ascii	"PumpTransaction\000"
 17370      5472616E 
 17370      73616374 
 17370      696F6E00 
 17371              	.LASF483:
 17372 0cff 65657072 		.ascii	"eeprompage\000"
 17372      6F6D7061 
 17372      676500
 17373              	.LASF67:
 17374 0d0a 44495350 		.ascii	"DISPENSER_ACQUIRE_CONFIGURATION_INFORMATION\000"
 17374      454E5345 
 17374      525F4143 
 17374      51554952 
 17374      455F434F 
 17375              	.LASF42:
 17376 0d36 5F6D6573 		.ascii	"_messagedelay\000"
 17376      73616765 
 17376      64656C61 
 17376      7900
 17377              	.LASF363:
 17378 0d44 5F766F6C 		.ascii	"_volumedecimals\000"
 17378      756D6564 
 17378      6563696D 
 17378      616C7300 
 17379              	.LASF50:
 17380 0d54 5F426F6F 		.ascii	"_Bool\000"
 17380      6C00
 17381              	.LASF358:
 17382 0d5a 5F686F73 		.ascii	"_hosesposition2\000"
 17382      6573706F 
 17382      73697469 
 17382      6F6E3200 
 17383              	.LASF269:
 17384 0d6a 5F766F6C 		.ascii	"_volumeamount\000"
 17384      756D6561 
 17384      6D6F756E 
 17384      7400
 17385              	.LASF551:
 17386 0d78 43617374 		.ascii	"CastVolumeValue\000"
 17386      566F6C75 
 17386      6D655661 
 17386      6C756500 
 17387              	.LASF110:
 17388 0d88 57726974 		.ascii	"WriteTxData\000"
 17388      65547844 
 17388      61746100 
 17389              	.LASF36:
 17390 0d94 53494E4B 		.ascii	"SINK_ALLOCATED\000"
ARM GAS  C:\Users\RECEPC~1\AppData\Local\Temp\cc7aDVfG.s 			page 366


 17390      5F414C4C 
 17390      4F434154 
 17390      454400
 17391              	.LASF350:
 17392 0da3 5065656B 		.ascii	"Peek\000"
 17392      00
 17393              	.LASF301:
 17394 0da8 50756D70 		.ascii	"PumpTransQueueDequeue\000"
 17394      5472616E 
 17394      73517565 
 17394      75654465 
 17394      71756575 
 17395              	.LASF21:
 17396 0dbe 63686172 		.ascii	"char\000"
 17396      00
 17397              	.LASF440:
 17398 0dc3 52465F4D 		.ascii	"RF_MUX_LAST_CASH_SALE_RESPONSE\000"
 17398      55585F4C 
 17398      4153545F 
 17398      43415348 
 17398      5F53414C 
 17399              	.LASF433:
 17400 0de2 52465F4D 		.ascii	"RF_MUX_CREDIT_SALE_PRINT_REQUEST\000"
 17400      55585F43 
 17400      52454449 
 17400      545F5341 
 17400      4C455F50 
 17401              	.LASF182:
 17402 0e03 44495350 		.ascii	"DISPLAY_AMBAS_IMPRESORAS_FUNCIONANDO\000"
 17402      4C41595F 
 17402      414D4241 
 17402      535F494D 
 17402      50524553 
 17403              	.LASF31:
 17404 0e28 42524F41 		.ascii	"BROADCASTFOREVER\000"
 17404      44434153 
 17404      54464F52 
 17404      45564552 
 17404      00
 17405              	.LASF88:
 17406 0e39 44495350 		.ascii	"DISPLAY2_MESSAGE\000"
 17406      4C415932 
 17406      5F4D4553 
 17406      53414745 
 17406      00
 17407              	.LASF211:
 17408 0e4a 5052446E 		.ascii	"PRDn\000"
 17408      00
 17409              	.LASF501:
 17410 0e4f 50756D70 		.ascii	"PumpDataToPump\000"
 17410      44617461 
 17410      546F5075 
 17410      6D7000
 17411              	.LASF317:
 17412 0e5e 5F6F6E65 		.ascii	"_oneshotpreconditions\000"
 17412      73686F74 
 17412      70726563 
ARM GAS  C:\Users\RECEPC~1\AppData\Local\Temp\cc7aDVfG.s 			page 367


 17412      6F6E6469 
 17412      74696F6E 
 17413              	.LASF130:
 17414 0e74 55415254 		.ascii	"UART_PRINTER\000"
 17414      5F505249 
 17414      4E544552 
 17414      00
 17415              	.LASF386:
 17416 0e81 45455052 		.ascii	"EEPROM_DISPENSER_PUMP2_PRODUCT_NAMES_PAGE\000"
 17416      4F4D5F44 
 17416      49535045 
 17416      4E534552 
 17416      5F50554D 
 17417              	.LASF361:
 17418 0eab 5F6D6F6E 		.ascii	"_moneydecimals\000"
 17418      65796465 
 17418      63696D61 
 17418      6C7300
 17419              	.LASF105:
 17420 0eba 52656164 		.ascii	"ReadRxStatus\000"
 17420      52785374 
 17420      61747573 
 17420      00
 17421              	.LASF194:
 17422 0ec7 50535452 		.ascii	"PSTR\000"
 17422      00
 17423              	.LASF365:
 17424 0ecc 5F6D696E 		.ascii	"_minmoneyvalue\000"
 17424      6D6F6E65 
 17424      7976616C 
 17424      756500
 17425              	.LASF534:
 17426 0edb 76617230 		.ascii	"var0\000"
 17426      00
 17427              	.LASF283:
 17428 0ee0 5F706F73 		.ascii	"_positionlocked\000"
 17428      6974696F 
 17428      6E6C6F63 
 17428      6B656400 
 17429              	.LASF340:
 17430 0ef0 5F707075 		.ascii	"_ppump\000"
 17430      6D7000
 17431              	.LASF240:
 17432 0ef7 5F50554D 		.ascii	"_PUMP_TRANS_STATE_\000"
 17432      505F5452 
 17432      414E535F 
 17432      53544154 
 17432      455F00
 17433              	.LASF403:
 17434 0f0a 45455052 		.ascii	"EEPROM_DISPENSER_PUMP23_TRANSACTION_PAGE\000"
 17434      4F4D5F44 
 17434      49535045 
 17434      4E534552 
 17434      5F50554D 
 17435              	.LASF535:
 17436 0f33 76617231 		.ascii	"var1\000"
 17436      00
ARM GAS  C:\Users\RECEPC~1\AppData\Local\Temp\cc7aDVfG.s 			page 368


 17437              	.LASF115:
 17438 0f38 50757443 		.ascii	"PutCRLF\000"
 17438      524C4600 
 17439              	.LASF529:
 17440 0f40 70627566 		.ascii	"pbuffer\000"
 17440      66657200 
 17441              	.LASF507:
 17442 0f48 50756D70 		.ascii	"PumpPresetNotification\000"
 17442      50726573 
 17442      65744E6F 
 17442      74696669 
 17442      63617469 
 17443              	.LASF294:
 17444 0f5f 5F747261 		.ascii	"_transqueuelocked\000"
 17444      6E737175 
 17444      6575656C 
 17444      6F636B65 
 17444      6400
 17445              	.LASF519:
 17446 0f71 41637175 		.ascii	"AcquirePumpCompleteConfiguration\000"
 17446      69726550 
 17446      756D7043 
 17446      6F6D706C 
 17446      65746543 
 17447              	.LASF205:
 17448 0f92 50554D50 		.ascii	"PUMP_TOTALS_DATA_REQUEST\000"
 17448      5F544F54 
 17448      414C535F 
 17448      44415441 
 17448      5F524551 
 17449              	.LASF218:
 17450 0fab 50554D50 		.ascii	"PUMP_BUSY\000"
 17450      5F425553 
 17450      5900
 17451              	.LASF147:
 17452 0fb5 44495350 		.ascii	"DISPLAY_BAJE_MANIJA\000"
 17452      4C41595F 
 17452      42414A45 
 17452      5F4D414E 
 17452      494A4100 
 17453              	.LASF479:
 17454 0fc9 50726F63 		.ascii	"ProcessPumpRTMoneyRequest\000"
 17454      65737350 
 17454      756D7052 
 17454      544D6F6E 
 17454      65795265 
 17455              	.LASF75:
 17456 0fe3 5052494E 		.ascii	"PRINTER12_JOB\000"
 17456      54455231 
 17456      325F4A4F 
 17456      4200
 17457              	.LASF384:
 17458 0ff1 45455052 		.ascii	"EEPROM_DISPENSER_PUMP4_LAYOUT_PAGE\000"
 17458      4F4D5F44 
 17458      49535045 
 17458      4E534552 
 17458      5F50554D 
ARM GAS  C:\Users\RECEPC~1\AppData\Local\Temp\cc7aDVfG.s 			page 369


 17459              	.LASF224:
 17460 1014 5F545241 		.ascii	"_TRANSACTION_NAMES_\000"
 17460      4E534143 
 17460      54494F4E 
 17460      5F4E414D 
 17460      45535F00 
 17461              	.LASF43:
 17462 1028 5F6D6573 		.ascii	"_messagetimeout\000"
 17462      73616765 
 17462      74696D65 
 17462      6F757400 
 17463              	.LASF417:
 17464 1038 52465F4D 		.ascii	"RF_MUX_CREDIT_PRESET_AUTHORIZATION_REQUEST\000"
 17464      55585F43 
 17464      52454449 
 17464      545F5052 
 17464      45534554 
 17465              	.LASF477:
 17466 1063 41637175 		.ascii	"AcquireDatatoPumpResponse\000"
 17466      69726544 
 17466      61746174 
 17466      6F50756D 
 17466      70526573 
 17467              	.LASF140:
 17468 107d 44495350 		.ascii	"DISPLAY_FORMA_PROGRAMACION\000"
 17468      4C41595F 
 17468      464F524D 
 17468      415F5052 
 17468      4F475241 
 17469              	.LASF113:
 17470 1098 50757453 		.ascii	"PutString\000"
 17470      7472696E 
 17470      6700
 17471              	.LASF238:
 17472 10a2 5F50554D 		.ascii	"_PUMP_COMPLETE_CONFIGURATION_\000"
 17472      505F434F 
 17472      4D504C45 
 17472      54455F43 
 17472      4F4E4649 
 17473              	.LASF352:
 17474 10c0 436C6561 		.ascii	"Clear\000"
 17474      7200
 17475              	.LASF553:
 17476 10c6 73686966 		.ascii	"shiftbydelimiter\000"
 17476      74627964 
 17476      656C696D 
 17476      69746572 
 17476      00
 17477              	.LASF99:
 17478 10d7 43757374 		.ascii	"CustomUARTSend\000"
 17478      6F6D5541 
 17478      52545365 
 17478      6E6400
 17479              	.LASF492:
 17480 10e6 50756D70 		.ascii	"PumpAuthorization\000"
 17480      41757468 
 17480      6F72697A 
ARM GAS  C:\Users\RECEPC~1\AppData\Local\Temp\cc7aDVfG.s 			page 370


 17480      6174696F 
 17480      6E00
 17481              	.LASF427:
 17482 10f8 52465F4D 		.ascii	"RF_MUX_TOTALS_REPORT_REQUEST\000"
 17482      55585F54 
 17482      4F54414C 
 17482      535F5245 
 17482      504F5254 
 17483              	.LASF362:
 17484 1115 5F707075 		.ascii	"_ppudecimals\000"
 17484      64656369 
 17484      6D616C73 
 17484      00
 17485              	.LASF273:
 17486 1122 5F70756D 		.ascii	"_pumpid\000"
 17486      70696400 
 17487              	.LASF527:
 17488 112a 41637175 		.ascii	"AcquireDispenserLayoutInformation\000"
 17488      69726544 
 17488      69737065 
 17488      6E736572 
 17488      4C61796F 
 17489              	.LASF136:
 17490 114c 44495350 		.ascii	"DISPLAY_INICIO0\000"
 17490      4C41595F 
 17490      494E4943 
 17490      494F3000 
 17491              	.LASF137:
 17492 115c 44495350 		.ascii	"DISPLAY_INICIO1\000"
 17492      4C41595F 
 17492      494E4943 
 17492      494F3100 
 17493              	.LASF138:
 17494 116c 44495350 		.ascii	"DISPLAY_INICIO2\000"
 17494      4C41595F 
 17494      494E4943 
 17494      494F3200 
 17495              	.LASF29:
 17496 117c 44454C41 		.ascii	"DELAYEDALLINTERESTED\000"
 17496      59454441 
 17496      4C4C494E 
 17496      54455245 
 17496      53544544 
 17497              	.LASF291:
 17498 1191 5F727862 		.ascii	"_rxbuffer\000"
 17498      75666665 
 17498      7200
 17499              	.LASF315:
 17500 119b 5F726573 		.ascii	"_responsesize\000"
 17500      706F6E73 
 17500      6573697A 
 17500      6500
 17501              	.LASF347:
 17502 11a9 526F7461 		.ascii	"Rotate\000"
 17502      746500
 17503              	.LASF250:
 17504 11b0 504E4541 		.ascii	"PNEAR_PUMPTRANSACTIONALSTATEPTR\000"
ARM GAS  C:\Users\RECEPC~1\AppData\Local\Temp\cc7aDVfG.s 			page 371


 17504      525F5055 
 17504      4D505452 
 17504      414E5341 
 17504      4354494F 
 17505              	.LASF181:
 17506 11d0 44495350 		.ascii	"DISPLAY_USUARIO_INVALIDO\000"
 17506      4C41595F 
 17506      55535541 
 17506      52494F5F 
 17506      494E5641 
 17507              	.LASF464:
 17508 11e9 52465F4E 		.ascii	"RF_NON_AUTONOMOUS\000"
 17508      4F4E5F41 
 17508      55544F4E 
 17508      4F4D4F55 
 17508      5300
 17509              	.LASF543:
 17510 11fb 7074726A 		.ascii	"ptrjob\000"
 17510      6F6200
 17511              	.LASF392:
 17512 1202 45455052 		.ascii	"EEPROM_DISPENSER_PUMP4_PPU_INFO_PAGE\000"
 17512      4F4D5F44 
 17512      49535045 
 17512      4E534552 
 17512      5F50554D 
 17513              	.LASF80:
 17514 1227 5052494E 		.ascii	"PRINTER1_GENERIC_JOB_LOGO\000"
 17514      54455231 
 17514      5F47454E 
 17514      45524943 
 17514      5F4A4F42 
 17515              	.LASF290:
 17516 1241 5F747261 		.ascii	"_trasactionbuffer\000"
 17516      73616374 
 17516      696F6E62 
 17516      75666665 
 17516      7200
 17517              	.LASF547:
 17518 1253 46696E64 		.ascii	"FindLRC\000"
 17518      4C524300 
 17519              	.LASF561:
 17520 125b 5F675F70 		.ascii	"_g_pumps\000"
 17520      756D7073 
 17520      00
 17521              	.LASF349:
 17522 1264 456E7175 		.ascii	"Enqueue\000"
 17522      65756500 
 17523              	.LASF526:
 17524 126c 7073696E 		.ascii	"psinkmsg\000"
 17524      6B6D7367 
 17524      00
 17525              	.LASF513:
 17526 1275 62756666 		.ascii	"bufferlength\000"
 17526      65726C65 
 17526      6E677468 
 17526      00
 17527              	.LASF271:
ARM GAS  C:\Users\RECEPC~1\AppData\Local\Temp\cc7aDVfG.s 			page 372


 17528 1282 50756D70 		.ascii	"PumpAuthorizationInfo\000"
 17528      41757468 
 17528      6F72697A 
 17528      6174696F 
 17528      6E496E66 
 17529              	.LASF393:
 17530 1298 45455052 		.ascii	"EEPROM_INSEPET_RESERVED_PAGE1\000"
 17530      4F4D5F49 
 17530      4E534550 
 17530      45545F52 
 17530      45534552 
 17531              	.LASF394:
 17532 12b6 45455052 		.ascii	"EEPROM_INSEPET_RESERVED_PAGE2\000"
 17532      4F4D5F49 
 17532      4E534550 
 17532      45545F52 
 17532      45534552 
 17533              	.LASF395:
 17534 12d4 45455052 		.ascii	"EEPROM_INSEPET_RESERVED_PAGE3\000"
 17534      4F4D5F49 
 17534      4E534550 
 17534      45545F52 
 17534      45534552 
 17535              	.LASF396:
 17536 12f2 45455052 		.ascii	"EEPROM_INSEPET_RESERVED_PAGE4\000"
 17536      4F4D5F49 
 17536      4E534550 
 17536      45545F52 
 17536      45534552 
 17537              	.LASF287:
 17538 1310 5F727476 		.ascii	"_rtvolumeamount\000"
 17538      6F6C756D 
 17538      65616D6F 
 17538      756E7400 
 17539              	.LASF330:
 17540 1320 5F64656C 		.ascii	"_delay\000"
 17540      617900
 17541              	.LASF388:
 17542 1327 45455052 		.ascii	"EEPROM_DISPENSER_PUMP4_PRODUCT_NAMES_PAGE\000"
 17542      4F4D5F44 
 17542      49535045 
 17542      4E534552 
 17542      5F50554D 
 17543              	.LASF437:
 17544 1351 52465F4D 		.ascii	"RF_MUX_PENDING_CREDIT_SALE_REQUEST\000"
 17544      55585F50 
 17544      454E4449 
 17544      4E475F43 
 17544      52454449 
 17545              	.LASF554:
 17546 1374 73686966 		.ascii	"shiftcount\000"
 17546      74636F75 
 17546      6E7400
 17547              	.LASF32:
 17548 137f 414C4C49 		.ascii	"ALLINTERESTEDFOREVER\000"
 17548      4E544552 
 17548      45535445 
ARM GAS  C:\Users\RECEPC~1\AppData\Local\Temp\cc7aDVfG.s 			page 373


 17548      44464F52 
 17548      45564552 
 17549              	.LASF537:
 17550 1394 41637175 		.ascii	"AcquirePumpSpecialFunctionResponseResolver\000"
 17550      69726550 
 17550      756D7053 
 17550      70656369 
 17550      616C4675 
 17551              	.LASF354:
 17552 13bf 5F696E63 		.ascii	"_inconfiguration\000"
 17552      6F6E6669 
 17552      67757261 
 17552      74696F6E 
 17552      00
 17553              	.LASF232:
 17554 13d0 5F50554D 		.ascii	"_PUMP_STATE_\000"
 17554      505F5354 
 17554      4154455F 
 17554      00
 17555              	.LASF548:
 17556 13dd 496E6974 		.ascii	"InitiateTransaction\000"
 17556      69617465 
 17556      5472616E 
 17556      73616374 
 17556      696F6E00 
 17557              	.LASF7:
 17558 13f1 6C6F6E67 		.ascii	"long unsigned int\000"
 17558      20756E73 
 17558      69676E65 
 17558      6420696E 
 17558      7400
 17559              	.LASF239:
 17560 1403 5F50554D 		.ascii	"_PUMP_PROGRAM_MODE_\000"
 17560      505F5052 
 17560      4F475241 
 17560      4D5F4D4F 
 17560      44455F00 
 17561              	.LASF186:
 17562 1417 44495350 		.ascii	"DISPLAY_DUMMY0\000"
 17562      4C41595F 
 17562      44554D4D 
 17562      593000
 17563              	.LASF187:
 17564 1426 44495350 		.ascii	"DISPLAY_DUMMY1\000"
 17564      4C41595F 
 17564      44554D4D 
 17564      593100
 17565              	.LASF188:
 17566 1435 44495350 		.ascii	"DISPLAY_DUMMY2\000"
 17566      4C41595F 
 17566      44554D4D 
 17566      593200
 17567              	.LASF189:
 17568 1444 44495350 		.ascii	"DISPLAY_DUMMY3\000"
 17568      4C41595F 
 17568      44554D4D 
 17568      593300
ARM GAS  C:\Users\RECEPC~1\AppData\Local\Temp\cc7aDVfG.s 			page 374


 17569              	.LASF243:
 17570 1453 5F50554D 		.ascii	"_PUMP_UNKNOWN_\000"
 17570      505F554E 
 17570      4B4E4F57 
 17570      4E5F00
 17571              	.LASF517:
 17572 1462 50756D70 		.ascii	"PumpStopAllRequest\000"
 17572      53746F70 
 17572      416C6C52 
 17572      65717565 
 17572      737400
 17573              	.LASF166:
 17574 1475 44495350 		.ascii	"DISPLAY_IMPRIMIENDO_RECIBO\000"
 17574      4C41595F 
 17574      494D5052 
 17574      494D4945 
 17574      4E444F5F 
 17575              	.LASF476:
 17576 1490 41637175 		.ascii	"AcquirePumpStateResponse\000"
 17576      69726550 
 17576      756D7053 
 17576      74617465 
 17576      52657370 
 17577              	.LASF475:
 17578 14a9 70726576 		.ascii	"prevrfstate\000"
 17578      72667374 
 17578      61746500 
 17579              	.LASF424:
 17580 14b5 52465F4D 		.ascii	"RF_MUX_CASH_SALE_END_REPORT_RESPONSE\000"
 17580      55585F43 
 17580      4153485F 
 17580      53414C45 
 17580      5F454E44 
 17581              	.LASF425:
 17582 14da 52465F4D 		.ascii	"RF_MUX_TOTALS_REQUEST\000"
 17582      55585F54 
 17582      4F54414C 
 17582      535F5245 
 17582      51554553 
 17583              	.LASF48:
 17584 14f0 5F706461 		.ascii	"_pdata\000"
 17584      746100
 17585              	.LASF549:
 17586 14f7 5465726D 		.ascii	"TerminateTransaction\000"
 17586      696E6174 
 17586      65547261 
 17586      6E736163 
 17586      74696F6E 
 17587              	.LASF197:
 17588 150c 5F504F49 		.ascii	"_POINT_AS_DECIMAL_SEPARATOR_\000"
 17588      4E545F41 
 17588      535F4445 
 17588      43494D41 
 17588      4C5F5345 
 17589              	.LASF279:
 17590 1529 5F726573 		.ascii	"_restoreprice\000"
 17590      746F7265 
ARM GAS  C:\Users\RECEPC~1\AppData\Local\Temp\cc7aDVfG.s 			page 375


 17590      70726963 
 17590      6500
 17591              	.LASF322:
 17592 1537 46696E61 		.ascii	"Finalization\000"
 17592      6C697A61 
 17592      74696F6E 
 17592      00
 17593              	.LASF49:
 17594 1544 43616C6C 		.ascii	"Callback\000"
 17594      6261636B 
 17594      00
 17595              	.LASF61:
 17596 154d 44495350 		.ascii	"DISPENSER_ACQUIRE_PUMP_HOSE\000"
 17596      454E5345 
 17596      525F4143 
 17596      51554952 
 17596      455F5055 
 17597              	.LASF488:
 17598 1569 70747374 		.ascii	"ptstemp\000"
 17598      656D7000 
 17599              	.LASF533:
 17600 1571 41637175 		.ascii	"AcquirePumpEnumeratorResponse\000"
 17600      69726550 
 17600      756D7045 
 17600      6E756D65 
 17600      7261746F 
 17601              	.LASF338:
 17602 158f 5F707265 		.ascii	"_prequest\000"
 17602      71756573 
 17602      7400
 17603              	.LASF466:
 17604 1599 5F74696D 		.ascii	"_timeouttoautonomous\000"
 17604      656F7574 
 17604      746F6175 
 17604      746F6E6F 
 17604      6D6F7573 
 17605              	.LASF451:
 17606 15ae 52465F4D 		.ascii	"RF_MUX_NULL\000"
 17606      55585F4E 
 17606      554C4C00 
 17607              	.LASF131:
 17608 15ba 55415254 		.ascii	"UART_DISPENSER\000"
 17608      5F444953 
 17608      50454E53 
 17608      455200
 17609              	.LASF159:
 17610 15c9 44495350 		.ascii	"DISPLAY_ID_RECONOCIDO\000"
 17610      4C41595F 
 17610      49445F52 
 17610      45434F4E 
 17610      4F434944 
 17611              	.LASF336:
 17612 15df 5F74696D 		.ascii	"_timeoutseed\000"
 17612      656F7574 
 17612      73656564 
 17612      00
 17613              	.LASF531:
ARM GAS  C:\Users\RECEPC~1\AppData\Local\Temp\cc7aDVfG.s 			page 376


 17614 15ec 72657476 		.ascii	"retval\000"
 17614      616C00
 17615              	.LASF410:
 17616 15f3 45455052 		.ascii	"EEPROM_DISPENSER_PUMP42_TRANSACTION_PAGE\000"
 17616      4F4D5F44 
 17616      49535045 
 17616      4E534552 
 17616      5F50554D 
 17617              	.LASF272:
 17618 161c 5F50554D 		.ascii	"_PUMP_LAYOUT_\000"
 17618      505F4C41 
 17618      594F5554 
 17618      5F00
 17619              	.LASF540:
 17620 162a 41637175 		.ascii	"AcquirePpuChangeResponse\000"
 17620      69726550 
 17620      70754368 
 17620      616E6765 
 17620      52657370 
 17621              	.LASF504:
 17622 1643 62756666 		.ascii	"buffndx\000"
 17622      6E647800 
 17623              	.LASF95:
 17624 164b 57415443 		.ascii	"WATCHDOG_STARTUP\000"
 17624      48444F47 
 17624      5F535441 
 17624      52545550 
 17624      00
 17625              	.LASF183:
 17626 165c 44495350 		.ascii	"DISPLAY_IMPRESORA_NO_FUNCIONANDO\000"
 17626      4C41595F 
 17626      494D5052 
 17626      45534F52 
 17626      415F4E4F 
 17627              	.LASF74:
 17628 167d 5052494E 		.ascii	"PRINTER11_JOB\000"
 17628      54455231 
 17628      315F4A4F 
 17628      4200
 17629              	.LASF545:
 17630 168b 4765744C 		.ascii	"GetLRC\000"
 17630      524300
 17631              	.LASF150:
 17632 1692 44495350 		.ascii	"DISPLAY_INGRESE_PASSWORD\000"
 17632      4C41595F 
 17632      494E4752 
 17632      4553455F 
 17632      50415353 
 17633              	.LASF426:
 17634 16ab 52465F4D 		.ascii	"RF_MUX_TOTALS_RESPONSE\000"
 17634      55585F54 
 17634      4F54414C 
 17634      535F5245 
 17634      53504F4E 
 17635              	.LASF8:
 17636 16c2 6C6F6E67 		.ascii	"long long int\000"
 17636      206C6F6E 
ARM GAS  C:\Users\RECEPC~1\AppData\Local\Temp\cc7aDVfG.s 			page 377


 17636      6720696E 
 17636      7400
 17637              	.LASF325:
 17638 16d0 5F747261 		.ascii	"_transactionname\000"
 17638      6E736163 
 17638      74696F6E 
 17638      6E616D65 
 17638      00
 17639              	.LASF171:
 17640 16e1 44495350 		.ascii	"DISPLAY_AUTORIZACION_ACEPTADA\000"
 17640      4C41595F 
 17640      4155544F 
 17640      52495A41 
 17640      43494F4E 
 17641              	.LASF149:
 17642 16ff 44495350 		.ascii	"DISPLAY_DESEA_IMPRIMIR_RECIBO\000"
 17642      4C41595F 
 17642      44455345 
 17642      415F494D 
 17642      5052494D 
 17643              	.LASF155:
 17644 171d 44495350 		.ascii	"DISPLAY_GRACIAS_VUELVA_PRONTO\000"
 17644      4C41595F 
 17644      47524143 
 17644      4941535F 
 17644      5655454C 
 17645              	.LASF454:
 17646 173b 52465F44 		.ascii	"RF_DELIVERING\000"
 17646      454C4956 
 17646      4552494E 
 17646      4700
 17647              	.LASF59:
 17648 1749 44495350 		.ascii	"DISPENSER_UPDATE_PUMP_TRANSACTION_TIMEOUTS\000"
 17648      454E5345 
 17648      525F5550 
 17648      44415445 
 17648      5F50554D 
 17649              	.LASF435:
 17650 1774 52465F4D 		.ascii	"RF_MUX_CASH_SALE_PRINT_REQUEST\000"
 17650      55585F43 
 17650      4153485F 
 17650      53414C45 
 17650      5F505249 
 17651              	.LASF528:
 17652 1793 70747262 		.ascii	"ptrbuff\000"
 17652      75666600 
 17653              	.LASF116:
 17654 179b 436C6561 		.ascii	"ClearTxBuffer\000"
 17654      72547842 
 17654      75666665 
 17654      7200
 17655              	.LASF18:
 17656 17a9 646F7562 		.ascii	"double\000"
 17656      6C6500
 17657              	.LASF406:
 17658 17b0 45455052 		.ascii	"EEPROM_DISPENSER_PUMP32_TRANSACTION_PAGE\000"
 17658      4F4D5F44 
ARM GAS  C:\Users\RECEPC~1\AppData\Local\Temp\cc7aDVfG.s 			page 378


 17658      49535045 
 17658      4E534552 
 17658      5F50554D 
 17659              	.LASF151:
 17660 17d9 44495350 		.ascii	"DISPLAY_PASSWORD_VALIDO\000"
 17660      4C41595F 
 17660      50415353 
 17660      574F5244 
 17660      5F56414C 
 17661              	.LASF570:
 17662 17f1 433A5C54 		.ascii	"C:\\TeamInsepet\\NSX-Prime\\Hardware\\CorEx-MUX-Ker"
 17662      65616D49 
 17662      6E736570 
 17662      65745C4E 
 17662      53582D50 
 17663 1820 6E656C2D 		.ascii	"nel-Enhanced\\Workspace01\\CorEx-Mux-Kernel.cydsn\000"
 17663      456E6861 
 17663      6E636564 
 17663      5C576F72 
 17663      6B737061 
 17664              	.LASF143:
 17665 1850 44495350 		.ascii	"DISPLAY_SELECCIONE_PRODUCTO3\000"
 17665      4C41595F 
 17665      53454C45 
 17665      4343494F 
 17665      4E455F50 
 17666              	.LASF144:
 17667 186d 44495350 		.ascii	"DISPLAY_SELECCIONE_PRODUCTO4\000"
 17667      4C41595F 
 17667      53454C45 
 17667      4343494F 
 17667      4E455F50 
 17668              	.LASF208:
 17669 188a 50554D50 		.ascii	"PUMP_ALL_PUMPS_STOP\000"
 17669      5F414C4C 
 17669      5F50554D 
 17669      50535F53 
 17669      544F5000 
 17670              	.LASF152:
 17671 189e 44495350 		.ascii	"DISPLAY_PASSWORD_INVALIDO\000"
 17671      4C41595F 
 17671      50415353 
 17671      574F5244 
 17671      5F494E56 
 17672              	.LASF286:
 17673 18b8 5F72746D 		.ascii	"_rtmoneyamount\000"
 17673      6F6E6579 
 17673      616D6F75 
 17673      6E7400
 17674              	.LASF559:
 17675 18c7 49544D5F 		.ascii	"ITM_RxBuffer\000"
 17675      52784275 
 17675      66666572 
 17675      00
 17676              	.LASF38:
 17677 18d4 5F73656C 		.ascii	"_selfkill\000"
 17677      666B696C 
ARM GAS  C:\Users\RECEPC~1\AppData\Local\Temp\cc7aDVfG.s 			page 379


 17677      6C00
 17678              	.LASF17:
 17679 18de 666C6F61 		.ascii	"float\000"
 17679      7400
 17680              	.LASF523:
 17681 18e4 70747265 		.ascii	"ptreeprom\000"
 17681      6570726F 
 17681      6D00
 17682              	.LASF409:
 17683 18ee 45455052 		.ascii	"EEPROM_DISPENSER_PUMP41_TRANSACTION_PAGE\000"
 17683      4F4D5F44 
 17683      49535045 
 17683      4E534552 
 17683      5F50554D 
 17684              	.LASF245:
 17685 1917 5F50554D 		.ascii	"_PUMP_OK_\000"
 17685      505F4F4B 
 17685      5F00
 17686              	.LASF397:
 17687 1921 45455052 		.ascii	"EEPROM_DISPENSER_PUMP11_TRANSACTION_PAGE\000"
 17687      4F4D5F44 
 17687      49535045 
 17687      4E534552 
 17687      5F50554D 
 17688              	.LASF550:
 17689 194a 5465726D 		.ascii	"TerminateTransactionAndPrint\000"
 17689      696E6174 
 17689      65547261 
 17689      6E736163 
 17689      74696F6E 
 17690              	.LASF566:
 17691 1967 5F675F70 		.ascii	"_g_ptractprogramming\000"
 17691      74726163 
 17691      7470726F 
 17691      6772616D 
 17691      6D696E67 
 17692              	.LASF263:
 17693 197c 50756D70 		.ascii	"PumpDataContainer\000"
 17693      44617461 
 17693      436F6E74 
 17693      61696E65 
 17693      7200
 17694              	.LASF331:
 17695 198e 5F64656C 		.ascii	"_delaymultiplier\000"
 17695      61796D75 
 17695      6C746970 
 17695      6C696572 
 17695      00
 17696              	.LASF567:
 17697 199f 5F675F73 		.ascii	"_g_sfcharmap\000"
 17697      66636861 
 17697      726D6170 
 17697      00
 17698              	.LASF267:
 17699 19ac 5F707269 		.ascii	"_price\000"
 17699      636500
 17700              	.LASF10:
ARM GAS  C:\Users\RECEPC~1\AppData\Local\Temp\cc7aDVfG.s 			page 380


 17701 19b3 756E7369 		.ascii	"unsigned int\000"
 17701      676E6564 
 17701      20696E74 
 17701      00
 17702              	.LASF111:
 17703 19c0 52656164 		.ascii	"ReadTxStatus\000"
 17703      54785374 
 17703      61747573 
 17703      00
 17704              	.LASF514:
 17705 19cd 50756D70 		.ascii	"PumpDefault2CreditPpuChange\000"
 17705      44656661 
 17705      756C7432 
 17705      43726564 
 17705      69745070 
 17706              	.LASF319:
 17707 19e9 5F6F6E65 		.ascii	"_oneshotpostconditions\000"
 17707      73686F74 
 17707      706F7374 
 17707      636F6E64 
 17707      6974696F 
 17708              	.LASF157:
 17709 1a00 44495350 		.ascii	"DISPLAY_ID_NO_RECONOCIDO\000"
 17709      4C41595F 
 17709      49445F4E 
 17709      4F5F5245 
 17709      434F4E4F 
 17710              	.LASF51:
 17711 1a19 5053494E 		.ascii	"PSINKMESSAGEPTR\000"
 17711      4B4D4553 
 17711      53414745 
 17711      50545200 
 17712              	.LASF530:
 17713 1a29 62756666 		.ascii	"buffersize\000"
 17713      65727369 
 17713      7A6500
 17714              	.LASF552:
 17715 1a34 64656C69 		.ascii	"delimiterindex\000"
 17715      6D697465 
 17715      72696E64 
 17715      657800
 17716              	.LASF148:
 17717 1a43 44495350 		.ascii	"DISPLAY_DIGITE_PLACA\000"
 17717      4C41595F 
 17717      44494749 
 17717      54455F50 
 17717      4C414341 
 17718              	.LASF26:
 17719 1a58 42524F41 		.ascii	"BROADCAST\000"
 17719      44434153 
 17719      5400
 17720              	.LASF97:
 17721 1a62 5F554152 		.ascii	"_UART_MANAGER_\000"
 17721      545F4D41 
 17721      4E414745 
 17721      525F00
 17722              	.LASF486:
ARM GAS  C:\Users\RECEPC~1\AppData\Local\Temp\cc7aDVfG.s 			page 381


 17723 1a71 6E756D68 		.ascii	"numhoses\000"
 17723      6F736573 
 17723      00
 17724              	.LASF484:
 17725 1a7a 50726F63 		.ascii	"ProcessPumpTotalsDataReport\000"
 17725      65737350 
 17725      756D7054 
 17725      6F74616C 
 17725      73446174 
 17726              	.LASF344:
 17727 1a96 5F717565 		.ascii	"_queueindex\000"
 17727      7565696E 
 17727      64657800 
 17728              	.LASF569:
 17729 1aa2 2E5C4164 		.ascii	".\\AdvantageImpl.c\000"
 17729      76616E74 
 17729      61676549 
 17729      6D706C2E 
 17729      6300
 17730              	.LASF525:
 17731 1ab4 6D73676C 		.ascii	"msglength\000"
 17731      656E6774 
 17731      6800
 17732              	.LASF571:
 17733 1abe 5F706F69 		.ascii	"_pointcommadecimalmode\000"
 17733      6E74636F 
 17733      6D6D6164 
 17733      6563696D 
 17733      616C6D6F 
 17734              	.LASF405:
 17735 1ad5 45455052 		.ascii	"EEPROM_DISPENSER_PUMP31_TRANSACTION_PAGE\000"
 17735      4F4D5F44 
 17735      49535045 
 17735      4E534552 
 17735      5F50554D 
 17736              	.LASF134:
 17737 1afe 55415254 		.ascii	"UART_NULL\000"
 17737      5F4E554C 
 17737      4C00
 17738              	.LASF423:
 17739 1b08 52465F4D 		.ascii	"RF_MUX_CASH_SALE_END_REPORT_REQUEST\000"
 17739      55585F43 
 17739      4153485F 
 17739      53414C45 
 17739      5F454E44 
 17740              	.LASF518:
 17741 1b2c 50756D70 		.ascii	"PumpCompleteConfiguration\000"
 17741      436F6D70 
 17741      6C657465 
 17741      436F6E66 
 17741      69677572 
 17742              	.LASF502:
 17743 1b46 50756D70 		.ascii	"PumpCreditPresetHose\000"
 17743      43726564 
 17743      69745072 
 17743      65736574 
 17743      486F7365 
ARM GAS  C:\Users\RECEPC~1\AppData\Local\Temp\cc7aDVfG.s 			page 382


 17744              	.LASF558:
 17745 1b5b 70747273 		.ascii	"ptrstr\000"
 17745      747200
 17746              	.LASF342:
 17747 1b62 5050554D 		.ascii	"PPUMPTRANSACTIONJOBCONTEXTPTR\000"
 17747      50545241 
 17747      4E534143 
 17747      54494F4E 
 17747      4A4F4243 
 17748              	.LASF398:
 17749 1b80 45455052 		.ascii	"EEPROM_DISPENSER_PUMP12_TRANSACTION_PAGE\000"
 17749      4F4D5F44 
 17749      49535045 
 17749      4E534552 
 17749      5F50554D 
 17750              	.LASF524:
 17751 1ba9 626C6B69 		.ascii	"blkindex\000"
 17751      6E646578 
 17751      00
 17752              	.LASF103:
 17753 1bb2 57726974 		.ascii	"WriteControlRegister\000"
 17753      65436F6E 
 17753      74726F6C 
 17753      52656769 
 17753      73746572 
 17754              	.LASF93:
 17755 1bc7 474C4F42 		.ascii	"GLOBAL_TICK_NOTIFICATION\000"
 17755      414C5F54 
 17755      49434B5F 
 17755      4E4F5449 
 17755      46494341 
 17756              	.LASF216:
 17757 1be0 50554D50 		.ascii	"PUMP_CALLING\000"
 17757      5F43414C 
 17757      4C494E47 
 17757      00
 17758              	.LASF27:
 17759 1bed 46495253 		.ascii	"FIRSTFOUND\000"
 17759      54464F55 
 17759      4E4400
 17760              	.LASF459:
 17761 1bf8 52465F45 		.ascii	"RF_ERROR\000"
 17761      52524F52 
 17761      00
 17762              	.LASF24:
 17763 1c01 4C50564F 		.ascii	"LPVOID\000"
 17763      494400
 17764              	.LASF72:
 17765 1c08 44495350 		.ascii	"DISPENSER_PUMP_HANDLER\000"
 17765      454E5345 
 17765      525F5055 
 17765      4D505F48 
 17765      414E444C 
 17766              	.LASF335:
 17767 1c1f 5F726574 		.ascii	"_retriescounter\000"
 17767      72696573 
 17767      636F756E 
ARM GAS  C:\Users\RECEPC~1\AppData\Local\Temp\cc7aDVfG.s 			page 383


 17767      74657200 
 17768              	.LASF108:
 17769 1c2f 47657452 		.ascii	"GetRxBufferSize\000"
 17769      78427566 
 17769      66657253 
 17769      697A6500 
 17770              	.LASF288:
 17771 1c3f 5F747261 		.ascii	"_transhealth\000"
 17771      6E736865 
 17771      616C7468 
 17771      00
 17772              	.LASF455:
 17773 1c4c 52465F43 		.ascii	"RF_CASHSALEREPORT\000"
 17773      41534853 
 17773      414C4552 
 17773      45504F52 
 17773      5400
 17774              	.LASF520:
 17775 1c5e 72656D62 		.ascii	"remblocks\000"
 17775      6C6F636B 
 17775      7300
 17776              	.LASF401:
 17777 1c68 45455052 		.ascii	"EEPROM_DISPENSER_PUMP21_TRANSACTION_PAGE\000"
 17777      4F4D5F44 
 17777      49535045 
 17777      4E534552 
 17777      5F50554D 
 17778              	.LASF190:
 17779 1c91 44495350 		.ascii	"DISPLAY_SIDE_DUMMY_DISPLAY\000"
 17779      4C41595F 
 17779      53494445 
 17779      5F44554D 
 17779      4D595F44 
 17780              	.LASF173:
 17781 1cac 44495350 		.ascii	"DISPLAY_CONFIGURAR_FECHA_HORA\000"
 17781      4C41595F 
 17781      434F4E46 
 17781      49475552 
 17781      41525F46 
 17782              	.LASF428:
 17783 1cca 52465F4D 		.ascii	"RF_MUX_TOTALS_REPORT_RESPONSE\000"
 17783      55585F54 
 17783      4F54414C 
 17783      535F5245 
 17783      504F5254 
 17784              	.LASF53:
 17785 1ce8 55415254 		.ascii	"UART_RF_RECEPTION\000"
 17785      5F52465F 
 17785      52454345 
 17785      5054494F 
 17785      4E00
 17786              	.LASF308:
 17787 1cfa 5F50554D 		.ascii	"_PUMP_TRANSACTION_JOB_\000"
 17787      505F5452 
 17787      414E5341 
 17787      4354494F 
 17787      4E5F4A4F 
ARM GAS  C:\Users\RECEPC~1\AppData\Local\Temp\cc7aDVfG.s 			page 384


 17788              	.LASF196:
 17789 1d11 5F444543 		.ascii	"_DECIMAL_SEPARATOR_\000"
 17789      494D414C 
 17789      5F534550 
 17789      41524154 
 17789      4F525F00 
 17790              	.LASF264:
 17791 1d25 5F617574 		.ascii	"_authorized\000"
 17791      686F7269 
 17791      7A656400 
 17792              	.LASF23:
 17793 1d31 6C6F6E67 		.ascii	"long double\000"
 17793      20646F75 
 17793      626C6500 
 17794              	.LASF348:
 17795 1d3d 416C6C6F 		.ascii	"Allocate\000"
 17795      63617465 
 17795      00
 17796              	.LASF200:
 17797 1d46 50554D50 		.ascii	"PUMP_STATE_REQUEST\000"
 17797      5F535441 
 17797      54455F52 
 17797      45515545 
 17797      535400
 17798              	.LASF226:
 17799 1d59 5F50554D 		.ascii	"_PUMP_FILL_BY_VOLUME_\000"
 17799      505F4649 
 17799      4C4C5F42 
 17799      595F564F 
 17799      4C554D45 
 17800              	.LASF509:
 17801 1d6f 50756D70 		.ascii	"PumpCreditPresetNotification\000"
 17801      43726564 
 17801      69745072 
 17801      65736574 
 17801      4E6F7469 
 17802              	.LASF248:
 17803 1d8c 5F747261 		.ascii	"_transtate\000"
 17803      6E737461 
 17803      746500
 17804              	.LASF214:
 17805 1d97 50554D50 		.ascii	"PUMP_FAIL\000"
 17805      5F464149 
 17805      4C00
 17806              	.LASF100:
 17807 1da1 53746172 		.ascii	"Start\000"
 17807      7400
 17808              	.LASF122:
 17809 1da7 5F554152 		.ascii	"_UART_MESSAGE_\000"
 17809      545F4D45 
 17809      53534147 
 17809      455F00
 17810              	.LASF168:
 17811 1db6 44495350 		.ascii	"DISPLAY_OPERACION_CANCELADA\000"
 17811      4C41595F 
 17811      4F504552 
 17811      4143494F 
ARM GAS  C:\Users\RECEPC~1\AppData\Local\Temp\cc7aDVfG.s 			page 385


 17811      4E5F4341 
 17812              	.LASF163:
 17813 1dd2 44495350 		.ascii	"DISPLAY_OPERACIONES\000"
 17813      4C41595F 
 17813      4F504552 
 17813      4143494F 
 17813      4E455300 
 17814              	.LASF220:
 17815 1de6 50554D50 		.ascii	"PUMP_FEOT\000"
 17815      5F46454F 
 17815      5400
 17816              	.LASF318:
 17817 1df0 5F707265 		.ascii	"_preconditions\000"
 17817      636F6E64 
 17817      6974696F 
 17817      6E7300
 17818              	.LASF307:
 17819 1dff 504E4541 		.ascii	"PNEAR_PUMPPTR\000"
 17819      525F5055 
 17819      4D505054 
 17819      5200
 17820              	.LASF127:
 17821 1e0d 50554152 		.ascii	"PUARTMESSAGEPTR\000"
 17821      544D4553 
 17821      53414745 
 17821      50545200 
 17822              	.LASF357:
 17823 1e1d 5F686F73 		.ascii	"_hosesposition1\000"
 17823      6573706F 
 17823      73697469 
 17823      6F6E3100 
 17824              	.LASF277:
 17825 1e2d 5F686F73 		.ascii	"_hoseactivestate\000"
 17825      65616374 
 17825      69766573 
 17825      74617465 
 17825      00
 17826              	.LASF359:
 17827 1e3e 5F686F73 		.ascii	"_hosesposition3\000"
 17827      6573706F 
 17827      73697469 
 17827      6F6E3300 
 17828              	.LASF360:
 17829 1e4e 5F686F73 		.ascii	"_hosesposition4\000"
 17829      6573706F 
 17829      73697469 
 17829      6F6E3400 
 17830              	.LASF153:
 17831 1e5e 44495350 		.ascii	"DISPLAY_NUEVO_PASSWORD\000"
 17831      4C41595F 
 17831      4E554556 
 17831      4F5F5041 
 17831      5353574F 
 17832              	.LASF366:
 17833 1e75 5F6D696E 		.ascii	"_minvolumevalue\000"
 17833      766F6C75 
 17833      6D657661 
ARM GAS  C:\Users\RECEPC~1\AppData\Local\Temp\cc7aDVfG.s 			page 386


 17833      6C756500 
 17834              	.LASF311:
 17835 1e85 54696D65 		.ascii	"TimeoutCallback\000"
 17835      6F757443 
 17835      616C6C62 
 17835      61636B00 
 17836              	.LASF305:
 17837 1e95 436C6561 		.ascii	"CleanUp\000"
 17837      6E557000 
 17838              	.LASF158:
 17839 1e9d 44495350 		.ascii	"DISPLAY_ESPERANDO_ID\000"
 17839      4C41595F 
 17839      45535045 
 17839      52414E44 
 17839      4F5F4944 
 17840              	.LASF345:
 17841 1eb2 5F6A6F62 		.ascii	"_jobqueueheap\000"
 17841      71756575 
 17841      65686561 
 17841      7000
 17842              	.LASF390:
 17843 1ec0 45455052 		.ascii	"EEPROM_DISPENSER_PUMP2_PPU_INFO_PAGE\000"
 17843      4F4D5F44 
 17843      49535045 
 17843      4E534552 
 17843      5F50554D 
 17844              	.LASF306:
 17845 1ee5 50756D70 		.ascii	"Pump\000"
 17845      00
 17846              	.LASF236:
 17847 1eea 5F50554D 		.ascii	"_PUMP_STOP_\000"
 17847      505F5354 
 17847      4F505F00 
 17848              	.LASF139:
 17849 1ef6 44495350 		.ascii	"DISPLAY_FORMA_PAGO_DESEADA\000"
 17849      4C41595F 
 17849      464F524D 
 17849      415F5041 
 17849      474F5F44 
 17850              	.LASF473:
 17851 1f11 706A6F62 		.ascii	"pjob\000"
 17851      00
 17852              	.LASF9:
 17853 1f16 6C6F6E67 		.ascii	"long long unsigned int\000"
 17853      206C6F6E 
 17853      6720756E 
 17853      7369676E 
 17853      65642069 
 17854              	.LASF229:
 17855 1f2d 5F50554D 		.ascii	"_PUMP_PPU_CHANGE_\000"
 17855      505F5050 
 17855      555F4348 
 17855      414E4745 
 17855      5F00
 17856              	.LASF114:
 17857 1f3f 50757441 		.ascii	"PutArray\000"
 17857      72726179 
ARM GAS  C:\Users\RECEPC~1\AppData\Local\Temp\cc7aDVfG.s 			page 387


 17857      00
 17858              	.LASF289:
 17859 1f48 5F706375 		.ascii	"_pcurrtransaction\000"
 17859      72727472 
 17859      616E7361 
 17859      6374696F 
 17859      6E00
 17860              	.LASF436:
 17861 1f5a 52465F4D 		.ascii	"RF_MUX_CASH_SALE_PRINT_RESPONSE\000"
 17861      55585F43 
 17861      4153485F 
 17861      53414C45 
 17861      5F505249 
 17862              	.LASF341:
 17863 1f7a 50756D70 		.ascii	"PumpTransactionJobContext\000"
 17863      5472616E 
 17863      73616374 
 17863      696F6E4A 
 17863      6F62436F 
 17864              	.LASF355:
 17865 1f94 5F637572 		.ascii	"_currentloopopen\000"
 17865      72656E74 
 17865      6C6F6F70 
 17865      6F70656E 
 17865      00
 17866              	.LASF219:
 17867 1fa5 50554D50 		.ascii	"PUMP_PEOT\000"
 17867      5F50454F 
 17867      5400
 17868              	.LASF56:
 17869 1faf 53494E4B 		.ascii	"SINK_UPDATE_COUNTERS\000"
 17869      5F555044 
 17869      4154455F 
 17869      434F554E 
 17869      54455253 
 17870              	.LASF102:
 17871 1fc4 52656164 		.ascii	"ReadControlRegister\000"
 17871      436F6E74 
 17871      726F6C52 
 17871      65676973 
 17871      74657200 
 17872              	.LASF447:
 17873 1fd8 52465F4D 		.ascii	"RF_MUX_ISLAND_ADMIN_REQUEST\000"
 17873      55585F49 
 17873      534C414E 
 17873      445F4144 
 17873      4D494E5F 
 17874              	.LASF254:
 17875 1ff4 5F766172 		.ascii	"_var3\000"
 17875      3300
 17876              	.LASF255:
 17877 1ffa 5F766172 		.ascii	"_var4\000"
 17877      3400
 17878              	.LASF314:
 17879 2000 5F726570 		.ascii	"_repushtimeoutlimit\000"
 17879      75736874 
 17879      696D656F 
ARM GAS  C:\Users\RECEPC~1\AppData\Local\Temp\cc7aDVfG.s 			page 388


 17879      75746C69 
 17879      6D697400 
 17880              	.LASF508:
 17881 2014 766F6C75 		.ascii	"volumeamount\000"
 17881      6D65616D 
 17881      6F756E74 
 17881      00
 17882              	.LASF65:
 17883 2021 44495350 		.ascii	"DISPENSER_LOAD_EEPROM_SETTINGS\000"
 17883      454E5345 
 17883      525F4C4F 
 17883      41445F45 
 17883      4550524F 
 17884              	.LASF268:
 17885 2040 5F707265 		.ascii	"_presetamount\000"
 17885      73657461 
 17885      6D6F756E 
 17885      7400
 17886              	.LASF98:
 17887 204e 5F696465 		.ascii	"_identifier\000"
 17887      6E746966 
 17887      69657200 
 17888              	.LASF439:
 17889 205a 52465F4D 		.ascii	"RF_MUX_LAST_CASH_SALE_REQUEST\000"
 17889      55585F4C 
 17889      4153545F 
 17889      43415348 
 17889      5F53414C 
 17890              	.LASF276:
 17891 2078 5F637572 		.ascii	"_currenthose\000"
 17891      72656E74 
 17891      686F7365 
 17891      00
 17892              	.LASF564:
 17893 2085 5F675F70 		.ascii	"_g_printerlayout\000"
 17893      72696E74 
 17893      65726C61 
 17893      796F7574 
 17893      00
 17894              	.LASF209:
 17895 2096 5F434F4E 		.ascii	"_CONTROL_WORDS_\000"
 17895      54524F4C 
 17895      5F574F52 
 17895      44535F00 
 17896              	.LASF563:
 17897 20a6 5F675F72 		.ascii	"_g_rfautorun\000"
 17897      66617574 
 17897      6F72756E 
 17897      00
 17898              	.LASF198:
 17899 20b3 5F434F4D 		.ascii	"_COMMA_AS_DECIMAL_SEPARATOR_\000"
 17899      4D415F41 
 17899      535F4445 
 17899      43494D41 
 17899      4C5F5345 
 17900              	.LASF280:
 17901 20d0 5F707265 		.ascii	"_presetdone\000"
ARM GAS  C:\Users\RECEPC~1\AppData\Local\Temp\cc7aDVfG.s 			page 389


 17901      73657464 
 17901      6F6E6500 
 17902              	.LASF539:
 17903 20dc 41637175 		.ascii	"AcquirePumpTransactionDataResponseResolver\000"
 17903      69726550 
 17903      756D7054 
 17903      72616E73 
 17903      61637469 
 17904              	.LASF107:
 17905 2107 47657442 		.ascii	"GetByte\000"
 17905      79746500 
 17906              	.LASF370:
 17907 210f 44697370 		.ascii	"DispenserLayoutInfo\000"
 17907      656E7365 
 17907      724C6179 
 17907      6F757449 
 17907      6E666F00 
 17908              	.LASF515:
 17909 2123 50756D70 		.ascii	"PumpCredit2DefaultPpuChange\000"
 17909      43726564 
 17909      69743244 
 17909      65666175 
 17909      6C745070 
 17910              	.LASF54:
 17911 213f 55415254 		.ascii	"UART_RF_TEST\000"
 17911      5F52465F 
 17911      54455354 
 17911      00
 17912              	.LASF416:
 17913 214c 52465F4D 		.ascii	"RF_MUX_CREDIT_SERIAL_AUTH_RESPONSE\000"
 17913      55585F43 
 17913      52454449 
 17913      545F5345 
 17913      5249414C 
 17914              	.LASF412:
 17915 216f 45455052 		.ascii	"EEPROM_DISPENSER_PUMP44_TRANSACTION_PAGE\000"
 17915      4F4D5F44 
 17915      49535045 
 17915      4E534552 
 17915      5F50554D 
 17916              	.LASF246:
 17917 2198 5F50554D 		.ascii	"_PUMP_FAIL_\000"
 17917      505F4641 
 17917      494C5F00 
 17918              	.LASF278:
 17919 21a4 5F616371 		.ascii	"_acquiringstate\000"
 17919      75697269 
 17919      6E677374 
 17919      61746500 
 17920              	.LASF146:
 17921 21b4 44495350 		.ascii	"DISPLAY_DESPACHANDO\000"
 17921      4C41595F 
 17921      44455350 
 17921      41434841 
 17921      4E444F00 
 17922              	.LASF222:
 17923 21c8 50554D50 		.ascii	"PUMP_SEND_DATA\000"
ARM GAS  C:\Users\RECEPC~1\AppData\Local\Temp\cc7aDVfG.s 			page 390


 17923      5F53454E 
 17923      445F4441 
 17923      544100
 17924              	.LASF251:
 17925 21d7 5F766172 		.ascii	"_var0\000"
 17925      3000
 17926              	.LASF252:
 17927 21dd 5F766172 		.ascii	"_var1\000"
 17927      3100
 17928              	.LASF253:
 17929 21e3 5F766172 		.ascii	"_var2\000"
 17929      3200
 17930              	.LASF174:
 17931 21e9 44495350 		.ascii	"DISPLAY_HORA\000"
 17931      4C41595F 
 17931      484F5241 
 17931      00
 17932              	.LASF78:
 17933 21f6 5052494E 		.ascii	"PRINTER1_GENERIC_JOB\000"
 17933      54455231 
 17933      5F47454E 
 17933      45524943 
 17933      5F4A4F42 
 17934              	.LASF256:
 17935 220b 5F766172 		.ascii	"_var5\000"
 17935      3500
 17936              	.LASF257:
 17937 2211 5F766172 		.ascii	"_var6\000"
 17937      3600
 17938              	.LASF258:
 17939 2217 5F766172 		.ascii	"_var7\000"
 17939      3700
 17940              	.LASF259:
 17941 221d 5F766172 		.ascii	"_var8\000"
 17941      3800
 17942              	.LASF260:
 17943 2223 5F766172 		.ascii	"_var9\000"
 17943      3900
 17944              	.LASF429:
 17945 2229 52465F4D 		.ascii	"RF_MUX_PRICE_CHANGE_REQUEST\000"
 17945      55585F50 
 17945      52494345 
 17945      5F434841 
 17945      4E47455F 
 17946              	.LASF230:
 17947 2245 5F50554D 		.ascii	"_PUMP_RESTORE_PRICE_\000"
 17947      505F5245 
 17947      53544F52 
 17947      455F5052 
 17947      4943455F 
 17948              	.LASF261:
 17949 225a 5F766172 		.ascii	"_varA\000"
 17949      4100
 17950              	.LASF262:
 17951 2260 5F766172 		.ascii	"_varB\000"
 17951      4200
 17952              	.LASF460:
ARM GAS  C:\Users\RECEPC~1\AppData\Local\Temp\cc7aDVfG.s 			page 391


 17953 2266 52465F43 		.ascii	"RF_COPY_RECEIPT\000"
 17953      4F50595F 
 17953      52454345 
 17953      49505400 
 17954              	.LASF161:
 17955 2276 44495350 		.ascii	"DISPLAY_INTRODUZCA_VOLUMEN\000"
 17955      4C41595F 
 17955      494E5452 
 17955      4F44555A 
 17955      43415F56 
 17956              	.LASF28:
 17957 2291 414C4C49 		.ascii	"ALLINTERESTED\000"
 17957      4E544552 
 17957      45535445 
 17957      4400
 17958              	.LASF179:
 17959 229f 44495350 		.ascii	"DISPLAY_CANCELADO_X_PC\000"
 17959      4C41595F 
 17959      43414E43 
 17959      454C4144 
 17959      4F5F585F 
 17960              	.LASF274:
 17961 22b6 5F70756D 		.ascii	"_pumpindex\000"
 17961      70696E64 
 17961      657800
 17962              	.LASF309:
 17963 22c1 52657175 		.ascii	"Request\000"
 17963      65737400 
 17964              	.LASF480:
 17965 22c9 50726F63 		.ascii	"ProcessPumpTransactionData\000"
 17965      65737350 
 17965      756D7054 
 17965      72616E73 
 17965      61637469 
 17966              	.LASF281:
 17967 22e4 5F70756D 		.ascii	"_pumplocked\000"
 17967      706C6F63 
 17967      6B656400 
 17968              	.LASF39:
 17969 22f0 5F6D6573 		.ascii	"_messageid\000"
 17969      73616765 
 17969      696400
 17970              	.LASF225:
 17971 22fb 5F50554D 		.ascii	"_PUMP_FILL_BY_MONEY_\000"
 17971      505F4649 
 17971      4C4C5F42 
 17971      595F4D4F 
 17971      4E45595F 
 17972              	.LASF120:
 17973 2310 414C4C4F 		.ascii	"ALLOCATED\000"
 17973      43415445 
 17973      4400
 17974              	.LASF13:
 17975 231a 75696E74 		.ascii	"uint8\000"
 17975      3800
 17976              	.LASF112:
 17977 2320 50757443 		.ascii	"PutChar\000"
ARM GAS  C:\Users\RECEPC~1\AppData\Local\Temp\cc7aDVfG.s 			page 392


 17977      68617200 
 17978              	.LASF87:
 17979 2328 44495350 		.ascii	"DISPLAY2_RECEPTION\000"
 17979      4C415932 
 17979      5F524543 
 17979      45505449 
 17979      4F4E00
 17980              	.LASF478:
 17981 233b 70706172 		.ascii	"pparam\000"
 17981      616D00
 17982              	.LASF456:
 17983 2342 52465F43 		.ascii	"RF_CREDITSALEAUTH\000"
 17983      52454449 
 17983      5453414C 
 17983      45415554 
 17983      4800
 17984              	.LASF203:
 17985 2354 50554D50 		.ascii	"PUMP_PUMP_STOP\000"
 17985      5F50554D 
 17985      505F5354 
 17985      4F5000
 17986              	.LASF2:
 17987 2363 73686F72 		.ascii	"short int\000"
 17987      7420696E 
 17987      7400
 17988              	.LASF185:
 17989 236d 44495350 		.ascii	"DISPLAY_PRECIO_POR_UNIDAD\000"
 17989      4C41595F 
 17989      50524543 
 17989      494F5F50 
 17989      4F525F55 
 17990              	.LASF295:
 17991 2387 50756D70 		.ascii	"PumpTransQueueLock\000"
 17991      5472616E 
 17991      73517565 
 17991      75654C6F 
 17991      636B00
 17992              	.LASF191:
 17993 239a 44495350 		.ascii	"DISPLAY_NULL\000"
 17993      4C41595F 
 17993      4E554C4C 
 17993      00
 17994              	.LASF300:
 17995 23a7 50756D70 		.ascii	"PumpTransQueueAllocate\000"
 17995      5472616E 
 17995      73517565 
 17995      7565416C 
 17995      6C6F6361 
 17996              	.LASF70:
 17997 23be 44495350 		.ascii	"DISPENSER_CONFIGURE_SINGLE_PRICE\000"
 17997      454E5345 
 17997      525F434F 
 17997      4E464947 
 17997      5552455F 
 17998              	.LASF443:
 17999 23df 52465F4D 		.ascii	"RF_MUX_POSITION_CFG_REQUEST\000"
 17999      55585F50 
ARM GAS  C:\Users\RECEPC~1\AppData\Local\Temp\cc7aDVfG.s 			page 393


 17999      4F534954 
 17999      494F4E5F 
 17999      4346475F 
 18000              	.LASF83:
 18001 23fb 44495350 		.ascii	"DISPLAY1_RECEPTION\000"
 18001      4C415931 
 18001      5F524543 
 18001      45505449 
 18001      4F4E00
 18002              	.LASF298:
 18003 240e 50756D70 		.ascii	"PumpTransQueueEnqueue\000"
 18003      5472616E 
 18003      73517565 
 18003      7565456E 
 18003      71756575 
 18004              	.LASF472:
 18005 2424 5072696E 		.ascii	"PrinterLayout\000"
 18005      7465724C 
 18005      61796F75 
 18005      7400
 18006              	.LASF351:
 18007 2432 44657175 		.ascii	"Dequeue\000"
 18007      65756500 
 18008              	.LASF66:
 18009 243a 44495350 		.ascii	"DISPENSER_ENUMERATE_VISIBLE_PUMPS\000"
 18009      454E5345 
 18009      525F454E 
 18009      554D4552 
 18009      4154455F 
 18010              	.LASF104:
 18011 245c 52656164 		.ascii	"ReadRxData\000"
 18011      52784461 
 18011      746100
 18012              	.LASF556:
 18013 2467 5472616E 		.ascii	"TranslateSpecialFuncionDigit\000"
 18013      736C6174 
 18013      65537065 
 18013      6369616C 
 18013      46756E63 
 18014              	.LASF45:
 18015 2484 5F6D6573 		.ascii	"_messagetimeoutlimit\000"
 18015      73616765 
 18015      74696D65 
 18015      6F75746C 
 18015      696D6974 
 18016              	.LASF128:
 18017 2499 5F554152 		.ascii	"_UART_MANAGERS_AVAILABLE_\000"
 18017      545F4D41 
 18017      4E414745 
 18017      52535F41 
 18017      5641494C 
 18018              	.LASF568:
 18019 24b3 474E5520 		.ascii	"GNU C 4.9.3 20150303 (release) [ARM/embedded-4_9-br"
 18019      4320342E 
 18019      392E3320 
 18019      32303135 
 18019      30333033 
ARM GAS  C:\Users\RECEPC~1\AppData\Local\Temp\cc7aDVfG.s 			page 394


 18020 24e6 616E6368 		.ascii	"anch revision 221220] -mcpu=cortex-m3 -mthumb -g -O"
 18020      20726576 
 18020      6973696F 
 18020      6E203232 
 18020      31323230 
 18021 2519 30202D66 		.ascii	"0 -ffunction-sections -ffat-lto-objects\000"
 18021      66756E63 
 18021      74696F6E 
 18021      2D736563 
 18021      74696F6E 
 18022              	.LASF498:
 18023 2541 50756D70 		.ascii	"PumpRTMoneyRequest\000"
 18023      52544D6F 
 18023      6E657952 
 18023      65717565 
 18023      737400
 18024              	.LASF494:
 18025 2554 696E6465 		.ascii	"index\000"
 18025      7800
 18026              	.LASF160:
 18027 255a 44495350 		.ascii	"DISPLAY_INTRODUZCA_CEDULA\000"
 18027      4C41595F 
 18027      494E5452 
 18027      4F44555A 
 18027      43415F43 
 18028              	.LASF332:
 18029 2574 5F726570 		.ascii	"_repushretriescounter\000"
 18029      75736872 
 18029      65747269 
 18029      6573636F 
 18029      756E7465 
 18030              	.LASF542:
 18031 258a 706D7367 		.ascii	"pmsg\000"
 18031      00
 18032              	.LASF40:
 18033 258f 5F6D6573 		.ascii	"_messagetype\000"
 18033      73616765 
 18033      74797065 
 18033      00
 18034              	.LASF499:
 18035 259c 50756D70 		.ascii	"PumpTransactionDataRequest\000"
 18035      5472616E 
 18035      73616374 
 18035      696F6E44 
 18035      61746152 
 18036              	.LASF30:
 18037 25b7 46495253 		.ascii	"FIRSTFOUNDFOREVER\000"
 18037      54464F55 
 18037      4E44464F 
 18037      52455645 
 18037      5200
 18038              	.LASF510:
 18039 25c9 50756D70 		.ascii	"PumpFullPresetHose\000"
 18039      46756C6C 
 18039      50726573 
 18039      6574486F 
 18039      736500
ARM GAS  C:\Users\RECEPC~1\AppData\Local\Temp\cc7aDVfG.s 			page 395


 18040              	.LASF487:
 18041 25dc 7472616E 		.ascii	"transtatefound\000"
 18041      73746174 
 18041      65666F75 
 18041      6E6400
 18042              	.LASF215:
 18043 25eb 50554D50 		.ascii	"PUMP_IDLE\000"
 18043      5F49444C 
 18043      4500
 18044              	.LASF391:
 18045 25f5 45455052 		.ascii	"EEPROM_DISPENSER_PUMP3_PPU_INFO_PAGE\000"
 18045      4F4D5F44 
 18045      49535045 
 18045      4E534552 
 18045      5F50554D 
 18046              	.LASF442:
 18047 261a 52465F4D 		.ascii	"RF_MUX_BROADCAST_CFG_RESPONSE\000"
 18047      55585F42 
 18047      524F4144 
 18047      43415354 
 18047      5F434647 
 18048              	.LASF204:
 18049 2638 50554D50 		.ascii	"PUMP_TRANSACTION_DATA_REQUEST\000"
 18049      5F545241 
 18049      4E534143 
 18049      54494F4E 
 18049      5F444154 
 18050              	.LASF481:
 18051 2656 7374726D 		.ascii	"strmlrc\000"
 18051      6C726300 
 18052              	.LASF555:
 18053 265e 43617374 		.ascii	"CastMoneyValue\000"
 18053      4D6F6E65 
 18053      7956616C 
 18053      756500
 18054              	.LASF210:
 18055 266d 5055446E 		.ascii	"PUDn\000"
 18055      00
 18056              	.LASF302:
 18057 2672 50756D70 		.ascii	"PumpValidState\000"
 18057      56616C69 
 18057      64537461 
 18057      746500
 18058              	.LASF304:
 18059 2681 5F617574 		.ascii	"_authorizationinfo\000"
 18059      686F7269 
 18059      7A617469 
 18059      6F6E696E 
 18059      666F00
 18060              	.LASF237:
 18061 2694 5F50554D 		.ascii	"_PUMP_STOPALL_\000"
 18061      505F5354 
 18061      4F50414C 
 18061      4C5F00
 18062              	.LASF503:
 18063 26a3 7472616E 		.ascii	"transtype\000"
 18063      73747970 
ARM GAS  C:\Users\RECEPC~1\AppData\Local\Temp\cc7aDVfG.s 			page 396


 18063      6500
 18064              	.LASF176:
 18065 26ad 44495350 		.ascii	"DISPLAY_OPCION_TURNO\000"
 18065      4C41595F 
 18065      4F504349 
 18065      4F4E5F54 
 18065      55524E4F 
 18066              	.LASF333:
 18067 26c2 5F726570 		.ascii	"_repushtimeoutseed\000"
 18067      75736874 
 18067      696D656F 
 18067      75747365 
 18067      656400
 18068              	.LASF266:
 18069 26d5 5F686F73 		.ascii	"_hoseid\000"
 18069      65696400 
 18070              	.LASF557:
 18071 26dd 72656676 		.ascii	"refval\000"
 18071      616C00
 18072              	.LASF418:
 18073 26e4 52465F4D 		.ascii	"RF_MUX_CREDIT_PRESET_AUTHORIZATION_RESPONSE\000"
 18073      55585F43 
 18073      52454449 
 18073      545F5052 
 18073      45534554 
 18074              	.LASF41:
 18075 2710 5F6D6573 		.ascii	"_messagestate\000"
 18075      73616765 
 18075      73746174 
 18075      6500
 18076              	.LASF316:
 18077 271e 5F726574 		.ascii	"_retryinsteadofrepush\000"
 18077      7279696E 
 18077      73746561 
 18077      646F6672 
 18077      65707573 
 18078              	.LASF227:
 18079 2734 5F50554D 		.ascii	"_PUMP_FILL_FULL_\000"
 18079      505F4649 
 18079      4C4C5F46 
 18079      554C4C5F 
 18079      00
 18080              	.LASF90:
 18081 2745 44495350 		.ascii	"DISPLAY2_ANIMATE_HOME\000"
 18081      4C415932 
 18081      5F414E49 
 18081      4D415445 
 18081      5F484F4D 
 18082              	.LASF195:
 18083 275b 4C505241 		.ascii	"LPRAWPTR\000"
 18083      57505452 
 18083      00
 18084              	.LASF233:
 18085 2764 5F50554D 		.ascii	"_PUMP_EOT_\000"
 18085      505F454F 
 18085      545F00
 18086              	.LASF82:
ARM GAS  C:\Users\RECEPC~1\AppData\Local\Temp\cc7aDVfG.s 			page 397


 18087 276f 44495350 		.ascii	"DISPLAY_UPDATE_PUMP_STATE\000"
 18087      4C41595F 
 18087      55504441 
 18087      54455F50 
 18087      554D505F 
 18088              	.LASF33:
 18089 2789 5F4D4553 		.ascii	"_MESSAGE_TYPE_\000"
 18089      53414745 
 18089      5F545950 
 18089      455F00
 18090              	.LASF69:
 18091 2798 44495350 		.ascii	"DISPENSER_RESTORE_PRICES\000"
 18091      454E5345 
 18091      525F5245 
 18091      53544F52 
 18091      455F5052 
 18092              	.LASF202:
 18093 27b1 50554D50 		.ascii	"PUMP_DATA_TO_PUMP\000"
 18093      5F444154 
 18093      415F544F 
 18093      5F50554D 
 18093      5000
 18094              	.LASF422:
 18095 27c3 52465F4D 		.ascii	"RF_MUX_CASH_SALE_START_RESPONSE\000"
 18095      55585F43 
 18095      4153485F 
 18095      53414C45 
 18095      5F535441 
 18096              	.LASF313:
 18097 27e3 5F726573 		.ascii	"_responsetimeoutlimit\000"
 18097      706F6E73 
 18097      6574696D 
 18097      656F7574 
 18097      6C696D69 
 18098              	.LASF538:
 18099 27f9 41637175 		.ascii	"AcquirePumpTotalsResponseResolver\000"
 18099      69726550 
 18099      756D7054 
 18099      6F74616C 
 18099      73526573 
 18100              	.LASF285:
 18101 281b 5F707269 		.ascii	"_print\000"
 18101      6E7400
 18102              	.LASF241:
 18103 2822 5F50554D 		.ascii	"_PUMP_BUSY_\000"
 18103      505F4255 
 18103      53595F00 
 18104              	.LASF383:
 18105 282e 45455052 		.ascii	"EEPROM_DISPENSER_PUMP3_LAYOUT_PAGE\000"
 18105      4F4D5F44 
 18105      49535045 
 18105      4E534552 
 18105      5F50554D 
 18106              	.LASF430:
 18107 2851 52465F4D 		.ascii	"RF_MUX_PRICE_CHANGE_RESPONSE\000"
 18107      55585F50 
 18107      52494345 
ARM GAS  C:\Users\RECEPC~1\AppData\Local\Temp\cc7aDVfG.s 			page 398


 18107      5F434841 
 18107      4E47455F 
 18108              	.LASF3:
 18109 286e 73686F72 		.ascii	"short unsigned int\000"
 18109      7420756E 
 18109      7369676E 
 18109      65642069 
 18109      6E7400
 18110              	.LASF521:
 18111 2881 74617267 		.ascii	"targetmemoryareafound\000"
 18111      65746D65 
 18111      6D6F7279 
 18111      61726561 
 18111      666F756E 
 18112              	.LASF297:
 18113 2897 50756D70 		.ascii	"PumpTransQueueFind\000"
 18113      5472616E 
 18113      73517565 
 18113      75654669 
 18113      6E6400
 18114              	.LASF125:
 18115 28aa 4572726F 		.ascii	"ErrorHandler\000"
 18115      7248616E 
 18115      646C6572 
 18115      00
 18116              	.LASF468:
 18117 28b7 5F74696D 		.ascii	"_timeouttoreceivemultiplier\000"
 18117      656F7574 
 18117      746F7265 
 18117      63656976 
 18117      656D756C 
 18118              	.LASF77:
 18119 28d3 5052494E 		.ascii	"PRINTER22_JOB\000"
 18119      54455232 
 18119      325F4A4F 
 18119      4200
 18120              	.LASF441:
 18121 28e1 52465F4D 		.ascii	"RF_MUX_BROADCAST_CFG_REQUEST\000"
 18121      55585F42 
 18121      524F4144 
 18121      43415354 
 18121      5F434647 
 18122              	.LASF490:
 18123 28fe 50756D70 		.ascii	"PumpJobTimeout\000"
 18123      4A6F6254 
 18123      696D656F 
 18123      757400
 18124              	.LASF213:
 18125 290d 5F50554D 		.ascii	"_PUMP_STATES_\000"
 18125      505F5354 
 18125      41544553 
 18125      5F00
 18126              	.LASF5:
 18127 291b 5F5F696E 		.ascii	"__int32_t\000"
 18127      7433325F 
 18127      7400
 18128              	.LASF450:
ARM GAS  C:\Users\RECEPC~1\AppData\Local\Temp\cc7aDVfG.s 			page 399


 18129 2925 52465F4D 		.ascii	"RF_MUX_COPY_REQUEST_RESPONSE\000"
 18129      55585F43 
 18129      4F50595F 
 18129      52455155 
 18129      4553545F 
 18130              	.LASF522:
 18131 2942 65657072 		.ascii	"eeprompumpconfigmemorypageid\000"
 18131      6F6D7075 
 18131      6D70636F 
 18131      6E666967 
 18131      6D656D6F 
 18132              	.LASF431:
 18133 295f 52465F4D 		.ascii	"RF_MUX_GENERAL_PRINT_REQUEST\000"
 18133      55585F47 
 18133      454E4552 
 18133      414C5F50 
 18133      52494E54 
 18134              	.LASF387:
 18135 297c 45455052 		.ascii	"EEPROM_DISPENSER_PUMP3_PRODUCT_NAMES_PAGE\000"
 18135      4F4D5F44 
 18135      49535045 
 18135      4E534552 
 18135      5F50554D 
 18136              	.LASF249:
 18137 29a6 50756D70 		.ascii	"PumpTransactionalState\000"
 18137      5472616E 
 18137      73616374 
 18137      696F6E61 
 18137      6C537461 
 18138              	.LASF303:
 18139 29bd 5F646174 		.ascii	"_datacontainer\000"
 18139      61636F6E 
 18139      7461696E 
 18139      657200
 18140              	.LASF329:
 18141 29cc 5F726565 		.ascii	"_reenqueuecounter\000"
 18141      6E717565 
 18141      7565636F 
 18141      756E7465 
 18141      7200
 18142              	.LASF221:
 18143 29de 50554D50 		.ascii	"PUMP_STOPPED\000"
 18143      5F53544F 
 18143      50504544 
 18143      00
 18144              	.LASF34:
 18145 29eb 5F4D4553 		.ascii	"_MESSAGE_STATE_\000"
 18145      53414745 
 18145      5F535441 
 18145      54455F00 
 18146              	.LASF35:
 18147 29fb 53494E4B 		.ascii	"SINK_FREE\000"
 18147      5F465245 
 18147      4500
 18148              	.LASF25:
 18149 2a05 4E4F4E45 		.ascii	"NONE\000"
 18149      00
ARM GAS  C:\Users\RECEPC~1\AppData\Local\Temp\cc7aDVfG.s 			page 400


 18150              	.LASF491:
 18151 2a0a 50756D70 		.ascii	"PumpStateJobTimeout\000"
 18151      53746174 
 18151      654A6F62 
 18151      54696D65 
 18151      6F757400 
 18152              	.LASF92:
 18153 2a1e 49425554 		.ascii	"IBUTTON2_SCAN\000"
 18153      544F4E32 
 18153      5F534341 
 18153      4E00
 18154              	.LASF438:
 18155 2a2c 52465F4D 		.ascii	"RF_MUX_PENDING_CREDIT_SALE_RESPONSE\000"
 18155      55585F50 
 18155      454E4449 
 18155      4E475F43 
 18155      52454449 
 18156              	.LASF541:
 18157 2a50 41647661 		.ascii	"AdvantageActivateProgramming\000"
 18157      6E746167 
 18157      65416374 
 18157      69766174 
 18157      6550726F 
 18158              	.LASF367:
 18159 2a6d 5F646973 		.ascii	"_displaydigitsmode\000"
 18159      706C6179 
 18159      64696769 
 18159      74736D6F 
 18159      646500
 18160              	.LASF14:
 18161 2a80 75696E74 		.ascii	"uint16\000"
 18161      313600
 18162              	.LASF445:
 18163 2a87 52465F4D 		.ascii	"RF_MUX_ISLAND_OPER_DATA_REQUEST\000"
 18163      55585F49 
 18163      534C414E 
 18163      445F4F50 
 18163      45525F44 
 18164              	.LASF296:
 18165 2aa7 50756D70 		.ascii	"PumpTransQueueUnlock\000"
 18165      5472616E 
 18165      73517565 
 18165      7565556E 
 18165      6C6F636B 
 18166              	.LASF126:
 18167 2abc 5F707561 		.ascii	"_puartmanager\000"
 18167      72746D61 
 18167      6E616765 
 18167      7200
 18168              	.LASF432:
 18169 2aca 52465F4D 		.ascii	"RF_MUX_GENERAL_PRINT_RESPONSE\000"
 18169      55585F47 
 18169      454E4552 
 18169      414C5F50 
 18169      52494E54 
 18170              	.LASF469:
 18171 2ae8 52464175 		.ascii	"RFAutoRun\000"
ARM GAS  C:\Users\RECEPC~1\AppData\Local\Temp\cc7aDVfG.s 			page 401


 18171      746F5275 
 18171      6E00
 18172              	.LASF81:
 18173 2af2 5052494E 		.ascii	"PRINTER2_GENERIC_JOB_LOGO\000"
 18173      54455232 
 18173      5F47454E 
 18173      45524943 
 18173      5F4A4F42 
 18174              	.LASF47:
 18175 2b0c 5F627566 		.ascii	"_buffersize\000"
 18175      66657273 
 18175      697A6500 
 18176              	.LASF402:
 18177 2b18 45455052 		.ascii	"EEPROM_DISPENSER_PUMP22_TRANSACTION_PAGE\000"
 18177      4F4D5F44 
 18177      49535045 
 18177      4E534552 
 18177      5F50554D 
 18178              	.LASF172:
 18179 2b41 44495350 		.ascii	"DISPLAY_AUTORIZACION_RECHAZADA\000"
 18179      4C41595F 
 18179      4155544F 
 18179      52495A41 
 18179      43494F4E 
 18180              	.LASF470:
 18181 2b60 5F707269 		.ascii	"_printerportside1\000"
 18181      6E746572 
 18181      706F7274 
 18181      73696465 
 18181      3100
 18182              		.ident	"GCC: (GNU Tools for ARM Embedded Processors) 4.9.3 20150303 (release) [ARM/embedded-4_9-br
