ARM GAS  C:\Users\RECEPC~1\AppData\Local\Temp\ccLZ8WPs.s 			page 1


   1              		.syntax unified
   2              		.cpu cortex-m3
   3              		.fpu softvfp
   4              		.eabi_attribute 20, 1
   5              		.eabi_attribute 21, 1
   6              		.eabi_attribute 23, 3
   7              		.eabi_attribute 24, 1
   8              		.eabi_attribute 25, 1
   9              		.eabi_attribute 26, 1
  10              		.eabi_attribute 30, 6
  11              		.eabi_attribute 34, 1
  12              		.eabi_attribute 18, 4
  13              		.thumb
  14              		.file	"AdvantageImpl.c"
  15              		.text
  16              	.Ltext0:
  17              		.cfi_sections	.debug_frame
  18              		.section	.text.AcquirePumpStateResponse,"ax",%progbits
  19              		.align	2
  20              		.global	AcquirePumpStateResponse
  21              		.thumb
  22              		.thumb_func
  23              		.type	AcquirePumpStateResponse, %function
  24              	AcquirePumpStateResponse:
  25              	.LFB63:
  26              		.file 1 ".\\AdvantageImpl.c"
   1:.\AdvantageImpl.c **** /* ========================================
   2:.\AdvantageImpl.c ****  *
   3:.\AdvantageImpl.c ****  * Copyright INSEPET SISTEMAS, 2016
   4:.\AdvantageImpl.c ****  * All Rights Reserved
   5:.\AdvantageImpl.c ****  * UNPUBLISHED, LICENSED SOFTWARE.
   6:.\AdvantageImpl.c ****  *
   7:.\AdvantageImpl.c ****  * CONFIDENTIAL AND PROPRIETARY INFORMATION
   8:.\AdvantageImpl.c ****  * WHICH IS THE PROPERTY OF your company.
   9:.\AdvantageImpl.c ****  *
  10:.\AdvantageImpl.c ****  * ========================================
  11:.\AdvantageImpl.c **** @Created By: HIJH
  12:.\AdvantageImpl.c **** @Date: Novembre de 2016
  13:.\AdvantageImpl.c **** */
  14:.\AdvantageImpl.c **** 
  15:.\AdvantageImpl.c **** #include <project.h>
  16:.\AdvantageImpl.c **** #include "GlobalDefinitions.h"
  17:.\AdvantageImpl.c **** #include "SinkManager.h"
  18:.\AdvantageImpl.c **** #include "SinkObservables.h"
  19:.\AdvantageImpl.c **** #include "UARTManager.h"
  20:.\AdvantageImpl.c **** #include "Display.h"
  21:.\AdvantageImpl.c **** #include "Dispenser.h"
  22:.\AdvantageImpl.c **** #include "Eeprom.h"
  23:.\AdvantageImpl.c **** #include "RFLink.h"
  24:.\AdvantageImpl.c **** #include "Printer.h"
  25:.\AdvantageImpl.c **** #include "Rtc.h"
  26:.\AdvantageImpl.c **** 
  27:.\AdvantageImpl.c **** #ifdef ADVANTAGE_PROTOCOL
  28:.\AdvantageImpl.c **** 
  29:.\AdvantageImpl.c **** uint8_t FindLRC(char8 *_pbuffer);
  30:.\AdvantageImpl.c **** uint8_t GetLRC(char8 *_pbuffer);
  31:.\AdvantageImpl.c **** 
ARM GAS  C:\Users\RECEPC~1\AppData\Local\Temp\ccLZ8WPs.s 			page 2


  32:.\AdvantageImpl.c **** ///////////////////////////////////////////////////////////////////////////////////////////////////
  33:.\AdvantageImpl.c **** //////////////////////                 BLOCK OF AVAILABLE RESPONSE HANDLERS
  34:.\AdvantageImpl.c **** ///////////////////////////////////////////////////////////////////////////////////////////////////
  35:.\AdvantageImpl.c **** 
  36:.\AdvantageImpl.c **** void AdvantageActivateProgramming(LPVOID pparam);
  37:.\AdvantageImpl.c **** extern PNEARDISPENSERACTIVATEPROGRAMMING _g_ptractprogramming;
  38:.\AdvantageImpl.c **** 
  39:.\AdvantageImpl.c **** //@Created By: HIJH
  40:.\AdvantageImpl.c **** //@Date: Septembre de 2016
  41:.\AdvantageImpl.c **** //Updates the pump state into the pump structure
  42:.\AdvantageImpl.c **** void AcquirePumpStateResponse(void *pparam)
  43:.\AdvantageImpl.c **** {
  27              		.loc 1 43 0
  28              		.cfi_startproc
  29              		@ args = 0, pretend = 0, frame = 16
  30              		@ frame_needed = 1, uses_anonymous_args = 0
  31 0000 80B5     		push	{r7, lr}
  32              		.cfi_def_cfa_offset 8
  33              		.cfi_offset 7, -8
  34              		.cfi_offset 14, -4
  35 0002 84B0     		sub	sp, sp, #16
  36              		.cfi_def_cfa_offset 24
  37 0004 00AF     		add	r7, sp, #0
  38              		.cfi_def_cfa_register 7
  39 0006 7860     		str	r0, [r7, #4]
  44:.\AdvantageImpl.c ****     PPUMPTRANSACTIONJOBCONTEXTPTR pjob = (PPUMPTRANSACTIONJOBCONTEXTPTR)pparam;
  40              		.loc 1 44 0
  41 0008 7B68     		ldr	r3, [r7, #4]
  42 000a FB60     		str	r3, [r7, #12]
  45:.\AdvantageImpl.c ****     if(pjob)
  43              		.loc 1 45 0
  44 000c FB68     		ldr	r3, [r7, #12]
  45 000e 002B     		cmp	r3, #0
  46 0010 4ED0     		beq	.L1
  47              	.LBB2:
  46:.\AdvantageImpl.c ****     {
  47:.\AdvantageImpl.c ****         uint8 prevstate = pjob->_ppump->_pumpstate;
  48              		.loc 1 47 0
  49 0012 FB68     		ldr	r3, [r7, #12]
  50 0014 DB69     		ldr	r3, [r3, #28]
  51 0016 9B78     		ldrb	r3, [r3, #2]
  52 0018 FB72     		strb	r3, [r7, #11]
  48:.\AdvantageImpl.c ****         pjob->_ppump->_pumpstate = ((pjob->_ppump->_rxbuffer[0x00] & 0xF0) >> 4);
  53              		.loc 1 48 0
  54 001a FB68     		ldr	r3, [r7, #12]
  55 001c DB69     		ldr	r3, [r3, #28]
  56 001e FA68     		ldr	r2, [r7, #12]
  57 0020 D269     		ldr	r2, [r2, #28]
  58 0022 92F8A021 		ldrb	r2, [r2, #416]	@ zero_extendqisi2
  59 0026 1209     		lsrs	r2, r2, #4
  60 0028 D2B2     		uxtb	r2, r2
  61 002a 9A70     		strb	r2, [r3, #2]
  49:.\AdvantageImpl.c ****         if(pjob->_ppump->PumpValidState(pjob->_ppump))
  62              		.loc 1 49 0
  63 002c FB68     		ldr	r3, [r7, #12]
  64 002e DB69     		ldr	r3, [r3, #28]
  65 0030 D3F8603B 		ldr	r3, [r3, #2912]
ARM GAS  C:\Users\RECEPC~1\AppData\Local\Temp\ccLZ8WPs.s 			page 3


  66 0034 FA68     		ldr	r2, [r7, #12]
  67 0036 D269     		ldr	r2, [r2, #28]
  68 0038 1046     		mov	r0, r2
  69 003a 9847     		blx	r3
  70 003c 0346     		mov	r3, r0
  71 003e 002B     		cmp	r3, #0
  72 0040 04D0     		beq	.L3
  50:.\AdvantageImpl.c ****             pjob->_ppump->_transhealth = _PUMP_OK_;
  73              		.loc 1 50 0
  74 0042 FB68     		ldr	r3, [r7, #12]
  75 0044 DB69     		ldr	r3, [r3, #28]
  76 0046 0122     		movs	r2, #1
  77 0048 1A76     		strb	r2, [r3, #24]
  78 004a 07E0     		b	.L4
  79              	.L3:
  51:.\AdvantageImpl.c ****         else
  52:.\AdvantageImpl.c ****         {
  53:.\AdvantageImpl.c ****             pjob->_ppump->_transhealth = _PUMP_FAIL_;
  80              		.loc 1 53 0
  81 004c FB68     		ldr	r3, [r7, #12]
  82 004e DB69     		ldr	r3, [r3, #28]
  83 0050 0222     		movs	r2, #2
  84 0052 1A76     		strb	r2, [r3, #24]
  54:.\AdvantageImpl.c ****             pjob->_ppump->_pumpstate = prevstate;
  85              		.loc 1 54 0
  86 0054 FB68     		ldr	r3, [r7, #12]
  87 0056 DB69     		ldr	r3, [r3, #28]
  88 0058 FA7A     		ldrb	r2, [r7, #11]
  89 005a 9A70     		strb	r2, [r3, #2]
  90              	.L4:
  55:.\AdvantageImpl.c ****         }
  56:.\AdvantageImpl.c ****         
  57:.\AdvantageImpl.c ****         if(pjob->_ppump->_pumpstate == PUMP_CALLING)
  91              		.loc 1 57 0
  92 005c FB68     		ldr	r3, [r7, #12]
  93 005e DB69     		ldr	r3, [r3, #28]
  94 0060 9B78     		ldrb	r3, [r3, #2]
  95 0062 DBB2     		uxtb	r3, r3
  96 0064 072B     		cmp	r3, #7
  97 0066 03D1     		bne	.L5
  58:.\AdvantageImpl.c ****             pjob->_ppump->_pumplocked = false;
  98              		.loc 1 58 0
  99 0068 FB68     		ldr	r3, [r7, #12]
 100 006a DB69     		ldr	r3, [r3, #28]
 101 006c 0022     		movs	r2, #0
 102 006e 5A72     		strb	r2, [r3, #9]
 103              	.L5:
  59:.\AdvantageImpl.c ****         
  60:.\AdvantageImpl.c ****         if((pjob->_ppump->_pumpstate == PUMP_IDLE || pjob->_ppump->_pumpstate == PUMP_CALLING) && 
 104              		.loc 1 60 0
 105 0070 FB68     		ldr	r3, [r7, #12]
 106 0072 DB69     		ldr	r3, [r3, #28]
 107 0074 9B78     		ldrb	r3, [r3, #2]
 108 0076 DBB2     		uxtb	r3, r3
 109 0078 062B     		cmp	r3, #6
 110 007a 05D0     		beq	.L6
 111              		.loc 1 60 0 is_stmt 0 discriminator 2
ARM GAS  C:\Users\RECEPC~1\AppData\Local\Temp\ccLZ8WPs.s 			page 4


 112 007c FB68     		ldr	r3, [r7, #12]
 113 007e DB69     		ldr	r3, [r3, #28]
 114 0080 9B78     		ldrb	r3, [r3, #2]
 115 0082 DBB2     		uxtb	r3, r3
 116 0084 072B     		cmp	r3, #7
 117 0086 0FD1     		bne	.L7
 118              	.L6:
 119              		.loc 1 60 0 discriminator 3
 120 0088 FB7A     		ldrb	r3, [r7, #11]	@ zero_extendqisi2
 121 008a 0B2B     		cmp	r3, #11
 122 008c 08D0     		beq	.L8
  61:.\AdvantageImpl.c ****             (prevstate == PUMP_FEOT || prevstate == PUMP_PEOT || prevstate == PUMP_BUSY || prevstat
 123              		.loc 1 61 0 is_stmt 1
 124 008e FB7A     		ldrb	r3, [r7, #11]	@ zero_extendqisi2
 125 0090 0A2B     		cmp	r3, #10
 126 0092 05D0     		beq	.L8
 127              		.loc 1 61 0 is_stmt 0 discriminator 1
 128 0094 FB7A     		ldrb	r3, [r7, #11]	@ zero_extendqisi2
 129 0096 092B     		cmp	r3, #9
 130 0098 02D0     		beq	.L8
 131              		.loc 1 61 0 discriminator 2
 132 009a FB7A     		ldrb	r3, [r7, #11]	@ zero_extendqisi2
 133 009c 082B     		cmp	r3, #8
 134 009e 03D1     		bne	.L7
 135              	.L8:
  62:.\AdvantageImpl.c ****             pjob->_ppump->_pumprftransstate = RF_IDLE;
 136              		.loc 1 62 0 is_stmt 1
 137 00a0 FB68     		ldr	r3, [r7, #12]
 138 00a2 DB69     		ldr	r3, [r3, #28]
 139 00a4 0822     		movs	r2, #8
 140 00a6 1A73     		strb	r2, [r3, #12]
 141              	.L7:
  63:.\AdvantageImpl.c ****         
  64:.\AdvantageImpl.c ****         pjob->_ppump->_acquiringstate = false;
 142              		.loc 1 64 0
 143 00a8 FB68     		ldr	r3, [r7, #12]
 144 00aa DB69     		ldr	r3, [r3, #28]
 145 00ac 0022     		movs	r2, #0
 146 00ae 5A71     		strb	r2, [r3, #5]
 147              	.L1:
 148              	.LBE2:
  65:.\AdvantageImpl.c ****     }
  66:.\AdvantageImpl.c **** }
 149              		.loc 1 66 0
 150 00b0 1037     		adds	r7, r7, #16
 151              		.cfi_def_cfa_offset 8
 152 00b2 BD46     		mov	sp, r7
 153              		.cfi_def_cfa_register 13
 154              		@ sp needed
 155 00b4 80BD     		pop	{r7, pc}
 156              		.cfi_endproc
 157              	.LFE63:
 158              		.size	AcquirePumpStateResponse, .-AcquirePumpStateResponse
 159 00b6 00BF     		.section	.text.AcquireDatatoPumpResponse,"ax",%progbits
 160              		.align	2
 161              		.global	AcquireDatatoPumpResponse
 162              		.thumb
ARM GAS  C:\Users\RECEPC~1\AppData\Local\Temp\ccLZ8WPs.s 			page 5


 163              		.thumb_func
 164              		.type	AcquireDatatoPumpResponse, %function
 165              	AcquireDatatoPumpResponse:
 166              	.LFB64:
  67:.\AdvantageImpl.c **** 
  68:.\AdvantageImpl.c **** //@Created By: HIJH
  69:.\AdvantageImpl.c **** //@Date: Septembre de 2016
  70:.\AdvantageImpl.c **** //Validates the response from the pump previous batch transfer (0xDp)
  71:.\AdvantageImpl.c **** void AcquireDatatoPumpResponse(void *pparam)
  72:.\AdvantageImpl.c **** {
 167              		.loc 1 72 0
 168              		.cfi_startproc
 169              		@ args = 0, pretend = 0, frame = 16
 170              		@ frame_needed = 1, uses_anonymous_args = 0
 171              		@ link register save eliminated.
 172 0000 80B4     		push	{r7}
 173              		.cfi_def_cfa_offset 4
 174              		.cfi_offset 7, -4
 175 0002 85B0     		sub	sp, sp, #20
 176              		.cfi_def_cfa_offset 24
 177 0004 00AF     		add	r7, sp, #0
 178              		.cfi_def_cfa_register 7
 179 0006 7860     		str	r0, [r7, #4]
  73:.\AdvantageImpl.c ****     PPUMPTRANSACTIONJOBCONTEXTPTR pjob = (PPUMPTRANSACTIONJOBCONTEXTPTR)pparam;
 180              		.loc 1 73 0
 181 0008 7B68     		ldr	r3, [r7, #4]
 182 000a FB60     		str	r3, [r7, #12]
  74:.\AdvantageImpl.c ****     if(pjob)
 183              		.loc 1 74 0
 184 000c FB68     		ldr	r3, [r7, #12]
 185 000e 002B     		cmp	r3, #0
 186 0010 15D0     		beq	.L9
  75:.\AdvantageImpl.c ****     {
  76:.\AdvantageImpl.c ****         if((0x0F & pjob->_ppump->_pumpid) == (pjob->_ppump->_rxbuffer[0x00] & 0x0F))
 187              		.loc 1 76 0
 188 0012 FB68     		ldr	r3, [r7, #12]
 189 0014 DB69     		ldr	r3, [r3, #28]
 190 0016 1B78     		ldrb	r3, [r3]	@ zero_extendqisi2
 191 0018 1A46     		mov	r2, r3
 192 001a FB68     		ldr	r3, [r7, #12]
 193 001c DB69     		ldr	r3, [r3, #28]
 194 001e 93F8A031 		ldrb	r3, [r3, #416]	@ zero_extendqisi2
 195 0022 5340     		eors	r3, r3, r2
 196 0024 03F00F03 		and	r3, r3, #15
 197 0028 002B     		cmp	r3, #0
 198 002a 08D1     		bne	.L9
  77:.\AdvantageImpl.c ****             pjob->_ppump->_pumpstate = ((pjob->_ppump->_rxbuffer[0x00] >> 4)& 0x0F);
 199              		.loc 1 77 0
 200 002c FB68     		ldr	r3, [r7, #12]
 201 002e DB69     		ldr	r3, [r3, #28]
 202 0030 FA68     		ldr	r2, [r7, #12]
 203 0032 D269     		ldr	r2, [r2, #28]
 204 0034 92F8A021 		ldrb	r2, [r2, #416]	@ zero_extendqisi2
 205 0038 1209     		lsrs	r2, r2, #4
 206 003a D2B2     		uxtb	r2, r2
 207 003c 9A70     		strb	r2, [r3, #2]
 208              	.L9:
ARM GAS  C:\Users\RECEPC~1\AppData\Local\Temp\ccLZ8WPs.s 			page 6


  78:.\AdvantageImpl.c ****     }
  79:.\AdvantageImpl.c **** }
 209              		.loc 1 79 0
 210 003e 1437     		adds	r7, r7, #20
 211              		.cfi_def_cfa_offset 4
 212 0040 BD46     		mov	sp, r7
 213              		.cfi_def_cfa_register 13
 214              		@ sp needed
 215 0042 5DF8047B 		ldr	r7, [sp], #4
 216              		.cfi_restore 7
 217              		.cfi_def_cfa_offset 0
 218 0046 7047     		bx	lr
 219              		.cfi_endproc
 220              	.LFE64:
 221              		.size	AcquireDatatoPumpResponse, .-AcquireDatatoPumpResponse
 222              		.section	.text.ProcessPumpRTMoneyRequest,"ax",%progbits
 223              		.align	2
 224              		.global	ProcessPumpRTMoneyRequest
 225              		.thumb
 226              		.thumb_func
 227              		.type	ProcessPumpRTMoneyRequest, %function
 228              	ProcessPumpRTMoneyRequest:
 229              	.LFB65:
  80:.\AdvantageImpl.c **** 
  81:.\AdvantageImpl.c **** void ProcessPumpRTMoneyRequest(void *pparam)
  82:.\AdvantageImpl.c **** {
 230              		.loc 1 82 0
 231              		.cfi_startproc
 232              		@ args = 0, pretend = 0, frame = 16
 233              		@ frame_needed = 1, uses_anonymous_args = 0
 234 0000 90B5     		push	{r4, r7, lr}
 235              		.cfi_def_cfa_offset 12
 236              		.cfi_offset 4, -12
 237              		.cfi_offset 7, -8
 238              		.cfi_offset 14, -4
 239 0002 85B0     		sub	sp, sp, #20
 240              		.cfi_def_cfa_offset 32
 241 0004 00AF     		add	r7, sp, #0
 242              		.cfi_def_cfa_register 7
 243 0006 7860     		str	r0, [r7, #4]
  83:.\AdvantageImpl.c ****     PPUMPTRANSACTIONJOBCONTEXTPTR pjob = (PPUMPTRANSACTIONJOBCONTEXTPTR)pparam;
 244              		.loc 1 83 0
 245 0008 7B68     		ldr	r3, [r7, #4]
 246 000a FB60     		str	r3, [r7, #12]
  84:.\AdvantageImpl.c ****     if(pjob)
 247              		.loc 1 84 0
 248 000c FB68     		ldr	r3, [r7, #12]
 249 000e 002B     		cmp	r3, #0
 250 0010 63D0     		beq	.L11
  85:.\AdvantageImpl.c ****     {
  86:.\AdvantageImpl.c ****         //Bytes from index 0 to 7 are the digits for the Real Time Money Data in BCD format
  87:.\AdvantageImpl.c ****         pjob->_ppump->_rxbuffer[0x00] = (pjob->_ppump->_rxbuffer[0x00] & 0x0F);
 251              		.loc 1 87 0
 252 0012 FB68     		ldr	r3, [r7, #12]
 253 0014 DB69     		ldr	r3, [r3, #28]
 254 0016 FA68     		ldr	r2, [r7, #12]
 255 0018 D269     		ldr	r2, [r2, #28]
ARM GAS  C:\Users\RECEPC~1\AppData\Local\Temp\ccLZ8WPs.s 			page 7


 256 001a 92F8A021 		ldrb	r2, [r2, #416]	@ zero_extendqisi2
 257 001e 02F00F02 		and	r2, r2, #15
 258 0022 D2B2     		uxtb	r2, r2
 259 0024 83F8A021 		strb	r2, [r3, #416]
  88:.\AdvantageImpl.c ****         pjob->_ppump->_rxbuffer[0x01] = (pjob->_ppump->_rxbuffer[0x01] & 0x0F);
 260              		.loc 1 88 0
 261 0028 FB68     		ldr	r3, [r7, #12]
 262 002a DB69     		ldr	r3, [r3, #28]
 263 002c FA68     		ldr	r2, [r7, #12]
 264 002e D269     		ldr	r2, [r2, #28]
 265 0030 92F8A121 		ldrb	r2, [r2, #417]	@ zero_extendqisi2
 266 0034 02F00F02 		and	r2, r2, #15
 267 0038 D2B2     		uxtb	r2, r2
 268 003a 83F8A121 		strb	r2, [r3, #417]
  89:.\AdvantageImpl.c ****         pjob->_ppump->_rxbuffer[0x02] = (pjob->_ppump->_rxbuffer[0x02] & 0x0F);
 269              		.loc 1 89 0
 270 003e FB68     		ldr	r3, [r7, #12]
 271 0040 DB69     		ldr	r3, [r3, #28]
 272 0042 FA68     		ldr	r2, [r7, #12]
 273 0044 D269     		ldr	r2, [r2, #28]
 274 0046 92F8A221 		ldrb	r2, [r2, #418]	@ zero_extendqisi2
 275 004a 02F00F02 		and	r2, r2, #15
 276 004e D2B2     		uxtb	r2, r2
 277 0050 83F8A221 		strb	r2, [r3, #418]
  90:.\AdvantageImpl.c ****         pjob->_ppump->_rxbuffer[0x03] = (pjob->_ppump->_rxbuffer[0x03] & 0x0F);
 278              		.loc 1 90 0
 279 0054 FB68     		ldr	r3, [r7, #12]
 280 0056 DB69     		ldr	r3, [r3, #28]
 281 0058 FA68     		ldr	r2, [r7, #12]
 282 005a D269     		ldr	r2, [r2, #28]
 283 005c 92F8A321 		ldrb	r2, [r2, #419]	@ zero_extendqisi2
 284 0060 02F00F02 		and	r2, r2, #15
 285 0064 D2B2     		uxtb	r2, r2
 286 0066 83F8A321 		strb	r2, [r3, #419]
  91:.\AdvantageImpl.c ****         pjob->_ppump->_rxbuffer[0x04] = (pjob->_ppump->_rxbuffer[0x04] & 0x0F);
 287              		.loc 1 91 0
 288 006a FB68     		ldr	r3, [r7, #12]
 289 006c DB69     		ldr	r3, [r3, #28]
 290 006e FA68     		ldr	r2, [r7, #12]
 291 0070 D269     		ldr	r2, [r2, #28]
 292 0072 92F8A421 		ldrb	r2, [r2, #420]	@ zero_extendqisi2
 293 0076 02F00F02 		and	r2, r2, #15
 294 007a D2B2     		uxtb	r2, r2
 295 007c 83F8A421 		strb	r2, [r3, #420]
  92:.\AdvantageImpl.c ****         pjob->_ppump->_rxbuffer[0x05] = (pjob->_ppump->_rxbuffer[0x05] & 0x0F);
 296              		.loc 1 92 0
 297 0080 FB68     		ldr	r3, [r7, #12]
 298 0082 DB69     		ldr	r3, [r3, #28]
 299 0084 FA68     		ldr	r2, [r7, #12]
 300 0086 D269     		ldr	r2, [r2, #28]
 301 0088 92F8A521 		ldrb	r2, [r2, #421]	@ zero_extendqisi2
 302 008c 02F00F02 		and	r2, r2, #15
 303 0090 D2B2     		uxtb	r2, r2
 304 0092 83F8A521 		strb	r2, [r3, #421]
  93:.\AdvantageImpl.c ****         pjob->_ppump->_rxbuffer[0x06] = (pjob->_ppump->_rxbuffer[0x06] & 0x0F);
 305              		.loc 1 93 0
 306 0096 FB68     		ldr	r3, [r7, #12]
ARM GAS  C:\Users\RECEPC~1\AppData\Local\Temp\ccLZ8WPs.s 			page 8


 307 0098 DB69     		ldr	r3, [r3, #28]
 308 009a FA68     		ldr	r2, [r7, #12]
 309 009c D269     		ldr	r2, [r2, #28]
 310 009e 92F8A621 		ldrb	r2, [r2, #422]	@ zero_extendqisi2
 311 00a2 02F00F02 		and	r2, r2, #15
 312 00a6 D2B2     		uxtb	r2, r2
 313 00a8 83F8A621 		strb	r2, [r3, #422]
  94:.\AdvantageImpl.c ****         pjob->_ppump->_rxbuffer[0x07] = (pjob->_ppump->_rxbuffer[0x07] & 0x0F);
 314              		.loc 1 94 0
 315 00ac FB68     		ldr	r3, [r7, #12]
 316 00ae DB69     		ldr	r3, [r3, #28]
 317 00b0 FA68     		ldr	r2, [r7, #12]
 318 00b2 D269     		ldr	r2, [r2, #28]
 319 00b4 92F8A721 		ldrb	r2, [r2, #423]	@ zero_extendqisi2
 320 00b8 02F00F02 		and	r2, r2, #15
 321 00bc D2B2     		uxtb	r2, r2
 322 00be 83F8A721 		strb	r2, [r3, #423]
  95:.\AdvantageImpl.c ****         pjob->_ppump->_rtmoneyamount = LSDBCDBUFF2HEX(PBYTECAST(&pjob->_ppump->_rxbuffer[0x00]), 0x
 323              		.loc 1 95 0
 324 00c2 FB68     		ldr	r3, [r7, #12]
 325 00c4 DC69     		ldr	r4, [r3, #28]
 326 00c6 FB68     		ldr	r3, [r7, #12]
 327 00c8 DB69     		ldr	r3, [r3, #28]
 328 00ca 03F5D073 		add	r3, r3, #416
 329 00ce 1846     		mov	r0, r3
 330 00d0 0821     		movs	r1, #8
 331 00d2 FFF7FEFF 		bl	LSDBCDBUFF2HEX
 332 00d6 0346     		mov	r3, r0
 333 00d8 2361     		str	r3, [r4, #16]
 334              	.L11:
  96:.\AdvantageImpl.c ****     }
  97:.\AdvantageImpl.c **** }
 335              		.loc 1 97 0
 336 00da 1437     		adds	r7, r7, #20
 337              		.cfi_def_cfa_offset 12
 338 00dc BD46     		mov	sp, r7
 339              		.cfi_def_cfa_register 13
 340              		@ sp needed
 341 00de 90BD     		pop	{r4, r7, pc}
 342              		.cfi_endproc
 343              	.LFE65:
 344              		.size	ProcessPumpRTMoneyRequest, .-ProcessPumpRTMoneyRequest
 345              		.section	.text.ProcessPumpTransactionData,"ax",%progbits
 346              		.align	2
 347              		.global	ProcessPumpTransactionData
 348              		.thumb
 349              		.thumb_func
 350              		.type	ProcessPumpTransactionData, %function
 351              	ProcessPumpTransactionData:
 352              	.LFB66:
  98:.\AdvantageImpl.c **** 
  99:.\AdvantageImpl.c **** void ProcessPumpTransactionData(void *pparam)
 100:.\AdvantageImpl.c **** {
 353              		.loc 1 100 0
 354              		.cfi_startproc
 355              		@ args = 0, pretend = 0, frame = 24
 356              		@ frame_needed = 1, uses_anonymous_args = 0
ARM GAS  C:\Users\RECEPC~1\AppData\Local\Temp\ccLZ8WPs.s 			page 9


 357 0000 B0B5     		push	{r4, r5, r7, lr}
 358              		.cfi_def_cfa_offset 16
 359              		.cfi_offset 4, -16
 360              		.cfi_offset 5, -12
 361              		.cfi_offset 7, -8
 362              		.cfi_offset 14, -4
 363 0002 86B0     		sub	sp, sp, #24
 364              		.cfi_def_cfa_offset 40
 365 0004 00AF     		add	r7, sp, #0
 366              		.cfi_def_cfa_register 7
 367 0006 7860     		str	r0, [r7, #4]
 101:.\AdvantageImpl.c ****     PPUMPTRANSACTIONJOBCONTEXTPTR pjob = (PPUMPTRANSACTIONJOBCONTEXTPTR)pparam;
 368              		.loc 1 101 0
 369 0008 7B68     		ldr	r3, [r7, #4]
 370 000a 7B61     		str	r3, [r7, #20]
 102:.\AdvantageImpl.c ****     if(pjob)
 371              		.loc 1 102 0
 372 000c 7B69     		ldr	r3, [r7, #20]
 373 000e 002B     		cmp	r3, #0
 374 0010 00F0C087 		beq	.L13
 375              	.LBB3:
 103:.\AdvantageImpl.c ****     {
 104:.\AdvantageImpl.c ****         {
 105:.\AdvantageImpl.c ****             uint8 strmlrc = FindLRC(pjob->_ppump->_rxbuffer);
 376              		.loc 1 105 0
 377 0014 7B69     		ldr	r3, [r7, #20]
 378 0016 DB69     		ldr	r3, [r3, #28]
 379 0018 03F5D073 		add	r3, r3, #416
 380 001c 1846     		mov	r0, r3
 381 001e FFF7FEFF 		bl	FindLRC
 382 0022 0346     		mov	r3, r0
 383 0024 FB74     		strb	r3, [r7, #19]
 106:.\AdvantageImpl.c ****             uint8 locallrc = GetLRC(pjob->_ppump->_rxbuffer);
 384              		.loc 1 106 0
 385 0026 7B69     		ldr	r3, [r7, #20]
 386 0028 DB69     		ldr	r3, [r3, #28]
 387 002a 03F5D073 		add	r3, r3, #416
 388 002e 1846     		mov	r0, r3
 389 0030 FFF7FEFF 		bl	GetLRC
 390 0034 0346     		mov	r3, r0
 391 0036 BB74     		strb	r3, [r7, #18]
 107:.\AdvantageImpl.c ****             
 108:.\AdvantageImpl.c ****             if(strmlrc != locallrc && pjob->_reenqueuecounter < _MAX_RETRIES_)
 392              		.loc 1 108 0
 393 0038 FA7C     		ldrb	r2, [r7, #19]	@ zero_extendqisi2
 394 003a BB7C     		ldrb	r3, [r7, #18]	@ zero_extendqisi2
 395 003c 9A42     		cmp	r2, r3
 396 003e 10D0     		beq	.L15
 397              		.loc 1 108 0 is_stmt 0 discriminator 1
 398 0040 7B69     		ldr	r3, [r7, #20]
 399 0042 5B78     		ldrb	r3, [r3, #1]
 400 0044 DBB2     		uxtb	r3, r3
 401 0046 132B     		cmp	r3, #19
 402 0048 0BD8     		bhi	.L15
 109:.\AdvantageImpl.c ****             {
 110:.\AdvantageImpl.c ****                 pjob->_reenqueuecounter++;
 403              		.loc 1 110 0 is_stmt 1
ARM GAS  C:\Users\RECEPC~1\AppData\Local\Temp\ccLZ8WPs.s 			page 10


 404 004a 7B69     		ldr	r3, [r7, #20]
 405 004c 5B78     		ldrb	r3, [r3, #1]
 406 004e DBB2     		uxtb	r3, r3
 407 0050 0133     		adds	r3, r3, #1
 408 0052 DAB2     		uxtb	r2, r3
 409 0054 7B69     		ldr	r3, [r7, #20]
 410 0056 5A70     		strb	r2, [r3, #1]
 111:.\AdvantageImpl.c ****                 pjob->_reenqueue = true;
 411              		.loc 1 111 0
 412 0058 7B69     		ldr	r3, [r7, #20]
 413 005a 0122     		movs	r2, #1
 414 005c 1A70     		strb	r2, [r3]
 112:.\AdvantageImpl.c ****                 return;
 415              		.loc 1 112 0
 416 005e 00F099BF 		b	.L13
 417              	.L15:
 113:.\AdvantageImpl.c ****             }
 114:.\AdvantageImpl.c ****             pjob->_reenqueue = false;
 418              		.loc 1 114 0
 419 0062 7B69     		ldr	r3, [r7, #20]
 420 0064 0022     		movs	r2, #0
 421 0066 1A70     		strb	r2, [r3]
 115:.\AdvantageImpl.c **** 
 116:.\AdvantageImpl.c ****             if(_g_dispenserlayoutinfo._displaydigitsmode == 0x06)
 422              		.loc 1 116 0
 423 0068 744B     		ldr	r3, .L52
 424 006a 1B7C     		ldrb	r3, [r3, #16]	@ zero_extendqisi2
 425 006c 062B     		cmp	r3, #6
 426 006e 40F07783 		bne	.L16
 117:.\AdvantageImpl.c ****             {            
 118:.\AdvantageImpl.c ****                 pjob->_ppump->_rxbuffer[0x09] = (pjob->_ppump->_rxbuffer[0x09] & 0x0F);//Hose id
 427              		.loc 1 118 0
 428 0072 7B69     		ldr	r3, [r7, #20]
 429 0074 DB69     		ldr	r3, [r3, #28]
 430 0076 7A69     		ldr	r2, [r7, #20]
 431 0078 D269     		ldr	r2, [r2, #28]
 432 007a 92F8A921 		ldrb	r2, [r2, #425]	@ zero_extendqisi2
 433 007e 02F00F02 		and	r2, r2, #15
 434 0082 D2B2     		uxtb	r2, r2
 435 0084 83F8A921 		strb	r2, [r3, #425]
 119:.\AdvantageImpl.c ****                 pjob->_ppump->_authorizationinfo._hoseid = pjob->_ppump->_rxbuffer[0x09];//Hose id
 436              		.loc 1 119 0
 437 0088 7B69     		ldr	r3, [r7, #20]
 438 008a DB69     		ldr	r3, [r3, #28]
 439 008c 7A69     		ldr	r2, [r7, #20]
 440 008e D269     		ldr	r2, [r2, #28]
 441 0090 92F8A921 		ldrb	r2, [r2, #425]	@ zero_extendqisi2
 442 0094 83F8AA2B 		strb	r2, [r3, #2986]
 120:.\AdvantageImpl.c ****                 
 121:.\AdvantageImpl.c ****                 //In this position is located the payment type (CREDIT: 0x0E , CASH:0x0D)
 122:.\AdvantageImpl.c ****                 if(pjob->_ppump->_trasactionbuffer[0x00] == 0x0D)
 443              		.loc 1 122 0
 444 0098 7B69     		ldr	r3, [r7, #20]
 445 009a DB69     		ldr	r3, [r3, #28]
 446 009c 93F82030 		ldrb	r3, [r3, #32]	@ zero_extendqisi2
 447 00a0 0D2B     		cmp	r3, #13
 448 00a2 40F0CD80 		bne	.L17
ARM GAS  C:\Users\RECEPC~1\AppData\Local\Temp\ccLZ8WPs.s 			page 11


 449              	.LBB4:
 123:.\AdvantageImpl.c ****                 {
 124:.\AdvantageImpl.c ****                     I2CBusLock();
 450              		.loc 1 124 0
 451 00a6 FFF7FEFF 		bl	I2CBusLock
 125:.\AdvantageImpl.c ****                     ClearEepromBuffer();
 452              		.loc 1 125 0
 453 00aa FFF7FEFF 		bl	ClearEepromBuffer
 126:.\AdvantageImpl.c ****                     uint16 eeprompage = DispenserGetEepromPPUPageFromPumpID(pjob->_ppump->_pumpid);
 454              		.loc 1 126 0
 455 00ae 7B69     		ldr	r3, [r7, #20]
 456 00b0 DB69     		ldr	r3, [r3, #28]
 457 00b2 1B78     		ldrb	r3, [r3]	@ zero_extendqisi2
 458 00b4 1846     		mov	r0, r3
 459 00b6 FFF7FEFF 		bl	DispenserGetEepromPPUPageFromPumpID
 460 00ba 0346     		mov	r3, r0
 461 00bc 3B82     		strh	r3, [r7, #16]	@ movhi
 127:.\AdvantageImpl.c ****                     LoadEepromPage(eeprompage);
 462              		.loc 1 127 0
 463 00be 3B8A     		ldrh	r3, [r7, #16]
 464 00c0 1846     		mov	r0, r3
 465 00c2 FFF7FEFF 		bl	LoadEepromPage
 128:.\AdvantageImpl.c ****                     switch(pjob->_ppump->_authorizationinfo._hoseid)
 466              		.loc 1 128 0
 467 00c6 7B69     		ldr	r3, [r7, #20]
 468 00c8 DB69     		ldr	r3, [r3, #28]
 469 00ca 93F8AA3B 		ldrb	r3, [r3, #2986]
 470 00ce DBB2     		uxtb	r3, r3
 471 00d0 032B     		cmp	r3, #3
 472 00d2 65D8     		bhi	.L18
 473 00d4 01A2     		adr	r2, .L20
 474 00d6 52F823F0 		ldr	pc, [r2, r3, lsl #2]
 475 00da 00BF     		.p2align 2
 476              	.L20:
 477 00dc ED000000 		.word	.L19+1
 478 00e0 17010000 		.word	.L21+1
 479 00e4 45010000 		.word	.L22+1
 480 00e8 73010000 		.word	.L23+1
 481              		.p2align 1
 482              	.L19:
 129:.\AdvantageImpl.c ****                     {
 130:.\AdvantageImpl.c ****                         case 0x00:
 131:.\AdvantageImpl.c ****                         //Six bytes only since the PPU is constrained to this length
 132:.\AdvantageImpl.c ****                         memcpy(PBYTECAST(&pjob->_ppump->_trasactionbuffer[GetBufferIndexFromDisplay
 483              		.loc 1 132 0
 484 00ec 7B69     		ldr	r3, [r7, #20]
 485 00ee DC69     		ldr	r4, [r3, #28]
 486 00f0 6520     		movs	r0, #101
 487 00f2 FFF7FEFF 		bl	GetBufferIndexFromDisplayID
 488 00f6 0346     		mov	r3, r0
 489 00f8 2033     		adds	r3, r3, #32
 490 00fa 1C44     		add	r4, r4, r3
 491 00fc FFF7FEFF 		bl	GetEepromBuffer
 492 0100 0546     		mov	r5, r0
 493 0102 6520     		movs	r0, #101
 494 0104 FFF7FEFF 		bl	GetBufferLengthFromDisplayID
 495 0108 0346     		mov	r3, r0
ARM GAS  C:\Users\RECEPC~1\AppData\Local\Temp\ccLZ8WPs.s 			page 12


 496 010a 2046     		mov	r0, r4
 497 010c 2946     		mov	r1, r5
 498 010e 1A46     		mov	r2, r3
 499 0110 FFF7FEFF 		bl	memcpy
 133:.\AdvantageImpl.c ****                         break;
 500              		.loc 1 133 0
 501 0114 44E0     		b	.L18
 502              	.L21:
 134:.\AdvantageImpl.c ****                         case 0x01:
 135:.\AdvantageImpl.c ****                         //Six bytes only since the PPU is constrained to this length
 136:.\AdvantageImpl.c ****                         memcpy(PBYTECAST(&pjob->_ppump->_trasactionbuffer[GetBufferIndexFromDisplay
 503              		.loc 1 136 0
 504 0116 7B69     		ldr	r3, [r7, #20]
 505 0118 DC69     		ldr	r4, [r3, #28]
 506 011a 6520     		movs	r0, #101
 507 011c FFF7FEFF 		bl	GetBufferIndexFromDisplayID
 508 0120 0346     		mov	r3, r0
 509 0122 2033     		adds	r3, r3, #32
 510 0124 E518     		adds	r5, r4, r3
 511 0126 FFF7FEFF 		bl	GetEepromBuffer
 512 012a 0346     		mov	r3, r0
 513 012c 03F11004 		add	r4, r3, #16
 514 0130 6520     		movs	r0, #101
 515 0132 FFF7FEFF 		bl	GetBufferLengthFromDisplayID
 516 0136 0346     		mov	r3, r0
 517 0138 2846     		mov	r0, r5
 518 013a 2146     		mov	r1, r4
 519 013c 1A46     		mov	r2, r3
 520 013e FFF7FEFF 		bl	memcpy
 137:.\AdvantageImpl.c ****                         break;
 521              		.loc 1 137 0
 522 0142 2DE0     		b	.L18
 523              	.L22:
 138:.\AdvantageImpl.c ****                         case 0x02:
 139:.\AdvantageImpl.c ****                         //Six bytes only since the PPU is constrained to this length
 140:.\AdvantageImpl.c ****                         memcpy(PBYTECAST(&pjob->_ppump->_trasactionbuffer[GetBufferIndexFromDisplay
 524              		.loc 1 140 0
 525 0144 7B69     		ldr	r3, [r7, #20]
 526 0146 DC69     		ldr	r4, [r3, #28]
 527 0148 6520     		movs	r0, #101
 528 014a FFF7FEFF 		bl	GetBufferIndexFromDisplayID
 529 014e 0346     		mov	r3, r0
 530 0150 2033     		adds	r3, r3, #32
 531 0152 E518     		adds	r5, r4, r3
 532 0154 FFF7FEFF 		bl	GetEepromBuffer
 533 0158 0346     		mov	r3, r0
 534 015a 03F12004 		add	r4, r3, #32
 535 015e 6520     		movs	r0, #101
 536 0160 FFF7FEFF 		bl	GetBufferLengthFromDisplayID
 537 0164 0346     		mov	r3, r0
 538 0166 2846     		mov	r0, r5
 539 0168 2146     		mov	r1, r4
 540 016a 1A46     		mov	r2, r3
 541 016c FFF7FEFF 		bl	memcpy
 141:.\AdvantageImpl.c ****                         break;
 542              		.loc 1 141 0
 543 0170 16E0     		b	.L18
ARM GAS  C:\Users\RECEPC~1\AppData\Local\Temp\ccLZ8WPs.s 			page 13


 544              	.L23:
 142:.\AdvantageImpl.c ****                         case 0x03:
 143:.\AdvantageImpl.c ****                         //Six bytes only since the PPU is constrained to this length
 144:.\AdvantageImpl.c ****                         memcpy(PBYTECAST(&pjob->_ppump->_trasactionbuffer[GetBufferIndexFromDisplay
 545              		.loc 1 144 0
 546 0172 7B69     		ldr	r3, [r7, #20]
 547 0174 DC69     		ldr	r4, [r3, #28]
 548 0176 6520     		movs	r0, #101
 549 0178 FFF7FEFF 		bl	GetBufferIndexFromDisplayID
 550 017c 0346     		mov	r3, r0
 551 017e 2033     		adds	r3, r3, #32
 552 0180 E518     		adds	r5, r4, r3
 553 0182 FFF7FEFF 		bl	GetEepromBuffer
 554 0186 0346     		mov	r3, r0
 555 0188 03F13004 		add	r4, r3, #48
 556 018c 6520     		movs	r0, #101
 557 018e FFF7FEFF 		bl	GetBufferLengthFromDisplayID
 558 0192 0346     		mov	r3, r0
 559 0194 2846     		mov	r0, r5
 560 0196 2146     		mov	r1, r4
 561 0198 1A46     		mov	r2, r3
 562 019a FFF7FEFF 		bl	memcpy
 145:.\AdvantageImpl.c ****                         break;
 563              		.loc 1 145 0
 564 019e 00BF     		nop
 565              	.L18:
 146:.\AdvantageImpl.c ****                     }
 147:.\AdvantageImpl.c ****                     I2CBusUnlock();
 566              		.loc 1 147 0
 567 01a0 FFF7FEFF 		bl	I2CBusUnlock
 148:.\AdvantageImpl.c ****                     
 149:.\AdvantageImpl.c ****                     memcpy(PBYTECAST(&pjob->_ppump->_rxbuffer[0x0C]), PBYTECAST(&pjob->_ppump->_tra
 568              		.loc 1 149 0
 569 01a4 7B69     		ldr	r3, [r7, #20]
 570 01a6 DB69     		ldr	r3, [r3, #28]
 571 01a8 03F5D675 		add	r5, r3, #428
 572 01ac 7B69     		ldr	r3, [r7, #20]
 573 01ae DC69     		ldr	r4, [r3, #28]
 574 01b0 6520     		movs	r0, #101
 575 01b2 FFF7FEFF 		bl	GetBufferIndexFromDisplayID
 576 01b6 0346     		mov	r3, r0
 577 01b8 2033     		adds	r3, r3, #32
 578 01ba 2344     		add	r3, r3, r4
 579 01bc 2846     		mov	r0, r5
 580 01be 1946     		mov	r1, r3
 581 01c0 0422     		movs	r2, #4
 582 01c2 FFF7FEFF 		bl	memcpy
 150:.\AdvantageImpl.c ****                     
 151:.\AdvantageImpl.c ****                     //Bytes from index 12 to 17 are the digits for the PPU used for the transaction
 152:.\AdvantageImpl.c ****                     //Digits are in BCD format
 153:.\AdvantageImpl.c ****                     pjob->_ppump->_rxbuffer[0x0C] = (pjob->_ppump->_rxbuffer[0x0C] & 0x0F);
 583              		.loc 1 153 0
 584 01c6 7B69     		ldr	r3, [r7, #20]
 585 01c8 DB69     		ldr	r3, [r3, #28]
 586 01ca 7A69     		ldr	r2, [r7, #20]
 587 01cc D269     		ldr	r2, [r2, #28]
 588 01ce 92F8AC21 		ldrb	r2, [r2, #428]	@ zero_extendqisi2
ARM GAS  C:\Users\RECEPC~1\AppData\Local\Temp\ccLZ8WPs.s 			page 14


 589 01d2 02F00F02 		and	r2, r2, #15
 590 01d6 D2B2     		uxtb	r2, r2
 591 01d8 83F8AC21 		strb	r2, [r3, #428]
 154:.\AdvantageImpl.c ****                     pjob->_ppump->_rxbuffer[0x0D] = (pjob->_ppump->_rxbuffer[0x0D] & 0x0F);
 592              		.loc 1 154 0
 593 01dc 7B69     		ldr	r3, [r7, #20]
 594 01de DB69     		ldr	r3, [r3, #28]
 595 01e0 7A69     		ldr	r2, [r7, #20]
 596 01e2 D269     		ldr	r2, [r2, #28]
 597 01e4 92F8AD21 		ldrb	r2, [r2, #429]	@ zero_extendqisi2
 598 01e8 02F00F02 		and	r2, r2, #15
 599 01ec D2B2     		uxtb	r2, r2
 600 01ee 83F8AD21 		strb	r2, [r3, #429]
 155:.\AdvantageImpl.c ****                     pjob->_ppump->_rxbuffer[0x0E] = (pjob->_ppump->_rxbuffer[0x0E] & 0x0F);
 601              		.loc 1 155 0
 602 01f2 7B69     		ldr	r3, [r7, #20]
 603 01f4 DB69     		ldr	r3, [r3, #28]
 604 01f6 7A69     		ldr	r2, [r7, #20]
 605 01f8 D269     		ldr	r2, [r2, #28]
 606 01fa 92F8AE21 		ldrb	r2, [r2, #430]	@ zero_extendqisi2
 607 01fe 02F00F02 		and	r2, r2, #15
 608 0202 D2B2     		uxtb	r2, r2
 609 0204 83F8AE21 		strb	r2, [r3, #430]
 156:.\AdvantageImpl.c ****                     pjob->_ppump->_rxbuffer[0x0F] = (pjob->_ppump->_rxbuffer[0x0F] & 0x0F);
 610              		.loc 1 156 0
 611 0208 7B69     		ldr	r3, [r7, #20]
 612 020a DB69     		ldr	r3, [r3, #28]
 613 020c 7A69     		ldr	r2, [r7, #20]
 614 020e D269     		ldr	r2, [r2, #28]
 615 0210 92F8AF21 		ldrb	r2, [r2, #431]	@ zero_extendqisi2
 616 0214 02F00F02 		and	r2, r2, #15
 617 0218 D2B2     		uxtb	r2, r2
 618 021a 83F8AF21 		strb	r2, [r3, #431]
 157:.\AdvantageImpl.c ****                     pjob->_ppump->_authorizationinfo._price = LSDBCDBUFF2HEX(PBYTECAST(&pjob->_ppum
 619              		.loc 1 157 0
 620 021e 7B69     		ldr	r3, [r7, #20]
 621 0220 DC69     		ldr	r4, [r3, #28]
 622 0222 7B69     		ldr	r3, [r7, #20]
 623 0224 DB69     		ldr	r3, [r3, #28]
 624 0226 03F5D673 		add	r3, r3, #428
 625 022a 1846     		mov	r0, r3
 626 022c 0421     		movs	r1, #4
 627 022e FFF7FEFF 		bl	LSDBCDBUFF2HEX
 628 0232 0346     		mov	r3, r0
 629 0234 9BB2     		uxth	r3, r3
 630 0236 A4F8AC3B 		strh	r3, [r4, #2988]	@ movhi
 631              	.LBE4:
 632 023a 2DE0     		b	.L24
 633              	.L53:
 634              		.align	2
 635              	.L52:
 636 023c 00000000 		.word	_g_dispenserlayoutinfo
 637              	.L17:
 158:.\AdvantageImpl.c ****                     
 159:.\AdvantageImpl.c ****                 }
 160:.\AdvantageImpl.c ****                 else
 161:.\AdvantageImpl.c ****                 {
ARM GAS  C:\Users\RECEPC~1\AppData\Local\Temp\ccLZ8WPs.s 			page 15


 162:.\AdvantageImpl.c ****                     pjob->_ppump->_rxbuffer[0x0C] = (pjob->_ppump->_rxbuffer[0x0C] & 0x0F);
 638              		.loc 1 162 0
 639 0240 7B69     		ldr	r3, [r7, #20]
 640 0242 DB69     		ldr	r3, [r3, #28]
 641 0244 7A69     		ldr	r2, [r7, #20]
 642 0246 D269     		ldr	r2, [r2, #28]
 643 0248 92F8AC21 		ldrb	r2, [r2, #428]	@ zero_extendqisi2
 644 024c 02F00F02 		and	r2, r2, #15
 645 0250 D2B2     		uxtb	r2, r2
 646 0252 83F8AC21 		strb	r2, [r3, #428]
 163:.\AdvantageImpl.c ****                     pjob->_ppump->_rxbuffer[0x0D] = (pjob->_ppump->_rxbuffer[0x0D] & 0x0F);
 647              		.loc 1 163 0
 648 0256 7B69     		ldr	r3, [r7, #20]
 649 0258 DB69     		ldr	r3, [r3, #28]
 650 025a 7A69     		ldr	r2, [r7, #20]
 651 025c D269     		ldr	r2, [r2, #28]
 652 025e 92F8AD21 		ldrb	r2, [r2, #429]	@ zero_extendqisi2
 653 0262 02F00F02 		and	r2, r2, #15
 654 0266 D2B2     		uxtb	r2, r2
 655 0268 83F8AD21 		strb	r2, [r3, #429]
 164:.\AdvantageImpl.c ****                     pjob->_ppump->_rxbuffer[0x0E] = (pjob->_ppump->_rxbuffer[0x0E] & 0x0F);
 656              		.loc 1 164 0
 657 026c 7B69     		ldr	r3, [r7, #20]
 658 026e DB69     		ldr	r3, [r3, #28]
 659 0270 7A69     		ldr	r2, [r7, #20]
 660 0272 D269     		ldr	r2, [r2, #28]
 661 0274 92F8AE21 		ldrb	r2, [r2, #430]	@ zero_extendqisi2
 662 0278 02F00F02 		and	r2, r2, #15
 663 027c D2B2     		uxtb	r2, r2
 664 027e 83F8AE21 		strb	r2, [r3, #430]
 165:.\AdvantageImpl.c ****                     pjob->_ppump->_rxbuffer[0x0F] = (pjob->_ppump->_rxbuffer[0x0F] & 0x0F);
 665              		.loc 1 165 0
 666 0282 7B69     		ldr	r3, [r7, #20]
 667 0284 DB69     		ldr	r3, [r3, #28]
 668 0286 7A69     		ldr	r2, [r7, #20]
 669 0288 D269     		ldr	r2, [r2, #28]
 670 028a 92F8AF21 		ldrb	r2, [r2, #431]	@ zero_extendqisi2
 671 028e 02F00F02 		and	r2, r2, #15
 672 0292 D2B2     		uxtb	r2, r2
 673 0294 83F8AF21 		strb	r2, [r3, #431]
 674              	.L24:
 166:.\AdvantageImpl.c ****                 }
 167:.\AdvantageImpl.c ****                 
 168:.\AdvantageImpl.c ****                 //Bytes from index 19 to 26 are the digits for the fuel volume delivered in the tra
 169:.\AdvantageImpl.c ****                 //Digits are in BCD format
 170:.\AdvantageImpl.c ****                 pjob->_ppump->_rxbuffer[0x11] = (pjob->_ppump->_rxbuffer[0x11] & 0x0F);
 675              		.loc 1 170 0
 676 0298 7B69     		ldr	r3, [r7, #20]
 677 029a DB69     		ldr	r3, [r3, #28]
 678 029c 7A69     		ldr	r2, [r7, #20]
 679 029e D269     		ldr	r2, [r2, #28]
 680 02a0 92F8B121 		ldrb	r2, [r2, #433]	@ zero_extendqisi2
 681 02a4 02F00F02 		and	r2, r2, #15
 682 02a8 D2B2     		uxtb	r2, r2
 683 02aa 83F8B121 		strb	r2, [r3, #433]
 171:.\AdvantageImpl.c ****                 pjob->_ppump->_rxbuffer[0x12] = (pjob->_ppump->_rxbuffer[0x12] & 0x0F);
 684              		.loc 1 171 0
ARM GAS  C:\Users\RECEPC~1\AppData\Local\Temp\ccLZ8WPs.s 			page 16


 685 02ae 7B69     		ldr	r3, [r7, #20]
 686 02b0 DB69     		ldr	r3, [r3, #28]
 687 02b2 7A69     		ldr	r2, [r7, #20]
 688 02b4 D269     		ldr	r2, [r2, #28]
 689 02b6 92F8B221 		ldrb	r2, [r2, #434]	@ zero_extendqisi2
 690 02ba 02F00F02 		and	r2, r2, #15
 691 02be D2B2     		uxtb	r2, r2
 692 02c0 83F8B221 		strb	r2, [r3, #434]
 172:.\AdvantageImpl.c ****                 pjob->_ppump->_rxbuffer[0x13] = (pjob->_ppump->_rxbuffer[0x13] & 0x0F);
 693              		.loc 1 172 0
 694 02c4 7B69     		ldr	r3, [r7, #20]
 695 02c6 DB69     		ldr	r3, [r3, #28]
 696 02c8 7A69     		ldr	r2, [r7, #20]
 697 02ca D269     		ldr	r2, [r2, #28]
 698 02cc 92F8B321 		ldrb	r2, [r2, #435]	@ zero_extendqisi2
 699 02d0 02F00F02 		and	r2, r2, #15
 700 02d4 D2B2     		uxtb	r2, r2
 701 02d6 83F8B321 		strb	r2, [r3, #435]
 173:.\AdvantageImpl.c ****                 pjob->_ppump->_rxbuffer[0x14] = (pjob->_ppump->_rxbuffer[0x14] & 0x0F);
 702              		.loc 1 173 0
 703 02da 7B69     		ldr	r3, [r7, #20]
 704 02dc DB69     		ldr	r3, [r3, #28]
 705 02de 7A69     		ldr	r2, [r7, #20]
 706 02e0 D269     		ldr	r2, [r2, #28]
 707 02e2 92F8B421 		ldrb	r2, [r2, #436]	@ zero_extendqisi2
 708 02e6 02F00F02 		and	r2, r2, #15
 709 02ea D2B2     		uxtb	r2, r2
 710 02ec 83F8B421 		strb	r2, [r3, #436]
 174:.\AdvantageImpl.c ****                 pjob->_ppump->_rxbuffer[0x15] = (pjob->_ppump->_rxbuffer[0x15] & 0x0F);
 711              		.loc 1 174 0
 712 02f0 7B69     		ldr	r3, [r7, #20]
 713 02f2 DB69     		ldr	r3, [r3, #28]
 714 02f4 7A69     		ldr	r2, [r7, #20]
 715 02f6 D269     		ldr	r2, [r2, #28]
 716 02f8 92F8B521 		ldrb	r2, [r2, #437]	@ zero_extendqisi2
 717 02fc 02F00F02 		and	r2, r2, #15
 718 0300 D2B2     		uxtb	r2, r2
 719 0302 83F8B521 		strb	r2, [r3, #437]
 175:.\AdvantageImpl.c ****                 pjob->_ppump->_rxbuffer[0x16] = (pjob->_ppump->_rxbuffer[0x16] & 0x0F);            
 720              		.loc 1 175 0
 721 0306 7B69     		ldr	r3, [r7, #20]
 722 0308 DB69     		ldr	r3, [r3, #28]
 723 030a 7A69     		ldr	r2, [r7, #20]
 724 030c D269     		ldr	r2, [r2, #28]
 725 030e 92F8B621 		ldrb	r2, [r2, #438]	@ zero_extendqisi2
 726 0312 02F00F02 		and	r2, r2, #15
 727 0316 D2B2     		uxtb	r2, r2
 728 0318 83F8B621 		strb	r2, [r3, #438]
 176:.\AdvantageImpl.c ****                 pjob->_ppump->_authorizationinfo._volumeamount = LSDBCDBUFF2HEX(PBYTECAST(&pjob->_p
 729              		.loc 1 176 0
 730 031c 7B69     		ldr	r3, [r7, #20]
 731 031e DC69     		ldr	r4, [r3, #28]
 732 0320 7B69     		ldr	r3, [r7, #20]
 733 0322 DB69     		ldr	r3, [r3, #28]
 734 0324 03F2B113 		addw	r3, r3, #433
 735 0328 1846     		mov	r0, r3
 736 032a 0621     		movs	r1, #6
ARM GAS  C:\Users\RECEPC~1\AppData\Local\Temp\ccLZ8WPs.s 			page 17


 737 032c FFF7FEFF 		bl	LSDBCDBUFF2HEX
 738 0330 0346     		mov	r3, r0
 739 0332 C4F8B43B 		str	r3, [r4, #2996]
 177:.\AdvantageImpl.c ****                 
 178:.\AdvantageImpl.c ****                 ////////////////////////////////////////////////////////////////////////////////
 179:.\AdvantageImpl.c ****                 ////////////////////////////////////////////////////////////////////////////////
 180:.\AdvantageImpl.c ****                 
 181:.\AdvantageImpl.c ****                 //Bytes from index 28 to 35 are the digits for the money charged to the transaction
 182:.\AdvantageImpl.c ****                 //Digits are in BCD format
 183:.\AdvantageImpl.c ****                 pjob->_ppump->_rxbuffer[0x18] = (pjob->_ppump->_rxbuffer[0x18] & 0x0F);
 740              		.loc 1 183 0
 741 0336 7B69     		ldr	r3, [r7, #20]
 742 0338 DB69     		ldr	r3, [r3, #28]
 743 033a 7A69     		ldr	r2, [r7, #20]
 744 033c D269     		ldr	r2, [r2, #28]
 745 033e 92F8B821 		ldrb	r2, [r2, #440]	@ zero_extendqisi2
 746 0342 02F00F02 		and	r2, r2, #15
 747 0346 D2B2     		uxtb	r2, r2
 748 0348 83F8B821 		strb	r2, [r3, #440]
 184:.\AdvantageImpl.c ****                 
 185:.\AdvantageImpl.c ****                 pjob->_ppump->_rxbuffer[0x19] = (pjob->_ppump->_rxbuffer[0x19] & 0x0F);
 749              		.loc 1 185 0
 750 034c 7B69     		ldr	r3, [r7, #20]
 751 034e DB69     		ldr	r3, [r3, #28]
 752 0350 7A69     		ldr	r2, [r7, #20]
 753 0352 D269     		ldr	r2, [r2, #28]
 754 0354 92F8B921 		ldrb	r2, [r2, #441]	@ zero_extendqisi2
 755 0358 02F00F02 		and	r2, r2, #15
 756 035c D2B2     		uxtb	r2, r2
 757 035e 83F8B921 		strb	r2, [r3, #441]
 186:.\AdvantageImpl.c ****                 pjob->_ppump->_rxbuffer[0x1A] = (pjob->_ppump->_rxbuffer[0x1A] & 0x0F);
 758              		.loc 1 186 0
 759 0362 7B69     		ldr	r3, [r7, #20]
 760 0364 DB69     		ldr	r3, [r3, #28]
 761 0366 7A69     		ldr	r2, [r7, #20]
 762 0368 D269     		ldr	r2, [r2, #28]
 763 036a 92F8BA21 		ldrb	r2, [r2, #442]	@ zero_extendqisi2
 764 036e 02F00F02 		and	r2, r2, #15
 765 0372 D2B2     		uxtb	r2, r2
 766 0374 83F8BA21 		strb	r2, [r3, #442]
 187:.\AdvantageImpl.c ****                 pjob->_ppump->_rxbuffer[0x1B] = (pjob->_ppump->_rxbuffer[0x1B] & 0x0F);
 767              		.loc 1 187 0
 768 0378 7B69     		ldr	r3, [r7, #20]
 769 037a DB69     		ldr	r3, [r3, #28]
 770 037c 7A69     		ldr	r2, [r7, #20]
 771 037e D269     		ldr	r2, [r2, #28]
 772 0380 92F8BB21 		ldrb	r2, [r2, #443]	@ zero_extendqisi2
 773 0384 02F00F02 		and	r2, r2, #15
 774 0388 D2B2     		uxtb	r2, r2
 775 038a 83F8BB21 		strb	r2, [r3, #443]
 188:.\AdvantageImpl.c ****                 pjob->_ppump->_rxbuffer[0x1C] = (pjob->_ppump->_rxbuffer[0x1C] & 0x0F);
 776              		.loc 1 188 0
 777 038e 7B69     		ldr	r3, [r7, #20]
 778 0390 DB69     		ldr	r3, [r3, #28]
 779 0392 7A69     		ldr	r2, [r7, #20]
 780 0394 D269     		ldr	r2, [r2, #28]
 781 0396 92F8BC21 		ldrb	r2, [r2, #444]	@ zero_extendqisi2
ARM GAS  C:\Users\RECEPC~1\AppData\Local\Temp\ccLZ8WPs.s 			page 18


 782 039a 02F00F02 		and	r2, r2, #15
 783 039e D2B2     		uxtb	r2, r2
 784 03a0 83F8BC21 		strb	r2, [r3, #444]
 189:.\AdvantageImpl.c ****                 pjob->_ppump->_rxbuffer[0x1D] = (pjob->_ppump->_rxbuffer[0x1D] & 0x0F);
 785              		.loc 1 189 0
 786 03a4 7B69     		ldr	r3, [r7, #20]
 787 03a6 DB69     		ldr	r3, [r3, #28]
 788 03a8 7A69     		ldr	r2, [r7, #20]
 789 03aa D269     		ldr	r2, [r2, #28]
 790 03ac 92F8BD21 		ldrb	r2, [r2, #445]	@ zero_extendqisi2
 791 03b0 02F00F02 		and	r2, r2, #15
 792 03b4 D2B2     		uxtb	r2, r2
 793 03b6 83F8BD21 		strb	r2, [r3, #445]
 190:.\AdvantageImpl.c ****                 //INQUIRY ABOUT THE EXTRA x10 RESULT SINCE THERE IS AN EXTRA 0 IN THE RESPONSE FOR 
 191:.\AdvantageImpl.c ****                 //MEANWHILE DIVIDING BY 10 TO REMOVE THE ZERO.
 192:.\AdvantageImpl.c ****                 pjob->_ppump->_authorizationinfo._presetamount = LSDBCDBUFF2HEX(PBYTECAST(&pjob->_p
 794              		.loc 1 192 0
 795 03ba 7B69     		ldr	r3, [r7, #20]
 796 03bc DC69     		ldr	r4, [r3, #28]
 797 03be 7B69     		ldr	r3, [r7, #20]
 798 03c0 DB69     		ldr	r3, [r3, #28]
 799 03c2 03F5DC73 		add	r3, r3, #440
 800 03c6 1846     		mov	r0, r3
 801 03c8 0621     		movs	r1, #6
 802 03ca FFF7FEFF 		bl	LSDBCDBUFF2HEX
 803 03ce 0346     		mov	r3, r0
 804 03d0 C4F8B03B 		str	r3, [r4, #2992]
 193:.\AdvantageImpl.c ****                     
 194:.\AdvantageImpl.c ****                 ClearRtcBuffer();
 805              		.loc 1 194 0
 806 03d4 FFF7FEFF 		bl	ClearRtcBuffer
 195:.\AdvantageImpl.c ****                 ReadRTC();
 807              		.loc 1 195 0
 808 03d8 FFF7FEFF 		bl	ReadRTC
 196:.\AdvantageImpl.c ****                 //CAREFUL WITH RETURNS BETWEEN THE LOCK/UNLOCK CALLS
 197:.\AdvantageImpl.c ****                 //AND RECURSIVE CALLS THAT WOULD DEADLOCK!
 198:.\AdvantageImpl.c ****                 I2CBusLock();
 809              		.loc 1 198 0
 810 03dc FFF7FEFF 		bl	I2CBusLock
 199:.\AdvantageImpl.c ****             
 200:.\AdvantageImpl.c ****                 ClearEepromBuffer();
 811              		.loc 1 200 0
 812 03e0 FFF7FEFF 		bl	ClearEepromBuffer
 201:.\AdvantageImpl.c ****                 //In this position is located the payment type (CREDIT: 0x0E , CASH:0x0D)
 202:.\AdvantageImpl.c ****                 if(pjob->_ppump->_trasactionbuffer[0x00] == 0x0D)
 813              		.loc 1 202 0
 814 03e4 7B69     		ldr	r3, [r7, #20]
 815 03e6 DB69     		ldr	r3, [r3, #28]
 816 03e8 93F82030 		ldrb	r3, [r3, #32]	@ zero_extendqisi2
 817 03ec 0D2B     		cmp	r3, #13
 818 03ee 40F0DB80 		bne	.L25
 203:.\AdvantageImpl.c ****                 {
 204:.\AdvantageImpl.c ****                     //HERE WE STORE THE LAST TRANSACTION IN EEPROM! ALWAYS THE PREVIOUS TRANSACTION
 205:.\AdvantageImpl.c ****                     //WILL BE OVERWRITTEN AND LOST.
 206:.\AdvantageImpl.c ****                     //IN CASE OF A "CREDIT SALE", THE WHOLE DATA WILL BE STORED IN A SEPARATE MEMOR
 207:.\AdvantageImpl.c ****                     //SINCE IN CASE OF A RF LINK DROP, THE STATE OF THE SALE COULD BE RECOVERED BY 
 208:.\AdvantageImpl.c ****                     LoadEepromPage(EEPROM_DISPENSER_PUMP1_LAYOUT_PAGE);
ARM GAS  C:\Users\RECEPC~1\AppData\Local\Temp\ccLZ8WPs.s 			page 19


 819              		.loc 1 208 0
 820 03f2 4FF40070 		mov	r0, #512
 821 03f6 FFF7FEFF 		bl	LoadEepromPage
 209:.\AdvantageImpl.c ****                     if(GetEepromBuffer()[0] == ((pjob->_ppump->_rxbuffer[0x04] & 0x0F) + 1))
 822              		.loc 1 209 0
 823 03fa FFF7FEFF 		bl	GetEepromBuffer
 824 03fe 0346     		mov	r3, r0
 825 0400 1B78     		ldrb	r3, [r3]	@ zero_extendqisi2
 826 0402 1A46     		mov	r2, r3
 827 0404 7B69     		ldr	r3, [r7, #20]
 828 0406 DB69     		ldr	r3, [r3, #28]
 829 0408 93F8A431 		ldrb	r3, [r3, #420]	@ zero_extendqisi2
 830 040c 03F00F03 		and	r3, r3, #15
 831 0410 0133     		adds	r3, r3, #1
 832 0412 9A42     		cmp	r2, r3
 833 0414 22D1     		bne	.L26
 210:.\AdvantageImpl.c ****                     {
 211:.\AdvantageImpl.c ****                         ClearEepromBuffer();
 834              		.loc 1 211 0
 835 0416 FFF7FEFF 		bl	ClearEepromBuffer
 212:.\AdvantageImpl.c ****                         //Storing the current Date/Time for this transaction
 213:.\AdvantageImpl.c ****                         memcpy(GetEepromBuffer(), GetRtcBuffer(), 0x07);
 836              		.loc 1 213 0
 837 041a FFF7FEFF 		bl	GetEepromBuffer
 838 041e 0446     		mov	r4, r0
 839 0420 FFF7FEFF 		bl	GetRtcBuffer
 840 0424 0346     		mov	r3, r0
 841 0426 2046     		mov	r0, r4
 842 0428 1946     		mov	r1, r3
 843 042a 0722     		movs	r2, #7
 844 042c FFF7FEFF 		bl	memcpy
 214:.\AdvantageImpl.c ****                         memcpy(&GetEepromBuffer()[0x07], pjob->_ppump->_rxbuffer, pjob->_ppump->_rx
 845              		.loc 1 214 0
 846 0430 FFF7FEFF 		bl	GetEepromBuffer
 847 0434 0346     		mov	r3, r0
 848 0436 D91D     		adds	r1, r3, #7
 849 0438 7B69     		ldr	r3, [r7, #20]
 850 043a DB69     		ldr	r3, [r3, #28]
 851 043c 03F5D072 		add	r2, r3, #416
 852 0440 7B69     		ldr	r3, [r7, #20]
 853 0442 DB69     		ldr	r3, [r3, #28]
 854 0444 B3F82033 		ldrh	r3, [r3, #800]
 855 0448 0846     		mov	r0, r1
 856 044a 1146     		mov	r1, r2
 857 044c 1A46     		mov	r2, r3
 858 044e FFF7FEFF 		bl	memcpy
 215:.\AdvantageImpl.c ****                         StoreEepromPage(EEPROM_DISPENSER_PUMP12_TRANSACTION_PAGE);
 859              		.loc 1 215 0
 860 0452 4FF4C860 		mov	r0, #1600
 861 0456 FFF7FEFF 		bl	StoreEepromPage
 862 045a 7EE1     		b	.L30
 863              	.L26:
 216:.\AdvantageImpl.c ****                     }
 217:.\AdvantageImpl.c ****                     else
 218:.\AdvantageImpl.c ****                     {
 219:.\AdvantageImpl.c ****                         ClearEepromBuffer();
 864              		.loc 1 219 0
ARM GAS  C:\Users\RECEPC~1\AppData\Local\Temp\ccLZ8WPs.s 			page 20


 865 045c FFF7FEFF 		bl	ClearEepromBuffer
 220:.\AdvantageImpl.c ****                         LoadEepromPage(EEPROM_DISPENSER_PUMP2_LAYOUT_PAGE);
 866              		.loc 1 220 0
 867 0460 4FF41070 		mov	r0, #576
 868 0464 FFF7FEFF 		bl	LoadEepromPage
 221:.\AdvantageImpl.c ****                         if(GetEepromBuffer()[0] == ((pjob->_ppump->_rxbuffer[0x04] & 0x0F) + 1))
 869              		.loc 1 221 0
 870 0468 FFF7FEFF 		bl	GetEepromBuffer
 871 046c 0346     		mov	r3, r0
 872 046e 1B78     		ldrb	r3, [r3]	@ zero_extendqisi2
 873 0470 1A46     		mov	r2, r3
 874 0472 7B69     		ldr	r3, [r7, #20]
 875 0474 DB69     		ldr	r3, [r3, #28]
 876 0476 93F8A431 		ldrb	r3, [r3, #420]	@ zero_extendqisi2
 877 047a 03F00F03 		and	r3, r3, #15
 878 047e 0133     		adds	r3, r3, #1
 879 0480 9A42     		cmp	r2, r3
 880 0482 22D1     		bne	.L28
 222:.\AdvantageImpl.c ****                         {
 223:.\AdvantageImpl.c ****                             ClearEepromBuffer();
 881              		.loc 1 223 0
 882 0484 FFF7FEFF 		bl	ClearEepromBuffer
 224:.\AdvantageImpl.c ****                             //Storing the current Date/Time for this transaction
 225:.\AdvantageImpl.c ****                             memcpy(GetEepromBuffer(), GetRtcBuffer(), 0x07);
 883              		.loc 1 225 0
 884 0488 FFF7FEFF 		bl	GetEepromBuffer
 885 048c 0446     		mov	r4, r0
 886 048e FFF7FEFF 		bl	GetRtcBuffer
 887 0492 0346     		mov	r3, r0
 888 0494 2046     		mov	r0, r4
 889 0496 1946     		mov	r1, r3
 890 0498 0722     		movs	r2, #7
 891 049a FFF7FEFF 		bl	memcpy
 226:.\AdvantageImpl.c ****                             memcpy(&GetEepromBuffer()[0x07], pjob->_ppump->_rxbuffer, pjob->_ppump-
 892              		.loc 1 226 0
 893 049e FFF7FEFF 		bl	GetEepromBuffer
 894 04a2 0346     		mov	r3, r0
 895 04a4 D91D     		adds	r1, r3, #7
 896 04a6 7B69     		ldr	r3, [r7, #20]
 897 04a8 DB69     		ldr	r3, [r3, #28]
 898 04aa 03F5D072 		add	r2, r3, #416
 899 04ae 7B69     		ldr	r3, [r7, #20]
 900 04b0 DB69     		ldr	r3, [r3, #28]
 901 04b2 B3F82033 		ldrh	r3, [r3, #800]
 902 04b6 0846     		mov	r0, r1
 903 04b8 1146     		mov	r1, r2
 904 04ba 1A46     		mov	r2, r3
 905 04bc FFF7FEFF 		bl	memcpy
 227:.\AdvantageImpl.c ****                             StoreEepromPage(EEPROM_DISPENSER_PUMP22_TRANSACTION_PAGE);
 906              		.loc 1 227 0
 907 04c0 4FF4E860 		mov	r0, #1856
 908 04c4 FFF7FEFF 		bl	StoreEepromPage
 909 04c8 47E1     		b	.L30
 910              	.L28:
 228:.\AdvantageImpl.c ****                         }
 229:.\AdvantageImpl.c ****                         else
 230:.\AdvantageImpl.c ****                         {
ARM GAS  C:\Users\RECEPC~1\AppData\Local\Temp\ccLZ8WPs.s 			page 21


 231:.\AdvantageImpl.c ****                             ClearEepromBuffer();
 911              		.loc 1 231 0
 912 04ca FFF7FEFF 		bl	ClearEepromBuffer
 232:.\AdvantageImpl.c ****                             LoadEepromPage(EEPROM_DISPENSER_PUMP3_LAYOUT_PAGE);
 913              		.loc 1 232 0
 914 04ce 4FF42070 		mov	r0, #640
 915 04d2 FFF7FEFF 		bl	LoadEepromPage
 233:.\AdvantageImpl.c ****                             if(GetEepromBuffer()[0] == ((pjob->_ppump->_rxbuffer[0x04] & 0x0F) + 1)
 916              		.loc 1 233 0
 917 04d6 FFF7FEFF 		bl	GetEepromBuffer
 918 04da 0346     		mov	r3, r0
 919 04dc 1B78     		ldrb	r3, [r3]	@ zero_extendqisi2
 920 04de 1A46     		mov	r2, r3
 921 04e0 7B69     		ldr	r3, [r7, #20]
 922 04e2 DB69     		ldr	r3, [r3, #28]
 923 04e4 93F8A431 		ldrb	r3, [r3, #420]	@ zero_extendqisi2
 924 04e8 03F00F03 		and	r3, r3, #15
 925 04ec 0133     		adds	r3, r3, #1
 926 04ee 9A42     		cmp	r2, r3
 927 04f0 22D1     		bne	.L29
 234:.\AdvantageImpl.c ****                             {
 235:.\AdvantageImpl.c ****                                 ClearEepromBuffer();
 928              		.loc 1 235 0
 929 04f2 FFF7FEFF 		bl	ClearEepromBuffer
 236:.\AdvantageImpl.c ****                                 //Storing the current Date/Time for this transaction
 237:.\AdvantageImpl.c ****                                 memcpy(GetEepromBuffer(), GetRtcBuffer(), 0x07);
 930              		.loc 1 237 0
 931 04f6 FFF7FEFF 		bl	GetEepromBuffer
 932 04fa 0446     		mov	r4, r0
 933 04fc FFF7FEFF 		bl	GetRtcBuffer
 934 0500 0346     		mov	r3, r0
 935 0502 2046     		mov	r0, r4
 936 0504 1946     		mov	r1, r3
 937 0506 0722     		movs	r2, #7
 938 0508 FFF7FEFF 		bl	memcpy
 238:.\AdvantageImpl.c ****                                 memcpy(&GetEepromBuffer()[0x07], pjob->_ppump->_rxbuffer, pjob->_pp
 939              		.loc 1 238 0
 940 050c FFF7FEFF 		bl	GetEepromBuffer
 941 0510 0346     		mov	r3, r0
 942 0512 D91D     		adds	r1, r3, #7
 943 0514 7B69     		ldr	r3, [r7, #20]
 944 0516 DB69     		ldr	r3, [r3, #28]
 945 0518 03F5D072 		add	r2, r3, #416
 946 051c 7B69     		ldr	r3, [r7, #20]
 947 051e DB69     		ldr	r3, [r3, #28]
 948 0520 B3F82033 		ldrh	r3, [r3, #800]
 949 0524 0846     		mov	r0, r1
 950 0526 1146     		mov	r1, r2
 951 0528 1A46     		mov	r2, r3
 952 052a FFF7FEFF 		bl	memcpy
 239:.\AdvantageImpl.c ****                                 StoreEepromPage(EEPROM_DISPENSER_PUMP32_TRANSACTION_PAGE);
 953              		.loc 1 239 0
 954 052e 4FF40460 		mov	r0, #2112
 955 0532 FFF7FEFF 		bl	StoreEepromPage
 956 0536 10E1     		b	.L30
 957              	.L29:
 240:.\AdvantageImpl.c ****                             }
ARM GAS  C:\Users\RECEPC~1\AppData\Local\Temp\ccLZ8WPs.s 			page 22


 241:.\AdvantageImpl.c ****                             else
 242:.\AdvantageImpl.c ****                             {
 243:.\AdvantageImpl.c ****                                 ClearEepromBuffer();
 958              		.loc 1 243 0
 959 0538 FFF7FEFF 		bl	ClearEepromBuffer
 244:.\AdvantageImpl.c ****                                 LoadEepromPage(EEPROM_DISPENSER_PUMP4_LAYOUT_PAGE);
 960              		.loc 1 244 0
 961 053c 4FF43070 		mov	r0, #704
 962 0540 FFF7FEFF 		bl	LoadEepromPage
 245:.\AdvantageImpl.c ****                                 if(GetEepromBuffer()[0] == ((pjob->_ppump->_rxbuffer[0x04] & 0x0F) 
 963              		.loc 1 245 0
 964 0544 FFF7FEFF 		bl	GetEepromBuffer
 965 0548 0346     		mov	r3, r0
 966 054a 1B78     		ldrb	r3, [r3]	@ zero_extendqisi2
 967 054c 1A46     		mov	r2, r3
 968 054e 7B69     		ldr	r3, [r7, #20]
 969 0550 DB69     		ldr	r3, [r3, #28]
 970 0552 93F8A431 		ldrb	r3, [r3, #420]	@ zero_extendqisi2
 971 0556 03F00F03 		and	r3, r3, #15
 972 055a 0133     		adds	r3, r3, #1
 973 055c 9A42     		cmp	r2, r3
 974 055e 40F0FC80 		bne	.L30
 246:.\AdvantageImpl.c ****                                 {
 247:.\AdvantageImpl.c ****                                     ClearEepromBuffer();
 975              		.loc 1 247 0
 976 0562 FFF7FEFF 		bl	ClearEepromBuffer
 248:.\AdvantageImpl.c ****                                     //Storing the current Date/Time for this transaction
 249:.\AdvantageImpl.c ****                                     memcpy(GetEepromBuffer(), GetRtcBuffer(), 0x07);
 977              		.loc 1 249 0
 978 0566 FFF7FEFF 		bl	GetEepromBuffer
 979 056a 0446     		mov	r4, r0
 980 056c FFF7FEFF 		bl	GetRtcBuffer
 981 0570 0346     		mov	r3, r0
 982 0572 2046     		mov	r0, r4
 983 0574 1946     		mov	r1, r3
 984 0576 0722     		movs	r2, #7
 985 0578 FFF7FEFF 		bl	memcpy
 250:.\AdvantageImpl.c ****                                     memcpy(&GetEepromBuffer()[0x07], pjob->_ppump->_rxbuffer, pjob-
 986              		.loc 1 250 0
 987 057c FFF7FEFF 		bl	GetEepromBuffer
 988 0580 0346     		mov	r3, r0
 989 0582 D91D     		adds	r1, r3, #7
 990 0584 7B69     		ldr	r3, [r7, #20]
 991 0586 DB69     		ldr	r3, [r3, #28]
 992 0588 03F5D072 		add	r2, r3, #416
 993 058c 7B69     		ldr	r3, [r7, #20]
 994 058e DB69     		ldr	r3, [r3, #28]
 995 0590 B3F82033 		ldrh	r3, [r3, #800]
 996 0594 0846     		mov	r0, r1
 997 0596 1146     		mov	r1, r2
 998 0598 1A46     		mov	r2, r3
 999 059a FFF7FEFF 		bl	memcpy
 251:.\AdvantageImpl.c ****                                     StoreEepromPage(EEPROM_DISPENSER_PUMP42_TRANSACTION_PAGE);
 1000              		.loc 1 251 0
 1001 059e 4FF41460 		mov	r0, #2368
 1002 05a2 FFF7FEFF 		bl	StoreEepromPage
 1003 05a6 D8E0     		b	.L30
ARM GAS  C:\Users\RECEPC~1\AppData\Local\Temp\ccLZ8WPs.s 			page 23


 1004              	.L25:
 252:.\AdvantageImpl.c ****                                 }
 253:.\AdvantageImpl.c ****                             }
 254:.\AdvantageImpl.c ****                         }
 255:.\AdvantageImpl.c ****                     }
 256:.\AdvantageImpl.c ****                 }else{//CREDIT TRANSACTION
 257:.\AdvantageImpl.c ****                     //HERE WE STORE THE LAST TRANSACTION IN EEPROM! ALWAYS THE PREVIOUS TRANSACTION
 258:.\AdvantageImpl.c ****                     //WILL BE OVERWRITTEN AND LOST.
 259:.\AdvantageImpl.c ****                     //IN CASE OF A "CREDIT SALE", THE WHOLE DATA WILL BE STORED IN A SEPARATE MEMOR
 260:.\AdvantageImpl.c ****                     //SINCE IN CASE OF A RF LINK DROP, THE STATE OF THE SALE COULD BE RECOVERED BY 
 261:.\AdvantageImpl.c ****                     LoadEepromPage(EEPROM_DISPENSER_PUMP1_LAYOUT_PAGE);
 1005              		.loc 1 261 0
 1006 05a8 4FF40070 		mov	r0, #512
 1007 05ac FFF7FEFF 		bl	LoadEepromPage
 262:.\AdvantageImpl.c ****                     if(GetEepromBuffer()[0] == ((pjob->_ppump->_rxbuffer[0x04] & 0x0F) + 1))
 1008              		.loc 1 262 0
 1009 05b0 FFF7FEFF 		bl	GetEepromBuffer
 1010 05b4 0346     		mov	r3, r0
 1011 05b6 1B78     		ldrb	r3, [r3]	@ zero_extendqisi2
 1012 05b8 1A46     		mov	r2, r3
 1013 05ba 7B69     		ldr	r3, [r7, #20]
 1014 05bc DB69     		ldr	r3, [r3, #28]
 1015 05be 93F8A431 		ldrb	r3, [r3, #420]	@ zero_extendqisi2
 1016 05c2 03F00F03 		and	r3, r3, #15
 1017 05c6 0133     		adds	r3, r3, #1
 1018 05c8 9A42     		cmp	r2, r3
 1019 05ca 22D1     		bne	.L31
 263:.\AdvantageImpl.c ****                     {
 264:.\AdvantageImpl.c ****                         ClearEepromBuffer();
 1020              		.loc 1 264 0
 1021 05cc FFF7FEFF 		bl	ClearEepromBuffer
 265:.\AdvantageImpl.c ****                         //Storing the current Date/Time for this transaction
 266:.\AdvantageImpl.c ****                         memcpy(GetEepromBuffer(), GetRtcBuffer(), 0x07);
 1022              		.loc 1 266 0
 1023 05d0 FFF7FEFF 		bl	GetEepromBuffer
 1024 05d4 0446     		mov	r4, r0
 1025 05d6 FFF7FEFF 		bl	GetRtcBuffer
 1026 05da 0346     		mov	r3, r0
 1027 05dc 2046     		mov	r0, r4
 1028 05de 1946     		mov	r1, r3
 1029 05e0 0722     		movs	r2, #7
 1030 05e2 FFF7FEFF 		bl	memcpy
 267:.\AdvantageImpl.c ****                         memcpy(&GetEepromBuffer()[0x07], pjob->_ppump->_rxbuffer, pjob->_ppump->_rx
 1031              		.loc 1 267 0
 1032 05e6 FFF7FEFF 		bl	GetEepromBuffer
 1033 05ea 0346     		mov	r3, r0
 1034 05ec D91D     		adds	r1, r3, #7
 1035 05ee 7B69     		ldr	r3, [r7, #20]
 1036 05f0 DB69     		ldr	r3, [r3, #28]
 1037 05f2 03F5D072 		add	r2, r3, #416
 1038 05f6 7B69     		ldr	r3, [r7, #20]
 1039 05f8 DB69     		ldr	r3, [r3, #28]
 1040 05fa B3F82033 		ldrh	r3, [r3, #800]
 1041 05fe 0846     		mov	r0, r1
 1042 0600 1146     		mov	r1, r2
 1043 0602 1A46     		mov	r2, r3
 1044 0604 FFF7FEFF 		bl	memcpy
ARM GAS  C:\Users\RECEPC~1\AppData\Local\Temp\ccLZ8WPs.s 			page 24


 268:.\AdvantageImpl.c ****                         StoreEepromPage(EEPROM_DISPENSER_PUMP14_TRANSACTION_PAGE);
 1045              		.loc 1 268 0
 1046 0608 4FF4D860 		mov	r0, #1728
 1047 060c FFF7FEFF 		bl	StoreEepromPage
 1048 0610 A3E0     		b	.L30
 1049              	.L31:
 269:.\AdvantageImpl.c ****                     }
 270:.\AdvantageImpl.c ****                     else
 271:.\AdvantageImpl.c ****                     {
 272:.\AdvantageImpl.c ****                         ClearEepromBuffer();
 1050              		.loc 1 272 0
 1051 0612 FFF7FEFF 		bl	ClearEepromBuffer
 273:.\AdvantageImpl.c ****                         LoadEepromPage(EEPROM_DISPENSER_PUMP2_LAYOUT_PAGE);
 1052              		.loc 1 273 0
 1053 0616 4FF41070 		mov	r0, #576
 1054 061a FFF7FEFF 		bl	LoadEepromPage
 274:.\AdvantageImpl.c ****                         if(GetEepromBuffer()[0] == ((pjob->_ppump->_rxbuffer[0x04] & 0x0F) + 1))
 1055              		.loc 1 274 0
 1056 061e FFF7FEFF 		bl	GetEepromBuffer
 1057 0622 0346     		mov	r3, r0
 1058 0624 1B78     		ldrb	r3, [r3]	@ zero_extendqisi2
 1059 0626 1A46     		mov	r2, r3
 1060 0628 7B69     		ldr	r3, [r7, #20]
 1061 062a DB69     		ldr	r3, [r3, #28]
 1062 062c 93F8A431 		ldrb	r3, [r3, #420]	@ zero_extendqisi2
 1063 0630 03F00F03 		and	r3, r3, #15
 1064 0634 0133     		adds	r3, r3, #1
 1065 0636 9A42     		cmp	r2, r3
 1066 0638 22D1     		bne	.L32
 275:.\AdvantageImpl.c ****                         {
 276:.\AdvantageImpl.c ****                             ClearEepromBuffer();
 1067              		.loc 1 276 0
 1068 063a FFF7FEFF 		bl	ClearEepromBuffer
 277:.\AdvantageImpl.c ****                             //Storing the current Date/Time for this transaction
 278:.\AdvantageImpl.c ****                             memcpy(GetEepromBuffer(), GetRtcBuffer(), 0x07);
 1069              		.loc 1 278 0
 1070 063e FFF7FEFF 		bl	GetEepromBuffer
 1071 0642 0446     		mov	r4, r0
 1072 0644 FFF7FEFF 		bl	GetRtcBuffer
 1073 0648 0346     		mov	r3, r0
 1074 064a 2046     		mov	r0, r4
 1075 064c 1946     		mov	r1, r3
 1076 064e 0722     		movs	r2, #7
 1077 0650 FFF7FEFF 		bl	memcpy
 279:.\AdvantageImpl.c ****                             memcpy(&GetEepromBuffer()[0x07], pjob->_ppump->_rxbuffer, pjob->_ppump-
 1078              		.loc 1 279 0
 1079 0654 FFF7FEFF 		bl	GetEepromBuffer
 1080 0658 0346     		mov	r3, r0
 1081 065a D91D     		adds	r1, r3, #7
 1082 065c 7B69     		ldr	r3, [r7, #20]
 1083 065e DB69     		ldr	r3, [r3, #28]
 1084 0660 03F5D072 		add	r2, r3, #416
 1085 0664 7B69     		ldr	r3, [r7, #20]
 1086 0666 DB69     		ldr	r3, [r3, #28]
 1087 0668 B3F82033 		ldrh	r3, [r3, #800]
 1088 066c 0846     		mov	r0, r1
 1089 066e 1146     		mov	r1, r2
ARM GAS  C:\Users\RECEPC~1\AppData\Local\Temp\ccLZ8WPs.s 			page 25


 1090 0670 1A46     		mov	r2, r3
 1091 0672 FFF7FEFF 		bl	memcpy
 280:.\AdvantageImpl.c ****                             StoreEepromPage(EEPROM_DISPENSER_PUMP24_TRANSACTION_PAGE);
 1092              		.loc 1 280 0
 1093 0676 4FF4F860 		mov	r0, #1984
 1094 067a FFF7FEFF 		bl	StoreEepromPage
 1095 067e 6CE0     		b	.L30
 1096              	.L32:
 281:.\AdvantageImpl.c ****                         }
 282:.\AdvantageImpl.c ****                         else
 283:.\AdvantageImpl.c ****                         {
 284:.\AdvantageImpl.c ****                             ClearEepromBuffer();
 1097              		.loc 1 284 0
 1098 0680 FFF7FEFF 		bl	ClearEepromBuffer
 285:.\AdvantageImpl.c ****                             LoadEepromPage(EEPROM_DISPENSER_PUMP3_LAYOUT_PAGE);
 1099              		.loc 1 285 0
 1100 0684 4FF42070 		mov	r0, #640
 1101 0688 FFF7FEFF 		bl	LoadEepromPage
 286:.\AdvantageImpl.c ****                             if(GetEepromBuffer()[0] == ((pjob->_ppump->_rxbuffer[0x04] & 0x0F) + 1)
 1102              		.loc 1 286 0
 1103 068c FFF7FEFF 		bl	GetEepromBuffer
 1104 0690 0346     		mov	r3, r0
 1105 0692 1B78     		ldrb	r3, [r3]	@ zero_extendqisi2
 1106 0694 1A46     		mov	r2, r3
 1107 0696 7B69     		ldr	r3, [r7, #20]
 1108 0698 DB69     		ldr	r3, [r3, #28]
 1109 069a 93F8A431 		ldrb	r3, [r3, #420]	@ zero_extendqisi2
 1110 069e 03F00F03 		and	r3, r3, #15
 1111 06a2 0133     		adds	r3, r3, #1
 1112 06a4 9A42     		cmp	r2, r3
 1113 06a6 22D1     		bne	.L33
 287:.\AdvantageImpl.c ****                             {
 288:.\AdvantageImpl.c ****                                 ClearEepromBuffer();
 1114              		.loc 1 288 0
 1115 06a8 FFF7FEFF 		bl	ClearEepromBuffer
 289:.\AdvantageImpl.c ****                                 //Storing the current Date/Time for this transaction
 290:.\AdvantageImpl.c ****                                 memcpy(GetEepromBuffer(), GetRtcBuffer(), 0x07);
 1116              		.loc 1 290 0
 1117 06ac FFF7FEFF 		bl	GetEepromBuffer
 1118 06b0 0446     		mov	r4, r0
 1119 06b2 FFF7FEFF 		bl	GetRtcBuffer
 1120 06b6 0346     		mov	r3, r0
 1121 06b8 2046     		mov	r0, r4
 1122 06ba 1946     		mov	r1, r3
 1123 06bc 0722     		movs	r2, #7
 1124 06be FFF7FEFF 		bl	memcpy
 291:.\AdvantageImpl.c ****                                 memcpy(&GetEepromBuffer()[0x07], pjob->_ppump->_rxbuffer, pjob->_pp
 1125              		.loc 1 291 0
 1126 06c2 FFF7FEFF 		bl	GetEepromBuffer
 1127 06c6 0346     		mov	r3, r0
 1128 06c8 D91D     		adds	r1, r3, #7
 1129 06ca 7B69     		ldr	r3, [r7, #20]
 1130 06cc DB69     		ldr	r3, [r3, #28]
 1131 06ce 03F5D072 		add	r2, r3, #416
 1132 06d2 7B69     		ldr	r3, [r7, #20]
 1133 06d4 DB69     		ldr	r3, [r3, #28]
 1134 06d6 B3F82033 		ldrh	r3, [r3, #800]
ARM GAS  C:\Users\RECEPC~1\AppData\Local\Temp\ccLZ8WPs.s 			page 26


 1135 06da 0846     		mov	r0, r1
 1136 06dc 1146     		mov	r1, r2
 1137 06de 1A46     		mov	r2, r3
 1138 06e0 FFF7FEFF 		bl	memcpy
 292:.\AdvantageImpl.c ****                                 StoreEepromPage(EEPROM_DISPENSER_PUMP34_TRANSACTION_PAGE);
 1139              		.loc 1 292 0
 1140 06e4 4FF40C60 		mov	r0, #2240
 1141 06e8 FFF7FEFF 		bl	StoreEepromPage
 1142 06ec 35E0     		b	.L30
 1143              	.L33:
 293:.\AdvantageImpl.c ****                             }
 294:.\AdvantageImpl.c ****                             else
 295:.\AdvantageImpl.c ****                             {
 296:.\AdvantageImpl.c ****                                 ClearEepromBuffer();
 1144              		.loc 1 296 0
 1145 06ee FFF7FEFF 		bl	ClearEepromBuffer
 297:.\AdvantageImpl.c ****                                 LoadEepromPage(EEPROM_DISPENSER_PUMP4_LAYOUT_PAGE);
 1146              		.loc 1 297 0
 1147 06f2 4FF43070 		mov	r0, #704
 1148 06f6 FFF7FEFF 		bl	LoadEepromPage
 298:.\AdvantageImpl.c ****                                 if(GetEepromBuffer()[0] == ((pjob->_ppump->_rxbuffer[0x04] & 0x0F) 
 1149              		.loc 1 298 0
 1150 06fa FFF7FEFF 		bl	GetEepromBuffer
 1151 06fe 0346     		mov	r3, r0
 1152 0700 1B78     		ldrb	r3, [r3]	@ zero_extendqisi2
 1153 0702 1A46     		mov	r2, r3
 1154 0704 7B69     		ldr	r3, [r7, #20]
 1155 0706 DB69     		ldr	r3, [r3, #28]
 1156 0708 93F8A431 		ldrb	r3, [r3, #420]	@ zero_extendqisi2
 1157 070c 03F00F03 		and	r3, r3, #15
 1158 0710 0133     		adds	r3, r3, #1
 1159 0712 9A42     		cmp	r2, r3
 1160 0714 21D1     		bne	.L30
 299:.\AdvantageImpl.c ****                                 {
 300:.\AdvantageImpl.c ****                                     ClearEepromBuffer();
 1161              		.loc 1 300 0
 1162 0716 FFF7FEFF 		bl	ClearEepromBuffer
 301:.\AdvantageImpl.c ****                                     //Storing the current Date/Time for this transaction
 302:.\AdvantageImpl.c ****                                     memcpy(GetEepromBuffer(), GetRtcBuffer(), 0x07);
 1163              		.loc 1 302 0
 1164 071a FFF7FEFF 		bl	GetEepromBuffer
 1165 071e 0446     		mov	r4, r0
 1166 0720 FFF7FEFF 		bl	GetRtcBuffer
 1167 0724 0346     		mov	r3, r0
 1168 0726 2046     		mov	r0, r4
 1169 0728 1946     		mov	r1, r3
 1170 072a 0722     		movs	r2, #7
 1171 072c FFF7FEFF 		bl	memcpy
 303:.\AdvantageImpl.c ****                                     memcpy(&GetEepromBuffer()[0x07], pjob->_ppump->_rxbuffer, pjob-
 1172              		.loc 1 303 0
 1173 0730 FFF7FEFF 		bl	GetEepromBuffer
 1174 0734 0346     		mov	r3, r0
 1175 0736 D91D     		adds	r1, r3, #7
 1176 0738 7B69     		ldr	r3, [r7, #20]
 1177 073a DB69     		ldr	r3, [r3, #28]
 1178 073c 03F5D072 		add	r2, r3, #416
 1179 0740 7B69     		ldr	r3, [r7, #20]
ARM GAS  C:\Users\RECEPC~1\AppData\Local\Temp\ccLZ8WPs.s 			page 27


 1180 0742 DB69     		ldr	r3, [r3, #28]
 1181 0744 B3F82033 		ldrh	r3, [r3, #800]
 1182 0748 0846     		mov	r0, r1
 1183 074a 1146     		mov	r1, r2
 1184 074c 1A46     		mov	r2, r3
 1185 074e FFF7FEFF 		bl	memcpy
 304:.\AdvantageImpl.c ****                                     StoreEepromPage(EEPROM_DISPENSER_PUMP44_TRANSACTION_PAGE);
 1186              		.loc 1 304 0
 1187 0752 4FF41C60 		mov	r0, #2496
 1188 0756 FFF7FEFF 		bl	StoreEepromPage
 1189              	.L30:
 305:.\AdvantageImpl.c ****                                 }
 306:.\AdvantageImpl.c ****                             }
 307:.\AdvantageImpl.c ****                         }
 308:.\AdvantageImpl.c ****                     }
 309:.\AdvantageImpl.c ****                 }
 310:.\AdvantageImpl.c ****                 I2CBusUnlock();
 1190              		.loc 1 310 0
 1191 075a FFF7FEFF 		bl	I2CBusUnlock
 1192 075e CBE3     		b	.L34
 1193              	.L16:
 311:.\AdvantageImpl.c ****             }
 312:.\AdvantageImpl.c ****             else
 313:.\AdvantageImpl.c ****             {            
 314:.\AdvantageImpl.c ****                 pjob->_ppump->_rxbuffer[0x09] = (pjob->_ppump->_rxbuffer[0x09] & 0x0F);//Hose id
 1194              		.loc 1 314 0
 1195 0760 7B69     		ldr	r3, [r7, #20]
 1196 0762 DB69     		ldr	r3, [r3, #28]
 1197 0764 7A69     		ldr	r2, [r7, #20]
 1198 0766 D269     		ldr	r2, [r2, #28]
 1199 0768 92F8A921 		ldrb	r2, [r2, #425]	@ zero_extendqisi2
 1200 076c 02F00F02 		and	r2, r2, #15
 1201 0770 D2B2     		uxtb	r2, r2
 1202 0772 83F8A921 		strb	r2, [r3, #425]
 315:.\AdvantageImpl.c ****                 pjob->_ppump->_authorizationinfo._hoseid = pjob->_ppump->_rxbuffer[0x09];//Hose id
 1203              		.loc 1 315 0
 1204 0776 7B69     		ldr	r3, [r7, #20]
 1205 0778 DB69     		ldr	r3, [r3, #28]
 1206 077a 7A69     		ldr	r2, [r7, #20]
 1207 077c D269     		ldr	r2, [r2, #28]
 1208 077e 92F8A921 		ldrb	r2, [r2, #425]	@ zero_extendqisi2
 1209 0782 83F8AA2B 		strb	r2, [r3, #2986]
 316:.\AdvantageImpl.c ****                 
 317:.\AdvantageImpl.c ****                 //In this position is located the payment type (CREDIT: 0x0E , CASH:0x0D)
 318:.\AdvantageImpl.c ****                 if(pjob->_ppump->_trasactionbuffer[0x00] == 0x0D)
 1210              		.loc 1 318 0
 1211 0786 7B69     		ldr	r3, [r7, #20]
 1212 0788 DB69     		ldr	r3, [r3, #28]
 1213 078a 93F82030 		ldrb	r3, [r3, #32]	@ zero_extendqisi2
 1214 078e 0D2B     		cmp	r3, #13
 1215 0790 40F0E080 		bne	.L35
 1216              	.LBB5:
 319:.\AdvantageImpl.c ****                 {
 320:.\AdvantageImpl.c ****                     I2CBusLock();
 1217              		.loc 1 320 0
 1218 0794 FFF7FEFF 		bl	I2CBusLock
 321:.\AdvantageImpl.c ****                     ClearEepromBuffer();
ARM GAS  C:\Users\RECEPC~1\AppData\Local\Temp\ccLZ8WPs.s 			page 28


 1219              		.loc 1 321 0
 1220 0798 FFF7FEFF 		bl	ClearEepromBuffer
 322:.\AdvantageImpl.c ****                     uint16 eeprompage = DispenserGetEepromPPUPageFromPumpID(pjob->_ppump->_pumpid);
 1221              		.loc 1 322 0
 1222 079c 7B69     		ldr	r3, [r7, #20]
 1223 079e DB69     		ldr	r3, [r3, #28]
 1224 07a0 1B78     		ldrb	r3, [r3]	@ zero_extendqisi2
 1225 07a2 1846     		mov	r0, r3
 1226 07a4 FFF7FEFF 		bl	DispenserGetEepromPPUPageFromPumpID
 1227 07a8 0346     		mov	r3, r0
 1228 07aa FB81     		strh	r3, [r7, #14]	@ movhi
 323:.\AdvantageImpl.c ****                     LoadEepromPage(eeprompage);
 1229              		.loc 1 323 0
 1230 07ac FB89     		ldrh	r3, [r7, #14]
 1231 07ae 1846     		mov	r0, r3
 1232 07b0 FFF7FEFF 		bl	LoadEepromPage
 324:.\AdvantageImpl.c ****                     switch(pjob->_ppump->_authorizationinfo._hoseid)
 1233              		.loc 1 324 0
 1234 07b4 7B69     		ldr	r3, [r7, #20]
 1235 07b6 DB69     		ldr	r3, [r3, #28]
 1236 07b8 93F8AA3B 		ldrb	r3, [r3, #2986]
 1237 07bc DBB2     		uxtb	r3, r3
 1238 07be 032B     		cmp	r3, #3
 1239 07c0 64D8     		bhi	.L36
 1240 07c2 01A2     		adr	r2, .L38
 1241 07c4 52F823F0 		ldr	pc, [r2, r3, lsl #2]
 1242              		.p2align 2
 1243              	.L38:
 1244 07c8 D9070000 		.word	.L37+1
 1245 07cc 03080000 		.word	.L39+1
 1246 07d0 31080000 		.word	.L40+1
 1247 07d4 5F080000 		.word	.L41+1
 1248              		.p2align 1
 1249              	.L37:
 325:.\AdvantageImpl.c ****                     {
 326:.\AdvantageImpl.c ****                         case 0x00:
 327:.\AdvantageImpl.c ****                         //Six bytes only since the PPU is constrained to this length
 328:.\AdvantageImpl.c ****                         memcpy(PBYTECAST(&pjob->_ppump->_trasactionbuffer[GetBufferIndexFromDisplay
 1250              		.loc 1 328 0
 1251 07d8 7B69     		ldr	r3, [r7, #20]
 1252 07da DC69     		ldr	r4, [r3, #28]
 1253 07dc 6520     		movs	r0, #101
 1254 07de FFF7FEFF 		bl	GetBufferIndexFromDisplayID
 1255 07e2 0346     		mov	r3, r0
 1256 07e4 2033     		adds	r3, r3, #32
 1257 07e6 1C44     		add	r4, r4, r3
 1258 07e8 FFF7FEFF 		bl	GetEepromBuffer
 1259 07ec 0546     		mov	r5, r0
 1260 07ee 6520     		movs	r0, #101
 1261 07f0 FFF7FEFF 		bl	GetBufferLengthFromDisplayID
 1262 07f4 0346     		mov	r3, r0
 1263 07f6 2046     		mov	r0, r4
 1264 07f8 2946     		mov	r1, r5
 1265 07fa 1A46     		mov	r2, r3
 1266 07fc FFF7FEFF 		bl	memcpy
 329:.\AdvantageImpl.c ****                         break;
 1267              		.loc 1 329 0
ARM GAS  C:\Users\RECEPC~1\AppData\Local\Temp\ccLZ8WPs.s 			page 29


 1268 0800 44E0     		b	.L36
 1269              	.L39:
 330:.\AdvantageImpl.c ****                         case 0x01:
 331:.\AdvantageImpl.c ****                         //Six bytes only since the PPU is constrained to this length
 332:.\AdvantageImpl.c ****                         memcpy(PBYTECAST(&pjob->_ppump->_trasactionbuffer[GetBufferIndexFromDisplay
 1270              		.loc 1 332 0
 1271 0802 7B69     		ldr	r3, [r7, #20]
 1272 0804 DC69     		ldr	r4, [r3, #28]
 1273 0806 6520     		movs	r0, #101
 1274 0808 FFF7FEFF 		bl	GetBufferIndexFromDisplayID
 1275 080c 0346     		mov	r3, r0
 1276 080e 2033     		adds	r3, r3, #32
 1277 0810 E518     		adds	r5, r4, r3
 1278 0812 FFF7FEFF 		bl	GetEepromBuffer
 1279 0816 0346     		mov	r3, r0
 1280 0818 03F11004 		add	r4, r3, #16
 1281 081c 6520     		movs	r0, #101
 1282 081e FFF7FEFF 		bl	GetBufferLengthFromDisplayID
 1283 0822 0346     		mov	r3, r0
 1284 0824 2846     		mov	r0, r5
 1285 0826 2146     		mov	r1, r4
 1286 0828 1A46     		mov	r2, r3
 1287 082a FFF7FEFF 		bl	memcpy
 333:.\AdvantageImpl.c ****                         break;
 1288              		.loc 1 333 0
 1289 082e 2DE0     		b	.L36
 1290              	.L40:
 334:.\AdvantageImpl.c ****                         case 0x02:
 335:.\AdvantageImpl.c ****                         //Six bytes only since the PPU is constrained to this length
 336:.\AdvantageImpl.c ****                         memcpy(PBYTECAST(&pjob->_ppump->_trasactionbuffer[GetBufferIndexFromDisplay
 1291              		.loc 1 336 0
 1292 0830 7B69     		ldr	r3, [r7, #20]
 1293 0832 DC69     		ldr	r4, [r3, #28]
 1294 0834 6520     		movs	r0, #101
 1295 0836 FFF7FEFF 		bl	GetBufferIndexFromDisplayID
 1296 083a 0346     		mov	r3, r0
 1297 083c 2033     		adds	r3, r3, #32
 1298 083e E518     		adds	r5, r4, r3
 1299 0840 FFF7FEFF 		bl	GetEepromBuffer
 1300 0844 0346     		mov	r3, r0
 1301 0846 03F12004 		add	r4, r3, #32
 1302 084a 6520     		movs	r0, #101
 1303 084c FFF7FEFF 		bl	GetBufferLengthFromDisplayID
 1304 0850 0346     		mov	r3, r0
 1305 0852 2846     		mov	r0, r5
 1306 0854 2146     		mov	r1, r4
 1307 0856 1A46     		mov	r2, r3
 1308 0858 FFF7FEFF 		bl	memcpy
 337:.\AdvantageImpl.c ****                         break;
 1309              		.loc 1 337 0
 1310 085c 16E0     		b	.L36
 1311              	.L41:
 338:.\AdvantageImpl.c ****                         case 0x03:
 339:.\AdvantageImpl.c ****                         //Six bytes only since the PPU is constrained to this length
 340:.\AdvantageImpl.c ****                         memcpy(PBYTECAST(&pjob->_ppump->_trasactionbuffer[GetBufferIndexFromDisplay
 1312              		.loc 1 340 0
 1313 085e 7B69     		ldr	r3, [r7, #20]
ARM GAS  C:\Users\RECEPC~1\AppData\Local\Temp\ccLZ8WPs.s 			page 30


 1314 0860 DC69     		ldr	r4, [r3, #28]
 1315 0862 6520     		movs	r0, #101
 1316 0864 FFF7FEFF 		bl	GetBufferIndexFromDisplayID
 1317 0868 0346     		mov	r3, r0
 1318 086a 2033     		adds	r3, r3, #32
 1319 086c E518     		adds	r5, r4, r3
 1320 086e FFF7FEFF 		bl	GetEepromBuffer
 1321 0872 0346     		mov	r3, r0
 1322 0874 03F13004 		add	r4, r3, #48
 1323 0878 6520     		movs	r0, #101
 1324 087a FFF7FEFF 		bl	GetBufferLengthFromDisplayID
 1325 087e 0346     		mov	r3, r0
 1326 0880 2846     		mov	r0, r5
 1327 0882 2146     		mov	r1, r4
 1328 0884 1A46     		mov	r2, r3
 1329 0886 FFF7FEFF 		bl	memcpy
 341:.\AdvantageImpl.c ****                         break;
 1330              		.loc 1 341 0
 1331 088a 00BF     		nop
 1332              	.L36:
 342:.\AdvantageImpl.c ****                     }
 343:.\AdvantageImpl.c ****                     I2CBusUnlock();
 1333              		.loc 1 343 0
 1334 088c FFF7FEFF 		bl	I2CBusUnlock
 344:.\AdvantageImpl.c ****                     
 345:.\AdvantageImpl.c ****                     memcpy(PBYTECAST(&pjob->_ppump->_rxbuffer[0x0C]), PBYTECAST(&pjob->_ppump->_tra
 1335              		.loc 1 345 0
 1336 0890 7B69     		ldr	r3, [r7, #20]
 1337 0892 DB69     		ldr	r3, [r3, #28]
 1338 0894 03F5D675 		add	r5, r3, #428
 1339 0898 7B69     		ldr	r3, [r7, #20]
 1340 089a DC69     		ldr	r4, [r3, #28]
 1341 089c 6520     		movs	r0, #101
 1342 089e FFF7FEFF 		bl	GetBufferIndexFromDisplayID
 1343 08a2 0346     		mov	r3, r0
 1344 08a4 2033     		adds	r3, r3, #32
 1345 08a6 2344     		add	r3, r3, r4
 1346 08a8 2846     		mov	r0, r5
 1347 08aa 1946     		mov	r1, r3
 1348 08ac 0622     		movs	r2, #6
 1349 08ae FFF7FEFF 		bl	memcpy
 346:.\AdvantageImpl.c ****                     
 347:.\AdvantageImpl.c ****                     //Bytes from index 12 to 17 are the digits for the PPU used for the transaction
 348:.\AdvantageImpl.c ****                     //Digits are in BCD format
 349:.\AdvantageImpl.c ****                     pjob->_ppump->_rxbuffer[0x0C] = (pjob->_ppump->_rxbuffer[0x0C] & 0x0F);
 1350              		.loc 1 349 0
 1351 08b2 7B69     		ldr	r3, [r7, #20]
 1352 08b4 DB69     		ldr	r3, [r3, #28]
 1353 08b6 7A69     		ldr	r2, [r7, #20]
 1354 08b8 D269     		ldr	r2, [r2, #28]
 1355 08ba 92F8AC21 		ldrb	r2, [r2, #428]	@ zero_extendqisi2
 1356 08be 02F00F02 		and	r2, r2, #15
 1357 08c2 D2B2     		uxtb	r2, r2
 1358 08c4 83F8AC21 		strb	r2, [r3, #428]
 350:.\AdvantageImpl.c ****                     pjob->_ppump->_rxbuffer[0x0D] = (pjob->_ppump->_rxbuffer[0x0D] & 0x0F);
 1359              		.loc 1 350 0
 1360 08c8 7B69     		ldr	r3, [r7, #20]
ARM GAS  C:\Users\RECEPC~1\AppData\Local\Temp\ccLZ8WPs.s 			page 31


 1361 08ca DB69     		ldr	r3, [r3, #28]
 1362 08cc 7A69     		ldr	r2, [r7, #20]
 1363 08ce D269     		ldr	r2, [r2, #28]
 1364 08d0 92F8AD21 		ldrb	r2, [r2, #429]	@ zero_extendqisi2
 1365 08d4 02F00F02 		and	r2, r2, #15
 1366 08d8 D2B2     		uxtb	r2, r2
 1367 08da 83F8AD21 		strb	r2, [r3, #429]
 351:.\AdvantageImpl.c ****                     pjob->_ppump->_rxbuffer[0x0E] = (pjob->_ppump->_rxbuffer[0x0E] & 0x0F);
 1368              		.loc 1 351 0
 1369 08de 7B69     		ldr	r3, [r7, #20]
 1370 08e0 DB69     		ldr	r3, [r3, #28]
 1371 08e2 7A69     		ldr	r2, [r7, #20]
 1372 08e4 D269     		ldr	r2, [r2, #28]
 1373 08e6 92F8AE21 		ldrb	r2, [r2, #430]	@ zero_extendqisi2
 1374 08ea 02F00F02 		and	r2, r2, #15
 1375 08ee D2B2     		uxtb	r2, r2
 1376 08f0 83F8AE21 		strb	r2, [r3, #430]
 352:.\AdvantageImpl.c ****                     pjob->_ppump->_rxbuffer[0x0F] = (pjob->_ppump->_rxbuffer[0x0F] & 0x0F);
 1377              		.loc 1 352 0
 1378 08f4 7B69     		ldr	r3, [r7, #20]
 1379 08f6 DB69     		ldr	r3, [r3, #28]
 1380 08f8 7A69     		ldr	r2, [r7, #20]
 1381 08fa D269     		ldr	r2, [r2, #28]
 1382 08fc 92F8AF21 		ldrb	r2, [r2, #431]	@ zero_extendqisi2
 1383 0900 02F00F02 		and	r2, r2, #15
 1384 0904 D2B2     		uxtb	r2, r2
 1385 0906 83F8AF21 		strb	r2, [r3, #431]
 353:.\AdvantageImpl.c ****                     pjob->_ppump->_rxbuffer[0x10] = (pjob->_ppump->_rxbuffer[0x10] & 0x0F);
 1386              		.loc 1 353 0
 1387 090a 7B69     		ldr	r3, [r7, #20]
 1388 090c DB69     		ldr	r3, [r3, #28]
 1389 090e 7A69     		ldr	r2, [r7, #20]
 1390 0910 D269     		ldr	r2, [r2, #28]
 1391 0912 92F8B021 		ldrb	r2, [r2, #432]	@ zero_extendqisi2
 1392 0916 02F00F02 		and	r2, r2, #15
 1393 091a D2B2     		uxtb	r2, r2
 1394 091c 83F8B021 		strb	r2, [r3, #432]
 354:.\AdvantageImpl.c ****                     pjob->_ppump->_rxbuffer[0x11] = (pjob->_ppump->_rxbuffer[0x11] & 0x0F);
 1395              		.loc 1 354 0
 1396 0920 7B69     		ldr	r3, [r7, #20]
 1397 0922 DB69     		ldr	r3, [r3, #28]
 1398 0924 7A69     		ldr	r2, [r7, #20]
 1399 0926 D269     		ldr	r2, [r2, #28]
 1400 0928 92F8B121 		ldrb	r2, [r2, #433]	@ zero_extendqisi2
 1401 092c 02F00F02 		and	r2, r2, #15
 1402 0930 D2B2     		uxtb	r2, r2
 1403 0932 83F8B121 		strb	r2, [r3, #433]
 355:.\AdvantageImpl.c ****                     pjob->_ppump->_authorizationinfo._price = LSDBCDBUFF2HEX(PBYTECAST(&pjob->_ppum
 1404              		.loc 1 355 0
 1405 0936 7B69     		ldr	r3, [r7, #20]
 1406 0938 DC69     		ldr	r4, [r3, #28]
 1407 093a 7B69     		ldr	r3, [r7, #20]
 1408 093c DB69     		ldr	r3, [r3, #28]
 1409 093e 03F5D673 		add	r3, r3, #428
 1410 0942 1846     		mov	r0, r3
 1411 0944 0621     		movs	r1, #6
 1412 0946 FFF7FEFF 		bl	LSDBCDBUFF2HEX
ARM GAS  C:\Users\RECEPC~1\AppData\Local\Temp\ccLZ8WPs.s 			page 32


 1413 094a 0346     		mov	r3, r0
 1414 094c 9BB2     		uxth	r3, r3
 1415 094e A4F8AC3B 		strh	r3, [r4, #2988]	@ movhi
 1416              	.LBE5:
 1417 0952 41E0     		b	.L42
 1418              	.L35:
 356:.\AdvantageImpl.c ****                     
 357:.\AdvantageImpl.c ****                 }
 358:.\AdvantageImpl.c ****                 else
 359:.\AdvantageImpl.c ****                 {
 360:.\AdvantageImpl.c ****                     pjob->_ppump->_rxbuffer[0x0C] = (pjob->_ppump->_rxbuffer[0x0C] & 0x0F);
 1419              		.loc 1 360 0
 1420 0954 7B69     		ldr	r3, [r7, #20]
 1421 0956 DB69     		ldr	r3, [r3, #28]
 1422 0958 7A69     		ldr	r2, [r7, #20]
 1423 095a D269     		ldr	r2, [r2, #28]
 1424 095c 92F8AC21 		ldrb	r2, [r2, #428]	@ zero_extendqisi2
 1425 0960 02F00F02 		and	r2, r2, #15
 1426 0964 D2B2     		uxtb	r2, r2
 1427 0966 83F8AC21 		strb	r2, [r3, #428]
 361:.\AdvantageImpl.c ****                     pjob->_ppump->_rxbuffer[0x0D] = (pjob->_ppump->_rxbuffer[0x0D] & 0x0F);
 1428              		.loc 1 361 0
 1429 096a 7B69     		ldr	r3, [r7, #20]
 1430 096c DB69     		ldr	r3, [r3, #28]
 1431 096e 7A69     		ldr	r2, [r7, #20]
 1432 0970 D269     		ldr	r2, [r2, #28]
 1433 0972 92F8AD21 		ldrb	r2, [r2, #429]	@ zero_extendqisi2
 1434 0976 02F00F02 		and	r2, r2, #15
 1435 097a D2B2     		uxtb	r2, r2
 1436 097c 83F8AD21 		strb	r2, [r3, #429]
 362:.\AdvantageImpl.c ****                     pjob->_ppump->_rxbuffer[0x0E] = (pjob->_ppump->_rxbuffer[0x0E] & 0x0F);
 1437              		.loc 1 362 0
 1438 0980 7B69     		ldr	r3, [r7, #20]
 1439 0982 DB69     		ldr	r3, [r3, #28]
 1440 0984 7A69     		ldr	r2, [r7, #20]
 1441 0986 D269     		ldr	r2, [r2, #28]
 1442 0988 92F8AE21 		ldrb	r2, [r2, #430]	@ zero_extendqisi2
 1443 098c 02F00F02 		and	r2, r2, #15
 1444 0990 D2B2     		uxtb	r2, r2
 1445 0992 83F8AE21 		strb	r2, [r3, #430]
 363:.\AdvantageImpl.c ****                     pjob->_ppump->_rxbuffer[0x0F] = (pjob->_ppump->_rxbuffer[0x0F] & 0x0F);
 1446              		.loc 1 363 0
 1447 0996 7B69     		ldr	r3, [r7, #20]
 1448 0998 DB69     		ldr	r3, [r3, #28]
 1449 099a 7A69     		ldr	r2, [r7, #20]
 1450 099c D269     		ldr	r2, [r2, #28]
 1451 099e 92F8AF21 		ldrb	r2, [r2, #431]	@ zero_extendqisi2
 1452 09a2 02F00F02 		and	r2, r2, #15
 1453 09a6 D2B2     		uxtb	r2, r2
 1454 09a8 83F8AF21 		strb	r2, [r3, #431]
 364:.\AdvantageImpl.c ****                     pjob->_ppump->_rxbuffer[0x10] = (pjob->_ppump->_rxbuffer[0x10] & 0x0F);
 1455              		.loc 1 364 0
 1456 09ac 7B69     		ldr	r3, [r7, #20]
 1457 09ae DB69     		ldr	r3, [r3, #28]
 1458 09b0 7A69     		ldr	r2, [r7, #20]
 1459 09b2 D269     		ldr	r2, [r2, #28]
 1460 09b4 92F8B021 		ldrb	r2, [r2, #432]	@ zero_extendqisi2
ARM GAS  C:\Users\RECEPC~1\AppData\Local\Temp\ccLZ8WPs.s 			page 33


 1461 09b8 02F00F02 		and	r2, r2, #15
 1462 09bc D2B2     		uxtb	r2, r2
 1463 09be 83F8B021 		strb	r2, [r3, #432]
 365:.\AdvantageImpl.c ****                     pjob->_ppump->_rxbuffer[0x11] = (pjob->_ppump->_rxbuffer[0x11] & 0x0F);
 1464              		.loc 1 365 0
 1465 09c2 7B69     		ldr	r3, [r7, #20]
 1466 09c4 DB69     		ldr	r3, [r3, #28]
 1467 09c6 7A69     		ldr	r2, [r7, #20]
 1468 09c8 D269     		ldr	r2, [r2, #28]
 1469 09ca 92F8B121 		ldrb	r2, [r2, #433]	@ zero_extendqisi2
 1470 09ce 02F00F02 		and	r2, r2, #15
 1471 09d2 D2B2     		uxtb	r2, r2
 1472 09d4 83F8B121 		strb	r2, [r3, #433]
 1473              	.L42:
 366:.\AdvantageImpl.c ****                 }
 367:.\AdvantageImpl.c ****                 
 368:.\AdvantageImpl.c ****                 //Bytes from index 19 to 26 are the digits for the fuel volume delivered in the tra
 369:.\AdvantageImpl.c ****                 //Digits are in BCD format
 370:.\AdvantageImpl.c ****                 pjob->_ppump->_rxbuffer[0x13] = (pjob->_ppump->_rxbuffer[0x13] & 0x0F);
 1474              		.loc 1 370 0
 1475 09d8 7B69     		ldr	r3, [r7, #20]
 1476 09da DB69     		ldr	r3, [r3, #28]
 1477 09dc 7A69     		ldr	r2, [r7, #20]
 1478 09de D269     		ldr	r2, [r2, #28]
 1479 09e0 92F8B321 		ldrb	r2, [r2, #435]	@ zero_extendqisi2
 1480 09e4 02F00F02 		and	r2, r2, #15
 1481 09e8 D2B2     		uxtb	r2, r2
 1482 09ea 83F8B321 		strb	r2, [r3, #435]
 371:.\AdvantageImpl.c ****                 pjob->_ppump->_rxbuffer[0x14] = (pjob->_ppump->_rxbuffer[0x14] & 0x0F);
 1483              		.loc 1 371 0
 1484 09ee 7B69     		ldr	r3, [r7, #20]
 1485 09f0 DB69     		ldr	r3, [r3, #28]
 1486 09f2 7A69     		ldr	r2, [r7, #20]
 1487 09f4 D269     		ldr	r2, [r2, #28]
 1488 09f6 92F8B421 		ldrb	r2, [r2, #436]	@ zero_extendqisi2
 1489 09fa 02F00F02 		and	r2, r2, #15
 1490 09fe D2B2     		uxtb	r2, r2
 1491 0a00 83F8B421 		strb	r2, [r3, #436]
 372:.\AdvantageImpl.c ****                 pjob->_ppump->_rxbuffer[0x15] = (pjob->_ppump->_rxbuffer[0x15] & 0x0F);
 1492              		.loc 1 372 0
 1493 0a04 7B69     		ldr	r3, [r7, #20]
 1494 0a06 DB69     		ldr	r3, [r3, #28]
 1495 0a08 7A69     		ldr	r2, [r7, #20]
 1496 0a0a D269     		ldr	r2, [r2, #28]
 1497 0a0c 92F8B521 		ldrb	r2, [r2, #437]	@ zero_extendqisi2
 1498 0a10 02F00F02 		and	r2, r2, #15
 1499 0a14 D2B2     		uxtb	r2, r2
 1500 0a16 83F8B521 		strb	r2, [r3, #437]
 373:.\AdvantageImpl.c ****                 pjob->_ppump->_rxbuffer[0x16] = (pjob->_ppump->_rxbuffer[0x16] & 0x0F);
 1501              		.loc 1 373 0
 1502 0a1a 7B69     		ldr	r3, [r7, #20]
 1503 0a1c DB69     		ldr	r3, [r3, #28]
 1504 0a1e 7A69     		ldr	r2, [r7, #20]
 1505 0a20 D269     		ldr	r2, [r2, #28]
 1506 0a22 92F8B621 		ldrb	r2, [r2, #438]	@ zero_extendqisi2
 1507 0a26 02F00F02 		and	r2, r2, #15
 1508 0a2a D2B2     		uxtb	r2, r2
ARM GAS  C:\Users\RECEPC~1\AppData\Local\Temp\ccLZ8WPs.s 			page 34


 1509 0a2c 83F8B621 		strb	r2, [r3, #438]
 374:.\AdvantageImpl.c ****                 pjob->_ppump->_rxbuffer[0x17] = (pjob->_ppump->_rxbuffer[0x17] & 0x0F);
 1510              		.loc 1 374 0
 1511 0a30 7B69     		ldr	r3, [r7, #20]
 1512 0a32 DB69     		ldr	r3, [r3, #28]
 1513 0a34 7A69     		ldr	r2, [r7, #20]
 1514 0a36 D269     		ldr	r2, [r2, #28]
 1515 0a38 92F8B721 		ldrb	r2, [r2, #439]	@ zero_extendqisi2
 1516 0a3c 02F00F02 		and	r2, r2, #15
 1517 0a40 D2B2     		uxtb	r2, r2
 1518 0a42 83F8B721 		strb	r2, [r3, #439]
 375:.\AdvantageImpl.c ****                 pjob->_ppump->_rxbuffer[0x18] = (pjob->_ppump->_rxbuffer[0x18] & 0x0F);
 1519              		.loc 1 375 0
 1520 0a46 7B69     		ldr	r3, [r7, #20]
 1521 0a48 DB69     		ldr	r3, [r3, #28]
 1522 0a4a 7A69     		ldr	r2, [r7, #20]
 1523 0a4c D269     		ldr	r2, [r2, #28]
 1524 0a4e 92F8B821 		ldrb	r2, [r2, #440]	@ zero_extendqisi2
 1525 0a52 02F00F02 		and	r2, r2, #15
 1526 0a56 D2B2     		uxtb	r2, r2
 1527 0a58 83F8B821 		strb	r2, [r3, #440]
 376:.\AdvantageImpl.c ****                 pjob->_ppump->_rxbuffer[0x19] = (pjob->_ppump->_rxbuffer[0x19] & 0x0F);
 1528              		.loc 1 376 0
 1529 0a5c 7B69     		ldr	r3, [r7, #20]
 1530 0a5e DB69     		ldr	r3, [r3, #28]
 1531 0a60 7A69     		ldr	r2, [r7, #20]
 1532 0a62 D269     		ldr	r2, [r2, #28]
 1533 0a64 92F8B921 		ldrb	r2, [r2, #441]	@ zero_extendqisi2
 1534 0a68 02F00F02 		and	r2, r2, #15
 1535 0a6c D2B2     		uxtb	r2, r2
 1536 0a6e 83F8B921 		strb	r2, [r3, #441]
 377:.\AdvantageImpl.c ****                 pjob->_ppump->_rxbuffer[0x1A] = (pjob->_ppump->_rxbuffer[0x1A] & 0x0F);
 1537              		.loc 1 377 0
 1538 0a72 7B69     		ldr	r3, [r7, #20]
 1539 0a74 DB69     		ldr	r3, [r3, #28]
 1540 0a76 7A69     		ldr	r2, [r7, #20]
 1541 0a78 D269     		ldr	r2, [r2, #28]
 1542 0a7a 92F8BA21 		ldrb	r2, [r2, #442]	@ zero_extendqisi2
 1543 0a7e 02F00F02 		and	r2, r2, #15
 1544 0a82 D2B2     		uxtb	r2, r2
 1545 0a84 83F8BA21 		strb	r2, [r3, #442]
 378:.\AdvantageImpl.c ****                 pjob->_ppump->_authorizationinfo._volumeamount = LSDBCDBUFF2HEX(PBYTECAST(&pjob->_p
 1546              		.loc 1 378 0
 1547 0a88 7B69     		ldr	r3, [r7, #20]
 1548 0a8a DC69     		ldr	r4, [r3, #28]
 1549 0a8c 7B69     		ldr	r3, [r7, #20]
 1550 0a8e DB69     		ldr	r3, [r3, #28]
 1551 0a90 03F2B313 		addw	r3, r3, #435
 1552 0a94 1846     		mov	r0, r3
 1553 0a96 0821     		movs	r1, #8
 1554 0a98 FFF7FEFF 		bl	LSDBCDBUFF2HEX
 1555 0a9c 0346     		mov	r3, r0
 1556 0a9e C4F8B43B 		str	r3, [r4, #2996]
 379:.\AdvantageImpl.c ****                 
 380:.\AdvantageImpl.c ****                 ////////////////////////////////////////////////////////////////////////////////
 381:.\AdvantageImpl.c ****                 ////////////////////////////////////////////////////////////////////////////////
 382:.\AdvantageImpl.c ****                 
ARM GAS  C:\Users\RECEPC~1\AppData\Local\Temp\ccLZ8WPs.s 			page 35


 383:.\AdvantageImpl.c ****                 //Bytes from index 28 to 35 are the digits for the money charged to the transaction
 384:.\AdvantageImpl.c ****                 //Digits are in BCD format
 385:.\AdvantageImpl.c ****                 pjob->_ppump->_rxbuffer[0x1C] = (pjob->_ppump->_rxbuffer[0x1C] & 0x00);//Zero to ma
 1557              		.loc 1 385 0
 1558 0aa2 7B69     		ldr	r3, [r7, #20]
 1559 0aa4 DB69     		ldr	r3, [r3, #28]
 1560 0aa6 0022     		movs	r2, #0
 1561 0aa8 83F8BC21 		strb	r2, [r3, #444]
 386:.\AdvantageImpl.c ****                 
 387:.\AdvantageImpl.c ****                 pjob->_ppump->_rxbuffer[0x1D] = (pjob->_ppump->_rxbuffer[0x1D] & 0x0F);
 1562              		.loc 1 387 0
 1563 0aac 7B69     		ldr	r3, [r7, #20]
 1564 0aae DB69     		ldr	r3, [r3, #28]
 1565 0ab0 7A69     		ldr	r2, [r7, #20]
 1566 0ab2 D269     		ldr	r2, [r2, #28]
 1567 0ab4 92F8BD21 		ldrb	r2, [r2, #445]	@ zero_extendqisi2
 1568 0ab8 02F00F02 		and	r2, r2, #15
 1569 0abc D2B2     		uxtb	r2, r2
 1570 0abe 83F8BD21 		strb	r2, [r3, #445]
 388:.\AdvantageImpl.c ****                 pjob->_ppump->_rxbuffer[0x1E] = (pjob->_ppump->_rxbuffer[0x1E] & 0x0F);
 1571              		.loc 1 388 0
 1572 0ac2 7B69     		ldr	r3, [r7, #20]
 1573 0ac4 DB69     		ldr	r3, [r3, #28]
 1574 0ac6 7A69     		ldr	r2, [r7, #20]
 1575 0ac8 D269     		ldr	r2, [r2, #28]
 1576 0aca 92F8BE21 		ldrb	r2, [r2, #446]	@ zero_extendqisi2
 1577 0ace 02F00F02 		and	r2, r2, #15
 1578 0ad2 D2B2     		uxtb	r2, r2
 1579 0ad4 83F8BE21 		strb	r2, [r3, #446]
 389:.\AdvantageImpl.c ****                 pjob->_ppump->_rxbuffer[0x1F] = (pjob->_ppump->_rxbuffer[0x1F] & 0x0F);
 1580              		.loc 1 389 0
 1581 0ad8 7B69     		ldr	r3, [r7, #20]
 1582 0ada DB69     		ldr	r3, [r3, #28]
 1583 0adc 7A69     		ldr	r2, [r7, #20]
 1584 0ade D269     		ldr	r2, [r2, #28]
 1585 0ae0 92F8BF21 		ldrb	r2, [r2, #447]	@ zero_extendqisi2
 1586 0ae4 02F00F02 		and	r2, r2, #15
 1587 0ae8 D2B2     		uxtb	r2, r2
 1588 0aea 83F8BF21 		strb	r2, [r3, #447]
 390:.\AdvantageImpl.c ****                 pjob->_ppump->_rxbuffer[0x20] = (pjob->_ppump->_rxbuffer[0x20] & 0x0F);
 1589              		.loc 1 390 0
 1590 0aee 7B69     		ldr	r3, [r7, #20]
 1591 0af0 DB69     		ldr	r3, [r3, #28]
 1592 0af2 7A69     		ldr	r2, [r7, #20]
 1593 0af4 D269     		ldr	r2, [r2, #28]
 1594 0af6 92F8C021 		ldrb	r2, [r2, #448]	@ zero_extendqisi2
 1595 0afa 02F00F02 		and	r2, r2, #15
 1596 0afe D2B2     		uxtb	r2, r2
 1597 0b00 83F8C021 		strb	r2, [r3, #448]
 391:.\AdvantageImpl.c ****                 pjob->_ppump->_rxbuffer[0x21] = (pjob->_ppump->_rxbuffer[0x21] & 0x0F);
 1598              		.loc 1 391 0
 1599 0b04 7B69     		ldr	r3, [r7, #20]
 1600 0b06 DB69     		ldr	r3, [r3, #28]
 1601 0b08 7A69     		ldr	r2, [r7, #20]
 1602 0b0a D269     		ldr	r2, [r2, #28]
 1603 0b0c 92F8C121 		ldrb	r2, [r2, #449]	@ zero_extendqisi2
 1604 0b10 02F00F02 		and	r2, r2, #15
ARM GAS  C:\Users\RECEPC~1\AppData\Local\Temp\ccLZ8WPs.s 			page 36


 1605 0b14 D2B2     		uxtb	r2, r2
 1606 0b16 83F8C121 		strb	r2, [r3, #449]
 392:.\AdvantageImpl.c ****                 pjob->_ppump->_rxbuffer[0x22] = (pjob->_ppump->_rxbuffer[0x22] & 0x0F);
 1607              		.loc 1 392 0
 1608 0b1a 7B69     		ldr	r3, [r7, #20]
 1609 0b1c DB69     		ldr	r3, [r3, #28]
 1610 0b1e 7A69     		ldr	r2, [r7, #20]
 1611 0b20 D269     		ldr	r2, [r2, #28]
 1612 0b22 92F8C221 		ldrb	r2, [r2, #450]	@ zero_extendqisi2
 1613 0b26 02F00F02 		and	r2, r2, #15
 1614 0b2a D2B2     		uxtb	r2, r2
 1615 0b2c 83F8C221 		strb	r2, [r3, #450]
 393:.\AdvantageImpl.c ****                 pjob->_ppump->_rxbuffer[0x23] = (pjob->_ppump->_rxbuffer[0x23] & 0x0F);
 1616              		.loc 1 393 0
 1617 0b30 7B69     		ldr	r3, [r7, #20]
 1618 0b32 DB69     		ldr	r3, [r3, #28]
 1619 0b34 7A69     		ldr	r2, [r7, #20]
 1620 0b36 D269     		ldr	r2, [r2, #28]
 1621 0b38 92F8C321 		ldrb	r2, [r2, #451]	@ zero_extendqisi2
 1622 0b3c 02F00F02 		and	r2, r2, #15
 1623 0b40 D2B2     		uxtb	r2, r2
 1624 0b42 83F8C321 		strb	r2, [r3, #451]
 394:.\AdvantageImpl.c ****                 //INQUIRY ABOUT THE EXTRA x10 RESULT SINCE THERE IS AN EXTRA 0 IN THE RESPONSE FOR 
 395:.\AdvantageImpl.c ****                 //MEANWHILE DIVIDING BY 10 TO REMOVE THE ZERO
 396:.\AdvantageImpl.c ****                 pjob->_ppump->_authorizationinfo._presetamount = (LSDBCDBUFF2HEX(PBYTECAST(&pjob->_
 1625              		.loc 1 396 0
 1626 0b46 7B69     		ldr	r3, [r7, #20]
 1627 0b48 DC69     		ldr	r4, [r3, #28]
 1628 0b4a 7B69     		ldr	r3, [r7, #20]
 1629 0b4c DB69     		ldr	r3, [r3, #28]
 1630 0b4e 03F5DE73 		add	r3, r3, #444
 1631 0b52 1846     		mov	r0, r3
 1632 0b54 0821     		movs	r1, #8
 1633 0b56 FFF7FEFF 		bl	LSDBCDBUFF2HEX
 1634 0b5a 0246     		mov	r2, r0
 1635 0b5c C94B     		ldr	r3, .L54
 1636 0b5e A3FB0223 		umull	r2, r3, r3, r2
 1637 0b62 DB08     		lsrs	r3, r3, #3
 1638 0b64 C4F8B03B 		str	r3, [r4, #2992]
 397:.\AdvantageImpl.c ****                     
 398:.\AdvantageImpl.c ****                 ClearRtcBuffer();
 1639              		.loc 1 398 0
 1640 0b68 FFF7FEFF 		bl	ClearRtcBuffer
 399:.\AdvantageImpl.c ****                 ReadRTC();
 1641              		.loc 1 399 0
 1642 0b6c FFF7FEFF 		bl	ReadRTC
 400:.\AdvantageImpl.c ****                 //CAREFUL WITH RETURNS BETWEEN THE LOCK/UNLOCK CALLS
 401:.\AdvantageImpl.c ****                 //AND RECURSIVE CALLS THAT WOULD DEAD LOCK!
 402:.\AdvantageImpl.c ****                 I2CBusLock();
 1643              		.loc 1 402 0
 1644 0b70 FFF7FEFF 		bl	I2CBusLock
 403:.\AdvantageImpl.c ****             
 404:.\AdvantageImpl.c ****                 ClearEepromBuffer();
 1645              		.loc 1 404 0
 1646 0b74 FFF7FEFF 		bl	ClearEepromBuffer
 405:.\AdvantageImpl.c ****                 //In this position is located the payment type (CREDIT: 0x0E , CASH:0x0D)
 406:.\AdvantageImpl.c ****                 if(pjob->_ppump->_trasactionbuffer[0x00] == 0x0D)
ARM GAS  C:\Users\RECEPC~1\AppData\Local\Temp\ccLZ8WPs.s 			page 37


 1647              		.loc 1 406 0
 1648 0b78 7B69     		ldr	r3, [r7, #20]
 1649 0b7a DB69     		ldr	r3, [r3, #28]
 1650 0b7c 93F82030 		ldrb	r3, [r3, #32]	@ zero_extendqisi2
 1651 0b80 0D2B     		cmp	r3, #13
 1652 0b82 40F0DB80 		bne	.L43
 407:.\AdvantageImpl.c ****                 {
 408:.\AdvantageImpl.c ****                     //HERE WE STORE THE LAST TRANSACTION IN EEPROM! ALWAYS THE PREVIOUS TRANSACTION
 409:.\AdvantageImpl.c ****                     //WILL BE OVERWRITTEN AND LOST.
 410:.\AdvantageImpl.c ****                     //IN CASE OF A "CREDIT SALE", THE WHOLE DATA WILL BE STORED IN A SEPARATE MEMOR
 411:.\AdvantageImpl.c ****                     //SINCE IN CASE OF A RF LINK DROP, THE STATE OF THE SALE COULD BE RECOVERED BY 
 412:.\AdvantageImpl.c ****                     LoadEepromPage(EEPROM_DISPENSER_PUMP1_LAYOUT_PAGE);
 1653              		.loc 1 412 0
 1654 0b86 4FF40070 		mov	r0, #512
 1655 0b8a FFF7FEFF 		bl	LoadEepromPage
 413:.\AdvantageImpl.c ****                     if(GetEepromBuffer()[0] == ((pjob->_ppump->_rxbuffer[0x04] & 0x0F) + 1))
 1656              		.loc 1 413 0
 1657 0b8e FFF7FEFF 		bl	GetEepromBuffer
 1658 0b92 0346     		mov	r3, r0
 1659 0b94 1B78     		ldrb	r3, [r3]	@ zero_extendqisi2
 1660 0b96 1A46     		mov	r2, r3
 1661 0b98 7B69     		ldr	r3, [r7, #20]
 1662 0b9a DB69     		ldr	r3, [r3, #28]
 1663 0b9c 93F8A431 		ldrb	r3, [r3, #420]	@ zero_extendqisi2
 1664 0ba0 03F00F03 		and	r3, r3, #15
 1665 0ba4 0133     		adds	r3, r3, #1
 1666 0ba6 9A42     		cmp	r2, r3
 1667 0ba8 22D1     		bne	.L44
 414:.\AdvantageImpl.c ****                     {
 415:.\AdvantageImpl.c ****                         ClearEepromBuffer();
 1668              		.loc 1 415 0
 1669 0baa FFF7FEFF 		bl	ClearEepromBuffer
 416:.\AdvantageImpl.c ****                         //Storing the current Date/Time for this transaction
 417:.\AdvantageImpl.c ****                         memcpy(GetEepromBuffer(), GetRtcBuffer(), 0x07);
 1670              		.loc 1 417 0
 1671 0bae FFF7FEFF 		bl	GetEepromBuffer
 1672 0bb2 0446     		mov	r4, r0
 1673 0bb4 FFF7FEFF 		bl	GetRtcBuffer
 1674 0bb8 0346     		mov	r3, r0
 1675 0bba 2046     		mov	r0, r4
 1676 0bbc 1946     		mov	r1, r3
 1677 0bbe 0722     		movs	r2, #7
 1678 0bc0 FFF7FEFF 		bl	memcpy
 418:.\AdvantageImpl.c ****                         memcpy(&GetEepromBuffer()[0x07], pjob->_ppump->_rxbuffer, pjob->_ppump->_rx
 1679              		.loc 1 418 0
 1680 0bc4 FFF7FEFF 		bl	GetEepromBuffer
 1681 0bc8 0346     		mov	r3, r0
 1682 0bca D91D     		adds	r1, r3, #7
 1683 0bcc 7B69     		ldr	r3, [r7, #20]
 1684 0bce DB69     		ldr	r3, [r3, #28]
 1685 0bd0 03F5D072 		add	r2, r3, #416
 1686 0bd4 7B69     		ldr	r3, [r7, #20]
 1687 0bd6 DB69     		ldr	r3, [r3, #28]
 1688 0bd8 B3F82033 		ldrh	r3, [r3, #800]
 1689 0bdc 0846     		mov	r0, r1
 1690 0bde 1146     		mov	r1, r2
 1691 0be0 1A46     		mov	r2, r3
ARM GAS  C:\Users\RECEPC~1\AppData\Local\Temp\ccLZ8WPs.s 			page 38


 1692 0be2 FFF7FEFF 		bl	memcpy
 419:.\AdvantageImpl.c ****                         StoreEepromPage(EEPROM_DISPENSER_PUMP12_TRANSACTION_PAGE);
 1693              		.loc 1 419 0
 1694 0be6 4FF4C860 		mov	r0, #1600
 1695 0bea FFF7FEFF 		bl	StoreEepromPage
 1696 0bee 81E1     		b	.L48
 1697              	.L44:
 420:.\AdvantageImpl.c ****                     }
 421:.\AdvantageImpl.c ****                     else
 422:.\AdvantageImpl.c ****                     {
 423:.\AdvantageImpl.c ****                         ClearEepromBuffer();
 1698              		.loc 1 423 0
 1699 0bf0 FFF7FEFF 		bl	ClearEepromBuffer
 424:.\AdvantageImpl.c ****                         LoadEepromPage(EEPROM_DISPENSER_PUMP2_LAYOUT_PAGE);
 1700              		.loc 1 424 0
 1701 0bf4 4FF41070 		mov	r0, #576
 1702 0bf8 FFF7FEFF 		bl	LoadEepromPage
 425:.\AdvantageImpl.c ****                         if(GetEepromBuffer()[0] == ((pjob->_ppump->_rxbuffer[0x04] & 0x0F) + 1))
 1703              		.loc 1 425 0
 1704 0bfc FFF7FEFF 		bl	GetEepromBuffer
 1705 0c00 0346     		mov	r3, r0
 1706 0c02 1B78     		ldrb	r3, [r3]	@ zero_extendqisi2
 1707 0c04 1A46     		mov	r2, r3
 1708 0c06 7B69     		ldr	r3, [r7, #20]
 1709 0c08 DB69     		ldr	r3, [r3, #28]
 1710 0c0a 93F8A431 		ldrb	r3, [r3, #420]	@ zero_extendqisi2
 1711 0c0e 03F00F03 		and	r3, r3, #15
 1712 0c12 0133     		adds	r3, r3, #1
 1713 0c14 9A42     		cmp	r2, r3
 1714 0c16 22D1     		bne	.L46
 426:.\AdvantageImpl.c ****                         {
 427:.\AdvantageImpl.c ****                             ClearEepromBuffer();
 1715              		.loc 1 427 0
 1716 0c18 FFF7FEFF 		bl	ClearEepromBuffer
 428:.\AdvantageImpl.c ****                             //Storing the current Date/Time for this transaction
 429:.\AdvantageImpl.c ****                             memcpy(GetEepromBuffer(), GetRtcBuffer(), 0x07);
 1717              		.loc 1 429 0
 1718 0c1c FFF7FEFF 		bl	GetEepromBuffer
 1719 0c20 0446     		mov	r4, r0
 1720 0c22 FFF7FEFF 		bl	GetRtcBuffer
 1721 0c26 0346     		mov	r3, r0
 1722 0c28 2046     		mov	r0, r4
 1723 0c2a 1946     		mov	r1, r3
 1724 0c2c 0722     		movs	r2, #7
 1725 0c2e FFF7FEFF 		bl	memcpy
 430:.\AdvantageImpl.c ****                             memcpy(&GetEepromBuffer()[0x07], pjob->_ppump->_rxbuffer, pjob->_ppump-
 1726              		.loc 1 430 0
 1727 0c32 FFF7FEFF 		bl	GetEepromBuffer
 1728 0c36 0346     		mov	r3, r0
 1729 0c38 D91D     		adds	r1, r3, #7
 1730 0c3a 7B69     		ldr	r3, [r7, #20]
 1731 0c3c DB69     		ldr	r3, [r3, #28]
 1732 0c3e 03F5D072 		add	r2, r3, #416
 1733 0c42 7B69     		ldr	r3, [r7, #20]
 1734 0c44 DB69     		ldr	r3, [r3, #28]
 1735 0c46 B3F82033 		ldrh	r3, [r3, #800]
 1736 0c4a 0846     		mov	r0, r1
ARM GAS  C:\Users\RECEPC~1\AppData\Local\Temp\ccLZ8WPs.s 			page 39


 1737 0c4c 1146     		mov	r1, r2
 1738 0c4e 1A46     		mov	r2, r3
 1739 0c50 FFF7FEFF 		bl	memcpy
 431:.\AdvantageImpl.c ****                             StoreEepromPage(EEPROM_DISPENSER_PUMP22_TRANSACTION_PAGE);
 1740              		.loc 1 431 0
 1741 0c54 4FF4E860 		mov	r0, #1856
 1742 0c58 FFF7FEFF 		bl	StoreEepromPage
 1743 0c5c 4AE1     		b	.L48
 1744              	.L46:
 432:.\AdvantageImpl.c ****                         }
 433:.\AdvantageImpl.c ****                         else
 434:.\AdvantageImpl.c ****                         {
 435:.\AdvantageImpl.c ****                             ClearEepromBuffer();
 1745              		.loc 1 435 0
 1746 0c5e FFF7FEFF 		bl	ClearEepromBuffer
 436:.\AdvantageImpl.c ****                             LoadEepromPage(EEPROM_DISPENSER_PUMP3_LAYOUT_PAGE);
 1747              		.loc 1 436 0
 1748 0c62 4FF42070 		mov	r0, #640
 1749 0c66 FFF7FEFF 		bl	LoadEepromPage
 437:.\AdvantageImpl.c ****                             if(GetEepromBuffer()[0] == ((pjob->_ppump->_rxbuffer[0x04] & 0x0F) + 1)
 1750              		.loc 1 437 0
 1751 0c6a FFF7FEFF 		bl	GetEepromBuffer
 1752 0c6e 0346     		mov	r3, r0
 1753 0c70 1B78     		ldrb	r3, [r3]	@ zero_extendqisi2
 1754 0c72 1A46     		mov	r2, r3
 1755 0c74 7B69     		ldr	r3, [r7, #20]
 1756 0c76 DB69     		ldr	r3, [r3, #28]
 1757 0c78 93F8A431 		ldrb	r3, [r3, #420]	@ zero_extendqisi2
 1758 0c7c 03F00F03 		and	r3, r3, #15
 1759 0c80 0133     		adds	r3, r3, #1
 1760 0c82 9A42     		cmp	r2, r3
 1761 0c84 22D1     		bne	.L47
 438:.\AdvantageImpl.c ****                             {
 439:.\AdvantageImpl.c ****                                 ClearEepromBuffer();
 1762              		.loc 1 439 0
 1763 0c86 FFF7FEFF 		bl	ClearEepromBuffer
 440:.\AdvantageImpl.c ****                                 //Storing the current Date/Time for this transaction
 441:.\AdvantageImpl.c ****                                 memcpy(GetEepromBuffer(), GetRtcBuffer(), 0x07);
 1764              		.loc 1 441 0
 1765 0c8a FFF7FEFF 		bl	GetEepromBuffer
 1766 0c8e 0446     		mov	r4, r0
 1767 0c90 FFF7FEFF 		bl	GetRtcBuffer
 1768 0c94 0346     		mov	r3, r0
 1769 0c96 2046     		mov	r0, r4
 1770 0c98 1946     		mov	r1, r3
 1771 0c9a 0722     		movs	r2, #7
 1772 0c9c FFF7FEFF 		bl	memcpy
 442:.\AdvantageImpl.c ****                                 memcpy(&GetEepromBuffer()[0x07], pjob->_ppump->_rxbuffer, pjob->_pp
 1773              		.loc 1 442 0
 1774 0ca0 FFF7FEFF 		bl	GetEepromBuffer
 1775 0ca4 0346     		mov	r3, r0
 1776 0ca6 D91D     		adds	r1, r3, #7
 1777 0ca8 7B69     		ldr	r3, [r7, #20]
 1778 0caa DB69     		ldr	r3, [r3, #28]
 1779 0cac 03F5D072 		add	r2, r3, #416
 1780 0cb0 7B69     		ldr	r3, [r7, #20]
 1781 0cb2 DB69     		ldr	r3, [r3, #28]
ARM GAS  C:\Users\RECEPC~1\AppData\Local\Temp\ccLZ8WPs.s 			page 40


 1782 0cb4 B3F82033 		ldrh	r3, [r3, #800]
 1783 0cb8 0846     		mov	r0, r1
 1784 0cba 1146     		mov	r1, r2
 1785 0cbc 1A46     		mov	r2, r3
 1786 0cbe FFF7FEFF 		bl	memcpy
 443:.\AdvantageImpl.c ****                                 StoreEepromPage(EEPROM_DISPENSER_PUMP32_TRANSACTION_PAGE);
 1787              		.loc 1 443 0
 1788 0cc2 4FF40460 		mov	r0, #2112
 1789 0cc6 FFF7FEFF 		bl	StoreEepromPage
 1790 0cca 13E1     		b	.L48
 1791              	.L47:
 444:.\AdvantageImpl.c ****                             }
 445:.\AdvantageImpl.c ****                             else
 446:.\AdvantageImpl.c ****                             {
 447:.\AdvantageImpl.c ****                                 ClearEepromBuffer();
 1792              		.loc 1 447 0
 1793 0ccc FFF7FEFF 		bl	ClearEepromBuffer
 448:.\AdvantageImpl.c ****                                 LoadEepromPage(EEPROM_DISPENSER_PUMP4_LAYOUT_PAGE);
 1794              		.loc 1 448 0
 1795 0cd0 4FF43070 		mov	r0, #704
 1796 0cd4 FFF7FEFF 		bl	LoadEepromPage
 449:.\AdvantageImpl.c ****                                 if(GetEepromBuffer()[0] == ((pjob->_ppump->_rxbuffer[0x04] & 0x0F) 
 1797              		.loc 1 449 0
 1798 0cd8 FFF7FEFF 		bl	GetEepromBuffer
 1799 0cdc 0346     		mov	r3, r0
 1800 0cde 1B78     		ldrb	r3, [r3]	@ zero_extendqisi2
 1801 0ce0 1A46     		mov	r2, r3
 1802 0ce2 7B69     		ldr	r3, [r7, #20]
 1803 0ce4 DB69     		ldr	r3, [r3, #28]
 1804 0ce6 93F8A431 		ldrb	r3, [r3, #420]	@ zero_extendqisi2
 1805 0cea 03F00F03 		and	r3, r3, #15
 1806 0cee 0133     		adds	r3, r3, #1
 1807 0cf0 9A42     		cmp	r2, r3
 1808 0cf2 40F0FF80 		bne	.L48
 450:.\AdvantageImpl.c ****                                 {
 451:.\AdvantageImpl.c ****                                     ClearEepromBuffer();
 1809              		.loc 1 451 0
 1810 0cf6 FFF7FEFF 		bl	ClearEepromBuffer
 452:.\AdvantageImpl.c ****                                     //Storing the current Date/Time for this transaction
 453:.\AdvantageImpl.c ****                                     memcpy(GetEepromBuffer(), GetRtcBuffer(), 0x07);
 1811              		.loc 1 453 0
 1812 0cfa FFF7FEFF 		bl	GetEepromBuffer
 1813 0cfe 0446     		mov	r4, r0
 1814 0d00 FFF7FEFF 		bl	GetRtcBuffer
 1815 0d04 0346     		mov	r3, r0
 1816 0d06 2046     		mov	r0, r4
 1817 0d08 1946     		mov	r1, r3
 1818 0d0a 0722     		movs	r2, #7
 1819 0d0c FFF7FEFF 		bl	memcpy
 454:.\AdvantageImpl.c ****                                     memcpy(&GetEepromBuffer()[0x07], pjob->_ppump->_rxbuffer, pjob-
 1820              		.loc 1 454 0
 1821 0d10 FFF7FEFF 		bl	GetEepromBuffer
 1822 0d14 0346     		mov	r3, r0
 1823 0d16 D91D     		adds	r1, r3, #7
 1824 0d18 7B69     		ldr	r3, [r7, #20]
 1825 0d1a DB69     		ldr	r3, [r3, #28]
 1826 0d1c 03F5D072 		add	r2, r3, #416
ARM GAS  C:\Users\RECEPC~1\AppData\Local\Temp\ccLZ8WPs.s 			page 41


 1827 0d20 7B69     		ldr	r3, [r7, #20]
 1828 0d22 DB69     		ldr	r3, [r3, #28]
 1829 0d24 B3F82033 		ldrh	r3, [r3, #800]
 1830 0d28 0846     		mov	r0, r1
 1831 0d2a 1146     		mov	r1, r2
 1832 0d2c 1A46     		mov	r2, r3
 1833 0d2e FFF7FEFF 		bl	memcpy
 455:.\AdvantageImpl.c ****                                     StoreEepromPage(EEPROM_DISPENSER_PUMP42_TRANSACTION_PAGE);
 1834              		.loc 1 455 0
 1835 0d32 4FF41460 		mov	r0, #2368
 1836 0d36 FFF7FEFF 		bl	StoreEepromPage
 1837 0d3a DBE0     		b	.L48
 1838              	.L43:
 456:.\AdvantageImpl.c ****                                 }
 457:.\AdvantageImpl.c ****                             }
 458:.\AdvantageImpl.c ****                         }
 459:.\AdvantageImpl.c ****                     }
 460:.\AdvantageImpl.c ****                 }else{//CREDIT TRANSACTION
 461:.\AdvantageImpl.c ****                     //HERE WE STORE THE LAST TRANSACTION IN EEPROM! ALWAYS THE PREVIOUS TRANSACTION
 462:.\AdvantageImpl.c ****                     //WILL BE OVERWRITTEN AND LOST.
 463:.\AdvantageImpl.c ****                     //IN CASE OF A "CREDIT SALE", THE WHOLE DATA WILL BE STORED IN A SEPARATE MEMOR
 464:.\AdvantageImpl.c ****                     //SINCE IN CASE OF A RF LINK DROP, THE STATE OF THE SALE COULD BE RECOVERED BY 
 465:.\AdvantageImpl.c ****                     LoadEepromPage(EEPROM_DISPENSER_PUMP1_LAYOUT_PAGE);
 1839              		.loc 1 465 0
 1840 0d3c 4FF40070 		mov	r0, #512
 1841 0d40 FFF7FEFF 		bl	LoadEepromPage
 466:.\AdvantageImpl.c ****                     if(GetEepromBuffer()[0] == ((pjob->_ppump->_rxbuffer[0x04] & 0x0F) + 1))
 1842              		.loc 1 466 0
 1843 0d44 FFF7FEFF 		bl	GetEepromBuffer
 1844 0d48 0346     		mov	r3, r0
 1845 0d4a 1B78     		ldrb	r3, [r3]	@ zero_extendqisi2
 1846 0d4c 1A46     		mov	r2, r3
 1847 0d4e 7B69     		ldr	r3, [r7, #20]
 1848 0d50 DB69     		ldr	r3, [r3, #28]
 1849 0d52 93F8A431 		ldrb	r3, [r3, #420]	@ zero_extendqisi2
 1850 0d56 03F00F03 		and	r3, r3, #15
 1851 0d5a 0133     		adds	r3, r3, #1
 1852 0d5c 9A42     		cmp	r2, r3
 1853 0d5e 22D1     		bne	.L49
 467:.\AdvantageImpl.c ****                     {
 468:.\AdvantageImpl.c ****                         ClearEepromBuffer();
 1854              		.loc 1 468 0
 1855 0d60 FFF7FEFF 		bl	ClearEepromBuffer
 469:.\AdvantageImpl.c ****                         //Storing the current Date/Time for this transaction
 470:.\AdvantageImpl.c ****                         memcpy(GetEepromBuffer(), GetRtcBuffer(), 0x07);
 1856              		.loc 1 470 0
 1857 0d64 FFF7FEFF 		bl	GetEepromBuffer
 1858 0d68 0446     		mov	r4, r0
 1859 0d6a FFF7FEFF 		bl	GetRtcBuffer
 1860 0d6e 0346     		mov	r3, r0
 1861 0d70 2046     		mov	r0, r4
 1862 0d72 1946     		mov	r1, r3
 1863 0d74 0722     		movs	r2, #7
 1864 0d76 FFF7FEFF 		bl	memcpy
 471:.\AdvantageImpl.c ****                         memcpy(&GetEepromBuffer()[0x07], pjob->_ppump->_rxbuffer, pjob->_ppump->_rx
 1865              		.loc 1 471 0
 1866 0d7a FFF7FEFF 		bl	GetEepromBuffer
ARM GAS  C:\Users\RECEPC~1\AppData\Local\Temp\ccLZ8WPs.s 			page 42


 1867 0d7e 0346     		mov	r3, r0
 1868 0d80 D91D     		adds	r1, r3, #7
 1869 0d82 7B69     		ldr	r3, [r7, #20]
 1870 0d84 DB69     		ldr	r3, [r3, #28]
 1871 0d86 03F5D072 		add	r2, r3, #416
 1872 0d8a 7B69     		ldr	r3, [r7, #20]
 1873 0d8c DB69     		ldr	r3, [r3, #28]
 1874 0d8e B3F82033 		ldrh	r3, [r3, #800]
 1875 0d92 0846     		mov	r0, r1
 1876 0d94 1146     		mov	r1, r2
 1877 0d96 1A46     		mov	r2, r3
 1878 0d98 FFF7FEFF 		bl	memcpy
 472:.\AdvantageImpl.c ****                         StoreEepromPage(EEPROM_DISPENSER_PUMP14_TRANSACTION_PAGE);
 1879              		.loc 1 472 0
 1880 0d9c 4FF4D860 		mov	r0, #1728
 1881 0da0 FFF7FEFF 		bl	StoreEepromPage
 1882 0da4 A6E0     		b	.L48
 1883              	.L49:
 473:.\AdvantageImpl.c ****                     }
 474:.\AdvantageImpl.c ****                     else
 475:.\AdvantageImpl.c ****                     {
 476:.\AdvantageImpl.c ****                         ClearEepromBuffer();
 1884              		.loc 1 476 0
 1885 0da6 FFF7FEFF 		bl	ClearEepromBuffer
 477:.\AdvantageImpl.c ****                         LoadEepromPage(EEPROM_DISPENSER_PUMP2_LAYOUT_PAGE);
 1886              		.loc 1 477 0
 1887 0daa 4FF41070 		mov	r0, #576
 1888 0dae FFF7FEFF 		bl	LoadEepromPage
 478:.\AdvantageImpl.c ****                         if(GetEepromBuffer()[0] == ((pjob->_ppump->_rxbuffer[0x04] & 0x0F) + 1))
 1889              		.loc 1 478 0
 1890 0db2 FFF7FEFF 		bl	GetEepromBuffer
 1891 0db6 0346     		mov	r3, r0
 1892 0db8 1B78     		ldrb	r3, [r3]	@ zero_extendqisi2
 1893 0dba 1A46     		mov	r2, r3
 1894 0dbc 7B69     		ldr	r3, [r7, #20]
 1895 0dbe DB69     		ldr	r3, [r3, #28]
 1896 0dc0 93F8A431 		ldrb	r3, [r3, #420]	@ zero_extendqisi2
 1897 0dc4 03F00F03 		and	r3, r3, #15
 1898 0dc8 0133     		adds	r3, r3, #1
 1899 0dca 9A42     		cmp	r2, r3
 1900 0dcc 22D1     		bne	.L50
 479:.\AdvantageImpl.c ****                         {
 480:.\AdvantageImpl.c ****                             ClearEepromBuffer();
 1901              		.loc 1 480 0
 1902 0dce FFF7FEFF 		bl	ClearEepromBuffer
 481:.\AdvantageImpl.c ****                             //Storing the current Date/Time for this transaction
 482:.\AdvantageImpl.c ****                             memcpy(GetEepromBuffer(), GetRtcBuffer(), 0x07);
 1903              		.loc 1 482 0
 1904 0dd2 FFF7FEFF 		bl	GetEepromBuffer
 1905 0dd6 0446     		mov	r4, r0
 1906 0dd8 FFF7FEFF 		bl	GetRtcBuffer
 1907 0ddc 0346     		mov	r3, r0
 1908 0dde 2046     		mov	r0, r4
 1909 0de0 1946     		mov	r1, r3
 1910 0de2 0722     		movs	r2, #7
 1911 0de4 FFF7FEFF 		bl	memcpy
 483:.\AdvantageImpl.c ****                             memcpy(&GetEepromBuffer()[0x07], pjob->_ppump->_rxbuffer, pjob->_ppump-
ARM GAS  C:\Users\RECEPC~1\AppData\Local\Temp\ccLZ8WPs.s 			page 43


 1912              		.loc 1 483 0
 1913 0de8 FFF7FEFF 		bl	GetEepromBuffer
 1914 0dec 0346     		mov	r3, r0
 1915 0dee D91D     		adds	r1, r3, #7
 1916 0df0 7B69     		ldr	r3, [r7, #20]
 1917 0df2 DB69     		ldr	r3, [r3, #28]
 1918 0df4 03F5D072 		add	r2, r3, #416
 1919 0df8 7B69     		ldr	r3, [r7, #20]
 1920 0dfa DB69     		ldr	r3, [r3, #28]
 1921 0dfc B3F82033 		ldrh	r3, [r3, #800]
 1922 0e00 0846     		mov	r0, r1
 1923 0e02 1146     		mov	r1, r2
 1924 0e04 1A46     		mov	r2, r3
 1925 0e06 FFF7FEFF 		bl	memcpy
 484:.\AdvantageImpl.c ****                             StoreEepromPage(EEPROM_DISPENSER_PUMP24_TRANSACTION_PAGE);
 1926              		.loc 1 484 0
 1927 0e0a 4FF4F860 		mov	r0, #1984
 1928 0e0e FFF7FEFF 		bl	StoreEepromPage
 1929 0e12 6FE0     		b	.L48
 1930              	.L50:
 485:.\AdvantageImpl.c ****                         }
 486:.\AdvantageImpl.c ****                         else
 487:.\AdvantageImpl.c ****                         {
 488:.\AdvantageImpl.c ****                             ClearEepromBuffer();
 1931              		.loc 1 488 0
 1932 0e14 FFF7FEFF 		bl	ClearEepromBuffer
 489:.\AdvantageImpl.c ****                             LoadEepromPage(EEPROM_DISPENSER_PUMP3_LAYOUT_PAGE);
 1933              		.loc 1 489 0
 1934 0e18 4FF42070 		mov	r0, #640
 1935 0e1c FFF7FEFF 		bl	LoadEepromPage
 490:.\AdvantageImpl.c ****                             if(GetEepromBuffer()[0] == ((pjob->_ppump->_rxbuffer[0x04] & 0x0F) + 1)
 1936              		.loc 1 490 0
 1937 0e20 FFF7FEFF 		bl	GetEepromBuffer
 1938 0e24 0346     		mov	r3, r0
 1939 0e26 1B78     		ldrb	r3, [r3]	@ zero_extendqisi2
 1940 0e28 1A46     		mov	r2, r3
 1941 0e2a 7B69     		ldr	r3, [r7, #20]
 1942 0e2c DB69     		ldr	r3, [r3, #28]
 1943 0e2e 93F8A431 		ldrb	r3, [r3, #420]	@ zero_extendqisi2
 1944 0e32 03F00F03 		and	r3, r3, #15
 1945 0e36 0133     		adds	r3, r3, #1
 1946 0e38 9A42     		cmp	r2, r3
 1947 0e3a 25D1     		bne	.L51
 491:.\AdvantageImpl.c ****                             {
 492:.\AdvantageImpl.c ****                                 ClearEepromBuffer();
 1948              		.loc 1 492 0
 1949 0e3c FFF7FEFF 		bl	ClearEepromBuffer
 493:.\AdvantageImpl.c ****                                 //Storing the current Date/Time for this transaction
 494:.\AdvantageImpl.c ****                                 memcpy(GetEepromBuffer(), GetRtcBuffer(), 0x07);
 1950              		.loc 1 494 0
 1951 0e40 FFF7FEFF 		bl	GetEepromBuffer
 1952 0e44 0446     		mov	r4, r0
 1953 0e46 FFF7FEFF 		bl	GetRtcBuffer
 1954 0e4a 0346     		mov	r3, r0
 1955 0e4c 2046     		mov	r0, r4
 1956 0e4e 1946     		mov	r1, r3
 1957 0e50 0722     		movs	r2, #7
ARM GAS  C:\Users\RECEPC~1\AppData\Local\Temp\ccLZ8WPs.s 			page 44


 1958 0e52 FFF7FEFF 		bl	memcpy
 495:.\AdvantageImpl.c ****                                 memcpy(&GetEepromBuffer()[0x07], pjob->_ppump->_rxbuffer, pjob->_pp
 1959              		.loc 1 495 0
 1960 0e56 FFF7FEFF 		bl	GetEepromBuffer
 1961 0e5a 0346     		mov	r3, r0
 1962 0e5c D91D     		adds	r1, r3, #7
 1963 0e5e 7B69     		ldr	r3, [r7, #20]
 1964 0e60 DB69     		ldr	r3, [r3, #28]
 1965 0e62 03F5D072 		add	r2, r3, #416
 1966 0e66 7B69     		ldr	r3, [r7, #20]
 1967 0e68 DB69     		ldr	r3, [r3, #28]
 1968 0e6a B3F82033 		ldrh	r3, [r3, #800]
 1969 0e6e 0846     		mov	r0, r1
 1970 0e70 1146     		mov	r1, r2
 1971 0e72 1A46     		mov	r2, r3
 1972 0e74 FFF7FEFF 		bl	memcpy
 496:.\AdvantageImpl.c ****                                 StoreEepromPage(EEPROM_DISPENSER_PUMP34_TRANSACTION_PAGE);
 1973              		.loc 1 496 0
 1974 0e78 4FF40C60 		mov	r0, #2240
 1975 0e7c FFF7FEFF 		bl	StoreEepromPage
 1976 0e80 38E0     		b	.L48
 1977              	.L55:
 1978 0e82 00BF     		.align	2
 1979              	.L54:
 1980 0e84 CDCCCCCC 		.word	-858993459
 1981              	.L51:
 497:.\AdvantageImpl.c ****                             }
 498:.\AdvantageImpl.c ****                             else
 499:.\AdvantageImpl.c ****                             {
 500:.\AdvantageImpl.c ****                                 ClearEepromBuffer();
 1982              		.loc 1 500 0
 1983 0e88 FFF7FEFF 		bl	ClearEepromBuffer
 501:.\AdvantageImpl.c ****                                 LoadEepromPage(EEPROM_DISPENSER_PUMP4_LAYOUT_PAGE);
 1984              		.loc 1 501 0
 1985 0e8c 4FF43070 		mov	r0, #704
 1986 0e90 FFF7FEFF 		bl	LoadEepromPage
 502:.\AdvantageImpl.c ****                                 if(GetEepromBuffer()[0] == ((pjob->_ppump->_rxbuffer[0x04] & 0x0F) 
 1987              		.loc 1 502 0
 1988 0e94 FFF7FEFF 		bl	GetEepromBuffer
 1989 0e98 0346     		mov	r3, r0
 1990 0e9a 1B78     		ldrb	r3, [r3]	@ zero_extendqisi2
 1991 0e9c 1A46     		mov	r2, r3
 1992 0e9e 7B69     		ldr	r3, [r7, #20]
 1993 0ea0 DB69     		ldr	r3, [r3, #28]
 1994 0ea2 93F8A431 		ldrb	r3, [r3, #420]	@ zero_extendqisi2
 1995 0ea6 03F00F03 		and	r3, r3, #15
 1996 0eaa 0133     		adds	r3, r3, #1
 1997 0eac 9A42     		cmp	r2, r3
 1998 0eae 21D1     		bne	.L48
 503:.\AdvantageImpl.c ****                                 {
 504:.\AdvantageImpl.c ****                                     ClearEepromBuffer();
 1999              		.loc 1 504 0
 2000 0eb0 FFF7FEFF 		bl	ClearEepromBuffer
 505:.\AdvantageImpl.c ****                                     //Storing the current Date/Time for this transaction
 506:.\AdvantageImpl.c ****                                     memcpy(GetEepromBuffer(), GetRtcBuffer(), 0x07);
 2001              		.loc 1 506 0
 2002 0eb4 FFF7FEFF 		bl	GetEepromBuffer
ARM GAS  C:\Users\RECEPC~1\AppData\Local\Temp\ccLZ8WPs.s 			page 45


 2003 0eb8 0446     		mov	r4, r0
 2004 0eba FFF7FEFF 		bl	GetRtcBuffer
 2005 0ebe 0346     		mov	r3, r0
 2006 0ec0 2046     		mov	r0, r4
 2007 0ec2 1946     		mov	r1, r3
 2008 0ec4 0722     		movs	r2, #7
 2009 0ec6 FFF7FEFF 		bl	memcpy
 507:.\AdvantageImpl.c ****                                     memcpy(&GetEepromBuffer()[0x07], pjob->_ppump->_rxbuffer, pjob-
 2010              		.loc 1 507 0
 2011 0eca FFF7FEFF 		bl	GetEepromBuffer
 2012 0ece 0346     		mov	r3, r0
 2013 0ed0 D91D     		adds	r1, r3, #7
 2014 0ed2 7B69     		ldr	r3, [r7, #20]
 2015 0ed4 DB69     		ldr	r3, [r3, #28]
 2016 0ed6 03F5D072 		add	r2, r3, #416
 2017 0eda 7B69     		ldr	r3, [r7, #20]
 2018 0edc DB69     		ldr	r3, [r3, #28]
 2019 0ede B3F82033 		ldrh	r3, [r3, #800]
 2020 0ee2 0846     		mov	r0, r1
 2021 0ee4 1146     		mov	r1, r2
 2022 0ee6 1A46     		mov	r2, r3
 2023 0ee8 FFF7FEFF 		bl	memcpy
 508:.\AdvantageImpl.c ****                                     StoreEepromPage(EEPROM_DISPENSER_PUMP44_TRANSACTION_PAGE);
 2024              		.loc 1 508 0
 2025 0eec 4FF41C60 		mov	r0, #2496
 2026 0ef0 FFF7FEFF 		bl	StoreEepromPage
 2027              	.L48:
 509:.\AdvantageImpl.c ****                                 }
 510:.\AdvantageImpl.c ****                             }
 511:.\AdvantageImpl.c ****                         }
 512:.\AdvantageImpl.c ****                     }
 513:.\AdvantageImpl.c ****                 }
 514:.\AdvantageImpl.c ****                 I2CBusUnlock();
 2028              		.loc 1 514 0
 2029 0ef4 FFF7FEFF 		bl	I2CBusUnlock
 2030              	.L34:
 515:.\AdvantageImpl.c ****             }
 516:.\AdvantageImpl.c ****                 
 517:.\AdvantageImpl.c ****             //HERE WE ATTEMPT TO PUSH THE TRANSACTION INTO THE PUMP'S TRANSACTIONAL QUEUE.
 518:.\AdvantageImpl.c ****             //THIS IS DONE ONLY IF THERE IS ROOM IN THE QUEUE, OTHERWISE THIS STATE WON'T
 519:.\AdvantageImpl.c ****             //BE REPORTED TO THE REMOTE PEER.
 520:.\AdvantageImpl.c ****             pjob->_ppump->PumpTransQueueLock(pjob->_ppump);
 2031              		.loc 1 520 0
 2032 0ef8 7B69     		ldr	r3, [r7, #20]
 2033 0efa DB69     		ldr	r3, [r3, #28]
 2034 0efc D3F8443B 		ldr	r3, [r3, #2884]
 2035 0f00 7A69     		ldr	r2, [r7, #20]
 2036 0f02 D269     		ldr	r2, [r2, #28]
 2037 0f04 1046     		mov	r0, r2
 2038 0f06 9847     		blx	r3
 521:.\AdvantageImpl.c ****             PNEAR_PUMPTRANSACTIONALSTATEPTR pts = pjob->_ppump->PumpTransQueueAllocate(pjob->_ppump
 2039              		.loc 1 521 0
 2040 0f08 7B69     		ldr	r3, [r7, #20]
 2041 0f0a DB69     		ldr	r3, [r3, #28]
 2042 0f0c D3F8583B 		ldr	r3, [r3, #2904]
 2043 0f10 7A69     		ldr	r2, [r7, #20]
 2044 0f12 D269     		ldr	r2, [r2, #28]
ARM GAS  C:\Users\RECEPC~1\AppData\Local\Temp\ccLZ8WPs.s 			page 46


 2045 0f14 1046     		mov	r0, r2
 2046 0f16 9847     		blx	r3
 2047 0f18 B860     		str	r0, [r7, #8]
 522:.\AdvantageImpl.c ****             pjob->_ppump->PumpTransQueueUnlock(pjob->_ppump);
 2048              		.loc 1 522 0
 2049 0f1a 7B69     		ldr	r3, [r7, #20]
 2050 0f1c DB69     		ldr	r3, [r3, #28]
 2051 0f1e D3F8483B 		ldr	r3, [r3, #2888]
 2052 0f22 7A69     		ldr	r2, [r7, #20]
 2053 0f24 D269     		ldr	r2, [r2, #28]
 2054 0f26 1046     		mov	r0, r2
 2055 0f28 9847     		blx	r3
 523:.\AdvantageImpl.c ****             if(pts)
 2056              		.loc 1 523 0
 2057 0f2a BB68     		ldr	r3, [r7, #8]
 2058 0f2c 002B     		cmp	r3, #0
 2059 0f2e 31D0     		beq	.L13
 524:.\AdvantageImpl.c ****             {
 525:.\AdvantageImpl.c ****                 pts->_transtate = RF_MUX_CASH_SALE_END_REPORT_RESPONSE;
 2060              		.loc 1 525 0
 2061 0f30 BB68     		ldr	r3, [r7, #8]
 2062 0f32 A422     		movs	r2, #164
 2063 0f34 5A70     		strb	r2, [r3, #1]
 526:.\AdvantageImpl.c ****                 memcpy(pts->_buffer, pjob->_ppump->_rxbuffer, pjob->_ppump->_rxbuffersize);
 2064              		.loc 1 526 0
 2065 0f36 BB68     		ldr	r3, [r7, #8]
 2066 0f38 991C     		adds	r1, r3, #2
 2067 0f3a 7B69     		ldr	r3, [r7, #20]
 2068 0f3c DB69     		ldr	r3, [r3, #28]
 2069 0f3e 03F5D072 		add	r2, r3, #416
 2070 0f42 7B69     		ldr	r3, [r7, #20]
 2071 0f44 DB69     		ldr	r3, [r3, #28]
 2072 0f46 B3F82033 		ldrh	r3, [r3, #800]
 2073 0f4a 0846     		mov	r0, r1
 2074 0f4c 1146     		mov	r1, r2
 2075 0f4e 1A46     		mov	r2, r3
 2076 0f50 FFF7FEFF 		bl	memcpy
 527:.\AdvantageImpl.c ****                 pts->_buffersize = pjob->_ppump->_rxbuffersize;
 2077              		.loc 1 527 0
 2078 0f54 7B69     		ldr	r3, [r7, #20]
 2079 0f56 DB69     		ldr	r3, [r3, #28]
 2080 0f58 B3F82023 		ldrh	r2, [r3, #800]
 2081 0f5c BB68     		ldr	r3, [r7, #8]
 2082 0f5e A3F80221 		strh	r2, [r3, #258]	@ movhi
 528:.\AdvantageImpl.c ****                 
 529:.\AdvantageImpl.c ****                 pjob->_ppump->PumpTransQueueLock(pjob->_ppump);
 2083              		.loc 1 529 0
 2084 0f62 7B69     		ldr	r3, [r7, #20]
 2085 0f64 DB69     		ldr	r3, [r3, #28]
 2086 0f66 D3F8443B 		ldr	r3, [r3, #2884]
 2087 0f6a 7A69     		ldr	r2, [r7, #20]
 2088 0f6c D269     		ldr	r2, [r2, #28]
 2089 0f6e 1046     		mov	r0, r2
 2090 0f70 9847     		blx	r3
 530:.\AdvantageImpl.c ****                 pjob->_ppump->PumpTransQueueEnqueue(pjob->_ppump, pts);
 2091              		.loc 1 530 0
 2092 0f72 7B69     		ldr	r3, [r7, #20]
ARM GAS  C:\Users\RECEPC~1\AppData\Local\Temp\ccLZ8WPs.s 			page 47


 2093 0f74 DB69     		ldr	r3, [r3, #28]
 2094 0f76 D3F8503B 		ldr	r3, [r3, #2896]
 2095 0f7a 7A69     		ldr	r2, [r7, #20]
 2096 0f7c D269     		ldr	r2, [r2, #28]
 2097 0f7e 1046     		mov	r0, r2
 2098 0f80 B968     		ldr	r1, [r7, #8]
 2099 0f82 9847     		blx	r3
 531:.\AdvantageImpl.c ****                 pjob->_ppump->PumpTransQueueUnlock(pjob->_ppump);
 2100              		.loc 1 531 0
 2101 0f84 7B69     		ldr	r3, [r7, #20]
 2102 0f86 DB69     		ldr	r3, [r3, #28]
 2103 0f88 D3F8483B 		ldr	r3, [r3, #2888]
 2104 0f8c 7A69     		ldr	r2, [r7, #20]
 2105 0f8e D269     		ldr	r2, [r2, #28]
 2106 0f90 1046     		mov	r0, r2
 2107 0f92 9847     		blx	r3
 2108              	.L13:
 2109              	.LBE3:
 532:.\AdvantageImpl.c ****             }
 533:.\AdvantageImpl.c ****             
 534:.\AdvantageImpl.c ****         }  
 535:.\AdvantageImpl.c ****     }
 536:.\AdvantageImpl.c **** }
 2110              		.loc 1 536 0
 2111 0f94 1837     		adds	r7, r7, #24
 2112              		.cfi_def_cfa_offset 16
 2113 0f96 BD46     		mov	sp, r7
 2114              		.cfi_def_cfa_register 13
 2115              		@ sp needed
 2116 0f98 B0BD     		pop	{r4, r5, r7, pc}
 2117              		.cfi_endproc
 2118              	.LFE66:
 2119              		.size	ProcessPumpTransactionData, .-ProcessPumpTransactionData
 2120 0f9a 00BF     		.section	.text.ProcessPumpTotalsDataReport,"ax",%progbits
 2121              		.align	2
 2122              		.global	ProcessPumpTotalsDataReport
 2123              		.thumb
 2124              		.thumb_func
 2125              		.type	ProcessPumpTotalsDataReport, %function
 2126              	ProcessPumpTotalsDataReport:
 2127              	.LFB67:
 537:.\AdvantageImpl.c **** 
 538:.\AdvantageImpl.c **** //@Created By: HIJH
 539:.\AdvantageImpl.c **** //@Septembre de 2016
 540:.\AdvantageImpl.c **** void ProcessPumpTotalsDataReport(void *pparam)
 541:.\AdvantageImpl.c **** {
 2128              		.loc 1 541 0
 2129              		.cfi_startproc
 2130              		@ args = 0, pretend = 0, frame = 24
 2131              		@ frame_needed = 1, uses_anonymous_args = 0
 2132 0000 80B5     		push	{r7, lr}
 2133              		.cfi_def_cfa_offset 8
 2134              		.cfi_offset 7, -8
 2135              		.cfi_offset 14, -4
 2136 0002 86B0     		sub	sp, sp, #24
 2137              		.cfi_def_cfa_offset 32
 2138 0004 00AF     		add	r7, sp, #0
ARM GAS  C:\Users\RECEPC~1\AppData\Local\Temp\ccLZ8WPs.s 			page 48


 2139              		.cfi_def_cfa_register 7
 2140 0006 7860     		str	r0, [r7, #4]
 542:.\AdvantageImpl.c ****     PPUMPTRANSACTIONJOBCONTEXTPTR pjob = (PPUMPTRANSACTIONJOBCONTEXTPTR)pparam;
 2141              		.loc 1 542 0
 2142 0008 7B68     		ldr	r3, [r7, #4]
 2143 000a 7B61     		str	r3, [r7, #20]
 543:.\AdvantageImpl.c ****     if(pjob)
 2144              		.loc 1 543 0
 2145 000c 7B69     		ldr	r3, [r7, #20]
 2146 000e 002B     		cmp	r3, #0
 2147 0010 00F0C180 		beq	.L56
 2148              	.LBB6:
 544:.\AdvantageImpl.c ****     {
 545:.\AdvantageImpl.c ****         bool dataok = true;
 2149              		.loc 1 545 0
 2150 0014 0123     		movs	r3, #1
 2151 0016 FB74     		strb	r3, [r7, #19]
 546:.\AdvantageImpl.c ****         uint8 numhoses = 0x00;
 2152              		.loc 1 546 0
 2153 0018 0023     		movs	r3, #0
 2154 001a BB74     		strb	r3, [r7, #18]
 547:.\AdvantageImpl.c ****         switch(pjob->_ppump->_pumpindex)
 2155              		.loc 1 547 0
 2156 001c 7B69     		ldr	r3, [r7, #20]
 2157 001e DB69     		ldr	r3, [r3, #28]
 2158 0020 5B78     		ldrb	r3, [r3, #1]	@ zero_extendqisi2
 2159 0022 002B     		cmp	r3, #0
 2160 0024 02D0     		beq	.L59
 2161 0026 012B     		cmp	r3, #1
 2162 0028 04D0     		beq	.L60
 2163 002a 07E0     		b	.L58
 2164              	.L59:
 548:.\AdvantageImpl.c ****         {
 549:.\AdvantageImpl.c ****             case 0x00:
 550:.\AdvantageImpl.c ****             {
 551:.\AdvantageImpl.c ****                 numhoses = _g_dispenserlayoutinfo._hosesposition1;
 2165              		.loc 1 551 0
 2166 002c 5B4B     		ldr	r3, .L64
 2167 002e DB78     		ldrb	r3, [r3, #3]
 2168 0030 BB74     		strb	r3, [r7, #18]
 552:.\AdvantageImpl.c ****                 break;
 2169              		.loc 1 552 0
 2170 0032 03E0     		b	.L58
 2171              	.L60:
 553:.\AdvantageImpl.c ****             }
 554:.\AdvantageImpl.c ****             case 0x01:
 555:.\AdvantageImpl.c ****             {
 556:.\AdvantageImpl.c ****                 numhoses = _g_dispenserlayoutinfo._hosesposition2;
 2172              		.loc 1 556 0
 2173 0034 594B     		ldr	r3, .L64
 2174 0036 1B79     		ldrb	r3, [r3, #4]
 2175 0038 BB74     		strb	r3, [r7, #18]
 557:.\AdvantageImpl.c ****                 break;
 2176              		.loc 1 557 0
 2177 003a 00BF     		nop
 2178              	.L58:
 558:.\AdvantageImpl.c ****             }
ARM GAS  C:\Users\RECEPC~1\AppData\Local\Temp\ccLZ8WPs.s 			page 49


 559:.\AdvantageImpl.c ****         }
 560:.\AdvantageImpl.c ****         
 561:.\AdvantageImpl.c ****         pjob->_reenqueue = false;
 2179              		.loc 1 561 0
 2180 003c 7B69     		ldr	r3, [r7, #20]
 2181 003e 0022     		movs	r2, #0
 2182 0040 1A70     		strb	r2, [r3]
 562:.\AdvantageImpl.c ****         
 563:.\AdvantageImpl.c ****         pjob->_ppump->PumpTransQueueLock(pjob->_ppump);
 2183              		.loc 1 563 0
 2184 0042 7B69     		ldr	r3, [r7, #20]
 2185 0044 DB69     		ldr	r3, [r3, #28]
 2186 0046 D3F8443B 		ldr	r3, [r3, #2884]
 2187 004a 7A69     		ldr	r2, [r7, #20]
 2188 004c D269     		ldr	r2, [r2, #28]
 2189 004e 1046     		mov	r0, r2
 2190 0050 9847     		blx	r3
 564:.\AdvantageImpl.c ****         bool transtatefound = pjob->_ppump->PumpTransQueueFind(pjob->_ppump, RF_MUX_TOTALS_REPORT_R
 2191              		.loc 1 564 0
 2192 0052 7B69     		ldr	r3, [r7, #20]
 2193 0054 DB69     		ldr	r3, [r3, #28]
 2194 0056 D3F84C3B 		ldr	r3, [r3, #2892]
 2195 005a 7A69     		ldr	r2, [r7, #20]
 2196 005c D269     		ldr	r2, [r2, #28]
 2197 005e 1046     		mov	r0, r2
 2198 0060 E821     		movs	r1, #232
 2199 0062 9847     		blx	r3
 2200 0064 0346     		mov	r3, r0
 2201 0066 7B74     		strb	r3, [r7, #17]
 565:.\AdvantageImpl.c ****         PNEAR_PUMPTRANSACTIONALSTATEPTR pts = pjob->_ppump->PumpTransQueueAllocate(pjob->_ppump);
 2202              		.loc 1 565 0
 2203 0068 7B69     		ldr	r3, [r7, #20]
 2204 006a DB69     		ldr	r3, [r3, #28]
 2205 006c D3F8583B 		ldr	r3, [r3, #2904]
 2206 0070 7A69     		ldr	r2, [r7, #20]
 2207 0072 D269     		ldr	r2, [r2, #28]
 2208 0074 1046     		mov	r0, r2
 2209 0076 9847     		blx	r3
 2210 0078 F860     		str	r0, [r7, #12]
 566:.\AdvantageImpl.c ****         PNEAR_PUMPTRANSACTIONALSTATEPTR ptstemp = pjob->_ppump->PumpTransQueueAllocate(pjob->_ppump
 2211              		.loc 1 566 0
 2212 007a 7B69     		ldr	r3, [r7, #20]
 2213 007c DB69     		ldr	r3, [r3, #28]
 2214 007e D3F8583B 		ldr	r3, [r3, #2904]
 2215 0082 7A69     		ldr	r2, [r7, #20]
 2216 0084 D269     		ldr	r2, [r2, #28]
 2217 0086 1046     		mov	r0, r2
 2218 0088 9847     		blx	r3
 2219 008a B860     		str	r0, [r7, #8]
 567:.\AdvantageImpl.c ****         
 568:.\AdvantageImpl.c ****         pjob->_ppump->PumpTransQueueUnlock(pjob->_ppump);
 2220              		.loc 1 568 0
 2221 008c 7B69     		ldr	r3, [r7, #20]
 2222 008e DB69     		ldr	r3, [r3, #28]
 2223 0090 D3F8483B 		ldr	r3, [r3, #2888]
 2224 0094 7A69     		ldr	r2, [r7, #20]
 2225 0096 D269     		ldr	r2, [r2, #28]
ARM GAS  C:\Users\RECEPC~1\AppData\Local\Temp\ccLZ8WPs.s 			page 50


 2226 0098 1046     		mov	r0, r2
 2227 009a 9847     		blx	r3
 569:.\AdvantageImpl.c ****         if(ptstemp)
 2228              		.loc 1 569 0
 2229 009c BB68     		ldr	r3, [r7, #8]
 2230 009e 002B     		cmp	r3, #0
 2231 00a0 68D0     		beq	.L61
 570:.\AdvantageImpl.c ****         {
 571:.\AdvantageImpl.c ****             if(pts && !transtatefound)
 2232              		.loc 1 571 0
 2233 00a2 FB68     		ldr	r3, [r7, #12]
 2234 00a4 002B     		cmp	r3, #0
 2235 00a6 41D0     		beq	.L62
 2236              		.loc 1 571 0 is_stmt 0 discriminator 1
 2237 00a8 7B7C     		ldrb	r3, [r7, #17]
 2238 00aa 83F00103 		eor	r3, r3, #1
 2239 00ae DBB2     		uxtb	r3, r3
 2240 00b0 002B     		cmp	r3, #0
 2241 00b2 3BD0     		beq	.L62
 572:.\AdvantageImpl.c ****             {
 573:.\AdvantageImpl.c ****                 pts->_transtate = RF_MUX_TOTALS_REPORT_RESPONSE;
 2242              		.loc 1 573 0 is_stmt 1
 2243 00b4 FB68     		ldr	r3, [r7, #12]
 2244 00b6 E822     		movs	r2, #232
 2245 00b8 5A70     		strb	r2, [r3, #1]
 574:.\AdvantageImpl.c ****                 
 575:.\AdvantageImpl.c ****                 memcpy(pts->_buffer, pjob->_ppump->_rxbuffer, pjob->_ppump->_rxbuffersize);
 2246              		.loc 1 575 0
 2247 00ba FB68     		ldr	r3, [r7, #12]
 2248 00bc 991C     		adds	r1, r3, #2
 2249 00be 7B69     		ldr	r3, [r7, #20]
 2250 00c0 DB69     		ldr	r3, [r3, #28]
 2251 00c2 03F5D072 		add	r2, r3, #416
 2252 00c6 7B69     		ldr	r3, [r7, #20]
 2253 00c8 DB69     		ldr	r3, [r3, #28]
 2254 00ca B3F82033 		ldrh	r3, [r3, #800]
 2255 00ce 0846     		mov	r0, r1
 2256 00d0 1146     		mov	r1, r2
 2257 00d2 1A46     		mov	r2, r3
 2258 00d4 FFF7FEFF 		bl	memcpy
 576:.\AdvantageImpl.c ****                 pts->_buffersize = pjob->_ppump->_rxbuffersize;
 2259              		.loc 1 576 0
 2260 00d8 7B69     		ldr	r3, [r7, #20]
 2261 00da DB69     		ldr	r3, [r3, #28]
 2262 00dc B3F82023 		ldrh	r2, [r3, #800]
 2263 00e0 FB68     		ldr	r3, [r7, #12]
 2264 00e2 A3F80221 		strh	r2, [r3, #258]	@ movhi
 577:.\AdvantageImpl.c ****                 
 578:.\AdvantageImpl.c ****                 pjob->_ppump->PumpTransQueueDeallocate(pjob->_ppump,ptstemp);
 2265              		.loc 1 578 0
 2266 00e6 7B69     		ldr	r3, [r7, #20]
 2267 00e8 DB69     		ldr	r3, [r3, #28]
 2268 00ea D3F8543B 		ldr	r3, [r3, #2900]
 2269 00ee 7A69     		ldr	r2, [r7, #20]
 2270 00f0 D269     		ldr	r2, [r2, #28]
 2271 00f2 1046     		mov	r0, r2
 2272 00f4 B968     		ldr	r1, [r7, #8]
ARM GAS  C:\Users\RECEPC~1\AppData\Local\Temp\ccLZ8WPs.s 			page 51


 2273 00f6 9847     		blx	r3
 579:.\AdvantageImpl.c ****                 pjob->_ppump->PumpTransQueueLock(pjob->_ppump);
 2274              		.loc 1 579 0
 2275 00f8 7B69     		ldr	r3, [r7, #20]
 2276 00fa DB69     		ldr	r3, [r3, #28]
 2277 00fc D3F8443B 		ldr	r3, [r3, #2884]
 2278 0100 7A69     		ldr	r2, [r7, #20]
 2279 0102 D269     		ldr	r2, [r2, #28]
 2280 0104 1046     		mov	r0, r2
 2281 0106 9847     		blx	r3
 580:.\AdvantageImpl.c ****                 pjob->_ppump->PumpTransQueueEnqueue(pjob->_ppump, pts);
 2282              		.loc 1 580 0
 2283 0108 7B69     		ldr	r3, [r7, #20]
 2284 010a DB69     		ldr	r3, [r3, #28]
 2285 010c D3F8503B 		ldr	r3, [r3, #2896]
 2286 0110 7A69     		ldr	r2, [r7, #20]
 2287 0112 D269     		ldr	r2, [r2, #28]
 2288 0114 1046     		mov	r0, r2
 2289 0116 F968     		ldr	r1, [r7, #12]
 2290 0118 9847     		blx	r3
 581:.\AdvantageImpl.c ****                 pjob->_ppump->PumpTransQueueUnlock(pjob->_ppump);
 2291              		.loc 1 581 0
 2292 011a 7B69     		ldr	r3, [r7, #20]
 2293 011c DB69     		ldr	r3, [r3, #28]
 2294 011e D3F8483B 		ldr	r3, [r3, #2888]
 2295 0122 7A69     		ldr	r2, [r7, #20]
 2296 0124 D269     		ldr	r2, [r2, #28]
 2297 0126 1046     		mov	r0, r2
 2298 0128 9847     		blx	r3
 2299 012a 18E0     		b	.L63
 2300              	.L62:
 582:.\AdvantageImpl.c ****             }
 583:.\AdvantageImpl.c ****             else
 584:.\AdvantageImpl.c ****             {
 585:.\AdvantageImpl.c ****                 pjob->_ppump->PumpTransQueueLock(pjob->_ppump);
 2301              		.loc 1 585 0
 2302 012c 7B69     		ldr	r3, [r7, #20]
 2303 012e DB69     		ldr	r3, [r3, #28]
 2304 0130 D3F8443B 		ldr	r3, [r3, #2884]
 2305 0134 7A69     		ldr	r2, [r7, #20]
 2306 0136 D269     		ldr	r2, [r2, #28]
 2307 0138 1046     		mov	r0, r2
 2308 013a 9847     		blx	r3
 586:.\AdvantageImpl.c ****                 pjob->_ppump->PumpTransQueueDeallocate(pjob->_ppump, pts);
 2309              		.loc 1 586 0
 2310 013c 7B69     		ldr	r3, [r7, #20]
 2311 013e DB69     		ldr	r3, [r3, #28]
 2312 0140 D3F8543B 		ldr	r3, [r3, #2900]
 2313 0144 7A69     		ldr	r2, [r7, #20]
 2314 0146 D269     		ldr	r2, [r2, #28]
 2315 0148 1046     		mov	r0, r2
 2316 014a F968     		ldr	r1, [r7, #12]
 2317 014c 9847     		blx	r3
 587:.\AdvantageImpl.c ****                 pjob->_ppump->PumpTransQueueUnlock(pjob->_ppump);
 2318              		.loc 1 587 0
 2319 014e 7B69     		ldr	r3, [r7, #20]
 2320 0150 DB69     		ldr	r3, [r3, #28]
ARM GAS  C:\Users\RECEPC~1\AppData\Local\Temp\ccLZ8WPs.s 			page 52


 2321 0152 D3F8483B 		ldr	r3, [r3, #2888]
 2322 0156 7A69     		ldr	r2, [r7, #20]
 2323 0158 D269     		ldr	r2, [r2, #28]
 2324 015a 1046     		mov	r0, r2
 2325 015c 9847     		blx	r3
 2326              	.L63:
 588:.\AdvantageImpl.c ****             }
 589:.\AdvantageImpl.c ****             memset(pjob->_ppump->_rxbuffer, 0x00, _PUMP_RX_BUFFER_SIZE_);
 2327              		.loc 1 589 0
 2328 015e 7B69     		ldr	r3, [r7, #20]
 2329 0160 DB69     		ldr	r3, [r3, #28]
 2330 0162 03F5D073 		add	r3, r3, #416
 2331 0166 1846     		mov	r0, r3
 2332 0168 0021     		movs	r1, #0
 2333 016a 4FF4C072 		mov	r2, #384
 2334 016e FFF7FEFF 		bl	memset
 2335 0172 10E0     		b	.L56
 2336              	.L61:
 590:.\AdvantageImpl.c ****         }else{
 591:.\AdvantageImpl.c ****             pjob->_ppump->PumpTransQueueDeallocate(pjob->_ppump, pts);
 2337              		.loc 1 591 0
 2338 0174 7B69     		ldr	r3, [r7, #20]
 2339 0176 DB69     		ldr	r3, [r3, #28]
 2340 0178 D3F8543B 		ldr	r3, [r3, #2900]
 2341 017c 7A69     		ldr	r2, [r7, #20]
 2342 017e D269     		ldr	r2, [r2, #28]
 2343 0180 1046     		mov	r0, r2
 2344 0182 F968     		ldr	r1, [r7, #12]
 2345 0184 9847     		blx	r3
 592:.\AdvantageImpl.c ****             pjob->_ppump->PumpTransQueueUnlock(pjob->_ppump);
 2346              		.loc 1 592 0
 2347 0186 7B69     		ldr	r3, [r7, #20]
 2348 0188 DB69     		ldr	r3, [r3, #28]
 2349 018a D3F8483B 		ldr	r3, [r3, #2888]
 2350 018e 7A69     		ldr	r2, [r7, #20]
 2351 0190 D269     		ldr	r2, [r2, #28]
 2352 0192 1046     		mov	r0, r2
 2353 0194 9847     		blx	r3
 2354              	.L56:
 2355              	.LBE6:
 593:.\AdvantageImpl.c ****         }
 594:.\AdvantageImpl.c ****     }
 595:.\AdvantageImpl.c **** }
 2356              		.loc 1 595 0
 2357 0196 1837     		adds	r7, r7, #24
 2358              		.cfi_def_cfa_offset 8
 2359 0198 BD46     		mov	sp, r7
 2360              		.cfi_def_cfa_register 13
 2361              		@ sp needed
 2362 019a 80BD     		pop	{r7, pc}
 2363              	.L65:
 2364              		.align	2
 2365              	.L64:
 2366 019c 00000000 		.word	_g_dispenserlayoutinfo
 2367              		.cfi_endproc
 2368              	.LFE67:
 2369              		.size	ProcessPumpTotalsDataReport, .-ProcessPumpTotalsDataReport
ARM GAS  C:\Users\RECEPC~1\AppData\Local\Temp\ccLZ8WPs.s 			page 53


 2370              		.section	.text.ProcessPumpTotalsDataPpuCheck,"ax",%progbits
 2371              		.align	2
 2372              		.global	ProcessPumpTotalsDataPpuCheck
 2373              		.thumb
 2374              		.thumb_func
 2375              		.type	ProcessPumpTotalsDataPpuCheck, %function
 2376              	ProcessPumpTotalsDataPpuCheck:
 2377              	.LFB68:
 596:.\AdvantageImpl.c **** 
 597:.\AdvantageImpl.c **** //@Created By: HIJH
 598:.\AdvantageImpl.c **** //@Septembre de 2016
 599:.\AdvantageImpl.c **** void ProcessPumpTotalsDataPpuCheck(void *pparam)
 600:.\AdvantageImpl.c **** {
 2378              		.loc 1 600 0
 2379              		.cfi_startproc
 2380              		@ args = 0, pretend = 0, frame = 16
 2381              		@ frame_needed = 1, uses_anonymous_args = 0
 2382 0000 80B5     		push	{r7, lr}
 2383              		.cfi_def_cfa_offset 8
 2384              		.cfi_offset 7, -8
 2385              		.cfi_offset 14, -4
 2386 0002 84B0     		sub	sp, sp, #16
 2387              		.cfi_def_cfa_offset 24
 2388 0004 00AF     		add	r7, sp, #0
 2389              		.cfi_def_cfa_register 7
 2390 0006 7860     		str	r0, [r7, #4]
 601:.\AdvantageImpl.c ****     PPUMPTRANSACTIONJOBCONTEXTPTR pjob = (PPUMPTRANSACTIONJOBCONTEXTPTR)pparam;
 2391              		.loc 1 601 0
 2392 0008 7B68     		ldr	r3, [r7, #4]
 2393 000a FB60     		str	r3, [r7, #12]
 602:.\AdvantageImpl.c ****     if(pjob)
 2394              		.loc 1 602 0
 2395 000c FB68     		ldr	r3, [r7, #12]
 2396 000e 002B     		cmp	r3, #0
 2397 0010 09D0     		beq	.L66
 603:.\AdvantageImpl.c ****     {
 604:.\AdvantageImpl.c **** /*        
 605:.\AdvantageImpl.c ****         
 606:.\AdvantageImpl.c ****         PNEAR_PUMPTRANSACTIONALSTATEPTR pts = pjob->_ppump->PumpTransQueueAllocate(pjob->_ppump);
 607:.\AdvantageImpl.c ****         if(pts)
 608:.\AdvantageImpl.c ****         {
 609:.\AdvantageImpl.c ****             pts->_transtate = _PUMP_POSITION_TRANSREPORT_;
 610:.\AdvantageImpl.c ****             memcpy(pts->_buffer, pjob->_ppump->_rxbuffer, pjob->_ppump->_rxbuffersize);
 611:.\AdvantageImpl.c ****             pts->_buffersize = pjob->_ppump->_rxbuffersize;
 612:.\AdvantageImpl.c ****         }
 613:.\AdvantageImpl.c ****         
 614:.\AdvantageImpl.c ****         
 615:.\AdvantageImpl.c ****         uint8 var = 0;//THIS IS A DUMMY VAR TO DROP THE WARNING IF THERE IS NO ASSIGNMENT!!
 616:.\AdvantageImpl.c ****         uint8 index = 0;
 617:.\AdvantageImpl.c ****         //All indexes were taken according to the documentation
 618:.\AdvantageImpl.c ****         var = (pjob->_ppump->_rxbuffer[0x02 + _PUMP_TOTALS_BUFFER_SHIFT_*index] & 0x0F);//Hose id
 619:.\AdvantageImpl.c **** 
 620:.\AdvantageImpl.c ****         //Bytes from index 0x04 + _PUMP_TOTALS_BUFFER_SHIFT_*index to 0x0F + _PUMP_TOTALS_BUFFER_SH
 621:.\AdvantageImpl.c ****         //are the digits for the total fuel volume delivered until now on this pump
 622:.\AdvantageImpl.c ****         //Digits are in BCD format
 623:.\AdvantageImpl.c ****         var = (pjob->_ppump->_rxbuffer[0x04 + _PUMP_TOTALS_BUFFER_SHIFT_*index] & 0x0F);
 624:.\AdvantageImpl.c ****         var = (pjob->_ppump->_rxbuffer[0x05 + _PUMP_TOTALS_BUFFER_SHIFT_*index] & 0x0F);
ARM GAS  C:\Users\RECEPC~1\AppData\Local\Temp\ccLZ8WPs.s 			page 54


 625:.\AdvantageImpl.c ****         var = (pjob->_ppump->_rxbuffer[0x06 + _PUMP_TOTALS_BUFFER_SHIFT_*index] & 0x0F);
 626:.\AdvantageImpl.c ****         var = (pjob->_ppump->_rxbuffer[0x07 + _PUMP_TOTALS_BUFFER_SHIFT_*index] & 0x0F);
 627:.\AdvantageImpl.c ****         var = (pjob->_ppump->_rxbuffer[0x08 + _PUMP_TOTALS_BUFFER_SHIFT_*index] & 0x0F);
 628:.\AdvantageImpl.c ****         var = (pjob->_ppump->_rxbuffer[0x09 + _PUMP_TOTALS_BUFFER_SHIFT_*index] & 0x0F);
 629:.\AdvantageImpl.c ****         var = (pjob->_ppump->_rxbuffer[0x0A + _PUMP_TOTALS_BUFFER_SHIFT_*index] & 0x0F);
 630:.\AdvantageImpl.c ****         var = (pjob->_ppump->_rxbuffer[0x0B + _PUMP_TOTALS_BUFFER_SHIFT_*index] & 0x0F);
 631:.\AdvantageImpl.c ****         var = (pjob->_ppump->_rxbuffer[0x0C + _PUMP_TOTALS_BUFFER_SHIFT_*index] & 0x0F);
 632:.\AdvantageImpl.c ****         var = (pjob->_ppump->_rxbuffer[0x0D + _PUMP_TOTALS_BUFFER_SHIFT_*index] & 0x0F);
 633:.\AdvantageImpl.c ****         var = (pjob->_ppump->_rxbuffer[0x0E + _PUMP_TOTALS_BUFFER_SHIFT_*index] & 0x0F);
 634:.\AdvantageImpl.c ****         var = (pjob->_ppump->_rxbuffer[0x0F + _PUMP_TOTALS_BUFFER_SHIFT_*index] & 0x0F);
 635:.\AdvantageImpl.c **** 
 636:.\AdvantageImpl.c ****         //Bytes from index 0x11 + _PUMP_TOTALS_BUFFER_SHIFT_*index to 0x1C + _PUMP_TOTALS_BUFFER_SH
 637:.\AdvantageImpl.c ****         //are the digits for the total money charged until now on this pump
 638:.\AdvantageImpl.c ****         //Digits are in BCD format
 639:.\AdvantageImpl.c ****         var = (pjob->_ppump->_rxbuffer[0x11 + _PUMP_TOTALS_BUFFER_SHIFT_*index] & 0x0F);
 640:.\AdvantageImpl.c ****         var = (pjob->_ppump->_rxbuffer[0x12 + _PUMP_TOTALS_BUFFER_SHIFT_*index] & 0x0F);
 641:.\AdvantageImpl.c ****         var = (pjob->_ppump->_rxbuffer[0x13 + _PUMP_TOTALS_BUFFER_SHIFT_*index] & 0x0F);
 642:.\AdvantageImpl.c ****         var = (pjob->_ppump->_rxbuffer[0x14 + _PUMP_TOTALS_BUFFER_SHIFT_*index] & 0x0F);
 643:.\AdvantageImpl.c ****         var = (pjob->_ppump->_rxbuffer[0x15 + _PUMP_TOTALS_BUFFER_SHIFT_*index] & 0x0F);
 644:.\AdvantageImpl.c ****         var = (pjob->_ppump->_rxbuffer[0x16 + _PUMP_TOTALS_BUFFER_SHIFT_*index] & 0x0F);
 645:.\AdvantageImpl.c ****         var = (pjob->_ppump->_rxbuffer[0x17 + _PUMP_TOTALS_BUFFER_SHIFT_*index] & 0x0F);
 646:.\AdvantageImpl.c ****         var = (pjob->_ppump->_rxbuffer[0x18 + _PUMP_TOTALS_BUFFER_SHIFT_*index] & 0x0F);
 647:.\AdvantageImpl.c ****         var = (pjob->_ppump->_rxbuffer[0x19 + _PUMP_TOTALS_BUFFER_SHIFT_*index] & 0x0F);
 648:.\AdvantageImpl.c ****         var = (pjob->_ppump->_rxbuffer[0x1A + _PUMP_TOTALS_BUFFER_SHIFT_*index] & 0x0F);
 649:.\AdvantageImpl.c ****         var = (pjob->_ppump->_rxbuffer[0x1B + _PUMP_TOTALS_BUFFER_SHIFT_*index] & 0x0F);
 650:.\AdvantageImpl.c ****         var = (pjob->_ppump->_rxbuffer[0x1C + _PUMP_TOTALS_BUFFER_SHIFT_*index] & 0x0F);
 651:.\AdvantageImpl.c ****         
 652:.\AdvantageImpl.c ****         //Bytes from index 0x1E + _PUMP_TOTALS_BUFFER_SHIFT_*index to 0x23 + _PUMP_TOTALS_BUFFER_SH
 653:.\AdvantageImpl.c ****         //are the digits for the reference PPU used on this pump/hose
 654:.\AdvantageImpl.c ****         //Digits are in BCD format
 655:.\AdvantageImpl.c ****         var = (pjob->_ppump->_rxbuffer[0x1E + _PUMP_TOTALS_BUFFER_SHIFT_*index] & 0x0F);
 656:.\AdvantageImpl.c ****         var = (pjob->_ppump->_rxbuffer[0x1F + _PUMP_TOTALS_BUFFER_SHIFT_*index] & 0x0F);
 657:.\AdvantageImpl.c ****         var = (pjob->_ppump->_rxbuffer[0x20 + _PUMP_TOTALS_BUFFER_SHIFT_*index] & 0x0F);
 658:.\AdvantageImpl.c ****         var = (pjob->_ppump->_rxbuffer[0x21 + _PUMP_TOTALS_BUFFER_SHIFT_*index] & 0x0F);
 659:.\AdvantageImpl.c ****         var = (pjob->_ppump->_rxbuffer[0x22 + _PUMP_TOTALS_BUFFER_SHIFT_*index] & 0x0F);
 660:.\AdvantageImpl.c ****         var = (pjob->_ppump->_rxbuffer[0x23 + _PUMP_TOTALS_BUFFER_SHIFT_*index] & 0x0F);
 661:.\AdvantageImpl.c **** */        
 662:.\AdvantageImpl.c ****         memset(pjob->_ppump->_rxbuffer, 0x00, _PUMP_RX_BUFFER_SIZE_);
 2398              		.loc 1 662 0
 2399 0012 FB68     		ldr	r3, [r7, #12]
 2400 0014 DB69     		ldr	r3, [r3, #28]
 2401 0016 03F5D073 		add	r3, r3, #416
 2402 001a 1846     		mov	r0, r3
 2403 001c 0021     		movs	r1, #0
 2404 001e 4FF4C072 		mov	r2, #384
 2405 0022 FFF7FEFF 		bl	memset
 2406              	.L66:
 663:.\AdvantageImpl.c ****     }
 664:.\AdvantageImpl.c **** }
 2407              		.loc 1 664 0
 2408 0026 1037     		adds	r7, r7, #16
 2409              		.cfi_def_cfa_offset 8
 2410 0028 BD46     		mov	sp, r7
 2411              		.cfi_def_cfa_register 13
 2412              		@ sp needed
 2413 002a 80BD     		pop	{r7, pc}
 2414              		.cfi_endproc
ARM GAS  C:\Users\RECEPC~1\AppData\Local\Temp\ccLZ8WPs.s 			page 55


 2415              	.LFE68:
 2416              		.size	ProcessPumpTotalsDataPpuCheck, .-ProcessPumpTotalsDataPpuCheck
 2417              		.section	.text.PumpJobTimeout,"ax",%progbits
 2418              		.align	2
 2419              		.global	PumpJobTimeout
 2420              		.thumb
 2421              		.thumb_func
 2422              		.type	PumpJobTimeout, %function
 2423              	PumpJobTimeout:
 2424              	.LFB69:
 665:.\AdvantageImpl.c **** 
 666:.\AdvantageImpl.c **** //@Created By: HIJH
 667:.\AdvantageImpl.c **** //@Date: Septembre de 2016
 668:.\AdvantageImpl.c **** //This must be used to notify the log registry about the timeout issue
 669:.\AdvantageImpl.c **** void PumpJobTimeout(void *pparam)
 670:.\AdvantageImpl.c **** {
 2425              		.loc 1 670 0
 2426              		.cfi_startproc
 2427              		@ args = 0, pretend = 0, frame = 16
 2428              		@ frame_needed = 1, uses_anonymous_args = 0
 2429              		@ link register save eliminated.
 2430 0000 80B4     		push	{r7}
 2431              		.cfi_def_cfa_offset 4
 2432              		.cfi_offset 7, -4
 2433 0002 85B0     		sub	sp, sp, #20
 2434              		.cfi_def_cfa_offset 24
 2435 0004 00AF     		add	r7, sp, #0
 2436              		.cfi_def_cfa_register 7
 2437 0006 7860     		str	r0, [r7, #4]
 671:.\AdvantageImpl.c ****     PPUMPTRANSACTIONJOBCONTEXTPTR pjob = (PPUMPTRANSACTIONJOBCONTEXTPTR)pparam;
 2438              		.loc 1 671 0
 2439 0008 7B68     		ldr	r3, [r7, #4]
 2440 000a FB60     		str	r3, [r7, #12]
 672:.\AdvantageImpl.c ****     if(pjob)
 2441              		.loc 1 672 0
 2442 000c FB68     		ldr	r3, [r7, #12]
 2443 000e 002B     		cmp	r3, #0
 2444 0010 0CD0     		beq	.L68
 673:.\AdvantageImpl.c ****     {
 674:.\AdvantageImpl.c ****         //Release the Current Loop and log if possible
 675:.\AdvantageImpl.c ****         if(pjob->_retriescounter >= _MAX_RETRIES_)
 2445              		.loc 1 675 0
 2446 0012 FB68     		ldr	r3, [r7, #12]
 2447 0014 DB89     		ldrh	r3, [r3, #14]	@ movhi
 2448 0016 9BB2     		uxth	r3, r3
 2449 0018 132B     		cmp	r3, #19
 2450 001a 07D9     		bls	.L68
 676:.\AdvantageImpl.c ****         {
 677:.\AdvantageImpl.c ****             pjob->_ppump->_pumpstate = PUMP_UNKNOWN;
 2451              		.loc 1 677 0
 2452 001c FB68     		ldr	r3, [r7, #12]
 2453 001e DB69     		ldr	r3, [r3, #28]
 2454 0020 FF22     		movs	r2, #255
 2455 0022 9A70     		strb	r2, [r3, #2]
 678:.\AdvantageImpl.c ****             pjob->_ppump->_transhealth = _PUMP_FAIL_;
 2456              		.loc 1 678 0
 2457 0024 FB68     		ldr	r3, [r7, #12]
ARM GAS  C:\Users\RECEPC~1\AppData\Local\Temp\ccLZ8WPs.s 			page 56


 2458 0026 DB69     		ldr	r3, [r3, #28]
 2459 0028 0222     		movs	r2, #2
 2460 002a 1A76     		strb	r2, [r3, #24]
 2461              	.L68:
 679:.\AdvantageImpl.c ****         }
 680:.\AdvantageImpl.c ****     }
 681:.\AdvantageImpl.c **** }
 2462              		.loc 1 681 0
 2463 002c 1437     		adds	r7, r7, #20
 2464              		.cfi_def_cfa_offset 4
 2465 002e BD46     		mov	sp, r7
 2466              		.cfi_def_cfa_register 13
 2467              		@ sp needed
 2468 0030 5DF8047B 		ldr	r7, [sp], #4
 2469              		.cfi_restore 7
 2470              		.cfi_def_cfa_offset 0
 2471 0034 7047     		bx	lr
 2472              		.cfi_endproc
 2473              	.LFE69:
 2474              		.size	PumpJobTimeout, .-PumpJobTimeout
 2475 0036 00BF     		.section	.text.PumpStateJobTimeout,"ax",%progbits
 2476              		.align	2
 2477              		.global	PumpStateJobTimeout
 2478              		.thumb
 2479              		.thumb_func
 2480              		.type	PumpStateJobTimeout, %function
 2481              	PumpStateJobTimeout:
 2482              	.LFB70:
 682:.\AdvantageImpl.c **** 
 683:.\AdvantageImpl.c **** //@Created By: HIJH
 684:.\AdvantageImpl.c **** //@Date: Septembre de 2016
 685:.\AdvantageImpl.c **** //This must be used to notify the log registry about the timeout issue
 686:.\AdvantageImpl.c **** void PumpStateJobTimeout(void *pparam)
 687:.\AdvantageImpl.c **** {
 2483              		.loc 1 687 0
 2484              		.cfi_startproc
 2485              		@ args = 0, pretend = 0, frame = 16
 2486              		@ frame_needed = 1, uses_anonymous_args = 0
 2487              		@ link register save eliminated.
 2488 0000 80B4     		push	{r7}
 2489              		.cfi_def_cfa_offset 4
 2490              		.cfi_offset 7, -4
 2491 0002 85B0     		sub	sp, sp, #20
 2492              		.cfi_def_cfa_offset 24
 2493 0004 00AF     		add	r7, sp, #0
 2494              		.cfi_def_cfa_register 7
 2495 0006 7860     		str	r0, [r7, #4]
 688:.\AdvantageImpl.c ****     PPUMPTRANSACTIONJOBCONTEXTPTR pjob = (PPUMPTRANSACTIONJOBCONTEXTPTR)pparam;
 2496              		.loc 1 688 0
 2497 0008 7B68     		ldr	r3, [r7, #4]
 2498 000a FB60     		str	r3, [r7, #12]
 689:.\AdvantageImpl.c ****     if(pjob)
 2499              		.loc 1 689 0
 2500 000c FB68     		ldr	r3, [r7, #12]
 2501 000e 002B     		cmp	r3, #0
 2502 0010 0CD0     		beq	.L70
 690:.\AdvantageImpl.c ****     {
ARM GAS  C:\Users\RECEPC~1\AppData\Local\Temp\ccLZ8WPs.s 			page 57


 691:.\AdvantageImpl.c ****         //Release the Current Loop and log if possible
 692:.\AdvantageImpl.c ****         if(pjob->_retriescounter >= _MAX_RETRIES_)
 2503              		.loc 1 692 0
 2504 0012 FB68     		ldr	r3, [r7, #12]
 2505 0014 DB89     		ldrh	r3, [r3, #14]	@ movhi
 2506 0016 9BB2     		uxth	r3, r3
 2507 0018 132B     		cmp	r3, #19
 2508 001a 07D9     		bls	.L70
 693:.\AdvantageImpl.c ****         {
 694:.\AdvantageImpl.c ****             pjob->_ppump->_pumpstate = PUMP_UNKNOWN;
 2509              		.loc 1 694 0
 2510 001c FB68     		ldr	r3, [r7, #12]
 2511 001e DB69     		ldr	r3, [r3, #28]
 2512 0020 FF22     		movs	r2, #255
 2513 0022 9A70     		strb	r2, [r3, #2]
 695:.\AdvantageImpl.c ****             pjob->_ppump->_transhealth = _PUMP_FAIL_;
 2514              		.loc 1 695 0
 2515 0024 FB68     		ldr	r3, [r7, #12]
 2516 0026 DB69     		ldr	r3, [r3, #28]
 2517 0028 0222     		movs	r2, #2
 2518 002a 1A76     		strb	r2, [r3, #24]
 2519              	.L70:
 696:.\AdvantageImpl.c ****         }
 697:.\AdvantageImpl.c ****     }
 698:.\AdvantageImpl.c **** }
 2520              		.loc 1 698 0
 2521 002c 1437     		adds	r7, r7, #20
 2522              		.cfi_def_cfa_offset 4
 2523 002e BD46     		mov	sp, r7
 2524              		.cfi_def_cfa_register 13
 2525              		@ sp needed
 2526 0030 5DF8047B 		ldr	r7, [sp], #4
 2527              		.cfi_restore 7
 2528              		.cfi_def_cfa_offset 0
 2529 0034 7047     		bx	lr
 2530              		.cfi_endproc
 2531              	.LFE70:
 2532              		.size	PumpStateJobTimeout, .-PumpStateJobTimeout
 2533 0036 00BF     		.section	.text.PumpAuthorization,"ax",%progbits
 2534              		.align	2
 2535              		.global	PumpAuthorization
 2536              		.thumb
 2537              		.thumb_func
 2538              		.type	PumpAuthorization, %function
 2539              	PumpAuthorization:
 2540              	.LFB71:
 699:.\AdvantageImpl.c **** 
 700:.\AdvantageImpl.c **** ///////////////////////////////////////////////////////////////////////////////////////////////////
 701:.\AdvantageImpl.c **** //////////////////////                 BLOCK OF AVAILABLE REQUEST HANDLERS
 702:.\AdvantageImpl.c **** ///////////////////////////////////////////////////////////////////////////////////////////////////
 703:.\AdvantageImpl.c **** 
 704:.\AdvantageImpl.c **** //@Created By: HIJH
 705:.\AdvantageImpl.c **** //@Date: Septembre de 2016
 706:.\AdvantageImpl.c **** //Sends the authorization request to the pump. This is a single byte command with no response
 707:.\AdvantageImpl.c **** void PumpAuthorization(void *pparam)
 708:.\AdvantageImpl.c **** {
 2541              		.loc 1 708 0
ARM GAS  C:\Users\RECEPC~1\AppData\Local\Temp\ccLZ8WPs.s 			page 58


 2542              		.cfi_startproc
 2543              		@ args = 0, pretend = 0, frame = 24
 2544              		@ frame_needed = 1, uses_anonymous_args = 0
 2545 0000 80B5     		push	{r7, lr}
 2546              		.cfi_def_cfa_offset 8
 2547              		.cfi_offset 7, -8
 2548              		.cfi_offset 14, -4
 2549 0002 86B0     		sub	sp, sp, #24
 2550              		.cfi_def_cfa_offset 32
 2551 0004 00AF     		add	r7, sp, #0
 2552              		.cfi_def_cfa_register 7
 2553 0006 7860     		str	r0, [r7, #4]
 709:.\AdvantageImpl.c ****     PNEAR_PUMPPTR ppump = (PNEAR_PUMPPTR)pparam;
 2554              		.loc 1 709 0
 2555 0008 7B68     		ldr	r3, [r7, #4]
 2556 000a 7B61     		str	r3, [r7, #20]
 710:.\AdvantageImpl.c ****     if(ppump)
 2557              		.loc 1 710 0
 2558 000c 7B69     		ldr	r3, [r7, #20]
 2559 000e 002B     		cmp	r3, #0
 2560 0010 34D0     		beq	.L72
 2561              	.LBB7:
 711:.\AdvantageImpl.c ****     {
 712:.\AdvantageImpl.c **** 
 713:.\AdvantageImpl.c ****         if(!ppump->_presetdone)
 2562              		.loc 1 713 0
 2563 0012 7B69     		ldr	r3, [r7, #20]
 2564 0014 1B7A     		ldrb	r3, [r3, #8]
 2565 0016 DBB2     		uxtb	r3, r3
 2566 0018 83F00103 		eor	r3, r3, #1
 2567 001c DBB2     		uxtb	r3, r3
 2568 001e 002B     		cmp	r3, #0
 2569 0020 00D0     		beq	.L74
 714:.\AdvantageImpl.c ****             return;
 2570              		.loc 1 714 0
 2571 0022 2BE0     		b	.L72
 2572              	.L74:
 715:.\AdvantageImpl.c **** 
 716:.\AdvantageImpl.c ****         uint8_t index = 0;
 2573              		.loc 1 716 0
 2574 0024 0023     		movs	r3, #0
 2575 0026 FB74     		strb	r3, [r7, #19]
 717:.\AdvantageImpl.c ****         memset(ppump->_rxbuffer, 0x00, _PUMP_RX_BUFFER_SIZE_);
 2576              		.loc 1 717 0
 2577 0028 7B69     		ldr	r3, [r7, #20]
 2578 002a 03F5D073 		add	r3, r3, #416
 2579 002e 1846     		mov	r0, r3
 2580 0030 0021     		movs	r1, #0
 2581 0032 4FF4C072 		mov	r2, #384
 2582 0036 FFF7FEFF 		bl	memset
 718:.\AdvantageImpl.c ****         PUARTMESSAGEPTR puartdisp = GetUARTMessageSlot(UART_DISPENSER);
 2583              		.loc 1 718 0
 2584 003a A220     		movs	r0, #162
 2585 003c FFF7FEFF 		bl	GetUARTMessageSlot
 2586 0040 F860     		str	r0, [r7, #12]
 719:.\AdvantageImpl.c ****         if(puartdisp)
 2587              		.loc 1 719 0
ARM GAS  C:\Users\RECEPC~1\AppData\Local\Temp\ccLZ8WPs.s 			page 59


 2588 0042 FB68     		ldr	r3, [r7, #12]
 2589 0044 002B     		cmp	r3, #0
 2590 0046 19D0     		beq	.L72
 720:.\AdvantageImpl.c ****         {
 721:.\AdvantageImpl.c ****             //Just one byte for the response
 722:.\AdvantageImpl.c ****             puartdisp->_messagetx[index++] = PUMP_COMMAND(PUMP_AUTHORIZATION, ppump->_pumpid);
 2591              		.loc 1 722 0
 2592 0048 FB7C     		ldrb	r3, [r7, #19]	@ zero_extendqisi2
 2593 004a 5A1C     		adds	r2, r3, #1
 2594 004c FA74     		strb	r2, [r7, #19]
 2595 004e 1946     		mov	r1, r3
 2596 0050 7B69     		ldr	r3, [r7, #20]
 2597 0052 1B78     		ldrb	r3, [r3]	@ zero_extendqisi2
 2598 0054 DBB2     		uxtb	r3, r3
 2599 0056 03F00F03 		and	r3, r3, #15
 2600 005a DBB2     		uxtb	r3, r3
 2601 005c 43F01003 		orr	r3, r3, #16
 2602 0060 DBB2     		uxtb	r3, r3
 2603 0062 DAB2     		uxtb	r2, r3
 2604 0064 FB68     		ldr	r3, [r7, #12]
 2605 0066 0B44     		add	r3, r3, r1
 2606 0068 1A71     		strb	r2, [r3, #4]
 723:.\AdvantageImpl.c ****             puartdisp->_messagelength = 1;//One byte
 2607              		.loc 1 723 0
 2608 006a FB68     		ldr	r3, [r7, #12]
 2609 006c 0122     		movs	r2, #1
 2610 006e 5A80     		strh	r2, [r3, #2]	@ movhi
 724:.\AdvantageImpl.c ****             puartdisp->_messagestate = PENDING;
 2611              		.loc 1 724 0
 2612 0070 FB68     		ldr	r3, [r7, #12]
 2613 0072 C222     		movs	r2, #194
 2614 0074 1A70     		strb	r2, [r3]
 725:.\AdvantageImpl.c ****          
 726:.\AdvantageImpl.c ****             ppump->_authorized = true;
 2615              		.loc 1 726 0
 2616 0076 7B69     		ldr	r3, [r7, #20]
 2617 0078 0122     		movs	r2, #1
 2618 007a 9A71     		strb	r2, [r3, #6]
 2619              	.L72:
 2620              	.LBE7:
 727:.\AdvantageImpl.c ****         }        
 728:.\AdvantageImpl.c ****     }
 729:.\AdvantageImpl.c **** }
 2621              		.loc 1 729 0
 2622 007c 1837     		adds	r7, r7, #24
 2623              		.cfi_def_cfa_offset 8
 2624 007e BD46     		mov	sp, r7
 2625              		.cfi_def_cfa_register 13
 2626              		@ sp needed
 2627 0080 80BD     		pop	{r7, pc}
 2628              		.cfi_endproc
 2629              	.LFE71:
 2630              		.size	PumpAuthorization, .-PumpAuthorization
 2631 0082 00BF     		.section	.text.PumpStartupAuthorization,"ax",%progbits
 2632              		.align	2
 2633              		.global	PumpStartupAuthorization
 2634              		.thumb
ARM GAS  C:\Users\RECEPC~1\AppData\Local\Temp\ccLZ8WPs.s 			page 60


 2635              		.thumb_func
 2636              		.type	PumpStartupAuthorization, %function
 2637              	PumpStartupAuthorization:
 2638              	.LFB72:
 730:.\AdvantageImpl.c **** 
 731:.\AdvantageImpl.c **** //@Created By: HIJH
 732:.\AdvantageImpl.c **** //@Date: Septembre de 2016
 733:.\AdvantageImpl.c **** //Sends the authorization request to the pump. This is a single byte command with no response
 734:.\AdvantageImpl.c **** void PumpStartupAuthorization(void *pparam)
 735:.\AdvantageImpl.c **** {
 2639              		.loc 1 735 0
 2640              		.cfi_startproc
 2641              		@ args = 0, pretend = 0, frame = 24
 2642              		@ frame_needed = 1, uses_anonymous_args = 0
 2643 0000 80B5     		push	{r7, lr}
 2644              		.cfi_def_cfa_offset 8
 2645              		.cfi_offset 7, -8
 2646              		.cfi_offset 14, -4
 2647 0002 86B0     		sub	sp, sp, #24
 2648              		.cfi_def_cfa_offset 32
 2649 0004 00AF     		add	r7, sp, #0
 2650              		.cfi_def_cfa_register 7
 2651 0006 7860     		str	r0, [r7, #4]
 736:.\AdvantageImpl.c ****     PNEAR_PUMPPTR ppump = (PNEAR_PUMPPTR)pparam;
 2652              		.loc 1 736 0
 2653 0008 7B68     		ldr	r3, [r7, #4]
 2654 000a 7B61     		str	r3, [r7, #20]
 737:.\AdvantageImpl.c ****     if(ppump)
 2655              		.loc 1 737 0
 2656 000c 7B69     		ldr	r3, [r7, #20]
 2657 000e 002B     		cmp	r3, #0
 2658 0010 2BD0     		beq	.L75
 2659              	.LBB8:
 738:.\AdvantageImpl.c ****     {                
 739:.\AdvantageImpl.c ****         uint8_t index = 0;
 2660              		.loc 1 739 0
 2661 0012 0023     		movs	r3, #0
 2662 0014 FB74     		strb	r3, [r7, #19]
 740:.\AdvantageImpl.c ****         memset(ppump->_rxbuffer, 0x00, _PUMP_RX_BUFFER_SIZE_);
 2663              		.loc 1 740 0
 2664 0016 7B69     		ldr	r3, [r7, #20]
 2665 0018 03F5D073 		add	r3, r3, #416
 2666 001c 1846     		mov	r0, r3
 2667 001e 0021     		movs	r1, #0
 2668 0020 4FF4C072 		mov	r2, #384
 2669 0024 FFF7FEFF 		bl	memset
 741:.\AdvantageImpl.c ****         PUARTMESSAGEPTR puartdisp = GetUARTMessageSlot(UART_DISPENSER);
 2670              		.loc 1 741 0
 2671 0028 A220     		movs	r0, #162
 2672 002a FFF7FEFF 		bl	GetUARTMessageSlot
 2673 002e F860     		str	r0, [r7, #12]
 742:.\AdvantageImpl.c ****         if(puartdisp)
 2674              		.loc 1 742 0
 2675 0030 FB68     		ldr	r3, [r7, #12]
 2676 0032 002B     		cmp	r3, #0
 2677 0034 16D0     		beq	.L77
 743:.\AdvantageImpl.c ****         {
ARM GAS  C:\Users\RECEPC~1\AppData\Local\Temp\ccLZ8WPs.s 			page 61


 744:.\AdvantageImpl.c ****             //Just one byte for the response
 745:.\AdvantageImpl.c ****             puartdisp->_messagetx[index++] = PUMP_COMMAND(PUMP_AUTHORIZATION, ppump->_pumpid);
 2678              		.loc 1 745 0
 2679 0036 FB7C     		ldrb	r3, [r7, #19]	@ zero_extendqisi2
 2680 0038 5A1C     		adds	r2, r3, #1
 2681 003a FA74     		strb	r2, [r7, #19]
 2682 003c 1946     		mov	r1, r3
 2683 003e 7B69     		ldr	r3, [r7, #20]
 2684 0040 1B78     		ldrb	r3, [r3]	@ zero_extendqisi2
 2685 0042 DBB2     		uxtb	r3, r3
 2686 0044 03F00F03 		and	r3, r3, #15
 2687 0048 DBB2     		uxtb	r3, r3
 2688 004a 43F01003 		orr	r3, r3, #16
 2689 004e DBB2     		uxtb	r3, r3
 2690 0050 DAB2     		uxtb	r2, r3
 2691 0052 FB68     		ldr	r3, [r7, #12]
 2692 0054 0B44     		add	r3, r3, r1
 2693 0056 1A71     		strb	r2, [r3, #4]
 746:.\AdvantageImpl.c ****             puartdisp->_messagelength = 1;//One byte
 2694              		.loc 1 746 0
 2695 0058 FB68     		ldr	r3, [r7, #12]
 2696 005a 0122     		movs	r2, #1
 2697 005c 5A80     		strh	r2, [r3, #2]	@ movhi
 747:.\AdvantageImpl.c ****             puartdisp->_messagestate = PENDING;
 2698              		.loc 1 747 0
 2699 005e FB68     		ldr	r3, [r7, #12]
 2700 0060 C222     		movs	r2, #194
 2701 0062 1A70     		strb	r2, [r3]
 2702              	.L77:
 748:.\AdvantageImpl.c ****             
 749:.\AdvantageImpl.c ****         }
 750:.\AdvantageImpl.c ****         CyDelay(100);
 2703              		.loc 1 750 0
 2704 0064 6420     		movs	r0, #100
 2705 0066 FFF7FEFF 		bl	CyDelay
 2706              	.L75:
 2707              	.LBE8:
 751:.\AdvantageImpl.c ****     }
 752:.\AdvantageImpl.c **** }
 2708              		.loc 1 752 0
 2709 006a 1837     		adds	r7, r7, #24
 2710              		.cfi_def_cfa_offset 8
 2711 006c BD46     		mov	sp, r7
 2712              		.cfi_def_cfa_register 13
 2713              		@ sp needed
 2714 006e 80BD     		pop	{r7, pc}
 2715              		.cfi_endproc
 2716              	.LFE72:
 2717              		.size	PumpStartupAuthorization, .-PumpStartupAuthorization
 2718              		.section	.text.PumpStateRequest,"ax",%progbits
 2719              		.align	2
 2720              		.global	PumpStateRequest
 2721              		.thumb
 2722              		.thumb_func
 2723              		.type	PumpStateRequest, %function
 2724              	PumpStateRequest:
 2725              	.LFB73:
ARM GAS  C:\Users\RECEPC~1\AppData\Local\Temp\ccLZ8WPs.s 			page 62


 753:.\AdvantageImpl.c **** 
 754:.\AdvantageImpl.c **** //@Created By: HIJH
 755:.\AdvantageImpl.c **** //@Date: Septembre de 2016
 756:.\AdvantageImpl.c **** //Sends the state request to the pump. This is a single byte command with one byte of response
 757:.\AdvantageImpl.c **** void PumpStateRequest(void *pparam)
 758:.\AdvantageImpl.c **** {
 2726              		.loc 1 758 0
 2727              		.cfi_startproc
 2728              		@ args = 0, pretend = 0, frame = 24
 2729              		@ frame_needed = 1, uses_anonymous_args = 0
 2730 0000 80B5     		push	{r7, lr}
 2731              		.cfi_def_cfa_offset 8
 2732              		.cfi_offset 7, -8
 2733              		.cfi_offset 14, -4
 2734 0002 86B0     		sub	sp, sp, #24
 2735              		.cfi_def_cfa_offset 32
 2736 0004 00AF     		add	r7, sp, #0
 2737              		.cfi_def_cfa_register 7
 2738 0006 7860     		str	r0, [r7, #4]
 759:.\AdvantageImpl.c ****     PNEAR_PUMPPTR ppump = (PNEAR_PUMPPTR)pparam;
 2739              		.loc 1 759 0
 2740 0008 7B68     		ldr	r3, [r7, #4]
 2741 000a 7B61     		str	r3, [r7, #20]
 760:.\AdvantageImpl.c ****     if(ppump)
 2742              		.loc 1 760 0
 2743 000c 7B69     		ldr	r3, [r7, #20]
 2744 000e 002B     		cmp	r3, #0
 2745 0010 23D0     		beq	.L78
 2746              	.LBB9:
 761:.\AdvantageImpl.c ****     {
 762:.\AdvantageImpl.c ****         uint8_t index = 0;
 2747              		.loc 1 762 0
 2748 0012 0023     		movs	r3, #0
 2749 0014 FB74     		strb	r3, [r7, #19]
 763:.\AdvantageImpl.c ****         memset(ppump->_rxbuffer, 0x00, _PUMP_RX_BUFFER_SIZE_);
 2750              		.loc 1 763 0
 2751 0016 7B69     		ldr	r3, [r7, #20]
 2752 0018 03F5D073 		add	r3, r3, #416
 2753 001c 1846     		mov	r0, r3
 2754 001e 0021     		movs	r1, #0
 2755 0020 4FF4C072 		mov	r2, #384
 2756 0024 FFF7FEFF 		bl	memset
 764:.\AdvantageImpl.c ****         PUARTMESSAGEPTR puartdisp = GetUARTMessageSlot(UART_DISPENSER);
 2757              		.loc 1 764 0
 2758 0028 A220     		movs	r0, #162
 2759 002a FFF7FEFF 		bl	GetUARTMessageSlot
 2760 002e F860     		str	r0, [r7, #12]
 765:.\AdvantageImpl.c ****         if(puartdisp)
 2761              		.loc 1 765 0
 2762 0030 FB68     		ldr	r3, [r7, #12]
 2763 0032 002B     		cmp	r3, #0
 2764 0034 11D0     		beq	.L78
 766:.\AdvantageImpl.c ****         {
 767:.\AdvantageImpl.c ****             puartdisp->_messagetx[index++] = PUMP_COMMAND(PUMP_STATE_REQUEST, ppump->_pumpid);
 2765              		.loc 1 767 0
 2766 0036 FB7C     		ldrb	r3, [r7, #19]	@ zero_extendqisi2
 2767 0038 5A1C     		adds	r2, r3, #1
ARM GAS  C:\Users\RECEPC~1\AppData\Local\Temp\ccLZ8WPs.s 			page 63


 2768 003a FA74     		strb	r2, [r7, #19]
 2769 003c 1946     		mov	r1, r3
 2770 003e 7B69     		ldr	r3, [r7, #20]
 2771 0040 1B78     		ldrb	r3, [r3]	@ zero_extendqisi2
 2772 0042 03F00F03 		and	r3, r3, #15
 2773 0046 DAB2     		uxtb	r2, r3
 2774 0048 FB68     		ldr	r3, [r7, #12]
 2775 004a 0B44     		add	r3, r3, r1
 2776 004c 1A71     		strb	r2, [r3, #4]
 768:.\AdvantageImpl.c ****             puartdisp->_messagelength = 1;//One byte
 2777              		.loc 1 768 0
 2778 004e FB68     		ldr	r3, [r7, #12]
 2779 0050 0122     		movs	r2, #1
 2780 0052 5A80     		strh	r2, [r3, #2]	@ movhi
 769:.\AdvantageImpl.c ****             puartdisp->_messagestate = PENDING;
 2781              		.loc 1 769 0
 2782 0054 FB68     		ldr	r3, [r7, #12]
 2783 0056 C222     		movs	r2, #194
 2784 0058 1A70     		strb	r2, [r3]
 2785              	.L78:
 2786              	.LBE9:
 770:.\AdvantageImpl.c ****         }
 771:.\AdvantageImpl.c ****     }
 772:.\AdvantageImpl.c **** }
 2787              		.loc 1 772 0
 2788 005a 1837     		adds	r7, r7, #24
 2789              		.cfi_def_cfa_offset 8
 2790 005c BD46     		mov	sp, r7
 2791              		.cfi_def_cfa_register 13
 2792              		@ sp needed
 2793 005e 80BD     		pop	{r7, pc}
 2794              		.cfi_endproc
 2795              	.LFE73:
 2796              		.size	PumpStateRequest, .-PumpStateRequest
 2797              		.section	.text.PumpRTMoneyRequest,"ax",%progbits
 2798              		.align	2
 2799              		.global	PumpRTMoneyRequest
 2800              		.thumb
 2801              		.thumb_func
 2802              		.type	PumpRTMoneyRequest, %function
 2803              	PumpRTMoneyRequest:
 2804              	.LFB74:
 773:.\AdvantageImpl.c **** 
 774:.\AdvantageImpl.c **** //@Created By: HIJH
 775:.\AdvantageImpl.c **** //@Date: Septembre de 2016
 776:.\AdvantageImpl.c **** void PumpRTMoneyRequest(void *pparam)
 777:.\AdvantageImpl.c **** {
 2805              		.loc 1 777 0
 2806              		.cfi_startproc
 2807              		@ args = 0, pretend = 0, frame = 24
 2808              		@ frame_needed = 1, uses_anonymous_args = 0
 2809 0000 80B5     		push	{r7, lr}
 2810              		.cfi_def_cfa_offset 8
 2811              		.cfi_offset 7, -8
 2812              		.cfi_offset 14, -4
 2813 0002 86B0     		sub	sp, sp, #24
 2814              		.cfi_def_cfa_offset 32
ARM GAS  C:\Users\RECEPC~1\AppData\Local\Temp\ccLZ8WPs.s 			page 64


 2815 0004 00AF     		add	r7, sp, #0
 2816              		.cfi_def_cfa_register 7
 2817 0006 7860     		str	r0, [r7, #4]
 778:.\AdvantageImpl.c ****     PNEAR_PUMPPTR ppump = (PNEAR_PUMPPTR)pparam;
 2818              		.loc 1 778 0
 2819 0008 7B68     		ldr	r3, [r7, #4]
 2820 000a 7B61     		str	r3, [r7, #20]
 779:.\AdvantageImpl.c ****     if(ppump)
 2821              		.loc 1 779 0
 2822 000c 7B69     		ldr	r3, [r7, #20]
 2823 000e 002B     		cmp	r3, #0
 2824 0010 28D0     		beq	.L80
 2825              	.LBB10:
 780:.\AdvantageImpl.c ****     {
 781:.\AdvantageImpl.c ****         uint8_t index = 0;
 2826              		.loc 1 781 0
 2827 0012 0023     		movs	r3, #0
 2828 0014 FB74     		strb	r3, [r7, #19]
 782:.\AdvantageImpl.c ****         memset(ppump->_rxbuffer, 0x00, _PUMP_RX_BUFFER_SIZE_);
 2829              		.loc 1 782 0
 2830 0016 7B69     		ldr	r3, [r7, #20]
 2831 0018 03F5D073 		add	r3, r3, #416
 2832 001c 1846     		mov	r0, r3
 2833 001e 0021     		movs	r1, #0
 2834 0020 4FF4C072 		mov	r2, #384
 2835 0024 FFF7FEFF 		bl	memset
 783:.\AdvantageImpl.c ****         PUARTMESSAGEPTR puartdisp = GetUARTMessageSlot(UART_DISPENSER);
 2836              		.loc 1 783 0
 2837 0028 A220     		movs	r0, #162
 2838 002a FFF7FEFF 		bl	GetUARTMessageSlot
 2839 002e F860     		str	r0, [r7, #12]
 784:.\AdvantageImpl.c ****         if(puartdisp)
 2840              		.loc 1 784 0
 2841 0030 FB68     		ldr	r3, [r7, #12]
 2842 0032 002B     		cmp	r3, #0
 2843 0034 16D0     		beq	.L80
 785:.\AdvantageImpl.c ****         {
 786:.\AdvantageImpl.c ****             puartdisp->_messagetx[index++] = PUMP_COMMAND(PUMP_REAL_TIME_MONEY_REQUEST, ppump->_pum
 2844              		.loc 1 786 0
 2845 0036 FB7C     		ldrb	r3, [r7, #19]	@ zero_extendqisi2
 2846 0038 5A1C     		adds	r2, r3, #1
 2847 003a FA74     		strb	r2, [r7, #19]
 2848 003c 1946     		mov	r1, r3
 2849 003e 7B69     		ldr	r3, [r7, #20]
 2850 0040 1B78     		ldrb	r3, [r3]	@ zero_extendqisi2
 2851 0042 DBB2     		uxtb	r3, r3
 2852 0044 03F00F03 		and	r3, r3, #15
 2853 0048 DBB2     		uxtb	r3, r3
 2854 004a 43F06003 		orr	r3, r3, #96
 2855 004e DBB2     		uxtb	r3, r3
 2856 0050 DAB2     		uxtb	r2, r3
 2857 0052 FB68     		ldr	r3, [r7, #12]
 2858 0054 0B44     		add	r3, r3, r1
 2859 0056 1A71     		strb	r2, [r3, #4]
 787:.\AdvantageImpl.c ****             puartdisp->_messagelength = 1;//One byte
 2860              		.loc 1 787 0
 2861 0058 FB68     		ldr	r3, [r7, #12]
ARM GAS  C:\Users\RECEPC~1\AppData\Local\Temp\ccLZ8WPs.s 			page 65


 2862 005a 0122     		movs	r2, #1
 2863 005c 5A80     		strh	r2, [r3, #2]	@ movhi
 788:.\AdvantageImpl.c ****             puartdisp->_messagestate = PENDING;
 2864              		.loc 1 788 0
 2865 005e FB68     		ldr	r3, [r7, #12]
 2866 0060 C222     		movs	r2, #194
 2867 0062 1A70     		strb	r2, [r3]
 2868              	.L80:
 2869              	.LBE10:
 789:.\AdvantageImpl.c ****         }
 790:.\AdvantageImpl.c ****     }
 791:.\AdvantageImpl.c **** }
 2870              		.loc 1 791 0
 2871 0064 1837     		adds	r7, r7, #24
 2872              		.cfi_def_cfa_offset 8
 2873 0066 BD46     		mov	sp, r7
 2874              		.cfi_def_cfa_register 13
 2875              		@ sp needed
 2876 0068 80BD     		pop	{r7, pc}
 2877              		.cfi_endproc
 2878              	.LFE74:
 2879              		.size	PumpRTMoneyRequest, .-PumpRTMoneyRequest
 2880 006a 00BF     		.section	.text.PumpTransactionDataRequest,"ax",%progbits
 2881              		.align	2
 2882              		.global	PumpTransactionDataRequest
 2883              		.thumb
 2884              		.thumb_func
 2885              		.type	PumpTransactionDataRequest, %function
 2886              	PumpTransactionDataRequest:
 2887              	.LFB75:
 792:.\AdvantageImpl.c **** 
 793:.\AdvantageImpl.c **** //@Created By: HIJH
 794:.\AdvantageImpl.c **** //@Date: Septembre de 2016
 795:.\AdvantageImpl.c **** //Requests the last transaction data to the pump. This is a single byte command with a fixed length
 796:.\AdvantageImpl.c **** void PumpTransactionDataRequest(void *pparam)
 797:.\AdvantageImpl.c **** {
 2888              		.loc 1 797 0
 2889              		.cfi_startproc
 2890              		@ args = 0, pretend = 0, frame = 24
 2891              		@ frame_needed = 1, uses_anonymous_args = 0
 2892 0000 80B5     		push	{r7, lr}
 2893              		.cfi_def_cfa_offset 8
 2894              		.cfi_offset 7, -8
 2895              		.cfi_offset 14, -4
 2896 0002 86B0     		sub	sp, sp, #24
 2897              		.cfi_def_cfa_offset 32
 2898 0004 00AF     		add	r7, sp, #0
 2899              		.cfi_def_cfa_register 7
 2900 0006 7860     		str	r0, [r7, #4]
 798:.\AdvantageImpl.c ****     PNEAR_PUMPPTR ppump = (PNEAR_PUMPPTR)pparam;
 2901              		.loc 1 798 0
 2902 0008 7B68     		ldr	r3, [r7, #4]
 2903 000a 7B61     		str	r3, [r7, #20]
 799:.\AdvantageImpl.c ****     if(ppump)
 2904              		.loc 1 799 0
 2905 000c 7B69     		ldr	r3, [r7, #20]
 2906 000e 002B     		cmp	r3, #0
ARM GAS  C:\Users\RECEPC~1\AppData\Local\Temp\ccLZ8WPs.s 			page 66


 2907 0010 28D0     		beq	.L82
 2908              	.LBB11:
 800:.\AdvantageImpl.c ****     {        
 801:.\AdvantageImpl.c ****         uint8_t index = 0;
 2909              		.loc 1 801 0
 2910 0012 0023     		movs	r3, #0
 2911 0014 FB74     		strb	r3, [r7, #19]
 802:.\AdvantageImpl.c ****         memset(ppump->_rxbuffer, 0x00, _PUMP_RX_BUFFER_SIZE_);
 2912              		.loc 1 802 0
 2913 0016 7B69     		ldr	r3, [r7, #20]
 2914 0018 03F5D073 		add	r3, r3, #416
 2915 001c 1846     		mov	r0, r3
 2916 001e 0021     		movs	r1, #0
 2917 0020 4FF4C072 		mov	r2, #384
 2918 0024 FFF7FEFF 		bl	memset
 803:.\AdvantageImpl.c ****         PUARTMESSAGEPTR puartdisp = GetUARTMessageSlot(UART_DISPENSER);
 2919              		.loc 1 803 0
 2920 0028 A220     		movs	r0, #162
 2921 002a FFF7FEFF 		bl	GetUARTMessageSlot
 2922 002e F860     		str	r0, [r7, #12]
 804:.\AdvantageImpl.c ****         if(puartdisp)
 2923              		.loc 1 804 0
 2924 0030 FB68     		ldr	r3, [r7, #12]
 2925 0032 002B     		cmp	r3, #0
 2926 0034 16D0     		beq	.L82
 805:.\AdvantageImpl.c ****         {
 806:.\AdvantageImpl.c ****             puartdisp->_messagetx[index++] = PUMP_COMMAND(PUMP_TRANSACTION_DATA_REQUEST, ppump->_pu
 2927              		.loc 1 806 0
 2928 0036 FB7C     		ldrb	r3, [r7, #19]	@ zero_extendqisi2
 2929 0038 5A1C     		adds	r2, r3, #1
 2930 003a FA74     		strb	r2, [r7, #19]
 2931 003c 1946     		mov	r1, r3
 2932 003e 7B69     		ldr	r3, [r7, #20]
 2933 0040 1B78     		ldrb	r3, [r3]	@ zero_extendqisi2
 2934 0042 DBB2     		uxtb	r3, r3
 2935 0044 03F00F03 		and	r3, r3, #15
 2936 0048 DBB2     		uxtb	r3, r3
 2937 004a 43F04003 		orr	r3, r3, #64
 2938 004e DBB2     		uxtb	r3, r3
 2939 0050 DAB2     		uxtb	r2, r3
 2940 0052 FB68     		ldr	r3, [r7, #12]
 2941 0054 0B44     		add	r3, r3, r1
 2942 0056 1A71     		strb	r2, [r3, #4]
 807:.\AdvantageImpl.c ****             puartdisp->_messagelength = 1;//One byte
 2943              		.loc 1 807 0
 2944 0058 FB68     		ldr	r3, [r7, #12]
 2945 005a 0122     		movs	r2, #1
 2946 005c 5A80     		strh	r2, [r3, #2]	@ movhi
 808:.\AdvantageImpl.c ****             puartdisp->_messagestate = PENDING;
 2947              		.loc 1 808 0
 2948 005e FB68     		ldr	r3, [r7, #12]
 2949 0060 C222     		movs	r2, #194
 2950 0062 1A70     		strb	r2, [r3]
 2951              	.L82:
 2952              	.LBE11:
 809:.\AdvantageImpl.c ****         }
 810:.\AdvantageImpl.c ****     }
ARM GAS  C:\Users\RECEPC~1\AppData\Local\Temp\ccLZ8WPs.s 			page 67


 811:.\AdvantageImpl.c **** }
 2953              		.loc 1 811 0
 2954 0064 1837     		adds	r7, r7, #24
 2955              		.cfi_def_cfa_offset 8
 2956 0066 BD46     		mov	sp, r7
 2957              		.cfi_def_cfa_register 13
 2958              		@ sp needed
 2959 0068 80BD     		pop	{r7, pc}
 2960              		.cfi_endproc
 2961              	.LFE75:
 2962              		.size	PumpTransactionDataRequest, .-PumpTransactionDataRequest
 2963 006a 00BF     		.section	.text.PumpTotalsDataRequest,"ax",%progbits
 2964              		.align	2
 2965              		.global	PumpTotalsDataRequest
 2966              		.thumb
 2967              		.thumb_func
 2968              		.type	PumpTotalsDataRequest, %function
 2969              	PumpTotalsDataRequest:
 2970              	.LFB76:
 812:.\AdvantageImpl.c **** 
 813:.\AdvantageImpl.c **** //@Created By: HIJH
 814:.\AdvantageImpl.c **** //@Date: Septembre de 2016
 815:.\AdvantageImpl.c **** //Requests the report of totals for the current pump. This is a single byte command with a variable
 816:.\AdvantageImpl.c **** //that depends on the number of available hoses.
 817:.\AdvantageImpl.c **** void PumpTotalsDataRequest(void *pparam)
 818:.\AdvantageImpl.c **** {
 2971              		.loc 1 818 0
 2972              		.cfi_startproc
 2973              		@ args = 0, pretend = 0, frame = 24
 2974              		@ frame_needed = 1, uses_anonymous_args = 0
 2975 0000 80B5     		push	{r7, lr}
 2976              		.cfi_def_cfa_offset 8
 2977              		.cfi_offset 7, -8
 2978              		.cfi_offset 14, -4
 2979 0002 86B0     		sub	sp, sp, #24
 2980              		.cfi_def_cfa_offset 32
 2981 0004 00AF     		add	r7, sp, #0
 2982              		.cfi_def_cfa_register 7
 2983 0006 7860     		str	r0, [r7, #4]
 819:.\AdvantageImpl.c ****     PNEAR_PUMPPTR ppump = (PNEAR_PUMPPTR)pparam;
 2984              		.loc 1 819 0
 2985 0008 7B68     		ldr	r3, [r7, #4]
 2986 000a 7B61     		str	r3, [r7, #20]
 820:.\AdvantageImpl.c ****     if(ppump)
 2987              		.loc 1 820 0
 2988 000c 7B69     		ldr	r3, [r7, #20]
 2989 000e 002B     		cmp	r3, #0
 2990 0010 28D0     		beq	.L84
 2991              	.LBB12:
 821:.\AdvantageImpl.c ****     {        
 822:.\AdvantageImpl.c ****         uint8_t index = 0;
 2992              		.loc 1 822 0
 2993 0012 0023     		movs	r3, #0
 2994 0014 FB74     		strb	r3, [r7, #19]
 823:.\AdvantageImpl.c ****         memset(ppump->_rxbuffer, 0x00, _PUMP_RX_BUFFER_SIZE_);
 2995              		.loc 1 823 0
 2996 0016 7B69     		ldr	r3, [r7, #20]
ARM GAS  C:\Users\RECEPC~1\AppData\Local\Temp\ccLZ8WPs.s 			page 68


 2997 0018 03F5D073 		add	r3, r3, #416
 2998 001c 1846     		mov	r0, r3
 2999 001e 0021     		movs	r1, #0
 3000 0020 4FF4C072 		mov	r2, #384
 3001 0024 FFF7FEFF 		bl	memset
 824:.\AdvantageImpl.c ****         PUARTMESSAGEPTR puartdisp = GetUARTMessageSlot(UART_DISPENSER);
 3002              		.loc 1 824 0
 3003 0028 A220     		movs	r0, #162
 3004 002a FFF7FEFF 		bl	GetUARTMessageSlot
 3005 002e F860     		str	r0, [r7, #12]
 825:.\AdvantageImpl.c ****         if(puartdisp)
 3006              		.loc 1 825 0
 3007 0030 FB68     		ldr	r3, [r7, #12]
 3008 0032 002B     		cmp	r3, #0
 3009 0034 16D0     		beq	.L84
 826:.\AdvantageImpl.c ****         {
 827:.\AdvantageImpl.c ****             puartdisp->_messagetx[index++] = PUMP_COMMAND(PUMP_TOTALS_DATA_REQUEST, ppump->_pumpid)
 3010              		.loc 1 827 0
 3011 0036 FB7C     		ldrb	r3, [r7, #19]	@ zero_extendqisi2
 3012 0038 5A1C     		adds	r2, r3, #1
 3013 003a FA74     		strb	r2, [r7, #19]
 3014 003c 1946     		mov	r1, r3
 3015 003e 7B69     		ldr	r3, [r7, #20]
 3016 0040 1B78     		ldrb	r3, [r3]	@ zero_extendqisi2
 3017 0042 DBB2     		uxtb	r3, r3
 3018 0044 03F00F03 		and	r3, r3, #15
 3019 0048 DBB2     		uxtb	r3, r3
 3020 004a 43F05003 		orr	r3, r3, #80
 3021 004e DBB2     		uxtb	r3, r3
 3022 0050 DAB2     		uxtb	r2, r3
 3023 0052 FB68     		ldr	r3, [r7, #12]
 3024 0054 0B44     		add	r3, r3, r1
 3025 0056 1A71     		strb	r2, [r3, #4]
 828:.\AdvantageImpl.c ****             puartdisp->_messagelength = 1;//One byte
 3026              		.loc 1 828 0
 3027 0058 FB68     		ldr	r3, [r7, #12]
 3028 005a 0122     		movs	r2, #1
 3029 005c 5A80     		strh	r2, [r3, #2]	@ movhi
 829:.\AdvantageImpl.c ****             puartdisp->_messagestate = PENDING;
 3030              		.loc 1 829 0
 3031 005e FB68     		ldr	r3, [r7, #12]
 3032 0060 C222     		movs	r2, #194
 3033 0062 1A70     		strb	r2, [r3]
 3034              	.L84:
 3035              	.LBE12:
 830:.\AdvantageImpl.c ****         }
 831:.\AdvantageImpl.c ****     }
 832:.\AdvantageImpl.c **** }
 3036              		.loc 1 832 0
 3037 0064 1837     		adds	r7, r7, #24
 3038              		.cfi_def_cfa_offset 8
 3039 0066 BD46     		mov	sp, r7
 3040              		.cfi_def_cfa_register 13
 3041              		@ sp needed
 3042 0068 80BD     		pop	{r7, pc}
 3043              		.cfi_endproc
 3044              	.LFE76:
ARM GAS  C:\Users\RECEPC~1\AppData\Local\Temp\ccLZ8WPs.s 			page 69


 3045              		.size	PumpTotalsDataRequest, .-PumpTotalsDataRequest
 3046 006a 00BF     		.section	.text.PumpDataToPump,"ax",%progbits
 3047              		.align	2
 3048              		.global	PumpDataToPump
 3049              		.thumb
 3050              		.thumb_func
 3051              		.type	PumpDataToPump, %function
 3052              	PumpDataToPump:
 3053              	.LFB77:
 833:.\AdvantageImpl.c **** 
 834:.\AdvantageImpl.c **** //@Created By: HIJH
 835:.\AdvantageImpl.c **** //@Date: Septembre de 2016
 836:.\AdvantageImpl.c **** //Requests the pump to enter in "SEND DATA" mode. This is a single byte command with a special one 
 837:.\AdvantageImpl.c **** //that indicates that the pump is ready to receive data.
 838:.\AdvantageImpl.c **** void PumpDataToPump(void *pparam)
 839:.\AdvantageImpl.c **** {
 3054              		.loc 1 839 0
 3055              		.cfi_startproc
 3056              		@ args = 0, pretend = 0, frame = 24
 3057              		@ frame_needed = 1, uses_anonymous_args = 0
 3058 0000 80B5     		push	{r7, lr}
 3059              		.cfi_def_cfa_offset 8
 3060              		.cfi_offset 7, -8
 3061              		.cfi_offset 14, -4
 3062 0002 86B0     		sub	sp, sp, #24
 3063              		.cfi_def_cfa_offset 32
 3064 0004 00AF     		add	r7, sp, #0
 3065              		.cfi_def_cfa_register 7
 3066 0006 7860     		str	r0, [r7, #4]
 840:.\AdvantageImpl.c ****     PNEAR_PUMPPTR ppump = (PNEAR_PUMPPTR)pparam;
 3067              		.loc 1 840 0
 3068 0008 7B68     		ldr	r3, [r7, #4]
 3069 000a 7B61     		str	r3, [r7, #20]
 841:.\AdvantageImpl.c ****     if(ppump)
 3070              		.loc 1 841 0
 3071 000c 7B69     		ldr	r3, [r7, #20]
 3072 000e 002B     		cmp	r3, #0
 3073 0010 28D0     		beq	.L86
 3074              	.LBB13:
 842:.\AdvantageImpl.c ****     {
 843:.\AdvantageImpl.c ****         uint8_t index = 0;        
 3075              		.loc 1 843 0
 3076 0012 0023     		movs	r3, #0
 3077 0014 FB74     		strb	r3, [r7, #19]
 844:.\AdvantageImpl.c ****         memset(ppump->_rxbuffer, 0x00, _PUMP_RX_BUFFER_SIZE_);
 3078              		.loc 1 844 0
 3079 0016 7B69     		ldr	r3, [r7, #20]
 3080 0018 03F5D073 		add	r3, r3, #416
 3081 001c 1846     		mov	r0, r3
 3082 001e 0021     		movs	r1, #0
 3083 0020 4FF4C072 		mov	r2, #384
 3084 0024 FFF7FEFF 		bl	memset
 845:.\AdvantageImpl.c ****         PUARTMESSAGEPTR puartdisp = GetUARTMessageSlot(UART_DISPENSER);
 3085              		.loc 1 845 0
 3086 0028 A220     		movs	r0, #162
 3087 002a FFF7FEFF 		bl	GetUARTMessageSlot
 3088 002e F860     		str	r0, [r7, #12]
ARM GAS  C:\Users\RECEPC~1\AppData\Local\Temp\ccLZ8WPs.s 			page 70


 846:.\AdvantageImpl.c ****         if(puartdisp)
 3089              		.loc 1 846 0
 3090 0030 FB68     		ldr	r3, [r7, #12]
 3091 0032 002B     		cmp	r3, #0
 3092 0034 16D0     		beq	.L86
 847:.\AdvantageImpl.c ****         {
 848:.\AdvantageImpl.c ****             puartdisp->_messagetx[index++] = PUMP_COMMAND(PUMP_DATA_TO_PUMP, ppump->_pumpid);
 3093              		.loc 1 848 0
 3094 0036 FB7C     		ldrb	r3, [r7, #19]	@ zero_extendqisi2
 3095 0038 5A1C     		adds	r2, r3, #1
 3096 003a FA74     		strb	r2, [r7, #19]
 3097 003c 1946     		mov	r1, r3
 3098 003e 7B69     		ldr	r3, [r7, #20]
 3099 0040 1B78     		ldrb	r3, [r3]	@ zero_extendqisi2
 3100 0042 DBB2     		uxtb	r3, r3
 3101 0044 03F00F03 		and	r3, r3, #15
 3102 0048 DBB2     		uxtb	r3, r3
 3103 004a 43F02003 		orr	r3, r3, #32
 3104 004e DBB2     		uxtb	r3, r3
 3105 0050 DAB2     		uxtb	r2, r3
 3106 0052 FB68     		ldr	r3, [r7, #12]
 3107 0054 0B44     		add	r3, r3, r1
 3108 0056 1A71     		strb	r2, [r3, #4]
 849:.\AdvantageImpl.c ****             puartdisp->_messagelength = 1;//One byte
 3109              		.loc 1 849 0
 3110 0058 FB68     		ldr	r3, [r7, #12]
 3111 005a 0122     		movs	r2, #1
 3112 005c 5A80     		strh	r2, [r3, #2]	@ movhi
 850:.\AdvantageImpl.c ****             puartdisp->_messagestate = PENDING;
 3113              		.loc 1 850 0
 3114 005e FB68     		ldr	r3, [r7, #12]
 3115 0060 C222     		movs	r2, #194
 3116 0062 1A70     		strb	r2, [r3]
 3117              	.L86:
 3118              	.LBE13:
 851:.\AdvantageImpl.c ****         }
 852:.\AdvantageImpl.c ****     }
 853:.\AdvantageImpl.c **** }
 3119              		.loc 1 853 0
 3120 0064 1837     		adds	r7, r7, #24
 3121              		.cfi_def_cfa_offset 8
 3122 0066 BD46     		mov	sp, r7
 3123              		.cfi_def_cfa_register 13
 3124              		@ sp needed
 3125 0068 80BD     		pop	{r7, pc}
 3126              		.cfi_endproc
 3127              	.LFE77:
 3128              		.size	PumpDataToPump, .-PumpDataToPump
 3129 006a 00BF     		.section	.text.PumpCreditPresetHose,"ax",%progbits
 3130              		.align	2
 3131              		.global	PumpCreditPresetHose
 3132              		.thumb
 3133              		.thumb_func
 3134              		.type	PumpCreditPresetHose, %function
 3135              	PumpCreditPresetHose:
 3136              	.LFB78:
 854:.\AdvantageImpl.c **** 
ARM GAS  C:\Users\RECEPC~1\AppData\Local\Temp\ccLZ8WPs.s 			page 71


 855:.\AdvantageImpl.c **** 
 856:.\AdvantageImpl.c **** //@Created By: HIJH
 857:.\AdvantageImpl.c **** //@Septembre de 2016
 858:.\AdvantageImpl.c **** ///////////////////////////////////////////////////////////////////////////////////////////////////
 859:.\AdvantageImpl.c **** //This preset is a convention that applies to "Credit Transactions"
 860:.\AdvantageImpl.c **** //The pump will hold all the necessary information for the preset.
 861:.\AdvantageImpl.c **** //For this message the data comes as follows:
 862:.\AdvantageImpl.c **** void PumpCreditPresetHose(void *pparam)
 863:.\AdvantageImpl.c **** {
 3137              		.loc 1 863 0
 3138              		.cfi_startproc
 3139              		@ args = 0, pretend = 0, frame = 40
 3140              		@ frame_needed = 1, uses_anonymous_args = 0
 3141 0000 90B5     		push	{r4, r7, lr}
 3142              		.cfi_def_cfa_offset 12
 3143              		.cfi_offset 4, -12
 3144              		.cfi_offset 7, -8
 3145              		.cfi_offset 14, -4
 3146 0002 8BB0     		sub	sp, sp, #44
 3147              		.cfi_def_cfa_offset 56
 3148 0004 00AF     		add	r7, sp, #0
 3149              		.cfi_def_cfa_register 7
 3150 0006 7860     		str	r0, [r7, #4]
 864:.\AdvantageImpl.c ****     PNEAR_PUMPPTR ppump = (PNEAR_PUMPPTR)pparam;
 3151              		.loc 1 864 0
 3152 0008 7B68     		ldr	r3, [r7, #4]
 3153 000a 3B62     		str	r3, [r7, #32]
 865:.\AdvantageImpl.c ****     if(ppump)
 3154              		.loc 1 865 0
 3155 000c 3B6A     		ldr	r3, [r7, #32]
 3156 000e 002B     		cmp	r3, #0
 3157 0010 00F0C881 		beq	.L88
 3158              	.LBB14:
 866:.\AdvantageImpl.c ****     {
 867:.\AdvantageImpl.c ****         uint8_t index = 0;        
 3159              		.loc 1 867 0
 3160 0014 0023     		movs	r3, #0
 3161 0016 87F82730 		strb	r3, [r7, #39]
 868:.\AdvantageImpl.c ****         PUARTMESSAGEPTR puartdisp = GetUARTMessageSlot(UART_DISPENSER);
 3162              		.loc 1 868 0
 3163 001a A220     		movs	r0, #162
 3164 001c FFF7FEFF 		bl	GetUARTMessageSlot
 3165 0020 F861     		str	r0, [r7, #28]
 869:.\AdvantageImpl.c ****         memset(ppump->_rxbuffer, 0x00, _PUMP_RX_BUFFER_SIZE_);
 3166              		.loc 1 869 0
 3167 0022 3B6A     		ldr	r3, [r7, #32]
 3168 0024 03F5D073 		add	r3, r3, #416
 3169 0028 1846     		mov	r0, r3
 3170 002a 0021     		movs	r1, #0
 3171 002c 4FF4C072 		mov	r2, #384
 3172 0030 FFF7FEFF 		bl	memset
 870:.\AdvantageImpl.c ****         if(puartdisp)
 3173              		.loc 1 870 0
 3174 0034 FB69     		ldr	r3, [r7, #28]
 3175 0036 002B     		cmp	r3, #0
 3176 0038 00F0B481 		beq	.L88
 871:.\AdvantageImpl.c ****         {
ARM GAS  C:\Users\RECEPC~1\AppData\Local\Temp\ccLZ8WPs.s 			page 72


 872:.\AdvantageImpl.c **** ///////////////////////////////////////////////////////////////////////////////////////////////////
 873:.\AdvantageImpl.c ****             puartdisp->_messagetx[index++] = SOM;
 3177              		.loc 1 873 0
 3178 003c 97F82730 		ldrb	r3, [r7, #39]	@ zero_extendqisi2
 3179 0040 5A1C     		adds	r2, r3, #1
 3180 0042 87F82720 		strb	r2, [r7, #39]
 3181 0046 1A46     		mov	r2, r3
 3182 0048 FB69     		ldr	r3, [r7, #28]
 3183 004a 1344     		add	r3, r3, r2
 3184 004c FF22     		movs	r2, #255
 3185 004e 1A71     		strb	r2, [r3, #4]
 874:.\AdvantageImpl.c ****             if(_g_dispenserlayoutinfo._displaydigitsmode == 0x06)
 3186              		.loc 1 874 0
 3187 0050 AC4B     		ldr	r3, .L111
 3188 0052 1B7C     		ldrb	r3, [r3, #16]	@ zero_extendqisi2
 3189 0054 062B     		cmp	r3, #6
 3190 0056 40F0D580 		bne	.L90
 3191              	.LBB15:
 875:.\AdvantageImpl.c ****             {
 876:.\AdvantageImpl.c ****                 uint8 transtype = ((0xF0 | ppump->_authorizationinfo._presettype) == 0xF1)? 0xF2: 0
 3192              		.loc 1 876 0
 3193 005a 3B6A     		ldr	r3, [r7, #32]
 3194 005c 93F8A93B 		ldrb	r3, [r3, #2985]
 3195 0060 DBB2     		uxtb	r3, r3
 3196 0062 63F00F03 		orn	r3, r3, #15
 3197 0066 DBB2     		uxtb	r3, r3
 3198 0068 F12B     		cmp	r3, #241
 3199 006a 01D1     		bne	.L91
 3200              		.loc 1 876 0 is_stmt 0 discriminator 1
 3201 006c F223     		movs	r3, #242
 3202 006e 00E0     		b	.L92
 3203              	.L91:
 3204              		.loc 1 876 0 discriminator 2
 3205 0070 F123     		movs	r3, #241
 3206              	.L92:
 3207              		.loc 1 876 0 discriminator 4
 3208 0072 FB76     		strb	r3, [r7, #27]
 877:.\AdvantageImpl.c ****                 if(transtype == 0xF1)
 3209              		.loc 1 877 0 is_stmt 1 discriminator 4
 3210 0074 FB7E     		ldrb	r3, [r7, #27]	@ zero_extendqisi2
 3211 0076 F12B     		cmp	r3, #241
 3212 0078 0AD1     		bne	.L93
 878:.\AdvantageImpl.c ****                     puartdisp->_messagetx[index++] = 0xE3;
 3213              		.loc 1 878 0
 3214 007a 97F82730 		ldrb	r3, [r7, #39]	@ zero_extendqisi2
 3215 007e 5A1C     		adds	r2, r3, #1
 3216 0080 87F82720 		strb	r2, [r7, #39]
 3217 0084 1A46     		mov	r2, r3
 3218 0086 FB69     		ldr	r3, [r7, #28]
 3219 0088 1344     		add	r3, r3, r2
 3220 008a E322     		movs	r2, #227
 3221 008c 1A71     		strb	r2, [r3, #4]
 3222 008e 09E0     		b	.L94
 3223              	.L93:
 879:.\AdvantageImpl.c ****                 else
 880:.\AdvantageImpl.c ****                     puartdisp->_messagetx[index++] = 0xE2;
 3224              		.loc 1 880 0
ARM GAS  C:\Users\RECEPC~1\AppData\Local\Temp\ccLZ8WPs.s 			page 73


 3225 0090 97F82730 		ldrb	r3, [r7, #39]	@ zero_extendqisi2
 3226 0094 5A1C     		adds	r2, r3, #1
 3227 0096 87F82720 		strb	r2, [r7, #39]
 3228 009a 1A46     		mov	r2, r3
 3229 009c FB69     		ldr	r3, [r7, #28]
 3230 009e 1344     		add	r3, r3, r2
 3231 00a0 E222     		movs	r2, #226
 3232 00a2 1A71     		strb	r2, [r3, #4]
 3233              	.L94:
 881:.\AdvantageImpl.c ****                     
 882:.\AdvantageImpl.c ****                 ///THIS IS AN APPLIED CONVENTION ===>> 0x0004 INDEX POSITION WITHIN THE PUMP'S BUFF
 883:.\AdvantageImpl.c ****                 ///THESE CODES MUST BE MATCHED OTHERWISE THE LOGIC WILL BREAKUP THE CODE!
 884:.\AdvantageImpl.c ****                 puartdisp->_messagetx[index++] = transtype;
 3234              		.loc 1 884 0
 3235 00a4 97F82730 		ldrb	r3, [r7, #39]	@ zero_extendqisi2
 3236 00a8 5A1C     		adds	r2, r3, #1
 3237 00aa 87F82720 		strb	r2, [r7, #39]
 3238 00ae 1A46     		mov	r2, r3
 3239 00b0 FB69     		ldr	r3, [r7, #28]
 3240 00b2 1344     		add	r3, r3, r2
 3241 00b4 FA7E     		ldrb	r2, [r7, #27]
 3242 00b6 1A71     		strb	r2, [r3, #4]
 885:.\AdvantageImpl.c ****                 puartdisp->_messagetx[index++] = 0xF4;
 3243              		.loc 1 885 0
 3244 00b8 97F82730 		ldrb	r3, [r7, #39]	@ zero_extendqisi2
 3245 00bc 5A1C     		adds	r2, r3, #1
 3246 00be 87F82720 		strb	r2, [r7, #39]
 3247 00c2 1A46     		mov	r2, r3
 3248 00c4 FB69     		ldr	r3, [r7, #28]
 3249 00c6 1344     		add	r3, r3, r2
 3250 00c8 F422     		movs	r2, #244
 3251 00ca 1A71     		strb	r2, [r3, #4]
 886:.\AdvantageImpl.c ****                 puartdisp->_messagetx[index++] = 0xF6; //Hose Data next
 3252              		.loc 1 886 0
 3253 00cc 97F82730 		ldrb	r3, [r7, #39]	@ zero_extendqisi2
 3254 00d0 5A1C     		adds	r2, r3, #1
 3255 00d2 87F82720 		strb	r2, [r7, #39]
 3256 00d6 1A46     		mov	r2, r3
 3257 00d8 FB69     		ldr	r3, [r7, #28]
 3258 00da 1344     		add	r3, r3, r2
 3259 00dc F622     		movs	r2, #246
 3260 00de 1A71     		strb	r2, [r3, #4]
 887:.\AdvantageImpl.c ****                 ///THIS IS AN APPLIED CONVENTION ===>> 0x0006 INDEX POSITION WITHIN THE PUMP'S BUFF
 888:.\AdvantageImpl.c ****                 ///THESE CODES MUST BE MATCHED OTHERWISE THE LOGIC WILL BREAKUP THE CODE!
 889:.\AdvantageImpl.c ****                 puartdisp->_messagetx[index++] = (0xE0 | (ppump->_authorizationinfo._hoseid & 0x0F)
 3261              		.loc 1 889 0
 3262 00e0 97F82730 		ldrb	r3, [r7, #39]	@ zero_extendqisi2
 3263 00e4 5A1C     		adds	r2, r3, #1
 3264 00e6 87F82720 		strb	r2, [r7, #39]
 3265 00ea 1946     		mov	r1, r3
 3266 00ec 3B6A     		ldr	r3, [r7, #32]
 3267 00ee 93F8AA3B 		ldrb	r3, [r3, #2986]
 3268 00f2 DBB2     		uxtb	r3, r3
 3269 00f4 DBB2     		uxtb	r3, r3
 3270 00f6 03F00F03 		and	r3, r3, #15
 3271 00fa DBB2     		uxtb	r3, r3
 3272 00fc 63F01F03 		orn	r3, r3, #31
ARM GAS  C:\Users\RECEPC~1\AppData\Local\Temp\ccLZ8WPs.s 			page 74


 3273 0100 DBB2     		uxtb	r3, r3
 3274 0102 DAB2     		uxtb	r2, r3
 3275 0104 FB69     		ldr	r3, [r7, #28]
 3276 0106 0B44     		add	r3, r3, r1
 3277 0108 1A71     		strb	r2, [r3, #4]
 890:.\AdvantageImpl.c ****                 
 891:.\AdvantageImpl.c ****                 puartdisp->_messagetx[index++] = 0xF8; //Preset Data next
 3278              		.loc 1 891 0
 3279 010a 97F82730 		ldrb	r3, [r7, #39]	@ zero_extendqisi2
 3280 010e 5A1C     		adds	r2, r3, #1
 3281 0110 87F82720 		strb	r2, [r7, #39]
 3282 0114 1A46     		mov	r2, r3
 3283 0116 FB69     		ldr	r3, [r7, #28]
 3284 0118 1344     		add	r3, r3, r2
 3285 011a F822     		movs	r2, #248
 3286 011c 1A71     		strb	r2, [r3, #4]
 892:.\AdvantageImpl.c ****                 //Here we copy the remaining 8 bytes for the preset value
 893:.\AdvantageImpl.c ****                 ///THIS IS AN APPLIED CONVENTION ===>> 0x0008 INDEX POSITION WITHIN THE PUMP'S BUFF
 894:.\AdvantageImpl.c ****                 ///THESE CODES MUST BE MATCHED OTHERWISE THE LOGIC WILL BREAKUP THE CODE!
 895:.\AdvantageImpl.c ****                 memset(PBYTECAST(&ppump->_trasactionbuffer[0x0008]),0x00, 0x0008);
 3287              		.loc 1 895 0
 3288 011e 3B6A     		ldr	r3, [r7, #32]
 3289 0120 2833     		adds	r3, r3, #40
 3290 0122 1846     		mov	r0, r3
 3291 0124 0021     		movs	r1, #0
 3292 0126 0822     		movs	r2, #8
 3293 0128 FFF7FEFF 		bl	memset
 896:.\AdvantageImpl.c ****                 B78AD90CF552D9B30A(ppump->_authorizationinfo._presetamount, PBYTECAST(&ppump->_tras
 3294              		.loc 1 896 0
 3295 012c 3B6A     		ldr	r3, [r7, #32]
 3296 012e D3F8B03B 		ldr	r3, [r3, #2992]
 3297 0132 1A46     		mov	r2, r3
 3298 0134 4FF00003 		mov	r3, #0
 3299 0138 396A     		ldr	r1, [r7, #32]
 3300 013a 01F12804 		add	r4, r1, #40
 3301 013e 1046     		mov	r0, r2
 3302 0140 1946     		mov	r1, r3
 3303 0142 2246     		mov	r2, r4
 3304 0144 FFF7FEFF 		bl	B78AD90CF552D9B30A
 897:.\AdvantageImpl.c ****                 char8 *ptr = &ppump->_trasactionbuffer[0x0008];
 3305              		.loc 1 897 0
 3306 0148 3B6A     		ldr	r3, [r7, #32]
 3307 014a 2833     		adds	r3, r3, #40
 3308 014c 7B61     		str	r3, [r7, #20]
 898:.\AdvantageImpl.c ****                 if(transtype == 0xF1) //Volume PRESET, then multiply by 1000
 3309              		.loc 1 898 0
 3310 014e FB7E     		ldrb	r3, [r7, #27]	@ zero_extendqisi2
 3311 0150 F12B     		cmp	r3, #241
 3312 0152 27D1     		bne	.L95
 3313              	.LBB16:
 899:.\AdvantageImpl.c ****                 {
 900:.\AdvantageImpl.c ****                     CastVolumeValue(ptr, 0x08);
 3314              		.loc 1 900 0
 3315 0154 7869     		ldr	r0, [r7, #20]
 3316 0156 0821     		movs	r1, #8
 3317 0158 FFF7FEFF 		bl	CastVolumeValue
 901:.\AdvantageImpl.c ****                     
ARM GAS  C:\Users\RECEPC~1\AppData\Local\Temp\ccLZ8WPs.s 			page 75


 902:.\AdvantageImpl.c ****                     FOR(uint8 buffndx = 0, buffndx < 0x05, buffndx++)
 3318              		.loc 1 902 0
 3319 015c 0023     		movs	r3, #0
 3320 015e 87F82630 		strb	r3, [r7, #38]
 3321 0162 1AE0     		b	.L96
 3322              	.L97:
 903:.\AdvantageImpl.c ****                         puartdisp->_messagetx[index++] = (0xE0 | (ptr[buffndx] & 0x0F)); //Translat
 3323              		.loc 1 903 0 discriminator 3
 3324 0164 97F82730 		ldrb	r3, [r7, #39]	@ zero_extendqisi2
 3325 0168 5A1C     		adds	r2, r3, #1
 3326 016a 87F82720 		strb	r2, [r7, #39]
 3327 016e 1946     		mov	r1, r3
 3328 0170 97F82630 		ldrb	r3, [r7, #38]	@ zero_extendqisi2
 3329 0174 7A69     		ldr	r2, [r7, #20]
 3330 0176 1344     		add	r3, r3, r2
 3331 0178 1B78     		ldrb	r3, [r3]	@ zero_extendqisi2
 3332 017a DBB2     		uxtb	r3, r3
 3333 017c 03F00F03 		and	r3, r3, #15
 3334 0180 DBB2     		uxtb	r3, r3
 3335 0182 63F01F03 		orn	r3, r3, #31
 3336 0186 DBB2     		uxtb	r3, r3
 3337 0188 DAB2     		uxtb	r2, r3
 3338 018a FB69     		ldr	r3, [r7, #28]
 3339 018c 0B44     		add	r3, r3, r1
 3340 018e 1A71     		strb	r2, [r3, #4]
 902:.\AdvantageImpl.c ****                         puartdisp->_messagetx[index++] = (0xE0 | (ptr[buffndx] & 0x0F)); //Translat
 3341              		.loc 1 902 0 discriminator 3
 3342 0190 97F82630 		ldrb	r3, [r7, #38]	@ zero_extendqisi2
 3343 0194 0133     		adds	r3, r3, #1
 3344 0196 87F82630 		strb	r3, [r7, #38]
 3345              	.L96:
 902:.\AdvantageImpl.c ****                         puartdisp->_messagetx[index++] = (0xE0 | (ptr[buffndx] & 0x0F)); //Translat
 3346              		.loc 1 902 0 is_stmt 0 discriminator 1
 3347 019a 97F82630 		ldrb	r3, [r7, #38]	@ zero_extendqisi2
 3348 019e 042B     		cmp	r3, #4
 3349 01a0 E0D9     		bls	.L97
 3350              	.LBE16:
 3351 01a2 2EE0     		b	.L98
 3352              	.L95:
 3353              	.LBB17:
 904:.\AdvantageImpl.c ****                 }
 905:.\AdvantageImpl.c ****                 else
 906:.\AdvantageImpl.c ****                 {
 907:.\AdvantageImpl.c ****                     if(!(_g_dispenserlayoutinfo._moneydecimals == 0x03 && _g_dispenserlayoutinfo._p
 3354              		.loc 1 907 0 is_stmt 1
 3355 01a4 574B     		ldr	r3, .L111
 3356 01a6 DB79     		ldrb	r3, [r3, #7]	@ zero_extendqisi2
 3357 01a8 032B     		cmp	r3, #3
 3358 01aa 03D1     		bne	.L99
 3359              		.loc 1 907 0 is_stmt 0 discriminator 1
 3360 01ac 554B     		ldr	r3, .L111
 3361 01ae 1B7A     		ldrb	r3, [r3, #8]	@ zero_extendqisi2
 3362 01b0 022B     		cmp	r3, #2
 3363 01b2 03D0     		beq	.L100
 3364              	.L99:
 908:.\AdvantageImpl.c ****                         CastMoneyValue(ptr, 0x08);
 3365              		.loc 1 908 0 is_stmt 1
ARM GAS  C:\Users\RECEPC~1\AppData\Local\Temp\ccLZ8WPs.s 			page 76


 3366 01b4 7869     		ldr	r0, [r7, #20]
 3367 01b6 0821     		movs	r1, #8
 3368 01b8 FFF7FEFF 		bl	CastMoneyValue
 3369              	.L100:
 909:.\AdvantageImpl.c ****                     
 910:.\AdvantageImpl.c ****                     FOR(uint8 buffndx = 0, buffndx < 0x06, buffndx++)
 3370              		.loc 1 910 0
 3371 01bc 0023     		movs	r3, #0
 3372 01be 87F82530 		strb	r3, [r7, #37]
 3373 01c2 1AE0     		b	.L101
 3374              	.L102:
 911:.\AdvantageImpl.c ****                         puartdisp->_messagetx[index++] = (0xE0 | (ptr[buffndx] & 0x0F)); //Translat
 3375              		.loc 1 911 0 discriminator 3
 3376 01c4 97F82730 		ldrb	r3, [r7, #39]	@ zero_extendqisi2
 3377 01c8 5A1C     		adds	r2, r3, #1
 3378 01ca 87F82720 		strb	r2, [r7, #39]
 3379 01ce 1946     		mov	r1, r3
 3380 01d0 97F82530 		ldrb	r3, [r7, #37]	@ zero_extendqisi2
 3381 01d4 7A69     		ldr	r2, [r7, #20]
 3382 01d6 1344     		add	r3, r3, r2
 3383 01d8 1B78     		ldrb	r3, [r3]	@ zero_extendqisi2
 3384 01da DBB2     		uxtb	r3, r3
 3385 01dc 03F00F03 		and	r3, r3, #15
 3386 01e0 DBB2     		uxtb	r3, r3
 3387 01e2 63F01F03 		orn	r3, r3, #31
 3388 01e6 DBB2     		uxtb	r3, r3
 3389 01e8 DAB2     		uxtb	r2, r3
 3390 01ea FB69     		ldr	r3, [r7, #28]
 3391 01ec 0B44     		add	r3, r3, r1
 3392 01ee 1A71     		strb	r2, [r3, #4]
 910:.\AdvantageImpl.c ****                         puartdisp->_messagetx[index++] = (0xE0 | (ptr[buffndx] & 0x0F)); //Translat
 3393              		.loc 1 910 0 discriminator 3
 3394 01f0 97F82530 		ldrb	r3, [r7, #37]	@ zero_extendqisi2
 3395 01f4 0133     		adds	r3, r3, #1
 3396 01f6 87F82530 		strb	r3, [r7, #37]
 3397              	.L101:
 910:.\AdvantageImpl.c ****                         puartdisp->_messagetx[index++] = (0xE0 | (ptr[buffndx] & 0x0F)); //Translat
 3398              		.loc 1 910 0 is_stmt 0 discriminator 1
 3399 01fa 97F82530 		ldrb	r3, [r7, #37]	@ zero_extendqisi2
 3400 01fe 052B     		cmp	r3, #5
 3401 0200 E0D9     		bls	.L102
 3402              	.L98:
 3403              	.LBE17:
 3404              	.LBE15:
 3405 0202 A0E0     		b	.L103
 3406              	.L90:
 912:.\AdvantageImpl.c ****                 }
 913:.\AdvantageImpl.c ****             }
 914:.\AdvantageImpl.c ****             else if(_g_dispenserlayoutinfo._displaydigitsmode == 0x07)
 3407              		.loc 1 914 0 is_stmt 1
 3408 0204 3F4B     		ldr	r3, .L111
 3409 0206 1B7C     		ldrb	r3, [r3, #16]	@ zero_extendqisi2
 3410 0208 072B     		cmp	r3, #7
 3411 020a 40F09C80 		bne	.L103
 3412              	.LBB18:
 915:.\AdvantageImpl.c ****             {
 916:.\AdvantageImpl.c ****                 puartdisp->_messagetx[index++] = 0xE1;
ARM GAS  C:\Users\RECEPC~1\AppData\Local\Temp\ccLZ8WPs.s 			page 77


 3413              		.loc 1 916 0
 3414 020e 97F82730 		ldrb	r3, [r7, #39]	@ zero_extendqisi2
 3415 0212 5A1C     		adds	r2, r3, #1
 3416 0214 87F82720 		strb	r2, [r7, #39]
 3417 0218 1A46     		mov	r2, r3
 3418 021a FB69     		ldr	r3, [r7, #28]
 3419 021c 1344     		add	r3, r3, r2
 3420 021e E122     		movs	r2, #225
 3421 0220 1A71     		strb	r2, [r3, #4]
 917:.\AdvantageImpl.c ****                     
 918:.\AdvantageImpl.c ****                 ///THIS IS AN APPLIED CONVENTION ===>> 0x0004 INDEX POSITION WITHIN THE PUMP'S BUFF
 919:.\AdvantageImpl.c ****                 ///THESE CODES MUST BE MATCHED OTHERWISE THE LOGIC WILL BREAKUP THE CODE!
 920:.\AdvantageImpl.c ****                 uint8 transtype = ((0xF0 | ppump->_authorizationinfo._presettype) == 0xF1)? 0xF2: 0
 3422              		.loc 1 920 0
 3423 0222 3B6A     		ldr	r3, [r7, #32]
 3424 0224 93F8A93B 		ldrb	r3, [r3, #2985]
 3425 0228 DBB2     		uxtb	r3, r3
 3426 022a 63F00F03 		orn	r3, r3, #15
 3427 022e DBB2     		uxtb	r3, r3
 3428 0230 F12B     		cmp	r3, #241
 3429 0232 01D1     		bne	.L104
 3430              		.loc 1 920 0 is_stmt 0 discriminator 1
 3431 0234 F223     		movs	r3, #242
 3432 0236 00E0     		b	.L105
 3433              	.L104:
 3434              		.loc 1 920 0 discriminator 2
 3435 0238 F123     		movs	r3, #241
 3436              	.L105:
 3437              		.loc 1 920 0 discriminator 4
 3438 023a FB74     		strb	r3, [r7, #19]
 921:.\AdvantageImpl.c ****                 puartdisp->_messagetx[index++] = transtype;
 3439              		.loc 1 921 0 is_stmt 1 discriminator 4
 3440 023c 97F82730 		ldrb	r3, [r7, #39]	@ zero_extendqisi2
 3441 0240 5A1C     		adds	r2, r3, #1
 3442 0242 87F82720 		strb	r2, [r7, #39]
 3443 0246 1A46     		mov	r2, r3
 3444 0248 FB69     		ldr	r3, [r7, #28]
 3445 024a 1344     		add	r3, r3, r2
 3446 024c FA7C     		ldrb	r2, [r7, #19]
 3447 024e 1A71     		strb	r2, [r3, #4]
 922:.\AdvantageImpl.c **** 
 923:.\AdvantageImpl.c ****                 puartdisp->_messagetx[index++] = 0xF6; //Hose Data next
 3448              		.loc 1 923 0 discriminator 4
 3449 0250 97F82730 		ldrb	r3, [r7, #39]	@ zero_extendqisi2
 3450 0254 5A1C     		adds	r2, r3, #1
 3451 0256 87F82720 		strb	r2, [r7, #39]
 3452 025a 1A46     		mov	r2, r3
 3453 025c FB69     		ldr	r3, [r7, #28]
 3454 025e 1344     		add	r3, r3, r2
 3455 0260 F622     		movs	r2, #246
 3456 0262 1A71     		strb	r2, [r3, #4]
 924:.\AdvantageImpl.c ****                 ///THIS IS AN APPLIED CONVENTION ===>> 0x0006 INDEX POSITION WITHIN THE PUMP'S BUFF
 925:.\AdvantageImpl.c ****                 ///THESE CODES MUST BE MATCHED OTHERWISE THE LOGIC WILL BREAKUP THE CODE!
 926:.\AdvantageImpl.c ****                 puartdisp->_messagetx[index++] = (0xE0 | (ppump->_authorizationinfo._hoseid & 0x0F)
 3457              		.loc 1 926 0 discriminator 4
 3458 0264 97F82730 		ldrb	r3, [r7, #39]	@ zero_extendqisi2
 3459 0268 5A1C     		adds	r2, r3, #1
ARM GAS  C:\Users\RECEPC~1\AppData\Local\Temp\ccLZ8WPs.s 			page 78


 3460 026a 87F82720 		strb	r2, [r7, #39]
 3461 026e 1946     		mov	r1, r3
 3462 0270 3B6A     		ldr	r3, [r7, #32]
 3463 0272 93F8AA3B 		ldrb	r3, [r3, #2986]
 3464 0276 DBB2     		uxtb	r3, r3
 3465 0278 DBB2     		uxtb	r3, r3
 3466 027a 03F00F03 		and	r3, r3, #15
 3467 027e DBB2     		uxtb	r3, r3
 3468 0280 63F01F03 		orn	r3, r3, #31
 3469 0284 DBB2     		uxtb	r3, r3
 3470 0286 DAB2     		uxtb	r2, r3
 3471 0288 FB69     		ldr	r3, [r7, #28]
 3472 028a 0B44     		add	r3, r3, r1
 3473 028c 1A71     		strb	r2, [r3, #4]
 927:.\AdvantageImpl.c ****                 
 928:.\AdvantageImpl.c ****                 puartdisp->_messagetx[index++] = 0xF8; //Preset Data next
 3474              		.loc 1 928 0 discriminator 4
 3475 028e 97F82730 		ldrb	r3, [r7, #39]	@ zero_extendqisi2
 3476 0292 5A1C     		adds	r2, r3, #1
 3477 0294 87F82720 		strb	r2, [r7, #39]
 3478 0298 1A46     		mov	r2, r3
 3479 029a FB69     		ldr	r3, [r7, #28]
 3480 029c 1344     		add	r3, r3, r2
 3481 029e F822     		movs	r2, #248
 3482 02a0 1A71     		strb	r2, [r3, #4]
 929:.\AdvantageImpl.c ****                 //Here we copy the remaining 8 bytes for the preset value
 930:.\AdvantageImpl.c ****                 ///THIS IS AN APPLIED CONVENTION ===>> 0x0008 INDEX POSITION WITHIN THE PUMP'S BUFF
 931:.\AdvantageImpl.c ****                 ///THESE CODES MUST BE MATCHED OTHERWISE THE LOGIC WILL BREAKUP THE CODE!
 932:.\AdvantageImpl.c ****                 memset(PBYTECAST(&ppump->_trasactionbuffer[0x0008]),0x00, 0x0008);
 3483              		.loc 1 932 0 discriminator 4
 3484 02a2 3B6A     		ldr	r3, [r7, #32]
 3485 02a4 2833     		adds	r3, r3, #40
 3486 02a6 1846     		mov	r0, r3
 3487 02a8 0021     		movs	r1, #0
 3488 02aa 0822     		movs	r2, #8
 3489 02ac FFF7FEFF 		bl	memset
 933:.\AdvantageImpl.c ****                 B78AD90CF552D9B30A(ppump->_authorizationinfo._presetamount, PBYTECAST(&ppump->_tras
 3490              		.loc 1 933 0 discriminator 4
 3491 02b0 3B6A     		ldr	r3, [r7, #32]
 3492 02b2 D3F8B03B 		ldr	r3, [r3, #2992]
 3493 02b6 1A46     		mov	r2, r3
 3494 02b8 4FF00003 		mov	r3, #0
 3495 02bc 396A     		ldr	r1, [r7, #32]
 3496 02be 01F12804 		add	r4, r1, #40
 3497 02c2 1046     		mov	r0, r2
 3498 02c4 1946     		mov	r1, r3
 3499 02c6 2246     		mov	r2, r4
 3500 02c8 FFF7FEFF 		bl	B78AD90CF552D9B30A
 934:.\AdvantageImpl.c ****                 char8 *ptr = &ppump->_trasactionbuffer[0x0008];
 3501              		.loc 1 934 0 discriminator 4
 3502 02cc 3B6A     		ldr	r3, [r7, #32]
 3503 02ce 2833     		adds	r3, r3, #40
 3504 02d0 FB60     		str	r3, [r7, #12]
 935:.\AdvantageImpl.c ****                 if(transtype == 0xF1) //Volume PRESET, then multiply by 1000
 3505              		.loc 1 935 0 discriminator 4
 3506 02d2 FB7C     		ldrb	r3, [r7, #19]	@ zero_extendqisi2
 3507 02d4 F12B     		cmp	r3, #241
ARM GAS  C:\Users\RECEPC~1\AppData\Local\Temp\ccLZ8WPs.s 			page 79


 3508 02d6 04D1     		bne	.L106
 936:.\AdvantageImpl.c ****                     CastVolumeValue(ptr, 0x08);
 3509              		.loc 1 936 0
 3510 02d8 F868     		ldr	r0, [r7, #12]
 3511 02da 0821     		movs	r1, #8
 3512 02dc FFF7FEFF 		bl	CastVolumeValue
 3513 02e0 0BE0     		b	.L107
 3514              	.L106:
 937:.\AdvantageImpl.c ****                 else if(!(_g_dispenserlayoutinfo._moneydecimals == 0x03 && _g_dispenserlayoutinfo._
 3515              		.loc 1 937 0
 3516 02e2 084B     		ldr	r3, .L111
 3517 02e4 DB79     		ldrb	r3, [r3, #7]	@ zero_extendqisi2
 3518 02e6 032B     		cmp	r3, #3
 3519 02e8 03D1     		bne	.L108
 3520              		.loc 1 937 0 is_stmt 0 discriminator 1
 3521 02ea 064B     		ldr	r3, .L111
 3522 02ec 1B7A     		ldrb	r3, [r3, #8]	@ zero_extendqisi2
 3523 02ee 022B     		cmp	r3, #2
 3524 02f0 03D0     		beq	.L107
 3525              	.L108:
 938:.\AdvantageImpl.c ****                     CastMoneyValue(ptr, 0x08);
 3526              		.loc 1 938 0 is_stmt 1
 3527 02f2 F868     		ldr	r0, [r7, #12]
 3528 02f4 0821     		movs	r1, #8
 3529 02f6 FFF7FEFF 		bl	CastMoneyValue
 3530              	.L107:
 939:.\AdvantageImpl.c ****                     
 940:.\AdvantageImpl.c ****                 FOR(uint8 buffndx = 0, buffndx < 0x08, buffndx++)
 3531              		.loc 1 940 0
 3532 02fa 0023     		movs	r3, #0
 3533 02fc 87F82430 		strb	r3, [r7, #36]
 3534 0300 1DE0     		b	.L109
 3535              	.L112:
 3536 0302 00BF     		.align	2
 3537              	.L111:
 3538 0304 00000000 		.word	_g_dispenserlayoutinfo
 3539              	.L110:
 941:.\AdvantageImpl.c ****                     puartdisp->_messagetx[index++] = (0xE0 | (ptr[buffndx] & 0x0F)); //Translate fr
 3540              		.loc 1 941 0 discriminator 3
 3541 0308 97F82730 		ldrb	r3, [r7, #39]	@ zero_extendqisi2
 3542 030c 5A1C     		adds	r2, r3, #1
 3543 030e 87F82720 		strb	r2, [r7, #39]
 3544 0312 1946     		mov	r1, r3
 3545 0314 97F82430 		ldrb	r3, [r7, #36]	@ zero_extendqisi2
 3546 0318 FA68     		ldr	r2, [r7, #12]
 3547 031a 1344     		add	r3, r3, r2
 3548 031c 1B78     		ldrb	r3, [r3]	@ zero_extendqisi2
 3549 031e DBB2     		uxtb	r3, r3
 3550 0320 03F00F03 		and	r3, r3, #15
 3551 0324 DBB2     		uxtb	r3, r3
 3552 0326 63F01F03 		orn	r3, r3, #31
 3553 032a DBB2     		uxtb	r3, r3
 3554 032c DAB2     		uxtb	r2, r3
 3555 032e FB69     		ldr	r3, [r7, #28]
 3556 0330 0B44     		add	r3, r3, r1
 3557 0332 1A71     		strb	r2, [r3, #4]
 940:.\AdvantageImpl.c ****                     puartdisp->_messagetx[index++] = (0xE0 | (ptr[buffndx] & 0x0F)); //Translate fr
ARM GAS  C:\Users\RECEPC~1\AppData\Local\Temp\ccLZ8WPs.s 			page 80


 3558              		.loc 1 940 0 discriminator 3
 3559 0334 97F82430 		ldrb	r3, [r7, #36]	@ zero_extendqisi2
 3560 0338 0133     		adds	r3, r3, #1
 3561 033a 87F82430 		strb	r3, [r7, #36]
 3562              	.L109:
 940:.\AdvantageImpl.c ****                     puartdisp->_messagetx[index++] = (0xE0 | (ptr[buffndx] & 0x0F)); //Translate fr
 3563              		.loc 1 940 0 is_stmt 0 discriminator 1
 3564 033e 97F82430 		ldrb	r3, [r7, #36]	@ zero_extendqisi2
 3565 0342 072B     		cmp	r3, #7
 3566 0344 E0D9     		bls	.L110
 3567              	.L103:
 3568              	.LBE18:
 942:.\AdvantageImpl.c ****             }
 943:.\AdvantageImpl.c ****             ppump->_presetdone = true;
 3569              		.loc 1 943 0 is_stmt 1
 3570 0346 3B6A     		ldr	r3, [r7, #32]
 3571 0348 0122     		movs	r2, #1
 3572 034a 1A72     		strb	r2, [r3, #8]
 944:.\AdvantageImpl.c ****             
 945:.\AdvantageImpl.c ****             puartdisp->_messagetx[index++] = LRCn; //LRC next
 3573              		.loc 1 945 0
 3574 034c 97F82730 		ldrb	r3, [r7, #39]	@ zero_extendqisi2
 3575 0350 5A1C     		adds	r2, r3, #1
 3576 0352 87F82720 		strb	r2, [r7, #39]
 3577 0356 1A46     		mov	r2, r3
 3578 0358 FB69     		ldr	r3, [r7, #28]
 3579 035a 1344     		add	r3, r3, r2
 3580 035c FB22     		movs	r2, #251
 3581 035e 1A71     		strb	r2, [r3, #4]
 946:.\AdvantageImpl.c ****             puartdisp->_messagetx[index++] = GetLRC(puartdisp->_messagetx);
 3582              		.loc 1 946 0
 3583 0360 97F82730 		ldrb	r3, [r7, #39]	@ zero_extendqisi2
 3584 0364 5A1C     		adds	r2, r3, #1
 3585 0366 87F82720 		strb	r2, [r7, #39]
 3586 036a 1C46     		mov	r4, r3
 3587 036c FB69     		ldr	r3, [r7, #28]
 3588 036e 0433     		adds	r3, r3, #4
 3589 0370 1846     		mov	r0, r3
 3590 0372 FFF7FEFF 		bl	GetLRC
 3591 0376 0346     		mov	r3, r0
 3592 0378 1A46     		mov	r2, r3
 3593 037a FB69     		ldr	r3, [r7, #28]
 3594 037c 2344     		add	r3, r3, r4
 3595 037e 1A71     		strb	r2, [r3, #4]
 947:.\AdvantageImpl.c ****             puartdisp->_messagetx[index++] = EOM;
 3596              		.loc 1 947 0
 3597 0380 97F82730 		ldrb	r3, [r7, #39]	@ zero_extendqisi2
 3598 0384 5A1C     		adds	r2, r3, #1
 3599 0386 87F82720 		strb	r2, [r7, #39]
 3600 038a 1A46     		mov	r2, r3
 3601 038c FB69     		ldr	r3, [r7, #28]
 3602 038e 1344     		add	r3, r3, r2
 3603 0390 F022     		movs	r2, #240
 3604 0392 1A71     		strb	r2, [r3, #4]
 948:.\AdvantageImpl.c **** ///////////////////////////////////////////////////////////////////////////////////////////////////
 949:.\AdvantageImpl.c ****             
 950:.\AdvantageImpl.c ****             puartdisp->_messagelength = index;
ARM GAS  C:\Users\RECEPC~1\AppData\Local\Temp\ccLZ8WPs.s 			page 81


 3605              		.loc 1 950 0
 3606 0394 97F82730 		ldrb	r3, [r7, #39]	@ zero_extendqisi2
 3607 0398 9AB2     		uxth	r2, r3
 3608 039a FB69     		ldr	r3, [r7, #28]
 3609 039c 5A80     		strh	r2, [r3, #2]	@ movhi
 951:.\AdvantageImpl.c ****             puartdisp->_messagestate = PENDING;
 3610              		.loc 1 951 0
 3611 039e FB69     		ldr	r3, [r7, #28]
 3612 03a0 C222     		movs	r2, #194
 3613 03a2 1A70     		strb	r2, [r3]
 3614              	.L88:
 3615              	.LBE14:
 952:.\AdvantageImpl.c ****         }
 953:.\AdvantageImpl.c ****     }
 954:.\AdvantageImpl.c ****     
 955:.\AdvantageImpl.c **** }
 3616              		.loc 1 955 0
 3617 03a4 2C37     		adds	r7, r7, #44
 3618              		.cfi_def_cfa_offset 12
 3619 03a6 BD46     		mov	sp, r7
 3620              		.cfi_def_cfa_register 13
 3621              		@ sp needed
 3622 03a8 90BD     		pop	{r4, r7, pc}
 3623              		.cfi_endproc
 3624              	.LFE78:
 3625              		.size	PumpCreditPresetHose, .-PumpCreditPresetHose
 3626 03aa 00BF     		.section	.text.PumpPresetHose,"ax",%progbits
 3627              		.align	2
 3628              		.global	PumpPresetHose
 3629              		.thumb
 3630              		.thumb_func
 3631              		.type	PumpPresetHose, %function
 3632              	PumpPresetHose:
 3633              	.LFB79:
 956:.\AdvantageImpl.c **** 
 957:.\AdvantageImpl.c **** //@Created By: HIJH
 958:.\AdvantageImpl.c **** //@Septembre de 2016
 959:.\AdvantageImpl.c **** ///////////////////////////////////////////////////////////////////////////////////////////////////
 960:.\AdvantageImpl.c **** //Preset values will be placed within the SinkMessage's buffer. This is a convention that applies t
 961:.\AdvantageImpl.c **** //all of the available transactions. The pump function must deal with this while it is assembling t
 962:.\AdvantageImpl.c **** //For this message the data comes as follows:
 963:.\AdvantageImpl.c **** // - First byte is the preset type (Volume:1 / Money:2 )
 964:.\AdvantageImpl.c **** // - Second byte is the Hose (A:0, B:1, C:2, D:3)
 965:.\AdvantageImpl.c **** // - Block of 8 bytes for the preset value
 966:.\AdvantageImpl.c **** //This block of data (10 bytes) must be moved to another position within the same buffer (even posi
 967:.\AdvantageImpl.c **** void PumpPresetHose(void *pparam)
 968:.\AdvantageImpl.c **** {
 3634              		.loc 1 968 0
 3635              		.cfi_startproc
 3636              		@ args = 0, pretend = 0, frame = 40
 3637              		@ frame_needed = 1, uses_anonymous_args = 0
 3638 0000 90B5     		push	{r4, r7, lr}
 3639              		.cfi_def_cfa_offset 12
 3640              		.cfi_offset 4, -12
 3641              		.cfi_offset 7, -8
 3642              		.cfi_offset 14, -4
 3643 0002 8BB0     		sub	sp, sp, #44
ARM GAS  C:\Users\RECEPC~1\AppData\Local\Temp\ccLZ8WPs.s 			page 82


 3644              		.cfi_def_cfa_offset 56
 3645 0004 00AF     		add	r7, sp, #0
 3646              		.cfi_def_cfa_register 7
 3647 0006 7860     		str	r0, [r7, #4]
 969:.\AdvantageImpl.c ****     PNEAR_PUMPPTR ppump = (PNEAR_PUMPPTR)pparam;
 3648              		.loc 1 969 0
 3649 0008 7B68     		ldr	r3, [r7, #4]
 3650 000a 3B62     		str	r3, [r7, #32]
 970:.\AdvantageImpl.c ****     if(ppump)
 3651              		.loc 1 970 0
 3652 000c 3B6A     		ldr	r3, [r7, #32]
 3653 000e 002B     		cmp	r3, #0
 3654 0010 00F0AC81 		beq	.L113
 3655              	.LBB19:
 971:.\AdvantageImpl.c ****     {
 972:.\AdvantageImpl.c ****         uint8_t index = 0;        
 3656              		.loc 1 972 0
 3657 0014 0023     		movs	r3, #0
 3658 0016 87F82730 		strb	r3, [r7, #39]
 973:.\AdvantageImpl.c ****         PUARTMESSAGEPTR puartdisp = GetUARTMessageSlot(UART_DISPENSER);
 3659              		.loc 1 973 0
 3660 001a A220     		movs	r0, #162
 3661 001c FFF7FEFF 		bl	GetUARTMessageSlot
 3662 0020 F861     		str	r0, [r7, #28]
 974:.\AdvantageImpl.c ****         memset(ppump->_rxbuffer, 0x00, _PUMP_RX_BUFFER_SIZE_);
 3663              		.loc 1 974 0
 3664 0022 3B6A     		ldr	r3, [r7, #32]
 3665 0024 03F5D073 		add	r3, r3, #416
 3666 0028 1846     		mov	r0, r3
 3667 002a 0021     		movs	r1, #0
 3668 002c 4FF4C072 		mov	r2, #384
 3669 0030 FFF7FEFF 		bl	memset
 975:.\AdvantageImpl.c ****         if(puartdisp)
 3670              		.loc 1 975 0
 3671 0034 FB69     		ldr	r3, [r7, #28]
 3672 0036 002B     		cmp	r3, #0
 3673 0038 00F09881 		beq	.L113
 976:.\AdvantageImpl.c ****         {
 977:.\AdvantageImpl.c **** ///////////////////////////////////////////////////////////////////////////////////////////////////
 978:.\AdvantageImpl.c ****             puartdisp->_messagetx[index++] = SOM;
 3674              		.loc 1 978 0
 3675 003c 97F82730 		ldrb	r3, [r7, #39]	@ zero_extendqisi2
 3676 0040 5A1C     		adds	r2, r3, #1
 3677 0042 87F82720 		strb	r2, [r7, #39]
 3678 0046 1A46     		mov	r2, r3
 3679 0048 FB69     		ldr	r3, [r7, #28]
 3680 004a 1344     		add	r3, r3, r2
 3681 004c FF22     		movs	r2, #255
 3682 004e 1A71     		strb	r2, [r3, #4]
 979:.\AdvantageImpl.c ****             if(_g_dispenserlayoutinfo._displaydigitsmode == 0x06)
 3683              		.loc 1 979 0
 3684 0050 C84B     		ldr	r3, .L136
 3685 0052 1B7C     		ldrb	r3, [r3, #16]	@ zero_extendqisi2
 3686 0054 062B     		cmp	r3, #6
 3687 0056 40F0C580 		bne	.L115
 3688              	.LBB20:
 980:.\AdvantageImpl.c ****             {
ARM GAS  C:\Users\RECEPC~1\AppData\Local\Temp\ccLZ8WPs.s 			page 83


 981:.\AdvantageImpl.c ****                 uint8 transtype = (0xF0 | ((ppump->_trasactionbuffer[0x0004] == 0x0F)? 0x02: 0x01))
 3689              		.loc 1 981 0
 3690 005a 3B6A     		ldr	r3, [r7, #32]
 3691 005c 93F82430 		ldrb	r3, [r3, #36]	@ zero_extendqisi2
 3692 0060 0F2B     		cmp	r3, #15
 3693 0062 01D1     		bne	.L116
 3694              		.loc 1 981 0 is_stmt 0 discriminator 1
 3695 0064 F223     		movs	r3, #242
 3696 0066 00E0     		b	.L117
 3697              	.L116:
 3698              		.loc 1 981 0 discriminator 2
 3699 0068 F123     		movs	r3, #241
 3700              	.L117:
 3701              		.loc 1 981 0 discriminator 4
 3702 006a FB76     		strb	r3, [r7, #27]
 982:.\AdvantageImpl.c ****                 if(transtype == 0xF1)
 3703              		.loc 1 982 0 is_stmt 1 discriminator 4
 3704 006c FB7E     		ldrb	r3, [r7, #27]	@ zero_extendqisi2
 3705 006e F12B     		cmp	r3, #241
 3706 0070 0AD1     		bne	.L118
 983:.\AdvantageImpl.c ****                     puartdisp->_messagetx[index++] = 0xE3;
 3707              		.loc 1 983 0
 3708 0072 97F82730 		ldrb	r3, [r7, #39]	@ zero_extendqisi2
 3709 0076 5A1C     		adds	r2, r3, #1
 3710 0078 87F82720 		strb	r2, [r7, #39]
 3711 007c 1A46     		mov	r2, r3
 3712 007e FB69     		ldr	r3, [r7, #28]
 3713 0080 1344     		add	r3, r3, r2
 3714 0082 E322     		movs	r2, #227
 3715 0084 1A71     		strb	r2, [r3, #4]
 3716 0086 09E0     		b	.L119
 3717              	.L118:
 984:.\AdvantageImpl.c ****                 else
 985:.\AdvantageImpl.c ****                     puartdisp->_messagetx[index++] = 0xE2;
 3718              		.loc 1 985 0
 3719 0088 97F82730 		ldrb	r3, [r7, #39]	@ zero_extendqisi2
 3720 008c 5A1C     		adds	r2, r3, #1
 3721 008e 87F82720 		strb	r2, [r7, #39]
 3722 0092 1A46     		mov	r2, r3
 3723 0094 FB69     		ldr	r3, [r7, #28]
 3724 0096 1344     		add	r3, r3, r2
 3725 0098 E222     		movs	r2, #226
 3726 009a 1A71     		strb	r2, [r3, #4]
 3727              	.L119:
 986:.\AdvantageImpl.c ****                 
 987:.\AdvantageImpl.c ****                 ///THIS IS AN APPLIED CONVENTION ===>> 0x0004 INDEX POSITION WITHIN THE PUMP'S BUFF
 988:.\AdvantageImpl.c ****                 ///THESE CODES MUST BE MATCHED OTHERWISE THE LOGIC WILL BREAKUP THE CODE!
 989:.\AdvantageImpl.c ****                 puartdisp->_messagetx[index++] = transtype;
 3728              		.loc 1 989 0
 3729 009c 97F82730 		ldrb	r3, [r7, #39]	@ zero_extendqisi2
 3730 00a0 5A1C     		adds	r2, r3, #1
 3731 00a2 87F82720 		strb	r2, [r7, #39]
 3732 00a6 1A46     		mov	r2, r3
 3733 00a8 FB69     		ldr	r3, [r7, #28]
 3734 00aa 1344     		add	r3, r3, r2
 3735 00ac FA7E     		ldrb	r2, [r7, #27]
 3736 00ae 1A71     		strb	r2, [r3, #4]
ARM GAS  C:\Users\RECEPC~1\AppData\Local\Temp\ccLZ8WPs.s 			page 84


 990:.\AdvantageImpl.c ****                 puartdisp->_messagetx[index++] = 0xF4;
 3737              		.loc 1 990 0
 3738 00b0 97F82730 		ldrb	r3, [r7, #39]	@ zero_extendqisi2
 3739 00b4 5A1C     		adds	r2, r3, #1
 3740 00b6 87F82720 		strb	r2, [r7, #39]
 3741 00ba 1A46     		mov	r2, r3
 3742 00bc FB69     		ldr	r3, [r7, #28]
 3743 00be 1344     		add	r3, r3, r2
 3744 00c0 F422     		movs	r2, #244
 3745 00c2 1A71     		strb	r2, [r3, #4]
 991:.\AdvantageImpl.c ****                 puartdisp->_messagetx[index++] = 0xF6; //Hose Data next
 3746              		.loc 1 991 0
 3747 00c4 97F82730 		ldrb	r3, [r7, #39]	@ zero_extendqisi2
 3748 00c8 5A1C     		adds	r2, r3, #1
 3749 00ca 87F82720 		strb	r2, [r7, #39]
 3750 00ce 1A46     		mov	r2, r3
 3751 00d0 FB69     		ldr	r3, [r7, #28]
 3752 00d2 1344     		add	r3, r3, r2
 3753 00d4 F622     		movs	r2, #246
 3754 00d6 1A71     		strb	r2, [r3, #4]
 992:.\AdvantageImpl.c ****                 ///THIS IS AN APPLIED CONVENTION ===>> 0x0006 INDEX POSITION WITHIN THE PUMP'S BUFF
 993:.\AdvantageImpl.c ****                 ///THESE CODES MUST BE MATCHED OTHERWISE THE LOGIC WILL BREAKUP THE CODE!
 994:.\AdvantageImpl.c ****                 puartdisp->_messagetx[index++] = (0xE0 | (0x0F & ppump->_trasactionbuffer[GetBuffer
 3755              		.loc 1 994 0
 3756 00d8 97F82730 		ldrb	r3, [r7, #39]	@ zero_extendqisi2
 3757 00dc 5A1C     		adds	r2, r3, #1
 3758 00de 87F82720 		strb	r2, [r7, #39]
 3759 00e2 1C46     		mov	r4, r3
 3760 00e4 0720     		movs	r0, #7
 3761 00e6 FFF7FEFF 		bl	GetBufferIndexFromDisplayID
 3762 00ea 0346     		mov	r3, r0
 3763 00ec 1A46     		mov	r2, r3
 3764 00ee 3B6A     		ldr	r3, [r7, #32]
 3765 00f0 1344     		add	r3, r3, r2
 3766 00f2 93F82030 		ldrb	r3, [r3, #32]	@ zero_extendqisi2
 3767 00f6 03F00F03 		and	r3, r3, #15
 3768 00fa DBB2     		uxtb	r3, r3
 3769 00fc 63F01F03 		orn	r3, r3, #31
 3770 0100 DAB2     		uxtb	r2, r3
 3771 0102 FB69     		ldr	r3, [r7, #28]
 3772 0104 2344     		add	r3, r3, r4
 3773 0106 1A71     		strb	r2, [r3, #4]
 995:.\AdvantageImpl.c ****                 //puartdisp->_messagetx[index++] = 0xE0;
 996:.\AdvantageImpl.c ****                 
 997:.\AdvantageImpl.c ****                 puartdisp->_messagetx[index++] = 0xF8; //Preset Data next
 3774              		.loc 1 997 0
 3775 0108 97F82730 		ldrb	r3, [r7, #39]	@ zero_extendqisi2
 3776 010c 5A1C     		adds	r2, r3, #1
 3777 010e 87F82720 		strb	r2, [r7, #39]
 3778 0112 1A46     		mov	r2, r3
 3779 0114 FB69     		ldr	r3, [r7, #28]
 3780 0116 1344     		add	r3, r3, r2
 3781 0118 F822     		movs	r2, #248
 3782 011a 1A71     		strb	r2, [r3, #4]
 998:.\AdvantageImpl.c ****                 //Here we copy the remaining 8 bytes for the preset value
 999:.\AdvantageImpl.c ****                 ///THIS IS AN APPLIED CONVENTION ===>> 0x0008 INDEX POSITION WITHIN THE PUMP'S BUFF
1000:.\AdvantageImpl.c ****                 ///THESE CODES MUST BE MATCHED OTHERWISE THE LOGIC WILL BREAKUP THE CODE!
ARM GAS  C:\Users\RECEPC~1\AppData\Local\Temp\ccLZ8WPs.s 			page 85


1001:.\AdvantageImpl.c ****                 char8 *ptr = &ppump->_trasactionbuffer[0x0008];
 3783              		.loc 1 1001 0
 3784 011c 3B6A     		ldr	r3, [r7, #32]
 3785 011e 2833     		adds	r3, r3, #40
 3786 0120 7B61     		str	r3, [r7, #20]
1002:.\AdvantageImpl.c ****                 if(transtype == 0xF1) //Volume PRESET, then multiply by 1000
 3787              		.loc 1 1002 0
 3788 0122 FB7E     		ldrb	r3, [r7, #27]	@ zero_extendqisi2
 3789 0124 F12B     		cmp	r3, #241
 3790 0126 2AD1     		bne	.L120
 3791              	.LBB21:
1003:.\AdvantageImpl.c ****                 {
1004:.\AdvantageImpl.c ****                     CastVolumeValue(ptr, 0x08);
 3792              		.loc 1 1004 0
 3793 0128 7869     		ldr	r0, [r7, #20]
 3794 012a 0821     		movs	r1, #8
 3795 012c FFF7FEFF 		bl	CastVolumeValue
1005:.\AdvantageImpl.c ****                     
1006:.\AdvantageImpl.c ****                     FOR(uint8 buffndx = 0, buffndx < 0x05, buffndx++)
 3796              		.loc 1 1006 0
 3797 0130 0023     		movs	r3, #0
 3798 0132 87F82630 		strb	r3, [r7, #38]
 3799 0136 1DE0     		b	.L121
 3800              	.L122:
1007:.\AdvantageImpl.c ****                         puartdisp->_messagetx[index++] = (0xE0 | (ptr[7 - buffndx] & 0x0F)); //Tran
 3801              		.loc 1 1007 0 discriminator 3
 3802 0138 97F82730 		ldrb	r3, [r7, #39]	@ zero_extendqisi2
 3803 013c 5A1C     		adds	r2, r3, #1
 3804 013e 87F82720 		strb	r2, [r7, #39]
 3805 0142 1946     		mov	r1, r3
 3806 0144 97F82630 		ldrb	r3, [r7, #38]	@ zero_extendqisi2
 3807 0148 C3F10703 		rsb	r3, r3, #7
 3808 014c 1A46     		mov	r2, r3
 3809 014e 7B69     		ldr	r3, [r7, #20]
 3810 0150 1344     		add	r3, r3, r2
 3811 0152 1B78     		ldrb	r3, [r3]	@ zero_extendqisi2
 3812 0154 DBB2     		uxtb	r3, r3
 3813 0156 03F00F03 		and	r3, r3, #15
 3814 015a DBB2     		uxtb	r3, r3
 3815 015c 63F01F03 		orn	r3, r3, #31
 3816 0160 DBB2     		uxtb	r3, r3
 3817 0162 DAB2     		uxtb	r2, r3
 3818 0164 FB69     		ldr	r3, [r7, #28]
 3819 0166 0B44     		add	r3, r3, r1
 3820 0168 1A71     		strb	r2, [r3, #4]
1006:.\AdvantageImpl.c ****                         puartdisp->_messagetx[index++] = (0xE0 | (ptr[7 - buffndx] & 0x0F)); //Tran
 3821              		.loc 1 1006 0 discriminator 3
 3822 016a 97F82630 		ldrb	r3, [r7, #38]	@ zero_extendqisi2
 3823 016e 0133     		adds	r3, r3, #1
 3824 0170 87F82630 		strb	r3, [r7, #38]
 3825              	.L121:
1006:.\AdvantageImpl.c ****                         puartdisp->_messagetx[index++] = (0xE0 | (ptr[7 - buffndx] & 0x0F)); //Tran
 3826              		.loc 1 1006 0 is_stmt 0 discriminator 1
 3827 0174 97F82630 		ldrb	r3, [r7, #38]	@ zero_extendqisi2
 3828 0178 042B     		cmp	r3, #4
 3829 017a DDD9     		bls	.L122
 3830              	.LBE21:
ARM GAS  C:\Users\RECEPC~1\AppData\Local\Temp\ccLZ8WPs.s 			page 86


 3831 017c 31E0     		b	.L123
 3832              	.L120:
 3833              	.LBB22:
1008:.\AdvantageImpl.c ****                 }
1009:.\AdvantageImpl.c ****                 else
1010:.\AdvantageImpl.c ****                 {
1011:.\AdvantageImpl.c ****                     if(!(_g_dispenserlayoutinfo._moneydecimals == 0x03 && _g_dispenserlayoutinfo._p
 3834              		.loc 1 1011 0 is_stmt 1
 3835 017e 7D4B     		ldr	r3, .L136
 3836 0180 DB79     		ldrb	r3, [r3, #7]	@ zero_extendqisi2
 3837 0182 032B     		cmp	r3, #3
 3838 0184 03D1     		bne	.L124
 3839              		.loc 1 1011 0 is_stmt 0 discriminator 1
 3840 0186 7B4B     		ldr	r3, .L136
 3841 0188 1B7A     		ldrb	r3, [r3, #8]	@ zero_extendqisi2
 3842 018a 022B     		cmp	r3, #2
 3843 018c 03D0     		beq	.L125
 3844              	.L124:
1012:.\AdvantageImpl.c ****                         CastMoneyValue(ptr, 0x08);
 3845              		.loc 1 1012 0 is_stmt 1
 3846 018e 7869     		ldr	r0, [r7, #20]
 3847 0190 0821     		movs	r1, #8
 3848 0192 FFF7FEFF 		bl	CastMoneyValue
 3849              	.L125:
1013:.\AdvantageImpl.c ****                     
1014:.\AdvantageImpl.c ****                     FOR(uint8 buffndx = 0, buffndx < 0x06, buffndx++)
 3850              		.loc 1 1014 0
 3851 0196 0023     		movs	r3, #0
 3852 0198 87F82530 		strb	r3, [r7, #37]
 3853 019c 1DE0     		b	.L126
 3854              	.L127:
1015:.\AdvantageImpl.c ****                         puartdisp->_messagetx[index++] = (0xE0 | (ptr[7 - buffndx] & 0x0F)); //Tran
 3855              		.loc 1 1015 0 discriminator 3
 3856 019e 97F82730 		ldrb	r3, [r7, #39]	@ zero_extendqisi2
 3857 01a2 5A1C     		adds	r2, r3, #1
 3858 01a4 87F82720 		strb	r2, [r7, #39]
 3859 01a8 1946     		mov	r1, r3
 3860 01aa 97F82530 		ldrb	r3, [r7, #37]	@ zero_extendqisi2
 3861 01ae C3F10703 		rsb	r3, r3, #7
 3862 01b2 1A46     		mov	r2, r3
 3863 01b4 7B69     		ldr	r3, [r7, #20]
 3864 01b6 1344     		add	r3, r3, r2
 3865 01b8 1B78     		ldrb	r3, [r3]	@ zero_extendqisi2
 3866 01ba DBB2     		uxtb	r3, r3
 3867 01bc 03F00F03 		and	r3, r3, #15
 3868 01c0 DBB2     		uxtb	r3, r3
 3869 01c2 63F01F03 		orn	r3, r3, #31
 3870 01c6 DBB2     		uxtb	r3, r3
 3871 01c8 DAB2     		uxtb	r2, r3
 3872 01ca FB69     		ldr	r3, [r7, #28]
 3873 01cc 0B44     		add	r3, r3, r1
 3874 01ce 1A71     		strb	r2, [r3, #4]
1014:.\AdvantageImpl.c ****                         puartdisp->_messagetx[index++] = (0xE0 | (ptr[7 - buffndx] & 0x0F)); //Tran
 3875              		.loc 1 1014 0 discriminator 3
 3876 01d0 97F82530 		ldrb	r3, [r7, #37]	@ zero_extendqisi2
 3877 01d4 0133     		adds	r3, r3, #1
 3878 01d6 87F82530 		strb	r3, [r7, #37]
ARM GAS  C:\Users\RECEPC~1\AppData\Local\Temp\ccLZ8WPs.s 			page 87


 3879              	.L126:
1014:.\AdvantageImpl.c ****                         puartdisp->_messagetx[index++] = (0xE0 | (ptr[7 - buffndx] & 0x0F)); //Tran
 3880              		.loc 1 1014 0 is_stmt 0 discriminator 1
 3881 01da 97F82530 		ldrb	r3, [r7, #37]	@ zero_extendqisi2
 3882 01de 052B     		cmp	r3, #5
 3883 01e0 DDD9     		bls	.L127
 3884              	.L123:
 3885              	.LBE22:
 3886              	.LBE20:
 3887 01e2 94E0     		b	.L128
 3888              	.L115:
1016:.\AdvantageImpl.c ****                 }
1017:.\AdvantageImpl.c ****             }
1018:.\AdvantageImpl.c ****             else if(_g_dispenserlayoutinfo._displaydigitsmode == 0x07)
 3889              		.loc 1 1018 0 is_stmt 1
 3890 01e4 634B     		ldr	r3, .L136
 3891 01e6 1B7C     		ldrb	r3, [r3, #16]	@ zero_extendqisi2
 3892 01e8 072B     		cmp	r3, #7
 3893 01ea 40F09080 		bne	.L128
 3894              	.LBB23:
1019:.\AdvantageImpl.c ****             {
1020:.\AdvantageImpl.c ****                 puartdisp->_messagetx[index++] = 0xE1;
 3895              		.loc 1 1020 0
 3896 01ee 97F82730 		ldrb	r3, [r7, #39]	@ zero_extendqisi2
 3897 01f2 5A1C     		adds	r2, r3, #1
 3898 01f4 87F82720 		strb	r2, [r7, #39]
 3899 01f8 1A46     		mov	r2, r3
 3900 01fa FB69     		ldr	r3, [r7, #28]
 3901 01fc 1344     		add	r3, r3, r2
 3902 01fe E122     		movs	r2, #225
 3903 0200 1A71     		strb	r2, [r3, #4]
1021:.\AdvantageImpl.c ****                     
1022:.\AdvantageImpl.c ****                 ///THIS IS AN APPLIED CONVENTION ===>> 0x0004 INDEX POSITION WITHIN THE PUMP'S BUFF
1023:.\AdvantageImpl.c ****                 ///THESE CODES MUST BE MATCHED OTHERWISE THE LOGIC WILL BREAKUP THE CODE!
1024:.\AdvantageImpl.c ****                 uint8 transtype = (0xF0 | ((ppump->_trasactionbuffer[0x0004] == 0x0F)? 0x02: 0x01))
 3904              		.loc 1 1024 0
 3905 0202 3B6A     		ldr	r3, [r7, #32]
 3906 0204 93F82430 		ldrb	r3, [r3, #36]	@ zero_extendqisi2
 3907 0208 0F2B     		cmp	r3, #15
 3908 020a 01D1     		bne	.L129
 3909              		.loc 1 1024 0 is_stmt 0 discriminator 1
 3910 020c F223     		movs	r3, #242
 3911 020e 00E0     		b	.L130
 3912              	.L129:
 3913              		.loc 1 1024 0 discriminator 2
 3914 0210 F123     		movs	r3, #241
 3915              	.L130:
 3916              		.loc 1 1024 0 discriminator 4
 3917 0212 FB74     		strb	r3, [r7, #19]
1025:.\AdvantageImpl.c ****                 puartdisp->_messagetx[index++] = transtype;
 3918              		.loc 1 1025 0 is_stmt 1 discriminator 4
 3919 0214 97F82730 		ldrb	r3, [r7, #39]	@ zero_extendqisi2
 3920 0218 5A1C     		adds	r2, r3, #1
 3921 021a 87F82720 		strb	r2, [r7, #39]
 3922 021e 1A46     		mov	r2, r3
 3923 0220 FB69     		ldr	r3, [r7, #28]
 3924 0222 1344     		add	r3, r3, r2
ARM GAS  C:\Users\RECEPC~1\AppData\Local\Temp\ccLZ8WPs.s 			page 88


 3925 0224 FA7C     		ldrb	r2, [r7, #19]
 3926 0226 1A71     		strb	r2, [r3, #4]
1026:.\AdvantageImpl.c ****                 puartdisp->_messagetx[index++] = 0xF4;
 3927              		.loc 1 1026 0 discriminator 4
 3928 0228 97F82730 		ldrb	r3, [r7, #39]	@ zero_extendqisi2
 3929 022c 5A1C     		adds	r2, r3, #1
 3930 022e 87F82720 		strb	r2, [r7, #39]
 3931 0232 1A46     		mov	r2, r3
 3932 0234 FB69     		ldr	r3, [r7, #28]
 3933 0236 1344     		add	r3, r3, r2
 3934 0238 F422     		movs	r2, #244
 3935 023a 1A71     		strb	r2, [r3, #4]
1027:.\AdvantageImpl.c ****                 puartdisp->_messagetx[index++] = 0xF6; //Hose Data next
 3936              		.loc 1 1027 0 discriminator 4
 3937 023c 97F82730 		ldrb	r3, [r7, #39]	@ zero_extendqisi2
 3938 0240 5A1C     		adds	r2, r3, #1
 3939 0242 87F82720 		strb	r2, [r7, #39]
 3940 0246 1A46     		mov	r2, r3
 3941 0248 FB69     		ldr	r3, [r7, #28]
 3942 024a 1344     		add	r3, r3, r2
 3943 024c F622     		movs	r2, #246
 3944 024e 1A71     		strb	r2, [r3, #4]
1028:.\AdvantageImpl.c ****                 ///THIS IS AN APPLIED CONVENTION ===>> 0x0006 INDEX POSITION WITHIN THE PUMP'S BUFF
1029:.\AdvantageImpl.c ****                 ///THESE CODES MUST BE MATCHED OTHERWISE THE LOGIC WILL BREAKUP THE CODE!
1030:.\AdvantageImpl.c ****                 puartdisp->_messagetx[index++] = (0xE0 | (0x0F & ppump->_trasactionbuffer[GetBuffer
 3945              		.loc 1 1030 0 discriminator 4
 3946 0250 97F82730 		ldrb	r3, [r7, #39]	@ zero_extendqisi2
 3947 0254 5A1C     		adds	r2, r3, #1
 3948 0256 87F82720 		strb	r2, [r7, #39]
 3949 025a 1C46     		mov	r4, r3
 3950 025c 0720     		movs	r0, #7
 3951 025e FFF7FEFF 		bl	GetBufferIndexFromDisplayID
 3952 0262 0346     		mov	r3, r0
 3953 0264 1A46     		mov	r2, r3
 3954 0266 3B6A     		ldr	r3, [r7, #32]
 3955 0268 1344     		add	r3, r3, r2
 3956 026a 93F82030 		ldrb	r3, [r3, #32]	@ zero_extendqisi2
 3957 026e 03F00F03 		and	r3, r3, #15
 3958 0272 DBB2     		uxtb	r3, r3
 3959 0274 63F01F03 		orn	r3, r3, #31
 3960 0278 DAB2     		uxtb	r2, r3
 3961 027a FB69     		ldr	r3, [r7, #28]
 3962 027c 2344     		add	r3, r3, r4
 3963 027e 1A71     		strb	r2, [r3, #4]
1031:.\AdvantageImpl.c ****                 //puartdisp->_messagetx[index++] = 0xE0;
1032:.\AdvantageImpl.c ****                 
1033:.\AdvantageImpl.c ****                 puartdisp->_messagetx[index++] = 0xF8; //Preset Data next
 3964              		.loc 1 1033 0 discriminator 4
 3965 0280 97F82730 		ldrb	r3, [r7, #39]	@ zero_extendqisi2
 3966 0284 5A1C     		adds	r2, r3, #1
 3967 0286 87F82720 		strb	r2, [r7, #39]
 3968 028a 1A46     		mov	r2, r3
 3969 028c FB69     		ldr	r3, [r7, #28]
 3970 028e 1344     		add	r3, r3, r2
 3971 0290 F822     		movs	r2, #248
 3972 0292 1A71     		strb	r2, [r3, #4]
1034:.\AdvantageImpl.c ****                 //Here we copy the remaining 8 bytes for the preset value
ARM GAS  C:\Users\RECEPC~1\AppData\Local\Temp\ccLZ8WPs.s 			page 89


1035:.\AdvantageImpl.c ****                 ///THIS IS AN APPLIED CONVENTION ===>> 0x0008 INDEX POSITION WITHIN THE PUMP'S BUFF
1036:.\AdvantageImpl.c ****                 ///THESE CODES MUST BE MATCHED OTHERWISE THE LOGIC WILL BREAKUP THE CODE!
1037:.\AdvantageImpl.c ****                 char8 *ptr = &ppump->_trasactionbuffer[0x0008];
 3973              		.loc 1 1037 0 discriminator 4
 3974 0294 3B6A     		ldr	r3, [r7, #32]
 3975 0296 2833     		adds	r3, r3, #40
 3976 0298 FB60     		str	r3, [r7, #12]
1038:.\AdvantageImpl.c ****                 if(transtype == 0xF1) //Volume PRESET, then multiply by 1000
 3977              		.loc 1 1038 0 discriminator 4
 3978 029a FB7C     		ldrb	r3, [r7, #19]	@ zero_extendqisi2
 3979 029c F12B     		cmp	r3, #241
 3980 029e 04D1     		bne	.L131
1039:.\AdvantageImpl.c ****                     CastVolumeValue(ptr, 0x08);
 3981              		.loc 1 1039 0
 3982 02a0 F868     		ldr	r0, [r7, #12]
 3983 02a2 0821     		movs	r1, #8
 3984 02a4 FFF7FEFF 		bl	CastVolumeValue
 3985 02a8 0BE0     		b	.L132
 3986              	.L131:
1040:.\AdvantageImpl.c ****                 else if(!(_g_dispenserlayoutinfo._moneydecimals == 0x03 && _g_dispenserlayoutinfo._
 3987              		.loc 1 1040 0
 3988 02aa 324B     		ldr	r3, .L136
 3989 02ac DB79     		ldrb	r3, [r3, #7]	@ zero_extendqisi2
 3990 02ae 032B     		cmp	r3, #3
 3991 02b0 03D1     		bne	.L133
 3992              		.loc 1 1040 0 is_stmt 0 discriminator 1
 3993 02b2 304B     		ldr	r3, .L136
 3994 02b4 1B7A     		ldrb	r3, [r3, #8]	@ zero_extendqisi2
 3995 02b6 022B     		cmp	r3, #2
 3996 02b8 03D0     		beq	.L132
 3997              	.L133:
1041:.\AdvantageImpl.c ****                     CastMoneyValue(ptr, 0x08);
 3998              		.loc 1 1041 0 is_stmt 1
 3999 02ba F868     		ldr	r0, [r7, #12]
 4000 02bc 0821     		movs	r1, #8
 4001 02be FFF7FEFF 		bl	CastMoneyValue
 4002              	.L132:
1042:.\AdvantageImpl.c ****                     
1043:.\AdvantageImpl.c ****                 FOR(uint8 buffndx = 0, buffndx < 0x08, buffndx++)
 4003              		.loc 1 1043 0
 4004 02c2 0023     		movs	r3, #0
 4005 02c4 87F82430 		strb	r3, [r7, #36]
 4006 02c8 1DE0     		b	.L134
 4007              	.L135:
1044:.\AdvantageImpl.c ****                     puartdisp->_messagetx[index++] = (0xE0 | (ptr[7 - buffndx] & 0x0F)); //Translat
 4008              		.loc 1 1044 0 discriminator 3
 4009 02ca 97F82730 		ldrb	r3, [r7, #39]	@ zero_extendqisi2
 4010 02ce 5A1C     		adds	r2, r3, #1
 4011 02d0 87F82720 		strb	r2, [r7, #39]
 4012 02d4 1946     		mov	r1, r3
 4013 02d6 97F82430 		ldrb	r3, [r7, #36]	@ zero_extendqisi2
 4014 02da C3F10703 		rsb	r3, r3, #7
 4015 02de 1A46     		mov	r2, r3
 4016 02e0 FB68     		ldr	r3, [r7, #12]
 4017 02e2 1344     		add	r3, r3, r2
 4018 02e4 1B78     		ldrb	r3, [r3]	@ zero_extendqisi2
 4019 02e6 DBB2     		uxtb	r3, r3
ARM GAS  C:\Users\RECEPC~1\AppData\Local\Temp\ccLZ8WPs.s 			page 90


 4020 02e8 03F00F03 		and	r3, r3, #15
 4021 02ec DBB2     		uxtb	r3, r3
 4022 02ee 63F01F03 		orn	r3, r3, #31
 4023 02f2 DBB2     		uxtb	r3, r3
 4024 02f4 DAB2     		uxtb	r2, r3
 4025 02f6 FB69     		ldr	r3, [r7, #28]
 4026 02f8 0B44     		add	r3, r3, r1
 4027 02fa 1A71     		strb	r2, [r3, #4]
1043:.\AdvantageImpl.c ****                     puartdisp->_messagetx[index++] = (0xE0 | (ptr[7 - buffndx] & 0x0F)); //Translat
 4028              		.loc 1 1043 0 discriminator 3
 4029 02fc 97F82430 		ldrb	r3, [r7, #36]	@ zero_extendqisi2
 4030 0300 0133     		adds	r3, r3, #1
 4031 0302 87F82430 		strb	r3, [r7, #36]
 4032              	.L134:
1043:.\AdvantageImpl.c ****                     puartdisp->_messagetx[index++] = (0xE0 | (ptr[7 - buffndx] & 0x0F)); //Translat
 4033              		.loc 1 1043 0 is_stmt 0 discriminator 1
 4034 0306 97F82430 		ldrb	r3, [r7, #36]	@ zero_extendqisi2
 4035 030a 072B     		cmp	r3, #7
 4036 030c DDD9     		bls	.L135
 4037              	.L128:
 4038              	.LBE23:
1045:.\AdvantageImpl.c ****             }
1046:.\AdvantageImpl.c ****             ppump->_presetdone = true;
 4039              		.loc 1 1046 0 is_stmt 1
 4040 030e 3B6A     		ldr	r3, [r7, #32]
 4041 0310 0122     		movs	r2, #1
 4042 0312 1A72     		strb	r2, [r3, #8]
1047:.\AdvantageImpl.c ****             
1048:.\AdvantageImpl.c ****             puartdisp->_messagetx[index++] = LRCn; //LRC next
 4043              		.loc 1 1048 0
 4044 0314 97F82730 		ldrb	r3, [r7, #39]	@ zero_extendqisi2
 4045 0318 5A1C     		adds	r2, r3, #1
 4046 031a 87F82720 		strb	r2, [r7, #39]
 4047 031e 1A46     		mov	r2, r3
 4048 0320 FB69     		ldr	r3, [r7, #28]
 4049 0322 1344     		add	r3, r3, r2
 4050 0324 FB22     		movs	r2, #251
 4051 0326 1A71     		strb	r2, [r3, #4]
1049:.\AdvantageImpl.c ****             puartdisp->_messagetx[index++] = GetLRC(puartdisp->_messagetx);
 4052              		.loc 1 1049 0
 4053 0328 97F82730 		ldrb	r3, [r7, #39]	@ zero_extendqisi2
 4054 032c 5A1C     		adds	r2, r3, #1
 4055 032e 87F82720 		strb	r2, [r7, #39]
 4056 0332 1C46     		mov	r4, r3
 4057 0334 FB69     		ldr	r3, [r7, #28]
 4058 0336 0433     		adds	r3, r3, #4
 4059 0338 1846     		mov	r0, r3
 4060 033a FFF7FEFF 		bl	GetLRC
 4061 033e 0346     		mov	r3, r0
 4062 0340 1A46     		mov	r2, r3
 4063 0342 FB69     		ldr	r3, [r7, #28]
 4064 0344 2344     		add	r3, r3, r4
 4065 0346 1A71     		strb	r2, [r3, #4]
1050:.\AdvantageImpl.c ****             puartdisp->_messagetx[index++] = EOM;
 4066              		.loc 1 1050 0
 4067 0348 97F82730 		ldrb	r3, [r7, #39]	@ zero_extendqisi2
 4068 034c 5A1C     		adds	r2, r3, #1
ARM GAS  C:\Users\RECEPC~1\AppData\Local\Temp\ccLZ8WPs.s 			page 91


 4069 034e 87F82720 		strb	r2, [r7, #39]
 4070 0352 1A46     		mov	r2, r3
 4071 0354 FB69     		ldr	r3, [r7, #28]
 4072 0356 1344     		add	r3, r3, r2
 4073 0358 F022     		movs	r2, #240
 4074 035a 1A71     		strb	r2, [r3, #4]
1051:.\AdvantageImpl.c **** ///////////////////////////////////////////////////////////////////////////////////////////////////
1052:.\AdvantageImpl.c ****             
1053:.\AdvantageImpl.c ****             puartdisp->_messagelength = index;
 4075              		.loc 1 1053 0
 4076 035c 97F82730 		ldrb	r3, [r7, #39]	@ zero_extendqisi2
 4077 0360 9AB2     		uxth	r2, r3
 4078 0362 FB69     		ldr	r3, [r7, #28]
 4079 0364 5A80     		strh	r2, [r3, #2]	@ movhi
1054:.\AdvantageImpl.c ****             puartdisp->_messagestate = PENDING;
 4080              		.loc 1 1054 0
 4081 0366 FB69     		ldr	r3, [r7, #28]
 4082 0368 C222     		movs	r2, #194
 4083 036a 1A70     		strb	r2, [r3]
 4084              	.L113:
 4085              	.LBE19:
1055:.\AdvantageImpl.c ****         }
1056:.\AdvantageImpl.c ****     }
1057:.\AdvantageImpl.c ****     
1058:.\AdvantageImpl.c **** }
 4086              		.loc 1 1058 0
 4087 036c 2C37     		adds	r7, r7, #44
 4088              		.cfi_def_cfa_offset 12
 4089 036e BD46     		mov	sp, r7
 4090              		.cfi_def_cfa_register 13
 4091              		@ sp needed
 4092 0370 90BD     		pop	{r4, r7, pc}
 4093              	.L137:
 4094 0372 00BF     		.align	2
 4095              	.L136:
 4096 0374 00000000 		.word	_g_dispenserlayoutinfo
 4097              		.cfi_endproc
 4098              	.LFE79:
 4099              		.size	PumpPresetHose, .-PumpPresetHose
 4100              		.section	.text.PumpPresetNoHose,"ax",%progbits
 4101              		.align	2
 4102              		.global	PumpPresetNoHose
 4103              		.thumb
 4104              		.thumb_func
 4105              		.type	PumpPresetNoHose, %function
 4106              	PumpPresetNoHose:
 4107              	.LFB80:
1059:.\AdvantageImpl.c **** 
1060:.\AdvantageImpl.c **** //@Created By: HIJH
1061:.\AdvantageImpl.c **** //@Septembre de 2016
1062:.\AdvantageImpl.c **** ///////////////////////////////////////////////////////////////////////////////////////////////////
1063:.\AdvantageImpl.c **** //Preset values will be placed within the SinkMessage's buffer. This is a convention that applies t
1064:.\AdvantageImpl.c **** //all of the available transactions. The pump function must deal with this while it is assembling t
1065:.\AdvantageImpl.c **** //For this message the data comes as follows:
1066:.\AdvantageImpl.c **** // - First byte is the preset type (Volume:1 / Money:2 )
1067:.\AdvantageImpl.c **** // - Block of 8 bytes for the preset value
