ARM GAS  C:\Users\RECEPC~1\AppData\Local\Temp\ccZZcwiB.s 			page 1


   1              		.syntax unified
   2              		.cpu cortex-m3
   3              		.fpu softvfp
   4              		.eabi_attribute 20, 1
   5              		.eabi_attribute 21, 1
   6              		.eabi_attribute 23, 3
   7              		.eabi_attribute 24, 1
   8              		.eabi_attribute 25, 1
   9              		.eabi_attribute 26, 1
  10              		.eabi_attribute 30, 6
  11              		.eabi_attribute 34, 1
  12              		.eabi_attribute 18, 4
  13              		.thumb
  14              		.file	"AdvantageImpl.c"
  15              		.text
  16              	.Ltext0:
  17              		.cfi_sections	.debug_frame
  18              		.section	.text.AcquirePumpStateResponse,"ax",%progbits
  19              		.align	2
  20              		.global	AcquirePumpStateResponse
  21              		.thumb
  22              		.thumb_func
  23              		.type	AcquirePumpStateResponse, %function
  24              	AcquirePumpStateResponse:
  25              	.LFB63:
  26              		.file 1 ".\\AdvantageImpl.c"
   1:.\AdvantageImpl.c **** /* ========================================
   2:.\AdvantageImpl.c ****  *
   3:.\AdvantageImpl.c ****  * Copyright INSEPET SISTEMAS, 2016
   4:.\AdvantageImpl.c ****  * All Rights Reserved
   5:.\AdvantageImpl.c ****  * UNPUBLISHED, LICENSED SOFTWARE.
   6:.\AdvantageImpl.c ****  *
   7:.\AdvantageImpl.c ****  * CONFIDENTIAL AND PROPRIETARY INFORMATION
   8:.\AdvantageImpl.c ****  * WHICH IS THE PROPERTY OF your company.
   9:.\AdvantageImpl.c ****  *
  10:.\AdvantageImpl.c ****  * ========================================
  11:.\AdvantageImpl.c **** @Created By: HIJH
  12:.\AdvantageImpl.c **** @Date: Novembre de 2016
  13:.\AdvantageImpl.c **** */
  14:.\AdvantageImpl.c **** 
  15:.\AdvantageImpl.c **** #include <project.h>
  16:.\AdvantageImpl.c **** #include "GlobalDefinitions.h"
  17:.\AdvantageImpl.c **** #include "SinkManager.h"
  18:.\AdvantageImpl.c **** #include "SinkObservables.h"
  19:.\AdvantageImpl.c **** #include "UARTManager.h"
  20:.\AdvantageImpl.c **** #include "Display.h"
  21:.\AdvantageImpl.c **** #include "Dispenser.h"
  22:.\AdvantageImpl.c **** #include "Eeprom.h"
  23:.\AdvantageImpl.c **** #include "RFLink.h"
  24:.\AdvantageImpl.c **** #include "Printer.h"
  25:.\AdvantageImpl.c **** #include "Rtc.h"
  26:.\AdvantageImpl.c **** 
  27:.\AdvantageImpl.c **** #ifdef ADVANTAGE_PROTOCOL
  28:.\AdvantageImpl.c **** 
  29:.\AdvantageImpl.c **** uint8_t FindLRC(char8 *_pbuffer);
  30:.\AdvantageImpl.c **** uint8_t GetLRC(char8 *_pbuffer);
  31:.\AdvantageImpl.c **** 
ARM GAS  C:\Users\RECEPC~1\AppData\Local\Temp\ccZZcwiB.s 			page 2


  32:.\AdvantageImpl.c **** ///////////////////////////////////////////////////////////////////////////////////////////////////
  33:.\AdvantageImpl.c **** //////////////////////                 BLOCK OF AVAILABLE RESPONSE HANDLERS
  34:.\AdvantageImpl.c **** ///////////////////////////////////////////////////////////////////////////////////////////////////
  35:.\AdvantageImpl.c **** 
  36:.\AdvantageImpl.c **** void AdvantageActivateProgramming(LPVOID pparam);
  37:.\AdvantageImpl.c **** extern PNEARDISPENSERACTIVATEPROGRAMMING _g_ptractprogramming;
  38:.\AdvantageImpl.c **** 
  39:.\AdvantageImpl.c **** //@Created By: HIJH
  40:.\AdvantageImpl.c **** //@Date: Septembre de 2016
  41:.\AdvantageImpl.c **** //Updates the pump state into the pump structure
  42:.\AdvantageImpl.c **** void AcquirePumpStateResponse(void *pparam)
  43:.\AdvantageImpl.c **** {
  27              		.loc 1 43 0
  28              		.cfi_startproc
  29              		@ args = 0, pretend = 0, frame = 16
  30              		@ frame_needed = 1, uses_anonymous_args = 0
  31 0000 80B5     		push	{r7, lr}
  32              		.cfi_def_cfa_offset 8
  33              		.cfi_offset 7, -8
  34              		.cfi_offset 14, -4
  35 0002 84B0     		sub	sp, sp, #16
  36              		.cfi_def_cfa_offset 24
  37 0004 00AF     		add	r7, sp, #0
  38              		.cfi_def_cfa_register 7
  39 0006 7860     		str	r0, [r7, #4]
  44:.\AdvantageImpl.c ****     PPUMPTRANSACTIONJOBCONTEXTPTR pjob = (PPUMPTRANSACTIONJOBCONTEXTPTR)pparam;
  40              		.loc 1 44 0
  41 0008 7B68     		ldr	r3, [r7, #4]
  42 000a FB60     		str	r3, [r7, #12]
  45:.\AdvantageImpl.c ****     if(pjob)
  43              		.loc 1 45 0
  44 000c FB68     		ldr	r3, [r7, #12]
  45 000e 002B     		cmp	r3, #0
  46 0010 4ED0     		beq	.L1
  47              	.LBB2:
  46:.\AdvantageImpl.c ****     {
  47:.\AdvantageImpl.c ****         uint8 prevstate = pjob->_ppump->_pumpstate;
  48              		.loc 1 47 0
  49 0012 FB68     		ldr	r3, [r7, #12]
  50 0014 DB69     		ldr	r3, [r3, #28]
  51 0016 9B78     		ldrb	r3, [r3, #2]
  52 0018 FB72     		strb	r3, [r7, #11]
  48:.\AdvantageImpl.c ****         pjob->_ppump->_pumpstate = ((pjob->_ppump->_rxbuffer[0x00] & 0xF0) >> 4);
  53              		.loc 1 48 0
  54 001a FB68     		ldr	r3, [r7, #12]
  55 001c DB69     		ldr	r3, [r3, #28]
  56 001e FA68     		ldr	r2, [r7, #12]
  57 0020 D269     		ldr	r2, [r2, #28]
  58 0022 92F8A021 		ldrb	r2, [r2, #416]	@ zero_extendqisi2
  59 0026 1209     		lsrs	r2, r2, #4
  60 0028 D2B2     		uxtb	r2, r2
  61 002a 9A70     		strb	r2, [r3, #2]
  49:.\AdvantageImpl.c ****         if(pjob->_ppump->PumpValidState(pjob->_ppump))
  62              		.loc 1 49 0
  63 002c FB68     		ldr	r3, [r7, #12]
  64 002e DB69     		ldr	r3, [r3, #28]
  65 0030 D3F85839 		ldr	r3, [r3, #2392]
ARM GAS  C:\Users\RECEPC~1\AppData\Local\Temp\ccZZcwiB.s 			page 3


  66 0034 FA68     		ldr	r2, [r7, #12]
  67 0036 D269     		ldr	r2, [r2, #28]
  68 0038 1046     		mov	r0, r2
  69 003a 9847     		blx	r3
  70 003c 0346     		mov	r3, r0
  71 003e 002B     		cmp	r3, #0
  72 0040 04D0     		beq	.L3
  50:.\AdvantageImpl.c ****             pjob->_ppump->_transhealth = _PUMP_OK_;
  73              		.loc 1 50 0
  74 0042 FB68     		ldr	r3, [r7, #12]
  75 0044 DB69     		ldr	r3, [r3, #28]
  76 0046 0122     		movs	r2, #1
  77 0048 1A76     		strb	r2, [r3, #24]
  78 004a 07E0     		b	.L4
  79              	.L3:
  51:.\AdvantageImpl.c ****         else
  52:.\AdvantageImpl.c ****         {
  53:.\AdvantageImpl.c ****             pjob->_ppump->_transhealth = _PUMP_FAIL_;
  80              		.loc 1 53 0
  81 004c FB68     		ldr	r3, [r7, #12]
  82 004e DB69     		ldr	r3, [r3, #28]
  83 0050 0222     		movs	r2, #2
  84 0052 1A76     		strb	r2, [r3, #24]
  54:.\AdvantageImpl.c ****             pjob->_ppump->_pumpstate = prevstate;
  85              		.loc 1 54 0
  86 0054 FB68     		ldr	r3, [r7, #12]
  87 0056 DB69     		ldr	r3, [r3, #28]
  88 0058 FA7A     		ldrb	r2, [r7, #11]
  89 005a 9A70     		strb	r2, [r3, #2]
  90              	.L4:
  55:.\AdvantageImpl.c ****         }
  56:.\AdvantageImpl.c ****         
  57:.\AdvantageImpl.c ****         if(pjob->_ppump->_pumpstate == PUMP_CALLING)
  91              		.loc 1 57 0
  92 005c FB68     		ldr	r3, [r7, #12]
  93 005e DB69     		ldr	r3, [r3, #28]
  94 0060 9B78     		ldrb	r3, [r3, #2]
  95 0062 DBB2     		uxtb	r3, r3
  96 0064 072B     		cmp	r3, #7
  97 0066 03D1     		bne	.L5
  58:.\AdvantageImpl.c ****             pjob->_ppump->_pumplocked = false;
  98              		.loc 1 58 0
  99 0068 FB68     		ldr	r3, [r7, #12]
 100 006a DB69     		ldr	r3, [r3, #28]
 101 006c 0022     		movs	r2, #0
 102 006e 5A72     		strb	r2, [r3, #9]
 103              	.L5:
  59:.\AdvantageImpl.c ****         
  60:.\AdvantageImpl.c ****         if((pjob->_ppump->_pumpstate == PUMP_IDLE || pjob->_ppump->_pumpstate == PUMP_CALLING) && 
 104              		.loc 1 60 0
 105 0070 FB68     		ldr	r3, [r7, #12]
 106 0072 DB69     		ldr	r3, [r3, #28]
 107 0074 9B78     		ldrb	r3, [r3, #2]
 108 0076 DBB2     		uxtb	r3, r3
 109 0078 062B     		cmp	r3, #6
 110 007a 05D0     		beq	.L6
 111              		.loc 1 60 0 is_stmt 0 discriminator 2
ARM GAS  C:\Users\RECEPC~1\AppData\Local\Temp\ccZZcwiB.s 			page 4


 112 007c FB68     		ldr	r3, [r7, #12]
 113 007e DB69     		ldr	r3, [r3, #28]
 114 0080 9B78     		ldrb	r3, [r3, #2]
 115 0082 DBB2     		uxtb	r3, r3
 116 0084 072B     		cmp	r3, #7
 117 0086 0FD1     		bne	.L7
 118              	.L6:
 119              		.loc 1 60 0 discriminator 3
 120 0088 FB7A     		ldrb	r3, [r7, #11]	@ zero_extendqisi2
 121 008a 0B2B     		cmp	r3, #11
 122 008c 08D0     		beq	.L8
  61:.\AdvantageImpl.c ****             (prevstate == PUMP_FEOT || prevstate == PUMP_PEOT || prevstate == PUMP_BUSY || prevstat
 123              		.loc 1 61 0 is_stmt 1
 124 008e FB7A     		ldrb	r3, [r7, #11]	@ zero_extendqisi2
 125 0090 0A2B     		cmp	r3, #10
 126 0092 05D0     		beq	.L8
 127              		.loc 1 61 0 is_stmt 0 discriminator 1
 128 0094 FB7A     		ldrb	r3, [r7, #11]	@ zero_extendqisi2
 129 0096 092B     		cmp	r3, #9
 130 0098 02D0     		beq	.L8
 131              		.loc 1 61 0 discriminator 2
 132 009a FB7A     		ldrb	r3, [r7, #11]	@ zero_extendqisi2
 133 009c 082B     		cmp	r3, #8
 134 009e 03D1     		bne	.L7
 135              	.L8:
  62:.\AdvantageImpl.c ****             pjob->_ppump->_pumprftransstate = RF_IDLE;
 136              		.loc 1 62 0 is_stmt 1
 137 00a0 FB68     		ldr	r3, [r7, #12]
 138 00a2 DB69     		ldr	r3, [r3, #28]
 139 00a4 0822     		movs	r2, #8
 140 00a6 1A73     		strb	r2, [r3, #12]
 141              	.L7:
  63:.\AdvantageImpl.c ****         
  64:.\AdvantageImpl.c ****         pjob->_ppump->_acquiringstate = false;
 142              		.loc 1 64 0
 143 00a8 FB68     		ldr	r3, [r7, #12]
 144 00aa DB69     		ldr	r3, [r3, #28]
 145 00ac 0022     		movs	r2, #0
 146 00ae 5A71     		strb	r2, [r3, #5]
 147              	.L1:
 148              	.LBE2:
  65:.\AdvantageImpl.c ****     }
  66:.\AdvantageImpl.c **** }
 149              		.loc 1 66 0
 150 00b0 1037     		adds	r7, r7, #16
 151              		.cfi_def_cfa_offset 8
 152 00b2 BD46     		mov	sp, r7
 153              		.cfi_def_cfa_register 13
 154              		@ sp needed
 155 00b4 80BD     		pop	{r7, pc}
 156              		.cfi_endproc
 157              	.LFE63:
 158              		.size	AcquirePumpStateResponse, .-AcquirePumpStateResponse
 159 00b6 00BF     		.section	.text.AcquireDatatoPumpResponse,"ax",%progbits
 160              		.align	2
 161              		.global	AcquireDatatoPumpResponse
 162              		.thumb
ARM GAS  C:\Users\RECEPC~1\AppData\Local\Temp\ccZZcwiB.s 			page 5


 163              		.thumb_func
 164              		.type	AcquireDatatoPumpResponse, %function
 165              	AcquireDatatoPumpResponse:
 166              	.LFB64:
  67:.\AdvantageImpl.c **** 
  68:.\AdvantageImpl.c **** //@Created By: HIJH
  69:.\AdvantageImpl.c **** //@Date: Septembre de 2016
  70:.\AdvantageImpl.c **** //Validates the response from the pump previous batch transfer (0xDp)
  71:.\AdvantageImpl.c **** void AcquireDatatoPumpResponse(void *pparam)
  72:.\AdvantageImpl.c **** {
 167              		.loc 1 72 0
 168              		.cfi_startproc
 169              		@ args = 0, pretend = 0, frame = 16
 170              		@ frame_needed = 1, uses_anonymous_args = 0
 171              		@ link register save eliminated.
 172 0000 80B4     		push	{r7}
 173              		.cfi_def_cfa_offset 4
 174              		.cfi_offset 7, -4
 175 0002 85B0     		sub	sp, sp, #20
 176              		.cfi_def_cfa_offset 24
 177 0004 00AF     		add	r7, sp, #0
 178              		.cfi_def_cfa_register 7
 179 0006 7860     		str	r0, [r7, #4]
  73:.\AdvantageImpl.c ****     PPUMPTRANSACTIONJOBCONTEXTPTR pjob = (PPUMPTRANSACTIONJOBCONTEXTPTR)pparam;
 180              		.loc 1 73 0
 181 0008 7B68     		ldr	r3, [r7, #4]
 182 000a FB60     		str	r3, [r7, #12]
  74:.\AdvantageImpl.c ****     if(pjob)
 183              		.loc 1 74 0
 184 000c FB68     		ldr	r3, [r7, #12]
 185 000e 002B     		cmp	r3, #0
 186 0010 15D0     		beq	.L9
  75:.\AdvantageImpl.c ****     {
  76:.\AdvantageImpl.c ****         if((0x0F & pjob->_ppump->_pumpid) == (pjob->_ppump->_rxbuffer[0x00] & 0x0F))
 187              		.loc 1 76 0
 188 0012 FB68     		ldr	r3, [r7, #12]
 189 0014 DB69     		ldr	r3, [r3, #28]
 190 0016 1B78     		ldrb	r3, [r3]	@ zero_extendqisi2
 191 0018 1A46     		mov	r2, r3
 192 001a FB68     		ldr	r3, [r7, #12]
 193 001c DB69     		ldr	r3, [r3, #28]
 194 001e 93F8A031 		ldrb	r3, [r3, #416]	@ zero_extendqisi2
 195 0022 5340     		eors	r3, r3, r2
 196 0024 03F00F03 		and	r3, r3, #15
 197 0028 002B     		cmp	r3, #0
 198 002a 08D1     		bne	.L9
  77:.\AdvantageImpl.c ****             pjob->_ppump->_pumpstate = ((pjob->_ppump->_rxbuffer[0x00] >> 4)& 0x0F);
 199              		.loc 1 77 0
 200 002c FB68     		ldr	r3, [r7, #12]
 201 002e DB69     		ldr	r3, [r3, #28]
 202 0030 FA68     		ldr	r2, [r7, #12]
 203 0032 D269     		ldr	r2, [r2, #28]
 204 0034 92F8A021 		ldrb	r2, [r2, #416]	@ zero_extendqisi2
 205 0038 1209     		lsrs	r2, r2, #4
 206 003a D2B2     		uxtb	r2, r2
 207 003c 9A70     		strb	r2, [r3, #2]
 208              	.L9:
ARM GAS  C:\Users\RECEPC~1\AppData\Local\Temp\ccZZcwiB.s 			page 6


  78:.\AdvantageImpl.c ****     }
  79:.\AdvantageImpl.c **** }
 209              		.loc 1 79 0
 210 003e 1437     		adds	r7, r7, #20
 211              		.cfi_def_cfa_offset 4
 212 0040 BD46     		mov	sp, r7
 213              		.cfi_def_cfa_register 13
 214              		@ sp needed
 215 0042 5DF8047B 		ldr	r7, [sp], #4
 216              		.cfi_restore 7
 217              		.cfi_def_cfa_offset 0
 218 0046 7047     		bx	lr
 219              		.cfi_endproc
 220              	.LFE64:
 221              		.size	AcquireDatatoPumpResponse, .-AcquireDatatoPumpResponse
 222              		.section	.text.ProcessPumpRTMoneyRequest,"ax",%progbits
 223              		.align	2
 224              		.global	ProcessPumpRTMoneyRequest
 225              		.thumb
 226              		.thumb_func
 227              		.type	ProcessPumpRTMoneyRequest, %function
 228              	ProcessPumpRTMoneyRequest:
 229              	.LFB65:
  80:.\AdvantageImpl.c **** 
  81:.\AdvantageImpl.c **** void ProcessPumpRTMoneyRequest(void *pparam)
  82:.\AdvantageImpl.c **** {
 230              		.loc 1 82 0
 231              		.cfi_startproc
 232              		@ args = 0, pretend = 0, frame = 16
 233              		@ frame_needed = 1, uses_anonymous_args = 0
 234 0000 90B5     		push	{r4, r7, lr}
 235              		.cfi_def_cfa_offset 12
 236              		.cfi_offset 4, -12
 237              		.cfi_offset 7, -8
 238              		.cfi_offset 14, -4
 239 0002 85B0     		sub	sp, sp, #20
 240              		.cfi_def_cfa_offset 32
 241 0004 00AF     		add	r7, sp, #0
 242              		.cfi_def_cfa_register 7
 243 0006 7860     		str	r0, [r7, #4]
  83:.\AdvantageImpl.c ****     PPUMPTRANSACTIONJOBCONTEXTPTR pjob = (PPUMPTRANSACTIONJOBCONTEXTPTR)pparam;
 244              		.loc 1 83 0
 245 0008 7B68     		ldr	r3, [r7, #4]
 246 000a FB60     		str	r3, [r7, #12]
  84:.\AdvantageImpl.c ****     if(pjob)
 247              		.loc 1 84 0
 248 000c FB68     		ldr	r3, [r7, #12]
 249 000e 002B     		cmp	r3, #0
 250 0010 63D0     		beq	.L11
  85:.\AdvantageImpl.c ****     {
  86:.\AdvantageImpl.c ****         //Bytes from index 0 to 7 are the digits for the Real Time Money Data in BCD format
  87:.\AdvantageImpl.c ****         pjob->_ppump->_rxbuffer[0x00] = (pjob->_ppump->_rxbuffer[0x00] & 0x0F);
 251              		.loc 1 87 0
 252 0012 FB68     		ldr	r3, [r7, #12]
 253 0014 DB69     		ldr	r3, [r3, #28]
 254 0016 FA68     		ldr	r2, [r7, #12]
 255 0018 D269     		ldr	r2, [r2, #28]
ARM GAS  C:\Users\RECEPC~1\AppData\Local\Temp\ccZZcwiB.s 			page 7


 256 001a 92F8A021 		ldrb	r2, [r2, #416]	@ zero_extendqisi2
 257 001e 02F00F02 		and	r2, r2, #15
 258 0022 D2B2     		uxtb	r2, r2
 259 0024 83F8A021 		strb	r2, [r3, #416]
  88:.\AdvantageImpl.c ****         pjob->_ppump->_rxbuffer[0x01] = (pjob->_ppump->_rxbuffer[0x01] & 0x0F);
 260              		.loc 1 88 0
 261 0028 FB68     		ldr	r3, [r7, #12]
 262 002a DB69     		ldr	r3, [r3, #28]
 263 002c FA68     		ldr	r2, [r7, #12]
 264 002e D269     		ldr	r2, [r2, #28]
 265 0030 92F8A121 		ldrb	r2, [r2, #417]	@ zero_extendqisi2
 266 0034 02F00F02 		and	r2, r2, #15
 267 0038 D2B2     		uxtb	r2, r2
 268 003a 83F8A121 		strb	r2, [r3, #417]
  89:.\AdvantageImpl.c ****         pjob->_ppump->_rxbuffer[0x02] = (pjob->_ppump->_rxbuffer[0x02] & 0x0F);
 269              		.loc 1 89 0
 270 003e FB68     		ldr	r3, [r7, #12]
 271 0040 DB69     		ldr	r3, [r3, #28]
 272 0042 FA68     		ldr	r2, [r7, #12]
 273 0044 D269     		ldr	r2, [r2, #28]
 274 0046 92F8A221 		ldrb	r2, [r2, #418]	@ zero_extendqisi2
 275 004a 02F00F02 		and	r2, r2, #15
 276 004e D2B2     		uxtb	r2, r2
 277 0050 83F8A221 		strb	r2, [r3, #418]
  90:.\AdvantageImpl.c ****         pjob->_ppump->_rxbuffer[0x03] = (pjob->_ppump->_rxbuffer[0x03] & 0x0F);
 278              		.loc 1 90 0
 279 0054 FB68     		ldr	r3, [r7, #12]
 280 0056 DB69     		ldr	r3, [r3, #28]
 281 0058 FA68     		ldr	r2, [r7, #12]
 282 005a D269     		ldr	r2, [r2, #28]
 283 005c 92F8A321 		ldrb	r2, [r2, #419]	@ zero_extendqisi2
 284 0060 02F00F02 		and	r2, r2, #15
 285 0064 D2B2     		uxtb	r2, r2
 286 0066 83F8A321 		strb	r2, [r3, #419]
  91:.\AdvantageImpl.c ****         pjob->_ppump->_rxbuffer[0x04] = (pjob->_ppump->_rxbuffer[0x04] & 0x0F);
 287              		.loc 1 91 0
 288 006a FB68     		ldr	r3, [r7, #12]
 289 006c DB69     		ldr	r3, [r3, #28]
 290 006e FA68     		ldr	r2, [r7, #12]
 291 0070 D269     		ldr	r2, [r2, #28]
 292 0072 92F8A421 		ldrb	r2, [r2, #420]	@ zero_extendqisi2
 293 0076 02F00F02 		and	r2, r2, #15
 294 007a D2B2     		uxtb	r2, r2
 295 007c 83F8A421 		strb	r2, [r3, #420]
  92:.\AdvantageImpl.c ****         pjob->_ppump->_rxbuffer[0x05] = (pjob->_ppump->_rxbuffer[0x05] & 0x0F);
 296              		.loc 1 92 0
 297 0080 FB68     		ldr	r3, [r7, #12]
 298 0082 DB69     		ldr	r3, [r3, #28]
 299 0084 FA68     		ldr	r2, [r7, #12]
 300 0086 D269     		ldr	r2, [r2, #28]
 301 0088 92F8A521 		ldrb	r2, [r2, #421]	@ zero_extendqisi2
 302 008c 02F00F02 		and	r2, r2, #15
 303 0090 D2B2     		uxtb	r2, r2
 304 0092 83F8A521 		strb	r2, [r3, #421]
  93:.\AdvantageImpl.c ****         pjob->_ppump->_rxbuffer[0x06] = (pjob->_ppump->_rxbuffer[0x06] & 0x0F);
 305              		.loc 1 93 0
 306 0096 FB68     		ldr	r3, [r7, #12]
ARM GAS  C:\Users\RECEPC~1\AppData\Local\Temp\ccZZcwiB.s 			page 8


 307 0098 DB69     		ldr	r3, [r3, #28]
 308 009a FA68     		ldr	r2, [r7, #12]
 309 009c D269     		ldr	r2, [r2, #28]
 310 009e 92F8A621 		ldrb	r2, [r2, #422]	@ zero_extendqisi2
 311 00a2 02F00F02 		and	r2, r2, #15
 312 00a6 D2B2     		uxtb	r2, r2
 313 00a8 83F8A621 		strb	r2, [r3, #422]
  94:.\AdvantageImpl.c ****         pjob->_ppump->_rxbuffer[0x07] = (pjob->_ppump->_rxbuffer[0x07] & 0x0F);
 314              		.loc 1 94 0
 315 00ac FB68     		ldr	r3, [r7, #12]
 316 00ae DB69     		ldr	r3, [r3, #28]
 317 00b0 FA68     		ldr	r2, [r7, #12]
 318 00b2 D269     		ldr	r2, [r2, #28]
 319 00b4 92F8A721 		ldrb	r2, [r2, #423]	@ zero_extendqisi2
 320 00b8 02F00F02 		and	r2, r2, #15
 321 00bc D2B2     		uxtb	r2, r2
 322 00be 83F8A721 		strb	r2, [r3, #423]
  95:.\AdvantageImpl.c ****         pjob->_ppump->_rtmoneyamount = LSDBCDBUFF2HEX(PBYTECAST(&pjob->_ppump->_rxbuffer[0x00]), 0x
 323              		.loc 1 95 0
 324 00c2 FB68     		ldr	r3, [r7, #12]
 325 00c4 DC69     		ldr	r4, [r3, #28]
 326 00c6 FB68     		ldr	r3, [r7, #12]
 327 00c8 DB69     		ldr	r3, [r3, #28]
 328 00ca 03F5D073 		add	r3, r3, #416
 329 00ce 1846     		mov	r0, r3
 330 00d0 0821     		movs	r1, #8
 331 00d2 FFF7FEFF 		bl	LSDBCDBUFF2HEX
 332 00d6 0346     		mov	r3, r0
 333 00d8 2361     		str	r3, [r4, #16]
 334              	.L11:
  96:.\AdvantageImpl.c ****     }
  97:.\AdvantageImpl.c **** }
 335              		.loc 1 97 0
 336 00da 1437     		adds	r7, r7, #20
 337              		.cfi_def_cfa_offset 12
 338 00dc BD46     		mov	sp, r7
 339              		.cfi_def_cfa_register 13
 340              		@ sp needed
 341 00de 90BD     		pop	{r4, r7, pc}
 342              		.cfi_endproc
 343              	.LFE65:
 344              		.size	ProcessPumpRTMoneyRequest, .-ProcessPumpRTMoneyRequest
 345              		.section	.text.ProcessPumpTransactionData,"ax",%progbits
 346              		.align	2
 347              		.global	ProcessPumpTransactionData
 348              		.thumb
 349              		.thumb_func
 350              		.type	ProcessPumpTransactionData, %function
 351              	ProcessPumpTransactionData:
 352              	.LFB66:
  98:.\AdvantageImpl.c **** 
  99:.\AdvantageImpl.c **** void ProcessPumpTransactionData(void *pparam)
 100:.\AdvantageImpl.c **** {
 353              		.loc 1 100 0
 354              		.cfi_startproc
 355              		@ args = 0, pretend = 0, frame = 24
 356              		@ frame_needed = 1, uses_anonymous_args = 0
ARM GAS  C:\Users\RECEPC~1\AppData\Local\Temp\ccZZcwiB.s 			page 9


 357 0000 B0B5     		push	{r4, r5, r7, lr}
 358              		.cfi_def_cfa_offset 16
 359              		.cfi_offset 4, -16
 360              		.cfi_offset 5, -12
 361              		.cfi_offset 7, -8
 362              		.cfi_offset 14, -4
 363 0002 86B0     		sub	sp, sp, #24
 364              		.cfi_def_cfa_offset 40
 365 0004 00AF     		add	r7, sp, #0
 366              		.cfi_def_cfa_register 7
 367 0006 7860     		str	r0, [r7, #4]
 101:.\AdvantageImpl.c ****     PPUMPTRANSACTIONJOBCONTEXTPTR pjob = (PPUMPTRANSACTIONJOBCONTEXTPTR)pparam;
 368              		.loc 1 101 0
 369 0008 7B68     		ldr	r3, [r7, #4]
 370 000a 7B61     		str	r3, [r7, #20]
 102:.\AdvantageImpl.c ****     if(pjob)
 371              		.loc 1 102 0
 372 000c 7B69     		ldr	r3, [r7, #20]
 373 000e 002B     		cmp	r3, #0
 374 0010 00F0C087 		beq	.L13
 375              	.LBB3:
 103:.\AdvantageImpl.c ****     {
 104:.\AdvantageImpl.c ****         {
 105:.\AdvantageImpl.c ****             uint8 strmlrc = FindLRC(pjob->_ppump->_rxbuffer);
 376              		.loc 1 105 0
 377 0014 7B69     		ldr	r3, [r7, #20]
 378 0016 DB69     		ldr	r3, [r3, #28]
 379 0018 03F5D073 		add	r3, r3, #416
 380 001c 1846     		mov	r0, r3
 381 001e FFF7FEFF 		bl	FindLRC
 382 0022 0346     		mov	r3, r0
 383 0024 FB74     		strb	r3, [r7, #19]
 106:.\AdvantageImpl.c ****             uint8 locallrc = GetLRC(pjob->_ppump->_rxbuffer);
 384              		.loc 1 106 0
 385 0026 7B69     		ldr	r3, [r7, #20]
 386 0028 DB69     		ldr	r3, [r3, #28]
 387 002a 03F5D073 		add	r3, r3, #416
 388 002e 1846     		mov	r0, r3
 389 0030 FFF7FEFF 		bl	GetLRC
 390 0034 0346     		mov	r3, r0
 391 0036 BB74     		strb	r3, [r7, #18]
 107:.\AdvantageImpl.c ****             
 108:.\AdvantageImpl.c ****             if(strmlrc != locallrc && pjob->_reenqueuecounter < _MAX_RETRIES_)
 392              		.loc 1 108 0
 393 0038 FA7C     		ldrb	r2, [r7, #19]	@ zero_extendqisi2
 394 003a BB7C     		ldrb	r3, [r7, #18]	@ zero_extendqisi2
 395 003c 9A42     		cmp	r2, r3
 396 003e 10D0     		beq	.L15
 397              		.loc 1 108 0 is_stmt 0 discriminator 1
 398 0040 7B69     		ldr	r3, [r7, #20]
 399 0042 5B78     		ldrb	r3, [r3, #1]
 400 0044 DBB2     		uxtb	r3, r3
 401 0046 132B     		cmp	r3, #19
 402 0048 0BD8     		bhi	.L15
 109:.\AdvantageImpl.c ****             {
 110:.\AdvantageImpl.c ****                 pjob->_reenqueuecounter++;
 403              		.loc 1 110 0 is_stmt 1
ARM GAS  C:\Users\RECEPC~1\AppData\Local\Temp\ccZZcwiB.s 			page 10


 404 004a 7B69     		ldr	r3, [r7, #20]
 405 004c 5B78     		ldrb	r3, [r3, #1]
 406 004e DBB2     		uxtb	r3, r3
 407 0050 0133     		adds	r3, r3, #1
 408 0052 DAB2     		uxtb	r2, r3
 409 0054 7B69     		ldr	r3, [r7, #20]
 410 0056 5A70     		strb	r2, [r3, #1]
 111:.\AdvantageImpl.c ****                 pjob->_reenqueue = true;
 411              		.loc 1 111 0
 412 0058 7B69     		ldr	r3, [r7, #20]
 413 005a 0122     		movs	r2, #1
 414 005c 1A70     		strb	r2, [r3]
 112:.\AdvantageImpl.c ****                 return;
 415              		.loc 1 112 0
 416 005e 00F099BF 		b	.L13
 417              	.L15:
 113:.\AdvantageImpl.c ****             }
 114:.\AdvantageImpl.c ****             pjob->_reenqueue = false;
 418              		.loc 1 114 0
 419 0062 7B69     		ldr	r3, [r7, #20]
 420 0064 0022     		movs	r2, #0
 421 0066 1A70     		strb	r2, [r3]
 115:.\AdvantageImpl.c **** 
 116:.\AdvantageImpl.c ****             if(_g_dispenserlayoutinfo._displaydigitsmode == 0x06)
 422              		.loc 1 116 0
 423 0068 744B     		ldr	r3, .L52
 424 006a 1B7C     		ldrb	r3, [r3, #16]	@ zero_extendqisi2
 425 006c 062B     		cmp	r3, #6
 426 006e 40F07783 		bne	.L16
 117:.\AdvantageImpl.c ****             {            
 118:.\AdvantageImpl.c ****                 pjob->_ppump->_rxbuffer[0x09] = (pjob->_ppump->_rxbuffer[0x09] & 0x0F);//Hose id
 427              		.loc 1 118 0
 428 0072 7B69     		ldr	r3, [r7, #20]
 429 0074 DB69     		ldr	r3, [r3, #28]
 430 0076 7A69     		ldr	r2, [r7, #20]
 431 0078 D269     		ldr	r2, [r2, #28]
 432 007a 92F8A921 		ldrb	r2, [r2, #425]	@ zero_extendqisi2
 433 007e 02F00F02 		and	r2, r2, #15
 434 0082 D2B2     		uxtb	r2, r2
 435 0084 83F8A921 		strb	r2, [r3, #425]
 119:.\AdvantageImpl.c ****                 pjob->_ppump->_authorizationinfo._hoseid = pjob->_ppump->_rxbuffer[0x09];//Hose id
 436              		.loc 1 119 0
 437 0088 7B69     		ldr	r3, [r7, #20]
 438 008a DB69     		ldr	r3, [r3, #28]
 439 008c 7A69     		ldr	r2, [r7, #20]
 440 008e D269     		ldr	r2, [r2, #28]
 441 0090 92F8A921 		ldrb	r2, [r2, #425]	@ zero_extendqisi2
 442 0094 83F8A229 		strb	r2, [r3, #2466]
 120:.\AdvantageImpl.c ****                 
 121:.\AdvantageImpl.c ****                 //In this position is located the payment type (CREDIT: 0x0E , CASH:0x0D)
 122:.\AdvantageImpl.c ****                 if(pjob->_ppump->_trasactionbuffer[0x00] == 0x0D)
 443              		.loc 1 122 0
 444 0098 7B69     		ldr	r3, [r7, #20]
 445 009a DB69     		ldr	r3, [r3, #28]
 446 009c 93F82030 		ldrb	r3, [r3, #32]	@ zero_extendqisi2
 447 00a0 0D2B     		cmp	r3, #13
 448 00a2 40F0CD80 		bne	.L17
ARM GAS  C:\Users\RECEPC~1\AppData\Local\Temp\ccZZcwiB.s 			page 11


 449              	.LBB4:
 123:.\AdvantageImpl.c ****                 {
 124:.\AdvantageImpl.c ****                     I2CBusLock();
 450              		.loc 1 124 0
 451 00a6 FFF7FEFF 		bl	I2CBusLock
 125:.\AdvantageImpl.c ****                     ClearEepromBuffer();
 452              		.loc 1 125 0
 453 00aa FFF7FEFF 		bl	ClearEepromBuffer
 126:.\AdvantageImpl.c ****                     uint16 eeprompage = DispenserGetEepromPPUPageFromPumpID(pjob->_ppump->_pumpid);
 454              		.loc 1 126 0
 455 00ae 7B69     		ldr	r3, [r7, #20]
 456 00b0 DB69     		ldr	r3, [r3, #28]
 457 00b2 1B78     		ldrb	r3, [r3]	@ zero_extendqisi2
 458 00b4 1846     		mov	r0, r3
 459 00b6 FFF7FEFF 		bl	DispenserGetEepromPPUPageFromPumpID
 460 00ba 0346     		mov	r3, r0
 461 00bc 3B82     		strh	r3, [r7, #16]	@ movhi
 127:.\AdvantageImpl.c ****                     LoadEepromPage(eeprompage);
 462              		.loc 1 127 0
 463 00be 3B8A     		ldrh	r3, [r7, #16]
 464 00c0 1846     		mov	r0, r3
 465 00c2 FFF7FEFF 		bl	LoadEepromPage
 128:.\AdvantageImpl.c ****                     switch(pjob->_ppump->_authorizationinfo._hoseid)
 466              		.loc 1 128 0
 467 00c6 7B69     		ldr	r3, [r7, #20]
 468 00c8 DB69     		ldr	r3, [r3, #28]
 469 00ca 93F8A239 		ldrb	r3, [r3, #2466]
 470 00ce DBB2     		uxtb	r3, r3
 471 00d0 032B     		cmp	r3, #3
 472 00d2 65D8     		bhi	.L18
 473 00d4 01A2     		adr	r2, .L20
 474 00d6 52F823F0 		ldr	pc, [r2, r3, lsl #2]
 475 00da 00BF     		.p2align 2
 476              	.L20:
 477 00dc ED000000 		.word	.L19+1
 478 00e0 17010000 		.word	.L21+1
 479 00e4 45010000 		.word	.L22+1
 480 00e8 73010000 		.word	.L23+1
 481              		.p2align 1
 482              	.L19:
 129:.\AdvantageImpl.c ****                     {
 130:.\AdvantageImpl.c ****                         case 0x00:
 131:.\AdvantageImpl.c ****                         //Six bytes only since the PPU is constrained to this length
 132:.\AdvantageImpl.c ****                         memcpy(PBYTECAST(&pjob->_ppump->_trasactionbuffer[GetBufferIndexFromDisplay
 483              		.loc 1 132 0
 484 00ec 7B69     		ldr	r3, [r7, #20]
 485 00ee DC69     		ldr	r4, [r3, #28]
 486 00f0 6520     		movs	r0, #101
 487 00f2 FFF7FEFF 		bl	GetBufferIndexFromDisplayID
 488 00f6 0346     		mov	r3, r0
 489 00f8 2033     		adds	r3, r3, #32
 490 00fa 1C44     		add	r4, r4, r3
 491 00fc FFF7FEFF 		bl	GetEepromBuffer
 492 0100 0546     		mov	r5, r0
 493 0102 6520     		movs	r0, #101
 494 0104 FFF7FEFF 		bl	GetBufferLengthFromDisplayID
 495 0108 0346     		mov	r3, r0
ARM GAS  C:\Users\RECEPC~1\AppData\Local\Temp\ccZZcwiB.s 			page 12


 496 010a 2046     		mov	r0, r4
 497 010c 2946     		mov	r1, r5
 498 010e 1A46     		mov	r2, r3
 499 0110 FFF7FEFF 		bl	memcpy
 133:.\AdvantageImpl.c ****                         break;
 500              		.loc 1 133 0
 501 0114 44E0     		b	.L18
 502              	.L21:
 134:.\AdvantageImpl.c ****                         case 0x01:
 135:.\AdvantageImpl.c ****                         //Six bytes only since the PPU is constrained to this length
 136:.\AdvantageImpl.c ****                         memcpy(PBYTECAST(&pjob->_ppump->_trasactionbuffer[GetBufferIndexFromDisplay
 503              		.loc 1 136 0
 504 0116 7B69     		ldr	r3, [r7, #20]
 505 0118 DC69     		ldr	r4, [r3, #28]
 506 011a 6520     		movs	r0, #101
 507 011c FFF7FEFF 		bl	GetBufferIndexFromDisplayID
 508 0120 0346     		mov	r3, r0
 509 0122 2033     		adds	r3, r3, #32
 510 0124 E518     		adds	r5, r4, r3
 511 0126 FFF7FEFF 		bl	GetEepromBuffer
 512 012a 0346     		mov	r3, r0
 513 012c 03F11004 		add	r4, r3, #16
 514 0130 6520     		movs	r0, #101
 515 0132 FFF7FEFF 		bl	GetBufferLengthFromDisplayID
 516 0136 0346     		mov	r3, r0
 517 0138 2846     		mov	r0, r5
 518 013a 2146     		mov	r1, r4
 519 013c 1A46     		mov	r2, r3
 520 013e FFF7FEFF 		bl	memcpy
 137:.\AdvantageImpl.c ****                         break;
 521              		.loc 1 137 0
 522 0142 2DE0     		b	.L18
 523              	.L22:
 138:.\AdvantageImpl.c ****                         case 0x02:
 139:.\AdvantageImpl.c ****                         //Six bytes only since the PPU is constrained to this length
 140:.\AdvantageImpl.c ****                         memcpy(PBYTECAST(&pjob->_ppump->_trasactionbuffer[GetBufferIndexFromDisplay
 524              		.loc 1 140 0
 525 0144 7B69     		ldr	r3, [r7, #20]
 526 0146 DC69     		ldr	r4, [r3, #28]
 527 0148 6520     		movs	r0, #101
 528 014a FFF7FEFF 		bl	GetBufferIndexFromDisplayID
 529 014e 0346     		mov	r3, r0
 530 0150 2033     		adds	r3, r3, #32
 531 0152 E518     		adds	r5, r4, r3
 532 0154 FFF7FEFF 		bl	GetEepromBuffer
 533 0158 0346     		mov	r3, r0
 534 015a 03F12004 		add	r4, r3, #32
 535 015e 6520     		movs	r0, #101
 536 0160 FFF7FEFF 		bl	GetBufferLengthFromDisplayID
 537 0164 0346     		mov	r3, r0
 538 0166 2846     		mov	r0, r5
 539 0168 2146     		mov	r1, r4
 540 016a 1A46     		mov	r2, r3
 541 016c FFF7FEFF 		bl	memcpy
 141:.\AdvantageImpl.c ****                         break;
 542              		.loc 1 141 0
 543 0170 16E0     		b	.L18
ARM GAS  C:\Users\RECEPC~1\AppData\Local\Temp\ccZZcwiB.s 			page 13


 544              	.L23:
 142:.\AdvantageImpl.c ****                         case 0x03:
 143:.\AdvantageImpl.c ****                         //Six bytes only since the PPU is constrained to this length
 144:.\AdvantageImpl.c ****                         memcpy(PBYTECAST(&pjob->_ppump->_trasactionbuffer[GetBufferIndexFromDisplay
 545              		.loc 1 144 0
 546 0172 7B69     		ldr	r3, [r7, #20]
 547 0174 DC69     		ldr	r4, [r3, #28]
 548 0176 6520     		movs	r0, #101
 549 0178 FFF7FEFF 		bl	GetBufferIndexFromDisplayID
 550 017c 0346     		mov	r3, r0
 551 017e 2033     		adds	r3, r3, #32
 552 0180 E518     		adds	r5, r4, r3
 553 0182 FFF7FEFF 		bl	GetEepromBuffer
 554 0186 0346     		mov	r3, r0
 555 0188 03F13004 		add	r4, r3, #48
 556 018c 6520     		movs	r0, #101
 557 018e FFF7FEFF 		bl	GetBufferLengthFromDisplayID
 558 0192 0346     		mov	r3, r0
 559 0194 2846     		mov	r0, r5
 560 0196 2146     		mov	r1, r4
 561 0198 1A46     		mov	r2, r3
 562 019a FFF7FEFF 		bl	memcpy
 145:.\AdvantageImpl.c ****                         break;
 563              		.loc 1 145 0
 564 019e 00BF     		nop
 565              	.L18:
 146:.\AdvantageImpl.c ****                     }
 147:.\AdvantageImpl.c ****                     I2CBusUnlock();
 566              		.loc 1 147 0
 567 01a0 FFF7FEFF 		bl	I2CBusUnlock
 148:.\AdvantageImpl.c ****                     
 149:.\AdvantageImpl.c ****                     memcpy(PBYTECAST(&pjob->_ppump->_rxbuffer[0x0C]), PBYTECAST(&pjob->_ppump->_tra
 568              		.loc 1 149 0
 569 01a4 7B69     		ldr	r3, [r7, #20]
 570 01a6 DB69     		ldr	r3, [r3, #28]
 571 01a8 03F5D675 		add	r5, r3, #428
 572 01ac 7B69     		ldr	r3, [r7, #20]
 573 01ae DC69     		ldr	r4, [r3, #28]
 574 01b0 6520     		movs	r0, #101
 575 01b2 FFF7FEFF 		bl	GetBufferIndexFromDisplayID
 576 01b6 0346     		mov	r3, r0
 577 01b8 2033     		adds	r3, r3, #32
 578 01ba 2344     		add	r3, r3, r4
 579 01bc 2846     		mov	r0, r5
 580 01be 1946     		mov	r1, r3
 581 01c0 0422     		movs	r2, #4
 582 01c2 FFF7FEFF 		bl	memcpy
 150:.\AdvantageImpl.c ****                     
 151:.\AdvantageImpl.c ****                     //Bytes from index 12 to 17 are the digits for the PPU used for the transaction
 152:.\AdvantageImpl.c ****                     //Digits are in BCD format
 153:.\AdvantageImpl.c ****                     pjob->_ppump->_rxbuffer[0x0C] = (pjob->_ppump->_rxbuffer[0x0C] & 0x0F);
 583              		.loc 1 153 0
 584 01c6 7B69     		ldr	r3, [r7, #20]
 585 01c8 DB69     		ldr	r3, [r3, #28]
 586 01ca 7A69     		ldr	r2, [r7, #20]
 587 01cc D269     		ldr	r2, [r2, #28]
 588 01ce 92F8AC21 		ldrb	r2, [r2, #428]	@ zero_extendqisi2
ARM GAS  C:\Users\RECEPC~1\AppData\Local\Temp\ccZZcwiB.s 			page 14


 589 01d2 02F00F02 		and	r2, r2, #15
 590 01d6 D2B2     		uxtb	r2, r2
 591 01d8 83F8AC21 		strb	r2, [r3, #428]
 154:.\AdvantageImpl.c ****                     pjob->_ppump->_rxbuffer[0x0D] = (pjob->_ppump->_rxbuffer[0x0D] & 0x0F);
 592              		.loc 1 154 0
 593 01dc 7B69     		ldr	r3, [r7, #20]
 594 01de DB69     		ldr	r3, [r3, #28]
 595 01e0 7A69     		ldr	r2, [r7, #20]
 596 01e2 D269     		ldr	r2, [r2, #28]
 597 01e4 92F8AD21 		ldrb	r2, [r2, #429]	@ zero_extendqisi2
 598 01e8 02F00F02 		and	r2, r2, #15
 599 01ec D2B2     		uxtb	r2, r2
 600 01ee 83F8AD21 		strb	r2, [r3, #429]
 155:.\AdvantageImpl.c ****                     pjob->_ppump->_rxbuffer[0x0E] = (pjob->_ppump->_rxbuffer[0x0E] & 0x0F);
 601              		.loc 1 155 0
 602 01f2 7B69     		ldr	r3, [r7, #20]
 603 01f4 DB69     		ldr	r3, [r3, #28]
 604 01f6 7A69     		ldr	r2, [r7, #20]
 605 01f8 D269     		ldr	r2, [r2, #28]
 606 01fa 92F8AE21 		ldrb	r2, [r2, #430]	@ zero_extendqisi2
 607 01fe 02F00F02 		and	r2, r2, #15
 608 0202 D2B2     		uxtb	r2, r2
 609 0204 83F8AE21 		strb	r2, [r3, #430]
 156:.\AdvantageImpl.c ****                     pjob->_ppump->_rxbuffer[0x0F] = (pjob->_ppump->_rxbuffer[0x0F] & 0x0F);
 610              		.loc 1 156 0
 611 0208 7B69     		ldr	r3, [r7, #20]
 612 020a DB69     		ldr	r3, [r3, #28]
 613 020c 7A69     		ldr	r2, [r7, #20]
 614 020e D269     		ldr	r2, [r2, #28]
 615 0210 92F8AF21 		ldrb	r2, [r2, #431]	@ zero_extendqisi2
 616 0214 02F00F02 		and	r2, r2, #15
 617 0218 D2B2     		uxtb	r2, r2
 618 021a 83F8AF21 		strb	r2, [r3, #431]
 157:.\AdvantageImpl.c ****                     pjob->_ppump->_authorizationinfo._price = LSDBCDBUFF2HEX(PBYTECAST(&pjob->_ppum
 619              		.loc 1 157 0
 620 021e 7B69     		ldr	r3, [r7, #20]
 621 0220 DC69     		ldr	r4, [r3, #28]
 622 0222 7B69     		ldr	r3, [r7, #20]
 623 0224 DB69     		ldr	r3, [r3, #28]
 624 0226 03F5D673 		add	r3, r3, #428
 625 022a 1846     		mov	r0, r3
 626 022c 0421     		movs	r1, #4
 627 022e FFF7FEFF 		bl	LSDBCDBUFF2HEX
 628 0232 0346     		mov	r3, r0
 629 0234 9BB2     		uxth	r3, r3
 630 0236 A4F8A439 		strh	r3, [r4, #2468]	@ movhi
 631              	.LBE4:
 632 023a 2DE0     		b	.L24
 633              	.L53:
 634              		.align	2
 635              	.L52:
 636 023c 00000000 		.word	_g_dispenserlayoutinfo
 637              	.L17:
 158:.\AdvantageImpl.c ****                     
 159:.\AdvantageImpl.c ****                 }
 160:.\AdvantageImpl.c ****                 else
 161:.\AdvantageImpl.c ****                 {
ARM GAS  C:\Users\RECEPC~1\AppData\Local\Temp\ccZZcwiB.s 			page 15


 162:.\AdvantageImpl.c ****                     pjob->_ppump->_rxbuffer[0x0C] = (pjob->_ppump->_rxbuffer[0x0C] & 0x0F);
 638              		.loc 1 162 0
 639 0240 7B69     		ldr	r3, [r7, #20]
 640 0242 DB69     		ldr	r3, [r3, #28]
 641 0244 7A69     		ldr	r2, [r7, #20]
 642 0246 D269     		ldr	r2, [r2, #28]
 643 0248 92F8AC21 		ldrb	r2, [r2, #428]	@ zero_extendqisi2
 644 024c 02F00F02 		and	r2, r2, #15
 645 0250 D2B2     		uxtb	r2, r2
 646 0252 83F8AC21 		strb	r2, [r3, #428]
 163:.\AdvantageImpl.c ****                     pjob->_ppump->_rxbuffer[0x0D] = (pjob->_ppump->_rxbuffer[0x0D] & 0x0F);
 647              		.loc 1 163 0
 648 0256 7B69     		ldr	r3, [r7, #20]
 649 0258 DB69     		ldr	r3, [r3, #28]
 650 025a 7A69     		ldr	r2, [r7, #20]
 651 025c D269     		ldr	r2, [r2, #28]
 652 025e 92F8AD21 		ldrb	r2, [r2, #429]	@ zero_extendqisi2
 653 0262 02F00F02 		and	r2, r2, #15
 654 0266 D2B2     		uxtb	r2, r2
 655 0268 83F8AD21 		strb	r2, [r3, #429]
 164:.\AdvantageImpl.c ****                     pjob->_ppump->_rxbuffer[0x0E] = (pjob->_ppump->_rxbuffer[0x0E] & 0x0F);
 656              		.loc 1 164 0
 657 026c 7B69     		ldr	r3, [r7, #20]
 658 026e DB69     		ldr	r3, [r3, #28]
 659 0270 7A69     		ldr	r2, [r7, #20]
 660 0272 D269     		ldr	r2, [r2, #28]
 661 0274 92F8AE21 		ldrb	r2, [r2, #430]	@ zero_extendqisi2
 662 0278 02F00F02 		and	r2, r2, #15
 663 027c D2B2     		uxtb	r2, r2
 664 027e 83F8AE21 		strb	r2, [r3, #430]
 165:.\AdvantageImpl.c ****                     pjob->_ppump->_rxbuffer[0x0F] = (pjob->_ppump->_rxbuffer[0x0F] & 0x0F);
 665              		.loc 1 165 0
 666 0282 7B69     		ldr	r3, [r7, #20]
 667 0284 DB69     		ldr	r3, [r3, #28]
 668 0286 7A69     		ldr	r2, [r7, #20]
 669 0288 D269     		ldr	r2, [r2, #28]
 670 028a 92F8AF21 		ldrb	r2, [r2, #431]	@ zero_extendqisi2
 671 028e 02F00F02 		and	r2, r2, #15
 672 0292 D2B2     		uxtb	r2, r2
 673 0294 83F8AF21 		strb	r2, [r3, #431]
 674              	.L24:
 166:.\AdvantageImpl.c ****                 }
 167:.\AdvantageImpl.c ****                 
 168:.\AdvantageImpl.c ****                 //Bytes from index 19 to 26 are the digits for the fuel volume delivered in the tra
 169:.\AdvantageImpl.c ****                 //Digits are in BCD format
 170:.\AdvantageImpl.c ****                 pjob->_ppump->_rxbuffer[0x11] = (pjob->_ppump->_rxbuffer[0x11] & 0x0F);
 675              		.loc 1 170 0
 676 0298 7B69     		ldr	r3, [r7, #20]
 677 029a DB69     		ldr	r3, [r3, #28]
 678 029c 7A69     		ldr	r2, [r7, #20]
 679 029e D269     		ldr	r2, [r2, #28]
 680 02a0 92F8B121 		ldrb	r2, [r2, #433]	@ zero_extendqisi2
 681 02a4 02F00F02 		and	r2, r2, #15
 682 02a8 D2B2     		uxtb	r2, r2
 683 02aa 83F8B121 		strb	r2, [r3, #433]
 171:.\AdvantageImpl.c ****                 pjob->_ppump->_rxbuffer[0x12] = (pjob->_ppump->_rxbuffer[0x12] & 0x0F);
 684              		.loc 1 171 0
ARM GAS  C:\Users\RECEPC~1\AppData\Local\Temp\ccZZcwiB.s 			page 16


 685 02ae 7B69     		ldr	r3, [r7, #20]
 686 02b0 DB69     		ldr	r3, [r3, #28]
 687 02b2 7A69     		ldr	r2, [r7, #20]
 688 02b4 D269     		ldr	r2, [r2, #28]
 689 02b6 92F8B221 		ldrb	r2, [r2, #434]	@ zero_extendqisi2
 690 02ba 02F00F02 		and	r2, r2, #15
 691 02be D2B2     		uxtb	r2, r2
 692 02c0 83F8B221 		strb	r2, [r3, #434]
 172:.\AdvantageImpl.c ****                 pjob->_ppump->_rxbuffer[0x13] = (pjob->_ppump->_rxbuffer[0x13] & 0x0F);
 693              		.loc 1 172 0
 694 02c4 7B69     		ldr	r3, [r7, #20]
 695 02c6 DB69     		ldr	r3, [r3, #28]
 696 02c8 7A69     		ldr	r2, [r7, #20]
 697 02ca D269     		ldr	r2, [r2, #28]
 698 02cc 92F8B321 		ldrb	r2, [r2, #435]	@ zero_extendqisi2
 699 02d0 02F00F02 		and	r2, r2, #15
 700 02d4 D2B2     		uxtb	r2, r2
 701 02d6 83F8B321 		strb	r2, [r3, #435]
 173:.\AdvantageImpl.c ****                 pjob->_ppump->_rxbuffer[0x14] = (pjob->_ppump->_rxbuffer[0x14] & 0x0F);
 702              		.loc 1 173 0
 703 02da 7B69     		ldr	r3, [r7, #20]
 704 02dc DB69     		ldr	r3, [r3, #28]
 705 02de 7A69     		ldr	r2, [r7, #20]
 706 02e0 D269     		ldr	r2, [r2, #28]
 707 02e2 92F8B421 		ldrb	r2, [r2, #436]	@ zero_extendqisi2
 708 02e6 02F00F02 		and	r2, r2, #15
 709 02ea D2B2     		uxtb	r2, r2
 710 02ec 83F8B421 		strb	r2, [r3, #436]
 174:.\AdvantageImpl.c ****                 pjob->_ppump->_rxbuffer[0x15] = (pjob->_ppump->_rxbuffer[0x15] & 0x0F);
 711              		.loc 1 174 0
 712 02f0 7B69     		ldr	r3, [r7, #20]
 713 02f2 DB69     		ldr	r3, [r3, #28]
 714 02f4 7A69     		ldr	r2, [r7, #20]
 715 02f6 D269     		ldr	r2, [r2, #28]
 716 02f8 92F8B521 		ldrb	r2, [r2, #437]	@ zero_extendqisi2
 717 02fc 02F00F02 		and	r2, r2, #15
 718 0300 D2B2     		uxtb	r2, r2
 719 0302 83F8B521 		strb	r2, [r3, #437]
 175:.\AdvantageImpl.c ****                 pjob->_ppump->_rxbuffer[0x16] = (pjob->_ppump->_rxbuffer[0x16] & 0x0F);            
 720              		.loc 1 175 0
 721 0306 7B69     		ldr	r3, [r7, #20]
 722 0308 DB69     		ldr	r3, [r3, #28]
 723 030a 7A69     		ldr	r2, [r7, #20]
 724 030c D269     		ldr	r2, [r2, #28]
 725 030e 92F8B621 		ldrb	r2, [r2, #438]	@ zero_extendqisi2
 726 0312 02F00F02 		and	r2, r2, #15
 727 0316 D2B2     		uxtb	r2, r2
 728 0318 83F8B621 		strb	r2, [r3, #438]
 176:.\AdvantageImpl.c ****                 pjob->_ppump->_authorizationinfo._volumeamount = LSDBCDBUFF2HEX(PBYTECAST(&pjob->_p
 729              		.loc 1 176 0
 730 031c 7B69     		ldr	r3, [r7, #20]
 731 031e DC69     		ldr	r4, [r3, #28]
 732 0320 7B69     		ldr	r3, [r7, #20]
 733 0322 DB69     		ldr	r3, [r3, #28]
 734 0324 03F2B113 		addw	r3, r3, #433
 735 0328 1846     		mov	r0, r3
 736 032a 0621     		movs	r1, #6
ARM GAS  C:\Users\RECEPC~1\AppData\Local\Temp\ccZZcwiB.s 			page 17


 737 032c FFF7FEFF 		bl	LSDBCDBUFF2HEX
 738 0330 0346     		mov	r3, r0
 739 0332 C4F8AC39 		str	r3, [r4, #2476]
 177:.\AdvantageImpl.c ****                 
 178:.\AdvantageImpl.c ****                 ////////////////////////////////////////////////////////////////////////////////
 179:.\AdvantageImpl.c ****                 ////////////////////////////////////////////////////////////////////////////////
 180:.\AdvantageImpl.c ****                 
 181:.\AdvantageImpl.c ****                 //Bytes from index 28 to 35 are the digits for the money charged to the transaction
 182:.\AdvantageImpl.c ****                 //Digits are in BCD format
 183:.\AdvantageImpl.c ****                 pjob->_ppump->_rxbuffer[0x18] = (pjob->_ppump->_rxbuffer[0x18] & 0x0F);
 740              		.loc 1 183 0
 741 0336 7B69     		ldr	r3, [r7, #20]
 742 0338 DB69     		ldr	r3, [r3, #28]
 743 033a 7A69     		ldr	r2, [r7, #20]
 744 033c D269     		ldr	r2, [r2, #28]
 745 033e 92F8B821 		ldrb	r2, [r2, #440]	@ zero_extendqisi2
 746 0342 02F00F02 		and	r2, r2, #15
 747 0346 D2B2     		uxtb	r2, r2
 748 0348 83F8B821 		strb	r2, [r3, #440]
 184:.\AdvantageImpl.c ****                 
 185:.\AdvantageImpl.c ****                 pjob->_ppump->_rxbuffer[0x19] = (pjob->_ppump->_rxbuffer[0x19] & 0x0F);
 749              		.loc 1 185 0
 750 034c 7B69     		ldr	r3, [r7, #20]
 751 034e DB69     		ldr	r3, [r3, #28]
 752 0350 7A69     		ldr	r2, [r7, #20]
 753 0352 D269     		ldr	r2, [r2, #28]
 754 0354 92F8B921 		ldrb	r2, [r2, #441]	@ zero_extendqisi2
 755 0358 02F00F02 		and	r2, r2, #15
 756 035c D2B2     		uxtb	r2, r2
 757 035e 83F8B921 		strb	r2, [r3, #441]
 186:.\AdvantageImpl.c ****                 pjob->_ppump->_rxbuffer[0x1A] = (pjob->_ppump->_rxbuffer[0x1A] & 0x0F);
 758              		.loc 1 186 0
 759 0362 7B69     		ldr	r3, [r7, #20]
 760 0364 DB69     		ldr	r3, [r3, #28]
 761 0366 7A69     		ldr	r2, [r7, #20]
 762 0368 D269     		ldr	r2, [r2, #28]
 763 036a 92F8BA21 		ldrb	r2, [r2, #442]	@ zero_extendqisi2
 764 036e 02F00F02 		and	r2, r2, #15
 765 0372 D2B2     		uxtb	r2, r2
 766 0374 83F8BA21 		strb	r2, [r3, #442]
 187:.\AdvantageImpl.c ****                 pjob->_ppump->_rxbuffer[0x1B] = (pjob->_ppump->_rxbuffer[0x1B] & 0x0F);
 767              		.loc 1 187 0
 768 0378 7B69     		ldr	r3, [r7, #20]
 769 037a DB69     		ldr	r3, [r3, #28]
 770 037c 7A69     		ldr	r2, [r7, #20]
 771 037e D269     		ldr	r2, [r2, #28]
 772 0380 92F8BB21 		ldrb	r2, [r2, #443]	@ zero_extendqisi2
 773 0384 02F00F02 		and	r2, r2, #15
 774 0388 D2B2     		uxtb	r2, r2
 775 038a 83F8BB21 		strb	r2, [r3, #443]
 188:.\AdvantageImpl.c ****                 pjob->_ppump->_rxbuffer[0x1C] = (pjob->_ppump->_rxbuffer[0x1C] & 0x0F);
 776              		.loc 1 188 0
 777 038e 7B69     		ldr	r3, [r7, #20]
 778 0390 DB69     		ldr	r3, [r3, #28]
 779 0392 7A69     		ldr	r2, [r7, #20]
 780 0394 D269     		ldr	r2, [r2, #28]
 781 0396 92F8BC21 		ldrb	r2, [r2, #444]	@ zero_extendqisi2
ARM GAS  C:\Users\RECEPC~1\AppData\Local\Temp\ccZZcwiB.s 			page 18


 782 039a 02F00F02 		and	r2, r2, #15
 783 039e D2B2     		uxtb	r2, r2
 784 03a0 83F8BC21 		strb	r2, [r3, #444]
 189:.\AdvantageImpl.c ****                 pjob->_ppump->_rxbuffer[0x1D] = (pjob->_ppump->_rxbuffer[0x1D] & 0x0F);
 785              		.loc 1 189 0
 786 03a4 7B69     		ldr	r3, [r7, #20]
 787 03a6 DB69     		ldr	r3, [r3, #28]
 788 03a8 7A69     		ldr	r2, [r7, #20]
 789 03aa D269     		ldr	r2, [r2, #28]
 790 03ac 92F8BD21 		ldrb	r2, [r2, #445]	@ zero_extendqisi2
 791 03b0 02F00F02 		and	r2, r2, #15
 792 03b4 D2B2     		uxtb	r2, r2
 793 03b6 83F8BD21 		strb	r2, [r3, #445]
 190:.\AdvantageImpl.c ****                 //INQUIRY ABOUT THE EXTRA x10 RESULT SINCE THERE IS AN EXTRA 0 IN THE RESPONSE FOR 
 191:.\AdvantageImpl.c ****                 //MEANWHILE DIVIDING BY 10 TO REMOVE THE ZERO.
 192:.\AdvantageImpl.c ****                 pjob->_ppump->_authorizationinfo._presetamount = LSDBCDBUFF2HEX(PBYTECAST(&pjob->_p
 794              		.loc 1 192 0
 795 03ba 7B69     		ldr	r3, [r7, #20]
 796 03bc DC69     		ldr	r4, [r3, #28]
 797 03be 7B69     		ldr	r3, [r7, #20]
 798 03c0 DB69     		ldr	r3, [r3, #28]
 799 03c2 03F5DC73 		add	r3, r3, #440
 800 03c6 1846     		mov	r0, r3
 801 03c8 0621     		movs	r1, #6
 802 03ca FFF7FEFF 		bl	LSDBCDBUFF2HEX
 803 03ce 0346     		mov	r3, r0
 804 03d0 C4F8A839 		str	r3, [r4, #2472]
 193:.\AdvantageImpl.c ****                     
 194:.\AdvantageImpl.c ****                 ClearRtcBuffer();
 805              		.loc 1 194 0
 806 03d4 FFF7FEFF 		bl	ClearRtcBuffer
 195:.\AdvantageImpl.c ****                 ReadRTC();
 807              		.loc 1 195 0
 808 03d8 FFF7FEFF 		bl	ReadRTC
 196:.\AdvantageImpl.c ****                 //CAREFUL WITH RETURNS BETWEEN THE LOCK/UNLOCK CALLS
 197:.\AdvantageImpl.c ****                 //AND RECURSIVE CALLS THAT WOULD DEADLOCK!
 198:.\AdvantageImpl.c ****                 I2CBusLock();
 809              		.loc 1 198 0
 810 03dc FFF7FEFF 		bl	I2CBusLock
 199:.\AdvantageImpl.c ****             
 200:.\AdvantageImpl.c ****                 ClearEepromBuffer();
 811              		.loc 1 200 0
 812 03e0 FFF7FEFF 		bl	ClearEepromBuffer
 201:.\AdvantageImpl.c ****                 //In this position is located the payment type (CREDIT: 0x0E , CASH:0x0D)
 202:.\AdvantageImpl.c ****                 if(pjob->_ppump->_trasactionbuffer[0x00] == 0x0D)
 813              		.loc 1 202 0
 814 03e4 7B69     		ldr	r3, [r7, #20]
 815 03e6 DB69     		ldr	r3, [r3, #28]
 816 03e8 93F82030 		ldrb	r3, [r3, #32]	@ zero_extendqisi2
 817 03ec 0D2B     		cmp	r3, #13
 818 03ee 40F0DB80 		bne	.L25
 203:.\AdvantageImpl.c ****                 {
 204:.\AdvantageImpl.c ****                     //HERE WE STORE THE LAST TRANSACTION IN EEPROM! ALWAYS THE PREVIOUS TRANSACTION
 205:.\AdvantageImpl.c ****                     //WILL BE OVERWRITTEN AND LOST.
 206:.\AdvantageImpl.c ****                     //IN CASE OF A "CREDIT SALE", THE WHOLE DATA WILL BE STORED IN A SEPARATE MEMOR
 207:.\AdvantageImpl.c ****                     //SINCE IN CASE OF A RF LINK DROP, THE STATE OF THE SALE COULD BE RECOVERED BY 
 208:.\AdvantageImpl.c ****                     LoadEepromPage(EEPROM_DISPENSER_PUMP1_LAYOUT_PAGE);
ARM GAS  C:\Users\RECEPC~1\AppData\Local\Temp\ccZZcwiB.s 			page 19


 819              		.loc 1 208 0
 820 03f2 4FF40070 		mov	r0, #512
 821 03f6 FFF7FEFF 		bl	LoadEepromPage
 209:.\AdvantageImpl.c ****                     if(GetEepromBuffer()[0] == ((pjob->_ppump->_rxbuffer[0x04] & 0x0F) + 1))
 822              		.loc 1 209 0
 823 03fa FFF7FEFF 		bl	GetEepromBuffer
 824 03fe 0346     		mov	r3, r0
 825 0400 1B78     		ldrb	r3, [r3]	@ zero_extendqisi2
 826 0402 1A46     		mov	r2, r3
 827 0404 7B69     		ldr	r3, [r7, #20]
 828 0406 DB69     		ldr	r3, [r3, #28]
 829 0408 93F8A431 		ldrb	r3, [r3, #420]	@ zero_extendqisi2
 830 040c 03F00F03 		and	r3, r3, #15
 831 0410 0133     		adds	r3, r3, #1
 832 0412 9A42     		cmp	r2, r3
 833 0414 22D1     		bne	.L26
 210:.\AdvantageImpl.c ****                     {
 211:.\AdvantageImpl.c ****                         ClearEepromBuffer();
 834              		.loc 1 211 0
 835 0416 FFF7FEFF 		bl	ClearEepromBuffer
 212:.\AdvantageImpl.c ****                         //Storing the current Date/Time for this transaction
 213:.\AdvantageImpl.c ****                         memcpy(GetEepromBuffer(), GetRtcBuffer(), 0x07);
 836              		.loc 1 213 0
 837 041a FFF7FEFF 		bl	GetEepromBuffer
 838 041e 0446     		mov	r4, r0
 839 0420 FFF7FEFF 		bl	GetRtcBuffer
 840 0424 0346     		mov	r3, r0
 841 0426 2046     		mov	r0, r4
 842 0428 1946     		mov	r1, r3
 843 042a 0722     		movs	r2, #7
 844 042c FFF7FEFF 		bl	memcpy
 214:.\AdvantageImpl.c ****                         memcpy(&GetEepromBuffer()[0x07], pjob->_ppump->_rxbuffer, pjob->_ppump->_rx
 845              		.loc 1 214 0
 846 0430 FFF7FEFF 		bl	GetEepromBuffer
 847 0434 0346     		mov	r3, r0
 848 0436 D91D     		adds	r1, r3, #7
 849 0438 7B69     		ldr	r3, [r7, #20]
 850 043a DB69     		ldr	r3, [r3, #28]
 851 043c 03F5D072 		add	r2, r3, #416
 852 0440 7B69     		ldr	r3, [r7, #20]
 853 0442 DB69     		ldr	r3, [r3, #28]
 854 0444 B3F82033 		ldrh	r3, [r3, #800]
 855 0448 0846     		mov	r0, r1
 856 044a 1146     		mov	r1, r2
 857 044c 1A46     		mov	r2, r3
 858 044e FFF7FEFF 		bl	memcpy
 215:.\AdvantageImpl.c ****                         StoreEepromPage(EEPROM_DISPENSER_PUMP12_TRANSACTION_PAGE);
 859              		.loc 1 215 0
 860 0452 4FF4C860 		mov	r0, #1600
 861 0456 FFF7FEFF 		bl	StoreEepromPage
 862 045a 7EE1     		b	.L30
 863              	.L26:
 216:.\AdvantageImpl.c ****                     }
 217:.\AdvantageImpl.c ****                     else
 218:.\AdvantageImpl.c ****                     {
 219:.\AdvantageImpl.c ****                         ClearEepromBuffer();
 864              		.loc 1 219 0
ARM GAS  C:\Users\RECEPC~1\AppData\Local\Temp\ccZZcwiB.s 			page 20


 865 045c FFF7FEFF 		bl	ClearEepromBuffer
 220:.\AdvantageImpl.c ****                         LoadEepromPage(EEPROM_DISPENSER_PUMP2_LAYOUT_PAGE);
 866              		.loc 1 220 0
 867 0460 4FF41070 		mov	r0, #576
 868 0464 FFF7FEFF 		bl	LoadEepromPage
 221:.\AdvantageImpl.c ****                         if(GetEepromBuffer()[0] == ((pjob->_ppump->_rxbuffer[0x04] & 0x0F) + 1))
 869              		.loc 1 221 0
 870 0468 FFF7FEFF 		bl	GetEepromBuffer
 871 046c 0346     		mov	r3, r0
 872 046e 1B78     		ldrb	r3, [r3]	@ zero_extendqisi2
 873 0470 1A46     		mov	r2, r3
 874 0472 7B69     		ldr	r3, [r7, #20]
 875 0474 DB69     		ldr	r3, [r3, #28]
 876 0476 93F8A431 		ldrb	r3, [r3, #420]	@ zero_extendqisi2
 877 047a 03F00F03 		and	r3, r3, #15
 878 047e 0133     		adds	r3, r3, #1
 879 0480 9A42     		cmp	r2, r3
 880 0482 22D1     		bne	.L28
 222:.\AdvantageImpl.c ****                         {
 223:.\AdvantageImpl.c ****                             ClearEepromBuffer();
 881              		.loc 1 223 0
 882 0484 FFF7FEFF 		bl	ClearEepromBuffer
 224:.\AdvantageImpl.c ****                             //Storing the current Date/Time for this transaction
 225:.\AdvantageImpl.c ****                             memcpy(GetEepromBuffer(), GetRtcBuffer(), 0x07);
 883              		.loc 1 225 0
 884 0488 FFF7FEFF 		bl	GetEepromBuffer
 885 048c 0446     		mov	r4, r0
 886 048e FFF7FEFF 		bl	GetRtcBuffer
 887 0492 0346     		mov	r3, r0
 888 0494 2046     		mov	r0, r4
 889 0496 1946     		mov	r1, r3
 890 0498 0722     		movs	r2, #7
 891 049a FFF7FEFF 		bl	memcpy
 226:.\AdvantageImpl.c ****                             memcpy(&GetEepromBuffer()[0x07], pjob->_ppump->_rxbuffer, pjob->_ppump-
 892              		.loc 1 226 0
 893 049e FFF7FEFF 		bl	GetEepromBuffer
 894 04a2 0346     		mov	r3, r0
 895 04a4 D91D     		adds	r1, r3, #7
 896 04a6 7B69     		ldr	r3, [r7, #20]
 897 04a8 DB69     		ldr	r3, [r3, #28]
 898 04aa 03F5D072 		add	r2, r3, #416
 899 04ae 7B69     		ldr	r3, [r7, #20]
 900 04b0 DB69     		ldr	r3, [r3, #28]
 901 04b2 B3F82033 		ldrh	r3, [r3, #800]
 902 04b6 0846     		mov	r0, r1
 903 04b8 1146     		mov	r1, r2
 904 04ba 1A46     		mov	r2, r3
 905 04bc FFF7FEFF 		bl	memcpy
 227:.\AdvantageImpl.c ****                             StoreEepromPage(EEPROM_DISPENSER_PUMP22_TRANSACTION_PAGE);
 906              		.loc 1 227 0
 907 04c0 4FF4E860 		mov	r0, #1856
 908 04c4 FFF7FEFF 		bl	StoreEepromPage
 909 04c8 47E1     		b	.L30
 910              	.L28:
 228:.\AdvantageImpl.c ****                         }
 229:.\AdvantageImpl.c ****                         else
 230:.\AdvantageImpl.c ****                         {
ARM GAS  C:\Users\RECEPC~1\AppData\Local\Temp\ccZZcwiB.s 			page 21


 231:.\AdvantageImpl.c ****                             ClearEepromBuffer();
 911              		.loc 1 231 0
 912 04ca FFF7FEFF 		bl	ClearEepromBuffer
 232:.\AdvantageImpl.c ****                             LoadEepromPage(EEPROM_DISPENSER_PUMP3_LAYOUT_PAGE);
 913              		.loc 1 232 0
 914 04ce 4FF42070 		mov	r0, #640
 915 04d2 FFF7FEFF 		bl	LoadEepromPage
 233:.\AdvantageImpl.c ****                             if(GetEepromBuffer()[0] == ((pjob->_ppump->_rxbuffer[0x04] & 0x0F) + 1)
 916              		.loc 1 233 0
 917 04d6 FFF7FEFF 		bl	GetEepromBuffer
 918 04da 0346     		mov	r3, r0
 919 04dc 1B78     		ldrb	r3, [r3]	@ zero_extendqisi2
 920 04de 1A46     		mov	r2, r3
 921 04e0 7B69     		ldr	r3, [r7, #20]
 922 04e2 DB69     		ldr	r3, [r3, #28]
 923 04e4 93F8A431 		ldrb	r3, [r3, #420]	@ zero_extendqisi2
 924 04e8 03F00F03 		and	r3, r3, #15
 925 04ec 0133     		adds	r3, r3, #1
 926 04ee 9A42     		cmp	r2, r3
 927 04f0 22D1     		bne	.L29
 234:.\AdvantageImpl.c ****                             {
 235:.\AdvantageImpl.c ****                                 ClearEepromBuffer();
 928              		.loc 1 235 0
 929 04f2 FFF7FEFF 		bl	ClearEepromBuffer
 236:.\AdvantageImpl.c ****                                 //Storing the current Date/Time for this transaction
 237:.\AdvantageImpl.c ****                                 memcpy(GetEepromBuffer(), GetRtcBuffer(), 0x07);
 930              		.loc 1 237 0
 931 04f6 FFF7FEFF 		bl	GetEepromBuffer
 932 04fa 0446     		mov	r4, r0
 933 04fc FFF7FEFF 		bl	GetRtcBuffer
 934 0500 0346     		mov	r3, r0
 935 0502 2046     		mov	r0, r4
 936 0504 1946     		mov	r1, r3
 937 0506 0722     		movs	r2, #7
 938 0508 FFF7FEFF 		bl	memcpy
 238:.\AdvantageImpl.c ****                                 memcpy(&GetEepromBuffer()[0x07], pjob->_ppump->_rxbuffer, pjob->_pp
 939              		.loc 1 238 0
 940 050c FFF7FEFF 		bl	GetEepromBuffer
 941 0510 0346     		mov	r3, r0
 942 0512 D91D     		adds	r1, r3, #7
 943 0514 7B69     		ldr	r3, [r7, #20]
 944 0516 DB69     		ldr	r3, [r3, #28]
 945 0518 03F5D072 		add	r2, r3, #416
 946 051c 7B69     		ldr	r3, [r7, #20]
 947 051e DB69     		ldr	r3, [r3, #28]
 948 0520 B3F82033 		ldrh	r3, [r3, #800]
 949 0524 0846     		mov	r0, r1
 950 0526 1146     		mov	r1, r2
 951 0528 1A46     		mov	r2, r3
 952 052a FFF7FEFF 		bl	memcpy
 239:.\AdvantageImpl.c ****                                 StoreEepromPage(EEPROM_DISPENSER_PUMP32_TRANSACTION_PAGE);
 953              		.loc 1 239 0
 954 052e 4FF40460 		mov	r0, #2112
 955 0532 FFF7FEFF 		bl	StoreEepromPage
 956 0536 10E1     		b	.L30
 957              	.L29:
 240:.\AdvantageImpl.c ****                             }
ARM GAS  C:\Users\RECEPC~1\AppData\Local\Temp\ccZZcwiB.s 			page 22


 241:.\AdvantageImpl.c ****                             else
 242:.\AdvantageImpl.c ****                             {
 243:.\AdvantageImpl.c ****                                 ClearEepromBuffer();
 958              		.loc 1 243 0
 959 0538 FFF7FEFF 		bl	ClearEepromBuffer
 244:.\AdvantageImpl.c ****                                 LoadEepromPage(EEPROM_DISPENSER_PUMP4_LAYOUT_PAGE);
 960              		.loc 1 244 0
 961 053c 4FF43070 		mov	r0, #704
 962 0540 FFF7FEFF 		bl	LoadEepromPage
 245:.\AdvantageImpl.c ****                                 if(GetEepromBuffer()[0] == ((pjob->_ppump->_rxbuffer[0x04] & 0x0F) 
 963              		.loc 1 245 0
 964 0544 FFF7FEFF 		bl	GetEepromBuffer
 965 0548 0346     		mov	r3, r0
 966 054a 1B78     		ldrb	r3, [r3]	@ zero_extendqisi2
 967 054c 1A46     		mov	r2, r3
 968 054e 7B69     		ldr	r3, [r7, #20]
 969 0550 DB69     		ldr	r3, [r3, #28]
 970 0552 93F8A431 		ldrb	r3, [r3, #420]	@ zero_extendqisi2
 971 0556 03F00F03 		and	r3, r3, #15
 972 055a 0133     		adds	r3, r3, #1
 973 055c 9A42     		cmp	r2, r3
 974 055e 40F0FC80 		bne	.L30
 246:.\AdvantageImpl.c ****                                 {
 247:.\AdvantageImpl.c ****                                     ClearEepromBuffer();
 975              		.loc 1 247 0
 976 0562 FFF7FEFF 		bl	ClearEepromBuffer
 248:.\AdvantageImpl.c ****                                     //Storing the current Date/Time for this transaction
 249:.\AdvantageImpl.c ****                                     memcpy(GetEepromBuffer(), GetRtcBuffer(), 0x07);
 977              		.loc 1 249 0
 978 0566 FFF7FEFF 		bl	GetEepromBuffer
 979 056a 0446     		mov	r4, r0
 980 056c FFF7FEFF 		bl	GetRtcBuffer
 981 0570 0346     		mov	r3, r0
 982 0572 2046     		mov	r0, r4
 983 0574 1946     		mov	r1, r3
 984 0576 0722     		movs	r2, #7
 985 0578 FFF7FEFF 		bl	memcpy
 250:.\AdvantageImpl.c ****                                     memcpy(&GetEepromBuffer()[0x07], pjob->_ppump->_rxbuffer, pjob-
 986              		.loc 1 250 0
 987 057c FFF7FEFF 		bl	GetEepromBuffer
 988 0580 0346     		mov	r3, r0
 989 0582 D91D     		adds	r1, r3, #7
 990 0584 7B69     		ldr	r3, [r7, #20]
 991 0586 DB69     		ldr	r3, [r3, #28]
 992 0588 03F5D072 		add	r2, r3, #416
 993 058c 7B69     		ldr	r3, [r7, #20]
 994 058e DB69     		ldr	r3, [r3, #28]
 995 0590 B3F82033 		ldrh	r3, [r3, #800]
 996 0594 0846     		mov	r0, r1
 997 0596 1146     		mov	r1, r2
 998 0598 1A46     		mov	r2, r3
 999 059a FFF7FEFF 		bl	memcpy
 251:.\AdvantageImpl.c ****                                     StoreEepromPage(EEPROM_DISPENSER_PUMP42_TRANSACTION_PAGE);
 1000              		.loc 1 251 0
 1001 059e 4FF41460 		mov	r0, #2368
 1002 05a2 FFF7FEFF 		bl	StoreEepromPage
 1003 05a6 D8E0     		b	.L30
ARM GAS  C:\Users\RECEPC~1\AppData\Local\Temp\ccZZcwiB.s 			page 23


 1004              	.L25:
 252:.\AdvantageImpl.c ****                                 }
 253:.\AdvantageImpl.c ****                             }
 254:.\AdvantageImpl.c ****                         }
 255:.\AdvantageImpl.c ****                     }
 256:.\AdvantageImpl.c ****                 }else{//CREDIT TRANSACTION
 257:.\AdvantageImpl.c ****                     //HERE WE STORE THE LAST TRANSACTION IN EEPROM! ALWAYS THE PREVIOUS TRANSACTION
 258:.\AdvantageImpl.c ****                     //WILL BE OVERWRITTEN AND LOST.
 259:.\AdvantageImpl.c ****                     //IN CASE OF A "CREDIT SALE", THE WHOLE DATA WILL BE STORED IN A SEPARATE MEMOR
 260:.\AdvantageImpl.c ****                     //SINCE IN CASE OF A RF LINK DROP, THE STATE OF THE SALE COULD BE RECOVERED BY 
 261:.\AdvantageImpl.c ****                     LoadEepromPage(EEPROM_DISPENSER_PUMP1_LAYOUT_PAGE);
 1005              		.loc 1 261 0
 1006 05a8 4FF40070 		mov	r0, #512
 1007 05ac FFF7FEFF 		bl	LoadEepromPage
 262:.\AdvantageImpl.c ****                     if(GetEepromBuffer()[0] == ((pjob->_ppump->_rxbuffer[0x04] & 0x0F) + 1))
 1008              		.loc 1 262 0
 1009 05b0 FFF7FEFF 		bl	GetEepromBuffer
 1010 05b4 0346     		mov	r3, r0
 1011 05b6 1B78     		ldrb	r3, [r3]	@ zero_extendqisi2
 1012 05b8 1A46     		mov	r2, r3
 1013 05ba 7B69     		ldr	r3, [r7, #20]
 1014 05bc DB69     		ldr	r3, [r3, #28]
 1015 05be 93F8A431 		ldrb	r3, [r3, #420]	@ zero_extendqisi2
 1016 05c2 03F00F03 		and	r3, r3, #15
 1017 05c6 0133     		adds	r3, r3, #1
 1018 05c8 9A42     		cmp	r2, r3
 1019 05ca 22D1     		bne	.L31
 263:.\AdvantageImpl.c ****                     {
 264:.\AdvantageImpl.c ****                         ClearEepromBuffer();
 1020              		.loc 1 264 0
 1021 05cc FFF7FEFF 		bl	ClearEepromBuffer
 265:.\AdvantageImpl.c ****                         //Storing the current Date/Time for this transaction
 266:.\AdvantageImpl.c ****                         memcpy(GetEepromBuffer(), GetRtcBuffer(), 0x07);
 1022              		.loc 1 266 0
 1023 05d0 FFF7FEFF 		bl	GetEepromBuffer
 1024 05d4 0446     		mov	r4, r0
 1025 05d6 FFF7FEFF 		bl	GetRtcBuffer
 1026 05da 0346     		mov	r3, r0
 1027 05dc 2046     		mov	r0, r4
 1028 05de 1946     		mov	r1, r3
 1029 05e0 0722     		movs	r2, #7
 1030 05e2 FFF7FEFF 		bl	memcpy
 267:.\AdvantageImpl.c ****                         memcpy(&GetEepromBuffer()[0x07], pjob->_ppump->_rxbuffer, pjob->_ppump->_rx
 1031              		.loc 1 267 0
 1032 05e6 FFF7FEFF 		bl	GetEepromBuffer
 1033 05ea 0346     		mov	r3, r0
 1034 05ec D91D     		adds	r1, r3, #7
 1035 05ee 7B69     		ldr	r3, [r7, #20]
 1036 05f0 DB69     		ldr	r3, [r3, #28]
 1037 05f2 03F5D072 		add	r2, r3, #416
 1038 05f6 7B69     		ldr	r3, [r7, #20]
 1039 05f8 DB69     		ldr	r3, [r3, #28]
 1040 05fa B3F82033 		ldrh	r3, [r3, #800]
 1041 05fe 0846     		mov	r0, r1
 1042 0600 1146     		mov	r1, r2
 1043 0602 1A46     		mov	r2, r3
 1044 0604 FFF7FEFF 		bl	memcpy
ARM GAS  C:\Users\RECEPC~1\AppData\Local\Temp\ccZZcwiB.s 			page 24


 268:.\AdvantageImpl.c ****                         StoreEepromPage(EEPROM_DISPENSER_PUMP14_TRANSACTION_PAGE);
 1045              		.loc 1 268 0
 1046 0608 4FF4D860 		mov	r0, #1728
 1047 060c FFF7FEFF 		bl	StoreEepromPage
 1048 0610 A3E0     		b	.L30
 1049              	.L31:
 269:.\AdvantageImpl.c ****                     }
 270:.\AdvantageImpl.c ****                     else
 271:.\AdvantageImpl.c ****                     {
 272:.\AdvantageImpl.c ****                         ClearEepromBuffer();
 1050              		.loc 1 272 0
 1051 0612 FFF7FEFF 		bl	ClearEepromBuffer
 273:.\AdvantageImpl.c ****                         LoadEepromPage(EEPROM_DISPENSER_PUMP2_LAYOUT_PAGE);
 1052              		.loc 1 273 0
 1053 0616 4FF41070 		mov	r0, #576
 1054 061a FFF7FEFF 		bl	LoadEepromPage
 274:.\AdvantageImpl.c ****                         if(GetEepromBuffer()[0] == ((pjob->_ppump->_rxbuffer[0x04] & 0x0F) + 1))
 1055              		.loc 1 274 0
 1056 061e FFF7FEFF 		bl	GetEepromBuffer
 1057 0622 0346     		mov	r3, r0
 1058 0624 1B78     		ldrb	r3, [r3]	@ zero_extendqisi2
 1059 0626 1A46     		mov	r2, r3
 1060 0628 7B69     		ldr	r3, [r7, #20]
 1061 062a DB69     		ldr	r3, [r3, #28]
 1062 062c 93F8A431 		ldrb	r3, [r3, #420]	@ zero_extendqisi2
 1063 0630 03F00F03 		and	r3, r3, #15
 1064 0634 0133     		adds	r3, r3, #1
 1065 0636 9A42     		cmp	r2, r3
 1066 0638 22D1     		bne	.L32
 275:.\AdvantageImpl.c ****                         {
 276:.\AdvantageImpl.c ****                             ClearEepromBuffer();
 1067              		.loc 1 276 0
 1068 063a FFF7FEFF 		bl	ClearEepromBuffer
 277:.\AdvantageImpl.c ****                             //Storing the current Date/Time for this transaction
 278:.\AdvantageImpl.c ****                             memcpy(GetEepromBuffer(), GetRtcBuffer(), 0x07);
 1069              		.loc 1 278 0
 1070 063e FFF7FEFF 		bl	GetEepromBuffer
 1071 0642 0446     		mov	r4, r0
 1072 0644 FFF7FEFF 		bl	GetRtcBuffer
 1073 0648 0346     		mov	r3, r0
 1074 064a 2046     		mov	r0, r4
 1075 064c 1946     		mov	r1, r3
 1076 064e 0722     		movs	r2, #7
 1077 0650 FFF7FEFF 		bl	memcpy
 279:.\AdvantageImpl.c ****                             memcpy(&GetEepromBuffer()[0x07], pjob->_ppump->_rxbuffer, pjob->_ppump-
 1078              		.loc 1 279 0
 1079 0654 FFF7FEFF 		bl	GetEepromBuffer
 1080 0658 0346     		mov	r3, r0
 1081 065a D91D     		adds	r1, r3, #7
 1082 065c 7B69     		ldr	r3, [r7, #20]
 1083 065e DB69     		ldr	r3, [r3, #28]
 1084 0660 03F5D072 		add	r2, r3, #416
 1085 0664 7B69     		ldr	r3, [r7, #20]
 1086 0666 DB69     		ldr	r3, [r3, #28]
 1087 0668 B3F82033 		ldrh	r3, [r3, #800]
 1088 066c 0846     		mov	r0, r1
 1089 066e 1146     		mov	r1, r2
ARM GAS  C:\Users\RECEPC~1\AppData\Local\Temp\ccZZcwiB.s 			page 25


 1090 0670 1A46     		mov	r2, r3
 1091 0672 FFF7FEFF 		bl	memcpy
 280:.\AdvantageImpl.c ****                             StoreEepromPage(EEPROM_DISPENSER_PUMP24_TRANSACTION_PAGE);
 1092              		.loc 1 280 0
 1093 0676 4FF4F860 		mov	r0, #1984
 1094 067a FFF7FEFF 		bl	StoreEepromPage
 1095 067e 6CE0     		b	.L30
 1096              	.L32:
 281:.\AdvantageImpl.c ****                         }
 282:.\AdvantageImpl.c ****                         else
 283:.\AdvantageImpl.c ****                         {
 284:.\AdvantageImpl.c ****                             ClearEepromBuffer();
 1097              		.loc 1 284 0
 1098 0680 FFF7FEFF 		bl	ClearEepromBuffer
 285:.\AdvantageImpl.c ****                             LoadEepromPage(EEPROM_DISPENSER_PUMP3_LAYOUT_PAGE);
 1099              		.loc 1 285 0
 1100 0684 4FF42070 		mov	r0, #640
 1101 0688 FFF7FEFF 		bl	LoadEepromPage
 286:.\AdvantageImpl.c ****                             if(GetEepromBuffer()[0] == ((pjob->_ppump->_rxbuffer[0x04] & 0x0F) + 1)
 1102              		.loc 1 286 0
 1103 068c FFF7FEFF 		bl	GetEepromBuffer
 1104 0690 0346     		mov	r3, r0
 1105 0692 1B78     		ldrb	r3, [r3]	@ zero_extendqisi2
 1106 0694 1A46     		mov	r2, r3
 1107 0696 7B69     		ldr	r3, [r7, #20]
 1108 0698 DB69     		ldr	r3, [r3, #28]
 1109 069a 93F8A431 		ldrb	r3, [r3, #420]	@ zero_extendqisi2
 1110 069e 03F00F03 		and	r3, r3, #15
 1111 06a2 0133     		adds	r3, r3, #1
 1112 06a4 9A42     		cmp	r2, r3
 1113 06a6 22D1     		bne	.L33
 287:.\AdvantageImpl.c ****                             {
 288:.\AdvantageImpl.c ****                                 ClearEepromBuffer();
 1114              		.loc 1 288 0
 1115 06a8 FFF7FEFF 		bl	ClearEepromBuffer
 289:.\AdvantageImpl.c ****                                 //Storing the current Date/Time for this transaction
 290:.\AdvantageImpl.c ****                                 memcpy(GetEepromBuffer(), GetRtcBuffer(), 0x07);
 1116              		.loc 1 290 0
 1117 06ac FFF7FEFF 		bl	GetEepromBuffer
 1118 06b0 0446     		mov	r4, r0
 1119 06b2 FFF7FEFF 		bl	GetRtcBuffer
 1120 06b6 0346     		mov	r3, r0
 1121 06b8 2046     		mov	r0, r4
 1122 06ba 1946     		mov	r1, r3
 1123 06bc 0722     		movs	r2, #7
 1124 06be FFF7FEFF 		bl	memcpy
 291:.\AdvantageImpl.c ****                                 memcpy(&GetEepromBuffer()[0x07], pjob->_ppump->_rxbuffer, pjob->_pp
 1125              		.loc 1 291 0
 1126 06c2 FFF7FEFF 		bl	GetEepromBuffer
 1127 06c6 0346     		mov	r3, r0
 1128 06c8 D91D     		adds	r1, r3, #7
 1129 06ca 7B69     		ldr	r3, [r7, #20]
 1130 06cc DB69     		ldr	r3, [r3, #28]
 1131 06ce 03F5D072 		add	r2, r3, #416
 1132 06d2 7B69     		ldr	r3, [r7, #20]
 1133 06d4 DB69     		ldr	r3, [r3, #28]
 1134 06d6 B3F82033 		ldrh	r3, [r3, #800]
ARM GAS  C:\Users\RECEPC~1\AppData\Local\Temp\ccZZcwiB.s 			page 26


 1135 06da 0846     		mov	r0, r1
 1136 06dc 1146     		mov	r1, r2
 1137 06de 1A46     		mov	r2, r3
 1138 06e0 FFF7FEFF 		bl	memcpy
 292:.\AdvantageImpl.c ****                                 StoreEepromPage(EEPROM_DISPENSER_PUMP34_TRANSACTION_PAGE);
 1139              		.loc 1 292 0
 1140 06e4 4FF40C60 		mov	r0, #2240
 1141 06e8 FFF7FEFF 		bl	StoreEepromPage
 1142 06ec 35E0     		b	.L30
 1143              	.L33:
 293:.\AdvantageImpl.c ****                             }
 294:.\AdvantageImpl.c ****                             else
 295:.\AdvantageImpl.c ****                             {
 296:.\AdvantageImpl.c ****                                 ClearEepromBuffer();
 1144              		.loc 1 296 0
 1145 06ee FFF7FEFF 		bl	ClearEepromBuffer
 297:.\AdvantageImpl.c ****                                 LoadEepromPage(EEPROM_DISPENSER_PUMP4_LAYOUT_PAGE);
 1146              		.loc 1 297 0
 1147 06f2 4FF43070 		mov	r0, #704
 1148 06f6 FFF7FEFF 		bl	LoadEepromPage
 298:.\AdvantageImpl.c ****                                 if(GetEepromBuffer()[0] == ((pjob->_ppump->_rxbuffer[0x04] & 0x0F) 
 1149              		.loc 1 298 0
 1150 06fa FFF7FEFF 		bl	GetEepromBuffer
 1151 06fe 0346     		mov	r3, r0
 1152 0700 1B78     		ldrb	r3, [r3]	@ zero_extendqisi2
 1153 0702 1A46     		mov	r2, r3
 1154 0704 7B69     		ldr	r3, [r7, #20]
 1155 0706 DB69     		ldr	r3, [r3, #28]
 1156 0708 93F8A431 		ldrb	r3, [r3, #420]	@ zero_extendqisi2
 1157 070c 03F00F03 		and	r3, r3, #15
 1158 0710 0133     		adds	r3, r3, #1
 1159 0712 9A42     		cmp	r2, r3
 1160 0714 21D1     		bne	.L30
 299:.\AdvantageImpl.c ****                                 {
 300:.\AdvantageImpl.c ****                                     ClearEepromBuffer();
 1161              		.loc 1 300 0
 1162 0716 FFF7FEFF 		bl	ClearEepromBuffer
 301:.\AdvantageImpl.c ****                                     //Storing the current Date/Time for this transaction
 302:.\AdvantageImpl.c ****                                     memcpy(GetEepromBuffer(), GetRtcBuffer(), 0x07);
 1163              		.loc 1 302 0
 1164 071a FFF7FEFF 		bl	GetEepromBuffer
 1165 071e 0446     		mov	r4, r0
 1166 0720 FFF7FEFF 		bl	GetRtcBuffer
 1167 0724 0346     		mov	r3, r0
 1168 0726 2046     		mov	r0, r4
 1169 0728 1946     		mov	r1, r3
 1170 072a 0722     		movs	r2, #7
 1171 072c FFF7FEFF 		bl	memcpy
 303:.\AdvantageImpl.c ****                                     memcpy(&GetEepromBuffer()[0x07], pjob->_ppump->_rxbuffer, pjob-
 1172              		.loc 1 303 0
 1173 0730 FFF7FEFF 		bl	GetEepromBuffer
 1174 0734 0346     		mov	r3, r0
 1175 0736 D91D     		adds	r1, r3, #7
 1176 0738 7B69     		ldr	r3, [r7, #20]
 1177 073a DB69     		ldr	r3, [r3, #28]
 1178 073c 03F5D072 		add	r2, r3, #416
 1179 0740 7B69     		ldr	r3, [r7, #20]
ARM GAS  C:\Users\RECEPC~1\AppData\Local\Temp\ccZZcwiB.s 			page 27


 1180 0742 DB69     		ldr	r3, [r3, #28]
 1181 0744 B3F82033 		ldrh	r3, [r3, #800]
 1182 0748 0846     		mov	r0, r1
 1183 074a 1146     		mov	r1, r2
 1184 074c 1A46     		mov	r2, r3
 1185 074e FFF7FEFF 		bl	memcpy
 304:.\AdvantageImpl.c ****                                     StoreEepromPage(EEPROM_DISPENSER_PUMP44_TRANSACTION_PAGE);
 1186              		.loc 1 304 0
 1187 0752 4FF41C60 		mov	r0, #2496
 1188 0756 FFF7FEFF 		bl	StoreEepromPage
 1189              	.L30:
 305:.\AdvantageImpl.c ****                                 }
 306:.\AdvantageImpl.c ****                             }
 307:.\AdvantageImpl.c ****                         }
 308:.\AdvantageImpl.c ****                     }
 309:.\AdvantageImpl.c ****                 }
 310:.\AdvantageImpl.c ****                 I2CBusUnlock();
 1190              		.loc 1 310 0
 1191 075a FFF7FEFF 		bl	I2CBusUnlock
 1192 075e CBE3     		b	.L34
 1193              	.L16:
 311:.\AdvantageImpl.c ****             }
 312:.\AdvantageImpl.c ****             else
 313:.\AdvantageImpl.c ****             {            
 314:.\AdvantageImpl.c ****                 pjob->_ppump->_rxbuffer[0x09] = (pjob->_ppump->_rxbuffer[0x09] & 0x0F);//Hose id
 1194              		.loc 1 314 0
 1195 0760 7B69     		ldr	r3, [r7, #20]
 1196 0762 DB69     		ldr	r3, [r3, #28]
 1197 0764 7A69     		ldr	r2, [r7, #20]
 1198 0766 D269     		ldr	r2, [r2, #28]
 1199 0768 92F8A921 		ldrb	r2, [r2, #425]	@ zero_extendqisi2
 1200 076c 02F00F02 		and	r2, r2, #15
 1201 0770 D2B2     		uxtb	r2, r2
 1202 0772 83F8A921 		strb	r2, [r3, #425]
 315:.\AdvantageImpl.c ****                 pjob->_ppump->_authorizationinfo._hoseid = pjob->_ppump->_rxbuffer[0x09];//Hose id
 1203              		.loc 1 315 0
 1204 0776 7B69     		ldr	r3, [r7, #20]
 1205 0778 DB69     		ldr	r3, [r3, #28]
 1206 077a 7A69     		ldr	r2, [r7, #20]
 1207 077c D269     		ldr	r2, [r2, #28]
 1208 077e 92F8A921 		ldrb	r2, [r2, #425]	@ zero_extendqisi2
 1209 0782 83F8A229 		strb	r2, [r3, #2466]
 316:.\AdvantageImpl.c ****                 
 317:.\AdvantageImpl.c ****                 //In this position is located the payment type (CREDIT: 0x0E , CASH:0x0D)
 318:.\AdvantageImpl.c ****                 if(pjob->_ppump->_trasactionbuffer[0x00] == 0x0D)
 1210              		.loc 1 318 0
 1211 0786 7B69     		ldr	r3, [r7, #20]
 1212 0788 DB69     		ldr	r3, [r3, #28]
 1213 078a 93F82030 		ldrb	r3, [r3, #32]	@ zero_extendqisi2
 1214 078e 0D2B     		cmp	r3, #13
 1215 0790 40F0E080 		bne	.L35
 1216              	.LBB5:
 319:.\AdvantageImpl.c ****                 {
 320:.\AdvantageImpl.c ****                     I2CBusLock();
 1217              		.loc 1 320 0
 1218 0794 FFF7FEFF 		bl	I2CBusLock
 321:.\AdvantageImpl.c ****                     ClearEepromBuffer();
ARM GAS  C:\Users\RECEPC~1\AppData\Local\Temp\ccZZcwiB.s 			page 28


 1219              		.loc 1 321 0
 1220 0798 FFF7FEFF 		bl	ClearEepromBuffer
 322:.\AdvantageImpl.c ****                     uint16 eeprompage = DispenserGetEepromPPUPageFromPumpID(pjob->_ppump->_pumpid);
 1221              		.loc 1 322 0
 1222 079c 7B69     		ldr	r3, [r7, #20]
 1223 079e DB69     		ldr	r3, [r3, #28]
 1224 07a0 1B78     		ldrb	r3, [r3]	@ zero_extendqisi2
 1225 07a2 1846     		mov	r0, r3
 1226 07a4 FFF7FEFF 		bl	DispenserGetEepromPPUPageFromPumpID
 1227 07a8 0346     		mov	r3, r0
 1228 07aa FB81     		strh	r3, [r7, #14]	@ movhi
 323:.\AdvantageImpl.c ****                     LoadEepromPage(eeprompage);
 1229              		.loc 1 323 0
 1230 07ac FB89     		ldrh	r3, [r7, #14]
 1231 07ae 1846     		mov	r0, r3
 1232 07b0 FFF7FEFF 		bl	LoadEepromPage
 324:.\AdvantageImpl.c ****                     switch(pjob->_ppump->_authorizationinfo._hoseid)
 1233              		.loc 1 324 0
 1234 07b4 7B69     		ldr	r3, [r7, #20]
 1235 07b6 DB69     		ldr	r3, [r3, #28]
 1236 07b8 93F8A239 		ldrb	r3, [r3, #2466]
 1237 07bc DBB2     		uxtb	r3, r3
 1238 07be 032B     		cmp	r3, #3
 1239 07c0 64D8     		bhi	.L36
 1240 07c2 01A2     		adr	r2, .L38
 1241 07c4 52F823F0 		ldr	pc, [r2, r3, lsl #2]
 1242              		.p2align 2
 1243              	.L38:
 1244 07c8 D9070000 		.word	.L37+1
 1245 07cc 03080000 		.word	.L39+1
 1246 07d0 31080000 		.word	.L40+1
 1247 07d4 5F080000 		.word	.L41+1
 1248              		.p2align 1
 1249              	.L37:
 325:.\AdvantageImpl.c ****                     {
 326:.\AdvantageImpl.c ****                         case 0x00:
 327:.\AdvantageImpl.c ****                         //Six bytes only since the PPU is constrained to this length
 328:.\AdvantageImpl.c ****                         memcpy(PBYTECAST(&pjob->_ppump->_trasactionbuffer[GetBufferIndexFromDisplay
 1250              		.loc 1 328 0
 1251 07d8 7B69     		ldr	r3, [r7, #20]
 1252 07da DC69     		ldr	r4, [r3, #28]
 1253 07dc 6520     		movs	r0, #101
 1254 07de FFF7FEFF 		bl	GetBufferIndexFromDisplayID
 1255 07e2 0346     		mov	r3, r0
 1256 07e4 2033     		adds	r3, r3, #32
 1257 07e6 1C44     		add	r4, r4, r3
 1258 07e8 FFF7FEFF 		bl	GetEepromBuffer
 1259 07ec 0546     		mov	r5, r0
 1260 07ee 6520     		movs	r0, #101
 1261 07f0 FFF7FEFF 		bl	GetBufferLengthFromDisplayID
 1262 07f4 0346     		mov	r3, r0
 1263 07f6 2046     		mov	r0, r4
 1264 07f8 2946     		mov	r1, r5
 1265 07fa 1A46     		mov	r2, r3
 1266 07fc FFF7FEFF 		bl	memcpy
 329:.\AdvantageImpl.c ****                         break;
 1267              		.loc 1 329 0
ARM GAS  C:\Users\RECEPC~1\AppData\Local\Temp\ccZZcwiB.s 			page 29


 1268 0800 44E0     		b	.L36
 1269              	.L39:
 330:.\AdvantageImpl.c ****                         case 0x01:
 331:.\AdvantageImpl.c ****                         //Six bytes only since the PPU is constrained to this length
 332:.\AdvantageImpl.c ****                         memcpy(PBYTECAST(&pjob->_ppump->_trasactionbuffer[GetBufferIndexFromDisplay
 1270              		.loc 1 332 0
 1271 0802 7B69     		ldr	r3, [r7, #20]
 1272 0804 DC69     		ldr	r4, [r3, #28]
 1273 0806 6520     		movs	r0, #101
 1274 0808 FFF7FEFF 		bl	GetBufferIndexFromDisplayID
 1275 080c 0346     		mov	r3, r0
 1276 080e 2033     		adds	r3, r3, #32
 1277 0810 E518     		adds	r5, r4, r3
 1278 0812 FFF7FEFF 		bl	GetEepromBuffer
 1279 0816 0346     		mov	r3, r0
 1280 0818 03F11004 		add	r4, r3, #16
 1281 081c 6520     		movs	r0, #101
 1282 081e FFF7FEFF 		bl	GetBufferLengthFromDisplayID
 1283 0822 0346     		mov	r3, r0
 1284 0824 2846     		mov	r0, r5
 1285 0826 2146     		mov	r1, r4
 1286 0828 1A46     		mov	r2, r3
 1287 082a FFF7FEFF 		bl	memcpy
 333:.\AdvantageImpl.c ****                         break;
 1288              		.loc 1 333 0
 1289 082e 2DE0     		b	.L36
 1290              	.L40:
 334:.\AdvantageImpl.c ****                         case 0x02:
 335:.\AdvantageImpl.c ****                         //Six bytes only since the PPU is constrained to this length
 336:.\AdvantageImpl.c ****                         memcpy(PBYTECAST(&pjob->_ppump->_trasactionbuffer[GetBufferIndexFromDisplay
 1291              		.loc 1 336 0
 1292 0830 7B69     		ldr	r3, [r7, #20]
 1293 0832 DC69     		ldr	r4, [r3, #28]
 1294 0834 6520     		movs	r0, #101
 1295 0836 FFF7FEFF 		bl	GetBufferIndexFromDisplayID
 1296 083a 0346     		mov	r3, r0
 1297 083c 2033     		adds	r3, r3, #32
 1298 083e E518     		adds	r5, r4, r3
 1299 0840 FFF7FEFF 		bl	GetEepromBuffer
 1300 0844 0346     		mov	r3, r0
 1301 0846 03F12004 		add	r4, r3, #32
 1302 084a 6520     		movs	r0, #101
 1303 084c FFF7FEFF 		bl	GetBufferLengthFromDisplayID
 1304 0850 0346     		mov	r3, r0
 1305 0852 2846     		mov	r0, r5
 1306 0854 2146     		mov	r1, r4
 1307 0856 1A46     		mov	r2, r3
 1308 0858 FFF7FEFF 		bl	memcpy
 337:.\AdvantageImpl.c ****                         break;
 1309              		.loc 1 337 0
 1310 085c 16E0     		b	.L36
 1311              	.L41:
 338:.\AdvantageImpl.c ****                         case 0x03:
 339:.\AdvantageImpl.c ****                         //Six bytes only since the PPU is constrained to this length
 340:.\AdvantageImpl.c ****                         memcpy(PBYTECAST(&pjob->_ppump->_trasactionbuffer[GetBufferIndexFromDisplay
 1312              		.loc 1 340 0
 1313 085e 7B69     		ldr	r3, [r7, #20]
ARM GAS  C:\Users\RECEPC~1\AppData\Local\Temp\ccZZcwiB.s 			page 30


 1314 0860 DC69     		ldr	r4, [r3, #28]
 1315 0862 6520     		movs	r0, #101
 1316 0864 FFF7FEFF 		bl	GetBufferIndexFromDisplayID
 1317 0868 0346     		mov	r3, r0
 1318 086a 2033     		adds	r3, r3, #32
 1319 086c E518     		adds	r5, r4, r3
 1320 086e FFF7FEFF 		bl	GetEepromBuffer
 1321 0872 0346     		mov	r3, r0
 1322 0874 03F13004 		add	r4, r3, #48
 1323 0878 6520     		movs	r0, #101
 1324 087a FFF7FEFF 		bl	GetBufferLengthFromDisplayID
 1325 087e 0346     		mov	r3, r0
 1326 0880 2846     		mov	r0, r5
 1327 0882 2146     		mov	r1, r4
 1328 0884 1A46     		mov	r2, r3
 1329 0886 FFF7FEFF 		bl	memcpy
 341:.\AdvantageImpl.c ****                         break;
 1330              		.loc 1 341 0
 1331 088a 00BF     		nop
 1332              	.L36:
 342:.\AdvantageImpl.c ****                     }
 343:.\AdvantageImpl.c ****                     I2CBusUnlock();
 1333              		.loc 1 343 0
 1334 088c FFF7FEFF 		bl	I2CBusUnlock
 344:.\AdvantageImpl.c ****                     
 345:.\AdvantageImpl.c ****                     memcpy(PBYTECAST(&pjob->_ppump->_rxbuffer[0x0C]), PBYTECAST(&pjob->_ppump->_tra
 1335              		.loc 1 345 0
 1336 0890 7B69     		ldr	r3, [r7, #20]
 1337 0892 DB69     		ldr	r3, [r3, #28]
 1338 0894 03F5D675 		add	r5, r3, #428
 1339 0898 7B69     		ldr	r3, [r7, #20]
 1340 089a DC69     		ldr	r4, [r3, #28]
 1341 089c 6520     		movs	r0, #101
 1342 089e FFF7FEFF 		bl	GetBufferIndexFromDisplayID
 1343 08a2 0346     		mov	r3, r0
 1344 08a4 2033     		adds	r3, r3, #32
 1345 08a6 2344     		add	r3, r3, r4
 1346 08a8 2846     		mov	r0, r5
 1347 08aa 1946     		mov	r1, r3
 1348 08ac 0622     		movs	r2, #6
 1349 08ae FFF7FEFF 		bl	memcpy
 346:.\AdvantageImpl.c ****                     
 347:.\AdvantageImpl.c ****                     //Bytes from index 12 to 17 are the digits for the PPU used for the transaction
 348:.\AdvantageImpl.c ****                     //Digits are in BCD format
 349:.\AdvantageImpl.c ****                     pjob->_ppump->_rxbuffer[0x0C] = (pjob->_ppump->_rxbuffer[0x0C] & 0x0F);
 1350              		.loc 1 349 0
 1351 08b2 7B69     		ldr	r3, [r7, #20]
 1352 08b4 DB69     		ldr	r3, [r3, #28]
 1353 08b6 7A69     		ldr	r2, [r7, #20]
 1354 08b8 D269     		ldr	r2, [r2, #28]
 1355 08ba 92F8AC21 		ldrb	r2, [r2, #428]	@ zero_extendqisi2
 1356 08be 02F00F02 		and	r2, r2, #15
 1357 08c2 D2B2     		uxtb	r2, r2
 1358 08c4 83F8AC21 		strb	r2, [r3, #428]
 350:.\AdvantageImpl.c ****                     pjob->_ppump->_rxbuffer[0x0D] = (pjob->_ppump->_rxbuffer[0x0D] & 0x0F);
 1359              		.loc 1 350 0
 1360 08c8 7B69     		ldr	r3, [r7, #20]
ARM GAS  C:\Users\RECEPC~1\AppData\Local\Temp\ccZZcwiB.s 			page 31


 1361 08ca DB69     		ldr	r3, [r3, #28]
 1362 08cc 7A69     		ldr	r2, [r7, #20]
 1363 08ce D269     		ldr	r2, [r2, #28]
 1364 08d0 92F8AD21 		ldrb	r2, [r2, #429]	@ zero_extendqisi2
 1365 08d4 02F00F02 		and	r2, r2, #15
 1366 08d8 D2B2     		uxtb	r2, r2
 1367 08da 83F8AD21 		strb	r2, [r3, #429]
 351:.\AdvantageImpl.c ****                     pjob->_ppump->_rxbuffer[0x0E] = (pjob->_ppump->_rxbuffer[0x0E] & 0x0F);
 1368              		.loc 1 351 0
 1369 08de 7B69     		ldr	r3, [r7, #20]
 1370 08e0 DB69     		ldr	r3, [r3, #28]
 1371 08e2 7A69     		ldr	r2, [r7, #20]
 1372 08e4 D269     		ldr	r2, [r2, #28]
 1373 08e6 92F8AE21 		ldrb	r2, [r2, #430]	@ zero_extendqisi2
 1374 08ea 02F00F02 		and	r2, r2, #15
 1375 08ee D2B2     		uxtb	r2, r2
 1376 08f0 83F8AE21 		strb	r2, [r3, #430]
 352:.\AdvantageImpl.c ****                     pjob->_ppump->_rxbuffer[0x0F] = (pjob->_ppump->_rxbuffer[0x0F] & 0x0F);
 1377              		.loc 1 352 0
 1378 08f4 7B69     		ldr	r3, [r7, #20]
 1379 08f6 DB69     		ldr	r3, [r3, #28]
 1380 08f8 7A69     		ldr	r2, [r7, #20]
 1381 08fa D269     		ldr	r2, [r2, #28]
 1382 08fc 92F8AF21 		ldrb	r2, [r2, #431]	@ zero_extendqisi2
 1383 0900 02F00F02 		and	r2, r2, #15
 1384 0904 D2B2     		uxtb	r2, r2
 1385 0906 83F8AF21 		strb	r2, [r3, #431]
 353:.\AdvantageImpl.c ****                     pjob->_ppump->_rxbuffer[0x10] = (pjob->_ppump->_rxbuffer[0x10] & 0x0F);
 1386              		.loc 1 353 0
 1387 090a 7B69     		ldr	r3, [r7, #20]
 1388 090c DB69     		ldr	r3, [r3, #28]
 1389 090e 7A69     		ldr	r2, [r7, #20]
 1390 0910 D269     		ldr	r2, [r2, #28]
 1391 0912 92F8B021 		ldrb	r2, [r2, #432]	@ zero_extendqisi2
 1392 0916 02F00F02 		and	r2, r2, #15
 1393 091a D2B2     		uxtb	r2, r2
 1394 091c 83F8B021 		strb	r2, [r3, #432]
 354:.\AdvantageImpl.c ****                     pjob->_ppump->_rxbuffer[0x11] = (pjob->_ppump->_rxbuffer[0x11] & 0x0F);
 1395              		.loc 1 354 0
 1396 0920 7B69     		ldr	r3, [r7, #20]
 1397 0922 DB69     		ldr	r3, [r3, #28]
 1398 0924 7A69     		ldr	r2, [r7, #20]
 1399 0926 D269     		ldr	r2, [r2, #28]
 1400 0928 92F8B121 		ldrb	r2, [r2, #433]	@ zero_extendqisi2
 1401 092c 02F00F02 		and	r2, r2, #15
 1402 0930 D2B2     		uxtb	r2, r2
 1403 0932 83F8B121 		strb	r2, [r3, #433]
 355:.\AdvantageImpl.c ****                     pjob->_ppump->_authorizationinfo._price = LSDBCDBUFF2HEX(PBYTECAST(&pjob->_ppum
 1404              		.loc 1 355 0
 1405 0936 7B69     		ldr	r3, [r7, #20]
 1406 0938 DC69     		ldr	r4, [r3, #28]
 1407 093a 7B69     		ldr	r3, [r7, #20]
 1408 093c DB69     		ldr	r3, [r3, #28]
 1409 093e 03F5D673 		add	r3, r3, #428
 1410 0942 1846     		mov	r0, r3
 1411 0944 0621     		movs	r1, #6
 1412 0946 FFF7FEFF 		bl	LSDBCDBUFF2HEX
ARM GAS  C:\Users\RECEPC~1\AppData\Local\Temp\ccZZcwiB.s 			page 32


 1413 094a 0346     		mov	r3, r0
 1414 094c 9BB2     		uxth	r3, r3
 1415 094e A4F8A439 		strh	r3, [r4, #2468]	@ movhi
 1416              	.LBE5:
 1417 0952 41E0     		b	.L42
 1418              	.L35:
 356:.\AdvantageImpl.c ****                     
 357:.\AdvantageImpl.c ****                 }
 358:.\AdvantageImpl.c ****                 else
 359:.\AdvantageImpl.c ****                 {
 360:.\AdvantageImpl.c ****                     pjob->_ppump->_rxbuffer[0x0C] = (pjob->_ppump->_rxbuffer[0x0C] & 0x0F);
 1419              		.loc 1 360 0
 1420 0954 7B69     		ldr	r3, [r7, #20]
 1421 0956 DB69     		ldr	r3, [r3, #28]
 1422 0958 7A69     		ldr	r2, [r7, #20]
 1423 095a D269     		ldr	r2, [r2, #28]
 1424 095c 92F8AC21 		ldrb	r2, [r2, #428]	@ zero_extendqisi2
 1425 0960 02F00F02 		and	r2, r2, #15
 1426 0964 D2B2     		uxtb	r2, r2
 1427 0966 83F8AC21 		strb	r2, [r3, #428]
 361:.\AdvantageImpl.c ****                     pjob->_ppump->_rxbuffer[0x0D] = (pjob->_ppump->_rxbuffer[0x0D] & 0x0F);
 1428              		.loc 1 361 0
 1429 096a 7B69     		ldr	r3, [r7, #20]
 1430 096c DB69     		ldr	r3, [r3, #28]
 1431 096e 7A69     		ldr	r2, [r7, #20]
 1432 0970 D269     		ldr	r2, [r2, #28]
 1433 0972 92F8AD21 		ldrb	r2, [r2, #429]	@ zero_extendqisi2
 1434 0976 02F00F02 		and	r2, r2, #15
 1435 097a D2B2     		uxtb	r2, r2
 1436 097c 83F8AD21 		strb	r2, [r3, #429]
 362:.\AdvantageImpl.c ****                     pjob->_ppump->_rxbuffer[0x0E] = (pjob->_ppump->_rxbuffer[0x0E] & 0x0F);
 1437              		.loc 1 362 0
 1438 0980 7B69     		ldr	r3, [r7, #20]
 1439 0982 DB69     		ldr	r3, [r3, #28]
 1440 0984 7A69     		ldr	r2, [r7, #20]
 1441 0986 D269     		ldr	r2, [r2, #28]
 1442 0988 92F8AE21 		ldrb	r2, [r2, #430]	@ zero_extendqisi2
 1443 098c 02F00F02 		and	r2, r2, #15
 1444 0990 D2B2     		uxtb	r2, r2
 1445 0992 83F8AE21 		strb	r2, [r3, #430]
 363:.\AdvantageImpl.c ****                     pjob->_ppump->_rxbuffer[0x0F] = (pjob->_ppump->_rxbuffer[0x0F] & 0x0F);
 1446              		.loc 1 363 0
 1447 0996 7B69     		ldr	r3, [r7, #20]
 1448 0998 DB69     		ldr	r3, [r3, #28]
 1449 099a 7A69     		ldr	r2, [r7, #20]
 1450 099c D269     		ldr	r2, [r2, #28]
 1451 099e 92F8AF21 		ldrb	r2, [r2, #431]	@ zero_extendqisi2
 1452 09a2 02F00F02 		and	r2, r2, #15
 1453 09a6 D2B2     		uxtb	r2, r2
 1454 09a8 83F8AF21 		strb	r2, [r3, #431]
 364:.\AdvantageImpl.c ****                     pjob->_ppump->_rxbuffer[0x10] = (pjob->_ppump->_rxbuffer[0x10] & 0x0F);
 1455              		.loc 1 364 0
 1456 09ac 7B69     		ldr	r3, [r7, #20]
 1457 09ae DB69     		ldr	r3, [r3, #28]
 1458 09b0 7A69     		ldr	r2, [r7, #20]
 1459 09b2 D269     		ldr	r2, [r2, #28]
 1460 09b4 92F8B021 		ldrb	r2, [r2, #432]	@ zero_extendqisi2
ARM GAS  C:\Users\RECEPC~1\AppData\Local\Temp\ccZZcwiB.s 			page 33


 1461 09b8 02F00F02 		and	r2, r2, #15
 1462 09bc D2B2     		uxtb	r2, r2
 1463 09be 83F8B021 		strb	r2, [r3, #432]
 365:.\AdvantageImpl.c ****                     pjob->_ppump->_rxbuffer[0x11] = (pjob->_ppump->_rxbuffer[0x11] & 0x0F);
 1464              		.loc 1 365 0
 1465 09c2 7B69     		ldr	r3, [r7, #20]
 1466 09c4 DB69     		ldr	r3, [r3, #28]
 1467 09c6 7A69     		ldr	r2, [r7, #20]
 1468 09c8 D269     		ldr	r2, [r2, #28]
 1469 09ca 92F8B121 		ldrb	r2, [r2, #433]	@ zero_extendqisi2
 1470 09ce 02F00F02 		and	r2, r2, #15
 1471 09d2 D2B2     		uxtb	r2, r2
 1472 09d4 83F8B121 		strb	r2, [r3, #433]
 1473              	.L42:
 366:.\AdvantageImpl.c ****                 }
 367:.\AdvantageImpl.c ****                 
 368:.\AdvantageImpl.c ****                 //Bytes from index 19 to 26 are the digits for the fuel volume delivered in the tra
 369:.\AdvantageImpl.c ****                 //Digits are in BCD format
 370:.\AdvantageImpl.c ****                 pjob->_ppump->_rxbuffer[0x13] = (pjob->_ppump->_rxbuffer[0x13] & 0x0F);
 1474              		.loc 1 370 0
 1475 09d8 7B69     		ldr	r3, [r7, #20]
 1476 09da DB69     		ldr	r3, [r3, #28]
 1477 09dc 7A69     		ldr	r2, [r7, #20]
 1478 09de D269     		ldr	r2, [r2, #28]
 1479 09e0 92F8B321 		ldrb	r2, [r2, #435]	@ zero_extendqisi2
 1480 09e4 02F00F02 		and	r2, r2, #15
 1481 09e8 D2B2     		uxtb	r2, r2
 1482 09ea 83F8B321 		strb	r2, [r3, #435]
 371:.\AdvantageImpl.c ****                 pjob->_ppump->_rxbuffer[0x14] = (pjob->_ppump->_rxbuffer[0x14] & 0x0F);
 1483              		.loc 1 371 0
 1484 09ee 7B69     		ldr	r3, [r7, #20]
 1485 09f0 DB69     		ldr	r3, [r3, #28]
 1486 09f2 7A69     		ldr	r2, [r7, #20]
 1487 09f4 D269     		ldr	r2, [r2, #28]
 1488 09f6 92F8B421 		ldrb	r2, [r2, #436]	@ zero_extendqisi2
 1489 09fa 02F00F02 		and	r2, r2, #15
 1490 09fe D2B2     		uxtb	r2, r2
 1491 0a00 83F8B421 		strb	r2, [r3, #436]
 372:.\AdvantageImpl.c ****                 pjob->_ppump->_rxbuffer[0x15] = (pjob->_ppump->_rxbuffer[0x15] & 0x0F);
 1492              		.loc 1 372 0
 1493 0a04 7B69     		ldr	r3, [r7, #20]
 1494 0a06 DB69     		ldr	r3, [r3, #28]
 1495 0a08 7A69     		ldr	r2, [r7, #20]
 1496 0a0a D269     		ldr	r2, [r2, #28]
 1497 0a0c 92F8B521 		ldrb	r2, [r2, #437]	@ zero_extendqisi2
 1498 0a10 02F00F02 		and	r2, r2, #15
 1499 0a14 D2B2     		uxtb	r2, r2
 1500 0a16 83F8B521 		strb	r2, [r3, #437]
 373:.\AdvantageImpl.c ****                 pjob->_ppump->_rxbuffer[0x16] = (pjob->_ppump->_rxbuffer[0x16] & 0x0F);
 1501              		.loc 1 373 0
 1502 0a1a 7B69     		ldr	r3, [r7, #20]
 1503 0a1c DB69     		ldr	r3, [r3, #28]
 1504 0a1e 7A69     		ldr	r2, [r7, #20]
 1505 0a20 D269     		ldr	r2, [r2, #28]
 1506 0a22 92F8B621 		ldrb	r2, [r2, #438]	@ zero_extendqisi2
 1507 0a26 02F00F02 		and	r2, r2, #15
 1508 0a2a D2B2     		uxtb	r2, r2
ARM GAS  C:\Users\RECEPC~1\AppData\Local\Temp\ccZZcwiB.s 			page 34


 1509 0a2c 83F8B621 		strb	r2, [r3, #438]
 374:.\AdvantageImpl.c ****                 pjob->_ppump->_rxbuffer[0x17] = (pjob->_ppump->_rxbuffer[0x17] & 0x0F);
 1510              		.loc 1 374 0
 1511 0a30 7B69     		ldr	r3, [r7, #20]
 1512 0a32 DB69     		ldr	r3, [r3, #28]
 1513 0a34 7A69     		ldr	r2, [r7, #20]
 1514 0a36 D269     		ldr	r2, [r2, #28]
 1515 0a38 92F8B721 		ldrb	r2, [r2, #439]	@ zero_extendqisi2
 1516 0a3c 02F00F02 		and	r2, r2, #15
 1517 0a40 D2B2     		uxtb	r2, r2
 1518 0a42 83F8B721 		strb	r2, [r3, #439]
 375:.\AdvantageImpl.c ****                 pjob->_ppump->_rxbuffer[0x18] = (pjob->_ppump->_rxbuffer[0x18] & 0x0F);
 1519              		.loc 1 375 0
 1520 0a46 7B69     		ldr	r3, [r7, #20]
 1521 0a48 DB69     		ldr	r3, [r3, #28]
 1522 0a4a 7A69     		ldr	r2, [r7, #20]
 1523 0a4c D269     		ldr	r2, [r2, #28]
 1524 0a4e 92F8B821 		ldrb	r2, [r2, #440]	@ zero_extendqisi2
 1525 0a52 02F00F02 		and	r2, r2, #15
 1526 0a56 D2B2     		uxtb	r2, r2
 1527 0a58 83F8B821 		strb	r2, [r3, #440]
 376:.\AdvantageImpl.c ****                 pjob->_ppump->_rxbuffer[0x19] = (pjob->_ppump->_rxbuffer[0x19] & 0x0F);
 1528              		.loc 1 376 0
 1529 0a5c 7B69     		ldr	r3, [r7, #20]
 1530 0a5e DB69     		ldr	r3, [r3, #28]
 1531 0a60 7A69     		ldr	r2, [r7, #20]
 1532 0a62 D269     		ldr	r2, [r2, #28]
 1533 0a64 92F8B921 		ldrb	r2, [r2, #441]	@ zero_extendqisi2
 1534 0a68 02F00F02 		and	r2, r2, #15
 1535 0a6c D2B2     		uxtb	r2, r2
 1536 0a6e 83F8B921 		strb	r2, [r3, #441]
 377:.\AdvantageImpl.c ****                 pjob->_ppump->_rxbuffer[0x1A] = (pjob->_ppump->_rxbuffer[0x1A] & 0x0F);
 1537              		.loc 1 377 0
 1538 0a72 7B69     		ldr	r3, [r7, #20]
 1539 0a74 DB69     		ldr	r3, [r3, #28]
 1540 0a76 7A69     		ldr	r2, [r7, #20]
 1541 0a78 D269     		ldr	r2, [r2, #28]
 1542 0a7a 92F8BA21 		ldrb	r2, [r2, #442]	@ zero_extendqisi2
 1543 0a7e 02F00F02 		and	r2, r2, #15
 1544 0a82 D2B2     		uxtb	r2, r2
 1545 0a84 83F8BA21 		strb	r2, [r3, #442]
 378:.\AdvantageImpl.c ****                 pjob->_ppump->_authorizationinfo._volumeamount = LSDBCDBUFF2HEX(PBYTECAST(&pjob->_p
 1546              		.loc 1 378 0
 1547 0a88 7B69     		ldr	r3, [r7, #20]
 1548 0a8a DC69     		ldr	r4, [r3, #28]
 1549 0a8c 7B69     		ldr	r3, [r7, #20]
 1550 0a8e DB69     		ldr	r3, [r3, #28]
 1551 0a90 03F2B313 		addw	r3, r3, #435
 1552 0a94 1846     		mov	r0, r3
 1553 0a96 0821     		movs	r1, #8
 1554 0a98 FFF7FEFF 		bl	LSDBCDBUFF2HEX
 1555 0a9c 0346     		mov	r3, r0
 1556 0a9e C4F8AC39 		str	r3, [r4, #2476]
 379:.\AdvantageImpl.c ****                 
 380:.\AdvantageImpl.c ****                 ////////////////////////////////////////////////////////////////////////////////
 381:.\AdvantageImpl.c ****                 ////////////////////////////////////////////////////////////////////////////////
 382:.\AdvantageImpl.c ****                 
ARM GAS  C:\Users\RECEPC~1\AppData\Local\Temp\ccZZcwiB.s 			page 35


 383:.\AdvantageImpl.c ****                 //Bytes from index 28 to 35 are the digits for the money charged to the transaction
 384:.\AdvantageImpl.c ****                 //Digits are in BCD format
 385:.\AdvantageImpl.c ****                 pjob->_ppump->_rxbuffer[0x1C] = (pjob->_ppump->_rxbuffer[0x1C] & 0x00);//Zero to ma
 1557              		.loc 1 385 0
 1558 0aa2 7B69     		ldr	r3, [r7, #20]
 1559 0aa4 DB69     		ldr	r3, [r3, #28]
 1560 0aa6 0022     		movs	r2, #0
 1561 0aa8 83F8BC21 		strb	r2, [r3, #444]
 386:.\AdvantageImpl.c ****                 
 387:.\AdvantageImpl.c ****                 pjob->_ppump->_rxbuffer[0x1D] = (pjob->_ppump->_rxbuffer[0x1D] & 0x0F);
 1562              		.loc 1 387 0
 1563 0aac 7B69     		ldr	r3, [r7, #20]
 1564 0aae DB69     		ldr	r3, [r3, #28]
 1565 0ab0 7A69     		ldr	r2, [r7, #20]
 1566 0ab2 D269     		ldr	r2, [r2, #28]
 1567 0ab4 92F8BD21 		ldrb	r2, [r2, #445]	@ zero_extendqisi2
 1568 0ab8 02F00F02 		and	r2, r2, #15
 1569 0abc D2B2     		uxtb	r2, r2
 1570 0abe 83F8BD21 		strb	r2, [r3, #445]
 388:.\AdvantageImpl.c ****                 pjob->_ppump->_rxbuffer[0x1E] = (pjob->_ppump->_rxbuffer[0x1E] & 0x0F);
 1571              		.loc 1 388 0
 1572 0ac2 7B69     		ldr	r3, [r7, #20]
 1573 0ac4 DB69     		ldr	r3, [r3, #28]
 1574 0ac6 7A69     		ldr	r2, [r7, #20]
 1575 0ac8 D269     		ldr	r2, [r2, #28]
 1576 0aca 92F8BE21 		ldrb	r2, [r2, #446]	@ zero_extendqisi2
 1577 0ace 02F00F02 		and	r2, r2, #15
 1578 0ad2 D2B2     		uxtb	r2, r2
 1579 0ad4 83F8BE21 		strb	r2, [r3, #446]
 389:.\AdvantageImpl.c ****                 pjob->_ppump->_rxbuffer[0x1F] = (pjob->_ppump->_rxbuffer[0x1F] & 0x0F);
 1580              		.loc 1 389 0
 1581 0ad8 7B69     		ldr	r3, [r7, #20]
 1582 0ada DB69     		ldr	r3, [r3, #28]
 1583 0adc 7A69     		ldr	r2, [r7, #20]
 1584 0ade D269     		ldr	r2, [r2, #28]
 1585 0ae0 92F8BF21 		ldrb	r2, [r2, #447]	@ zero_extendqisi2
 1586 0ae4 02F00F02 		and	r2, r2, #15
 1587 0ae8 D2B2     		uxtb	r2, r2
 1588 0aea 83F8BF21 		strb	r2, [r3, #447]
 390:.\AdvantageImpl.c ****                 pjob->_ppump->_rxbuffer[0x20] = (pjob->_ppump->_rxbuffer[0x20] & 0x0F);
 1589              		.loc 1 390 0
 1590 0aee 7B69     		ldr	r3, [r7, #20]
 1591 0af0 DB69     		ldr	r3, [r3, #28]
 1592 0af2 7A69     		ldr	r2, [r7, #20]
 1593 0af4 D269     		ldr	r2, [r2, #28]
 1594 0af6 92F8C021 		ldrb	r2, [r2, #448]	@ zero_extendqisi2
 1595 0afa 02F00F02 		and	r2, r2, #15
 1596 0afe D2B2     		uxtb	r2, r2
 1597 0b00 83F8C021 		strb	r2, [r3, #448]
 391:.\AdvantageImpl.c ****                 pjob->_ppump->_rxbuffer[0x21] = (pjob->_ppump->_rxbuffer[0x21] & 0x0F);
 1598              		.loc 1 391 0
 1599 0b04 7B69     		ldr	r3, [r7, #20]
 1600 0b06 DB69     		ldr	r3, [r3, #28]
 1601 0b08 7A69     		ldr	r2, [r7, #20]
 1602 0b0a D269     		ldr	r2, [r2, #28]
 1603 0b0c 92F8C121 		ldrb	r2, [r2, #449]	@ zero_extendqisi2
 1604 0b10 02F00F02 		and	r2, r2, #15
ARM GAS  C:\Users\RECEPC~1\AppData\Local\Temp\ccZZcwiB.s 			page 36


 1605 0b14 D2B2     		uxtb	r2, r2
 1606 0b16 83F8C121 		strb	r2, [r3, #449]
 392:.\AdvantageImpl.c ****                 pjob->_ppump->_rxbuffer[0x22] = (pjob->_ppump->_rxbuffer[0x22] & 0x0F);
 1607              		.loc 1 392 0
 1608 0b1a 7B69     		ldr	r3, [r7, #20]
 1609 0b1c DB69     		ldr	r3, [r3, #28]
 1610 0b1e 7A69     		ldr	r2, [r7, #20]
 1611 0b20 D269     		ldr	r2, [r2, #28]
 1612 0b22 92F8C221 		ldrb	r2, [r2, #450]	@ zero_extendqisi2
 1613 0b26 02F00F02 		and	r2, r2, #15
 1614 0b2a D2B2     		uxtb	r2, r2
 1615 0b2c 83F8C221 		strb	r2, [r3, #450]
 393:.\AdvantageImpl.c ****                 pjob->_ppump->_rxbuffer[0x23] = (pjob->_ppump->_rxbuffer[0x23] & 0x0F);
 1616              		.loc 1 393 0
 1617 0b30 7B69     		ldr	r3, [r7, #20]
 1618 0b32 DB69     		ldr	r3, [r3, #28]
 1619 0b34 7A69     		ldr	r2, [r7, #20]
 1620 0b36 D269     		ldr	r2, [r2, #28]
 1621 0b38 92F8C321 		ldrb	r2, [r2, #451]	@ zero_extendqisi2
 1622 0b3c 02F00F02 		and	r2, r2, #15
 1623 0b40 D2B2     		uxtb	r2, r2
 1624 0b42 83F8C321 		strb	r2, [r3, #451]
 394:.\AdvantageImpl.c ****                 //INQUIRY ABOUT THE EXTRA x10 RESULT SINCE THERE IS AN EXTRA 0 IN THE RESPONSE FOR 
 395:.\AdvantageImpl.c ****                 //MEANWHILE DIVIDING BY 10 TO REMOVE THE ZERO
 396:.\AdvantageImpl.c ****                 pjob->_ppump->_authorizationinfo._presetamount = (LSDBCDBUFF2HEX(PBYTECAST(&pjob->_
 1625              		.loc 1 396 0
 1626 0b46 7B69     		ldr	r3, [r7, #20]
 1627 0b48 DC69     		ldr	r4, [r3, #28]
 1628 0b4a 7B69     		ldr	r3, [r7, #20]
 1629 0b4c DB69     		ldr	r3, [r3, #28]
 1630 0b4e 03F5DE73 		add	r3, r3, #444
 1631 0b52 1846     		mov	r0, r3
 1632 0b54 0821     		movs	r1, #8
 1633 0b56 FFF7FEFF 		bl	LSDBCDBUFF2HEX
 1634 0b5a 0246     		mov	r2, r0
 1635 0b5c C94B     		ldr	r3, .L54
 1636 0b5e A3FB0223 		umull	r2, r3, r3, r2
 1637 0b62 DB08     		lsrs	r3, r3, #3
 1638 0b64 C4F8A839 		str	r3, [r4, #2472]
 397:.\AdvantageImpl.c ****                     
 398:.\AdvantageImpl.c ****                 ClearRtcBuffer();
 1639              		.loc 1 398 0
 1640 0b68 FFF7FEFF 		bl	ClearRtcBuffer
 399:.\AdvantageImpl.c ****                 ReadRTC();
 1641              		.loc 1 399 0
 1642 0b6c FFF7FEFF 		bl	ReadRTC
 400:.\AdvantageImpl.c ****                 //CAREFUL WITH RETURNS BETWEEN THE LOCK/UNLOCK CALLS
 401:.\AdvantageImpl.c ****                 //AND RECURSIVE CALLS THAT WOULD DEADLOCK!
 402:.\AdvantageImpl.c ****                 I2CBusLock();
 1643              		.loc 1 402 0
 1644 0b70 FFF7FEFF 		bl	I2CBusLock
 403:.\AdvantageImpl.c ****             
 404:.\AdvantageImpl.c ****                 ClearEepromBuffer();
 1645              		.loc 1 404 0
 1646 0b74 FFF7FEFF 		bl	ClearEepromBuffer
 405:.\AdvantageImpl.c ****                 //In this position is located the payment type (CREDIT: 0x0E , CASH:0x0D)
 406:.\AdvantageImpl.c ****                 if(pjob->_ppump->_trasactionbuffer[0x00] == 0x0D)
ARM GAS  C:\Users\RECEPC~1\AppData\Local\Temp\ccZZcwiB.s 			page 37


 1647              		.loc 1 406 0
 1648 0b78 7B69     		ldr	r3, [r7, #20]
 1649 0b7a DB69     		ldr	r3, [r3, #28]
 1650 0b7c 93F82030 		ldrb	r3, [r3, #32]	@ zero_extendqisi2
 1651 0b80 0D2B     		cmp	r3, #13
 1652 0b82 40F0DB80 		bne	.L43
 407:.\AdvantageImpl.c ****                 {
 408:.\AdvantageImpl.c ****                     //HERE WE STORE THE LAST TRANSACTION IN EEPROM! ALWAYS THE PREVIOUS TRANSACTION
 409:.\AdvantageImpl.c ****                     //WILL BE OVERWRITTEN AND LOST.
 410:.\AdvantageImpl.c ****                     //IN CASE OF A "CREDIT SALE", THE WHOLE DATA WILL BE STORED IN A SEPARATE MEMOR
 411:.\AdvantageImpl.c ****                     //SINCE IN CASE OF A RF LINK DROP, THE STATE OF THE SALE COULD BE RECOVERED BY 
 412:.\AdvantageImpl.c ****                     LoadEepromPage(EEPROM_DISPENSER_PUMP1_LAYOUT_PAGE);
 1653              		.loc 1 412 0
 1654 0b86 4FF40070 		mov	r0, #512
 1655 0b8a FFF7FEFF 		bl	LoadEepromPage
 413:.\AdvantageImpl.c ****                     if(GetEepromBuffer()[0] == ((pjob->_ppump->_rxbuffer[0x04] & 0x0F) + 1))
 1656              		.loc 1 413 0
 1657 0b8e FFF7FEFF 		bl	GetEepromBuffer
 1658 0b92 0346     		mov	r3, r0
 1659 0b94 1B78     		ldrb	r3, [r3]	@ zero_extendqisi2
 1660 0b96 1A46     		mov	r2, r3
 1661 0b98 7B69     		ldr	r3, [r7, #20]
 1662 0b9a DB69     		ldr	r3, [r3, #28]
 1663 0b9c 93F8A431 		ldrb	r3, [r3, #420]	@ zero_extendqisi2
 1664 0ba0 03F00F03 		and	r3, r3, #15
 1665 0ba4 0133     		adds	r3, r3, #1
 1666 0ba6 9A42     		cmp	r2, r3
 1667 0ba8 22D1     		bne	.L44
 414:.\AdvantageImpl.c ****                     {
 415:.\AdvantageImpl.c ****                         ClearEepromBuffer();
 1668              		.loc 1 415 0
 1669 0baa FFF7FEFF 		bl	ClearEepromBuffer
 416:.\AdvantageImpl.c ****                         //Storing the current Date/Time for this transaction
 417:.\AdvantageImpl.c ****                         memcpy(GetEepromBuffer(), GetRtcBuffer(), 0x07);
 1670              		.loc 1 417 0
 1671 0bae FFF7FEFF 		bl	GetEepromBuffer
 1672 0bb2 0446     		mov	r4, r0
 1673 0bb4 FFF7FEFF 		bl	GetRtcBuffer
 1674 0bb8 0346     		mov	r3, r0
 1675 0bba 2046     		mov	r0, r4
 1676 0bbc 1946     		mov	r1, r3
 1677 0bbe 0722     		movs	r2, #7
 1678 0bc0 FFF7FEFF 		bl	memcpy
 418:.\AdvantageImpl.c ****                         memcpy(&GetEepromBuffer()[0x07], pjob->_ppump->_rxbuffer, pjob->_ppump->_rx
 1679              		.loc 1 418 0
 1680 0bc4 FFF7FEFF 		bl	GetEepromBuffer
 1681 0bc8 0346     		mov	r3, r0
 1682 0bca D91D     		adds	r1, r3, #7
 1683 0bcc 7B69     		ldr	r3, [r7, #20]
 1684 0bce DB69     		ldr	r3, [r3, #28]
 1685 0bd0 03F5D072 		add	r2, r3, #416
 1686 0bd4 7B69     		ldr	r3, [r7, #20]
 1687 0bd6 DB69     		ldr	r3, [r3, #28]
 1688 0bd8 B3F82033 		ldrh	r3, [r3, #800]
 1689 0bdc 0846     		mov	r0, r1
 1690 0bde 1146     		mov	r1, r2
 1691 0be0 1A46     		mov	r2, r3
ARM GAS  C:\Users\RECEPC~1\AppData\Local\Temp\ccZZcwiB.s 			page 38


 1692 0be2 FFF7FEFF 		bl	memcpy
 419:.\AdvantageImpl.c ****                         StoreEepromPage(EEPROM_DISPENSER_PUMP12_TRANSACTION_PAGE);
 1693              		.loc 1 419 0
 1694 0be6 4FF4C860 		mov	r0, #1600
 1695 0bea FFF7FEFF 		bl	StoreEepromPage
 1696 0bee 81E1     		b	.L48
 1697              	.L44:
 420:.\AdvantageImpl.c ****                     }
 421:.\AdvantageImpl.c ****                     else
 422:.\AdvantageImpl.c ****                     {
 423:.\AdvantageImpl.c ****                         ClearEepromBuffer();
 1698              		.loc 1 423 0
 1699 0bf0 FFF7FEFF 		bl	ClearEepromBuffer
 424:.\AdvantageImpl.c ****                         LoadEepromPage(EEPROM_DISPENSER_PUMP2_LAYOUT_PAGE);
 1700              		.loc 1 424 0
 1701 0bf4 4FF41070 		mov	r0, #576
 1702 0bf8 FFF7FEFF 		bl	LoadEepromPage
 425:.\AdvantageImpl.c ****                         if(GetEepromBuffer()[0] == ((pjob->_ppump->_rxbuffer[0x04] & 0x0F) + 1))
 1703              		.loc 1 425 0
 1704 0bfc FFF7FEFF 		bl	GetEepromBuffer
 1705 0c00 0346     		mov	r3, r0
 1706 0c02 1B78     		ldrb	r3, [r3]	@ zero_extendqisi2
 1707 0c04 1A46     		mov	r2, r3
 1708 0c06 7B69     		ldr	r3, [r7, #20]
 1709 0c08 DB69     		ldr	r3, [r3, #28]
 1710 0c0a 93F8A431 		ldrb	r3, [r3, #420]	@ zero_extendqisi2
 1711 0c0e 03F00F03 		and	r3, r3, #15
 1712 0c12 0133     		adds	r3, r3, #1
 1713 0c14 9A42     		cmp	r2, r3
 1714 0c16 22D1     		bne	.L46
 426:.\AdvantageImpl.c ****                         {
 427:.\AdvantageImpl.c ****                             ClearEepromBuffer();
 1715              		.loc 1 427 0
 1716 0c18 FFF7FEFF 		bl	ClearEepromBuffer
 428:.\AdvantageImpl.c ****                             //Storing the current Date/Time for this transaction
 429:.\AdvantageImpl.c ****                             memcpy(GetEepromBuffer(), GetRtcBuffer(), 0x07);
 1717              		.loc 1 429 0
 1718 0c1c FFF7FEFF 		bl	GetEepromBuffer
 1719 0c20 0446     		mov	r4, r0
 1720 0c22 FFF7FEFF 		bl	GetRtcBuffer
 1721 0c26 0346     		mov	r3, r0
 1722 0c28 2046     		mov	r0, r4
 1723 0c2a 1946     		mov	r1, r3
 1724 0c2c 0722     		movs	r2, #7
 1725 0c2e FFF7FEFF 		bl	memcpy
 430:.\AdvantageImpl.c ****                             memcpy(&GetEepromBuffer()[0x07], pjob->_ppump->_rxbuffer, pjob->_ppump-
 1726              		.loc 1 430 0
 1727 0c32 FFF7FEFF 		bl	GetEepromBuffer
 1728 0c36 0346     		mov	r3, r0
 1729 0c38 D91D     		adds	r1, r3, #7
 1730 0c3a 7B69     		ldr	r3, [r7, #20]
 1731 0c3c DB69     		ldr	r3, [r3, #28]
 1732 0c3e 03F5D072 		add	r2, r3, #416
 1733 0c42 7B69     		ldr	r3, [r7, #20]
 1734 0c44 DB69     		ldr	r3, [r3, #28]
 1735 0c46 B3F82033 		ldrh	r3, [r3, #800]
 1736 0c4a 0846     		mov	r0, r1
ARM GAS  C:\Users\RECEPC~1\AppData\Local\Temp\ccZZcwiB.s 			page 39


 1737 0c4c 1146     		mov	r1, r2
 1738 0c4e 1A46     		mov	r2, r3
 1739 0c50 FFF7FEFF 		bl	memcpy
 431:.\AdvantageImpl.c ****                             StoreEepromPage(EEPROM_DISPENSER_PUMP22_TRANSACTION_PAGE);
 1740              		.loc 1 431 0
 1741 0c54 4FF4E860 		mov	r0, #1856
 1742 0c58 FFF7FEFF 		bl	StoreEepromPage
 1743 0c5c 4AE1     		b	.L48
 1744              	.L46:
 432:.\AdvantageImpl.c ****                         }
 433:.\AdvantageImpl.c ****                         else
 434:.\AdvantageImpl.c ****                         {
 435:.\AdvantageImpl.c ****                             ClearEepromBuffer();
 1745              		.loc 1 435 0
 1746 0c5e FFF7FEFF 		bl	ClearEepromBuffer
 436:.\AdvantageImpl.c ****                             LoadEepromPage(EEPROM_DISPENSER_PUMP3_LAYOUT_PAGE);
 1747              		.loc 1 436 0
 1748 0c62 4FF42070 		mov	r0, #640
 1749 0c66 FFF7FEFF 		bl	LoadEepromPage
 437:.\AdvantageImpl.c ****                             if(GetEepromBuffer()[0] == ((pjob->_ppump->_rxbuffer[0x04] & 0x0F) + 1)
 1750              		.loc 1 437 0
 1751 0c6a FFF7FEFF 		bl	GetEepromBuffer
 1752 0c6e 0346     		mov	r3, r0
 1753 0c70 1B78     		ldrb	r3, [r3]	@ zero_extendqisi2
 1754 0c72 1A46     		mov	r2, r3
 1755 0c74 7B69     		ldr	r3, [r7, #20]
 1756 0c76 DB69     		ldr	r3, [r3, #28]
 1757 0c78 93F8A431 		ldrb	r3, [r3, #420]	@ zero_extendqisi2
 1758 0c7c 03F00F03 		and	r3, r3, #15
 1759 0c80 0133     		adds	r3, r3, #1
 1760 0c82 9A42     		cmp	r2, r3
 1761 0c84 22D1     		bne	.L47
 438:.\AdvantageImpl.c ****                             {
 439:.\AdvantageImpl.c ****                                 ClearEepromBuffer();
 1762              		.loc 1 439 0
 1763 0c86 FFF7FEFF 		bl	ClearEepromBuffer
 440:.\AdvantageImpl.c ****                                 //Storing the current Date/Time for this transaction
 441:.\AdvantageImpl.c ****                                 memcpy(GetEepromBuffer(), GetRtcBuffer(), 0x07);
 1764              		.loc 1 441 0
 1765 0c8a FFF7FEFF 		bl	GetEepromBuffer
 1766 0c8e 0446     		mov	r4, r0
 1767 0c90 FFF7FEFF 		bl	GetRtcBuffer
 1768 0c94 0346     		mov	r3, r0
 1769 0c96 2046     		mov	r0, r4
 1770 0c98 1946     		mov	r1, r3
 1771 0c9a 0722     		movs	r2, #7
 1772 0c9c FFF7FEFF 		bl	memcpy
 442:.\AdvantageImpl.c ****                                 memcpy(&GetEepromBuffer()[0x07], pjob->_ppump->_rxbuffer, pjob->_pp
 1773              		.loc 1 442 0
 1774 0ca0 FFF7FEFF 		bl	GetEepromBuffer
 1775 0ca4 0346     		mov	r3, r0
 1776 0ca6 D91D     		adds	r1, r3, #7
 1777 0ca8 7B69     		ldr	r3, [r7, #20]
 1778 0caa DB69     		ldr	r3, [r3, #28]
 1779 0cac 03F5D072 		add	r2, r3, #416
 1780 0cb0 7B69     		ldr	r3, [r7, #20]
 1781 0cb2 DB69     		ldr	r3, [r3, #28]
ARM GAS  C:\Users\RECEPC~1\AppData\Local\Temp\ccZZcwiB.s 			page 40


 1782 0cb4 B3F82033 		ldrh	r3, [r3, #800]
 1783 0cb8 0846     		mov	r0, r1
 1784 0cba 1146     		mov	r1, r2
 1785 0cbc 1A46     		mov	r2, r3
 1786 0cbe FFF7FEFF 		bl	memcpy
 443:.\AdvantageImpl.c ****                                 StoreEepromPage(EEPROM_DISPENSER_PUMP32_TRANSACTION_PAGE);
 1787              		.loc 1 443 0
 1788 0cc2 4FF40460 		mov	r0, #2112
 1789 0cc6 FFF7FEFF 		bl	StoreEepromPage
 1790 0cca 13E1     		b	.L48
 1791              	.L47:
 444:.\AdvantageImpl.c ****                             }
 445:.\AdvantageImpl.c ****                             else
 446:.\AdvantageImpl.c ****                             {
 447:.\AdvantageImpl.c ****                                 ClearEepromBuffer();
 1792              		.loc 1 447 0
 1793 0ccc FFF7FEFF 		bl	ClearEepromBuffer
 448:.\AdvantageImpl.c ****                                 LoadEepromPage(EEPROM_DISPENSER_PUMP4_LAYOUT_PAGE);
 1794              		.loc 1 448 0
 1795 0cd0 4FF43070 		mov	r0, #704
 1796 0cd4 FFF7FEFF 		bl	LoadEepromPage
 449:.\AdvantageImpl.c ****                                 if(GetEepromBuffer()[0] == ((pjob->_ppump->_rxbuffer[0x04] & 0x0F) 
 1797              		.loc 1 449 0
 1798 0cd8 FFF7FEFF 		bl	GetEepromBuffer
 1799 0cdc 0346     		mov	r3, r0
 1800 0cde 1B78     		ldrb	r3, [r3]	@ zero_extendqisi2
 1801 0ce0 1A46     		mov	r2, r3
 1802 0ce2 7B69     		ldr	r3, [r7, #20]
 1803 0ce4 DB69     		ldr	r3, [r3, #28]
 1804 0ce6 93F8A431 		ldrb	r3, [r3, #420]	@ zero_extendqisi2
 1805 0cea 03F00F03 		and	r3, r3, #15
 1806 0cee 0133     		adds	r3, r3, #1
 1807 0cf0 9A42     		cmp	r2, r3
 1808 0cf2 40F0FF80 		bne	.L48
 450:.\AdvantageImpl.c ****                                 {
 451:.\AdvantageImpl.c ****                                     ClearEepromBuffer();
 1809              		.loc 1 451 0
 1810 0cf6 FFF7FEFF 		bl	ClearEepromBuffer
 452:.\AdvantageImpl.c ****                                     //Storing the current Date/Time for this transaction
 453:.\AdvantageImpl.c ****                                     memcpy(GetEepromBuffer(), GetRtcBuffer(), 0x07);
 1811              		.loc 1 453 0
 1812 0cfa FFF7FEFF 		bl	GetEepromBuffer
 1813 0cfe 0446     		mov	r4, r0
 1814 0d00 FFF7FEFF 		bl	GetRtcBuffer
 1815 0d04 0346     		mov	r3, r0
 1816 0d06 2046     		mov	r0, r4
 1817 0d08 1946     		mov	r1, r3
 1818 0d0a 0722     		movs	r2, #7
 1819 0d0c FFF7FEFF 		bl	memcpy
 454:.\AdvantageImpl.c ****                                     memcpy(&GetEepromBuffer()[0x07], pjob->_ppump->_rxbuffer, pjob-
 1820              		.loc 1 454 0
 1821 0d10 FFF7FEFF 		bl	GetEepromBuffer
 1822 0d14 0346     		mov	r3, r0
 1823 0d16 D91D     		adds	r1, r3, #7
 1824 0d18 7B69     		ldr	r3, [r7, #20]
 1825 0d1a DB69     		ldr	r3, [r3, #28]
 1826 0d1c 03F5D072 		add	r2, r3, #416
ARM GAS  C:\Users\RECEPC~1\AppData\Local\Temp\ccZZcwiB.s 			page 41


 1827 0d20 7B69     		ldr	r3, [r7, #20]
 1828 0d22 DB69     		ldr	r3, [r3, #28]
 1829 0d24 B3F82033 		ldrh	r3, [r3, #800]
 1830 0d28 0846     		mov	r0, r1
 1831 0d2a 1146     		mov	r1, r2
 1832 0d2c 1A46     		mov	r2, r3
 1833 0d2e FFF7FEFF 		bl	memcpy
 455:.\AdvantageImpl.c ****                                     StoreEepromPage(EEPROM_DISPENSER_PUMP42_TRANSACTION_PAGE);
 1834              		.loc 1 455 0
 1835 0d32 4FF41460 		mov	r0, #2368
 1836 0d36 FFF7FEFF 		bl	StoreEepromPage
 1837 0d3a DBE0     		b	.L48
 1838              	.L43:
 456:.\AdvantageImpl.c ****                                 }
 457:.\AdvantageImpl.c ****                             }
 458:.\AdvantageImpl.c ****                         }
 459:.\AdvantageImpl.c ****                     }
 460:.\AdvantageImpl.c ****                 }else{//CREDIT TRANSACTION
 461:.\AdvantageImpl.c ****                     //HERE WE STORE THE LAST TRANSACTION IN EEPROM! ALWAYS THE PREVIOUS TRANSACTION
 462:.\AdvantageImpl.c ****                     //WILL BE OVERWRITTEN AND LOST.
 463:.\AdvantageImpl.c ****                     //IN CASE OF A "CREDIT SALE", THE WHOLE DATA WILL BE STORED IN A SEPARATE MEMOR
 464:.\AdvantageImpl.c ****                     //SINCE IN CASE OF A RF LINK DROP, THE STATE OF THE SALE COULD BE RECOVERED BY 
 465:.\AdvantageImpl.c ****                     LoadEepromPage(EEPROM_DISPENSER_PUMP1_LAYOUT_PAGE);
 1839              		.loc 1 465 0
 1840 0d3c 4FF40070 		mov	r0, #512
 1841 0d40 FFF7FEFF 		bl	LoadEepromPage
 466:.\AdvantageImpl.c ****                     if(GetEepromBuffer()[0] == ((pjob->_ppump->_rxbuffer[0x04] & 0x0F) + 1))
 1842              		.loc 1 466 0
 1843 0d44 FFF7FEFF 		bl	GetEepromBuffer
 1844 0d48 0346     		mov	r3, r0
 1845 0d4a 1B78     		ldrb	r3, [r3]	@ zero_extendqisi2
 1846 0d4c 1A46     		mov	r2, r3
 1847 0d4e 7B69     		ldr	r3, [r7, #20]
 1848 0d50 DB69     		ldr	r3, [r3, #28]
 1849 0d52 93F8A431 		ldrb	r3, [r3, #420]	@ zero_extendqisi2
 1850 0d56 03F00F03 		and	r3, r3, #15
 1851 0d5a 0133     		adds	r3, r3, #1
 1852 0d5c 9A42     		cmp	r2, r3
 1853 0d5e 22D1     		bne	.L49
 467:.\AdvantageImpl.c ****                     {
 468:.\AdvantageImpl.c ****                         ClearEepromBuffer();
 1854              		.loc 1 468 0
 1855 0d60 FFF7FEFF 		bl	ClearEepromBuffer
 469:.\AdvantageImpl.c ****                         //Storing the current Date/Time for this transaction
 470:.\AdvantageImpl.c ****                         memcpy(GetEepromBuffer(), GetRtcBuffer(), 0x07);
 1856              		.loc 1 470 0
 1857 0d64 FFF7FEFF 		bl	GetEepromBuffer
 1858 0d68 0446     		mov	r4, r0
 1859 0d6a FFF7FEFF 		bl	GetRtcBuffer
 1860 0d6e 0346     		mov	r3, r0
 1861 0d70 2046     		mov	r0, r4
 1862 0d72 1946     		mov	r1, r3
 1863 0d74 0722     		movs	r2, #7
 1864 0d76 FFF7FEFF 		bl	memcpy
 471:.\AdvantageImpl.c ****                         memcpy(&GetEepromBuffer()[0x07], pjob->_ppump->_rxbuffer, pjob->_ppump->_rx
 1865              		.loc 1 471 0
 1866 0d7a FFF7FEFF 		bl	GetEepromBuffer
ARM GAS  C:\Users\RECEPC~1\AppData\Local\Temp\ccZZcwiB.s 			page 42


 1867 0d7e 0346     		mov	r3, r0
 1868 0d80 D91D     		adds	r1, r3, #7
 1869 0d82 7B69     		ldr	r3, [r7, #20]
 1870 0d84 DB69     		ldr	r3, [r3, #28]
 1871 0d86 03F5D072 		add	r2, r3, #416
 1872 0d8a 7B69     		ldr	r3, [r7, #20]
 1873 0d8c DB69     		ldr	r3, [r3, #28]
 1874 0d8e B3F82033 		ldrh	r3, [r3, #800]
 1875 0d92 0846     		mov	r0, r1
 1876 0d94 1146     		mov	r1, r2
 1877 0d96 1A46     		mov	r2, r3
 1878 0d98 FFF7FEFF 		bl	memcpy
 472:.\AdvantageImpl.c ****                         StoreEepromPage(EEPROM_DISPENSER_PUMP14_TRANSACTION_PAGE);
 1879              		.loc 1 472 0
 1880 0d9c 4FF4D860 		mov	r0, #1728
 1881 0da0 FFF7FEFF 		bl	StoreEepromPage
 1882 0da4 A6E0     		b	.L48
 1883              	.L49:
 473:.\AdvantageImpl.c ****                     }
 474:.\AdvantageImpl.c ****                     else
 475:.\AdvantageImpl.c ****                     {
 476:.\AdvantageImpl.c ****                         ClearEepromBuffer();
 1884              		.loc 1 476 0
 1885 0da6 FFF7FEFF 		bl	ClearEepromBuffer
 477:.\AdvantageImpl.c ****                         LoadEepromPage(EEPROM_DISPENSER_PUMP2_LAYOUT_PAGE);
 1886              		.loc 1 477 0
 1887 0daa 4FF41070 		mov	r0, #576
 1888 0dae FFF7FEFF 		bl	LoadEepromPage
 478:.\AdvantageImpl.c ****                         if(GetEepromBuffer()[0] == ((pjob->_ppump->_rxbuffer[0x04] & 0x0F) + 1))
 1889              		.loc 1 478 0
 1890 0db2 FFF7FEFF 		bl	GetEepromBuffer
 1891 0db6 0346     		mov	r3, r0
 1892 0db8 1B78     		ldrb	r3, [r3]	@ zero_extendqisi2
 1893 0dba 1A46     		mov	r2, r3
 1894 0dbc 7B69     		ldr	r3, [r7, #20]
 1895 0dbe DB69     		ldr	r3, [r3, #28]
 1896 0dc0 93F8A431 		ldrb	r3, [r3, #420]	@ zero_extendqisi2
 1897 0dc4 03F00F03 		and	r3, r3, #15
 1898 0dc8 0133     		adds	r3, r3, #1
 1899 0dca 9A42     		cmp	r2, r3
 1900 0dcc 22D1     		bne	.L50
 479:.\AdvantageImpl.c ****                         {
 480:.\AdvantageImpl.c ****                             ClearEepromBuffer();
 1901              		.loc 1 480 0
 1902 0dce FFF7FEFF 		bl	ClearEepromBuffer
 481:.\AdvantageImpl.c ****                             //Storing the current Date/Time for this transaction
 482:.\AdvantageImpl.c ****                             memcpy(GetEepromBuffer(), GetRtcBuffer(), 0x07);
 1903              		.loc 1 482 0
 1904 0dd2 FFF7FEFF 		bl	GetEepromBuffer
 1905 0dd6 0446     		mov	r4, r0
 1906 0dd8 FFF7FEFF 		bl	GetRtcBuffer
 1907 0ddc 0346     		mov	r3, r0
 1908 0dde 2046     		mov	r0, r4
 1909 0de0 1946     		mov	r1, r3
 1910 0de2 0722     		movs	r2, #7
 1911 0de4 FFF7FEFF 		bl	memcpy
 483:.\AdvantageImpl.c ****                             memcpy(&GetEepromBuffer()[0x07], pjob->_ppump->_rxbuffer, pjob->_ppump-
ARM GAS  C:\Users\RECEPC~1\AppData\Local\Temp\ccZZcwiB.s 			page 43


 1912              		.loc 1 483 0
 1913 0de8 FFF7FEFF 		bl	GetEepromBuffer
 1914 0dec 0346     		mov	r3, r0
 1915 0dee D91D     		adds	r1, r3, #7
 1916 0df0 7B69     		ldr	r3, [r7, #20]
 1917 0df2 DB69     		ldr	r3, [r3, #28]
 1918 0df4 03F5D072 		add	r2, r3, #416
 1919 0df8 7B69     		ldr	r3, [r7, #20]
 1920 0dfa DB69     		ldr	r3, [r3, #28]
 1921 0dfc B3F82033 		ldrh	r3, [r3, #800]
 1922 0e00 0846     		mov	r0, r1
 1923 0e02 1146     		mov	r1, r2
 1924 0e04 1A46     		mov	r2, r3
 1925 0e06 FFF7FEFF 		bl	memcpy
 484:.\AdvantageImpl.c ****                             StoreEepromPage(EEPROM_DISPENSER_PUMP24_TRANSACTION_PAGE);
 1926              		.loc 1 484 0
 1927 0e0a 4FF4F860 		mov	r0, #1984
 1928 0e0e FFF7FEFF 		bl	StoreEepromPage
 1929 0e12 6FE0     		b	.L48
 1930              	.L50:
 485:.\AdvantageImpl.c ****                         }
 486:.\AdvantageImpl.c ****                         else
 487:.\AdvantageImpl.c ****                         {
 488:.\AdvantageImpl.c ****                             ClearEepromBuffer();
 1931              		.loc 1 488 0
 1932 0e14 FFF7FEFF 		bl	ClearEepromBuffer
 489:.\AdvantageImpl.c ****                             LoadEepromPage(EEPROM_DISPENSER_PUMP3_LAYOUT_PAGE);
 1933              		.loc 1 489 0
 1934 0e18 4FF42070 		mov	r0, #640
 1935 0e1c FFF7FEFF 		bl	LoadEepromPage
 490:.\AdvantageImpl.c ****                             if(GetEepromBuffer()[0] == ((pjob->_ppump->_rxbuffer[0x04] & 0x0F) + 1)
 1936              		.loc 1 490 0
 1937 0e20 FFF7FEFF 		bl	GetEepromBuffer
 1938 0e24 0346     		mov	r3, r0
 1939 0e26 1B78     		ldrb	r3, [r3]	@ zero_extendqisi2
 1940 0e28 1A46     		mov	r2, r3
 1941 0e2a 7B69     		ldr	r3, [r7, #20]
 1942 0e2c DB69     		ldr	r3, [r3, #28]
 1943 0e2e 93F8A431 		ldrb	r3, [r3, #420]	@ zero_extendqisi2
 1944 0e32 03F00F03 		and	r3, r3, #15
 1945 0e36 0133     		adds	r3, r3, #1
 1946 0e38 9A42     		cmp	r2, r3
 1947 0e3a 25D1     		bne	.L51
 491:.\AdvantageImpl.c ****                             {
 492:.\AdvantageImpl.c ****                                 ClearEepromBuffer();
 1948              		.loc 1 492 0
 1949 0e3c FFF7FEFF 		bl	ClearEepromBuffer
 493:.\AdvantageImpl.c ****                                 //Storing the current Date/Time for this transaction
 494:.\AdvantageImpl.c ****                                 memcpy(GetEepromBuffer(), GetRtcBuffer(), 0x07);
 1950              		.loc 1 494 0
 1951 0e40 FFF7FEFF 		bl	GetEepromBuffer
 1952 0e44 0446     		mov	r4, r0
 1953 0e46 FFF7FEFF 		bl	GetRtcBuffer
 1954 0e4a 0346     		mov	r3, r0
 1955 0e4c 2046     		mov	r0, r4
 1956 0e4e 1946     		mov	r1, r3
 1957 0e50 0722     		movs	r2, #7
ARM GAS  C:\Users\RECEPC~1\AppData\Local\Temp\ccZZcwiB.s 			page 44


 1958 0e52 FFF7FEFF 		bl	memcpy
 495:.\AdvantageImpl.c ****                                 memcpy(&GetEepromBuffer()[0x07], pjob->_ppump->_rxbuffer, pjob->_pp
 1959              		.loc 1 495 0
 1960 0e56 FFF7FEFF 		bl	GetEepromBuffer
 1961 0e5a 0346     		mov	r3, r0
 1962 0e5c D91D     		adds	r1, r3, #7
 1963 0e5e 7B69     		ldr	r3, [r7, #20]
 1964 0e60 DB69     		ldr	r3, [r3, #28]
 1965 0e62 03F5D072 		add	r2, r3, #416
 1966 0e66 7B69     		ldr	r3, [r7, #20]
 1967 0e68 DB69     		ldr	r3, [r3, #28]
 1968 0e6a B3F82033 		ldrh	r3, [r3, #800]
 1969 0e6e 0846     		mov	r0, r1
 1970 0e70 1146     		mov	r1, r2
 1971 0e72 1A46     		mov	r2, r3
 1972 0e74 FFF7FEFF 		bl	memcpy
 496:.\AdvantageImpl.c ****                                 StoreEepromPage(EEPROM_DISPENSER_PUMP34_TRANSACTION_PAGE);
 1973              		.loc 1 496 0
 1974 0e78 4FF40C60 		mov	r0, #2240
 1975 0e7c FFF7FEFF 		bl	StoreEepromPage
 1976 0e80 38E0     		b	.L48
 1977              	.L55:
 1978 0e82 00BF     		.align	2
 1979              	.L54:
 1980 0e84 CDCCCCCC 		.word	-858993459
 1981              	.L51:
 497:.\AdvantageImpl.c ****                             }
 498:.\AdvantageImpl.c ****                             else
 499:.\AdvantageImpl.c ****                             {
 500:.\AdvantageImpl.c ****                                 ClearEepromBuffer();
 1982              		.loc 1 500 0
 1983 0e88 FFF7FEFF 		bl	ClearEepromBuffer
 501:.\AdvantageImpl.c ****                                 LoadEepromPage(EEPROM_DISPENSER_PUMP4_LAYOUT_PAGE);
 1984              		.loc 1 501 0
 1985 0e8c 4FF43070 		mov	r0, #704
 1986 0e90 FFF7FEFF 		bl	LoadEepromPage
 502:.\AdvantageImpl.c ****                                 if(GetEepromBuffer()[0] == ((pjob->_ppump->_rxbuffer[0x04] & 0x0F) 
 1987              		.loc 1 502 0
 1988 0e94 FFF7FEFF 		bl	GetEepromBuffer
 1989 0e98 0346     		mov	r3, r0
 1990 0e9a 1B78     		ldrb	r3, [r3]	@ zero_extendqisi2
 1991 0e9c 1A46     		mov	r2, r3
 1992 0e9e 7B69     		ldr	r3, [r7, #20]
 1993 0ea0 DB69     		ldr	r3, [r3, #28]
 1994 0ea2 93F8A431 		ldrb	r3, [r3, #420]	@ zero_extendqisi2
 1995 0ea6 03F00F03 		and	r3, r3, #15
 1996 0eaa 0133     		adds	r3, r3, #1
 1997 0eac 9A42     		cmp	r2, r3
 1998 0eae 21D1     		bne	.L48
 503:.\AdvantageImpl.c ****                                 {
 504:.\AdvantageImpl.c ****                                     ClearEepromBuffer();
 1999              		.loc 1 504 0
 2000 0eb0 FFF7FEFF 		bl	ClearEepromBuffer
 505:.\AdvantageImpl.c ****                                     //Storing the current Date/Time for this transaction
 506:.\AdvantageImpl.c ****                                     memcpy(GetEepromBuffer(), GetRtcBuffer(), 0x07);
 2001              		.loc 1 506 0
 2002 0eb4 FFF7FEFF 		bl	GetEepromBuffer
ARM GAS  C:\Users\RECEPC~1\AppData\Local\Temp\ccZZcwiB.s 			page 45


 2003 0eb8 0446     		mov	r4, r0
 2004 0eba FFF7FEFF 		bl	GetRtcBuffer
 2005 0ebe 0346     		mov	r3, r0
 2006 0ec0 2046     		mov	r0, r4
 2007 0ec2 1946     		mov	r1, r3
 2008 0ec4 0722     		movs	r2, #7
 2009 0ec6 FFF7FEFF 		bl	memcpy
 507:.\AdvantageImpl.c ****                                     memcpy(&GetEepromBuffer()[0x07], pjob->_ppump->_rxbuffer, pjob-
 2010              		.loc 1 507 0
 2011 0eca FFF7FEFF 		bl	GetEepromBuffer
 2012 0ece 0346     		mov	r3, r0
 2013 0ed0 D91D     		adds	r1, r3, #7
 2014 0ed2 7B69     		ldr	r3, [r7, #20]
 2015 0ed4 DB69     		ldr	r3, [r3, #28]
 2016 0ed6 03F5D072 		add	r2, r3, #416
 2017 0eda 7B69     		ldr	r3, [r7, #20]
 2018 0edc DB69     		ldr	r3, [r3, #28]
 2019 0ede B3F82033 		ldrh	r3, [r3, #800]
 2020 0ee2 0846     		mov	r0, r1
 2021 0ee4 1146     		mov	r1, r2
 2022 0ee6 1A46     		mov	r2, r3
 2023 0ee8 FFF7FEFF 		bl	memcpy
 508:.\AdvantageImpl.c ****                                     StoreEepromPage(EEPROM_DISPENSER_PUMP44_TRANSACTION_PAGE);
 2024              		.loc 1 508 0
 2025 0eec 4FF41C60 		mov	r0, #2496
 2026 0ef0 FFF7FEFF 		bl	StoreEepromPage
 2027              	.L48:
 509:.\AdvantageImpl.c ****                                 }
 510:.\AdvantageImpl.c ****                             }
 511:.\AdvantageImpl.c ****                         }
 512:.\AdvantageImpl.c ****                     }
 513:.\AdvantageImpl.c ****                 }
 514:.\AdvantageImpl.c ****                 I2CBusUnlock();
 2028              		.loc 1 514 0
 2029 0ef4 FFF7FEFF 		bl	I2CBusUnlock
 2030              	.L34:
 515:.\AdvantageImpl.c ****             }
 516:.\AdvantageImpl.c ****                 
 517:.\AdvantageImpl.c ****             //HERE WE ATTEMPT TO PUSH THE TRANSACTION INTO THE PUMP'S TRANSACTIONAL QUEUE.
 518:.\AdvantageImpl.c ****             //THIS IS DONE ONLY IF THERE IS ROOM IN THE QUEUE, OTHERWISE THIS STATE WON'T
 519:.\AdvantageImpl.c ****             //BE REPORTED TO THE REMOTE PEER.
 520:.\AdvantageImpl.c ****             pjob->_ppump->PumpTransQueueLock(pjob->_ppump);
 2031              		.loc 1 520 0
 2032 0ef8 7B69     		ldr	r3, [r7, #20]
 2033 0efa DB69     		ldr	r3, [r3, #28]
 2034 0efc D3F83C39 		ldr	r3, [r3, #2364]
 2035 0f00 7A69     		ldr	r2, [r7, #20]
 2036 0f02 D269     		ldr	r2, [r2, #28]
 2037 0f04 1046     		mov	r0, r2
 2038 0f06 9847     		blx	r3
 521:.\AdvantageImpl.c ****             PNEAR_PUMPTRANSACTIONALSTATEPTR pts = pjob->_ppump->PumpTransQueueAllocate(pjob->_ppump
 2039              		.loc 1 521 0
 2040 0f08 7B69     		ldr	r3, [r7, #20]
 2041 0f0a DB69     		ldr	r3, [r3, #28]
 2042 0f0c D3F85039 		ldr	r3, [r3, #2384]
 2043 0f10 7A69     		ldr	r2, [r7, #20]
 2044 0f12 D269     		ldr	r2, [r2, #28]
ARM GAS  C:\Users\RECEPC~1\AppData\Local\Temp\ccZZcwiB.s 			page 46


 2045 0f14 1046     		mov	r0, r2
 2046 0f16 9847     		blx	r3
 2047 0f18 B860     		str	r0, [r7, #8]
 522:.\AdvantageImpl.c ****             pjob->_ppump->PumpTransQueueUnlock(pjob->_ppump);
 2048              		.loc 1 522 0
 2049 0f1a 7B69     		ldr	r3, [r7, #20]
 2050 0f1c DB69     		ldr	r3, [r3, #28]
 2051 0f1e D3F84039 		ldr	r3, [r3, #2368]
 2052 0f22 7A69     		ldr	r2, [r7, #20]
 2053 0f24 D269     		ldr	r2, [r2, #28]
 2054 0f26 1046     		mov	r0, r2
 2055 0f28 9847     		blx	r3
 523:.\AdvantageImpl.c ****             if(pts)
 2056              		.loc 1 523 0
 2057 0f2a BB68     		ldr	r3, [r7, #8]
 2058 0f2c 002B     		cmp	r3, #0
 2059 0f2e 31D0     		beq	.L13
 524:.\AdvantageImpl.c ****             {
 525:.\AdvantageImpl.c ****                 pts->_transtate = RF_MUX_CASH_SALE_END_REPORT_RESPONSE;
 2060              		.loc 1 525 0
 2061 0f30 BB68     		ldr	r3, [r7, #8]
 2062 0f32 A422     		movs	r2, #164
 2063 0f34 5A70     		strb	r2, [r3, #1]
 526:.\AdvantageImpl.c ****                 memcpy(pts->_buffer, pjob->_ppump->_rxbuffer, pjob->_ppump->_rxbuffersize);
 2064              		.loc 1 526 0
 2065 0f36 BB68     		ldr	r3, [r7, #8]
 2066 0f38 991C     		adds	r1, r3, #2
 2067 0f3a 7B69     		ldr	r3, [r7, #20]
 2068 0f3c DB69     		ldr	r3, [r3, #28]
 2069 0f3e 03F5D072 		add	r2, r3, #416
 2070 0f42 7B69     		ldr	r3, [r7, #20]
 2071 0f44 DB69     		ldr	r3, [r3, #28]
 2072 0f46 B3F82033 		ldrh	r3, [r3, #800]
 2073 0f4a 0846     		mov	r0, r1
 2074 0f4c 1146     		mov	r1, r2
 2075 0f4e 1A46     		mov	r2, r3
 2076 0f50 FFF7FEFF 		bl	memcpy
 527:.\AdvantageImpl.c ****                 pts->_buffersize = pjob->_ppump->_rxbuffersize;
 2077              		.loc 1 527 0
 2078 0f54 7B69     		ldr	r3, [r7, #20]
 2079 0f56 DB69     		ldr	r3, [r3, #28]
 2080 0f58 B3F82023 		ldrh	r2, [r3, #800]
 2081 0f5c BB68     		ldr	r3, [r7, #8]
 2082 0f5e A3F80221 		strh	r2, [r3, #258]	@ movhi
 528:.\AdvantageImpl.c ****                 
 529:.\AdvantageImpl.c ****                 pjob->_ppump->PumpTransQueueLock(pjob->_ppump);
 2083              		.loc 1 529 0
 2084 0f62 7B69     		ldr	r3, [r7, #20]
 2085 0f64 DB69     		ldr	r3, [r3, #28]
 2086 0f66 D3F83C39 		ldr	r3, [r3, #2364]
 2087 0f6a 7A69     		ldr	r2, [r7, #20]
 2088 0f6c D269     		ldr	r2, [r2, #28]
 2089 0f6e 1046     		mov	r0, r2
 2090 0f70 9847     		blx	r3
 530:.\AdvantageImpl.c ****                 pjob->_ppump->PumpTransQueueEnqueue(pjob->_ppump, pts);
 2091              		.loc 1 530 0
 2092 0f72 7B69     		ldr	r3, [r7, #20]
ARM GAS  C:\Users\RECEPC~1\AppData\Local\Temp\ccZZcwiB.s 			page 47


 2093 0f74 DB69     		ldr	r3, [r3, #28]
 2094 0f76 D3F84839 		ldr	r3, [r3, #2376]
 2095 0f7a 7A69     		ldr	r2, [r7, #20]
 2096 0f7c D269     		ldr	r2, [r2, #28]
 2097 0f7e 1046     		mov	r0, r2
 2098 0f80 B968     		ldr	r1, [r7, #8]
 2099 0f82 9847     		blx	r3
 531:.\AdvantageImpl.c ****                 pjob->_ppump->PumpTransQueueUnlock(pjob->_ppump);
 2100              		.loc 1 531 0
 2101 0f84 7B69     		ldr	r3, [r7, #20]
 2102 0f86 DB69     		ldr	r3, [r3, #28]
 2103 0f88 D3F84039 		ldr	r3, [r3, #2368]
 2104 0f8c 7A69     		ldr	r2, [r7, #20]
 2105 0f8e D269     		ldr	r2, [r2, #28]
 2106 0f90 1046     		mov	r0, r2
 2107 0f92 9847     		blx	r3
 2108              	.L13:
 2109              	.LBE3:
 532:.\AdvantageImpl.c ****             }
 533:.\AdvantageImpl.c ****             
 534:.\AdvantageImpl.c ****         }  
 535:.\AdvantageImpl.c ****     }
 536:.\AdvantageImpl.c **** }
 2110              		.loc 1 536 0
 2111 0f94 1837     		adds	r7, r7, #24
 2112              		.cfi_def_cfa_offset 16
 2113 0f96 BD46     		mov	sp, r7
 2114              		.cfi_def_cfa_register 13
 2115              		@ sp needed
 2116 0f98 B0BD     		pop	{r4, r5, r7, pc}
 2117              		.cfi_endproc
 2118              	.LFE66:
 2119              		.size	ProcessPumpTransactionData, .-ProcessPumpTransactionData
 2120 0f9a 00BF     		.section	.text.ProcessPumpTotalsDataReport,"ax",%progbits
 2121              		.align	2
 2122              		.global	ProcessPumpTotalsDataReport
 2123              		.thumb
 2124              		.thumb_func
 2125              		.type	ProcessPumpTotalsDataReport, %function
 2126              	ProcessPumpTotalsDataReport:
 2127              	.LFB67:
 537:.\AdvantageImpl.c **** 
 538:.\AdvantageImpl.c **** //@Created By: HIJH
 539:.\AdvantageImpl.c **** //@Septembre de 2016
 540:.\AdvantageImpl.c **** void ProcessPumpTotalsDataReport(void *pparam)
 541:.\AdvantageImpl.c **** {
 2128              		.loc 1 541 0
 2129              		.cfi_startproc
 2130              		@ args = 0, pretend = 0, frame = 24
 2131              		@ frame_needed = 1, uses_anonymous_args = 0
 2132 0000 80B5     		push	{r7, lr}
 2133              		.cfi_def_cfa_offset 8
 2134              		.cfi_offset 7, -8
 2135              		.cfi_offset 14, -4
 2136 0002 86B0     		sub	sp, sp, #24
 2137              		.cfi_def_cfa_offset 32
 2138 0004 00AF     		add	r7, sp, #0
ARM GAS  C:\Users\RECEPC~1\AppData\Local\Temp\ccZZcwiB.s 			page 48


 2139              		.cfi_def_cfa_register 7
 2140 0006 7860     		str	r0, [r7, #4]
 542:.\AdvantageImpl.c ****     PPUMPTRANSACTIONJOBCONTEXTPTR pjob = (PPUMPTRANSACTIONJOBCONTEXTPTR)pparam;
 2141              		.loc 1 542 0
 2142 0008 7B68     		ldr	r3, [r7, #4]
 2143 000a 7B61     		str	r3, [r7, #20]
 543:.\AdvantageImpl.c ****     if(pjob)
 2144              		.loc 1 543 0
 2145 000c 7B69     		ldr	r3, [r7, #20]
 2146 000e 002B     		cmp	r3, #0
 2147 0010 00F09A80 		beq	.L56
 2148              	.LBB6:
 544:.\AdvantageImpl.c ****     {
 545:.\AdvantageImpl.c ****         bool dataok = true;
 2149              		.loc 1 545 0
 2150 0014 0123     		movs	r3, #1
 2151 0016 FB74     		strb	r3, [r7, #19]
 546:.\AdvantageImpl.c ****         uint8 numhoses = 0x00;
 2152              		.loc 1 546 0
 2153 0018 0023     		movs	r3, #0
 2154 001a BB74     		strb	r3, [r7, #18]
 547:.\AdvantageImpl.c ****         switch(pjob->_ppump->_pumpindex)
 2155              		.loc 1 547 0
 2156 001c 7B69     		ldr	r3, [r7, #20]
 2157 001e DB69     		ldr	r3, [r3, #28]
 2158 0020 5B78     		ldrb	r3, [r3, #1]	@ zero_extendqisi2
 2159 0022 002B     		cmp	r3, #0
 2160 0024 02D0     		beq	.L59
 2161 0026 012B     		cmp	r3, #1
 2162 0028 04D0     		beq	.L60
 2163 002a 07E0     		b	.L58
 2164              	.L59:
 548:.\AdvantageImpl.c ****         {
 549:.\AdvantageImpl.c ****             case 0x00:
 550:.\AdvantageImpl.c ****             {
 551:.\AdvantageImpl.c ****                 numhoses = _g_dispenserlayoutinfo._hosesposition1;
 2165              		.loc 1 551 0
 2166 002c 484B     		ldr	r3, .L63
 2167 002e DB78     		ldrb	r3, [r3, #3]
 2168 0030 BB74     		strb	r3, [r7, #18]
 552:.\AdvantageImpl.c ****                 break;
 2169              		.loc 1 552 0
 2170 0032 03E0     		b	.L58
 2171              	.L60:
 553:.\AdvantageImpl.c ****             }
 554:.\AdvantageImpl.c ****             case 0x01:
 555:.\AdvantageImpl.c ****             {
 556:.\AdvantageImpl.c ****                 numhoses = _g_dispenserlayoutinfo._hosesposition2;
 2172              		.loc 1 556 0
 2173 0034 464B     		ldr	r3, .L63
 2174 0036 1B79     		ldrb	r3, [r3, #4]
 2175 0038 BB74     		strb	r3, [r7, #18]
 557:.\AdvantageImpl.c ****                 break;
 2176              		.loc 1 557 0
 2177 003a 00BF     		nop
 2178              	.L58:
 558:.\AdvantageImpl.c ****             }
ARM GAS  C:\Users\RECEPC~1\AppData\Local\Temp\ccZZcwiB.s 			page 49


 559:.\AdvantageImpl.c ****         }
 560:.\AdvantageImpl.c ****         
 561:.\AdvantageImpl.c **** //        uint8 strmlrc = FindLRC(pjob->_ppump->_rxbuffer);
 562:.\AdvantageImpl.c **** //        uint8 locallrc = GetLRC(pjob->_ppump->_rxbuffer);
 563:.\AdvantageImpl.c **** //        if(strmlrc != locallrc && pjob->_reenqueuecounter < _MAX_RETRIES_)
 564:.\AdvantageImpl.c **** //        {
 565:.\AdvantageImpl.c **** //            pjob->_reenqueuecounter++;
 566:.\AdvantageImpl.c **** //            pjob->_reenqueue = true;
 567:.\AdvantageImpl.c **** //            return;
 568:.\AdvantageImpl.c **** //        }
 569:.\AdvantageImpl.c ****         pjob->_reenqueue = false;
 2179              		.loc 1 569 0
 2180 003c 7B69     		ldr	r3, [r7, #20]
 2181 003e 0022     		movs	r2, #0
 2182 0040 1A70     		strb	r2, [r3]
 570:.\AdvantageImpl.c ****         
 571:.\AdvantageImpl.c ****         pjob->_ppump->PumpTransQueueLock(pjob->_ppump);
 2183              		.loc 1 571 0
 2184 0042 7B69     		ldr	r3, [r7, #20]
 2185 0044 DB69     		ldr	r3, [r3, #28]
 2186 0046 D3F83C39 		ldr	r3, [r3, #2364]
 2187 004a 7A69     		ldr	r2, [r7, #20]
 2188 004c D269     		ldr	r2, [r2, #28]
 2189 004e 1046     		mov	r0, r2
 2190 0050 9847     		blx	r3
 572:.\AdvantageImpl.c ****         bool transtatefound = pjob->_ppump->PumpTransQueueFind(pjob->_ppump, RF_MUX_TOTALS_REPORT_R
 2191              		.loc 1 572 0
 2192 0052 7B69     		ldr	r3, [r7, #20]
 2193 0054 DB69     		ldr	r3, [r3, #28]
 2194 0056 D3F84439 		ldr	r3, [r3, #2372]
 2195 005a 7A69     		ldr	r2, [r7, #20]
 2196 005c D269     		ldr	r2, [r2, #28]
 2197 005e 1046     		mov	r0, r2
 2198 0060 E821     		movs	r1, #232
 2199 0062 9847     		blx	r3
 2200 0064 0346     		mov	r3, r0
 2201 0066 7B74     		strb	r3, [r7, #17]
 573:.\AdvantageImpl.c ****         PNEAR_PUMPTRANSACTIONALSTATEPTR pts = pjob->_ppump->PumpTransQueueAllocate(pjob->_ppump);
 2202              		.loc 1 573 0
 2203 0068 7B69     		ldr	r3, [r7, #20]
 2204 006a DB69     		ldr	r3, [r3, #28]
 2205 006c D3F85039 		ldr	r3, [r3, #2384]
 2206 0070 7A69     		ldr	r2, [r7, #20]
 2207 0072 D269     		ldr	r2, [r2, #28]
 2208 0074 1046     		mov	r0, r2
 2209 0076 9847     		blx	r3
 2210 0078 F860     		str	r0, [r7, #12]
 574:.\AdvantageImpl.c ****         pjob->_ppump->PumpTransQueueUnlock(pjob->_ppump);
 2211              		.loc 1 574 0
 2212 007a 7B69     		ldr	r3, [r7, #20]
 2213 007c DB69     		ldr	r3, [r3, #28]
 2214 007e D3F84039 		ldr	r3, [r3, #2368]
 2215 0082 7A69     		ldr	r2, [r7, #20]
 2216 0084 D269     		ldr	r2, [r2, #28]
 2217 0086 1046     		mov	r0, r2
 2218 0088 9847     		blx	r3
 575:.\AdvantageImpl.c ****         if(pts && !transtatefound)
ARM GAS  C:\Users\RECEPC~1\AppData\Local\Temp\ccZZcwiB.s 			page 50


 2219              		.loc 1 575 0
 2220 008a FB68     		ldr	r3, [r7, #12]
 2221 008c 002B     		cmp	r3, #0
 2222 008e 38D0     		beq	.L61
 2223              		.loc 1 575 0 is_stmt 0 discriminator 1
 2224 0090 7B7C     		ldrb	r3, [r7, #17]
 2225 0092 83F00103 		eor	r3, r3, #1
 2226 0096 DBB2     		uxtb	r3, r3
 2227 0098 002B     		cmp	r3, #0
 2228 009a 32D0     		beq	.L61
 576:.\AdvantageImpl.c ****         {
 577:.\AdvantageImpl.c ****             pts->_transtate = RF_MUX_TOTALS_REPORT_RESPONSE;
 2229              		.loc 1 577 0 is_stmt 1
 2230 009c FB68     		ldr	r3, [r7, #12]
 2231 009e E822     		movs	r2, #232
 2232 00a0 5A70     		strb	r2, [r3, #1]
 578:.\AdvantageImpl.c ****             
 579:.\AdvantageImpl.c ****             memcpy(pts->_buffer, pjob->_ppump->_rxbuffer, pjob->_ppump->_rxbuffersize);
 2233              		.loc 1 579 0
 2234 00a2 FB68     		ldr	r3, [r7, #12]
 2235 00a4 991C     		adds	r1, r3, #2
 2236 00a6 7B69     		ldr	r3, [r7, #20]
 2237 00a8 DB69     		ldr	r3, [r3, #28]
 2238 00aa 03F5D072 		add	r2, r3, #416
 2239 00ae 7B69     		ldr	r3, [r7, #20]
 2240 00b0 DB69     		ldr	r3, [r3, #28]
 2241 00b2 B3F82033 		ldrh	r3, [r3, #800]
 2242 00b6 0846     		mov	r0, r1
 2243 00b8 1146     		mov	r1, r2
 2244 00ba 1A46     		mov	r2, r3
 2245 00bc FFF7FEFF 		bl	memcpy
 580:.\AdvantageImpl.c ****             pts->_buffersize = pjob->_ppump->_rxbuffersize;
 2246              		.loc 1 580 0
 2247 00c0 7B69     		ldr	r3, [r7, #20]
 2248 00c2 DB69     		ldr	r3, [r3, #28]
 2249 00c4 B3F82023 		ldrh	r2, [r3, #800]
 2250 00c8 FB68     		ldr	r3, [r7, #12]
 2251 00ca A3F80221 		strh	r2, [r3, #258]	@ movhi
 581:.\AdvantageImpl.c ****             
 582:.\AdvantageImpl.c ****             pjob->_ppump->PumpTransQueueLock(pjob->_ppump);
 2252              		.loc 1 582 0
 2253 00ce 7B69     		ldr	r3, [r7, #20]
 2254 00d0 DB69     		ldr	r3, [r3, #28]
 2255 00d2 D3F83C39 		ldr	r3, [r3, #2364]
 2256 00d6 7A69     		ldr	r2, [r7, #20]
 2257 00d8 D269     		ldr	r2, [r2, #28]
 2258 00da 1046     		mov	r0, r2
 2259 00dc 9847     		blx	r3
 583:.\AdvantageImpl.c ****             pjob->_ppump->PumpTransQueueEnqueue(pjob->_ppump, pts);
 2260              		.loc 1 583 0
 2261 00de 7B69     		ldr	r3, [r7, #20]
 2262 00e0 DB69     		ldr	r3, [r3, #28]
 2263 00e2 D3F84839 		ldr	r3, [r3, #2376]
 2264 00e6 7A69     		ldr	r2, [r7, #20]
 2265 00e8 D269     		ldr	r2, [r2, #28]
 2266 00ea 1046     		mov	r0, r2
 2267 00ec F968     		ldr	r1, [r7, #12]
ARM GAS  C:\Users\RECEPC~1\AppData\Local\Temp\ccZZcwiB.s 			page 51


 2268 00ee 9847     		blx	r3
 584:.\AdvantageImpl.c ****             pjob->_ppump->PumpTransQueueUnlock(pjob->_ppump);
 2269              		.loc 1 584 0
 2270 00f0 7B69     		ldr	r3, [r7, #20]
 2271 00f2 DB69     		ldr	r3, [r3, #28]
 2272 00f4 D3F84039 		ldr	r3, [r3, #2368]
 2273 00f8 7A69     		ldr	r2, [r7, #20]
 2274 00fa D269     		ldr	r2, [r2, #28]
 2275 00fc 1046     		mov	r0, r2
 2276 00fe 9847     		blx	r3
 2277 0100 18E0     		b	.L62
 2278              	.L61:
 585:.\AdvantageImpl.c ****         }
 586:.\AdvantageImpl.c ****         else
 587:.\AdvantageImpl.c ****         {
 588:.\AdvantageImpl.c ****             pjob->_ppump->PumpTransQueueLock(pjob->_ppump);
 2279              		.loc 1 588 0
 2280 0102 7B69     		ldr	r3, [r7, #20]
 2281 0104 DB69     		ldr	r3, [r3, #28]
 2282 0106 D3F83C39 		ldr	r3, [r3, #2364]
 2283 010a 7A69     		ldr	r2, [r7, #20]
 2284 010c D269     		ldr	r2, [r2, #28]
 2285 010e 1046     		mov	r0, r2
 2286 0110 9847     		blx	r3
 589:.\AdvantageImpl.c ****             pjob->_ppump->PumpTransQueueDeallocate(pjob->_ppump, pts);
 2287              		.loc 1 589 0
 2288 0112 7B69     		ldr	r3, [r7, #20]
 2289 0114 DB69     		ldr	r3, [r3, #28]
 2290 0116 D3F84C39 		ldr	r3, [r3, #2380]
 2291 011a 7A69     		ldr	r2, [r7, #20]
 2292 011c D269     		ldr	r2, [r2, #28]
 2293 011e 1046     		mov	r0, r2
 2294 0120 F968     		ldr	r1, [r7, #12]
 2295 0122 9847     		blx	r3
 590:.\AdvantageImpl.c ****             pjob->_ppump->PumpTransQueueUnlock(pjob->_ppump);
 2296              		.loc 1 590 0
 2297 0124 7B69     		ldr	r3, [r7, #20]
 2298 0126 DB69     		ldr	r3, [r3, #28]
 2299 0128 D3F84039 		ldr	r3, [r3, #2368]
 2300 012c 7A69     		ldr	r2, [r7, #20]
 2301 012e D269     		ldr	r2, [r2, #28]
 2302 0130 1046     		mov	r0, r2
 2303 0132 9847     		blx	r3
 2304              	.L62:
 591:.\AdvantageImpl.c ****         }
 592:.\AdvantageImpl.c ****         memset(pjob->_ppump->_rxbuffer, 0x00, _PUMP_RX_BUFFER_SIZE_);
 2305              		.loc 1 592 0
 2306 0134 7B69     		ldr	r3, [r7, #20]
 2307 0136 DB69     		ldr	r3, [r3, #28]
 2308 0138 03F5D073 		add	r3, r3, #416
 2309 013c 1846     		mov	r0, r3
 2310 013e 0021     		movs	r1, #0
 2311 0140 4FF4C072 		mov	r2, #384
 2312 0144 FFF7FEFF 		bl	memset
 2313              	.L56:
 2314              	.LBE6:
 593:.\AdvantageImpl.c ****     }
ARM GAS  C:\Users\RECEPC~1\AppData\Local\Temp\ccZZcwiB.s 			page 52


 594:.\AdvantageImpl.c **** }
 2315              		.loc 1 594 0
 2316 0148 1837     		adds	r7, r7, #24
 2317              		.cfi_def_cfa_offset 8
 2318 014a BD46     		mov	sp, r7
 2319              		.cfi_def_cfa_register 13
 2320              		@ sp needed
 2321 014c 80BD     		pop	{r7, pc}
 2322              	.L64:
 2323 014e 00BF     		.align	2
 2324              	.L63:
 2325 0150 00000000 		.word	_g_dispenserlayoutinfo
 2326              		.cfi_endproc
 2327              	.LFE67:
 2328              		.size	ProcessPumpTotalsDataReport, .-ProcessPumpTotalsDataReport
 2329              		.section	.text.ProcessPumpTotalsDataPpuCheck,"ax",%progbits
 2330              		.align	2
 2331              		.global	ProcessPumpTotalsDataPpuCheck
 2332              		.thumb
 2333              		.thumb_func
 2334              		.type	ProcessPumpTotalsDataPpuCheck, %function
 2335              	ProcessPumpTotalsDataPpuCheck:
 2336              	.LFB68:
 595:.\AdvantageImpl.c **** 
 596:.\AdvantageImpl.c **** //@Created By: HIJH
 597:.\AdvantageImpl.c **** //@Septembre de 2016
 598:.\AdvantageImpl.c **** void ProcessPumpTotalsDataPpuCheck(void *pparam)
 599:.\AdvantageImpl.c **** {
 2337              		.loc 1 599 0
 2338              		.cfi_startproc
 2339              		@ args = 0, pretend = 0, frame = 16
 2340              		@ frame_needed = 1, uses_anonymous_args = 0
 2341 0000 80B5     		push	{r7, lr}
 2342              		.cfi_def_cfa_offset 8
 2343              		.cfi_offset 7, -8
 2344              		.cfi_offset 14, -4
 2345 0002 84B0     		sub	sp, sp, #16
 2346              		.cfi_def_cfa_offset 24
 2347 0004 00AF     		add	r7, sp, #0
 2348              		.cfi_def_cfa_register 7
 2349 0006 7860     		str	r0, [r7, #4]
 600:.\AdvantageImpl.c ****     PPUMPTRANSACTIONJOBCONTEXTPTR pjob = (PPUMPTRANSACTIONJOBCONTEXTPTR)pparam;
 2350              		.loc 1 600 0
 2351 0008 7B68     		ldr	r3, [r7, #4]
 2352 000a FB60     		str	r3, [r7, #12]
 601:.\AdvantageImpl.c ****     if(pjob)
 2353              		.loc 1 601 0
 2354 000c FB68     		ldr	r3, [r7, #12]
 2355 000e 002B     		cmp	r3, #0
 2356 0010 09D0     		beq	.L65
 602:.\AdvantageImpl.c ****     {
 603:.\AdvantageImpl.c **** /*        
 604:.\AdvantageImpl.c ****         
 605:.\AdvantageImpl.c ****         PNEAR_PUMPTRANSACTIONALSTATEPTR pts = pjob->_ppump->PumpTransQueueAllocate(pjob->_ppump);
 606:.\AdvantageImpl.c ****         if(pts)
 607:.\AdvantageImpl.c ****         {
 608:.\AdvantageImpl.c ****             pts->_transtate = _PUMP_POSITION_TRANSREPORT_;
ARM GAS  C:\Users\RECEPC~1\AppData\Local\Temp\ccZZcwiB.s 			page 53


 609:.\AdvantageImpl.c ****             memcpy(pts->_buffer, pjob->_ppump->_rxbuffer, pjob->_ppump->_rxbuffersize);
 610:.\AdvantageImpl.c ****             pts->_buffersize = pjob->_ppump->_rxbuffersize;
 611:.\AdvantageImpl.c ****         }
 612:.\AdvantageImpl.c ****         
 613:.\AdvantageImpl.c ****         
 614:.\AdvantageImpl.c ****         uint8 var = 0;//THIS IS A DUMMY VAR TO DROP THE WARNING IF THERE IS NO ASSIGNMENT!!
 615:.\AdvantageImpl.c ****         uint8 index = 0;
 616:.\AdvantageImpl.c ****         //All indexes were taken according to the documentation
 617:.\AdvantageImpl.c ****         var = (pjob->_ppump->_rxbuffer[0x02 + _PUMP_TOTALS_BUFFER_SHIFT_*index] & 0x0F);//Hose id
 618:.\AdvantageImpl.c **** 
 619:.\AdvantageImpl.c ****         //Bytes from index 0x04 + _PUMP_TOTALS_BUFFER_SHIFT_*index to 0x0F + _PUMP_TOTALS_BUFFER_SH
 620:.\AdvantageImpl.c ****         //are the digits for the total fuel volume delivered until now on this pump
 621:.\AdvantageImpl.c ****         //Digits are in BCD format
 622:.\AdvantageImpl.c ****         var = (pjob->_ppump->_rxbuffer[0x04 + _PUMP_TOTALS_BUFFER_SHIFT_*index] & 0x0F);
 623:.\AdvantageImpl.c ****         var = (pjob->_ppump->_rxbuffer[0x05 + _PUMP_TOTALS_BUFFER_SHIFT_*index] & 0x0F);
 624:.\AdvantageImpl.c ****         var = (pjob->_ppump->_rxbuffer[0x06 + _PUMP_TOTALS_BUFFER_SHIFT_*index] & 0x0F);
 625:.\AdvantageImpl.c ****         var = (pjob->_ppump->_rxbuffer[0x07 + _PUMP_TOTALS_BUFFER_SHIFT_*index] & 0x0F);
 626:.\AdvantageImpl.c ****         var = (pjob->_ppump->_rxbuffer[0x08 + _PUMP_TOTALS_BUFFER_SHIFT_*index] & 0x0F);
 627:.\AdvantageImpl.c ****         var = (pjob->_ppump->_rxbuffer[0x09 + _PUMP_TOTALS_BUFFER_SHIFT_*index] & 0x0F);
 628:.\AdvantageImpl.c ****         var = (pjob->_ppump->_rxbuffer[0x0A + _PUMP_TOTALS_BUFFER_SHIFT_*index] & 0x0F);
 629:.\AdvantageImpl.c ****         var = (pjob->_ppump->_rxbuffer[0x0B + _PUMP_TOTALS_BUFFER_SHIFT_*index] & 0x0F);
 630:.\AdvantageImpl.c ****         var = (pjob->_ppump->_rxbuffer[0x0C + _PUMP_TOTALS_BUFFER_SHIFT_*index] & 0x0F);
 631:.\AdvantageImpl.c ****         var = (pjob->_ppump->_rxbuffer[0x0D + _PUMP_TOTALS_BUFFER_SHIFT_*index] & 0x0F);
 632:.\AdvantageImpl.c ****         var = (pjob->_ppump->_rxbuffer[0x0E + _PUMP_TOTALS_BUFFER_SHIFT_*index] & 0x0F);
 633:.\AdvantageImpl.c ****         var = (pjob->_ppump->_rxbuffer[0x0F + _PUMP_TOTALS_BUFFER_SHIFT_*index] & 0x0F);
 634:.\AdvantageImpl.c **** 
 635:.\AdvantageImpl.c ****         //Bytes from index 0x11 + _PUMP_TOTALS_BUFFER_SHIFT_*index to 0x1C + _PUMP_TOTALS_BUFFER_SH
 636:.\AdvantageImpl.c ****         //are the digits for the total money charged until now on this pump
 637:.\AdvantageImpl.c ****         //Digits are in BCD format
 638:.\AdvantageImpl.c ****         var = (pjob->_ppump->_rxbuffer[0x11 + _PUMP_TOTALS_BUFFER_SHIFT_*index] & 0x0F);
 639:.\AdvantageImpl.c ****         var = (pjob->_ppump->_rxbuffer[0x12 + _PUMP_TOTALS_BUFFER_SHIFT_*index] & 0x0F);
 640:.\AdvantageImpl.c ****         var = (pjob->_ppump->_rxbuffer[0x13 + _PUMP_TOTALS_BUFFER_SHIFT_*index] & 0x0F);
 641:.\AdvantageImpl.c ****         var = (pjob->_ppump->_rxbuffer[0x14 + _PUMP_TOTALS_BUFFER_SHIFT_*index] & 0x0F);
 642:.\AdvantageImpl.c ****         var = (pjob->_ppump->_rxbuffer[0x15 + _PUMP_TOTALS_BUFFER_SHIFT_*index] & 0x0F);
 643:.\AdvantageImpl.c ****         var = (pjob->_ppump->_rxbuffer[0x16 + _PUMP_TOTALS_BUFFER_SHIFT_*index] & 0x0F);
 644:.\AdvantageImpl.c ****         var = (pjob->_ppump->_rxbuffer[0x17 + _PUMP_TOTALS_BUFFER_SHIFT_*index] & 0x0F);
 645:.\AdvantageImpl.c ****         var = (pjob->_ppump->_rxbuffer[0x18 + _PUMP_TOTALS_BUFFER_SHIFT_*index] & 0x0F);
 646:.\AdvantageImpl.c ****         var = (pjob->_ppump->_rxbuffer[0x19 + _PUMP_TOTALS_BUFFER_SHIFT_*index] & 0x0F);
 647:.\AdvantageImpl.c ****         var = (pjob->_ppump->_rxbuffer[0x1A + _PUMP_TOTALS_BUFFER_SHIFT_*index] & 0x0F);
 648:.\AdvantageImpl.c ****         var = (pjob->_ppump->_rxbuffer[0x1B + _PUMP_TOTALS_BUFFER_SHIFT_*index] & 0x0F);
 649:.\AdvantageImpl.c ****         var = (pjob->_ppump->_rxbuffer[0x1C + _PUMP_TOTALS_BUFFER_SHIFT_*index] & 0x0F);
 650:.\AdvantageImpl.c ****         
 651:.\AdvantageImpl.c ****         //Bytes from index 0x1E + _PUMP_TOTALS_BUFFER_SHIFT_*index to 0x23 + _PUMP_TOTALS_BUFFER_SH
 652:.\AdvantageImpl.c ****         //are the digits for the reference PPU used on this pump/hose
 653:.\AdvantageImpl.c ****         //Digits are in BCD format
 654:.\AdvantageImpl.c ****         var = (pjob->_ppump->_rxbuffer[0x1E + _PUMP_TOTALS_BUFFER_SHIFT_*index] & 0x0F);
 655:.\AdvantageImpl.c ****         var = (pjob->_ppump->_rxbuffer[0x1F + _PUMP_TOTALS_BUFFER_SHIFT_*index] & 0x0F);
 656:.\AdvantageImpl.c ****         var = (pjob->_ppump->_rxbuffer[0x20 + _PUMP_TOTALS_BUFFER_SHIFT_*index] & 0x0F);
 657:.\AdvantageImpl.c ****         var = (pjob->_ppump->_rxbuffer[0x21 + _PUMP_TOTALS_BUFFER_SHIFT_*index] & 0x0F);
 658:.\AdvantageImpl.c ****         var = (pjob->_ppump->_rxbuffer[0x22 + _PUMP_TOTALS_BUFFER_SHIFT_*index] & 0x0F);
 659:.\AdvantageImpl.c ****         var = (pjob->_ppump->_rxbuffer[0x23 + _PUMP_TOTALS_BUFFER_SHIFT_*index] & 0x0F);
 660:.\AdvantageImpl.c **** */        
 661:.\AdvantageImpl.c ****         memset(pjob->_ppump->_rxbuffer, 0x00, _PUMP_RX_BUFFER_SIZE_);
 2357              		.loc 1 661 0
 2358 0012 FB68     		ldr	r3, [r7, #12]
 2359 0014 DB69     		ldr	r3, [r3, #28]
 2360 0016 03F5D073 		add	r3, r3, #416
ARM GAS  C:\Users\RECEPC~1\AppData\Local\Temp\ccZZcwiB.s 			page 54


 2361 001a 1846     		mov	r0, r3
 2362 001c 0021     		movs	r1, #0
 2363 001e 4FF4C072 		mov	r2, #384
 2364 0022 FFF7FEFF 		bl	memset
 2365              	.L65:
 662:.\AdvantageImpl.c ****     }
 663:.\AdvantageImpl.c **** }
 2366              		.loc 1 663 0
 2367 0026 1037     		adds	r7, r7, #16
 2368              		.cfi_def_cfa_offset 8
 2369 0028 BD46     		mov	sp, r7
 2370              		.cfi_def_cfa_register 13
 2371              		@ sp needed
 2372 002a 80BD     		pop	{r7, pc}
 2373              		.cfi_endproc
 2374              	.LFE68:
 2375              		.size	ProcessPumpTotalsDataPpuCheck, .-ProcessPumpTotalsDataPpuCheck
 2376              		.section	.text.PumpJobTimeout,"ax",%progbits
 2377              		.align	2
 2378              		.global	PumpJobTimeout
 2379              		.thumb
 2380              		.thumb_func
 2381              		.type	PumpJobTimeout, %function
 2382              	PumpJobTimeout:
 2383              	.LFB69:
 664:.\AdvantageImpl.c **** 
 665:.\AdvantageImpl.c **** //@Created By: HIJH
 666:.\AdvantageImpl.c **** //@Date: Septembre de 2016
 667:.\AdvantageImpl.c **** //This must be used to notify the log registry about the timeout issue
 668:.\AdvantageImpl.c **** void PumpJobTimeout(void *pparam)
 669:.\AdvantageImpl.c **** {
 2384              		.loc 1 669 0
 2385              		.cfi_startproc
 2386              		@ args = 0, pretend = 0, frame = 16
 2387              		@ frame_needed = 1, uses_anonymous_args = 0
 2388              		@ link register save eliminated.
 2389 0000 80B4     		push	{r7}
 2390              		.cfi_def_cfa_offset 4
 2391              		.cfi_offset 7, -4
 2392 0002 85B0     		sub	sp, sp, #20
 2393              		.cfi_def_cfa_offset 24
 2394 0004 00AF     		add	r7, sp, #0
 2395              		.cfi_def_cfa_register 7
 2396 0006 7860     		str	r0, [r7, #4]
 670:.\AdvantageImpl.c ****     PPUMPTRANSACTIONJOBCONTEXTPTR pjob = (PPUMPTRANSACTIONJOBCONTEXTPTR)pparam;
 2397              		.loc 1 670 0
 2398 0008 7B68     		ldr	r3, [r7, #4]
 2399 000a FB60     		str	r3, [r7, #12]
 671:.\AdvantageImpl.c ****     if(pjob)
 2400              		.loc 1 671 0
 2401 000c FB68     		ldr	r3, [r7, #12]
 2402 000e 002B     		cmp	r3, #0
 2403 0010 0CD0     		beq	.L67
 672:.\AdvantageImpl.c ****     {
 673:.\AdvantageImpl.c ****         //Release the Current Loop and log if possible
 674:.\AdvantageImpl.c ****         if(pjob->_retriescounter >= _MAX_RETRIES_)
 2404              		.loc 1 674 0
ARM GAS  C:\Users\RECEPC~1\AppData\Local\Temp\ccZZcwiB.s 			page 55


 2405 0012 FB68     		ldr	r3, [r7, #12]
 2406 0014 DB89     		ldrh	r3, [r3, #14]	@ movhi
 2407 0016 9BB2     		uxth	r3, r3
 2408 0018 132B     		cmp	r3, #19
 2409 001a 07D9     		bls	.L67
 675:.\AdvantageImpl.c ****         {
 676:.\AdvantageImpl.c ****             pjob->_ppump->_pumpstate = PUMP_UNKNOWN;
 2410              		.loc 1 676 0
 2411 001c FB68     		ldr	r3, [r7, #12]
 2412 001e DB69     		ldr	r3, [r3, #28]
 2413 0020 FF22     		movs	r2, #255
 2414 0022 9A70     		strb	r2, [r3, #2]
 677:.\AdvantageImpl.c ****             pjob->_ppump->_transhealth = _PUMP_FAIL_;
 2415              		.loc 1 677 0
 2416 0024 FB68     		ldr	r3, [r7, #12]
 2417 0026 DB69     		ldr	r3, [r3, #28]
 2418 0028 0222     		movs	r2, #2
 2419 002a 1A76     		strb	r2, [r3, #24]
 2420              	.L67:
 678:.\AdvantageImpl.c ****         }
 679:.\AdvantageImpl.c ****     }
 680:.\AdvantageImpl.c **** }
 2421              		.loc 1 680 0
 2422 002c 1437     		adds	r7, r7, #20
 2423              		.cfi_def_cfa_offset 4
 2424 002e BD46     		mov	sp, r7
 2425              		.cfi_def_cfa_register 13
 2426              		@ sp needed
 2427 0030 5DF8047B 		ldr	r7, [sp], #4
 2428              		.cfi_restore 7
 2429              		.cfi_def_cfa_offset 0
 2430 0034 7047     		bx	lr
 2431              		.cfi_endproc
 2432              	.LFE69:
 2433              		.size	PumpJobTimeout, .-PumpJobTimeout
 2434 0036 00BF     		.section	.text.PumpStateJobTimeout,"ax",%progbits
 2435              		.align	2
 2436              		.global	PumpStateJobTimeout
 2437              		.thumb
 2438              		.thumb_func
 2439              		.type	PumpStateJobTimeout, %function
 2440              	PumpStateJobTimeout:
 2441              	.LFB70:
 681:.\AdvantageImpl.c **** 
 682:.\AdvantageImpl.c **** //@Created By: HIJH
 683:.\AdvantageImpl.c **** //@Date: Septembre de 2016
 684:.\AdvantageImpl.c **** //This must be used to notify the log registry about the timeout issue
 685:.\AdvantageImpl.c **** void PumpStateJobTimeout(void *pparam)
 686:.\AdvantageImpl.c **** {
 2442              		.loc 1 686 0
 2443              		.cfi_startproc
 2444              		@ args = 0, pretend = 0, frame = 16
 2445              		@ frame_needed = 1, uses_anonymous_args = 0
 2446              		@ link register save eliminated.
 2447 0000 80B4     		push	{r7}
 2448              		.cfi_def_cfa_offset 4
 2449              		.cfi_offset 7, -4
ARM GAS  C:\Users\RECEPC~1\AppData\Local\Temp\ccZZcwiB.s 			page 56


 2450 0002 85B0     		sub	sp, sp, #20
 2451              		.cfi_def_cfa_offset 24
 2452 0004 00AF     		add	r7, sp, #0
 2453              		.cfi_def_cfa_register 7
 2454 0006 7860     		str	r0, [r7, #4]
 687:.\AdvantageImpl.c ****     PPUMPTRANSACTIONJOBCONTEXTPTR pjob = (PPUMPTRANSACTIONJOBCONTEXTPTR)pparam;
 2455              		.loc 1 687 0
 2456 0008 7B68     		ldr	r3, [r7, #4]
 2457 000a FB60     		str	r3, [r7, #12]
 688:.\AdvantageImpl.c ****     if(pjob)
 2458              		.loc 1 688 0
 2459 000c FB68     		ldr	r3, [r7, #12]
 2460 000e 002B     		cmp	r3, #0
 2461 0010 0CD0     		beq	.L69
 689:.\AdvantageImpl.c ****     {
 690:.\AdvantageImpl.c ****         //Release the Current Loop and log if possible
 691:.\AdvantageImpl.c ****         if(pjob->_retriescounter >= _MAX_RETRIES_)
 2462              		.loc 1 691 0
 2463 0012 FB68     		ldr	r3, [r7, #12]
 2464 0014 DB89     		ldrh	r3, [r3, #14]	@ movhi
 2465 0016 9BB2     		uxth	r3, r3
 2466 0018 132B     		cmp	r3, #19
 2467 001a 07D9     		bls	.L69
 692:.\AdvantageImpl.c ****         {
 693:.\AdvantageImpl.c ****             pjob->_ppump->_pumpstate = PUMP_UNKNOWN;
 2468              		.loc 1 693 0
 2469 001c FB68     		ldr	r3, [r7, #12]
 2470 001e DB69     		ldr	r3, [r3, #28]
 2471 0020 FF22     		movs	r2, #255
 2472 0022 9A70     		strb	r2, [r3, #2]
 694:.\AdvantageImpl.c ****             pjob->_ppump->_transhealth = _PUMP_FAIL_;
 2473              		.loc 1 694 0
 2474 0024 FB68     		ldr	r3, [r7, #12]
 2475 0026 DB69     		ldr	r3, [r3, #28]
 2476 0028 0222     		movs	r2, #2
 2477 002a 1A76     		strb	r2, [r3, #24]
 2478              	.L69:
 695:.\AdvantageImpl.c ****         }
 696:.\AdvantageImpl.c ****     }
 697:.\AdvantageImpl.c **** }
 2479              		.loc 1 697 0
 2480 002c 1437     		adds	r7, r7, #20
 2481              		.cfi_def_cfa_offset 4
 2482 002e BD46     		mov	sp, r7
 2483              		.cfi_def_cfa_register 13
 2484              		@ sp needed
 2485 0030 5DF8047B 		ldr	r7, [sp], #4
 2486              		.cfi_restore 7
 2487              		.cfi_def_cfa_offset 0
 2488 0034 7047     		bx	lr
 2489              		.cfi_endproc
 2490              	.LFE70:
 2491              		.size	PumpStateJobTimeout, .-PumpStateJobTimeout
 2492 0036 00BF     		.section	.text.PumpAuthorization,"ax",%progbits
 2493              		.align	2
 2494              		.global	PumpAuthorization
 2495              		.thumb
ARM GAS  C:\Users\RECEPC~1\AppData\Local\Temp\ccZZcwiB.s 			page 57


 2496              		.thumb_func
 2497              		.type	PumpAuthorization, %function
 2498              	PumpAuthorization:
 2499              	.LFB71:
 698:.\AdvantageImpl.c **** 
 699:.\AdvantageImpl.c **** ///////////////////////////////////////////////////////////////////////////////////////////////////
 700:.\AdvantageImpl.c **** //////////////////////                 BLOCK OF AVAILABLE REQUEST HANDLERS
 701:.\AdvantageImpl.c **** ///////////////////////////////////////////////////////////////////////////////////////////////////
 702:.\AdvantageImpl.c **** 
 703:.\AdvantageImpl.c **** //@Created By: HIJH
 704:.\AdvantageImpl.c **** //@Date: Septembre de 2016
 705:.\AdvantageImpl.c **** //Sends the authorization request to the pump. This is a single byte command with no response
 706:.\AdvantageImpl.c **** void PumpAuthorization(void *pparam)
 707:.\AdvantageImpl.c **** {
 2500              		.loc 1 707 0
 2501              		.cfi_startproc
 2502              		@ args = 0, pretend = 0, frame = 24
 2503              		@ frame_needed = 1, uses_anonymous_args = 0
 2504 0000 80B5     		push	{r7, lr}
 2505              		.cfi_def_cfa_offset 8
 2506              		.cfi_offset 7, -8
 2507              		.cfi_offset 14, -4
 2508 0002 86B0     		sub	sp, sp, #24
 2509              		.cfi_def_cfa_offset 32
 2510 0004 00AF     		add	r7, sp, #0
 2511              		.cfi_def_cfa_register 7
 2512 0006 7860     		str	r0, [r7, #4]
 708:.\AdvantageImpl.c ****     PNEAR_PUMPPTR ppump = (PNEAR_PUMPPTR)pparam;
 2513              		.loc 1 708 0
 2514 0008 7B68     		ldr	r3, [r7, #4]
 2515 000a 7B61     		str	r3, [r7, #20]
 709:.\AdvantageImpl.c ****     if(ppump)
 2516              		.loc 1 709 0
 2517 000c 7B69     		ldr	r3, [r7, #20]
 2518 000e 002B     		cmp	r3, #0
 2519 0010 34D0     		beq	.L71
 2520              	.LBB7:
 710:.\AdvantageImpl.c ****     {
 711:.\AdvantageImpl.c **** 
 712:.\AdvantageImpl.c ****         if(!ppump->_presetdone)
 2521              		.loc 1 712 0
 2522 0012 7B69     		ldr	r3, [r7, #20]
 2523 0014 1B7A     		ldrb	r3, [r3, #8]
 2524 0016 DBB2     		uxtb	r3, r3
 2525 0018 83F00103 		eor	r3, r3, #1
 2526 001c DBB2     		uxtb	r3, r3
 2527 001e 002B     		cmp	r3, #0
 2528 0020 00D0     		beq	.L73
 713:.\AdvantageImpl.c ****             return;
 2529              		.loc 1 713 0
 2530 0022 2BE0     		b	.L71
 2531              	.L73:
 714:.\AdvantageImpl.c **** 
 715:.\AdvantageImpl.c ****         uint8_t index = 0;
 2532              		.loc 1 715 0
 2533 0024 0023     		movs	r3, #0
 2534 0026 FB74     		strb	r3, [r7, #19]
ARM GAS  C:\Users\RECEPC~1\AppData\Local\Temp\ccZZcwiB.s 			page 58


 716:.\AdvantageImpl.c ****         memset(ppump->_rxbuffer, 0x00, _PUMP_RX_BUFFER_SIZE_);
 2535              		.loc 1 716 0
 2536 0028 7B69     		ldr	r3, [r7, #20]
 2537 002a 03F5D073 		add	r3, r3, #416
 2538 002e 1846     		mov	r0, r3
 2539 0030 0021     		movs	r1, #0
 2540 0032 4FF4C072 		mov	r2, #384
 2541 0036 FFF7FEFF 		bl	memset
 717:.\AdvantageImpl.c ****         PUARTMESSAGEPTR puartdisp = GetUARTMessageSlot(UART_DISPENSER);
 2542              		.loc 1 717 0
 2543 003a A220     		movs	r0, #162
 2544 003c FFF7FEFF 		bl	GetUARTMessageSlot
 2545 0040 F860     		str	r0, [r7, #12]
 718:.\AdvantageImpl.c ****         if(puartdisp)
 2546              		.loc 1 718 0
 2547 0042 FB68     		ldr	r3, [r7, #12]
 2548 0044 002B     		cmp	r3, #0
 2549 0046 19D0     		beq	.L71
 719:.\AdvantageImpl.c ****         {
 720:.\AdvantageImpl.c ****             //Just one byte for the response
 721:.\AdvantageImpl.c ****             puartdisp->_messagetx[index++] = PUMP_COMMAND(PUMP_AUTHORIZATION, ppump->_pumpid);
 2550              		.loc 1 721 0
 2551 0048 FB7C     		ldrb	r3, [r7, #19]	@ zero_extendqisi2
 2552 004a 5A1C     		adds	r2, r3, #1
 2553 004c FA74     		strb	r2, [r7, #19]
 2554 004e 1946     		mov	r1, r3
 2555 0050 7B69     		ldr	r3, [r7, #20]
 2556 0052 1B78     		ldrb	r3, [r3]	@ zero_extendqisi2
 2557 0054 DBB2     		uxtb	r3, r3
 2558 0056 03F00F03 		and	r3, r3, #15
 2559 005a DBB2     		uxtb	r3, r3
 2560 005c 43F01003 		orr	r3, r3, #16
 2561 0060 DBB2     		uxtb	r3, r3
 2562 0062 DAB2     		uxtb	r2, r3
 2563 0064 FB68     		ldr	r3, [r7, #12]
 2564 0066 0B44     		add	r3, r3, r1
 2565 0068 1A71     		strb	r2, [r3, #4]
 722:.\AdvantageImpl.c ****             puartdisp->_messagelength = 1;//One byte
 2566              		.loc 1 722 0
 2567 006a FB68     		ldr	r3, [r7, #12]
 2568 006c 0122     		movs	r2, #1
 2569 006e 5A80     		strh	r2, [r3, #2]	@ movhi
 723:.\AdvantageImpl.c ****             puartdisp->_messagestate = PENDING;
 2570              		.loc 1 723 0
 2571 0070 FB68     		ldr	r3, [r7, #12]
 2572 0072 C222     		movs	r2, #194
 2573 0074 1A70     		strb	r2, [r3]
 724:.\AdvantageImpl.c ****          
 725:.\AdvantageImpl.c ****             ppump->_authorized = true;
 2574              		.loc 1 725 0
 2575 0076 7B69     		ldr	r3, [r7, #20]
 2576 0078 0122     		movs	r2, #1
 2577 007a 9A71     		strb	r2, [r3, #6]
 2578              	.L71:
 2579              	.LBE7:
 726:.\AdvantageImpl.c ****         }        
 727:.\AdvantageImpl.c ****     }
ARM GAS  C:\Users\RECEPC~1\AppData\Local\Temp\ccZZcwiB.s 			page 59


 728:.\AdvantageImpl.c **** }
 2580              		.loc 1 728 0
 2581 007c 1837     		adds	r7, r7, #24
 2582              		.cfi_def_cfa_offset 8
 2583 007e BD46     		mov	sp, r7
 2584              		.cfi_def_cfa_register 13
 2585              		@ sp needed
 2586 0080 80BD     		pop	{r7, pc}
 2587              		.cfi_endproc
 2588              	.LFE71:
 2589              		.size	PumpAuthorization, .-PumpAuthorization
 2590 0082 00BF     		.section	.text.PumpStartupAuthorization,"ax",%progbits
 2591              		.align	2
 2592              		.global	PumpStartupAuthorization
 2593              		.thumb
 2594              		.thumb_func
 2595              		.type	PumpStartupAuthorization, %function
 2596              	PumpStartupAuthorization:
 2597              	.LFB72:
 729:.\AdvantageImpl.c **** 
 730:.\AdvantageImpl.c **** //@Created By: HIJH
 731:.\AdvantageImpl.c **** //@Date: Septembre de 2016
 732:.\AdvantageImpl.c **** //Sends the authorization request to the pump. This is a single byte command with no response
 733:.\AdvantageImpl.c **** void PumpStartupAuthorization(void *pparam)
 734:.\AdvantageImpl.c **** {
 2598              		.loc 1 734 0
 2599              		.cfi_startproc
 2600              		@ args = 0, pretend = 0, frame = 24
 2601              		@ frame_needed = 1, uses_anonymous_args = 0
 2602 0000 80B5     		push	{r7, lr}
 2603              		.cfi_def_cfa_offset 8
 2604              		.cfi_offset 7, -8
 2605              		.cfi_offset 14, -4
 2606 0002 86B0     		sub	sp, sp, #24
 2607              		.cfi_def_cfa_offset 32
 2608 0004 00AF     		add	r7, sp, #0
 2609              		.cfi_def_cfa_register 7
 2610 0006 7860     		str	r0, [r7, #4]
 735:.\AdvantageImpl.c ****     PNEAR_PUMPPTR ppump = (PNEAR_PUMPPTR)pparam;
 2611              		.loc 1 735 0
 2612 0008 7B68     		ldr	r3, [r7, #4]
 2613 000a 7B61     		str	r3, [r7, #20]
 736:.\AdvantageImpl.c ****     if(ppump)
 2614              		.loc 1 736 0
 2615 000c 7B69     		ldr	r3, [r7, #20]
 2616 000e 002B     		cmp	r3, #0
 2617 0010 2BD0     		beq	.L74
 2618              	.LBB8:
 737:.\AdvantageImpl.c ****     {                
 738:.\AdvantageImpl.c ****         uint8_t index = 0;
 2619              		.loc 1 738 0
 2620 0012 0023     		movs	r3, #0
 2621 0014 FB74     		strb	r3, [r7, #19]
 739:.\AdvantageImpl.c ****         memset(ppump->_rxbuffer, 0x00, _PUMP_RX_BUFFER_SIZE_);
 2622              		.loc 1 739 0
 2623 0016 7B69     		ldr	r3, [r7, #20]
 2624 0018 03F5D073 		add	r3, r3, #416
ARM GAS  C:\Users\RECEPC~1\AppData\Local\Temp\ccZZcwiB.s 			page 60


 2625 001c 1846     		mov	r0, r3
 2626 001e 0021     		movs	r1, #0
 2627 0020 4FF4C072 		mov	r2, #384
 2628 0024 FFF7FEFF 		bl	memset
 740:.\AdvantageImpl.c ****         PUARTMESSAGEPTR puartdisp = GetUARTMessageSlot(UART_DISPENSER);
 2629              		.loc 1 740 0
 2630 0028 A220     		movs	r0, #162
 2631 002a FFF7FEFF 		bl	GetUARTMessageSlot
 2632 002e F860     		str	r0, [r7, #12]
 741:.\AdvantageImpl.c ****         if(puartdisp)
 2633              		.loc 1 741 0
 2634 0030 FB68     		ldr	r3, [r7, #12]
 2635 0032 002B     		cmp	r3, #0
 2636 0034 16D0     		beq	.L76
 742:.\AdvantageImpl.c ****         {
 743:.\AdvantageImpl.c ****             //Just one byte for the response
 744:.\AdvantageImpl.c ****             puartdisp->_messagetx[index++] = PUMP_COMMAND(PUMP_AUTHORIZATION, ppump->_pumpid);
 2637              		.loc 1 744 0
 2638 0036 FB7C     		ldrb	r3, [r7, #19]	@ zero_extendqisi2
 2639 0038 5A1C     		adds	r2, r3, #1
 2640 003a FA74     		strb	r2, [r7, #19]
 2641 003c 1946     		mov	r1, r3
 2642 003e 7B69     		ldr	r3, [r7, #20]
 2643 0040 1B78     		ldrb	r3, [r3]	@ zero_extendqisi2
 2644 0042 DBB2     		uxtb	r3, r3
 2645 0044 03F00F03 		and	r3, r3, #15
 2646 0048 DBB2     		uxtb	r3, r3
 2647 004a 43F01003 		orr	r3, r3, #16
 2648 004e DBB2     		uxtb	r3, r3
 2649 0050 DAB2     		uxtb	r2, r3
 2650 0052 FB68     		ldr	r3, [r7, #12]
 2651 0054 0B44     		add	r3, r3, r1
 2652 0056 1A71     		strb	r2, [r3, #4]
 745:.\AdvantageImpl.c ****             puartdisp->_messagelength = 1;//One byte
 2653              		.loc 1 745 0
 2654 0058 FB68     		ldr	r3, [r7, #12]
 2655 005a 0122     		movs	r2, #1
 2656 005c 5A80     		strh	r2, [r3, #2]	@ movhi
 746:.\AdvantageImpl.c ****             puartdisp->_messagestate = PENDING;
 2657              		.loc 1 746 0
 2658 005e FB68     		ldr	r3, [r7, #12]
 2659 0060 C222     		movs	r2, #194
 2660 0062 1A70     		strb	r2, [r3]
 2661              	.L76:
 747:.\AdvantageImpl.c ****             
 748:.\AdvantageImpl.c ****         }
 749:.\AdvantageImpl.c ****         CyDelay(100);
 2662              		.loc 1 749 0
 2663 0064 6420     		movs	r0, #100
 2664 0066 FFF7FEFF 		bl	CyDelay
 2665              	.L74:
 2666              	.LBE8:
 750:.\AdvantageImpl.c ****     }
 751:.\AdvantageImpl.c **** }
 2667              		.loc 1 751 0
 2668 006a 1837     		adds	r7, r7, #24
 2669              		.cfi_def_cfa_offset 8
ARM GAS  C:\Users\RECEPC~1\AppData\Local\Temp\ccZZcwiB.s 			page 61


 2670 006c BD46     		mov	sp, r7
 2671              		.cfi_def_cfa_register 13
 2672              		@ sp needed
 2673 006e 80BD     		pop	{r7, pc}
 2674              		.cfi_endproc
 2675              	.LFE72:
 2676              		.size	PumpStartupAuthorization, .-PumpStartupAuthorization
 2677              		.section	.text.PumpStateRequest,"ax",%progbits
 2678              		.align	2
 2679              		.global	PumpStateRequest
 2680              		.thumb
 2681              		.thumb_func
 2682              		.type	PumpStateRequest, %function
 2683              	PumpStateRequest:
 2684              	.LFB73:
 752:.\AdvantageImpl.c **** 
 753:.\AdvantageImpl.c **** //@Created By: HIJH
 754:.\AdvantageImpl.c **** //@Date: Septembre de 2016
 755:.\AdvantageImpl.c **** //Sends the state request to the pump. This is a single byte command with one byte of response
 756:.\AdvantageImpl.c **** void PumpStateRequest(void *pparam)
 757:.\AdvantageImpl.c **** {
 2685              		.loc 1 757 0
 2686              		.cfi_startproc
 2687              		@ args = 0, pretend = 0, frame = 24
 2688              		@ frame_needed = 1, uses_anonymous_args = 0
 2689 0000 80B5     		push	{r7, lr}
 2690              		.cfi_def_cfa_offset 8
 2691              		.cfi_offset 7, -8
 2692              		.cfi_offset 14, -4
 2693 0002 86B0     		sub	sp, sp, #24
 2694              		.cfi_def_cfa_offset 32
 2695 0004 00AF     		add	r7, sp, #0
 2696              		.cfi_def_cfa_register 7
 2697 0006 7860     		str	r0, [r7, #4]
 758:.\AdvantageImpl.c ****     PNEAR_PUMPPTR ppump = (PNEAR_PUMPPTR)pparam;
 2698              		.loc 1 758 0
 2699 0008 7B68     		ldr	r3, [r7, #4]
 2700 000a 7B61     		str	r3, [r7, #20]
 759:.\AdvantageImpl.c ****     if(ppump)
 2701              		.loc 1 759 0
 2702 000c 7B69     		ldr	r3, [r7, #20]
 2703 000e 002B     		cmp	r3, #0
 2704 0010 23D0     		beq	.L77
 2705              	.LBB9:
 760:.\AdvantageImpl.c ****     {
 761:.\AdvantageImpl.c ****         uint8_t index = 0;
 2706              		.loc 1 761 0
 2707 0012 0023     		movs	r3, #0
 2708 0014 FB74     		strb	r3, [r7, #19]
 762:.\AdvantageImpl.c ****         memset(ppump->_rxbuffer, 0x00, _PUMP_RX_BUFFER_SIZE_);
 2709              		.loc 1 762 0
 2710 0016 7B69     		ldr	r3, [r7, #20]
 2711 0018 03F5D073 		add	r3, r3, #416
 2712 001c 1846     		mov	r0, r3
 2713 001e 0021     		movs	r1, #0
 2714 0020 4FF4C072 		mov	r2, #384
 2715 0024 FFF7FEFF 		bl	memset
ARM GAS  C:\Users\RECEPC~1\AppData\Local\Temp\ccZZcwiB.s 			page 62


 763:.\AdvantageImpl.c ****         PUARTMESSAGEPTR puartdisp = GetUARTMessageSlot(UART_DISPENSER);
 2716              		.loc 1 763 0
 2717 0028 A220     		movs	r0, #162
 2718 002a FFF7FEFF 		bl	GetUARTMessageSlot
 2719 002e F860     		str	r0, [r7, #12]
 764:.\AdvantageImpl.c ****         if(puartdisp)
 2720              		.loc 1 764 0
 2721 0030 FB68     		ldr	r3, [r7, #12]
 2722 0032 002B     		cmp	r3, #0
 2723 0034 11D0     		beq	.L77
 765:.\AdvantageImpl.c ****         {
 766:.\AdvantageImpl.c ****             puartdisp->_messagetx[index++] = PUMP_COMMAND(PUMP_STATE_REQUEST, ppump->_pumpid);
 2724              		.loc 1 766 0
 2725 0036 FB7C     		ldrb	r3, [r7, #19]	@ zero_extendqisi2
 2726 0038 5A1C     		adds	r2, r3, #1
 2727 003a FA74     		strb	r2, [r7, #19]
 2728 003c 1946     		mov	r1, r3
 2729 003e 7B69     		ldr	r3, [r7, #20]
 2730 0040 1B78     		ldrb	r3, [r3]	@ zero_extendqisi2
 2731 0042 03F00F03 		and	r3, r3, #15
 2732 0046 DAB2     		uxtb	r2, r3
 2733 0048 FB68     		ldr	r3, [r7, #12]
 2734 004a 0B44     		add	r3, r3, r1
 2735 004c 1A71     		strb	r2, [r3, #4]
 767:.\AdvantageImpl.c ****             puartdisp->_messagelength = 1;//One byte
 2736              		.loc 1 767 0
 2737 004e FB68     		ldr	r3, [r7, #12]
 2738 0050 0122     		movs	r2, #1
 2739 0052 5A80     		strh	r2, [r3, #2]	@ movhi
 768:.\AdvantageImpl.c ****             puartdisp->_messagestate = PENDING;
 2740              		.loc 1 768 0
 2741 0054 FB68     		ldr	r3, [r7, #12]
 2742 0056 C222     		movs	r2, #194
 2743 0058 1A70     		strb	r2, [r3]
 2744              	.L77:
 2745              	.LBE9:
 769:.\AdvantageImpl.c ****         }
 770:.\AdvantageImpl.c ****     }
 771:.\AdvantageImpl.c **** }
 2746              		.loc 1 771 0
 2747 005a 1837     		adds	r7, r7, #24
 2748              		.cfi_def_cfa_offset 8
 2749 005c BD46     		mov	sp, r7
 2750              		.cfi_def_cfa_register 13
 2751              		@ sp needed
 2752 005e 80BD     		pop	{r7, pc}
 2753              		.cfi_endproc
 2754              	.LFE73:
 2755              		.size	PumpStateRequest, .-PumpStateRequest
 2756              		.section	.text.PumpRTMoneyRequest,"ax",%progbits
 2757              		.align	2
 2758              		.global	PumpRTMoneyRequest
 2759              		.thumb
 2760              		.thumb_func
 2761              		.type	PumpRTMoneyRequest, %function
 2762              	PumpRTMoneyRequest:
 2763              	.LFB74:
ARM GAS  C:\Users\RECEPC~1\AppData\Local\Temp\ccZZcwiB.s 			page 63


 772:.\AdvantageImpl.c **** 
 773:.\AdvantageImpl.c **** //@Created By: HIJH
 774:.\AdvantageImpl.c **** //@Date: Septembre de 2016
 775:.\AdvantageImpl.c **** void PumpRTMoneyRequest(void *pparam)
 776:.\AdvantageImpl.c **** {
 2764              		.loc 1 776 0
 2765              		.cfi_startproc
 2766              		@ args = 0, pretend = 0, frame = 24
 2767              		@ frame_needed = 1, uses_anonymous_args = 0
 2768 0000 80B5     		push	{r7, lr}
 2769              		.cfi_def_cfa_offset 8
 2770              		.cfi_offset 7, -8
 2771              		.cfi_offset 14, -4
 2772 0002 86B0     		sub	sp, sp, #24
 2773              		.cfi_def_cfa_offset 32
 2774 0004 00AF     		add	r7, sp, #0
 2775              		.cfi_def_cfa_register 7
 2776 0006 7860     		str	r0, [r7, #4]
 777:.\AdvantageImpl.c ****     PNEAR_PUMPPTR ppump = (PNEAR_PUMPPTR)pparam;
 2777              		.loc 1 777 0
 2778 0008 7B68     		ldr	r3, [r7, #4]
 2779 000a 7B61     		str	r3, [r7, #20]
 778:.\AdvantageImpl.c ****     if(ppump)
 2780              		.loc 1 778 0
 2781 000c 7B69     		ldr	r3, [r7, #20]
 2782 000e 002B     		cmp	r3, #0
 2783 0010 28D0     		beq	.L79
 2784              	.LBB10:
 779:.\AdvantageImpl.c ****     {
 780:.\AdvantageImpl.c ****         uint8_t index = 0;
 2785              		.loc 1 780 0
 2786 0012 0023     		movs	r3, #0
 2787 0014 FB74     		strb	r3, [r7, #19]
 781:.\AdvantageImpl.c ****         memset(ppump->_rxbuffer, 0x00, _PUMP_RX_BUFFER_SIZE_);
 2788              		.loc 1 781 0
 2789 0016 7B69     		ldr	r3, [r7, #20]
 2790 0018 03F5D073 		add	r3, r3, #416
 2791 001c 1846     		mov	r0, r3
 2792 001e 0021     		movs	r1, #0
 2793 0020 4FF4C072 		mov	r2, #384
 2794 0024 FFF7FEFF 		bl	memset
 782:.\AdvantageImpl.c ****         PUARTMESSAGEPTR puartdisp = GetUARTMessageSlot(UART_DISPENSER);
 2795              		.loc 1 782 0
 2796 0028 A220     		movs	r0, #162
 2797 002a FFF7FEFF 		bl	GetUARTMessageSlot
 2798 002e F860     		str	r0, [r7, #12]
 783:.\AdvantageImpl.c ****         if(puartdisp)
 2799              		.loc 1 783 0
 2800 0030 FB68     		ldr	r3, [r7, #12]
 2801 0032 002B     		cmp	r3, #0
 2802 0034 16D0     		beq	.L79
 784:.\AdvantageImpl.c ****         {
 785:.\AdvantageImpl.c ****             puartdisp->_messagetx[index++] = PUMP_COMMAND(PUMP_REAL_TIME_MONEY_REQUEST, ppump->_pum
 2803              		.loc 1 785 0
 2804 0036 FB7C     		ldrb	r3, [r7, #19]	@ zero_extendqisi2
 2805 0038 5A1C     		adds	r2, r3, #1
 2806 003a FA74     		strb	r2, [r7, #19]
ARM GAS  C:\Users\RECEPC~1\AppData\Local\Temp\ccZZcwiB.s 			page 64


 2807 003c 1946     		mov	r1, r3
 2808 003e 7B69     		ldr	r3, [r7, #20]
 2809 0040 1B78     		ldrb	r3, [r3]	@ zero_extendqisi2
 2810 0042 DBB2     		uxtb	r3, r3
 2811 0044 03F00F03 		and	r3, r3, #15
 2812 0048 DBB2     		uxtb	r3, r3
 2813 004a 43F06003 		orr	r3, r3, #96
 2814 004e DBB2     		uxtb	r3, r3
 2815 0050 DAB2     		uxtb	r2, r3
 2816 0052 FB68     		ldr	r3, [r7, #12]
 2817 0054 0B44     		add	r3, r3, r1
 2818 0056 1A71     		strb	r2, [r3, #4]
 786:.\AdvantageImpl.c ****             puartdisp->_messagelength = 1;//One byte
 2819              		.loc 1 786 0
 2820 0058 FB68     		ldr	r3, [r7, #12]
 2821 005a 0122     		movs	r2, #1
 2822 005c 5A80     		strh	r2, [r3, #2]	@ movhi
 787:.\AdvantageImpl.c ****             puartdisp->_messagestate = PENDING;
 2823              		.loc 1 787 0
 2824 005e FB68     		ldr	r3, [r7, #12]
 2825 0060 C222     		movs	r2, #194
 2826 0062 1A70     		strb	r2, [r3]
 2827              	.L79:
 2828              	.LBE10:
 788:.\AdvantageImpl.c ****         }
 789:.\AdvantageImpl.c ****     }
 790:.\AdvantageImpl.c **** }
 2829              		.loc 1 790 0
 2830 0064 1837     		adds	r7, r7, #24
 2831              		.cfi_def_cfa_offset 8
 2832 0066 BD46     		mov	sp, r7
 2833              		.cfi_def_cfa_register 13
 2834              		@ sp needed
 2835 0068 80BD     		pop	{r7, pc}
 2836              		.cfi_endproc
 2837              	.LFE74:
 2838              		.size	PumpRTMoneyRequest, .-PumpRTMoneyRequest
 2839 006a 00BF     		.section	.text.PumpTransactionDataRequest,"ax",%progbits
 2840              		.align	2
 2841              		.global	PumpTransactionDataRequest
 2842              		.thumb
 2843              		.thumb_func
 2844              		.type	PumpTransactionDataRequest, %function
 2845              	PumpTransactionDataRequest:
 2846              	.LFB75:
 791:.\AdvantageImpl.c **** 
 792:.\AdvantageImpl.c **** //@Created By: HIJH
 793:.\AdvantageImpl.c **** //@Date: Septembre de 2016
 794:.\AdvantageImpl.c **** //Requests the last transaction data to the pump. This is a single byte command with a fixed length
 795:.\AdvantageImpl.c **** void PumpTransactionDataRequest(void *pparam)
 796:.\AdvantageImpl.c **** {
 2847              		.loc 1 796 0
 2848              		.cfi_startproc
 2849              		@ args = 0, pretend = 0, frame = 24
 2850              		@ frame_needed = 1, uses_anonymous_args = 0
 2851 0000 80B5     		push	{r7, lr}
 2852              		.cfi_def_cfa_offset 8
ARM GAS  C:\Users\RECEPC~1\AppData\Local\Temp\ccZZcwiB.s 			page 65


 2853              		.cfi_offset 7, -8
 2854              		.cfi_offset 14, -4
 2855 0002 86B0     		sub	sp, sp, #24
 2856              		.cfi_def_cfa_offset 32
 2857 0004 00AF     		add	r7, sp, #0
 2858              		.cfi_def_cfa_register 7
 2859 0006 7860     		str	r0, [r7, #4]
 797:.\AdvantageImpl.c ****     PNEAR_PUMPPTR ppump = (PNEAR_PUMPPTR)pparam;
 2860              		.loc 1 797 0
 2861 0008 7B68     		ldr	r3, [r7, #4]
 2862 000a 7B61     		str	r3, [r7, #20]
 798:.\AdvantageImpl.c ****     if(ppump)
 2863              		.loc 1 798 0
 2864 000c 7B69     		ldr	r3, [r7, #20]
 2865 000e 002B     		cmp	r3, #0
 2866 0010 28D0     		beq	.L81
 2867              	.LBB11:
 799:.\AdvantageImpl.c ****     {        
 800:.\AdvantageImpl.c ****         uint8_t index = 0;
 2868              		.loc 1 800 0
 2869 0012 0023     		movs	r3, #0
 2870 0014 FB74     		strb	r3, [r7, #19]
 801:.\AdvantageImpl.c ****         memset(ppump->_rxbuffer, 0x00, _PUMP_RX_BUFFER_SIZE_);
 2871              		.loc 1 801 0
 2872 0016 7B69     		ldr	r3, [r7, #20]
 2873 0018 03F5D073 		add	r3, r3, #416
 2874 001c 1846     		mov	r0, r3
 2875 001e 0021     		movs	r1, #0
 2876 0020 4FF4C072 		mov	r2, #384
 2877 0024 FFF7FEFF 		bl	memset
 802:.\AdvantageImpl.c ****         PUARTMESSAGEPTR puartdisp = GetUARTMessageSlot(UART_DISPENSER);
 2878              		.loc 1 802 0
 2879 0028 A220     		movs	r0, #162
 2880 002a FFF7FEFF 		bl	GetUARTMessageSlot
 2881 002e F860     		str	r0, [r7, #12]
 803:.\AdvantageImpl.c ****         if(puartdisp)
 2882              		.loc 1 803 0
 2883 0030 FB68     		ldr	r3, [r7, #12]
 2884 0032 002B     		cmp	r3, #0
 2885 0034 16D0     		beq	.L81
 804:.\AdvantageImpl.c ****         {
 805:.\AdvantageImpl.c ****             puartdisp->_messagetx[index++] = PUMP_COMMAND(PUMP_TRANSACTION_DATA_REQUEST, ppump->_pu
 2886              		.loc 1 805 0
 2887 0036 FB7C     		ldrb	r3, [r7, #19]	@ zero_extendqisi2
 2888 0038 5A1C     		adds	r2, r3, #1
 2889 003a FA74     		strb	r2, [r7, #19]
 2890 003c 1946     		mov	r1, r3
 2891 003e 7B69     		ldr	r3, [r7, #20]
 2892 0040 1B78     		ldrb	r3, [r3]	@ zero_extendqisi2
 2893 0042 DBB2     		uxtb	r3, r3
 2894 0044 03F00F03 		and	r3, r3, #15
 2895 0048 DBB2     		uxtb	r3, r3
 2896 004a 43F04003 		orr	r3, r3, #64
 2897 004e DBB2     		uxtb	r3, r3
 2898 0050 DAB2     		uxtb	r2, r3
 2899 0052 FB68     		ldr	r3, [r7, #12]
 2900 0054 0B44     		add	r3, r3, r1
ARM GAS  C:\Users\RECEPC~1\AppData\Local\Temp\ccZZcwiB.s 			page 66


 2901 0056 1A71     		strb	r2, [r3, #4]
 806:.\AdvantageImpl.c ****             puartdisp->_messagelength = 1;//One byte
 2902              		.loc 1 806 0
 2903 0058 FB68     		ldr	r3, [r7, #12]
 2904 005a 0122     		movs	r2, #1
 2905 005c 5A80     		strh	r2, [r3, #2]	@ movhi
 807:.\AdvantageImpl.c ****             puartdisp->_messagestate = PENDING;
 2906              		.loc 1 807 0
 2907 005e FB68     		ldr	r3, [r7, #12]
 2908 0060 C222     		movs	r2, #194
 2909 0062 1A70     		strb	r2, [r3]
 2910              	.L81:
 2911              	.LBE11:
 808:.\AdvantageImpl.c ****         }
 809:.\AdvantageImpl.c ****     }
 810:.\AdvantageImpl.c **** }
 2912              		.loc 1 810 0
 2913 0064 1837     		adds	r7, r7, #24
 2914              		.cfi_def_cfa_offset 8
 2915 0066 BD46     		mov	sp, r7
 2916              		.cfi_def_cfa_register 13
 2917              		@ sp needed
 2918 0068 80BD     		pop	{r7, pc}
 2919              		.cfi_endproc
 2920              	.LFE75:
 2921              		.size	PumpTransactionDataRequest, .-PumpTransactionDataRequest
 2922 006a 00BF     		.section	.text.PumpTotalsDataRequest,"ax",%progbits
 2923              		.align	2
 2924              		.global	PumpTotalsDataRequest
 2925              		.thumb
 2926              		.thumb_func
 2927              		.type	PumpTotalsDataRequest, %function
 2928              	PumpTotalsDataRequest:
 2929              	.LFB76:
 811:.\AdvantageImpl.c **** 
 812:.\AdvantageImpl.c **** //@Created By: HIJH
 813:.\AdvantageImpl.c **** //@Date: Septembre de 2016
 814:.\AdvantageImpl.c **** //Requests the report of totals for the current pump. This is a single byte command with a variable
 815:.\AdvantageImpl.c **** //that depends on the number of available hoses.
 816:.\AdvantageImpl.c **** void PumpTotalsDataRequest(void *pparam)
 817:.\AdvantageImpl.c **** {
 2930              		.loc 1 817 0
 2931              		.cfi_startproc
 2932              		@ args = 0, pretend = 0, frame = 24
 2933              		@ frame_needed = 1, uses_anonymous_args = 0
 2934 0000 80B5     		push	{r7, lr}
 2935              		.cfi_def_cfa_offset 8
 2936              		.cfi_offset 7, -8
 2937              		.cfi_offset 14, -4
 2938 0002 86B0     		sub	sp, sp, #24
 2939              		.cfi_def_cfa_offset 32
 2940 0004 00AF     		add	r7, sp, #0
 2941              		.cfi_def_cfa_register 7
 2942 0006 7860     		str	r0, [r7, #4]
 818:.\AdvantageImpl.c ****     PNEAR_PUMPPTR ppump = (PNEAR_PUMPPTR)pparam;
 2943              		.loc 1 818 0
 2944 0008 7B68     		ldr	r3, [r7, #4]
ARM GAS  C:\Users\RECEPC~1\AppData\Local\Temp\ccZZcwiB.s 			page 67


 2945 000a 7B61     		str	r3, [r7, #20]
 819:.\AdvantageImpl.c ****     if(ppump)
 2946              		.loc 1 819 0
 2947 000c 7B69     		ldr	r3, [r7, #20]
 2948 000e 002B     		cmp	r3, #0
 2949 0010 28D0     		beq	.L83
 2950              	.LBB12:
 820:.\AdvantageImpl.c ****     {        
 821:.\AdvantageImpl.c ****         uint8_t index = 0;
 2951              		.loc 1 821 0
 2952 0012 0023     		movs	r3, #0
 2953 0014 FB74     		strb	r3, [r7, #19]
 822:.\AdvantageImpl.c ****         memset(ppump->_rxbuffer, 0x00, _PUMP_RX_BUFFER_SIZE_);
 2954              		.loc 1 822 0
 2955 0016 7B69     		ldr	r3, [r7, #20]
 2956 0018 03F5D073 		add	r3, r3, #416
 2957 001c 1846     		mov	r0, r3
 2958 001e 0021     		movs	r1, #0
 2959 0020 4FF4C072 		mov	r2, #384
 2960 0024 FFF7FEFF 		bl	memset
 823:.\AdvantageImpl.c ****         PUARTMESSAGEPTR puartdisp = GetUARTMessageSlot(UART_DISPENSER);
 2961              		.loc 1 823 0
 2962 0028 A220     		movs	r0, #162
 2963 002a FFF7FEFF 		bl	GetUARTMessageSlot
 2964 002e F860     		str	r0, [r7, #12]
 824:.\AdvantageImpl.c ****         if(puartdisp)
 2965              		.loc 1 824 0
 2966 0030 FB68     		ldr	r3, [r7, #12]
 2967 0032 002B     		cmp	r3, #0
 2968 0034 16D0     		beq	.L83
 825:.\AdvantageImpl.c ****         {
 826:.\AdvantageImpl.c ****             puartdisp->_messagetx[index++] = PUMP_COMMAND(PUMP_TOTALS_DATA_REQUEST, ppump->_pumpid)
 2969              		.loc 1 826 0
 2970 0036 FB7C     		ldrb	r3, [r7, #19]	@ zero_extendqisi2
 2971 0038 5A1C     		adds	r2, r3, #1
 2972 003a FA74     		strb	r2, [r7, #19]
 2973 003c 1946     		mov	r1, r3
 2974 003e 7B69     		ldr	r3, [r7, #20]
 2975 0040 1B78     		ldrb	r3, [r3]	@ zero_extendqisi2
 2976 0042 DBB2     		uxtb	r3, r3
 2977 0044 03F00F03 		and	r3, r3, #15
 2978 0048 DBB2     		uxtb	r3, r3
 2979 004a 43F05003 		orr	r3, r3, #80
 2980 004e DBB2     		uxtb	r3, r3
 2981 0050 DAB2     		uxtb	r2, r3
 2982 0052 FB68     		ldr	r3, [r7, #12]
 2983 0054 0B44     		add	r3, r3, r1
 2984 0056 1A71     		strb	r2, [r3, #4]
 827:.\AdvantageImpl.c ****             puartdisp->_messagelength = 1;//One byte
 2985              		.loc 1 827 0
 2986 0058 FB68     		ldr	r3, [r7, #12]
 2987 005a 0122     		movs	r2, #1
 2988 005c 5A80     		strh	r2, [r3, #2]	@ movhi
 828:.\AdvantageImpl.c ****             puartdisp->_messagestate = PENDING;
 2989              		.loc 1 828 0
 2990 005e FB68     		ldr	r3, [r7, #12]
 2991 0060 C222     		movs	r2, #194
ARM GAS  C:\Users\RECEPC~1\AppData\Local\Temp\ccZZcwiB.s 			page 68


 2992 0062 1A70     		strb	r2, [r3]
 2993              	.L83:
 2994              	.LBE12:
 829:.\AdvantageImpl.c ****         }
 830:.\AdvantageImpl.c ****     }
 831:.\AdvantageImpl.c **** }
 2995              		.loc 1 831 0
 2996 0064 1837     		adds	r7, r7, #24
 2997              		.cfi_def_cfa_offset 8
 2998 0066 BD46     		mov	sp, r7
 2999              		.cfi_def_cfa_register 13
 3000              		@ sp needed
 3001 0068 80BD     		pop	{r7, pc}
 3002              		.cfi_endproc
 3003              	.LFE76:
 3004              		.size	PumpTotalsDataRequest, .-PumpTotalsDataRequest
 3005 006a 00BF     		.section	.text.PumpDataToPump,"ax",%progbits
 3006              		.align	2
 3007              		.global	PumpDataToPump
 3008              		.thumb
 3009              		.thumb_func
 3010              		.type	PumpDataToPump, %function
 3011              	PumpDataToPump:
 3012              	.LFB77:
 832:.\AdvantageImpl.c **** 
 833:.\AdvantageImpl.c **** //@Created By: HIJH
 834:.\AdvantageImpl.c **** //@Date: Septembre de 2016
 835:.\AdvantageImpl.c **** //Requests the pump to enter in "SEND DATA" mode. This is a single byte command with a special one 
 836:.\AdvantageImpl.c **** //that indicates that the pump is ready to receive data.
 837:.\AdvantageImpl.c **** void PumpDataToPump(void *pparam)
 838:.\AdvantageImpl.c **** {
 3013              		.loc 1 838 0
 3014              		.cfi_startproc
 3015              		@ args = 0, pretend = 0, frame = 24
 3016              		@ frame_needed = 1, uses_anonymous_args = 0
 3017 0000 80B5     		push	{r7, lr}
 3018              		.cfi_def_cfa_offset 8
 3019              		.cfi_offset 7, -8
 3020              		.cfi_offset 14, -4
 3021 0002 86B0     		sub	sp, sp, #24
 3022              		.cfi_def_cfa_offset 32
 3023 0004 00AF     		add	r7, sp, #0
 3024              		.cfi_def_cfa_register 7
 3025 0006 7860     		str	r0, [r7, #4]
 839:.\AdvantageImpl.c ****     PNEAR_PUMPPTR ppump = (PNEAR_PUMPPTR)pparam;
 3026              		.loc 1 839 0
 3027 0008 7B68     		ldr	r3, [r7, #4]
 3028 000a 7B61     		str	r3, [r7, #20]
 840:.\AdvantageImpl.c ****     if(ppump)
 3029              		.loc 1 840 0
 3030 000c 7B69     		ldr	r3, [r7, #20]
 3031 000e 002B     		cmp	r3, #0
 3032 0010 28D0     		beq	.L85
 3033              	.LBB13:
 841:.\AdvantageImpl.c ****     {
 842:.\AdvantageImpl.c ****         uint8_t index = 0;        
 3034              		.loc 1 842 0
ARM GAS  C:\Users\RECEPC~1\AppData\Local\Temp\ccZZcwiB.s 			page 69


 3035 0012 0023     		movs	r3, #0
 3036 0014 FB74     		strb	r3, [r7, #19]
 843:.\AdvantageImpl.c ****         memset(ppump->_rxbuffer, 0x00, _PUMP_RX_BUFFER_SIZE_);
 3037              		.loc 1 843 0
 3038 0016 7B69     		ldr	r3, [r7, #20]
 3039 0018 03F5D073 		add	r3, r3, #416
 3040 001c 1846     		mov	r0, r3
 3041 001e 0021     		movs	r1, #0
 3042 0020 4FF4C072 		mov	r2, #384
 3043 0024 FFF7FEFF 		bl	memset
 844:.\AdvantageImpl.c ****         PUARTMESSAGEPTR puartdisp = GetUARTMessageSlot(UART_DISPENSER);
 3044              		.loc 1 844 0
 3045 0028 A220     		movs	r0, #162
 3046 002a FFF7FEFF 		bl	GetUARTMessageSlot
 3047 002e F860     		str	r0, [r7, #12]
 845:.\AdvantageImpl.c ****         if(puartdisp)
 3048              		.loc 1 845 0
 3049 0030 FB68     		ldr	r3, [r7, #12]
 3050 0032 002B     		cmp	r3, #0
 3051 0034 16D0     		beq	.L85
 846:.\AdvantageImpl.c ****         {
 847:.\AdvantageImpl.c ****             puartdisp->_messagetx[index++] = PUMP_COMMAND(PUMP_DATA_TO_PUMP, ppump->_pumpid);
 3052              		.loc 1 847 0
 3053 0036 FB7C     		ldrb	r3, [r7, #19]	@ zero_extendqisi2
 3054 0038 5A1C     		adds	r2, r3, #1
 3055 003a FA74     		strb	r2, [r7, #19]
 3056 003c 1946     		mov	r1, r3
 3057 003e 7B69     		ldr	r3, [r7, #20]
 3058 0040 1B78     		ldrb	r3, [r3]	@ zero_extendqisi2
 3059 0042 DBB2     		uxtb	r3, r3
 3060 0044 03F00F03 		and	r3, r3, #15
 3061 0048 DBB2     		uxtb	r3, r3
 3062 004a 43F02003 		orr	r3, r3, #32
 3063 004e DBB2     		uxtb	r3, r3
 3064 0050 DAB2     		uxtb	r2, r3
 3065 0052 FB68     		ldr	r3, [r7, #12]
 3066 0054 0B44     		add	r3, r3, r1
 3067 0056 1A71     		strb	r2, [r3, #4]
 848:.\AdvantageImpl.c ****             puartdisp->_messagelength = 1;//One byte
 3068              		.loc 1 848 0
 3069 0058 FB68     		ldr	r3, [r7, #12]
 3070 005a 0122     		movs	r2, #1
 3071 005c 5A80     		strh	r2, [r3, #2]	@ movhi
 849:.\AdvantageImpl.c ****             puartdisp->_messagestate = PENDING;
 3072              		.loc 1 849 0
 3073 005e FB68     		ldr	r3, [r7, #12]
 3074 0060 C222     		movs	r2, #194
 3075 0062 1A70     		strb	r2, [r3]
 3076              	.L85:
 3077              	.LBE13:
 850:.\AdvantageImpl.c ****         }
 851:.\AdvantageImpl.c ****     }
 852:.\AdvantageImpl.c **** }
 3078              		.loc 1 852 0
 3079 0064 1837     		adds	r7, r7, #24
 3080              		.cfi_def_cfa_offset 8
 3081 0066 BD46     		mov	sp, r7
ARM GAS  C:\Users\RECEPC~1\AppData\Local\Temp\ccZZcwiB.s 			page 70


 3082              		.cfi_def_cfa_register 13
 3083              		@ sp needed
 3084 0068 80BD     		pop	{r7, pc}
 3085              		.cfi_endproc
 3086              	.LFE77:
 3087              		.size	PumpDataToPump, .-PumpDataToPump
 3088 006a 00BF     		.section	.text.PumpCreditPresetHose,"ax",%progbits
 3089              		.align	2
 3090              		.global	PumpCreditPresetHose
 3091              		.thumb
 3092              		.thumb_func
 3093              		.type	PumpCreditPresetHose, %function
 3094              	PumpCreditPresetHose:
 3095              	.LFB78:
 853:.\AdvantageImpl.c **** 
 854:.\AdvantageImpl.c **** 
 855:.\AdvantageImpl.c **** //@Created By: HIJH
 856:.\AdvantageImpl.c **** //@Septembre de 2016
 857:.\AdvantageImpl.c **** ///////////////////////////////////////////////////////////////////////////////////////////////////
 858:.\AdvantageImpl.c **** //This preset is a convention that applies to "Credit Transactions"
 859:.\AdvantageImpl.c **** //The pump will hold all the necessary information for the preset.
 860:.\AdvantageImpl.c **** //For this message the data comes as follows:
 861:.\AdvantageImpl.c **** void PumpCreditPresetHose(void *pparam)
 862:.\AdvantageImpl.c **** {
 3096              		.loc 1 862 0
 3097              		.cfi_startproc
 3098              		@ args = 0, pretend = 0, frame = 40
 3099              		@ frame_needed = 1, uses_anonymous_args = 0
 3100 0000 90B5     		push	{r4, r7, lr}
 3101              		.cfi_def_cfa_offset 12
 3102              		.cfi_offset 4, -12
 3103              		.cfi_offset 7, -8
 3104              		.cfi_offset 14, -4
 3105 0002 8BB0     		sub	sp, sp, #44
 3106              		.cfi_def_cfa_offset 56
 3107 0004 00AF     		add	r7, sp, #0
 3108              		.cfi_def_cfa_register 7
 3109 0006 7860     		str	r0, [r7, #4]
 863:.\AdvantageImpl.c ****     PNEAR_PUMPPTR ppump = (PNEAR_PUMPPTR)pparam;
 3110              		.loc 1 863 0
 3111 0008 7B68     		ldr	r3, [r7, #4]
 3112 000a 3B62     		str	r3, [r7, #32]
 864:.\AdvantageImpl.c ****     if(ppump)
 3113              		.loc 1 864 0
 3114 000c 3B6A     		ldr	r3, [r7, #32]
 3115 000e 002B     		cmp	r3, #0
 3116 0010 00F0C881 		beq	.L87
 3117              	.LBB14:
 865:.\AdvantageImpl.c ****     {
 866:.\AdvantageImpl.c ****         uint8_t index = 0;        
 3118              		.loc 1 866 0
 3119 0014 0023     		movs	r3, #0
 3120 0016 87F82730 		strb	r3, [r7, #39]
 867:.\AdvantageImpl.c ****         PUARTMESSAGEPTR puartdisp = GetUARTMessageSlot(UART_DISPENSER);
 3121              		.loc 1 867 0
 3122 001a A220     		movs	r0, #162
 3123 001c FFF7FEFF 		bl	GetUARTMessageSlot
ARM GAS  C:\Users\RECEPC~1\AppData\Local\Temp\ccZZcwiB.s 			page 71


 3124 0020 F861     		str	r0, [r7, #28]
 868:.\AdvantageImpl.c ****         memset(ppump->_rxbuffer, 0x00, _PUMP_RX_BUFFER_SIZE_);
 3125              		.loc 1 868 0
 3126 0022 3B6A     		ldr	r3, [r7, #32]
 3127 0024 03F5D073 		add	r3, r3, #416
 3128 0028 1846     		mov	r0, r3
 3129 002a 0021     		movs	r1, #0
 3130 002c 4FF4C072 		mov	r2, #384
 3131 0030 FFF7FEFF 		bl	memset
 869:.\AdvantageImpl.c ****         if(puartdisp)
 3132              		.loc 1 869 0
 3133 0034 FB69     		ldr	r3, [r7, #28]
 3134 0036 002B     		cmp	r3, #0
 3135 0038 00F0B481 		beq	.L87
 870:.\AdvantageImpl.c ****         {
 871:.\AdvantageImpl.c **** ///////////////////////////////////////////////////////////////////////////////////////////////////
 872:.\AdvantageImpl.c ****             puartdisp->_messagetx[index++] = SOM;
 3136              		.loc 1 872 0
 3137 003c 97F82730 		ldrb	r3, [r7, #39]	@ zero_extendqisi2
 3138 0040 5A1C     		adds	r2, r3, #1
 3139 0042 87F82720 		strb	r2, [r7, #39]
 3140 0046 1A46     		mov	r2, r3
 3141 0048 FB69     		ldr	r3, [r7, #28]
 3142 004a 1344     		add	r3, r3, r2
 3143 004c FF22     		movs	r2, #255
 3144 004e 1A71     		strb	r2, [r3, #4]
 873:.\AdvantageImpl.c ****             if(_g_dispenserlayoutinfo._displaydigitsmode == 0x06)
 3145              		.loc 1 873 0
 3146 0050 AC4B     		ldr	r3, .L110
 3147 0052 1B7C     		ldrb	r3, [r3, #16]	@ zero_extendqisi2
 3148 0054 062B     		cmp	r3, #6
 3149 0056 40F0D580 		bne	.L89
 3150              	.LBB15:
 874:.\AdvantageImpl.c ****             {
 875:.\AdvantageImpl.c ****                 uint8 transtype = ((0xF0 | ppump->_authorizationinfo._presettype) == 0xF1)? 0xF2: 0
 3151              		.loc 1 875 0
 3152 005a 3B6A     		ldr	r3, [r7, #32]
 3153 005c 93F8A139 		ldrb	r3, [r3, #2465]
 3154 0060 DBB2     		uxtb	r3, r3
 3155 0062 63F00F03 		orn	r3, r3, #15
 3156 0066 DBB2     		uxtb	r3, r3
 3157 0068 F12B     		cmp	r3, #241
 3158 006a 01D1     		bne	.L90
 3159              		.loc 1 875 0 is_stmt 0 discriminator 1
 3160 006c F223     		movs	r3, #242
 3161 006e 00E0     		b	.L91
 3162              	.L90:
 3163              		.loc 1 875 0 discriminator 2
 3164 0070 F123     		movs	r3, #241
 3165              	.L91:
 3166              		.loc 1 875 0 discriminator 4
 3167 0072 FB76     		strb	r3, [r7, #27]
 876:.\AdvantageImpl.c ****                 if(transtype == 0xF1)
 3168              		.loc 1 876 0 is_stmt 1 discriminator 4
 3169 0074 FB7E     		ldrb	r3, [r7, #27]	@ zero_extendqisi2
 3170 0076 F12B     		cmp	r3, #241
 3171 0078 0AD1     		bne	.L92
ARM GAS  C:\Users\RECEPC~1\AppData\Local\Temp\ccZZcwiB.s 			page 72


 877:.\AdvantageImpl.c ****                     puartdisp->_messagetx[index++] = 0xE3;
 3172              		.loc 1 877 0
 3173 007a 97F82730 		ldrb	r3, [r7, #39]	@ zero_extendqisi2
 3174 007e 5A1C     		adds	r2, r3, #1
 3175 0080 87F82720 		strb	r2, [r7, #39]
 3176 0084 1A46     		mov	r2, r3
 3177 0086 FB69     		ldr	r3, [r7, #28]
 3178 0088 1344     		add	r3, r3, r2
 3179 008a E322     		movs	r2, #227
 3180 008c 1A71     		strb	r2, [r3, #4]
 3181 008e 09E0     		b	.L93
 3182              	.L92:
 878:.\AdvantageImpl.c ****                 else
 879:.\AdvantageImpl.c ****                     puartdisp->_messagetx[index++] = 0xE2;
 3183              		.loc 1 879 0
 3184 0090 97F82730 		ldrb	r3, [r7, #39]	@ zero_extendqisi2
 3185 0094 5A1C     		adds	r2, r3, #1
 3186 0096 87F82720 		strb	r2, [r7, #39]
 3187 009a 1A46     		mov	r2, r3
 3188 009c FB69     		ldr	r3, [r7, #28]
 3189 009e 1344     		add	r3, r3, r2
 3190 00a0 E222     		movs	r2, #226
 3191 00a2 1A71     		strb	r2, [r3, #4]
 3192              	.L93:
 880:.\AdvantageImpl.c ****                     
 881:.\AdvantageImpl.c ****                 ///THIS IS AN APPLIED CONVENTION ===>> 0x0004 INDEX POSITION WITHIN THE PUMP'S BUFF
 882:.\AdvantageImpl.c ****                 ///THESE CODES MUST BE MATCHED OTHERWISE THE LOGIC WILL BREAKUP THE CODE!
 883:.\AdvantageImpl.c ****                 puartdisp->_messagetx[index++] = transtype;
 3193              		.loc 1 883 0
 3194 00a4 97F82730 		ldrb	r3, [r7, #39]	@ zero_extendqisi2
 3195 00a8 5A1C     		adds	r2, r3, #1
 3196 00aa 87F82720 		strb	r2, [r7, #39]
 3197 00ae 1A46     		mov	r2, r3
 3198 00b0 FB69     		ldr	r3, [r7, #28]
 3199 00b2 1344     		add	r3, r3, r2
 3200 00b4 FA7E     		ldrb	r2, [r7, #27]
 3201 00b6 1A71     		strb	r2, [r3, #4]
 884:.\AdvantageImpl.c ****                 puartdisp->_messagetx[index++] = 0xF4;
 3202              		.loc 1 884 0
 3203 00b8 97F82730 		ldrb	r3, [r7, #39]	@ zero_extendqisi2
 3204 00bc 5A1C     		adds	r2, r3, #1
 3205 00be 87F82720 		strb	r2, [r7, #39]
 3206 00c2 1A46     		mov	r2, r3
 3207 00c4 FB69     		ldr	r3, [r7, #28]
 3208 00c6 1344     		add	r3, r3, r2
 3209 00c8 F422     		movs	r2, #244
 3210 00ca 1A71     		strb	r2, [r3, #4]
 885:.\AdvantageImpl.c ****                 puartdisp->_messagetx[index++] = 0xF6; //Hose Data next
 3211              		.loc 1 885 0
 3212 00cc 97F82730 		ldrb	r3, [r7, #39]	@ zero_extendqisi2
 3213 00d0 5A1C     		adds	r2, r3, #1
 3214 00d2 87F82720 		strb	r2, [r7, #39]
 3215 00d6 1A46     		mov	r2, r3
 3216 00d8 FB69     		ldr	r3, [r7, #28]
 3217 00da 1344     		add	r3, r3, r2
 3218 00dc F622     		movs	r2, #246
 3219 00de 1A71     		strb	r2, [r3, #4]
ARM GAS  C:\Users\RECEPC~1\AppData\Local\Temp\ccZZcwiB.s 			page 73


 886:.\AdvantageImpl.c ****                 ///THIS IS AN APPLIED CONVENTION ===>> 0x0006 INDEX POSITION WITHIN THE PUMP'S BUFF
 887:.\AdvantageImpl.c ****                 ///THESE CODES MUST BE MATCHED OTHERWISE THE LOGIC WILL BREAKUP THE CODE!
 888:.\AdvantageImpl.c ****                 puartdisp->_messagetx[index++] = (0xE0 | (ppump->_authorizationinfo._hoseid & 0x0F)
 3220              		.loc 1 888 0
 3221 00e0 97F82730 		ldrb	r3, [r7, #39]	@ zero_extendqisi2
 3222 00e4 5A1C     		adds	r2, r3, #1
 3223 00e6 87F82720 		strb	r2, [r7, #39]
 3224 00ea 1946     		mov	r1, r3
 3225 00ec 3B6A     		ldr	r3, [r7, #32]
 3226 00ee 93F8A239 		ldrb	r3, [r3, #2466]
 3227 00f2 DBB2     		uxtb	r3, r3
 3228 00f4 DBB2     		uxtb	r3, r3
 3229 00f6 03F00F03 		and	r3, r3, #15
 3230 00fa DBB2     		uxtb	r3, r3
 3231 00fc 63F01F03 		orn	r3, r3, #31
 3232 0100 DBB2     		uxtb	r3, r3
 3233 0102 DAB2     		uxtb	r2, r3
 3234 0104 FB69     		ldr	r3, [r7, #28]
 3235 0106 0B44     		add	r3, r3, r1
 3236 0108 1A71     		strb	r2, [r3, #4]
 889:.\AdvantageImpl.c ****                 
 890:.\AdvantageImpl.c ****                 puartdisp->_messagetx[index++] = 0xF8; //Preset Data next
 3237              		.loc 1 890 0
 3238 010a 97F82730 		ldrb	r3, [r7, #39]	@ zero_extendqisi2
 3239 010e 5A1C     		adds	r2, r3, #1
 3240 0110 87F82720 		strb	r2, [r7, #39]
 3241 0114 1A46     		mov	r2, r3
 3242 0116 FB69     		ldr	r3, [r7, #28]
 3243 0118 1344     		add	r3, r3, r2
 3244 011a F822     		movs	r2, #248
 3245 011c 1A71     		strb	r2, [r3, #4]
 891:.\AdvantageImpl.c ****                 //Here we copy the remaining 8 bytes for the preset value
 892:.\AdvantageImpl.c ****                 ///THIS IS AN APPLIED CONVENTION ===>> 0x0008 INDEX POSITION WITHIN THE PUMP'S BUFF
 893:.\AdvantageImpl.c ****                 ///THESE CODES MUST BE MATCHED OTHERWISE THE LOGIC WILL BREAKUP THE CODE!
 894:.\AdvantageImpl.c ****                 memset(PBYTECAST(&ppump->_trasactionbuffer[0x0008]),0x00, 0x0008);
 3246              		.loc 1 894 0
 3247 011e 3B6A     		ldr	r3, [r7, #32]
 3248 0120 2833     		adds	r3, r3, #40
 3249 0122 1846     		mov	r0, r3
 3250 0124 0021     		movs	r1, #0
 3251 0126 0822     		movs	r2, #8
 3252 0128 FFF7FEFF 		bl	memset
 895:.\AdvantageImpl.c ****                 B78AD90CF552D9B30A(ppump->_authorizationinfo._presetamount, PBYTECAST(&ppump->_tras
 3253              		.loc 1 895 0
 3254 012c 3B6A     		ldr	r3, [r7, #32]
 3255 012e D3F8A839 		ldr	r3, [r3, #2472]
 3256 0132 1A46     		mov	r2, r3
 3257 0134 4FF00003 		mov	r3, #0
 3258 0138 396A     		ldr	r1, [r7, #32]
 3259 013a 01F12804 		add	r4, r1, #40
 3260 013e 1046     		mov	r0, r2
 3261 0140 1946     		mov	r1, r3
 3262 0142 2246     		mov	r2, r4
 3263 0144 FFF7FEFF 		bl	B78AD90CF552D9B30A
 896:.\AdvantageImpl.c ****                 char8 *ptr = &ppump->_trasactionbuffer[0x0008];
 3264              		.loc 1 896 0
 3265 0148 3B6A     		ldr	r3, [r7, #32]
ARM GAS  C:\Users\RECEPC~1\AppData\Local\Temp\ccZZcwiB.s 			page 74


 3266 014a 2833     		adds	r3, r3, #40
 3267 014c 7B61     		str	r3, [r7, #20]
 897:.\AdvantageImpl.c ****                 if(transtype == 0xF1) //Volume PRESET, then multiply by 1000
 3268              		.loc 1 897 0
 3269 014e FB7E     		ldrb	r3, [r7, #27]	@ zero_extendqisi2
 3270 0150 F12B     		cmp	r3, #241
 3271 0152 27D1     		bne	.L94
 3272              	.LBB16:
 898:.\AdvantageImpl.c ****                 {
 899:.\AdvantageImpl.c ****                     CastVolumeValue(ptr, 0x08);
 3273              		.loc 1 899 0
 3274 0154 7869     		ldr	r0, [r7, #20]
 3275 0156 0821     		movs	r1, #8
 3276 0158 FFF7FEFF 		bl	CastVolumeValue
 900:.\AdvantageImpl.c ****                     
 901:.\AdvantageImpl.c ****                     FOR(uint8 buffndx = 0, buffndx < 0x05, buffndx++)
 3277              		.loc 1 901 0
 3278 015c 0023     		movs	r3, #0
 3279 015e 87F82630 		strb	r3, [r7, #38]
 3280 0162 1AE0     		b	.L95
 3281              	.L96:
 902:.\AdvantageImpl.c ****                         puartdisp->_messagetx[index++] = (0xE0 | (ptr[buffndx] & 0x0F)); //Translat
 3282              		.loc 1 902 0 discriminator 3
 3283 0164 97F82730 		ldrb	r3, [r7, #39]	@ zero_extendqisi2
 3284 0168 5A1C     		adds	r2, r3, #1
 3285 016a 87F82720 		strb	r2, [r7, #39]
 3286 016e 1946     		mov	r1, r3
 3287 0170 97F82630 		ldrb	r3, [r7, #38]	@ zero_extendqisi2
 3288 0174 7A69     		ldr	r2, [r7, #20]
 3289 0176 1344     		add	r3, r3, r2
 3290 0178 1B78     		ldrb	r3, [r3]	@ zero_extendqisi2
 3291 017a DBB2     		uxtb	r3, r3
 3292 017c 03F00F03 		and	r3, r3, #15
 3293 0180 DBB2     		uxtb	r3, r3
 3294 0182 63F01F03 		orn	r3, r3, #31
 3295 0186 DBB2     		uxtb	r3, r3
 3296 0188 DAB2     		uxtb	r2, r3
 3297 018a FB69     		ldr	r3, [r7, #28]
 3298 018c 0B44     		add	r3, r3, r1
 3299 018e 1A71     		strb	r2, [r3, #4]
 901:.\AdvantageImpl.c ****                         puartdisp->_messagetx[index++] = (0xE0 | (ptr[buffndx] & 0x0F)); //Translat
 3300              		.loc 1 901 0 discriminator 3
 3301 0190 97F82630 		ldrb	r3, [r7, #38]	@ zero_extendqisi2
 3302 0194 0133     		adds	r3, r3, #1
 3303 0196 87F82630 		strb	r3, [r7, #38]
 3304              	.L95:
 901:.\AdvantageImpl.c ****                         puartdisp->_messagetx[index++] = (0xE0 | (ptr[buffndx] & 0x0F)); //Translat
 3305              		.loc 1 901 0 is_stmt 0 discriminator 1
 3306 019a 97F82630 		ldrb	r3, [r7, #38]	@ zero_extendqisi2
 3307 019e 042B     		cmp	r3, #4
 3308 01a0 E0D9     		bls	.L96
 3309              	.LBE16:
 3310 01a2 2EE0     		b	.L97
 3311              	.L94:
 3312              	.LBB17:
 903:.\AdvantageImpl.c ****                 }
 904:.\AdvantageImpl.c ****                 else
ARM GAS  C:\Users\RECEPC~1\AppData\Local\Temp\ccZZcwiB.s 			page 75


 905:.\AdvantageImpl.c ****                 {
 906:.\AdvantageImpl.c ****                     if(!(_g_dispenserlayoutinfo._moneydecimals == 0x03 && _g_dispenserlayoutinfo._p
 3313              		.loc 1 906 0 is_stmt 1
 3314 01a4 574B     		ldr	r3, .L110
 3315 01a6 DB79     		ldrb	r3, [r3, #7]	@ zero_extendqisi2
 3316 01a8 032B     		cmp	r3, #3
 3317 01aa 03D1     		bne	.L98
 3318              		.loc 1 906 0 is_stmt 0 discriminator 1
 3319 01ac 554B     		ldr	r3, .L110
 3320 01ae 1B7A     		ldrb	r3, [r3, #8]	@ zero_extendqisi2
 3321 01b0 022B     		cmp	r3, #2
 3322 01b2 03D0     		beq	.L99
 3323              	.L98:
 907:.\AdvantageImpl.c ****                         CastMoneyValue(ptr, 0x08);
 3324              		.loc 1 907 0 is_stmt 1
 3325 01b4 7869     		ldr	r0, [r7, #20]
 3326 01b6 0821     		movs	r1, #8
 3327 01b8 FFF7FEFF 		bl	CastMoneyValue
 3328              	.L99:
 908:.\AdvantageImpl.c ****                     
 909:.\AdvantageImpl.c ****                     FOR(uint8 buffndx = 0, buffndx < 0x06, buffndx++)
 3329              		.loc 1 909 0
 3330 01bc 0023     		movs	r3, #0
 3331 01be 87F82530 		strb	r3, [r7, #37]
 3332 01c2 1AE0     		b	.L100
 3333              	.L101:
 910:.\AdvantageImpl.c ****                         puartdisp->_messagetx[index++] = (0xE0 | (ptr[buffndx] & 0x0F)); //Translat
 3334              		.loc 1 910 0 discriminator 3
 3335 01c4 97F82730 		ldrb	r3, [r7, #39]	@ zero_extendqisi2
 3336 01c8 5A1C     		adds	r2, r3, #1
 3337 01ca 87F82720 		strb	r2, [r7, #39]
 3338 01ce 1946     		mov	r1, r3
 3339 01d0 97F82530 		ldrb	r3, [r7, #37]	@ zero_extendqisi2
 3340 01d4 7A69     		ldr	r2, [r7, #20]
 3341 01d6 1344     		add	r3, r3, r2
 3342 01d8 1B78     		ldrb	r3, [r3]	@ zero_extendqisi2
 3343 01da DBB2     		uxtb	r3, r3
 3344 01dc 03F00F03 		and	r3, r3, #15
 3345 01e0 DBB2     		uxtb	r3, r3
 3346 01e2 63F01F03 		orn	r3, r3, #31
 3347 01e6 DBB2     		uxtb	r3, r3
 3348 01e8 DAB2     		uxtb	r2, r3
 3349 01ea FB69     		ldr	r3, [r7, #28]
 3350 01ec 0B44     		add	r3, r3, r1
 3351 01ee 1A71     		strb	r2, [r3, #4]
 909:.\AdvantageImpl.c ****                         puartdisp->_messagetx[index++] = (0xE0 | (ptr[buffndx] & 0x0F)); //Translat
 3352              		.loc 1 909 0 discriminator 3
 3353 01f0 97F82530 		ldrb	r3, [r7, #37]	@ zero_extendqisi2
 3354 01f4 0133     		adds	r3, r3, #1
 3355 01f6 87F82530 		strb	r3, [r7, #37]
 3356              	.L100:
 909:.\AdvantageImpl.c ****                         puartdisp->_messagetx[index++] = (0xE0 | (ptr[buffndx] & 0x0F)); //Translat
 3357              		.loc 1 909 0 is_stmt 0 discriminator 1
 3358 01fa 97F82530 		ldrb	r3, [r7, #37]	@ zero_extendqisi2
 3359 01fe 052B     		cmp	r3, #5
 3360 0200 E0D9     		bls	.L101
 3361              	.L97:
ARM GAS  C:\Users\RECEPC~1\AppData\Local\Temp\ccZZcwiB.s 			page 76


 3362              	.LBE17:
 3363              	.LBE15:
 3364 0202 A0E0     		b	.L102
 3365              	.L89:
 911:.\AdvantageImpl.c ****                 }
 912:.\AdvantageImpl.c ****             }
 913:.\AdvantageImpl.c ****             else if(_g_dispenserlayoutinfo._displaydigitsmode == 0x07)
 3366              		.loc 1 913 0 is_stmt 1
 3367 0204 3F4B     		ldr	r3, .L110
 3368 0206 1B7C     		ldrb	r3, [r3, #16]	@ zero_extendqisi2
 3369 0208 072B     		cmp	r3, #7
 3370 020a 40F09C80 		bne	.L102
 3371              	.LBB18:
 914:.\AdvantageImpl.c ****             {
 915:.\AdvantageImpl.c ****                 puartdisp->_messagetx[index++] = 0xE1;
 3372              		.loc 1 915 0
 3373 020e 97F82730 		ldrb	r3, [r7, #39]	@ zero_extendqisi2
 3374 0212 5A1C     		adds	r2, r3, #1
 3375 0214 87F82720 		strb	r2, [r7, #39]
 3376 0218 1A46     		mov	r2, r3
 3377 021a FB69     		ldr	r3, [r7, #28]
 3378 021c 1344     		add	r3, r3, r2
 3379 021e E122     		movs	r2, #225
 3380 0220 1A71     		strb	r2, [r3, #4]
 916:.\AdvantageImpl.c ****                     
 917:.\AdvantageImpl.c ****                 ///THIS IS AN APPLIED CONVENTION ===>> 0x0004 INDEX POSITION WITHIN THE PUMP'S BUFF
 918:.\AdvantageImpl.c ****                 ///THESE CODES MUST BE MATCHED OTHERWISE THE LOGIC WILL BREAKUP THE CODE!
 919:.\AdvantageImpl.c ****                 uint8 transtype = ((0xF0 | ppump->_authorizationinfo._presettype) == 0xF1)? 0xF2: 0
 3381              		.loc 1 919 0
 3382 0222 3B6A     		ldr	r3, [r7, #32]
 3383 0224 93F8A139 		ldrb	r3, [r3, #2465]
 3384 0228 DBB2     		uxtb	r3, r3
 3385 022a 63F00F03 		orn	r3, r3, #15
 3386 022e DBB2     		uxtb	r3, r3
 3387 0230 F12B     		cmp	r3, #241
 3388 0232 01D1     		bne	.L103
 3389              		.loc 1 919 0 is_stmt 0 discriminator 1
 3390 0234 F223     		movs	r3, #242
 3391 0236 00E0     		b	.L104
 3392              	.L103:
 3393              		.loc 1 919 0 discriminator 2
 3394 0238 F123     		movs	r3, #241
 3395              	.L104:
 3396              		.loc 1 919 0 discriminator 4
 3397 023a FB74     		strb	r3, [r7, #19]
 920:.\AdvantageImpl.c ****                 puartdisp->_messagetx[index++] = transtype;
 3398              		.loc 1 920 0 is_stmt 1 discriminator 4
 3399 023c 97F82730 		ldrb	r3, [r7, #39]	@ zero_extendqisi2
 3400 0240 5A1C     		adds	r2, r3, #1
 3401 0242 87F82720 		strb	r2, [r7, #39]
 3402 0246 1A46     		mov	r2, r3
 3403 0248 FB69     		ldr	r3, [r7, #28]
 3404 024a 1344     		add	r3, r3, r2
 3405 024c FA7C     		ldrb	r2, [r7, #19]
 3406 024e 1A71     		strb	r2, [r3, #4]
 921:.\AdvantageImpl.c **** 
 922:.\AdvantageImpl.c ****                 puartdisp->_messagetx[index++] = 0xF6; //Hose Data next
ARM GAS  C:\Users\RECEPC~1\AppData\Local\Temp\ccZZcwiB.s 			page 77


 3407              		.loc 1 922 0 discriminator 4
 3408 0250 97F82730 		ldrb	r3, [r7, #39]	@ zero_extendqisi2
 3409 0254 5A1C     		adds	r2, r3, #1
 3410 0256 87F82720 		strb	r2, [r7, #39]
 3411 025a 1A46     		mov	r2, r3
 3412 025c FB69     		ldr	r3, [r7, #28]
 3413 025e 1344     		add	r3, r3, r2
 3414 0260 F622     		movs	r2, #246
 3415 0262 1A71     		strb	r2, [r3, #4]
 923:.\AdvantageImpl.c ****                 ///THIS IS AN APPLIED CONVENTION ===>> 0x0006 INDEX POSITION WITHIN THE PUMP'S BUFF
 924:.\AdvantageImpl.c ****                 ///THESE CODES MUST BE MATCHED OTHERWISE THE LOGIC WILL BREAKUP THE CODE!
 925:.\AdvantageImpl.c ****                 puartdisp->_messagetx[index++] = (0xE0 | (ppump->_authorizationinfo._hoseid & 0x0F)
 3416              		.loc 1 925 0 discriminator 4
 3417 0264 97F82730 		ldrb	r3, [r7, #39]	@ zero_extendqisi2
 3418 0268 5A1C     		adds	r2, r3, #1
 3419 026a 87F82720 		strb	r2, [r7, #39]
 3420 026e 1946     		mov	r1, r3
 3421 0270 3B6A     		ldr	r3, [r7, #32]
 3422 0272 93F8A239 		ldrb	r3, [r3, #2466]
 3423 0276 DBB2     		uxtb	r3, r3
 3424 0278 DBB2     		uxtb	r3, r3
 3425 027a 03F00F03 		and	r3, r3, #15
 3426 027e DBB2     		uxtb	r3, r3
 3427 0280 63F01F03 		orn	r3, r3, #31
 3428 0284 DBB2     		uxtb	r3, r3
 3429 0286 DAB2     		uxtb	r2, r3
 3430 0288 FB69     		ldr	r3, [r7, #28]
 3431 028a 0B44     		add	r3, r3, r1
 3432 028c 1A71     		strb	r2, [r3, #4]
 926:.\AdvantageImpl.c ****                 
 927:.\AdvantageImpl.c ****                 puartdisp->_messagetx[index++] = 0xF8; //Preset Data next
 3433              		.loc 1 927 0 discriminator 4
 3434 028e 97F82730 		ldrb	r3, [r7, #39]	@ zero_extendqisi2
 3435 0292 5A1C     		adds	r2, r3, #1
 3436 0294 87F82720 		strb	r2, [r7, #39]
 3437 0298 1A46     		mov	r2, r3
 3438 029a FB69     		ldr	r3, [r7, #28]
 3439 029c 1344     		add	r3, r3, r2
 3440 029e F822     		movs	r2, #248
 3441 02a0 1A71     		strb	r2, [r3, #4]
 928:.\AdvantageImpl.c ****                 //Here we copy the remaining 8 bytes for the preset value
 929:.\AdvantageImpl.c ****                 ///THIS IS AN APPLIED CONVENTION ===>> 0x0008 INDEX POSITION WITHIN THE PUMP'S BUFF
 930:.\AdvantageImpl.c ****                 ///THESE CODES MUST BE MATCHED OTHERWISE THE LOGIC WILL BREAKUP THE CODE!
 931:.\AdvantageImpl.c ****                 memset(PBYTECAST(&ppump->_trasactionbuffer[0x0008]),0x00, 0x0008);
 3442              		.loc 1 931 0 discriminator 4
 3443 02a2 3B6A     		ldr	r3, [r7, #32]
 3444 02a4 2833     		adds	r3, r3, #40
 3445 02a6 1846     		mov	r0, r3
 3446 02a8 0021     		movs	r1, #0
 3447 02aa 0822     		movs	r2, #8
 3448 02ac FFF7FEFF 		bl	memset
 932:.\AdvantageImpl.c ****                 B78AD90CF552D9B30A(ppump->_authorizationinfo._presetamount, PBYTECAST(&ppump->_tras
 3449              		.loc 1 932 0 discriminator 4
 3450 02b0 3B6A     		ldr	r3, [r7, #32]
 3451 02b2 D3F8A839 		ldr	r3, [r3, #2472]
 3452 02b6 1A46     		mov	r2, r3
 3453 02b8 4FF00003 		mov	r3, #0
ARM GAS  C:\Users\RECEPC~1\AppData\Local\Temp\ccZZcwiB.s 			page 78


 3454 02bc 396A     		ldr	r1, [r7, #32]
 3455 02be 01F12804 		add	r4, r1, #40
 3456 02c2 1046     		mov	r0, r2
 3457 02c4 1946     		mov	r1, r3
 3458 02c6 2246     		mov	r2, r4
 3459 02c8 FFF7FEFF 		bl	B78AD90CF552D9B30A
 933:.\AdvantageImpl.c ****                 char8 *ptr = &ppump->_trasactionbuffer[0x0008];
 3460              		.loc 1 933 0 discriminator 4
 3461 02cc 3B6A     		ldr	r3, [r7, #32]
 3462 02ce 2833     		adds	r3, r3, #40
 3463 02d0 FB60     		str	r3, [r7, #12]
 934:.\AdvantageImpl.c ****                 if(transtype == 0xF1) //Volume PRESET, then multiply by 1000
 3464              		.loc 1 934 0 discriminator 4
 3465 02d2 FB7C     		ldrb	r3, [r7, #19]	@ zero_extendqisi2
 3466 02d4 F12B     		cmp	r3, #241
 3467 02d6 04D1     		bne	.L105
 935:.\AdvantageImpl.c ****                     CastVolumeValue(ptr, 0x08);
 3468              		.loc 1 935 0
 3469 02d8 F868     		ldr	r0, [r7, #12]
 3470 02da 0821     		movs	r1, #8
 3471 02dc FFF7FEFF 		bl	CastVolumeValue
 3472 02e0 0BE0     		b	.L106
 3473              	.L105:
 936:.\AdvantageImpl.c ****                 else if(!(_g_dispenserlayoutinfo._moneydecimals == 0x03 && _g_dispenserlayoutinfo._
 3474              		.loc 1 936 0
 3475 02e2 084B     		ldr	r3, .L110
 3476 02e4 DB79     		ldrb	r3, [r3, #7]	@ zero_extendqisi2
 3477 02e6 032B     		cmp	r3, #3
 3478 02e8 03D1     		bne	.L107
 3479              		.loc 1 936 0 is_stmt 0 discriminator 1
 3480 02ea 064B     		ldr	r3, .L110
 3481 02ec 1B7A     		ldrb	r3, [r3, #8]	@ zero_extendqisi2
 3482 02ee 022B     		cmp	r3, #2
 3483 02f0 03D0     		beq	.L106
 3484              	.L107:
 937:.\AdvantageImpl.c ****                     CastMoneyValue(ptr, 0x08);
 3485              		.loc 1 937 0 is_stmt 1
 3486 02f2 F868     		ldr	r0, [r7, #12]
 3487 02f4 0821     		movs	r1, #8
 3488 02f6 FFF7FEFF 		bl	CastMoneyValue
 3489              	.L106:
 938:.\AdvantageImpl.c ****                     
 939:.\AdvantageImpl.c ****                 FOR(uint8 buffndx = 0, buffndx < 0x08, buffndx++)
 3490              		.loc 1 939 0
 3491 02fa 0023     		movs	r3, #0
 3492 02fc 87F82430 		strb	r3, [r7, #36]
 3493 0300 1DE0     		b	.L108
 3494              	.L111:
 3495 0302 00BF     		.align	2
 3496              	.L110:
 3497 0304 00000000 		.word	_g_dispenserlayoutinfo
 3498              	.L109:
 940:.\AdvantageImpl.c ****                     puartdisp->_messagetx[index++] = (0xE0 | (ptr[buffndx] & 0x0F)); //Translate fr
 3499              		.loc 1 940 0 discriminator 3
 3500 0308 97F82730 		ldrb	r3, [r7, #39]	@ zero_extendqisi2
 3501 030c 5A1C     		adds	r2, r3, #1
 3502 030e 87F82720 		strb	r2, [r7, #39]
ARM GAS  C:\Users\RECEPC~1\AppData\Local\Temp\ccZZcwiB.s 			page 79


 3503 0312 1946     		mov	r1, r3
 3504 0314 97F82430 		ldrb	r3, [r7, #36]	@ zero_extendqisi2
 3505 0318 FA68     		ldr	r2, [r7, #12]
 3506 031a 1344     		add	r3, r3, r2
 3507 031c 1B78     		ldrb	r3, [r3]	@ zero_extendqisi2
 3508 031e DBB2     		uxtb	r3, r3
 3509 0320 03F00F03 		and	r3, r3, #15
 3510 0324 DBB2     		uxtb	r3, r3
 3511 0326 63F01F03 		orn	r3, r3, #31
 3512 032a DBB2     		uxtb	r3, r3
 3513 032c DAB2     		uxtb	r2, r3
 3514 032e FB69     		ldr	r3, [r7, #28]
 3515 0330 0B44     		add	r3, r3, r1
 3516 0332 1A71     		strb	r2, [r3, #4]
 939:.\AdvantageImpl.c ****                     puartdisp->_messagetx[index++] = (0xE0 | (ptr[buffndx] & 0x0F)); //Translate fr
 3517              		.loc 1 939 0 discriminator 3
 3518 0334 97F82430 		ldrb	r3, [r7, #36]	@ zero_extendqisi2
 3519 0338 0133     		adds	r3, r3, #1
 3520 033a 87F82430 		strb	r3, [r7, #36]
 3521              	.L108:
 939:.\AdvantageImpl.c ****                     puartdisp->_messagetx[index++] = (0xE0 | (ptr[buffndx] & 0x0F)); //Translate fr
 3522              		.loc 1 939 0 is_stmt 0 discriminator 1
 3523 033e 97F82430 		ldrb	r3, [r7, #36]	@ zero_extendqisi2
 3524 0342 072B     		cmp	r3, #7
 3525 0344 E0D9     		bls	.L109
 3526              	.L102:
 3527              	.LBE18:
 941:.\AdvantageImpl.c ****             }
 942:.\AdvantageImpl.c ****             ppump->_presetdone = true;
 3528              		.loc 1 942 0 is_stmt 1
 3529 0346 3B6A     		ldr	r3, [r7, #32]
 3530 0348 0122     		movs	r2, #1
 3531 034a 1A72     		strb	r2, [r3, #8]
 943:.\AdvantageImpl.c ****             
 944:.\AdvantageImpl.c ****             puartdisp->_messagetx[index++] = LRCn; //LRC next
 3532              		.loc 1 944 0
 3533 034c 97F82730 		ldrb	r3, [r7, #39]	@ zero_extendqisi2
 3534 0350 5A1C     		adds	r2, r3, #1
 3535 0352 87F82720 		strb	r2, [r7, #39]
 3536 0356 1A46     		mov	r2, r3
 3537 0358 FB69     		ldr	r3, [r7, #28]
 3538 035a 1344     		add	r3, r3, r2
 3539 035c FB22     		movs	r2, #251
 3540 035e 1A71     		strb	r2, [r3, #4]
 945:.\AdvantageImpl.c ****             puartdisp->_messagetx[index++] = GetLRC(puartdisp->_messagetx);
 3541              		.loc 1 945 0
 3542 0360 97F82730 		ldrb	r3, [r7, #39]	@ zero_extendqisi2
 3543 0364 5A1C     		adds	r2, r3, #1
 3544 0366 87F82720 		strb	r2, [r7, #39]
 3545 036a 1C46     		mov	r4, r3
 3546 036c FB69     		ldr	r3, [r7, #28]
 3547 036e 0433     		adds	r3, r3, #4
 3548 0370 1846     		mov	r0, r3
 3549 0372 FFF7FEFF 		bl	GetLRC
 3550 0376 0346     		mov	r3, r0
 3551 0378 1A46     		mov	r2, r3
 3552 037a FB69     		ldr	r3, [r7, #28]
ARM GAS  C:\Users\RECEPC~1\AppData\Local\Temp\ccZZcwiB.s 			page 80


 3553 037c 2344     		add	r3, r3, r4
 3554 037e 1A71     		strb	r2, [r3, #4]
 946:.\AdvantageImpl.c ****             puartdisp->_messagetx[index++] = EOM;
 3555              		.loc 1 946 0
 3556 0380 97F82730 		ldrb	r3, [r7, #39]	@ zero_extendqisi2
 3557 0384 5A1C     		adds	r2, r3, #1
 3558 0386 87F82720 		strb	r2, [r7, #39]
 3559 038a 1A46     		mov	r2, r3
 3560 038c FB69     		ldr	r3, [r7, #28]
 3561 038e 1344     		add	r3, r3, r2
 3562 0390 F022     		movs	r2, #240
 3563 0392 1A71     		strb	r2, [r3, #4]
 947:.\AdvantageImpl.c **** ///////////////////////////////////////////////////////////////////////////////////////////////////
 948:.\AdvantageImpl.c ****             
 949:.\AdvantageImpl.c ****             puartdisp->_messagelength = index;
 3564              		.loc 1 949 0
 3565 0394 97F82730 		ldrb	r3, [r7, #39]	@ zero_extendqisi2
 3566 0398 9AB2     		uxth	r2, r3
 3567 039a FB69     		ldr	r3, [r7, #28]
 3568 039c 5A80     		strh	r2, [r3, #2]	@ movhi
 950:.\AdvantageImpl.c ****             puartdisp->_messagestate = PENDING;
 3569              		.loc 1 950 0
 3570 039e FB69     		ldr	r3, [r7, #28]
 3571 03a0 C222     		movs	r2, #194
 3572 03a2 1A70     		strb	r2, [r3]
 3573              	.L87:
 3574              	.LBE14:
 951:.\AdvantageImpl.c ****         }
 952:.\AdvantageImpl.c ****     }
 953:.\AdvantageImpl.c ****     
 954:.\AdvantageImpl.c **** }
 3575              		.loc 1 954 0
 3576 03a4 2C37     		adds	r7, r7, #44
 3577              		.cfi_def_cfa_offset 12
 3578 03a6 BD46     		mov	sp, r7
 3579              		.cfi_def_cfa_register 13
 3580              		@ sp needed
 3581 03a8 90BD     		pop	{r4, r7, pc}
 3582              		.cfi_endproc
 3583              	.LFE78:
 3584              		.size	PumpCreditPresetHose, .-PumpCreditPresetHose
 3585 03aa 00BF     		.section	.text.PumpPresetHose,"ax",%progbits
 3586              		.align	2
 3587              		.global	PumpPresetHose
 3588              		.thumb
 3589              		.thumb_func
 3590              		.type	PumpPresetHose, %function
 3591              	PumpPresetHose:
 3592              	.LFB79:
 955:.\AdvantageImpl.c **** 
 956:.\AdvantageImpl.c **** //@Created By: HIJH
 957:.\AdvantageImpl.c **** //@Septembre de 2016
 958:.\AdvantageImpl.c **** ///////////////////////////////////////////////////////////////////////////////////////////////////
 959:.\AdvantageImpl.c **** //Preset values will be placed within the SinkMessage's buffer. This is a convention that applies t
 960:.\AdvantageImpl.c **** //all of the available transactions. The pump function must deal with this while it is assembling t
 961:.\AdvantageImpl.c **** //For this message the data comes as follows:
 962:.\AdvantageImpl.c **** // - First byte is the preset type (Volume:1 / Money:2 )
ARM GAS  C:\Users\RECEPC~1\AppData\Local\Temp\ccZZcwiB.s 			page 81


 963:.\AdvantageImpl.c **** // - Second byte is the Hose (A:0, B:1, C:2, D:3)
 964:.\AdvantageImpl.c **** // - Block of 8 bytes for the preset value
 965:.\AdvantageImpl.c **** //This block of data (10 bytes) must be moved to another position within the same buffer (even posi
 966:.\AdvantageImpl.c **** void PumpPresetHose(void *pparam)
 967:.\AdvantageImpl.c **** {
 3593              		.loc 1 967 0
 3594              		.cfi_startproc
 3595              		@ args = 0, pretend = 0, frame = 40
 3596              		@ frame_needed = 1, uses_anonymous_args = 0
 3597 0000 90B5     		push	{r4, r7, lr}
 3598              		.cfi_def_cfa_offset 12
 3599              		.cfi_offset 4, -12
 3600              		.cfi_offset 7, -8
 3601              		.cfi_offset 14, -4
 3602 0002 8BB0     		sub	sp, sp, #44
 3603              		.cfi_def_cfa_offset 56
 3604 0004 00AF     		add	r7, sp, #0
 3605              		.cfi_def_cfa_register 7
 3606 0006 7860     		str	r0, [r7, #4]
 968:.\AdvantageImpl.c ****     PNEAR_PUMPPTR ppump = (PNEAR_PUMPPTR)pparam;
 3607              		.loc 1 968 0
 3608 0008 7B68     		ldr	r3, [r7, #4]
 3609 000a 3B62     		str	r3, [r7, #32]
 969:.\AdvantageImpl.c ****     if(ppump)
 3610              		.loc 1 969 0
 3611 000c 3B6A     		ldr	r3, [r7, #32]
 3612 000e 002B     		cmp	r3, #0
 3613 0010 00F0AC81 		beq	.L112
 3614              	.LBB19:
 970:.\AdvantageImpl.c ****     {
 971:.\AdvantageImpl.c ****         uint8_t index = 0;        
 3615              		.loc 1 971 0
 3616 0014 0023     		movs	r3, #0
 3617 0016 87F82730 		strb	r3, [r7, #39]
 972:.\AdvantageImpl.c ****         PUARTMESSAGEPTR puartdisp = GetUARTMessageSlot(UART_DISPENSER);
 3618              		.loc 1 972 0
 3619 001a A220     		movs	r0, #162
 3620 001c FFF7FEFF 		bl	GetUARTMessageSlot
 3621 0020 F861     		str	r0, [r7, #28]
 973:.\AdvantageImpl.c ****         memset(ppump->_rxbuffer, 0x00, _PUMP_RX_BUFFER_SIZE_);
 3622              		.loc 1 973 0
 3623 0022 3B6A     		ldr	r3, [r7, #32]
 3624 0024 03F5D073 		add	r3, r3, #416
 3625 0028 1846     		mov	r0, r3
 3626 002a 0021     		movs	r1, #0
 3627 002c 4FF4C072 		mov	r2, #384
 3628 0030 FFF7FEFF 		bl	memset
 974:.\AdvantageImpl.c ****         if(puartdisp)
 3629              		.loc 1 974 0
 3630 0034 FB69     		ldr	r3, [r7, #28]
 3631 0036 002B     		cmp	r3, #0
 3632 0038 00F09881 		beq	.L112
 975:.\AdvantageImpl.c ****         {
 976:.\AdvantageImpl.c **** ///////////////////////////////////////////////////////////////////////////////////////////////////
 977:.\AdvantageImpl.c ****             puartdisp->_messagetx[index++] = SOM;
 3633              		.loc 1 977 0
 3634 003c 97F82730 		ldrb	r3, [r7, #39]	@ zero_extendqisi2
ARM GAS  C:\Users\RECEPC~1\AppData\Local\Temp\ccZZcwiB.s 			page 82


 3635 0040 5A1C     		adds	r2, r3, #1
 3636 0042 87F82720 		strb	r2, [r7, #39]
 3637 0046 1A46     		mov	r2, r3
 3638 0048 FB69     		ldr	r3, [r7, #28]
 3639 004a 1344     		add	r3, r3, r2
 3640 004c FF22     		movs	r2, #255
 3641 004e 1A71     		strb	r2, [r3, #4]
 978:.\AdvantageImpl.c ****             if(_g_dispenserlayoutinfo._displaydigitsmode == 0x06)
 3642              		.loc 1 978 0
 3643 0050 C84B     		ldr	r3, .L135
 3644 0052 1B7C     		ldrb	r3, [r3, #16]	@ zero_extendqisi2
 3645 0054 062B     		cmp	r3, #6
 3646 0056 40F0C580 		bne	.L114
 3647              	.LBB20:
 979:.\AdvantageImpl.c ****             {
 980:.\AdvantageImpl.c ****                 uint8 transtype = (0xF0 | ((ppump->_trasactionbuffer[0x0004] == 0x0F)? 0x02: 0x01))
 3648              		.loc 1 980 0
 3649 005a 3B6A     		ldr	r3, [r7, #32]
 3650 005c 93F82430 		ldrb	r3, [r3, #36]	@ zero_extendqisi2
 3651 0060 0F2B     		cmp	r3, #15
 3652 0062 01D1     		bne	.L115
 3653              		.loc 1 980 0 is_stmt 0 discriminator 1
 3654 0064 F223     		movs	r3, #242
 3655 0066 00E0     		b	.L116
 3656              	.L115:
 3657              		.loc 1 980 0 discriminator 2
 3658 0068 F123     		movs	r3, #241
 3659              	.L116:
 3660              		.loc 1 980 0 discriminator 4
 3661 006a FB76     		strb	r3, [r7, #27]
 981:.\AdvantageImpl.c ****                 if(transtype == 0xF1)
 3662              		.loc 1 981 0 is_stmt 1 discriminator 4
 3663 006c FB7E     		ldrb	r3, [r7, #27]	@ zero_extendqisi2
 3664 006e F12B     		cmp	r3, #241
 3665 0070 0AD1     		bne	.L117
 982:.\AdvantageImpl.c ****                     puartdisp->_messagetx[index++] = 0xE3;
 3666              		.loc 1 982 0
 3667 0072 97F82730 		ldrb	r3, [r7, #39]	@ zero_extendqisi2
 3668 0076 5A1C     		adds	r2, r3, #1
 3669 0078 87F82720 		strb	r2, [r7, #39]
 3670 007c 1A46     		mov	r2, r3
 3671 007e FB69     		ldr	r3, [r7, #28]
 3672 0080 1344     		add	r3, r3, r2
 3673 0082 E322     		movs	r2, #227
 3674 0084 1A71     		strb	r2, [r3, #4]
 3675 0086 09E0     		b	.L118
 3676              	.L117:
 983:.\AdvantageImpl.c ****                 else
 984:.\AdvantageImpl.c ****                     puartdisp->_messagetx[index++] = 0xE2;
 3677              		.loc 1 984 0
 3678 0088 97F82730 		ldrb	r3, [r7, #39]	@ zero_extendqisi2
 3679 008c 5A1C     		adds	r2, r3, #1
 3680 008e 87F82720 		strb	r2, [r7, #39]
 3681 0092 1A46     		mov	r2, r3
 3682 0094 FB69     		ldr	r3, [r7, #28]
 3683 0096 1344     		add	r3, r3, r2
 3684 0098 E222     		movs	r2, #226
ARM GAS  C:\Users\RECEPC~1\AppData\Local\Temp\ccZZcwiB.s 			page 83


 3685 009a 1A71     		strb	r2, [r3, #4]
 3686              	.L118:
 985:.\AdvantageImpl.c ****                 
 986:.\AdvantageImpl.c ****                 ///THIS IS AN APPLIED CONVENTION ===>> 0x0004 INDEX POSITION WITHIN THE PUMP'S BUFF
 987:.\AdvantageImpl.c ****                 ///THESE CODES MUST BE MATCHED OTHERWISE THE LOGIC WILL BREAKUP THE CODE!
 988:.\AdvantageImpl.c ****                 puartdisp->_messagetx[index++] = transtype;
 3687              		.loc 1 988 0
 3688 009c 97F82730 		ldrb	r3, [r7, #39]	@ zero_extendqisi2
 3689 00a0 5A1C     		adds	r2, r3, #1
 3690 00a2 87F82720 		strb	r2, [r7, #39]
 3691 00a6 1A46     		mov	r2, r3
 3692 00a8 FB69     		ldr	r3, [r7, #28]
 3693 00aa 1344     		add	r3, r3, r2
 3694 00ac FA7E     		ldrb	r2, [r7, #27]
 3695 00ae 1A71     		strb	r2, [r3, #4]
 989:.\AdvantageImpl.c ****                 puartdisp->_messagetx[index++] = 0xF4;
 3696              		.loc 1 989 0
 3697 00b0 97F82730 		ldrb	r3, [r7, #39]	@ zero_extendqisi2
 3698 00b4 5A1C     		adds	r2, r3, #1
 3699 00b6 87F82720 		strb	r2, [r7, #39]
 3700 00ba 1A46     		mov	r2, r3
 3701 00bc FB69     		ldr	r3, [r7, #28]
 3702 00be 1344     		add	r3, r3, r2
 3703 00c0 F422     		movs	r2, #244
 3704 00c2 1A71     		strb	r2, [r3, #4]
 990:.\AdvantageImpl.c ****                 puartdisp->_messagetx[index++] = 0xF6; //Hose Data next
 3705              		.loc 1 990 0
 3706 00c4 97F82730 		ldrb	r3, [r7, #39]	@ zero_extendqisi2
 3707 00c8 5A1C     		adds	r2, r3, #1
 3708 00ca 87F82720 		strb	r2, [r7, #39]
 3709 00ce 1A46     		mov	r2, r3
 3710 00d0 FB69     		ldr	r3, [r7, #28]
 3711 00d2 1344     		add	r3, r3, r2
 3712 00d4 F622     		movs	r2, #246
 3713 00d6 1A71     		strb	r2, [r3, #4]
 991:.\AdvantageImpl.c ****                 ///THIS IS AN APPLIED CONVENTION ===>> 0x0006 INDEX POSITION WITHIN THE PUMP'S BUFF
 992:.\AdvantageImpl.c ****                 ///THESE CODES MUST BE MATCHED OTHERWISE THE LOGIC WILL BREAKUP THE CODE!
 993:.\AdvantageImpl.c ****                 puartdisp->_messagetx[index++] = (0xE0 | (0x0F & ppump->_trasactionbuffer[GetBuffer
 3714              		.loc 1 993 0
 3715 00d8 97F82730 		ldrb	r3, [r7, #39]	@ zero_extendqisi2
 3716 00dc 5A1C     		adds	r2, r3, #1
 3717 00de 87F82720 		strb	r2, [r7, #39]
 3718 00e2 1C46     		mov	r4, r3
 3719 00e4 0720     		movs	r0, #7
 3720 00e6 FFF7FEFF 		bl	GetBufferIndexFromDisplayID
 3721 00ea 0346     		mov	r3, r0
 3722 00ec 1A46     		mov	r2, r3
 3723 00ee 3B6A     		ldr	r3, [r7, #32]
 3724 00f0 1344     		add	r3, r3, r2
 3725 00f2 93F82030 		ldrb	r3, [r3, #32]	@ zero_extendqisi2
 3726 00f6 03F00F03 		and	r3, r3, #15
 3727 00fa DBB2     		uxtb	r3, r3
 3728 00fc 63F01F03 		orn	r3, r3, #31
 3729 0100 DAB2     		uxtb	r2, r3
 3730 0102 FB69     		ldr	r3, [r7, #28]
 3731 0104 2344     		add	r3, r3, r4
 3732 0106 1A71     		strb	r2, [r3, #4]
ARM GAS  C:\Users\RECEPC~1\AppData\Local\Temp\ccZZcwiB.s 			page 84


 994:.\AdvantageImpl.c ****                 //puartdisp->_messagetx[index++] = 0xE0;
 995:.\AdvantageImpl.c ****                 
 996:.\AdvantageImpl.c ****                 puartdisp->_messagetx[index++] = 0xF8; //Preset Data next
 3733              		.loc 1 996 0
 3734 0108 97F82730 		ldrb	r3, [r7, #39]	@ zero_extendqisi2
 3735 010c 5A1C     		adds	r2, r3, #1
 3736 010e 87F82720 		strb	r2, [r7, #39]
 3737 0112 1A46     		mov	r2, r3
 3738 0114 FB69     		ldr	r3, [r7, #28]
 3739 0116 1344     		add	r3, r3, r2
 3740 0118 F822     		movs	r2, #248
 3741 011a 1A71     		strb	r2, [r3, #4]
 997:.\AdvantageImpl.c ****                 //Here we copy the remaining 8 bytes for the preset value
 998:.\AdvantageImpl.c ****                 ///THIS IS AN APPLIED CONVENTION ===>> 0x0008 INDEX POSITION WITHIN THE PUMP'S BUFF
 999:.\AdvantageImpl.c ****                 ///THESE CODES MUST BE MATCHED OTHERWISE THE LOGIC WILL BREAKUP THE CODE!
1000:.\AdvantageImpl.c ****                 char8 *ptr = &ppump->_trasactionbuffer[0x0008];
 3742              		.loc 1 1000 0
 3743 011c 3B6A     		ldr	r3, [r7, #32]
 3744 011e 2833     		adds	r3, r3, #40
 3745 0120 7B61     		str	r3, [r7, #20]
1001:.\AdvantageImpl.c ****                 if(transtype == 0xF1) //Volume PRESET, then multiply by 1000
 3746              		.loc 1 1001 0
 3747 0122 FB7E     		ldrb	r3, [r7, #27]	@ zero_extendqisi2
 3748 0124 F12B     		cmp	r3, #241
 3749 0126 2AD1     		bne	.L119
 3750              	.LBB21:
1002:.\AdvantageImpl.c ****                 {
1003:.\AdvantageImpl.c ****                     CastVolumeValue(ptr, 0x08);
 3751              		.loc 1 1003 0
 3752 0128 7869     		ldr	r0, [r7, #20]
 3753 012a 0821     		movs	r1, #8
 3754 012c FFF7FEFF 		bl	CastVolumeValue
1004:.\AdvantageImpl.c ****                     
1005:.\AdvantageImpl.c ****                     FOR(uint8 buffndx = 0, buffndx < 0x05, buffndx++)
 3755              		.loc 1 1005 0
 3756 0130 0023     		movs	r3, #0
 3757 0132 87F82630 		strb	r3, [r7, #38]
 3758 0136 1DE0     		b	.L120
 3759              	.L121:
1006:.\AdvantageImpl.c ****                         puartdisp->_messagetx[index++] = (0xE0 | (ptr[7 - buffndx] & 0x0F)); //Tran
 3760              		.loc 1 1006 0 discriminator 3
 3761 0138 97F82730 		ldrb	r3, [r7, #39]	@ zero_extendqisi2
 3762 013c 5A1C     		adds	r2, r3, #1
 3763 013e 87F82720 		strb	r2, [r7, #39]
 3764 0142 1946     		mov	r1, r3
 3765 0144 97F82630 		ldrb	r3, [r7, #38]	@ zero_extendqisi2
 3766 0148 C3F10703 		rsb	r3, r3, #7
 3767 014c 1A46     		mov	r2, r3
 3768 014e 7B69     		ldr	r3, [r7, #20]
 3769 0150 1344     		add	r3, r3, r2
 3770 0152 1B78     		ldrb	r3, [r3]	@ zero_extendqisi2
 3771 0154 DBB2     		uxtb	r3, r3
 3772 0156 03F00F03 		and	r3, r3, #15
 3773 015a DBB2     		uxtb	r3, r3
 3774 015c 63F01F03 		orn	r3, r3, #31
 3775 0160 DBB2     		uxtb	r3, r3
 3776 0162 DAB2     		uxtb	r2, r3
ARM GAS  C:\Users\RECEPC~1\AppData\Local\Temp\ccZZcwiB.s 			page 85


 3777 0164 FB69     		ldr	r3, [r7, #28]
 3778 0166 0B44     		add	r3, r3, r1
 3779 0168 1A71     		strb	r2, [r3, #4]
1005:.\AdvantageImpl.c ****                         puartdisp->_messagetx[index++] = (0xE0 | (ptr[7 - buffndx] & 0x0F)); //Tran
 3780              		.loc 1 1005 0 discriminator 3
 3781 016a 97F82630 		ldrb	r3, [r7, #38]	@ zero_extendqisi2
 3782 016e 0133     		adds	r3, r3, #1
 3783 0170 87F82630 		strb	r3, [r7, #38]
 3784              	.L120:
1005:.\AdvantageImpl.c ****                         puartdisp->_messagetx[index++] = (0xE0 | (ptr[7 - buffndx] & 0x0F)); //Tran
 3785              		.loc 1 1005 0 is_stmt 0 discriminator 1
 3786 0174 97F82630 		ldrb	r3, [r7, #38]	@ zero_extendqisi2
 3787 0178 042B     		cmp	r3, #4
 3788 017a DDD9     		bls	.L121
 3789              	.LBE21:
 3790 017c 31E0     		b	.L122
 3791              	.L119:
 3792              	.LBB22:
1007:.\AdvantageImpl.c ****                 }
1008:.\AdvantageImpl.c ****                 else
1009:.\AdvantageImpl.c ****                 {
1010:.\AdvantageImpl.c ****                     if(!(_g_dispenserlayoutinfo._moneydecimals == 0x03 && _g_dispenserlayoutinfo._p
 3793              		.loc 1 1010 0 is_stmt 1
 3794 017e 7D4B     		ldr	r3, .L135
 3795 0180 DB79     		ldrb	r3, [r3, #7]	@ zero_extendqisi2
 3796 0182 032B     		cmp	r3, #3
 3797 0184 03D1     		bne	.L123
 3798              		.loc 1 1010 0 is_stmt 0 discriminator 1
 3799 0186 7B4B     		ldr	r3, .L135
 3800 0188 1B7A     		ldrb	r3, [r3, #8]	@ zero_extendqisi2
 3801 018a 022B     		cmp	r3, #2
 3802 018c 03D0     		beq	.L124
 3803              	.L123:
1011:.\AdvantageImpl.c ****                         CastMoneyValue(ptr, 0x08);
 3804              		.loc 1 1011 0 is_stmt 1
 3805 018e 7869     		ldr	r0, [r7, #20]
 3806 0190 0821     		movs	r1, #8
 3807 0192 FFF7FEFF 		bl	CastMoneyValue
 3808              	.L124:
1012:.\AdvantageImpl.c ****                     
1013:.\AdvantageImpl.c ****                     FOR(uint8 buffndx = 0, buffndx < 0x06, buffndx++)
 3809              		.loc 1 1013 0
 3810 0196 0023     		movs	r3, #0
 3811 0198 87F82530 		strb	r3, [r7, #37]
 3812 019c 1DE0     		b	.L125
 3813              	.L126:
1014:.\AdvantageImpl.c ****                         puartdisp->_messagetx[index++] = (0xE0 | (ptr[7 - buffndx] & 0x0F)); //Tran
 3814              		.loc 1 1014 0 discriminator 3
 3815 019e 97F82730 		ldrb	r3, [r7, #39]	@ zero_extendqisi2
 3816 01a2 5A1C     		adds	r2, r3, #1
 3817 01a4 87F82720 		strb	r2, [r7, #39]
 3818 01a8 1946     		mov	r1, r3
 3819 01aa 97F82530 		ldrb	r3, [r7, #37]	@ zero_extendqisi2
 3820 01ae C3F10703 		rsb	r3, r3, #7
 3821 01b2 1A46     		mov	r2, r3
 3822 01b4 7B69     		ldr	r3, [r7, #20]
 3823 01b6 1344     		add	r3, r3, r2
ARM GAS  C:\Users\RECEPC~1\AppData\Local\Temp\ccZZcwiB.s 			page 86


 3824 01b8 1B78     		ldrb	r3, [r3]	@ zero_extendqisi2
 3825 01ba DBB2     		uxtb	r3, r3
 3826 01bc 03F00F03 		and	r3, r3, #15
 3827 01c0 DBB2     		uxtb	r3, r3
 3828 01c2 63F01F03 		orn	r3, r3, #31
 3829 01c6 DBB2     		uxtb	r3, r3
 3830 01c8 DAB2     		uxtb	r2, r3
 3831 01ca FB69     		ldr	r3, [r7, #28]
 3832 01cc 0B44     		add	r3, r3, r1
 3833 01ce 1A71     		strb	r2, [r3, #4]
1013:.\AdvantageImpl.c ****                         puartdisp->_messagetx[index++] = (0xE0 | (ptr[7 - buffndx] & 0x0F)); //Tran
 3834              		.loc 1 1013 0 discriminator 3
 3835 01d0 97F82530 		ldrb	r3, [r7, #37]	@ zero_extendqisi2
 3836 01d4 0133     		adds	r3, r3, #1
 3837 01d6 87F82530 		strb	r3, [r7, #37]
 3838              	.L125:
1013:.\AdvantageImpl.c ****                         puartdisp->_messagetx[index++] = (0xE0 | (ptr[7 - buffndx] & 0x0F)); //Tran
 3839              		.loc 1 1013 0 is_stmt 0 discriminator 1
 3840 01da 97F82530 		ldrb	r3, [r7, #37]	@ zero_extendqisi2
 3841 01de 052B     		cmp	r3, #5
 3842 01e0 DDD9     		bls	.L126
 3843              	.L122:
 3844              	.LBE22:
 3845              	.LBE20:
 3846 01e2 94E0     		b	.L127
 3847              	.L114:
1015:.\AdvantageImpl.c ****                 }
1016:.\AdvantageImpl.c ****             }
1017:.\AdvantageImpl.c ****             else if(_g_dispenserlayoutinfo._displaydigitsmode == 0x07)
 3848              		.loc 1 1017 0 is_stmt 1
 3849 01e4 634B     		ldr	r3, .L135
 3850 01e6 1B7C     		ldrb	r3, [r3, #16]	@ zero_extendqisi2
 3851 01e8 072B     		cmp	r3, #7
 3852 01ea 40F09080 		bne	.L127
 3853              	.LBB23:
1018:.\AdvantageImpl.c ****             {
1019:.\AdvantageImpl.c ****                 puartdisp->_messagetx[index++] = 0xE1;
 3854              		.loc 1 1019 0
 3855 01ee 97F82730 		ldrb	r3, [r7, #39]	@ zero_extendqisi2
 3856 01f2 5A1C     		adds	r2, r3, #1
 3857 01f4 87F82720 		strb	r2, [r7, #39]
 3858 01f8 1A46     		mov	r2, r3
 3859 01fa FB69     		ldr	r3, [r7, #28]
 3860 01fc 1344     		add	r3, r3, r2
 3861 01fe E122     		movs	r2, #225
 3862 0200 1A71     		strb	r2, [r3, #4]
1020:.\AdvantageImpl.c ****                     
1021:.\AdvantageImpl.c ****                 ///THIS IS AN APPLIED CONVENTION ===>> 0x0004 INDEX POSITION WITHIN THE PUMP'S BUFF
1022:.\AdvantageImpl.c ****                 ///THESE CODES MUST BE MATCHED OTHERWISE THE LOGIC WILL BREAKUP THE CODE!
1023:.\AdvantageImpl.c ****                 uint8 transtype = (0xF0 | ((ppump->_trasactionbuffer[0x0004] == 0x0F)? 0x02: 0x01))
 3863              		.loc 1 1023 0
 3864 0202 3B6A     		ldr	r3, [r7, #32]
 3865 0204 93F82430 		ldrb	r3, [r3, #36]	@ zero_extendqisi2
 3866 0208 0F2B     		cmp	r3, #15
 3867 020a 01D1     		bne	.L128
 3868              		.loc 1 1023 0 is_stmt 0 discriminator 1
 3869 020c F223     		movs	r3, #242
ARM GAS  C:\Users\RECEPC~1\AppData\Local\Temp\ccZZcwiB.s 			page 87


 3870 020e 00E0     		b	.L129
 3871              	.L128:
 3872              		.loc 1 1023 0 discriminator 2
 3873 0210 F123     		movs	r3, #241
 3874              	.L129:
 3875              		.loc 1 1023 0 discriminator 4
 3876 0212 FB74     		strb	r3, [r7, #19]
1024:.\AdvantageImpl.c ****                 puartdisp->_messagetx[index++] = transtype;
 3877              		.loc 1 1024 0 is_stmt 1 discriminator 4
 3878 0214 97F82730 		ldrb	r3, [r7, #39]	@ zero_extendqisi2
 3879 0218 5A1C     		adds	r2, r3, #1
 3880 021a 87F82720 		strb	r2, [r7, #39]
 3881 021e 1A46     		mov	r2, r3
 3882 0220 FB69     		ldr	r3, [r7, #28]
 3883 0222 1344     		add	r3, r3, r2
 3884 0224 FA7C     		ldrb	r2, [r7, #19]
 3885 0226 1A71     		strb	r2, [r3, #4]
1025:.\AdvantageImpl.c ****                 puartdisp->_messagetx[index++] = 0xF4;
 3886              		.loc 1 1025 0 discriminator 4
 3887 0228 97F82730 		ldrb	r3, [r7, #39]	@ zero_extendqisi2
 3888 022c 5A1C     		adds	r2, r3, #1
 3889 022e 87F82720 		strb	r2, [r7, #39]
 3890 0232 1A46     		mov	r2, r3
 3891 0234 FB69     		ldr	r3, [r7, #28]
 3892 0236 1344     		add	r3, r3, r2
 3893 0238 F422     		movs	r2, #244
 3894 023a 1A71     		strb	r2, [r3, #4]
1026:.\AdvantageImpl.c ****                 puartdisp->_messagetx[index++] = 0xF6; //Hose Data next
 3895              		.loc 1 1026 0 discriminator 4
 3896 023c 97F82730 		ldrb	r3, [r7, #39]	@ zero_extendqisi2
 3897 0240 5A1C     		adds	r2, r3, #1
 3898 0242 87F82720 		strb	r2, [r7, #39]
 3899 0246 1A46     		mov	r2, r3
 3900 0248 FB69     		ldr	r3, [r7, #28]
 3901 024a 1344     		add	r3, r3, r2
 3902 024c F622     		movs	r2, #246
 3903 024e 1A71     		strb	r2, [r3, #4]
1027:.\AdvantageImpl.c ****                 ///THIS IS AN APPLIED CONVENTION ===>> 0x0006 INDEX POSITION WITHIN THE PUMP'S BUFF
1028:.\AdvantageImpl.c ****                 ///THESE CODES MUST BE MATCHED OTHERWISE THE LOGIC WILL BREAKUP THE CODE!
1029:.\AdvantageImpl.c ****                 puartdisp->_messagetx[index++] = (0xE0 | (0x0F & ppump->_trasactionbuffer[GetBuffer
 3904              		.loc 1 1029 0 discriminator 4
 3905 0250 97F82730 		ldrb	r3, [r7, #39]	@ zero_extendqisi2
 3906 0254 5A1C     		adds	r2, r3, #1
 3907 0256 87F82720 		strb	r2, [r7, #39]
 3908 025a 1C46     		mov	r4, r3
 3909 025c 0720     		movs	r0, #7
 3910 025e FFF7FEFF 		bl	GetBufferIndexFromDisplayID
 3911 0262 0346     		mov	r3, r0
 3912 0264 1A46     		mov	r2, r3
 3913 0266 3B6A     		ldr	r3, [r7, #32]
 3914 0268 1344     		add	r3, r3, r2
 3915 026a 93F82030 		ldrb	r3, [r3, #32]	@ zero_extendqisi2
 3916 026e 03F00F03 		and	r3, r3, #15
 3917 0272 DBB2     		uxtb	r3, r3
 3918 0274 63F01F03 		orn	r3, r3, #31
 3919 0278 DAB2     		uxtb	r2, r3
 3920 027a FB69     		ldr	r3, [r7, #28]
ARM GAS  C:\Users\RECEPC~1\AppData\Local\Temp\ccZZcwiB.s 			page 88


 3921 027c 2344     		add	r3, r3, r4
 3922 027e 1A71     		strb	r2, [r3, #4]
1030:.\AdvantageImpl.c ****                 //puartdisp->_messagetx[index++] = 0xE0;
1031:.\AdvantageImpl.c ****                 
1032:.\AdvantageImpl.c ****                 puartdisp->_messagetx[index++] = 0xF8; //Preset Data next
 3923              		.loc 1 1032 0 discriminator 4
 3924 0280 97F82730 		ldrb	r3, [r7, #39]	@ zero_extendqisi2
 3925 0284 5A1C     		adds	r2, r3, #1
 3926 0286 87F82720 		strb	r2, [r7, #39]
 3927 028a 1A46     		mov	r2, r3
 3928 028c FB69     		ldr	r3, [r7, #28]
 3929 028e 1344     		add	r3, r3, r2
 3930 0290 F822     		movs	r2, #248
 3931 0292 1A71     		strb	r2, [r3, #4]
1033:.\AdvantageImpl.c ****                 //Here we copy the remaining 8 bytes for the preset value
1034:.\AdvantageImpl.c ****                 ///THIS IS AN APPLIED CONVENTION ===>> 0x0008 INDEX POSITION WITHIN THE PUMP'S BUFF
1035:.\AdvantageImpl.c ****                 ///THESE CODES MUST BE MATCHED OTHERWISE THE LOGIC WILL BREAKUP THE CODE!
1036:.\AdvantageImpl.c ****                 char8 *ptr = &ppump->_trasactionbuffer[0x0008];
 3932              		.loc 1 1036 0 discriminator 4
 3933 0294 3B6A     		ldr	r3, [r7, #32]
 3934 0296 2833     		adds	r3, r3, #40
 3935 0298 FB60     		str	r3, [r7, #12]
1037:.\AdvantageImpl.c ****                 if(transtype == 0xF1) //Volume PRESET, then multiply by 1000
 3936              		.loc 1 1037 0 discriminator 4
 3937 029a FB7C     		ldrb	r3, [r7, #19]	@ zero_extendqisi2
 3938 029c F12B     		cmp	r3, #241
 3939 029e 04D1     		bne	.L130
1038:.\AdvantageImpl.c ****                     CastVolumeValue(ptr, 0x08);
 3940              		.loc 1 1038 0
 3941 02a0 F868     		ldr	r0, [r7, #12]
 3942 02a2 0821     		movs	r1, #8
 3943 02a4 FFF7FEFF 		bl	CastVolumeValue
 3944 02a8 0BE0     		b	.L131
 3945              	.L130:
1039:.\AdvantageImpl.c ****                 else if(!(_g_dispenserlayoutinfo._moneydecimals == 0x03 && _g_dispenserlayoutinfo._
 3946              		.loc 1 1039 0
 3947 02aa 324B     		ldr	r3, .L135
 3948 02ac DB79     		ldrb	r3, [r3, #7]	@ zero_extendqisi2
 3949 02ae 032B     		cmp	r3, #3
 3950 02b0 03D1     		bne	.L132
 3951              		.loc 1 1039 0 is_stmt 0 discriminator 1
 3952 02b2 304B     		ldr	r3, .L135
 3953 02b4 1B7A     		ldrb	r3, [r3, #8]	@ zero_extendqisi2
 3954 02b6 022B     		cmp	r3, #2
 3955 02b8 03D0     		beq	.L131
 3956              	.L132:
1040:.\AdvantageImpl.c ****                     CastMoneyValue(ptr, 0x08);
 3957              		.loc 1 1040 0 is_stmt 1
 3958 02ba F868     		ldr	r0, [r7, #12]
 3959 02bc 0821     		movs	r1, #8
 3960 02be FFF7FEFF 		bl	CastMoneyValue
 3961              	.L131:
1041:.\AdvantageImpl.c ****                     
1042:.\AdvantageImpl.c ****                 FOR(uint8 buffndx = 0, buffndx < 0x08, buffndx++)
 3962              		.loc 1 1042 0
 3963 02c2 0023     		movs	r3, #0
 3964 02c4 87F82430 		strb	r3, [r7, #36]
ARM GAS  C:\Users\RECEPC~1\AppData\Local\Temp\ccZZcwiB.s 			page 89


 3965 02c8 1DE0     		b	.L133
 3966              	.L134:
1043:.\AdvantageImpl.c ****                     puartdisp->_messagetx[index++] = (0xE0 | (ptr[7 - buffndx] & 0x0F)); //Translat
 3967              		.loc 1 1043 0 discriminator 3
 3968 02ca 97F82730 		ldrb	r3, [r7, #39]	@ zero_extendqisi2
 3969 02ce 5A1C     		adds	r2, r3, #1
 3970 02d0 87F82720 		strb	r2, [r7, #39]
 3971 02d4 1946     		mov	r1, r3
 3972 02d6 97F82430 		ldrb	r3, [r7, #36]	@ zero_extendqisi2
 3973 02da C3F10703 		rsb	r3, r3, #7
 3974 02de 1A46     		mov	r2, r3
 3975 02e0 FB68     		ldr	r3, [r7, #12]
 3976 02e2 1344     		add	r3, r3, r2
 3977 02e4 1B78     		ldrb	r3, [r3]	@ zero_extendqisi2
 3978 02e6 DBB2     		uxtb	r3, r3
 3979 02e8 03F00F03 		and	r3, r3, #15
 3980 02ec DBB2     		uxtb	r3, r3
 3981 02ee 63F01F03 		orn	r3, r3, #31
 3982 02f2 DBB2     		uxtb	r3, r3
 3983 02f4 DAB2     		uxtb	r2, r3
 3984 02f6 FB69     		ldr	r3, [r7, #28]
 3985 02f8 0B44     		add	r3, r3, r1
 3986 02fa 1A71     		strb	r2, [r3, #4]
1042:.\AdvantageImpl.c ****                     puartdisp->_messagetx[index++] = (0xE0 | (ptr[7 - buffndx] & 0x0F)); //Translat
 3987              		.loc 1 1042 0 discriminator 3
 3988 02fc 97F82430 		ldrb	r3, [r7, #36]	@ zero_extendqisi2
 3989 0300 0133     		adds	r3, r3, #1
 3990 0302 87F82430 		strb	r3, [r7, #36]
 3991              	.L133:
1042:.\AdvantageImpl.c ****                     puartdisp->_messagetx[index++] = (0xE0 | (ptr[7 - buffndx] & 0x0F)); //Translat
 3992              		.loc 1 1042 0 is_stmt 0 discriminator 1
 3993 0306 97F82430 		ldrb	r3, [r7, #36]	@ zero_extendqisi2
 3994 030a 072B     		cmp	r3, #7
 3995 030c DDD9     		bls	.L134
 3996              	.L127:
 3997              	.LBE23:
1044:.\AdvantageImpl.c ****             }
1045:.\AdvantageImpl.c ****             ppump->_presetdone = true;
 3998              		.loc 1 1045 0 is_stmt 1
 3999 030e 3B6A     		ldr	r3, [r7, #32]
 4000 0310 0122     		movs	r2, #1
 4001 0312 1A72     		strb	r2, [r3, #8]
1046:.\AdvantageImpl.c ****             
1047:.\AdvantageImpl.c ****             puartdisp->_messagetx[index++] = LRCn; //LRC next
 4002              		.loc 1 1047 0
 4003 0314 97F82730 		ldrb	r3, [r7, #39]	@ zero_extendqisi2
 4004 0318 5A1C     		adds	r2, r3, #1
 4005 031a 87F82720 		strb	r2, [r7, #39]
 4006 031e 1A46     		mov	r2, r3
 4007 0320 FB69     		ldr	r3, [r7, #28]
 4008 0322 1344     		add	r3, r3, r2
 4009 0324 FB22     		movs	r2, #251
 4010 0326 1A71     		strb	r2, [r3, #4]
1048:.\AdvantageImpl.c ****             puartdisp->_messagetx[index++] = GetLRC(puartdisp->_messagetx);
 4011              		.loc 1 1048 0
 4012 0328 97F82730 		ldrb	r3, [r7, #39]	@ zero_extendqisi2
 4013 032c 5A1C     		adds	r2, r3, #1
ARM GAS  C:\Users\RECEPC~1\AppData\Local\Temp\ccZZcwiB.s 			page 90


 4014 032e 87F82720 		strb	r2, [r7, #39]
 4015 0332 1C46     		mov	r4, r3
 4016 0334 FB69     		ldr	r3, [r7, #28]
 4017 0336 0433     		adds	r3, r3, #4
 4018 0338 1846     		mov	r0, r3
 4019 033a FFF7FEFF 		bl	GetLRC
 4020 033e 0346     		mov	r3, r0
 4021 0340 1A46     		mov	r2, r3
 4022 0342 FB69     		ldr	r3, [r7, #28]
 4023 0344 2344     		add	r3, r3, r4
 4024 0346 1A71     		strb	r2, [r3, #4]
1049:.\AdvantageImpl.c ****             puartdisp->_messagetx[index++] = EOM;
 4025              		.loc 1 1049 0
 4026 0348 97F82730 		ldrb	r3, [r7, #39]	@ zero_extendqisi2
 4027 034c 5A1C     		adds	r2, r3, #1
 4028 034e 87F82720 		strb	r2, [r7, #39]
 4029 0352 1A46     		mov	r2, r3
 4030 0354 FB69     		ldr	r3, [r7, #28]
 4031 0356 1344     		add	r3, r3, r2
 4032 0358 F022     		movs	r2, #240
 4033 035a 1A71     		strb	r2, [r3, #4]
1050:.\AdvantageImpl.c **** ///////////////////////////////////////////////////////////////////////////////////////////////////
1051:.\AdvantageImpl.c ****             
1052:.\AdvantageImpl.c ****             puartdisp->_messagelength = index;
 4034              		.loc 1 1052 0
 4035 035c 97F82730 		ldrb	r3, [r7, #39]	@ zero_extendqisi2
 4036 0360 9AB2     		uxth	r2, r3
 4037 0362 FB69     		ldr	r3, [r7, #28]
 4038 0364 5A80     		strh	r2, [r3, #2]	@ movhi
1053:.\AdvantageImpl.c ****             puartdisp->_messagestate = PENDING;
 4039              		.loc 1 1053 0
 4040 0366 FB69     		ldr	r3, [r7, #28]
 4041 0368 C222     		movs	r2, #194
 4042 036a 1A70     		strb	r2, [r3]
 4043              	.L112:
 4044              	.LBE19:
1054:.\AdvantageImpl.c ****         }
1055:.\AdvantageImpl.c ****     }
1056:.\AdvantageImpl.c ****     
1057:.\AdvantageImpl.c **** }
 4045              		.loc 1 1057 0
 4046 036c 2C37     		adds	r7, r7, #44
 4047              		.cfi_def_cfa_offset 12
 4048 036e BD46     		mov	sp, r7
 4049              		.cfi_def_cfa_register 13
 4050              		@ sp needed
 4051 0370 90BD     		pop	{r4, r7, pc}
 4052              	.L136:
 4053 0372 00BF     		.align	2
 4054              	.L135:
 4055 0374 00000000 		.word	_g_dispenserlayoutinfo
 4056              		.cfi_endproc
 4057              	.LFE79:
 4058              		.size	PumpPresetHose, .-PumpPresetHose
 4059              		.section	.text.PumpPresetNoHose,"ax",%progbits
 4060              		.align	2
 4061              		.global	PumpPresetNoHose
ARM GAS  C:\Users\RECEPC~1\AppData\Local\Temp\ccZZcwiB.s 			page 91


 4062              		.thumb
 4063              		.thumb_func
 4064              		.type	PumpPresetNoHose, %function
 4065              	PumpPresetNoHose:
 4066              	.LFB80:
1058:.\AdvantageImpl.c **** 
1059:.\AdvantageImpl.c **** //@Created By: HIJH
1060:.\AdvantageImpl.c **** //@Septembre de 2016
1061:.\AdvantageImpl.c **** ///////////////////////////////////////////////////////////////////////////////////////////////////
1062:.\AdvantageImpl.c **** //Preset values will be placed within the SinkMessage's buffer. This is a convention that applies t
1063:.\AdvantageImpl.c **** //all of the available transactions. The pump function must deal with this while it is assembling t
1064:.\AdvantageImpl.c **** //For this message the data comes as follows:
1065:.\AdvantageImpl.c **** // - First byte is the preset type (Volume:1 / Money:2 )
1066:.\AdvantageImpl.c **** // - Block of 8 bytes for the preset value
1067:.\AdvantageImpl.c **** //This block of data (10 bytes) must be moved to another position within the same buffer (even posi
1068:.\AdvantageImpl.c **** void PumpPresetNoHose(void *pparam)
1069:.\AdvantageImpl.c **** {
 4067              		.loc 1 1069 0
 4068              		.cfi_startproc
 4069              		@ args = 0, pretend = 0, frame = 40
 4070              		@ frame_needed = 1, uses_anonymous_args = 0
 4071 0000 90B5     		push	{r4, r7, lr}
 4072              		.cfi_def_cfa_offset 12
 4073              		.cfi_offset 4, -12
 4074              		.cfi_offset 7, -8
 4075              		.cfi_offset 14, -4
 4076 0002 8BB0     		sub	sp, sp, #44
 4077              		.cfi_def_cfa_offset 56
 4078 0004 00AF     		add	r7, sp, #0
 4079              		.cfi_def_cfa_register 7
 4080 0006 7860     		str	r0, [r7, #4]
1070:.\AdvantageImpl.c ****     PNEAR_PUMPPTR ppump = (PNEAR_PUMPPTR)pparam;
 4081              		.loc 1 1070 0
 4082 0008 7B68     		ldr	r3, [r7, #4]
 4083 000a 3B62     		str	r3, [r7, #32]
1071:.\AdvantageImpl.c ****     if(ppump)
 4084              		.loc 1 1071 0
 4085 000c 3B6A     		ldr	r3, [r7, #32]
 4086 000e 002B     		cmp	r3, #0
 4087 0010 00F05381 		beq	.L137
 4088              	.LBB24:
1072:.\AdvantageImpl.c ****     {
1073:.\AdvantageImpl.c ****         uint8_t index = 0;
 4089              		.loc 1 1073 0
 4090 0014 0023     		movs	r3, #0
 4091 0016 87F82730 		strb	r3, [r7, #39]
1074:.\AdvantageImpl.c ****         memset(ppump->_rxbuffer, 0x00, _PUMP_RX_BUFFER_SIZE_);
 4092              		.loc 1 1074 0
 4093 001a 3B6A     		ldr	r3, [r7, #32]
 4094 001c 03F5D073 		add	r3, r3, #416
 4095 0020 1846     		mov	r0, r3
 4096 0022 0021     		movs	r1, #0
 4097 0024 4FF4C072 		mov	r2, #384
 4098 0028 FFF7FEFF 		bl	memset
1075:.\AdvantageImpl.c ****         PUARTMESSAGEPTR puartdisp = GetUARTMessageSlot(UART_DISPENSER);
 4099              		.loc 1 1075 0
 4100 002c A220     		movs	r0, #162
ARM GAS  C:\Users\RECEPC~1\AppData\Local\Temp\ccZZcwiB.s 			page 92


 4101 002e FFF7FEFF 		bl	GetUARTMessageSlot
 4102 0032 F861     		str	r0, [r7, #28]
1076:.\AdvantageImpl.c ****         if(puartdisp)
 4103              		.loc 1 1076 0
 4104 0034 FB69     		ldr	r3, [r7, #28]
 4105 0036 002B     		cmp	r3, #0
 4106 0038 00F03F81 		beq	.L137
1077:.\AdvantageImpl.c ****         {
1078:.\AdvantageImpl.c **** ///////////////////////////////////////////////////////////////////////////////////////////////////
1079:.\AdvantageImpl.c ****             puartdisp->_messagetx[index++] = SOM;
 4107              		.loc 1 1079 0
 4108 003c 97F82730 		ldrb	r3, [r7, #39]	@ zero_extendqisi2
 4109 0040 5A1C     		adds	r2, r3, #1
 4110 0042 87F82720 		strb	r2, [r7, #39]
 4111 0046 1A46     		mov	r2, r3
 4112 0048 FB69     		ldr	r3, [r7, #28]
 4113 004a 1344     		add	r3, r3, r2
 4114 004c FF22     		movs	r2, #255
 4115 004e 1A71     		strb	r2, [r3, #4]
1080:.\AdvantageImpl.c ****             if(_g_dispenserlayoutinfo._displaydigitsmode == 0x06)
 4116              		.loc 1 1080 0
 4117 0050 9B4B     		ldr	r3, .L160
 4118 0052 1B7C     		ldrb	r3, [r3, #16]	@ zero_extendqisi2
 4119 0054 062B     		cmp	r3, #6
 4120 0056 40F09980 		bne	.L139
 4121              	.LBB25:
1081:.\AdvantageImpl.c ****             {
1082:.\AdvantageImpl.c ****                 uint8 transtype = (0xF0 | ((ppump->_trasactionbuffer[0x0004] == 0x0F)? 0x02: 0x01))
 4122              		.loc 1 1082 0
 4123 005a 3B6A     		ldr	r3, [r7, #32]
 4124 005c 93F82430 		ldrb	r3, [r3, #36]	@ zero_extendqisi2
 4125 0060 0F2B     		cmp	r3, #15
 4126 0062 01D1     		bne	.L140
 4127              		.loc 1 1082 0 is_stmt 0 discriminator 1
 4128 0064 F223     		movs	r3, #242
 4129 0066 00E0     		b	.L141
 4130              	.L140:
 4131              		.loc 1 1082 0 discriminator 2
 4132 0068 F123     		movs	r3, #241
 4133              	.L141:
 4134              		.loc 1 1082 0 discriminator 4
 4135 006a FB76     		strb	r3, [r7, #27]
1083:.\AdvantageImpl.c ****                 if(transtype == 0xF1)
 4136              		.loc 1 1083 0 is_stmt 1 discriminator 4
 4137 006c FB7E     		ldrb	r3, [r7, #27]	@ zero_extendqisi2
 4138 006e F12B     		cmp	r3, #241
 4139 0070 0AD1     		bne	.L142
1084:.\AdvantageImpl.c ****                     puartdisp->_messagetx[index++] = 0xE6;
 4140              		.loc 1 1084 0
 4141 0072 97F82730 		ldrb	r3, [r7, #39]	@ zero_extendqisi2
 4142 0076 5A1C     		adds	r2, r3, #1
 4143 0078 87F82720 		strb	r2, [r7, #39]
 4144 007c 1A46     		mov	r2, r3
 4145 007e FB69     		ldr	r3, [r7, #28]
 4146 0080 1344     		add	r3, r3, r2
 4147 0082 E622     		movs	r2, #230
 4148 0084 1A71     		strb	r2, [r3, #4]
ARM GAS  C:\Users\RECEPC~1\AppData\Local\Temp\ccZZcwiB.s 			page 93


 4149 0086 09E0     		b	.L143
 4150              	.L142:
1085:.\AdvantageImpl.c ****                 else
1086:.\AdvantageImpl.c ****                     puartdisp->_messagetx[index++] = 0xE5;
 4151              		.loc 1 1086 0
 4152 0088 97F82730 		ldrb	r3, [r7, #39]	@ zero_extendqisi2
 4153 008c 5A1C     		adds	r2, r3, #1
 4154 008e 87F82720 		strb	r2, [r7, #39]
 4155 0092 1A46     		mov	r2, r3
 4156 0094 FB69     		ldr	r3, [r7, #28]
 4157 0096 1344     		add	r3, r3, r2
 4158 0098 E522     		movs	r2, #229
 4159 009a 1A71     		strb	r2, [r3, #4]
 4160              	.L143:
1087:.\AdvantageImpl.c **** 
1088:.\AdvantageImpl.c ****                 ///THIS IS AN APPLIED CONVENTION ===>> 0x0004 INDEX POSITION WITHIN THE PUMP'S BUFF
1089:.\AdvantageImpl.c ****                 ///THESE CODES MUST BE MATCHED OTHERWISE THE LOGIC WILL BREAKUP THE CODE!
1090:.\AdvantageImpl.c ****                 puartdisp->_messagetx[index++] = transtype;
 4161              		.loc 1 1090 0
 4162 009c 97F82730 		ldrb	r3, [r7, #39]	@ zero_extendqisi2
 4163 00a0 5A1C     		adds	r2, r3, #1
 4164 00a2 87F82720 		strb	r2, [r7, #39]
 4165 00a6 1A46     		mov	r2, r3
 4166 00a8 FB69     		ldr	r3, [r7, #28]
 4167 00aa 1344     		add	r3, r3, r2
 4168 00ac FA7E     		ldrb	r2, [r7, #27]
 4169 00ae 1A71     		strb	r2, [r3, #4]
1091:.\AdvantageImpl.c ****                             
1092:.\AdvantageImpl.c ****                 puartdisp->_messagetx[index++] = 0xF8; //Preset Data next
 4170              		.loc 1 1092 0
 4171 00b0 97F82730 		ldrb	r3, [r7, #39]	@ zero_extendqisi2
 4172 00b4 5A1C     		adds	r2, r3, #1
 4173 00b6 87F82720 		strb	r2, [r7, #39]
 4174 00ba 1A46     		mov	r2, r3
 4175 00bc FB69     		ldr	r3, [r7, #28]
 4176 00be 1344     		add	r3, r3, r2
 4177 00c0 F822     		movs	r2, #248
 4178 00c2 1A71     		strb	r2, [r3, #4]
1093:.\AdvantageImpl.c ****                 //Here we copy the remaining 8 bytes for the preset value
1094:.\AdvantageImpl.c ****                 ///THIS IS AN APPLIED CONVENTION ===>> 0x0008 INDEX POSITION WITHIN THE PUMP'S BUFF
1095:.\AdvantageImpl.c ****                 ///THESE CODES MUST BE MATCHED OTHERWISE THE LOGIC WILL BREAKUP THE CODE!
1096:.\AdvantageImpl.c ****                 char8 *ptr = &ppump->_trasactionbuffer[0x0008];
 4179              		.loc 1 1096 0
 4180 00c4 3B6A     		ldr	r3, [r7, #32]
 4181 00c6 2833     		adds	r3, r3, #40
 4182 00c8 7B61     		str	r3, [r7, #20]
1097:.\AdvantageImpl.c ****                 if(transtype == 0xF1) //Volume PRESET, then multiply by 1000
 4183              		.loc 1 1097 0
 4184 00ca FB7E     		ldrb	r3, [r7, #27]	@ zero_extendqisi2
 4185 00cc F12B     		cmp	r3, #241
 4186 00ce 2AD1     		bne	.L144
 4187              	.LBB26:
1098:.\AdvantageImpl.c ****                 {
1099:.\AdvantageImpl.c ****                     CastVolumeValue(ptr, 0x08);
 4188              		.loc 1 1099 0
 4189 00d0 7869     		ldr	r0, [r7, #20]
 4190 00d2 0821     		movs	r1, #8
ARM GAS  C:\Users\RECEPC~1\AppData\Local\Temp\ccZZcwiB.s 			page 94


 4191 00d4 FFF7FEFF 		bl	CastVolumeValue
1100:.\AdvantageImpl.c ****                 
1101:.\AdvantageImpl.c ****                     FOR(uint8 buffndx = 0, buffndx < 0x05, buffndx++)
 4192              		.loc 1 1101 0
 4193 00d8 0023     		movs	r3, #0
 4194 00da 87F82630 		strb	r3, [r7, #38]
 4195 00de 1DE0     		b	.L145
 4196              	.L146:
1102:.\AdvantageImpl.c ****                         puartdisp->_messagetx[index++] = (0xE0 | (ptr[7 - buffndx] & 0x0F)); //Tran
 4197              		.loc 1 1102 0 discriminator 3
 4198 00e0 97F82730 		ldrb	r3, [r7, #39]	@ zero_extendqisi2
 4199 00e4 5A1C     		adds	r2, r3, #1
 4200 00e6 87F82720 		strb	r2, [r7, #39]
 4201 00ea 1946     		mov	r1, r3
 4202 00ec 97F82630 		ldrb	r3, [r7, #38]	@ zero_extendqisi2
 4203 00f0 C3F10703 		rsb	r3, r3, #7
 4204 00f4 1A46     		mov	r2, r3
 4205 00f6 7B69     		ldr	r3, [r7, #20]
 4206 00f8 1344     		add	r3, r3, r2
 4207 00fa 1B78     		ldrb	r3, [r3]	@ zero_extendqisi2
 4208 00fc DBB2     		uxtb	r3, r3
 4209 00fe 03F00F03 		and	r3, r3, #15
 4210 0102 DBB2     		uxtb	r3, r3
 4211 0104 63F01F03 		orn	r3, r3, #31
 4212 0108 DBB2     		uxtb	r3, r3
 4213 010a DAB2     		uxtb	r2, r3
 4214 010c FB69     		ldr	r3, [r7, #28]
 4215 010e 0B44     		add	r3, r3, r1
 4216 0110 1A71     		strb	r2, [r3, #4]
1101:.\AdvantageImpl.c ****                         puartdisp->_messagetx[index++] = (0xE0 | (ptr[7 - buffndx] & 0x0F)); //Tran
 4217              		.loc 1 1101 0 discriminator 3
 4218 0112 97F82630 		ldrb	r3, [r7, #38]	@ zero_extendqisi2
 4219 0116 0133     		adds	r3, r3, #1
 4220 0118 87F82630 		strb	r3, [r7, #38]
 4221              	.L145:
1101:.\AdvantageImpl.c ****                         puartdisp->_messagetx[index++] = (0xE0 | (ptr[7 - buffndx] & 0x0F)); //Tran
 4222              		.loc 1 1101 0 is_stmt 0 discriminator 1
 4223 011c 97F82630 		ldrb	r3, [r7, #38]	@ zero_extendqisi2
 4224 0120 042B     		cmp	r3, #4
 4225 0122 DDD9     		bls	.L146
 4226              	.LBE26:
 4227 0124 31E0     		b	.L147
 4228              	.L144:
 4229              	.LBB27:
1103:.\AdvantageImpl.c ****                 }
1104:.\AdvantageImpl.c ****                 else
1105:.\AdvantageImpl.c ****                 {
1106:.\AdvantageImpl.c ****                     if(!(_g_dispenserlayoutinfo._moneydecimals == 0x03 && _g_dispenserlayoutinfo._p
 4230              		.loc 1 1106 0 is_stmt 1
 4231 0126 664B     		ldr	r3, .L160
 4232 0128 DB79     		ldrb	r3, [r3, #7]	@ zero_extendqisi2
 4233 012a 032B     		cmp	r3, #3
 4234 012c 03D1     		bne	.L148
 4235              		.loc 1 1106 0 is_stmt 0 discriminator 1
 4236 012e 644B     		ldr	r3, .L160
 4237 0130 1B7A     		ldrb	r3, [r3, #8]	@ zero_extendqisi2
 4238 0132 022B     		cmp	r3, #2
ARM GAS  C:\Users\RECEPC~1\AppData\Local\Temp\ccZZcwiB.s 			page 95


 4239 0134 03D0     		beq	.L149
 4240              	.L148:
1107:.\AdvantageImpl.c ****                         CastMoneyValue(ptr, 0x08);
 4241              		.loc 1 1107 0 is_stmt 1
 4242 0136 7869     		ldr	r0, [r7, #20]
 4243 0138 0821     		movs	r1, #8
 4244 013a FFF7FEFF 		bl	CastMoneyValue
 4245              	.L149:
1108:.\AdvantageImpl.c ****                     
1109:.\AdvantageImpl.c ****                     FOR(uint8 buffndx = 0, buffndx < 0x06, buffndx++)
 4246              		.loc 1 1109 0
 4247 013e 0023     		movs	r3, #0
 4248 0140 87F82530 		strb	r3, [r7, #37]
 4249 0144 1DE0     		b	.L150
 4250              	.L151:
1110:.\AdvantageImpl.c ****                         puartdisp->_messagetx[index++] = (0xE0 | (ptr[7 - buffndx] & 0x0F)); //Tran
 4251              		.loc 1 1110 0 discriminator 3
 4252 0146 97F82730 		ldrb	r3, [r7, #39]	@ zero_extendqisi2
 4253 014a 5A1C     		adds	r2, r3, #1
 4254 014c 87F82720 		strb	r2, [r7, #39]
 4255 0150 1946     		mov	r1, r3
 4256 0152 97F82530 		ldrb	r3, [r7, #37]	@ zero_extendqisi2
 4257 0156 C3F10703 		rsb	r3, r3, #7
 4258 015a 1A46     		mov	r2, r3
 4259 015c 7B69     		ldr	r3, [r7, #20]
 4260 015e 1344     		add	r3, r3, r2
 4261 0160 1B78     		ldrb	r3, [r3]	@ zero_extendqisi2
 4262 0162 DBB2     		uxtb	r3, r3
 4263 0164 03F00F03 		and	r3, r3, #15
 4264 0168 DBB2     		uxtb	r3, r3
 4265 016a 63F01F03 		orn	r3, r3, #31
 4266 016e DBB2     		uxtb	r3, r3
 4267 0170 DAB2     		uxtb	r2, r3
 4268 0172 FB69     		ldr	r3, [r7, #28]
 4269 0174 0B44     		add	r3, r3, r1
 4270 0176 1A71     		strb	r2, [r3, #4]
1109:.\AdvantageImpl.c ****                         puartdisp->_messagetx[index++] = (0xE0 | (ptr[7 - buffndx] & 0x0F)); //Tran
 4271              		.loc 1 1109 0 discriminator 3
 4272 0178 97F82530 		ldrb	r3, [r7, #37]	@ zero_extendqisi2
 4273 017c 0133     		adds	r3, r3, #1
 4274 017e 87F82530 		strb	r3, [r7, #37]
 4275              	.L150:
1109:.\AdvantageImpl.c ****                         puartdisp->_messagetx[index++] = (0xE0 | (ptr[7 - buffndx] & 0x0F)); //Tran
 4276              		.loc 1 1109 0 is_stmt 0 discriminator 1
 4277 0182 97F82530 		ldrb	r3, [r7, #37]	@ zero_extendqisi2
 4278 0186 052B     		cmp	r3, #5
 4279 0188 DDD9     		bls	.L151
 4280              	.L147:
 4281              	.LBE27:
 4282              	.LBE25:
 4283 018a 67E0     		b	.L152
 4284              	.L139:
1111:.\AdvantageImpl.c ****                 }
1112:.\AdvantageImpl.c ****             }
1113:.\AdvantageImpl.c ****             else if(_g_dispenserlayoutinfo._displaydigitsmode == 0x07)
 4285              		.loc 1 1113 0 is_stmt 1
 4286 018c 4C4B     		ldr	r3, .L160
ARM GAS  C:\Users\RECEPC~1\AppData\Local\Temp\ccZZcwiB.s 			page 96


 4287 018e 1B7C     		ldrb	r3, [r3, #16]	@ zero_extendqisi2
 4288 0190 072B     		cmp	r3, #7
 4289 0192 63D1     		bne	.L152
 4290              	.LBB28:
1114:.\AdvantageImpl.c ****             {
1115:.\AdvantageImpl.c ****                 puartdisp->_messagetx[index++] = 0xE3;
 4291              		.loc 1 1115 0
 4292 0194 97F82730 		ldrb	r3, [r7, #39]	@ zero_extendqisi2
 4293 0198 5A1C     		adds	r2, r3, #1
 4294 019a 87F82720 		strb	r2, [r7, #39]
 4295 019e 1A46     		mov	r2, r3
 4296 01a0 FB69     		ldr	r3, [r7, #28]
 4297 01a2 1344     		add	r3, r3, r2
 4298 01a4 E322     		movs	r2, #227
 4299 01a6 1A71     		strb	r2, [r3, #4]
1116:.\AdvantageImpl.c **** 
1117:.\AdvantageImpl.c ****                 ///THIS IS AN APPLIED CONVENTION ===>> 0x0004 INDEX POSITION WITHIN THE PUMP'S BUFF
1118:.\AdvantageImpl.c ****                 ///THESE CODES MUST BE MATCHED OTHERWISE THE LOGIC WILL BREAKUP THE CODE!
1119:.\AdvantageImpl.c ****                 uint8 transtype = (0xF0 | ((ppump->_trasactionbuffer[0x0004] == 0x0F)? 0x02: 0x01))
 4300              		.loc 1 1119 0
 4301 01a8 3B6A     		ldr	r3, [r7, #32]
 4302 01aa 93F82430 		ldrb	r3, [r3, #36]	@ zero_extendqisi2
 4303 01ae 0F2B     		cmp	r3, #15
 4304 01b0 01D1     		bne	.L153
 4305              		.loc 1 1119 0 is_stmt 0 discriminator 1
 4306 01b2 F223     		movs	r3, #242
 4307 01b4 00E0     		b	.L154
 4308              	.L153:
 4309              		.loc 1 1119 0 discriminator 2
 4310 01b6 F123     		movs	r3, #241
 4311              	.L154:
 4312              		.loc 1 1119 0 discriminator 4
 4313 01b8 FB74     		strb	r3, [r7, #19]
1120:.\AdvantageImpl.c ****                 puartdisp->_messagetx[index++] = transtype;
 4314              		.loc 1 1120 0 is_stmt 1 discriminator 4
 4315 01ba 97F82730 		ldrb	r3, [r7, #39]	@ zero_extendqisi2
 4316 01be 5A1C     		adds	r2, r3, #1
 4317 01c0 87F82720 		strb	r2, [r7, #39]
 4318 01c4 1A46     		mov	r2, r3
 4319 01c6 FB69     		ldr	r3, [r7, #28]
 4320 01c8 1344     		add	r3, r3, r2
 4321 01ca FA7C     		ldrb	r2, [r7, #19]
 4322 01cc 1A71     		strb	r2, [r3, #4]
1121:.\AdvantageImpl.c ****                             
1122:.\AdvantageImpl.c ****                 puartdisp->_messagetx[index++] = 0xF8; //Preset Data next
 4323              		.loc 1 1122 0 discriminator 4
 4324 01ce 97F82730 		ldrb	r3, [r7, #39]	@ zero_extendqisi2
 4325 01d2 5A1C     		adds	r2, r3, #1
 4326 01d4 87F82720 		strb	r2, [r7, #39]
 4327 01d8 1A46     		mov	r2, r3
 4328 01da FB69     		ldr	r3, [r7, #28]
 4329 01dc 1344     		add	r3, r3, r2
 4330 01de F822     		movs	r2, #248
 4331 01e0 1A71     		strb	r2, [r3, #4]
1123:.\AdvantageImpl.c ****                 //Here we copy the remaining 8 bytes for the preset value
1124:.\AdvantageImpl.c ****                 ///THIS IS AN APPLIED CONVENTION ===>> 0x0008 INDEX POSITION WITHIN THE PUMP'S BUFF
1125:.\AdvantageImpl.c ****                 ///THESE CODES MUST BE MATCHED OTHERWISE THE LOGIC WILL BREAKUP THE CODE!
ARM GAS  C:\Users\RECEPC~1\AppData\Local\Temp\ccZZcwiB.s 			page 97


1126:.\AdvantageImpl.c ****                 char8 *ptr = &ppump->_trasactionbuffer[0x0008];
 4332              		.loc 1 1126 0 discriminator 4
 4333 01e2 3B6A     		ldr	r3, [r7, #32]
 4334 01e4 2833     		adds	r3, r3, #40
 4335 01e6 FB60     		str	r3, [r7, #12]
1127:.\AdvantageImpl.c ****                 if(transtype == 0xF1) //Volume PRESET, then multiply by 1000
 4336              		.loc 1 1127 0 discriminator 4
 4337 01e8 FB7C     		ldrb	r3, [r7, #19]	@ zero_extendqisi2
 4338 01ea F12B     		cmp	r3, #241
 4339 01ec 04D1     		bne	.L155
1128:.\AdvantageImpl.c ****                     CastVolumeValue(ptr, 0x08);
 4340              		.loc 1 1128 0
 4341 01ee F868     		ldr	r0, [r7, #12]
 4342 01f0 0821     		movs	r1, #8
 4343 01f2 FFF7FEFF 		bl	CastVolumeValue
 4344 01f6 0BE0     		b	.L156
 4345              	.L155:
1129:.\AdvantageImpl.c ****                 else if(!(_g_dispenserlayoutinfo._moneydecimals == 0x03 && _g_dispenserlayoutinfo._
 4346              		.loc 1 1129 0
 4347 01f8 314B     		ldr	r3, .L160
 4348 01fa DB79     		ldrb	r3, [r3, #7]	@ zero_extendqisi2
 4349 01fc 032B     		cmp	r3, #3
 4350 01fe 03D1     		bne	.L157
 4351              		.loc 1 1129 0 is_stmt 0 discriminator 1
 4352 0200 2F4B     		ldr	r3, .L160
 4353 0202 1B7A     		ldrb	r3, [r3, #8]	@ zero_extendqisi2
 4354 0204 022B     		cmp	r3, #2
 4355 0206 03D0     		beq	.L156
 4356              	.L157:
1130:.\AdvantageImpl.c ****                     CastMoneyValue(ptr, 0x08);
 4357              		.loc 1 1130 0 is_stmt 1
 4358 0208 F868     		ldr	r0, [r7, #12]
 4359 020a 0821     		movs	r1, #8
 4360 020c FFF7FEFF 		bl	CastMoneyValue
 4361              	.L156:
1131:.\AdvantageImpl.c ****                 
1132:.\AdvantageImpl.c ****                 FOR(uint8 buffndx = 0, buffndx < 0x08, buffndx++)
 4362              		.loc 1 1132 0
 4363 0210 0023     		movs	r3, #0
 4364 0212 87F82430 		strb	r3, [r7, #36]
 4365 0216 1DE0     		b	.L158
 4366              	.L159:
1133:.\AdvantageImpl.c ****                     puartdisp->_messagetx[index++] = (0xE0 | (ptr[7 - buffndx] & 0x0F)); //Translat
 4367              		.loc 1 1133 0 discriminator 3
 4368 0218 97F82730 		ldrb	r3, [r7, #39]	@ zero_extendqisi2
 4369 021c 5A1C     		adds	r2, r3, #1
 4370 021e 87F82720 		strb	r2, [r7, #39]
 4371 0222 1946     		mov	r1, r3
 4372 0224 97F82430 		ldrb	r3, [r7, #36]	@ zero_extendqisi2
 4373 0228 C3F10703 		rsb	r3, r3, #7
 4374 022c 1A46     		mov	r2, r3
 4375 022e FB68     		ldr	r3, [r7, #12]
 4376 0230 1344     		add	r3, r3, r2
 4377 0232 1B78     		ldrb	r3, [r3]	@ zero_extendqisi2
 4378 0234 DBB2     		uxtb	r3, r3
 4379 0236 03F00F03 		and	r3, r3, #15
 4380 023a DBB2     		uxtb	r3, r3
ARM GAS  C:\Users\RECEPC~1\AppData\Local\Temp\ccZZcwiB.s 			page 98


 4381 023c 63F01F03 		orn	r3, r3, #31
 4382 0240 DBB2     		uxtb	r3, r3
 4383 0242 DAB2     		uxtb	r2, r3
 4384 0244 FB69     		ldr	r3, [r7, #28]
 4385 0246 0B44     		add	r3, r3, r1
 4386 0248 1A71     		strb	r2, [r3, #4]
1132:.\AdvantageImpl.c ****                     puartdisp->_messagetx[index++] = (0xE0 | (ptr[7 - buffndx] & 0x0F)); //Translat
 4387              		.loc 1 1132 0 discriminator 3
 4388 024a 97F82430 		ldrb	r3, [r7, #36]	@ zero_extendqisi2
 4389 024e 0133     		adds	r3, r3, #1
 4390 0250 87F82430 		strb	r3, [r7, #36]
 4391              	.L158:
1132:.\AdvantageImpl.c ****                     puartdisp->_messagetx[index++] = (0xE0 | (ptr[7 - buffndx] & 0x0F)); //Translat
 4392              		.loc 1 1132 0 is_stmt 0 discriminator 1
 4393 0254 97F82430 		ldrb	r3, [r7, #36]	@ zero_extendqisi2
 4394 0258 072B     		cmp	r3, #7
 4395 025a DDD9     		bls	.L159
 4396              	.L152:
 4397              	.LBE28:
1134:.\AdvantageImpl.c ****             }
1135:.\AdvantageImpl.c ****             ppump->_presetdone = true;
 4398              		.loc 1 1135 0 is_stmt 1
 4399 025c 3B6A     		ldr	r3, [r7, #32]
 4400 025e 0122     		movs	r2, #1
 4401 0260 1A72     		strb	r2, [r3, #8]
1136:.\AdvantageImpl.c **** 
1137:.\AdvantageImpl.c ****             puartdisp->_messagetx[index++] = LRCn; //LRC next
 4402              		.loc 1 1137 0
 4403 0262 97F82730 		ldrb	r3, [r7, #39]	@ zero_extendqisi2
 4404 0266 5A1C     		adds	r2, r3, #1
 4405 0268 87F82720 		strb	r2, [r7, #39]
 4406 026c 1A46     		mov	r2, r3
 4407 026e FB69     		ldr	r3, [r7, #28]
 4408 0270 1344     		add	r3, r3, r2
 4409 0272 FB22     		movs	r2, #251
 4410 0274 1A71     		strb	r2, [r3, #4]
1138:.\AdvantageImpl.c ****             puartdisp->_messagetx[index++] = GetLRC(puartdisp->_messagetx);
 4411              		.loc 1 1138 0
 4412 0276 97F82730 		ldrb	r3, [r7, #39]	@ zero_extendqisi2
 4413 027a 5A1C     		adds	r2, r3, #1
 4414 027c 87F82720 		strb	r2, [r7, #39]
 4415 0280 1C46     		mov	r4, r3
 4416 0282 FB69     		ldr	r3, [r7, #28]
 4417 0284 0433     		adds	r3, r3, #4
 4418 0286 1846     		mov	r0, r3
 4419 0288 FFF7FEFF 		bl	GetLRC
 4420 028c 0346     		mov	r3, r0
 4421 028e 1A46     		mov	r2, r3
 4422 0290 FB69     		ldr	r3, [r7, #28]
 4423 0292 2344     		add	r3, r3, r4
 4424 0294 1A71     		strb	r2, [r3, #4]
1139:.\AdvantageImpl.c ****             puartdisp->_messagetx[index++] = EOM;
 4425              		.loc 1 1139 0
 4426 0296 97F82730 		ldrb	r3, [r7, #39]	@ zero_extendqisi2
 4427 029a 5A1C     		adds	r2, r3, #1
 4428 029c 87F82720 		strb	r2, [r7, #39]
 4429 02a0 1A46     		mov	r2, r3
ARM GAS  C:\Users\RECEPC~1\AppData\Local\Temp\ccZZcwiB.s 			page 99


 4430 02a2 FB69     		ldr	r3, [r7, #28]
 4431 02a4 1344     		add	r3, r3, r2
 4432 02a6 F022     		movs	r2, #240
 4433 02a8 1A71     		strb	r2, [r3, #4]
1140:.\AdvantageImpl.c **** ///////////////////////////////////////////////////////////////////////////////////////////////////
1141:.\AdvantageImpl.c ****             
1142:.\AdvantageImpl.c ****             puartdisp->_messagelength = index;
 4434              		.loc 1 1142 0
 4435 02aa 97F82730 		ldrb	r3, [r7, #39]	@ zero_extendqisi2
 4436 02ae 9AB2     		uxth	r2, r3
 4437 02b0 FB69     		ldr	r3, [r7, #28]
 4438 02b2 5A80     		strh	r2, [r3, #2]	@ movhi
1143:.\AdvantageImpl.c ****             puartdisp->_messagestate = PENDING;
 4439              		.loc 1 1143 0
 4440 02b4 FB69     		ldr	r3, [r7, #28]
 4441 02b6 C222     		movs	r2, #194
 4442 02b8 1A70     		strb	r2, [r3]
 4443              	.L137:
 4444              	.LBE24:
1144:.\AdvantageImpl.c ****         }
1145:.\AdvantageImpl.c ****     }
1146:.\AdvantageImpl.c ****     
1147:.\AdvantageImpl.c **** }
 4445              		.loc 1 1147 0
 4446 02ba 2C37     		adds	r7, r7, #44
 4447              		.cfi_def_cfa_offset 12
 4448 02bc BD46     		mov	sp, r7
 4449              		.cfi_def_cfa_register 13
 4450              		@ sp needed
 4451 02be 90BD     		pop	{r4, r7, pc}
 4452              	.L161:
 4453              		.align	2
 4454              	.L160:
 4455 02c0 00000000 		.word	_g_dispenserlayoutinfo
 4456              		.cfi_endproc
 4457              	.LFE80:
 4458              		.size	PumpPresetNoHose, .-PumpPresetNoHose
 4459              		.section	.text.PumpPresetNotification,"ax",%progbits
 4460              		.align	2
 4461              		.global	PumpPresetNotification
 4462              		.thumb
 4463              		.thumb_func
 4464              		.type	PumpPresetNotification, %function
 4465              	PumpPresetNotification:
 4466              	.LFB81:
1148:.\AdvantageImpl.c **** 
1149:.\AdvantageImpl.c **** //@Created By: HIJH
1150:.\AdvantageImpl.c **** //@Septembre de 2016
1151:.\AdvantageImpl.c **** //Message to be notified to the remote peer (NSX)
1152:.\AdvantageImpl.c **** void PumpPresetNotification(LPVOID pparam)
1153:.\AdvantageImpl.c **** {
 4467              		.loc 1 1153 0
 4468              		.cfi_startproc
 4469              		@ args = 0, pretend = 0, frame = 24
 4470              		@ frame_needed = 1, uses_anonymous_args = 0
 4471 0000 B0B5     		push	{r4, r5, r7, lr}
 4472              		.cfi_def_cfa_offset 16
ARM GAS  C:\Users\RECEPC~1\AppData\Local\Temp\ccZZcwiB.s 			page 100


 4473              		.cfi_offset 4, -16
 4474              		.cfi_offset 5, -12
 4475              		.cfi_offset 7, -8
 4476              		.cfi_offset 14, -4
 4477 0002 86B0     		sub	sp, sp, #24
 4478              		.cfi_def_cfa_offset 40
 4479 0004 00AF     		add	r7, sp, #0
 4480              		.cfi_def_cfa_register 7
 4481 0006 7860     		str	r0, [r7, #4]
1154:.\AdvantageImpl.c ****     PPUMPTRANSACTIONJOBCONTEXTPTR pjob = (PPUMPTRANSACTIONJOBCONTEXTPTR)pparam;
 4482              		.loc 1 1154 0
 4483 0008 7B68     		ldr	r3, [r7, #4]
 4484 000a 7B61     		str	r3, [r7, #20]
1155:.\AdvantageImpl.c ****     if(pjob)
 4485              		.loc 1 1155 0
 4486 000c 7B69     		ldr	r3, [r7, #20]
 4487 000e 002B     		cmp	r3, #0
 4488 0010 00F0DE80 		beq	.L162
 4489              	.LBB29:
1156:.\AdvantageImpl.c ****     {
1157:.\AdvantageImpl.c ****         //HERE WE ATTEMPT TO PUSH THE TRANSACTION INTO THE PUMP'S TRANSACTIONAL QUEUE.
1158:.\AdvantageImpl.c ****         //THIS IS DONE ONLY IF THERE IS ROOM IN THE QUEUE, OTHERWISE THIS STATE WON'T
1159:.\AdvantageImpl.c ****         //BE REPORTED TO THE REMOTE PEER.
1160:.\AdvantageImpl.c ****         pjob->_ppump->PumpTransQueueLock(pjob->_ppump);
 4490              		.loc 1 1160 0
 4491 0014 7B69     		ldr	r3, [r7, #20]
 4492 0016 DB69     		ldr	r3, [r3, #28]
 4493 0018 D3F83C39 		ldr	r3, [r3, #2364]
 4494 001c 7A69     		ldr	r2, [r7, #20]
 4495 001e D269     		ldr	r2, [r2, #28]
 4496 0020 1046     		mov	r0, r2
 4497 0022 9847     		blx	r3
1161:.\AdvantageImpl.c ****         PNEAR_PUMPTRANSACTIONALSTATEPTR pts = pjob->_ppump->PumpTransQueueAllocate(pjob->_ppump);
 4498              		.loc 1 1161 0
 4499 0024 7B69     		ldr	r3, [r7, #20]
 4500 0026 DB69     		ldr	r3, [r3, #28]
 4501 0028 D3F85039 		ldr	r3, [r3, #2384]
 4502 002c 7A69     		ldr	r2, [r7, #20]
 4503 002e D269     		ldr	r2, [r2, #28]
 4504 0030 1046     		mov	r0, r2
 4505 0032 9847     		blx	r3
 4506 0034 3861     		str	r0, [r7, #16]
1162:.\AdvantageImpl.c ****         pjob->_ppump->PumpTransQueueUnlock(pjob->_ppump);
 4507              		.loc 1 1162 0
 4508 0036 7B69     		ldr	r3, [r7, #20]
 4509 0038 DB69     		ldr	r3, [r3, #28]
 4510 003a D3F84039 		ldr	r3, [r3, #2368]
 4511 003e 7A69     		ldr	r2, [r7, #20]
 4512 0040 D269     		ldr	r2, [r2, #28]
 4513 0042 1046     		mov	r0, r2
 4514 0044 9847     		blx	r3
1163:.\AdvantageImpl.c ****         if(pts)
 4515              		.loc 1 1163 0
 4516 0046 3B69     		ldr	r3, [r7, #16]
 4517 0048 002B     		cmp	r3, #0
 4518 004a 00F0C180 		beq	.L162
 4519              	.LBB30:
ARM GAS  C:\Users\RECEPC~1\AppData\Local\Temp\ccZZcwiB.s 			page 101


1164:.\AdvantageImpl.c ****         {
1165:.\AdvantageImpl.c ****             uint8 index = 0;
 4520              		.loc 1 1165 0
 4521 004e 0023     		movs	r3, #0
 4522 0050 FB73     		strb	r3, [r7, #15]
1166:.\AdvantageImpl.c ****             pts->_transtate = RF_MUX_CASH_SALE_START_REQUEST;
 4523              		.loc 1 1166 0
 4524 0052 3B69     		ldr	r3, [r7, #16]
 4525 0054 AA22     		movs	r2, #170
 4526 0056 5A70     		strb	r2, [r3, #1]
1167:.\AdvantageImpl.c ****             //Pump ID always comes in position 0x00
1168:.\AdvantageImpl.c ****             pts->_buffer[index++] = pjob->_ppump->_pumpid;
 4527              		.loc 1 1168 0
 4528 0058 FB7B     		ldrb	r3, [r7, #15]	@ zero_extendqisi2
 4529 005a 5A1C     		adds	r2, r3, #1
 4530 005c FA73     		strb	r2, [r7, #15]
 4531 005e 1946     		mov	r1, r3
 4532 0060 7B69     		ldr	r3, [r7, #20]
 4533 0062 DB69     		ldr	r3, [r3, #28]
 4534 0064 1A78     		ldrb	r2, [r3]	@ zero_extendqisi2
 4535 0066 3B69     		ldr	r3, [r7, #16]
 4536 0068 0B44     		add	r3, r3, r1
 4537 006a 9A70     		strb	r2, [r3, #2]
1169:.\AdvantageImpl.c ****             //PRESET type
1170:.\AdvantageImpl.c ****             pts->_buffer[index++] = (0xF0 | ((pjob->_ppump->_trasactionbuffer[0x0004] == 0x0F)? 0x0
 4538              		.loc 1 1170 0
 4539 006c FB7B     		ldrb	r3, [r7, #15]	@ zero_extendqisi2
 4540 006e 5A1C     		adds	r2, r3, #1
 4541 0070 FA73     		strb	r2, [r7, #15]
 4542 0072 1946     		mov	r1, r3
 4543 0074 7B69     		ldr	r3, [r7, #20]
 4544 0076 DB69     		ldr	r3, [r3, #28]
 4545 0078 93F82430 		ldrb	r3, [r3, #36]	@ zero_extendqisi2
 4546 007c 0F2B     		cmp	r3, #15
 4547 007e 01D1     		bne	.L164
 4548              		.loc 1 1170 0 is_stmt 0 discriminator 1
 4549 0080 F222     		movs	r2, #242
 4550 0082 00E0     		b	.L165
 4551              	.L164:
 4552              		.loc 1 1170 0 discriminator 2
 4553 0084 F122     		movs	r2, #241
 4554              	.L165:
 4555              		.loc 1 1170 0 discriminator 4
 4556 0086 3B69     		ldr	r3, [r7, #16]
 4557 0088 0B44     		add	r3, r3, r1
 4558 008a 9A70     		strb	r2, [r3, #2]
1171:.\AdvantageImpl.c ****             
1172:.\AdvantageImpl.c ****             //Entering here means that volume preset was chosen and since this is a 6-6-4 dispenser
1173:.\AdvantageImpl.c ****             if(pjob->_ppump->_trasactionbuffer[0x0004] == 0x10)
 4559              		.loc 1 1173 0 is_stmt 1 discriminator 4
 4560 008c 7B69     		ldr	r3, [r7, #20]
 4561 008e DB69     		ldr	r3, [r3, #28]
 4562 0090 93F82430 		ldrb	r3, [r3, #36]	@ zero_extendqisi2
 4563 0094 102B     		cmp	r3, #16
 4564 0096 28D1     		bne	.L166
 4565              	.LBB31:
1174:.\AdvantageImpl.c ****             {
ARM GAS  C:\Users\RECEPC~1\AppData\Local\Temp\ccZZcwiB.s 			page 102


1175:.\AdvantageImpl.c ****                 PSTRBUFFTOGG(PBYTECAST(&pjob->_ppump->_trasactionbuffer[0x0008]), 0x08);
 4566              		.loc 1 1175 0
 4567 0098 7B69     		ldr	r3, [r7, #20]
 4568 009a DB69     		ldr	r3, [r3, #28]
 4569 009c 2833     		adds	r3, r3, #40
 4570 009e 1846     		mov	r0, r3
 4571 00a0 0821     		movs	r1, #8
 4572 00a2 FFF7FEFF 		bl	PSTRBUFFTOGG
1176:.\AdvantageImpl.c ****                 uint32 volumeamount = LSDBCDBUFF2HEX(PBYTECAST(&pjob->_ppump->_trasactionbuffer[0x0
 4573              		.loc 1 1176 0
 4574 00a6 7B69     		ldr	r3, [r7, #20]
 4575 00a8 DB69     		ldr	r3, [r3, #28]
 4576 00aa 2833     		adds	r3, r3, #40
 4577 00ac 1846     		mov	r0, r3
 4578 00ae 0821     		movs	r1, #8
 4579 00b0 FFF7FEFF 		bl	LSDBCDBUFF2HEX
 4580 00b4 B860     		str	r0, [r7, #8]
1177:.\AdvantageImpl.c ****                 memset(PBYTECAST(&pjob->_ppump->_trasactionbuffer[0x0008]), 0x00, 0x08);
 4581              		.loc 1 1177 0
 4582 00b6 7B69     		ldr	r3, [r7, #20]
 4583 00b8 DB69     		ldr	r3, [r3, #28]
 4584 00ba 2833     		adds	r3, r3, #40
 4585 00bc 1846     		mov	r0, r3
 4586 00be 0021     		movs	r1, #0
 4587 00c0 0822     		movs	r2, #8
 4588 00c2 FFF7FEFF 		bl	memset
1178:.\AdvantageImpl.c ****                 B78AD90CF552D9B30A(volumeamount * 10, PBYTECAST(&pjob->_ppump->_trasactionbuffer[0x
 4589              		.loc 1 1178 0
 4590 00c6 BA68     		ldr	r2, [r7, #8]
 4591 00c8 1346     		mov	r3, r2
 4592 00ca 9B00     		lsls	r3, r3, #2
 4593 00cc 1344     		add	r3, r3, r2
 4594 00ce 5B00     		lsls	r3, r3, #1
 4595 00d0 1A46     		mov	r2, r3
 4596 00d2 4FF00003 		mov	r3, #0
 4597 00d6 7969     		ldr	r1, [r7, #20]
 4598 00d8 C969     		ldr	r1, [r1, #28]
 4599 00da 01F12804 		add	r4, r1, #40
 4600 00de 1046     		mov	r0, r2
 4601 00e0 1946     		mov	r1, r3
 4602 00e2 2246     		mov	r2, r4
 4603 00e4 FFF7FEFF 		bl	B78AD90CF552D9B30A
 4604              	.LBE31:
 4605 00e8 06E0     		b	.L167
 4606              	.L166:
1179:.\AdvantageImpl.c ****             }else//Money PRESET
1180:.\AdvantageImpl.c ****                 PSTRBUFFTOGG(PBYTECAST(&pjob->_ppump->_trasactionbuffer[0x0008]), 0x08);
 4607              		.loc 1 1180 0
 4608 00ea 7B69     		ldr	r3, [r7, #20]
 4609 00ec DB69     		ldr	r3, [r3, #28]
 4610 00ee 2833     		adds	r3, r3, #40
 4611 00f0 1846     		mov	r0, r3
 4612 00f2 0821     		movs	r1, #8
 4613 00f4 FFF7FEFF 		bl	PSTRBUFFTOGG
 4614              	.L167:
1181:.\AdvantageImpl.c ****                 
1182:.\AdvantageImpl.c ****             memcpy(&pts->_buffer[index], &pjob->_ppump->_trasactionbuffer[0x0008], 0x08);
ARM GAS  C:\Users\RECEPC~1\AppData\Local\Temp\ccZZcwiB.s 			page 103


 4615              		.loc 1 1182 0
 4616 00f8 FB7B     		ldrb	r3, [r7, #15]	@ zero_extendqisi2
 4617 00fa 3A69     		ldr	r2, [r7, #16]
 4618 00fc 1344     		add	r3, r3, r2
 4619 00fe 9A1C     		adds	r2, r3, #2
 4620 0100 7B69     		ldr	r3, [r7, #20]
 4621 0102 DB69     		ldr	r3, [r3, #28]
 4622 0104 2833     		adds	r3, r3, #40
 4623 0106 1046     		mov	r0, r2
 4624 0108 1946     		mov	r1, r3
 4625 010a 0822     		movs	r2, #8
 4626 010c FFF7FEFF 		bl	memcpy
1183:.\AdvantageImpl.c ****             index += 0x08;
 4627              		.loc 1 1183 0
 4628 0110 FB7B     		ldrb	r3, [r7, #15]
 4629 0112 0833     		adds	r3, r3, #8
 4630 0114 FB73     		strb	r3, [r7, #15]
1184:.\AdvantageImpl.c ****             //Car's Plate
1185:.\AdvantageImpl.c ****             memcpy(&pts->_buffer[index], &pjob->_ppump->_trasactionbuffer[GetBufferIndexFromDisplay
 4631              		.loc 1 1185 0
 4632 0116 FB7B     		ldrb	r3, [r7, #15]	@ zero_extendqisi2
 4633 0118 3A69     		ldr	r2, [r7, #16]
 4634 011a 1344     		add	r3, r3, r2
 4635 011c 9D1C     		adds	r5, r3, #2
 4636 011e 7B69     		ldr	r3, [r7, #20]
 4637 0120 DC69     		ldr	r4, [r3, #28]
 4638 0122 0A20     		movs	r0, #10
 4639 0124 FFF7FEFF 		bl	GetBufferIndexFromDisplayID
 4640 0128 0346     		mov	r3, r0
 4641 012a 2033     		adds	r3, r3, #32
 4642 012c 1C44     		add	r4, r4, r3
 4643 012e 0A20     		movs	r0, #10
 4644 0130 FFF7FEFF 		bl	GetBufferLengthFromDisplayID
 4645 0134 0346     		mov	r3, r0
 4646 0136 2846     		mov	r0, r5
 4647 0138 2146     		mov	r1, r4
 4648 013a 1A46     		mov	r2, r3
 4649 013c FFF7FEFF 		bl	memcpy
1186:.\AdvantageImpl.c ****             index += GetBufferLengthFromDisplayID(DISPLAY_DIGITE_PLACA);
 4650              		.loc 1 1186 0
 4651 0140 0A20     		movs	r0, #10
 4652 0142 FFF7FEFF 		bl	GetBufferLengthFromDisplayID
 4653 0146 0346     		mov	r3, r0
 4654 0148 1A46     		mov	r2, r3
 4655 014a FB7B     		ldrb	r3, [r7, #15]
 4656 014c 1344     		add	r3, r3, r2
 4657 014e FB73     		strb	r3, [r7, #15]
1187:.\AdvantageImpl.c ****             pts->_buffer[index] = index;
 4658              		.loc 1 1187 0
 4659 0150 FB7B     		ldrb	r3, [r7, #15]	@ zero_extendqisi2
 4660 0152 3A69     		ldr	r2, [r7, #16]
 4661 0154 1344     		add	r3, r3, r2
 4662 0156 FA7B     		ldrb	r2, [r7, #15]
 4663 0158 9A70     		strb	r2, [r3, #2]
1188:.\AdvantageImpl.c ****             //Car's Milleage
1189:.\AdvantageImpl.c ****             memcpy(&pts->_buffer[index], &pjob->_ppump->_trasactionbuffer[GetBufferIndexFromDisplay
 4664              		.loc 1 1189 0
ARM GAS  C:\Users\RECEPC~1\AppData\Local\Temp\ccZZcwiB.s 			page 104


 4665 015a FB7B     		ldrb	r3, [r7, #15]	@ zero_extendqisi2
 4666 015c 3A69     		ldr	r2, [r7, #16]
 4667 015e 1344     		add	r3, r3, r2
 4668 0160 9D1C     		adds	r5, r3, #2
 4669 0162 7B69     		ldr	r3, [r7, #20]
 4670 0164 DC69     		ldr	r4, [r3, #28]
 4671 0166 0E20     		movs	r0, #14
 4672 0168 FFF7FEFF 		bl	GetBufferIndexFromDisplayID
 4673 016c 0346     		mov	r3, r0
 4674 016e 2033     		adds	r3, r3, #32
 4675 0170 1C44     		add	r4, r4, r3
 4676 0172 0E20     		movs	r0, #14
 4677 0174 FFF7FEFF 		bl	GetBufferLengthFromDisplayID
 4678 0178 0346     		mov	r3, r0
 4679 017a 2846     		mov	r0, r5
 4680 017c 2146     		mov	r1, r4
 4681 017e 1A46     		mov	r2, r3
 4682 0180 FFF7FEFF 		bl	memcpy
1190:.\AdvantageImpl.c ****             index += GetBufferLengthFromDisplayID(DISPLAY_INTRODUZCA_KILOMETRAJE);
 4683              		.loc 1 1190 0
 4684 0184 0E20     		movs	r0, #14
 4685 0186 FFF7FEFF 		bl	GetBufferLengthFromDisplayID
 4686 018a 0346     		mov	r3, r0
 4687 018c 1A46     		mov	r2, r3
 4688 018e FB7B     		ldrb	r3, [r7, #15]
 4689 0190 1344     		add	r3, r3, r2
 4690 0192 FB73     		strb	r3, [r7, #15]
1191:.\AdvantageImpl.c ****             
1192:.\AdvantageImpl.c ****             pts->_buffersize = index;
 4691              		.loc 1 1192 0
 4692 0194 FB7B     		ldrb	r3, [r7, #15]	@ zero_extendqisi2
 4693 0196 9AB2     		uxth	r2, r3
 4694 0198 3B69     		ldr	r3, [r7, #16]
 4695 019a A3F80221 		strh	r2, [r3, #258]	@ movhi
1193:.\AdvantageImpl.c ****             
1194:.\AdvantageImpl.c ****             pjob->_ppump->PumpTransQueueLock(pjob->_ppump);
 4696              		.loc 1 1194 0
 4697 019e 7B69     		ldr	r3, [r7, #20]
 4698 01a0 DB69     		ldr	r3, [r3, #28]
 4699 01a2 D3F83C39 		ldr	r3, [r3, #2364]
 4700 01a6 7A69     		ldr	r2, [r7, #20]
 4701 01a8 D269     		ldr	r2, [r2, #28]
 4702 01aa 1046     		mov	r0, r2
 4703 01ac 9847     		blx	r3
1195:.\AdvantageImpl.c ****             pjob->_ppump->PumpTransQueueEnqueue(pjob->_ppump, pts);
 4704              		.loc 1 1195 0
 4705 01ae 7B69     		ldr	r3, [r7, #20]
 4706 01b0 DB69     		ldr	r3, [r3, #28]
 4707 01b2 D3F84839 		ldr	r3, [r3, #2376]
 4708 01b6 7A69     		ldr	r2, [r7, #20]
 4709 01b8 D269     		ldr	r2, [r2, #28]
 4710 01ba 1046     		mov	r0, r2
 4711 01bc 3969     		ldr	r1, [r7, #16]
 4712 01be 9847     		blx	r3
1196:.\AdvantageImpl.c ****             pjob->_ppump->PumpTransQueueUnlock(pjob->_ppump);
 4713              		.loc 1 1196 0
 4714 01c0 7B69     		ldr	r3, [r7, #20]
ARM GAS  C:\Users\RECEPC~1\AppData\Local\Temp\ccZZcwiB.s 			page 105


 4715 01c2 DB69     		ldr	r3, [r3, #28]
 4716 01c4 D3F84039 		ldr	r3, [r3, #2368]
 4717 01c8 7A69     		ldr	r2, [r7, #20]
 4718 01ca D269     		ldr	r2, [r2, #28]
 4719 01cc 1046     		mov	r0, r2
 4720 01ce 9847     		blx	r3
 4721              	.L162:
 4722              	.LBE30:
 4723              	.LBE29:
1197:.\AdvantageImpl.c ****         }
1198:.\AdvantageImpl.c ****     }
1199:.\AdvantageImpl.c **** }
 4724              		.loc 1 1199 0
 4725 01d0 1837     		adds	r7, r7, #24
 4726              		.cfi_def_cfa_offset 16
 4727 01d2 BD46     		mov	sp, r7
 4728              		.cfi_def_cfa_register 13
 4729              		@ sp needed
 4730 01d4 B0BD     		pop	{r4, r5, r7, pc}
 4731              		.cfi_endproc
 4732              	.LFE81:
 4733              		.size	PumpPresetNotification, .-PumpPresetNotification
 4734 01d6 00BF     		.section	.text.PumpCreditPresetNotification,"ax",%progbits
 4735              		.align	2
 4736              		.global	PumpCreditPresetNotification
 4737              		.thumb
 4738              		.thumb_func
 4739              		.type	PumpCreditPresetNotification, %function
 4740              	PumpCreditPresetNotification:
 4741              	.LFB82:
1200:.\AdvantageImpl.c **** 
1201:.\AdvantageImpl.c **** 
1202:.\AdvantageImpl.c **** //@Created By: HIJH
1203:.\AdvantageImpl.c **** //@Septembre de 2016
1204:.\AdvantageImpl.c **** //Message to be notified to the remote peer (NSX)
1205:.\AdvantageImpl.c **** void PumpCreditPresetNotification(LPVOID pparam)
1206:.\AdvantageImpl.c **** {
 4742              		.loc 1 1206 0
 4743              		.cfi_startproc
 4744              		@ args = 0, pretend = 0, frame = 24
 4745              		@ frame_needed = 1, uses_anonymous_args = 0
 4746 0000 80B5     		push	{r7, lr}
 4747              		.cfi_def_cfa_offset 8
 4748              		.cfi_offset 7, -8
 4749              		.cfi_offset 14, -4
 4750 0002 86B0     		sub	sp, sp, #24
 4751              		.cfi_def_cfa_offset 32
 4752 0004 00AF     		add	r7, sp, #0
 4753              		.cfi_def_cfa_register 7
 4754 0006 7860     		str	r0, [r7, #4]
1207:.\AdvantageImpl.c ****     PPUMPTRANSACTIONJOBCONTEXTPTR pjob = (PPUMPTRANSACTIONJOBCONTEXTPTR)pparam;
 4755              		.loc 1 1207 0
 4756 0008 7B68     		ldr	r3, [r7, #4]
 4757 000a 7B61     		str	r3, [r7, #20]
1208:.\AdvantageImpl.c ****     if(pjob)
 4758              		.loc 1 1208 0
 4759 000c 7B69     		ldr	r3, [r7, #20]
ARM GAS  C:\Users\RECEPC~1\AppData\Local\Temp\ccZZcwiB.s 			page 106


 4760 000e 002B     		cmp	r3, #0
 4761 0010 48D0     		beq	.L168
 4762              	.LBB32:
1209:.\AdvantageImpl.c ****     {
1210:.\AdvantageImpl.c ****         //HERE WE ATTEMPT TO PUSH THE TRANSACTION INTO THE PUMP'S TRANSACTIONAL QUEUE.
1211:.\AdvantageImpl.c ****         //THIS IS DONE ONLY IF THERE IS ROOM IN THE QUEUE, OTHERWISE THIS STATE WON'T
1212:.\AdvantageImpl.c ****         //BE REPORTED TO THE REMOTE PEER.
1213:.\AdvantageImpl.c ****         pjob->_ppump->PumpTransQueueLock(pjob->_ppump);
 4763              		.loc 1 1213 0
 4764 0012 7B69     		ldr	r3, [r7, #20]
 4765 0014 DB69     		ldr	r3, [r3, #28]
 4766 0016 D3F83C39 		ldr	r3, [r3, #2364]
 4767 001a 7A69     		ldr	r2, [r7, #20]
 4768 001c D269     		ldr	r2, [r2, #28]
 4769 001e 1046     		mov	r0, r2
 4770 0020 9847     		blx	r3
1214:.\AdvantageImpl.c ****         PNEAR_PUMPTRANSACTIONALSTATEPTR pts = pjob->_ppump->PumpTransQueueAllocate(pjob->_ppump);
 4771              		.loc 1 1214 0
 4772 0022 7B69     		ldr	r3, [r7, #20]
 4773 0024 DB69     		ldr	r3, [r3, #28]
 4774 0026 D3F85039 		ldr	r3, [r3, #2384]
 4775 002a 7A69     		ldr	r2, [r7, #20]
 4776 002c D269     		ldr	r2, [r2, #28]
 4777 002e 1046     		mov	r0, r2
 4778 0030 9847     		blx	r3
 4779 0032 3861     		str	r0, [r7, #16]
1215:.\AdvantageImpl.c ****         pjob->_ppump->PumpTransQueueUnlock(pjob->_ppump);
 4780              		.loc 1 1215 0
 4781 0034 7B69     		ldr	r3, [r7, #20]
 4782 0036 DB69     		ldr	r3, [r3, #28]
 4783 0038 D3F84039 		ldr	r3, [r3, #2368]
 4784 003c 7A69     		ldr	r2, [r7, #20]
 4785 003e D269     		ldr	r2, [r2, #28]
 4786 0040 1046     		mov	r0, r2
 4787 0042 9847     		blx	r3
1216:.\AdvantageImpl.c ****         if(pts)
 4788              		.loc 1 1216 0
 4789 0044 3B69     		ldr	r3, [r7, #16]
 4790 0046 002B     		cmp	r3, #0
 4791 0048 2CD0     		beq	.L168
 4792              	.LBB33:
1217:.\AdvantageImpl.c ****         {
1218:.\AdvantageImpl.c ****             uint8 index = 0;
 4793              		.loc 1 1218 0
 4794 004a 0023     		movs	r3, #0
 4795 004c FB73     		strb	r3, [r7, #15]
1219:.\AdvantageImpl.c ****             pts->_transtate = RF_MUX_CREDIT_PRESET_NOTIFICATION_REQUEST;
 4796              		.loc 1 1219 0
 4797 004e 3B69     		ldr	r3, [r7, #16]
 4798 0050 AE22     		movs	r2, #174
 4799 0052 5A70     		strb	r2, [r3, #1]
1220:.\AdvantageImpl.c ****             //Pump ID always comes in position 0x00
1221:.\AdvantageImpl.c ****             pts->_buffer[index++] = pjob->_ppump->_pumpid;
 4800              		.loc 1 1221 0
 4801 0054 FB7B     		ldrb	r3, [r7, #15]	@ zero_extendqisi2
 4802 0056 5A1C     		adds	r2, r3, #1
 4803 0058 FA73     		strb	r2, [r7, #15]
ARM GAS  C:\Users\RECEPC~1\AppData\Local\Temp\ccZZcwiB.s 			page 107


 4804 005a 1946     		mov	r1, r3
 4805 005c 7B69     		ldr	r3, [r7, #20]
 4806 005e DB69     		ldr	r3, [r3, #28]
 4807 0060 1A78     		ldrb	r2, [r3]	@ zero_extendqisi2
 4808 0062 3B69     		ldr	r3, [r7, #16]
 4809 0064 0B44     		add	r3, r3, r1
 4810 0066 9A70     		strb	r2, [r3, #2]
1222:.\AdvantageImpl.c ****             pts->_buffersize = index;
 4811              		.loc 1 1222 0
 4812 0068 FB7B     		ldrb	r3, [r7, #15]	@ zero_extendqisi2
 4813 006a 9AB2     		uxth	r2, r3
 4814 006c 3B69     		ldr	r3, [r7, #16]
 4815 006e A3F80221 		strh	r2, [r3, #258]	@ movhi
1223:.\AdvantageImpl.c ****             
1224:.\AdvantageImpl.c ****             pjob->_ppump->PumpTransQueueLock(pjob->_ppump);
 4816              		.loc 1 1224 0
 4817 0072 7B69     		ldr	r3, [r7, #20]
 4818 0074 DB69     		ldr	r3, [r3, #28]
 4819 0076 D3F83C39 		ldr	r3, [r3, #2364]
 4820 007a 7A69     		ldr	r2, [r7, #20]
 4821 007c D269     		ldr	r2, [r2, #28]
 4822 007e 1046     		mov	r0, r2
 4823 0080 9847     		blx	r3
1225:.\AdvantageImpl.c ****             pjob->_ppump->PumpTransQueueEnqueue(pjob->_ppump, pts);
 4824              		.loc 1 1225 0
 4825 0082 7B69     		ldr	r3, [r7, #20]
 4826 0084 DB69     		ldr	r3, [r3, #28]
 4827 0086 D3F84839 		ldr	r3, [r3, #2376]
 4828 008a 7A69     		ldr	r2, [r7, #20]
 4829 008c D269     		ldr	r2, [r2, #28]
 4830 008e 1046     		mov	r0, r2
 4831 0090 3969     		ldr	r1, [r7, #16]
 4832 0092 9847     		blx	r3
1226:.\AdvantageImpl.c ****             pjob->_ppump->PumpTransQueueUnlock(pjob->_ppump);
 4833              		.loc 1 1226 0
 4834 0094 7B69     		ldr	r3, [r7, #20]
 4835 0096 DB69     		ldr	r3, [r3, #28]
 4836 0098 D3F84039 		ldr	r3, [r3, #2368]
 4837 009c 7A69     		ldr	r2, [r7, #20]
 4838 009e D269     		ldr	r2, [r2, #28]
 4839 00a0 1046     		mov	r0, r2
 4840 00a2 9847     		blx	r3
 4841              	.L168:
 4842              	.LBE33:
 4843              	.LBE32:
1227:.\AdvantageImpl.c ****         }
1228:.\AdvantageImpl.c ****     }
1229:.\AdvantageImpl.c **** }
 4844              		.loc 1 1229 0
 4845 00a4 1837     		adds	r7, r7, #24
 4846              		.cfi_def_cfa_offset 8
 4847 00a6 BD46     		mov	sp, r7
 4848              		.cfi_def_cfa_register 13
 4849              		@ sp needed
 4850 00a8 80BD     		pop	{r7, pc}
 4851              		.cfi_endproc
 4852              	.LFE82:
ARM GAS  C:\Users\RECEPC~1\AppData\Local\Temp\ccZZcwiB.s 			page 108


 4853              		.size	PumpCreditPresetNotification, .-PumpCreditPresetNotification
 4854 00aa 00BF     		.section	.text.PumpFullPresetHose,"ax",%progbits
 4855              		.align	2
 4856              		.global	PumpFullPresetHose
 4857              		.thumb
 4858              		.thumb_func
 4859              		.type	PumpFullPresetHose, %function
 4860              	PumpFullPresetHose:
 4861              	.LFB83:
1230:.\AdvantageImpl.c **** 
1231:.\AdvantageImpl.c **** //@Created By: HIJH
1232:.\AdvantageImpl.c **** //@Septembre de 2016
1233:.\AdvantageImpl.c **** ///////////////////////////////////////////////////////////////////////////////////////////////////
1234:.\AdvantageImpl.c **** //Preset values will be placed within the SinkMessage's buffer. This is a convention that applies t
1235:.\AdvantageImpl.c **** //all of the available transactions. The pump function must deal with this while it is assembling t
1236:.\AdvantageImpl.c **** //For this message the data comes as follows:
1237:.\AdvantageImpl.c **** // - First byte is the preset type (Volume:1 / Money:2 )
1238:.\AdvantageImpl.c **** // - Second byte is the Hose (A:0, B:1, C:2, D:3)
1239:.\AdvantageImpl.c **** // - Block of 8 bytes for the preset value
1240:.\AdvantageImpl.c **** //This block of data (10 bytes) must be moved to another position within the same buffer (even posi
1241:.\AdvantageImpl.c **** void PumpFullPresetHose(void *pparam)
1242:.\AdvantageImpl.c **** {
 4862              		.loc 1 1242 0
 4863              		.cfi_startproc
 4864              		@ args = 0, pretend = 0, frame = 40
 4865              		@ frame_needed = 1, uses_anonymous_args = 0
 4866 0000 90B5     		push	{r4, r7, lr}
 4867              		.cfi_def_cfa_offset 12
 4868              		.cfi_offset 4, -12
 4869              		.cfi_offset 7, -8
 4870              		.cfi_offset 14, -4
 4871 0002 8BB0     		sub	sp, sp, #44
 4872              		.cfi_def_cfa_offset 56
 4873 0004 00AF     		add	r7, sp, #0
 4874              		.cfi_def_cfa_register 7
 4875 0006 7860     		str	r0, [r7, #4]
1243:.\AdvantageImpl.c ****     PNEAR_PUMPPTR ppump = (PNEAR_PUMPPTR)pparam;
 4876              		.loc 1 1243 0
 4877 0008 7B68     		ldr	r3, [r7, #4]
 4878 000a 3B62     		str	r3, [r7, #32]
1244:.\AdvantageImpl.c ****     if(ppump)
 4879              		.loc 1 1244 0
 4880 000c 3B6A     		ldr	r3, [r7, #32]
 4881 000e 002B     		cmp	r3, #0
 4882 0010 00F08481 		beq	.L170
 4883              	.LBB34:
1245:.\AdvantageImpl.c ****     {
1246:.\AdvantageImpl.c ****         uint8_t index = 0;        
 4884              		.loc 1 1246 0
 4885 0014 0023     		movs	r3, #0
 4886 0016 87F82730 		strb	r3, [r7, #39]
1247:.\AdvantageImpl.c ****         PUARTMESSAGEPTR puartdisp = GetUARTMessageSlot(UART_DISPENSER);
 4887              		.loc 1 1247 0
 4888 001a A220     		movs	r0, #162
 4889 001c FFF7FEFF 		bl	GetUARTMessageSlot
 4890 0020 F861     		str	r0, [r7, #28]
1248:.\AdvantageImpl.c ****         memset(ppump->_rxbuffer, 0x00, _PUMP_RX_BUFFER_SIZE_);
ARM GAS  C:\Users\RECEPC~1\AppData\Local\Temp\ccZZcwiB.s 			page 109


 4891              		.loc 1 1248 0
 4892 0022 3B6A     		ldr	r3, [r7, #32]
 4893 0024 03F5D073 		add	r3, r3, #416
 4894 0028 1846     		mov	r0, r3
 4895 002a 0021     		movs	r1, #0
 4896 002c 4FF4C072 		mov	r2, #384
 4897 0030 FFF7FEFF 		bl	memset
1249:.\AdvantageImpl.c ****         if(puartdisp)
 4898              		.loc 1 1249 0
 4899 0034 FB69     		ldr	r3, [r7, #28]
 4900 0036 002B     		cmp	r3, #0
 4901 0038 00F07081 		beq	.L170
1250:.\AdvantageImpl.c ****         {
1251:.\AdvantageImpl.c **** ///////////////////////////////////////////////////////////////////////////////////////////////////
1252:.\AdvantageImpl.c ****             puartdisp->_messagetx[index++] = SOM;
 4902              		.loc 1 1252 0
 4903 003c 97F82730 		ldrb	r3, [r7, #39]	@ zero_extendqisi2
 4904 0040 5A1C     		adds	r2, r3, #1
 4905 0042 87F82720 		strb	r2, [r7, #39]
 4906 0046 1A46     		mov	r2, r3
 4907 0048 FB69     		ldr	r3, [r7, #28]
 4908 004a 1344     		add	r3, r3, r2
 4909 004c FF22     		movs	r2, #255
 4910 004e 1A71     		strb	r2, [r3, #4]
1253:.\AdvantageImpl.c ****             if(_g_dispenserlayoutinfo._displaydigitsmode == 0x06)
 4911              		.loc 1 1253 0
 4912 0050 B44B     		ldr	r3, .L184
 4913 0052 1B7C     		ldrb	r3, [r3, #16]	@ zero_extendqisi2
 4914 0054 062B     		cmp	r3, #6
 4915 0056 40F09780 		bne	.L172
 4916              	.LBB35:
1254:.\AdvantageImpl.c ****             {
1255:.\AdvantageImpl.c ****                 puartdisp->_messagetx[index++] = 0xE3;
 4917              		.loc 1 1255 0
 4918 005a 97F82730 		ldrb	r3, [r7, #39]	@ zero_extendqisi2
 4919 005e 5A1C     		adds	r2, r3, #1
 4920 0060 87F82720 		strb	r2, [r7, #39]
 4921 0064 1A46     		mov	r2, r3
 4922 0066 FB69     		ldr	r3, [r7, #28]
 4923 0068 1344     		add	r3, r3, r2
 4924 006a E322     		movs	r2, #227
 4925 006c 1A71     		strb	r2, [r3, #4]
1256:.\AdvantageImpl.c **** 
1257:.\AdvantageImpl.c ****                 ///THIS IS AN APPLIED CONVENTION ===>> 0x0004 INDEX POSITION WITHIN THE PUMP'S BUFF
1258:.\AdvantageImpl.c ****                 ///THESE CODES MUST BE MATCHED OTHERWISE THE LOGIC WILL BREAKUP THE CODE!
1259:.\AdvantageImpl.c ****                 uint8 transtype = 0xF1;//preset type (0xF2 = Money, 0xF1 = Volume)
 4926              		.loc 1 1259 0
 4927 006e F123     		movs	r3, #241
 4928 0070 FB76     		strb	r3, [r7, #27]
1260:.\AdvantageImpl.c ****                 puartdisp->_messagetx[index++] = transtype;//preset type (0xF2 = Money, 0xF1 = Volu
 4929              		.loc 1 1260 0
 4930 0072 97F82730 		ldrb	r3, [r7, #39]	@ zero_extendqisi2
 4931 0076 5A1C     		adds	r2, r3, #1
 4932 0078 87F82720 		strb	r2, [r7, #39]
 4933 007c 1A46     		mov	r2, r3
 4934 007e FB69     		ldr	r3, [r7, #28]
 4935 0080 1344     		add	r3, r3, r2
ARM GAS  C:\Users\RECEPC~1\AppData\Local\Temp\ccZZcwiB.s 			page 110


 4936 0082 FA7E     		ldrb	r2, [r7, #27]
 4937 0084 1A71     		strb	r2, [r3, #4]
1261:.\AdvantageImpl.c ****                 puartdisp->_messagetx[index++] = 0xF4;
 4938              		.loc 1 1261 0
 4939 0086 97F82730 		ldrb	r3, [r7, #39]	@ zero_extendqisi2
 4940 008a 5A1C     		adds	r2, r3, #1
 4941 008c 87F82720 		strb	r2, [r7, #39]
 4942 0090 1A46     		mov	r2, r3
 4943 0092 FB69     		ldr	r3, [r7, #28]
 4944 0094 1344     		add	r3, r3, r2
 4945 0096 F422     		movs	r2, #244
 4946 0098 1A71     		strb	r2, [r3, #4]
1262:.\AdvantageImpl.c ****                 puartdisp->_messagetx[index++] = 0xF6; //Hose Data next
 4947              		.loc 1 1262 0
 4948 009a 97F82730 		ldrb	r3, [r7, #39]	@ zero_extendqisi2
 4949 009e 5A1C     		adds	r2, r3, #1
 4950 00a0 87F82720 		strb	r2, [r7, #39]
 4951 00a4 1A46     		mov	r2, r3
 4952 00a6 FB69     		ldr	r3, [r7, #28]
 4953 00a8 1344     		add	r3, r3, r2
 4954 00aa F622     		movs	r2, #246
 4955 00ac 1A71     		strb	r2, [r3, #4]
1263:.\AdvantageImpl.c ****                 ///THIS IS AN APPLIED CONVENTION ===>> 0x0006 INDEX POSITION WITHIN THE PUMP'S BUFF
1264:.\AdvantageImpl.c ****                 ///THESE CODES MUST BE MATCHED OTHERWISE THE LOGIC WILL BREAKUP THE CODE!
1265:.\AdvantageImpl.c ****                 puartdisp->_messagetx[index++] = (0xE0 | (0x0F & ppump->_trasactionbuffer[GetBuffer
 4956              		.loc 1 1265 0
 4957 00ae 97F82730 		ldrb	r3, [r7, #39]	@ zero_extendqisi2
 4958 00b2 5A1C     		adds	r2, r3, #1
 4959 00b4 87F82720 		strb	r2, [r7, #39]
 4960 00b8 1C46     		mov	r4, r3
 4961 00ba 0720     		movs	r0, #7
 4962 00bc FFF7FEFF 		bl	GetBufferIndexFromDisplayID
 4963 00c0 0346     		mov	r3, r0
 4964 00c2 1A46     		mov	r2, r3
 4965 00c4 3B6A     		ldr	r3, [r7, #32]
 4966 00c6 1344     		add	r3, r3, r2
 4967 00c8 93F82030 		ldrb	r3, [r3, #32]	@ zero_extendqisi2
 4968 00cc 03F00F03 		and	r3, r3, #15
 4969 00d0 DBB2     		uxtb	r3, r3
 4970 00d2 63F01F03 		orn	r3, r3, #31
 4971 00d6 DAB2     		uxtb	r2, r3
 4972 00d8 FB69     		ldr	r3, [r7, #28]
 4973 00da 2344     		add	r3, r3, r4
 4974 00dc 1A71     		strb	r2, [r3, #4]
1266:.\AdvantageImpl.c ****                 
1267:.\AdvantageImpl.c ****                 puartdisp->_messagetx[index++] = 0xF8; //Preset Data next
 4975              		.loc 1 1267 0
 4976 00de 97F82730 		ldrb	r3, [r7, #39]	@ zero_extendqisi2
 4977 00e2 5A1C     		adds	r2, r3, #1
 4978 00e4 87F82720 		strb	r2, [r7, #39]
 4979 00e8 1A46     		mov	r2, r3
 4980 00ea FB69     		ldr	r3, [r7, #28]
 4981 00ec 1344     		add	r3, r3, r2
 4982 00ee F822     		movs	r2, #248
 4983 00f0 1A71     		strb	r2, [r3, #4]
1268:.\AdvantageImpl.c ****                 //Here we copy the remaining 8 bytes for the preset value
1269:.\AdvantageImpl.c ****                 ///THIS IS AN APPLIED CONVENTION ===>> 0x0008 INDEX POSITION WITHIN THE PUMP'S BUFF
ARM GAS  C:\Users\RECEPC~1\AppData\Local\Temp\ccZZcwiB.s 			page 111


1270:.\AdvantageImpl.c ****                 ///THESE CODES MUST BE MATCHED OTHERWISE THE LOGIC WILL BREAKUP THE CODE!
1271:.\AdvantageImpl.c ****                 char8 *ptr = &ppump->_trasactionbuffer[0x0008];
 4984              		.loc 1 1271 0
 4985 00f2 3B6A     		ldr	r3, [r7, #32]
 4986 00f4 2833     		adds	r3, r3, #40
 4987 00f6 7B61     		str	r3, [r7, #20]
1272:.\AdvantageImpl.c ****                 B78AD90CF552D9B30A(_PUMP_MAXIMUM_PRESET_GALLONS_, (LPRAWPTR)ptr);
 4988              		.loc 1 1272 0
 4989 00f8 4FF4FA70 		mov	r0, #500
 4990 00fc 4FF00001 		mov	r1, #0
 4991 0100 7A69     		ldr	r2, [r7, #20]
 4992 0102 FFF7FEFF 		bl	B78AD90CF552D9B30A
1273:.\AdvantageImpl.c **** 
1274:.\AdvantageImpl.c ****                 PSTRBUFFTOGG(PBYTECAST(&ppump->_trasactionbuffer[0x0008]), 0x08);
 4993              		.loc 1 1274 0
 4994 0106 3B6A     		ldr	r3, [r7, #32]
 4995 0108 2833     		adds	r3, r3, #40
 4996 010a 1846     		mov	r0, r3
 4997 010c 0821     		movs	r1, #8
 4998 010e FFF7FEFF 		bl	PSTRBUFFTOGG
1275:.\AdvantageImpl.c ****                 if(transtype == 0xF1) //Volume PRESET, then multiply by 1000
 4999              		.loc 1 1275 0
 5000 0112 FB7E     		ldrb	r3, [r7, #27]	@ zero_extendqisi2
 5001 0114 F12B     		cmp	r3, #241
 5002 0116 04D1     		bne	.L173
1276:.\AdvantageImpl.c ****                     CastVolumeValue(ptr, 0x08);
 5003              		.loc 1 1276 0
 5004 0118 7869     		ldr	r0, [r7, #20]
 5005 011a 0821     		movs	r1, #8
 5006 011c FFF7FEFF 		bl	CastVolumeValue
 5007 0120 0BE0     		b	.L174
 5008              	.L173:
1277:.\AdvantageImpl.c ****                 else if(!(_g_dispenserlayoutinfo._moneydecimals == 0x03 && _g_dispenserlayoutinfo._
 5009              		.loc 1 1277 0
 5010 0122 804B     		ldr	r3, .L184
 5011 0124 DB79     		ldrb	r3, [r3, #7]	@ zero_extendqisi2
 5012 0126 032B     		cmp	r3, #3
 5013 0128 03D1     		bne	.L175
 5014              		.loc 1 1277 0 is_stmt 0 discriminator 1
 5015 012a 7E4B     		ldr	r3, .L184
 5016 012c 1B7A     		ldrb	r3, [r3, #8]	@ zero_extendqisi2
 5017 012e 022B     		cmp	r3, #2
 5018 0130 03D0     		beq	.L174
 5019              	.L175:
1278:.\AdvantageImpl.c ****                     CastMoneyValue(ptr, 0x08);
 5020              		.loc 1 1278 0 is_stmt 1
 5021 0132 7869     		ldr	r0, [r7, #20]
 5022 0134 0821     		movs	r1, #8
 5023 0136 FFF7FEFF 		bl	CastMoneyValue
 5024              	.L174:
1279:.\AdvantageImpl.c **** 
1280:.\AdvantageImpl.c ****                 FOR(uint8 buffndx = 0, buffndx < 0x05, buffndx++)
 5025              		.loc 1 1280 0
 5026 013a 0023     		movs	r3, #0
 5027 013c 87F82630 		strb	r3, [r7, #38]
 5028 0140 1DE0     		b	.L176
 5029              	.L177:
ARM GAS  C:\Users\RECEPC~1\AppData\Local\Temp\ccZZcwiB.s 			page 112


1281:.\AdvantageImpl.c ****                     puartdisp->_messagetx[index++] = (0xE0 | (ptr[7 - buffndx] & 0x0F)); //Translat
 5030              		.loc 1 1281 0 discriminator 3
 5031 0142 97F82730 		ldrb	r3, [r7, #39]	@ zero_extendqisi2
 5032 0146 5A1C     		adds	r2, r3, #1
 5033 0148 87F82720 		strb	r2, [r7, #39]
 5034 014c 1946     		mov	r1, r3
 5035 014e 97F82630 		ldrb	r3, [r7, #38]	@ zero_extendqisi2
 5036 0152 C3F10703 		rsb	r3, r3, #7
 5037 0156 1A46     		mov	r2, r3
 5038 0158 7B69     		ldr	r3, [r7, #20]
 5039 015a 1344     		add	r3, r3, r2
 5040 015c 1B78     		ldrb	r3, [r3]	@ zero_extendqisi2
 5041 015e DBB2     		uxtb	r3, r3
 5042 0160 03F00F03 		and	r3, r3, #15
 5043 0164 DBB2     		uxtb	r3, r3
 5044 0166 63F01F03 		orn	r3, r3, #31
 5045 016a DBB2     		uxtb	r3, r3
 5046 016c DAB2     		uxtb	r2, r3
 5047 016e FB69     		ldr	r3, [r7, #28]
 5048 0170 0B44     		add	r3, r3, r1
 5049 0172 1A71     		strb	r2, [r3, #4]
1280:.\AdvantageImpl.c ****                     puartdisp->_messagetx[index++] = (0xE0 | (ptr[7 - buffndx] & 0x0F)); //Translat
 5050              		.loc 1 1280 0 discriminator 3
 5051 0174 97F82630 		ldrb	r3, [r7, #38]	@ zero_extendqisi2
 5052 0178 0133     		adds	r3, r3, #1
 5053 017a 87F82630 		strb	r3, [r7, #38]
 5054              	.L176:
1280:.\AdvantageImpl.c ****                     puartdisp->_messagetx[index++] = (0xE0 | (ptr[7 - buffndx] & 0x0F)); //Translat
 5055              		.loc 1 1280 0 is_stmt 0 discriminator 1
 5056 017e 97F82630 		ldrb	r3, [r7, #38]	@ zero_extendqisi2
 5057 0182 042B     		cmp	r3, #4
 5058 0184 DDD9     		bls	.L177
 5059              	.LBE35:
 5060 0186 9AE0     		b	.L178
 5061              	.L172:
1282:.\AdvantageImpl.c ****                     
1283:.\AdvantageImpl.c ****             }
1284:.\AdvantageImpl.c ****             else if(_g_dispenserlayoutinfo._displaydigitsmode == 0x07)
 5062              		.loc 1 1284 0 is_stmt 1
 5063 0188 664B     		ldr	r3, .L184
 5064 018a 1B7C     		ldrb	r3, [r3, #16]	@ zero_extendqisi2
 5065 018c 072B     		cmp	r3, #7
 5066 018e 40F09680 		bne	.L178
 5067              	.LBB36:
1285:.\AdvantageImpl.c ****             {
1286:.\AdvantageImpl.c ****                 puartdisp->_messagetx[index++] = 0xE1;
 5068              		.loc 1 1286 0
 5069 0192 97F82730 		ldrb	r3, [r7, #39]	@ zero_extendqisi2
 5070 0196 5A1C     		adds	r2, r3, #1
 5071 0198 87F82720 		strb	r2, [r7, #39]
 5072 019c 1A46     		mov	r2, r3
 5073 019e FB69     		ldr	r3, [r7, #28]
 5074 01a0 1344     		add	r3, r3, r2
 5075 01a2 E122     		movs	r2, #225
 5076 01a4 1A71     		strb	r2, [r3, #4]
1287:.\AdvantageImpl.c **** 
1288:.\AdvantageImpl.c ****                 ///THIS IS AN APPLIED CONVENTION ===>> 0x0004 INDEX POSITION WITHIN THE PUMP'S BUFF
ARM GAS  C:\Users\RECEPC~1\AppData\Local\Temp\ccZZcwiB.s 			page 113


1289:.\AdvantageImpl.c ****                 ///THESE CODES MUST BE MATCHED OTHERWISE THE LOGIC WILL BREAKUP THE CODE!
1290:.\AdvantageImpl.c ****                 uint8 transtype = 0xF1;//preset type (0xF2 = Money, 0xF1 = Volume)
 5077              		.loc 1 1290 0
 5078 01a6 F123     		movs	r3, #241
 5079 01a8 FB74     		strb	r3, [r7, #19]
1291:.\AdvantageImpl.c ****                 puartdisp->_messagetx[index++] = transtype;//preset type (0xF2 = Money, 0xF1 = Volu
 5080              		.loc 1 1291 0
 5081 01aa 97F82730 		ldrb	r3, [r7, #39]	@ zero_extendqisi2
 5082 01ae 5A1C     		adds	r2, r3, #1
 5083 01b0 87F82720 		strb	r2, [r7, #39]
 5084 01b4 1A46     		mov	r2, r3
 5085 01b6 FB69     		ldr	r3, [r7, #28]
 5086 01b8 1344     		add	r3, r3, r2
 5087 01ba FA7C     		ldrb	r2, [r7, #19]
 5088 01bc 1A71     		strb	r2, [r3, #4]
1292:.\AdvantageImpl.c ****                 puartdisp->_messagetx[index++] = 0xF4;
 5089              		.loc 1 1292 0
 5090 01be 97F82730 		ldrb	r3, [r7, #39]	@ zero_extendqisi2
 5091 01c2 5A1C     		adds	r2, r3, #1
 5092 01c4 87F82720 		strb	r2, [r7, #39]
 5093 01c8 1A46     		mov	r2, r3
 5094 01ca FB69     		ldr	r3, [r7, #28]
 5095 01cc 1344     		add	r3, r3, r2
 5096 01ce F422     		movs	r2, #244
 5097 01d0 1A71     		strb	r2, [r3, #4]
1293:.\AdvantageImpl.c ****                 puartdisp->_messagetx[index++] = 0xF6; //Hose Data next
 5098              		.loc 1 1293 0
 5099 01d2 97F82730 		ldrb	r3, [r7, #39]	@ zero_extendqisi2
 5100 01d6 5A1C     		adds	r2, r3, #1
 5101 01d8 87F82720 		strb	r2, [r7, #39]
 5102 01dc 1A46     		mov	r2, r3
 5103 01de FB69     		ldr	r3, [r7, #28]
 5104 01e0 1344     		add	r3, r3, r2
 5105 01e2 F622     		movs	r2, #246
 5106 01e4 1A71     		strb	r2, [r3, #4]
1294:.\AdvantageImpl.c ****                 ///THIS IS AN APPLIED CONVENTION ===>> 0x0006 INDEX POSITION WITHIN THE PUMP'S BUFF
1295:.\AdvantageImpl.c ****                 ///THESE CODES MUST BE MATCHED OTHERWISE THE LOGIC WILL BREAKUP THE CODE!
1296:.\AdvantageImpl.c ****                 puartdisp->_messagetx[index++] = (0xE0 | (0x0F & ppump->_trasactionbuffer[GetBuffer
 5107              		.loc 1 1296 0
 5108 01e6 97F82730 		ldrb	r3, [r7, #39]	@ zero_extendqisi2
 5109 01ea 5A1C     		adds	r2, r3, #1
 5110 01ec 87F82720 		strb	r2, [r7, #39]
 5111 01f0 1C46     		mov	r4, r3
 5112 01f2 0720     		movs	r0, #7
 5113 01f4 FFF7FEFF 		bl	GetBufferIndexFromDisplayID
 5114 01f8 0346     		mov	r3, r0
 5115 01fa 1A46     		mov	r2, r3
 5116 01fc 3B6A     		ldr	r3, [r7, #32]
 5117 01fe 1344     		add	r3, r3, r2
 5118 0200 93F82030 		ldrb	r3, [r3, #32]	@ zero_extendqisi2
 5119 0204 03F00F03 		and	r3, r3, #15
 5120 0208 DBB2     		uxtb	r3, r3
 5121 020a 63F01F03 		orn	r3, r3, #31
 5122 020e DAB2     		uxtb	r2, r3
 5123 0210 FB69     		ldr	r3, [r7, #28]
 5124 0212 2344     		add	r3, r3, r4
 5125 0214 1A71     		strb	r2, [r3, #4]
ARM GAS  C:\Users\RECEPC~1\AppData\Local\Temp\ccZZcwiB.s 			page 114


1297:.\AdvantageImpl.c ****                 
1298:.\AdvantageImpl.c ****                 puartdisp->_messagetx[index++] = 0xF8; //Preset Data next
 5126              		.loc 1 1298 0
 5127 0216 97F82730 		ldrb	r3, [r7, #39]	@ zero_extendqisi2
 5128 021a 5A1C     		adds	r2, r3, #1
 5129 021c 87F82720 		strb	r2, [r7, #39]
 5130 0220 1A46     		mov	r2, r3
 5131 0222 FB69     		ldr	r3, [r7, #28]
 5132 0224 1344     		add	r3, r3, r2
 5133 0226 F822     		movs	r2, #248
 5134 0228 1A71     		strb	r2, [r3, #4]
1299:.\AdvantageImpl.c ****                 //Here we copy the remaining 8 bytes for the preset value
1300:.\AdvantageImpl.c ****                 ///THIS IS AN APPLIED CONVENTION ===>> 0x0008 INDEX POSITION WITHIN THE PUMP'S BUFF
1301:.\AdvantageImpl.c ****                 ///THESE CODES MUST BE MATCHED OTHERWISE THE LOGIC WILL BREAKUP THE CODE!
1302:.\AdvantageImpl.c ****                 char8 *ptr = &ppump->_trasactionbuffer[0x0008];
 5135              		.loc 1 1302 0
 5136 022a 3B6A     		ldr	r3, [r7, #32]
 5137 022c 2833     		adds	r3, r3, #40
 5138 022e FB60     		str	r3, [r7, #12]
1303:.\AdvantageImpl.c ****                 B78AD90CF552D9B30A(_PUMP_MAXIMUM_PRESET_GALLONS_, (LPRAWPTR)ptr);
 5139              		.loc 1 1303 0
 5140 0230 4FF4FA70 		mov	r0, #500
 5141 0234 4FF00001 		mov	r1, #0
 5142 0238 FA68     		ldr	r2, [r7, #12]
 5143 023a FFF7FEFF 		bl	B78AD90CF552D9B30A
1304:.\AdvantageImpl.c **** 
1305:.\AdvantageImpl.c ****                 PSTRBUFFTOGG(PBYTECAST(&ppump->_trasactionbuffer[0x0008]), 0x08);
 5144              		.loc 1 1305 0
 5145 023e 3B6A     		ldr	r3, [r7, #32]
 5146 0240 2833     		adds	r3, r3, #40
 5147 0242 1846     		mov	r0, r3
 5148 0244 0821     		movs	r1, #8
 5149 0246 FFF7FEFF 		bl	PSTRBUFFTOGG
1306:.\AdvantageImpl.c ****                 if(transtype == 0xF1) //Volume PRESET, then multiply by 1000
 5150              		.loc 1 1306 0
 5151 024a FB7C     		ldrb	r3, [r7, #19]	@ zero_extendqisi2
 5152 024c F12B     		cmp	r3, #241
 5153 024e 04D1     		bne	.L179
1307:.\AdvantageImpl.c ****                     CastVolumeValue(ptr, 0x08);
 5154              		.loc 1 1307 0
 5155 0250 F868     		ldr	r0, [r7, #12]
 5156 0252 0821     		movs	r1, #8
 5157 0254 FFF7FEFF 		bl	CastVolumeValue
 5158 0258 0BE0     		b	.L180
 5159              	.L179:
1308:.\AdvantageImpl.c ****                 else if(!(_g_dispenserlayoutinfo._moneydecimals == 0x03 && _g_dispenserlayoutinfo._
 5160              		.loc 1 1308 0
 5161 025a 324B     		ldr	r3, .L184
 5162 025c DB79     		ldrb	r3, [r3, #7]	@ zero_extendqisi2
 5163 025e 032B     		cmp	r3, #3
 5164 0260 03D1     		bne	.L181
 5165              		.loc 1 1308 0 is_stmt 0 discriminator 1
 5166 0262 304B     		ldr	r3, .L184
 5167 0264 1B7A     		ldrb	r3, [r3, #8]	@ zero_extendqisi2
 5168 0266 022B     		cmp	r3, #2
 5169 0268 03D0     		beq	.L180
 5170              	.L181:
ARM GAS  C:\Users\RECEPC~1\AppData\Local\Temp\ccZZcwiB.s 			page 115


1309:.\AdvantageImpl.c ****                     CastMoneyValue(ptr, 0x08);
 5171              		.loc 1 1309 0 is_stmt 1
 5172 026a F868     		ldr	r0, [r7, #12]
 5173 026c 0821     		movs	r1, #8
 5174 026e FFF7FEFF 		bl	CastMoneyValue
 5175              	.L180:
1310:.\AdvantageImpl.c **** 
1311:.\AdvantageImpl.c ****                 FOR(uint8 buffndx = 0, buffndx < 0x08, buffndx++)
 5176              		.loc 1 1311 0
 5177 0272 0023     		movs	r3, #0
 5178 0274 87F82530 		strb	r3, [r7, #37]
 5179 0278 1DE0     		b	.L182
 5180              	.L183:
1312:.\AdvantageImpl.c ****                     puartdisp->_messagetx[index++] = (0xE0 | (ptr[7 - buffndx] & 0x0F)); //Translat
 5181              		.loc 1 1312 0 discriminator 3
 5182 027a 97F82730 		ldrb	r3, [r7, #39]	@ zero_extendqisi2
 5183 027e 5A1C     		adds	r2, r3, #1
 5184 0280 87F82720 		strb	r2, [r7, #39]
 5185 0284 1946     		mov	r1, r3
 5186 0286 97F82530 		ldrb	r3, [r7, #37]	@ zero_extendqisi2
 5187 028a C3F10703 		rsb	r3, r3, #7
 5188 028e 1A46     		mov	r2, r3
 5189 0290 FB68     		ldr	r3, [r7, #12]
 5190 0292 1344     		add	r3, r3, r2
 5191 0294 1B78     		ldrb	r3, [r3]	@ zero_extendqisi2
 5192 0296 DBB2     		uxtb	r3, r3
 5193 0298 03F00F03 		and	r3, r3, #15
 5194 029c DBB2     		uxtb	r3, r3
 5195 029e 63F01F03 		orn	r3, r3, #31
 5196 02a2 DBB2     		uxtb	r3, r3
 5197 02a4 DAB2     		uxtb	r2, r3
 5198 02a6 FB69     		ldr	r3, [r7, #28]
 5199 02a8 0B44     		add	r3, r3, r1
 5200 02aa 1A71     		strb	r2, [r3, #4]
1311:.\AdvantageImpl.c ****                     puartdisp->_messagetx[index++] = (0xE0 | (ptr[7 - buffndx] & 0x0F)); //Translat
 5201              		.loc 1 1311 0 discriminator 3
 5202 02ac 97F82530 		ldrb	r3, [r7, #37]	@ zero_extendqisi2
 5203 02b0 0133     		adds	r3, r3, #1
 5204 02b2 87F82530 		strb	r3, [r7, #37]
 5205              	.L182:
1311:.\AdvantageImpl.c ****                     puartdisp->_messagetx[index++] = (0xE0 | (ptr[7 - buffndx] & 0x0F)); //Translat
 5206              		.loc 1 1311 0 is_stmt 0 discriminator 1
 5207 02b6 97F82530 		ldrb	r3, [r7, #37]	@ zero_extendqisi2
 5208 02ba 072B     		cmp	r3, #7
 5209 02bc DDD9     		bls	.L183
 5210              	.L178:
 5211              	.LBE36:
1313:.\AdvantageImpl.c ****                     
1314:.\AdvantageImpl.c ****             }
1315:.\AdvantageImpl.c ****             ppump->_presetdone = true;
 5212              		.loc 1 1315 0 is_stmt 1
 5213 02be 3B6A     		ldr	r3, [r7, #32]
 5214 02c0 0122     		movs	r2, #1
 5215 02c2 1A72     		strb	r2, [r3, #8]
1316:.\AdvantageImpl.c **** 
1317:.\AdvantageImpl.c ****             puartdisp->_messagetx[index++] = LRCn; //LRC next
 5216              		.loc 1 1317 0
ARM GAS  C:\Users\RECEPC~1\AppData\Local\Temp\ccZZcwiB.s 			page 116


 5217 02c4 97F82730 		ldrb	r3, [r7, #39]	@ zero_extendqisi2
 5218 02c8 5A1C     		adds	r2, r3, #1
 5219 02ca 87F82720 		strb	r2, [r7, #39]
 5220 02ce 1A46     		mov	r2, r3
 5221 02d0 FB69     		ldr	r3, [r7, #28]
 5222 02d2 1344     		add	r3, r3, r2
 5223 02d4 FB22     		movs	r2, #251
 5224 02d6 1A71     		strb	r2, [r3, #4]
1318:.\AdvantageImpl.c ****             puartdisp->_messagetx[index++] = GetLRC(puartdisp->_messagetx);
 5225              		.loc 1 1318 0
 5226 02d8 97F82730 		ldrb	r3, [r7, #39]	@ zero_extendqisi2
 5227 02dc 5A1C     		adds	r2, r3, #1
 5228 02de 87F82720 		strb	r2, [r7, #39]
 5229 02e2 1C46     		mov	r4, r3
 5230 02e4 FB69     		ldr	r3, [r7, #28]
 5231 02e6 0433     		adds	r3, r3, #4
 5232 02e8 1846     		mov	r0, r3
 5233 02ea FFF7FEFF 		bl	GetLRC
 5234 02ee 0346     		mov	r3, r0
 5235 02f0 1A46     		mov	r2, r3
 5236 02f2 FB69     		ldr	r3, [r7, #28]
 5237 02f4 2344     		add	r3, r3, r4
 5238 02f6 1A71     		strb	r2, [r3, #4]
1319:.\AdvantageImpl.c ****             puartdisp->_messagetx[index++] = EOM;
 5239              		.loc 1 1319 0
 5240 02f8 97F82730 		ldrb	r3, [r7, #39]	@ zero_extendqisi2
 5241 02fc 5A1C     		adds	r2, r3, #1
 5242 02fe 87F82720 		strb	r2, [r7, #39]
 5243 0302 1A46     		mov	r2, r3
 5244 0304 FB69     		ldr	r3, [r7, #28]
 5245 0306 1344     		add	r3, r3, r2
 5246 0308 F022     		movs	r2, #240
 5247 030a 1A71     		strb	r2, [r3, #4]
1320:.\AdvantageImpl.c **** ///////////////////////////////////////////////////////////////////////////////////////////////////
1321:.\AdvantageImpl.c ****             
1322:.\AdvantageImpl.c ****             puartdisp->_messagelength = index;
 5248              		.loc 1 1322 0
 5249 030c 97F82730 		ldrb	r3, [r7, #39]	@ zero_extendqisi2
 5250 0310 9AB2     		uxth	r2, r3
 5251 0312 FB69     		ldr	r3, [r7, #28]
 5252 0314 5A80     		strh	r2, [r3, #2]	@ movhi
1323:.\AdvantageImpl.c ****             puartdisp->_messagestate = PENDING;
 5253              		.loc 1 1323 0
 5254 0316 FB69     		ldr	r3, [r7, #28]
 5255 0318 C222     		movs	r2, #194
 5256 031a 1A70     		strb	r2, [r3]
 5257              	.L170:
 5258              	.LBE34:
1324:.\AdvantageImpl.c ****         }
1325:.\AdvantageImpl.c ****     }
1326:.\AdvantageImpl.c ****     
1327:.\AdvantageImpl.c **** }
 5259              		.loc 1 1327 0
 5260 031c 2C37     		adds	r7, r7, #44
 5261              		.cfi_def_cfa_offset 12
 5262 031e BD46     		mov	sp, r7
 5263              		.cfi_def_cfa_register 13
ARM GAS  C:\Users\RECEPC~1\AppData\Local\Temp\ccZZcwiB.s 			page 117


 5264              		@ sp needed
 5265 0320 90BD     		pop	{r4, r7, pc}
 5266              	.L185:
 5267 0322 00BF     		.align	2
 5268              	.L184:
 5269 0324 00000000 		.word	_g_dispenserlayoutinfo
 5270              		.cfi_endproc
 5271              	.LFE83:
 5272              		.size	PumpFullPresetHose, .-PumpFullPresetHose
 5273              		.section	.text.PumpFullPresetNoHose,"ax",%progbits
 5274              		.align	2
 5275              		.global	PumpFullPresetNoHose
 5276              		.thumb
 5277              		.thumb_func
 5278              		.type	PumpFullPresetNoHose, %function
 5279              	PumpFullPresetNoHose:
 5280              	.LFB84:
1328:.\AdvantageImpl.c **** 
1329:.\AdvantageImpl.c **** //@Created By: HIJH
1330:.\AdvantageImpl.c **** //@Septembre de 2016
1331:.\AdvantageImpl.c **** ///////////////////////////////////////////////////////////////////////////////////////////////////
1332:.\AdvantageImpl.c **** //Preset values will be placed within the SinkMessage's buffer. This is a convention that applies t
1333:.\AdvantageImpl.c **** //all of the available transactions. The pump function must deal with this while it is assembling t
1334:.\AdvantageImpl.c **** //For this message the data comes as follows:
1335:.\AdvantageImpl.c **** // - First byte is the preset type (Volume:1 / Money:2 )
1336:.\AdvantageImpl.c **** // - Second byte is the Hose (A:0, B:1, C:2, D:3)
1337:.\AdvantageImpl.c **** // - Block of 8 bytes for the preset value
1338:.\AdvantageImpl.c **** //This block of data (10 bytes) must be moved to another position within the same buffer (even posi
1339:.\AdvantageImpl.c **** void PumpFullPresetNoHose(void *pparam)
1340:.\AdvantageImpl.c **** {
 5281              		.loc 1 1340 0
 5282              		.cfi_startproc
 5283              		@ args = 0, pretend = 0, frame = 40
 5284              		@ frame_needed = 1, uses_anonymous_args = 0
 5285 0000 90B5     		push	{r4, r7, lr}
 5286              		.cfi_def_cfa_offset 12
 5287              		.cfi_offset 4, -12
 5288              		.cfi_offset 7, -8
 5289              		.cfi_offset 14, -4
 5290 0002 8BB0     		sub	sp, sp, #44
 5291              		.cfi_def_cfa_offset 56
 5292 0004 00AF     		add	r7, sp, #0
 5293              		.cfi_def_cfa_register 7
 5294 0006 7860     		str	r0, [r7, #4]
1341:.\AdvantageImpl.c ****     PNEAR_PUMPPTR ppump = (PNEAR_PUMPPTR)pparam;
 5295              		.loc 1 1341 0
 5296 0008 7B68     		ldr	r3, [r7, #4]
 5297 000a 3B62     		str	r3, [r7, #32]
1342:.\AdvantageImpl.c ****     if(ppump)
 5298              		.loc 1 1342 0
 5299 000c 3B6A     		ldr	r3, [r7, #32]
 5300 000e 002B     		cmp	r3, #0
 5301 0010 00F02A81 		beq	.L186
 5302              	.LBB37:
1343:.\AdvantageImpl.c ****     {
1344:.\AdvantageImpl.c ****         uint8_t index = 0;        
 5303              		.loc 1 1344 0
ARM GAS  C:\Users\RECEPC~1\AppData\Local\Temp\ccZZcwiB.s 			page 118


 5304 0014 0023     		movs	r3, #0
 5305 0016 87F82730 		strb	r3, [r7, #39]
1345:.\AdvantageImpl.c ****         PUARTMESSAGEPTR puartdisp = GetUARTMessageSlot(UART_DISPENSER);
 5306              		.loc 1 1345 0
 5307 001a A220     		movs	r0, #162
 5308 001c FFF7FEFF 		bl	GetUARTMessageSlot
 5309 0020 F861     		str	r0, [r7, #28]
1346:.\AdvantageImpl.c ****         memset(ppump->_rxbuffer, 0x00, _PUMP_RX_BUFFER_SIZE_);
 5310              		.loc 1 1346 0
 5311 0022 3B6A     		ldr	r3, [r7, #32]
 5312 0024 03F5D073 		add	r3, r3, #416
 5313 0028 1846     		mov	r0, r3
 5314 002a 0021     		movs	r1, #0
 5315 002c 4FF4C072 		mov	r2, #384
 5316 0030 FFF7FEFF 		bl	memset
1347:.\AdvantageImpl.c ****         if(puartdisp)
 5317              		.loc 1 1347 0
 5318 0034 FB69     		ldr	r3, [r7, #28]
 5319 0036 002B     		cmp	r3, #0
 5320 0038 00F01681 		beq	.L186
1348:.\AdvantageImpl.c ****         {
1349:.\AdvantageImpl.c ****             //This is required for the "Temination Handler" that will post the preset to the remote
1350:.\AdvantageImpl.c ****             ppump->_trasactionbuffer[0x0004] = 0x0F;
 5321              		.loc 1 1350 0
 5322 003c 3B6A     		ldr	r3, [r7, #32]
 5323 003e 0F22     		movs	r2, #15
 5324 0040 83F82420 		strb	r2, [r3, #36]
1351:.\AdvantageImpl.c **** ///////////////////////////////////////////////////////////////////////////////////////////////////
1352:.\AdvantageImpl.c ****             puartdisp->_messagetx[index++] = SOM;
 5325              		.loc 1 1352 0
 5326 0044 97F82730 		ldrb	r3, [r7, #39]	@ zero_extendqisi2
 5327 0048 5A1C     		adds	r2, r3, #1
 5328 004a 87F82720 		strb	r2, [r7, #39]
 5329 004e 1A46     		mov	r2, r3
 5330 0050 FB69     		ldr	r3, [r7, #28]
 5331 0052 1344     		add	r3, r3, r2
 5332 0054 FF22     		movs	r2, #255
 5333 0056 1A71     		strb	r2, [r3, #4]
1353:.\AdvantageImpl.c ****             if(_g_dispenserlayoutinfo._displaydigitsmode == 0x06)
 5334              		.loc 1 1353 0
 5335 0058 854B     		ldr	r3, .L200
 5336 005a 1B7C     		ldrb	r3, [r3, #16]	@ zero_extendqisi2
 5337 005c 062B     		cmp	r3, #6
 5338 005e 6AD1     		bne	.L188
 5339              	.LBB38:
1354:.\AdvantageImpl.c ****             {
1355:.\AdvantageImpl.c ****                 puartdisp->_messagetx[index++] = 0xE5;
 5340              		.loc 1 1355 0
 5341 0060 97F82730 		ldrb	r3, [r7, #39]	@ zero_extendqisi2
 5342 0064 5A1C     		adds	r2, r3, #1
 5343 0066 87F82720 		strb	r2, [r7, #39]
 5344 006a 1A46     		mov	r2, r3
 5345 006c FB69     		ldr	r3, [r7, #28]
 5346 006e 1344     		add	r3, r3, r2
 5347 0070 E522     		movs	r2, #229
 5348 0072 1A71     		strb	r2, [r3, #4]
1356:.\AdvantageImpl.c ****                 
ARM GAS  C:\Users\RECEPC~1\AppData\Local\Temp\ccZZcwiB.s 			page 119


1357:.\AdvantageImpl.c ****                 ///THIS IS AN APPLIED CONVENTION ===>> 0x0004 INDEX POSITION WITHIN THE PUMP'S BUFF
1358:.\AdvantageImpl.c ****                 ///THESE CODES MUST BE MATCHED OTHERWISE THE LOGIC WILL BREAKUP THE CODE!
1359:.\AdvantageImpl.c ****                 uint8 transtype = 0xF1;//preset type (0xF2 = Money, 0xF1 = Volume)
 5349              		.loc 1 1359 0
 5350 0074 F123     		movs	r3, #241
 5351 0076 FB76     		strb	r3, [r7, #27]
1360:.\AdvantageImpl.c ****                 puartdisp->_messagetx[index++] = transtype;//preset type (0xF2 = Money, 0xF1 = Volu
 5352              		.loc 1 1360 0
 5353 0078 97F82730 		ldrb	r3, [r7, #39]	@ zero_extendqisi2
 5354 007c 5A1C     		adds	r2, r3, #1
 5355 007e 87F82720 		strb	r2, [r7, #39]
 5356 0082 1A46     		mov	r2, r3
 5357 0084 FB69     		ldr	r3, [r7, #28]
 5358 0086 1344     		add	r3, r3, r2
 5359 0088 FA7E     		ldrb	r2, [r7, #27]
 5360 008a 1A71     		strb	r2, [r3, #4]
1361:.\AdvantageImpl.c ****                 
1362:.\AdvantageImpl.c ****                 puartdisp->_messagetx[index++] = 0xF8; //Preset Data next
 5361              		.loc 1 1362 0
 5362 008c 97F82730 		ldrb	r3, [r7, #39]	@ zero_extendqisi2
 5363 0090 5A1C     		adds	r2, r3, #1
 5364 0092 87F82720 		strb	r2, [r7, #39]
 5365 0096 1A46     		mov	r2, r3
 5366 0098 FB69     		ldr	r3, [r7, #28]
 5367 009a 1344     		add	r3, r3, r2
 5368 009c F822     		movs	r2, #248
 5369 009e 1A71     		strb	r2, [r3, #4]
1363:.\AdvantageImpl.c ****                 //Here we copy the remaining 8 bytes for the preset value
1364:.\AdvantageImpl.c ****                 ///THIS IS AN APPLIED CONVENTION ===>> 0x0008 INDEX POSITION WITHIN THE PUMP'S BUFF
1365:.\AdvantageImpl.c ****                 ///THESE CODES MUST BE MATCHED OTHERWISE THE LOGIC WILL BREAKUP THE CODE!
1366:.\AdvantageImpl.c ****                 char8 *ptr = &ppump->_trasactionbuffer[0x0008];
 5370              		.loc 1 1366 0
 5371 00a0 3B6A     		ldr	r3, [r7, #32]
 5372 00a2 2833     		adds	r3, r3, #40
 5373 00a4 7B61     		str	r3, [r7, #20]
1367:.\AdvantageImpl.c ****                 //B78AD90CF552D9B30A(_PUMP_MAXIMUM_PRESET_6_DIGITS_, (LPRAWPTR)ptr);
1368:.\AdvantageImpl.c ****                 B78AD90CF552D9B30A(10 * _PUMP_MAXIMUM_PRESET_GALLONS_, (LPRAWPTR)ptr);
 5374              		.loc 1 1368 0
 5375 00a6 41F28830 		movw	r0, #5000
 5376 00aa 4FF00001 		mov	r1, #0
 5377 00ae 7A69     		ldr	r2, [r7, #20]
 5378 00b0 FFF7FEFF 		bl	B78AD90CF552D9B30A
1369:.\AdvantageImpl.c **** 
1370:.\AdvantageImpl.c ****                 PSTRBUFFTOGG(PBYTECAST(&ppump->_trasactionbuffer[0x0008]), 0x08);
 5379              		.loc 1 1370 0
 5380 00b4 3B6A     		ldr	r3, [r7, #32]
 5381 00b6 2833     		adds	r3, r3, #40
 5382 00b8 1846     		mov	r0, r3
 5383 00ba 0821     		movs	r1, #8
 5384 00bc FFF7FEFF 		bl	PSTRBUFFTOGG
1371:.\AdvantageImpl.c ****                 if(transtype == 0xF1) //Volume PRESET, then multiply by 1000
 5385              		.loc 1 1371 0
 5386 00c0 FB7E     		ldrb	r3, [r7, #27]	@ zero_extendqisi2
 5387 00c2 F12B     		cmp	r3, #241
 5388 00c4 04D1     		bne	.L189
1372:.\AdvantageImpl.c ****                     CastVolumeValue(ptr, 0x08);
 5389              		.loc 1 1372 0
ARM GAS  C:\Users\RECEPC~1\AppData\Local\Temp\ccZZcwiB.s 			page 120


 5390 00c6 7869     		ldr	r0, [r7, #20]
 5391 00c8 0821     		movs	r1, #8
 5392 00ca FFF7FEFF 		bl	CastVolumeValue
 5393 00ce 0BE0     		b	.L190
 5394              	.L189:
1373:.\AdvantageImpl.c ****                 else if(!(_g_dispenserlayoutinfo._moneydecimals == 0x03 && _g_dispenserlayoutinfo._
 5395              		.loc 1 1373 0
 5396 00d0 674B     		ldr	r3, .L200
 5397 00d2 DB79     		ldrb	r3, [r3, #7]	@ zero_extendqisi2
 5398 00d4 032B     		cmp	r3, #3
 5399 00d6 03D1     		bne	.L191
 5400              		.loc 1 1373 0 is_stmt 0 discriminator 1
 5401 00d8 654B     		ldr	r3, .L200
 5402 00da 1B7A     		ldrb	r3, [r3, #8]	@ zero_extendqisi2
 5403 00dc 022B     		cmp	r3, #2
 5404 00de 03D0     		beq	.L190
 5405              	.L191:
1374:.\AdvantageImpl.c ****                     CastMoneyValue(ptr, 0x08);
 5406              		.loc 1 1374 0 is_stmt 1
 5407 00e0 7869     		ldr	r0, [r7, #20]
 5408 00e2 0821     		movs	r1, #8
 5409 00e4 FFF7FEFF 		bl	CastMoneyValue
 5410              	.L190:
1375:.\AdvantageImpl.c **** 
1376:.\AdvantageImpl.c ****                 FOR(uint8 buffndx = 0, buffndx < 0x05, buffndx++)
 5411              		.loc 1 1376 0
 5412 00e8 0023     		movs	r3, #0
 5413 00ea 87F82630 		strb	r3, [r7, #38]
 5414 00ee 1DE0     		b	.L192
 5415              	.L193:
1377:.\AdvantageImpl.c ****                     puartdisp->_messagetx[index++] = (0xE0 | (ptr[7 - buffndx] & 0x0F)); //Translat
 5416              		.loc 1 1377 0 discriminator 3
 5417 00f0 97F82730 		ldrb	r3, [r7, #39]	@ zero_extendqisi2
 5418 00f4 5A1C     		adds	r2, r3, #1
 5419 00f6 87F82720 		strb	r2, [r7, #39]
 5420 00fa 1946     		mov	r1, r3
 5421 00fc 97F82630 		ldrb	r3, [r7, #38]	@ zero_extendqisi2
 5422 0100 C3F10703 		rsb	r3, r3, #7
 5423 0104 1A46     		mov	r2, r3
 5424 0106 7B69     		ldr	r3, [r7, #20]
 5425 0108 1344     		add	r3, r3, r2
 5426 010a 1B78     		ldrb	r3, [r3]	@ zero_extendqisi2
 5427 010c DBB2     		uxtb	r3, r3
 5428 010e 03F00F03 		and	r3, r3, #15
 5429 0112 DBB2     		uxtb	r3, r3
 5430 0114 63F01F03 		orn	r3, r3, #31
 5431 0118 DBB2     		uxtb	r3, r3
 5432 011a DAB2     		uxtb	r2, r3
 5433 011c FB69     		ldr	r3, [r7, #28]
 5434 011e 0B44     		add	r3, r3, r1
 5435 0120 1A71     		strb	r2, [r3, #4]
1376:.\AdvantageImpl.c ****                     puartdisp->_messagetx[index++] = (0xE0 | (ptr[7 - buffndx] & 0x0F)); //Translat
 5436              		.loc 1 1376 0 discriminator 3
 5437 0122 97F82630 		ldrb	r3, [r7, #38]	@ zero_extendqisi2
 5438 0126 0133     		adds	r3, r3, #1
 5439 0128 87F82630 		strb	r3, [r7, #38]
 5440              	.L192:
ARM GAS  C:\Users\RECEPC~1\AppData\Local\Temp\ccZZcwiB.s 			page 121


1376:.\AdvantageImpl.c ****                     puartdisp->_messagetx[index++] = (0xE0 | (ptr[7 - buffndx] & 0x0F)); //Translat
 5441              		.loc 1 1376 0 is_stmt 0 discriminator 1
 5442 012c 97F82630 		ldrb	r3, [r7, #38]	@ zero_extendqisi2
 5443 0130 042B     		cmp	r3, #4
 5444 0132 DDD9     		bls	.L193
 5445              	.LBE38:
 5446 0134 69E0     		b	.L194
 5447              	.L188:
 5448              	.LBB39:
1378:.\AdvantageImpl.c ****                     
1379:.\AdvantageImpl.c ****             }
1380:.\AdvantageImpl.c ****             else
1381:.\AdvantageImpl.c ****             {
1382:.\AdvantageImpl.c ****                 puartdisp->_messagetx[index++] = 0xE3;
 5449              		.loc 1 1382 0 is_stmt 1
 5450 0136 97F82730 		ldrb	r3, [r7, #39]	@ zero_extendqisi2
 5451 013a 5A1C     		adds	r2, r3, #1
 5452 013c 87F82720 		strb	r2, [r7, #39]
 5453 0140 1A46     		mov	r2, r3
 5454 0142 FB69     		ldr	r3, [r7, #28]
 5455 0144 1344     		add	r3, r3, r2
 5456 0146 E322     		movs	r2, #227
 5457 0148 1A71     		strb	r2, [r3, #4]
1383:.\AdvantageImpl.c ****                 
1384:.\AdvantageImpl.c ****                 ///THIS IS AN APPLIED CONVENTION ===>> 0x0004 INDEX POSITION WITHIN THE PUMP'S BUFF
1385:.\AdvantageImpl.c ****                 ///THESE CODES MUST BE MATCHED OTHERWISE THE LOGIC WILL BREAKUP THE CODE!
1386:.\AdvantageImpl.c ****                 uint8 transtype = 0xF1;//preset type (0xF2 = Money, 0xF1 = Volume)
 5458              		.loc 1 1386 0
 5459 014a F123     		movs	r3, #241
 5460 014c FB74     		strb	r3, [r7, #19]
1387:.\AdvantageImpl.c ****                 puartdisp->_messagetx[index++] = transtype;//preset type (0xF2 = Money, 0xF1 = Volu
 5461              		.loc 1 1387 0
 5462 014e 97F82730 		ldrb	r3, [r7, #39]	@ zero_extendqisi2
 5463 0152 5A1C     		adds	r2, r3, #1
 5464 0154 87F82720 		strb	r2, [r7, #39]
 5465 0158 1A46     		mov	r2, r3
 5466 015a FB69     		ldr	r3, [r7, #28]
 5467 015c 1344     		add	r3, r3, r2
 5468 015e FA7C     		ldrb	r2, [r7, #19]
 5469 0160 1A71     		strb	r2, [r3, #4]
1388:.\AdvantageImpl.c ****                 
1389:.\AdvantageImpl.c ****                 puartdisp->_messagetx[index++] = 0xF8; //Preset Data next
 5470              		.loc 1 1389 0
 5471 0162 97F82730 		ldrb	r3, [r7, #39]	@ zero_extendqisi2
 5472 0166 5A1C     		adds	r2, r3, #1
 5473 0168 87F82720 		strb	r2, [r7, #39]
 5474 016c 1A46     		mov	r2, r3
 5475 016e FB69     		ldr	r3, [r7, #28]
 5476 0170 1344     		add	r3, r3, r2
 5477 0172 F822     		movs	r2, #248
 5478 0174 1A71     		strb	r2, [r3, #4]
1390:.\AdvantageImpl.c ****                 //Here we copy the remaining 8 bytes for the preset value
1391:.\AdvantageImpl.c ****                 ///THIS IS AN APPLIED CONVENTION ===>> 0x0008 INDEX POSITION WITHIN THE PUMP'S BUFF
1392:.\AdvantageImpl.c ****                 ///THESE CODES MUST BE MATCHED OTHERWISE THE LOGIC WILL BREAKUP THE CODE!
1393:.\AdvantageImpl.c ****                 char8 *ptr = &ppump->_trasactionbuffer[0x0008];
 5479              		.loc 1 1393 0
 5480 0176 3B6A     		ldr	r3, [r7, #32]
ARM GAS  C:\Users\RECEPC~1\AppData\Local\Temp\ccZZcwiB.s 			page 122


 5481 0178 2833     		adds	r3, r3, #40
 5482 017a FB60     		str	r3, [r7, #12]
1394:.\AdvantageImpl.c ****                 //B78AD90CF552D9B30A(_PUMP_MAXIMUM_PRESET_6_DIGITS_, (LPRAWPTR)ptr);
1395:.\AdvantageImpl.c ****                 B78AD90CF552D9B30A(_PUMP_MAXIMUM_PRESET_GALLONS_, (LPRAWPTR)ptr);
 5483              		.loc 1 1395 0
 5484 017c 4FF4FA70 		mov	r0, #500
 5485 0180 4FF00001 		mov	r1, #0
 5486 0184 FA68     		ldr	r2, [r7, #12]
 5487 0186 FFF7FEFF 		bl	B78AD90CF552D9B30A
1396:.\AdvantageImpl.c **** 
1397:.\AdvantageImpl.c ****                 PSTRBUFFTOGG(PBYTECAST(&ppump->_trasactionbuffer[0x0008]), 0x08);
 5488              		.loc 1 1397 0
 5489 018a 3B6A     		ldr	r3, [r7, #32]
 5490 018c 2833     		adds	r3, r3, #40
 5491 018e 1846     		mov	r0, r3
 5492 0190 0821     		movs	r1, #8
 5493 0192 FFF7FEFF 		bl	PSTRBUFFTOGG
1398:.\AdvantageImpl.c ****                 if(transtype == 0xF1) //Volume PRESET, then multiply by 1000
 5494              		.loc 1 1398 0
 5495 0196 FB7C     		ldrb	r3, [r7, #19]	@ zero_extendqisi2
 5496 0198 F12B     		cmp	r3, #241
 5497 019a 04D1     		bne	.L195
1399:.\AdvantageImpl.c ****                     CastVolumeValue(ptr, 0x08);
 5498              		.loc 1 1399 0
 5499 019c F868     		ldr	r0, [r7, #12]
 5500 019e 0821     		movs	r1, #8
 5501 01a0 FFF7FEFF 		bl	CastVolumeValue
 5502 01a4 0BE0     		b	.L196
 5503              	.L195:
1400:.\AdvantageImpl.c ****                 else if(!(_g_dispenserlayoutinfo._moneydecimals == 0x03 && _g_dispenserlayoutinfo._
 5504              		.loc 1 1400 0
 5505 01a6 324B     		ldr	r3, .L200
 5506 01a8 DB79     		ldrb	r3, [r3, #7]	@ zero_extendqisi2
 5507 01aa 032B     		cmp	r3, #3
 5508 01ac 03D1     		bne	.L197
 5509              		.loc 1 1400 0 is_stmt 0 discriminator 1
 5510 01ae 304B     		ldr	r3, .L200
 5511 01b0 1B7A     		ldrb	r3, [r3, #8]	@ zero_extendqisi2
 5512 01b2 022B     		cmp	r3, #2
 5513 01b4 03D0     		beq	.L196
 5514              	.L197:
1401:.\AdvantageImpl.c ****                     CastMoneyValue(ptr, 0x08);
 5515              		.loc 1 1401 0 is_stmt 1
 5516 01b6 F868     		ldr	r0, [r7, #12]
 5517 01b8 0821     		movs	r1, #8
 5518 01ba FFF7FEFF 		bl	CastMoneyValue
 5519              	.L196:
1402:.\AdvantageImpl.c **** 
1403:.\AdvantageImpl.c ****                 FOR(uint8 buffndx = 0, buffndx < 0x08, buffndx++)
 5520              		.loc 1 1403 0
 5521 01be 0023     		movs	r3, #0
 5522 01c0 87F82530 		strb	r3, [r7, #37]
 5523 01c4 1DE0     		b	.L198
 5524              	.L199:
1404:.\AdvantageImpl.c ****                     puartdisp->_messagetx[index++] = (0xE0 | (ptr[7 - buffndx] & 0x0F)); //Translat
 5525              		.loc 1 1404 0 discriminator 3
 5526 01c6 97F82730 		ldrb	r3, [r7, #39]	@ zero_extendqisi2
ARM GAS  C:\Users\RECEPC~1\AppData\Local\Temp\ccZZcwiB.s 			page 123


 5527 01ca 5A1C     		adds	r2, r3, #1
 5528 01cc 87F82720 		strb	r2, [r7, #39]
 5529 01d0 1946     		mov	r1, r3
 5530 01d2 97F82530 		ldrb	r3, [r7, #37]	@ zero_extendqisi2
 5531 01d6 C3F10703 		rsb	r3, r3, #7
 5532 01da 1A46     		mov	r2, r3
 5533 01dc FB68     		ldr	r3, [r7, #12]
 5534 01de 1344     		add	r3, r3, r2
 5535 01e0 1B78     		ldrb	r3, [r3]	@ zero_extendqisi2
 5536 01e2 DBB2     		uxtb	r3, r3
 5537 01e4 03F00F03 		and	r3, r3, #15
 5538 01e8 DBB2     		uxtb	r3, r3
 5539 01ea 63F01F03 		orn	r3, r3, #31
 5540 01ee DBB2     		uxtb	r3, r3
 5541 01f0 DAB2     		uxtb	r2, r3
 5542 01f2 FB69     		ldr	r3, [r7, #28]
 5543 01f4 0B44     		add	r3, r3, r1
 5544 01f6 1A71     		strb	r2, [r3, #4]
1403:.\AdvantageImpl.c ****                     puartdisp->_messagetx[index++] = (0xE0 | (ptr[7 - buffndx] & 0x0F)); //Translat
 5545              		.loc 1 1403 0 discriminator 3
 5546 01f8 97F82530 		ldrb	r3, [r7, #37]	@ zero_extendqisi2
 5547 01fc 0133     		adds	r3, r3, #1
 5548 01fe 87F82530 		strb	r3, [r7, #37]
 5549              	.L198:
1403:.\AdvantageImpl.c ****                     puartdisp->_messagetx[index++] = (0xE0 | (ptr[7 - buffndx] & 0x0F)); //Translat
 5550              		.loc 1 1403 0 is_stmt 0 discriminator 1
 5551 0202 97F82530 		ldrb	r3, [r7, #37]	@ zero_extendqisi2
 5552 0206 072B     		cmp	r3, #7
 5553 0208 DDD9     		bls	.L199
 5554              	.L194:
 5555              	.LBE39:
1405:.\AdvantageImpl.c ****             }
1406:.\AdvantageImpl.c ****             ppump->_presetdone = true;
 5556              		.loc 1 1406 0 is_stmt 1
 5557 020a 3B6A     		ldr	r3, [r7, #32]
 5558 020c 0122     		movs	r2, #1
 5559 020e 1A72     		strb	r2, [r3, #8]
1407:.\AdvantageImpl.c **** 
1408:.\AdvantageImpl.c ****             puartdisp->_messagetx[index++] = 0xFB; //LRC next
 5560              		.loc 1 1408 0
 5561 0210 97F82730 		ldrb	r3, [r7, #39]	@ zero_extendqisi2
 5562 0214 5A1C     		adds	r2, r3, #1
 5563 0216 87F82720 		strb	r2, [r7, #39]
 5564 021a 1A46     		mov	r2, r3
 5565 021c FB69     		ldr	r3, [r7, #28]
 5566 021e 1344     		add	r3, r3, r2
 5567 0220 FB22     		movs	r2, #251
 5568 0222 1A71     		strb	r2, [r3, #4]
1409:.\AdvantageImpl.c ****             puartdisp->_messagetx[index++] = GetLRC(puartdisp->_messagetx);
 5569              		.loc 1 1409 0
 5570 0224 97F82730 		ldrb	r3, [r7, #39]	@ zero_extendqisi2
 5571 0228 5A1C     		adds	r2, r3, #1
 5572 022a 87F82720 		strb	r2, [r7, #39]
 5573 022e 1C46     		mov	r4, r3
 5574 0230 FB69     		ldr	r3, [r7, #28]
 5575 0232 0433     		adds	r3, r3, #4
 5576 0234 1846     		mov	r0, r3
ARM GAS  C:\Users\RECEPC~1\AppData\Local\Temp\ccZZcwiB.s 			page 124


 5577 0236 FFF7FEFF 		bl	GetLRC
 5578 023a 0346     		mov	r3, r0
 5579 023c 1A46     		mov	r2, r3
 5580 023e FB69     		ldr	r3, [r7, #28]
 5581 0240 2344     		add	r3, r3, r4
 5582 0242 1A71     		strb	r2, [r3, #4]
1410:.\AdvantageImpl.c ****             puartdisp->_messagetx[index++] = EOM;
 5583              		.loc 1 1410 0
 5584 0244 97F82730 		ldrb	r3, [r7, #39]	@ zero_extendqisi2
 5585 0248 5A1C     		adds	r2, r3, #1
 5586 024a 87F82720 		strb	r2, [r7, #39]
 5587 024e 1A46     		mov	r2, r3
 5588 0250 FB69     		ldr	r3, [r7, #28]
 5589 0252 1344     		add	r3, r3, r2
 5590 0254 F022     		movs	r2, #240
 5591 0256 1A71     		strb	r2, [r3, #4]
1411:.\AdvantageImpl.c **** ///////////////////////////////////////////////////////////////////////////////////////////////////
1412:.\AdvantageImpl.c ****             
1413:.\AdvantageImpl.c ****             puartdisp->_messagelength = index;
 5592              		.loc 1 1413 0
 5593 0258 97F82730 		ldrb	r3, [r7, #39]	@ zero_extendqisi2
 5594 025c 9AB2     		uxth	r2, r3
 5595 025e FB69     		ldr	r3, [r7, #28]
 5596 0260 5A80     		strh	r2, [r3, #2]	@ movhi
1414:.\AdvantageImpl.c ****             puartdisp->_messagestate = PENDING;
 5597              		.loc 1 1414 0
 5598 0262 FB69     		ldr	r3, [r7, #28]
 5599 0264 C222     		movs	r2, #194
 5600 0266 1A70     		strb	r2, [r3]
 5601              	.L186:
 5602              	.LBE37:
1415:.\AdvantageImpl.c ****         }
1416:.\AdvantageImpl.c ****     }
1417:.\AdvantageImpl.c ****     
1418:.\AdvantageImpl.c **** }
 5603              		.loc 1 1418 0
 5604 0268 2C37     		adds	r7, r7, #44
 5605              		.cfi_def_cfa_offset 12
 5606 026a BD46     		mov	sp, r7
 5607              		.cfi_def_cfa_register 13
 5608              		@ sp needed
 5609 026c 90BD     		pop	{r4, r7, pc}
 5610              	.L201:
 5611 026e 00BF     		.align	2
 5612              	.L200:
 5613 0270 00000000 		.word	_g_dispenserlayoutinfo
 5614              		.cfi_endproc
 5615              	.LFE84:
 5616              		.size	PumpFullPresetNoHose, .-PumpFullPresetNoHose
 5617              		.section	.text.PumpPpuChange,"ax",%progbits
 5618              		.align	2
 5619              		.global	PumpPpuChange
 5620              		.thumb
 5621              		.thumb_func
 5622              		.type	PumpPpuChange, %function
 5623              	PumpPpuChange:
 5624              	.LFB85:
ARM GAS  C:\Users\RECEPC~1\AppData\Local\Temp\ccZZcwiB.s 			page 125


1419:.\AdvantageImpl.c **** 
1420:.\AdvantageImpl.c **** //@Created By: HIJH
1421:.\AdvantageImpl.c **** //@Septembre de 2016
1422:.\AdvantageImpl.c **** ///////////////////////////////////////////////////////////////////////////////////////////////////
1423:.\AdvantageImpl.c **** //PPU value will be placed within the SinkMessage's buffer. This is a convention that applies to 
1424:.\AdvantageImpl.c **** //all of the available transactions. The pump function must deal with this while it is assembling t
1425:.\AdvantageImpl.c **** //For this message the data comes as follows:
1426:.\AdvantageImpl.c **** // - First byte is the Hose (A:0, B:1, C:2, D:3)
1427:.\AdvantageImpl.c **** // - Block of 6 bytes for the PPU value
1428:.\AdvantageImpl.c **** //This block of data (6 bytes) must be moved to another position within the same buffer (even posit
1429:.\AdvantageImpl.c **** void PumpPpuChange(void *pparam)
1430:.\AdvantageImpl.c **** {
 5625              		.loc 1 1430 0
 5626              		.cfi_startproc
 5627              		@ args = 0, pretend = 0, frame = 32
 5628              		@ frame_needed = 1, uses_anonymous_args = 0
 5629 0000 B0B5     		push	{r4, r5, r7, lr}
 5630              		.cfi_def_cfa_offset 16
 5631              		.cfi_offset 4, -16
 5632              		.cfi_offset 5, -12
 5633              		.cfi_offset 7, -8
 5634              		.cfi_offset 14, -4
 5635 0002 88B0     		sub	sp, sp, #32
 5636              		.cfi_def_cfa_offset 48
 5637 0004 00AF     		add	r7, sp, #0
 5638              		.cfi_def_cfa_register 7
 5639 0006 7860     		str	r0, [r7, #4]
1431:.\AdvantageImpl.c ****     PNEAR_PUMPPTR ppump = (PNEAR_PUMPPTR)pparam;
 5640              		.loc 1 1431 0
 5641 0008 7B68     		ldr	r3, [r7, #4]
 5642 000a BB61     		str	r3, [r7, #24]
1432:.\AdvantageImpl.c ****     if(ppump)
 5643              		.loc 1 1432 0
 5644 000c BB69     		ldr	r3, [r7, #24]
 5645 000e 002B     		cmp	r3, #0
 5646 0010 00F05281 		beq	.L202
 5647              	.LBB40:
1433:.\AdvantageImpl.c ****     {
1434:.\AdvantageImpl.c ****         uint8_t index = 0;  
 5648              		.loc 1 1434 0
 5649 0014 0023     		movs	r3, #0
 5650 0016 FB77     		strb	r3, [r7, #31]
1435:.\AdvantageImpl.c ****         memset(ppump->_rxbuffer, 0x00, _PUMP_RX_BUFFER_SIZE_);
 5651              		.loc 1 1435 0
 5652 0018 BB69     		ldr	r3, [r7, #24]
 5653 001a 03F5D073 		add	r3, r3, #416
 5654 001e 1846     		mov	r0, r3
 5655 0020 0021     		movs	r1, #0
 5656 0022 4FF4C072 		mov	r2, #384
 5657 0026 FFF7FEFF 		bl	memset
1436:.\AdvantageImpl.c ****         PUARTMESSAGEPTR puartdisp = GetUARTMessageSlot(UART_DISPENSER);
 5658              		.loc 1 1436 0
 5659 002a A220     		movs	r0, #162
 5660 002c FFF7FEFF 		bl	GetUARTMessageSlot
 5661 0030 7861     		str	r0, [r7, #20]
1437:.\AdvantageImpl.c ****         if(puartdisp)
 5662              		.loc 1 1437 0
ARM GAS  C:\Users\RECEPC~1\AppData\Local\Temp\ccZZcwiB.s 			page 126


 5663 0032 7B69     		ldr	r3, [r7, #20]
 5664 0034 002B     		cmp	r3, #0
 5665 0036 00F03F81 		beq	.L202
 5666              	.LBB41:
1438:.\AdvantageImpl.c ****         {
1439:.\AdvantageImpl.c **** ///////////////////////////////////////////////////////////////////////////////////////////////////
1440:.\AdvantageImpl.c ****             puartdisp->_messagetx[index++] = SOM;
 5667              		.loc 1 1440 0
 5668 003a FB7F     		ldrb	r3, [r7, #31]	@ zero_extendqisi2
 5669 003c 5A1C     		adds	r2, r3, #1
 5670 003e FA77     		strb	r2, [r7, #31]
 5671 0040 1A46     		mov	r2, r3
 5672 0042 7B69     		ldr	r3, [r7, #20]
 5673 0044 1344     		add	r3, r3, r2
 5674 0046 FF22     		movs	r2, #255
 5675 0048 1A71     		strb	r2, [r3, #4]
1441:.\AdvantageImpl.c ****             if(_g_dispenserlayoutinfo._displaydigitsmode == 0x06)
 5676              		.loc 1 1441 0
 5677 004a 9D4B     		ldr	r3, .L218
 5678 004c 1B7C     		ldrb	r3, [r3, #16]	@ zero_extendqisi2
 5679 004e 062B     		cmp	r3, #6
 5680 0050 08D1     		bne	.L204
1442:.\AdvantageImpl.c ****                 puartdisp->_messagetx[index++] = 0xE5;//Standard Price Data
 5681              		.loc 1 1442 0
 5682 0052 FB7F     		ldrb	r3, [r7, #31]	@ zero_extendqisi2
 5683 0054 5A1C     		adds	r2, r3, #1
 5684 0056 FA77     		strb	r2, [r7, #31]
 5685 0058 1A46     		mov	r2, r3
 5686 005a 7B69     		ldr	r3, [r7, #20]
 5687 005c 1344     		add	r3, r3, r2
 5688 005e E522     		movs	r2, #229
 5689 0060 1A71     		strb	r2, [r3, #4]
 5690 0062 07E0     		b	.L205
 5691              	.L204:
1443:.\AdvantageImpl.c ****             else
1444:.\AdvantageImpl.c ****                 puartdisp->_messagetx[index++] = 0xE3;//Long Price Data - Extended Two-Wire Mode
 5692              		.loc 1 1444 0
 5693 0064 FB7F     		ldrb	r3, [r7, #31]	@ zero_extendqisi2
 5694 0066 5A1C     		adds	r2, r3, #1
 5695 0068 FA77     		strb	r2, [r7, #31]
 5696 006a 1A46     		mov	r2, r3
 5697 006c 7B69     		ldr	r3, [r7, #20]
 5698 006e 1344     		add	r3, r3, r2
 5699 0070 E322     		movs	r2, #227
 5700 0072 1A71     		strb	r2, [r3, #4]
 5701              	.L205:
1445:.\AdvantageImpl.c ****                 
1446:.\AdvantageImpl.c ****             puartdisp->_messagetx[index++] = 0xF4;
 5702              		.loc 1 1446 0
 5703 0074 FB7F     		ldrb	r3, [r7, #31]	@ zero_extendqisi2
 5704 0076 5A1C     		adds	r2, r3, #1
 5705 0078 FA77     		strb	r2, [r7, #31]
 5706 007a 1A46     		mov	r2, r3
 5707 007c 7B69     		ldr	r3, [r7, #20]
 5708 007e 1344     		add	r3, r3, r2
 5709 0080 F422     		movs	r2, #244
 5710 0082 1A71     		strb	r2, [r3, #4]
ARM GAS  C:\Users\RECEPC~1\AppData\Local\Temp\ccZZcwiB.s 			page 127


1447:.\AdvantageImpl.c ****             puartdisp->_messagetx[index++] = 0xF6; //Hose Data next
 5711              		.loc 1 1447 0
 5712 0084 FB7F     		ldrb	r3, [r7, #31]	@ zero_extendqisi2
 5713 0086 5A1C     		adds	r2, r3, #1
 5714 0088 FA77     		strb	r2, [r7, #31]
 5715 008a 1A46     		mov	r2, r3
 5716 008c 7B69     		ldr	r3, [r7, #20]
 5717 008e 1344     		add	r3, r3, r2
 5718 0090 F622     		movs	r2, #246
 5719 0092 1A71     		strb	r2, [r3, #4]
1448:.\AdvantageImpl.c ****             ///THIS IS AN APPLIED CONVENTION ===>> 0x0006 INDEX POSITION WITHIN THE PUMP'S BUFFER P
1449:.\AdvantageImpl.c ****             ///THESE CODES MUST BE MATCHED OTHERWISE THE LOGIC WILL BREAKUP THE CODE!
1450:.\AdvantageImpl.c ****             puartdisp->_messagetx[index++] = (0xE0 | (0x0F & ppump->_currenthose));
 5720              		.loc 1 1450 0
 5721 0094 FB7F     		ldrb	r3, [r7, #31]	@ zero_extendqisi2
 5722 0096 5A1C     		adds	r2, r3, #1
 5723 0098 FA77     		strb	r2, [r7, #31]
 5724 009a 1946     		mov	r1, r3
 5725 009c BB69     		ldr	r3, [r7, #24]
 5726 009e DB78     		ldrb	r3, [r3, #3]
 5727 00a0 DBB2     		uxtb	r3, r3
 5728 00a2 03F00F03 		and	r3, r3, #15
 5729 00a6 DBB2     		uxtb	r3, r3
 5730 00a8 63F01F03 		orn	r3, r3, #31
 5731 00ac DAB2     		uxtb	r2, r3
 5732 00ae 7B69     		ldr	r3, [r7, #20]
 5733 00b0 0B44     		add	r3, r3, r1
 5734 00b2 1A71     		strb	r2, [r3, #4]
1451:.\AdvantageImpl.c ****             
1452:.\AdvantageImpl.c ****             I2CBusLock();
 5735              		.loc 1 1452 0
 5736 00b4 FFF7FEFF 		bl	I2CBusLock
1453:.\AdvantageImpl.c ****             ClearEepromBuffer();
 5737              		.loc 1 1453 0
 5738 00b8 FFF7FEFF 		bl	ClearEepromBuffer
1454:.\AdvantageImpl.c ****             uint16 eeprompage = DispenserGetEepromPPUPageFromPumpID(ppump->_pumpid);
 5739              		.loc 1 1454 0
 5740 00bc BB69     		ldr	r3, [r7, #24]
 5741 00be 1B78     		ldrb	r3, [r3]	@ zero_extendqisi2
 5742 00c0 1846     		mov	r0, r3
 5743 00c2 FFF7FEFF 		bl	DispenserGetEepromPPUPageFromPumpID
 5744 00c6 0346     		mov	r3, r0
 5745 00c8 7B82     		strh	r3, [r7, #18]	@ movhi
1455:.\AdvantageImpl.c ****             LoadEepromPage(eeprompage);
 5746              		.loc 1 1455 0
 5747 00ca 7B8A     		ldrh	r3, [r7, #18]
 5748 00cc 1846     		mov	r0, r3
 5749 00ce FFF7FEFF 		bl	LoadEepromPage
1456:.\AdvantageImpl.c ****             switch(ppump->_currenthose)
 5750              		.loc 1 1456 0
 5751 00d2 BB69     		ldr	r3, [r7, #24]
 5752 00d4 DB78     		ldrb	r3, [r3, #3]
 5753 00d6 DBB2     		uxtb	r3, r3
 5754 00d8 032B     		cmp	r3, #3
 5755 00da 61D8     		bhi	.L206
 5756 00dc 01A2     		adr	r2, .L208
 5757 00de 52F823F0 		ldr	pc, [r2, r3, lsl #2]
ARM GAS  C:\Users\RECEPC~1\AppData\Local\Temp\ccZZcwiB.s 			page 128


 5758 00e2 00BF     		.p2align 2
 5759              	.L208:
 5760 00e4 F5000000 		.word	.L207+1
 5761 00e8 1D010000 		.word	.L209+1
 5762 00ec 49010000 		.word	.L210+1
 5763 00f0 75010000 		.word	.L211+1
 5764              		.p2align 1
 5765              	.L207:
1457:.\AdvantageImpl.c ****             {
1458:.\AdvantageImpl.c ****                 case 0x00:
1459:.\AdvantageImpl.c ****                 //Six bytes only since the PPU is constrained to this length
1460:.\AdvantageImpl.c ****                 memcpy(PBYTECAST(&ppump->_trasactionbuffer[GetBufferIndexFromDisplayID(DISPLAY_PREC
 5766              		.loc 1 1460 0
 5767 00f4 6520     		movs	r0, #101
 5768 00f6 FFF7FEFF 		bl	GetBufferIndexFromDisplayID
 5769 00fa 0346     		mov	r3, r0
 5770 00fc 2033     		adds	r3, r3, #32
 5771 00fe BA69     		ldr	r2, [r7, #24]
 5772 0100 D418     		adds	r4, r2, r3
 5773 0102 FFF7FEFF 		bl	GetEepromBuffer
 5774 0106 0546     		mov	r5, r0
 5775 0108 6520     		movs	r0, #101
 5776 010a FFF7FEFF 		bl	GetBufferLengthFromDisplayID
 5777 010e 0346     		mov	r3, r0
 5778 0110 2046     		mov	r0, r4
 5779 0112 2946     		mov	r1, r5
 5780 0114 1A46     		mov	r2, r3
 5781 0116 FFF7FEFF 		bl	memcpy
1461:.\AdvantageImpl.c ****                 break;
 5782              		.loc 1 1461 0
 5783 011a 41E0     		b	.L206
 5784              	.L209:
1462:.\AdvantageImpl.c ****                 case 0x01:
1463:.\AdvantageImpl.c ****                 //Six bytes only since the PPU is constrained to this length
1464:.\AdvantageImpl.c ****                 memcpy(PBYTECAST(&ppump->_trasactionbuffer[GetBufferIndexFromDisplayID(DISPLAY_PREC
 5785              		.loc 1 1464 0
 5786 011c 6520     		movs	r0, #101
 5787 011e FFF7FEFF 		bl	GetBufferIndexFromDisplayID
 5788 0122 0346     		mov	r3, r0
 5789 0124 2033     		adds	r3, r3, #32
 5790 0126 BA69     		ldr	r2, [r7, #24]
 5791 0128 D518     		adds	r5, r2, r3
 5792 012a FFF7FEFF 		bl	GetEepromBuffer
 5793 012e 0346     		mov	r3, r0
 5794 0130 03F11004 		add	r4, r3, #16
 5795 0134 6520     		movs	r0, #101
 5796 0136 FFF7FEFF 		bl	GetBufferLengthFromDisplayID
 5797 013a 0346     		mov	r3, r0
 5798 013c 2846     		mov	r0, r5
 5799 013e 2146     		mov	r1, r4
 5800 0140 1A46     		mov	r2, r3
 5801 0142 FFF7FEFF 		bl	memcpy
1465:.\AdvantageImpl.c ****                 break;
 5802              		.loc 1 1465 0
 5803 0146 2BE0     		b	.L206
 5804              	.L210:
1466:.\AdvantageImpl.c ****                 case 0x02:
ARM GAS  C:\Users\RECEPC~1\AppData\Local\Temp\ccZZcwiB.s 			page 129


1467:.\AdvantageImpl.c ****                 //Six bytes only since the PPU is constrained to this length
1468:.\AdvantageImpl.c ****                 memcpy(PBYTECAST(&ppump->_trasactionbuffer[GetBufferIndexFromDisplayID(DISPLAY_PREC
 5805              		.loc 1 1468 0
 5806 0148 6520     		movs	r0, #101
 5807 014a FFF7FEFF 		bl	GetBufferIndexFromDisplayID
 5808 014e 0346     		mov	r3, r0
 5809 0150 2033     		adds	r3, r3, #32
 5810 0152 BA69     		ldr	r2, [r7, #24]
 5811 0154 D518     		adds	r5, r2, r3
 5812 0156 FFF7FEFF 		bl	GetEepromBuffer
 5813 015a 0346     		mov	r3, r0
 5814 015c 03F12004 		add	r4, r3, #32
 5815 0160 6520     		movs	r0, #101
 5816 0162 FFF7FEFF 		bl	GetBufferLengthFromDisplayID
 5817 0166 0346     		mov	r3, r0
 5818 0168 2846     		mov	r0, r5
 5819 016a 2146     		mov	r1, r4
 5820 016c 1A46     		mov	r2, r3
 5821 016e FFF7FEFF 		bl	memcpy
1469:.\AdvantageImpl.c ****                 break;
 5822              		.loc 1 1469 0
 5823 0172 15E0     		b	.L206
 5824              	.L211:
1470:.\AdvantageImpl.c ****                 case 0x03:
1471:.\AdvantageImpl.c ****                 //Six bytes only since the PPU is constrained to this length
1472:.\AdvantageImpl.c ****                 memcpy(PBYTECAST(&ppump->_trasactionbuffer[GetBufferIndexFromDisplayID(DISPLAY_PREC
 5825              		.loc 1 1472 0
 5826 0174 6520     		movs	r0, #101
 5827 0176 FFF7FEFF 		bl	GetBufferIndexFromDisplayID
 5828 017a 0346     		mov	r3, r0
 5829 017c 2033     		adds	r3, r3, #32
 5830 017e BA69     		ldr	r2, [r7, #24]
 5831 0180 D518     		adds	r5, r2, r3
 5832 0182 FFF7FEFF 		bl	GetEepromBuffer
 5833 0186 0346     		mov	r3, r0
 5834 0188 03F13004 		add	r4, r3, #48
 5835 018c 6520     		movs	r0, #101
 5836 018e FFF7FEFF 		bl	GetBufferLengthFromDisplayID
 5837 0192 0346     		mov	r3, r0
 5838 0194 2846     		mov	r0, r5
 5839 0196 2146     		mov	r1, r4
 5840 0198 1A46     		mov	r2, r3
 5841 019a FFF7FEFF 		bl	memcpy
1473:.\AdvantageImpl.c ****                 break;
 5842              		.loc 1 1473 0
 5843 019e 00BF     		nop
 5844              	.L206:
1474:.\AdvantageImpl.c ****             }
1475:.\AdvantageImpl.c ****             I2CBusUnlock();
 5845              		.loc 1 1475 0
 5846 01a0 FFF7FEFF 		bl	I2CBusUnlock
1476:.\AdvantageImpl.c **** 
1477:.\AdvantageImpl.c ****             puartdisp->_messagetx[index++] = 0xF7; //PPU Data next            
 5847              		.loc 1 1477 0
 5848 01a4 FB7F     		ldrb	r3, [r7, #31]	@ zero_extendqisi2
 5849 01a6 5A1C     		adds	r2, r3, #1
 5850 01a8 FA77     		strb	r2, [r7, #31]
ARM GAS  C:\Users\RECEPC~1\AppData\Local\Temp\ccZZcwiB.s 			page 130


 5851 01aa 1A46     		mov	r2, r3
 5852 01ac 7B69     		ldr	r3, [r7, #20]
 5853 01ae 1344     		add	r3, r3, r2
 5854 01b0 F722     		movs	r2, #247
 5855 01b2 1A71     		strb	r2, [r3, #4]
1478:.\AdvantageImpl.c ****             //Here we copy the remaining 6 bytes for the preset value
1479:.\AdvantageImpl.c ****             ///THIS IS AN APPLIED CONVENTION ===>> 0x0008 INDEX POSITION WITHIN THE PUMP'S BUFFER P
1480:.\AdvantageImpl.c ****             ///THESE CODES MUST BE MATCHED OTHERWISE THE LOGIC WILL BREAKUP THE CODE!
1481:.\AdvantageImpl.c ****             uint8 bufferlength = GetBufferLengthFromDisplayID(DISPLAY_PRECIO_POR_UNIDAD);
 5856              		.loc 1 1481 0
 5857 01b4 6520     		movs	r0, #101
 5858 01b6 FFF7FEFF 		bl	GetBufferLengthFromDisplayID
 5859 01ba 0346     		mov	r3, r0
 5860 01bc 7B74     		strb	r3, [r7, #17]
1482:.\AdvantageImpl.c ****             char8 *ptr = &ppump->_trasactionbuffer[GetBufferIndexFromDisplayID(DISPLAY_PRECIO_POR_U
 5861              		.loc 1 1482 0
 5862 01be 6520     		movs	r0, #101
 5863 01c0 FFF7FEFF 		bl	GetBufferIndexFromDisplayID
 5864 01c4 0346     		mov	r3, r0
 5865 01c6 2033     		adds	r3, r3, #32
 5866 01c8 BA69     		ldr	r2, [r7, #24]
 5867 01ca 1344     		add	r3, r3, r2
 5868 01cc FB60     		str	r3, [r7, #12]
1483:.\AdvantageImpl.c ****             
1484:.\AdvantageImpl.c ****             if(_g_dispenserlayoutinfo._displaydigitsmode == 0x06)
 5869              		.loc 1 1484 0
 5870 01ce 3C4B     		ldr	r3, .L218
 5871 01d0 1B7C     		ldrb	r3, [r3, #16]	@ zero_extendqisi2
 5872 01d2 062B     		cmp	r3, #6
 5873 01d4 1AD1     		bne	.L212
 5874              	.LBB42:
1485:.\AdvantageImpl.c ****             {
1486:.\AdvantageImpl.c ****                 FOR(uint8 buffndx = 0, buffndx < 4, buffndx++)//Standard Price Data
 5875              		.loc 1 1486 0
 5876 01d6 0023     		movs	r3, #0
 5877 01d8 BB77     		strb	r3, [r7, #30]
 5878 01da 13E0     		b	.L213
 5879              	.L214:
1487:.\AdvantageImpl.c ****                     puartdisp->_messagetx[index++] = (0xE0 | (0x0F & ptr[buffndx])); //Translate fr
 5880              		.loc 1 1487 0 discriminator 3
 5881 01dc FB7F     		ldrb	r3, [r7, #31]	@ zero_extendqisi2
 5882 01de 5A1C     		adds	r2, r3, #1
 5883 01e0 FA77     		strb	r2, [r7, #31]
 5884 01e2 1946     		mov	r1, r3
 5885 01e4 BB7F     		ldrb	r3, [r7, #30]	@ zero_extendqisi2
 5886 01e6 FA68     		ldr	r2, [r7, #12]
 5887 01e8 1344     		add	r3, r3, r2
 5888 01ea 1B78     		ldrb	r3, [r3]	@ zero_extendqisi2
 5889 01ec 03F00F03 		and	r3, r3, #15
 5890 01f0 DBB2     		uxtb	r3, r3
 5891 01f2 63F01F03 		orn	r3, r3, #31
 5892 01f6 DAB2     		uxtb	r2, r3
 5893 01f8 7B69     		ldr	r3, [r7, #20]
 5894 01fa 0B44     		add	r3, r3, r1
 5895 01fc 1A71     		strb	r2, [r3, #4]
1486:.\AdvantageImpl.c ****                     puartdisp->_messagetx[index++] = (0xE0 | (0x0F & ptr[buffndx])); //Translate fr
 5896              		.loc 1 1486 0 discriminator 3
ARM GAS  C:\Users\RECEPC~1\AppData\Local\Temp\ccZZcwiB.s 			page 131


 5897 01fe BB7F     		ldrb	r3, [r7, #30]	@ zero_extendqisi2
 5898 0200 0133     		adds	r3, r3, #1
 5899 0202 BB77     		strb	r3, [r7, #30]
 5900              	.L213:
1486:.\AdvantageImpl.c ****                     puartdisp->_messagetx[index++] = (0xE0 | (0x0F & ptr[buffndx])); //Translate fr
 5901              		.loc 1 1486 0 is_stmt 0 discriminator 1
 5902 0204 BB7F     		ldrb	r3, [r7, #30]	@ zero_extendqisi2
 5903 0206 032B     		cmp	r3, #3
 5904 0208 E8D9     		bls	.L214
 5905              	.LBE42:
 5906 020a 19E0     		b	.L215
 5907              	.L212:
 5908              	.LBB43:
1488:.\AdvantageImpl.c ****             }
1489:.\AdvantageImpl.c ****             else
1490:.\AdvantageImpl.c ****             {
1491:.\AdvantageImpl.c ****                 FOR(uint8 buffndx = 0, buffndx < 6, buffndx++)//Long Price Data - Extended Two-Wire
 5909              		.loc 1 1491 0 is_stmt 1
 5910 020c 0023     		movs	r3, #0
 5911 020e 7B77     		strb	r3, [r7, #29]
 5912 0210 13E0     		b	.L216
 5913              	.L217:
1492:.\AdvantageImpl.c ****                     puartdisp->_messagetx[index++] = (0xE0 | (0x0F & ptr[buffndx])); //Translate fr
 5914              		.loc 1 1492 0 discriminator 3
 5915 0212 FB7F     		ldrb	r3, [r7, #31]	@ zero_extendqisi2
 5916 0214 5A1C     		adds	r2, r3, #1
 5917 0216 FA77     		strb	r2, [r7, #31]
 5918 0218 1946     		mov	r1, r3
 5919 021a 7B7F     		ldrb	r3, [r7, #29]	@ zero_extendqisi2
 5920 021c FA68     		ldr	r2, [r7, #12]
 5921 021e 1344     		add	r3, r3, r2
 5922 0220 1B78     		ldrb	r3, [r3]	@ zero_extendqisi2
 5923 0222 03F00F03 		and	r3, r3, #15
 5924 0226 DBB2     		uxtb	r3, r3
 5925 0228 63F01F03 		orn	r3, r3, #31
 5926 022c DAB2     		uxtb	r2, r3
 5927 022e 7B69     		ldr	r3, [r7, #20]
 5928 0230 0B44     		add	r3, r3, r1
 5929 0232 1A71     		strb	r2, [r3, #4]
1491:.\AdvantageImpl.c ****                     puartdisp->_messagetx[index++] = (0xE0 | (0x0F & ptr[buffndx])); //Translate fr
 5930              		.loc 1 1491 0 discriminator 3
 5931 0234 7B7F     		ldrb	r3, [r7, #29]	@ zero_extendqisi2
 5932 0236 0133     		adds	r3, r3, #1
 5933 0238 7B77     		strb	r3, [r7, #29]
 5934              	.L216:
1491:.\AdvantageImpl.c ****                     puartdisp->_messagetx[index++] = (0xE0 | (0x0F & ptr[buffndx])); //Translate fr
 5935              		.loc 1 1491 0 is_stmt 0 discriminator 1
 5936 023a 7B7F     		ldrb	r3, [r7, #29]	@ zero_extendqisi2
 5937 023c 052B     		cmp	r3, #5
 5938 023e E8D9     		bls	.L217
 5939              	.L215:
 5940              	.LBE43:
1493:.\AdvantageImpl.c ****             }
1494:.\AdvantageImpl.c **** 
1495:.\AdvantageImpl.c ****             memset(&ppump->_trasactionbuffer[GetBufferIndexFromDisplayID(DISPLAY_PRECIO_POR_UNIDAD)
 5941              		.loc 1 1495 0 is_stmt 1
 5942 0240 6520     		movs	r0, #101
ARM GAS  C:\Users\RECEPC~1\AppData\Local\Temp\ccZZcwiB.s 			page 132


 5943 0242 FFF7FEFF 		bl	GetBufferIndexFromDisplayID
 5944 0246 0346     		mov	r3, r0
 5945 0248 2033     		adds	r3, r3, #32
 5946 024a BA69     		ldr	r2, [r7, #24]
 5947 024c D418     		adds	r4, r2, r3
 5948 024e 6520     		movs	r0, #101
 5949 0250 FFF7FEFF 		bl	GetBufferLengthFromDisplayID
 5950 0254 0346     		mov	r3, r0
 5951 0256 2046     		mov	r0, r4
 5952 0258 0021     		movs	r1, #0
 5953 025a 1A46     		mov	r2, r3
 5954 025c FFF7FEFF 		bl	memset
1496:.\AdvantageImpl.c ****             puartdisp->_messagetx[index++] = 0xFB; //LRC next
 5955              		.loc 1 1496 0
 5956 0260 FB7F     		ldrb	r3, [r7, #31]	@ zero_extendqisi2
 5957 0262 5A1C     		adds	r2, r3, #1
 5958 0264 FA77     		strb	r2, [r7, #31]
 5959 0266 1A46     		mov	r2, r3
 5960 0268 7B69     		ldr	r3, [r7, #20]
 5961 026a 1344     		add	r3, r3, r2
 5962 026c FB22     		movs	r2, #251
 5963 026e 1A71     		strb	r2, [r3, #4]
1497:.\AdvantageImpl.c ****             puartdisp->_messagetx[index++] = GetLRC(puartdisp->_messagetx);
 5964              		.loc 1 1497 0
 5965 0270 FB7F     		ldrb	r3, [r7, #31]	@ zero_extendqisi2
 5966 0272 5A1C     		adds	r2, r3, #1
 5967 0274 FA77     		strb	r2, [r7, #31]
 5968 0276 1C46     		mov	r4, r3
 5969 0278 7B69     		ldr	r3, [r7, #20]
 5970 027a 0433     		adds	r3, r3, #4
 5971 027c 1846     		mov	r0, r3
 5972 027e FFF7FEFF 		bl	GetLRC
 5973 0282 0346     		mov	r3, r0
 5974 0284 1A46     		mov	r2, r3
 5975 0286 7B69     		ldr	r3, [r7, #20]
 5976 0288 2344     		add	r3, r3, r4
 5977 028a 1A71     		strb	r2, [r3, #4]
1498:.\AdvantageImpl.c ****             puartdisp->_messagetx[index++] = EOM;
 5978              		.loc 1 1498 0
 5979 028c FB7F     		ldrb	r3, [r7, #31]	@ zero_extendqisi2
 5980 028e 5A1C     		adds	r2, r3, #1
 5981 0290 FA77     		strb	r2, [r7, #31]
 5982 0292 1A46     		mov	r2, r3
 5983 0294 7B69     		ldr	r3, [r7, #20]
 5984 0296 1344     		add	r3, r3, r2
 5985 0298 F022     		movs	r2, #240
 5986 029a 1A71     		strb	r2, [r3, #4]
1499:.\AdvantageImpl.c **** ///////////////////////////////////////////////////////////////////////////////////////////////////
1500:.\AdvantageImpl.c ****             
1501:.\AdvantageImpl.c ****             puartdisp->_messagelength = index;
 5987              		.loc 1 1501 0
 5988 029c FB7F     		ldrb	r3, [r7, #31]	@ zero_extendqisi2
 5989 029e 9AB2     		uxth	r2, r3
 5990 02a0 7B69     		ldr	r3, [r7, #20]
 5991 02a2 5A80     		strh	r2, [r3, #2]	@ movhi
1502:.\AdvantageImpl.c ****             puartdisp->_messagestate = PENDING;
 5992              		.loc 1 1502 0
ARM GAS  C:\Users\RECEPC~1\AppData\Local\Temp\ccZZcwiB.s 			page 133


 5993 02a4 7B69     		ldr	r3, [r7, #20]
 5994 02a6 C222     		movs	r2, #194
 5995 02a8 1A70     		strb	r2, [r3]
1503:.\AdvantageImpl.c ****             
1504:.\AdvantageImpl.c ****             ppump->_currenthose++;
 5996              		.loc 1 1504 0
 5997 02aa BB69     		ldr	r3, [r7, #24]
 5998 02ac DB78     		ldrb	r3, [r3, #3]
 5999 02ae DBB2     		uxtb	r3, r3
 6000 02b0 0133     		adds	r3, r3, #1
 6001 02b2 DAB2     		uxtb	r2, r3
 6002 02b4 BB69     		ldr	r3, [r7, #24]
 6003 02b6 DA70     		strb	r2, [r3, #3]
 6004              	.L202:
 6005              	.LBE41:
 6006              	.LBE40:
1505:.\AdvantageImpl.c ****         }
1506:.\AdvantageImpl.c ****     }    
1507:.\AdvantageImpl.c **** }
 6007              		.loc 1 1507 0
 6008 02b8 2037     		adds	r7, r7, #32
 6009              		.cfi_def_cfa_offset 16
 6010 02ba BD46     		mov	sp, r7
 6011              		.cfi_def_cfa_register 13
 6012              		@ sp needed
 6013 02bc B0BD     		pop	{r4, r5, r7, pc}
 6014              	.L219:
 6015 02be 00BF     		.align	2
 6016              	.L218:
 6017 02c0 00000000 		.word	_g_dispenserlayoutinfo
 6018              		.cfi_endproc
 6019              	.LFE85:
 6020              		.size	PumpPpuChange, .-PumpPpuChange
 6021              		.section	.text.PumpDefault2CreditPpuChange,"ax",%progbits
 6022              		.align	2
 6023              		.global	PumpDefault2CreditPpuChange
 6024              		.thumb
 6025              		.thumb_func
 6026              		.type	PumpDefault2CreditPpuChange, %function
 6027              	PumpDefault2CreditPpuChange:
 6028              	.LFB86:
1508:.\AdvantageImpl.c **** 
1509:.\AdvantageImpl.c **** void PumpDefault2CreditPpuChange(void *pparam)
1510:.\AdvantageImpl.c **** {
 6029              		.loc 1 1510 0
 6030              		.cfi_startproc
 6031              		@ args = 0, pretend = 0, frame = 24
 6032              		@ frame_needed = 1, uses_anonymous_args = 0
 6033 0000 90B5     		push	{r4, r7, lr}
 6034              		.cfi_def_cfa_offset 12
 6035              		.cfi_offset 4, -12
 6036              		.cfi_offset 7, -8
 6037              		.cfi_offset 14, -4
 6038 0002 87B0     		sub	sp, sp, #28
 6039              		.cfi_def_cfa_offset 40
 6040 0004 00AF     		add	r7, sp, #0
 6041              		.cfi_def_cfa_register 7
ARM GAS  C:\Users\RECEPC~1\AppData\Local\Temp\ccZZcwiB.s 			page 134


 6042 0006 7860     		str	r0, [r7, #4]
1511:.\AdvantageImpl.c ****     PNEAR_PUMPPTR ppump = (PNEAR_PUMPPTR)pparam;
 6043              		.loc 1 1511 0
 6044 0008 7B68     		ldr	r3, [r7, #4]
 6045 000a 3B61     		str	r3, [r7, #16]
1512:.\AdvantageImpl.c ****     if(ppump)
 6046              		.loc 1 1512 0
 6047 000c 3B69     		ldr	r3, [r7, #16]
 6048 000e 002B     		cmp	r3, #0
 6049 0010 00F0C980 		beq	.L220
 6050              	.LBB44:
1513:.\AdvantageImpl.c ****     {
1514:.\AdvantageImpl.c ****         uint8_t index = 0;  
 6051              		.loc 1 1514 0
 6052 0014 0023     		movs	r3, #0
 6053 0016 FB75     		strb	r3, [r7, #23]
1515:.\AdvantageImpl.c ****         memset(ppump->_rxbuffer, 0x00, _PUMP_RX_BUFFER_SIZE_);
 6054              		.loc 1 1515 0
 6055 0018 3B69     		ldr	r3, [r7, #16]
 6056 001a 03F5D073 		add	r3, r3, #416
 6057 001e 1846     		mov	r0, r3
 6058 0020 0021     		movs	r1, #0
 6059 0022 4FF4C072 		mov	r2, #384
 6060 0026 FFF7FEFF 		bl	memset
1516:.\AdvantageImpl.c ****         PUARTMESSAGEPTR puartdisp = GetUARTMessageSlot(UART_DISPENSER);
 6061              		.loc 1 1516 0
 6062 002a A220     		movs	r0, #162
 6063 002c FFF7FEFF 		bl	GetUARTMessageSlot
 6064 0030 F860     		str	r0, [r7, #12]
1517:.\AdvantageImpl.c ****         if(puartdisp)
 6065              		.loc 1 1517 0
 6066 0032 FB68     		ldr	r3, [r7, #12]
 6067 0034 002B     		cmp	r3, #0
 6068 0036 00F0B680 		beq	.L220
 6069              	.LBB45:
1518:.\AdvantageImpl.c ****         {
1519:.\AdvantageImpl.c **** ///////////////////////////////////////////////////////////////////////////////////////////////////
1520:.\AdvantageImpl.c ****             puartdisp->_messagetx[index++] = SOM;
 6070              		.loc 1 1520 0
 6071 003a FB7D     		ldrb	r3, [r7, #23]	@ zero_extendqisi2
 6072 003c 5A1C     		adds	r2, r3, #1
 6073 003e FA75     		strb	r2, [r7, #23]
 6074 0040 1A46     		mov	r2, r3
 6075 0042 FB68     		ldr	r3, [r7, #12]
 6076 0044 1344     		add	r3, r3, r2
 6077 0046 FF22     		movs	r2, #255
 6078 0048 1A71     		strb	r2, [r3, #4]
1521:.\AdvantageImpl.c ****             if(_g_dispenserlayoutinfo._displaydigitsmode == 0x06)
 6079              		.loc 1 1521 0
 6080 004a 584B     		ldr	r3, .L230
 6081 004c 1B7C     		ldrb	r3, [r3, #16]	@ zero_extendqisi2
 6082 004e 062B     		cmp	r3, #6
 6083 0050 08D1     		bne	.L222
1522:.\AdvantageImpl.c ****                 puartdisp->_messagetx[index++] = 0xE5;//Standard Price Data
 6084              		.loc 1 1522 0
 6085 0052 FB7D     		ldrb	r3, [r7, #23]	@ zero_extendqisi2
 6086 0054 5A1C     		adds	r2, r3, #1
ARM GAS  C:\Users\RECEPC~1\AppData\Local\Temp\ccZZcwiB.s 			page 135


 6087 0056 FA75     		strb	r2, [r7, #23]
 6088 0058 1A46     		mov	r2, r3
 6089 005a FB68     		ldr	r3, [r7, #12]
 6090 005c 1344     		add	r3, r3, r2
 6091 005e E522     		movs	r2, #229
 6092 0060 1A71     		strb	r2, [r3, #4]
 6093 0062 07E0     		b	.L223
 6094              	.L222:
1523:.\AdvantageImpl.c ****             else
1524:.\AdvantageImpl.c ****                 puartdisp->_messagetx[index++] = 0xE3;//Long Price Data - Extended Two-Wire Mode
 6095              		.loc 1 1524 0
 6096 0064 FB7D     		ldrb	r3, [r7, #23]	@ zero_extendqisi2
 6097 0066 5A1C     		adds	r2, r3, #1
 6098 0068 FA75     		strb	r2, [r7, #23]
 6099 006a 1A46     		mov	r2, r3
 6100 006c FB68     		ldr	r3, [r7, #12]
 6101 006e 1344     		add	r3, r3, r2
 6102 0070 E322     		movs	r2, #227
 6103 0072 1A71     		strb	r2, [r3, #4]
 6104              	.L223:
1525:.\AdvantageImpl.c ****             
1526:.\AdvantageImpl.c ****             puartdisp->_messagetx[index++] = 0xF4;
 6105              		.loc 1 1526 0
 6106 0074 FB7D     		ldrb	r3, [r7, #23]	@ zero_extendqisi2
 6107 0076 5A1C     		adds	r2, r3, #1
 6108 0078 FA75     		strb	r2, [r7, #23]
 6109 007a 1A46     		mov	r2, r3
 6110 007c FB68     		ldr	r3, [r7, #12]
 6111 007e 1344     		add	r3, r3, r2
 6112 0080 F422     		movs	r2, #244
 6113 0082 1A71     		strb	r2, [r3, #4]
1527:.\AdvantageImpl.c ****             puartdisp->_messagetx[index++] = 0xF6; //Hose Data next
 6114              		.loc 1 1527 0
 6115 0084 FB7D     		ldrb	r3, [r7, #23]	@ zero_extendqisi2
 6116 0086 5A1C     		adds	r2, r3, #1
 6117 0088 FA75     		strb	r2, [r7, #23]
 6118 008a 1A46     		mov	r2, r3
 6119 008c FB68     		ldr	r3, [r7, #12]
 6120 008e 1344     		add	r3, r3, r2
 6121 0090 F622     		movs	r2, #246
 6122 0092 1A71     		strb	r2, [r3, #4]
1528:.\AdvantageImpl.c ****             ///THIS IS AN APPLIED CONVENTION ===>> 0x0006 INDEX POSITION WITHIN THE PUMP'S BUFFER P
1529:.\AdvantageImpl.c ****             ///THESE CODES MUST BE MATCHED OTHERWISE THE LOGIC WILL BREAKUP THE CODE!
1530:.\AdvantageImpl.c ****             puartdisp->_messagetx[index++] = (0xE0 | ppump->_authorizationinfo._hoseid);
 6123              		.loc 1 1530 0
 6124 0094 FB7D     		ldrb	r3, [r7, #23]	@ zero_extendqisi2
 6125 0096 5A1C     		adds	r2, r3, #1
 6126 0098 FA75     		strb	r2, [r7, #23]
 6127 009a 1946     		mov	r1, r3
 6128 009c 3B69     		ldr	r3, [r7, #16]
 6129 009e 93F8A239 		ldrb	r3, [r3, #2466]
 6130 00a2 DBB2     		uxtb	r3, r3
 6131 00a4 63F01F03 		orn	r3, r3, #31
 6132 00a8 DAB2     		uxtb	r2, r3
 6133 00aa FB68     		ldr	r3, [r7, #12]
 6134 00ac 0B44     		add	r3, r3, r1
 6135 00ae 1A71     		strb	r2, [r3, #4]
ARM GAS  C:\Users\RECEPC~1\AppData\Local\Temp\ccZZcwiB.s 			page 136


1531:.\AdvantageImpl.c ****             
1532:.\AdvantageImpl.c ****             puartdisp->_messagetx[index++] = 0xF7; //PPU Data next            
 6136              		.loc 1 1532 0
 6137 00b0 FB7D     		ldrb	r3, [r7, #23]	@ zero_extendqisi2
 6138 00b2 5A1C     		adds	r2, r3, #1
 6139 00b4 FA75     		strb	r2, [r7, #23]
 6140 00b6 1A46     		mov	r2, r3
 6141 00b8 FB68     		ldr	r3, [r7, #12]
 6142 00ba 1344     		add	r3, r3, r2
 6143 00bc F722     		movs	r2, #247
 6144 00be 1A71     		strb	r2, [r3, #4]
1533:.\AdvantageImpl.c ****             //Here we copy the remaining 6 bytes for the preset value
1534:.\AdvantageImpl.c ****             ///THIS IS AN APPLIED CONVENTION ===>> 0x0008 INDEX POSITION WITHIN THE PUMP'S BUFFER P
1535:.\AdvantageImpl.c ****             ///THESE CODES MUST BE MATCHED OTHERWISE THE LOGIC WILL BREAKUP THE CODE!
1536:.\AdvantageImpl.c ****             B78AD90CF552D9B30A(ppump->_authorizationinfo._price, PBYTECAST(&ppump->_trasactionbuffe
 6145              		.loc 1 1536 0
 6146 00c0 3B69     		ldr	r3, [r7, #16]
 6147 00c2 B3F8A439 		ldrh	r3, [r3, #2468]	@ movhi
 6148 00c6 9BB2     		uxth	r3, r3
 6149 00c8 9AB2     		uxth	r2, r3
 6150 00ca 4FF00003 		mov	r3, #0
 6151 00ce 3969     		ldr	r1, [r7, #16]
 6152 00d0 01F12804 		add	r4, r1, #40
 6153 00d4 1046     		mov	r0, r2
 6154 00d6 1946     		mov	r1, r3
 6155 00d8 2246     		mov	r2, r4
 6156 00da FFF7FEFF 		bl	B78AD90CF552D9B30A
1537:.\AdvantageImpl.c ****             char8 *ptr = &ppump->_trasactionbuffer[0x0008];
 6157              		.loc 1 1537 0
 6158 00de 3B69     		ldr	r3, [r7, #16]
 6159 00e0 2833     		adds	r3, r3, #40
 6160 00e2 BB60     		str	r3, [r7, #8]
1538:.\AdvantageImpl.c ****             
1539:.\AdvantageImpl.c ****             if(_g_dispenserlayoutinfo._displaydigitsmode == 0x06)
 6161              		.loc 1 1539 0
 6162 00e4 314B     		ldr	r3, .L230
 6163 00e6 1B7C     		ldrb	r3, [r3, #16]	@ zero_extendqisi2
 6164 00e8 062B     		cmp	r3, #6
 6165 00ea 1AD1     		bne	.L224
 6166              	.LBB46:
1540:.\AdvantageImpl.c ****             {
1541:.\AdvantageImpl.c ****                 FOR(uint8 buffndx = 0, buffndx < 4, buffndx++)//Standard Price Data
 6167              		.loc 1 1541 0
 6168 00ec 0023     		movs	r3, #0
 6169 00ee BB75     		strb	r3, [r7, #22]
 6170 00f0 13E0     		b	.L225
 6171              	.L226:
1542:.\AdvantageImpl.c ****                     puartdisp->_messagetx[index++] = (0xE0 | (0x0F & ptr[buffndx])); //Translate fr
 6172              		.loc 1 1542 0 discriminator 3
 6173 00f2 FB7D     		ldrb	r3, [r7, #23]	@ zero_extendqisi2
 6174 00f4 5A1C     		adds	r2, r3, #1
 6175 00f6 FA75     		strb	r2, [r7, #23]
 6176 00f8 1946     		mov	r1, r3
 6177 00fa BB7D     		ldrb	r3, [r7, #22]	@ zero_extendqisi2
 6178 00fc BA68     		ldr	r2, [r7, #8]
 6179 00fe 1344     		add	r3, r3, r2
 6180 0100 1B78     		ldrb	r3, [r3]	@ zero_extendqisi2
ARM GAS  C:\Users\RECEPC~1\AppData\Local\Temp\ccZZcwiB.s 			page 137


 6181 0102 03F00F03 		and	r3, r3, #15
 6182 0106 DBB2     		uxtb	r3, r3
 6183 0108 63F01F03 		orn	r3, r3, #31
 6184 010c DAB2     		uxtb	r2, r3
 6185 010e FB68     		ldr	r3, [r7, #12]
 6186 0110 0B44     		add	r3, r3, r1
 6187 0112 1A71     		strb	r2, [r3, #4]
1541:.\AdvantageImpl.c ****                     puartdisp->_messagetx[index++] = (0xE0 | (0x0F & ptr[buffndx])); //Translate fr
 6188              		.loc 1 1541 0 discriminator 3
 6189 0114 BB7D     		ldrb	r3, [r7, #22]	@ zero_extendqisi2
 6190 0116 0133     		adds	r3, r3, #1
 6191 0118 BB75     		strb	r3, [r7, #22]
 6192              	.L225:
1541:.\AdvantageImpl.c ****                     puartdisp->_messagetx[index++] = (0xE0 | (0x0F & ptr[buffndx])); //Translate fr
 6193              		.loc 1 1541 0 is_stmt 0 discriminator 1
 6194 011a BB7D     		ldrb	r3, [r7, #22]	@ zero_extendqisi2
 6195 011c 032B     		cmp	r3, #3
 6196 011e E8D9     		bls	.L226
 6197              	.LBE46:
 6198 0120 19E0     		b	.L227
 6199              	.L224:
 6200              	.LBB47:
1543:.\AdvantageImpl.c ****             }
1544:.\AdvantageImpl.c ****             else
1545:.\AdvantageImpl.c ****             {
1546:.\AdvantageImpl.c ****                 FOR(uint8 buffndx = 0, buffndx < 6, buffndx++)//Long Price Data - Extended Two-Wire
 6201              		.loc 1 1546 0 is_stmt 1
 6202 0122 0023     		movs	r3, #0
 6203 0124 7B75     		strb	r3, [r7, #21]
 6204 0126 13E0     		b	.L228
 6205              	.L229:
1547:.\AdvantageImpl.c ****                     puartdisp->_messagetx[index++] = (0xE0 | (0x0F & ptr[buffndx])); //Translate fr
 6206              		.loc 1 1547 0 discriminator 3
 6207 0128 FB7D     		ldrb	r3, [r7, #23]	@ zero_extendqisi2
 6208 012a 5A1C     		adds	r2, r3, #1
 6209 012c FA75     		strb	r2, [r7, #23]
 6210 012e 1946     		mov	r1, r3
 6211 0130 7B7D     		ldrb	r3, [r7, #21]	@ zero_extendqisi2
 6212 0132 BA68     		ldr	r2, [r7, #8]
 6213 0134 1344     		add	r3, r3, r2
 6214 0136 1B78     		ldrb	r3, [r3]	@ zero_extendqisi2
 6215 0138 03F00F03 		and	r3, r3, #15
 6216 013c DBB2     		uxtb	r3, r3
 6217 013e 63F01F03 		orn	r3, r3, #31
 6218 0142 DAB2     		uxtb	r2, r3
 6219 0144 FB68     		ldr	r3, [r7, #12]
 6220 0146 0B44     		add	r3, r3, r1
 6221 0148 1A71     		strb	r2, [r3, #4]
1546:.\AdvantageImpl.c ****                     puartdisp->_messagetx[index++] = (0xE0 | (0x0F & ptr[buffndx])); //Translate fr
 6222              		.loc 1 1546 0 discriminator 3
 6223 014a 7B7D     		ldrb	r3, [r7, #21]	@ zero_extendqisi2
 6224 014c 0133     		adds	r3, r3, #1
 6225 014e 7B75     		strb	r3, [r7, #21]
 6226              	.L228:
1546:.\AdvantageImpl.c ****                     puartdisp->_messagetx[index++] = (0xE0 | (0x0F & ptr[buffndx])); //Translate fr
 6227              		.loc 1 1546 0 is_stmt 0 discriminator 1
 6228 0150 7B7D     		ldrb	r3, [r7, #21]	@ zero_extendqisi2
ARM GAS  C:\Users\RECEPC~1\AppData\Local\Temp\ccZZcwiB.s 			page 138


 6229 0152 052B     		cmp	r3, #5
 6230 0154 E8D9     		bls	.L229
 6231              	.L227:
 6232              	.LBE47:
1548:.\AdvantageImpl.c ****             }
1549:.\AdvantageImpl.c ****             
1550:.\AdvantageImpl.c ****             puartdisp->_messagetx[index++] = 0xFB; //LRC next
 6233              		.loc 1 1550 0 is_stmt 1
 6234 0156 FB7D     		ldrb	r3, [r7, #23]	@ zero_extendqisi2
 6235 0158 5A1C     		adds	r2, r3, #1
 6236 015a FA75     		strb	r2, [r7, #23]
 6237 015c 1A46     		mov	r2, r3
 6238 015e FB68     		ldr	r3, [r7, #12]
 6239 0160 1344     		add	r3, r3, r2
 6240 0162 FB22     		movs	r2, #251
 6241 0164 1A71     		strb	r2, [r3, #4]
1551:.\AdvantageImpl.c ****             puartdisp->_messagetx[index++] = GetLRC(puartdisp->_messagetx);
 6242              		.loc 1 1551 0
 6243 0166 FB7D     		ldrb	r3, [r7, #23]	@ zero_extendqisi2
 6244 0168 5A1C     		adds	r2, r3, #1
 6245 016a FA75     		strb	r2, [r7, #23]
 6246 016c 1C46     		mov	r4, r3
 6247 016e FB68     		ldr	r3, [r7, #12]
 6248 0170 0433     		adds	r3, r3, #4
 6249 0172 1846     		mov	r0, r3
 6250 0174 FFF7FEFF 		bl	GetLRC
 6251 0178 0346     		mov	r3, r0
 6252 017a 1A46     		mov	r2, r3
 6253 017c FB68     		ldr	r3, [r7, #12]
 6254 017e 2344     		add	r3, r3, r4
 6255 0180 1A71     		strb	r2, [r3, #4]
1552:.\AdvantageImpl.c ****             puartdisp->_messagetx[index++] = EOM;
 6256              		.loc 1 1552 0
 6257 0182 FB7D     		ldrb	r3, [r7, #23]	@ zero_extendqisi2
 6258 0184 5A1C     		adds	r2, r3, #1
 6259 0186 FA75     		strb	r2, [r7, #23]
 6260 0188 1A46     		mov	r2, r3
 6261 018a FB68     		ldr	r3, [r7, #12]
 6262 018c 1344     		add	r3, r3, r2
 6263 018e F022     		movs	r2, #240
 6264 0190 1A71     		strb	r2, [r3, #4]
1553:.\AdvantageImpl.c **** ///////////////////////////////////////////////////////////////////////////////////////////////////
1554:.\AdvantageImpl.c ****             
1555:.\AdvantageImpl.c ****             puartdisp->_messagelength = index;
 6265              		.loc 1 1555 0
 6266 0192 FB7D     		ldrb	r3, [r7, #23]	@ zero_extendqisi2
 6267 0194 9AB2     		uxth	r2, r3
 6268 0196 FB68     		ldr	r3, [r7, #12]
 6269 0198 5A80     		strh	r2, [r3, #2]	@ movhi
1556:.\AdvantageImpl.c ****             puartdisp->_messagestate = PENDING;
 6270              		.loc 1 1556 0
 6271 019a FB68     		ldr	r3, [r7, #12]
 6272 019c C222     		movs	r2, #194
 6273 019e 1A70     		strb	r2, [r3]
1557:.\AdvantageImpl.c ****             
1558:.\AdvantageImpl.c ****             //This marker flag is set to notify the transactional engine about the price restore re
1559:.\AdvantageImpl.c ****             ppump->_restoreprice = true;
ARM GAS  C:\Users\RECEPC~1\AppData\Local\Temp\ccZZcwiB.s 			page 139


 6274              		.loc 1 1559 0
 6275 01a0 3B69     		ldr	r3, [r7, #16]
 6276 01a2 0122     		movs	r2, #1
 6277 01a4 DA71     		strb	r2, [r3, #7]
 6278              	.L220:
 6279              	.LBE45:
 6280              	.LBE44:
1560:.\AdvantageImpl.c ****         }
1561:.\AdvantageImpl.c ****     }    
1562:.\AdvantageImpl.c **** }
 6281              		.loc 1 1562 0
 6282 01a6 1C37     		adds	r7, r7, #28
 6283              		.cfi_def_cfa_offset 12
 6284 01a8 BD46     		mov	sp, r7
 6285              		.cfi_def_cfa_register 13
 6286              		@ sp needed
 6287 01aa 90BD     		pop	{r4, r7, pc}
 6288              	.L231:
 6289              		.align	2
 6290              	.L230:
 6291 01ac 00000000 		.word	_g_dispenserlayoutinfo
 6292              		.cfi_endproc
 6293              	.LFE86:
 6294              		.size	PumpDefault2CreditPpuChange, .-PumpDefault2CreditPpuChange
 6295              		.section	.text.PumpCredit2DefaultPpuChange,"ax",%progbits
 6296              		.align	2
 6297              		.global	PumpCredit2DefaultPpuChange
 6298              		.thumb
 6299              		.thumb_func
 6300              		.type	PumpCredit2DefaultPpuChange, %function
 6301              	PumpCredit2DefaultPpuChange:
 6302              	.LFB87:
1563:.\AdvantageImpl.c **** 
1564:.\AdvantageImpl.c **** void PumpCredit2DefaultPpuChange(void *pparam)
1565:.\AdvantageImpl.c **** {
 6303              		.loc 1 1565 0
 6304              		.cfi_startproc
 6305              		@ args = 0, pretend = 0, frame = 32
 6306              		@ frame_needed = 1, uses_anonymous_args = 0
 6307 0000 90B5     		push	{r4, r7, lr}
 6308              		.cfi_def_cfa_offset 12
 6309              		.cfi_offset 4, -12
 6310              		.cfi_offset 7, -8
 6311              		.cfi_offset 14, -4
 6312 0002 89B0     		sub	sp, sp, #36
 6313              		.cfi_def_cfa_offset 48
 6314 0004 00AF     		add	r7, sp, #0
 6315              		.cfi_def_cfa_register 7
 6316 0006 7860     		str	r0, [r7, #4]
1566:.\AdvantageImpl.c ****     PNEAR_PUMPPTR ppump = (PNEAR_PUMPPTR)pparam;
 6317              		.loc 1 1566 0
 6318 0008 7B68     		ldr	r3, [r7, #4]
 6319 000a BB61     		str	r3, [r7, #24]
1567:.\AdvantageImpl.c ****     if(ppump)
 6320              		.loc 1 1567 0
 6321 000c BB69     		ldr	r3, [r7, #24]
 6322 000e 002B     		cmp	r3, #0
ARM GAS  C:\Users\RECEPC~1\AppData\Local\Temp\ccZZcwiB.s 			page 140


 6323 0010 00F00F81 		beq	.L232
 6324              	.LBB48:
1568:.\AdvantageImpl.c ****     {
1569:.\AdvantageImpl.c ****         uint8_t index = 0;  
 6325              		.loc 1 1569 0
 6326 0014 0023     		movs	r3, #0
 6327 0016 FB77     		strb	r3, [r7, #31]
1570:.\AdvantageImpl.c ****         memset(ppump->_rxbuffer, 0x00, _PUMP_RX_BUFFER_SIZE_);
 6328              		.loc 1 1570 0
 6329 0018 BB69     		ldr	r3, [r7, #24]
 6330 001a 03F5D073 		add	r3, r3, #416
 6331 001e 1846     		mov	r0, r3
 6332 0020 0021     		movs	r1, #0
 6333 0022 4FF4C072 		mov	r2, #384
 6334 0026 FFF7FEFF 		bl	memset
1571:.\AdvantageImpl.c ****         PUARTMESSAGEPTR puartdisp = GetUARTMessageSlot(UART_DISPENSER);
 6335              		.loc 1 1571 0
 6336 002a A220     		movs	r0, #162
 6337 002c FFF7FEFF 		bl	GetUARTMessageSlot
 6338 0030 7861     		str	r0, [r7, #20]
1572:.\AdvantageImpl.c ****         if(puartdisp)
 6339              		.loc 1 1572 0
 6340 0032 7B69     		ldr	r3, [r7, #20]
 6341 0034 002B     		cmp	r3, #0
 6342 0036 00F0F980 		beq	.L234
 6343              	.LBB49:
1573:.\AdvantageImpl.c ****         {
1574:.\AdvantageImpl.c **** ///////////////////////////////////////////////////////////////////////////////////////////////////
1575:.\AdvantageImpl.c ****             puartdisp->_messagetx[index++] = SOM;
 6344              		.loc 1 1575 0
 6345 003a FB7F     		ldrb	r3, [r7, #31]	@ zero_extendqisi2
 6346 003c 5A1C     		adds	r2, r3, #1
 6347 003e FA77     		strb	r2, [r7, #31]
 6348 0040 1A46     		mov	r2, r3
 6349 0042 7B69     		ldr	r3, [r7, #20]
 6350 0044 1344     		add	r3, r3, r2
 6351 0046 FF22     		movs	r2, #255
 6352 0048 1A71     		strb	r2, [r3, #4]
1576:.\AdvantageImpl.c ****             if(_g_dispenserlayoutinfo._displaydigitsmode == 0x06)
 6353              		.loc 1 1576 0
 6354 004a 7B4B     		ldr	r3, .L249
 6355 004c 1B7C     		ldrb	r3, [r3, #16]	@ zero_extendqisi2
 6356 004e 062B     		cmp	r3, #6
 6357 0050 08D1     		bne	.L235
1577:.\AdvantageImpl.c ****                 puartdisp->_messagetx[index++] = 0xE5;//Standard Price Data
 6358              		.loc 1 1577 0
 6359 0052 FB7F     		ldrb	r3, [r7, #31]	@ zero_extendqisi2
 6360 0054 5A1C     		adds	r2, r3, #1
 6361 0056 FA77     		strb	r2, [r7, #31]
 6362 0058 1A46     		mov	r2, r3
 6363 005a 7B69     		ldr	r3, [r7, #20]
 6364 005c 1344     		add	r3, r3, r2
 6365 005e E522     		movs	r2, #229
 6366 0060 1A71     		strb	r2, [r3, #4]
 6367 0062 07E0     		b	.L236
 6368              	.L235:
1578:.\AdvantageImpl.c ****             else
ARM GAS  C:\Users\RECEPC~1\AppData\Local\Temp\ccZZcwiB.s 			page 141


1579:.\AdvantageImpl.c ****                 puartdisp->_messagetx[index++] = 0xE3;//Long Price Data - Extended Two-Wire Mode
 6369              		.loc 1 1579 0
 6370 0064 FB7F     		ldrb	r3, [r7, #31]	@ zero_extendqisi2
 6371 0066 5A1C     		adds	r2, r3, #1
 6372 0068 FA77     		strb	r2, [r7, #31]
 6373 006a 1A46     		mov	r2, r3
 6374 006c 7B69     		ldr	r3, [r7, #20]
 6375 006e 1344     		add	r3, r3, r2
 6376 0070 E322     		movs	r2, #227
 6377 0072 1A71     		strb	r2, [r3, #4]
 6378              	.L236:
1580:.\AdvantageImpl.c ****             
1581:.\AdvantageImpl.c ****             puartdisp->_messagetx[index++] = 0xF4;
 6379              		.loc 1 1581 0
 6380 0074 FB7F     		ldrb	r3, [r7, #31]	@ zero_extendqisi2
 6381 0076 5A1C     		adds	r2, r3, #1
 6382 0078 FA77     		strb	r2, [r7, #31]
 6383 007a 1A46     		mov	r2, r3
 6384 007c 7B69     		ldr	r3, [r7, #20]
 6385 007e 1344     		add	r3, r3, r2
 6386 0080 F422     		movs	r2, #244
 6387 0082 1A71     		strb	r2, [r3, #4]
1582:.\AdvantageImpl.c ****             puartdisp->_messagetx[index++] = 0xF6; //Hose Data next
 6388              		.loc 1 1582 0
 6389 0084 FB7F     		ldrb	r3, [r7, #31]	@ zero_extendqisi2
 6390 0086 5A1C     		adds	r2, r3, #1
 6391 0088 FA77     		strb	r2, [r7, #31]
 6392 008a 1A46     		mov	r2, r3
 6393 008c 7B69     		ldr	r3, [r7, #20]
 6394 008e 1344     		add	r3, r3, r2
 6395 0090 F622     		movs	r2, #246
 6396 0092 1A71     		strb	r2, [r3, #4]
1583:.\AdvantageImpl.c ****             ///THIS IS AN APPLIED CONVENTION ===>> 0x0006 INDEX POSITION WITHIN THE PUMP'S BUFFER P
1584:.\AdvantageImpl.c ****             ///THESE CODES MUST BE MATCHED OTHERWISE THE LOGIC WILL BREAKUP THE CODE!
1585:.\AdvantageImpl.c ****             puartdisp->_messagetx[index++] = (0xE0 | ppump->_authorizationinfo._hoseid);
 6397              		.loc 1 1585 0
 6398 0094 FB7F     		ldrb	r3, [r7, #31]	@ zero_extendqisi2
 6399 0096 5A1C     		adds	r2, r3, #1
 6400 0098 FA77     		strb	r2, [r7, #31]
 6401 009a 1946     		mov	r1, r3
 6402 009c BB69     		ldr	r3, [r7, #24]
 6403 009e 93F8A239 		ldrb	r3, [r3, #2466]
 6404 00a2 DBB2     		uxtb	r3, r3
 6405 00a4 63F01F03 		orn	r3, r3, #31
 6406 00a8 DAB2     		uxtb	r2, r3
 6407 00aa 7B69     		ldr	r3, [r7, #20]
 6408 00ac 0B44     		add	r3, r3, r1
 6409 00ae 1A71     		strb	r2, [r3, #4]
1586:.\AdvantageImpl.c **** 
1587:.\AdvantageImpl.c ****             puartdisp->_messagetx[index++] = 0xF7; //PPU Data next
 6410              		.loc 1 1587 0
 6411 00b0 FB7F     		ldrb	r3, [r7, #31]	@ zero_extendqisi2
 6412 00b2 5A1C     		adds	r2, r3, #1
 6413 00b4 FA77     		strb	r2, [r7, #31]
 6414 00b6 1A46     		mov	r2, r3
 6415 00b8 7B69     		ldr	r3, [r7, #20]
 6416 00ba 1344     		add	r3, r3, r2
ARM GAS  C:\Users\RECEPC~1\AppData\Local\Temp\ccZZcwiB.s 			page 142


 6417 00bc F722     		movs	r2, #247
 6418 00be 1A71     		strb	r2, [r3, #4]
1588:.\AdvantageImpl.c ****             
1589:.\AdvantageImpl.c ****             I2CBusLock();
 6419              		.loc 1 1589 0
 6420 00c0 FFF7FEFF 		bl	I2CBusLock
1590:.\AdvantageImpl.c ****             ClearEepromBuffer();
 6421              		.loc 1 1590 0
 6422 00c4 FFF7FEFF 		bl	ClearEepromBuffer
1591:.\AdvantageImpl.c ****             uint16 eeprompage = DispenserGetEepromPPUPageFromPumpID(ppump->_pumpid);
 6423              		.loc 1 1591 0
 6424 00c8 BB69     		ldr	r3, [r7, #24]
 6425 00ca 1B78     		ldrb	r3, [r3]	@ zero_extendqisi2
 6426 00cc 1846     		mov	r0, r3
 6427 00ce FFF7FEFF 		bl	DispenserGetEepromPPUPageFromPumpID
 6428 00d2 0346     		mov	r3, r0
 6429 00d4 7B82     		strh	r3, [r7, #18]	@ movhi
1592:.\AdvantageImpl.c ****             LoadEepromPage(eeprompage);
 6430              		.loc 1 1592 0
 6431 00d6 7B8A     		ldrh	r3, [r7, #18]
 6432 00d8 1846     		mov	r0, r3
 6433 00da FFF7FEFF 		bl	LoadEepromPage
1593:.\AdvantageImpl.c ****             switch(ppump->_authorizationinfo._hoseid)
 6434              		.loc 1 1593 0
 6435 00de BB69     		ldr	r3, [r7, #24]
 6436 00e0 93F8A239 		ldrb	r3, [r3, #2466]
 6437 00e4 DBB2     		uxtb	r3, r3
 6438 00e6 032B     		cmp	r3, #3
 6439 00e8 3DD8     		bhi	.L237
 6440 00ea 01A2     		adr	r2, .L239
 6441 00ec 52F823F0 		ldr	pc, [r2, r3, lsl #2]
 6442              		.p2align 2
 6443              	.L239:
 6444 00f0 01010000 		.word	.L238+1
 6445 00f4 19010000 		.word	.L240+1
 6446 00f8 33010000 		.word	.L241+1
 6447 00fc 4D010000 		.word	.L242+1
 6448              		.p2align 1
 6449              	.L238:
1594:.\AdvantageImpl.c ****             {
1595:.\AdvantageImpl.c ****                 case 0x00:
1596:.\AdvantageImpl.c ****                 //Six bytes only since the PPU is constrained to this length
1597:.\AdvantageImpl.c ****                 memcpy(PBYTECAST(&ppump->_trasactionbuffer[0x0008]), &GetEepromBuffer()[_EEPROM_PAG
 6450              		.loc 1 1597 0
 6451 0100 BB69     		ldr	r3, [r7, #24]
 6452 0102 03F12804 		add	r4, r3, #40
 6453 0106 FFF7FEFF 		bl	GetEepromBuffer
 6454 010a 0346     		mov	r3, r0
 6455 010c 2046     		mov	r0, r4
 6456 010e 1946     		mov	r1, r3
 6457 0110 0622     		movs	r2, #6
 6458 0112 FFF7FEFF 		bl	memcpy
1598:.\AdvantageImpl.c ****                 break;
 6459              		.loc 1 1598 0
 6460 0116 26E0     		b	.L237
 6461              	.L240:
1599:.\AdvantageImpl.c ****                 case 0x01:
ARM GAS  C:\Users\RECEPC~1\AppData\Local\Temp\ccZZcwiB.s 			page 143


1600:.\AdvantageImpl.c ****                 //Six bytes only since the PPU is constrained to this length
1601:.\AdvantageImpl.c ****                 memcpy(PBYTECAST(&ppump->_trasactionbuffer[0x0008]), &GetEepromBuffer()[_EEPROM_PAG
 6462              		.loc 1 1601 0
 6463 0118 BB69     		ldr	r3, [r7, #24]
 6464 011a 03F12804 		add	r4, r3, #40
 6465 011e FFF7FEFF 		bl	GetEepromBuffer
 6466 0122 0346     		mov	r3, r0
 6467 0124 1033     		adds	r3, r3, #16
 6468 0126 2046     		mov	r0, r4
 6469 0128 1946     		mov	r1, r3
 6470 012a 0622     		movs	r2, #6
 6471 012c FFF7FEFF 		bl	memcpy
1602:.\AdvantageImpl.c ****                 break;
 6472              		.loc 1 1602 0
 6473 0130 19E0     		b	.L237
 6474              	.L241:
1603:.\AdvantageImpl.c ****                 case 0x02:
1604:.\AdvantageImpl.c ****                 //Six bytes only since the PPU is constrained to this length
1605:.\AdvantageImpl.c ****                 memcpy(PBYTECAST(&ppump->_trasactionbuffer[0x0008]), &GetEepromBuffer()[_EEPROM_PAG
 6475              		.loc 1 1605 0
 6476 0132 BB69     		ldr	r3, [r7, #24]
 6477 0134 03F12804 		add	r4, r3, #40
 6478 0138 FFF7FEFF 		bl	GetEepromBuffer
 6479 013c 0346     		mov	r3, r0
 6480 013e 2033     		adds	r3, r3, #32
 6481 0140 2046     		mov	r0, r4
 6482 0142 1946     		mov	r1, r3
 6483 0144 0622     		movs	r2, #6
 6484 0146 FFF7FEFF 		bl	memcpy
1606:.\AdvantageImpl.c ****                 break;
 6485              		.loc 1 1606 0
 6486 014a 0CE0     		b	.L237
 6487              	.L242:
1607:.\AdvantageImpl.c ****                 case 0x03:
1608:.\AdvantageImpl.c ****                 //Six bytes only since the PPU is constrained to this length
1609:.\AdvantageImpl.c ****                 memcpy(PBYTECAST(&ppump->_trasactionbuffer[0x0008]), &GetEepromBuffer()[_EEPROM_PAG
 6488              		.loc 1 1609 0
 6489 014c BB69     		ldr	r3, [r7, #24]
 6490 014e 03F12804 		add	r4, r3, #40
 6491 0152 FFF7FEFF 		bl	GetEepromBuffer
 6492 0156 0346     		mov	r3, r0
 6493 0158 3033     		adds	r3, r3, #48
 6494 015a 2046     		mov	r0, r4
 6495 015c 1946     		mov	r1, r3
 6496 015e 0622     		movs	r2, #6
 6497 0160 FFF7FEFF 		bl	memcpy
1610:.\AdvantageImpl.c ****                 break;
 6498              		.loc 1 1610 0
 6499 0164 00BF     		nop
 6500              	.L237:
1611:.\AdvantageImpl.c ****             }
1612:.\AdvantageImpl.c ****             I2CBusUnlock();
 6501              		.loc 1 1612 0
 6502 0166 FFF7FEFF 		bl	I2CBusUnlock
1613:.\AdvantageImpl.c **** 
1614:.\AdvantageImpl.c ****             char8 *ptr = &ppump->_trasactionbuffer[0x0008];
 6503              		.loc 1 1614 0
ARM GAS  C:\Users\RECEPC~1\AppData\Local\Temp\ccZZcwiB.s 			page 144


 6504 016a BB69     		ldr	r3, [r7, #24]
 6505 016c 2833     		adds	r3, r3, #40
 6506 016e FB60     		str	r3, [r7, #12]
1615:.\AdvantageImpl.c ****             
1616:.\AdvantageImpl.c ****             if(_g_dispenserlayoutinfo._displaydigitsmode == 0x06)
 6507              		.loc 1 1616 0
 6508 0170 314B     		ldr	r3, .L249
 6509 0172 1B7C     		ldrb	r3, [r3, #16]	@ zero_extendqisi2
 6510 0174 062B     		cmp	r3, #6
 6511 0176 1AD1     		bne	.L243
 6512              	.LBB50:
1617:.\AdvantageImpl.c ****             {
1618:.\AdvantageImpl.c ****                 FOR(uint8 buffndx = 0, buffndx < 4, buffndx++)//Standard Price Data
 6513              		.loc 1 1618 0
 6514 0178 0023     		movs	r3, #0
 6515 017a BB77     		strb	r3, [r7, #30]
 6516 017c 13E0     		b	.L244
 6517              	.L245:
1619:.\AdvantageImpl.c ****                     puartdisp->_messagetx[index++] = (0xE0 | (0x0F & ptr[buffndx])); //Translate fr
 6518              		.loc 1 1619 0 discriminator 3
 6519 017e FB7F     		ldrb	r3, [r7, #31]	@ zero_extendqisi2
 6520 0180 5A1C     		adds	r2, r3, #1
 6521 0182 FA77     		strb	r2, [r7, #31]
 6522 0184 1946     		mov	r1, r3
 6523 0186 BB7F     		ldrb	r3, [r7, #30]	@ zero_extendqisi2
 6524 0188 FA68     		ldr	r2, [r7, #12]
 6525 018a 1344     		add	r3, r3, r2
 6526 018c 1B78     		ldrb	r3, [r3]	@ zero_extendqisi2
 6527 018e 03F00F03 		and	r3, r3, #15
 6528 0192 DBB2     		uxtb	r3, r3
 6529 0194 63F01F03 		orn	r3, r3, #31
 6530 0198 DAB2     		uxtb	r2, r3
 6531 019a 7B69     		ldr	r3, [r7, #20]
 6532 019c 0B44     		add	r3, r3, r1
 6533 019e 1A71     		strb	r2, [r3, #4]
1618:.\AdvantageImpl.c ****                     puartdisp->_messagetx[index++] = (0xE0 | (0x0F & ptr[buffndx])); //Translate fr
 6534              		.loc 1 1618 0 discriminator 3
 6535 01a0 BB7F     		ldrb	r3, [r7, #30]	@ zero_extendqisi2
 6536 01a2 0133     		adds	r3, r3, #1
 6537 01a4 BB77     		strb	r3, [r7, #30]
 6538              	.L244:
1618:.\AdvantageImpl.c ****                     puartdisp->_messagetx[index++] = (0xE0 | (0x0F & ptr[buffndx])); //Translate fr
 6539              		.loc 1 1618 0 is_stmt 0 discriminator 1
 6540 01a6 BB7F     		ldrb	r3, [r7, #30]	@ zero_extendqisi2
 6541 01a8 032B     		cmp	r3, #3
 6542 01aa E8D9     		bls	.L245
 6543              	.LBE50:
 6544 01ac 19E0     		b	.L246
 6545              	.L243:
 6546              	.LBB51:
1620:.\AdvantageImpl.c ****             }
1621:.\AdvantageImpl.c ****             else
1622:.\AdvantageImpl.c ****             {
1623:.\AdvantageImpl.c ****                 FOR(uint8 buffndx = 0, buffndx < 6, buffndx++)//Long Price Data - Extended Two-Wire
 6547              		.loc 1 1623 0 is_stmt 1
 6548 01ae 0023     		movs	r3, #0
 6549 01b0 7B77     		strb	r3, [r7, #29]
ARM GAS  C:\Users\RECEPC~1\AppData\Local\Temp\ccZZcwiB.s 			page 145


 6550 01b2 13E0     		b	.L247
 6551              	.L248:
1624:.\AdvantageImpl.c ****                     puartdisp->_messagetx[index++] = (0xE0 | (0x0F & ptr[buffndx])); //Translate fr
 6552              		.loc 1 1624 0 discriminator 3
 6553 01b4 FB7F     		ldrb	r3, [r7, #31]	@ zero_extendqisi2
 6554 01b6 5A1C     		adds	r2, r3, #1
 6555 01b8 FA77     		strb	r2, [r7, #31]
 6556 01ba 1946     		mov	r1, r3
 6557 01bc 7B7F     		ldrb	r3, [r7, #29]	@ zero_extendqisi2
 6558 01be FA68     		ldr	r2, [r7, #12]
 6559 01c0 1344     		add	r3, r3, r2
 6560 01c2 1B78     		ldrb	r3, [r3]	@ zero_extendqisi2
 6561 01c4 03F00F03 		and	r3, r3, #15
 6562 01c8 DBB2     		uxtb	r3, r3
 6563 01ca 63F01F03 		orn	r3, r3, #31
 6564 01ce DAB2     		uxtb	r2, r3
 6565 01d0 7B69     		ldr	r3, [r7, #20]
 6566 01d2 0B44     		add	r3, r3, r1
 6567 01d4 1A71     		strb	r2, [r3, #4]
1623:.\AdvantageImpl.c ****                     puartdisp->_messagetx[index++] = (0xE0 | (0x0F & ptr[buffndx])); //Translate fr
 6568              		.loc 1 1623 0 discriminator 3
 6569 01d6 7B7F     		ldrb	r3, [r7, #29]	@ zero_extendqisi2
 6570 01d8 0133     		adds	r3, r3, #1
 6571 01da 7B77     		strb	r3, [r7, #29]
 6572              	.L247:
1623:.\AdvantageImpl.c ****                     puartdisp->_messagetx[index++] = (0xE0 | (0x0F & ptr[buffndx])); //Translate fr
 6573              		.loc 1 1623 0 is_stmt 0 discriminator 1
 6574 01dc 7B7F     		ldrb	r3, [r7, #29]	@ zero_extendqisi2
 6575 01de 052B     		cmp	r3, #5
 6576 01e0 E8D9     		bls	.L248
 6577              	.L246:
 6578              	.LBE51:
1625:.\AdvantageImpl.c ****             }
1626:.\AdvantageImpl.c ****             
1627:.\AdvantageImpl.c ****             puartdisp->_messagetx[index++] = 0xFB; //LRC next
 6579              		.loc 1 1627 0 is_stmt 1
 6580 01e2 FB7F     		ldrb	r3, [r7, #31]	@ zero_extendqisi2
 6581 01e4 5A1C     		adds	r2, r3, #1
 6582 01e6 FA77     		strb	r2, [r7, #31]
 6583 01e8 1A46     		mov	r2, r3
 6584 01ea 7B69     		ldr	r3, [r7, #20]
 6585 01ec 1344     		add	r3, r3, r2
 6586 01ee FB22     		movs	r2, #251
 6587 01f0 1A71     		strb	r2, [r3, #4]
1628:.\AdvantageImpl.c ****             puartdisp->_messagetx[index++] = GetLRC(puartdisp->_messagetx);
 6588              		.loc 1 1628 0
 6589 01f2 FB7F     		ldrb	r3, [r7, #31]	@ zero_extendqisi2
 6590 01f4 5A1C     		adds	r2, r3, #1
 6591 01f6 FA77     		strb	r2, [r7, #31]
 6592 01f8 1C46     		mov	r4, r3
 6593 01fa 7B69     		ldr	r3, [r7, #20]
 6594 01fc 0433     		adds	r3, r3, #4
 6595 01fe 1846     		mov	r0, r3
 6596 0200 FFF7FEFF 		bl	GetLRC
 6597 0204 0346     		mov	r3, r0
 6598 0206 1A46     		mov	r2, r3
 6599 0208 7B69     		ldr	r3, [r7, #20]
ARM GAS  C:\Users\RECEPC~1\AppData\Local\Temp\ccZZcwiB.s 			page 146


 6600 020a 2344     		add	r3, r3, r4
 6601 020c 1A71     		strb	r2, [r3, #4]
1629:.\AdvantageImpl.c ****             puartdisp->_messagetx[index++] = EOM;
 6602              		.loc 1 1629 0
 6603 020e FB7F     		ldrb	r3, [r7, #31]	@ zero_extendqisi2
 6604 0210 5A1C     		adds	r2, r3, #1
 6605 0212 FA77     		strb	r2, [r7, #31]
 6606 0214 1A46     		mov	r2, r3
 6607 0216 7B69     		ldr	r3, [r7, #20]
 6608 0218 1344     		add	r3, r3, r2
 6609 021a F022     		movs	r2, #240
 6610 021c 1A71     		strb	r2, [r3, #4]
1630:.\AdvantageImpl.c **** ///////////////////////////////////////////////////////////////////////////////////////////////////
1631:.\AdvantageImpl.c ****             
1632:.\AdvantageImpl.c ****             puartdisp->_messagelength = index;
 6611              		.loc 1 1632 0
 6612 021e FB7F     		ldrb	r3, [r7, #31]	@ zero_extendqisi2
 6613 0220 9AB2     		uxth	r2, r3
 6614 0222 7B69     		ldr	r3, [r7, #20]
 6615 0224 5A80     		strh	r2, [r3, #2]	@ movhi
1633:.\AdvantageImpl.c ****             puartdisp->_messagestate = PENDING;
 6616              		.loc 1 1633 0
 6617 0226 7B69     		ldr	r3, [r7, #20]
 6618 0228 C222     		movs	r2, #194
 6619 022a 1A70     		strb	r2, [r3]
 6620              	.L234:
 6621              	.LBE49:
1634:.\AdvantageImpl.c ****         }
1635:.\AdvantageImpl.c ****         ppump->_restoreprice = false;
 6622              		.loc 1 1635 0
 6623 022c BB69     		ldr	r3, [r7, #24]
 6624 022e 0022     		movs	r2, #0
 6625 0230 DA71     		strb	r2, [r3, #7]
 6626              	.L232:
 6627              	.LBE48:
1636:.\AdvantageImpl.c ****         //This lock is to force the operator to activate/deactivate the hose once the credit transa
1637:.\AdvantageImpl.c ****         #ifdef CREDIT_SALE_PUMP_LOCK
1638:.\AdvantageImpl.c ****         ppump->_pumplocked = true;
1639:.\AdvantageImpl.c ****         #endif
1640:.\AdvantageImpl.c ****     }    
1641:.\AdvantageImpl.c **** }
 6628              		.loc 1 1641 0
 6629 0232 2437     		adds	r7, r7, #36
 6630              		.cfi_def_cfa_offset 12
 6631 0234 BD46     		mov	sp, r7
 6632              		.cfi_def_cfa_register 13
 6633              		@ sp needed
 6634 0236 90BD     		pop	{r4, r7, pc}
 6635              	.L250:
 6636              		.align	2
 6637              	.L249:
 6638 0238 00000000 		.word	_g_dispenserlayoutinfo
 6639              		.cfi_endproc
 6640              	.LFE87:
 6641              		.size	PumpCredit2DefaultPpuChange, .-PumpCredit2DefaultPpuChange
 6642              		.section	.text.PumpStopRequest,"ax",%progbits
 6643              		.align	2
ARM GAS  C:\Users\RECEPC~1\AppData\Local\Temp\ccZZcwiB.s 			page 147


 6644              		.global	PumpStopRequest
 6645              		.thumb
 6646              		.thumb_func
 6647              		.type	PumpStopRequest, %function
 6648              	PumpStopRequest:
 6649              	.LFB88:
1642:.\AdvantageImpl.c **** 
1643:.\AdvantageImpl.c **** //@Created By: HIJH
1644:.\AdvantageImpl.c **** //@Septembre de 2016
1645:.\AdvantageImpl.c **** void PumpStopRequest(void *pparam)
1646:.\AdvantageImpl.c **** {
 6650              		.loc 1 1646 0
 6651              		.cfi_startproc
 6652              		@ args = 0, pretend = 0, frame = 24
 6653              		@ frame_needed = 1, uses_anonymous_args = 0
 6654 0000 80B5     		push	{r7, lr}
 6655              		.cfi_def_cfa_offset 8
 6656              		.cfi_offset 7, -8
 6657              		.cfi_offset 14, -4
 6658 0002 86B0     		sub	sp, sp, #24
 6659              		.cfi_def_cfa_offset 32
 6660 0004 00AF     		add	r7, sp, #0
 6661              		.cfi_def_cfa_register 7
 6662 0006 7860     		str	r0, [r7, #4]
1647:.\AdvantageImpl.c ****     PNEAR_PUMPPTR ppump = (PNEAR_PUMPPTR)pparam;
 6663              		.loc 1 1647 0
 6664 0008 7B68     		ldr	r3, [r7, #4]
 6665 000a 7B61     		str	r3, [r7, #20]
1648:.\AdvantageImpl.c ****     if(ppump)
 6666              		.loc 1 1648 0
 6667 000c 7B69     		ldr	r3, [r7, #20]
 6668 000e 002B     		cmp	r3, #0
 6669 0010 28D0     		beq	.L251
 6670              	.LBB52:
1649:.\AdvantageImpl.c ****     {                
1650:.\AdvantageImpl.c ****         uint8_t index = 0;
 6671              		.loc 1 1650 0
 6672 0012 0023     		movs	r3, #0
 6673 0014 FB74     		strb	r3, [r7, #19]
1651:.\AdvantageImpl.c ****         memset(ppump->_rxbuffer, 0x00, _PUMP_RX_BUFFER_SIZE_);
 6674              		.loc 1 1651 0
 6675 0016 7B69     		ldr	r3, [r7, #20]
 6676 0018 03F5D073 		add	r3, r3, #416
 6677 001c 1846     		mov	r0, r3
 6678 001e 0021     		movs	r1, #0
 6679 0020 4FF4C072 		mov	r2, #384
 6680 0024 FFF7FEFF 		bl	memset
1652:.\AdvantageImpl.c ****         PUARTMESSAGEPTR puartdisp = GetUARTMessageSlot(UART_DISPENSER);
 6681              		.loc 1 1652 0
 6682 0028 A220     		movs	r0, #162
 6683 002a FFF7FEFF 		bl	GetUARTMessageSlot
 6684 002e F860     		str	r0, [r7, #12]
1653:.\AdvantageImpl.c ****         if(puartdisp)
 6685              		.loc 1 1653 0
 6686 0030 FB68     		ldr	r3, [r7, #12]
 6687 0032 002B     		cmp	r3, #0
 6688 0034 16D0     		beq	.L251
ARM GAS  C:\Users\RECEPC~1\AppData\Local\Temp\ccZZcwiB.s 			page 148


1654:.\AdvantageImpl.c ****         {
1655:.\AdvantageImpl.c ****             //Just one byte for the response
1656:.\AdvantageImpl.c ****             puartdisp->_messagetx[index++] = PUMP_COMMAND(PUMP_PUMP_STOP, ppump->_pumpid);
 6689              		.loc 1 1656 0
 6690 0036 FB7C     		ldrb	r3, [r7, #19]	@ zero_extendqisi2
 6691 0038 5A1C     		adds	r2, r3, #1
 6692 003a FA74     		strb	r2, [r7, #19]
 6693 003c 1946     		mov	r1, r3
 6694 003e 7B69     		ldr	r3, [r7, #20]
 6695 0040 1B78     		ldrb	r3, [r3]	@ zero_extendqisi2
 6696 0042 DBB2     		uxtb	r3, r3
 6697 0044 03F00F03 		and	r3, r3, #15
 6698 0048 DBB2     		uxtb	r3, r3
 6699 004a 43F03003 		orr	r3, r3, #48
 6700 004e DBB2     		uxtb	r3, r3
 6701 0050 DAB2     		uxtb	r2, r3
 6702 0052 FB68     		ldr	r3, [r7, #12]
 6703 0054 0B44     		add	r3, r3, r1
 6704 0056 1A71     		strb	r2, [r3, #4]
1657:.\AdvantageImpl.c ****             puartdisp->_messagelength = 1;//One byte
 6705              		.loc 1 1657 0
 6706 0058 FB68     		ldr	r3, [r7, #12]
 6707 005a 0122     		movs	r2, #1
 6708 005c 5A80     		strh	r2, [r3, #2]	@ movhi
1658:.\AdvantageImpl.c ****             puartdisp->_messagestate = PENDING;
 6709              		.loc 1 1658 0
 6710 005e FB68     		ldr	r3, [r7, #12]
 6711 0060 C222     		movs	r2, #194
 6712 0062 1A70     		strb	r2, [r3]
 6713              	.L251:
 6714              	.LBE52:
1659:.\AdvantageImpl.c ****         }        
1660:.\AdvantageImpl.c ****     }
1661:.\AdvantageImpl.c **** }
 6715              		.loc 1 1661 0
 6716 0064 1837     		adds	r7, r7, #24
 6717              		.cfi_def_cfa_offset 8
 6718 0066 BD46     		mov	sp, r7
 6719              		.cfi_def_cfa_register 13
 6720              		@ sp needed
 6721 0068 80BD     		pop	{r7, pc}
 6722              		.cfi_endproc
 6723              	.LFE88:
 6724              		.size	PumpStopRequest, .-PumpStopRequest
 6725 006a 00BF     		.section	.text.PumpStopAllRequest,"ax",%progbits
 6726              		.align	2
 6727              		.global	PumpStopAllRequest
 6728              		.thumb
 6729              		.thumb_func
 6730              		.type	PumpStopAllRequest, %function
 6731              	PumpStopAllRequest:
 6732              	.LFB89:
1662:.\AdvantageImpl.c **** 
1663:.\AdvantageImpl.c **** //@Created By: HIJH
1664:.\AdvantageImpl.c **** //@Septembre de 2016
1665:.\AdvantageImpl.c **** void PumpStopAllRequest(void *pparam)
1666:.\AdvantageImpl.c **** {
ARM GAS  C:\Users\RECEPC~1\AppData\Local\Temp\ccZZcwiB.s 			page 149


 6733              		.loc 1 1666 0
 6734              		.cfi_startproc
 6735              		@ args = 0, pretend = 0, frame = 24
 6736              		@ frame_needed = 1, uses_anonymous_args = 0
 6737 0000 80B5     		push	{r7, lr}
 6738              		.cfi_def_cfa_offset 8
 6739              		.cfi_offset 7, -8
 6740              		.cfi_offset 14, -4
 6741 0002 86B0     		sub	sp, sp, #24
 6742              		.cfi_def_cfa_offset 32
 6743 0004 00AF     		add	r7, sp, #0
 6744              		.cfi_def_cfa_register 7
 6745 0006 7860     		str	r0, [r7, #4]
1667:.\AdvantageImpl.c ****     PNEAR_PUMPPTR ppump = (PNEAR_PUMPPTR)pparam;
 6746              		.loc 1 1667 0
 6747 0008 7B68     		ldr	r3, [r7, #4]
 6748 000a 7B61     		str	r3, [r7, #20]
1668:.\AdvantageImpl.c ****     if(ppump)
 6749              		.loc 1 1668 0
 6750 000c 7B69     		ldr	r3, [r7, #20]
 6751 000e 002B     		cmp	r3, #0
 6752 0010 23D0     		beq	.L253
 6753              	.LBB53:
1669:.\AdvantageImpl.c ****     {                
1670:.\AdvantageImpl.c ****         uint8_t index = 0;
 6754              		.loc 1 1670 0
 6755 0012 0023     		movs	r3, #0
 6756 0014 FB74     		strb	r3, [r7, #19]
1671:.\AdvantageImpl.c ****         memset(ppump->_rxbuffer, 0x00, _PUMP_RX_BUFFER_SIZE_);
 6757              		.loc 1 1671 0
 6758 0016 7B69     		ldr	r3, [r7, #20]
 6759 0018 03F5D073 		add	r3, r3, #416
 6760 001c 1846     		mov	r0, r3
 6761 001e 0021     		movs	r1, #0
 6762 0020 4FF4C072 		mov	r2, #384
 6763 0024 FFF7FEFF 		bl	memset
1672:.\AdvantageImpl.c ****         PUARTMESSAGEPTR puartdisp = GetUARTMessageSlot(UART_DISPENSER);
 6764              		.loc 1 1672 0
 6765 0028 A220     		movs	r0, #162
 6766 002a FFF7FEFF 		bl	GetUARTMessageSlot
 6767 002e F860     		str	r0, [r7, #12]
1673:.\AdvantageImpl.c ****         if(puartdisp)
 6768              		.loc 1 1673 0
 6769 0030 FB68     		ldr	r3, [r7, #12]
 6770 0032 002B     		cmp	r3, #0
 6771 0034 11D0     		beq	.L253
1674:.\AdvantageImpl.c ****         {
1675:.\AdvantageImpl.c ****             //Just one byte for the response
1676:.\AdvantageImpl.c ****             puartdisp->_messagetx[index++] = PUMP_COMMAND(PUMP_ALL_PUMPS_STOP, ppump->_pumpid);
 6772              		.loc 1 1676 0
 6773 0036 FB7C     		ldrb	r3, [r7, #19]	@ zero_extendqisi2
 6774 0038 5A1C     		adds	r2, r3, #1
 6775 003a FA74     		strb	r2, [r7, #19]
 6776 003c 1946     		mov	r1, r3
 6777 003e 7B69     		ldr	r3, [r7, #20]
 6778 0040 1B78     		ldrb	r3, [r3]	@ zero_extendqisi2
 6779 0042 63F00F03 		orn	r3, r3, #15
ARM GAS  C:\Users\RECEPC~1\AppData\Local\Temp\ccZZcwiB.s 			page 150


 6780 0046 DAB2     		uxtb	r2, r3
 6781 0048 FB68     		ldr	r3, [r7, #12]
 6782 004a 0B44     		add	r3, r3, r1
 6783 004c 1A71     		strb	r2, [r3, #4]
1677:.\AdvantageImpl.c ****             puartdisp->_messagelength = 1;//One byte
 6784              		.loc 1 1677 0
 6785 004e FB68     		ldr	r3, [r7, #12]
 6786 0050 0122     		movs	r2, #1
 6787 0052 5A80     		strh	r2, [r3, #2]	@ movhi
1678:.\AdvantageImpl.c ****             puartdisp->_messagestate = PENDING;
 6788              		.loc 1 1678 0
 6789 0054 FB68     		ldr	r3, [r7, #12]
 6790 0056 C222     		movs	r2, #194
 6791 0058 1A70     		strb	r2, [r3]
 6792              	.L253:
 6793              	.LBE53:
1679:.\AdvantageImpl.c ****         }        
1680:.\AdvantageImpl.c ****     }
1681:.\AdvantageImpl.c **** }
 6794              		.loc 1 1681 0
 6795 005a 1837     		adds	r7, r7, #24
 6796              		.cfi_def_cfa_offset 8
 6797 005c BD46     		mov	sp, r7
 6798              		.cfi_def_cfa_register 13
 6799              		@ sp needed
 6800 005e 80BD     		pop	{r7, pc}
 6801              		.cfi_endproc
 6802              	.LFE89:
 6803              		.size	PumpStopAllRequest, .-PumpStopAllRequest
 6804              		.section	.text.PumpCompleteConfiguration,"ax",%progbits
 6805              		.align	2
 6806              		.global	PumpCompleteConfiguration
 6807              		.thumb
 6808              		.thumb_func
 6809              		.type	PumpCompleteConfiguration, %function
 6810              	PumpCompleteConfiguration:
 6811              	.LFB90:
1682:.\AdvantageImpl.c **** 
1683:.\AdvantageImpl.c **** //@Created By: HIJH
1684:.\AdvantageImpl.c **** //@Septembre de 2016
1685:.\AdvantageImpl.c **** void PumpCompleteConfiguration(LPVOID pparam)
1686:.\AdvantageImpl.c **** {
 6812              		.loc 1 1686 0
 6813              		.cfi_startproc
 6814              		@ args = 0, pretend = 0, frame = 24
 6815              		@ frame_needed = 1, uses_anonymous_args = 0
 6816 0000 90B5     		push	{r4, r7, lr}
 6817              		.cfi_def_cfa_offset 12
 6818              		.cfi_offset 4, -12
 6819              		.cfi_offset 7, -8
 6820              		.cfi_offset 14, -4
 6821 0002 87B0     		sub	sp, sp, #28
 6822              		.cfi_def_cfa_offset 40
 6823 0004 00AF     		add	r7, sp, #0
 6824              		.cfi_def_cfa_register 7
 6825 0006 7860     		str	r0, [r7, #4]
1687:.\AdvantageImpl.c ****     PNEAR_PUMPPTR ppump = (PNEAR_PUMPPTR)pparam;
ARM GAS  C:\Users\RECEPC~1\AppData\Local\Temp\ccZZcwiB.s 			page 151


 6826              		.loc 1 1687 0
 6827 0008 7B68     		ldr	r3, [r7, #4]
 6828 000a 7B61     		str	r3, [r7, #20]
1688:.\AdvantageImpl.c ****     if(ppump)
 6829              		.loc 1 1688 0
 6830 000c 7B69     		ldr	r3, [r7, #20]
 6831 000e 002B     		cmp	r3, #0
 6832 0010 66D0     		beq	.L255
 6833              	.LBB54:
1689:.\AdvantageImpl.c ****     {
1690:.\AdvantageImpl.c ****         uint8_t index = 0;  
 6834              		.loc 1 1690 0
 6835 0012 0023     		movs	r3, #0
 6836 0014 FB74     		strb	r3, [r7, #19]
1691:.\AdvantageImpl.c ****         memset(ppump->_rxbuffer, 0x00, _PUMP_RX_BUFFER_SIZE_);
 6837              		.loc 1 1691 0
 6838 0016 7B69     		ldr	r3, [r7, #20]
 6839 0018 03F5D073 		add	r3, r3, #416
 6840 001c 1846     		mov	r0, r3
 6841 001e 0021     		movs	r1, #0
 6842 0020 4FF4C072 		mov	r2, #384
 6843 0024 FFF7FEFF 		bl	memset
1692:.\AdvantageImpl.c ****         PUARTMESSAGEPTR puartdisp = GetUARTMessageSlot(UART_DISPENSER);
 6844              		.loc 1 1692 0
 6845 0028 A220     		movs	r0, #162
 6846 002a FFF7FEFF 		bl	GetUARTMessageSlot
 6847 002e F860     		str	r0, [r7, #12]
1693:.\AdvantageImpl.c ****         if(puartdisp)
 6848              		.loc 1 1693 0
 6849 0030 FB68     		ldr	r3, [r7, #12]
 6850 0032 002B     		cmp	r3, #0
 6851 0034 54D0     		beq	.L255
1694:.\AdvantageImpl.c ****         {
1695:.\AdvantageImpl.c **** ///////////////////////////////////////////////////////////////////////////////////////////////////
1696:.\AdvantageImpl.c ****             puartdisp->_messagetx[index++] = SOM;//Start Of Message
 6852              		.loc 1 1696 0
 6853 0036 FB7C     		ldrb	r3, [r7, #19]	@ zero_extendqisi2
 6854 0038 5A1C     		adds	r2, r3, #1
 6855 003a FA74     		strb	r2, [r7, #19]
 6856 003c 1A46     		mov	r2, r3
 6857 003e FB68     		ldr	r3, [r7, #12]
 6858 0040 1344     		add	r3, r3, r2
 6859 0042 FF22     		movs	r2, #255
 6860 0044 1A71     		strb	r2, [r3, #4]
1697:.\AdvantageImpl.c ****             puartdisp->_messagetx[index++] = 0xE9;//Data Length
 6861              		.loc 1 1697 0
 6862 0046 FB7C     		ldrb	r3, [r7, #19]	@ zero_extendqisi2
 6863 0048 5A1C     		adds	r2, r3, #1
 6864 004a FA74     		strb	r2, [r7, #19]
 6865 004c 1A46     		mov	r2, r3
 6866 004e FB68     		ldr	r3, [r7, #12]
 6867 0050 1344     		add	r3, r3, r2
 6868 0052 E922     		movs	r2, #233
 6869 0054 1A71     		strb	r2, [r3, #4]
1698:.\AdvantageImpl.c ****             puartdisp->_messagetx[index++] = 0xFE;//Special Functions Next (0xB0 0xB0 0xBE)
 6870              		.loc 1 1698 0
 6871 0056 FB7C     		ldrb	r3, [r7, #19]	@ zero_extendqisi2
ARM GAS  C:\Users\RECEPC~1\AppData\Local\Temp\ccZZcwiB.s 			page 152


 6872 0058 5A1C     		adds	r2, r3, #1
 6873 005a FA74     		strb	r2, [r7, #19]
 6874 005c 1A46     		mov	r2, r3
 6875 005e FB68     		ldr	r3, [r7, #12]
 6876 0060 1344     		add	r3, r3, r2
 6877 0062 FE22     		movs	r2, #254
 6878 0064 1A71     		strb	r2, [r3, #4]
1699:.\AdvantageImpl.c ****             puartdisp->_messagetx[index++] = 0xEE;//Complete Pump Configuration Request (sf1)
 6879              		.loc 1 1699 0
 6880 0066 FB7C     		ldrb	r3, [r7, #19]	@ zero_extendqisi2
 6881 0068 5A1C     		adds	r2, r3, #1
 6882 006a FA74     		strb	r2, [r7, #19]
 6883 006c 1A46     		mov	r2, r3
 6884 006e FB68     		ldr	r3, [r7, #12]
 6885 0070 1344     		add	r3, r3, r2
 6886 0072 EE22     		movs	r2, #238
 6887 0074 1A71     		strb	r2, [r3, #4]
1700:.\AdvantageImpl.c ****             puartdisp->_messagetx[index++] = 0xE0;//Complete Pump Configuration Request (sf2)
 6888              		.loc 1 1700 0
 6889 0076 FB7C     		ldrb	r3, [r7, #19]	@ zero_extendqisi2
 6890 0078 5A1C     		adds	r2, r3, #1
 6891 007a FA74     		strb	r2, [r7, #19]
 6892 007c 1A46     		mov	r2, r3
 6893 007e FB68     		ldr	r3, [r7, #12]
 6894 0080 1344     		add	r3, r3, r2
 6895 0082 E022     		movs	r2, #224
 6896 0084 1A71     		strb	r2, [r3, #4]
1701:.\AdvantageImpl.c ****             puartdisp->_messagetx[index++] = 0xE0;//Complete Pump Configuration Request (sf3)
 6897              		.loc 1 1701 0
 6898 0086 FB7C     		ldrb	r3, [r7, #19]	@ zero_extendqisi2
 6899 0088 5A1C     		adds	r2, r3, #1
 6900 008a FA74     		strb	r2, [r7, #19]
 6901 008c 1A46     		mov	r2, r3
 6902 008e FB68     		ldr	r3, [r7, #12]
 6903 0090 1344     		add	r3, r3, r2
 6904 0092 E022     		movs	r2, #224
 6905 0094 1A71     		strb	r2, [r3, #4]
1702:.\AdvantageImpl.c ****             puartdisp->_messagetx[index++] = 0xFB;
 6906              		.loc 1 1702 0
 6907 0096 FB7C     		ldrb	r3, [r7, #19]	@ zero_extendqisi2
 6908 0098 5A1C     		adds	r2, r3, #1
 6909 009a FA74     		strb	r2, [r7, #19]
 6910 009c 1A46     		mov	r2, r3
 6911 009e FB68     		ldr	r3, [r7, #12]
 6912 00a0 1344     		add	r3, r3, r2
 6913 00a2 FB22     		movs	r2, #251
 6914 00a4 1A71     		strb	r2, [r3, #4]
1703:.\AdvantageImpl.c ****             puartdisp->_messagetx[index++] = GetLRC(puartdisp->_messagetx);
 6915              		.loc 1 1703 0
 6916 00a6 FB7C     		ldrb	r3, [r7, #19]	@ zero_extendqisi2
 6917 00a8 5A1C     		adds	r2, r3, #1
 6918 00aa FA74     		strb	r2, [r7, #19]
 6919 00ac 1C46     		mov	r4, r3
 6920 00ae FB68     		ldr	r3, [r7, #12]
 6921 00b0 0433     		adds	r3, r3, #4
 6922 00b2 1846     		mov	r0, r3
 6923 00b4 FFF7FEFF 		bl	GetLRC
ARM GAS  C:\Users\RECEPC~1\AppData\Local\Temp\ccZZcwiB.s 			page 153


 6924 00b8 0346     		mov	r3, r0
 6925 00ba 1A46     		mov	r2, r3
 6926 00bc FB68     		ldr	r3, [r7, #12]
 6927 00be 2344     		add	r3, r3, r4
 6928 00c0 1A71     		strb	r2, [r3, #4]
1704:.\AdvantageImpl.c ****             puartdisp->_messagetx[index++] = EOM;
 6929              		.loc 1 1704 0
 6930 00c2 FB7C     		ldrb	r3, [r7, #19]	@ zero_extendqisi2
 6931 00c4 5A1C     		adds	r2, r3, #1
 6932 00c6 FA74     		strb	r2, [r7, #19]
 6933 00c8 1A46     		mov	r2, r3
 6934 00ca FB68     		ldr	r3, [r7, #12]
 6935 00cc 1344     		add	r3, r3, r2
 6936 00ce F022     		movs	r2, #240
 6937 00d0 1A71     		strb	r2, [r3, #4]
1705:.\AdvantageImpl.c **** ///////////////////////////////////////////////////////////////////////////////////////////////////
1706:.\AdvantageImpl.c ****             
1707:.\AdvantageImpl.c ****             puartdisp->_messagelength = index;
 6938              		.loc 1 1707 0
 6939 00d2 FB7C     		ldrb	r3, [r7, #19]	@ zero_extendqisi2
 6940 00d4 9AB2     		uxth	r2, r3
 6941 00d6 FB68     		ldr	r3, [r7, #12]
 6942 00d8 5A80     		strh	r2, [r3, #2]	@ movhi
1708:.\AdvantageImpl.c ****             puartdisp->_messagestate = PENDING;
 6943              		.loc 1 1708 0
 6944 00da FB68     		ldr	r3, [r7, #12]
 6945 00dc C222     		movs	r2, #194
 6946 00de 1A70     		strb	r2, [r3]
 6947              	.L255:
 6948              	.LBE54:
1709:.\AdvantageImpl.c ****         }
1710:.\AdvantageImpl.c ****     }
1711:.\AdvantageImpl.c **** }
 6949              		.loc 1 1711 0
 6950 00e0 1C37     		adds	r7, r7, #28
 6951              		.cfi_def_cfa_offset 12
 6952 00e2 BD46     		mov	sp, r7
 6953              		.cfi_def_cfa_register 13
 6954              		@ sp needed
 6955 00e4 90BD     		pop	{r4, r7, pc}
 6956              		.cfi_endproc
 6957              	.LFE90:
 6958              		.size	PumpCompleteConfiguration, .-PumpCompleteConfiguration
 6959 00e6 00BF     		.section	.text.AcquirePumpCompleteConfiguration,"ax",%progbits
 6960              		.align	2
 6961              		.global	AcquirePumpCompleteConfiguration
 6962              		.thumb
 6963              		.thumb_func
 6964              		.type	AcquirePumpCompleteConfiguration, %function
 6965              	AcquirePumpCompleteConfiguration:
 6966              	.LFB91:
1712:.\AdvantageImpl.c **** 
1713:.\AdvantageImpl.c **** //@Created By: HIJH
1714:.\AdvantageImpl.c **** //@Date: Septembre de 2016
1715:.\AdvantageImpl.c **** //Receives the complete pump configuration information
1716:.\AdvantageImpl.c **** void AcquirePumpCompleteConfiguration(void *pparam)
1717:.\AdvantageImpl.c **** {
ARM GAS  C:\Users\RECEPC~1\AppData\Local\Temp\ccZZcwiB.s 			page 154


 6967              		.loc 1 1717 0
 6968              		.cfi_startproc
 6969              		@ args = 0, pretend = 0, frame = 32
 6970              		@ frame_needed = 1, uses_anonymous_args = 0
 6971 0000 90B5     		push	{r4, r7, lr}
 6972              		.cfi_def_cfa_offset 12
 6973              		.cfi_offset 4, -12
 6974              		.cfi_offset 7, -8
 6975              		.cfi_offset 14, -4
 6976 0002 89B0     		sub	sp, sp, #36
 6977              		.cfi_def_cfa_offset 48
 6978 0004 00AF     		add	r7, sp, #0
 6979              		.cfi_def_cfa_register 7
 6980 0006 7860     		str	r0, [r7, #4]
1718:.\AdvantageImpl.c ****     PPUMPTRANSACTIONJOBCONTEXTPTR pjob = (PPUMPTRANSACTIONJOBCONTEXTPTR)pparam;
 6981              		.loc 1 1718 0
 6982 0008 7B68     		ldr	r3, [r7, #4]
 6983 000a BB61     		str	r3, [r7, #24]
1719:.\AdvantageImpl.c ****     if(pjob)    
 6984              		.loc 1 1719 0
 6985 000c BB69     		ldr	r3, [r7, #24]
 6986 000e 002B     		cmp	r3, #0
 6987 0010 00F01A82 		beq	.L257
 6988              	.LBB55:
1720:.\AdvantageImpl.c ****     {
1721:.\AdvantageImpl.c ****         uint8 index = 0;
 6989              		.loc 1 1721 0
 6990 0014 0023     		movs	r3, #0
 6991 0016 FB75     		strb	r3, [r7, #23]
1722:.\AdvantageImpl.c ****         //NOT USED!! JUST FOR DEBUGGING PURPOSES!
1723:.\AdvantageImpl.c ****         //The "index" variable has been kept in some lines of code just for reference.
1724:.\AdvantageImpl.c ****         uint8 remblocks = (TranslateSpecialFuncionDigit(pjob->_ppump->_rxbuffer[7 + 45*index]) << 0
 6992              		.loc 1 1724 0
 6993 0018 BB69     		ldr	r3, [r7, #24]
 6994 001a D969     		ldr	r1, [r3, #28]
 6995 001c FA7D     		ldrb	r2, [r7, #23]	@ zero_extendqisi2
 6996 001e 1346     		mov	r3, r2
 6997 0020 5B00     		lsls	r3, r3, #1
 6998 0022 1344     		add	r3, r3, r2
 6999 0024 1A01     		lsls	r2, r3, #4
 7000 0026 D31A     		subs	r3, r2, r3
 7001 0028 0733     		adds	r3, r3, #7
 7002 002a 0B44     		add	r3, r3, r1
 7003 002c 93F8A031 		ldrb	r3, [r3, #416]	@ zero_extendqisi2
 7004 0030 1846     		mov	r0, r3
 7005 0032 FFF7FEFF 		bl	TranslateSpecialFuncionDigit
 7006 0036 0346     		mov	r3, r0
 7007 0038 1B01     		lsls	r3, r3, #4
 7008 003a DCB2     		uxtb	r4, r3
 7009 003c BB69     		ldr	r3, [r7, #24]
 7010 003e D969     		ldr	r1, [r3, #28]
 7011 0040 FA7D     		ldrb	r2, [r7, #23]	@ zero_extendqisi2
 7012 0042 1346     		mov	r3, r2
 7013 0044 5B00     		lsls	r3, r3, #1
 7014 0046 1344     		add	r3, r3, r2
 7015 0048 1A01     		lsls	r2, r3, #4
 7016 004a D31A     		subs	r3, r2, r3
ARM GAS  C:\Users\RECEPC~1\AppData\Local\Temp\ccZZcwiB.s 			page 155


 7017 004c 0833     		adds	r3, r3, #8
 7018 004e 0B44     		add	r3, r3, r1
 7019 0050 93F8A031 		ldrb	r3, [r3, #416]	@ zero_extendqisi2
 7020 0054 1846     		mov	r0, r3
 7021 0056 FFF7FEFF 		bl	TranslateSpecialFuncionDigit
 7022 005a 0346     		mov	r3, r0
 7023 005c DBB2     		uxtb	r3, r3
 7024 005e 2246     		mov	r2, r4
 7025 0060 1343     		orrs	r3, r3, r2
 7026 0062 DBB2     		uxtb	r3, r3
 7027 0064 BB75     		strb	r3, [r7, #22]
1725:.\AdvantageImpl.c ****         //HERE WE ACQUIRE THE MISCELLANEOUS PUMP CONFIGURATION INFORMATION AND STORE IT INTO
1726:.\AdvantageImpl.c ****         //THE PERSISTENT FILE SYSTEM (EEPROM)        
1727:.\AdvantageImpl.c ****         if(pjob->_ppump->_rxbuffer[0x00] == 0xBA)
 7028              		.loc 1 1727 0
 7029 0066 BB69     		ldr	r3, [r7, #24]
 7030 0068 DB69     		ldr	r3, [r3, #28]
 7031 006a 93F8A031 		ldrb	r3, [r3, #416]	@ zero_extendqisi2
 7032 006e BA2B     		cmp	r3, #186
 7033 0070 40F0EA81 		bne	.L257
 7034              	.LBB56:
1728:.\AdvantageImpl.c ****         {
1729:.\AdvantageImpl.c ****             ClearEepromBuffer();
 7035              		.loc 1 1729 0
 7036 0074 FFF7FEFF 		bl	ClearEepromBuffer
1730:.\AdvantageImpl.c ****             bool targetmemoryareafound = false;
 7037              		.loc 1 1730 0
 7038 0078 0023     		movs	r3, #0
 7039 007a FB77     		strb	r3, [r7, #31]
1731:.\AdvantageImpl.c ****             uint16 eeprompumpconfigmemorypageid = 0;
 7040              		.loc 1 1731 0
 7041 007c 0023     		movs	r3, #0
 7042 007e BB83     		strh	r3, [r7, #28]	@ movhi
1732:.\AdvantageImpl.c ****             //WE ALWAYS READ THE PAGE FROM THE EEPROM BEFORE SINCE AFTER MODIFYING ANY FIELD IT MUS
1733:.\AdvantageImpl.c ****             eeprompumpconfigmemorypageid = (uint16)EEPROM_DISPENSER_PUMP1_LAYOUT_PAGE;
 7043              		.loc 1 1733 0
 7044 0080 4FF40073 		mov	r3, #512
 7045 0084 BB83     		strh	r3, [r7, #28]	@ movhi
1734:.\AdvantageImpl.c ****             LoadEepromPage(eeprompumpconfigmemorypageid);
 7046              		.loc 1 1734 0
 7047 0086 BB8B     		ldrh	r3, [r7, #28]
 7048 0088 1846     		mov	r0, r3
 7049 008a FFF7FEFF 		bl	LoadEepromPage
1735:.\AdvantageImpl.c ****             if(TranslateSpecialFuncionDigit(pjob->_ppump->_rxbuffer[0x03]) != (GetEepromBuffer()[0x
 7050              		.loc 1 1735 0
 7051 008e BB69     		ldr	r3, [r7, #24]
 7052 0090 DB69     		ldr	r3, [r3, #28]
 7053 0092 93F8A331 		ldrb	r3, [r3, #419]	@ zero_extendqisi2
 7054 0096 1846     		mov	r0, r3
 7055 0098 FFF7FEFF 		bl	TranslateSpecialFuncionDigit
 7056 009c 0346     		mov	r3, r0
 7057 009e 1C46     		mov	r4, r3
 7058 00a0 FFF7FEFF 		bl	GetEepromBuffer
 7059 00a4 0346     		mov	r3, r0
 7060 00a6 1B78     		ldrb	r3, [r3]	@ zero_extendqisi2
 7061 00a8 03F00F03 		and	r3, r3, #15
 7062 00ac 9C42     		cmp	r4, r3
ARM GAS  C:\Users\RECEPC~1\AppData\Local\Temp\ccZZcwiB.s 			page 156


 7063 00ae 50D0     		beq	.L259
1736:.\AdvantageImpl.c ****             {
1737:.\AdvantageImpl.c ****                 eeprompumpconfigmemorypageid = (uint16)EEPROM_DISPENSER_PUMP2_LAYOUT_PAGE;
 7064              		.loc 1 1737 0
 7065 00b0 4FF41073 		mov	r3, #576
 7066 00b4 BB83     		strh	r3, [r7, #28]	@ movhi
1738:.\AdvantageImpl.c ****                 LoadEepromPage(eeprompumpconfigmemorypageid);
 7067              		.loc 1 1738 0
 7068 00b6 BB8B     		ldrh	r3, [r7, #28]
 7069 00b8 1846     		mov	r0, r3
 7070 00ba FFF7FEFF 		bl	LoadEepromPage
1739:.\AdvantageImpl.c ****                 if(TranslateSpecialFuncionDigit(pjob->_ppump->_rxbuffer[0x03]) != (GetEepromBuffer(
 7071              		.loc 1 1739 0
 7072 00be BB69     		ldr	r3, [r7, #24]
 7073 00c0 DB69     		ldr	r3, [r3, #28]
 7074 00c2 93F8A331 		ldrb	r3, [r3, #419]	@ zero_extendqisi2
 7075 00c6 1846     		mov	r0, r3
 7076 00c8 FFF7FEFF 		bl	TranslateSpecialFuncionDigit
 7077 00cc 0346     		mov	r3, r0
 7078 00ce 1C46     		mov	r4, r3
 7079 00d0 FFF7FEFF 		bl	GetEepromBuffer
 7080 00d4 0346     		mov	r3, r0
 7081 00d6 1B78     		ldrb	r3, [r3]	@ zero_extendqisi2
 7082 00d8 03F00F03 		and	r3, r3, #15
 7083 00dc 9C42     		cmp	r4, r3
 7084 00de 35D0     		beq	.L260
1740:.\AdvantageImpl.c ****                 {
1741:.\AdvantageImpl.c ****                     eeprompumpconfigmemorypageid = (uint16)EEPROM_DISPENSER_PUMP3_LAYOUT_PAGE;
 7085              		.loc 1 1741 0
 7086 00e0 4FF42073 		mov	r3, #640
 7087 00e4 BB83     		strh	r3, [r7, #28]	@ movhi
1742:.\AdvantageImpl.c ****                     LoadEepromPage(eeprompumpconfigmemorypageid);
 7088              		.loc 1 1742 0
 7089 00e6 BB8B     		ldrh	r3, [r7, #28]
 7090 00e8 1846     		mov	r0, r3
 7091 00ea FFF7FEFF 		bl	LoadEepromPage
1743:.\AdvantageImpl.c ****                     if(TranslateSpecialFuncionDigit(pjob->_ppump->_rxbuffer[0x03]) != (GetEepromBuf
 7092              		.loc 1 1743 0
 7093 00ee BB69     		ldr	r3, [r7, #24]
 7094 00f0 DB69     		ldr	r3, [r3, #28]
 7095 00f2 93F8A331 		ldrb	r3, [r3, #419]	@ zero_extendqisi2
 7096 00f6 1846     		mov	r0, r3
 7097 00f8 FFF7FEFF 		bl	TranslateSpecialFuncionDigit
 7098 00fc 0346     		mov	r3, r0
 7099 00fe 1C46     		mov	r4, r3
 7100 0100 FFF7FEFF 		bl	GetEepromBuffer
 7101 0104 0346     		mov	r3, r0
 7102 0106 1B78     		ldrb	r3, [r3]	@ zero_extendqisi2
 7103 0108 03F00F03 		and	r3, r3, #15
 7104 010c 9C42     		cmp	r4, r3
 7105 010e 1AD0     		beq	.L261
1744:.\AdvantageImpl.c ****                     {
1745:.\AdvantageImpl.c ****                         eeprompumpconfigmemorypageid = (uint16)EEPROM_DISPENSER_PUMP4_LAYOUT_PAGE;
 7106              		.loc 1 1745 0
 7107 0110 4FF43073 		mov	r3, #704
 7108 0114 BB83     		strh	r3, [r7, #28]	@ movhi
1746:.\AdvantageImpl.c ****                         LoadEepromPage(eeprompumpconfigmemorypageid);
ARM GAS  C:\Users\RECEPC~1\AppData\Local\Temp\ccZZcwiB.s 			page 157


 7109              		.loc 1 1746 0
 7110 0116 BB8B     		ldrh	r3, [r7, #28]
 7111 0118 1846     		mov	r0, r3
 7112 011a FFF7FEFF 		bl	LoadEepromPage
1747:.\AdvantageImpl.c ****                         if(TranslateSpecialFuncionDigit(pjob->_ppump->_rxbuffer[0x03]) == (GetEepro
 7113              		.loc 1 1747 0
 7114 011e BB69     		ldr	r3, [r7, #24]
 7115 0120 DB69     		ldr	r3, [r3, #28]
 7116 0122 93F8A331 		ldrb	r3, [r3, #419]	@ zero_extendqisi2
 7117 0126 1846     		mov	r0, r3
 7118 0128 FFF7FEFF 		bl	TranslateSpecialFuncionDigit
 7119 012c 0346     		mov	r3, r0
 7120 012e 1C46     		mov	r4, r3
 7121 0130 FFF7FEFF 		bl	GetEepromBuffer
 7122 0134 0346     		mov	r3, r0
 7123 0136 1B78     		ldrb	r3, [r3]	@ zero_extendqisi2
 7124 0138 03F00F03 		and	r3, r3, #15
 7125 013c 9C42     		cmp	r4, r3
 7126 013e 0AD1     		bne	.L265
1748:.\AdvantageImpl.c ****                             targetmemoryareafound = true;
 7127              		.loc 1 1748 0
 7128 0140 0123     		movs	r3, #1
 7129 0142 FB77     		strb	r3, [r7, #31]
 7130 0144 07E0     		b	.L265
 7131              	.L261:
1749:.\AdvantageImpl.c ****                             
1750:.\AdvantageImpl.c ****                     }else
1751:.\AdvantageImpl.c ****                         targetmemoryareafound = true;
 7132              		.loc 1 1751 0
 7133 0146 0123     		movs	r3, #1
 7134 0148 FB77     		strb	r3, [r7, #31]
 7135 014a 04E0     		b	.L265
 7136              	.L260:
1752:.\AdvantageImpl.c ****                 }else
1753:.\AdvantageImpl.c ****                     targetmemoryareafound = true;
 7137              		.loc 1 1753 0
 7138 014c 0123     		movs	r3, #1
 7139 014e FB77     		strb	r3, [r7, #31]
 7140 0150 01E0     		b	.L265
 7141              	.L259:
1754:.\AdvantageImpl.c ****             }else
1755:.\AdvantageImpl.c ****                 targetmemoryareafound = true;
 7142              		.loc 1 1755 0
 7143 0152 0123     		movs	r3, #1
 7144 0154 FB77     		strb	r3, [r7, #31]
 7145              	.L265:
1756:.\AdvantageImpl.c ****             
1757:.\AdvantageImpl.c ****             ///////////////////////////////////////////////////////////////////////////////////////
1758:.\AdvantageImpl.c ****             //JUST RETURN SINCE IT MEANS THAT THE PUMP/POSITION IDENTIFIERS HAVE NOT YET BEEN DEFIN
1759:.\AdvantageImpl.c ****             if(!targetmemoryareafound)
 7146              		.loc 1 1759 0
 7147 0156 FB7F     		ldrb	r3, [r7, #31]
 7148 0158 83F00103 		eor	r3, r3, #1
 7149 015c DBB2     		uxtb	r3, r3
 7150 015e 002B     		cmp	r3, #0
 7151 0160 00D0     		beq	.L266
1760:.\AdvantageImpl.c ****                 return;
ARM GAS  C:\Users\RECEPC~1\AppData\Local\Temp\ccZZcwiB.s 			page 158


 7152              		.loc 1 1760 0
 7153 0162 71E1     		b	.L257
 7154              	.L266:
1761:.\AdvantageImpl.c ****                 
1762:.\AdvantageImpl.c ****             //THE FIRST 16 BYTES ARE RESERVED FOR LOCAL PUMP CONFIGURATION INFORMATION
1763:.\AdvantageImpl.c ****             LPRAWPTR ptreeprom = &(GetEepromBuffer()[0x10]);
 7155              		.loc 1 1763 0
 7156 0164 FFF7FEFF 		bl	GetEepromBuffer
 7157 0168 0346     		mov	r3, r0
 7158 016a 1033     		adds	r3, r3, #16
 7159 016c 3B61     		str	r3, [r7, #16]
1764:.\AdvantageImpl.c ****             
1765:.\AdvantageImpl.c ****             uint8 blkindex = 0;
 7160              		.loc 1 1765 0
 7161 016e 0023     		movs	r3, #0
 7162 0170 FB73     		strb	r3, [r7, #15]
1766:.\AdvantageImpl.c ****             uint8 msglength = (TranslateSpecialFuncionDigit(pjob->_ppump->_rxbuffer[0x01]) << 0x04)
 7163              		.loc 1 1766 0
 7164 0172 BB69     		ldr	r3, [r7, #24]
 7165 0174 DB69     		ldr	r3, [r3, #28]
 7166 0176 93F8A131 		ldrb	r3, [r3, #417]	@ zero_extendqisi2
 7167 017a 1846     		mov	r0, r3
 7168 017c FFF7FEFF 		bl	TranslateSpecialFuncionDigit
 7169 0180 0346     		mov	r3, r0
 7170 0182 1B01     		lsls	r3, r3, #4
 7171 0184 DCB2     		uxtb	r4, r3
 7172 0186 BB69     		ldr	r3, [r7, #24]
 7173 0188 DB69     		ldr	r3, [r3, #28]
 7174 018a 93F8A231 		ldrb	r3, [r3, #418]	@ zero_extendqisi2
 7175 018e 1846     		mov	r0, r3
 7176 0190 FFF7FEFF 		bl	TranslateSpecialFuncionDigit
 7177 0194 0346     		mov	r3, r0
 7178 0196 DBB2     		uxtb	r3, r3
 7179 0198 2246     		mov	r2, r4
 7180 019a 1343     		orrs	r3, r3, r2
 7181 019c DBB2     		uxtb	r3, r3
 7182 019e BB73     		strb	r3, [r7, #14]
1767:.\AdvantageImpl.c ****             
1768:.\AdvantageImpl.c ****             //0
1769:.\AdvantageImpl.c ****             //Pump Type / Unit Type Code
1770:.\AdvantageImpl.c ****             *ptreeprom = ((TranslateSpecialFuncionDigit(pjob->_ppump->_rxbuffer[0x09 + 2*blkindex])
 7183              		.loc 1 1770 0
 7184 01a0 BB69     		ldr	r3, [r7, #24]
 7185 01a2 DA69     		ldr	r2, [r3, #28]
 7186 01a4 FB7B     		ldrb	r3, [r7, #15]	@ zero_extendqisi2
 7187 01a6 5B00     		lsls	r3, r3, #1
 7188 01a8 0933     		adds	r3, r3, #9
 7189 01aa 1344     		add	r3, r3, r2
 7190 01ac 93F8A031 		ldrb	r3, [r3, #416]	@ zero_extendqisi2
 7191 01b0 1846     		mov	r0, r3
 7192 01b2 FFF7FEFF 		bl	TranslateSpecialFuncionDigit
 7193 01b6 0346     		mov	r3, r0
 7194 01b8 1B01     		lsls	r3, r3, #4
 7195 01ba DCB2     		uxtb	r4, r3
1771:.\AdvantageImpl.c ****                             (TranslateSpecialFuncionDigit(pjob->_ppump->_rxbuffer[0x09 + (2*blkinde
 7196              		.loc 1 1771 0
 7197 01bc BB69     		ldr	r3, [r7, #24]
ARM GAS  C:\Users\RECEPC~1\AppData\Local\Temp\ccZZcwiB.s 			page 159


 7198 01be DA69     		ldr	r2, [r3, #28]
 7199 01c0 FB7B     		ldrb	r3, [r7, #15]	@ zero_extendqisi2
 7200 01c2 0533     		adds	r3, r3, #5
 7201 01c4 5B00     		lsls	r3, r3, #1
 7202 01c6 1344     		add	r3, r3, r2
 7203 01c8 93F8A031 		ldrb	r3, [r3, #416]	@ zero_extendqisi2
 7204 01cc 1846     		mov	r0, r3
 7205 01ce FFF7FEFF 		bl	TranslateSpecialFuncionDigit
 7206 01d2 0346     		mov	r3, r0
1770:.\AdvantageImpl.c ****                             (TranslateSpecialFuncionDigit(pjob->_ppump->_rxbuffer[0x09 + (2*blkinde
 7207              		.loc 1 1770 0
 7208 01d4 DBB2     		uxtb	r3, r3
 7209 01d6 03F00F03 		and	r3, r3, #15
 7210 01da DBB2     		uxtb	r3, r3
 7211 01dc 2246     		mov	r2, r4
 7212 01de 1343     		orrs	r3, r3, r2
 7213 01e0 DBB2     		uxtb	r3, r3
 7214 01e2 DAB2     		uxtb	r2, r3
 7215 01e4 3B69     		ldr	r3, [r7, #16]
 7216 01e6 1A70     		strb	r2, [r3]
1772:.\AdvantageImpl.c **** 
1773:.\AdvantageImpl.c ****             //1
1774:.\AdvantageImpl.c ****             ptreeprom++;
 7217              		.loc 1 1774 0
 7218 01e8 3B69     		ldr	r3, [r7, #16]
 7219 01ea 0133     		adds	r3, r3, #1
 7220 01ec 3B61     		str	r3, [r7, #16]
1775:.\AdvantageImpl.c ****             blkindex++;
 7221              		.loc 1 1775 0
 7222 01ee FB7B     		ldrb	r3, [r7, #15]	@ zero_extendqisi2
 7223 01f0 0133     		adds	r3, r3, #1
 7224 01f2 FB73     		strb	r3, [r7, #15]
1776:.\AdvantageImpl.c ****             //Conversion Factor Code
1777:.\AdvantageImpl.c ****             *ptreeprom = ((TranslateSpecialFuncionDigit(pjob->_ppump->_rxbuffer[0x09 + 2*blkindex])
 7225              		.loc 1 1777 0
 7226 01f4 BB69     		ldr	r3, [r7, #24]
 7227 01f6 DA69     		ldr	r2, [r3, #28]
 7228 01f8 FB7B     		ldrb	r3, [r7, #15]	@ zero_extendqisi2
 7229 01fa 5B00     		lsls	r3, r3, #1
 7230 01fc 0933     		adds	r3, r3, #9
 7231 01fe 1344     		add	r3, r3, r2
 7232 0200 93F8A031 		ldrb	r3, [r3, #416]	@ zero_extendqisi2
 7233 0204 1846     		mov	r0, r3
 7234 0206 FFF7FEFF 		bl	TranslateSpecialFuncionDigit
 7235 020a 0346     		mov	r3, r0
 7236 020c 1B01     		lsls	r3, r3, #4
 7237 020e DCB2     		uxtb	r4, r3
1778:.\AdvantageImpl.c ****                             (TranslateSpecialFuncionDigit(pjob->_ppump->_rxbuffer[0x09 + (2*blkinde
 7238              		.loc 1 1778 0
 7239 0210 BB69     		ldr	r3, [r7, #24]
 7240 0212 DA69     		ldr	r2, [r3, #28]
 7241 0214 FB7B     		ldrb	r3, [r7, #15]	@ zero_extendqisi2
 7242 0216 0533     		adds	r3, r3, #5
 7243 0218 5B00     		lsls	r3, r3, #1
 7244 021a 1344     		add	r3, r3, r2
 7245 021c 93F8A031 		ldrb	r3, [r3, #416]	@ zero_extendqisi2
 7246 0220 1846     		mov	r0, r3
ARM GAS  C:\Users\RECEPC~1\AppData\Local\Temp\ccZZcwiB.s 			page 160


 7247 0222 FFF7FEFF 		bl	TranslateSpecialFuncionDigit
 7248 0226 0346     		mov	r3, r0
1777:.\AdvantageImpl.c ****                             (TranslateSpecialFuncionDigit(pjob->_ppump->_rxbuffer[0x09 + (2*blkinde
 7249              		.loc 1 1777 0
 7250 0228 DBB2     		uxtb	r3, r3
 7251 022a 03F00F03 		and	r3, r3, #15
 7252 022e DBB2     		uxtb	r3, r3
 7253 0230 2246     		mov	r2, r4
 7254 0232 1343     		orrs	r3, r3, r2
 7255 0234 DBB2     		uxtb	r3, r3
 7256 0236 DAB2     		uxtb	r2, r3
 7257 0238 3B69     		ldr	r3, [r7, #16]
 7258 023a 1A70     		strb	r2, [r3]
1779:.\AdvantageImpl.c **** 
1780:.\AdvantageImpl.c ****             //2
1781:.\AdvantageImpl.c ****             ptreeprom++;
 7259              		.loc 1 1781 0
 7260 023c 3B69     		ldr	r3, [r7, #16]
 7261 023e 0133     		adds	r3, r3, #1
 7262 0240 3B61     		str	r3, [r7, #16]
1782:.\AdvantageImpl.c ****             blkindex++;
 7263              		.loc 1 1782 0
 7264 0242 FB7B     		ldrb	r3, [r7, #15]	@ zero_extendqisi2
 7265 0244 0133     		adds	r3, r3, #1
 7266 0246 FB73     		strb	r3, [r7, #15]
1783:.\AdvantageImpl.c ****             //Money Decimal Point Code
1784:.\AdvantageImpl.c ****             *ptreeprom = ((TranslateSpecialFuncionDigit(pjob->_ppump->_rxbuffer[0x09 + 2*blkindex])
 7267              		.loc 1 1784 0
 7268 0248 BB69     		ldr	r3, [r7, #24]
 7269 024a DA69     		ldr	r2, [r3, #28]
 7270 024c FB7B     		ldrb	r3, [r7, #15]	@ zero_extendqisi2
 7271 024e 5B00     		lsls	r3, r3, #1
 7272 0250 0933     		adds	r3, r3, #9
 7273 0252 1344     		add	r3, r3, r2
 7274 0254 93F8A031 		ldrb	r3, [r3, #416]	@ zero_extendqisi2
 7275 0258 1846     		mov	r0, r3
 7276 025a FFF7FEFF 		bl	TranslateSpecialFuncionDigit
 7277 025e 0346     		mov	r3, r0
 7278 0260 1B01     		lsls	r3, r3, #4
 7279 0262 DCB2     		uxtb	r4, r3
1785:.\AdvantageImpl.c ****                             (TranslateSpecialFuncionDigit(pjob->_ppump->_rxbuffer[0x09 + (2*blkinde
 7280              		.loc 1 1785 0
 7281 0264 BB69     		ldr	r3, [r7, #24]
 7282 0266 DA69     		ldr	r2, [r3, #28]
 7283 0268 FB7B     		ldrb	r3, [r7, #15]	@ zero_extendqisi2
 7284 026a 0533     		adds	r3, r3, #5
 7285 026c 5B00     		lsls	r3, r3, #1
 7286 026e 1344     		add	r3, r3, r2
 7287 0270 93F8A031 		ldrb	r3, [r3, #416]	@ zero_extendqisi2
 7288 0274 1846     		mov	r0, r3
 7289 0276 FFF7FEFF 		bl	TranslateSpecialFuncionDigit
 7290 027a 0346     		mov	r3, r0
1784:.\AdvantageImpl.c ****                             (TranslateSpecialFuncionDigit(pjob->_ppump->_rxbuffer[0x09 + (2*blkinde
 7291              		.loc 1 1784 0
 7292 027c DBB2     		uxtb	r3, r3
 7293 027e 03F00F03 		and	r3, r3, #15
 7294 0282 DBB2     		uxtb	r3, r3
ARM GAS  C:\Users\RECEPC~1\AppData\Local\Temp\ccZZcwiB.s 			page 161


 7295 0284 2246     		mov	r2, r4
 7296 0286 1343     		orrs	r3, r3, r2
 7297 0288 DBB2     		uxtb	r3, r3
 7298 028a DAB2     		uxtb	r2, r3
 7299 028c 3B69     		ldr	r3, [r7, #16]
 7300 028e 1A70     		strb	r2, [r3]
1786:.\AdvantageImpl.c ****                             
1787:.\AdvantageImpl.c ****             //3
1788:.\AdvantageImpl.c ****             ptreeprom++;
 7301              		.loc 1 1788 0
 7302 0290 3B69     		ldr	r3, [r7, #16]
 7303 0292 0133     		adds	r3, r3, #1
 7304 0294 3B61     		str	r3, [r7, #16]
1789:.\AdvantageImpl.c ****             blkindex++;
 7305              		.loc 1 1789 0
 7306 0296 FB7B     		ldrb	r3, [r7, #15]	@ zero_extendqisi2
 7307 0298 0133     		adds	r3, r3, #1
 7308 029a FB73     		strb	r3, [r7, #15]
1790:.\AdvantageImpl.c ****             //Volume Decimal Point Code
1791:.\AdvantageImpl.c ****             *ptreeprom = ((TranslateSpecialFuncionDigit(pjob->_ppump->_rxbuffer[0x09 + 2*blkindex])
 7309              		.loc 1 1791 0
 7310 029c BB69     		ldr	r3, [r7, #24]
 7311 029e DA69     		ldr	r2, [r3, #28]
 7312 02a0 FB7B     		ldrb	r3, [r7, #15]	@ zero_extendqisi2
 7313 02a2 5B00     		lsls	r3, r3, #1
 7314 02a4 0933     		adds	r3, r3, #9
 7315 02a6 1344     		add	r3, r3, r2
 7316 02a8 93F8A031 		ldrb	r3, [r3, #416]	@ zero_extendqisi2
 7317 02ac 1846     		mov	r0, r3
 7318 02ae FFF7FEFF 		bl	TranslateSpecialFuncionDigit
 7319 02b2 0346     		mov	r3, r0
 7320 02b4 1B01     		lsls	r3, r3, #4
 7321 02b6 DCB2     		uxtb	r4, r3
1792:.\AdvantageImpl.c ****                             (TranslateSpecialFuncionDigit(pjob->_ppump->_rxbuffer[0x09 + (2*blkinde
 7322              		.loc 1 1792 0
 7323 02b8 BB69     		ldr	r3, [r7, #24]
 7324 02ba DA69     		ldr	r2, [r3, #28]
 7325 02bc FB7B     		ldrb	r3, [r7, #15]	@ zero_extendqisi2
 7326 02be 0533     		adds	r3, r3, #5
 7327 02c0 5B00     		lsls	r3, r3, #1
 7328 02c2 1344     		add	r3, r3, r2
 7329 02c4 93F8A031 		ldrb	r3, [r3, #416]	@ zero_extendqisi2
 7330 02c8 1846     		mov	r0, r3
 7331 02ca FFF7FEFF 		bl	TranslateSpecialFuncionDigit
 7332 02ce 0346     		mov	r3, r0
1791:.\AdvantageImpl.c ****                             (TranslateSpecialFuncionDigit(pjob->_ppump->_rxbuffer[0x09 + (2*blkinde
 7333              		.loc 1 1791 0
 7334 02d0 DBB2     		uxtb	r3, r3
 7335 02d2 03F00F03 		and	r3, r3, #15
 7336 02d6 DBB2     		uxtb	r3, r3
 7337 02d8 2246     		mov	r2, r4
 7338 02da 1343     		orrs	r3, r3, r2
 7339 02dc DBB2     		uxtb	r3, r3
 7340 02de DAB2     		uxtb	r2, r3
 7341 02e0 3B69     		ldr	r3, [r7, #16]
 7342 02e2 1A70     		strb	r2, [r3]
1793:.\AdvantageImpl.c ****             
ARM GAS  C:\Users\RECEPC~1\AppData\Local\Temp\ccZZcwiB.s 			page 162


1794:.\AdvantageImpl.c ****             //4
1795:.\AdvantageImpl.c ****             ptreeprom++;
 7343              		.loc 1 1795 0
 7344 02e4 3B69     		ldr	r3, [r7, #16]
 7345 02e6 0133     		adds	r3, r3, #1
 7346 02e8 3B61     		str	r3, [r7, #16]
1796:.\AdvantageImpl.c ****             blkindex++;
 7347              		.loc 1 1796 0
 7348 02ea FB7B     		ldrb	r3, [r7, #15]	@ zero_extendqisi2
 7349 02ec 0133     		adds	r3, r3, #1
 7350 02ee FB73     		strb	r3, [r7, #15]
1797:.\AdvantageImpl.c ****             //PPU Decimal Point Code
1798:.\AdvantageImpl.c ****             *ptreeprom = ((TranslateSpecialFuncionDigit(pjob->_ppump->_rxbuffer[0x09 + 2*blkindex])
 7351              		.loc 1 1798 0
 7352 02f0 BB69     		ldr	r3, [r7, #24]
 7353 02f2 DA69     		ldr	r2, [r3, #28]
 7354 02f4 FB7B     		ldrb	r3, [r7, #15]	@ zero_extendqisi2
 7355 02f6 5B00     		lsls	r3, r3, #1
 7356 02f8 0933     		adds	r3, r3, #9
 7357 02fa 1344     		add	r3, r3, r2
 7358 02fc 93F8A031 		ldrb	r3, [r3, #416]	@ zero_extendqisi2
 7359 0300 1846     		mov	r0, r3
 7360 0302 FFF7FEFF 		bl	TranslateSpecialFuncionDigit
 7361 0306 0346     		mov	r3, r0
 7362 0308 1B01     		lsls	r3, r3, #4
 7363 030a DCB2     		uxtb	r4, r3
1799:.\AdvantageImpl.c ****                             (TranslateSpecialFuncionDigit(pjob->_ppump->_rxbuffer[0x09 + (2*blkinde
 7364              		.loc 1 1799 0
 7365 030c BB69     		ldr	r3, [r7, #24]
 7366 030e DA69     		ldr	r2, [r3, #28]
 7367 0310 FB7B     		ldrb	r3, [r7, #15]	@ zero_extendqisi2
 7368 0312 0533     		adds	r3, r3, #5
 7369 0314 5B00     		lsls	r3, r3, #1
 7370 0316 1344     		add	r3, r3, r2
 7371 0318 93F8A031 		ldrb	r3, [r3, #416]	@ zero_extendqisi2
 7372 031c 1846     		mov	r0, r3
 7373 031e FFF7FEFF 		bl	TranslateSpecialFuncionDigit
 7374 0322 0346     		mov	r3, r0
1798:.\AdvantageImpl.c ****                             (TranslateSpecialFuncionDigit(pjob->_ppump->_rxbuffer[0x09 + (2*blkinde
 7375              		.loc 1 1798 0
 7376 0324 DBB2     		uxtb	r3, r3
 7377 0326 03F00F03 		and	r3, r3, #15
 7378 032a DBB2     		uxtb	r3, r3
 7379 032c 2246     		mov	r2, r4
 7380 032e 1343     		orrs	r3, r3, r2
 7381 0330 DBB2     		uxtb	r3, r3
 7382 0332 DAB2     		uxtb	r2, r3
 7383 0334 3B69     		ldr	r3, [r7, #16]
 7384 0336 1A70     		strb	r2, [r3]
1800:.\AdvantageImpl.c **** 
1801:.\AdvantageImpl.c ****             //5
1802:.\AdvantageImpl.c ****             ptreeprom++;
 7385              		.loc 1 1802 0
 7386 0338 3B69     		ldr	r3, [r7, #16]
 7387 033a 0133     		adds	r3, r3, #1
 7388 033c 3B61     		str	r3, [r7, #16]
1803:.\AdvantageImpl.c ****             blkindex++;
ARM GAS  C:\Users\RECEPC~1\AppData\Local\Temp\ccZZcwiB.s 			page 163


 7389              		.loc 1 1803 0
 7390 033e FB7B     		ldrb	r3, [r7, #15]	@ zero_extendqisi2
 7391 0340 0133     		adds	r3, r3, #1
 7392 0342 FB73     		strb	r3, [r7, #15]
1804:.\AdvantageImpl.c ****             //5/6/7/8 Digit Money Mode
1805:.\AdvantageImpl.c ****             *ptreeprom = ((TranslateSpecialFuncionDigit(pjob->_ppump->_rxbuffer[0x09 + 2*blkindex])
 7393              		.loc 1 1805 0
 7394 0344 BB69     		ldr	r3, [r7, #24]
 7395 0346 DA69     		ldr	r2, [r3, #28]
 7396 0348 FB7B     		ldrb	r3, [r7, #15]	@ zero_extendqisi2
 7397 034a 5B00     		lsls	r3, r3, #1
 7398 034c 0933     		adds	r3, r3, #9
 7399 034e 1344     		add	r3, r3, r2
 7400 0350 93F8A031 		ldrb	r3, [r3, #416]	@ zero_extendqisi2
 7401 0354 1846     		mov	r0, r3
 7402 0356 FFF7FEFF 		bl	TranslateSpecialFuncionDigit
 7403 035a 0346     		mov	r3, r0
 7404 035c 1B01     		lsls	r3, r3, #4
 7405 035e DCB2     		uxtb	r4, r3
1806:.\AdvantageImpl.c ****                             (TranslateSpecialFuncionDigit(pjob->_ppump->_rxbuffer[0x09 + (2*blkinde
 7406              		.loc 1 1806 0
 7407 0360 BB69     		ldr	r3, [r7, #24]
 7408 0362 DA69     		ldr	r2, [r3, #28]
 7409 0364 FB7B     		ldrb	r3, [r7, #15]	@ zero_extendqisi2
 7410 0366 0533     		adds	r3, r3, #5
 7411 0368 5B00     		lsls	r3, r3, #1
 7412 036a 1344     		add	r3, r3, r2
 7413 036c 93F8A031 		ldrb	r3, [r3, #416]	@ zero_extendqisi2
 7414 0370 1846     		mov	r0, r3
 7415 0372 FFF7FEFF 		bl	TranslateSpecialFuncionDigit
 7416 0376 0346     		mov	r3, r0
1805:.\AdvantageImpl.c ****                             (TranslateSpecialFuncionDigit(pjob->_ppump->_rxbuffer[0x09 + (2*blkinde
 7417              		.loc 1 1805 0
 7418 0378 DBB2     		uxtb	r3, r3
 7419 037a 03F00F03 		and	r3, r3, #15
 7420 037e DBB2     		uxtb	r3, r3
 7421 0380 2246     		mov	r2, r4
 7422 0382 1343     		orrs	r3, r3, r2
 7423 0384 DBB2     		uxtb	r3, r3
 7424 0386 DAB2     		uxtb	r2, r3
 7425 0388 3B69     		ldr	r3, [r7, #16]
 7426 038a 1A70     		strb	r2, [r3]
1807:.\AdvantageImpl.c **** 
1808:.\AdvantageImpl.c ****             //6
1809:.\AdvantageImpl.c ****             ptreeprom++;
 7427              		.loc 1 1809 0
 7428 038c 3B69     		ldr	r3, [r7, #16]
 7429 038e 0133     		adds	r3, r3, #1
 7430 0390 3B61     		str	r3, [r7, #16]
1810:.\AdvantageImpl.c ****             blkindex++;
 7431              		.loc 1 1810 0
 7432 0392 FB7B     		ldrb	r3, [r7, #15]	@ zero_extendqisi2
 7433 0394 0133     		adds	r3, r3, #1
 7434 0396 FB73     		strb	r3, [r7, #15]
1811:.\AdvantageImpl.c ****             //Auto On/Push to Start Mode
1812:.\AdvantageImpl.c ****             *ptreeprom = ((TranslateSpecialFuncionDigit(pjob->_ppump->_rxbuffer[0x09 + 2*blkindex])
 7435              		.loc 1 1812 0
ARM GAS  C:\Users\RECEPC~1\AppData\Local\Temp\ccZZcwiB.s 			page 164


 7436 0398 BB69     		ldr	r3, [r7, #24]
 7437 039a DA69     		ldr	r2, [r3, #28]
 7438 039c FB7B     		ldrb	r3, [r7, #15]	@ zero_extendqisi2
 7439 039e 5B00     		lsls	r3, r3, #1
 7440 03a0 0933     		adds	r3, r3, #9
 7441 03a2 1344     		add	r3, r3, r2
 7442 03a4 93F8A031 		ldrb	r3, [r3, #416]	@ zero_extendqisi2
 7443 03a8 1846     		mov	r0, r3
 7444 03aa FFF7FEFF 		bl	TranslateSpecialFuncionDigit
 7445 03ae 0346     		mov	r3, r0
 7446 03b0 1B01     		lsls	r3, r3, #4
 7447 03b2 DCB2     		uxtb	r4, r3
1813:.\AdvantageImpl.c ****                             (TranslateSpecialFuncionDigit(pjob->_ppump->_rxbuffer[0x09 + (2*blkinde
 7448              		.loc 1 1813 0
 7449 03b4 BB69     		ldr	r3, [r7, #24]
 7450 03b6 DA69     		ldr	r2, [r3, #28]
 7451 03b8 FB7B     		ldrb	r3, [r7, #15]	@ zero_extendqisi2
 7452 03ba 0533     		adds	r3, r3, #5
 7453 03bc 5B00     		lsls	r3, r3, #1
 7454 03be 1344     		add	r3, r3, r2
 7455 03c0 93F8A031 		ldrb	r3, [r3, #416]	@ zero_extendqisi2
 7456 03c4 1846     		mov	r0, r3
 7457 03c6 FFF7FEFF 		bl	TranslateSpecialFuncionDigit
 7458 03ca 0346     		mov	r3, r0
1812:.\AdvantageImpl.c ****                             (TranslateSpecialFuncionDigit(pjob->_ppump->_rxbuffer[0x09 + (2*blkinde
 7459              		.loc 1 1812 0
 7460 03cc DBB2     		uxtb	r3, r3
 7461 03ce 03F00F03 		and	r3, r3, #15
 7462 03d2 DBB2     		uxtb	r3, r3
 7463 03d4 2246     		mov	r2, r4
 7464 03d6 1343     		orrs	r3, r3, r2
 7465 03d8 DBB2     		uxtb	r3, r3
 7466 03da DAB2     		uxtb	r2, r3
 7467 03dc 3B69     		ldr	r3, [r7, #16]
 7468 03de 1A70     		strb	r2, [r3]
1814:.\AdvantageImpl.c **** 
1815:.\AdvantageImpl.c **** 
1816:.\AdvantageImpl.c ****             //STORING BACK THE EEPROM PAGE
1817:.\AdvantageImpl.c ****             StoreEepromPage(eeprompumpconfigmemorypageid);
 7469              		.loc 1 1817 0
 7470 03e0 BB8B     		ldrh	r3, [r7, #28]
 7471 03e2 1846     		mov	r0, r3
 7472 03e4 FFF7FEFF 		bl	StoreEepromPage
1818:.\AdvantageImpl.c ****             AcquireDispenserLayoutInformation(&GetEepromBuffer()[0x10]);
 7473              		.loc 1 1818 0
 7474 03e8 FFF7FEFF 		bl	GetEepromBuffer
 7475 03ec 0346     		mov	r3, r0
 7476 03ee 1033     		adds	r3, r3, #16
 7477 03f0 1846     		mov	r0, r3
 7478 03f2 FFF7FEFF 		bl	AcquireDispenserLayoutInformation
1819:.\AdvantageImpl.c ****          
1820:.\AdvantageImpl.c ****             _g_dispenserlayoutinfo._inconfiguration = false;
 7479              		.loc 1 1820 0
 7480 03f6 164B     		ldr	r3, .L268
 7481 03f8 0022     		movs	r2, #0
 7482 03fa 1A70     		strb	r2, [r3]
1821:.\AdvantageImpl.c ****             _ALLOCATE_SINKMESSAGE_SLOT(psinkmsg);
ARM GAS  C:\Users\RECEPC~1\AppData\Local\Temp\ccZZcwiB.s 			page 165


 7483              		.loc 1 1821 0
 7484 03fc FFF7FEFF 		bl	AllocateMessageSlot
 7485 0400 B860     		str	r0, [r7, #8]
1822:.\AdvantageImpl.c ****             if(psinkmsg)
 7486              		.loc 1 1822 0
 7487 0402 BB68     		ldr	r3, [r7, #8]
 7488 0404 002B     		cmp	r3, #0
 7489 0406 0CD0     		beq	.L267
1823:.\AdvantageImpl.c ****             {
1824:.\AdvantageImpl.c ****                 psinkmsg->_messageid = DISPENSER_LOAD_EEPROM_SETTINGS;
 7490              		.loc 1 1824 0
 7491 0408 BB68     		ldr	r3, [r7, #8]
 7492 040a 0C22     		movs	r2, #12
 7493 040c 5A70     		strb	r2, [r3, #1]
1825:.\AdvantageImpl.c ****                 psinkmsg->_messagedelay = _SINK_TIMEOUT_1S_;
 7494              		.loc 1 1825 0
 7495 040e BB68     		ldr	r3, [r7, #8]
 7496 0410 4FF47A72 		mov	r2, #1000
 7497 0414 9A80     		strh	r2, [r3, #4]	@ movhi
1826:.\AdvantageImpl.c ****                 psinkmsg->_messagetype = FIRSTFOUND;
 7498              		.loc 1 1826 0
 7499 0416 BB68     		ldr	r3, [r7, #8]
 7500 0418 0322     		movs	r2, #3
 7501 041a 9A70     		strb	r2, [r3, #2]
1827:.\AdvantageImpl.c ****                 psinkmsg->_messagestate = SINK_BUSY;
 7502              		.loc 1 1827 0
 7503 041c BB68     		ldr	r3, [r7, #8]
 7504 041e 0322     		movs	r2, #3
 7505 0420 DA70     		strb	r2, [r3, #3]
 7506              	.L267:
1828:.\AdvantageImpl.c ****             }
1829:.\AdvantageImpl.c ****             
1830:.\AdvantageImpl.c ****             _REALLOCATE_SINKMESSAGE_SLOT(psinkmsg);
 7507              		.loc 1 1830 0
 7508 0422 FFF7FEFF 		bl	AllocateMessageSlot
 7509 0426 B860     		str	r0, [r7, #8]
1831:.\AdvantageImpl.c ****             if(psinkmsg)
 7510              		.loc 1 1831 0
 7511 0428 BB68     		ldr	r3, [r7, #8]
 7512 042a 002B     		cmp	r3, #0
 7513 042c 0CD0     		beq	.L257
1832:.\AdvantageImpl.c ****             {
1833:.\AdvantageImpl.c ****                 psinkmsg->_messageid = DISPENSER_CONFIGURE_PRICES;
 7514              		.loc 1 1833 0
 7515 042e BB68     		ldr	r3, [r7, #8]
 7516 0430 0F22     		movs	r2, #15
 7517 0432 5A70     		strb	r2, [r3, #1]
1834:.\AdvantageImpl.c ****                 psinkmsg->_messagedelay = _SINK_TIMEOUT_2S_;
 7518              		.loc 1 1834 0
 7519 0434 BB68     		ldr	r3, [r7, #8]
 7520 0436 4FF4FA62 		mov	r2, #2000
 7521 043a 9A80     		strh	r2, [r3, #4]	@ movhi
1835:.\AdvantageImpl.c ****                 psinkmsg->_messagetype = FIRSTFOUND;
 7522              		.loc 1 1835 0
 7523 043c BB68     		ldr	r3, [r7, #8]
 7524 043e 0322     		movs	r2, #3
 7525 0440 9A70     		strb	r2, [r3, #2]
ARM GAS  C:\Users\RECEPC~1\AppData\Local\Temp\ccZZcwiB.s 			page 166


1836:.\AdvantageImpl.c ****                 psinkmsg->_messagestate = SINK_BUSY;
 7526              		.loc 1 1836 0
 7527 0442 BB68     		ldr	r3, [r7, #8]
 7528 0444 0322     		movs	r2, #3
 7529 0446 DA70     		strb	r2, [r3, #3]
 7530              	.L257:
 7531              	.LBE56:
 7532              	.LBE55:
1837:.\AdvantageImpl.c ****             }
1838:.\AdvantageImpl.c ****         }
1839:.\AdvantageImpl.c ****     }
1840:.\AdvantageImpl.c **** }
 7533              		.loc 1 1840 0
 7534 0448 2437     		adds	r7, r7, #36
 7535              		.cfi_def_cfa_offset 12
 7536 044a BD46     		mov	sp, r7
 7537              		.cfi_def_cfa_register 13
 7538              		@ sp needed
 7539 044c 90BD     		pop	{r4, r7, pc}
 7540              	.L269:
 7541 044e 00BF     		.align	2
 7542              	.L268:
 7543 0450 00000000 		.word	_g_dispenserlayoutinfo
 7544              		.cfi_endproc
 7545              	.LFE91:
 7546              		.size	AcquirePumpCompleteConfiguration, .-AcquirePumpCompleteConfiguration
 7547              		.section	.text.AcquireDispenserLayoutInformation,"ax",%progbits
 7548              		.align	2
 7549              		.global	AcquireDispenserLayoutInformation
 7550              		.thumb
 7551              		.thumb_func
 7552              		.type	AcquireDispenserLayoutInformation, %function
 7553              	AcquireDispenserLayoutInformation:
 7554              	.LFB92:
1841:.\AdvantageImpl.c **** 
1842:.\AdvantageImpl.c **** //@Created By: HIJH
1843:.\AdvantageImpl.c **** //@Septembre de 2016
1844:.\AdvantageImpl.c **** void AcquireDispenserLayoutInformation(LPVOID pparam)
1845:.\AdvantageImpl.c **** {
 7555              		.loc 1 1845 0
 7556              		.cfi_startproc
 7557              		@ args = 0, pretend = 0, frame = 16
 7558              		@ frame_needed = 1, uses_anonymous_args = 0
 7559              		@ link register save eliminated.
 7560 0000 80B4     		push	{r7}
 7561              		.cfi_def_cfa_offset 4
 7562              		.cfi_offset 7, -4
 7563 0002 85B0     		sub	sp, sp, #20
 7564              		.cfi_def_cfa_offset 24
 7565 0004 00AF     		add	r7, sp, #0
 7566              		.cfi_def_cfa_register 7
 7567 0006 7860     		str	r0, [r7, #4]
1846:.\AdvantageImpl.c ****     LPRAWPTR ptrbuff = (LPRAWPTR)pparam;
 7568              		.loc 1 1846 0
 7569 0008 7B68     		ldr	r3, [r7, #4]
 7570 000a FB60     		str	r3, [r7, #12]
1847:.\AdvantageImpl.c ****     
ARM GAS  C:\Users\RECEPC~1\AppData\Local\Temp\ccZZcwiB.s 			page 167


1848:.\AdvantageImpl.c ****     _g_dispenserlayoutinfo._hosesposition3 = 0x00;
 7571              		.loc 1 1848 0
 7572 000c C04B     		ldr	r3, .L332
 7573 000e 0022     		movs	r2, #0
 7574 0010 5A71     		strb	r2, [r3, #5]
1849:.\AdvantageImpl.c ****     _g_dispenserlayoutinfo._hosesposition4 = 0x00;
 7575              		.loc 1 1849 0
 7576 0012 BF4B     		ldr	r3, .L332
 7577 0014 0022     		movs	r2, #0
 7578 0016 9A71     		strb	r2, [r3, #6]
1850:.\AdvantageImpl.c ****     if(_g_dispenserlayoutinfo._numpositions == 0x02)
 7579              		.loc 1 1850 0
 7580 0018 BD4B     		ldr	r3, .L332
 7581 001a 9B78     		ldrb	r3, [r3, #2]	@ zero_extendqisi2
 7582 001c 022B     		cmp	r3, #2
 7583 001e 40F09C80 		bne	.L271
1851:.\AdvantageImpl.c ****     {
1852:.\AdvantageImpl.c ****         //PLEASE CHECK THE DOCUMENTATION TO UNDERSTAND THE COMPARISON VALUES
1853:.\AdvantageImpl.c ****         switch(ptrbuff[0x00])
 7584              		.loc 1 1853 0
 7585 0022 FB68     		ldr	r3, [r7, #12]
 7586 0024 1B78     		ldrb	r3, [r3]	@ zero_extendqisi2
 7587 0026 103B     		subs	r3, r3, #16
 7588 0028 172B     		cmp	r3, #23
 7589 002a 00F28D81 		bhi	.L288
 7590 002e 01A2     		adr	r2, .L274
 7591 0030 52F823F0 		ldr	pc, [r2, r3, lsl #2]
 7592              		.p2align 2
 7593              	.L274:
 7594 0034 95000000 		.word	.L273+1
 7595 0038 A3000000 		.word	.L275+1
 7596 003c B1000000 		.word	.L276+1
 7597 0040 BF000000 		.word	.L277+1
 7598 0044 CD000000 		.word	.L278+1
 7599 0048 DB000000 		.word	.L279+1
 7600 004c 49030000 		.word	.L288+1
 7601 0050 49030000 		.word	.L288+1
 7602 0054 49030000 		.word	.L288+1
 7603 0058 49030000 		.word	.L288+1
 7604 005c 49030000 		.word	.L288+1
 7605 0060 49030000 		.word	.L288+1
 7606 0064 49030000 		.word	.L288+1
 7607 0068 49030000 		.word	.L288+1
 7608 006c 49030000 		.word	.L288+1
 7609 0070 49030000 		.word	.L288+1
 7610 0074 E9000000 		.word	.L280+1
 7611 0078 F7000000 		.word	.L281+1
 7612 007c 05010000 		.word	.L282+1
 7613 0080 13010000 		.word	.L283+1
 7614 0084 21010000 		.word	.L284+1
 7615 0088 2F010000 		.word	.L285+1
 7616 008c 3D010000 		.word	.L286+1
 7617 0090 4B010000 		.word	.L287+1
 7618              		.p2align 1
 7619              	.L273:
1854:.\AdvantageImpl.c ****         {
1855:.\AdvantageImpl.c ****             //Multi-Product Dispenser
ARM GAS  C:\Users\RECEPC~1\AppData\Local\Temp\ccZZcwiB.s 			page 168


1856:.\AdvantageImpl.c ****             case 0x10://MPD with 1 grade/hose per side
1857:.\AdvantageImpl.c ****             {
1858:.\AdvantageImpl.c ****                 _g_dispenserlayoutinfo._hosesposition1 = 0x01;
 7620              		.loc 1 1858 0
 7621 0094 9E4B     		ldr	r3, .L332
 7622 0096 0122     		movs	r2, #1
 7623 0098 DA70     		strb	r2, [r3, #3]
1859:.\AdvantageImpl.c ****                 _g_dispenserlayoutinfo._hosesposition2 = 0x01;
 7624              		.loc 1 1859 0
 7625 009a 9D4B     		ldr	r3, .L332
 7626 009c 0122     		movs	r2, #1
 7627 009e 1A71     		strb	r2, [r3, #4]
1860:.\AdvantageImpl.c ****                 break;
 7628              		.loc 1 1860 0
 7629 00a0 5AE0     		b	.L272
 7630              	.L275:
1861:.\AdvantageImpl.c ****             }
1862:.\AdvantageImpl.c ****             case 0x11://MPD with 2 grades/hoses per side
1863:.\AdvantageImpl.c ****             {
1864:.\AdvantageImpl.c ****                 _g_dispenserlayoutinfo._hosesposition1 = 0x02;
 7631              		.loc 1 1864 0
 7632 00a2 9B4B     		ldr	r3, .L332
 7633 00a4 0222     		movs	r2, #2
 7634 00a6 DA70     		strb	r2, [r3, #3]
1865:.\AdvantageImpl.c ****                 _g_dispenserlayoutinfo._hosesposition2 = 0x02;
 7635              		.loc 1 1865 0
 7636 00a8 994B     		ldr	r3, .L332
 7637 00aa 0222     		movs	r2, #2
 7638 00ac 1A71     		strb	r2, [r3, #4]
1866:.\AdvantageImpl.c ****                 break;
 7639              		.loc 1 1866 0
 7640 00ae 53E0     		b	.L272
 7641              	.L276:
1867:.\AdvantageImpl.c ****             }
1868:.\AdvantageImpl.c ****             case 0x12://MPD with 3 grades/hoses per side
1869:.\AdvantageImpl.c ****             {
1870:.\AdvantageImpl.c ****                 _g_dispenserlayoutinfo._hosesposition1 = 0x03;
 7642              		.loc 1 1870 0
 7643 00b0 974B     		ldr	r3, .L332
 7644 00b2 0322     		movs	r2, #3
 7645 00b4 DA70     		strb	r2, [r3, #3]
1871:.\AdvantageImpl.c ****                 _g_dispenserlayoutinfo._hosesposition2 = 0x03;
 7646              		.loc 1 1871 0
 7647 00b6 964B     		ldr	r3, .L332
 7648 00b8 0322     		movs	r2, #3
 7649 00ba 1A71     		strb	r2, [r3, #4]
1872:.\AdvantageImpl.c ****                 break;
 7650              		.loc 1 1872 0
 7651 00bc 4CE0     		b	.L272
 7652              	.L277:
1873:.\AdvantageImpl.c ****             }
1874:.\AdvantageImpl.c ****             case 0x13://MPD with 4 grades/hoses per side
1875:.\AdvantageImpl.c ****             {
1876:.\AdvantageImpl.c ****                 _g_dispenserlayoutinfo._hosesposition1 = 0x04;
 7653              		.loc 1 1876 0
 7654 00be 944B     		ldr	r3, .L332
 7655 00c0 0422     		movs	r2, #4
ARM GAS  C:\Users\RECEPC~1\AppData\Local\Temp\ccZZcwiB.s 			page 169


 7656 00c2 DA70     		strb	r2, [r3, #3]
1877:.\AdvantageImpl.c ****                 _g_dispenserlayoutinfo._hosesposition2 = 0x04;
 7657              		.loc 1 1877 0
 7658 00c4 924B     		ldr	r3, .L332
 7659 00c6 0422     		movs	r2, #4
 7660 00c8 1A71     		strb	r2, [r3, #4]
1878:.\AdvantageImpl.c ****                 break;
 7661              		.loc 1 1878 0
 7662 00ca 45E0     		b	.L272
 7663              	.L278:
1879:.\AdvantageImpl.c ****             }
1880:.\AdvantageImpl.c ****             case 0x14://MPD with 5 grades/hoses per side
1881:.\AdvantageImpl.c ****             {
1882:.\AdvantageImpl.c ****                 _g_dispenserlayoutinfo._hosesposition1 = 0x05;
 7664              		.loc 1 1882 0
 7665 00cc 904B     		ldr	r3, .L332
 7666 00ce 0522     		movs	r2, #5
 7667 00d0 DA70     		strb	r2, [r3, #3]
1883:.\AdvantageImpl.c ****                 _g_dispenserlayoutinfo._hosesposition2 = 0x05;
 7668              		.loc 1 1883 0
 7669 00d2 8F4B     		ldr	r3, .L332
 7670 00d4 0522     		movs	r2, #5
 7671 00d6 1A71     		strb	r2, [r3, #4]
1884:.\AdvantageImpl.c ****                 break;
 7672              		.loc 1 1884 0
 7673 00d8 3EE0     		b	.L272
 7674              	.L279:
1885:.\AdvantageImpl.c ****             }
1886:.\AdvantageImpl.c ****             case 0x15://MPD with 6 grades/hoses per side
1887:.\AdvantageImpl.c ****             {
1888:.\AdvantageImpl.c ****                 _g_dispenserlayoutinfo._hosesposition1 = 0x05;
 7675              		.loc 1 1888 0
 7676 00da 8D4B     		ldr	r3, .L332
 7677 00dc 0522     		movs	r2, #5
 7678 00de DA70     		strb	r2, [r3, #3]
1889:.\AdvantageImpl.c ****                 _g_dispenserlayoutinfo._hosesposition2 = 0x05;
 7679              		.loc 1 1889 0
 7680 00e0 8B4B     		ldr	r3, .L332
 7681 00e2 0522     		movs	r2, #5
 7682 00e4 1A71     		strb	r2, [r3, #4]
1890:.\AdvantageImpl.c ****                 break;
 7683              		.loc 1 1890 0
 7684 00e6 37E0     		b	.L272
 7685              	.L280:
1891:.\AdvantageImpl.c ****             }
1892:.\AdvantageImpl.c ****             //Single-Hose Multi-Product Dispenser
1893:.\AdvantageImpl.c ****             case 0x20://SHMPD 2+0 (2 grades, 1 hose/side)
1894:.\AdvantageImpl.c ****             {
1895:.\AdvantageImpl.c ****                 _g_dispenserlayoutinfo._hosesposition1 = 0x01;
 7686              		.loc 1 1895 0
 7687 00e8 894B     		ldr	r3, .L332
 7688 00ea 0122     		movs	r2, #1
 7689 00ec DA70     		strb	r2, [r3, #3]
1896:.\AdvantageImpl.c ****                 _g_dispenserlayoutinfo._hosesposition2 = 0x01;
 7690              		.loc 1 1896 0
 7691 00ee 884B     		ldr	r3, .L332
 7692 00f0 0122     		movs	r2, #1
ARM GAS  C:\Users\RECEPC~1\AppData\Local\Temp\ccZZcwiB.s 			page 170


 7693 00f2 1A71     		strb	r2, [r3, #4]
1897:.\AdvantageImpl.c ****                 break;
 7694              		.loc 1 1897 0
 7695 00f4 30E0     		b	.L272
 7696              	.L281:
1898:.\AdvantageImpl.c ****             }
1899:.\AdvantageImpl.c ****             case 0x21://SHMPD 2+1 (3 grades, 2 hoses/side)
1900:.\AdvantageImpl.c ****             {
1901:.\AdvantageImpl.c ****                 _g_dispenserlayoutinfo._hosesposition1 = 0x02;
 7697              		.loc 1 1901 0
 7698 00f6 864B     		ldr	r3, .L332
 7699 00f8 0222     		movs	r2, #2
 7700 00fa DA70     		strb	r2, [r3, #3]
1902:.\AdvantageImpl.c ****                 _g_dispenserlayoutinfo._hosesposition2 = 0x02;
 7701              		.loc 1 1902 0
 7702 00fc 844B     		ldr	r3, .L332
 7703 00fe 0222     		movs	r2, #2
 7704 0100 1A71     		strb	r2, [r3, #4]
1903:.\AdvantageImpl.c ****                 break;
 7705              		.loc 1 1903 0
 7706 0102 29E0     		b	.L272
 7707              	.L282:
1904:.\AdvantageImpl.c ****             }
1905:.\AdvantageImpl.c ****             case 0x22://SHMPD 3+0 (3 grades, 1 hose/side)
1906:.\AdvantageImpl.c ****             {
1907:.\AdvantageImpl.c ****                 _g_dispenserlayoutinfo._hosesposition1 = 0x01;
 7708              		.loc 1 1907 0
 7709 0104 824B     		ldr	r3, .L332
 7710 0106 0122     		movs	r2, #1
 7711 0108 DA70     		strb	r2, [r3, #3]
1908:.\AdvantageImpl.c ****                 _g_dispenserlayoutinfo._hosesposition2 = 0x01;
 7712              		.loc 1 1908 0
 7713 010a 814B     		ldr	r3, .L332
 7714 010c 0122     		movs	r2, #1
 7715 010e 1A71     		strb	r2, [r3, #4]
1909:.\AdvantageImpl.c ****                 break;
 7716              		.loc 1 1909 0
 7717 0110 22E0     		b	.L272
 7718              	.L283:
1910:.\AdvantageImpl.c ****             }
1911:.\AdvantageImpl.c ****             case 0x23://SHMPD 3+1 (4 grades, 2 hoses/side)
1912:.\AdvantageImpl.c ****             {
1913:.\AdvantageImpl.c ****                 _g_dispenserlayoutinfo._hosesposition1 = 0x02;
 7719              		.loc 1 1913 0
 7720 0112 7F4B     		ldr	r3, .L332
 7721 0114 0222     		movs	r2, #2
 7722 0116 DA70     		strb	r2, [r3, #3]
1914:.\AdvantageImpl.c ****                 _g_dispenserlayoutinfo._hosesposition2 = 0x02;
 7723              		.loc 1 1914 0
 7724 0118 7D4B     		ldr	r3, .L332
 7725 011a 0222     		movs	r2, #2
 7726 011c 1A71     		strb	r2, [r3, #4]
1915:.\AdvantageImpl.c ****                 break;
 7727              		.loc 1 1915 0
 7728 011e 1BE0     		b	.L272
 7729              	.L284:
1916:.\AdvantageImpl.c ****             }
ARM GAS  C:\Users\RECEPC~1\AppData\Local\Temp\ccZZcwiB.s 			page 171


1917:.\AdvantageImpl.c ****             case 0x24://SHMPD 4+0 (4 grades, 1 hose/side)
1918:.\AdvantageImpl.c ****             {
1919:.\AdvantageImpl.c ****                 _g_dispenserlayoutinfo._hosesposition1 = 0x01;
 7730              		.loc 1 1919 0
 7731 0120 7B4B     		ldr	r3, .L332
 7732 0122 0122     		movs	r2, #1
 7733 0124 DA70     		strb	r2, [r3, #3]
1920:.\AdvantageImpl.c ****                 _g_dispenserlayoutinfo._hosesposition2 = 0x01;
 7734              		.loc 1 1920 0
 7735 0126 7A4B     		ldr	r3, .L332
 7736 0128 0122     		movs	r2, #1
 7737 012a 1A71     		strb	r2, [r3, #4]
1921:.\AdvantageImpl.c ****                 break;
 7738              		.loc 1 1921 0
 7739 012c 14E0     		b	.L272
 7740              	.L285:
1922:.\AdvantageImpl.c ****             }
1923:.\AdvantageImpl.c ****             case 0x25://SHMPD 4+1 (5 grades, 2 hoses/side)
1924:.\AdvantageImpl.c ****             {
1925:.\AdvantageImpl.c ****                 _g_dispenserlayoutinfo._hosesposition1 = 0x02;
 7741              		.loc 1 1925 0
 7742 012e 784B     		ldr	r3, .L332
 7743 0130 0222     		movs	r2, #2
 7744 0132 DA70     		strb	r2, [r3, #3]
1926:.\AdvantageImpl.c ****                 _g_dispenserlayoutinfo._hosesposition2 = 0x02;
 7745              		.loc 1 1926 0
 7746 0134 764B     		ldr	r3, .L332
 7747 0136 0222     		movs	r2, #2
 7748 0138 1A71     		strb	r2, [r3, #4]
1927:.\AdvantageImpl.c ****                 break;
 7749              		.loc 1 1927 0
 7750 013a 0DE0     		b	.L272
 7751              	.L286:
1928:.\AdvantageImpl.c ****             }
1929:.\AdvantageImpl.c ****             case 0x26://SHMPD 5+0 (5 grades, 1 hose/side)
1930:.\AdvantageImpl.c ****             {
1931:.\AdvantageImpl.c ****                 _g_dispenserlayoutinfo._hosesposition1 = 0x01;
 7752              		.loc 1 1931 0
 7753 013c 744B     		ldr	r3, .L332
 7754 013e 0122     		movs	r2, #1
 7755 0140 DA70     		strb	r2, [r3, #3]
1932:.\AdvantageImpl.c ****                 _g_dispenserlayoutinfo._hosesposition2 = 0x01;
 7756              		.loc 1 1932 0
 7757 0142 734B     		ldr	r3, .L332
 7758 0144 0122     		movs	r2, #1
 7759 0146 1A71     		strb	r2, [r3, #4]
1933:.\AdvantageImpl.c ****                 break;
 7760              		.loc 1 1933 0
 7761 0148 06E0     		b	.L272
 7762              	.L287:
1934:.\AdvantageImpl.c ****             }
1935:.\AdvantageImpl.c ****             case 0x27://SHMPD 5+1 (6 grades, 2 hoses/side)
1936:.\AdvantageImpl.c ****             {
1937:.\AdvantageImpl.c ****                 _g_dispenserlayoutinfo._hosesposition1 = 0x02;
 7763              		.loc 1 1937 0
 7764 014a 714B     		ldr	r3, .L332
 7765 014c 0222     		movs	r2, #2
ARM GAS  C:\Users\RECEPC~1\AppData\Local\Temp\ccZZcwiB.s 			page 172


 7766 014e DA70     		strb	r2, [r3, #3]
1938:.\AdvantageImpl.c ****                 _g_dispenserlayoutinfo._hosesposition2 = 0x02;
 7767              		.loc 1 1938 0
 7768 0150 6F4B     		ldr	r3, .L332
 7769 0152 0222     		movs	r2, #2
 7770 0154 1A71     		strb	r2, [r3, #4]
1939:.\AdvantageImpl.c ****                 break;
 7771              		.loc 1 1939 0
 7772 0156 00BF     		nop
 7773              	.L272:
 7774 0158 F6E0     		b	.L288
 7775              	.L271:
1940:.\AdvantageImpl.c ****             }
1941:.\AdvantageImpl.c ****             //MISSING (NOT NEEDED) ...
1942:.\AdvantageImpl.c ****             //0x28 ~ 0x29
1943:.\AdvantageImpl.c ****             //0x3X Multi-Hose Blender
1944:.\AdvantageImpl.c ****             //0x4X Single-Hose Blender
1945:.\AdvantageImpl.c ****             //0x50 MH Hybrid Blender
1946:.\AdvantageImpl.c ****         }
1947:.\AdvantageImpl.c ****     }
1948:.\AdvantageImpl.c ****     else if(_g_dispenserlayoutinfo._numpositions == 0x04)
 7776              		.loc 1 1948 0
 7777 015a 6D4B     		ldr	r3, .L332
 7778 015c 9B78     		ldrb	r3, [r3, #2]	@ zero_extendqisi2
 7779 015e 042B     		cmp	r3, #4
 7780 0160 40F0F280 		bne	.L288
1949:.\AdvantageImpl.c ****     {
1950:.\AdvantageImpl.c ****         //PLEASE CHECK THE DOCUMENTATION TO UNDERSTAND THE COMPARISON VALUES
1951:.\AdvantageImpl.c ****         switch(ptrbuff[0x00])
 7781              		.loc 1 1951 0
 7782 0164 FB68     		ldr	r3, [r7, #12]
 7783 0166 1B78     		ldrb	r3, [r3]	@ zero_extendqisi2
 7784 0168 103B     		subs	r3, r3, #16
 7785 016a 172B     		cmp	r3, #23
 7786 016c 00F2EC80 		bhi	.L288
 7787 0170 01A2     		adr	r2, .L290
 7788 0172 52F823F0 		ldr	pc, [r2, r3, lsl #2]
 7789 0176 00BF     		.p2align 2
 7790              	.L290:
 7791 0178 D9010000 		.word	.L289+1
 7792 017c F3010000 		.word	.L291+1
 7793 0180 0D020000 		.word	.L292+1
 7794 0184 27020000 		.word	.L293+1
 7795 0188 41020000 		.word	.L294+1
 7796 018c 5B020000 		.word	.L295+1
 7797 0190 49030000 		.word	.L288+1
 7798 0194 49030000 		.word	.L288+1
 7799 0198 49030000 		.word	.L288+1
 7800 019c 49030000 		.word	.L288+1
 7801 01a0 49030000 		.word	.L288+1
 7802 01a4 49030000 		.word	.L288+1
 7803 01a8 49030000 		.word	.L288+1
 7804 01ac 49030000 		.word	.L288+1
 7805 01b0 49030000 		.word	.L288+1
 7806 01b4 49030000 		.word	.L288+1
 7807 01b8 75020000 		.word	.L296+1
 7808 01bc 8F020000 		.word	.L297+1
ARM GAS  C:\Users\RECEPC~1\AppData\Local\Temp\ccZZcwiB.s 			page 173


 7809 01c0 A9020000 		.word	.L298+1
 7810 01c4 C3020000 		.word	.L299+1
 7811 01c8 DD020000 		.word	.L300+1
 7812 01cc F7020000 		.word	.L301+1
 7813 01d0 15030000 		.word	.L302+1
 7814 01d4 2F030000 		.word	.L303+1
 7815              		.p2align 1
 7816              	.L289:
1952:.\AdvantageImpl.c ****         {
1953:.\AdvantageImpl.c ****             //Multi-Product Dispenser
1954:.\AdvantageImpl.c ****             case 0x10://MPD with 1 grade/hose per side
1955:.\AdvantageImpl.c ****             {
1956:.\AdvantageImpl.c ****                 _g_dispenserlayoutinfo._hosesposition1 = 0x01;
 7817              		.loc 1 1956 0
 7818 01d8 4D4B     		ldr	r3, .L332
 7819 01da 0122     		movs	r2, #1
 7820 01dc DA70     		strb	r2, [r3, #3]
1957:.\AdvantageImpl.c ****                 _g_dispenserlayoutinfo._hosesposition2 = 0x01;
 7821              		.loc 1 1957 0
 7822 01de 4C4B     		ldr	r3, .L332
 7823 01e0 0122     		movs	r2, #1
 7824 01e2 1A71     		strb	r2, [r3, #4]
1958:.\AdvantageImpl.c ****                 _g_dispenserlayoutinfo._hosesposition3 = 0x01;
 7825              		.loc 1 1958 0
 7826 01e4 4A4B     		ldr	r3, .L332
 7827 01e6 0122     		movs	r2, #1
 7828 01e8 5A71     		strb	r2, [r3, #5]
1959:.\AdvantageImpl.c ****                 _g_dispenserlayoutinfo._hosesposition4 = 0x01;
 7829              		.loc 1 1959 0
 7830 01ea 494B     		ldr	r3, .L332
 7831 01ec 0122     		movs	r2, #1
 7832 01ee 9A71     		strb	r2, [r3, #6]
1960:.\AdvantageImpl.c ****                 break;
 7833              		.loc 1 1960 0
 7834 01f0 AAE0     		b	.L288
 7835              	.L291:
1961:.\AdvantageImpl.c ****             }
1962:.\AdvantageImpl.c ****             case 0x11://MPD with 2 grades/hoses per side
1963:.\AdvantageImpl.c ****             {
1964:.\AdvantageImpl.c ****                 _g_dispenserlayoutinfo._hosesposition1 = 0x02;
 7836              		.loc 1 1964 0
 7837 01f2 474B     		ldr	r3, .L332
 7838 01f4 0222     		movs	r2, #2
 7839 01f6 DA70     		strb	r2, [r3, #3]
1965:.\AdvantageImpl.c ****                 _g_dispenserlayoutinfo._hosesposition2 = 0x02;
 7840              		.loc 1 1965 0
 7841 01f8 454B     		ldr	r3, .L332
 7842 01fa 0222     		movs	r2, #2
 7843 01fc 1A71     		strb	r2, [r3, #4]
1966:.\AdvantageImpl.c ****                 _g_dispenserlayoutinfo._hosesposition3 = 0x02;
 7844              		.loc 1 1966 0
 7845 01fe 444B     		ldr	r3, .L332
 7846 0200 0222     		movs	r2, #2
 7847 0202 5A71     		strb	r2, [r3, #5]
1967:.\AdvantageImpl.c ****                 _g_dispenserlayoutinfo._hosesposition4 = 0x02;
 7848              		.loc 1 1967 0
 7849 0204 424B     		ldr	r3, .L332
ARM GAS  C:\Users\RECEPC~1\AppData\Local\Temp\ccZZcwiB.s 			page 174


 7850 0206 0222     		movs	r2, #2
 7851 0208 9A71     		strb	r2, [r3, #6]
1968:.\AdvantageImpl.c ****                 break;
 7852              		.loc 1 1968 0
 7853 020a 9DE0     		b	.L288
 7854              	.L292:
1969:.\AdvantageImpl.c ****             }
1970:.\AdvantageImpl.c ****             case 0x12://MPD with 3 grades/hoses per side
1971:.\AdvantageImpl.c ****             {
1972:.\AdvantageImpl.c ****                 _g_dispenserlayoutinfo._hosesposition1 = 0x03;
 7855              		.loc 1 1972 0
 7856 020c 404B     		ldr	r3, .L332
 7857 020e 0322     		movs	r2, #3
 7858 0210 DA70     		strb	r2, [r3, #3]
1973:.\AdvantageImpl.c ****                 _g_dispenserlayoutinfo._hosesposition2 = 0x03;
 7859              		.loc 1 1973 0
 7860 0212 3F4B     		ldr	r3, .L332
 7861 0214 0322     		movs	r2, #3
 7862 0216 1A71     		strb	r2, [r3, #4]
1974:.\AdvantageImpl.c ****                 _g_dispenserlayoutinfo._hosesposition3 = 0x03;
 7863              		.loc 1 1974 0
 7864 0218 3D4B     		ldr	r3, .L332
 7865 021a 0322     		movs	r2, #3
 7866 021c 5A71     		strb	r2, [r3, #5]
1975:.\AdvantageImpl.c ****                 _g_dispenserlayoutinfo._hosesposition4 = 0x03;
 7867              		.loc 1 1975 0
 7868 021e 3C4B     		ldr	r3, .L332
 7869 0220 0322     		movs	r2, #3
 7870 0222 9A71     		strb	r2, [r3, #6]
1976:.\AdvantageImpl.c ****                 break;
 7871              		.loc 1 1976 0
 7872 0224 90E0     		b	.L288
 7873              	.L293:
1977:.\AdvantageImpl.c ****             }
1978:.\AdvantageImpl.c ****             case 0x13://MPD with 4 grades/hoses per side
1979:.\AdvantageImpl.c ****             {
1980:.\AdvantageImpl.c ****                 _g_dispenserlayoutinfo._hosesposition1 = 0x04;
 7874              		.loc 1 1980 0
 7875 0226 3A4B     		ldr	r3, .L332
 7876 0228 0422     		movs	r2, #4
 7877 022a DA70     		strb	r2, [r3, #3]
1981:.\AdvantageImpl.c ****                 _g_dispenserlayoutinfo._hosesposition2 = 0x04;
 7878              		.loc 1 1981 0
 7879 022c 384B     		ldr	r3, .L332
 7880 022e 0422     		movs	r2, #4
 7881 0230 1A71     		strb	r2, [r3, #4]
1982:.\AdvantageImpl.c ****                 _g_dispenserlayoutinfo._hosesposition3 = 0x04;
 7882              		.loc 1 1982 0
 7883 0232 374B     		ldr	r3, .L332
 7884 0234 0422     		movs	r2, #4
 7885 0236 5A71     		strb	r2, [r3, #5]
1983:.\AdvantageImpl.c ****                 _g_dispenserlayoutinfo._hosesposition4 = 0x04;
 7886              		.loc 1 1983 0
 7887 0238 354B     		ldr	r3, .L332
 7888 023a 0422     		movs	r2, #4
 7889 023c 9A71     		strb	r2, [r3, #6]
1984:.\AdvantageImpl.c ****                 break;
ARM GAS  C:\Users\RECEPC~1\AppData\Local\Temp\ccZZcwiB.s 			page 175


 7890              		.loc 1 1984 0
 7891 023e 83E0     		b	.L288
 7892              	.L294:
1985:.\AdvantageImpl.c ****             }
1986:.\AdvantageImpl.c ****             case 0x14://MPD with 5 grades/hoses per side
1987:.\AdvantageImpl.c ****             {
1988:.\AdvantageImpl.c ****                 _g_dispenserlayoutinfo._hosesposition1 = 0x05;
 7893              		.loc 1 1988 0
 7894 0240 334B     		ldr	r3, .L332
 7895 0242 0522     		movs	r2, #5
 7896 0244 DA70     		strb	r2, [r3, #3]
1989:.\AdvantageImpl.c ****                 _g_dispenserlayoutinfo._hosesposition2 = 0x05;
 7897              		.loc 1 1989 0
 7898 0246 324B     		ldr	r3, .L332
 7899 0248 0522     		movs	r2, #5
 7900 024a 1A71     		strb	r2, [r3, #4]
1990:.\AdvantageImpl.c ****                 _g_dispenserlayoutinfo._hosesposition3 = 0x05;
 7901              		.loc 1 1990 0
 7902 024c 304B     		ldr	r3, .L332
 7903 024e 0522     		movs	r2, #5
 7904 0250 5A71     		strb	r2, [r3, #5]
1991:.\AdvantageImpl.c ****                 _g_dispenserlayoutinfo._hosesposition4 = 0x05;
 7905              		.loc 1 1991 0
 7906 0252 2F4B     		ldr	r3, .L332
 7907 0254 0522     		movs	r2, #5
 7908 0256 9A71     		strb	r2, [r3, #6]
1992:.\AdvantageImpl.c ****                 break;
 7909              		.loc 1 1992 0
 7910 0258 76E0     		b	.L288
 7911              	.L295:
1993:.\AdvantageImpl.c ****             }
1994:.\AdvantageImpl.c ****             case 0x15://MPD with 6 grades/hoses per side
1995:.\AdvantageImpl.c ****             {
1996:.\AdvantageImpl.c ****                 _g_dispenserlayoutinfo._hosesposition1 = 0x05;
 7912              		.loc 1 1996 0
 7913 025a 2D4B     		ldr	r3, .L332
 7914 025c 0522     		movs	r2, #5
 7915 025e DA70     		strb	r2, [r3, #3]
1997:.\AdvantageImpl.c ****                 _g_dispenserlayoutinfo._hosesposition2 = 0x05;
 7916              		.loc 1 1997 0
 7917 0260 2B4B     		ldr	r3, .L332
 7918 0262 0522     		movs	r2, #5
 7919 0264 1A71     		strb	r2, [r3, #4]
1998:.\AdvantageImpl.c ****                 _g_dispenserlayoutinfo._hosesposition3 = 0x05;
 7920              		.loc 1 1998 0
 7921 0266 2A4B     		ldr	r3, .L332
 7922 0268 0522     		movs	r2, #5
 7923 026a 5A71     		strb	r2, [r3, #5]
1999:.\AdvantageImpl.c ****                 _g_dispenserlayoutinfo._hosesposition4 = 0x05;
 7924              		.loc 1 1999 0
 7925 026c 284B     		ldr	r3, .L332
 7926 026e 0522     		movs	r2, #5
 7927 0270 9A71     		strb	r2, [r3, #6]
2000:.\AdvantageImpl.c ****                 break;
 7928              		.loc 1 2000 0
 7929 0272 69E0     		b	.L288
 7930              	.L296:
ARM GAS  C:\Users\RECEPC~1\AppData\Local\Temp\ccZZcwiB.s 			page 176


2001:.\AdvantageImpl.c ****             }
2002:.\AdvantageImpl.c ****             //Single-Hose Multi-Product Dispenser
2003:.\AdvantageImpl.c ****             case 0x20://SHMPD 2+0 (2 grades, 1 hose/side)
2004:.\AdvantageImpl.c ****             {
2005:.\AdvantageImpl.c ****                 _g_dispenserlayoutinfo._hosesposition1 = 0x01;
 7931              		.loc 1 2005 0
 7932 0274 264B     		ldr	r3, .L332
 7933 0276 0122     		movs	r2, #1
 7934 0278 DA70     		strb	r2, [r3, #3]
2006:.\AdvantageImpl.c ****                 _g_dispenserlayoutinfo._hosesposition2 = 0x01;
 7935              		.loc 1 2006 0
 7936 027a 254B     		ldr	r3, .L332
 7937 027c 0122     		movs	r2, #1
 7938 027e 1A71     		strb	r2, [r3, #4]
2007:.\AdvantageImpl.c ****                 _g_dispenserlayoutinfo._hosesposition3 = 0x01;
 7939              		.loc 1 2007 0
 7940 0280 234B     		ldr	r3, .L332
 7941 0282 0122     		movs	r2, #1
 7942 0284 5A71     		strb	r2, [r3, #5]
2008:.\AdvantageImpl.c ****                 _g_dispenserlayoutinfo._hosesposition4 = 0x01;
 7943              		.loc 1 2008 0
 7944 0286 224B     		ldr	r3, .L332
 7945 0288 0122     		movs	r2, #1
 7946 028a 9A71     		strb	r2, [r3, #6]
2009:.\AdvantageImpl.c ****                 break;
 7947              		.loc 1 2009 0
 7948 028c 5CE0     		b	.L288
 7949              	.L297:
2010:.\AdvantageImpl.c ****             }
2011:.\AdvantageImpl.c ****             case 0x21://SHMPD 2+1 (3 grades, 2 hoses/side)
2012:.\AdvantageImpl.c ****             {
2013:.\AdvantageImpl.c ****                 _g_dispenserlayoutinfo._hosesposition1 = 0x02;
 7950              		.loc 1 2013 0
 7951 028e 204B     		ldr	r3, .L332
 7952 0290 0222     		movs	r2, #2
 7953 0292 DA70     		strb	r2, [r3, #3]
2014:.\AdvantageImpl.c ****                 _g_dispenserlayoutinfo._hosesposition2 = 0x02;
 7954              		.loc 1 2014 0
 7955 0294 1E4B     		ldr	r3, .L332
 7956 0296 0222     		movs	r2, #2
 7957 0298 1A71     		strb	r2, [r3, #4]
2015:.\AdvantageImpl.c ****                 _g_dispenserlayoutinfo._hosesposition3 = 0x02;
 7958              		.loc 1 2015 0
 7959 029a 1D4B     		ldr	r3, .L332
 7960 029c 0222     		movs	r2, #2
 7961 029e 5A71     		strb	r2, [r3, #5]
2016:.\AdvantageImpl.c ****                 _g_dispenserlayoutinfo._hosesposition4 = 0x02;
 7962              		.loc 1 2016 0
 7963 02a0 1B4B     		ldr	r3, .L332
 7964 02a2 0222     		movs	r2, #2
 7965 02a4 9A71     		strb	r2, [r3, #6]
2017:.\AdvantageImpl.c ****                 break;
 7966              		.loc 1 2017 0
 7967 02a6 4FE0     		b	.L288
 7968              	.L298:
2018:.\AdvantageImpl.c ****             }
2019:.\AdvantageImpl.c ****             case 0x22://SHMPD 3+0 (3 grades, 1 hose/side)
ARM GAS  C:\Users\RECEPC~1\AppData\Local\Temp\ccZZcwiB.s 			page 177


2020:.\AdvantageImpl.c ****             {
2021:.\AdvantageImpl.c ****                 _g_dispenserlayoutinfo._hosesposition1 = 0x01;
 7969              		.loc 1 2021 0
 7970 02a8 194B     		ldr	r3, .L332
 7971 02aa 0122     		movs	r2, #1
 7972 02ac DA70     		strb	r2, [r3, #3]
2022:.\AdvantageImpl.c ****                 _g_dispenserlayoutinfo._hosesposition2 = 0x01;
 7973              		.loc 1 2022 0
 7974 02ae 184B     		ldr	r3, .L332
 7975 02b0 0122     		movs	r2, #1
 7976 02b2 1A71     		strb	r2, [r3, #4]
2023:.\AdvantageImpl.c ****                 _g_dispenserlayoutinfo._hosesposition3 = 0x01;
 7977              		.loc 1 2023 0
 7978 02b4 164B     		ldr	r3, .L332
 7979 02b6 0122     		movs	r2, #1
 7980 02b8 5A71     		strb	r2, [r3, #5]
2024:.\AdvantageImpl.c ****                 _g_dispenserlayoutinfo._hosesposition4 = 0x01;
 7981              		.loc 1 2024 0
 7982 02ba 154B     		ldr	r3, .L332
 7983 02bc 0122     		movs	r2, #1
 7984 02be 9A71     		strb	r2, [r3, #6]
2025:.\AdvantageImpl.c ****                 break;
 7985              		.loc 1 2025 0
 7986 02c0 42E0     		b	.L288
 7987              	.L299:
2026:.\AdvantageImpl.c ****             }
2027:.\AdvantageImpl.c ****             case 0x23://SHMPD 3+1 (4 grades, 2 hoses/side)
2028:.\AdvantageImpl.c ****             {
2029:.\AdvantageImpl.c ****                 _g_dispenserlayoutinfo._hosesposition1 = 0x02;
 7988              		.loc 1 2029 0
 7989 02c2 134B     		ldr	r3, .L332
 7990 02c4 0222     		movs	r2, #2
 7991 02c6 DA70     		strb	r2, [r3, #3]
2030:.\AdvantageImpl.c ****                 _g_dispenserlayoutinfo._hosesposition2 = 0x02;
 7992              		.loc 1 2030 0
 7993 02c8 114B     		ldr	r3, .L332
 7994 02ca 0222     		movs	r2, #2
 7995 02cc 1A71     		strb	r2, [r3, #4]
2031:.\AdvantageImpl.c ****                 _g_dispenserlayoutinfo._hosesposition3 = 0x02;
 7996              		.loc 1 2031 0
 7997 02ce 104B     		ldr	r3, .L332
 7998 02d0 0222     		movs	r2, #2
 7999 02d2 5A71     		strb	r2, [r3, #5]
2032:.\AdvantageImpl.c ****                 _g_dispenserlayoutinfo._hosesposition4 = 0x02;
 8000              		.loc 1 2032 0
 8001 02d4 0E4B     		ldr	r3, .L332
 8002 02d6 0222     		movs	r2, #2
 8003 02d8 9A71     		strb	r2, [r3, #6]
2033:.\AdvantageImpl.c ****                 break;
 8004              		.loc 1 2033 0
 8005 02da 35E0     		b	.L288
 8006              	.L300:
2034:.\AdvantageImpl.c ****             }
2035:.\AdvantageImpl.c ****             case 0x24://SHMPD 4+0 (4 grades, 1 hose/side)
2036:.\AdvantageImpl.c ****             {
2037:.\AdvantageImpl.c ****                 _g_dispenserlayoutinfo._hosesposition1 = 0x01;
 8007              		.loc 1 2037 0
ARM GAS  C:\Users\RECEPC~1\AppData\Local\Temp\ccZZcwiB.s 			page 178


 8008 02dc 0C4B     		ldr	r3, .L332
 8009 02de 0122     		movs	r2, #1
 8010 02e0 DA70     		strb	r2, [r3, #3]
2038:.\AdvantageImpl.c ****                 _g_dispenserlayoutinfo._hosesposition2 = 0x01;
 8011              		.loc 1 2038 0
 8012 02e2 0B4B     		ldr	r3, .L332
 8013 02e4 0122     		movs	r2, #1
 8014 02e6 1A71     		strb	r2, [r3, #4]
2039:.\AdvantageImpl.c ****                 _g_dispenserlayoutinfo._hosesposition3 = 0x01;
 8015              		.loc 1 2039 0
 8016 02e8 094B     		ldr	r3, .L332
 8017 02ea 0122     		movs	r2, #1
 8018 02ec 5A71     		strb	r2, [r3, #5]
2040:.\AdvantageImpl.c ****                 _g_dispenserlayoutinfo._hosesposition4 = 0x01;
 8019              		.loc 1 2040 0
 8020 02ee 084B     		ldr	r3, .L332
 8021 02f0 0122     		movs	r2, #1
 8022 02f2 9A71     		strb	r2, [r3, #6]
2041:.\AdvantageImpl.c ****                 break;
 8023              		.loc 1 2041 0
 8024 02f4 28E0     		b	.L288
 8025              	.L301:
2042:.\AdvantageImpl.c ****             }
2043:.\AdvantageImpl.c ****             case 0x25://SHMPD 4+1 (5 grades, 2 hoses/side)
2044:.\AdvantageImpl.c ****             {
2045:.\AdvantageImpl.c ****                 _g_dispenserlayoutinfo._hosesposition1 = 0x02;
 8026              		.loc 1 2045 0
 8027 02f6 064B     		ldr	r3, .L332
 8028 02f8 0222     		movs	r2, #2
 8029 02fa DA70     		strb	r2, [r3, #3]
2046:.\AdvantageImpl.c ****                 _g_dispenserlayoutinfo._hosesposition2 = 0x02;
 8030              		.loc 1 2046 0
 8031 02fc 044B     		ldr	r3, .L332
 8032 02fe 0222     		movs	r2, #2
 8033 0300 1A71     		strb	r2, [r3, #4]
2047:.\AdvantageImpl.c ****                 _g_dispenserlayoutinfo._hosesposition3 = 0x02;
 8034              		.loc 1 2047 0
 8035 0302 034B     		ldr	r3, .L332
 8036 0304 0222     		movs	r2, #2
 8037 0306 5A71     		strb	r2, [r3, #5]
2048:.\AdvantageImpl.c ****                 _g_dispenserlayoutinfo._hosesposition4 = 0x02;
 8038              		.loc 1 2048 0
 8039 0308 014B     		ldr	r3, .L332
 8040 030a 0222     		movs	r2, #2
 8041 030c 9A71     		strb	r2, [r3, #6]
2049:.\AdvantageImpl.c ****                 break;
 8042              		.loc 1 2049 0
 8043 030e 1BE0     		b	.L288
 8044              	.L333:
 8045              		.align	2
 8046              	.L332:
 8047 0310 00000000 		.word	_g_dispenserlayoutinfo
 8048              	.L302:
2050:.\AdvantageImpl.c ****             }
2051:.\AdvantageImpl.c ****             case 0x26://SHMPD 5+0 (5 grades, 1 hose/side)
2052:.\AdvantageImpl.c ****             {
2053:.\AdvantageImpl.c ****                 _g_dispenserlayoutinfo._hosesposition1 = 0x01;
ARM GAS  C:\Users\RECEPC~1\AppData\Local\Temp\ccZZcwiB.s 			page 179


 8049              		.loc 1 2053 0
 8050 0314 6B4B     		ldr	r3, .L334
 8051 0316 0122     		movs	r2, #1
 8052 0318 DA70     		strb	r2, [r3, #3]
2054:.\AdvantageImpl.c ****                 _g_dispenserlayoutinfo._hosesposition2 = 0x01;
 8053              		.loc 1 2054 0
 8054 031a 6A4B     		ldr	r3, .L334
 8055 031c 0122     		movs	r2, #1
 8056 031e 1A71     		strb	r2, [r3, #4]
2055:.\AdvantageImpl.c ****                 _g_dispenserlayoutinfo._hosesposition3 = 0x01;
 8057              		.loc 1 2055 0
 8058 0320 684B     		ldr	r3, .L334
 8059 0322 0122     		movs	r2, #1
 8060 0324 5A71     		strb	r2, [r3, #5]
2056:.\AdvantageImpl.c ****                 _g_dispenserlayoutinfo._hosesposition4 = 0x01;
 8061              		.loc 1 2056 0
 8062 0326 674B     		ldr	r3, .L334
 8063 0328 0122     		movs	r2, #1
 8064 032a 9A71     		strb	r2, [r3, #6]
2057:.\AdvantageImpl.c ****                 break;
 8065              		.loc 1 2057 0
 8066 032c 0CE0     		b	.L288
 8067              	.L303:
2058:.\AdvantageImpl.c ****             }
2059:.\AdvantageImpl.c ****             case 0x27://SHMPD 5+1 (6 grades, 2 hoses/side)
2060:.\AdvantageImpl.c ****             {
2061:.\AdvantageImpl.c ****                 _g_dispenserlayoutinfo._hosesposition1 = 0x02;
 8068              		.loc 1 2061 0
 8069 032e 654B     		ldr	r3, .L334
 8070 0330 0222     		movs	r2, #2
 8071 0332 DA70     		strb	r2, [r3, #3]
2062:.\AdvantageImpl.c ****                 _g_dispenserlayoutinfo._hosesposition2 = 0x02;
 8072              		.loc 1 2062 0
 8073 0334 634B     		ldr	r3, .L334
 8074 0336 0222     		movs	r2, #2
 8075 0338 1A71     		strb	r2, [r3, #4]
2063:.\AdvantageImpl.c ****                 _g_dispenserlayoutinfo._hosesposition3 = 0x02;
 8076              		.loc 1 2063 0
 8077 033a 624B     		ldr	r3, .L334
 8078 033c 0222     		movs	r2, #2
 8079 033e 5A71     		strb	r2, [r3, #5]
2064:.\AdvantageImpl.c ****                 _g_dispenserlayoutinfo._hosesposition4 = 0x02;
 8080              		.loc 1 2064 0
 8081 0340 604B     		ldr	r3, .L334
 8082 0342 0222     		movs	r2, #2
 8083 0344 9A71     		strb	r2, [r3, #6]
2065:.\AdvantageImpl.c ****                 break;
 8084              		.loc 1 2065 0
 8085 0346 00BF     		nop
 8086              	.L288:
2066:.\AdvantageImpl.c ****             }
2067:.\AdvantageImpl.c ****             //MISSING (NOT NEEDED) ...
2068:.\AdvantageImpl.c ****             //0x28 ~ 0x29
2069:.\AdvantageImpl.c ****             //0x3X Multi-Hose Blender
2070:.\AdvantageImpl.c ****             //0x4X Single-Hose Blender
2071:.\AdvantageImpl.c ****             //0x50 MH Hybrid Blender
2072:.\AdvantageImpl.c ****         }
ARM GAS  C:\Users\RECEPC~1\AppData\Local\Temp\ccZZcwiB.s 			page 180


2073:.\AdvantageImpl.c ****     }
2074:.\AdvantageImpl.c **** 
2075:.\AdvantageImpl.c **** 
2076:.\AdvantageImpl.c ****     //0x01 => U.S. Gallons
2077:.\AdvantageImpl.c ****     //0x02 => Imperial Gallons / UK Gallons
2078:.\AdvantageImpl.c ****     //0x03 => Liters
2079:.\AdvantageImpl.c ****     //0x04 => 1012 pulses/gallon (Hawaii, N/A for ECAL)
2080:.\AdvantageImpl.c ****     _g_dispenserlayoutinfo._volumeunit = ptrbuff[0x01];
 8087              		.loc 1 2080 0
 8088 0348 FB68     		ldr	r3, [r7, #12]
 8089 034a 5A78     		ldrb	r2, [r3, #1]	@ zero_extendqisi2
 8090 034c 5D4B     		ldr	r3, .L334
 8091 034e 9A72     		strb	r2, [r3, #10]
2081:.\AdvantageImpl.c ****     
2082:.\AdvantageImpl.c ****     
2083:.\AdvantageImpl.c ****     //Money Decimal Points
2084:.\AdvantageImpl.c ****     switch(ptrbuff[0x02])
 8092              		.loc 1 2084 0
 8093 0350 FB68     		ldr	r3, [r7, #12]
 8094 0352 0233     		adds	r3, r3, #2
 8095 0354 1B78     		ldrb	r3, [r3]	@ zero_extendqisi2
 8096 0356 013B     		subs	r3, r3, #1
 8097 0358 032B     		cmp	r3, #3
 8098 035a 1BD8     		bhi	.L304
 8099 035c 01A2     		adr	r2, .L306
 8100 035e 52F823F0 		ldr	pc, [r2, r3, lsl #2]
 8101 0362 00BF     		.p2align 2
 8102              	.L306:
 8103 0364 75030000 		.word	.L305+1
 8104 0368 7D030000 		.word	.L307+1
 8105 036c 85030000 		.word	.L308+1
 8106 0370 8D030000 		.word	.L309+1
 8107              		.p2align 1
 8108              	.L305:
2085:.\AdvantageImpl.c ****     {
2086:.\AdvantageImpl.c ****         case 0x01:
2087:.\AdvantageImpl.c ****         _g_dispenserlayoutinfo._moneydecimals = 0;
 8109              		.loc 1 2087 0
 8110 0374 534B     		ldr	r3, .L334
 8111 0376 0022     		movs	r2, #0
 8112 0378 DA71     		strb	r2, [r3, #7]
2088:.\AdvantageImpl.c ****         break;
 8113              		.loc 1 2088 0
 8114 037a 0BE0     		b	.L304
 8115              	.L307:
2089:.\AdvantageImpl.c ****         case 0x02:
2090:.\AdvantageImpl.c ****         _g_dispenserlayoutinfo._moneydecimals = 1;
 8116              		.loc 1 2090 0
 8117 037c 514B     		ldr	r3, .L334
 8118 037e 0122     		movs	r2, #1
 8119 0380 DA71     		strb	r2, [r3, #7]
2091:.\AdvantageImpl.c ****         break;
 8120              		.loc 1 2091 0
 8121 0382 07E0     		b	.L304
 8122              	.L308:
2092:.\AdvantageImpl.c ****         case 0x03:
2093:.\AdvantageImpl.c ****         _g_dispenserlayoutinfo._moneydecimals = 2;
ARM GAS  C:\Users\RECEPC~1\AppData\Local\Temp\ccZZcwiB.s 			page 181


 8123              		.loc 1 2093 0
 8124 0384 4F4B     		ldr	r3, .L334
 8125 0386 0222     		movs	r2, #2
 8126 0388 DA71     		strb	r2, [r3, #7]
2094:.\AdvantageImpl.c ****         break;
 8127              		.loc 1 2094 0
 8128 038a 03E0     		b	.L304
 8129              	.L309:
2095:.\AdvantageImpl.c ****         case 0x04:
2096:.\AdvantageImpl.c ****         _g_dispenserlayoutinfo._moneydecimals = 3;
 8130              		.loc 1 2096 0
 8131 038c 4D4B     		ldr	r3, .L334
 8132 038e 0322     		movs	r2, #3
 8133 0390 DA71     		strb	r2, [r3, #7]
2097:.\AdvantageImpl.c ****         break;
 8134              		.loc 1 2097 0
 8135 0392 00BF     		nop
 8136              	.L304:
2098:.\AdvantageImpl.c ****     }
2099:.\AdvantageImpl.c ****     
2100:.\AdvantageImpl.c ****     //Volume Decimal Points
2101:.\AdvantageImpl.c ****     switch(ptrbuff[0x03])
 8137              		.loc 1 2101 0
 8138 0394 FB68     		ldr	r3, [r7, #12]
 8139 0396 0333     		adds	r3, r3, #3
 8140 0398 1B78     		ldrb	r3, [r3]	@ zero_extendqisi2
 8141 039a 013B     		subs	r3, r3, #1
 8142 039c 102B     		cmp	r3, #16
 8143 039e 45D8     		bhi	.L310
 8144 03a0 01A2     		adr	r2, .L312
 8145 03a2 52F823F0 		ldr	pc, [r2, r3, lsl #2]
 8146 03a6 00BF     		.p2align 2
 8147              	.L312:
 8148 03a8 ED030000 		.word	.L311+1
 8149 03ac F5030000 		.word	.L313+1
 8150 03b0 FD030000 		.word	.L314+1
 8151 03b4 05040000 		.word	.L315+1
 8152 03b8 0D040000 		.word	.L316+1
 8153 03bc 15040000 		.word	.L317+1
 8154 03c0 1D040000 		.word	.L318+1
 8155 03c4 2D040000 		.word	.L310+1
 8156 03c8 2D040000 		.word	.L310+1
 8157 03cc 2D040000 		.word	.L310+1
 8158 03d0 2D040000 		.word	.L310+1
 8159 03d4 2D040000 		.word	.L310+1
 8160 03d8 2D040000 		.word	.L310+1
 8161 03dc 2D040000 		.word	.L310+1
 8162 03e0 2D040000 		.word	.L310+1
 8163 03e4 2D040000 		.word	.L310+1
 8164 03e8 25040000 		.word	.L319+1
 8165              		.p2align 1
 8166              	.L311:
2102:.\AdvantageImpl.c ****     {
2103:.\AdvantageImpl.c ****         case 0x01:
2104:.\AdvantageImpl.c ****         _g_dispenserlayoutinfo._volumedecimals = 3;
 8167              		.loc 1 2104 0
 8168 03ec 354B     		ldr	r3, .L334
ARM GAS  C:\Users\RECEPC~1\AppData\Local\Temp\ccZZcwiB.s 			page 182


 8169 03ee 0322     		movs	r2, #3
 8170 03f0 5A72     		strb	r2, [r3, #9]
2105:.\AdvantageImpl.c ****         break;
 8171              		.loc 1 2105 0
 8172 03f2 1BE0     		b	.L310
 8173              	.L313:
2106:.\AdvantageImpl.c ****         case 0x02:
2107:.\AdvantageImpl.c ****         _g_dispenserlayoutinfo._volumedecimals = 1;
 8174              		.loc 1 2107 0
 8175 03f4 334B     		ldr	r3, .L334
 8176 03f6 0122     		movs	r2, #1
 8177 03f8 5A72     		strb	r2, [r3, #9]
2108:.\AdvantageImpl.c ****         break;
 8178              		.loc 1 2108 0
 8179 03fa 17E0     		b	.L310
 8180              	.L314:
2109:.\AdvantageImpl.c ****         case 0x03:
2110:.\AdvantageImpl.c ****         _g_dispenserlayoutinfo._volumedecimals = 2;
 8181              		.loc 1 2110 0
 8182 03fc 314B     		ldr	r3, .L334
 8183 03fe 0222     		movs	r2, #2
 8184 0400 5A72     		strb	r2, [r3, #9]
2111:.\AdvantageImpl.c ****         break;
 8185              		.loc 1 2111 0
 8186 0402 13E0     		b	.L310
 8187              	.L315:
2112:.\AdvantageImpl.c ****         case 0x04:
2113:.\AdvantageImpl.c ****         _g_dispenserlayoutinfo._volumedecimals = 3;
 8188              		.loc 1 2113 0
 8189 0404 2F4B     		ldr	r3, .L334
 8190 0406 0322     		movs	r2, #3
 8191 0408 5A72     		strb	r2, [r3, #9]
2114:.\AdvantageImpl.c ****         break;
 8192              		.loc 1 2114 0
 8193 040a 0FE0     		b	.L310
 8194              	.L316:
2115:.\AdvantageImpl.c ****         case 0x05:
2116:.\AdvantageImpl.c ****         _g_dispenserlayoutinfo._volumedecimals = 4;
 8195              		.loc 1 2116 0
 8196 040c 2D4B     		ldr	r3, .L334
 8197 040e 0422     		movs	r2, #4
 8198 0410 5A72     		strb	r2, [r3, #9]
2117:.\AdvantageImpl.c ****         break;
 8199              		.loc 1 2117 0
 8200 0412 0BE0     		b	.L310
 8201              	.L317:
2118:.\AdvantageImpl.c ****         case 0x06:
2119:.\AdvantageImpl.c ****         _g_dispenserlayoutinfo._volumedecimals = 5;
 8202              		.loc 1 2119 0
 8203 0414 2B4B     		ldr	r3, .L334
 8204 0416 0522     		movs	r2, #5
 8205 0418 5A72     		strb	r2, [r3, #9]
2120:.\AdvantageImpl.c ****         break;
 8206              		.loc 1 2120 0
 8207 041a 07E0     		b	.L310
 8208              	.L318:
2121:.\AdvantageImpl.c ****         case 0x07:
ARM GAS  C:\Users\RECEPC~1\AppData\Local\Temp\ccZZcwiB.s 			page 183


2122:.\AdvantageImpl.c ****         _g_dispenserlayoutinfo._volumedecimals = 6;
 8209              		.loc 1 2122 0
 8210 041c 294B     		ldr	r3, .L334
 8211 041e 0622     		movs	r2, #6
 8212 0420 5A72     		strb	r2, [r3, #9]
2123:.\AdvantageImpl.c ****         break;
 8213              		.loc 1 2123 0
 8214 0422 03E0     		b	.L310
 8215              	.L319:
2124:.\AdvantageImpl.c ****         case 0x11:
2125:.\AdvantageImpl.c ****         _g_dispenserlayoutinfo._volumedecimals = 0;
 8216              		.loc 1 2125 0
 8217 0424 274B     		ldr	r3, .L334
 8218 0426 0022     		movs	r2, #0
 8219 0428 5A72     		strb	r2, [r3, #9]
2126:.\AdvantageImpl.c ****         break;
 8220              		.loc 1 2126 0
 8221 042a 00BF     		nop
 8222              	.L310:
2127:.\AdvantageImpl.c ****     }
2128:.\AdvantageImpl.c ****     
2129:.\AdvantageImpl.c ****     //PPU Decimal Points
2130:.\AdvantageImpl.c ****     switch(ptrbuff[0x04])
 8223              		.loc 1 2130 0
 8224 042c FB68     		ldr	r3, [r7, #12]
 8225 042e 0433     		adds	r3, r3, #4
 8226 0430 1B78     		ldrb	r3, [r3]	@ zero_extendqisi2
 8227 0432 013B     		subs	r3, r3, #1
 8228 0434 032B     		cmp	r3, #3
 8229 0436 1BD8     		bhi	.L320
 8230 0438 01A2     		adr	r2, .L322
 8231 043a 52F823F0 		ldr	pc, [r2, r3, lsl #2]
 8232 043e 00BF     		.p2align 2
 8233              	.L322:
 8234 0440 51040000 		.word	.L321+1
 8235 0444 59040000 		.word	.L323+1
 8236 0448 61040000 		.word	.L324+1
 8237 044c 69040000 		.word	.L325+1
 8238              		.p2align 1
 8239              	.L321:
2131:.\AdvantageImpl.c ****     {
2132:.\AdvantageImpl.c ****         case 0x01:
2133:.\AdvantageImpl.c ****         _g_dispenserlayoutinfo._ppudecimals = 0;
 8240              		.loc 1 2133 0
 8241 0450 1C4B     		ldr	r3, .L334
 8242 0452 0022     		movs	r2, #0
 8243 0454 1A72     		strb	r2, [r3, #8]
2134:.\AdvantageImpl.c ****         break;
 8244              		.loc 1 2134 0
 8245 0456 0BE0     		b	.L320
 8246              	.L323:
2135:.\AdvantageImpl.c ****         case 0x02:
2136:.\AdvantageImpl.c ****         _g_dispenserlayoutinfo._ppudecimals = 1;
 8247              		.loc 1 2136 0
 8248 0458 1A4B     		ldr	r3, .L334
 8249 045a 0122     		movs	r2, #1
 8250 045c 1A72     		strb	r2, [r3, #8]
ARM GAS  C:\Users\RECEPC~1\AppData\Local\Temp\ccZZcwiB.s 			page 184


2137:.\AdvantageImpl.c ****         break;
 8251              		.loc 1 2137 0
 8252 045e 07E0     		b	.L320
 8253              	.L324:
2138:.\AdvantageImpl.c ****         case 0x03:
2139:.\AdvantageImpl.c ****         _g_dispenserlayoutinfo._ppudecimals = 2;
 8254              		.loc 1 2139 0
 8255 0460 184B     		ldr	r3, .L334
 8256 0462 0222     		movs	r2, #2
 8257 0464 1A72     		strb	r2, [r3, #8]
2140:.\AdvantageImpl.c ****         break;
 8258              		.loc 1 2140 0
 8259 0466 03E0     		b	.L320
 8260              	.L325:
2141:.\AdvantageImpl.c ****         case 0x04:
2142:.\AdvantageImpl.c ****         _g_dispenserlayoutinfo._ppudecimals = 3;
 8261              		.loc 1 2142 0
 8262 0468 164B     		ldr	r3, .L334
 8263 046a 0322     		movs	r2, #3
 8264 046c 1A72     		strb	r2, [r3, #8]
2143:.\AdvantageImpl.c ****         break;
 8265              		.loc 1 2143 0
 8266 046e 00BF     		nop
 8267              	.L320:
2144:.\AdvantageImpl.c ****     }
2145:.\AdvantageImpl.c ****     
2146:.\AdvantageImpl.c ****     switch(ptrbuff[0x05])
 8268              		.loc 1 2146 0
 8269 0470 FB68     		ldr	r3, [r7, #12]
 8270 0472 0533     		adds	r3, r3, #5
 8271 0474 1B78     		ldrb	r3, [r3]	@ zero_extendqisi2
 8272 0476 032B     		cmp	r3, #3
 8273 0478 1AD8     		bhi	.L326
 8274 047a 01A2     		adr	r2, .L328
 8275 047c 52F823F0 		ldr	pc, [r2, r3, lsl #2]
 8276              		.p2align 2
 8277              	.L328:
 8278 0480 91040000 		.word	.L327+1
 8279 0484 99040000 		.word	.L329+1
 8280 0488 A1040000 		.word	.L330+1
 8281 048c A9040000 		.word	.L331+1
 8282              		.p2align 1
 8283              	.L327:
2147:.\AdvantageImpl.c ****     {
2148:.\AdvantageImpl.c ****         case 0x00:
2149:.\AdvantageImpl.c ****             _g_dispenserlayoutinfo._displaydigitsmode = 0x05; //5 money digits
 8284              		.loc 1 2149 0
 8285 0490 0C4B     		ldr	r3, .L334
 8286 0492 0522     		movs	r2, #5
 8287 0494 1A74     		strb	r2, [r3, #16]
2150:.\AdvantageImpl.c ****             break;
 8288              		.loc 1 2150 0
 8289 0496 0BE0     		b	.L326
 8290              	.L329:
2151:.\AdvantageImpl.c ****         case 0x01:
2152:.\AdvantageImpl.c ****             _g_dispenserlayoutinfo._displaydigitsmode = 0x06; //6 money digits
 8291              		.loc 1 2152 0
ARM GAS  C:\Users\RECEPC~1\AppData\Local\Temp\ccZZcwiB.s 			page 185


 8292 0498 0A4B     		ldr	r3, .L334
 8293 049a 0622     		movs	r2, #6
 8294 049c 1A74     		strb	r2, [r3, #16]
2153:.\AdvantageImpl.c ****             break;
 8295              		.loc 1 2153 0
 8296 049e 07E0     		b	.L326
 8297              	.L330:
2154:.\AdvantageImpl.c ****         case 0x02:
2155:.\AdvantageImpl.c ****             _g_dispenserlayoutinfo._displaydigitsmode = 0x07; //7 money digits
 8298              		.loc 1 2155 0
 8299 04a0 084B     		ldr	r3, .L334
 8300 04a2 0722     		movs	r2, #7
 8301 04a4 1A74     		strb	r2, [r3, #16]
2156:.\AdvantageImpl.c ****             break;
 8302              		.loc 1 2156 0
 8303 04a6 03E0     		b	.L326
 8304              	.L331:
2157:.\AdvantageImpl.c ****         case 0x03:
2158:.\AdvantageImpl.c ****             _g_dispenserlayoutinfo._displaydigitsmode = 0x08; //8 money digits
 8305              		.loc 1 2158 0
 8306 04a8 064B     		ldr	r3, .L334
 8307 04aa 0822     		movs	r2, #8
 8308 04ac 1A74     		strb	r2, [r3, #16]
2159:.\AdvantageImpl.c ****             break;
 8309              		.loc 1 2159 0
 8310 04ae 00BF     		nop
 8311              	.L326:
2160:.\AdvantageImpl.c ****     }
2161:.\AdvantageImpl.c ****     
2162:.\AdvantageImpl.c ****     //_g_dispenserlayoutinfo._pointcommadecimalmode = _POINT_AS_DECIMAL_SEPARATOR_;
2163:.\AdvantageImpl.c ****     _g_dispenserlayoutinfo._pointcommadecimalmode = _COMMA_AS_DECIMAL_SEPARATOR_;
 8312              		.loc 1 2163 0
 8313 04b0 044A     		ldr	r2, .L334
 8314 04b2 D37C     		ldrb	r3, [r2, #19]
 8315 04b4 43F00103 		orr	r3, r3, #1
 8316 04b8 D374     		strb	r3, [r2, #19]
2164:.\AdvantageImpl.c **** }
 8317              		.loc 1 2164 0
 8318 04ba 1437     		adds	r7, r7, #20
 8319              		.cfi_def_cfa_offset 4
 8320 04bc BD46     		mov	sp, r7
 8321              		.cfi_def_cfa_register 13
 8322              		@ sp needed
 8323 04be 5DF8047B 		ldr	r7, [sp], #4
 8324              		.cfi_restore 7
 8325              		.cfi_def_cfa_offset 0
 8326 04c2 7047     		bx	lr
 8327              	.L335:
 8328              		.align	2
 8329              	.L334:
 8330 04c4 00000000 		.word	_g_dispenserlayoutinfo
 8331              		.cfi_endproc
 8332              	.LFE92:
 8333              		.size	AcquireDispenserLayoutInformation, .-AcquireDispenserLayoutInformation
 8334              		.section	.text.AcquirePumpSpecialFunctionResponseResolver,"ax",%progbits
 8335              		.align	2
 8336              		.global	AcquirePumpSpecialFunctionResponseResolver
ARM GAS  C:\Users\RECEPC~1\AppData\Local\Temp\ccZZcwiB.s 			page 186


 8337              		.thumb
 8338              		.thumb_func
 8339              		.type	AcquirePumpSpecialFunctionResponseResolver, %function
 8340              	AcquirePumpSpecialFunctionResponseResolver:
 8341              	.LFB93:
2165:.\AdvantageImpl.c **** 
2166:.\AdvantageImpl.c **** //@Created By: HIJH
2167:.\AdvantageImpl.c **** //@Date: Septembre de 2016
2168:.\AdvantageImpl.c **** //Resolves the completeness for the arriving data after the SFs invocation
2169:.\AdvantageImpl.c **** bool AcquirePumpSpecialFunctionResponseResolver(void *pparam, void *pbuffer, uint16 buffersize)
2170:.\AdvantageImpl.c **** {
 8342              		.loc 1 2170 0
 8343              		.cfi_startproc
 8344              		@ args = 0, pretend = 0, frame = 32
 8345              		@ frame_needed = 1, uses_anonymous_args = 0
 8346 0000 90B5     		push	{r4, r7, lr}
 8347              		.cfi_def_cfa_offset 12
 8348              		.cfi_offset 4, -12
 8349              		.cfi_offset 7, -8
 8350              		.cfi_offset 14, -4
 8351 0002 89B0     		sub	sp, sp, #36
 8352              		.cfi_def_cfa_offset 48
 8353 0004 00AF     		add	r7, sp, #0
 8354              		.cfi_def_cfa_register 7
 8355 0006 F860     		str	r0, [r7, #12]
 8356 0008 B960     		str	r1, [r7, #8]
 8357 000a 1346     		mov	r3, r2
 8358 000c FB80     		strh	r3, [r7, #6]	@ movhi
2171:.\AdvantageImpl.c ****     bool retval = false;
 8359              		.loc 1 2171 0
 8360 000e 0023     		movs	r3, #0
 8361 0010 FB77     		strb	r3, [r7, #31]
2172:.\AdvantageImpl.c ****     static uint8 index = 0;
2173:.\AdvantageImpl.c ****     PNEAR_PUMPPTR ppump = (PNEAR_PUMPPTR)pparam;
 8362              		.loc 1 2173 0
 8363 0012 FB68     		ldr	r3, [r7, #12]
 8364 0014 BB61     		str	r3, [r7, #24]
2174:.\AdvantageImpl.c ****     //Since after the third byte we can start inquiry for the message length in words (this is acco
2175:.\AdvantageImpl.c ****     //that is  the reason for the number "3"
2176:.\AdvantageImpl.c ****     if((PSTRCAST(pbuffer)[0 + 45*index] == 0xBA) && buffersize >= 3)
 8365              		.loc 1 2176 0
 8366 0016 434B     		ldr	r3, .L340
 8367 0018 1B78     		ldrb	r3, [r3]	@ zero_extendqisi2
 8368 001a 1A46     		mov	r2, r3
 8369 001c 1346     		mov	r3, r2
 8370 001e 5B00     		lsls	r3, r3, #1
 8371 0020 1344     		add	r3, r3, r2
 8372 0022 1A01     		lsls	r2, r3, #4
 8373 0024 D31A     		subs	r3, r2, r3
 8374 0026 1A46     		mov	r2, r3
 8375 0028 BB68     		ldr	r3, [r7, #8]
 8376 002a 1344     		add	r3, r3, r2
 8377 002c 1B78     		ldrb	r3, [r3]	@ zero_extendqisi2
 8378 002e BA2B     		cmp	r3, #186
 8379 0030 73D1     		bne	.L337
 8380              		.loc 1 2176 0 is_stmt 0 discriminator 1
 8381 0032 FB88     		ldrh	r3, [r7, #6]
ARM GAS  C:\Users\RECEPC~1\AppData\Local\Temp\ccZZcwiB.s 			page 187


 8382 0034 022B     		cmp	r3, #2
 8383 0036 70D9     		bls	.L337
 8384              	.LBB57:
2177:.\AdvantageImpl.c ****     {
2178:.\AdvantageImpl.c ****         //char8 buff[24];
2179:.\AdvantageImpl.c ****         //memcpy(buff, PSTRCAST(pbuffer), buffersize);
2180:.\AdvantageImpl.c ****         uint8 msglength = (TranslateSpecialFuncionDigit(PSTRCAST(pbuffer)[1 + 45*index]) << 0x04) |
 8385              		.loc 1 2180 0 is_stmt 1
 8386 0038 3A4B     		ldr	r3, .L340
 8387 003a 1B78     		ldrb	r3, [r3]	@ zero_extendqisi2
 8388 003c 1A46     		mov	r2, r3
 8389 003e 1346     		mov	r3, r2
 8390 0040 5B00     		lsls	r3, r3, #1
 8391 0042 1344     		add	r3, r3, r2
 8392 0044 1A01     		lsls	r2, r3, #4
 8393 0046 D31A     		subs	r3, r2, r3
 8394 0048 0133     		adds	r3, r3, #1
 8395 004a 1A46     		mov	r2, r3
 8396 004c BB68     		ldr	r3, [r7, #8]
 8397 004e 1344     		add	r3, r3, r2
 8398 0050 1B78     		ldrb	r3, [r3]	@ zero_extendqisi2
 8399 0052 1846     		mov	r0, r3
 8400 0054 FFF7FEFF 		bl	TranslateSpecialFuncionDigit
 8401 0058 0346     		mov	r3, r0
 8402 005a 1B01     		lsls	r3, r3, #4
 8403 005c DCB2     		uxtb	r4, r3
 8404 005e 314B     		ldr	r3, .L340
 8405 0060 1B78     		ldrb	r3, [r3]	@ zero_extendqisi2
 8406 0062 1A46     		mov	r2, r3
 8407 0064 1346     		mov	r3, r2
 8408 0066 5B00     		lsls	r3, r3, #1
 8409 0068 1344     		add	r3, r3, r2
 8410 006a 1A01     		lsls	r2, r3, #4
 8411 006c D31A     		subs	r3, r2, r3
 8412 006e 0233     		adds	r3, r3, #2
 8413 0070 1A46     		mov	r2, r3
 8414 0072 BB68     		ldr	r3, [r7, #8]
 8415 0074 1344     		add	r3, r3, r2
 8416 0076 1B78     		ldrb	r3, [r3]	@ zero_extendqisi2
 8417 0078 1846     		mov	r0, r3
 8418 007a FFF7FEFF 		bl	TranslateSpecialFuncionDigit
 8419 007e 0346     		mov	r3, r0
 8420 0080 DBB2     		uxtb	r3, r3
 8421 0082 2246     		mov	r2, r4
 8422 0084 1343     		orrs	r3, r3, r2
 8423 0086 DBB2     		uxtb	r3, r3
 8424 0088 FB75     		strb	r3, [r7, #23]
2181:.\AdvantageImpl.c ****         //plus 13 since there are some fixed bytes in the frame that sum that value
2182:.\AdvantageImpl.c ****         //msglength must be multiplied by 2 since this length is in words instead
2183:.\AdvantageImpl.c ****         //If more than 1 block is coming then the first blocks come full which means that they carr
2184:.\AdvantageImpl.c ****         //the maximum frame size which is 45 bytes (13 fixed bytes + 32 bytes for the message)
2185:.\AdvantageImpl.c ****         if(buffersize >= ((2*msglength + 13) + 45*index))
 8425              		.loc 1 2185 0
 8426 008a FA88     		ldrh	r2, [r7, #6]
 8427 008c FB7D     		ldrb	r3, [r7, #23]	@ zero_extendqisi2
 8428 008e 5B00     		lsls	r3, r3, #1
 8429 0090 03F10D01 		add	r1, r3, #13
ARM GAS  C:\Users\RECEPC~1\AppData\Local\Temp\ccZZcwiB.s 			page 188


 8430 0094 234B     		ldr	r3, .L340
 8431 0096 1B78     		ldrb	r3, [r3]	@ zero_extendqisi2
 8432 0098 1846     		mov	r0, r3
 8433 009a 0346     		mov	r3, r0
 8434 009c 5B00     		lsls	r3, r3, #1
 8435 009e 0344     		add	r3, r3, r0
 8436 00a0 1801     		lsls	r0, r3, #4
 8437 00a2 C31A     		subs	r3, r0, r3
 8438 00a4 0B44     		add	r3, r3, r1
 8439 00a6 9A42     		cmp	r2, r3
 8440 00a8 37DB     		blt	.L337
 8441              	.LBB58:
2186:.\AdvantageImpl.c ****         {
2187:.\AdvantageImpl.c ****             uint8 remblocks = (TranslateSpecialFuncionDigit(PSTRCAST(pbuffer)[7 + 45*index]) << 0x0
 8442              		.loc 1 2187 0
 8443 00aa 1E4B     		ldr	r3, .L340
 8444 00ac 1B78     		ldrb	r3, [r3]	@ zero_extendqisi2
 8445 00ae 1A46     		mov	r2, r3
 8446 00b0 1346     		mov	r3, r2
 8447 00b2 5B00     		lsls	r3, r3, #1
 8448 00b4 1344     		add	r3, r3, r2
 8449 00b6 1A01     		lsls	r2, r3, #4
 8450 00b8 D31A     		subs	r3, r2, r3
 8451 00ba 0733     		adds	r3, r3, #7
 8452 00bc 1A46     		mov	r2, r3
 8453 00be BB68     		ldr	r3, [r7, #8]
 8454 00c0 1344     		add	r3, r3, r2
 8455 00c2 1B78     		ldrb	r3, [r3]	@ zero_extendqisi2
 8456 00c4 1846     		mov	r0, r3
 8457 00c6 FFF7FEFF 		bl	TranslateSpecialFuncionDigit
 8458 00ca 0346     		mov	r3, r0
 8459 00cc 1B01     		lsls	r3, r3, #4
 8460 00ce DCB2     		uxtb	r4, r3
 8461 00d0 144B     		ldr	r3, .L340
 8462 00d2 1B78     		ldrb	r3, [r3]	@ zero_extendqisi2
 8463 00d4 1A46     		mov	r2, r3
 8464 00d6 1346     		mov	r3, r2
 8465 00d8 5B00     		lsls	r3, r3, #1
 8466 00da 1344     		add	r3, r3, r2
 8467 00dc 1A01     		lsls	r2, r3, #4
 8468 00de D31A     		subs	r3, r2, r3
 8469 00e0 0833     		adds	r3, r3, #8
 8470 00e2 1A46     		mov	r2, r3
 8471 00e4 BB68     		ldr	r3, [r7, #8]
 8472 00e6 1344     		add	r3, r3, r2
 8473 00e8 1B78     		ldrb	r3, [r3]	@ zero_extendqisi2
 8474 00ea 1846     		mov	r0, r3
 8475 00ec FFF7FEFF 		bl	TranslateSpecialFuncionDigit
 8476 00f0 0346     		mov	r3, r0
 8477 00f2 DBB2     		uxtb	r3, r3
 8478 00f4 2246     		mov	r2, r4
 8479 00f6 1343     		orrs	r3, r3, r2
 8480 00f8 DBB2     		uxtb	r3, r3
 8481 00fa BB75     		strb	r3, [r7, #22]
2188:.\AdvantageImpl.c ****             if(remblocks == 0)
 8482              		.loc 1 2188 0
 8483 00fc BB7D     		ldrb	r3, [r7, #22]	@ zero_extendqisi2
ARM GAS  C:\Users\RECEPC~1\AppData\Local\Temp\ccZZcwiB.s 			page 189


 8484 00fe 002B     		cmp	r3, #0
 8485 0100 05D1     		bne	.L338
2189:.\AdvantageImpl.c ****             {
2190:.\AdvantageImpl.c ****                 index = 0;
 8486              		.loc 1 2190 0
 8487 0102 084B     		ldr	r3, .L340
 8488 0104 0022     		movs	r2, #0
 8489 0106 1A70     		strb	r2, [r3]
2191:.\AdvantageImpl.c ****                 retval = true;
 8490              		.loc 1 2191 0
 8491 0108 0123     		movs	r3, #1
 8492 010a FB77     		strb	r3, [r7, #31]
 8493 010c 05E0     		b	.L337
 8494              	.L338:
2192:.\AdvantageImpl.c ****             }else{
2193:.\AdvantageImpl.c ****                 index++;
 8495              		.loc 1 2193 0
 8496 010e 054B     		ldr	r3, .L340
 8497 0110 1B78     		ldrb	r3, [r3]	@ zero_extendqisi2
 8498 0112 0133     		adds	r3, r3, #1
 8499 0114 DAB2     		uxtb	r2, r3
 8500 0116 034B     		ldr	r3, .L340
 8501 0118 1A70     		strb	r2, [r3]
 8502              	.L337:
 8503              	.LBE58:
 8504              	.LBE57:
2194:.\AdvantageImpl.c ****             }
2195:.\AdvantageImpl.c ****         }
2196:.\AdvantageImpl.c ****     }
2197:.\AdvantageImpl.c ****     return retval;
 8505              		.loc 1 2197 0
 8506 011a FB7F     		ldrb	r3, [r7, #31]	@ zero_extendqisi2
2198:.\AdvantageImpl.c **** }
 8507              		.loc 1 2198 0
 8508 011c 1846     		mov	r0, r3
 8509 011e 2437     		adds	r7, r7, #36
 8510              		.cfi_def_cfa_offset 12
 8511 0120 BD46     		mov	sp, r7
 8512              		.cfi_def_cfa_register 13
 8513              		@ sp needed
 8514 0122 90BD     		pop	{r4, r7, pc}
 8515              	.L341:
 8516              		.align	2
 8517              	.L340:
 8518 0124 00000000 		.word	index.9600
 8519              		.cfi_endproc
 8520              	.LFE93:
 8521              		.size	AcquirePumpSpecialFunctionResponseResolver, .-AcquirePumpSpecialFunctionResponseResolver
 8522              		.section	.text.PumpEnumeratorRequest,"ax",%progbits
 8523              		.align	2
 8524              		.global	PumpEnumeratorRequest
 8525              		.thumb
 8526              		.thumb_func
 8527              		.type	PumpEnumeratorRequest, %function
 8528              	PumpEnumeratorRequest:
 8529              	.LFB94:
2199:.\AdvantageImpl.c **** 
ARM GAS  C:\Users\RECEPC~1\AppData\Local\Temp\ccZZcwiB.s 			page 190


2200:.\AdvantageImpl.c **** //@Created By: HIJH
2201:.\AdvantageImpl.c **** //@Septembre de 2016
2202:.\AdvantageImpl.c **** void PumpEnumeratorRequest(LPVOID pparam)
2203:.\AdvantageImpl.c **** {
 8530              		.loc 1 2203 0
 8531              		.cfi_startproc
 8532              		@ args = 0, pretend = 0, frame = 24
 8533              		@ frame_needed = 1, uses_anonymous_args = 0
 8534 0000 80B5     		push	{r7, lr}
 8535              		.cfi_def_cfa_offset 8
 8536              		.cfi_offset 7, -8
 8537              		.cfi_offset 14, -4
 8538 0002 86B0     		sub	sp, sp, #24
 8539              		.cfi_def_cfa_offset 32
 8540 0004 00AF     		add	r7, sp, #0
 8541              		.cfi_def_cfa_register 7
 8542 0006 7860     		str	r0, [r7, #4]
2204:.\AdvantageImpl.c ****     PNEAR_PUMPPTR ppump = (PNEAR_PUMPPTR)pparam;
 8543              		.loc 1 2204 0
 8544 0008 7B68     		ldr	r3, [r7, #4]
 8545 000a 7B61     		str	r3, [r7, #20]
2205:.\AdvantageImpl.c ****     if(ppump)
 8546              		.loc 1 2205 0
 8547 000c 7B69     		ldr	r3, [r7, #20]
 8548 000e 002B     		cmp	r3, #0
 8549 0010 23D0     		beq	.L342
 8550              	.LBB59:
2206:.\AdvantageImpl.c ****     {
2207:.\AdvantageImpl.c ****         uint8_t index = 0;
 8551              		.loc 1 2207 0
 8552 0012 0023     		movs	r3, #0
 8553 0014 FB74     		strb	r3, [r7, #19]
2208:.\AdvantageImpl.c ****         memset(ppump->_rxbuffer, 0x00, _PUMP_RX_BUFFER_SIZE_);
 8554              		.loc 1 2208 0
 8555 0016 7B69     		ldr	r3, [r7, #20]
 8556 0018 03F5D073 		add	r3, r3, #416
 8557 001c 1846     		mov	r0, r3
 8558 001e 0021     		movs	r1, #0
 8559 0020 4FF4C072 		mov	r2, #384
 8560 0024 FFF7FEFF 		bl	memset
2209:.\AdvantageImpl.c ****         PUARTMESSAGEPTR puartdisp = GetUARTMessageSlot(UART_DISPENSER);
 8561              		.loc 1 2209 0
 8562 0028 A220     		movs	r0, #162
 8563 002a FFF7FEFF 		bl	GetUARTMessageSlot
 8564 002e F860     		str	r0, [r7, #12]
2210:.\AdvantageImpl.c ****         if(puartdisp)
 8565              		.loc 1 2210 0
 8566 0030 FB68     		ldr	r3, [r7, #12]
 8567 0032 002B     		cmp	r3, #0
 8568 0034 11D0     		beq	.L342
2211:.\AdvantageImpl.c ****         {
2212:.\AdvantageImpl.c ****             puartdisp->_messagetx[index++] = PUMP_COMMAND(PUMP_STATE_REQUEST, ppump->_pumpid);
 8569              		.loc 1 2212 0
 8570 0036 FB7C     		ldrb	r3, [r7, #19]	@ zero_extendqisi2
 8571 0038 5A1C     		adds	r2, r3, #1
 8572 003a FA74     		strb	r2, [r7, #19]
 8573 003c 1946     		mov	r1, r3
ARM GAS  C:\Users\RECEPC~1\AppData\Local\Temp\ccZZcwiB.s 			page 191


 8574 003e 7B69     		ldr	r3, [r7, #20]
 8575 0040 1B78     		ldrb	r3, [r3]	@ zero_extendqisi2
 8576 0042 03F00F03 		and	r3, r3, #15
 8577 0046 DAB2     		uxtb	r2, r3
 8578 0048 FB68     		ldr	r3, [r7, #12]
 8579 004a 0B44     		add	r3, r3, r1
 8580 004c 1A71     		strb	r2, [r3, #4]
2213:.\AdvantageImpl.c ****             puartdisp->_messagelength = 1;//One byte
 8581              		.loc 1 2213 0
 8582 004e FB68     		ldr	r3, [r7, #12]
 8583 0050 0122     		movs	r2, #1
 8584 0052 5A80     		strh	r2, [r3, #2]	@ movhi
2214:.\AdvantageImpl.c ****             puartdisp->_messagestate = PENDING;
 8585              		.loc 1 2214 0
 8586 0054 FB68     		ldr	r3, [r7, #12]
 8587 0056 C222     		movs	r2, #194
 8588 0058 1A70     		strb	r2, [r3]
 8589              	.L342:
 8590              	.LBE59:
2215:.\AdvantageImpl.c ****         }
2216:.\AdvantageImpl.c ****     }
2217:.\AdvantageImpl.c **** }
 8591              		.loc 1 2217 0
 8592 005a 1837     		adds	r7, r7, #24
 8593              		.cfi_def_cfa_offset 8
 8594 005c BD46     		mov	sp, r7
 8595              		.cfi_def_cfa_register 13
 8596              		@ sp needed
 8597 005e 80BD     		pop	{r7, pc}
 8598              		.cfi_endproc
 8599              	.LFE94:
 8600              		.size	PumpEnumeratorRequest, .-PumpEnumeratorRequest
 8601              		.section	.text.AcquirePumpEnumeratorResponse,"ax",%progbits
 8602              		.align	2
 8603              		.global	AcquirePumpEnumeratorResponse
 8604              		.thumb
 8605              		.thumb_func
 8606              		.type	AcquirePumpEnumeratorResponse, %function
 8607              	AcquirePumpEnumeratorResponse:
 8608              	.LFB95:
2218:.\AdvantageImpl.c **** 
2219:.\AdvantageImpl.c **** //@Created By: HIJH
2220:.\AdvantageImpl.c **** //@Septembre de 2016
2221:.\AdvantageImpl.c **** void AcquirePumpEnumeratorResponse(LPVOID pparam)
2222:.\AdvantageImpl.c **** {
 8609              		.loc 1 2222 0
 8610              		.cfi_startproc
 8611              		@ args = 0, pretend = 0, frame = 24
 8612              		@ frame_needed = 1, uses_anonymous_args = 0
 8613 0000 80B5     		push	{r7, lr}
 8614              		.cfi_def_cfa_offset 8
 8615              		.cfi_offset 7, -8
 8616              		.cfi_offset 14, -4
 8617 0002 86B0     		sub	sp, sp, #24
 8618              		.cfi_def_cfa_offset 32
 8619 0004 00AF     		add	r7, sp, #0
 8620              		.cfi_def_cfa_register 7
ARM GAS  C:\Users\RECEPC~1\AppData\Local\Temp\ccZZcwiB.s 			page 192


 8621 0006 7860     		str	r0, [r7, #4]
2223:.\AdvantageImpl.c ****     AcquirePumpStateResponse(pparam);
 8622              		.loc 1 2223 0
 8623 0008 7868     		ldr	r0, [r7, #4]
 8624 000a FFF7FEFF 		bl	AcquirePumpStateResponse
2224:.\AdvantageImpl.c ****     PPUMPTRANSACTIONJOBCONTEXTPTR pjob = (PPUMPTRANSACTIONJOBCONTEXTPTR)pparam;
 8625              		.loc 1 2224 0
 8626 000e 7B68     		ldr	r3, [r7, #4]
 8627 0010 7B61     		str	r3, [r7, #20]
2225:.\AdvantageImpl.c ****     if(pjob->_ppump->_datacontainer._var0 < 0xF)
 8628              		.loc 1 2225 0
 8629 0012 7B69     		ldr	r3, [r7, #20]
 8630 0014 DB69     		ldr	r3, [r3, #28]
 8631 0016 93F86039 		ldrb	r3, [r3, #2400]
 8632 001a DBB2     		uxtb	r3, r3
 8633 001c 0E2B     		cmp	r3, #14
 8634 001e 00F2FA80 		bhi	.L345
2226:.\AdvantageImpl.c ****     {
2227:.\AdvantageImpl.c ****         switch(pjob->_ppump->_datacontainer._var1)
 8635              		.loc 1 2227 0
 8636 0022 7B69     		ldr	r3, [r7, #20]
 8637 0024 DB69     		ldr	r3, [r3, #28]
 8638 0026 93F86139 		ldrb	r3, [r3, #2401]
 8639 002a DBB2     		uxtb	r3, r3
 8640 002c 032B     		cmp	r3, #3
 8641 002e 00F2C580 		bhi	.L346
 8642 0032 01A2     		adr	r2, .L348
 8643 0034 52F823F0 		ldr	pc, [r2, r3, lsl #2]
 8644              		.p2align 2
 8645              	.L348:
 8646 0038 49000000 		.word	.L347+1
 8647 003c B5000000 		.word	.L349+1
 8648 0040 21010000 		.word	.L350+1
 8649 0044 8D010000 		.word	.L351+1
 8650              		.p2align 1
 8651              	.L347:
 8652              	.LBB60:
2228:.\AdvantageImpl.c ****         {
2229:.\AdvantageImpl.c ****             case 0:
2230:.\AdvantageImpl.c ****             {
2231:.\AdvantageImpl.c ****                 
2232:.\AdvantageImpl.c ****                 ClearEepromBuffer();
 8653              		.loc 1 2232 0
 8654 0048 FFF7FEFF 		bl	ClearEepromBuffer
2233:.\AdvantageImpl.c ****                 //Cleanup of the pump identifier in order to start the enumeration procedure
2234:.\AdvantageImpl.c ****                 LoadEepromPage(EEPROM_DISPENSER_PUMP1_LAYOUT_PAGE);
 8655              		.loc 1 2234 0
 8656 004c 4FF40070 		mov	r0, #512
 8657 0050 FFF7FEFF 		bl	LoadEepromPage
2235:.\AdvantageImpl.c ****                 GetEepromBuffer()[0] = pjob->_ppump->_pumpid;
 8658              		.loc 1 2235 0
 8659 0054 FFF7FEFF 		bl	GetEepromBuffer
 8660 0058 0246     		mov	r2, r0
 8661 005a 7B69     		ldr	r3, [r7, #20]
 8662 005c DB69     		ldr	r3, [r3, #28]
 8663 005e 1B78     		ldrb	r3, [r3]	@ zero_extendqisi2
 8664 0060 1370     		strb	r3, [r2]
ARM GAS  C:\Users\RECEPC~1\AppData\Local\Temp\ccZZcwiB.s 			page 193


2236:.\AdvantageImpl.c ****                 StoreEepromPage(EEPROM_DISPENSER_PUMP1_LAYOUT_PAGE);
 8665              		.loc 1 2236 0
 8666 0062 4FF40070 		mov	r0, #512
 8667 0066 FFF7FEFF 		bl	StoreEepromPage
2237:.\AdvantageImpl.c **** 
2238:.\AdvantageImpl.c ****                 uint8 var0 = pjob->_ppump->_datacontainer._var0;
 8668              		.loc 1 2238 0
 8669 006a 7B69     		ldr	r3, [r7, #20]
 8670 006c DB69     		ldr	r3, [r3, #28]
 8671 006e 93F86039 		ldrb	r3, [r3, #2400]
 8672 0072 FB74     		strb	r3, [r7, #19]
2239:.\AdvantageImpl.c ****                 uint8 var1 = pjob->_ppump->_datacontainer._var1;
 8673              		.loc 1 2239 0
 8674 0074 7B69     		ldr	r3, [r7, #20]
 8675 0076 DB69     		ldr	r3, [r3, #28]
 8676 0078 93F86139 		ldrb	r3, [r3, #2401]
 8677 007c BB74     		strb	r3, [r7, #18]
2240:.\AdvantageImpl.c ****                 pjob->_ppump = &_g_pumps[var1 + 1];
 8678              		.loc 1 2240 0
 8679 007e BB7C     		ldrb	r3, [r7, #18]	@ zero_extendqisi2
 8680 0080 0133     		adds	r3, r3, #1
 8681 0082 4FF41C62 		mov	r2, #2496
 8682 0086 02FB03F3 		mul	r3, r2, r3
 8683 008a 694A     		ldr	r2, .L355
 8684 008c 1A44     		add	r2, r2, r3
 8685 008e 7B69     		ldr	r3, [r7, #20]
 8686 0090 DA61     		str	r2, [r3, #28]
2241:.\AdvantageImpl.c ****                 pjob->_ppump->_datacontainer._var1 = var1;
 8687              		.loc 1 2241 0
 8688 0092 7B69     		ldr	r3, [r7, #20]
 8689 0094 DB69     		ldr	r3, [r3, #28]
 8690 0096 BA7C     		ldrb	r2, [r7, #18]
 8691 0098 83F86129 		strb	r2, [r3, #2401]
2242:.\AdvantageImpl.c ****                 pjob->_ppump->_datacontainer._var0 = var0;
 8692              		.loc 1 2242 0
 8693 009c 7B69     		ldr	r3, [r7, #20]
 8694 009e DB69     		ldr	r3, [r3, #28]
 8695 00a0 FA7C     		ldrb	r2, [r7, #19]
 8696 00a2 83F86029 		strb	r2, [r3, #2400]
2243:.\AdvantageImpl.c ****                 _g_dispenserlayoutinfo._numpositions++;
 8697              		.loc 1 2243 0
 8698 00a6 634B     		ldr	r3, .L355+4
 8699 00a8 9B78     		ldrb	r3, [r3, #2]	@ zero_extendqisi2
 8700 00aa 0133     		adds	r3, r3, #1
 8701 00ac DAB2     		uxtb	r2, r3
 8702 00ae 614B     		ldr	r3, .L355+4
 8703 00b0 9A70     		strb	r2, [r3, #2]
2244:.\AdvantageImpl.c ****                 
2245:.\AdvantageImpl.c ****                 break;
 8704              		.loc 1 2245 0
 8705 00b2 83E0     		b	.L346
 8706              	.L349:
 8707              	.LBE60:
 8708              	.LBB61:
2246:.\AdvantageImpl.c ****             }
2247:.\AdvantageImpl.c ****             case 1:
2248:.\AdvantageImpl.c ****             {
ARM GAS  C:\Users\RECEPC~1\AppData\Local\Temp\ccZZcwiB.s 			page 194


2249:.\AdvantageImpl.c ****                 
2250:.\AdvantageImpl.c ****                 ClearEepromBuffer();
 8709              		.loc 1 2250 0
 8710 00b4 FFF7FEFF 		bl	ClearEepromBuffer
2251:.\AdvantageImpl.c ****                 //Cleanup of the pump identifier in order to start the enumeration procedure
2252:.\AdvantageImpl.c ****                 LoadEepromPage(EEPROM_DISPENSER_PUMP2_LAYOUT_PAGE);
 8711              		.loc 1 2252 0
 8712 00b8 4FF41070 		mov	r0, #576
 8713 00bc FFF7FEFF 		bl	LoadEepromPage
2253:.\AdvantageImpl.c ****                 GetEepromBuffer()[0] = pjob->_ppump->_pumpid;
 8714              		.loc 1 2253 0
 8715 00c0 FFF7FEFF 		bl	GetEepromBuffer
 8716 00c4 0246     		mov	r2, r0
 8717 00c6 7B69     		ldr	r3, [r7, #20]
 8718 00c8 DB69     		ldr	r3, [r3, #28]
 8719 00ca 1B78     		ldrb	r3, [r3]	@ zero_extendqisi2
 8720 00cc 1370     		strb	r3, [r2]
2254:.\AdvantageImpl.c ****                 StoreEepromPage(EEPROM_DISPENSER_PUMP2_LAYOUT_PAGE);
 8721              		.loc 1 2254 0
 8722 00ce 4FF41070 		mov	r0, #576
 8723 00d2 FFF7FEFF 		bl	StoreEepromPage
2255:.\AdvantageImpl.c ****                 
2256:.\AdvantageImpl.c ****                 uint8 var0 = pjob->_ppump->_datacontainer._var0;
 8724              		.loc 1 2256 0
 8725 00d6 7B69     		ldr	r3, [r7, #20]
 8726 00d8 DB69     		ldr	r3, [r3, #28]
 8727 00da 93F86039 		ldrb	r3, [r3, #2400]
 8728 00de 7B74     		strb	r3, [r7, #17]
2257:.\AdvantageImpl.c ****                 uint8 var1 = pjob->_ppump->_datacontainer._var1;
 8729              		.loc 1 2257 0
 8730 00e0 7B69     		ldr	r3, [r7, #20]
 8731 00e2 DB69     		ldr	r3, [r3, #28]
 8732 00e4 93F86139 		ldrb	r3, [r3, #2401]
 8733 00e8 3B74     		strb	r3, [r7, #16]
2258:.\AdvantageImpl.c ****                 pjob->_ppump = &_g_pumps[var1 + 1];
 8734              		.loc 1 2258 0
 8735 00ea 3B7C     		ldrb	r3, [r7, #16]	@ zero_extendqisi2
 8736 00ec 0133     		adds	r3, r3, #1
 8737 00ee 4FF41C62 		mov	r2, #2496
 8738 00f2 02FB03F3 		mul	r3, r2, r3
 8739 00f6 4E4A     		ldr	r2, .L355
 8740 00f8 1A44     		add	r2, r2, r3
 8741 00fa 7B69     		ldr	r3, [r7, #20]
 8742 00fc DA61     		str	r2, [r3, #28]
2259:.\AdvantageImpl.c ****                 pjob->_ppump->_datacontainer._var1 = var1;
 8743              		.loc 1 2259 0
 8744 00fe 7B69     		ldr	r3, [r7, #20]
 8745 0100 DB69     		ldr	r3, [r3, #28]
 8746 0102 3A7C     		ldrb	r2, [r7, #16]
 8747 0104 83F86129 		strb	r2, [r3, #2401]
2260:.\AdvantageImpl.c ****                 pjob->_ppump->_datacontainer._var0 = var0;
 8748              		.loc 1 2260 0
 8749 0108 7B69     		ldr	r3, [r7, #20]
 8750 010a DB69     		ldr	r3, [r3, #28]
 8751 010c 7A7C     		ldrb	r2, [r7, #17]
 8752 010e 83F86029 		strb	r2, [r3, #2400]
2261:.\AdvantageImpl.c ****                 _g_dispenserlayoutinfo._numpositions++;
ARM GAS  C:\Users\RECEPC~1\AppData\Local\Temp\ccZZcwiB.s 			page 195


 8753              		.loc 1 2261 0
 8754 0112 484B     		ldr	r3, .L355+4
 8755 0114 9B78     		ldrb	r3, [r3, #2]	@ zero_extendqisi2
 8756 0116 0133     		adds	r3, r3, #1
 8757 0118 DAB2     		uxtb	r2, r3
 8758 011a 464B     		ldr	r3, .L355+4
 8759 011c 9A70     		strb	r2, [r3, #2]
2262:.\AdvantageImpl.c ****                 
2263:.\AdvantageImpl.c ****                 break;
 8760              		.loc 1 2263 0
 8761 011e 4DE0     		b	.L346
 8762              	.L350:
 8763              	.LBE61:
 8764              	.LBB62:
2264:.\AdvantageImpl.c ****             }
2265:.\AdvantageImpl.c ****             case 2:
2266:.\AdvantageImpl.c ****             {
2267:.\AdvantageImpl.c ****                 
2268:.\AdvantageImpl.c ****                 ClearEepromBuffer();
 8765              		.loc 1 2268 0
 8766 0120 FFF7FEFF 		bl	ClearEepromBuffer
2269:.\AdvantageImpl.c ****                 //Cleanup of the pump identifier in order to start the enumeration procedure
2270:.\AdvantageImpl.c ****                 LoadEepromPage(EEPROM_DISPENSER_PUMP3_LAYOUT_PAGE);
 8767              		.loc 1 2270 0
 8768 0124 4FF42070 		mov	r0, #640
 8769 0128 FFF7FEFF 		bl	LoadEepromPage
2271:.\AdvantageImpl.c ****                 GetEepromBuffer()[0] = pjob->_ppump->_pumpid;
 8770              		.loc 1 2271 0
 8771 012c FFF7FEFF 		bl	GetEepromBuffer
 8772 0130 0246     		mov	r2, r0
 8773 0132 7B69     		ldr	r3, [r7, #20]
 8774 0134 DB69     		ldr	r3, [r3, #28]
 8775 0136 1B78     		ldrb	r3, [r3]	@ zero_extendqisi2
 8776 0138 1370     		strb	r3, [r2]
2272:.\AdvantageImpl.c ****                 StoreEepromPage(EEPROM_DISPENSER_PUMP3_LAYOUT_PAGE);
 8777              		.loc 1 2272 0
 8778 013a 4FF42070 		mov	r0, #640
 8779 013e FFF7FEFF 		bl	StoreEepromPage
2273:.\AdvantageImpl.c ****                 
2274:.\AdvantageImpl.c ****                 uint8 var0 = pjob->_ppump->_datacontainer._var0;
 8780              		.loc 1 2274 0
 8781 0142 7B69     		ldr	r3, [r7, #20]
 8782 0144 DB69     		ldr	r3, [r3, #28]
 8783 0146 93F86039 		ldrb	r3, [r3, #2400]
 8784 014a FB73     		strb	r3, [r7, #15]
2275:.\AdvantageImpl.c ****                 uint8 var1 = pjob->_ppump->_datacontainer._var1;
 8785              		.loc 1 2275 0
 8786 014c 7B69     		ldr	r3, [r7, #20]
 8787 014e DB69     		ldr	r3, [r3, #28]
 8788 0150 93F86139 		ldrb	r3, [r3, #2401]
 8789 0154 BB73     		strb	r3, [r7, #14]
2276:.\AdvantageImpl.c ****                 pjob->_ppump = &_g_pumps[var1 + 1];
 8790              		.loc 1 2276 0
 8791 0156 BB7B     		ldrb	r3, [r7, #14]	@ zero_extendqisi2
 8792 0158 0133     		adds	r3, r3, #1
 8793 015a 4FF41C62 		mov	r2, #2496
 8794 015e 02FB03F3 		mul	r3, r2, r3
ARM GAS  C:\Users\RECEPC~1\AppData\Local\Temp\ccZZcwiB.s 			page 196


 8795 0162 334A     		ldr	r2, .L355
 8796 0164 1A44     		add	r2, r2, r3
 8797 0166 7B69     		ldr	r3, [r7, #20]
 8798 0168 DA61     		str	r2, [r3, #28]
2277:.\AdvantageImpl.c ****                 pjob->_ppump->_datacontainer._var1 = var1;
 8799              		.loc 1 2277 0
 8800 016a 7B69     		ldr	r3, [r7, #20]
 8801 016c DB69     		ldr	r3, [r3, #28]
 8802 016e BA7B     		ldrb	r2, [r7, #14]
 8803 0170 83F86129 		strb	r2, [r3, #2401]
2278:.\AdvantageImpl.c ****                 pjob->_ppump->_datacontainer._var0 = var0;
 8804              		.loc 1 2278 0
 8805 0174 7B69     		ldr	r3, [r7, #20]
 8806 0176 DB69     		ldr	r3, [r3, #28]
 8807 0178 FA7B     		ldrb	r2, [r7, #15]
 8808 017a 83F86029 		strb	r2, [r3, #2400]
2279:.\AdvantageImpl.c ****                 _g_dispenserlayoutinfo._numpositions++;
 8809              		.loc 1 2279 0
 8810 017e 2D4B     		ldr	r3, .L355+4
 8811 0180 9B78     		ldrb	r3, [r3, #2]	@ zero_extendqisi2
 8812 0182 0133     		adds	r3, r3, #1
 8813 0184 DAB2     		uxtb	r2, r3
 8814 0186 2B4B     		ldr	r3, .L355+4
 8815 0188 9A70     		strb	r2, [r3, #2]
2280:.\AdvantageImpl.c ****                 
2281:.\AdvantageImpl.c ****                 break;
 8816              		.loc 1 2281 0
 8817 018a 17E0     		b	.L346
 8818              	.L351:
 8819              	.LBE62:
2282:.\AdvantageImpl.c ****             }
2283:.\AdvantageImpl.c ****             case 3:
2284:.\AdvantageImpl.c ****             {
2285:.\AdvantageImpl.c ****                 
2286:.\AdvantageImpl.c ****                 ClearEepromBuffer();
 8820              		.loc 1 2286 0
 8821 018c FFF7FEFF 		bl	ClearEepromBuffer
2287:.\AdvantageImpl.c ****                 //Cleanup of the pump identifier in order to start the enumeration procedure
2288:.\AdvantageImpl.c ****                 LoadEepromPage(EEPROM_DISPENSER_PUMP4_LAYOUT_PAGE);
 8822              		.loc 1 2288 0
 8823 0190 4FF43070 		mov	r0, #704
 8824 0194 FFF7FEFF 		bl	LoadEepromPage
2289:.\AdvantageImpl.c ****                 GetEepromBuffer()[0] = pjob->_ppump->_pumpid;                
 8825              		.loc 1 2289 0
 8826 0198 FFF7FEFF 		bl	GetEepromBuffer
 8827 019c 0246     		mov	r2, r0
 8828 019e 7B69     		ldr	r3, [r7, #20]
 8829 01a0 DB69     		ldr	r3, [r3, #28]
 8830 01a2 1B78     		ldrb	r3, [r3]	@ zero_extendqisi2
 8831 01a4 1370     		strb	r3, [r2]
2290:.\AdvantageImpl.c ****                 StoreEepromPage(EEPROM_DISPENSER_PUMP4_LAYOUT_PAGE);
 8832              		.loc 1 2290 0
 8833 01a6 4FF43070 		mov	r0, #704
 8834 01aa FFF7FEFF 		bl	StoreEepromPage
2291:.\AdvantageImpl.c ****                 _g_dispenserlayoutinfo._numpositions++;
 8835              		.loc 1 2291 0
 8836 01ae 214B     		ldr	r3, .L355+4
ARM GAS  C:\Users\RECEPC~1\AppData\Local\Temp\ccZZcwiB.s 			page 197


 8837 01b0 9B78     		ldrb	r3, [r3, #2]	@ zero_extendqisi2
 8838 01b2 0133     		adds	r3, r3, #1
 8839 01b4 DAB2     		uxtb	r2, r3
 8840 01b6 1F4B     		ldr	r3, .L355+4
 8841 01b8 9A70     		strb	r2, [r3, #2]
2292:.\AdvantageImpl.c ****                 
2293:.\AdvantageImpl.c ****                 break;
 8842              		.loc 1 2293 0
 8843 01ba 00BF     		nop
 8844              	.L346:
2294:.\AdvantageImpl.c ****             }
2295:.\AdvantageImpl.c ****         }
2296:.\AdvantageImpl.c ****         pjob->_ppump->_datacontainer._var1++;
 8845              		.loc 1 2296 0
 8846 01bc 7B69     		ldr	r3, [r7, #20]
 8847 01be DB69     		ldr	r3, [r3, #28]
 8848 01c0 93F86129 		ldrb	r2, [r3, #2401]
 8849 01c4 D2B2     		uxtb	r2, r2
 8850 01c6 0132     		adds	r2, r2, #1
 8851 01c8 D2B2     		uxtb	r2, r2
 8852 01ca 83F86129 		strb	r2, [r3, #2401]
2297:.\AdvantageImpl.c ****         if(pjob->_ppump->_datacontainer._var1 < _MAX_NUMBER_OF_PUMPS_)
 8853              		.loc 1 2297 0
 8854 01ce 7B69     		ldr	r3, [r7, #20]
 8855 01d0 DB69     		ldr	r3, [r3, #28]
 8856 01d2 93F86139 		ldrb	r3, [r3, #2401]
 8857 01d6 DBB2     		uxtb	r3, r3
 8858 01d8 032B     		cmp	r3, #3
 8859 01da 11D8     		bhi	.L352
2298:.\AdvantageImpl.c ****         {
2299:.\AdvantageImpl.c ****             pjob->_ppump->_datacontainer._var0++;
 8860              		.loc 1 2299 0
 8861 01dc 7B69     		ldr	r3, [r7, #20]
 8862 01de DB69     		ldr	r3, [r3, #28]
 8863 01e0 93F86029 		ldrb	r2, [r3, #2400]
 8864 01e4 D2B2     		uxtb	r2, r2
 8865 01e6 0132     		adds	r2, r2, #1
 8866 01e8 D2B2     		uxtb	r2, r2
 8867 01ea 83F86029 		strb	r2, [r3, #2400]
2300:.\AdvantageImpl.c ****             pjob->_ppump->_pumpid = pjob->_ppump->_datacontainer._var0;
 8868              		.loc 1 2300 0
 8869 01ee 7B69     		ldr	r3, [r7, #20]
 8870 01f0 DB69     		ldr	r3, [r3, #28]
 8871 01f2 7A69     		ldr	r2, [r7, #20]
 8872 01f4 D269     		ldr	r2, [r2, #28]
 8873 01f6 92F86029 		ldrb	r2, [r2, #2400]
 8874 01fa D2B2     		uxtb	r2, r2
 8875 01fc 1A70     		strb	r2, [r3]
 8876 01fe 14E0     		b	.L344
 8877              	.L352:
2301:.\AdvantageImpl.c ****         }else{//This is the end of the enumeration procedure
2302:.\AdvantageImpl.c ****             pjob->_reenqueue = false;
 8878              		.loc 1 2302 0
 8879 0200 7B69     		ldr	r3, [r7, #20]
 8880 0202 0022     		movs	r2, #0
 8881 0204 1A70     		strb	r2, [r3]
2303:.\AdvantageImpl.c ****             
ARM GAS  C:\Users\RECEPC~1\AppData\Local\Temp\ccZZcwiB.s 			page 198


2304:.\AdvantageImpl.c ****             //Chance for any extra initialization
2305:.\AdvantageImpl.c ****             if(_g_ptractprogramming == PNEAR_NULLPTR)
 8882              		.loc 1 2305 0
 8883 0206 0C4B     		ldr	r3, .L355+8
 8884 0208 1B68     		ldr	r3, [r3]
 8885 020a 002B     		cmp	r3, #0
 8886 020c 0DD1     		bne	.L344
2306:.\AdvantageImpl.c ****                 _g_ptractprogramming = AdvantageActivateProgramming;
 8887              		.loc 1 2306 0
 8888 020e 0A4B     		ldr	r3, .L355+8
 8889 0210 0A4A     		ldr	r2, .L355+12
 8890 0212 1A60     		str	r2, [r3]
 8891 0214 09E0     		b	.L344
 8892              	.L345:
2307:.\AdvantageImpl.c ****         }
2308:.\AdvantageImpl.c ****         
2309:.\AdvantageImpl.c ****     }else{//This is the end of the enumeration procedure
2310:.\AdvantageImpl.c ****         pjob->_reenqueue = false;
 8893              		.loc 1 2310 0
 8894 0216 7B69     		ldr	r3, [r7, #20]
 8895 0218 0022     		movs	r2, #0
 8896 021a 1A70     		strb	r2, [r3]
2311:.\AdvantageImpl.c ****         
2312:.\AdvantageImpl.c ****         //Chance for any extra initialization
2313:.\AdvantageImpl.c ****         if(_g_ptractprogramming == PNEAR_NULLPTR)
 8897              		.loc 1 2313 0
 8898 021c 064B     		ldr	r3, .L355+8
 8899 021e 1B68     		ldr	r3, [r3]
 8900 0220 002B     		cmp	r3, #0
 8901 0222 02D1     		bne	.L344
2314:.\AdvantageImpl.c ****             _g_ptractprogramming = AdvantageActivateProgramming;
 8902              		.loc 1 2314 0
 8903 0224 044B     		ldr	r3, .L355+8
 8904 0226 054A     		ldr	r2, .L355+12
 8905 0228 1A60     		str	r2, [r3]
 8906              	.L344:
2315:.\AdvantageImpl.c ****     }
2316:.\AdvantageImpl.c **** }
 8907              		.loc 1 2316 0
 8908 022a 1837     		adds	r7, r7, #24
 8909              		.cfi_def_cfa_offset 8
 8910 022c BD46     		mov	sp, r7
 8911              		.cfi_def_cfa_register 13
 8912              		@ sp needed
 8913 022e 80BD     		pop	{r7, pc}
 8914              	.L356:
 8915              		.align	2
 8916              	.L355:
 8917 0230 00000000 		.word	_g_pumps
 8918 0234 00000000 		.word	_g_dispenserlayoutinfo
 8919 0238 00000000 		.word	_g_ptractprogramming
 8920 023c 00000000 		.word	AdvantageActivateProgramming
 8921              		.cfi_endproc
 8922              	.LFE95:
 8923              		.size	AcquirePumpEnumeratorResponse, .-AcquirePumpEnumeratorResponse
 8924              		.section	.text.PumpEnumeratorTimeout,"ax",%progbits
 8925              		.align	2
ARM GAS  C:\Users\RECEPC~1\AppData\Local\Temp\ccZZcwiB.s 			page 199


 8926              		.global	PumpEnumeratorTimeout
 8927              		.thumb
 8928              		.thumb_func
 8929              		.type	PumpEnumeratorTimeout, %function
 8930              	PumpEnumeratorTimeout:
 8931              	.LFB96:
2317:.\AdvantageImpl.c **** 
2318:.\AdvantageImpl.c **** //@Created By: HIJH
2319:.\AdvantageImpl.c **** //@Septembre de 2016
2320:.\AdvantageImpl.c **** void PumpEnumeratorTimeout(void *pparam)
2321:.\AdvantageImpl.c **** {
 8932              		.loc 1 2321 0
 8933              		.cfi_startproc
 8934              		@ args = 0, pretend = 0, frame = 16
 8935              		@ frame_needed = 1, uses_anonymous_args = 0
 8936              		@ link register save eliminated.
 8937 0000 80B4     		push	{r7}
 8938              		.cfi_def_cfa_offset 4
 8939              		.cfi_offset 7, -4
 8940 0002 85B0     		sub	sp, sp, #20
 8941              		.cfi_def_cfa_offset 24
 8942 0004 00AF     		add	r7, sp, #0
 8943              		.cfi_def_cfa_register 7
 8944 0006 7860     		str	r0, [r7, #4]
2322:.\AdvantageImpl.c ****     PPUMPTRANSACTIONJOBCONTEXTPTR pjob = (PPUMPTRANSACTIONJOBCONTEXTPTR)pparam;
 8945              		.loc 1 2322 0
 8946 0008 7B68     		ldr	r3, [r7, #4]
 8947 000a FB60     		str	r3, [r7, #12]
2323:.\AdvantageImpl.c ****     //_var0 holds the iterator index that goes from 0x0:pump16 to 0xF:pump15
2324:.\AdvantageImpl.c ****     if(pjob->_ppump->_datacontainer._var0 < 0x10)
 8948              		.loc 1 2324 0
 8949 000c FB68     		ldr	r3, [r7, #12]
 8950 000e DB69     		ldr	r3, [r3, #28]
 8951 0010 93F86039 		ldrb	r3, [r3, #2400]
 8952 0014 DBB2     		uxtb	r3, r3
 8953 0016 0F2B     		cmp	r3, #15
 8954 0018 14D8     		bhi	.L358
2325:.\AdvantageImpl.c ****     {
2326:.\AdvantageImpl.c ****         pjob->_retriescounter = 0;
 8955              		.loc 1 2326 0
 8956 001a FB68     		ldr	r3, [r7, #12]
 8957 001c 0022     		movs	r2, #0
 8958 001e DA81     		strh	r2, [r3, #14]	@ movhi
2327:.\AdvantageImpl.c ****         pjob->_ppump->_datacontainer._var0++;
 8959              		.loc 1 2327 0
 8960 0020 FB68     		ldr	r3, [r7, #12]
 8961 0022 DB69     		ldr	r3, [r3, #28]
 8962 0024 93F86029 		ldrb	r2, [r3, #2400]
 8963 0028 D2B2     		uxtb	r2, r2
 8964 002a 0132     		adds	r2, r2, #1
 8965 002c D2B2     		uxtb	r2, r2
 8966 002e 83F86029 		strb	r2, [r3, #2400]
2328:.\AdvantageImpl.c ****         pjob->_ppump->_pumpid = pjob->_ppump->_datacontainer._var0;
 8967              		.loc 1 2328 0
 8968 0032 FB68     		ldr	r3, [r7, #12]
 8969 0034 DB69     		ldr	r3, [r3, #28]
 8970 0036 FA68     		ldr	r2, [r7, #12]
ARM GAS  C:\Users\RECEPC~1\AppData\Local\Temp\ccZZcwiB.s 			page 200


 8971 0038 D269     		ldr	r2, [r2, #28]
 8972 003a 92F86029 		ldrb	r2, [r2, #2400]
 8973 003e D2B2     		uxtb	r2, r2
 8974 0040 1A70     		strb	r2, [r3]
 8975 0042 09E0     		b	.L357
 8976              	.L358:
2329:.\AdvantageImpl.c ****     }else{
2330:.\AdvantageImpl.c ****         pjob->_reenqueue = false;
 8977              		.loc 1 2330 0
 8978 0044 FB68     		ldr	r3, [r7, #12]
 8979 0046 0022     		movs	r2, #0
 8980 0048 1A70     		strb	r2, [r3]
2331:.\AdvantageImpl.c ****         
2332:.\AdvantageImpl.c ****         if(_g_ptractprogramming == PNEAR_NULLPTR)
 8981              		.loc 1 2332 0
 8982 004a 064B     		ldr	r3, .L360
 8983 004c 1B68     		ldr	r3, [r3]
 8984 004e 002B     		cmp	r3, #0
 8985 0050 02D1     		bne	.L357
2333:.\AdvantageImpl.c ****             _g_ptractprogramming = AdvantageActivateProgramming;
 8986              		.loc 1 2333 0
 8987 0052 044B     		ldr	r3, .L360
 8988 0054 044A     		ldr	r2, .L360+4
 8989 0056 1A60     		str	r2, [r3]
 8990              	.L357:
2334:.\AdvantageImpl.c ****     }
2335:.\AdvantageImpl.c **** }
 8991              		.loc 1 2335 0
 8992 0058 1437     		adds	r7, r7, #20
 8993              		.cfi_def_cfa_offset 4
 8994 005a BD46     		mov	sp, r7
 8995              		.cfi_def_cfa_register 13
 8996              		@ sp needed
 8997 005c 5DF8047B 		ldr	r7, [sp], #4
 8998              		.cfi_restore 7
 8999              		.cfi_def_cfa_offset 0
 9000 0060 7047     		bx	lr
 9001              	.L361:
 9002 0062 00BF     		.align	2
 9003              	.L360:
 9004 0064 00000000 		.word	_g_ptractprogramming
 9005 0068 00000000 		.word	AdvantageActivateProgramming
 9006              		.cfi_endproc
 9007              	.LFE96:
 9008              		.size	PumpEnumeratorTimeout, .-PumpEnumeratorTimeout
 9009              		.section	.text.AcquirePumpTotalsResponseResolver,"ax",%progbits
 9010              		.align	2
 9011              		.global	AcquirePumpTotalsResponseResolver
 9012              		.thumb
 9013              		.thumb_func
 9014              		.type	AcquirePumpTotalsResponseResolver, %function
 9015              	AcquirePumpTotalsResponseResolver:
 9016              	.LFB97:
2336:.\AdvantageImpl.c **** 
2337:.\AdvantageImpl.c **** //@Created By: HIJH
2338:.\AdvantageImpl.c **** //@Septembre de 2016
2339:.\AdvantageImpl.c **** bool AcquirePumpTotalsResponseResolver(void *pparam, void *pbuffer, uint16 buffersize)
ARM GAS  C:\Users\RECEPC~1\AppData\Local\Temp\ccZZcwiB.s 			page 201


2340:.\AdvantageImpl.c **** {
 9017              		.loc 1 2340 0
 9018              		.cfi_startproc
 9019              		@ args = 0, pretend = 0, frame = 24
 9020              		@ frame_needed = 1, uses_anonymous_args = 0
 9021              		@ link register save eliminated.
 9022 0000 80B4     		push	{r7}
 9023              		.cfi_def_cfa_offset 4
 9024              		.cfi_offset 7, -4
 9025 0002 87B0     		sub	sp, sp, #28
 9026              		.cfi_def_cfa_offset 32
 9027 0004 00AF     		add	r7, sp, #0
 9028              		.cfi_def_cfa_register 7
 9029 0006 F860     		str	r0, [r7, #12]
 9030 0008 B960     		str	r1, [r7, #8]
 9031 000a 1346     		mov	r3, r2
 9032 000c FB80     		strh	r3, [r7, #6]	@ movhi
2341:.\AdvantageImpl.c ****     bool retval = false;
 9033              		.loc 1 2341 0
 9034 000e 0023     		movs	r3, #0
 9035 0010 FB75     		strb	r3, [r7, #23]
2342:.\AdvantageImpl.c ****     PNEAR_PUMPPTR ppump = (PNEAR_PUMPPTR)pparam;
 9036              		.loc 1 2342 0
 9037 0012 FB68     		ldr	r3, [r7, #12]
 9038 0014 3B61     		str	r3, [r7, #16]
2343:.\AdvantageImpl.c ****     
2344:.\AdvantageImpl.c ****     if(_g_dispenserlayoutinfo._displaydigitsmode == 0x06)
 9039              		.loc 1 2344 0
 9040 0016 504B     		ldr	r3, .L377
 9041 0018 1B7C     		ldrb	r3, [r3, #16]	@ zero_extendqisi2
 9042 001a 062B     		cmp	r3, #6
 9043 001c 4DD1     		bne	.L363
2345:.\AdvantageImpl.c ****     {            
2346:.\AdvantageImpl.c ****         switch(ppump->_pumpindex)
 9044              		.loc 1 2346 0
 9045 001e 3B69     		ldr	r3, [r7, #16]
 9046 0020 5B78     		ldrb	r3, [r3, #1]	@ zero_extendqisi2
 9047 0022 032B     		cmp	r3, #3
 9048 0024 00F29080 		bhi	.L370
 9049 0028 01A2     		adr	r2, .L366
 9050 002a 52F823F0 		ldr	pc, [r2, r3, lsl #2]
 9051 002e 00BF     		.p2align 2
 9052              	.L366:
 9053 0030 41000000 		.word	.L365+1
 9054 0034 5F000000 		.word	.L367+1
 9055 0038 7D000000 		.word	.L368+1
 9056 003c 9B000000 		.word	.L369+1
 9057              		.p2align 1
 9058              	.L365:
2347:.\AdvantageImpl.c ****         {
2348:.\AdvantageImpl.c ****             case 0x00:
2349:.\AdvantageImpl.c ****                 retval = (buffersize >= (_g_dispenserlayoutinfo._hosesposition1*_PUMP_TOTALS_BUFFER
 9059              		.loc 1 2349 0
 9060 0040 FA88     		ldrh	r2, [r7, #6]
 9061 0042 454B     		ldr	r3, .L377
 9062 0044 DB78     		ldrb	r3, [r3, #3]	@ zero_extendqisi2
 9063 0046 1946     		mov	r1, r3
ARM GAS  C:\Users\RECEPC~1\AppData\Local\Temp\ccZZcwiB.s 			page 202


 9064 0048 0B46     		mov	r3, r1
 9065 004a 1B01     		lsls	r3, r3, #4
 9066 004c 5B1A     		subs	r3, r3, r1
 9067 004e 5B00     		lsls	r3, r3, #1
 9068 0050 0433     		adds	r3, r3, #4
 9069 0052 9A42     		cmp	r2, r3
 9070 0054 ACBF     		ite	ge
 9071 0056 0123     		movge	r3, #1
 9072 0058 0023     		movlt	r3, #0
 9073 005a FB75     		strb	r3, [r7, #23]
2350:.\AdvantageImpl.c ****             break;
 9074              		.loc 1 2350 0
 9075 005c 2CE0     		b	.L364
 9076              	.L367:
2351:.\AdvantageImpl.c ****             case 0x01:
2352:.\AdvantageImpl.c ****                 retval = (buffersize >= (_g_dispenserlayoutinfo._hosesposition2*_PUMP_TOTALS_BUFFER
 9077              		.loc 1 2352 0
 9078 005e FA88     		ldrh	r2, [r7, #6]
 9079 0060 3D4B     		ldr	r3, .L377
 9080 0062 1B79     		ldrb	r3, [r3, #4]	@ zero_extendqisi2
 9081 0064 1946     		mov	r1, r3
 9082 0066 0B46     		mov	r3, r1
 9083 0068 1B01     		lsls	r3, r3, #4
 9084 006a 5B1A     		subs	r3, r3, r1
 9085 006c 5B00     		lsls	r3, r3, #1
 9086 006e 0433     		adds	r3, r3, #4
 9087 0070 9A42     		cmp	r2, r3
 9088 0072 ACBF     		ite	ge
 9089 0074 0123     		movge	r3, #1
 9090 0076 0023     		movlt	r3, #0
 9091 0078 FB75     		strb	r3, [r7, #23]
2353:.\AdvantageImpl.c ****             break;
 9092              		.loc 1 2353 0
 9093 007a 1DE0     		b	.L364
 9094              	.L368:
2354:.\AdvantageImpl.c ****             case 0x02:
2355:.\AdvantageImpl.c ****                 retval = (buffersize >= (_g_dispenserlayoutinfo._hosesposition3*_PUMP_TOTALS_BUFFER
 9095              		.loc 1 2355 0
 9096 007c FA88     		ldrh	r2, [r7, #6]
 9097 007e 364B     		ldr	r3, .L377
 9098 0080 5B79     		ldrb	r3, [r3, #5]	@ zero_extendqisi2
 9099 0082 1946     		mov	r1, r3
 9100 0084 0B46     		mov	r3, r1
 9101 0086 1B01     		lsls	r3, r3, #4
 9102 0088 5B1A     		subs	r3, r3, r1
 9103 008a 5B00     		lsls	r3, r3, #1
 9104 008c 0433     		adds	r3, r3, #4
 9105 008e 9A42     		cmp	r2, r3
 9106 0090 ACBF     		ite	ge
 9107 0092 0123     		movge	r3, #1
 9108 0094 0023     		movlt	r3, #0
 9109 0096 FB75     		strb	r3, [r7, #23]
2356:.\AdvantageImpl.c ****             break;
 9110              		.loc 1 2356 0
 9111 0098 0EE0     		b	.L364
 9112              	.L369:
2357:.\AdvantageImpl.c ****             case 0x03:
ARM GAS  C:\Users\RECEPC~1\AppData\Local\Temp\ccZZcwiB.s 			page 203


2358:.\AdvantageImpl.c ****                 retval = (buffersize >= (_g_dispenserlayoutinfo._hosesposition4*_PUMP_TOTALS_BUFFER
 9113              		.loc 1 2358 0
 9114 009a FA88     		ldrh	r2, [r7, #6]
 9115 009c 2E4B     		ldr	r3, .L377
 9116 009e 9B79     		ldrb	r3, [r3, #6]	@ zero_extendqisi2
 9117 00a0 1946     		mov	r1, r3
 9118 00a2 0B46     		mov	r3, r1
 9119 00a4 1B01     		lsls	r3, r3, #4
 9120 00a6 5B1A     		subs	r3, r3, r1
 9121 00a8 5B00     		lsls	r3, r3, #1
 9122 00aa 0433     		adds	r3, r3, #4
 9123 00ac 9A42     		cmp	r2, r3
 9124 00ae ACBF     		ite	ge
 9125 00b0 0123     		movge	r3, #1
 9126 00b2 0023     		movlt	r3, #0
 9127 00b4 FB75     		strb	r3, [r7, #23]
2359:.\AdvantageImpl.c ****             break;
 9128              		.loc 1 2359 0
 9129 00b6 00BF     		nop
 9130              	.L364:
 9131 00b8 46E0     		b	.L370
 9132              	.L363:
2360:.\AdvantageImpl.c ****         }
2361:.\AdvantageImpl.c ****     }
2362:.\AdvantageImpl.c ****     else
2363:.\AdvantageImpl.c ****     {            
2364:.\AdvantageImpl.c ****         switch(ppump->_pumpindex)
 9133              		.loc 1 2364 0
 9134 00ba 3B69     		ldr	r3, [r7, #16]
 9135 00bc 5B78     		ldrb	r3, [r3, #1]	@ zero_extendqisi2
 9136 00be 032B     		cmp	r3, #3
 9137 00c0 42D8     		bhi	.L370
 9138 00c2 01A2     		adr	r2, .L372
 9139 00c4 52F823F0 		ldr	pc, [r2, r3, lsl #2]
 9140              		.p2align 2
 9141              	.L372:
 9142 00c8 D9000000 		.word	.L371+1
 9143 00cc F5000000 		.word	.L373+1
 9144 00d0 11010000 		.word	.L374+1
 9145 00d4 2D010000 		.word	.L375+1
 9146              		.p2align 1
 9147              	.L371:
2365:.\AdvantageImpl.c ****         {
2366:.\AdvantageImpl.c ****             case 0x00:
2367:.\AdvantageImpl.c ****                 retval = (buffersize >= (_g_dispenserlayoutinfo._hosesposition1*_PUMP_TOTALS_BUFFER
 9148              		.loc 1 2367 0
 9149 00d8 FA88     		ldrh	r2, [r7, #6]
 9150 00da 1F4B     		ldr	r3, .L377
 9151 00dc DB78     		ldrb	r3, [r3, #3]	@ zero_extendqisi2
 9152 00de 1946     		mov	r1, r3
 9153 00e0 2A23     		movs	r3, #42
 9154 00e2 03FB01F3 		mul	r3, r3, r1
 9155 00e6 0433     		adds	r3, r3, #4
 9156 00e8 9A42     		cmp	r2, r3
 9157 00ea ACBF     		ite	ge
 9158 00ec 0123     		movge	r3, #1
 9159 00ee 0023     		movlt	r3, #0
ARM GAS  C:\Users\RECEPC~1\AppData\Local\Temp\ccZZcwiB.s 			page 204


 9160 00f0 FB75     		strb	r3, [r7, #23]
2368:.\AdvantageImpl.c ****             break;
 9161              		.loc 1 2368 0
 9162 00f2 29E0     		b	.L370
 9163              	.L373:
2369:.\AdvantageImpl.c ****             case 0x01:
2370:.\AdvantageImpl.c ****                 retval = (buffersize >= (_g_dispenserlayoutinfo._hosesposition2*_PUMP_TOTALS_BUFFER
 9164              		.loc 1 2370 0
 9165 00f4 FA88     		ldrh	r2, [r7, #6]
 9166 00f6 184B     		ldr	r3, .L377
 9167 00f8 1B79     		ldrb	r3, [r3, #4]	@ zero_extendqisi2
 9168 00fa 1946     		mov	r1, r3
 9169 00fc 2A23     		movs	r3, #42
 9170 00fe 03FB01F3 		mul	r3, r3, r1
 9171 0102 0433     		adds	r3, r3, #4
 9172 0104 9A42     		cmp	r2, r3
 9173 0106 ACBF     		ite	ge
 9174 0108 0123     		movge	r3, #1
 9175 010a 0023     		movlt	r3, #0
 9176 010c FB75     		strb	r3, [r7, #23]
2371:.\AdvantageImpl.c ****             break;
 9177              		.loc 1 2371 0
 9178 010e 1BE0     		b	.L370
 9179              	.L374:
2372:.\AdvantageImpl.c ****             case 0x02:
2373:.\AdvantageImpl.c ****                 retval = (buffersize >= (_g_dispenserlayoutinfo._hosesposition3*_PUMP_TOTALS_BUFFER
 9180              		.loc 1 2373 0
 9181 0110 FA88     		ldrh	r2, [r7, #6]
 9182 0112 114B     		ldr	r3, .L377
 9183 0114 5B79     		ldrb	r3, [r3, #5]	@ zero_extendqisi2
 9184 0116 1946     		mov	r1, r3
 9185 0118 2A23     		movs	r3, #42
 9186 011a 03FB01F3 		mul	r3, r3, r1
 9187 011e 0433     		adds	r3, r3, #4
 9188 0120 9A42     		cmp	r2, r3
 9189 0122 ACBF     		ite	ge
 9190 0124 0123     		movge	r3, #1
 9191 0126 0023     		movlt	r3, #0
 9192 0128 FB75     		strb	r3, [r7, #23]
2374:.\AdvantageImpl.c ****             break;
 9193              		.loc 1 2374 0
 9194 012a 0DE0     		b	.L370
 9195              	.L375:
2375:.\AdvantageImpl.c ****             case 0x03:
2376:.\AdvantageImpl.c ****                 retval = (buffersize >= (_g_dispenserlayoutinfo._hosesposition4*_PUMP_TOTALS_BUFFER
 9196              		.loc 1 2376 0
 9197 012c FA88     		ldrh	r2, [r7, #6]
 9198 012e 0A4B     		ldr	r3, .L377
 9199 0130 9B79     		ldrb	r3, [r3, #6]	@ zero_extendqisi2
 9200 0132 1946     		mov	r1, r3
 9201 0134 2A23     		movs	r3, #42
 9202 0136 03FB01F3 		mul	r3, r3, r1
 9203 013a 0433     		adds	r3, r3, #4
 9204 013c 9A42     		cmp	r2, r3
 9205 013e ACBF     		ite	ge
 9206 0140 0123     		movge	r3, #1
 9207 0142 0023     		movlt	r3, #0
ARM GAS  C:\Users\RECEPC~1\AppData\Local\Temp\ccZZcwiB.s 			page 205


 9208 0144 FB75     		strb	r3, [r7, #23]
2377:.\AdvantageImpl.c ****             break;
 9209              		.loc 1 2377 0
 9210 0146 00BF     		nop
 9211              	.L370:
2378:.\AdvantageImpl.c ****         }
2379:.\AdvantageImpl.c ****     }
2380:.\AdvantageImpl.c ****     
2381:.\AdvantageImpl.c ****     return retval;
 9212              		.loc 1 2381 0
 9213 0148 FB7D     		ldrb	r3, [r7, #23]	@ zero_extendqisi2
2382:.\AdvantageImpl.c **** }
 9214              		.loc 1 2382 0
 9215 014a 1846     		mov	r0, r3
 9216 014c 1C37     		adds	r7, r7, #28
 9217              		.cfi_def_cfa_offset 4
 9218 014e BD46     		mov	sp, r7
 9219              		.cfi_def_cfa_register 13
 9220              		@ sp needed
 9221 0150 5DF8047B 		ldr	r7, [sp], #4
 9222              		.cfi_restore 7
 9223              		.cfi_def_cfa_offset 0
 9224 0154 7047     		bx	lr
 9225              	.L378:
 9226 0156 00BF     		.align	2
 9227              	.L377:
 9228 0158 00000000 		.word	_g_dispenserlayoutinfo
 9229              		.cfi_endproc
 9230              	.LFE97:
 9231              		.size	AcquirePumpTotalsResponseResolver, .-AcquirePumpTotalsResponseResolver
 9232              		.section	.text.AcquirePumpTransactionDataResponseResolver,"ax",%progbits
 9233              		.align	2
 9234              		.global	AcquirePumpTransactionDataResponseResolver
 9235              		.thumb
 9236              		.thumb_func
 9237              		.type	AcquirePumpTransactionDataResponseResolver, %function
 9238              	AcquirePumpTransactionDataResponseResolver:
 9239              	.LFB98:
2383:.\AdvantageImpl.c **** 
2384:.\AdvantageImpl.c **** //@Created By: HIJH
2385:.\AdvantageImpl.c **** //@Septembre de 2016
2386:.\AdvantageImpl.c **** bool AcquirePumpTransactionDataResponseResolver(void *pparam, void *pbuffer, uint16 buffersize)
2387:.\AdvantageImpl.c **** {
 9240              		.loc 1 2387 0
 9241              		.cfi_startproc
 9242              		@ args = 0, pretend = 0, frame = 24
 9243              		@ frame_needed = 1, uses_anonymous_args = 0
 9244              		@ link register save eliminated.
 9245 0000 80B4     		push	{r7}
 9246              		.cfi_def_cfa_offset 4
 9247              		.cfi_offset 7, -4
 9248 0002 87B0     		sub	sp, sp, #28
 9249              		.cfi_def_cfa_offset 32
 9250 0004 00AF     		add	r7, sp, #0
 9251              		.cfi_def_cfa_register 7
 9252 0006 F860     		str	r0, [r7, #12]
 9253 0008 B960     		str	r1, [r7, #8]
ARM GAS  C:\Users\RECEPC~1\AppData\Local\Temp\ccZZcwiB.s 			page 206


 9254 000a 1346     		mov	r3, r2
 9255 000c FB80     		strh	r3, [r7, #6]	@ movhi
2388:.\AdvantageImpl.c ****     bool retval = false;
 9256              		.loc 1 2388 0
 9257 000e 0023     		movs	r3, #0
 9258 0010 FB75     		strb	r3, [r7, #23]
2389:.\AdvantageImpl.c ****     PNEAR_PUMPPTR ppump = (PNEAR_PUMPPTR)pparam;
 9259              		.loc 1 2389 0
 9260 0012 FB68     		ldr	r3, [r7, #12]
 9261 0014 3B61     		str	r3, [r7, #16]
2390:.\AdvantageImpl.c ****     
2391:.\AdvantageImpl.c ****     if(_g_dispenserlayoutinfo._displaydigitsmode == 0x06)
 9262              		.loc 1 2391 0
 9263 0016 0C4B     		ldr	r3, .L383
 9264 0018 1B7C     		ldrb	r3, [r3, #16]	@ zero_extendqisi2
 9265 001a 062B     		cmp	r3, #6
 9266 001c 06D1     		bne	.L380
2392:.\AdvantageImpl.c ****     {            
2393:.\AdvantageImpl.c ****         retval = (buffersize >= PUMP_TRANSACTION_DATA_REQUEST_RESPONSE_SIZE_4DIGITS);
 9267              		.loc 1 2393 0
 9268 001e FB88     		ldrh	r3, [r7, #6]
 9269 0020 202B     		cmp	r3, #32
 9270 0022 8CBF     		ite	hi
 9271 0024 0123     		movhi	r3, #1
 9272 0026 0023     		movls	r3, #0
 9273 0028 FB75     		strb	r3, [r7, #23]
 9274 002a 05E0     		b	.L381
 9275              	.L380:
2394:.\AdvantageImpl.c ****     }
2395:.\AdvantageImpl.c ****     else
2396:.\AdvantageImpl.c ****     {
2397:.\AdvantageImpl.c ****         retval = (buffersize >= PUMP_TRANSACTION_DATA_REQUEST_RESPONSE_SIZE);
 9276              		.loc 1 2397 0
 9277 002c FB88     		ldrh	r3, [r7, #6]
 9278 002e 262B     		cmp	r3, #38
 9279 0030 8CBF     		ite	hi
 9280 0032 0123     		movhi	r3, #1
 9281 0034 0023     		movls	r3, #0
 9282 0036 FB75     		strb	r3, [r7, #23]
 9283              	.L381:
2398:.\AdvantageImpl.c ****     }
2399:.\AdvantageImpl.c ****     
2400:.\AdvantageImpl.c ****     return retval;
 9284              		.loc 1 2400 0
 9285 0038 FB7D     		ldrb	r3, [r7, #23]	@ zero_extendqisi2
2401:.\AdvantageImpl.c **** }
 9286              		.loc 1 2401 0
 9287 003a 1846     		mov	r0, r3
 9288 003c 1C37     		adds	r7, r7, #28
 9289              		.cfi_def_cfa_offset 4
 9290 003e BD46     		mov	sp, r7
 9291              		.cfi_def_cfa_register 13
 9292              		@ sp needed
 9293 0040 5DF8047B 		ldr	r7, [sp], #4
 9294              		.cfi_restore 7
 9295              		.cfi_def_cfa_offset 0
 9296 0044 7047     		bx	lr
ARM GAS  C:\Users\RECEPC~1\AppData\Local\Temp\ccZZcwiB.s 			page 207


 9297              	.L384:
 9298 0046 00BF     		.align	2
 9299              	.L383:
 9300 0048 00000000 		.word	_g_dispenserlayoutinfo
 9301              		.cfi_endproc
 9302              	.LFE98:
 9303              		.size	AcquirePumpTransactionDataResponseResolver, .-AcquirePumpTransactionDataResponseResolver
 9304              		.section	.text.AcquirePpuChangeResponse,"ax",%progbits
 9305              		.align	2
 9306              		.global	AcquirePpuChangeResponse
 9307              		.thumb
 9308              		.thumb_func
 9309              		.type	AcquirePpuChangeResponse, %function
 9310              	AcquirePpuChangeResponse:
 9311              	.LFB99:
2402:.\AdvantageImpl.c **** 
2403:.\AdvantageImpl.c **** void AcquirePpuChangeResponse(void *pparam)
2404:.\AdvantageImpl.c **** {
 9312              		.loc 1 2404 0
 9313              		.cfi_startproc
 9314              		@ args = 0, pretend = 0, frame = 16
 9315              		@ frame_needed = 1, uses_anonymous_args = 0
 9316              		@ link register save eliminated.
 9317 0000 80B4     		push	{r7}
 9318              		.cfi_def_cfa_offset 4
 9319              		.cfi_offset 7, -4
 9320 0002 85B0     		sub	sp, sp, #20
 9321              		.cfi_def_cfa_offset 24
 9322 0004 00AF     		add	r7, sp, #0
 9323              		.cfi_def_cfa_register 7
 9324 0006 7860     		str	r0, [r7, #4]
2405:.\AdvantageImpl.c ****     PPUMPTRANSACTIONJOBCONTEXTPTR pjob = (PPUMPTRANSACTIONJOBCONTEXTPTR)pparam;
 9325              		.loc 1 2405 0
 9326 0008 7B68     		ldr	r3, [r7, #4]
 9327 000a FB60     		str	r3, [r7, #12]
2406:.\AdvantageImpl.c ****     if(pjob)
 9328              		.loc 1 2406 0
 9329 000c FB68     		ldr	r3, [r7, #12]
 9330 000e 002B     		cmp	r3, #0
 9331 0010 3AD0     		beq	.L385
2407:.\AdvantageImpl.c ****     {
2408:.\AdvantageImpl.c ****         pjob->_ppump->_pumpstate = ((pjob->_ppump->_rxbuffer[0x00] & 0xF0) >> 4);
 9332              		.loc 1 2408 0
 9333 0012 FB68     		ldr	r3, [r7, #12]
 9334 0014 DB69     		ldr	r3, [r3, #28]
 9335 0016 FA68     		ldr	r2, [r7, #12]
 9336 0018 D269     		ldr	r2, [r2, #28]
 9337 001a 92F8A021 		ldrb	r2, [r2, #416]	@ zero_extendqisi2
 9338 001e 1209     		lsrs	r2, r2, #4
 9339 0020 D2B2     		uxtb	r2, r2
 9340 0022 9A70     		strb	r2, [r3, #2]
2409:.\AdvantageImpl.c ****         
2410:.\AdvantageImpl.c ****         switch(_g_dispenserlayoutinfo._numpositions)
 9341              		.loc 1 2410 0
 9342 0024 1B4B     		ldr	r3, .L391
 9343 0026 9B78     		ldrb	r3, [r3, #2]	@ zero_extendqisi2
 9344 0028 022B     		cmp	r3, #2
ARM GAS  C:\Users\RECEPC~1\AppData\Local\Temp\ccZZcwiB.s 			page 208


 9345 002a 02D0     		beq	.L387
 9346 002c 042B     		cmp	r3, #4
 9347 002e 16D0     		beq	.L388
 9348 0030 2AE0     		b	.L385
 9349              	.L387:
2411:.\AdvantageImpl.c ****         {
2412:.\AdvantageImpl.c ****             case 0x02:
2413:.\AdvantageImpl.c ****             {
2414:.\AdvantageImpl.c ****                 if(pjob->_ppump->_pumpindex == (_g_dispenserlayoutinfo._numpositions - 1) && (pjob-
 9350              		.loc 1 2414 0
 9351 0032 FB68     		ldr	r3, [r7, #12]
 9352 0034 DB69     		ldr	r3, [r3, #28]
 9353 0036 5B78     		ldrb	r3, [r3, #1]	@ zero_extendqisi2
 9354 0038 1A46     		mov	r2, r3
 9355 003a 164B     		ldr	r3, .L391
 9356 003c 9B78     		ldrb	r3, [r3, #2]	@ zero_extendqisi2
 9357 003e 013B     		subs	r3, r3, #1
 9358 0040 9A42     		cmp	r2, r3
 9359 0042 0BD1     		bne	.L389
 9360              		.loc 1 2414 0 is_stmt 0 discriminator 1
 9361 0044 FB68     		ldr	r3, [r7, #12]
 9362 0046 DB69     		ldr	r3, [r3, #28]
 9363 0048 DB78     		ldrb	r3, [r3, #3]
 9364 004a DAB2     		uxtb	r2, r3
 9365 004c 114B     		ldr	r3, .L391
 9366 004e 1B79     		ldrb	r3, [r3, #4]	@ zero_extendqisi2
 9367 0050 9A42     		cmp	r2, r3
 9368 0052 03D1     		bne	.L389
2415:.\AdvantageImpl.c ****                     _g_dispenserlayoutinfo._inconfiguration = false;
 9369              		.loc 1 2415 0 is_stmt 1
 9370 0054 0F4B     		ldr	r3, .L391
 9371 0056 0022     		movs	r2, #0
 9372 0058 1A70     		strb	r2, [r3]
2416:.\AdvantageImpl.c ****                 
2417:.\AdvantageImpl.c ****                 break;
 9373              		.loc 1 2417 0
 9374 005a 15E0     		b	.L385
 9375              	.L389:
 9376 005c 14E0     		b	.L385
 9377              	.L388:
2418:.\AdvantageImpl.c ****             }
2419:.\AdvantageImpl.c ****             case 0x04:
2420:.\AdvantageImpl.c ****             {
2421:.\AdvantageImpl.c ****                 if(pjob->_ppump->_pumpindex == (_g_dispenserlayoutinfo._numpositions - 1) && (pjob-
 9378              		.loc 1 2421 0
 9379 005e FB68     		ldr	r3, [r7, #12]
 9380 0060 DB69     		ldr	r3, [r3, #28]
 9381 0062 5B78     		ldrb	r3, [r3, #1]	@ zero_extendqisi2
 9382 0064 1A46     		mov	r2, r3
 9383 0066 0B4B     		ldr	r3, .L391
 9384 0068 9B78     		ldrb	r3, [r3, #2]	@ zero_extendqisi2
 9385 006a 013B     		subs	r3, r3, #1
 9386 006c 9A42     		cmp	r2, r3
 9387 006e 0AD1     		bne	.L390
 9388              		.loc 1 2421 0 is_stmt 0 discriminator 1
 9389 0070 FB68     		ldr	r3, [r7, #12]
 9390 0072 DB69     		ldr	r3, [r3, #28]
ARM GAS  C:\Users\RECEPC~1\AppData\Local\Temp\ccZZcwiB.s 			page 209


 9391 0074 DB78     		ldrb	r3, [r3, #3]
 9392 0076 DAB2     		uxtb	r2, r3
 9393 0078 064B     		ldr	r3, .L391
 9394 007a 9B79     		ldrb	r3, [r3, #6]	@ zero_extendqisi2
 9395 007c 9A42     		cmp	r2, r3
 9396 007e 02D1     		bne	.L390
2422:.\AdvantageImpl.c ****                     _g_dispenserlayoutinfo._inconfiguration = false;
 9397              		.loc 1 2422 0 is_stmt 1
 9398 0080 044B     		ldr	r3, .L391
 9399 0082 0022     		movs	r2, #0
 9400 0084 1A70     		strb	r2, [r3]
 9401              	.L390:
2423:.\AdvantageImpl.c ****                 
2424:.\AdvantageImpl.c ****                 break;
 9402              		.loc 1 2424 0
 9403 0086 00BF     		nop
 9404              	.L385:
2425:.\AdvantageImpl.c ****             }
2426:.\AdvantageImpl.c ****         }
2427:.\AdvantageImpl.c ****     }
2428:.\AdvantageImpl.c **** }
 9405              		.loc 1 2428 0
 9406 0088 1437     		adds	r7, r7, #20
 9407              		.cfi_def_cfa_offset 4
 9408 008a BD46     		mov	sp, r7
 9409              		.cfi_def_cfa_register 13
 9410              		@ sp needed
 9411 008c 5DF8047B 		ldr	r7, [sp], #4
 9412              		.cfi_restore 7
 9413              		.cfi_def_cfa_offset 0
 9414 0090 7047     		bx	lr
 9415              	.L392:
 9416 0092 00BF     		.align	2
 9417              	.L391:
 9418 0094 00000000 		.word	_g_dispenserlayoutinfo
 9419              		.cfi_endproc
 9420              	.LFE99:
 9421              		.size	AcquirePpuChangeResponse, .-AcquirePpuChangeResponse
 9422              		.section	.text.AdvantageActivateProgramming,"ax",%progbits
 9423              		.align	2
 9424              		.global	AdvantageActivateProgramming
 9425              		.thumb
 9426              		.thumb_func
 9427              		.type	AdvantageActivateProgramming, %function
 9428              	AdvantageActivateProgramming:
 9429              	.LFB100:
2429:.\AdvantageImpl.c **** 
2430:.\AdvantageImpl.c **** //@Created By: HIJH
2431:.\AdvantageImpl.c **** //@Novembre de 2016
2432:.\AdvantageImpl.c **** void AdvantageActivateProgramming(LPVOID pparam)
2433:.\AdvantageImpl.c **** {
 9430              		.loc 1 2433 0
 9431              		.cfi_startproc
 9432              		@ args = 0, pretend = 0, frame = 24
 9433              		@ frame_needed = 1, uses_anonymous_args = 0
 9434 0000 80B5     		push	{r7, lr}
 9435              		.cfi_def_cfa_offset 8
ARM GAS  C:\Users\RECEPC~1\AppData\Local\Temp\ccZZcwiB.s 			page 210


 9436              		.cfi_offset 7, -8
 9437              		.cfi_offset 14, -4
 9438 0002 86B0     		sub	sp, sp, #24
 9439              		.cfi_def_cfa_offset 32
 9440 0004 00AF     		add	r7, sp, #0
 9441              		.cfi_def_cfa_register 7
 9442 0006 7860     		str	r0, [r7, #4]
2434:.\AdvantageImpl.c ****     PNEAR_PUMPPTR ppump = &_g_pumps[0x00];
 9443              		.loc 1 2434 0
 9444 0008 264B     		ldr	r3, .L398
 9445 000a 3B61     		str	r3, [r7, #16]
2435:.\AdvantageImpl.c ****     PSINKMESSAGEPTR pmsg = (PSINKMESSAGEPTR)pparam;
 9446              		.loc 1 2435 0
 9447 000c 7B68     		ldr	r3, [r7, #4]
 9448 000e FB60     		str	r3, [r7, #12]
2436:.\AdvantageImpl.c ****     if(ppump)
 9449              		.loc 1 2436 0
 9450 0010 3B69     		ldr	r3, [r7, #16]
 9451 0012 002B     		cmp	r3, #0
 9452 0014 42D0     		beq	.L393
 9453              	.LBB63:
2437:.\AdvantageImpl.c ****     {
2438:.\AdvantageImpl.c ****         ppump->_acquiringstate = true;
 9454              		.loc 1 2438 0
 9455 0016 3B69     		ldr	r3, [r7, #16]
 9456 0018 0122     		movs	r2, #1
 9457 001a 5A71     		strb	r2, [r3, #5]
2439:.\AdvantageImpl.c ****         ppump->_pcurrtransaction = GetTransactionByName(_PUMP_PROGRAM_MODE_);
 9458              		.loc 1 2439 0
 9459 001c 4E20     		movs	r0, #78
 9460 001e FFF7FEFF 		bl	GetTransactionByName
 9461 0022 0246     		mov	r2, r0
 9462 0024 3B69     		ldr	r3, [r7, #16]
 9463 0026 DA61     		str	r2, [r3, #28]
2440:.\AdvantageImpl.c ****         PumpTransactionJob *ptrjob = &((PumpTransaction*)ppump->_pcurrtransaction)->_jobs[0];
 9464              		.loc 1 2440 0
 9465 0028 3B69     		ldr	r3, [r7, #16]
 9466 002a DB69     		ldr	r3, [r3, #28]
 9467 002c 0433     		adds	r3, r3, #4
 9468 002e 7B61     		str	r3, [r7, #20]
2441:.\AdvantageImpl.c ****         if(ptrjob)
 9469              		.loc 1 2441 0
 9470 0030 7B69     		ldr	r3, [r7, #20]
 9471 0032 002B     		cmp	r3, #0
 9472 0034 32D0     		beq	.L393
2442:.\AdvantageImpl.c ****         {
2443:.\AdvantageImpl.c ****             while(ptrjob->Request != NULL)
 9473              		.loc 1 2443 0
 9474 0036 2DE0     		b	.L395
 9475              	.L397:
 9476              	.LBB64:
2444:.\AdvantageImpl.c ****             {
2445:.\AdvantageImpl.c ****                 PPUMPTRANSACTIONJOBCONTEXTPTR pjobcntr = _g_pumpjobqueue.Allocate(&_g_pumpjobqueue)
 9477              		.loc 1 2445 0
 9478 0038 1B4B     		ldr	r3, .L398+4
 9479 003a D3F84838 		ldr	r3, [r3, #2120]
 9480 003e 1A48     		ldr	r0, .L398+4
ARM GAS  C:\Users\RECEPC~1\AppData\Local\Temp\ccZZcwiB.s 			page 211


 9481 0040 9847     		blx	r3
 9482 0042 B860     		str	r0, [r7, #8]
2446:.\AdvantageImpl.c ****                 if(pjobcntr)
 9483              		.loc 1 2446 0
 9484 0044 BB68     		ldr	r3, [r7, #8]
 9485 0046 002B     		cmp	r3, #0
 9486 0048 21D0     		beq	.L396
2447:.\AdvantageImpl.c ****                 {
2448:.\AdvantageImpl.c ****                     pjobcntr->_reenqueue = false;
 9487              		.loc 1 2448 0
 9488 004a BB68     		ldr	r3, [r7, #8]
 9489 004c 0022     		movs	r2, #0
 9490 004e 1A70     		strb	r2, [r3]
2449:.\AdvantageImpl.c ****                     pjobcntr->_prequest = ptrjob;
 9491              		.loc 1 2449 0
 9492 0050 BB68     		ldr	r3, [r7, #8]
 9493 0052 7A69     		ldr	r2, [r7, #20]
 9494 0054 5A61     		str	r2, [r3, #20]
2450:.\AdvantageImpl.c ****                     pjobcntr->_presponse = NULL;
 9495              		.loc 1 2450 0
 9496 0056 BB68     		ldr	r3, [r7, #8]
 9497 0058 0022     		movs	r2, #0
 9498 005a 9A61     		str	r2, [r3, #24]
2451:.\AdvantageImpl.c ****                     pjobcntr->_ppump = ppump;
 9499              		.loc 1 2451 0
 9500 005c BB68     		ldr	r3, [r7, #8]
 9501 005e 3A69     		ldr	r2, [r7, #16]
 9502 0060 DA61     		str	r2, [r3, #28]
2452:.\AdvantageImpl.c ****                     pjobcntr->_ppump->CleanUp(pjobcntr->_ppump);
 9503              		.loc 1 2452 0
 9504 0062 BB68     		ldr	r3, [r7, #8]
 9505 0064 DB69     		ldr	r3, [r3, #28]
 9506 0066 D3F8B839 		ldr	r3, [r3, #2488]
 9507 006a BA68     		ldr	r2, [r7, #8]
 9508 006c D269     		ldr	r2, [r2, #28]
 9509 006e 1046     		mov	r0, r2
 9510 0070 9847     		blx	r3
2453:.\AdvantageImpl.c ****                     //This callback will be invoked upon response (if exists)
2454:.\AdvantageImpl.c ****                     pjobcntr->Callback = pmsg->Callback;
 9511              		.loc 1 2454 0
 9512 0072 FB68     		ldr	r3, [r7, #12]
 9513 0074 D3F89421 		ldr	r2, [r3, #404]
 9514 0078 BB68     		ldr	r3, [r7, #8]
 9515 007a 1A62     		str	r2, [r3, #32]
2455:.\AdvantageImpl.c ****                     pjobcntr->_pdata = pmsg;
 9516              		.loc 1 2455 0
 9517 007c BB68     		ldr	r3, [r7, #8]
 9518 007e FA68     		ldr	r2, [r7, #12]
 9519 0080 5A62     		str	r2, [r3, #36]
2456:.\AdvantageImpl.c ****                     
2457:.\AdvantageImpl.c ****                     _g_pumpjobqueue.Enqueue(&_g_pumpjobqueue, pjobcntr);
 9520              		.loc 1 2457 0
 9521 0082 094B     		ldr	r3, .L398+4
 9522 0084 D3F84C38 		ldr	r3, [r3, #2124]
 9523 0088 0748     		ldr	r0, .L398+4
 9524 008a B968     		ldr	r1, [r7, #8]
 9525 008c 9847     		blx	r3
ARM GAS  C:\Users\RECEPC~1\AppData\Local\Temp\ccZZcwiB.s 			page 212


 9526              	.L396:
2458:.\AdvantageImpl.c ****                 }
2459:.\AdvantageImpl.c ****                 ptrjob++;
 9527              		.loc 1 2459 0
 9528 008e 7B69     		ldr	r3, [r7, #20]
 9529 0090 3433     		adds	r3, r3, #52
 9530 0092 7B61     		str	r3, [r7, #20]
 9531              	.L395:
 9532              	.LBE64:
2443:.\AdvantageImpl.c ****             {
 9533              		.loc 1 2443 0
 9534 0094 7B69     		ldr	r3, [r7, #20]
 9535 0096 1B68     		ldr	r3, [r3]
 9536 0098 002B     		cmp	r3, #0
 9537 009a CDD1     		bne	.L397
 9538              	.L393:
 9539              	.LBE63:
2460:.\AdvantageImpl.c ****             }
2461:.\AdvantageImpl.c ****         }
2462:.\AdvantageImpl.c ****     }
2463:.\AdvantageImpl.c **** }
 9540              		.loc 1 2463 0
 9541 009c 1837     		adds	r7, r7, #24
 9542              		.cfi_def_cfa_offset 8
 9543 009e BD46     		mov	sp, r7
 9544              		.cfi_def_cfa_register 13
 9545              		@ sp needed
 9546 00a0 80BD     		pop	{r7, pc}
 9547              	.L399:
 9548 00a2 00BF     		.align	2
 9549              	.L398:
 9550 00a4 00000000 		.word	_g_pumps
 9551 00a8 00000000 		.word	_g_pumpjobqueue
 9552              		.cfi_endproc
 9553              	.LFE100:
 9554              		.size	AdvantageActivateProgramming, .-AdvantageActivateProgramming
 9555              		.section	.text.GetLRC,"ax",%progbits
 9556              		.align	2
 9557              		.global	GetLRC
 9558              		.thumb
 9559              		.thumb_func
 9560              		.type	GetLRC, %function
 9561              	GetLRC:
 9562              	.LFB101:
2464:.\AdvantageImpl.c **** 
2465:.\AdvantageImpl.c **** ///////////////////////////////////////////////////////////////////////////////////////////////////
2466:.\AdvantageImpl.c **** //THESE ARE SUPPORT METHODS THAT WILL BE USED IN THE TRANSACTIONAL MACHINE
2467:.\AdvantageImpl.c **** ///////////////////////////////////////////////////////////////////////////////////////////////////
2468:.\AdvantageImpl.c **** //Calculation of the LRC according to the documentation
2469:.\AdvantageImpl.c **** uint8_t GetLRC(char8 *_pbuffer)
2470:.\AdvantageImpl.c **** {
 9563              		.loc 1 2470 0
 9564              		.cfi_startproc
 9565              		@ args = 0, pretend = 0, frame = 16
 9566              		@ frame_needed = 1, uses_anonymous_args = 0
 9567              		@ link register save eliminated.
 9568 0000 80B4     		push	{r7}
ARM GAS  C:\Users\RECEPC~1\AppData\Local\Temp\ccZZcwiB.s 			page 213


 9569              		.cfi_def_cfa_offset 4
 9570              		.cfi_offset 7, -4
 9571 0002 85B0     		sub	sp, sp, #20
 9572              		.cfi_def_cfa_offset 24
 9573 0004 00AF     		add	r7, sp, #0
 9574              		.cfi_def_cfa_register 7
 9575 0006 7860     		str	r0, [r7, #4]
2471:.\AdvantageImpl.c ****     uint8_t lrc = 0;
 9576              		.loc 1 2471 0
 9577 0008 0023     		movs	r3, #0
 9578 000a FB73     		strb	r3, [r7, #15]
2472:.\AdvantageImpl.c ****     while(*_pbuffer != 0xFB)
 9579              		.loc 1 2472 0
 9580 000c 0AE0     		b	.L401
 9581              	.L402:
2473:.\AdvantageImpl.c ****     {
2474:.\AdvantageImpl.c ****         lrc += (*_pbuffer & 0x0F);
 9582              		.loc 1 2474 0
 9583 000e 7B68     		ldr	r3, [r7, #4]
 9584 0010 1B78     		ldrb	r3, [r3]	@ zero_extendqisi2
 9585 0012 03F00F03 		and	r3, r3, #15
 9586 0016 DAB2     		uxtb	r2, r3
 9587 0018 FB7B     		ldrb	r3, [r7, #15]
 9588 001a 1344     		add	r3, r3, r2
 9589 001c FB73     		strb	r3, [r7, #15]
2475:.\AdvantageImpl.c ****         _pbuffer++;
 9590              		.loc 1 2475 0
 9591 001e 7B68     		ldr	r3, [r7, #4]
 9592 0020 0133     		adds	r3, r3, #1
 9593 0022 7B60     		str	r3, [r7, #4]
 9594              	.L401:
2472:.\AdvantageImpl.c ****     while(*_pbuffer != 0xFB)
 9595              		.loc 1 2472 0
 9596 0024 7B68     		ldr	r3, [r7, #4]
 9597 0026 1B78     		ldrb	r3, [r3]	@ zero_extendqisi2
 9598 0028 FB2B     		cmp	r3, #251
 9599 002a F0D1     		bne	.L402
2476:.\AdvantageImpl.c ****     }
2477:.\AdvantageImpl.c ****     lrc += (*_pbuffer & 0x0F);
 9600              		.loc 1 2477 0
 9601 002c 7B68     		ldr	r3, [r7, #4]
 9602 002e 1B78     		ldrb	r3, [r3]	@ zero_extendqisi2
 9603 0030 03F00F03 		and	r3, r3, #15
 9604 0034 DAB2     		uxtb	r2, r3
 9605 0036 FB7B     		ldrb	r3, [r7, #15]
 9606 0038 1344     		add	r3, r3, r2
 9607 003a FB73     		strb	r3, [r7, #15]
2478:.\AdvantageImpl.c ****     return (((~lrc + 1) & 0x0F) | 0xE0);
 9608              		.loc 1 2478 0
 9609 003c FB7B     		ldrb	r3, [r7, #15]
 9610 003e 5B42     		negs	r3, r3
 9611 0040 DBB2     		uxtb	r3, r3
 9612 0042 DBB2     		uxtb	r3, r3
 9613 0044 03F00F03 		and	r3, r3, #15
 9614 0048 DBB2     		uxtb	r3, r3
 9615 004a 63F01F03 		orn	r3, r3, #31
 9616 004e DBB2     		uxtb	r3, r3
ARM GAS  C:\Users\RECEPC~1\AppData\Local\Temp\ccZZcwiB.s 			page 214


 9617 0050 DBB2     		uxtb	r3, r3
2479:.\AdvantageImpl.c **** }
 9618              		.loc 1 2479 0
 9619 0052 1846     		mov	r0, r3
 9620 0054 1437     		adds	r7, r7, #20
 9621              		.cfi_def_cfa_offset 4
 9622 0056 BD46     		mov	sp, r7
 9623              		.cfi_def_cfa_register 13
 9624              		@ sp needed
 9625 0058 5DF8047B 		ldr	r7, [sp], #4
 9626              		.cfi_restore 7
 9627              		.cfi_def_cfa_offset 0
 9628 005c 7047     		bx	lr
 9629              		.cfi_endproc
 9630              	.LFE101:
 9631              		.size	GetLRC, .-GetLRC
 9632 005e 00BF     		.section	.text.FindLRC,"ax",%progbits
 9633              		.align	2
 9634              		.global	FindLRC
 9635              		.thumb
 9636              		.thumb_func
 9637              		.type	FindLRC, %function
 9638              	FindLRC:
 9639              	.LFB102:
2480:.\AdvantageImpl.c **** 
2481:.\AdvantageImpl.c **** uint8_t FindLRC(char8 *_pbuffer)
2482:.\AdvantageImpl.c **** {
 9640              		.loc 1 2482 0
 9641              		.cfi_startproc
 9642              		@ args = 0, pretend = 0, frame = 16
 9643              		@ frame_needed = 1, uses_anonymous_args = 0
 9644              		@ link register save eliminated.
 9645 0000 80B4     		push	{r7}
 9646              		.cfi_def_cfa_offset 4
 9647              		.cfi_offset 7, -4
 9648 0002 85B0     		sub	sp, sp, #20
 9649              		.cfi_def_cfa_offset 24
 9650 0004 00AF     		add	r7, sp, #0
 9651              		.cfi_def_cfa_register 7
 9652 0006 7860     		str	r0, [r7, #4]
2483:.\AdvantageImpl.c ****     uint8_t lrc = 0;
 9653              		.loc 1 2483 0
 9654 0008 0023     		movs	r3, #0
 9655 000a FB73     		strb	r3, [r7, #15]
2484:.\AdvantageImpl.c ****     while(*_pbuffer != 0xFB)
 9656              		.loc 1 2484 0
 9657 000c 02E0     		b	.L405
 9658              	.L406:
2485:.\AdvantageImpl.c ****     {
2486:.\AdvantageImpl.c ****         _pbuffer++;
 9659              		.loc 1 2486 0
 9660 000e 7B68     		ldr	r3, [r7, #4]
 9661 0010 0133     		adds	r3, r3, #1
 9662 0012 7B60     		str	r3, [r7, #4]
 9663              	.L405:
2484:.\AdvantageImpl.c ****     while(*_pbuffer != 0xFB)
 9664              		.loc 1 2484 0
ARM GAS  C:\Users\RECEPC~1\AppData\Local\Temp\ccZZcwiB.s 			page 215


 9665 0014 7B68     		ldr	r3, [r7, #4]
 9666 0016 1B78     		ldrb	r3, [r3]	@ zero_extendqisi2
 9667 0018 FB2B     		cmp	r3, #251
 9668 001a F8D1     		bne	.L406
2487:.\AdvantageImpl.c ****     }
2488:.\AdvantageImpl.c ****     return *(++_pbuffer);
 9669              		.loc 1 2488 0
 9670 001c 7B68     		ldr	r3, [r7, #4]
 9671 001e 0133     		adds	r3, r3, #1
 9672 0020 7B60     		str	r3, [r7, #4]
 9673 0022 7B68     		ldr	r3, [r7, #4]
 9674 0024 1B78     		ldrb	r3, [r3]	@ zero_extendqisi2
2489:.\AdvantageImpl.c **** }
 9675              		.loc 1 2489 0
 9676 0026 1846     		mov	r0, r3
 9677 0028 1437     		adds	r7, r7, #20
 9678              		.cfi_def_cfa_offset 4
 9679 002a BD46     		mov	sp, r7
 9680              		.cfi_def_cfa_register 13
 9681              		@ sp needed
 9682 002c 5DF8047B 		ldr	r7, [sp], #4
 9683              		.cfi_restore 7
 9684              		.cfi_def_cfa_offset 0
 9685 0030 7047     		bx	lr
 9686              		.cfi_endproc
 9687              	.LFE102:
 9688              		.size	FindLRC, .-FindLRC
 9689 0032 00BF     		.section	.text.InitiateTransaction,"ax",%progbits
 9690              		.align	2
 9691              		.global	InitiateTransaction
 9692              		.thumb
 9693              		.thumb_func
 9694              		.type	InitiateTransaction, %function
 9695              	InitiateTransaction:
 9696              	.LFB103:
2490:.\AdvantageImpl.c **** 
2491:.\AdvantageImpl.c **** //@Created By: HIJH
2492:.\AdvantageImpl.c **** //@Septembre de 2016
2493:.\AdvantageImpl.c **** void InitiateTransaction(void *pparam)
2494:.\AdvantageImpl.c **** {
 9697              		.loc 1 2494 0
 9698              		.cfi_startproc
 9699              		@ args = 0, pretend = 0, frame = 16
 9700              		@ frame_needed = 1, uses_anonymous_args = 0
 9701              		@ link register save eliminated.
 9702 0000 80B4     		push	{r7}
 9703              		.cfi_def_cfa_offset 4
 9704              		.cfi_offset 7, -4
 9705 0002 85B0     		sub	sp, sp, #20
 9706              		.cfi_def_cfa_offset 24
 9707 0004 00AF     		add	r7, sp, #0
 9708              		.cfi_def_cfa_register 7
 9709 0006 7860     		str	r0, [r7, #4]
2495:.\AdvantageImpl.c ****     PumpTransactionJobContext *pjob = (PumpTransactionJobContext*)pparam;
 9710              		.loc 1 2495 0
 9711 0008 7B68     		ldr	r3, [r7, #4]
 9712 000a FB60     		str	r3, [r7, #12]
ARM GAS  C:\Users\RECEPC~1\AppData\Local\Temp\ccZZcwiB.s 			page 216


2496:.\AdvantageImpl.c ****     if(pjob)
 9713              		.loc 1 2496 0
 9714 000c FB68     		ldr	r3, [r7, #12]
 9715 000e 002B     		cmp	r3, #0
 9716 0010 07D0     		beq	.L408
2497:.\AdvantageImpl.c ****     {
2498:.\AdvantageImpl.c ****         pjob->_ppump->_transhealth = _PUMP_OK_;
 9717              		.loc 1 2498 0
 9718 0012 FB68     		ldr	r3, [r7, #12]
 9719 0014 DB69     		ldr	r3, [r3, #28]
 9720 0016 0122     		movs	r2, #1
 9721 0018 1A76     		strb	r2, [r3, #24]
2499:.\AdvantageImpl.c ****         pjob->_ppump->_transtate = _PUMP_BUSY_;
 9722              		.loc 1 2499 0
 9723 001a FB68     		ldr	r3, [r7, #12]
 9724 001c DB69     		ldr	r3, [r3, #28]
 9725 001e 0122     		movs	r2, #1
 9726 0020 5A76     		strb	r2, [r3, #25]
 9727              	.L408:
2500:.\AdvantageImpl.c ****     }
2501:.\AdvantageImpl.c **** }
 9728              		.loc 1 2501 0
 9729 0022 1437     		adds	r7, r7, #20
 9730              		.cfi_def_cfa_offset 4
 9731 0024 BD46     		mov	sp, r7
 9732              		.cfi_def_cfa_register 13
 9733              		@ sp needed
 9734 0026 5DF8047B 		ldr	r7, [sp], #4
 9735              		.cfi_restore 7
 9736              		.cfi_def_cfa_offset 0
 9737 002a 7047     		bx	lr
 9738              		.cfi_endproc
 9739              	.LFE103:
 9740              		.size	InitiateTransaction, .-InitiateTransaction
 9741              		.section	.text.TerminateTransaction,"ax",%progbits
 9742              		.align	2
 9743              		.global	TerminateTransaction
 9744              		.thumb
 9745              		.thumb_func
 9746              		.type	TerminateTransaction, %function
 9747              	TerminateTransaction:
 9748              	.LFB104:
2502:.\AdvantageImpl.c **** 
2503:.\AdvantageImpl.c **** //@Created By: HIJH
2504:.\AdvantageImpl.c **** //@Septembre de 2016
2505:.\AdvantageImpl.c **** void TerminateTransaction(void *pparam)
2506:.\AdvantageImpl.c **** {
 9749              		.loc 1 2506 0
 9750              		.cfi_startproc
 9751              		@ args = 0, pretend = 0, frame = 16
 9752              		@ frame_needed = 1, uses_anonymous_args = 0
 9753              		@ link register save eliminated.
 9754 0000 80B4     		push	{r7}
 9755              		.cfi_def_cfa_offset 4
 9756              		.cfi_offset 7, -4
 9757 0002 85B0     		sub	sp, sp, #20
 9758              		.cfi_def_cfa_offset 24
ARM GAS  C:\Users\RECEPC~1\AppData\Local\Temp\ccZZcwiB.s 			page 217


 9759 0004 00AF     		add	r7, sp, #0
 9760              		.cfi_def_cfa_register 7
 9761 0006 7860     		str	r0, [r7, #4]
2507:.\AdvantageImpl.c ****     PPUMPTRANSACTIONJOBCONTEXTPTR pjob = (PPUMPTRANSACTIONJOBCONTEXTPTR)pparam;
 9762              		.loc 1 2507 0
 9763 0008 7B68     		ldr	r3, [r7, #4]
 9764 000a FB60     		str	r3, [r7, #12]
2508:.\AdvantageImpl.c ****     if(pjob)
 9765              		.loc 1 2508 0
 9766 000c FB68     		ldr	r3, [r7, #12]
 9767 000e 002B     		cmp	r3, #0
 9768 0010 07D0     		beq	.L410
2509:.\AdvantageImpl.c ****     {
2510:.\AdvantageImpl.c ****         pjob->_ppump->_transhealth = _PUMP_OK_;
 9769              		.loc 1 2510 0
 9770 0012 FB68     		ldr	r3, [r7, #12]
 9771 0014 DB69     		ldr	r3, [r3, #28]
 9772 0016 0122     		movs	r2, #1
 9773 0018 1A76     		strb	r2, [r3, #24]
2511:.\AdvantageImpl.c ****         pjob->_ppump->_transtate = _PUMP_IDLE_;
 9774              		.loc 1 2511 0
 9775 001a FB68     		ldr	r3, [r7, #12]
 9776 001c DB69     		ldr	r3, [r3, #28]
 9777 001e 0222     		movs	r2, #2
 9778 0020 5A76     		strb	r2, [r3, #25]
 9779              	.L410:
2512:.\AdvantageImpl.c ****         
2513:.\AdvantageImpl.c ****     }
2514:.\AdvantageImpl.c **** }
 9780              		.loc 1 2514 0
 9781 0022 1437     		adds	r7, r7, #20
 9782              		.cfi_def_cfa_offset 4
 9783 0024 BD46     		mov	sp, r7
 9784              		.cfi_def_cfa_register 13
 9785              		@ sp needed
 9786 0026 5DF8047B 		ldr	r7, [sp], #4
 9787              		.cfi_restore 7
 9788              		.cfi_def_cfa_offset 0
 9789 002a 7047     		bx	lr
 9790              		.cfi_endproc
 9791              	.LFE104:
 9792              		.size	TerminateTransaction, .-TerminateTransaction
 9793              		.section	.text.TerminateTransactionAndPrint,"ax",%progbits
 9794              		.align	2
 9795              		.global	TerminateTransactionAndPrint
 9796              		.thumb
 9797              		.thumb_func
 9798              		.type	TerminateTransactionAndPrint, %function
 9799              	TerminateTransactionAndPrint:
 9800              	.LFB105:
2515:.\AdvantageImpl.c **** 
2516:.\AdvantageImpl.c **** void TerminateTransactionAndPrint(void *pparam)
2517:.\AdvantageImpl.c **** {
 9801              		.loc 1 2517 0
 9802              		.cfi_startproc
 9803              		@ args = 0, pretend = 0, frame = 16
 9804              		@ frame_needed = 1, uses_anonymous_args = 0
ARM GAS  C:\Users\RECEPC~1\AppData\Local\Temp\ccZZcwiB.s 			page 218


 9805 0000 90B5     		push	{r4, r7, lr}
 9806              		.cfi_def_cfa_offset 12
 9807              		.cfi_offset 4, -12
 9808              		.cfi_offset 7, -8
 9809              		.cfi_offset 14, -4
 9810 0002 85B0     		sub	sp, sp, #20
 9811              		.cfi_def_cfa_offset 32
 9812 0004 00AF     		add	r7, sp, #0
 9813              		.cfi_def_cfa_register 7
 9814 0006 7860     		str	r0, [r7, #4]
2518:.\AdvantageImpl.c ****     PPUMPTRANSACTIONJOBCONTEXTPTR pjob = (PPUMPTRANSACTIONJOBCONTEXTPTR)pparam;
 9815              		.loc 1 2518 0
 9816 0008 7B68     		ldr	r3, [r7, #4]
 9817 000a FB60     		str	r3, [r7, #12]
2519:.\AdvantageImpl.c ****     if(pjob)
 9818              		.loc 1 2519 0
 9819 000c FB68     		ldr	r3, [r7, #12]
 9820 000e 002B     		cmp	r3, #0
 9821 0010 00F01181 		beq	.L412
2520:.\AdvantageImpl.c ****     {
2521:.\AdvantageImpl.c ****         pjob->_ppump->_transhealth = _PUMP_OK_;
 9822              		.loc 1 2521 0
 9823 0014 FB68     		ldr	r3, [r7, #12]
 9824 0016 DB69     		ldr	r3, [r3, #28]
 9825 0018 0122     		movs	r2, #1
 9826 001a 1A76     		strb	r2, [r3, #24]
2522:.\AdvantageImpl.c ****         pjob->_ppump->_transtate = _PUMP_IDLE_;
 9827              		.loc 1 2522 0
 9828 001c FB68     		ldr	r3, [r7, #12]
 9829 001e DB69     		ldr	r3, [r3, #28]
 9830 0020 0222     		movs	r2, #2
 9831 0022 5A76     		strb	r2, [r3, #25]
2523:.\AdvantageImpl.c ****         
2524:.\AdvantageImpl.c ****         //If printing has been selected then post the print job
2525:.\AdvantageImpl.c ****         if(pjob->_ppump->_trasactionbuffer[GetBufferIndexFromDisplayID(DISPLAY_DESEA_IMPRIMIR_RECIB
 9832              		.loc 1 2525 0
 9833 0024 FB68     		ldr	r3, [r7, #12]
 9834 0026 DC69     		ldr	r4, [r3, #28]
 9835 0028 0B20     		movs	r0, #11
 9836 002a FFF7FEFF 		bl	GetBufferIndexFromDisplayID
 9837 002e 0346     		mov	r3, r0
 9838 0030 2344     		add	r3, r3, r4
 9839 0032 93F82030 		ldrb	r3, [r3, #32]	@ zero_extendqisi2
 9840 0036 392B     		cmp	r3, #57
 9841 0038 40F0FD80 		bne	.L412
 9842              	.LBB65:
2526:.\AdvantageImpl.c ****         {
2527:.\AdvantageImpl.c ****             _ALLOCATE_SINKMESSAGE_SLOT(psinkmsg);
 9843              		.loc 1 2527 0
 9844 003c FFF7FEFF 		bl	AllocateMessageSlot
 9845 0040 B860     		str	r0, [r7, #8]
2528:.\AdvantageImpl.c ****             if(psinkmsg)
 9846              		.loc 1 2528 0
 9847 0042 BB68     		ldr	r3, [r7, #8]
 9848 0044 002B     		cmp	r3, #0
 9849 0046 00F0F680 		beq	.L412
2529:.\AdvantageImpl.c ****             {
ARM GAS  C:\Users\RECEPC~1\AppData\Local\Temp\ccZZcwiB.s 			page 219


2530:.\AdvantageImpl.c ****                 switch(pjob->_ppump->_trasactionbuffer[GetBufferIndexFromDisplayID(DISPLAY_SIDE_DUM
 9850              		.loc 1 2530 0
 9851 004a FB68     		ldr	r3, [r7, #12]
 9852 004c DC69     		ldr	r4, [r3, #28]
 9853 004e FA20     		movs	r0, #250
 9854 0050 FFF7FEFF 		bl	GetBufferIndexFromDisplayID
 9855 0054 0346     		mov	r3, r0
 9856 0056 2344     		add	r3, r3, r4
 9857 0058 93F82030 		ldrb	r3, [r3, #32]	@ zero_extendqisi2
 9858 005c 002B     		cmp	r3, #0
 9859 005e 02D0     		beq	.L415
 9860 0060 012B     		cmp	r3, #1
 9861 0062 05D0     		beq	.L416
 9862 0064 09E0     		b	.L414
 9863              	.L415:
2531:.\AdvantageImpl.c ****                 {
2532:.\AdvantageImpl.c ****                     case DISPLAY1:
2533:.\AdvantageImpl.c ****                     psinkmsg->_messageid = _g_printerlayout._printerportside1;
 9864              		.loc 1 2533 0
 9865 0066 754B     		ldr	r3, .L421
 9866 0068 1A78     		ldrb	r2, [r3]	@ zero_extendqisi2
 9867 006a BB68     		ldr	r3, [r7, #8]
 9868 006c 5A70     		strb	r2, [r3, #1]
2534:.\AdvantageImpl.c ****                     break;
 9869              		.loc 1 2534 0
 9870 006e 04E0     		b	.L414
 9871              	.L416:
2535:.\AdvantageImpl.c ****                     case DISPLAY2:
2536:.\AdvantageImpl.c ****                     psinkmsg->_messageid = _g_printerlayout._printerportside2;
 9872              		.loc 1 2536 0
 9873 0070 724B     		ldr	r3, .L421
 9874 0072 5A78     		ldrb	r2, [r3, #1]	@ zero_extendqisi2
 9875 0074 BB68     		ldr	r3, [r7, #8]
 9876 0076 5A70     		strb	r2, [r3, #1]
2537:.\AdvantageImpl.c ****                     break;
 9877              		.loc 1 2537 0
 9878 0078 00BF     		nop
 9879              	.L414:
2538:.\AdvantageImpl.c ****                 }
2539:.\AdvantageImpl.c ****                 psinkmsg->_messagetype = DELAYEDALLINTERESTED;
 9880              		.loc 1 2539 0
 9881 007a BB68     		ldr	r3, [r7, #8]
 9882 007c 0522     		movs	r2, #5
 9883 007e 9A70     		strb	r2, [r3, #2]
2540:.\AdvantageImpl.c ****                 //Wait for 30 seconds before sending the command to the printer!
2541:.\AdvantageImpl.c ****                 //This will give some time to allow the remote peer (NSX) to respond with the appro
2542:.\AdvantageImpl.c ****                 if(_g_rfautorun._state == RF_AUTONOMOUS)
 9884              		.loc 1 2542 0
 9885 0080 6F4B     		ldr	r3, .L421+4
 9886 0082 1B78     		ldrb	r3, [r3]
 9887 0084 DBB2     		uxtb	r3, r3
 9888 0086 012B     		cmp	r3, #1
 9889 0088 04D1     		bne	.L417
2543:.\AdvantageImpl.c ****                     psinkmsg->_messagedelay = _SINK_TIMEOUT_1S_;
 9890              		.loc 1 2543 0
 9891 008a BB68     		ldr	r3, [r7, #8]
 9892 008c 4FF47A72 		mov	r2, #1000
ARM GAS  C:\Users\RECEPC~1\AppData\Local\Temp\ccZZcwiB.s 			page 220


 9893 0090 9A80     		strh	r2, [r3, #4]	@ movhi
 9894 0092 03E0     		b	.L418
 9895              	.L417:
2544:.\AdvantageImpl.c ****                 else
2545:.\AdvantageImpl.c ****                     psinkmsg->_messagedelay = _SINK_TIMEOUT_30S_;
 9896              		.loc 1 2545 0
 9897 0094 BB68     		ldr	r3, [r7, #8]
 9898 0096 47F23052 		movw	r2, #30000
 9899 009a 9A80     		strh	r2, [r3, #4]	@ movhi
 9900              	.L418:
2546:.\AdvantageImpl.c ****                 
2547:.\AdvantageImpl.c ****                 //PUMP POSITION GOES IN THE ARRAY INDEX 0X00 (SEE THE FILE "PRINTERBLL.C")
2548:.\AdvantageImpl.c ****                 psinkmsg->_buffer[0x00] = pjob->_ppump->_pumpid;
 9901              		.loc 1 2548 0
 9902 009c FB68     		ldr	r3, [r7, #12]
 9903 009e DB69     		ldr	r3, [r3, #28]
 9904 00a0 1A78     		ldrb	r2, [r3]	@ zero_extendqisi2
 9905 00a2 BB68     		ldr	r3, [r7, #8]
 9906 00a4 1A73     		strb	r2, [r3, #12]
2549:.\AdvantageImpl.c ****                 //PUMP HOSE TO SELECT THE PRODUCT NAME
2550:.\AdvantageImpl.c ****                 psinkmsg->_buffer[0x01] = pjob->_ppump->_authorizationinfo._hoseid;
 9907              		.loc 1 2550 0
 9908 00a6 FB68     		ldr	r3, [r7, #12]
 9909 00a8 DB69     		ldr	r3, [r3, #28]
 9910 00aa 93F8A239 		ldrb	r3, [r3, #2466]
 9911 00ae DAB2     		uxtb	r2, r3
 9912 00b0 BB68     		ldr	r3, [r7, #8]
 9913 00b2 5A73     		strb	r2, [r3, #13]
2551:.\AdvantageImpl.c ****                 psinkmsg->_buffer[0x02] = 0x06;//Six bytes for the price (PPU)
 9914              		.loc 1 2551 0
 9915 00b4 BB68     		ldr	r3, [r7, #8]
 9916 00b6 0622     		movs	r2, #6
 9917 00b8 9A73     		strb	r2, [r3, #14]
2552:.\AdvantageImpl.c ****                 memset(&psinkmsg->_buffer[0x03], 0x00, 0x08);
 9918              		.loc 1 2552 0
 9919 00ba BB68     		ldr	r3, [r7, #8]
 9920 00bc 0F33     		adds	r3, r3, #15
 9921 00be 1846     		mov	r0, r3
 9922 00c0 0021     		movs	r1, #0
 9923 00c2 0822     		movs	r2, #8
 9924 00c4 FFF7FEFF 		bl	memset
2553:.\AdvantageImpl.c ****                 
2554:.\AdvantageImpl.c ****                 if(_g_dispenserlayoutinfo._moneydecimals == 0x03 && _g_dispenserlayoutinfo._ppudeci
 9925              		.loc 1 2554 0
 9926 00c8 5E4B     		ldr	r3, .L421+8
 9927 00ca DB79     		ldrb	r3, [r3, #7]	@ zero_extendqisi2
 9928 00cc 032B     		cmp	r3, #3
 9929 00ce 19D1     		bne	.L419
 9930              		.loc 1 2554 0 is_stmt 0 discriminator 1
 9931 00d0 5C4B     		ldr	r3, .L421+8
 9932 00d2 1B7A     		ldrb	r3, [r3, #8]	@ zero_extendqisi2
 9933 00d4 022B     		cmp	r3, #2
 9934 00d6 15D1     		bne	.L419
2555:.\AdvantageImpl.c ****                     B78AD90CF552D9B30A(pjob->_ppump->_authorizationinfo._price * 10, PBYTECAST(&psi
 9935              		.loc 1 2555 0 is_stmt 1
 9936 00d8 FB68     		ldr	r3, [r7, #12]
 9937 00da DB69     		ldr	r3, [r3, #28]
ARM GAS  C:\Users\RECEPC~1\AppData\Local\Temp\ccZZcwiB.s 			page 221


 9938 00dc B3F8A439 		ldrh	r3, [r3, #2468]	@ movhi
 9939 00e0 9BB2     		uxth	r3, r3
 9940 00e2 1A46     		mov	r2, r3
 9941 00e4 1346     		mov	r3, r2
 9942 00e6 9B00     		lsls	r3, r3, #2
 9943 00e8 1344     		add	r3, r3, r2
 9944 00ea 5B00     		lsls	r3, r3, #1
 9945 00ec 1A46     		mov	r2, r3
 9946 00ee 4FEAE273 		asr	r3, r2, #31
 9947 00f2 B968     		ldr	r1, [r7, #8]
 9948 00f4 01F10F04 		add	r4, r1, #15
 9949 00f8 1046     		mov	r0, r2
 9950 00fa 1946     		mov	r1, r3
 9951 00fc 2246     		mov	r2, r4
 9952 00fe FFF7FEFF 		bl	B78AD90CF552D9B30A
 9953 0102 0FE0     		b	.L420
 9954              	.L419:
2556:.\AdvantageImpl.c ****                 else
2557:.\AdvantageImpl.c ****                     B78AD90CF552D9B30A(pjob->_ppump->_authorizationinfo._price, PBYTECAST(&psinkmsg
 9955              		.loc 1 2557 0
 9956 0104 FB68     		ldr	r3, [r7, #12]
 9957 0106 DB69     		ldr	r3, [r3, #28]
 9958 0108 B3F8A439 		ldrh	r3, [r3, #2468]	@ movhi
 9959 010c 9BB2     		uxth	r3, r3
 9960 010e 9AB2     		uxth	r2, r3
 9961 0110 4FF00003 		mov	r3, #0
 9962 0114 B968     		ldr	r1, [r7, #8]
 9963 0116 01F10F04 		add	r4, r1, #15
 9964 011a 1046     		mov	r0, r2
 9965 011c 1946     		mov	r1, r3
 9966 011e 2246     		mov	r2, r4
 9967 0120 FFF7FEFF 		bl	B78AD90CF552D9B30A
 9968              	.L420:
2558:.\AdvantageImpl.c ****                     
2559:.\AdvantageImpl.c ****                 psinkmsg->_buffer[0x09] = 0x08;//Eight bytes for the Volume
 9969              		.loc 1 2559 0
 9970 0124 BB68     		ldr	r3, [r7, #8]
 9971 0126 0822     		movs	r2, #8
 9972 0128 5A75     		strb	r2, [r3, #21]
2560:.\AdvantageImpl.c ****                 memset(&psinkmsg->_buffer[0x0A], 0x00, 0x08);
 9973              		.loc 1 2560 0
 9974 012a BB68     		ldr	r3, [r7, #8]
 9975 012c 1633     		adds	r3, r3, #22
 9976 012e 1846     		mov	r0, r3
 9977 0130 0021     		movs	r1, #0
 9978 0132 0822     		movs	r2, #8
 9979 0134 FFF7FEFF 		bl	memset
2561:.\AdvantageImpl.c ****                 B78AD90CF552D9B30A(pjob->_ppump->_authorizationinfo._volumeamount, PBYTECAST(&psink
 9980              		.loc 1 2561 0
 9981 0138 FB68     		ldr	r3, [r7, #12]
 9982 013a DB69     		ldr	r3, [r3, #28]
 9983 013c D3F8AC39 		ldr	r3, [r3, #2476]
 9984 0140 1A46     		mov	r2, r3
 9985 0142 4FF00003 		mov	r3, #0
 9986 0146 B968     		ldr	r1, [r7, #8]
 9987 0148 01F11604 		add	r4, r1, #22
 9988 014c 1046     		mov	r0, r2
ARM GAS  C:\Users\RECEPC~1\AppData\Local\Temp\ccZZcwiB.s 			page 222


 9989 014e 1946     		mov	r1, r3
 9990 0150 2246     		mov	r2, r4
 9991 0152 FFF7FEFF 		bl	B78AD90CF552D9B30A
2562:.\AdvantageImpl.c ****                 psinkmsg->_buffer[0x12] = 0x08;//Eight bytes for the Preset
 9992              		.loc 1 2562 0
 9993 0156 BB68     		ldr	r3, [r7, #8]
 9994 0158 0822     		movs	r2, #8
 9995 015a 9A77     		strb	r2, [r3, #30]
2563:.\AdvantageImpl.c ****                 memset(&psinkmsg->_buffer[0x13], 0x00, 0x08);
 9996              		.loc 1 2563 0
 9997 015c BB68     		ldr	r3, [r7, #8]
 9998 015e 1F33     		adds	r3, r3, #31
 9999 0160 1846     		mov	r0, r3
 10000 0162 0021     		movs	r1, #0
 10001 0164 0822     		movs	r2, #8
 10002 0166 FFF7FEFF 		bl	memset
2564:.\AdvantageImpl.c ****                 B78AD90CF552D9B30A(pjob->_ppump->_authorizationinfo._presetamount, PBYTECAST(&psink
 10003              		.loc 1 2564 0
 10004 016a FB68     		ldr	r3, [r7, #12]
 10005 016c DB69     		ldr	r3, [r3, #28]
 10006 016e D3F8A839 		ldr	r3, [r3, #2472]
 10007 0172 1A46     		mov	r2, r3
 10008 0174 4FF00003 		mov	r3, #0
 10009 0178 B968     		ldr	r1, [r7, #8]
 10010 017a 01F11F04 		add	r4, r1, #31
 10011 017e 1046     		mov	r0, r2
 10012 0180 1946     		mov	r1, r3
 10013 0182 2246     		mov	r2, r4
 10014 0184 FFF7FEFF 		bl	B78AD90CF552D9B30A
2565:.\AdvantageImpl.c ****                 
2566:.\AdvantageImpl.c ****                 //This is the transaction type (Cash: 0x0D / Credit: 0x0E). See the documentation t
2567:.\AdvantageImpl.c ****                 psinkmsg->_buffer[0x1B] = pjob->_ppump->_trasactionbuffer[GetBufferIndexFromDisplay
 10015              		.loc 1 2567 0
 10016 0188 FB68     		ldr	r3, [r7, #12]
 10017 018a DC69     		ldr	r4, [r3, #28]
 10018 018c 0420     		movs	r0, #4
 10019 018e FFF7FEFF 		bl	GetBufferIndexFromDisplayID
 10020 0192 0346     		mov	r3, r0
 10021 0194 2344     		add	r3, r3, r4
 10022 0196 93F82020 		ldrb	r2, [r3, #32]	@ zero_extendqisi2
 10023 019a BB68     		ldr	r3, [r7, #8]
 10024 019c 83F82720 		strb	r2, [r3, #39]
2568:.\AdvantageImpl.c ****                 
2569:.\AdvantageImpl.c ****                 //This means "N/A". This will be printed once the timeout has expired and no invoic
2570:.\AdvantageImpl.c ****                 //has been received
2571:.\AdvantageImpl.c ****                 psinkmsg->_buffer[0x20] = 0x4E;
 10025              		.loc 1 2571 0
 10026 01a0 BB68     		ldr	r3, [r7, #8]
 10027 01a2 4E22     		movs	r2, #78
 10028 01a4 83F82C20 		strb	r2, [r3, #44]
2572:.\AdvantageImpl.c ****                 psinkmsg->_buffer[0x21] = 0x2F;
 10029              		.loc 1 2572 0
 10030 01a8 BB68     		ldr	r3, [r7, #8]
 10031 01aa 2F22     		movs	r2, #47
 10032 01ac 83F82D20 		strb	r2, [r3, #45]
2573:.\AdvantageImpl.c ****                 psinkmsg->_buffer[0x22] = 0x41;
 10033              		.loc 1 2573 0
ARM GAS  C:\Users\RECEPC~1\AppData\Local\Temp\ccZZcwiB.s 			page 223


 10034 01b0 BB68     		ldr	r3, [r7, #8]
 10035 01b2 4122     		movs	r2, #65
 10036 01b4 83F82E20 		strb	r2, [r3, #46]
2574:.\AdvantageImpl.c ****                 //Car's plate
2575:.\AdvantageImpl.c ****                 psinkmsg->_buffer[0x2A] = 0x4E;
 10037              		.loc 1 2575 0
 10038 01b8 BB68     		ldr	r3, [r7, #8]
 10039 01ba 4E22     		movs	r2, #78
 10040 01bc 83F83620 		strb	r2, [r3, #54]
2576:.\AdvantageImpl.c ****                 psinkmsg->_buffer[0x2B] = 0x2F;
 10041              		.loc 1 2576 0
 10042 01c0 BB68     		ldr	r3, [r7, #8]
 10043 01c2 2F22     		movs	r2, #47
 10044 01c4 83F83720 		strb	r2, [r3, #55]
2577:.\AdvantageImpl.c ****                 psinkmsg->_buffer[0x2C] = 0x41;
 10045              		.loc 1 2577 0
 10046 01c8 BB68     		ldr	r3, [r7, #8]
 10047 01ca 4122     		movs	r2, #65
 10048 01cc 83F83820 		strb	r2, [r3, #56]
2578:.\AdvantageImpl.c ****                 //Balance
2579:.\AdvantageImpl.c ****                 psinkmsg->_buffer[0x32] = 0x4E;
 10049              		.loc 1 2579 0
 10050 01d0 BB68     		ldr	r3, [r7, #8]
 10051 01d2 4E22     		movs	r2, #78
 10052 01d4 83F83E20 		strb	r2, [r3, #62]
2580:.\AdvantageImpl.c ****                 psinkmsg->_buffer[0x33] = 0x2F;
 10053              		.loc 1 2580 0
 10054 01d8 BB68     		ldr	r3, [r7, #8]
 10055 01da 2F22     		movs	r2, #47
 10056 01dc 83F83F20 		strb	r2, [r3, #63]
2581:.\AdvantageImpl.c ****                 psinkmsg->_buffer[0x34] = 0x41;
 10057              		.loc 1 2581 0
 10058 01e0 BB68     		ldr	r3, [r7, #8]
 10059 01e2 4122     		movs	r2, #65
 10060 01e4 83F84020 		strb	r2, [r3, #64]
2582:.\AdvantageImpl.c ****                 //Company
2583:.\AdvantageImpl.c ****                 psinkmsg->_buffer[0x3C] = 0x4E;
 10061              		.loc 1 2583 0
 10062 01e8 BB68     		ldr	r3, [r7, #8]
 10063 01ea 4E22     		movs	r2, #78
 10064 01ec 83F84820 		strb	r2, [r3, #72]
2584:.\AdvantageImpl.c ****                 psinkmsg->_buffer[0x3D] = 0x2F;
 10065              		.loc 1 2584 0
 10066 01f0 BB68     		ldr	r3, [r7, #8]
 10067 01f2 2F22     		movs	r2, #47
 10068 01f4 83F84920 		strb	r2, [r3, #73]
2585:.\AdvantageImpl.c ****                 psinkmsg->_buffer[0x3E] = 0x41;
 10069              		.loc 1 2585 0
 10070 01f8 BB68     		ldr	r3, [r7, #8]
 10071 01fa 4122     		movs	r2, #65
 10072 01fc 83F84A20 		strb	r2, [r3, #74]
2586:.\AdvantageImpl.c ****                 //Account Name
2587:.\AdvantageImpl.c ****                 psinkmsg->_buffer[0x50] = 0x4E;
 10073              		.loc 1 2587 0
 10074 0200 BB68     		ldr	r3, [r7, #8]
 10075 0202 4E22     		movs	r2, #78
 10076 0204 83F85C20 		strb	r2, [r3, #92]
ARM GAS  C:\Users\RECEPC~1\AppData\Local\Temp\ccZZcwiB.s 			page 224


2588:.\AdvantageImpl.c ****                 psinkmsg->_buffer[0x51] = 0x2F;
 10077              		.loc 1 2588 0
 10078 0208 BB68     		ldr	r3, [r7, #8]
 10079 020a 2F22     		movs	r2, #47
 10080 020c 83F85D20 		strb	r2, [r3, #93]
2589:.\AdvantageImpl.c ****                 psinkmsg->_buffer[0x52] = 0x41;
 10081              		.loc 1 2589 0
 10082 0210 BB68     		ldr	r3, [r7, #8]
 10083 0212 4122     		movs	r2, #65
 10084 0214 83F85E20 		strb	r2, [r3, #94]
2590:.\AdvantageImpl.c ****                 //Daily Visits
2591:.\AdvantageImpl.c ****                 psinkmsg->_buffer[0x64] = 0x00;
 10085              		.loc 1 2591 0
 10086 0218 BB68     		ldr	r3, [r7, #8]
 10087 021a 0022     		movs	r2, #0
 10088 021c 83F87020 		strb	r2, [r3, #112]
2592:.\AdvantageImpl.c ****                 //Weekly Visits
2593:.\AdvantageImpl.c ****                 psinkmsg->_buffer[0x65] = 0x00;
 10089              		.loc 1 2593 0
 10090 0220 BB68     		ldr	r3, [r7, #8]
 10091 0222 0022     		movs	r2, #0
 10092 0224 83F87120 		strb	r2, [r3, #113]
2594:.\AdvantageImpl.c ****                 //Monthly Visits
2595:.\AdvantageImpl.c ****                 psinkmsg->_buffer[0x66] = 0x00;
 10093              		.loc 1 2595 0
 10094 0228 BB68     		ldr	r3, [r7, #8]
 10095 022a 0022     		movs	r2, #0
 10096 022c 83F87220 		strb	r2, [r3, #114]
2596:.\AdvantageImpl.c **** 
2597:.\AdvantageImpl.c ****                 psinkmsg->_messagestate = SINK_BUSY;
 10097              		.loc 1 2597 0
 10098 0230 BB68     		ldr	r3, [r7, #8]
 10099 0232 0322     		movs	r2, #3
 10100 0234 DA70     		strb	r2, [r3, #3]
 10101              	.L412:
 10102              	.LBE65:
2598:.\AdvantageImpl.c ****             }   
2599:.\AdvantageImpl.c ****             
2600:.\AdvantageImpl.c ****         }        
2601:.\AdvantageImpl.c ****     }
2602:.\AdvantageImpl.c **** }
 10103              		.loc 1 2602 0
 10104 0236 1437     		adds	r7, r7, #20
 10105              		.cfi_def_cfa_offset 12
 10106 0238 BD46     		mov	sp, r7
 10107              		.cfi_def_cfa_register 13
 10108              		@ sp needed
 10109 023a 90BD     		pop	{r4, r7, pc}
 10110              	.L422:
 10111              		.align	2
 10112              	.L421:
 10113 023c 00000000 		.word	_g_printerlayout
 10114 0240 00000000 		.word	_g_rfautorun
 10115 0244 00000000 		.word	_g_dispenserlayoutinfo
 10116              		.cfi_endproc
 10117              	.LFE105:
 10118              		.size	TerminateTransactionAndPrint, .-TerminateTransactionAndPrint
ARM GAS  C:\Users\RECEPC~1\AppData\Local\Temp\ccZZcwiB.s 			page 225


 10119              		.section	.text.CastVolumeValue,"ax",%progbits
 10120              		.align	2
 10121              		.global	CastVolumeValue
 10122              		.thumb
 10123              		.thumb_func
 10124              		.type	CastVolumeValue, %function
 10125              	CastVolumeValue:
 10126              	.LFB106:
2603:.\AdvantageImpl.c **** 
2604:.\AdvantageImpl.c **** //@Created by: HIJH
2605:.\AdvantageImpl.c **** //@Date: Septembre de 2016
2606:.\AdvantageImpl.c **** //This method arranges the PRESET buffer when this is a "Volume PRESET".
2607:.\AdvantageImpl.c **** //Volume PRESETS must be multiplied by 1000
2608:.\AdvantageImpl.c **** void CastVolumeValue(char8 *pbuffer, uint8 buffersize)
2609:.\AdvantageImpl.c **** {
 10127              		.loc 1 2609 0
 10128              		.cfi_startproc
 10129              		@ args = 0, pretend = 0, frame = 16
 10130              		@ frame_needed = 1, uses_anonymous_args = 0
 10131              		@ link register save eliminated.
 10132 0000 80B4     		push	{r7}
 10133              		.cfi_def_cfa_offset 4
 10134              		.cfi_offset 7, -4
 10135 0002 85B0     		sub	sp, sp, #20
 10136              		.cfi_def_cfa_offset 24
 10137 0004 00AF     		add	r7, sp, #0
 10138              		.cfi_def_cfa_register 7
 10139 0006 7860     		str	r0, [r7, #4]
 10140 0008 0B46     		mov	r3, r1
 10141 000a FB70     		strb	r3, [r7, #3]
2610:.\AdvantageImpl.c ****     uint8 delimiterindex = 0x00;
 10142              		.loc 1 2610 0
 10143 000c 0023     		movs	r3, #0
 10144 000e FB73     		strb	r3, [r7, #15]
2611:.\AdvantageImpl.c ****     bool shiftbydelimiter = false;
 10145              		.loc 1 2611 0
 10146 0010 0023     		movs	r3, #0
 10147 0012 BB73     		strb	r3, [r7, #14]
2612:.\AdvantageImpl.c ****     //If there is a "Comma" inside of the buffer, then just remove it before and count this for the
2613:.\AdvantageImpl.c ****     FOR(int8 index = (buffersize - 1), index > 0, index--)
 10148              		.loc 1 2613 0
 10149 0014 FB78     		ldrb	r3, [r7, #3]
 10150 0016 013B     		subs	r3, r3, #1
 10151 0018 DBB2     		uxtb	r3, r3
 10152 001a 7B73     		strb	r3, [r7, #13]
 10153 001c 2CE0     		b	.L424
 10154              	.L428:
2614:.\AdvantageImpl.c ****     {
2615:.\AdvantageImpl.c ****         if(pbuffer[index] == 0x2C && !shiftbydelimiter)
 10155              		.loc 1 2615 0
 10156 001e 97F90D30 		ldrsb	r3, [r7, #13]
 10157 0022 7A68     		ldr	r2, [r7, #4]
 10158 0024 1344     		add	r3, r3, r2
 10159 0026 1B78     		ldrb	r3, [r3]	@ zero_extendqisi2
 10160 0028 2C2B     		cmp	r3, #44
 10161 002a 07D1     		bne	.L425
 10162              		.loc 1 2615 0 is_stmt 0 discriminator 1
ARM GAS  C:\Users\RECEPC~1\AppData\Local\Temp\ccZZcwiB.s 			page 226


 10163 002c BB7B     		ldrb	r3, [r7, #14]
 10164 002e 83F00103 		eor	r3, r3, #1
 10165 0032 DBB2     		uxtb	r3, r3
 10166 0034 002B     		cmp	r3, #0
 10167 0036 01D0     		beq	.L425
2616:.\AdvantageImpl.c ****             shiftbydelimiter = true;
 10168              		.loc 1 2616 0 is_stmt 1
 10169 0038 0123     		movs	r3, #1
 10170 003a BB73     		strb	r3, [r7, #14]
 10171              	.L425:
2617:.\AdvantageImpl.c **** 
2618:.\AdvantageImpl.c ****         if(shiftbydelimiter)
 10172              		.loc 1 2618 0
 10173 003c BB7B     		ldrb	r3, [r7, #14]	@ zero_extendqisi2
 10174 003e 002B     		cmp	r3, #0
 10175 0040 12D0     		beq	.L426
2619:.\AdvantageImpl.c ****         {
2620:.\AdvantageImpl.c ****             pbuffer[index] = pbuffer[index - 1];
 10176              		.loc 1 2620 0
 10177 0042 97F90D30 		ldrsb	r3, [r7, #13]
 10178 0046 7A68     		ldr	r2, [r7, #4]
 10179 0048 1344     		add	r3, r3, r2
 10180 004a 97F90D20 		ldrsb	r2, [r7, #13]
 10181 004e 013A     		subs	r2, r2, #1
 10182 0050 7968     		ldr	r1, [r7, #4]
 10183 0052 0A44     		add	r2, r2, r1
 10184 0054 1278     		ldrb	r2, [r2]	@ zero_extendqisi2
 10185 0056 1A70     		strb	r2, [r3]
2621:.\AdvantageImpl.c ****             pbuffer[index - 1] = 0x00;
 10186              		.loc 1 2621 0
 10187 0058 97F90D30 		ldrsb	r3, [r7, #13]
 10188 005c 013B     		subs	r3, r3, #1
 10189 005e 7A68     		ldr	r2, [r7, #4]
 10190 0060 1344     		add	r3, r3, r2
 10191 0062 0022     		movs	r2, #0
 10192 0064 1A70     		strb	r2, [r3]
 10193 0066 02E0     		b	.L427
 10194              	.L426:
2622:.\AdvantageImpl.c ****         }else
2623:.\AdvantageImpl.c ****             delimiterindex++;
 10195              		.loc 1 2623 0
 10196 0068 FB7B     		ldrb	r3, [r7, #15]	@ zero_extendqisi2
 10197 006a 0133     		adds	r3, r3, #1
 10198 006c FB73     		strb	r3, [r7, #15]
 10199              	.L427:
2613:.\AdvantageImpl.c ****     {
 10200              		.loc 1 2613 0 discriminator 2
 10201 006e 7B7B     		ldrb	r3, [r7, #13]	@ zero_extendqisi2
 10202 0070 DBB2     		uxtb	r3, r3
 10203 0072 013B     		subs	r3, r3, #1
 10204 0074 DBB2     		uxtb	r3, r3
 10205 0076 7B73     		strb	r3, [r7, #13]
 10206              	.L424:
2613:.\AdvantageImpl.c ****     {
 10207              		.loc 1 2613 0 is_stmt 0 discriminator 1
 10208 0078 97F90D30 		ldrsb	r3, [r7, #13]
 10209 007c 002B     		cmp	r3, #0
ARM GAS  C:\Users\RECEPC~1\AppData\Local\Temp\ccZZcwiB.s 			page 227


 10210 007e CEDC     		bgt	.L428
2624:.\AdvantageImpl.c ****         
2625:.\AdvantageImpl.c ****     }
2626:.\AdvantageImpl.c ****     if(!shiftbydelimiter)
 10211              		.loc 1 2626 0 is_stmt 1
 10212 0080 BB7B     		ldrb	r3, [r7, #14]
 10213 0082 83F00103 		eor	r3, r3, #1
 10214 0086 DBB2     		uxtb	r3, r3
 10215 0088 002B     		cmp	r3, #0
 10216 008a 01D0     		beq	.L429
2627:.\AdvantageImpl.c ****         delimiterindex = 0x00;
 10217              		.loc 1 2627 0
 10218 008c 0023     		movs	r3, #0
 10219 008e FB73     		strb	r3, [r7, #15]
 10220              	.L429:
2628:.\AdvantageImpl.c ****     
2629:.\AdvantageImpl.c ****     int8 shiftcount = (delimiterindex - ((_g_dispenserlayoutinfo._displaydigitsmode == 0x06)?_g_dis
 10221              		.loc 1 2629 0
 10222 0090 374B     		ldr	r3, .L442
 10223 0092 1B7C     		ldrb	r3, [r3, #16]	@ zero_extendqisi2
 10224 0094 062B     		cmp	r3, #6
 10225 0096 04D1     		bne	.L430
 10226              		.loc 1 2629 0 is_stmt 0 discriminator 1
 10227 0098 354B     		ldr	r3, .L442
 10228 009a 5B7A     		ldrb	r3, [r3, #9]	@ zero_extendqisi2
 10229 009c 013B     		subs	r3, r3, #1
 10230 009e DBB2     		uxtb	r3, r3
 10231 00a0 01E0     		b	.L431
 10232              	.L430:
 10233              		.loc 1 2629 0 discriminator 2
 10234 00a2 334B     		ldr	r3, .L442
 10235 00a4 5B7A     		ldrb	r3, [r3, #9]	@ zero_extendqisi2
 10236              	.L431:
 10237              		.loc 1 2629 0 discriminator 4
 10238 00a6 FA7B     		ldrb	r2, [r7, #15]
 10239 00a8 D31A     		subs	r3, r2, r3
 10240 00aa DBB2     		uxtb	r3, r3
 10241 00ac 3B73     		strb	r3, [r7, #12]
2630:.\AdvantageImpl.c ****     //8 is the size of the allocated buffer space for the preset values according to the protocol.
2631:.\AdvantageImpl.c ****     //The real buffer size allocated from the display side is 16 bytes. The buffer will be cast fro
2632:.\AdvantageImpl.c ****     //the end to the beginning, so the startup index has been calculated "explicitly", this is (8 -
2633:.\AdvantageImpl.c ****     //To multiply by 1000 we need to shift the entire buffer three bytes to shift the comma, so we
2634:.\AdvantageImpl.c ****     //will subtract 3 bytes to the starting position in order to make the shifting.
2635:.\AdvantageImpl.c ****     if(shiftcount > 0)
 10242              		.loc 1 2635 0 is_stmt 1 discriminator 4
 10243 00ae 97F90C30 		ldrsb	r3, [r7, #12]
 10244 00b2 002B     		cmp	r3, #0
 10245 00b4 29DD     		ble	.L432
2636:.\AdvantageImpl.c ****     {
2637:.\AdvantageImpl.c ****         while(shiftcount > 0)
 10246              		.loc 1 2637 0
 10247 00b6 23E0     		b	.L433
 10248              	.L436:
2638:.\AdvantageImpl.c ****         {
2639:.\AdvantageImpl.c ****             FOR(index = (buffersize - 1), index > 0, index--)
 10249              		.loc 1 2639 0
 10250 00b8 FB78     		ldrb	r3, [r7, #3]
ARM GAS  C:\Users\RECEPC~1\AppData\Local\Temp\ccZZcwiB.s 			page 228


 10251 00ba 013B     		subs	r3, r3, #1
 10252 00bc DBB2     		uxtb	r3, r3
 10253 00be 7B73     		strb	r3, [r7, #13]
 10254 00c0 15E0     		b	.L434
 10255              	.L435:
2640:.\AdvantageImpl.c ****             {
2641:.\AdvantageImpl.c ****                 pbuffer[index] = pbuffer[index - 1];
 10256              		.loc 1 2641 0 discriminator 3
 10257 00c2 97F90D30 		ldrsb	r3, [r7, #13]
 10258 00c6 7A68     		ldr	r2, [r7, #4]
 10259 00c8 1344     		add	r3, r3, r2
 10260 00ca 97F90D20 		ldrsb	r2, [r7, #13]
 10261 00ce 013A     		subs	r2, r2, #1
 10262 00d0 7968     		ldr	r1, [r7, #4]
 10263 00d2 0A44     		add	r2, r2, r1
 10264 00d4 1278     		ldrb	r2, [r2]	@ zero_extendqisi2
 10265 00d6 1A70     		strb	r2, [r3]
2642:.\AdvantageImpl.c ****                 pbuffer[index] = 0x00;
 10266              		.loc 1 2642 0 discriminator 3
 10267 00d8 97F90D30 		ldrsb	r3, [r7, #13]
 10268 00dc 7A68     		ldr	r2, [r7, #4]
 10269 00de 1344     		add	r3, r3, r2
 10270 00e0 0022     		movs	r2, #0
 10271 00e2 1A70     		strb	r2, [r3]
2639:.\AdvantageImpl.c ****             {
 10272              		.loc 1 2639 0 discriminator 3
 10273 00e4 7B7B     		ldrb	r3, [r7, #13]	@ zero_extendqisi2
 10274 00e6 DBB2     		uxtb	r3, r3
 10275 00e8 013B     		subs	r3, r3, #1
 10276 00ea DBB2     		uxtb	r3, r3
 10277 00ec 7B73     		strb	r3, [r7, #13]
 10278              	.L434:
2639:.\AdvantageImpl.c ****             {
 10279              		.loc 1 2639 0 is_stmt 0 discriminator 1
 10280 00ee 97F90D30 		ldrsb	r3, [r7, #13]
 10281 00f2 002B     		cmp	r3, #0
 10282 00f4 E5DC     		bgt	.L435
2643:.\AdvantageImpl.c ****             }
2644:.\AdvantageImpl.c ****             shiftcount--;
 10283              		.loc 1 2644 0 is_stmt 1
 10284 00f6 3B7B     		ldrb	r3, [r7, #12]	@ zero_extendqisi2
 10285 00f8 DBB2     		uxtb	r3, r3
 10286 00fa 013B     		subs	r3, r3, #1
 10287 00fc DBB2     		uxtb	r3, r3
 10288 00fe 3B73     		strb	r3, [r7, #12]
 10289              	.L433:
2637:.\AdvantageImpl.c ****         {
 10290              		.loc 1 2637 0
 10291 0100 97F90C30 		ldrsb	r3, [r7, #12]
 10292 0104 002B     		cmp	r3, #0
 10293 0106 D7DC     		bgt	.L436
 10294 0108 2DE0     		b	.L423
 10295              	.L432:
2645:.\AdvantageImpl.c ****         }
2646:.\AdvantageImpl.c ****     }
2647:.\AdvantageImpl.c ****     else if(shiftcount < 0)
 10296              		.loc 1 2647 0
ARM GAS  C:\Users\RECEPC~1\AppData\Local\Temp\ccZZcwiB.s 			page 229


 10297 010a 97F90C30 		ldrsb	r3, [r7, #12]
 10298 010e 002B     		cmp	r3, #0
 10299 0110 29DA     		bge	.L423
2648:.\AdvantageImpl.c ****     {
2649:.\AdvantageImpl.c ****         while(shiftcount < 0)
 10300              		.loc 1 2649 0
 10301 0112 24E0     		b	.L438
 10302              	.L441:
2650:.\AdvantageImpl.c ****         {
2651:.\AdvantageImpl.c ****             FOR(index = 0, index < (buffersize  - 1), index++)
 10303              		.loc 1 2651 0
 10304 0114 0023     		movs	r3, #0
 10305 0116 7B73     		strb	r3, [r7, #13]
 10306 0118 16E0     		b	.L439
 10307              	.L440:
2652:.\AdvantageImpl.c ****             {
2653:.\AdvantageImpl.c ****                 pbuffer[index] = pbuffer[index + 1];
 10308              		.loc 1 2653 0 discriminator 3
 10309 011a 97F90D30 		ldrsb	r3, [r7, #13]
 10310 011e 7A68     		ldr	r2, [r7, #4]
 10311 0120 1344     		add	r3, r3, r2
 10312 0122 97F90D20 		ldrsb	r2, [r7, #13]
 10313 0126 0132     		adds	r2, r2, #1
 10314 0128 7968     		ldr	r1, [r7, #4]
 10315 012a 0A44     		add	r2, r2, r1
 10316 012c 1278     		ldrb	r2, [r2]	@ zero_extendqisi2
 10317 012e 1A70     		strb	r2, [r3]
2654:.\AdvantageImpl.c ****                 pbuffer[index + 1] = 0x30;
 10318              		.loc 1 2654 0 discriminator 3
 10319 0130 97F90D30 		ldrsb	r3, [r7, #13]
 10320 0134 0133     		adds	r3, r3, #1
 10321 0136 7A68     		ldr	r2, [r7, #4]
 10322 0138 1344     		add	r3, r3, r2
 10323 013a 3022     		movs	r2, #48
 10324 013c 1A70     		strb	r2, [r3]
2651:.\AdvantageImpl.c ****             {
 10325              		.loc 1 2651 0 discriminator 3
 10326 013e 7B7B     		ldrb	r3, [r7, #13]	@ zero_extendqisi2
 10327 0140 DBB2     		uxtb	r3, r3
 10328 0142 0133     		adds	r3, r3, #1
 10329 0144 DBB2     		uxtb	r3, r3
 10330 0146 7B73     		strb	r3, [r7, #13]
 10331              	.L439:
2651:.\AdvantageImpl.c ****             {
 10332              		.loc 1 2651 0 is_stmt 0 discriminator 1
 10333 0148 97F90D20 		ldrsb	r2, [r7, #13]
 10334 014c FB78     		ldrb	r3, [r7, #3]	@ zero_extendqisi2
 10335 014e 013B     		subs	r3, r3, #1
 10336 0150 9A42     		cmp	r2, r3
 10337 0152 E2DB     		blt	.L440
2655:.\AdvantageImpl.c ****             }
2656:.\AdvantageImpl.c ****             shiftcount++;
 10338              		.loc 1 2656 0 is_stmt 1
 10339 0154 3B7B     		ldrb	r3, [r7, #12]	@ zero_extendqisi2
 10340 0156 DBB2     		uxtb	r3, r3
 10341 0158 0133     		adds	r3, r3, #1
 10342 015a DBB2     		uxtb	r3, r3
ARM GAS  C:\Users\RECEPC~1\AppData\Local\Temp\ccZZcwiB.s 			page 230


 10343 015c 3B73     		strb	r3, [r7, #12]
 10344              	.L438:
2649:.\AdvantageImpl.c ****         {
 10345              		.loc 1 2649 0
 10346 015e 97F90C30 		ldrsb	r3, [r7, #12]
 10347 0162 002B     		cmp	r3, #0
 10348 0164 D6DB     		blt	.L441
 10349              	.L423:
2657:.\AdvantageImpl.c ****         }
2658:.\AdvantageImpl.c ****     }
2659:.\AdvantageImpl.c **** }
 10350              		.loc 1 2659 0
 10351 0166 1437     		adds	r7, r7, #20
 10352              		.cfi_def_cfa_offset 4
 10353 0168 BD46     		mov	sp, r7
 10354              		.cfi_def_cfa_register 13
 10355              		@ sp needed
 10356 016a 5DF8047B 		ldr	r7, [sp], #4
 10357              		.cfi_restore 7
 10358              		.cfi_def_cfa_offset 0
 10359 016e 7047     		bx	lr
 10360              	.L443:
 10361              		.align	2
 10362              	.L442:
 10363 0170 00000000 		.word	_g_dispenserlayoutinfo
 10364              		.cfi_endproc
 10365              	.LFE106:
 10366              		.size	CastVolumeValue, .-CastVolumeValue
 10367              		.section	.text.CastMoneyValue,"ax",%progbits
 10368              		.align	2
 10369              		.global	CastMoneyValue
 10370              		.thumb
 10371              		.thumb_func
 10372              		.type	CastMoneyValue, %function
 10373              	CastMoneyValue:
 10374              	.LFB107:
2660:.\AdvantageImpl.c **** 
2661:.\AdvantageImpl.c **** //@Created by: HIJH
2662:.\AdvantageImpl.c **** //@Date: Septembre de 2016
2663:.\AdvantageImpl.c **** //This method arranges the PRESET buffer when this is a "Money PRESET".
2664:.\AdvantageImpl.c **** void CastMoneyValue(char8 *pbuffer, uint8 buffersize)
2665:.\AdvantageImpl.c **** {
 10375              		.loc 1 2665 0
 10376              		.cfi_startproc
 10377              		@ args = 0, pretend = 0, frame = 16
 10378              		@ frame_needed = 1, uses_anonymous_args = 0
 10379              		@ link register save eliminated.
 10380 0000 80B4     		push	{r7}
 10381              		.cfi_def_cfa_offset 4
 10382              		.cfi_offset 7, -4
 10383 0002 85B0     		sub	sp, sp, #20
 10384              		.cfi_def_cfa_offset 24
 10385 0004 00AF     		add	r7, sp, #0
 10386              		.cfi_def_cfa_register 7
 10387 0006 7860     		str	r0, [r7, #4]
 10388 0008 0B46     		mov	r3, r1
 10389 000a FB70     		strb	r3, [r7, #3]
ARM GAS  C:\Users\RECEPC~1\AppData\Local\Temp\ccZZcwiB.s 			page 231


2666:.\AdvantageImpl.c ****     uint8 delimiterindex = 0x00;
 10390              		.loc 1 2666 0
 10391 000c 0023     		movs	r3, #0
 10392 000e FB73     		strb	r3, [r7, #15]
2667:.\AdvantageImpl.c ****     bool shiftbydelimiter = false;
 10393              		.loc 1 2667 0
 10394 0010 0023     		movs	r3, #0
 10395 0012 BB73     		strb	r3, [r7, #14]
2668:.\AdvantageImpl.c ****     //If there is a "Comma" inside of the buffer, then just remove it before and count this for the
2669:.\AdvantageImpl.c ****     FOR(int8 index = (buffersize - 1), index > 0, index--)
 10396              		.loc 1 2669 0
 10397 0014 FB78     		ldrb	r3, [r7, #3]
 10398 0016 013B     		subs	r3, r3, #1
 10399 0018 DBB2     		uxtb	r3, r3
 10400 001a 7B73     		strb	r3, [r7, #13]
 10401 001c 2CE0     		b	.L445
 10402              	.L449:
2670:.\AdvantageImpl.c ****     {
2671:.\AdvantageImpl.c ****         if(pbuffer[index] == 0x2C && !shiftbydelimiter)
 10403              		.loc 1 2671 0
 10404 001e 97F90D30 		ldrsb	r3, [r7, #13]
 10405 0022 7A68     		ldr	r2, [r7, #4]
 10406 0024 1344     		add	r3, r3, r2
 10407 0026 1B78     		ldrb	r3, [r3]	@ zero_extendqisi2
 10408 0028 2C2B     		cmp	r3, #44
 10409 002a 07D1     		bne	.L446
 10410              		.loc 1 2671 0 is_stmt 0 discriminator 1
 10411 002c BB7B     		ldrb	r3, [r7, #14]
 10412 002e 83F00103 		eor	r3, r3, #1
 10413 0032 DBB2     		uxtb	r3, r3
 10414 0034 002B     		cmp	r3, #0
 10415 0036 01D0     		beq	.L446
2672:.\AdvantageImpl.c ****             shiftbydelimiter = true;
 10416              		.loc 1 2672 0 is_stmt 1
 10417 0038 0123     		movs	r3, #1
 10418 003a BB73     		strb	r3, [r7, #14]
 10419              	.L446:
2673:.\AdvantageImpl.c **** 
2674:.\AdvantageImpl.c ****         if(shiftbydelimiter)
 10420              		.loc 1 2674 0
 10421 003c BB7B     		ldrb	r3, [r7, #14]	@ zero_extendqisi2
 10422 003e 002B     		cmp	r3, #0
 10423 0040 12D0     		beq	.L447
2675:.\AdvantageImpl.c ****         {
2676:.\AdvantageImpl.c ****             pbuffer[index] = pbuffer[index - 1];
 10424              		.loc 1 2676 0
 10425 0042 97F90D30 		ldrsb	r3, [r7, #13]
 10426 0046 7A68     		ldr	r2, [r7, #4]
 10427 0048 1344     		add	r3, r3, r2
 10428 004a 97F90D20 		ldrsb	r2, [r7, #13]
 10429 004e 013A     		subs	r2, r2, #1
 10430 0050 7968     		ldr	r1, [r7, #4]
 10431 0052 0A44     		add	r2, r2, r1
 10432 0054 1278     		ldrb	r2, [r2]	@ zero_extendqisi2
 10433 0056 1A70     		strb	r2, [r3]
2677:.\AdvantageImpl.c ****             pbuffer[index - 1] = 0x00;
 10434              		.loc 1 2677 0
ARM GAS  C:\Users\RECEPC~1\AppData\Local\Temp\ccZZcwiB.s 			page 232


 10435 0058 97F90D30 		ldrsb	r3, [r7, #13]
 10436 005c 013B     		subs	r3, r3, #1
 10437 005e 7A68     		ldr	r2, [r7, #4]
 10438 0060 1344     		add	r3, r3, r2
 10439 0062 0022     		movs	r2, #0
 10440 0064 1A70     		strb	r2, [r3]
 10441 0066 02E0     		b	.L448
 10442              	.L447:
2678:.\AdvantageImpl.c ****         }else
2679:.\AdvantageImpl.c ****             delimiterindex++;
 10443              		.loc 1 2679 0
 10444 0068 FB7B     		ldrb	r3, [r7, #15]	@ zero_extendqisi2
 10445 006a 0133     		adds	r3, r3, #1
 10446 006c FB73     		strb	r3, [r7, #15]
 10447              	.L448:
2669:.\AdvantageImpl.c ****     {
 10448              		.loc 1 2669 0 discriminator 2
 10449 006e 7B7B     		ldrb	r3, [r7, #13]	@ zero_extendqisi2
 10450 0070 DBB2     		uxtb	r3, r3
 10451 0072 013B     		subs	r3, r3, #1
 10452 0074 DBB2     		uxtb	r3, r3
 10453 0076 7B73     		strb	r3, [r7, #13]
 10454              	.L445:
2669:.\AdvantageImpl.c ****     {
 10455              		.loc 1 2669 0 is_stmt 0 discriminator 1
 10456 0078 97F90D30 		ldrsb	r3, [r7, #13]
 10457 007c 002B     		cmp	r3, #0
 10458 007e CEDC     		bgt	.L449
2680:.\AdvantageImpl.c ****         
2681:.\AdvantageImpl.c ****     }
2682:.\AdvantageImpl.c ****     if(!shiftbydelimiter)
 10459              		.loc 1 2682 0 is_stmt 1
 10460 0080 BB7B     		ldrb	r3, [r7, #14]
 10461 0082 83F00103 		eor	r3, r3, #1
 10462 0086 DBB2     		uxtb	r3, r3
 10463 0088 002B     		cmp	r3, #0
 10464 008a 01D0     		beq	.L450
2683:.\AdvantageImpl.c ****         delimiterindex = 0x00;
 10465              		.loc 1 2683 0
 10466 008c 0023     		movs	r3, #0
 10467 008e FB73     		strb	r3, [r7, #15]
 10468              	.L450:
2684:.\AdvantageImpl.c ****     
2685:.\AdvantageImpl.c ****     int8 shiftcount = (delimiterindex - _g_dispenserlayoutinfo._moneydecimals);
 10469              		.loc 1 2685 0
 10470 0090 334B     		ldr	r3, .L461
 10471 0092 DB79     		ldrb	r3, [r3, #7]	@ zero_extendqisi2
 10472 0094 FA7B     		ldrb	r2, [r7, #15]
 10473 0096 D31A     		subs	r3, r2, r3
 10474 0098 DBB2     		uxtb	r3, r3
 10475 009a 3B73     		strb	r3, [r7, #12]
2686:.\AdvantageImpl.c ****     //8 is the size of the allocated buffer space for the preset values according to the protocol.
2687:.\AdvantageImpl.c ****     //The real buffer size allocated from the display side is 16 bytes. The buffer will be cast fro
2688:.\AdvantageImpl.c ****     //the end to the beginning, so the startup index has been calculated "explicitly", this is (8 -
2689:.\AdvantageImpl.c ****     //To multiply by 1000 we need to shift the entire buffer three bytes to shift the comma, so we
2690:.\AdvantageImpl.c ****     //will subtract 3 bytes to the starting position in order to make the shifting.
2691:.\AdvantageImpl.c ****     if(shiftcount > 0)
ARM GAS  C:\Users\RECEPC~1\AppData\Local\Temp\ccZZcwiB.s 			page 233


 10476              		.loc 1 2691 0
 10477 009c 97F90C30 		ldrsb	r3, [r7, #12]
 10478 00a0 002B     		cmp	r3, #0
 10479 00a2 29DD     		ble	.L451
2692:.\AdvantageImpl.c ****     {
2693:.\AdvantageImpl.c ****         while(shiftcount > 0)
 10480              		.loc 1 2693 0
 10481 00a4 23E0     		b	.L452
 10482              	.L455:
2694:.\AdvantageImpl.c ****         {
2695:.\AdvantageImpl.c ****             FOR(index = (buffersize - 1), index > 0, index--)
 10483              		.loc 1 2695 0
 10484 00a6 FB78     		ldrb	r3, [r7, #3]
 10485 00a8 013B     		subs	r3, r3, #1
 10486 00aa DBB2     		uxtb	r3, r3
 10487 00ac 7B73     		strb	r3, [r7, #13]
 10488 00ae 15E0     		b	.L453
 10489              	.L454:
2696:.\AdvantageImpl.c ****             {
2697:.\AdvantageImpl.c ****                 pbuffer[index] = pbuffer[index - 1];
 10490              		.loc 1 2697 0 discriminator 3
 10491 00b0 97F90D30 		ldrsb	r3, [r7, #13]
 10492 00b4 7A68     		ldr	r2, [r7, #4]
 10493 00b6 1344     		add	r3, r3, r2
 10494 00b8 97F90D20 		ldrsb	r2, [r7, #13]
 10495 00bc 013A     		subs	r2, r2, #1
 10496 00be 7968     		ldr	r1, [r7, #4]
 10497 00c0 0A44     		add	r2, r2, r1
 10498 00c2 1278     		ldrb	r2, [r2]	@ zero_extendqisi2
 10499 00c4 1A70     		strb	r2, [r3]
2698:.\AdvantageImpl.c ****                 pbuffer[index] = 0x00;
 10500              		.loc 1 2698 0 discriminator 3
 10501 00c6 97F90D30 		ldrsb	r3, [r7, #13]
 10502 00ca 7A68     		ldr	r2, [r7, #4]
 10503 00cc 1344     		add	r3, r3, r2
 10504 00ce 0022     		movs	r2, #0
 10505 00d0 1A70     		strb	r2, [r3]
2695:.\AdvantageImpl.c ****             {
 10506              		.loc 1 2695 0 discriminator 3
 10507 00d2 7B7B     		ldrb	r3, [r7, #13]	@ zero_extendqisi2
 10508 00d4 DBB2     		uxtb	r3, r3
 10509 00d6 013B     		subs	r3, r3, #1
 10510 00d8 DBB2     		uxtb	r3, r3
 10511 00da 7B73     		strb	r3, [r7, #13]
 10512              	.L453:
2695:.\AdvantageImpl.c ****             {
 10513              		.loc 1 2695 0 is_stmt 0 discriminator 1
 10514 00dc 97F90D30 		ldrsb	r3, [r7, #13]
 10515 00e0 002B     		cmp	r3, #0
 10516 00e2 E5DC     		bgt	.L454
2699:.\AdvantageImpl.c ****             }
2700:.\AdvantageImpl.c ****             shiftcount--;
 10517              		.loc 1 2700 0 is_stmt 1
 10518 00e4 3B7B     		ldrb	r3, [r7, #12]	@ zero_extendqisi2
 10519 00e6 DBB2     		uxtb	r3, r3
 10520 00e8 013B     		subs	r3, r3, #1
 10521 00ea DBB2     		uxtb	r3, r3
ARM GAS  C:\Users\RECEPC~1\AppData\Local\Temp\ccZZcwiB.s 			page 234


 10522 00ec 3B73     		strb	r3, [r7, #12]
 10523              	.L452:
2693:.\AdvantageImpl.c ****         {
 10524              		.loc 1 2693 0
 10525 00ee 97F90C30 		ldrsb	r3, [r7, #12]
 10526 00f2 002B     		cmp	r3, #0
 10527 00f4 D7DC     		bgt	.L455
 10528 00f6 2DE0     		b	.L444
 10529              	.L451:
2701:.\AdvantageImpl.c ****         }
2702:.\AdvantageImpl.c ****     }
2703:.\AdvantageImpl.c ****     else if(shiftcount < 0)
 10530              		.loc 1 2703 0
 10531 00f8 97F90C30 		ldrsb	r3, [r7, #12]
 10532 00fc 002B     		cmp	r3, #0
 10533 00fe 29DA     		bge	.L444
2704:.\AdvantageImpl.c ****     {
2705:.\AdvantageImpl.c ****         while(shiftcount < 0)
 10534              		.loc 1 2705 0
 10535 0100 24E0     		b	.L457
 10536              	.L460:
2706:.\AdvantageImpl.c ****         {
2707:.\AdvantageImpl.c ****             FOR(index = 0, index < (buffersize  - 1), index++)
 10537              		.loc 1 2707 0
 10538 0102 0023     		movs	r3, #0
 10539 0104 7B73     		strb	r3, [r7, #13]
 10540 0106 16E0     		b	.L458
 10541              	.L459:
2708:.\AdvantageImpl.c ****             {
2709:.\AdvantageImpl.c ****                 pbuffer[index] = pbuffer[index + 1];
 10542              		.loc 1 2709 0 discriminator 3
 10543 0108 97F90D30 		ldrsb	r3, [r7, #13]
 10544 010c 7A68     		ldr	r2, [r7, #4]
 10545 010e 1344     		add	r3, r3, r2
 10546 0110 97F90D20 		ldrsb	r2, [r7, #13]
 10547 0114 0132     		adds	r2, r2, #1
 10548 0116 7968     		ldr	r1, [r7, #4]
 10549 0118 0A44     		add	r2, r2, r1
 10550 011a 1278     		ldrb	r2, [r2]	@ zero_extendqisi2
 10551 011c 1A70     		strb	r2, [r3]
2710:.\AdvantageImpl.c ****                 pbuffer[index + 1] = 0x30;
 10552              		.loc 1 2710 0 discriminator 3
 10553 011e 97F90D30 		ldrsb	r3, [r7, #13]
 10554 0122 0133     		adds	r3, r3, #1
 10555 0124 7A68     		ldr	r2, [r7, #4]
 10556 0126 1344     		add	r3, r3, r2
 10557 0128 3022     		movs	r2, #48
 10558 012a 1A70     		strb	r2, [r3]
2707:.\AdvantageImpl.c ****             {
 10559              		.loc 1 2707 0 discriminator 3
 10560 012c 7B7B     		ldrb	r3, [r7, #13]	@ zero_extendqisi2
 10561 012e DBB2     		uxtb	r3, r3
 10562 0130 0133     		adds	r3, r3, #1
 10563 0132 DBB2     		uxtb	r3, r3
 10564 0134 7B73     		strb	r3, [r7, #13]
 10565              	.L458:
2707:.\AdvantageImpl.c ****             {
ARM GAS  C:\Users\RECEPC~1\AppData\Local\Temp\ccZZcwiB.s 			page 235


 10566              		.loc 1 2707 0 is_stmt 0 discriminator 1
 10567 0136 97F90D20 		ldrsb	r2, [r7, #13]
 10568 013a FB78     		ldrb	r3, [r7, #3]	@ zero_extendqisi2
 10569 013c 013B     		subs	r3, r3, #1
 10570 013e 9A42     		cmp	r2, r3
 10571 0140 E2DB     		blt	.L459
2711:.\AdvantageImpl.c ****             }
2712:.\AdvantageImpl.c ****             shiftcount++;
 10572              		.loc 1 2712 0 is_stmt 1
 10573 0142 3B7B     		ldrb	r3, [r7, #12]	@ zero_extendqisi2
 10574 0144 DBB2     		uxtb	r3, r3
 10575 0146 0133     		adds	r3, r3, #1
 10576 0148 DBB2     		uxtb	r3, r3
 10577 014a 3B73     		strb	r3, [r7, #12]
 10578              	.L457:
2705:.\AdvantageImpl.c ****         {
 10579              		.loc 1 2705 0
 10580 014c 97F90C30 		ldrsb	r3, [r7, #12]
 10581 0150 002B     		cmp	r3, #0
 10582 0152 D6DB     		blt	.L460
 10583              	.L444:
2713:.\AdvantageImpl.c ****         }
2714:.\AdvantageImpl.c ****     }
2715:.\AdvantageImpl.c **** }
 10584              		.loc 1 2715 0
 10585 0154 1437     		adds	r7, r7, #20
 10586              		.cfi_def_cfa_offset 4
 10587 0156 BD46     		mov	sp, r7
 10588              		.cfi_def_cfa_register 13
 10589              		@ sp needed
 10590 0158 5DF8047B 		ldr	r7, [sp], #4
 10591              		.cfi_restore 7
 10592              		.cfi_def_cfa_offset 0
 10593 015c 7047     		bx	lr
 10594              	.L462:
 10595 015e 00BF     		.align	2
 10596              	.L461:
 10597 0160 00000000 		.word	_g_dispenserlayoutinfo
 10598              		.cfi_endproc
 10599              	.LFE107:
 10600              		.size	CastMoneyValue, .-CastMoneyValue
 10601              		.global	_g_sfcharmap
 10602              		.data
 10603              		.align	2
 10604              		.type	_g_sfcharmap, %object
 10605              		.size	_g_sfcharmap, 32
 10606              	_g_sfcharmap:
 10607 0000 B1       		.byte	-79
 10608 0001 01       		.byte	1
 10609 0002 B2       		.byte	-78
 10610 0003 02       		.byte	2
 10611 0004 B3       		.byte	-77
 10612 0005 03       		.byte	3
 10613 0006 B4       		.byte	-76
 10614 0007 04       		.byte	4
 10615 0008 B5       		.byte	-75
 10616 0009 05       		.byte	5
ARM GAS  C:\Users\RECEPC~1\AppData\Local\Temp\ccZZcwiB.s 			page 236


 10617 000a B6       		.byte	-74
 10618 000b 06       		.byte	6
 10619 000c B7       		.byte	-73
 10620 000d 07       		.byte	7
 10621 000e B8       		.byte	-72
 10622 000f 08       		.byte	8
 10623 0010 B9       		.byte	-71
 10624 0011 09       		.byte	9
 10625 0012 C1       		.byte	-63
 10626 0013 0A       		.byte	10
 10627 0014 C2       		.byte	-62
 10628 0015 0B       		.byte	11
 10629 0016 C3       		.byte	-61
 10630 0017 0C       		.byte	12
 10631 0018 C4       		.byte	-60
 10632 0019 0D       		.byte	13
 10633 001a C5       		.byte	-59
 10634 001b 0E       		.byte	14
 10635 001c C6       		.byte	-58
 10636 001d 0F       		.byte	15
 10637 001e 00       		.byte	0
 10638 001f 00       		.byte	0
 10639              		.section	.text.TranslateSpecialFuncionDigit,"ax",%progbits
 10640              		.align	2
 10641              		.global	TranslateSpecialFuncionDigit
 10642              		.thumb
 10643              		.thumb_func
 10644              		.type	TranslateSpecialFuncionDigit, %function
 10645              	TranslateSpecialFuncionDigit:
 10646              	.LFB108:
2716:.\AdvantageImpl.c **** 
2717:.\AdvantageImpl.c **** //This is a char map to translate from the special functions word domain to the normal byte domain
2718:.\AdvantageImpl.c **** char8 _g_sfcharmap[][2] = 
2719:.\AdvantageImpl.c **** {
2720:.\AdvantageImpl.c ****     { 0xB1, 0x01 }, { 0xB2, 0x02 }, { 0xB3, 0x03 }, { 0xB4, 0x04 }, { 0xB5, 0x05 }, { 0xB6, 0x06 },
2721:.\AdvantageImpl.c ****     { 0xC1, 0x0A }, { 0xC2, 0x0B }, { 0xC3, 0x0C }, { 0xC4, 0x0D }, { 0xC5, 0x0E }, { 0xC6, 0x0F },
2722:.\AdvantageImpl.c **** };
2723:.\AdvantageImpl.c **** 
2724:.\AdvantageImpl.c **** //@Created By: HIJH
2725:.\AdvantageImpl.c **** //@Septembre de 2016
2726:.\AdvantageImpl.c **** char8 TranslateSpecialFuncionDigit(char8 refval)
2727:.\AdvantageImpl.c **** {
 10647              		.loc 1 2727 0
 10648              		.cfi_startproc
 10649              		@ args = 0, pretend = 0, frame = 16
 10650              		@ frame_needed = 1, uses_anonymous_args = 0
 10651              		@ link register save eliminated.
 10652 0000 80B4     		push	{r7}
 10653              		.cfi_def_cfa_offset 4
 10654              		.cfi_offset 7, -4
 10655 0002 85B0     		sub	sp, sp, #20
 10656              		.cfi_def_cfa_offset 24
 10657 0004 00AF     		add	r7, sp, #0
 10658              		.cfi_def_cfa_register 7
 10659 0006 0346     		mov	r3, r0
 10660 0008 FB71     		strb	r3, [r7, #7]
2728:.\AdvantageImpl.c ****     char8 retval = 0x00;
ARM GAS  C:\Users\RECEPC~1\AppData\Local\Temp\ccZZcwiB.s 			page 237


 10661              		.loc 1 2728 0
 10662 000a 0023     		movs	r3, #0
 10663 000c FB73     		strb	r3, [r7, #15]
2729:.\AdvantageImpl.c ****     PSTR ptrstr = (PSTR)&_g_sfcharmap[0];
 10664              		.loc 1 2729 0
 10665 000e 0D4B     		ldr	r3, .L469
 10666 0010 BB60     		str	r3, [r7, #8]
2730:.\AdvantageImpl.c ****     while(*ptrstr != 0x00)
 10667              		.loc 1 2730 0
 10668 0012 0BE0     		b	.L464
 10669              	.L467:
2731:.\AdvantageImpl.c ****     {
2732:.\AdvantageImpl.c ****         if(ptrstr[0] == refval)
 10670              		.loc 1 2732 0
 10671 0014 BB68     		ldr	r3, [r7, #8]
 10672 0016 1B78     		ldrb	r3, [r3]	@ zero_extendqisi2
 10673 0018 FA79     		ldrb	r2, [r7, #7]	@ zero_extendqisi2
 10674 001a 9A42     		cmp	r2, r3
 10675 001c 03D1     		bne	.L465
2733:.\AdvantageImpl.c ****         {
2734:.\AdvantageImpl.c ****             retval = ptrstr[1];
 10676              		.loc 1 2734 0
 10677 001e BB68     		ldr	r3, [r7, #8]
 10678 0020 5B78     		ldrb	r3, [r3, #1]
 10679 0022 FB73     		strb	r3, [r7, #15]
2735:.\AdvantageImpl.c ****             break;
 10680              		.loc 1 2735 0
 10681 0024 06E0     		b	.L466
 10682              	.L465:
2736:.\AdvantageImpl.c ****         }
2737:.\AdvantageImpl.c ****         ptrstr++;
 10683              		.loc 1 2737 0
 10684 0026 BB68     		ldr	r3, [r7, #8]
 10685 0028 0133     		adds	r3, r3, #1
 10686 002a BB60     		str	r3, [r7, #8]
 10687              	.L464:
2730:.\AdvantageImpl.c ****     {
 10688              		.loc 1 2730 0
 10689 002c BB68     		ldr	r3, [r7, #8]
 10690 002e 1B78     		ldrb	r3, [r3]	@ zero_extendqisi2
 10691 0030 002B     		cmp	r3, #0
 10692 0032 EFD1     		bne	.L467
 10693              	.L466:
2738:.\AdvantageImpl.c ****     }    
2739:.\AdvantageImpl.c ****     return retval;
 10694              		.loc 1 2739 0
 10695 0034 FB7B     		ldrb	r3, [r7, #15]	@ zero_extendqisi2
2740:.\AdvantageImpl.c **** }
 10696              		.loc 1 2740 0
 10697 0036 1846     		mov	r0, r3
 10698 0038 1437     		adds	r7, r7, #20
 10699              		.cfi_def_cfa_offset 4
 10700 003a BD46     		mov	sp, r7
 10701              		.cfi_def_cfa_register 13
 10702              		@ sp needed
 10703 003c 5DF8047B 		ldr	r7, [sp], #4
 10704              		.cfi_restore 7
ARM GAS  C:\Users\RECEPC~1\AppData\Local\Temp\ccZZcwiB.s 			page 238


 10705              		.cfi_def_cfa_offset 0
 10706 0040 7047     		bx	lr
 10707              	.L470:
 10708 0042 00BF     		.align	2
 10709              	.L469:
 10710 0044 00000000 		.word	_g_sfcharmap
 10711              		.cfi_endproc
 10712              	.LFE108:
 10713              		.size	TranslateSpecialFuncionDigit, .-TranslateSpecialFuncionDigit
 10714              		.bss
 10715              	index.9600:
 10716 0000 00       		.space	1
 10717              		.text
 10718              	.Letext0:
 10719              		.file 2 "c:\\program files (x86)\\cypress\\psoc creator\\3.3\\psoc creator\\import\\gnu\\arm\\4.9.
 10720              		.file 3 "c:\\program files (x86)\\cypress\\psoc creator\\3.3\\psoc creator\\import\\gnu\\arm\\4.9.
 10721              		.file 4 "Generated_Source\\PSoC5/cytypes.h"
 10722              		.file 5 ".\\GlobalDefinitions.h"
 10723              		.file 6 ".\\SinkManager.h"
 10724              		.file 7 ".\\SinkObservables.h"
 10725              		.file 8 ".\\UARTManager.h"
 10726              		.file 9 ".\\Display.h"
 10727              		.file 10 ".\\Advantage.h"
 10728              		.file 11 ".\\Dispenser.h"
 10729              		.file 12 ".\\Eeprom.h"
 10730              		.file 13 ".\\RFLink.h"
 10731              		.file 14 ".\\Printer.h"
 10732              		.file 15 "Generated_Source\\PSoC5/core_cm3.h"
 10733              		.section	.debug_info,"",%progbits
 10734              	.Ldebug_info0:
 10735 0000 18290000 		.4byte	0x2918
 10736 0004 0400     		.2byte	0x4
 10737 0006 00000000 		.4byte	.Ldebug_abbrev0
 10738 000a 04       		.byte	0x4
 10739 000b 01       		.uleb128 0x1
 10740 000c D9230000 		.4byte	.LASF554
 10741 0010 01       		.byte	0x1
 10742 0011 BB190000 		.4byte	.LASF555
 10743 0015 0A170000 		.4byte	.LASF556
 10744 0019 00000000 		.4byte	.Ldebug_ranges0+0
 10745 001d 00000000 		.4byte	0
 10746 0021 00000000 		.4byte	.Ldebug_line0
 10747 0025 02       		.uleb128 0x2
 10748 0026 01       		.byte	0x1
 10749 0027 06       		.byte	0x6
 10750 0028 530A0000 		.4byte	.LASF0
 10751 002c 03       		.uleb128 0x3
 10752 002d C5060000 		.4byte	.LASF4
 10753 0031 02       		.byte	0x2
 10754 0032 1D       		.byte	0x1d
 10755 0033 37000000 		.4byte	0x37
 10756 0037 02       		.uleb128 0x2
 10757 0038 01       		.byte	0x1
 10758 0039 08       		.byte	0x8
 10759 003a 990B0000 		.4byte	.LASF1
 10760 003e 02       		.uleb128 0x2
 10761 003f 02       		.byte	0x2
ARM GAS  C:\Users\RECEPC~1\AppData\Local\Temp\ccZZcwiB.s 			page 239


 10762 0040 05       		.byte	0x5
 10763 0041 89220000 		.4byte	.LASF2
 10764 0045 02       		.uleb128 0x2
 10765 0046 02       		.byte	0x2
 10766 0047 07       		.byte	0x7
 10767 0048 8C270000 		.4byte	.LASF3
 10768 004c 03       		.uleb128 0x3
 10769 004d 39280000 		.4byte	.LASF5
 10770 0051 02       		.byte	0x2
 10771 0052 3F       		.byte	0x3f
 10772 0053 57000000 		.4byte	0x57
 10773 0057 02       		.uleb128 0x2
 10774 0058 04       		.byte	0x4
 10775 0059 05       		.byte	0x5
 10776 005a FB070000 		.4byte	.LASF6
 10777 005e 02       		.uleb128 0x2
 10778 005f 04       		.byte	0x4
 10779 0060 07       		.byte	0x7
 10780 0061 3A130000 		.4byte	.LASF7
 10781 0065 02       		.uleb128 0x2
 10782 0066 08       		.byte	0x8
 10783 0067 05       		.byte	0x5
 10784 0068 DB150000 		.4byte	.LASF8
 10785 006c 02       		.uleb128 0x2
 10786 006d 08       		.byte	0x8
 10787 006e 07       		.byte	0x7
 10788 006f 2F1E0000 		.4byte	.LASF9
 10789 0073 04       		.uleb128 0x4
 10790 0074 04       		.byte	0x4
 10791 0075 05       		.byte	0x5
 10792 0076 696E7400 		.ascii	"int\000"
 10793 007a 02       		.uleb128 0x2
 10794 007b 04       		.byte	0x4
 10795 007c 07       		.byte	0x7
 10796 007d CC180000 		.4byte	.LASF10
 10797 0081 03       		.uleb128 0x3
 10798 0082 5F0A0000 		.4byte	.LASF11
 10799 0086 03       		.byte	0x3
 10800 0087 15       		.byte	0x15
 10801 0088 2C000000 		.4byte	0x2c
 10802 008c 03       		.uleb128 0x3
 10803 008d 3A020000 		.4byte	.LASF12
 10804 0091 03       		.byte	0x3
 10805 0092 2C       		.byte	0x2c
 10806 0093 4C000000 		.4byte	0x4c
 10807 0097 05       		.uleb128 0x5
 10808 0098 40220000 		.4byte	.LASF13
 10809 009c 04       		.byte	0x4
 10810 009d 3801     		.2byte	0x138
 10811 009f 37000000 		.4byte	0x37
 10812 00a3 05       		.uleb128 0x5
 10813 00a4 64290000 		.4byte	.LASF14
 10814 00a8 04       		.byte	0x4
 10815 00a9 3901     		.2byte	0x139
 10816 00ab 45000000 		.4byte	0x45
 10817 00af 05       		.uleb128 0x5
 10818 00b0 D9020000 		.4byte	.LASF15
ARM GAS  C:\Users\RECEPC~1\AppData\Local\Temp\ccZZcwiB.s 			page 240


 10819 00b4 04       		.byte	0x4
 10820 00b5 3A01     		.2byte	0x13a
 10821 00b7 5E000000 		.4byte	0x5e
 10822 00bb 05       		.uleb128 0x5
 10823 00bc D3050000 		.4byte	.LASF16
 10824 00c0 04       		.byte	0x4
 10825 00c1 3B01     		.2byte	0x13b
 10826 00c3 25000000 		.4byte	0x25
 10827 00c7 02       		.uleb128 0x2
 10828 00c8 04       		.byte	0x4
 10829 00c9 04       		.byte	0x4
 10830 00ca F7170000 		.4byte	.LASF17
 10831 00ce 02       		.uleb128 0x2
 10832 00cf 08       		.byte	0x8
 10833 00d0 04       		.byte	0x4
 10834 00d1 C2160000 		.4byte	.LASF18
 10835 00d5 05       		.uleb128 0x5
 10836 00d6 F4070000 		.4byte	.LASF19
 10837 00da 04       		.byte	0x4
 10838 00db 4401     		.2byte	0x144
 10839 00dd 6C000000 		.4byte	0x6c
 10840 00e1 05       		.uleb128 0x5
 10841 00e2 AB040000 		.4byte	.LASF20
 10842 00e6 04       		.byte	0x4
 10843 00e7 4901     		.2byte	0x149
 10844 00e9 ED000000 		.4byte	0xed
 10845 00ed 02       		.uleb128 0x2
 10846 00ee 01       		.byte	0x1
 10847 00ef 08       		.byte	0x8
 10848 00f0 210D0000 		.4byte	.LASF21
 10849 00f4 06       		.uleb128 0x6
 10850 00f5 97000000 		.4byte	0x97
 10851 00f9 06       		.uleb128 0x6
 10852 00fa A3000000 		.4byte	0xa3
 10853 00fe 06       		.uleb128 0x6
 10854 00ff AF000000 		.4byte	0xaf
 10855 0103 07       		.uleb128 0x7
 10856 0104 04       		.byte	0x4
 10857 0105 09010000 		.4byte	0x109
 10858 0109 08       		.uleb128 0x8
 10859 010a 02       		.uleb128 0x2
 10860 010b 04       		.byte	0x4
 10861 010c 07       		.byte	0x7
 10862 010d B7000000 		.4byte	.LASF22
 10863 0111 09       		.uleb128 0x9
 10864 0112 04       		.byte	0x4
 10865 0113 07       		.uleb128 0x7
 10866 0114 04       		.byte	0x4
 10867 0115 ED000000 		.4byte	0xed
 10868 0119 0A       		.uleb128 0xa
 10869 011a 97000000 		.4byte	0x97
 10870 011e 29010000 		.4byte	0x129
 10871 0122 0B       		.uleb128 0xb
 10872 0123 0A010000 		.4byte	0x10a
 10873 0127 03       		.byte	0x3
 10874 0128 00       		.byte	0
 10875 0129 02       		.uleb128 0x2
ARM GAS  C:\Users\RECEPC~1\AppData\Local\Temp\ccZZcwiB.s 			page 241


 10876 012a 08       		.byte	0x8
 10877 012b 04       		.byte	0x4
 10878 012c 4A1C0000 		.4byte	.LASF23
 10879 0130 03       		.uleb128 0x3
 10880 0131 1A1B0000 		.4byte	.LASF24
 10881 0135 05       		.byte	0x5
 10882 0136 29       		.byte	0x29
 10883 0137 11010000 		.4byte	0x111
 10884 013b 07       		.uleb128 0x7
 10885 013c 04       		.byte	0x4
 10886 013d E1000000 		.4byte	0xe1
 10887 0141 07       		.uleb128 0x7
 10888 0142 04       		.byte	0x4
 10889 0143 97000000 		.4byte	0x97
 10890 0147 0C       		.uleb128 0xc
 10891 0148 A7260000 		.4byte	.LASF33
 10892 014c 01       		.byte	0x1
 10893 014d 06       		.byte	0x6
 10894 014e 3D       		.byte	0x3d
 10895 014f 84010000 		.4byte	0x184
 10896 0153 0D       		.uleb128 0xd
 10897 0154 E9280000 		.4byte	.LASF25
 10898 0158 01       		.sleb128 1
 10899 0159 0D       		.uleb128 0xd
 10900 015a 71190000 		.4byte	.LASF26
 10901 015e 02       		.sleb128 2
 10902 015f 0D       		.uleb128 0xd
 10903 0160 061B0000 		.4byte	.LASF27
 10904 0164 03       		.sleb128 3
 10905 0165 0D       		.uleb128 0xd
 10906 0166 B7210000 		.4byte	.LASF28
 10907 016a 04       		.sleb128 4
 10908 016b 0D       		.uleb128 0xd
 10909 016c DF100000 		.4byte	.LASF29
 10910 0170 05       		.sleb128 5
 10911 0171 0D       		.uleb128 0xd
 10912 0172 DD240000 		.4byte	.LASF30
 10913 0176 06       		.sleb128 6
 10914 0177 0D       		.uleb128 0xd
 10915 0178 8B0D0000 		.4byte	.LASF31
 10916 017c 07       		.sleb128 7
 10917 017d 0D       		.uleb128 0xd
 10918 017e C8120000 		.4byte	.LASF32
 10919 0182 08       		.sleb128 8
 10920 0183 00       		.byte	0
 10921 0184 0C       		.uleb128 0xc
 10922 0185 CF280000 		.4byte	.LASF34
 10923 0189 01       		.byte	0x1
 10924 018a 06       		.byte	0x6
 10925 018b 4A       		.byte	0x4a
 10926 018c A3010000 		.4byte	0x1a3
 10927 0190 0D       		.uleb128 0xd
 10928 0191 DF280000 		.4byte	.LASF35
 10929 0195 01       		.sleb128 1
 10930 0196 0D       		.uleb128 0xd
 10931 0197 F70C0000 		.4byte	.LASF36
 10932 019b 02       		.sleb128 2
ARM GAS  C:\Users\RECEPC~1\AppData\Local\Temp\ccZZcwiB.s 			page 242


 10933 019c 0D       		.uleb128 0xd
 10934 019d 73010000 		.4byte	.LASF37
 10935 01a1 03       		.sleb128 3
 10936 01a2 00       		.byte	0
 10937 01a3 0E       		.uleb128 0xe
 10938 01a4 58000000 		.4byte	.LASF92
 10939 01a8 9801     		.2byte	0x198
 10940 01aa 06       		.byte	0x6
 10941 01ab 51       		.byte	0x51
 10942 01ac 44020000 		.4byte	0x244
 10943 01b0 0F       		.uleb128 0xf
 10944 01b1 ED170000 		.4byte	.LASF38
 10945 01b5 06       		.byte	0x6
 10946 01b6 53       		.byte	0x53
 10947 01b7 44020000 		.4byte	0x244
 10948 01bb 00       		.byte	0
 10949 01bc 0F       		.uleb128 0xf
 10950 01bd 16220000 		.4byte	.LASF39
 10951 01c1 06       		.byte	0x6
 10952 01c2 54       		.byte	0x54
 10953 01c3 F4000000 		.4byte	0xf4
 10954 01c7 01       		.byte	0x1
 10955 01c8 0F       		.uleb128 0xf
 10956 01c9 B5240000 		.4byte	.LASF40
 10957 01cd 06       		.byte	0x6
 10958 01ce 55       		.byte	0x55
 10959 01cf F4000000 		.4byte	0xf4
 10960 01d3 02       		.byte	0x2
 10961 01d4 0F       		.uleb128 0xf
 10962 01d5 2E260000 		.4byte	.LASF41
 10963 01d9 06       		.byte	0x6
 10964 01da 56       		.byte	0x56
 10965 01db F4000000 		.4byte	0xf4
 10966 01df 03       		.byte	0x3
 10967 01e0 0F       		.uleb128 0xf
 10968 01e1 990C0000 		.4byte	.LASF42
 10969 01e5 06       		.byte	0x6
 10970 01e6 58       		.byte	0x58
 10971 01e7 F9000000 		.4byte	0xf9
 10972 01eb 04       		.byte	0x4
 10973 01ec 0F       		.uleb128 0xf
 10974 01ed 8B0F0000 		.4byte	.LASF43
 10975 01f1 06       		.byte	0x6
 10976 01f2 59       		.byte	0x59
 10977 01f3 F9000000 		.4byte	0xf9
 10978 01f7 06       		.byte	0x6
 10979 01f8 0F       		.uleb128 0xf
 10980 01f9 35080000 		.4byte	.LASF44
 10981 01fd 06       		.byte	0x6
 10982 01fe 5A       		.byte	0x5a
 10983 01ff F9000000 		.4byte	0xf9
 10984 0203 08       		.byte	0x8
 10985 0204 0F       		.uleb128 0xf
 10986 0205 AA230000 		.4byte	.LASF45
 10987 0209 06       		.byte	0x6
 10988 020a 5B       		.byte	0x5b
 10989 020b F9000000 		.4byte	0xf9
ARM GAS  C:\Users\RECEPC~1\AppData\Local\Temp\ccZZcwiB.s 			page 243


 10990 020f 0A       		.byte	0xa
 10991 0210 0F       		.uleb128 0xf
 10992 0211 5E070000 		.4byte	.LASF46
 10993 0215 06       		.byte	0x6
 10994 0216 5C       		.byte	0x5c
 10995 0217 50020000 		.4byte	0x250
 10996 021b 0C       		.byte	0xc
 10997 021c 10       		.uleb128 0x10
 10998 021d D6290000 		.4byte	.LASF47
 10999 0221 06       		.byte	0x6
 11000 0222 5D       		.byte	0x5d
 11001 0223 F9000000 		.4byte	0xf9
 11002 0227 8C01     		.2byte	0x18c
 11003 0229 10       		.uleb128 0x10
 11004 022a 12140000 		.4byte	.LASF48
 11005 022e 06       		.byte	0x6
 11006 022f 60       		.byte	0x60
 11007 0230 11010000 		.4byte	0x111
 11008 0234 9001     		.2byte	0x190
 11009 0236 10       		.uleb128 0x10
 11010 0237 81140000 		.4byte	.LASF49
 11011 023b 06       		.byte	0x6
 11012 023c 61       		.byte	0x61
 11013 023d 6C020000 		.4byte	0x26c
 11014 0241 9401     		.2byte	0x194
 11015 0243 00       		.byte	0
 11016 0244 06       		.uleb128 0x6
 11017 0245 49020000 		.4byte	0x249
 11018 0249 02       		.uleb128 0x2
 11019 024a 01       		.byte	0x1
 11020 024b 02       		.byte	0x2
 11021 024c B70C0000 		.4byte	.LASF50
 11022 0250 0A       		.uleb128 0xa
 11023 0251 E1000000 		.4byte	0xe1
 11024 0255 61020000 		.4byte	0x261
 11025 0259 11       		.uleb128 0x11
 11026 025a 0A010000 		.4byte	0x10a
 11027 025e 7F01     		.2byte	0x17f
 11028 0260 00       		.byte	0
 11029 0261 12       		.uleb128 0x12
 11030 0262 6C020000 		.4byte	0x26c
 11031 0266 13       		.uleb128 0x13
 11032 0267 11010000 		.4byte	0x111
 11033 026b 00       		.byte	0
 11034 026c 07       		.uleb128 0x7
 11035 026d 04       		.byte	0x4
 11036 026e 61020000 		.4byte	0x261
 11037 0272 03       		.uleb128 0x3
 11038 0273 32190000 		.4byte	.LASF51
 11039 0277 06       		.byte	0x6
 11040 0278 62       		.byte	0x62
 11041 0279 7D020000 		.4byte	0x27d
 11042 027d 07       		.uleb128 0x7
 11043 027e 04       		.byte	0x4
 11044 027f A3010000 		.4byte	0x1a3
 11045 0283 0C       		.uleb128 0xc
 11046 0284 AC070000 		.4byte	.LASF52
ARM GAS  C:\Users\RECEPC~1\AppData\Local\Temp\ccZZcwiB.s 			page 244


 11047 0288 01       		.byte	0x1
 11048 0289 07       		.byte	0x7
 11049 028a 0F       		.byte	0xf
 11050 028b 7A030000 		.4byte	0x37a
 11051 028f 0D       		.uleb128 0xd
 11052 0290 011C0000 		.4byte	.LASF53
 11053 0294 01       		.sleb128 1
 11054 0295 0D       		.uleb128 0xd
 11055 0296 58200000 		.4byte	.LASF54
 11056 029a 02       		.sleb128 2
 11057 029b 0D       		.uleb128 0xd
 11058 029c 85020000 		.4byte	.LASF55
 11059 02a0 03       		.sleb128 3
 11060 02a1 0D       		.uleb128 0xd
 11061 02a2 C81E0000 		.4byte	.LASF56
 11062 02a6 04       		.sleb128 4
 11063 02a7 0D       		.uleb128 0xd
 11064 02a8 1F020000 		.4byte	.LASF57
 11065 02ac 05       		.sleb128 5
 11066 02ad 0D       		.uleb128 0xd
 11067 02ae E7040000 		.4byte	.LASF58
 11068 02b2 06       		.sleb128 6
 11069 02b3 0D       		.uleb128 0xd
 11070 02b4 62160000 		.4byte	.LASF59
 11071 02b8 07       		.sleb128 7
 11072 02b9 0D       		.uleb128 0xd
 11073 02ba 19140000 		.4byte	.LASF60
 11074 02be 08       		.sleb128 8
 11075 02bf 0D       		.uleb128 0xd
 11076 02c0 31140000 		.4byte	.LASF61
 11077 02c4 09       		.sleb128 9
 11078 02c5 0D       		.uleb128 0xd
 11079 02c6 DE000000 		.4byte	.LASF62
 11080 02ca 0A       		.sleb128 10
 11081 02cb 0D       		.uleb128 0xd
 11082 02cc 7F030000 		.4byte	.LASF63
 11083 02d0 0B       		.sleb128 11
 11084 02d1 0D       		.uleb128 0xd
 11085 02d2 3A1F0000 		.4byte	.LASF64
 11086 02d6 0C       		.sleb128 12
 11087 02d7 0D       		.uleb128 0xd
 11088 02d8 60230000 		.4byte	.LASF65
 11089 02dc 0D       		.sleb128 13
 11090 02dd 0D       		.uleb128 0xd
 11091 02de 6D0C0000 		.4byte	.LASF66
 11092 02e2 0E       		.sleb128 14
 11093 02e3 0D       		.uleb128 0xd
 11094 02e4 74080000 		.4byte	.LASF67
 11095 02e8 0F       		.sleb128 15
 11096 02e9 0D       		.uleb128 0xd
 11097 02ea B6260000 		.4byte	.LASF68
 11098 02ee 10       		.sleb128 16
 11099 02ef 0D       		.uleb128 0xd
 11100 02f0 E4220000 		.4byte	.LASF69
 11101 02f4 11       		.sleb128 17
 11102 02f5 0D       		.uleb128 0xd
 11103 02f6 CE040000 		.4byte	.LASF70
ARM GAS  C:\Users\RECEPC~1\AppData\Local\Temp\ccZZcwiB.s 			page 245


 11104 02fa 12       		.sleb128 18
 11105 02fb 0D       		.uleb128 0xd
 11106 02fc 211B0000 		.4byte	.LASF71
 11107 0300 13       		.sleb128 19
 11108 0301 0D       		.uleb128 0xd
 11109 0302 96150000 		.4byte	.LASF72
 11110 0306 14       		.sleb128 20
 11111 0307 0D       		.uleb128 0xd
 11112 0308 460F0000 		.4byte	.LASF73
 11113 030c 15       		.sleb128 21
 11114 030d 0D       		.uleb128 0xd
 11115 030e B2050000 		.4byte	.LASF74
 11116 0312 16       		.sleb128 22
 11117 0313 0D       		.uleb128 0xd
 11118 0314 F1270000 		.4byte	.LASF75
 11119 0318 17       		.sleb128 23
 11120 0319 0D       		.uleb128 0xd
 11121 031a 0F210000 		.4byte	.LASF76
 11122 031e 18       		.sleb128 24
 11123 031f 0D       		.uleb128 0xd
 11124 0320 A5090000 		.4byte	.LASF77
 11125 0324 19       		.sleb128 25
 11126 0325 0D       		.uleb128 0xd
 11127 0326 8D260000 		.4byte	.LASF78
 11128 032a 1A       		.sleb128 26
 11129 032b 0D       		.uleb128 0xd
 11130 032c 21230000 		.4byte	.LASF79
 11131 0330 1B       		.sleb128 27
 11132 0331 0D       		.uleb128 0xd
 11133 0332 5D030000 		.4byte	.LASF80
 11134 0336 1C       		.sleb128 28
 11135 0337 0D       		.uleb128 0xd
 11136 0338 6D0B0000 		.4byte	.LASF81
 11137 033c 1D       		.sleb128 29
 11138 033d 0D       		.uleb128 0xd
 11139 033e 48070000 		.4byte	.LASF82
 11140 0342 1E       		.sleb128 30
 11141 0343 0D       		.uleb128 0xd
 11142 0344 4E220000 		.4byte	.LASF83
 11143 0348 1F       		.sleb128 31
 11144 0349 0D       		.uleb128 0xd
 11145 034a 9C0D0000 		.4byte	.LASF84
 11146 034e 20       		.sleb128 32
 11147 034f 0D       		.uleb128 0xd
 11148 0350 80090000 		.4byte	.LASF85
 11149 0354 21       		.sleb128 33
 11150 0355 0D       		.uleb128 0xd
 11151 0356 63260000 		.4byte	.LASF86
 11152 035a 22       		.sleb128 34
 11153 035b 0D       		.uleb128 0xd
 11154 035c 67020000 		.4byte	.LASF87
 11155 0360 23       		.sleb128 35
 11156 0361 0D       		.uleb128 0xd
 11157 0362 02290000 		.4byte	.LASF88
 11158 0366 24       		.sleb128 36
 11159 0367 0D       		.uleb128 0xd
 11160 0368 E01A0000 		.4byte	.LASF89
ARM GAS  C:\Users\RECEPC~1\AppData\Local\Temp\ccZZcwiB.s 			page 246


 11161 036c 25       		.sleb128 37
 11162 036d 0D       		.uleb128 0xd
 11163 036e B1040000 		.4byte	.LASF90
 11164 0372 26       		.sleb128 38
 11165 0373 0D       		.uleb128 0xd
 11166 0374 64150000 		.4byte	.LASF91
 11167 0378 27       		.sleb128 39
 11168 0379 00       		.byte	0
 11169 037a 14       		.uleb128 0x14
 11170 037b 7B190000 		.4byte	.LASF93
 11171 037f 4C       		.byte	0x4c
 11172 0380 08       		.byte	0x8
 11173 0381 2C       		.byte	0x2c
 11174 0382 6B040000 		.4byte	0x46b
 11175 0386 0F       		.uleb128 0xf
 11176 0387 671F0000 		.4byte	.LASF94
 11177 038b 08       		.byte	0x8
 11178 038c 2E       		.byte	0x2e
 11179 038d 97000000 		.4byte	0x97
 11180 0391 00       		.byte	0
 11181 0392 0F       		.uleb128 0xf
 11182 0393 3A100000 		.4byte	.LASF95
 11183 0397 08       		.byte	0x8
 11184 0398 31       		.byte	0x31
 11185 0399 6C020000 		.4byte	0x26c
 11186 039d 04       		.byte	0x4
 11187 039e 0F       		.uleb128 0xf
 11188 039f BA1C0000 		.4byte	.LASF96
 11189 03a3 08       		.byte	0x8
 11190 03a4 34       		.byte	0x34
 11191 03a5 03010000 		.4byte	0x103
 11192 03a9 08       		.byte	0x8
 11193 03aa 0F       		.uleb128 0xf
 11194 03ab 9A030000 		.4byte	.LASF97
 11195 03af 08       		.byte	0x8
 11196 03b0 35       		.byte	0x35
 11197 03b1 03010000 		.4byte	0x103
 11198 03b5 0C       		.byte	0xc
 11199 03b6 0F       		.uleb128 0xf
 11200 03b7 DD1E0000 		.4byte	.LASF98
 11201 03bb 08       		.byte	0x8
 11202 03bc 36       		.byte	0x36
 11203 03bd 70040000 		.4byte	0x470
 11204 03c1 10       		.byte	0x10
 11205 03c2 0F       		.uleb128 0xf
 11206 03c3 CB1A0000 		.4byte	.LASF99
 11207 03c7 08       		.byte	0x8
 11208 03c8 37       		.byte	0x37
 11209 03c9 81040000 		.4byte	0x481
 11210 03cd 14       		.byte	0x14
 11211 03ce 0F       		.uleb128 0xf
 11212 03cf 82230000 		.4byte	.LASF100
 11213 03d3 08       		.byte	0x8
 11214 03d4 39       		.byte	0x39
 11215 03d5 70040000 		.4byte	0x470
 11216 03d9 18       		.byte	0x18
 11217 03da 0F       		.uleb128 0xf
ARM GAS  C:\Users\RECEPC~1\AppData\Local\Temp\ccZZcwiB.s 			page 247


 11218 03db 1D0E0000 		.4byte	.LASF101
 11219 03df 08       		.byte	0x8
 11220 03e0 3A       		.byte	0x3a
 11221 03e1 70040000 		.4byte	0x470
 11222 03e5 1C       		.byte	0x1c
 11223 03e6 0F       		.uleb128 0xf
 11224 03e7 C20A0000 		.4byte	.LASF102
 11225 03eb 08       		.byte	0x8
 11226 03ec 3B       		.byte	0x3b
 11227 03ed 70040000 		.4byte	0x470
 11228 03f1 20       		.byte	0x20
 11229 03f2 0F       		.uleb128 0xf
 11230 03f3 20200000 		.4byte	.LASF103
 11231 03f7 08       		.byte	0x8
 11232 03f8 3C       		.byte	0x3c
 11233 03f9 8C040000 		.4byte	0x48c
 11234 03fd 24       		.byte	0x24
 11235 03fe 0F       		.uleb128 0xf
 11236 03ff 481B0000 		.4byte	.LASF104
 11237 0403 08       		.byte	0x8
 11238 0404 3D       		.byte	0x3d
 11239 0405 8C040000 		.4byte	0x48c
 11240 0409 28       		.byte	0x28
 11241 040a 0F       		.uleb128 0xf
 11242 040b B40A0000 		.4byte	.LASF105
 11243 040f 08       		.byte	0x8
 11244 0410 3E       		.byte	0x3e
 11245 0411 03010000 		.4byte	0x103
 11246 0415 2C       		.byte	0x2c
 11247 0416 0F       		.uleb128 0xf
 11248 0417 EB0C0000 		.4byte	.LASF106
 11249 041b 08       		.byte	0x8
 11250 041c 40       		.byte	0x40
 11251 041d 81040000 		.4byte	0x481
 11252 0421 30       		.byte	0x30
 11253 0422 0F       		.uleb128 0xf
 11254 0423 D9180000 		.4byte	.LASF107
 11255 0427 08       		.byte	0x8
 11256 0428 41       		.byte	0x41
 11257 0429 70040000 		.4byte	0x470
 11258 042d 34       		.byte	0x34
 11259 042e 0F       		.uleb128 0xf
 11260 042f 46220000 		.4byte	.LASF108
 11261 0433 08       		.byte	0x8
 11262 0434 42       		.byte	0x42
 11263 0435 81040000 		.4byte	0x481
 11264 0439 38       		.byte	0x38
 11265 043a 0F       		.uleb128 0xf
 11266 043b FB0F0000 		.4byte	.LASF109
 11267 043f 08       		.byte	0x8
 11268 0440 43       		.byte	0x43
 11269 0441 A8040000 		.4byte	0x4a8
 11270 0445 3C       		.byte	0x3c
 11271 0446 0F       		.uleb128 0xf
 11272 0447 581E0000 		.4byte	.LASF110
 11273 044b 08       		.byte	0x8
 11274 044c 44       		.byte	0x44
ARM GAS  C:\Users\RECEPC~1\AppData\Local\Temp\ccZZcwiB.s 			page 248


 11275 044d C9040000 		.4byte	0x4c9
 11276 0451 40       		.byte	0x40
 11277 0452 0F       		.uleb128 0xf
 11278 0453 9B0E0000 		.4byte	.LASF111
 11279 0457 08       		.byte	0x8
 11280 0458 45       		.byte	0x45
 11281 0459 81040000 		.4byte	0x481
 11282 045d 44       		.byte	0x44
 11283 045e 0F       		.uleb128 0xf
 11284 045f B4160000 		.4byte	.LASF112
 11285 0463 08       		.byte	0x8
 11286 0464 46       		.byte	0x46
 11287 0465 03010000 		.4byte	0x103
 11288 0469 48       		.byte	0x48
 11289 046a 00       		.byte	0
 11290 046b 15       		.uleb128 0x15
 11291 046c 97000000 		.4byte	0x97
 11292 0470 07       		.uleb128 0x7
 11293 0471 04       		.byte	0x4
 11294 0472 6B040000 		.4byte	0x46b
 11295 0476 12       		.uleb128 0x12
 11296 0477 81040000 		.4byte	0x481
 11297 047b 13       		.uleb128 0x13
 11298 047c 97000000 		.4byte	0x97
 11299 0480 00       		.byte	0
 11300 0481 07       		.uleb128 0x7
 11301 0482 04       		.byte	0x4
 11302 0483 76040000 		.4byte	0x476
 11303 0487 15       		.uleb128 0x15
 11304 0488 A3000000 		.4byte	0xa3
 11305 048c 07       		.uleb128 0x7
 11306 048d 04       		.byte	0x4
 11307 048e 87040000 		.4byte	0x487
 11308 0492 12       		.uleb128 0x12
 11309 0493 9D040000 		.4byte	0x49d
 11310 0497 13       		.uleb128 0x13
 11311 0498 9D040000 		.4byte	0x49d
 11312 049c 00       		.byte	0
 11313 049d 07       		.uleb128 0x7
 11314 049e 04       		.byte	0x4
 11315 049f A3040000 		.4byte	0x4a3
 11316 04a3 16       		.uleb128 0x16
 11317 04a4 E1000000 		.4byte	0xe1
 11318 04a8 07       		.uleb128 0x7
 11319 04a9 04       		.byte	0x4
 11320 04aa 92040000 		.4byte	0x492
 11321 04ae 12       		.uleb128 0x12
 11322 04af BE040000 		.4byte	0x4be
 11323 04b3 13       		.uleb128 0x13
 11324 04b4 BE040000 		.4byte	0x4be
 11325 04b8 13       		.uleb128 0x13
 11326 04b9 97000000 		.4byte	0x97
 11327 04bd 00       		.byte	0
 11328 04be 07       		.uleb128 0x7
 11329 04bf 04       		.byte	0x4
 11330 04c0 C4040000 		.4byte	0x4c4
 11331 04c4 16       		.uleb128 0x16
ARM GAS  C:\Users\RECEPC~1\AppData\Local\Temp\ccZZcwiB.s 			page 249


 11332 04c5 97000000 		.4byte	0x97
 11333 04c9 07       		.uleb128 0x7
 11334 04ca 04       		.byte	0x4
 11335 04cb AE040000 		.4byte	0x4ae
 11336 04cf 03       		.uleb128 0x3
 11337 04d0 9F030000 		.4byte	.LASF113
 11338 04d4 08       		.byte	0x8
 11339 04d5 48       		.byte	0x48
 11340 04d6 7A030000 		.4byte	0x37a
 11341 04da 0C       		.uleb128 0xc
 11342 04db 93060000 		.4byte	.LASF114
 11343 04df 01       		.byte	0x1
 11344 04e0 08       		.byte	0x8
 11345 04e1 51       		.byte	0x51
 11346 04e2 FC040000 		.4byte	0x4fc
 11347 04e6 0D       		.uleb128 0xd
 11348 04e7 3D0C0000 		.4byte	.LASF115
 11349 04eb C001     		.sleb128 192
 11350 04ed 0D       		.uleb128 0xd
 11351 04ee 36220000 		.4byte	.LASF116
 11352 04f2 C101     		.sleb128 193
 11353 04f4 0D       		.uleb128 0xd
 11354 04f5 650B0000 		.4byte	.LASF117
 11355 04f9 C201     		.sleb128 194
 11356 04fb 00       		.byte	0
 11357 04fc 0E       		.uleb128 0xe
 11358 04fd C01C0000 		.4byte	.LASF118
 11359 0501 0C01     		.2byte	0x10c
 11360 0503 08       		.byte	0x8
 11361 0504 59       		.byte	0x59
 11362 0505 48050000 		.4byte	0x548
 11363 0509 0F       		.uleb128 0xf
 11364 050a 2E260000 		.4byte	.LASF41
 11365 050e 08       		.byte	0x8
 11366 050f 5B       		.byte	0x5b
 11367 0510 F4000000 		.4byte	0xf4
 11368 0514 00       		.byte	0
 11369 0515 0F       		.uleb128 0xf
 11370 0516 FB000000 		.4byte	.LASF119
 11371 051a 08       		.byte	0x8
 11372 051b 5C       		.byte	0x5c
 11373 051c F9000000 		.4byte	0xf9
 11374 0520 02       		.byte	0x2
 11375 0521 0F       		.uleb128 0xf
 11376 0522 60040000 		.4byte	.LASF120
 11377 0526 08       		.byte	0x8
 11378 0527 5D       		.byte	0x5d
 11379 0528 48050000 		.4byte	0x548
 11380 052c 04       		.byte	0x4
 11381 052d 10       		.uleb128 0x10
 11382 052e C8270000 		.4byte	.LASF121
 11383 0532 08       		.byte	0x8
 11384 0533 5E       		.byte	0x5e
 11385 0534 68050000 		.4byte	0x568
 11386 0538 0401     		.2byte	0x104
 11387 053a 10       		.uleb128 0x10
 11388 053b A0290000 		.4byte	.LASF122
ARM GAS  C:\Users\RECEPC~1\AppData\Local\Temp\ccZZcwiB.s 			page 250


 11389 053f 08       		.byte	0x8
 11390 0540 60       		.byte	0x60
 11391 0541 6E050000 		.4byte	0x56e
 11392 0545 0801     		.2byte	0x108
 11393 0547 00       		.byte	0
 11394 0548 0A       		.uleb128 0xa
 11395 0549 E1000000 		.4byte	0xe1
 11396 054d 58050000 		.4byte	0x558
 11397 0551 0B       		.uleb128 0xb
 11398 0552 0A010000 		.4byte	0x10a
 11399 0556 FF       		.byte	0xff
 11400 0557 00       		.byte	0
 11401 0558 12       		.uleb128 0x12
 11402 0559 68050000 		.4byte	0x568
 11403 055d 13       		.uleb128 0x13
 11404 055e 97000000 		.4byte	0x97
 11405 0562 13       		.uleb128 0x13
 11406 0563 3B010000 		.4byte	0x13b
 11407 0567 00       		.byte	0
 11408 0568 07       		.uleb128 0x7
 11409 0569 04       		.byte	0x4
 11410 056a 58050000 		.4byte	0x558
 11411 056e 07       		.uleb128 0x7
 11412 056f 04       		.byte	0x4
 11413 0570 CF040000 		.4byte	0x4cf
 11414 0574 03       		.uleb128 0x3
 11415 0575 261D0000 		.4byte	.LASF123
 11416 0579 08       		.byte	0x8
 11417 057a 61       		.byte	0x61
 11418 057b 7F050000 		.4byte	0x57f
 11419 057f 07       		.uleb128 0x7
 11420 0580 04       		.byte	0x4
 11421 0581 FC040000 		.4byte	0x4fc
 11422 0585 0C       		.uleb128 0xc
 11423 0586 BF230000 		.4byte	.LASF124
 11424 058a 01       		.byte	0x1
 11425 058b 08       		.byte	0x8
 11426 058c 6D       		.byte	0x6d
 11427 058d BC050000 		.4byte	0x5bc
 11428 0591 0D       		.uleb128 0xd
 11429 0592 32020000 		.4byte	.LASF125
 11430 0596 A001     		.sleb128 160
 11431 0598 0D       		.uleb128 0xd
 11432 0599 D70D0000 		.4byte	.LASF126
 11433 059d A101     		.sleb128 161
 11434 059f 0D       		.uleb128 0xd
 11435 05a0 D3140000 		.4byte	.LASF127
 11436 05a4 A201     		.sleb128 162
 11437 05a6 0D       		.uleb128 0xd
 11438 05a7 EC080000 		.4byte	.LASF128
 11439 05ab A301     		.sleb128 163
 11440 05ad 0D       		.uleb128 0xd
 11441 05ae FA080000 		.4byte	.LASF129
 11442 05b2 A401     		.sleb128 164
 11443 05b4 0D       		.uleb128 0xd
 11444 05b5 171A0000 		.4byte	.LASF130
 11445 05b9 A501     		.sleb128 165
ARM GAS  C:\Users\RECEPC~1\AppData\Local\Temp\ccZZcwiB.s 			page 251


 11446 05bb 00       		.byte	0
 11447 05bc 0C       		.uleb128 0xc
 11448 05bd 20080000 		.4byte	.LASF131
 11449 05c1 01       		.byte	0x1
 11450 05c2 09       		.byte	0x9
 11451 05c3 21       		.byte	0x21
 11452 05c4 22070000 		.4byte	0x722
 11453 05c8 0D       		.uleb128 0xd
 11454 05c9 AF100000 		.4byte	.LASF132
 11455 05cd 01       		.sleb128 1
 11456 05ce 0D       		.uleb128 0xd
 11457 05cf BF100000 		.4byte	.LASF133
 11458 05d3 02       		.sleb128 2
 11459 05d4 0D       		.uleb128 0xd
 11460 05d5 CF100000 		.4byte	.LASF134
 11461 05d9 03       		.sleb128 3
 11462 05da 0D       		.uleb128 0xd
 11463 05db 0F1E0000 		.4byte	.LASF135
 11464 05df 04       		.sleb128 4
 11465 05e0 0D       		.uleb128 0xd
 11466 05e1 E00F0000 		.4byte	.LASF136
 11467 05e5 05       		.sleb128 5
 11468 05e6 0D       		.uleb128 0xd
 11469 05e7 B50B0000 		.4byte	.LASF137
 11470 05eb 06       		.sleb128 6
 11471 05ec 0D       		.uleb128 0xd
 11472 05ed 06070000 		.4byte	.LASF138
 11473 05f1 0F       		.sleb128 15
 11474 05f2 0D       		.uleb128 0xd
 11475 05f3 69170000 		.4byte	.LASF139
 11476 05f7 FE00     		.sleb128 126
 11477 05f9 0D       		.uleb128 0xd
 11478 05fa 86170000 		.4byte	.LASF140
 11479 05fe 8601     		.sleb128 134
 11480 0600 0D       		.uleb128 0xd
 11481 0601 44010000 		.4byte	.LASF141
 11482 0605 07       		.sleb128 7
 11483 0606 0D       		.uleb128 0xd
 11484 0607 CD200000 		.4byte	.LASF142
 11485 060b 08       		.sleb128 8
 11486 060c 0D       		.uleb128 0xd
 11487 060d 180F0000 		.4byte	.LASF143
 11488 0611 09       		.sleb128 9
 11489 0612 0D       		.uleb128 0xd
 11490 0613 5C190000 		.4byte	.LASF144
 11491 0617 0A       		.sleb128 10
 11492 0618 0D       		.uleb128 0xd
 11493 0619 18160000 		.4byte	.LASF145
 11494 061d 0B       		.sleb128 11
 11495 061e 0D       		.uleb128 0xd
 11496 061f AB150000 		.4byte	.LASF146
 11497 0623 25       		.sleb128 37
 11498 0624 0D       		.uleb128 0xd
 11499 0625 F2160000 		.4byte	.LASF147
 11500 0629 26       		.sleb128 38
 11501 062a 0D       		.uleb128 0xd
 11502 062b B7170000 		.4byte	.LASF148
ARM GAS  C:\Users\RECEPC~1\AppData\Local\Temp\ccZZcwiB.s 			page 252


 11503 062f 27       		.sleb128 39
 11504 0630 0D       		.uleb128 0xd
 11505 0631 771D0000 		.4byte	.LASF149
 11506 0635 2F       		.sleb128 47
 11507 0636 0D       		.uleb128 0xd
 11508 0637 930A0000 		.4byte	.LASF150
 11509 063b 2C       		.sleb128 44
 11510 063c 0D       		.uleb128 0xd
 11511 063d 36160000 		.4byte	.LASF151
 11512 0641 0C       		.sleb128 12
 11513 0642 0D       		.uleb128 0xd
 11514 0643 800A0000 		.4byte	.LASF152
 11515 0647 8501     		.sleb128 133
 11516 0649 0D       		.uleb128 0xd
 11517 064a 19190000 		.4byte	.LASF153
 11518 064e 1C       		.sleb128 28
 11519 064f 0D       		.uleb128 0xd
 11520 0650 B61D0000 		.4byte	.LASF154
 11521 0654 12       		.sleb128 18
 11522 0655 0D       		.uleb128 0xd
 11523 0656 E2140000 		.4byte	.LASF155
 11524 065a 13       		.sleb128 19
 11525 065b 0D       		.uleb128 0xd
 11526 065c 80240000 		.4byte	.LASF156
 11527 0660 24       		.sleb128 36
 11528 0661 0D       		.uleb128 0xd
 11529 0662 9C210000 		.4byte	.LASF157
 11530 0666 0D       		.sleb128 13
 11531 0667 0D       		.uleb128 0xd
 11532 0668 36090000 		.4byte	.LASF158
 11533 066c 0E       		.sleb128 14
 11534 066d 0D       		.uleb128 0xd
 11535 066e EB1C0000 		.4byte	.LASF159
 11536 0672 22       		.sleb128 34
 11537 0673 0D       		.uleb128 0xd
 11538 0674 48040000 		.4byte	.LASF160
 11539 0678 DA00     		.sleb128 90
 11540 067a 0D       		.uleb128 0xd
 11541 067b 490B0000 		.4byte	.LASF161
 11542 067f 2E       		.sleb128 46
 11543 0680 0D       		.uleb128 0xd
 11544 0681 CF1C0000 		.4byte	.LASF162
 11545 0685 8C01     		.sleb128 140
 11546 0687 0D       		.uleb128 0xd
 11547 0688 FE0B0000 		.4byte	.LASF163
 11548 068c 9601     		.sleb128 150
 11549 068e 0D       		.uleb128 0xd
 11550 068f BA090000 		.4byte	.LASF164
 11551 0693 39       		.sleb128 57
 11552 0694 0D       		.uleb128 0xd
 11553 0695 FA150000 		.4byte	.LASF165
 11554 0699 9701     		.sleb128 151
 11555 069b 0D       		.uleb128 0xd
 11556 069c 0B2A0000 		.4byte	.LASF166
 11557 06a0 9801     		.sleb128 152
 11558 06a2 0D       		.uleb128 0xd
 11559 06a3 C51B0000 		.4byte	.LASF167
ARM GAS  C:\Users\RECEPC~1\AppData\Local\Temp\ccZZcwiB.s 			page 253


 11560 06a7 3E       		.sleb128 62
 11561 06a8 0D       		.uleb128 0xd
 11562 06a9 02210000 		.4byte	.LASF168
 11563 06ad 3F       		.sleb128 63
 11564 06ae 0D       		.uleb128 0xd
 11565 06af 120A0000 		.4byte	.LASF169
 11566 06b3 C000     		.sleb128 64
 11567 06b5 0D       		.uleb128 0xd
 11568 06b6 CB250000 		.4byte	.LASF170
 11569 06ba 8D01     		.sleb128 141
 11570 06bc 0D       		.uleb128 0xd
 11571 06bd 00040000 		.4byte	.LASF171
 11572 06c1 23       		.sleb128 35
 11573 06c2 0D       		.uleb128 0xd
 11574 06c3 290B0000 		.4byte	.LASF172
 11575 06c7 2A       		.sleb128 42
 11576 06c8 0D       		.uleb128 0xd
 11577 06c9 C5210000 		.4byte	.LASF173
 11578 06cd 2B       		.sleb128 43
 11579 06ce 0D       		.uleb128 0xd
 11580 06cf 120B0000 		.4byte	.LASF174
 11581 06d3 3C       		.sleb128 60
 11582 06d4 0D       		.uleb128 0xd
 11583 06d5 33110000 		.4byte	.LASF175
 11584 06d9 C100     		.sleb128 65
 11585 06db 0D       		.uleb128 0xd
 11586 06dc 660D0000 		.4byte	.LASF176
 11587 06e0 EB00     		.sleb128 107
 11588 06e2 0D       		.uleb128 0xd
 11589 06e3 75150000 		.4byte	.LASF177
 11590 06e7 E700     		.sleb128 103
 11591 06e9 0D       		.uleb128 0xd
 11592 06ea 29070000 		.4byte	.LASF178
 11593 06ee E400     		.sleb128 100
 11594 06f0 0D       		.uleb128 0xd
 11595 06f1 93220000 		.4byte	.LASF179
 11596 06f5 E500     		.sleb128 101
 11597 06f7 0D       		.uleb128 0xd
 11598 06f8 60130000 		.4byte	.LASF180
 11599 06fc 9901     		.sleb128 153
 11600 06fe 0D       		.uleb128 0xd
 11601 06ff 6F130000 		.4byte	.LASF181
 11602 0703 9A01     		.sleb128 154
 11603 0705 0D       		.uleb128 0xd
 11604 0706 7E130000 		.4byte	.LASF182
 11605 070a 9B01     		.sleb128 155
 11606 070c 0D       		.uleb128 0xd
 11607 070d 8D130000 		.4byte	.LASF183
 11608 0711 9C01     		.sleb128 156
 11609 0713 0D       		.uleb128 0xd
 11610 0714 AA1B0000 		.4byte	.LASF184
 11611 0718 FA01     		.sleb128 250
 11612 071a 0D       		.uleb128 0xd
 11613 071b C0220000 		.4byte	.LASF185
 11614 071f FF01     		.sleb128 255
 11615 0721 00       		.byte	0
 11616 0722 17       		.uleb128 0x17
ARM GAS  C:\Users\RECEPC~1\AppData\Local\Temp\ccZZcwiB.s 			page 254


 11617 0723 01       		.byte	0x1
 11618 0724 09       		.byte	0x9
 11619 0725 80       		.byte	0x80
 11620 0726 37070000 		.4byte	0x737
 11621 072a 0D       		.uleb128 0xd
 11622 072b 46000000 		.4byte	.LASF186
 11623 072f 00       		.sleb128 0
 11624 0730 0D       		.uleb128 0xd
 11625 0731 4F000000 		.4byte	.LASF187
 11626 0735 01       		.sleb128 1
 11627 0736 00       		.byte	0
 11628 0737 07       		.uleb128 0x7
 11629 0738 04       		.byte	0x4
 11630 0739 3D070000 		.4byte	0x73d
 11631 073d 18       		.uleb128 0x18
 11632 073e 49020000 		.4byte	0x249
 11633 0742 4C070000 		.4byte	0x74c
 11634 0746 13       		.uleb128 0x13
 11635 0747 11010000 		.4byte	0x111
 11636 074b 00       		.byte	0
 11637 074c 03       		.uleb128 0x3
 11638 074d 2A0E0000 		.4byte	.LASF188
 11639 0751 0A       		.byte	0xa
 11640 0752 1F       		.byte	0x1f
 11641 0753 13010000 		.4byte	0x113
 11642 0757 03       		.uleb128 0x3
 11643 0758 79260000 		.4byte	.LASF189
 11644 075c 0A       		.byte	0xa
 11645 075d 20       		.byte	0x20
 11646 075e 41010000 		.4byte	0x141
 11647 0762 0C       		.uleb128 0xc
 11648 0763 2A1C0000 		.4byte	.LASF190
 11649 0767 01       		.byte	0x1
 11650 0768 0A       		.byte	0xa
 11651 0769 62       		.byte	0x62
 11652 076a 7B070000 		.4byte	0x77b
 11653 076e 0D       		.uleb128 0xd
 11654 076f 49140000 		.4byte	.LASF191
 11655 0773 00       		.sleb128 0
 11656 0774 0D       		.uleb128 0xd
 11657 0775 CC1F0000 		.4byte	.LASF192
 11658 0779 01       		.sleb128 1
 11659 077a 00       		.byte	0
 11660 077b 0C       		.uleb128 0xc
 11661 077c E1030000 		.4byte	.LASF193
 11662 0780 01       		.byte	0x1
 11663 0781 0A       		.byte	0xa
 11664 0782 7A       		.byte	0x7a
 11665 0783 C3070000 		.4byte	0x7c3
 11666 0787 0D       		.uleb128 0xd
 11667 0788 5F1C0000 		.4byte	.LASF194
 11668 078c 00       		.sleb128 0
 11669 078d 0D       		.uleb128 0xd
 11670 078e 1D010000 		.4byte	.LASF195
 11671 0792 10       		.sleb128 16
 11672 0793 0D       		.uleb128 0xd
 11673 0794 CF260000 		.4byte	.LASF196
ARM GAS  C:\Users\RECEPC~1\AppData\Local\Temp\ccZZcwiB.s 			page 255


 11674 0798 20       		.sleb128 32
 11675 0799 0D       		.uleb128 0xd
 11676 079a 7A220000 		.4byte	.LASF197
 11677 079e 30       		.sleb128 48
 11678 079f 0D       		.uleb128 0xd
 11679 07a0 5E250000 		.4byte	.LASF198
 11680 07a4 C000     		.sleb128 64
 11681 07a6 0D       		.uleb128 0xd
 11682 07a7 F50E0000 		.4byte	.LASF199
 11683 07ab D000     		.sleb128 80
 11684 07ad 0D       		.uleb128 0xd
 11685 07ae 54060000 		.4byte	.LASF200
 11686 07b2 E000     		.sleb128 96
 11687 07b4 0D       		.uleb128 0xd
 11688 07b5 3A030000 		.4byte	.LASF201
 11689 07b9 F000     		.sleb128 112
 11690 07bb 0D       		.uleb128 0xd
 11691 07bc A3170000 		.4byte	.LASF202
 11692 07c0 FC01     		.sleb128 252
 11693 07c2 00       		.byte	0
 11694 07c3 0C       		.uleb128 0xc
 11695 07c4 AF1F0000 		.4byte	.LASF203
 11696 07c8 01       		.byte	0x1
 11697 07c9 0A       		.byte	0xa
 11698 07ca 89       		.byte	0x89
 11699 07cb 1D080000 		.4byte	0x81d
 11700 07cf 19       		.uleb128 0x19
 11701 07d0 534F4D00 		.ascii	"SOM\000"
 11702 07d4 FF01     		.sleb128 255
 11703 07d6 19       		.uleb128 0x19
 11704 07d7 56505400 		.ascii	"VPT\000"
 11705 07db F101     		.sleb128 241
 11706 07dd 19       		.uleb128 0x19
 11707 07de 4D505400 		.ascii	"MPT\000"
 11708 07e2 F201     		.sleb128 242
 11709 07e4 19       		.uleb128 0x19
 11710 07e5 48446E00 		.ascii	"HDn\000"
 11711 07e9 F601     		.sleb128 246
 11712 07eb 0D       		.uleb128 0xd
 11713 07ec 8B250000 		.4byte	.LASF204
 11714 07f0 F701     		.sleb128 247
 11715 07f2 0D       		.uleb128 0xd
 11716 07f3 AD0D0000 		.4byte	.LASF205
 11717 07f7 F801     		.sleb128 248
 11718 07f9 19       		.uleb128 0x19
 11719 07fa 56446E00 		.ascii	"VDn\000"
 11720 07fe F901     		.sleb128 249
 11721 0800 19       		.uleb128 0x19
 11722 0801 4D446E00 		.ascii	"MDn\000"
 11723 0805 FA01     		.sleb128 250
 11724 0807 0D       		.uleb128 0xd
 11725 0808 940B0000 		.4byte	.LASF206
 11726 080c FB01     		.sleb128 251
 11727 080e 19       		.uleb128 0x19
 11728 080f 53466E00 		.ascii	"SFn\000"
 11729 0813 FE01     		.sleb128 254
 11730 0815 19       		.uleb128 0x19
ARM GAS  C:\Users\RECEPC~1\AppData\Local\Temp\ccZZcwiB.s 			page 256


 11731 0816 454F4D00 		.ascii	"EOM\000"
 11732 081a F001     		.sleb128 240
 11733 081c 00       		.byte	0
 11734 081d 0C       		.uleb128 0xc
 11735 081e 2B280000 		.4byte	.LASF207
 11736 0822 01       		.byte	0x1
 11737 0823 0A       		.byte	0xa
 11738 0824 98       		.byte	0x98
 11739 0825 67080000 		.4byte	0x867
 11740 0829 0D       		.uleb128 0xd
 11741 082a B01C0000 		.4byte	.LASF208
 11742 082e 00       		.sleb128 0
 11743 082f 0D       		.uleb128 0xd
 11744 0830 11250000 		.4byte	.LASF209
 11745 0834 06       		.sleb128 6
 11746 0835 0D       		.uleb128 0xd
 11747 0836 F91A0000 		.4byte	.LASF210
 11748 083a 07       		.sleb128 7
 11749 083b 0D       		.uleb128 0xd
 11750 083c 75020000 		.4byte	.LASF211
 11751 0840 08       		.sleb128 8
 11752 0841 0D       		.uleb128 0xd
 11753 0842 0E0F0000 		.4byte	.LASF212
 11754 0846 09       		.sleb128 9
 11755 0847 0D       		.uleb128 0xd
 11756 0848 BE1E0000 		.4byte	.LASF213
 11757 084c 0A       		.sleb128 10
 11758 084d 0D       		.uleb128 0xd
 11759 084e FF1C0000 		.4byte	.LASF214
 11760 0852 0B       		.sleb128 11
 11761 0853 0D       		.uleb128 0xd
 11762 0854 C2280000 		.4byte	.LASF215
 11763 0858 0C       		.sleb128 12
 11764 0859 0D       		.uleb128 0xd
 11765 085a E1200000 		.4byte	.LASF216
 11766 085e 0D       		.sleb128 13
 11767 085f 0D       		.uleb128 0xd
 11768 0860 2D030000 		.4byte	.LASF217
 11769 0864 FF01     		.sleb128 255
 11770 0866 00       		.byte	0
 11771 0867 0C       		.uleb128 0xc
 11772 0868 770F0000 		.4byte	.LASF218
 11773 086c 01       		.byte	0x1
 11774 086d 0A       		.byte	0xa
 11775 086e EC       		.byte	0xec
 11776 086f D4080000 		.4byte	0x8d4
 11777 0873 0D       		.uleb128 0xd
 11778 0874 21220000 		.4byte	.LASF219
 11779 0878 0F       		.sleb128 15
 11780 0879 0D       		.uleb128 0xd
 11781 087a 721C0000 		.4byte	.LASF220
 11782 087e 10       		.sleb128 16
 11783 087f 0D       		.uleb128 0xd
 11784 0880 52260000 		.4byte	.LASF221
 11785 0884 C300     		.sleb128 67
 11786 0886 0D       		.uleb128 0xd
 11787 0887 C0050000 		.4byte	.LASF222
ARM GAS  C:\Users\RECEPC~1\AppData\Local\Temp\ccZZcwiB.s 			page 257


 11788 088b C400     		.sleb128 68
 11789 088d 0D       		.uleb128 0xd
 11790 088e 461E0000 		.4byte	.LASF223
 11791 0892 C500     		.sleb128 69
 11792 0894 0D       		.uleb128 0xd
 11793 0895 5E210000 		.4byte	.LASF224
 11794 0899 C600     		.sleb128 70
 11795 089b 0D       		.uleb128 0xd
 11796 089c D2070000 		.4byte	.LASF225
 11797 08a0 C700     		.sleb128 71
 11798 08a2 0D       		.uleb128 0xd
 11799 08a3 19130000 		.4byte	.LASF226
 11800 08a7 C800     		.sleb128 72
 11801 08a9 0D       		.uleb128 0xd
 11802 08aa 82260000 		.4byte	.LASF227
 11803 08ae C900     		.sleb128 73
 11804 08b0 0D       		.uleb128 0xd
 11805 08b1 08090000 		.4byte	.LASF228
 11806 08b5 CA00     		.sleb128 74
 11807 08b7 0D       		.uleb128 0xd
 11808 08b8 031E0000 		.4byte	.LASF229
 11809 08bc CB00     		.sleb128 75
 11810 08be 0D       		.uleb128 0xd
 11811 08bf B2250000 		.4byte	.LASF230
 11812 08c3 CC00     		.sleb128 76
 11813 08c5 0D       		.uleb128 0xd
 11814 08c6 05100000 		.4byte	.LASF231
 11815 08ca CD00     		.sleb128 77
 11816 08cc 0D       		.uleb128 0xd
 11817 08cd 4C130000 		.4byte	.LASF232
 11818 08d1 CE00     		.sleb128 78
 11819 08d3 00       		.byte	0
 11820 08d4 0C       		.uleb128 0xc
 11821 08d5 5A0E0000 		.4byte	.LASF233
 11822 08d9 01       		.byte	0x1
 11823 08da 0A       		.byte	0xa
 11824 08db FE       		.byte	0xfe
 11825 08dc F3080000 		.4byte	0x8f3
 11826 08e0 0D       		.uleb128 0xd
 11827 08e1 40270000 		.4byte	.LASF234
 11828 08e5 01       		.sleb128 1
 11829 08e6 0D       		.uleb128 0xd
 11830 08e7 99090000 		.4byte	.LASF235
 11831 08eb 02       		.sleb128 2
 11832 08ec 0D       		.uleb128 0xd
 11833 08ed 9C130000 		.4byte	.LASF236
 11834 08f1 03       		.sleb128 3
 11835 08f2 00       		.byte	0
 11836 08f3 1A       		.uleb128 0x1a
 11837 08f4 CD030000 		.4byte	.LASF237
 11838 08f8 01       		.byte	0x1
 11839 08f9 0A       		.byte	0xa
 11840 08fa 0B01     		.2byte	0x10b
 11841 08fc 0D090000 		.4byte	0x90d
 11842 0900 0D       		.uleb128 0xd
 11843 0901 30180000 		.4byte	.LASF238
 11844 0905 01       		.sleb128 1
ARM GAS  C:\Users\RECEPC~1\AppData\Local\Temp\ccZZcwiB.s 			page 258


 11845 0906 0D       		.uleb128 0xd
 11846 0907 B1200000 		.4byte	.LASF239
 11847 090b 02       		.sleb128 2
 11848 090c 00       		.byte	0
 11849 090d 1B       		.uleb128 0x1b
 11850 090e 0401     		.2byte	0x104
 11851 0910 0A       		.byte	0xa
 11852 0911 1801     		.2byte	0x118
 11853 0913 4D090000 		.4byte	0x94d
 11854 0917 1C       		.uleb128 0x1c
 11855 0918 E0020000 		.4byte	.LASF240
 11856 091c 0A       		.byte	0xa
 11857 091d 1A01     		.2byte	0x11a
 11858 091f 97000000 		.4byte	0x97
 11859 0923 00       		.byte	0
 11860 0924 1C       		.uleb128 0x1c
 11861 0925 A51C0000 		.4byte	.LASF241
 11862 0929 0A       		.byte	0xa
 11863 092a 1B01     		.2byte	0x11b
 11864 092c 97000000 		.4byte	0x97
 11865 0930 01       		.byte	0x1
 11866 0931 1C       		.uleb128 0x1c
 11867 0932 5E070000 		.4byte	.LASF46
 11868 0936 0A       		.byte	0xa
 11869 0937 1C01     		.2byte	0x11c
 11870 0939 4D090000 		.4byte	0x94d
 11871 093d 02       		.byte	0x2
 11872 093e 1D       		.uleb128 0x1d
 11873 093f D6290000 		.4byte	.LASF47
 11874 0943 0A       		.byte	0xa
 11875 0944 1D01     		.2byte	0x11d
 11876 0946 A3000000 		.4byte	0xa3
 11877 094a 0201     		.2byte	0x102
 11878 094c 00       		.byte	0
 11879 094d 0A       		.uleb128 0xa
 11880 094e ED000000 		.4byte	0xed
 11881 0952 5D090000 		.4byte	0x95d
 11882 0956 0B       		.uleb128 0xb
 11883 0957 0A010000 		.4byte	0x10a
 11884 095b FF       		.byte	0xff
 11885 095c 00       		.byte	0
 11886 095d 05       		.uleb128 0x5
 11887 095e 8A280000 		.4byte	.LASF242
 11888 0962 0A       		.byte	0xa
 11889 0963 1F01     		.2byte	0x11f
 11890 0965 0D090000 		.4byte	0x90d
 11891 0969 05       		.uleb128 0x5
 11892 096a 13110000 		.4byte	.LASF243
 11893 096e 0A       		.byte	0xa
 11894 096f 1F01     		.2byte	0x11f
 11895 0971 75090000 		.4byte	0x975
 11896 0975 07       		.uleb128 0x7
 11897 0976 04       		.byte	0x4
 11898 0977 0D090000 		.4byte	0x90d
 11899 097b 1E       		.uleb128 0x1e
 11900 097c 40       		.byte	0x40
 11901 097d 0A       		.byte	0xa
ARM GAS  C:\Users\RECEPC~1\AppData\Local\Temp\ccZZcwiB.s 			page 259


 11902 097e 2101     		.2byte	0x121
 11903 0980 210A0000 		.4byte	0xa21
 11904 0984 1C       		.uleb128 0x1c
 11905 0985 F0200000 		.4byte	.LASF244
 11906 0989 0A       		.byte	0xa
 11907 098a 2301     		.2byte	0x123
 11908 098c F4000000 		.4byte	0xf4
 11909 0990 00       		.byte	0
 11910 0991 1C       		.uleb128 0x1c
 11911 0992 F6200000 		.4byte	.LASF245
 11912 0996 0A       		.byte	0xa
 11913 0997 2401     		.2byte	0x124
 11914 0999 F4000000 		.4byte	0xf4
 11915 099d 01       		.byte	0x1
 11916 099e 1C       		.uleb128 0x1c
 11917 099f FC200000 		.4byte	.LASF246
 11918 09a3 0A       		.byte	0xa
 11919 09a4 2601     		.2byte	0x126
 11920 09a6 F9000000 		.4byte	0xf9
 11921 09aa 02       		.byte	0x2
 11922 09ab 1C       		.uleb128 0x1c
 11923 09ac 0D1F0000 		.4byte	.LASF247
 11924 09b0 0A       		.byte	0xa
 11925 09b1 2701     		.2byte	0x127
 11926 09b3 F9000000 		.4byte	0xf9
 11927 09b7 04       		.byte	0x4
 11928 09b8 1C       		.uleb128 0x1c
 11929 09b9 131F0000 		.4byte	.LASF248
 11930 09bd 0A       		.byte	0xa
 11931 09be 2901     		.2byte	0x129
 11932 09c0 FE000000 		.4byte	0xfe
 11933 09c4 08       		.byte	0x8
 11934 09c5 1C       		.uleb128 0x1c
 11935 09c6 24210000 		.4byte	.LASF249
 11936 09ca 0A       		.byte	0xa
 11937 09cb 2A01     		.2byte	0x12a
 11938 09cd FE000000 		.4byte	0xfe
 11939 09d1 0C       		.byte	0xc
 11940 09d2 1C       		.uleb128 0x1c
 11941 09d3 2A210000 		.4byte	.LASF250
 11942 09d7 0A       		.byte	0xa
 11943 09d8 2F01     		.2byte	0x12f
 11944 09da 210A0000 		.4byte	0xa21
 11945 09de 10       		.byte	0x10
 11946 09df 1C       		.uleb128 0x1c
 11947 09e0 30210000 		.4byte	.LASF251
 11948 09e4 0A       		.byte	0xa
 11949 09e5 3001     		.2byte	0x130
 11950 09e7 210A0000 		.4byte	0xa21
 11951 09eb 18       		.byte	0x18
 11952 09ec 1C       		.uleb128 0x1c
 11953 09ed 36210000 		.4byte	.LASF252
 11954 09f1 0A       		.byte	0xa
 11955 09f2 3101     		.2byte	0x131
 11956 09f4 210A0000 		.4byte	0xa21
 11957 09f8 20       		.byte	0x20
 11958 09f9 1C       		.uleb128 0x1c
ARM GAS  C:\Users\RECEPC~1\AppData\Local\Temp\ccZZcwiB.s 			page 260


 11959 09fa 3C210000 		.4byte	.LASF253
 11960 09fe 0A       		.byte	0xa
 11961 09ff 3201     		.2byte	0x132
 11962 0a01 210A0000 		.4byte	0xa21
 11963 0a05 28       		.byte	0x28
 11964 0a06 1C       		.uleb128 0x1c
 11965 0a07 73210000 		.4byte	.LASF254
 11966 0a0b 0A       		.byte	0xa
 11967 0a0c 3401     		.2byte	0x134
 11968 0a0e 260A0000 		.4byte	0xa26
 11969 0a12 30       		.byte	0x30
 11970 0a13 1C       		.uleb128 0x1c
 11971 0a14 79210000 		.4byte	.LASF255
 11972 0a18 0A       		.byte	0xa
 11973 0a19 3501     		.2byte	0x135
 11974 0a1b 260A0000 		.4byte	0xa26
 11975 0a1f 38       		.byte	0x38
 11976 0a20 00       		.byte	0
 11977 0a21 06       		.uleb128 0x6
 11978 0a22 D5000000 		.4byte	0xd5
 11979 0a26 06       		.uleb128 0x6
 11980 0a27 CE000000 		.4byte	0xce
 11981 0a2b 05       		.uleb128 0x5
 11982 0a2c 95180000 		.4byte	.LASF256
 11983 0a30 0A       		.byte	0xa
 11984 0a31 3701     		.2byte	0x137
 11985 0a33 7B090000 		.4byte	0x97b
 11986 0a37 1E       		.uleb128 0x1e
 11987 0a38 18       		.byte	0x18
 11988 0a39 0A       		.byte	0xa
 11989 0a3a 3F01     		.2byte	0x13f
 11990 0a3c 9C0A0000 		.4byte	0xa9c
 11991 0a40 1C       		.uleb128 0x1c
 11992 0a41 3E1C0000 		.4byte	.LASF257
 11993 0a45 0A       		.byte	0xa
 11994 0a46 4201     		.2byte	0x142
 11995 0a48 44020000 		.4byte	0x244
 11996 0a4c 00       		.byte	0
 11997 0a4d 1C       		.uleb128 0x1c
 11998 0a4e 6D050000 		.4byte	.LASF258
 11999 0a52 0A       		.byte	0xa
 12000 0a53 4301     		.2byte	0x143
 12001 0a55 F4000000 		.4byte	0xf4
 12002 0a59 01       		.byte	0x1
 12003 0a5a 1C       		.uleb128 0x1c
 12004 0a5b F3250000 		.4byte	.LASF259
 12005 0a5f 0A       		.byte	0xa
 12006 0a60 4401     		.2byte	0x144
 12007 0a62 F4000000 		.4byte	0xf4
 12008 0a66 02       		.byte	0x2
 12009 0a67 1C       		.uleb128 0x1c
 12010 0a68 C5180000 		.4byte	.LASF260
 12011 0a6c 0A       		.byte	0xa
 12012 0a6d 4501     		.2byte	0x145
 12013 0a6f F9000000 		.4byte	0xf9
 12014 0a73 04       		.byte	0x4
 12015 0a74 1C       		.uleb128 0x1c
ARM GAS  C:\Users\RECEPC~1\AppData\Local\Temp\ccZZcwiB.s 			page 261


 12016 0a75 591F0000 		.4byte	.LASF261
 12017 0a79 0A       		.byte	0xa
 12018 0a7a 4601     		.2byte	0x146
 12019 0a7c FE000000 		.4byte	0xfe
 12020 0a80 08       		.byte	0x8
 12021 0a81 1C       		.uleb128 0x1c
 12022 0a82 CD0C0000 		.4byte	.LASF262
 12023 0a86 0A       		.byte	0xa
 12024 0a87 4701     		.2byte	0x147
 12025 0a89 FE000000 		.4byte	0xfe
 12026 0a8d 0C       		.byte	0xc
 12027 0a8e 1C       		.uleb128 0x1c
 12028 0a8f F60B0000 		.4byte	.LASF263
 12029 0a93 0A       		.byte	0xa
 12030 0a94 4801     		.2byte	0x148
 12031 0a96 9C0A0000 		.4byte	0xa9c
 12032 0a9a 10       		.byte	0x10
 12033 0a9b 00       		.byte	0
 12034 0a9c 0A       		.uleb128 0xa
 12035 0a9d E1000000 		.4byte	0xe1
 12036 0aa1 AC0A0000 		.4byte	0xaac
 12037 0aa5 0B       		.uleb128 0xb
 12038 0aa6 0A010000 		.4byte	0x10a
 12039 0aaa 07       		.byte	0x7
 12040 0aab 00       		.byte	0
 12041 0aac 05       		.uleb128 0x5
 12042 0aad CB110000 		.4byte	.LASF264
 12043 0ab1 0A       		.byte	0xa
 12044 0ab2 4A01     		.2byte	0x14a
 12045 0ab4 370A0000 		.4byte	0xa37
 12046 0ab8 1F       		.uleb128 0x1f
 12047 0ab9 35150000 		.4byte	.LASF265
 12048 0abd C009     		.2byte	0x9c0
 12049 0abf 0A       		.byte	0xa
 12050 0ac0 4D01     		.2byte	0x14d
 12051 0ac2 9D0C0000 		.4byte	0xc9d
 12052 0ac6 1C       		.uleb128 0x1c
 12053 0ac7 85100000 		.4byte	.LASF266
 12054 0acb 0A       		.byte	0xa
 12055 0acc 4F01     		.2byte	0x14f
 12056 0ace 97000000 		.4byte	0x97
 12057 0ad2 00       		.byte	0
 12058 0ad3 1C       		.uleb128 0x1c
 12059 0ad4 DC210000 		.4byte	.LASF267
 12060 0ad8 0A       		.byte	0xa
 12061 0ad9 5001     		.2byte	0x150
 12062 0adb 97000000 		.4byte	0x97
 12063 0adf 01       		.byte	0x1
 12064 0ae0 1C       		.uleb128 0x1c
 12065 0ae1 15080000 		.4byte	.LASF268
 12066 0ae5 0A       		.byte	0xa
 12067 0ae6 5201     		.2byte	0x152
 12068 0ae8 F4000000 		.4byte	0xf4
 12069 0aec 02       		.byte	0x2
 12070 0aed 1C       		.uleb128 0x1c
 12071 0aee 911F0000 		.4byte	.LASF269
 12072 0af2 0A       		.byte	0xa
ARM GAS  C:\Users\RECEPC~1\AppData\Local\Temp\ccZZcwiB.s 			page 262


 12073 0af3 5301     		.2byte	0x153
 12074 0af5 F4000000 		.4byte	0xf4
 12075 0af9 03       		.byte	0x3
 12076 0afa 1C       		.uleb128 0x1c
 12077 0afb 461D0000 		.4byte	.LASF270
 12078 0aff 0A       		.byte	0xa
 12079 0b00 5401     		.2byte	0x154
 12080 0b02 F4000000 		.4byte	0xf4
 12081 0b06 04       		.byte	0x4
 12082 0b07 1C       		.uleb128 0x1c
 12083 0b08 BD200000 		.4byte	.LASF271
 12084 0b0c 0A       		.byte	0xa
 12085 0b0d 5501     		.2byte	0x155
 12086 0b0f 44020000 		.4byte	0x244
 12087 0b13 05       		.byte	0x5
 12088 0b14 1C       		.uleb128 0x1c
 12089 0b15 3E1C0000 		.4byte	.LASF257
 12090 0b19 0A       		.byte	0xa
 12091 0b1a 5801     		.2byte	0x158
 12092 0b1c 44020000 		.4byte	0x244
 12093 0b20 06       		.byte	0x6
 12094 0b21 1C       		.uleb128 0x1c
 12095 0b22 66140000 		.4byte	.LASF272
 12096 0b26 0A       		.byte	0xa
 12097 0b27 5901     		.2byte	0x159
 12098 0b29 44020000 		.4byte	0x244
 12099 0b2d 07       		.byte	0x7
 12100 0b2e 1C       		.uleb128 0x1c
 12101 0b2f E91F0000 		.4byte	.LASF273
 12102 0b33 0A       		.byte	0xa
 12103 0b34 5A01     		.2byte	0x15a
 12104 0b36 44020000 		.4byte	0x244
 12105 0b3a 08       		.byte	0x8
 12106 0b3b 1C       		.uleb128 0x1c
 12107 0b3c 0A220000 		.4byte	.LASF274
 12108 0b40 0A       		.byte	0xa
 12109 0b41 5B01     		.2byte	0x15b
 12110 0b43 44020000 		.4byte	0x244
 12111 0b47 09       		.byte	0x9
 12112 0b48 1C       		.uleb128 0x1c
 12113 0b49 04080000 		.4byte	.LASF275
 12114 0b4d 0A       		.byte	0xa
 12115 0b4e 5C01     		.2byte	0x15c
 12116 0b50 F4000000 		.4byte	0xf4
 12117 0b54 0A       		.byte	0xa
 12118 0b55 1C       		.uleb128 0x1c
 12119 0b56 430E0000 		.4byte	.LASF276
 12120 0b5a 0A       		.byte	0xa
 12121 0b5b 5D01     		.2byte	0x15d
 12122 0b5d 44020000 		.4byte	0x244
 12123 0b61 0B       		.byte	0xb
 12124 0b62 1C       		.uleb128 0x1c
 12125 0b63 22000000 		.4byte	.LASF277
 12126 0b67 0A       		.byte	0xa
 12127 0b68 5E01     		.2byte	0x15e
 12128 0b6a F4000000 		.4byte	0xf4
 12129 0b6e 0C       		.byte	0xc
ARM GAS  C:\Users\RECEPC~1\AppData\Local\Temp\ccZZcwiB.s 			page 263


 12130 0b6f 1C       		.uleb128 0x1c
 12131 0b70 39270000 		.4byte	.LASF278
 12132 0b74 0A       		.byte	0xa
 12133 0b75 6001     		.2byte	0x160
 12134 0b77 44020000 		.4byte	0x244
 12135 0b7b 0D       		.byte	0xd
 12136 0b7c 1C       		.uleb128 0x1c
 12137 0b7d D1170000 		.4byte	.LASF279
 12138 0b81 0A       		.byte	0xa
 12139 0b82 6201     		.2byte	0x162
 12140 0b84 FE000000 		.4byte	0xfe
 12141 0b88 10       		.byte	0x10
 12142 0b89 1C       		.uleb128 0x1c
 12143 0b8a 59120000 		.4byte	.LASF280
 12144 0b8e 0A       		.byte	0xa
 12145 0b8f 6301     		.2byte	0x163
 12146 0b91 FE000000 		.4byte	0xfe
 12147 0b95 14       		.byte	0x14
 12148 0b96 1C       		.uleb128 0x1c
 12149 0b97 581B0000 		.4byte	.LASF281
 12150 0b9b 0A       		.byte	0xa
 12151 0b9c 6601     		.2byte	0x166
 12152 0b9e F4000000 		.4byte	0xf4
 12153 0ba2 18       		.byte	0x18
 12154 0ba3 1C       		.uleb128 0x1c
 12155 0ba4 A51C0000 		.4byte	.LASF241
 12156 0ba8 0A       		.byte	0xa
 12157 0ba9 6701     		.2byte	0x167
 12158 0bab F4000000 		.4byte	0xf4
 12159 0baf 19       		.byte	0x19
 12160 0bb0 1C       		.uleb128 0x1c
 12161 0bb1 611E0000 		.4byte	.LASF282
 12162 0bb5 0A       		.byte	0xa
 12163 0bb6 6901     		.2byte	0x169
 12164 0bb8 11010000 		.4byte	0x111
 12165 0bbc 1C       		.byte	0x1c
 12166 0bbd 1C       		.uleb128 0x1c
 12167 0bbe 8A110000 		.4byte	.LASF283
 12168 0bc2 0A       		.byte	0xa
 12169 0bc3 6A01     		.2byte	0x16a
 12170 0bc5 50020000 		.4byte	0x250
 12171 0bc9 20       		.byte	0x20
 12172 0bca 1D       		.uleb128 0x1d
 12173 0bcb F4100000 		.4byte	.LASF284
 12174 0bcf 0A       		.byte	0xa
 12175 0bd0 6C01     		.2byte	0x16c
 12176 0bd2 50020000 		.4byte	0x250
 12177 0bd6 A001     		.2byte	0x1a0
 12178 0bd8 1D       		.uleb128 0x1d
 12179 0bd9 59020000 		.4byte	.LASF285
 12180 0bdd 0A       		.byte	0xa
 12181 0bde 6D01     		.2byte	0x16d
 12182 0be0 A3000000 		.4byte	0xa3
 12183 0be4 2003     		.2byte	0x320
 12184 0be6 1D       		.uleb128 0x1d
 12185 0be7 FB040000 		.4byte	.LASF286
 12186 0beb 0A       		.byte	0xa
ARM GAS  C:\Users\RECEPC~1\AppData\Local\Temp\ccZZcwiB.s 			page 264


 12187 0bec 7101     		.2byte	0x171
 12188 0bee 9D0C0000 		.4byte	0xc9d
 12189 0bf2 2203     		.2byte	0x322
 12190 0bf4 1D       		.uleb128 0x1d
 12191 0bf5 C20E0000 		.4byte	.LASF287
 12192 0bf9 0A       		.byte	0xa
 12193 0bfa 7301     		.2byte	0x173
 12194 0bfc 44020000 		.4byte	0x244
 12195 0c00 3A09     		.2byte	0x93a
 12196 0c02 1D       		.uleb128 0x1d
 12197 0c03 AD220000 		.4byte	.LASF288
 12198 0c07 0A       		.byte	0xa
 12199 0c08 7501     		.2byte	0x175
 12200 0c0a 6C020000 		.4byte	0x26c
 12201 0c0e 3C09     		.2byte	0x93c
 12202 0c10 1D       		.uleb128 0x1d
 12203 0c11 8B290000 		.4byte	.LASF289
 12204 0c15 0A       		.byte	0xa
 12205 0c16 7601     		.2byte	0x176
 12206 0c18 6C020000 		.4byte	0x26c
 12207 0c1c 4009     		.2byte	0x940
 12208 0c1e 1D       		.uleb128 0x1d
 12209 0c1f B5270000 		.4byte	.LASF290
 12210 0c23 0A       		.byte	0xa
 12211 0c24 7701     		.2byte	0x177
 12212 0c26 C10C0000 		.4byte	0xcc1
 12213 0c2a 4409     		.2byte	0x944
 12214 0c2c 1D       		.uleb128 0x1d
 12215 0c2d 34230000 		.4byte	.LASF291
 12216 0c31 0A       		.byte	0xa
 12217 0c32 7801     		.2byte	0x178
 12218 0c34 D70C0000 		.4byte	0xcd7
 12219 0c38 4809     		.2byte	0x948
 12220 0c3a 1D       		.uleb128 0x1d
 12221 0c3b 3B060000 		.4byte	.LASF292
 12222 0c3f 0A       		.byte	0xa
 12223 0c40 7901     		.2byte	0x179
 12224 0c42 D70C0000 		.4byte	0xcd7
 12225 0c46 4C09     		.2byte	0x94c
 12226 0c48 1D       		.uleb128 0x1d
 12227 0c49 CD220000 		.4byte	.LASF293
 12228 0c4d 0A       		.byte	0xa
 12229 0c4e 7A01     		.2byte	0x17a
 12230 0c50 EC0C0000 		.4byte	0xcec
 12231 0c54 5009     		.2byte	0x950
 12232 0c56 1D       		.uleb128 0x1d
 12233 0c57 0B0D0000 		.4byte	.LASF294
 12234 0c5b 0A       		.byte	0xa
 12235 0c5c 7B01     		.2byte	0x17b
 12236 0c5e EC0C0000 		.4byte	0xcec
 12237 0c62 5409     		.2byte	0x954
 12238 0c64 1D       		.uleb128 0x1d
 12239 0c65 90250000 		.4byte	.LASF295
 12240 0c69 0A       		.byte	0xa
 12241 0c6a 7D01     		.2byte	0x17d
 12242 0c6c 37070000 		.4byte	0x737
 12243 0c70 5809     		.2byte	0x958
ARM GAS  C:\Users\RECEPC~1\AppData\Local\Temp\ccZZcwiB.s 			page 265


 12244 0c72 1D       		.uleb128 0x1d
 12245 0c73 A1280000 		.4byte	.LASF296
 12246 0c77 0A       		.byte	0xa
 12247 0c78 7F01     		.2byte	0x17f
 12248 0c7a 2B0A0000 		.4byte	0xa2b
 12249 0c7e 6009     		.2byte	0x960
 12250 0c80 1D       		.uleb128 0x1d
 12251 0c81 9F250000 		.4byte	.LASF297
 12252 0c85 0A       		.byte	0xa
 12253 0c86 8001     		.2byte	0x180
 12254 0c88 AC0A0000 		.4byte	0xaac
 12255 0c8c A009     		.2byte	0x9a0
 12256 0c8e 1D       		.uleb128 0x1d
 12257 0c8f AE1D0000 		.4byte	.LASF298
 12258 0c93 0A       		.byte	0xa
 12259 0c94 8201     		.2byte	0x182
 12260 0c96 6C020000 		.4byte	0x26c
 12261 0c9a B809     		.2byte	0x9b8
 12262 0c9c 00       		.byte	0
 12263 0c9d 0A       		.uleb128 0xa
 12264 0c9e 5D090000 		.4byte	0x95d
 12265 0ca2 AD0C0000 		.4byte	0xcad
 12266 0ca6 0B       		.uleb128 0xb
 12267 0ca7 0A010000 		.4byte	0x10a
 12268 0cab 05       		.byte	0x5
 12269 0cac 00       		.byte	0
 12270 0cad 18       		.uleb128 0x18
 12271 0cae 49020000 		.4byte	0x249
 12272 0cb2 C10C0000 		.4byte	0xcc1
 12273 0cb6 13       		.uleb128 0x13
 12274 0cb7 11010000 		.4byte	0x111
 12275 0cbb 13       		.uleb128 0x13
 12276 0cbc 97000000 		.4byte	0x97
 12277 0cc0 00       		.byte	0
 12278 0cc1 07       		.uleb128 0x7
 12279 0cc2 04       		.byte	0x4
 12280 0cc3 AD0C0000 		.4byte	0xcad
 12281 0cc7 12       		.uleb128 0x12
 12282 0cc8 D70C0000 		.4byte	0xcd7
 12283 0ccc 13       		.uleb128 0x13
 12284 0ccd 11010000 		.4byte	0x111
 12285 0cd1 13       		.uleb128 0x13
 12286 0cd2 69090000 		.4byte	0x969
 12287 0cd6 00       		.byte	0
 12288 0cd7 07       		.uleb128 0x7
 12289 0cd8 04       		.byte	0x4
 12290 0cd9 C70C0000 		.4byte	0xcc7
 12291 0cdd 18       		.uleb128 0x18
 12292 0cde 69090000 		.4byte	0x969
 12293 0ce2 EC0C0000 		.4byte	0xcec
 12294 0ce6 13       		.uleb128 0x13
 12295 0ce7 11010000 		.4byte	0x111
 12296 0ceb 00       		.byte	0
 12297 0cec 07       		.uleb128 0x7
 12298 0ced 04       		.byte	0x4
 12299 0cee DD0C0000 		.4byte	0xcdd
 12300 0cf2 05       		.uleb128 0x5
ARM GAS  C:\Users\RECEPC~1\AppData\Local\Temp\ccZZcwiB.s 			page 266


 12301 0cf3 FE1D0000 		.4byte	.LASF299
 12302 0cf7 0A       		.byte	0xa
 12303 0cf8 8401     		.2byte	0x184
 12304 0cfa B80A0000 		.4byte	0xab8
 12305 0cfe 05       		.uleb128 0x5
 12306 0cff 181D0000 		.4byte	.LASF300
 12307 0d03 0A       		.byte	0xa
 12308 0d04 8401     		.2byte	0x184
 12309 0d06 0A0D0000 		.4byte	0xd0a
 12310 0d0a 07       		.uleb128 0x7
 12311 0d0b 04       		.byte	0x4
 12312 0d0c B80A0000 		.4byte	0xab8
 12313 0d10 20       		.uleb128 0x20
 12314 0d11 131C0000 		.4byte	.LASF301
 12315 0d15 34       		.byte	0x34
 12316 0d16 0A       		.byte	0xa
 12317 0d17 8901     		.2byte	0x189
 12318 0d19 D40D0000 		.4byte	0xdd4
 12319 0d1d 1C       		.uleb128 0x1c
 12320 0d1e E7210000 		.4byte	.LASF302
 12321 0d22 0A       		.byte	0xa
 12322 0d23 8B01     		.2byte	0x18b
 12323 0d25 6C020000 		.4byte	0x26c
 12324 0d29 00       		.byte	0
 12325 0d2a 1C       		.uleb128 0x1c
 12326 0d2b E00A0000 		.4byte	.LASF303
 12327 0d2f 0A       		.byte	0xa
 12328 0d30 8C01     		.2byte	0x18c
 12329 0d32 6C020000 		.4byte	0x26c
 12330 0d36 04       		.byte	0x4
 12331 0d37 1C       		.uleb128 0x1c
 12332 0d38 9E1D0000 		.4byte	.LASF304
 12333 0d3c 0A       		.byte	0xa
 12334 0d3d 8D01     		.2byte	0x18d
 12335 0d3f 6C020000 		.4byte	0x26c
 12336 0d43 08       		.byte	0x8
 12337 0d44 1C       		.uleb128 0x1c
 12338 0d45 89000000 		.4byte	.LASF305
 12339 0d49 0A       		.byte	0xa
 12340 0d4a 8E01     		.2byte	0x18e
 12341 0d4c ED0D0000 		.4byte	0xded
 12342 0d50 0C       		.byte	0xc
 12343 0d51 1C       		.uleb128 0x1c
 12344 0d52 01270000 		.4byte	.LASF306
 12345 0d56 0A       		.byte	0xa
 12346 0d57 8F01     		.2byte	0x18f
 12347 0d59 A3000000 		.4byte	0xa3
 12348 0d5d 10       		.byte	0x10
 12349 0d5e 1C       		.uleb128 0x1c
 12350 0d5f 191F0000 		.4byte	.LASF307
 12351 0d63 0A       		.byte	0xa
 12352 0d64 9001     		.2byte	0x190
 12353 0d66 AF000000 		.4byte	0xaf
 12354 0d6a 14       		.byte	0x14
 12355 0d6b 1C       		.uleb128 0x1c
 12356 0d6c FE100000 		.4byte	.LASF308
 12357 0d70 0A       		.byte	0xa
ARM GAS  C:\Users\RECEPC~1\AppData\Local\Temp\ccZZcwiB.s 			page 267


 12358 0d71 9101     		.2byte	0x191
 12359 0d73 97000000 		.4byte	0x97
 12360 0d77 18       		.byte	0x18
 12361 0d78 1C       		.uleb128 0x1c
 12362 0d79 3C260000 		.4byte	.LASF309
 12363 0d7d 0A       		.byte	0xa
 12364 0d7e 9301     		.2byte	0x193
 12365 0d80 49020000 		.4byte	0x249
 12366 0d84 19       		.byte	0x19
 12367 0d85 1C       		.uleb128 0x1c
 12368 0d86 C10D0000 		.4byte	.LASF310
 12369 0d8a 0A       		.byte	0xa
 12370 0d8b 9701     		.2byte	0x197
 12371 0d8d F30D0000 		.4byte	0xdf3
 12372 0d91 1A       		.byte	0x1a
 12373 0d92 1C       		.uleb128 0x1c
 12374 0d93 091D0000 		.4byte	.LASF311
 12375 0d97 0A       		.byte	0xa
 12376 0d98 9901     		.2byte	0x199
 12377 0d9a 19010000 		.4byte	0x119
 12378 0d9e 1E       		.byte	0x1e
 12379 0d9f 1C       		.uleb128 0x1c
 12380 0da0 02190000 		.4byte	.LASF312
 12381 0da4 0A       		.byte	0xa
 12382 0da5 9D01     		.2byte	0x19d
 12383 0da7 F30D0000 		.4byte	0xdf3
 12384 0dab 22       		.byte	0x22
 12385 0dac 1C       		.uleb128 0x1c
 12386 0dad 6B040000 		.4byte	.LASF313
 12387 0db1 0A       		.byte	0xa
 12388 0db2 9F01     		.2byte	0x19f
 12389 0db4 19010000 		.4byte	0x119
 12390 0db8 26       		.byte	0x26
 12391 0db9 1C       		.uleb128 0x1c
 12392 0dba 5E050000 		.4byte	.LASF314
 12393 0dbe 0A       		.byte	0xa
 12394 0dbf A101     		.2byte	0x1a1
 12395 0dc1 6C020000 		.4byte	0x26c
 12396 0dc5 2C       		.byte	0x2c
 12397 0dc6 1C       		.uleb128 0x1c
 12398 0dc7 74140000 		.4byte	.LASF315
 12399 0dcb 0A       		.byte	0xa
 12400 0dcc A201     		.2byte	0x1a2
 12401 0dce 6C020000 		.4byte	0x26c
 12402 0dd2 30       		.byte	0x30
 12403 0dd3 00       		.byte	0
 12404 0dd4 18       		.uleb128 0x18
 12405 0dd5 49020000 		.4byte	0x249
 12406 0dd9 ED0D0000 		.4byte	0xded
 12407 0ddd 13       		.uleb128 0x13
 12408 0dde 11010000 		.4byte	0x111
 12409 0de2 13       		.uleb128 0x13
 12410 0de3 11010000 		.4byte	0x111
 12411 0de7 13       		.uleb128 0x13
 12412 0de8 A3000000 		.4byte	0xa3
 12413 0dec 00       		.byte	0
 12414 0ded 07       		.uleb128 0x7
ARM GAS  C:\Users\RECEPC~1\AppData\Local\Temp\ccZZcwiB.s 			page 268


 12415 0dee 04       		.byte	0x4
 12416 0def D40D0000 		.4byte	0xdd4
 12417 0df3 0A       		.uleb128 0xa
 12418 0df4 49020000 		.4byte	0x249
 12419 0df8 030E0000 		.4byte	0xe03
 12420 0dfc 0B       		.uleb128 0xb
 12421 0dfd 0A010000 		.4byte	0x10a
 12422 0e01 03       		.byte	0x3
 12423 0e02 00       		.byte	0
 12424 0e03 05       		.uleb128 0x5
 12425 0e04 400A0000 		.4byte	.LASF316
 12426 0e08 0A       		.byte	0xa
 12427 0e09 A301     		.2byte	0x1a3
 12428 0e0b 100D0000 		.4byte	0xd10
 12429 0e0f 1F       		.uleb128 0x1f
 12430 0e10 0A010000 		.4byte	.LASF317
 12431 0e14 AC03     		.2byte	0x3ac
 12432 0e16 0A       		.byte	0xa
 12433 0e17 A501     		.2byte	0x1a5
 12434 0e19 380E0000 		.4byte	0xe38
 12435 0e1d 1C       		.uleb128 0x1c
 12436 0e1e E9150000 		.4byte	.LASF318
 12437 0e22 0A       		.byte	0xa
 12438 0e23 A701     		.2byte	0x1a7
 12439 0e25 81000000 		.4byte	0x81
 12440 0e29 00       		.byte	0
 12441 0e2a 1C       		.uleb128 0x1c
 12442 0e2b 53020000 		.4byte	.LASF319
 12443 0e2f 0A       		.byte	0xa
 12444 0e30 A801     		.2byte	0x1a8
 12445 0e32 380E0000 		.4byte	0xe38
 12446 0e36 04       		.byte	0x4
 12447 0e37 00       		.byte	0
 12448 0e38 0A       		.uleb128 0xa
 12449 0e39 030E0000 		.4byte	0xe03
 12450 0e3d 480E0000 		.4byte	0xe48
 12451 0e41 0B       		.uleb128 0xb
 12452 0e42 0A010000 		.4byte	0x10a
 12453 0e46 11       		.byte	0x11
 12454 0e47 00       		.byte	0
 12455 0e48 05       		.uleb128 0x5
 12456 0e49 520C0000 		.4byte	.LASF320
 12457 0e4d 0A       		.byte	0xa
 12458 0e4e A901     		.2byte	0x1a9
 12459 0e50 0F0E0000 		.4byte	0xe0f
 12460 0e54 1E       		.uleb128 0x1e
 12461 0e55 28       		.byte	0x28
 12462 0e56 0A       		.byte	0xa
 12463 0e57 B201     		.2byte	0x1b2
 12464 0e59 2E0F0000 		.4byte	0xf2e
 12465 0e5d 1C       		.uleb128 0x1c
 12466 0e5e 200A0000 		.4byte	.LASF321
 12467 0e62 0A       		.byte	0xa
 12468 0e63 B401     		.2byte	0x1b4
 12469 0e65 44020000 		.4byte	0x244
 12470 0e69 00       		.byte	0
 12471 0e6a 1C       		.uleb128 0x1c
ARM GAS  C:\Users\RECEPC~1\AppData\Local\Temp\ccZZcwiB.s 			page 269


 12472 0e6b B0280000 		.4byte	.LASF322
 12473 0e6f 0A       		.byte	0xa
 12474 0e70 B501     		.2byte	0x1b5
 12475 0e72 F4000000 		.4byte	0xf4
 12476 0e76 01       		.byte	0x1
 12477 0e77 1C       		.uleb128 0x1c
 12478 0e78 E0020000 		.4byte	.LASF240
 12479 0e7c 0A       		.byte	0xa
 12480 0e7d B801     		.2byte	0x1b8
 12481 0e7f F4000000 		.4byte	0xf4
 12482 0e83 02       		.byte	0x2
 12483 0e84 1C       		.uleb128 0x1c
 12484 0e85 69120000 		.4byte	.LASF323
 12485 0e89 0A       		.byte	0xa
 12486 0e8a BA01     		.2byte	0x1ba
 12487 0e8c F9000000 		.4byte	0xf9
 12488 0e90 04       		.byte	0x4
 12489 0e91 1C       		.uleb128 0x1c
 12490 0e92 A7180000 		.4byte	.LASF324
 12491 0e96 0A       		.byte	0xa
 12492 0e97 BB01     		.2byte	0x1bb
 12493 0e99 F9000000 		.4byte	0xf9
 12494 0e9d 06       		.byte	0x6
 12495 0e9e 1C       		.uleb128 0x1c
 12496 0e9f 9A240000 		.4byte	.LASF325
 12497 0ea3 0A       		.byte	0xa
 12498 0ea4 BD01     		.2byte	0x1bd
 12499 0ea6 F9000000 		.4byte	0xf9
 12500 0eaa 08       		.byte	0x8
 12501 0eab 1C       		.uleb128 0x1c
 12502 0eac E0250000 		.4byte	.LASF326
 12503 0eb0 0A       		.byte	0xa
 12504 0eb1 BE01     		.2byte	0x1be
 12505 0eb3 F9000000 		.4byte	0xf9
 12506 0eb7 0A       		.byte	0xa
 12507 0eb8 1C       		.uleb128 0x1c
 12508 0eb9 9E000000 		.4byte	.LASF327
 12509 0ebd 0A       		.byte	0xa
 12510 0ebe BF01     		.2byte	0x1bf
 12511 0ec0 F9000000 		.4byte	0xf9
 12512 0ec4 0C       		.byte	0xc
 12513 0ec5 1C       		.uleb128 0x1c
 12514 0ec6 381B0000 		.4byte	.LASF328
 12515 0eca 0A       		.byte	0xa
 12516 0ecb C101     		.2byte	0x1c1
 12517 0ecd F9000000 		.4byte	0xf9
 12518 0ed1 0E       		.byte	0xe
 12519 0ed2 1C       		.uleb128 0x1c
 12520 0ed3 F8140000 		.4byte	.LASF329
 12521 0ed7 0A       		.byte	0xa
 12522 0ed8 C201     		.2byte	0x1c2
 12523 0eda F9000000 		.4byte	0xf9
 12524 0ede 10       		.byte	0x10
 12525 0edf 1C       		.uleb128 0x1c
 12526 0ee0 BF070000 		.4byte	.LASF330
 12527 0ee4 0A       		.byte	0xa
 12528 0ee5 C301     		.2byte	0x1c3
ARM GAS  C:\Users\RECEPC~1\AppData\Local\Temp\ccZZcwiB.s 			page 270


 12529 0ee7 F9000000 		.4byte	0xf9
 12530 0eeb 12       		.byte	0x12
 12531 0eec 1C       		.uleb128 0x1c
 12532 0eed A8140000 		.4byte	.LASF331
 12533 0ef1 0A       		.byte	0xa
 12534 0ef2 C501     		.2byte	0x1c5
 12535 0ef4 2E0F0000 		.4byte	0xf2e
 12536 0ef8 14       		.byte	0x14
 12537 0ef9 1C       		.uleb128 0x1c
 12538 0efa 3E0B0000 		.4byte	.LASF332
 12539 0efe 0A       		.byte	0xa
 12540 0eff C601     		.2byte	0x1c6
 12541 0f01 2E0F0000 		.4byte	0xf2e
 12542 0f05 18       		.byte	0x18
 12543 0f06 1C       		.uleb128 0x1c
 12544 0f07 530E0000 		.4byte	.LASF333
 12545 0f0b 0A       		.byte	0xa
 12546 0f0c C701     		.2byte	0x1c7
 12547 0f0e 340F0000 		.4byte	0xf34
 12548 0f12 1C       		.byte	0x1c
 12549 0f13 1C       		.uleb128 0x1c
 12550 0f14 81140000 		.4byte	.LASF49
 12551 0f18 0A       		.byte	0xa
 12552 0f19 C901     		.2byte	0x1c9
 12553 0f1b 6C020000 		.4byte	0x26c
 12554 0f1f 20       		.byte	0x20
 12555 0f20 1C       		.uleb128 0x1c
 12556 0f21 12140000 		.4byte	.LASF48
 12557 0f25 0A       		.byte	0xa
 12558 0f26 CA01     		.2byte	0x1ca
 12559 0f28 11010000 		.4byte	0x111
 12560 0f2c 24       		.byte	0x24
 12561 0f2d 00       		.byte	0
 12562 0f2e 07       		.uleb128 0x7
 12563 0f2f 04       		.byte	0x4
 12564 0f30 030E0000 		.4byte	0xe03
 12565 0f34 07       		.uleb128 0x7
 12566 0f35 04       		.byte	0x4
 12567 0f36 F20C0000 		.4byte	0xcf2
 12568 0f3a 05       		.uleb128 0x5
 12569 0f3b 931E0000 		.4byte	.LASF334
 12570 0f3f 0A       		.byte	0xa
 12571 0f40 CC01     		.2byte	0x1cc
 12572 0f42 540E0000 		.4byte	0xe54
 12573 0f46 05       		.uleb128 0x5
 12574 0f47 7B1A0000 		.4byte	.LASF335
 12575 0f4b 0A       		.byte	0xa
 12576 0f4c CC01     		.2byte	0x1cc
 12577 0f4e 520F0000 		.4byte	0xf52
 12578 0f52 07       		.uleb128 0x7
 12579 0f53 04       		.byte	0x4
 12580 0f54 540E0000 		.4byte	0xe54
 12581 0f58 1F       		.uleb128 0x1f
 12582 0f59 42020000 		.4byte	.LASF336
 12583 0f5d 5C08     		.2byte	0x85c
 12584 0f5f 0A       		.byte	0xa
 12585 0f60 CE01     		.2byte	0x1ce
ARM GAS  C:\Users\RECEPC~1\AppData\Local\Temp\ccZZcwiB.s 			page 271


 12586 0f62 E30F0000 		.4byte	0xfe3
 12587 0f66 1C       		.uleb128 0x1c
 12588 0f67 AF190000 		.4byte	.LASF337
 12589 0f6b 0A       		.byte	0xa
 12590 0f6c D001     		.2byte	0x1d0
 12591 0f6e F9000000 		.4byte	0xf9
 12592 0f72 00       		.byte	0
 12593 0f73 1C       		.uleb128 0x1c
 12594 0f74 CB1D0000 		.4byte	.LASF338
 12595 0f78 0A       		.byte	0xa
 12596 0f79 D201     		.2byte	0x1d2
 12597 0f7b E30F0000 		.4byte	0xfe3
 12598 0f7f 04       		.byte	0x4
 12599 0f80 1D       		.uleb128 0x1d
 12600 0f81 22090000 		.4byte	.LASF339
 12601 0f85 0A       		.byte	0xa
 12602 0f86 D301     		.2byte	0x1d3
 12603 0f88 F30F0000 		.4byte	0xff3
 12604 0f8c 8407     		.2byte	0x784
 12605 0f8e 1D       		.uleb128 0x1d
 12606 0f8f 0C110000 		.4byte	.LASF340
 12607 0f93 0A       		.byte	0xa
 12608 0f94 D501     		.2byte	0x1d5
 12609 0f96 6C020000 		.4byte	0x26c
 12610 0f9a 4408     		.2byte	0x844
 12611 0f9c 1D       		.uleb128 0x1d
 12612 0f9d 561C0000 		.4byte	.LASF341
 12613 0fa1 0A       		.byte	0xa
 12614 0fa2 D601     		.2byte	0x1d6
 12615 0fa4 18100000 		.4byte	0x1018
 12616 0fa8 4808     		.2byte	0x848
 12617 0faa 1D       		.uleb128 0x1d
 12618 0fab AD110000 		.4byte	.LASF342
 12619 0faf 0A       		.byte	0xa
 12620 0fb0 D701     		.2byte	0x1d7
 12621 0fb2 2E100000 		.4byte	0x102e
 12622 0fb6 4C08     		.2byte	0x84c
 12623 0fb8 1D       		.uleb128 0x1d
 12624 0fb9 060D0000 		.4byte	.LASF343
 12625 0fbd 0A       		.byte	0xa
 12626 0fbe D801     		.2byte	0x1d8
 12627 0fc0 18100000 		.4byte	0x1018
 12628 0fc4 5008     		.2byte	0x850
 12629 0fc6 1D       		.uleb128 0x1d
 12630 0fc7 58230000 		.4byte	.LASF344
 12631 0fcb 0A       		.byte	0xa
 12632 0fcc D901     		.2byte	0x1d9
 12633 0fce 6C020000 		.4byte	0x26c
 12634 0fd2 5408     		.2byte	0x854
 12635 0fd4 1D       		.uleb128 0x1d
 12636 0fd5 23100000 		.4byte	.LASF345
 12637 0fd9 0A       		.byte	0xa
 12638 0fda DA01     		.2byte	0x1da
 12639 0fdc 6C020000 		.4byte	0x26c
 12640 0fe0 5808     		.2byte	0x858
 12641 0fe2 00       		.byte	0
 12642 0fe3 0A       		.uleb128 0xa
ARM GAS  C:\Users\RECEPC~1\AppData\Local\Temp\ccZZcwiB.s 			page 272


 12643 0fe4 3A0F0000 		.4byte	0xf3a
 12644 0fe8 F30F0000 		.4byte	0xff3
 12645 0fec 0B       		.uleb128 0xb
 12646 0fed 0A010000 		.4byte	0x10a
 12647 0ff1 2F       		.byte	0x2f
 12648 0ff2 00       		.byte	0
 12649 0ff3 0A       		.uleb128 0xa
 12650 0ff4 03100000 		.4byte	0x1003
 12651 0ff8 03100000 		.4byte	0x1003
 12652 0ffc 0B       		.uleb128 0xb
 12653 0ffd 0A010000 		.4byte	0x10a
 12654 1001 2F       		.byte	0x2f
 12655 1002 00       		.byte	0
 12656 1003 07       		.uleb128 0x7
 12657 1004 04       		.byte	0x4
 12658 1005 3A0F0000 		.4byte	0xf3a
 12659 1009 18       		.uleb128 0x18
 12660 100a 03100000 		.4byte	0x1003
 12661 100e 18100000 		.4byte	0x1018
 12662 1012 13       		.uleb128 0x13
 12663 1013 11010000 		.4byte	0x111
 12664 1017 00       		.byte	0
 12665 1018 07       		.uleb128 0x7
 12666 1019 04       		.byte	0x4
 12667 101a 09100000 		.4byte	0x1009
 12668 101e 12       		.uleb128 0x12
 12669 101f 2E100000 		.4byte	0x102e
 12670 1023 13       		.uleb128 0x13
 12671 1024 11010000 		.4byte	0x111
 12672 1028 13       		.uleb128 0x13
 12673 1029 03100000 		.4byte	0x1003
 12674 102d 00       		.byte	0
 12675 102e 07       		.uleb128 0x7
 12676 102f 04       		.byte	0x4
 12677 1030 1E100000 		.4byte	0x101e
 12678 1034 05       		.uleb128 0x5
 12679 1035 E7020000 		.4byte	.LASF346
 12680 1039 0A       		.byte	0xa
 12681 103a DC01     		.2byte	0x1dc
 12682 103c 580F0000 		.4byte	0xf58
 12683 1040 1E       		.uleb128 0x1e
 12684 1041 14       		.byte	0x14
 12685 1042 0A       		.byte	0xa
 12686 1043 E801     		.2byte	0x1e8
 12687 1045 2A110000 		.4byte	0x112a
 12688 1049 1C       		.uleb128 0x1c
 12689 104a 08130000 		.4byte	.LASF347
 12690 104e 0A       		.byte	0xa
 12691 104f EA01     		.2byte	0x1ea
 12692 1051 44020000 		.4byte	0x244
 12693 1055 00       		.byte	0
 12694 1056 1C       		.uleb128 0x1c
 12695 1057 AD1E0000 		.4byte	.LASF348
 12696 105b 0A       		.byte	0xa
 12697 105c EB01     		.2byte	0x1eb
 12698 105e 44020000 		.4byte	0x244
 12699 1062 01       		.byte	0x1
ARM GAS  C:\Users\RECEPC~1\AppData\Local\Temp\ccZZcwiB.s 			page 273


 12700 1063 1C       		.uleb128 0x1c
 12701 1064 A70B0000 		.4byte	.LASF349
 12702 1068 0A       		.byte	0xa
 12703 1069 EF01     		.2byte	0x1ef
 12704 106b 97000000 		.4byte	0x97
 12705 106f 02       		.byte	0x2
 12706 1070 1C       		.uleb128 0x1c
 12707 1071 361D0000 		.4byte	.LASF350
 12708 1075 0A       		.byte	0xa
 12709 1076 FD01     		.2byte	0x1fd
 12710 1078 97000000 		.4byte	0x97
 12711 107c 03       		.byte	0x3
 12712 107d 1C       		.uleb128 0x1c
 12713 107e BD0C0000 		.4byte	.LASF351
 12714 1082 0A       		.byte	0xa
 12715 1083 FE01     		.2byte	0x1fe
 12716 1085 97000000 		.4byte	0x97
 12717 1089 04       		.byte	0x4
 12718 108a 1C       		.uleb128 0x1c
 12719 108b 571D0000 		.4byte	.LASF352
 12720 108f 0A       		.byte	0xa
 12721 1090 FF01     		.2byte	0x1ff
 12722 1092 97000000 		.4byte	0x97
 12723 1096 05       		.byte	0x5
 12724 1097 1C       		.uleb128 0x1c
 12725 1098 671D0000 		.4byte	.LASF353
 12726 109c 0A       		.byte	0xa
 12727 109d 0002     		.2byte	0x200
 12728 109f 97000000 		.4byte	0x97
 12729 10a3 06       		.byte	0x6
 12730 10a4 1C       		.uleb128 0x1c
 12731 10a5 0E0E0000 		.4byte	.LASF354
 12732 10a9 0A       		.byte	0xa
 12733 10aa 0202     		.2byte	0x202
 12734 10ac 97000000 		.4byte	0x97
 12735 10b0 07       		.byte	0x7
 12736 10b1 1C       		.uleb128 0x1c
 12737 10b2 78100000 		.4byte	.LASF355
 12738 10b6 0A       		.byte	0xa
 12739 10b7 0302     		.2byte	0x203
 12740 10b9 97000000 		.4byte	0x97
 12741 10bd 08       		.byte	0x8
 12742 10be 1C       		.uleb128 0x1c
 12743 10bf A70C0000 		.4byte	.LASF356
 12744 10c3 0A       		.byte	0xa
 12745 10c4 0402     		.2byte	0x204
 12746 10c6 97000000 		.4byte	0x97
 12747 10ca 09       		.byte	0x9
 12748 10cb 1C       		.uleb128 0x1c
 12749 10cc 3A000000 		.4byte	.LASF357
 12750 10d0 0A       		.byte	0xa
 12751 10d1 0602     		.2byte	0x206
 12752 10d3 97000000 		.4byte	0x97
 12753 10d7 0A       		.byte	0xa
 12754 10d8 1C       		.uleb128 0x1c
 12755 10d9 2F0E0000 		.4byte	.LASF358
 12756 10dd 0A       		.byte	0xa
ARM GAS  C:\Users\RECEPC~1\AppData\Local\Temp\ccZZcwiB.s 			page 274


 12757 10de 0802     		.2byte	0x208
 12758 10e0 A3000000 		.4byte	0xa3
 12759 10e4 0C       		.byte	0xc
 12760 10e5 1C       		.uleb128 0x1c
 12761 10e6 8E1D0000 		.4byte	.LASF359
 12762 10ea 0A       		.byte	0xa
 12763 10eb 0902     		.2byte	0x209
 12764 10ed A3000000 		.4byte	0xa3
 12765 10f1 0E       		.byte	0xe
 12766 10f2 1C       		.uleb128 0x1c
 12767 10f3 51290000 		.4byte	.LASF360
 12768 10f7 0A       		.byte	0xa
 12769 10f8 0B02     		.2byte	0x20b
 12770 10fa 97000000 		.4byte	0x97
 12771 10fe 10       		.byte	0x10
 12772 10ff 1C       		.uleb128 0x1c
 12773 1100 860B0000 		.4byte	.LASF361
 12774 1104 0A       		.byte	0xa
 12775 1105 0D02     		.2byte	0x20d
 12776 1107 97000000 		.4byte	0x97
 12777 110b 11       		.byte	0x11
 12778 110c 1C       		.uleb128 0x1c
 12779 110d 12000000 		.4byte	.LASF362
 12780 1111 0A       		.byte	0xa
 12781 1112 0F02     		.2byte	0x20f
 12782 1114 97000000 		.4byte	0x97
 12783 1118 12       		.byte	0x12
 12784 1119 21       		.uleb128 0x21
 12785 111a D7190000 		.4byte	.LASF557
 12786 111e 0A       		.byte	0xa
 12787 111f 1102     		.2byte	0x211
 12788 1121 97000000 		.4byte	0x97
 12789 1125 01       		.byte	0x1
 12790 1126 01       		.byte	0x1
 12791 1127 07       		.byte	0x7
 12792 1128 13       		.byte	0x13
 12793 1129 00       		.byte	0
 12794 112a 05       		.uleb128 0x5
 12795 112b 28200000 		.4byte	.LASF363
 12796 112f 0A       		.byte	0xa
 12797 1130 1202     		.2byte	0x212
 12798 1132 40100000 		.4byte	0x1040
 12799 1136 03       		.uleb128 0x3
 12800 1137 67000000 		.4byte	.LASF364
 12801 113b 0B       		.byte	0xb
 12802 113c 8C       		.byte	0x8c
 12803 113d 6C020000 		.4byte	0x26c
 12804 1141 0C       		.uleb128 0xc
 12805 1142 E0070000 		.4byte	.LASF365
 12806 1146 02       		.byte	0x2
 12807 1147 0C       		.byte	0xc
 12808 1148 2A       		.byte	0x2a
 12809 1149 65120000 		.4byte	0x1265
 12810 114d 0D       		.uleb128 0xd
 12811 114e 58010000 		.4byte	.LASF366
 12812 1152 00       		.sleb128 0
 12813 1153 0D       		.uleb128 0xd
ARM GAS  C:\Users\RECEPC~1\AppData\Local\Temp\ccZZcwiB.s 			page 275


 12814 1154 14040000 		.4byte	.LASF367
 12815 1158 C000     		.sleb128 64
 12816 115a 0D       		.uleb128 0xd
 12817 115b 7D010000 		.4byte	.LASF368
 12818 115f 8001     		.sleb128 128
 12819 1161 0D       		.uleb128 0xd
 12820 1162 98010000 		.4byte	.LASF369
 12821 1166 C001     		.sleb128 192
 12822 1168 0D       		.uleb128 0xd
 12823 1169 B3010000 		.4byte	.LASF370
 12824 116d 8002     		.sleb128 256
 12825 116f 0D       		.uleb128 0xd
 12826 1170 CE010000 		.4byte	.LASF371
 12827 1174 C002     		.sleb128 320
 12828 1176 0D       		.uleb128 0xd
 12829 1177 E9010000 		.4byte	.LASF372
 12830 117b 8003     		.sleb128 384
 12831 117d 0D       		.uleb128 0xd
 12832 117e 04020000 		.4byte	.LASF373
 12833 1182 C003     		.sleb128 448
 12834 1184 0D       		.uleb128 0xd
 12835 1185 18060000 		.4byte	.LASF374
 12836 1189 8004     		.sleb128 512
 12837 118b 0D       		.uleb128 0xd
 12838 118c 8F080000 		.4byte	.LASF375
 12839 1190 C004     		.sleb128 576
 12840 1192 0D       		.uleb128 0xd
 12841 1193 4C270000 		.4byte	.LASF376
 12842 1197 8005     		.sleb128 640
 12843 1199 0D       		.uleb128 0xd
 12844 119a 540F0000 		.4byte	.LASF377
 12845 119e C005     		.sleb128 704
 12846 11a0 0D       		.uleb128 0xd
 12847 11a1 11050000 		.4byte	.LASF378
 12848 11a5 8006     		.sleb128 768
 12849 11a7 0D       		.uleb128 0xd
 12850 11a8 E40D0000 		.4byte	.LASF379
 12851 11ac C006     		.sleb128 832
 12852 11ae 0D       		.uleb128 0xd
 12853 11af 60280000 		.4byte	.LASF380
 12854 11b3 8007     		.sleb128 896
 12855 11b5 0D       		.uleb128 0xd
 12856 11b6 70120000 		.4byte	.LASF381
 12857 11ba C007     		.sleb128 960
 12858 11bc 0D       		.uleb128 0xd
 12859 11bd B2080000 		.4byte	.LASF382
 12860 11c1 8008     		.sleb128 1024
 12861 11c3 0D       		.uleb128 0xd
 12862 11c4 D91D0000 		.4byte	.LASF383
 12863 11c8 C008     		.sleb128 1088
 12864 11ca 0D       		.uleb128 0xd
 12865 11cb 1B250000 		.4byte	.LASF384
 12866 11cf 8009     		.sleb128 1152
 12867 11d1 0D       		.uleb128 0xd
 12868 11d2 65110000 		.4byte	.LASF385
 12869 11d6 C009     		.sleb128 1216
 12870 11d8 0D       		.uleb128 0xd
ARM GAS  C:\Users\RECEPC~1\AppData\Local\Temp\ccZZcwiB.s 			page 276


 12871 11d9 E1110000 		.4byte	.LASF386
 12872 11dd 800A     		.sleb128 1280
 12873 11df 0D       		.uleb128 0xd
 12874 11e0 FF110000 		.4byte	.LASF387
 12875 11e4 C00A     		.sleb128 1344
 12876 11e6 0D       		.uleb128 0xd
 12877 11e7 1D120000 		.4byte	.LASF388
 12878 11eb 800B     		.sleb128 1408
 12879 11ed 0D       		.uleb128 0xd
 12880 11ee 3B120000 		.4byte	.LASF389
 12881 11f2 C00B     		.sleb128 1472
 12882 11f4 0D       		.uleb128 0xd
 12883 11f5 3A180000 		.4byte	.LASF390
 12884 11f9 800C     		.sleb128 1536
 12885 11fb 0D       		.uleb128 0xd
 12886 11fc 991A0000 		.4byte	.LASF391
 12887 1200 C00C     		.sleb128 1600
 12888 1202 0D       		.uleb128 0xd
 12889 1203 E90A0000 		.4byte	.LASF392
 12890 1207 800D     		.sleb128 1664
 12891 1209 0D       		.uleb128 0xd
 12892 120a 83070000 		.4byte	.LASF393
 12893 120e C00D     		.sleb128 1728
 12894 1210 0D       		.uleb128 0xd
 12895 1211 811B0000 		.4byte	.LASF394
 12896 1215 800E     		.sleb128 1792
 12897 1217 0D       		.uleb128 0xd
 12898 1218 E2290000 		.4byte	.LASF395
 12899 121c C00E     		.sleb128 1856
 12900 121e 0D       		.uleb128 0xd
 12901 121f 6D0E0000 		.4byte	.LASF396
 12902 1223 800F     		.sleb128 1920
 12903 1225 0D       		.uleb128 0xd
 12904 1226 89050000 		.4byte	.LASF397
 12905 122a C00F     		.sleb128 1984
 12906 122c 0D       		.uleb128 0xd
 12907 122d EE190000 		.4byte	.LASF398
 12908 1231 8010     		.sleb128 2048
 12909 1233 0D       		.uleb128 0xd
 12910 1234 C9160000 		.4byte	.LASF399
 12911 1238 C010     		.sleb128 2112
 12912 123a 0D       		.uleb128 0xd
 12913 123b CF060000 		.4byte	.LASF400
 12914 123f 8011     		.sleb128 2176
 12915 1241 0D       		.uleb128 0xd
 12916 1242 04030000 		.4byte	.LASF401
 12917 1246 C011     		.sleb128 2240
 12918 1248 0D       		.uleb128 0xd
 12919 1249 07180000 		.4byte	.LASF402
 12920 124d 8012     		.sleb128 2304
 12921 124f 0D       		.uleb128 0xd
 12922 1250 0C150000 		.4byte	.LASF403
 12923 1254 C012     		.sleb128 2368
 12924 1256 0D       		.uleb128 0xd
 12925 1257 82040000 		.4byte	.LASF404
 12926 125b 8013     		.sleb128 2432
 12927 125d 0D       		.uleb128 0xd
ARM GAS  C:\Users\RECEPC~1\AppData\Local\Temp\ccZZcwiB.s 			page 277


 12928 125e 88200000 		.4byte	.LASF405
 12929 1262 C013     		.sleb128 2496
 12930 1264 00       		.byte	0
 12931 1265 17       		.uleb128 0x17
 12932 1266 01       		.byte	0x1
 12933 1267 0D       		.byte	0xd
 12934 1268 26       		.byte	0x26
 12935 1269 71130000 		.4byte	0x1371
 12936 126d 0D       		.uleb128 0xd
 12937 126e D3090000 		.4byte	.LASF406
 12938 1272 A101     		.sleb128 161
 12939 1274 0D       		.uleb128 0xd
 12940 1275 CA0A0000 		.4byte	.LASF407
 12941 1279 A101     		.sleb128 161
 12942 127b 0D       		.uleb128 0xd
 12943 127c A0020000 		.4byte	.LASF408
 12944 1280 A201     		.sleb128 162
 12945 1282 0D       		.uleb128 0xd
 12946 1283 65200000 		.4byte	.LASF409
 12947 1287 A201     		.sleb128 162
 12948 1289 0D       		.uleb128 0xd
 12949 128a 9B0F0000 		.4byte	.LASF410
 12950 128e A301     		.sleb128 163
 12951 1290 0D       		.uleb128 0xd
 12952 1291 02260000 		.4byte	.LASF411
 12953 1295 A301     		.sleb128 163
 12954 1297 0D       		.uleb128 0xd
 12955 1298 E8090000 		.4byte	.LASF412
 12956 129c AE01     		.sleb128 174
 12957 129e 0D       		.uleb128 0xd
 12958 129f 55090000 		.4byte	.LASF413
 12959 12a3 AE01     		.sleb128 174
 12960 12a5 0D       		.uleb128 0xd
 12961 12a6 CE0B0000 		.4byte	.LASF414
 12962 12aa AA01     		.sleb128 170
 12963 12ac 0D       		.uleb128 0xd
 12964 12ad E1260000 		.4byte	.LASF415
 12965 12b1 AA01     		.sleb128 170
 12966 12b3 0D       		.uleb128 0xd
 12967 12b4 211A0000 		.4byte	.LASF416
 12968 12b8 A401     		.sleb128 164
 12969 12ba 0D       		.uleb128 0xd
 12970 12bb D7130000 		.4byte	.LASF417
 12971 12bf A401     		.sleb128 164
 12972 12c1 0D       		.uleb128 0xd
 12973 12c2 FC130000 		.4byte	.LASF418
 12974 12c6 A501     		.sleb128 165
 12975 12c8 0D       		.uleb128 0xd
 12976 12c9 C4150000 		.4byte	.LASF419
 12977 12cd A501     		.sleb128 165
 12978 12cf 0D       		.uleb128 0xd
 12979 12d0 5B100000 		.4byte	.LASF420
 12980 12d4 E801     		.sleb128 232
 12981 12d6 0D       		.uleb128 0xd
 12982 12d7 E31B0000 		.4byte	.LASF421
 12983 12db E801     		.sleb128 232
 12984 12dd 0D       		.uleb128 0xd
ARM GAS  C:\Users\RECEPC~1\AppData\Local\Temp\ccZZcwiB.s 			page 278


 12985 12de 42210000 		.4byte	.LASF422
 12986 12e2 A601     		.sleb128 166
 12987 12e4 0D       		.uleb128 0xd
 12988 12e5 6F270000 		.4byte	.LASF423
 12989 12e9 A601     		.sleb128 166
 12990 12eb 0D       		.uleb128 0xd
 12991 12ec 43280000 		.4byte	.LASF424
 12992 12f0 A701     		.sleb128 167
 12993 12f2 0D       		.uleb128 0xd
 12994 12f3 AE290000 		.4byte	.LASF425
 12995 12f7 A701     		.sleb128 167
 12996 12f9 0D       		.uleb128 0xd
 12997 12fa 450D0000 		.4byte	.LASF426
 12998 12fe A801     		.sleb128 168
 12999 1300 0D       		.uleb128 0xd
 13000 1301 71060000 		.4byte	.LASF427
 13001 1305 A801     		.sleb128 168
 13002 1307 0D       		.uleb128 0xd
 13003 1308 8D160000 		.4byte	.LASF428
 13004 130c A901     		.sleb128 169
 13005 130e 0D       		.uleb128 0xd
 13006 130f 731E0000 		.4byte	.LASF429
 13007 1313 A901     		.sleb128 169
 13008 1315 0D       		.uleb128 0xd
 13009 1316 9A120000 		.4byte	.LASF430
 13010 131a AC01     		.sleb128 172
 13011 131c 0D       		.uleb128 0xd
 13012 131d 10290000 		.4byte	.LASF431
 13013 1321 AC01     		.sleb128 172
 13014 1323 0D       		.uleb128 0xd
 13015 1324 731F0000 		.4byte	.LASF432
 13016 1328 AD01     		.sleb128 173
 13017 132a 0D       		.uleb128 0xd
 13018 132b 260D0000 		.4byte	.LASF433
 13019 132f AD01     		.sleb128 173
 13020 1331 0D       		.uleb128 0xd
 13021 1332 FF270000 		.4byte	.LASF434
 13022 1336 E101     		.sleb128 225
 13023 1338 0D       		.uleb128 0xd
 13024 1339 40250000 		.4byte	.LASF435
 13025 133d E101     		.sleb128 225
 13026 133f 0D       		.uleb128 0xd
 13027 1340 05230000 		.4byte	.LASF436
 13028 1344 E201     		.sleb128 226
 13029 1346 0D       		.uleb128 0xd
 13030 1347 A8060000 		.4byte	.LASF437
 13031 134b E201     		.sleb128 226
 13032 134d 0D       		.uleb128 0xd
 13033 134e 6B290000 		.4byte	.LASF438
 13034 1352 E301     		.sleb128 227
 13035 1354 0D       		.uleb128 0xd
 13036 1355 D8050000 		.4byte	.LASF439
 13037 1359 E301     		.sleb128 227
 13038 135b 0D       		.uleb128 0xd
 13039 135c F11E0000 		.4byte	.LASF440
 13040 1360 E401     		.sleb128 228
 13041 1362 0D       		.uleb128 0xd
ARM GAS  C:\Users\RECEPC~1\AppData\Local\Temp\ccZZcwiB.s 			page 279


 13042 1363 66070000 		.4byte	.LASF441
 13043 1367 E401     		.sleb128 228
 13044 1369 0D       		.uleb128 0xd
 13045 136a C7140000 		.4byte	.LASF442
 13046 136e FF01     		.sleb128 255
 13047 1370 00       		.byte	0
 13048 1371 0C       		.uleb128 0xc
 13049 1372 AB030000 		.4byte	.LASF443
 13050 1376 01       		.byte	0x1
 13051 1377 0D       		.byte	0xd
 13052 1378 87       		.byte	0x87
 13053 1379 A8130000 		.4byte	0x13a8
 13054 137d 0D       		.uleb128 0xd
 13055 137e 2F040000 		.4byte	.LASF444
 13056 1382 08       		.sleb128 8
 13057 1383 0D       		.uleb128 0xd
 13058 1384 54160000 		.4byte	.LASF445
 13059 1388 01       		.sleb128 1
 13060 1389 0D       		.uleb128 0xd
 13061 138a 651B0000 		.4byte	.LASF446
 13062 138e 02       		.sleb128 2
 13063 138f 0D       		.uleb128 0xd
 13064 1390 68220000 		.4byte	.LASF447
 13065 1394 03       		.sleb128 3
 13066 1395 0D       		.uleb128 0xd
 13067 1396 420C0000 		.4byte	.LASF448
 13068 139a 05       		.sleb128 5
 13069 139b 0D       		.uleb128 0xd
 13070 139c 30010000 		.4byte	.LASF449
 13071 13a0 06       		.sleb128 6
 13072 13a1 0D       		.uleb128 0xd
 13073 13a2 111B0000 		.4byte	.LASF450
 13074 13a6 04       		.sleb128 4
 13075 13a7 00       		.byte	0
 13076 13a8 0C       		.uleb128 0xc
 13077 13a9 D7080000 		.4byte	.LASF451
 13078 13ad 01       		.byte	0x1
 13079 13ae 0D       		.byte	0xd
 13080 13af A7       		.byte	0xa7
 13081 13b0 C1130000 		.4byte	0x13c1
 13082 13b4 0D       		.uleb128 0xd
 13083 13b5 50050000 		.4byte	.LASF452
 13084 13b9 01       		.sleb128 1
 13085 13ba 0D       		.uleb128 0xd
 13086 13bb 4C110000 		.4byte	.LASF453
 13087 13bf 02       		.sleb128 2
 13088 13c0 00       		.byte	0
 13089 13c1 22       		.uleb128 0x22
 13090 13c2 0A       		.byte	0xa
 13091 13c3 0D       		.byte	0xd
 13092 13c4 AD       		.byte	0xad
 13093 13c5 06140000 		.4byte	0x1406
 13094 13c9 0F       		.uleb128 0xf
 13095 13ca E0020000 		.4byte	.LASF240
 13096 13ce 0D       		.byte	0xd
 13097 13cf AF       		.byte	0xaf
 13098 13d0 F4000000 		.4byte	0xf4
ARM GAS  C:\Users\RECEPC~1\AppData\Local\Temp\ccZZcwiB.s 			page 280


 13099 13d4 00       		.byte	0
 13100 13d5 0F       		.uleb128 0xf
 13101 13d6 F9050000 		.4byte	.LASF454
 13102 13da 0D       		.byte	0xd
 13103 13db B0       		.byte	0xb0
 13104 13dc F9000000 		.4byte	0xf9
 13105 13e0 02       		.byte	0x2
 13106 13e1 0F       		.uleb128 0xf
 13107 13e2 B2140000 		.4byte	.LASF455
 13108 13e6 0D       		.byte	0xd
 13109 13e7 B1       		.byte	0xb1
 13110 13e8 F4000000 		.4byte	0xf4
 13111 13ec 04       		.byte	0x4
 13112 13ed 0F       		.uleb128 0xf
 13113 13ee EE030000 		.4byte	.LASF456
 13114 13f2 0D       		.byte	0xd
 13115 13f3 B3       		.byte	0xb3
 13116 13f4 F9000000 		.4byte	0xf9
 13117 13f8 06       		.byte	0x6
 13118 13f9 0F       		.uleb128 0xf
 13119 13fa D5270000 		.4byte	.LASF457
 13120 13fe 0D       		.byte	0xd
 13121 13ff B4       		.byte	0xb4
 13122 1400 F9000000 		.4byte	0xf9
 13123 1404 08       		.byte	0x8
 13124 1405 00       		.byte	0
 13125 1406 03       		.uleb128 0x3
 13126 1407 CC290000 		.4byte	.LASF458
 13127 140b 0D       		.byte	0xd
 13128 140c B5       		.byte	0xb5
 13129 140d C1130000 		.4byte	0x13c1
 13130 1411 22       		.uleb128 0x22
 13131 1412 02       		.byte	0x2
 13132 1413 0E       		.byte	0xe
 13133 1414 6D       		.byte	0x6d
 13134 1415 32140000 		.4byte	0x1432
 13135 1419 0F       		.uleb128 0xf
 13136 141a 2A2A0000 		.4byte	.LASF459
 13137 141e 0E       		.byte	0xe
 13138 141f 6F       		.byte	0x6f
 13139 1420 97000000 		.4byte	0x97
 13140 1424 00       		.byte	0
 13141 1425 0F       		.uleb128 0xf
 13142 1426 00000000 		.4byte	.LASF460
 13143 142a 0E       		.byte	0xe
 13144 142b 70       		.byte	0x70
 13145 142c 97000000 		.4byte	0x97
 13146 1430 01       		.byte	0x1
 13147 1431 00       		.byte	0
 13148 1432 03       		.uleb128 0x3
 13149 1433 4A230000 		.4byte	.LASF461
 13150 1437 0E       		.byte	0xe
 13151 1438 72       		.byte	0x72
 13152 1439 11140000 		.4byte	0x1411
 13153 143d 23       		.uleb128 0x23
 13154 143e BE130000 		.4byte	.LASF464
 13155 1442 01       		.byte	0x1
ARM GAS  C:\Users\RECEPC~1\AppData\Local\Temp\ccZZcwiB.s 			page 281


 13156 1443 2A       		.byte	0x2a
 13157 1444 00000000 		.4byte	.LFB63
 13158 1448 B6000000 		.4byte	.LFE63-.LFB63
 13159 144c 01       		.uleb128 0x1
 13160 144d 9C       		.byte	0x9c
 13161 144e 87140000 		.4byte	0x1487
 13162 1452 24       		.uleb128 0x24
 13163 1453 61220000 		.4byte	.LASF466
 13164 1457 01       		.byte	0x1
 13165 1458 2A       		.byte	0x2a
 13166 1459 11010000 		.4byte	0x111
 13167 145d 02       		.uleb128 0x2
 13168 145e 91       		.byte	0x91
 13169 145f 6C       		.sleb128 -20
 13170 1460 25       		.uleb128 0x25
 13171 1461 2A1E0000 		.4byte	.LASF462
 13172 1465 01       		.byte	0x1
 13173 1466 2C       		.byte	0x2c
 13174 1467 460F0000 		.4byte	0xf46
 13175 146b 02       		.uleb128 0x2
 13176 146c 91       		.byte	0x91
 13177 146d 74       		.sleb128 -12
 13178 146e 26       		.uleb128 0x26
 13179 146f 12000000 		.4byte	.LBB2
 13180 1473 9E000000 		.4byte	.LBE2-.LBB2
 13181 1477 25       		.uleb128 0x25
 13182 1478 07050000 		.4byte	.LASF463
 13183 147c 01       		.byte	0x1
 13184 147d 2F       		.byte	0x2f
 13185 147e 97000000 		.4byte	0x97
 13186 1482 02       		.uleb128 0x2
 13187 1483 91       		.byte	0x91
 13188 1484 73       		.sleb128 -13
 13189 1485 00       		.byte	0
 13190 1486 00       		.byte	0
 13191 1487 27       		.uleb128 0x27
 13192 1488 C60F0000 		.4byte	.LASF465
 13193 148c 01       		.byte	0x1
 13194 148d 47       		.byte	0x47
 13195 148e 00000000 		.4byte	.LFB64
 13196 1492 48000000 		.4byte	.LFE64-.LFB64
 13197 1496 01       		.uleb128 0x1
 13198 1497 9C       		.byte	0x9c
 13199 1498 B9140000 		.4byte	0x14b9
 13200 149c 24       		.uleb128 0x24
 13201 149d 61220000 		.4byte	.LASF466
 13202 14a1 01       		.byte	0x1
 13203 14a2 47       		.byte	0x47
 13204 14a3 11010000 		.4byte	0x111
 13205 14a7 02       		.uleb128 0x2
 13206 14a8 91       		.byte	0x91
 13207 14a9 6C       		.sleb128 -20
 13208 14aa 25       		.uleb128 0x25
 13209 14ab 2A1E0000 		.4byte	.LASF462
 13210 14af 01       		.byte	0x1
 13211 14b0 49       		.byte	0x49
 13212 14b1 460F0000 		.4byte	0xf46
ARM GAS  C:\Users\RECEPC~1\AppData\Local\Temp\ccZZcwiB.s 			page 282


 13213 14b5 02       		.uleb128 0x2
 13214 14b6 91       		.byte	0x91
 13215 14b7 74       		.sleb128 -12
 13216 14b8 00       		.byte	0
 13217 14b9 23       		.uleb128 0x23
 13218 14ba 2C0F0000 		.4byte	.LASF467
 13219 14be 01       		.byte	0x1
 13220 14bf 51       		.byte	0x51
 13221 14c0 00000000 		.4byte	.LFB65
 13222 14c4 E0000000 		.4byte	.LFE65-.LFB65
 13223 14c8 01       		.uleb128 0x1
 13224 14c9 9C       		.byte	0x9c
 13225 14ca EB140000 		.4byte	0x14eb
 13226 14ce 24       		.uleb128 0x24
 13227 14cf 61220000 		.4byte	.LASF466
 13228 14d3 01       		.byte	0x1
 13229 14d4 51       		.byte	0x51
 13230 14d5 11010000 		.4byte	0x111
 13231 14d9 02       		.uleb128 0x2
 13232 14da 91       		.byte	0x91
 13233 14db 64       		.sleb128 -28
 13234 14dc 25       		.uleb128 0x25
 13235 14dd 2A1E0000 		.4byte	.LASF462
 13236 14e1 01       		.byte	0x1
 13237 14e2 53       		.byte	0x53
 13238 14e3 460F0000 		.4byte	0xf46
 13239 14e7 02       		.uleb128 0x2
 13240 14e8 91       		.byte	0x91
 13241 14e9 6C       		.sleb128 -20
 13242 14ea 00       		.byte	0
 13243 14eb 23       		.uleb128 0x23
 13244 14ec EF210000 		.4byte	.LASF468
 13245 14f0 01       		.byte	0x1
 13246 14f1 63       		.byte	0x63
 13247 14f2 00000000 		.4byte	.LFB66
 13248 14f6 9A0F0000 		.4byte	.LFE66-.LFB66
 13249 14fa 01       		.uleb128 0x1
 13250 14fb 9C       		.byte	0x9c
 13251 14fc 87150000 		.4byte	0x1587
 13252 1500 24       		.uleb128 0x24
 13253 1501 61220000 		.4byte	.LASF466
 13254 1505 01       		.byte	0x1
 13255 1506 63       		.byte	0x63
 13256 1507 11010000 		.4byte	0x111
 13257 150b 02       		.uleb128 0x2
 13258 150c 91       		.byte	0x91
 13259 150d 5C       		.sleb128 -36
 13260 150e 25       		.uleb128 0x25
 13261 150f 2A1E0000 		.4byte	.LASF462
 13262 1513 01       		.byte	0x1
 13263 1514 65       		.byte	0x65
 13264 1515 460F0000 		.4byte	0xf46
 13265 1519 02       		.uleb128 0x2
 13266 151a 91       		.byte	0x91
 13267 151b 6C       		.sleb128 -20
 13268 151c 26       		.uleb128 0x26
 13269 151d 14000000 		.4byte	.LBB3
ARM GAS  C:\Users\RECEPC~1\AppData\Local\Temp\ccZZcwiB.s 			page 283


 13270 1521 800F0000 		.4byte	.LBE3-.LBB3
 13271 1525 25       		.uleb128 0x25
 13272 1526 10060000 		.4byte	.LASF469
 13273 152a 01       		.byte	0x1
 13274 152b 69       		.byte	0x69
 13275 152c 97000000 		.4byte	0x97
 13276 1530 02       		.uleb128 0x2
 13277 1531 91       		.byte	0x91
 13278 1532 6B       		.sleb128 -21
 13279 1533 25       		.uleb128 0x25
 13280 1534 20070000 		.4byte	.LASF470
 13281 1538 01       		.byte	0x1
 13282 1539 6A       		.byte	0x6a
 13283 153a 97000000 		.4byte	0x97
 13284 153e 02       		.uleb128 0x2
 13285 153f 91       		.byte	0x91
 13286 1540 6A       		.sleb128 -22
 13287 1541 28       		.uleb128 0x28
 13288 1542 70747300 		.ascii	"pts\000"
 13289 1546 01       		.byte	0x1
 13290 1547 0902     		.2byte	0x209
 13291 1549 69090000 		.4byte	0x969
 13292 154d 02       		.uleb128 0x2
 13293 154e 91       		.byte	0x91
 13294 154f 60       		.sleb128 -32
 13295 1550 29       		.uleb128 0x29
 13296 1551 A6000000 		.4byte	.LBB4
 13297 1555 94010000 		.4byte	.LBE4-.LBB4
 13298 1559 6C150000 		.4byte	0x156c
 13299 155d 25       		.uleb128 0x25
 13300 155e 620C0000 		.4byte	.LASF471
 13301 1562 01       		.byte	0x1
 13302 1563 7E       		.byte	0x7e
 13303 1564 A3000000 		.4byte	0xa3
 13304 1568 02       		.uleb128 0x2
 13305 1569 91       		.byte	0x91
 13306 156a 68       		.sleb128 -24
 13307 156b 00       		.byte	0
 13308 156c 26       		.uleb128 0x26
 13309 156d 94070000 		.4byte	.LBB5
 13310 1571 BE010000 		.4byte	.LBE5-.LBB5
 13311 1575 2A       		.uleb128 0x2a
 13312 1576 620C0000 		.4byte	.LASF471
 13313 157a 01       		.byte	0x1
 13314 157b 4201     		.2byte	0x142
 13315 157d A3000000 		.4byte	0xa3
 13316 1581 02       		.uleb128 0x2
 13317 1582 91       		.byte	0x91
 13318 1583 66       		.sleb128 -26
 13319 1584 00       		.byte	0
 13320 1585 00       		.byte	0
 13321 1586 00       		.byte	0
 13322 1587 2B       		.uleb128 0x2b
 13323 1588 93190000 		.4byte	.LASF472
 13324 158c 01       		.byte	0x1
 13325 158d 1C02     		.2byte	0x21c
 13326 158f 00000000 		.4byte	.LFB67
ARM GAS  C:\Users\RECEPC~1\AppData\Local\Temp\ccZZcwiB.s 			page 284


 13327 1593 54010000 		.4byte	.LFE67-.LFB67
 13328 1597 01       		.uleb128 0x1
 13329 1598 9C       		.byte	0x9c
 13330 1599 02160000 		.4byte	0x1602
 13331 159d 2C       		.uleb128 0x2c
 13332 159e 61220000 		.4byte	.LASF466
 13333 15a2 01       		.byte	0x1
 13334 15a3 1C02     		.2byte	0x21c
 13335 15a5 11010000 		.4byte	0x111
 13336 15a9 02       		.uleb128 0x2
 13337 15aa 91       		.byte	0x91
 13338 15ab 64       		.sleb128 -28
 13339 15ac 2A       		.uleb128 0x2a
 13340 15ad 2A1E0000 		.4byte	.LASF462
 13341 15b1 01       		.byte	0x1
 13342 15b2 1E02     		.2byte	0x21e
 13343 15b4 460F0000 		.4byte	0xf46
 13344 15b8 02       		.uleb128 0x2
 13345 15b9 91       		.byte	0x91
 13346 15ba 74       		.sleb128 -12
 13347 15bb 26       		.uleb128 0x26
 13348 15bc 14000000 		.4byte	.LBB6
 13349 15c0 34010000 		.4byte	.LBE6-.LBB6
 13350 15c4 2A       		.uleb128 0x2a
 13351 15c5 7B040000 		.4byte	.LASF473
 13352 15c9 01       		.byte	0x1
 13353 15ca 2102     		.2byte	0x221
 13354 15cc 49020000 		.4byte	0x249
 13355 15d0 02       		.uleb128 0x2
 13356 15d1 91       		.byte	0x91
 13357 15d2 73       		.sleb128 -13
 13358 15d3 2A       		.uleb128 0x2a
 13359 15d4 8A190000 		.4byte	.LASF474
 13360 15d8 01       		.byte	0x1
 13361 15d9 2202     		.2byte	0x222
 13362 15db 97000000 		.4byte	0x97
 13363 15df 02       		.uleb128 0x2
 13364 15e0 91       		.byte	0x91
 13365 15e1 72       		.sleb128 -14
 13366 15e2 2A       		.uleb128 0x2a
 13367 15e3 02250000 		.4byte	.LASF475
 13368 15e7 01       		.byte	0x1
 13369 15e8 3C02     		.2byte	0x23c
 13370 15ea 49020000 		.4byte	0x249
 13371 15ee 02       		.uleb128 0x2
 13372 15ef 91       		.byte	0x91
 13373 15f0 71       		.sleb128 -15
 13374 15f1 28       		.uleb128 0x28
 13375 15f2 70747300 		.ascii	"pts\000"
 13376 15f6 01       		.byte	0x1
 13377 15f7 3D02     		.2byte	0x23d
 13378 15f9 69090000 		.4byte	0x969
 13379 15fd 02       		.uleb128 0x2
 13380 15fe 91       		.byte	0x91
 13381 15ff 6C       		.sleb128 -20
 13382 1600 00       		.byte	0
 13383 1601 00       		.byte	0
ARM GAS  C:\Users\RECEPC~1\AppData\Local\Temp\ccZZcwiB.s 			page 285


 13384 1602 2B       		.uleb128 0x2b
 13385 1603 C0000000 		.4byte	.LASF476
 13386 1607 01       		.byte	0x1
 13387 1608 5602     		.2byte	0x256
 13388 160a 00000000 		.4byte	.LFB68
 13389 160e 2C000000 		.4byte	.LFE68-.LFB68
 13390 1612 01       		.uleb128 0x1
 13391 1613 9C       		.byte	0x9c
 13392 1614 37160000 		.4byte	0x1637
 13393 1618 2C       		.uleb128 0x2c
 13394 1619 61220000 		.4byte	.LASF466
 13395 161d 01       		.byte	0x1
 13396 161e 5602     		.2byte	0x256
 13397 1620 11010000 		.4byte	0x111
 13398 1624 02       		.uleb128 0x2
 13399 1625 91       		.byte	0x91
 13400 1626 6C       		.sleb128 -20
 13401 1627 2A       		.uleb128 0x2a
 13402 1628 2A1E0000 		.4byte	.LASF462
 13403 162c 01       		.byte	0x1
 13404 162d 5802     		.2byte	0x258
 13405 162f 460F0000 		.4byte	0xf46
 13406 1633 02       		.uleb128 0x2
 13407 1634 91       		.byte	0x91
 13408 1635 74       		.sleb128 -12
 13409 1636 00       		.byte	0
 13410 1637 2D       		.uleb128 0x2d
 13411 1638 1C280000 		.4byte	.LASF477
 13412 163c 01       		.byte	0x1
 13413 163d 9C02     		.2byte	0x29c
 13414 163f 00000000 		.4byte	.LFB69
 13415 1643 36000000 		.4byte	.LFE69-.LFB69
 13416 1647 01       		.uleb128 0x1
 13417 1648 9C       		.byte	0x9c
 13418 1649 6C160000 		.4byte	0x166c
 13419 164d 2C       		.uleb128 0x2c
 13420 164e 61220000 		.4byte	.LASF466
 13421 1652 01       		.byte	0x1
 13422 1653 9C02     		.2byte	0x29c
 13423 1655 11010000 		.4byte	0x111
 13424 1659 02       		.uleb128 0x2
 13425 165a 91       		.byte	0x91
 13426 165b 6C       		.sleb128 -20
 13427 165c 2A       		.uleb128 0x2a
 13428 165d 2A1E0000 		.4byte	.LASF462
 13429 1661 01       		.byte	0x1
 13430 1662 9E02     		.2byte	0x29e
 13431 1664 460F0000 		.4byte	0xf46
 13432 1668 02       		.uleb128 0x2
 13433 1669 91       		.byte	0x91
 13434 166a 74       		.sleb128 -12
 13435 166b 00       		.byte	0
 13436 166c 2D       		.uleb128 0x2d
 13437 166d EE280000 		.4byte	.LASF478
 13438 1671 01       		.byte	0x1
 13439 1672 AD02     		.2byte	0x2ad
 13440 1674 00000000 		.4byte	.LFB70
ARM GAS  C:\Users\RECEPC~1\AppData\Local\Temp\ccZZcwiB.s 			page 286


 13441 1678 36000000 		.4byte	.LFE70-.LFB70
 13442 167c 01       		.uleb128 0x1
 13443 167d 9C       		.byte	0x9c
 13444 167e A1160000 		.4byte	0x16a1
 13445 1682 2C       		.uleb128 0x2c
 13446 1683 61220000 		.4byte	.LASF466
 13447 1687 01       		.byte	0x1
 13448 1688 AD02     		.2byte	0x2ad
 13449 168a 11010000 		.4byte	0x111
 13450 168e 02       		.uleb128 0x2
 13451 168f 91       		.byte	0x91
 13452 1690 6C       		.sleb128 -20
 13453 1691 2A       		.uleb128 0x2a
 13454 1692 2A1E0000 		.4byte	.LASF462
 13455 1696 01       		.byte	0x1
 13456 1697 AF02     		.2byte	0x2af
 13457 1699 460F0000 		.4byte	0xf46
 13458 169d 02       		.uleb128 0x2
 13459 169e 91       		.byte	0x91
 13460 169f 74       		.sleb128 -12
 13461 16a0 00       		.byte	0
 13462 16a1 2B       		.uleb128 0x2b
 13463 16a2 49100000 		.4byte	.LASF479
 13464 16a6 01       		.byte	0x1
 13465 16a7 C202     		.2byte	0x2c2
 13466 16a9 00000000 		.4byte	.LFB71
 13467 16ad 82000000 		.4byte	.LFE71-.LFB71
 13468 16b1 01       		.uleb128 0x1
 13469 16b2 9C       		.byte	0x9c
 13470 16b3 FE160000 		.4byte	0x16fe
 13471 16b7 2C       		.uleb128 0x2c
 13472 16b8 61220000 		.4byte	.LASF466
 13473 16bc 01       		.byte	0x1
 13474 16bd C202     		.2byte	0x2c2
 13475 16bf 11010000 		.4byte	0x111
 13476 16c3 02       		.uleb128 0x2
 13477 16c4 91       		.byte	0x91
 13478 16c5 64       		.sleb128 -28
 13479 16c6 2A       		.uleb128 0x2a
 13480 16c7 34000000 		.4byte	.LASF480
 13481 16cb 01       		.byte	0x1
 13482 16cc C402     		.2byte	0x2c4
 13483 16ce FE0C0000 		.4byte	0xcfe
 13484 16d2 02       		.uleb128 0x2
 13485 16d3 91       		.byte	0x91
 13486 16d4 74       		.sleb128 -12
 13487 16d5 26       		.uleb128 0x26
 13488 16d6 12000000 		.4byte	.LBB7
 13489 16da 6A000000 		.4byte	.LBE7-.LBB7
 13490 16de 2A       		.uleb128 0x2a
 13491 16df 7A240000 		.4byte	.LASF481
 13492 16e3 01       		.byte	0x1
 13493 16e4 CB02     		.2byte	0x2cb
 13494 16e6 81000000 		.4byte	0x81
 13495 16ea 02       		.uleb128 0x2
 13496 16eb 91       		.byte	0x91
 13497 16ec 73       		.sleb128 -13
ARM GAS  C:\Users\RECEPC~1\AppData\Local\Temp\ccZZcwiB.s 			page 287


 13498 16ed 2A       		.uleb128 0x2a
 13499 16ee 330C0000 		.4byte	.LASF482
 13500 16f2 01       		.byte	0x1
 13501 16f3 CD02     		.2byte	0x2cd
 13502 16f5 74050000 		.4byte	0x574
 13503 16f9 02       		.uleb128 0x2
 13504 16fa 91       		.byte	0x91
 13505 16fb 6C       		.sleb128 -20
 13506 16fc 00       		.byte	0
 13507 16fd 00       		.byte	0
 13508 16fe 2B       		.uleb128 0x2b
 13509 16ff 670A0000 		.4byte	.LASF483
 13510 1703 01       		.byte	0x1
 13511 1704 DD02     		.2byte	0x2dd
 13512 1706 00000000 		.4byte	.LFB72
 13513 170a 70000000 		.4byte	.LFE72-.LFB72
 13514 170e 01       		.uleb128 0x1
 13515 170f 9C       		.byte	0x9c
 13516 1710 5B170000 		.4byte	0x175b
 13517 1714 2C       		.uleb128 0x2c
 13518 1715 61220000 		.4byte	.LASF466
 13519 1719 01       		.byte	0x1
 13520 171a DD02     		.2byte	0x2dd
 13521 171c 11010000 		.4byte	0x111
 13522 1720 02       		.uleb128 0x2
 13523 1721 91       		.byte	0x91
 13524 1722 64       		.sleb128 -28
 13525 1723 2A       		.uleb128 0x2a
 13526 1724 34000000 		.4byte	.LASF480
 13527 1728 01       		.byte	0x1
 13528 1729 DF02     		.2byte	0x2df
 13529 172b FE0C0000 		.4byte	0xcfe
 13530 172f 02       		.uleb128 0x2
 13531 1730 91       		.byte	0x91
 13532 1731 74       		.sleb128 -12
 13533 1732 26       		.uleb128 0x26
 13534 1733 12000000 		.4byte	.LBB8
 13535 1737 58000000 		.4byte	.LBE8-.LBB8
 13536 173b 2A       		.uleb128 0x2a
 13537 173c 7A240000 		.4byte	.LASF481
 13538 1740 01       		.byte	0x1
 13539 1741 E202     		.2byte	0x2e2
 13540 1743 81000000 		.4byte	0x81
 13541 1747 02       		.uleb128 0x2
 13542 1748 91       		.byte	0x91
 13543 1749 73       		.sleb128 -13
 13544 174a 2A       		.uleb128 0x2a
 13545 174b 330C0000 		.4byte	.LASF482
 13546 174f 01       		.byte	0x1
 13547 1750 E402     		.2byte	0x2e4
 13548 1752 74050000 		.4byte	0x574
 13549 1756 02       		.uleb128 0x2
 13550 1757 91       		.byte	0x91
 13551 1758 6C       		.sleb128 -20
 13552 1759 00       		.byte	0
 13553 175a 00       		.byte	0
 13554 175b 2B       		.uleb128 0x2b
ARM GAS  C:\Users\RECEPC~1\AppData\Local\Temp\ccZZcwiB.s 			page 288


 13555 175c 37040000 		.4byte	.LASF484
 13556 1760 01       		.byte	0x1
 13557 1761 F402     		.2byte	0x2f4
 13558 1763 00000000 		.4byte	.LFB73
 13559 1767 60000000 		.4byte	.LFE73-.LFB73
 13560 176b 01       		.uleb128 0x1
 13561 176c 9C       		.byte	0x9c
 13562 176d B8170000 		.4byte	0x17b8
 13563 1771 2C       		.uleb128 0x2c
 13564 1772 61220000 		.4byte	.LASF466
 13565 1776 01       		.byte	0x1
 13566 1777 F402     		.2byte	0x2f4
 13567 1779 11010000 		.4byte	0x111
 13568 177d 02       		.uleb128 0x2
 13569 177e 91       		.byte	0x91
 13570 177f 64       		.sleb128 -28
 13571 1780 2A       		.uleb128 0x2a
 13572 1781 34000000 		.4byte	.LASF480
 13573 1785 01       		.byte	0x1
 13574 1786 F602     		.2byte	0x2f6
 13575 1788 FE0C0000 		.4byte	0xcfe
 13576 178c 02       		.uleb128 0x2
 13577 178d 91       		.byte	0x91
 13578 178e 74       		.sleb128 -12
 13579 178f 26       		.uleb128 0x26
 13580 1790 12000000 		.4byte	.LBB9
 13581 1794 48000000 		.4byte	.LBE9-.LBB9
 13582 1798 2A       		.uleb128 0x2a
 13583 1799 7A240000 		.4byte	.LASF481
 13584 179d 01       		.byte	0x1
 13585 179e F902     		.2byte	0x2f9
 13586 17a0 81000000 		.4byte	0x81
 13587 17a4 02       		.uleb128 0x2
 13588 17a5 91       		.byte	0x91
 13589 17a6 73       		.sleb128 -13
 13590 17a7 2A       		.uleb128 0x2a
 13591 17a8 330C0000 		.4byte	.LASF482
 13592 17ac 01       		.byte	0x1
 13593 17ad FB02     		.2byte	0x2fb
 13594 17af 74050000 		.4byte	0x574
 13595 17b3 02       		.uleb128 0x2
 13596 17b4 91       		.byte	0x91
 13597 17b5 6C       		.sleb128 -20
 13598 17b6 00       		.byte	0
 13599 17b7 00       		.byte	0
 13600 17b8 2B       		.uleb128 0x2b
 13601 17b9 67240000 		.4byte	.LASF485
 13602 17bd 01       		.byte	0x1
 13603 17be 0703     		.2byte	0x307
 13604 17c0 00000000 		.4byte	.LFB74
 13605 17c4 6A000000 		.4byte	.LFE74-.LFB74
 13606 17c8 01       		.uleb128 0x1
 13607 17c9 9C       		.byte	0x9c
 13608 17ca 15180000 		.4byte	0x1815
 13609 17ce 2C       		.uleb128 0x2c
 13610 17cf 61220000 		.4byte	.LASF466
 13611 17d3 01       		.byte	0x1
ARM GAS  C:\Users\RECEPC~1\AppData\Local\Temp\ccZZcwiB.s 			page 289


 13612 17d4 0703     		.2byte	0x307
 13613 17d6 11010000 		.4byte	0x111
 13614 17da 02       		.uleb128 0x2
 13615 17db 91       		.byte	0x91
 13616 17dc 64       		.sleb128 -28
 13617 17dd 2A       		.uleb128 0x2a
 13618 17de 34000000 		.4byte	.LASF480
 13619 17e2 01       		.byte	0x1
 13620 17e3 0903     		.2byte	0x309
 13621 17e5 FE0C0000 		.4byte	0xcfe
 13622 17e9 02       		.uleb128 0x2
 13623 17ea 91       		.byte	0x91
 13624 17eb 74       		.sleb128 -12
 13625 17ec 26       		.uleb128 0x26
 13626 17ed 12000000 		.4byte	.LBB10
 13627 17f1 52000000 		.4byte	.LBE10-.LBB10
 13628 17f5 2A       		.uleb128 0x2a
 13629 17f6 7A240000 		.4byte	.LASF481
 13630 17fa 01       		.byte	0x1
 13631 17fb 0C03     		.2byte	0x30c
 13632 17fd 81000000 		.4byte	0x81
 13633 1801 02       		.uleb128 0x2
 13634 1802 91       		.byte	0x91
 13635 1803 73       		.sleb128 -13
 13636 1804 2A       		.uleb128 0x2a
 13637 1805 330C0000 		.4byte	.LASF482
 13638 1809 01       		.byte	0x1
 13639 180a 0E03     		.2byte	0x30e
 13640 180c 74050000 		.4byte	0x574
 13641 1810 02       		.uleb128 0x2
 13642 1811 91       		.byte	0x91
 13643 1812 6C       		.sleb128 -20
 13644 1813 00       		.byte	0
 13645 1814 00       		.byte	0
 13646 1815 2B       		.uleb128 0x2b
 13647 1816 C2240000 		.4byte	.LASF486
 13648 181a 01       		.byte	0x1
 13649 181b 1B03     		.2byte	0x31b
 13650 181d 00000000 		.4byte	.LFB75
 13651 1821 6A000000 		.4byte	.LFE75-.LFB75
 13652 1825 01       		.uleb128 0x1
 13653 1826 9C       		.byte	0x9c
 13654 1827 72180000 		.4byte	0x1872
 13655 182b 2C       		.uleb128 0x2c
 13656 182c 61220000 		.4byte	.LASF466
 13657 1830 01       		.byte	0x1
 13658 1831 1B03     		.2byte	0x31b
 13659 1833 11010000 		.4byte	0x111
 13660 1837 02       		.uleb128 0x2
 13661 1838 91       		.byte	0x91
 13662 1839 64       		.sleb128 -28
 13663 183a 2A       		.uleb128 0x2a
 13664 183b 34000000 		.4byte	.LASF480
 13665 183f 01       		.byte	0x1
 13666 1840 1D03     		.2byte	0x31d
 13667 1842 FE0C0000 		.4byte	0xcfe
 13668 1846 02       		.uleb128 0x2
ARM GAS  C:\Users\RECEPC~1\AppData\Local\Temp\ccZZcwiB.s 			page 290


 13669 1847 91       		.byte	0x91
 13670 1848 74       		.sleb128 -12
 13671 1849 26       		.uleb128 0x26
 13672 184a 12000000 		.4byte	.LBB11
 13673 184e 52000000 		.4byte	.LBE11-.LBB11
 13674 1852 2A       		.uleb128 0x2a
 13675 1853 7A240000 		.4byte	.LASF481
 13676 1857 01       		.byte	0x1
 13677 1858 2003     		.2byte	0x320
 13678 185a 81000000 		.4byte	0x81
 13679 185e 02       		.uleb128 0x2
 13680 185f 91       		.byte	0x91
 13681 1860 73       		.sleb128 -13
 13682 1861 2A       		.uleb128 0x2a
 13683 1862 330C0000 		.4byte	.LASF482
 13684 1866 01       		.byte	0x1
 13685 1867 2203     		.2byte	0x322
 13686 1869 74050000 		.4byte	0x574
 13687 186d 02       		.uleb128 0x2
 13688 186e 91       		.byte	0x91
 13689 186f 6C       		.sleb128 -20
 13690 1870 00       		.byte	0
 13691 1871 00       		.byte	0
 13692 1872 2B       		.uleb128 0x2b
 13693 1873 B7030000 		.4byte	.LASF487
 13694 1877 01       		.byte	0x1
 13695 1878 3003     		.2byte	0x330
 13696 187a 00000000 		.4byte	.LFB76
 13697 187e 6A000000 		.4byte	.LFE76-.LFB76
 13698 1882 01       		.uleb128 0x1
 13699 1883 9C       		.byte	0x9c
 13700 1884 CF180000 		.4byte	0x18cf
 13701 1888 2C       		.uleb128 0x2c
 13702 1889 61220000 		.4byte	.LASF466
 13703 188d 01       		.byte	0x1
 13704 188e 3003     		.2byte	0x330
 13705 1890 11010000 		.4byte	0x111
 13706 1894 02       		.uleb128 0x2
 13707 1895 91       		.byte	0x91
 13708 1896 64       		.sleb128 -28
 13709 1897 2A       		.uleb128 0x2a
 13710 1898 34000000 		.4byte	.LASF480
 13711 189c 01       		.byte	0x1
 13712 189d 3203     		.2byte	0x332
 13713 189f FE0C0000 		.4byte	0xcfe
 13714 18a3 02       		.uleb128 0x2
 13715 18a4 91       		.byte	0x91
 13716 18a5 74       		.sleb128 -12
 13717 18a6 26       		.uleb128 0x26
 13718 18a7 12000000 		.4byte	.LBB12
 13719 18ab 52000000 		.4byte	.LBE12-.LBB12
 13720 18af 2A       		.uleb128 0x2a
 13721 18b0 7A240000 		.4byte	.LASF481
 13722 18b4 01       		.byte	0x1
 13723 18b5 3503     		.2byte	0x335
 13724 18b7 81000000 		.4byte	0x81
 13725 18bb 02       		.uleb128 0x2
ARM GAS  C:\Users\RECEPC~1\AppData\Local\Temp\ccZZcwiB.s 			page 291


 13726 18bc 91       		.byte	0x91
 13727 18bd 73       		.sleb128 -13
 13728 18be 2A       		.uleb128 0x2a
 13729 18bf 330C0000 		.4byte	.LASF482
 13730 18c3 01       		.byte	0x1
 13731 18c4 3703     		.2byte	0x337
 13732 18c6 74050000 		.4byte	0x574
 13733 18ca 02       		.uleb128 0x2
 13734 18cb 91       		.byte	0x91
 13735 18cc 6C       		.sleb128 -20
 13736 18cd 00       		.byte	0
 13737 18ce 00       		.byte	0
 13738 18cf 2B       		.uleb128 0x2b
 13739 18d0 B20D0000 		.4byte	.LASF488
 13740 18d4 01       		.byte	0x1
 13741 18d5 4503     		.2byte	0x345
 13742 18d7 00000000 		.4byte	.LFB77
 13743 18db 6A000000 		.4byte	.LFE77-.LFB77
 13744 18df 01       		.uleb128 0x1
 13745 18e0 9C       		.byte	0x9c
 13746 18e1 2C190000 		.4byte	0x192c
 13747 18e5 2C       		.uleb128 0x2c
 13748 18e6 61220000 		.4byte	.LASF466
 13749 18ea 01       		.byte	0x1
 13750 18eb 4503     		.2byte	0x345
 13751 18ed 11010000 		.4byte	0x111
 13752 18f1 02       		.uleb128 0x2
 13753 18f2 91       		.byte	0x91
 13754 18f3 64       		.sleb128 -28
 13755 18f4 2A       		.uleb128 0x2a
 13756 18f5 34000000 		.4byte	.LASF480
 13757 18f9 01       		.byte	0x1
 13758 18fa 4703     		.2byte	0x347
 13759 18fc FE0C0000 		.4byte	0xcfe
 13760 1900 02       		.uleb128 0x2
 13761 1901 91       		.byte	0x91
 13762 1902 74       		.sleb128 -12
 13763 1903 26       		.uleb128 0x26
 13764 1904 12000000 		.4byte	.LBB13
 13765 1908 52000000 		.4byte	.LBE13-.LBB13
 13766 190c 2A       		.uleb128 0x2a
 13767 190d 7A240000 		.4byte	.LASF481
 13768 1911 01       		.byte	0x1
 13769 1912 4A03     		.2byte	0x34a
 13770 1914 81000000 		.4byte	0x81
 13771 1918 02       		.uleb128 0x2
 13772 1919 91       		.byte	0x91
 13773 191a 73       		.sleb128 -13
 13774 191b 2A       		.uleb128 0x2a
 13775 191c 330C0000 		.4byte	.LASF482
 13776 1920 01       		.byte	0x1
 13777 1921 4C03     		.2byte	0x34c
 13778 1923 74050000 		.4byte	0x574
 13779 1927 02       		.uleb128 0x2
 13780 1928 91       		.byte	0x91
 13781 1929 6C       		.sleb128 -20
 13782 192a 00       		.byte	0
ARM GAS  C:\Users\RECEPC~1\AppData\Local\Temp\ccZZcwiB.s 			page 292


 13783 192b 00       		.byte	0
 13784 192c 2B       		.uleb128 0x2b
 13785 192d 5F1A0000 		.4byte	.LASF489
 13786 1931 01       		.byte	0x1
 13787 1932 5D03     		.2byte	0x35d
 13788 1934 00000000 		.4byte	.LFB78
 13789 1938 AA030000 		.4byte	.LFE78-.LFB78
 13790 193c 01       		.uleb128 0x1
 13791 193d 9C       		.byte	0x9c
 13792 193e 221A0000 		.4byte	0x1a22
 13793 1942 2C       		.uleb128 0x2c
 13794 1943 61220000 		.4byte	.LASF466
 13795 1947 01       		.byte	0x1
 13796 1948 5D03     		.2byte	0x35d
 13797 194a 11010000 		.4byte	0x111
 13798 194e 02       		.uleb128 0x2
 13799 194f 91       		.byte	0x91
 13800 1950 4C       		.sleb128 -52
 13801 1951 2A       		.uleb128 0x2a
 13802 1952 34000000 		.4byte	.LASF480
 13803 1956 01       		.byte	0x1
 13804 1957 5F03     		.2byte	0x35f
 13805 1959 FE0C0000 		.4byte	0xcfe
 13806 195d 02       		.uleb128 0x2
 13807 195e 91       		.byte	0x91
 13808 195f 68       		.sleb128 -24
 13809 1960 26       		.uleb128 0x26
 13810 1961 14000000 		.4byte	.LBB14
 13811 1965 90030000 		.4byte	.LBE14-.LBB14
 13812 1969 2A       		.uleb128 0x2a
 13813 196a 7A240000 		.4byte	.LASF481
 13814 196e 01       		.byte	0x1
 13815 196f 6203     		.2byte	0x362
 13816 1971 81000000 		.4byte	0x81
 13817 1975 02       		.uleb128 0x2
 13818 1976 91       		.byte	0x91
 13819 1977 6F       		.sleb128 -17
 13820 1978 2A       		.uleb128 0x2a
 13821 1979 330C0000 		.4byte	.LASF482
 13822 197d 01       		.byte	0x1
 13823 197e 6303     		.2byte	0x363
 13824 1980 74050000 		.4byte	0x574
 13825 1984 02       		.uleb128 0x2
 13826 1985 91       		.byte	0x91
 13827 1986 64       		.sleb128 -28
 13828 1987 29       		.uleb128 0x29
 13829 1988 5A000000 		.4byte	.LBB15
 13830 198c A8010000 		.4byte	.LBE15-.LBB15
 13831 1990 E9190000 		.4byte	0x19e9
 13832 1994 2A       		.uleb128 0x2a
 13833 1995 C1250000 		.4byte	.LASF490
 13834 1999 01       		.byte	0x1
 13835 199a 6B03     		.2byte	0x36b
 13836 199c 97000000 		.4byte	0x97
 13837 19a0 02       		.uleb128 0x2
 13838 19a1 91       		.byte	0x91
 13839 19a2 63       		.sleb128 -29
ARM GAS  C:\Users\RECEPC~1\AppData\Local\Temp\ccZZcwiB.s 			page 293


 13840 19a3 28       		.uleb128 0x28
 13841 19a4 70747200 		.ascii	"ptr\000"
 13842 19a8 01       		.byte	0x1
 13843 19a9 8003     		.2byte	0x380
 13844 19ab 3B010000 		.4byte	0x13b
 13845 19af 02       		.uleb128 0x2
 13846 19b0 91       		.byte	0x91
 13847 19b1 5C       		.sleb128 -36
 13848 19b2 29       		.uleb128 0x29
 13849 19b3 54010000 		.4byte	.LBB16
 13850 19b7 4E000000 		.4byte	.LBE16-.LBB16
 13851 19bb CF190000 		.4byte	0x19cf
 13852 19bf 2A       		.uleb128 0x2a
 13853 19c0 5C150000 		.4byte	.LASF491
 13854 19c4 01       		.byte	0x1
 13855 19c5 8503     		.2byte	0x385
 13856 19c7 97000000 		.4byte	0x97
 13857 19cb 02       		.uleb128 0x2
 13858 19cc 91       		.byte	0x91
 13859 19cd 6E       		.sleb128 -18
 13860 19ce 00       		.byte	0
 13861 19cf 26       		.uleb128 0x26
 13862 19d0 A4010000 		.4byte	.LBB17
 13863 19d4 5E000000 		.4byte	.LBE17-.LBB17
 13864 19d8 2A       		.uleb128 0x2a
 13865 19d9 5C150000 		.4byte	.LASF491
 13866 19dd 01       		.byte	0x1
 13867 19de 8D03     		.2byte	0x38d
 13868 19e0 97000000 		.4byte	0x97
 13869 19e4 02       		.uleb128 0x2
 13870 19e5 91       		.byte	0x91
 13871 19e6 6D       		.sleb128 -19
 13872 19e7 00       		.byte	0
 13873 19e8 00       		.byte	0
 13874 19e9 26       		.uleb128 0x26
 13875 19ea 0E020000 		.4byte	.LBB18
 13876 19ee 38010000 		.4byte	.LBE18-.LBB18
 13877 19f2 2A       		.uleb128 0x2a
 13878 19f3 C1250000 		.4byte	.LASF490
 13879 19f7 01       		.byte	0x1
 13880 19f8 9703     		.2byte	0x397
 13881 19fa 97000000 		.4byte	0x97
 13882 19fe 02       		.uleb128 0x2
 13883 19ff 91       		.byte	0x91
 13884 1a00 5B       		.sleb128 -37
 13885 1a01 28       		.uleb128 0x28
 13886 1a02 70747200 		.ascii	"ptr\000"
 13887 1a06 01       		.byte	0x1
 13888 1a07 A503     		.2byte	0x3a5
 13889 1a09 3B010000 		.4byte	0x13b
 13890 1a0d 02       		.uleb128 0x2
 13891 1a0e 91       		.byte	0x91
 13892 1a0f 54       		.sleb128 -44
 13893 1a10 2A       		.uleb128 0x2a
 13894 1a11 5C150000 		.4byte	.LASF491
 13895 1a15 01       		.byte	0x1
 13896 1a16 AB03     		.2byte	0x3ab
ARM GAS  C:\Users\RECEPC~1\AppData\Local\Temp\ccZZcwiB.s 			page 294


 13897 1a18 97000000 		.4byte	0x97
 13898 1a1c 02       		.uleb128 0x2
 13899 1a1d 91       		.byte	0x91
 13900 1a1e 6C       		.sleb128 -20
 13901 1a1f 00       		.byte	0
 13902 1a20 00       		.byte	0
 13903 1a21 00       		.byte	0
 13904 1a22 2B       		.uleb128 0x2b
 13905 1a23 4F080000 		.4byte	.LASF492
 13906 1a27 01       		.byte	0x1
 13907 1a28 C603     		.2byte	0x3c6
 13908 1a2a 00000000 		.4byte	.LFB79
 13909 1a2e 78030000 		.4byte	.LFE79-.LFB79
 13910 1a32 01       		.uleb128 0x1
 13911 1a33 9C       		.byte	0x9c
 13912 1a34 181B0000 		.4byte	0x1b18
 13913 1a38 2C       		.uleb128 0x2c
 13914 1a39 61220000 		.4byte	.LASF466
 13915 1a3d 01       		.byte	0x1
 13916 1a3e C603     		.2byte	0x3c6
 13917 1a40 11010000 		.4byte	0x111
 13918 1a44 02       		.uleb128 0x2
 13919 1a45 91       		.byte	0x91
 13920 1a46 4C       		.sleb128 -52
 13921 1a47 2A       		.uleb128 0x2a
 13922 1a48 34000000 		.4byte	.LASF480
 13923 1a4c 01       		.byte	0x1
 13924 1a4d C803     		.2byte	0x3c8
 13925 1a4f FE0C0000 		.4byte	0xcfe
 13926 1a53 02       		.uleb128 0x2
 13927 1a54 91       		.byte	0x91
 13928 1a55 68       		.sleb128 -24
 13929 1a56 26       		.uleb128 0x26
 13930 1a57 14000000 		.4byte	.LBB19
 13931 1a5b 58030000 		.4byte	.LBE19-.LBB19
 13932 1a5f 2A       		.uleb128 0x2a
 13933 1a60 7A240000 		.4byte	.LASF481
 13934 1a64 01       		.byte	0x1
 13935 1a65 CB03     		.2byte	0x3cb
 13936 1a67 81000000 		.4byte	0x81
 13937 1a6b 02       		.uleb128 0x2
 13938 1a6c 91       		.byte	0x91
 13939 1a6d 6F       		.sleb128 -17
 13940 1a6e 2A       		.uleb128 0x2a
 13941 1a6f 330C0000 		.4byte	.LASF482
 13942 1a73 01       		.byte	0x1
 13943 1a74 CC03     		.2byte	0x3cc
 13944 1a76 74050000 		.4byte	0x574
 13945 1a7a 02       		.uleb128 0x2
 13946 1a7b 91       		.byte	0x91
 13947 1a7c 64       		.sleb128 -28
 13948 1a7d 29       		.uleb128 0x29
 13949 1a7e 5A000000 		.4byte	.LBB20
 13950 1a82 88010000 		.4byte	.LBE20-.LBB20
 13951 1a86 DF1A0000 		.4byte	0x1adf
 13952 1a8a 2A       		.uleb128 0x2a
 13953 1a8b C1250000 		.4byte	.LASF490
ARM GAS  C:\Users\RECEPC~1\AppData\Local\Temp\ccZZcwiB.s 			page 295


 13954 1a8f 01       		.byte	0x1
 13955 1a90 D403     		.2byte	0x3d4
 13956 1a92 97000000 		.4byte	0x97
 13957 1a96 02       		.uleb128 0x2
 13958 1a97 91       		.byte	0x91
 13959 1a98 63       		.sleb128 -29
 13960 1a99 28       		.uleb128 0x28
 13961 1a9a 70747200 		.ascii	"ptr\000"
 13962 1a9e 01       		.byte	0x1
 13963 1a9f E803     		.2byte	0x3e8
 13964 1aa1 3B010000 		.4byte	0x13b
 13965 1aa5 02       		.uleb128 0x2
 13966 1aa6 91       		.byte	0x91
 13967 1aa7 5C       		.sleb128 -36
 13968 1aa8 29       		.uleb128 0x29
 13969 1aa9 28010000 		.4byte	.LBB21
 13970 1aad 54000000 		.4byte	.LBE21-.LBB21
 13971 1ab1 C51A0000 		.4byte	0x1ac5
 13972 1ab5 2A       		.uleb128 0x2a
 13973 1ab6 5C150000 		.4byte	.LASF491
 13974 1aba 01       		.byte	0x1
 13975 1abb ED03     		.2byte	0x3ed
 13976 1abd 97000000 		.4byte	0x97
 13977 1ac1 02       		.uleb128 0x2
 13978 1ac2 91       		.byte	0x91
 13979 1ac3 6E       		.sleb128 -18
 13980 1ac4 00       		.byte	0
 13981 1ac5 26       		.uleb128 0x26
 13982 1ac6 7E010000 		.4byte	.LBB22
 13983 1aca 64000000 		.4byte	.LBE22-.LBB22
 13984 1ace 2A       		.uleb128 0x2a
 13985 1acf 5C150000 		.4byte	.LASF491
 13986 1ad3 01       		.byte	0x1
 13987 1ad4 F503     		.2byte	0x3f5
 13988 1ad6 97000000 		.4byte	0x97
 13989 1ada 02       		.uleb128 0x2
 13990 1adb 91       		.byte	0x91
 13991 1adc 6D       		.sleb128 -19
 13992 1add 00       		.byte	0
 13993 1ade 00       		.byte	0
 13994 1adf 26       		.uleb128 0x26
 13995 1ae0 EE010000 		.4byte	.LBB23
 13996 1ae4 20010000 		.4byte	.LBE23-.LBB23
 13997 1ae8 2A       		.uleb128 0x2a
 13998 1ae9 C1250000 		.4byte	.LASF490
 13999 1aed 01       		.byte	0x1
 14000 1aee FF03     		.2byte	0x3ff
 14001 1af0 97000000 		.4byte	0x97
 14002 1af4 02       		.uleb128 0x2
 14003 1af5 91       		.byte	0x91
 14004 1af6 5B       		.sleb128 -37
 14005 1af7 28       		.uleb128 0x28
 14006 1af8 70747200 		.ascii	"ptr\000"
 14007 1afc 01       		.byte	0x1
 14008 1afd 0C04     		.2byte	0x40c
 14009 1aff 3B010000 		.4byte	0x13b
 14010 1b03 02       		.uleb128 0x2
ARM GAS  C:\Users\RECEPC~1\AppData\Local\Temp\ccZZcwiB.s 			page 296


 14011 1b04 91       		.byte	0x91
 14012 1b05 54       		.sleb128 -44
 14013 1b06 2A       		.uleb128 0x2a
 14014 1b07 5C150000 		.4byte	.LASF491
 14015 1b0b 01       		.byte	0x1
 14016 1b0c 1204     		.2byte	0x412
 14017 1b0e 97000000 		.4byte	0x97
 14018 1b12 02       		.uleb128 0x2
 14019 1b13 91       		.byte	0x91
 14020 1b14 6C       		.sleb128 -20
 14021 1b15 00       		.byte	0
 14022 1b16 00       		.byte	0
 14023 1b17 00       		.byte	0
 14024 1b18 2B       		.uleb128 0x2b
 14025 1b19 6E030000 		.4byte	.LASF493
 14026 1b1d 01       		.byte	0x1
 14027 1b1e 2C04     		.2byte	0x42c
 14028 1b20 00000000 		.4byte	.LFB80
 14029 1b24 C4020000 		.4byte	.LFE80-.LFB80
 14030 1b28 01       		.uleb128 0x1
 14031 1b29 9C       		.byte	0x9c
 14032 1b2a 0E1C0000 		.4byte	0x1c0e
 14033 1b2e 2C       		.uleb128 0x2c
 14034 1b2f 61220000 		.4byte	.LASF466
 14035 1b33 01       		.byte	0x1
 14036 1b34 2C04     		.2byte	0x42c
 14037 1b36 11010000 		.4byte	0x111
 14038 1b3a 02       		.uleb128 0x2
 14039 1b3b 91       		.byte	0x91
 14040 1b3c 4C       		.sleb128 -52
 14041 1b3d 2A       		.uleb128 0x2a
 14042 1b3e 34000000 		.4byte	.LASF480
 14043 1b42 01       		.byte	0x1
 14044 1b43 2E04     		.2byte	0x42e
 14045 1b45 FE0C0000 		.4byte	0xcfe
 14046 1b49 02       		.uleb128 0x2
 14047 1b4a 91       		.byte	0x91
 14048 1b4b 68       		.sleb128 -24
 14049 1b4c 26       		.uleb128 0x26
 14050 1b4d 14000000 		.4byte	.LBB24
 14051 1b51 A6020000 		.4byte	.LBE24-.LBB24
 14052 1b55 2A       		.uleb128 0x2a
 14053 1b56 7A240000 		.4byte	.LASF481
 14054 1b5a 01       		.byte	0x1
 14055 1b5b 3104     		.2byte	0x431
 14056 1b5d 81000000 		.4byte	0x81
 14057 1b61 02       		.uleb128 0x2
 14058 1b62 91       		.byte	0x91
 14059 1b63 6F       		.sleb128 -17
 14060 1b64 2A       		.uleb128 0x2a
 14061 1b65 330C0000 		.4byte	.LASF482
 14062 1b69 01       		.byte	0x1
 14063 1b6a 3304     		.2byte	0x433
 14064 1b6c 74050000 		.4byte	0x574
 14065 1b70 02       		.uleb128 0x2
 14066 1b71 91       		.byte	0x91
 14067 1b72 64       		.sleb128 -28
ARM GAS  C:\Users\RECEPC~1\AppData\Local\Temp\ccZZcwiB.s 			page 297


 14068 1b73 29       		.uleb128 0x29
 14069 1b74 5A000000 		.4byte	.LBB25
 14070 1b78 30010000 		.4byte	.LBE25-.LBB25
 14071 1b7c D51B0000 		.4byte	0x1bd5
 14072 1b80 2A       		.uleb128 0x2a
 14073 1b81 C1250000 		.4byte	.LASF490
 14074 1b85 01       		.byte	0x1
 14075 1b86 3A04     		.2byte	0x43a
 14076 1b88 97000000 		.4byte	0x97
 14077 1b8c 02       		.uleb128 0x2
 14078 1b8d 91       		.byte	0x91
 14079 1b8e 63       		.sleb128 -29
 14080 1b8f 28       		.uleb128 0x28
 14081 1b90 70747200 		.ascii	"ptr\000"
 14082 1b94 01       		.byte	0x1
 14083 1b95 4804     		.2byte	0x448
 14084 1b97 3B010000 		.4byte	0x13b
 14085 1b9b 02       		.uleb128 0x2
 14086 1b9c 91       		.byte	0x91
 14087 1b9d 5C       		.sleb128 -36
 14088 1b9e 29       		.uleb128 0x29
 14089 1b9f D0000000 		.4byte	.LBB26
 14090 1ba3 54000000 		.4byte	.LBE26-.LBB26
 14091 1ba7 BB1B0000 		.4byte	0x1bbb
 14092 1bab 2A       		.uleb128 0x2a
 14093 1bac 5C150000 		.4byte	.LASF491
 14094 1bb0 01       		.byte	0x1
 14095 1bb1 4D04     		.2byte	0x44d
 14096 1bb3 97000000 		.4byte	0x97
 14097 1bb7 02       		.uleb128 0x2
 14098 1bb8 91       		.byte	0x91
 14099 1bb9 6E       		.sleb128 -18
 14100 1bba 00       		.byte	0
 14101 1bbb 26       		.uleb128 0x26
 14102 1bbc 26010000 		.4byte	.LBB27
 14103 1bc0 64000000 		.4byte	.LBE27-.LBB27
 14104 1bc4 2A       		.uleb128 0x2a
 14105 1bc5 5C150000 		.4byte	.LASF491
 14106 1bc9 01       		.byte	0x1
 14107 1bca 5504     		.2byte	0x455
 14108 1bcc 97000000 		.4byte	0x97
 14109 1bd0 02       		.uleb128 0x2
 14110 1bd1 91       		.byte	0x91
 14111 1bd2 6D       		.sleb128 -19
 14112 1bd3 00       		.byte	0
 14113 1bd4 00       		.byte	0
 14114 1bd5 26       		.uleb128 0x26
 14115 1bd6 94010000 		.4byte	.LBB28
 14116 1bda C8000000 		.4byte	.LBE28-.LBB28
 14117 1bde 2A       		.uleb128 0x2a
 14118 1bdf C1250000 		.4byte	.LASF490
 14119 1be3 01       		.byte	0x1
 14120 1be4 5F04     		.2byte	0x45f
 14121 1be6 97000000 		.4byte	0x97
 14122 1bea 02       		.uleb128 0x2
 14123 1beb 91       		.byte	0x91
 14124 1bec 5B       		.sleb128 -37
ARM GAS  C:\Users\RECEPC~1\AppData\Local\Temp\ccZZcwiB.s 			page 298


 14125 1bed 28       		.uleb128 0x28
 14126 1bee 70747200 		.ascii	"ptr\000"
 14127 1bf2 01       		.byte	0x1
 14128 1bf3 6604     		.2byte	0x466
 14129 1bf5 3B010000 		.4byte	0x13b
 14130 1bf9 02       		.uleb128 0x2
 14131 1bfa 91       		.byte	0x91
 14132 1bfb 54       		.sleb128 -44
 14133 1bfc 2A       		.uleb128 0x2a
 14134 1bfd 5C150000 		.4byte	.LASF491
 14135 1c01 01       		.byte	0x1
 14136 1c02 6C04     		.2byte	0x46c
 14137 1c04 97000000 		.4byte	0x97
 14138 1c08 02       		.uleb128 0x2
 14139 1c09 91       		.byte	0x91
 14140 1c0a 6C       		.sleb128 -20
 14141 1c0b 00       		.byte	0
 14142 1c0c 00       		.byte	0
 14143 1c0d 00       		.byte	0
 14144 1c0e 2B       		.uleb128 0x2b
 14145 1c0f AB0E0000 		.4byte	.LASF494
 14146 1c13 01       		.byte	0x1
 14147 1c14 8004     		.2byte	0x480
 14148 1c16 00000000 		.4byte	.LFB81
 14149 1c1a D6010000 		.4byte	.LFE81-.LFB81
 14150 1c1e 01       		.uleb128 0x1
 14151 1c1f 9C       		.byte	0x9c
 14152 1c20 8E1C0000 		.4byte	0x1c8e
 14153 1c24 2C       		.uleb128 0x2c
 14154 1c25 61220000 		.4byte	.LASF466
 14155 1c29 01       		.byte	0x1
 14156 1c2a 8004     		.2byte	0x480
 14157 1c2c 30010000 		.4byte	0x130
 14158 1c30 02       		.uleb128 0x2
 14159 1c31 91       		.byte	0x91
 14160 1c32 5C       		.sleb128 -36
 14161 1c33 2A       		.uleb128 0x2a
 14162 1c34 2A1E0000 		.4byte	.LASF462
 14163 1c38 01       		.byte	0x1
 14164 1c39 8204     		.2byte	0x482
 14165 1c3b 460F0000 		.4byte	0xf46
 14166 1c3f 02       		.uleb128 0x2
 14167 1c40 91       		.byte	0x91
 14168 1c41 6C       		.sleb128 -20
 14169 1c42 26       		.uleb128 0x26
 14170 1c43 14000000 		.4byte	.LBB29
 14171 1c47 BC010000 		.4byte	.LBE29-.LBB29
 14172 1c4b 28       		.uleb128 0x28
 14173 1c4c 70747300 		.ascii	"pts\000"
 14174 1c50 01       		.byte	0x1
 14175 1c51 8904     		.2byte	0x489
 14176 1c53 69090000 		.4byte	0x969
 14177 1c57 02       		.uleb128 0x2
 14178 1c58 91       		.byte	0x91
 14179 1c59 68       		.sleb128 -24
 14180 1c5a 26       		.uleb128 0x26
 14181 1c5b 4E000000 		.4byte	.LBB30
ARM GAS  C:\Users\RECEPC~1\AppData\Local\Temp\ccZZcwiB.s 			page 299


 14182 1c5f 82010000 		.4byte	.LBE30-.LBB30
 14183 1c63 2A       		.uleb128 0x2a
 14184 1c64 7A240000 		.4byte	.LASF481
 14185 1c68 01       		.byte	0x1
 14186 1c69 8D04     		.2byte	0x48d
 14187 1c6b 97000000 		.4byte	0x97
 14188 1c6f 02       		.uleb128 0x2
 14189 1c70 91       		.byte	0x91
 14190 1c71 67       		.sleb128 -25
 14191 1c72 26       		.uleb128 0x26
 14192 1c73 98000000 		.4byte	.LBB31
 14193 1c77 50000000 		.4byte	.LBE31-.LBB31
 14194 1c7b 2A       		.uleb128 0x2a
 14195 1c7c 2D1F0000 		.4byte	.LASF495
 14196 1c80 01       		.byte	0x1
 14197 1c81 9804     		.2byte	0x498
 14198 1c83 AF000000 		.4byte	0xaf
 14199 1c87 02       		.uleb128 0x2
 14200 1c88 91       		.byte	0x91
 14201 1c89 60       		.sleb128 -32
 14202 1c8a 00       		.byte	0
 14203 1c8b 00       		.byte	0
 14204 1c8c 00       		.byte	0
 14205 1c8d 00       		.byte	0
 14206 1c8e 2B       		.uleb128 0x2b
 14207 1c8f 881C0000 		.4byte	.LASF496
 14208 1c93 01       		.byte	0x1
 14209 1c94 B504     		.2byte	0x4b5
 14210 1c96 00000000 		.4byte	.LFB82
 14211 1c9a AA000000 		.4byte	.LFE82-.LFB82
 14212 1c9e 01       		.uleb128 0x1
 14213 1c9f 9C       		.byte	0x9c
 14214 1ca0 F51C0000 		.4byte	0x1cf5
 14215 1ca4 2C       		.uleb128 0x2c
 14216 1ca5 61220000 		.4byte	.LASF466
 14217 1ca9 01       		.byte	0x1
 14218 1caa B504     		.2byte	0x4b5
 14219 1cac 30010000 		.4byte	0x130
 14220 1cb0 02       		.uleb128 0x2
 14221 1cb1 91       		.byte	0x91
 14222 1cb2 64       		.sleb128 -28
 14223 1cb3 2A       		.uleb128 0x2a
 14224 1cb4 2A1E0000 		.4byte	.LASF462
 14225 1cb8 01       		.byte	0x1
 14226 1cb9 B704     		.2byte	0x4b7
 14227 1cbb 460F0000 		.4byte	0xf46
 14228 1cbf 02       		.uleb128 0x2
 14229 1cc0 91       		.byte	0x91
 14230 1cc1 74       		.sleb128 -12
 14231 1cc2 26       		.uleb128 0x26
 14232 1cc3 12000000 		.4byte	.LBB32
 14233 1cc7 92000000 		.4byte	.LBE32-.LBB32
 14234 1ccb 28       		.uleb128 0x28
 14235 1ccc 70747300 		.ascii	"pts\000"
 14236 1cd0 01       		.byte	0x1
 14237 1cd1 BE04     		.2byte	0x4be
 14238 1cd3 69090000 		.4byte	0x969
ARM GAS  C:\Users\RECEPC~1\AppData\Local\Temp\ccZZcwiB.s 			page 300


 14239 1cd7 02       		.uleb128 0x2
 14240 1cd8 91       		.byte	0x91
 14241 1cd9 70       		.sleb128 -16
 14242 1cda 26       		.uleb128 0x26
 14243 1cdb 4A000000 		.4byte	.LBB33
 14244 1cdf 5A000000 		.4byte	.LBE33-.LBB33
 14245 1ce3 2A       		.uleb128 0x2a
 14246 1ce4 7A240000 		.4byte	.LASF481
 14247 1ce8 01       		.byte	0x1
 14248 1ce9 C204     		.2byte	0x4c2
 14249 1ceb 97000000 		.4byte	0x97
 14250 1cef 02       		.uleb128 0x2
 14251 1cf0 91       		.byte	0x91
 14252 1cf1 6F       		.sleb128 -17
 14253 1cf2 00       		.byte	0
 14254 1cf3 00       		.byte	0
 14255 1cf4 00       		.byte	0
 14256 1cf5 2B       		.uleb128 0x2b
 14257 1cf6 EF240000 		.4byte	.LASF497
 14258 1cfa 01       		.byte	0x1
 14259 1cfb D904     		.2byte	0x4d9
 14260 1cfd 00000000 		.4byte	.LFB83
 14261 1d01 28030000 		.4byte	.LFE83-.LFB83
 14262 1d05 01       		.uleb128 0x1
 14263 1d06 9C       		.byte	0x9c
 14264 1d07 C41D0000 		.4byte	0x1dc4
 14265 1d0b 2C       		.uleb128 0x2c
 14266 1d0c 61220000 		.4byte	.LASF466
 14267 1d10 01       		.byte	0x1
 14268 1d11 D904     		.2byte	0x4d9
 14269 1d13 11010000 		.4byte	0x111
 14270 1d17 02       		.uleb128 0x2
 14271 1d18 91       		.byte	0x91
 14272 1d19 4C       		.sleb128 -52
 14273 1d1a 2A       		.uleb128 0x2a
 14274 1d1b 34000000 		.4byte	.LASF480
 14275 1d1f 01       		.byte	0x1
 14276 1d20 DB04     		.2byte	0x4db
 14277 1d22 FE0C0000 		.4byte	0xcfe
 14278 1d26 02       		.uleb128 0x2
 14279 1d27 91       		.byte	0x91
 14280 1d28 68       		.sleb128 -24
 14281 1d29 26       		.uleb128 0x26
 14282 1d2a 14000000 		.4byte	.LBB34
 14283 1d2e 08030000 		.4byte	.LBE34-.LBB34
 14284 1d32 2A       		.uleb128 0x2a
 14285 1d33 7A240000 		.4byte	.LASF481
 14286 1d37 01       		.byte	0x1
 14287 1d38 DE04     		.2byte	0x4de
 14288 1d3a 81000000 		.4byte	0x81
 14289 1d3e 02       		.uleb128 0x2
 14290 1d3f 91       		.byte	0x91
 14291 1d40 6F       		.sleb128 -17
 14292 1d41 2A       		.uleb128 0x2a
 14293 1d42 330C0000 		.4byte	.LASF482
 14294 1d46 01       		.byte	0x1
 14295 1d47 DF04     		.2byte	0x4df
ARM GAS  C:\Users\RECEPC~1\AppData\Local\Temp\ccZZcwiB.s 			page 301


 14296 1d49 74050000 		.4byte	0x574
 14297 1d4d 02       		.uleb128 0x2
 14298 1d4e 91       		.byte	0x91
 14299 1d4f 64       		.sleb128 -28
 14300 1d50 29       		.uleb128 0x29
 14301 1d51 5A000000 		.4byte	.LBB35
 14302 1d55 2C010000 		.4byte	.LBE35-.LBB35
 14303 1d59 8B1D0000 		.4byte	0x1d8b
 14304 1d5d 2A       		.uleb128 0x2a
 14305 1d5e C1250000 		.4byte	.LASF490
 14306 1d62 01       		.byte	0x1
 14307 1d63 EB04     		.2byte	0x4eb
 14308 1d65 97000000 		.4byte	0x97
 14309 1d69 02       		.uleb128 0x2
 14310 1d6a 91       		.byte	0x91
 14311 1d6b 63       		.sleb128 -29
 14312 1d6c 28       		.uleb128 0x28
 14313 1d6d 70747200 		.ascii	"ptr\000"
 14314 1d71 01       		.byte	0x1
 14315 1d72 F704     		.2byte	0x4f7
 14316 1d74 3B010000 		.4byte	0x13b
 14317 1d78 02       		.uleb128 0x2
 14318 1d79 91       		.byte	0x91
 14319 1d7a 5C       		.sleb128 -36
 14320 1d7b 2A       		.uleb128 0x2a
 14321 1d7c 5C150000 		.4byte	.LASF491
 14322 1d80 01       		.byte	0x1
 14323 1d81 0005     		.2byte	0x500
 14324 1d83 97000000 		.4byte	0x97
 14325 1d87 02       		.uleb128 0x2
 14326 1d88 91       		.byte	0x91
 14327 1d89 6E       		.sleb128 -18
 14328 1d8a 00       		.byte	0
 14329 1d8b 26       		.uleb128 0x26
 14330 1d8c 92010000 		.4byte	.LBB36
 14331 1d90 2C010000 		.4byte	.LBE36-.LBB36
 14332 1d94 2A       		.uleb128 0x2a
 14333 1d95 C1250000 		.4byte	.LASF490
 14334 1d99 01       		.byte	0x1
 14335 1d9a 0A05     		.2byte	0x50a
 14336 1d9c 97000000 		.4byte	0x97
 14337 1da0 02       		.uleb128 0x2
 14338 1da1 91       		.byte	0x91
 14339 1da2 5B       		.sleb128 -37
 14340 1da3 28       		.uleb128 0x28
 14341 1da4 70747200 		.ascii	"ptr\000"
 14342 1da8 01       		.byte	0x1
 14343 1da9 1605     		.2byte	0x516
 14344 1dab 3B010000 		.4byte	0x13b
 14345 1daf 02       		.uleb128 0x2
 14346 1db0 91       		.byte	0x91
 14347 1db1 54       		.sleb128 -44
 14348 1db2 2A       		.uleb128 0x2a
 14349 1db3 5C150000 		.4byte	.LASF491
 14350 1db7 01       		.byte	0x1
 14351 1db8 1F05     		.2byte	0x51f
 14352 1dba 97000000 		.4byte	0x97
ARM GAS  C:\Users\RECEPC~1\AppData\Local\Temp\ccZZcwiB.s 			page 302


 14353 1dbe 02       		.uleb128 0x2
 14354 1dbf 91       		.byte	0x91
 14355 1dc0 6D       		.sleb128 -19
 14356 1dc1 00       		.byte	0
 14357 1dc2 00       		.byte	0
 14358 1dc3 00       		.byte	0
 14359 1dc4 2B       		.uleb128 0x2b
 14360 1dc5 2B0A0000 		.4byte	.LASF498
 14361 1dc9 01       		.byte	0x1
 14362 1dca 3B05     		.2byte	0x53b
 14363 1dcc 00000000 		.4byte	.LFB84
 14364 1dd0 74020000 		.4byte	.LFE84-.LFB84
 14365 1dd4 01       		.uleb128 0x1
 14366 1dd5 9C       		.byte	0x9c
 14367 1dd6 931E0000 		.4byte	0x1e93
 14368 1dda 2C       		.uleb128 0x2c
 14369 1ddb 61220000 		.4byte	.LASF466
 14370 1ddf 01       		.byte	0x1
 14371 1de0 3B05     		.2byte	0x53b
 14372 1de2 11010000 		.4byte	0x111
 14373 1de6 02       		.uleb128 0x2
 14374 1de7 91       		.byte	0x91
 14375 1de8 4C       		.sleb128 -52
 14376 1de9 2A       		.uleb128 0x2a
 14377 1dea 34000000 		.4byte	.LASF480
 14378 1dee 01       		.byte	0x1
 14379 1def 3D05     		.2byte	0x53d
 14380 1df1 FE0C0000 		.4byte	0xcfe
 14381 1df5 02       		.uleb128 0x2
 14382 1df6 91       		.byte	0x91
 14383 1df7 68       		.sleb128 -24
 14384 1df8 26       		.uleb128 0x26
 14385 1df9 14000000 		.4byte	.LBB37
 14386 1dfd 54020000 		.4byte	.LBE37-.LBB37
 14387 1e01 2A       		.uleb128 0x2a
 14388 1e02 7A240000 		.4byte	.LASF481
 14389 1e06 01       		.byte	0x1
 14390 1e07 4005     		.2byte	0x540
 14391 1e09 81000000 		.4byte	0x81
 14392 1e0d 02       		.uleb128 0x2
 14393 1e0e 91       		.byte	0x91
 14394 1e0f 6F       		.sleb128 -17
 14395 1e10 2A       		.uleb128 0x2a
 14396 1e11 330C0000 		.4byte	.LASF482
 14397 1e15 01       		.byte	0x1
 14398 1e16 4105     		.2byte	0x541
 14399 1e18 74050000 		.4byte	0x574
 14400 1e1c 02       		.uleb128 0x2
 14401 1e1d 91       		.byte	0x91
 14402 1e1e 64       		.sleb128 -28
 14403 1e1f 29       		.uleb128 0x29
 14404 1e20 60000000 		.4byte	.LBB38
 14405 1e24 D4000000 		.4byte	.LBE38-.LBB38
 14406 1e28 5A1E0000 		.4byte	0x1e5a
 14407 1e2c 2A       		.uleb128 0x2a
 14408 1e2d C1250000 		.4byte	.LASF490
 14409 1e31 01       		.byte	0x1
ARM GAS  C:\Users\RECEPC~1\AppData\Local\Temp\ccZZcwiB.s 			page 303


 14410 1e32 4F05     		.2byte	0x54f
 14411 1e34 97000000 		.4byte	0x97
 14412 1e38 02       		.uleb128 0x2
 14413 1e39 91       		.byte	0x91
 14414 1e3a 63       		.sleb128 -29
 14415 1e3b 28       		.uleb128 0x28
 14416 1e3c 70747200 		.ascii	"ptr\000"
 14417 1e40 01       		.byte	0x1
 14418 1e41 5605     		.2byte	0x556
 14419 1e43 3B010000 		.4byte	0x13b
 14420 1e47 02       		.uleb128 0x2
 14421 1e48 91       		.byte	0x91
 14422 1e49 5C       		.sleb128 -36
 14423 1e4a 2A       		.uleb128 0x2a
 14424 1e4b 5C150000 		.4byte	.LASF491
 14425 1e4f 01       		.byte	0x1
 14426 1e50 6005     		.2byte	0x560
 14427 1e52 97000000 		.4byte	0x97
 14428 1e56 02       		.uleb128 0x2
 14429 1e57 91       		.byte	0x91
 14430 1e58 6E       		.sleb128 -18
 14431 1e59 00       		.byte	0
 14432 1e5a 26       		.uleb128 0x26
 14433 1e5b 36010000 		.4byte	.LBB39
 14434 1e5f D4000000 		.4byte	.LBE39-.LBB39
 14435 1e63 2A       		.uleb128 0x2a
 14436 1e64 C1250000 		.4byte	.LASF490
 14437 1e68 01       		.byte	0x1
 14438 1e69 6A05     		.2byte	0x56a
 14439 1e6b 97000000 		.4byte	0x97
 14440 1e6f 02       		.uleb128 0x2
 14441 1e70 91       		.byte	0x91
 14442 1e71 5B       		.sleb128 -37
 14443 1e72 28       		.uleb128 0x28
 14444 1e73 70747200 		.ascii	"ptr\000"
 14445 1e77 01       		.byte	0x1
 14446 1e78 7105     		.2byte	0x571
 14447 1e7a 3B010000 		.4byte	0x13b
 14448 1e7e 02       		.uleb128 0x2
 14449 1e7f 91       		.byte	0x91
 14450 1e80 54       		.sleb128 -44
 14451 1e81 2A       		.uleb128 0x2a
 14452 1e82 5C150000 		.4byte	.LASF491
 14453 1e86 01       		.byte	0x1
 14454 1e87 7B05     		.2byte	0x57b
 14455 1e89 97000000 		.4byte	0x97
 14456 1e8d 02       		.uleb128 0x2
 14457 1e8e 91       		.byte	0x91
 14458 1e8f 6D       		.sleb128 -19
 14459 1e90 00       		.byte	0
 14460 1e91 00       		.byte	0
 14461 1e92 00       		.byte	0
 14462 1e93 2B       		.uleb128 0x2b
 14463 1e94 F8060000 		.4byte	.LASF499
 14464 1e98 01       		.byte	0x1
 14465 1e99 9505     		.2byte	0x595
 14466 1e9b 00000000 		.4byte	.LFB85
ARM GAS  C:\Users\RECEPC~1\AppData\Local\Temp\ccZZcwiB.s 			page 304


 14467 1e9f C4020000 		.4byte	.LFE85-.LFB85
 14468 1ea3 01       		.uleb128 0x1
 14469 1ea4 9C       		.byte	0x9c
 14470 1ea5 5D1F0000 		.4byte	0x1f5d
 14471 1ea9 2C       		.uleb128 0x2c
 14472 1eaa 61220000 		.4byte	.LASF466
 14473 1eae 01       		.byte	0x1
 14474 1eaf 9505     		.2byte	0x595
 14475 1eb1 11010000 		.4byte	0x111
 14476 1eb5 02       		.uleb128 0x2
 14477 1eb6 91       		.byte	0x91
 14478 1eb7 54       		.sleb128 -44
 14479 1eb8 2A       		.uleb128 0x2a
 14480 1eb9 34000000 		.4byte	.LASF480
 14481 1ebd 01       		.byte	0x1
 14482 1ebe 9705     		.2byte	0x597
 14483 1ec0 FE0C0000 		.4byte	0xcfe
 14484 1ec4 02       		.uleb128 0x2
 14485 1ec5 91       		.byte	0x91
 14486 1ec6 68       		.sleb128 -24
 14487 1ec7 26       		.uleb128 0x26
 14488 1ec8 14000000 		.4byte	.LBB40
 14489 1ecc A4020000 		.4byte	.LBE40-.LBB40
 14490 1ed0 2A       		.uleb128 0x2a
 14491 1ed1 7A240000 		.4byte	.LASF481
 14492 1ed5 01       		.byte	0x1
 14493 1ed6 9A05     		.2byte	0x59a
 14494 1ed8 81000000 		.4byte	0x81
 14495 1edc 02       		.uleb128 0x2
 14496 1edd 91       		.byte	0x91
 14497 1ede 6F       		.sleb128 -17
 14498 1edf 2A       		.uleb128 0x2a
 14499 1ee0 330C0000 		.4byte	.LASF482
 14500 1ee4 01       		.byte	0x1
 14501 1ee5 9C05     		.2byte	0x59c
 14502 1ee7 74050000 		.4byte	0x574
 14503 1eeb 02       		.uleb128 0x2
 14504 1eec 91       		.byte	0x91
 14505 1eed 64       		.sleb128 -28
 14506 1eee 26       		.uleb128 0x26
 14507 1eef 3A000000 		.4byte	.LBB41
 14508 1ef3 7E020000 		.4byte	.LBE41-.LBB41
 14509 1ef7 2A       		.uleb128 0x2a
 14510 1ef8 620C0000 		.4byte	.LASF471
 14511 1efc 01       		.byte	0x1
 14512 1efd AE05     		.2byte	0x5ae
 14513 1eff A3000000 		.4byte	0xa3
 14514 1f03 02       		.uleb128 0x2
 14515 1f04 91       		.byte	0x91
 14516 1f05 62       		.sleb128 -30
 14517 1f06 2A       		.uleb128 0x2a
 14518 1f07 BE110000 		.4byte	.LASF500
 14519 1f0b 01       		.byte	0x1
 14520 1f0c C905     		.2byte	0x5c9
 14521 1f0e 97000000 		.4byte	0x97
 14522 1f12 02       		.uleb128 0x2
 14523 1f13 91       		.byte	0x91
ARM GAS  C:\Users\RECEPC~1\AppData\Local\Temp\ccZZcwiB.s 			page 305


 14524 1f14 61       		.sleb128 -31
 14525 1f15 28       		.uleb128 0x28
 14526 1f16 70747200 		.ascii	"ptr\000"
 14527 1f1a 01       		.byte	0x1
 14528 1f1b CA05     		.2byte	0x5ca
 14529 1f1d 3B010000 		.4byte	0x13b
 14530 1f21 02       		.uleb128 0x2
 14531 1f22 91       		.byte	0x91
 14532 1f23 5C       		.sleb128 -36
 14533 1f24 29       		.uleb128 0x29
 14534 1f25 D6010000 		.4byte	.LBB42
 14535 1f29 34000000 		.4byte	.LBE42-.LBB42
 14536 1f2d 411F0000 		.4byte	0x1f41
 14537 1f31 2A       		.uleb128 0x2a
 14538 1f32 5C150000 		.4byte	.LASF491
 14539 1f36 01       		.byte	0x1
 14540 1f37 CE05     		.2byte	0x5ce
 14541 1f39 97000000 		.4byte	0x97
 14542 1f3d 02       		.uleb128 0x2
 14543 1f3e 91       		.byte	0x91
 14544 1f3f 6E       		.sleb128 -18
 14545 1f40 00       		.byte	0
 14546 1f41 26       		.uleb128 0x26
 14547 1f42 0C020000 		.4byte	.LBB43
 14548 1f46 34000000 		.4byte	.LBE43-.LBB43
 14549 1f4a 2A       		.uleb128 0x2a
 14550 1f4b 5C150000 		.4byte	.LASF491
 14551 1f4f 01       		.byte	0x1
 14552 1f50 D305     		.2byte	0x5d3
 14553 1f52 97000000 		.4byte	0x97
 14554 1f56 02       		.uleb128 0x2
 14555 1f57 91       		.byte	0x91
 14556 1f58 6D       		.sleb128 -19
 14557 1f59 00       		.byte	0
 14558 1f5a 00       		.byte	0
 14559 1f5b 00       		.byte	0
 14560 1f5c 00       		.byte	0
 14561 1f5d 2B       		.uleb128 0x2b
 14562 1f5e E6180000 		.4byte	.LASF501
 14563 1f62 01       		.byte	0x1
 14564 1f63 E505     		.2byte	0x5e5
 14565 1f65 00000000 		.4byte	.LFB86
 14566 1f69 B0010000 		.4byte	.LFE86-.LFB86
 14567 1f6d 01       		.uleb128 0x1
 14568 1f6e 9C       		.byte	0x9c
 14569 1f6f 09200000 		.4byte	0x2009
 14570 1f73 2C       		.uleb128 0x2c
 14571 1f74 61220000 		.4byte	.LASF466
 14572 1f78 01       		.byte	0x1
 14573 1f79 E505     		.2byte	0x5e5
 14574 1f7b 11010000 		.4byte	0x111
 14575 1f7f 02       		.uleb128 0x2
 14576 1f80 91       		.byte	0x91
 14577 1f81 5C       		.sleb128 -36
 14578 1f82 2A       		.uleb128 0x2a
 14579 1f83 34000000 		.4byte	.LASF480
 14580 1f87 01       		.byte	0x1
ARM GAS  C:\Users\RECEPC~1\AppData\Local\Temp\ccZZcwiB.s 			page 306


 14581 1f88 E705     		.2byte	0x5e7
 14582 1f8a FE0C0000 		.4byte	0xcfe
 14583 1f8e 02       		.uleb128 0x2
 14584 1f8f 91       		.byte	0x91
 14585 1f90 68       		.sleb128 -24
 14586 1f91 26       		.uleb128 0x26
 14587 1f92 14000000 		.4byte	.LBB44
 14588 1f96 92010000 		.4byte	.LBE44-.LBB44
 14589 1f9a 2A       		.uleb128 0x2a
 14590 1f9b 7A240000 		.4byte	.LASF481
 14591 1f9f 01       		.byte	0x1
 14592 1fa0 EA05     		.2byte	0x5ea
 14593 1fa2 81000000 		.4byte	0x81
 14594 1fa6 02       		.uleb128 0x2
 14595 1fa7 91       		.byte	0x91
 14596 1fa8 6F       		.sleb128 -17
 14597 1fa9 2A       		.uleb128 0x2a
 14598 1faa 330C0000 		.4byte	.LASF482
 14599 1fae 01       		.byte	0x1
 14600 1faf EC05     		.2byte	0x5ec
 14601 1fb1 74050000 		.4byte	0x574
 14602 1fb5 02       		.uleb128 0x2
 14603 1fb6 91       		.byte	0x91
 14604 1fb7 64       		.sleb128 -28
 14605 1fb8 26       		.uleb128 0x26
 14606 1fb9 3A000000 		.4byte	.LBB45
 14607 1fbd 6C010000 		.4byte	.LBE45-.LBB45
 14608 1fc1 28       		.uleb128 0x28
 14609 1fc2 70747200 		.ascii	"ptr\000"
 14610 1fc6 01       		.byte	0x1
 14611 1fc7 0106     		.2byte	0x601
 14612 1fc9 3B010000 		.4byte	0x13b
 14613 1fcd 02       		.uleb128 0x2
 14614 1fce 91       		.byte	0x91
 14615 1fcf 60       		.sleb128 -32
 14616 1fd0 29       		.uleb128 0x29
 14617 1fd1 EC000000 		.4byte	.LBB46
 14618 1fd5 34000000 		.4byte	.LBE46-.LBB46
 14619 1fd9 ED1F0000 		.4byte	0x1fed
 14620 1fdd 2A       		.uleb128 0x2a
 14621 1fde 5C150000 		.4byte	.LASF491
 14622 1fe2 01       		.byte	0x1
 14623 1fe3 0506     		.2byte	0x605
 14624 1fe5 97000000 		.4byte	0x97
 14625 1fe9 02       		.uleb128 0x2
 14626 1fea 91       		.byte	0x91
 14627 1feb 6E       		.sleb128 -18
 14628 1fec 00       		.byte	0
 14629 1fed 26       		.uleb128 0x26
 14630 1fee 22010000 		.4byte	.LBB47
 14631 1ff2 34000000 		.4byte	.LBE47-.LBB47
 14632 1ff6 2A       		.uleb128 0x2a
 14633 1ff7 5C150000 		.4byte	.LASF491
 14634 1ffb 01       		.byte	0x1
 14635 1ffc 0A06     		.2byte	0x60a
 14636 1ffe 97000000 		.4byte	0x97
 14637 2002 02       		.uleb128 0x2
ARM GAS  C:\Users\RECEPC~1\AppData\Local\Temp\ccZZcwiB.s 			page 307


 14638 2003 91       		.byte	0x91
 14639 2004 6D       		.sleb128 -19
 14640 2005 00       		.byte	0
 14641 2006 00       		.byte	0
 14642 2007 00       		.byte	0
 14643 2008 00       		.byte	0
 14644 2009 2B       		.uleb128 0x2b
 14645 200a 3C200000 		.4byte	.LASF502
 14646 200e 01       		.byte	0x1
 14647 200f 1C06     		.2byte	0x61c
 14648 2011 00000000 		.4byte	.LFB87
 14649 2015 3C020000 		.4byte	.LFE87-.LFB87
 14650 2019 01       		.uleb128 0x1
 14651 201a 9C       		.byte	0x9c
 14652 201b C4200000 		.4byte	0x20c4
 14653 201f 2C       		.uleb128 0x2c
 14654 2020 61220000 		.4byte	.LASF466
 14655 2024 01       		.byte	0x1
 14656 2025 1C06     		.2byte	0x61c
 14657 2027 11010000 		.4byte	0x111
 14658 202b 02       		.uleb128 0x2
 14659 202c 91       		.byte	0x91
 14660 202d 54       		.sleb128 -44
 14661 202e 2A       		.uleb128 0x2a
 14662 202f 34000000 		.4byte	.LASF480
 14663 2033 01       		.byte	0x1
 14664 2034 1E06     		.2byte	0x61e
 14665 2036 FE0C0000 		.4byte	0xcfe
 14666 203a 02       		.uleb128 0x2
 14667 203b 91       		.byte	0x91
 14668 203c 68       		.sleb128 -24
 14669 203d 26       		.uleb128 0x26
 14670 203e 14000000 		.4byte	.LBB48
 14671 2042 1E020000 		.4byte	.LBE48-.LBB48
 14672 2046 2A       		.uleb128 0x2a
 14673 2047 7A240000 		.4byte	.LASF481
 14674 204b 01       		.byte	0x1
 14675 204c 2106     		.2byte	0x621
 14676 204e 81000000 		.4byte	0x81
 14677 2052 02       		.uleb128 0x2
 14678 2053 91       		.byte	0x91
 14679 2054 6F       		.sleb128 -17
 14680 2055 2A       		.uleb128 0x2a
 14681 2056 330C0000 		.4byte	.LASF482
 14682 205a 01       		.byte	0x1
 14683 205b 2306     		.2byte	0x623
 14684 205d 74050000 		.4byte	0x574
 14685 2061 02       		.uleb128 0x2
 14686 2062 91       		.byte	0x91
 14687 2063 64       		.sleb128 -28
 14688 2064 26       		.uleb128 0x26
 14689 2065 3A000000 		.4byte	.LBB49
 14690 2069 F2010000 		.4byte	.LBE49-.LBB49
 14691 206d 2A       		.uleb128 0x2a
 14692 206e 620C0000 		.4byte	.LASF471
 14693 2072 01       		.byte	0x1
 14694 2073 3706     		.2byte	0x637
ARM GAS  C:\Users\RECEPC~1\AppData\Local\Temp\ccZZcwiB.s 			page 308


 14695 2075 A3000000 		.4byte	0xa3
 14696 2079 02       		.uleb128 0x2
 14697 207a 91       		.byte	0x91
 14698 207b 62       		.sleb128 -30
 14699 207c 28       		.uleb128 0x28
 14700 207d 70747200 		.ascii	"ptr\000"
 14701 2081 01       		.byte	0x1
 14702 2082 4E06     		.2byte	0x64e
 14703 2084 3B010000 		.4byte	0x13b
 14704 2088 02       		.uleb128 0x2
 14705 2089 91       		.byte	0x91
 14706 208a 5C       		.sleb128 -36
 14707 208b 29       		.uleb128 0x29
 14708 208c 78010000 		.4byte	.LBB50
 14709 2090 34000000 		.4byte	.LBE50-.LBB50
 14710 2094 A8200000 		.4byte	0x20a8
 14711 2098 2A       		.uleb128 0x2a
 14712 2099 5C150000 		.4byte	.LASF491
 14713 209d 01       		.byte	0x1
 14714 209e 5206     		.2byte	0x652
 14715 20a0 97000000 		.4byte	0x97
 14716 20a4 02       		.uleb128 0x2
 14717 20a5 91       		.byte	0x91
 14718 20a6 6E       		.sleb128 -18
 14719 20a7 00       		.byte	0
 14720 20a8 26       		.uleb128 0x26
 14721 20a9 AE010000 		.4byte	.LBB51
 14722 20ad 34000000 		.4byte	.LBE51-.LBB51
 14723 20b1 2A       		.uleb128 0x2a
 14724 20b2 5C150000 		.4byte	.LASF491
 14725 20b6 01       		.byte	0x1
 14726 20b7 5706     		.2byte	0x657
 14727 20b9 97000000 		.4byte	0x97
 14728 20bd 02       		.uleb128 0x2
 14729 20be 91       		.byte	0x91
 14730 20bf 6D       		.sleb128 -19
 14731 20c0 00       		.byte	0
 14732 20c1 00       		.byte	0
 14733 20c2 00       		.byte	0
 14734 20c3 00       		.byte	0
 14735 20c4 2B       		.uleb128 0x2b
 14736 20c5 F4020000 		.4byte	.LASF503
 14737 20c9 01       		.byte	0x1
 14738 20ca 6D06     		.2byte	0x66d
 14739 20cc 00000000 		.4byte	.LFB88
 14740 20d0 6A000000 		.4byte	.LFE88-.LFB88
 14741 20d4 01       		.uleb128 0x1
 14742 20d5 9C       		.byte	0x9c
 14743 20d6 21210000 		.4byte	0x2121
 14744 20da 2C       		.uleb128 0x2c
 14745 20db 61220000 		.4byte	.LASF466
 14746 20df 01       		.byte	0x1
 14747 20e0 6D06     		.2byte	0x66d
 14748 20e2 11010000 		.4byte	0x111
 14749 20e6 02       		.uleb128 0x2
 14750 20e7 91       		.byte	0x91
 14751 20e8 64       		.sleb128 -28
ARM GAS  C:\Users\RECEPC~1\AppData\Local\Temp\ccZZcwiB.s 			page 309


 14752 20e9 2A       		.uleb128 0x2a
 14753 20ea 34000000 		.4byte	.LASF480
 14754 20ee 01       		.byte	0x1
 14755 20ef 6F06     		.2byte	0x66f
 14756 20f1 FE0C0000 		.4byte	0xcfe
 14757 20f5 02       		.uleb128 0x2
 14758 20f6 91       		.byte	0x91
 14759 20f7 74       		.sleb128 -12
 14760 20f8 26       		.uleb128 0x26
 14761 20f9 12000000 		.4byte	.LBB52
 14762 20fd 52000000 		.4byte	.LBE52-.LBB52
 14763 2101 2A       		.uleb128 0x2a
 14764 2102 7A240000 		.4byte	.LASF481
 14765 2106 01       		.byte	0x1
 14766 2107 7206     		.2byte	0x672
 14767 2109 81000000 		.4byte	0x81
 14768 210d 02       		.uleb128 0x2
 14769 210e 91       		.byte	0x91
 14770 210f 73       		.sleb128 -13
 14771 2110 2A       		.uleb128 0x2a
 14772 2111 330C0000 		.4byte	.LASF482
 14773 2115 01       		.byte	0x1
 14774 2116 7406     		.2byte	0x674
 14775 2118 74050000 		.4byte	0x574
 14776 211c 02       		.uleb128 0x2
 14777 211d 91       		.byte	0x91
 14778 211e 6C       		.sleb128 -20
 14779 211f 00       		.byte	0
 14780 2120 00       		.byte	0
 14781 2121 2B       		.uleb128 0x2b
 14782 2122 AB130000 		.4byte	.LASF504
 14783 2126 01       		.byte	0x1
 14784 2127 8106     		.2byte	0x681
 14785 2129 00000000 		.4byte	.LFB89
 14786 212d 60000000 		.4byte	.LFE89-.LFB89
 14787 2131 01       		.uleb128 0x1
 14788 2132 9C       		.byte	0x9c
 14789 2133 7E210000 		.4byte	0x217e
 14790 2137 2C       		.uleb128 0x2c
 14791 2138 61220000 		.4byte	.LASF466
 14792 213c 01       		.byte	0x1
 14793 213d 8106     		.2byte	0x681
 14794 213f 11010000 		.4byte	0x111
 14795 2143 02       		.uleb128 0x2
 14796 2144 91       		.byte	0x91
 14797 2145 64       		.sleb128 -28
 14798 2146 2A       		.uleb128 0x2a
 14799 2147 34000000 		.4byte	.LASF480
 14800 214b 01       		.byte	0x1
 14801 214c 8306     		.2byte	0x683
 14802 214e FE0C0000 		.4byte	0xcfe
 14803 2152 02       		.uleb128 0x2
 14804 2153 91       		.byte	0x91
 14805 2154 74       		.sleb128 -12
 14806 2155 26       		.uleb128 0x26
 14807 2156 12000000 		.4byte	.LBB53
 14808 215a 48000000 		.4byte	.LBE53-.LBB53
ARM GAS  C:\Users\RECEPC~1\AppData\Local\Temp\ccZZcwiB.s 			page 310


 14809 215e 2A       		.uleb128 0x2a
 14810 215f 7A240000 		.4byte	.LASF481
 14811 2163 01       		.byte	0x1
 14812 2164 8606     		.2byte	0x686
 14813 2166 81000000 		.4byte	0x81
 14814 216a 02       		.uleb128 0x2
 14815 216b 91       		.byte	0x91
 14816 216c 73       		.sleb128 -13
 14817 216d 2A       		.uleb128 0x2a
 14818 216e 330C0000 		.4byte	.LASF482
 14819 2172 01       		.byte	0x1
 14820 2173 8806     		.2byte	0x688
 14821 2175 74050000 		.4byte	0x574
 14822 2179 02       		.uleb128 0x2
 14823 217a 91       		.byte	0x91
 14824 217b 6C       		.sleb128 -20
 14825 217c 00       		.byte	0
 14826 217d 00       		.byte	0
 14827 217e 2B       		.uleb128 0x2b
 14828 217f 451A0000 		.4byte	.LASF505
 14829 2183 01       		.byte	0x1
 14830 2184 9506     		.2byte	0x695
 14831 2186 00000000 		.4byte	.LFB90
 14832 218a E6000000 		.4byte	.LFE90-.LFB90
 14833 218e 01       		.uleb128 0x1
 14834 218f 9C       		.byte	0x9c
 14835 2190 DB210000 		.4byte	0x21db
 14836 2194 2C       		.uleb128 0x2c
 14837 2195 61220000 		.4byte	.LASF466
 14838 2199 01       		.byte	0x1
 14839 219a 9506     		.2byte	0x695
 14840 219c 30010000 		.4byte	0x130
 14841 21a0 02       		.uleb128 0x2
 14842 21a1 91       		.byte	0x91
 14843 21a2 5C       		.sleb128 -36
 14844 21a3 2A       		.uleb128 0x2a
 14845 21a4 34000000 		.4byte	.LASF480
 14846 21a8 01       		.byte	0x1
 14847 21a9 9706     		.2byte	0x697
 14848 21ab FE0C0000 		.4byte	0xcfe
 14849 21af 02       		.uleb128 0x2
 14850 21b0 91       		.byte	0x91
 14851 21b1 6C       		.sleb128 -20
 14852 21b2 26       		.uleb128 0x26
 14853 21b3 12000000 		.4byte	.LBB54
 14854 21b7 CE000000 		.4byte	.LBE54-.LBB54
 14855 21bb 2A       		.uleb128 0x2a
 14856 21bc 7A240000 		.4byte	.LASF481
 14857 21c0 01       		.byte	0x1
 14858 21c1 9A06     		.2byte	0x69a
 14859 21c3 81000000 		.4byte	0x81
 14860 21c7 02       		.uleb128 0x2
 14861 21c8 91       		.byte	0x91
 14862 21c9 6B       		.sleb128 -21
 14863 21ca 2A       		.uleb128 0x2a
 14864 21cb 330C0000 		.4byte	.LASF482
 14865 21cf 01       		.byte	0x1
ARM GAS  C:\Users\RECEPC~1\AppData\Local\Temp\ccZZcwiB.s 			page 311


 14866 21d0 9C06     		.2byte	0x69c
 14867 21d2 74050000 		.4byte	0x574
 14868 21d6 02       		.uleb128 0x2
 14869 21d7 91       		.byte	0x91
 14870 21d8 64       		.sleb128 -28
 14871 21d9 00       		.byte	0
 14872 21da 00       		.byte	0
 14873 21db 2B       		.uleb128 0x2b
 14874 21dc D40E0000 		.4byte	.LASF506
 14875 21e0 01       		.byte	0x1
 14876 21e1 B406     		.2byte	0x6b4
 14877 21e3 00000000 		.4byte	.LFB91
 14878 21e7 54040000 		.4byte	.LFE91-.LFB91
 14879 21eb 01       		.uleb128 0x1
 14880 21ec 9C       		.byte	0x9c
 14881 21ed 9C220000 		.4byte	0x229c
 14882 21f1 2C       		.uleb128 0x2c
 14883 21f2 61220000 		.4byte	.LASF466
 14884 21f6 01       		.byte	0x1
 14885 21f7 B406     		.2byte	0x6b4
 14886 21f9 11010000 		.4byte	0x111
 14887 21fd 02       		.uleb128 0x2
 14888 21fe 91       		.byte	0x91
 14889 21ff 54       		.sleb128 -44
 14890 2200 2A       		.uleb128 0x2a
 14891 2201 2A1E0000 		.4byte	.LASF462
 14892 2205 01       		.byte	0x1
 14893 2206 B606     		.2byte	0x6b6
 14894 2208 460F0000 		.4byte	0xf46
 14895 220c 02       		.uleb128 0x2
 14896 220d 91       		.byte	0x91
 14897 220e 68       		.sleb128 -24
 14898 220f 26       		.uleb128 0x26
 14899 2210 14000000 		.4byte	.LBB55
 14900 2214 34040000 		.4byte	.LBE55-.LBB55
 14901 2218 2A       		.uleb128 0x2a
 14902 2219 7A240000 		.4byte	.LASF481
 14903 221d 01       		.byte	0x1
 14904 221e B906     		.2byte	0x6b9
 14905 2220 97000000 		.4byte	0x97
 14906 2224 02       		.uleb128 0x2
 14907 2225 91       		.byte	0x91
 14908 2226 67       		.sleb128 -25
 14909 2227 2A       		.uleb128 0x2a
 14910 2228 771B0000 		.4byte	.LASF507
 14911 222c 01       		.byte	0x1
 14912 222d BC06     		.2byte	0x6bc
 14913 222f 97000000 		.4byte	0x97
 14914 2233 02       		.uleb128 0x2
 14915 2234 91       		.byte	0x91
 14916 2235 66       		.sleb128 -26
 14917 2236 26       		.uleb128 0x26
 14918 2237 74000000 		.4byte	.LBB56
 14919 223b D4030000 		.4byte	.LBE56-.LBB56
 14920 223f 2A       		.uleb128 0x2a
 14921 2240 9F270000 		.4byte	.LASF508
 14922 2244 01       		.byte	0x1
ARM GAS  C:\Users\RECEPC~1\AppData\Local\Temp\ccZZcwiB.s 			page 312


 14923 2245 C206     		.2byte	0x6c2
 14924 2247 49020000 		.4byte	0x249
 14925 224b 02       		.uleb128 0x2
 14926 224c 91       		.byte	0x91
 14927 224d 6F       		.sleb128 -17
 14928 224e 2A       		.uleb128 0x2a
 14929 224f 7F210000 		.4byte	.LASF509
 14930 2253 01       		.byte	0x1
 14931 2254 C306     		.2byte	0x6c3
 14932 2256 A3000000 		.4byte	0xa3
 14933 225a 02       		.uleb128 0x2
 14934 225b 91       		.byte	0x91
 14935 225c 6C       		.sleb128 -20
 14936 225d 2A       		.uleb128 0x2a
 14937 225e FD170000 		.4byte	.LASF510
 14938 2262 01       		.byte	0x1
 14939 2263 E306     		.2byte	0x6e3
 14940 2265 57070000 		.4byte	0x757
 14941 2269 02       		.uleb128 0x2
 14942 226a 91       		.byte	0x91
 14943 226b 60       		.sleb128 -32
 14944 226c 2A       		.uleb128 0x2a
 14945 226d C21A0000 		.4byte	.LASF511
 14946 2271 01       		.byte	0x1
 14947 2272 E506     		.2byte	0x6e5
 14948 2274 97000000 		.4byte	0x97
 14949 2278 02       		.uleb128 0x2
 14950 2279 91       		.byte	0x91
 14951 227a 5F       		.sleb128 -33
 14952 227b 2A       		.uleb128 0x2a
 14953 227c CD190000 		.4byte	.LASF512
 14954 2280 01       		.byte	0x1
 14955 2281 E606     		.2byte	0x6e6
 14956 2283 97000000 		.4byte	0x97
 14957 2287 02       		.uleb128 0x2
 14958 2288 91       		.byte	0x91
 14959 2289 5E       		.sleb128 -34
 14960 228a 2A       		.uleb128 0x2a
 14961 228b B5110000 		.4byte	.LASF513
 14962 228f 01       		.byte	0x1
 14963 2290 1D07     		.2byte	0x71d
 14964 2292 72020000 		.4byte	0x272
 14965 2296 02       		.uleb128 0x2
 14966 2297 91       		.byte	0x91
 14967 2298 58       		.sleb128 -40
 14968 2299 00       		.byte	0
 14969 229a 00       		.byte	0
 14970 229b 00       		.byte	0
 14971 229c 2D       		.uleb128 0x2d
 14972 229d 8D100000 		.4byte	.LASF514
 14973 22a1 01       		.byte	0x1
 14974 22a2 3407     		.2byte	0x734
 14975 22a4 00000000 		.4byte	.LFB92
 14976 22a8 C8040000 		.4byte	.LFE92-.LFB92
 14977 22ac 01       		.uleb128 0x1
 14978 22ad 9C       		.byte	0x9c
 14979 22ae D1220000 		.4byte	0x22d1
ARM GAS  C:\Users\RECEPC~1\AppData\Local\Temp\ccZZcwiB.s 			page 313


 14980 22b2 2C       		.uleb128 0x2c
 14981 22b3 61220000 		.4byte	.LASF466
 14982 22b7 01       		.byte	0x1
 14983 22b8 3407     		.2byte	0x734
 14984 22ba 30010000 		.4byte	0x130
 14985 22be 02       		.uleb128 0x2
 14986 22bf 91       		.byte	0x91
 14987 22c0 6C       		.sleb128 -20
 14988 22c1 2A       		.uleb128 0x2a
 14989 22c2 AC160000 		.4byte	.LASF515
 14990 22c6 01       		.byte	0x1
 14991 22c7 3607     		.2byte	0x736
 14992 22c9 57070000 		.4byte	0x757
 14993 22cd 02       		.uleb128 0x2
 14994 22ce 91       		.byte	0x91
 14995 22cf 74       		.sleb128 -12
 14996 22d0 00       		.byte	0
 14997 22d1 2E       		.uleb128 0x2e
 14998 22d2 DD120000 		.4byte	.LASF524
 14999 22d6 01       		.byte	0x1
 15000 22d7 7908     		.2byte	0x879
 15001 22d9 49020000 		.4byte	0x249
 15002 22dd 00000000 		.4byte	.LFB93
 15003 22e1 28010000 		.4byte	.LFE93-.LFB93
 15004 22e5 01       		.uleb128 0x1
 15005 22e6 9C       		.byte	0x9c
 15006 22e7 7B230000 		.4byte	0x237b
 15007 22eb 2C       		.uleb128 0x2c
 15008 22ec 61220000 		.4byte	.LASF466
 15009 22f0 01       		.byte	0x1
 15010 22f1 7908     		.2byte	0x879
 15011 22f3 11010000 		.4byte	0x111
 15012 22f7 02       		.uleb128 0x2
 15013 22f8 91       		.byte	0x91
 15014 22f9 5C       		.sleb128 -36
 15015 22fa 2C       		.uleb128 0x2c
 15016 22fb A30E0000 		.4byte	.LASF516
 15017 22ff 01       		.byte	0x1
 15018 2300 7908     		.2byte	0x879
 15019 2302 11010000 		.4byte	0x111
 15020 2306 02       		.uleb128 0x2
 15021 2307 91       		.byte	0x91
 15022 2308 58       		.sleb128 -40
 15023 2309 2C       		.uleb128 0x2c
 15024 230a 42190000 		.4byte	.LASF517
 15025 230e 01       		.byte	0x1
 15026 230f 7908     		.2byte	0x879
 15027 2311 A3000000 		.4byte	0xa3
 15028 2315 02       		.uleb128 0x2
 15029 2316 91       		.byte	0x91
 15030 2317 56       		.sleb128 -42
 15031 2318 2A       		.uleb128 0x2a
 15032 2319 05150000 		.4byte	.LASF518
 15033 231d 01       		.byte	0x1
 15034 231e 7B08     		.2byte	0x87b
 15035 2320 49020000 		.4byte	0x249
 15036 2324 02       		.uleb128 0x2
ARM GAS  C:\Users\RECEPC~1\AppData\Local\Temp\ccZZcwiB.s 			page 314


 15037 2325 91       		.byte	0x91
 15038 2326 6F       		.sleb128 -17
 15039 2327 2A       		.uleb128 0x2a
 15040 2328 7A240000 		.4byte	.LASF481
 15041 232c 01       		.byte	0x1
 15042 232d 7C08     		.2byte	0x87c
 15043 232f 97000000 		.4byte	0x97
 15044 2333 05       		.uleb128 0x5
 15045 2334 03       		.byte	0x3
 15046 2335 00000000 		.4byte	index.9600
 15047 2339 2A       		.uleb128 0x2a
 15048 233a 34000000 		.4byte	.LASF480
 15049 233e 01       		.byte	0x1
 15050 233f 7D08     		.2byte	0x87d
 15051 2341 FE0C0000 		.4byte	0xcfe
 15052 2345 02       		.uleb128 0x2
 15053 2346 91       		.byte	0x91
 15054 2347 68       		.sleb128 -24
 15055 2348 26       		.uleb128 0x26
 15056 2349 38000000 		.4byte	.LBB57
 15057 234d E2000000 		.4byte	.LBE57-.LBB57
 15058 2351 2A       		.uleb128 0x2a
 15059 2352 CD190000 		.4byte	.LASF512
 15060 2356 01       		.byte	0x1
 15061 2357 8408     		.2byte	0x884
 15062 2359 97000000 		.4byte	0x97
 15063 235d 02       		.uleb128 0x2
 15064 235e 91       		.byte	0x91
 15065 235f 67       		.sleb128 -25
 15066 2360 26       		.uleb128 0x26
 15067 2361 AA000000 		.4byte	.LBB58
 15068 2365 70000000 		.4byte	.LBE58-.LBB58
 15069 2369 2A       		.uleb128 0x2a
 15070 236a 771B0000 		.4byte	.LASF507
 15071 236e 01       		.byte	0x1
 15072 236f 8B08     		.2byte	0x88b
 15073 2371 97000000 		.4byte	0x97
 15074 2375 02       		.uleb128 0x2
 15075 2376 91       		.byte	0x91
 15076 2377 66       		.sleb128 -26
 15077 2378 00       		.byte	0
 15078 2379 00       		.byte	0
 15079 237a 00       		.byte	0
 15080 237b 2B       		.uleb128 0x2b
 15081 237c 5E080000 		.4byte	.LASF519
 15082 2380 01       		.byte	0x1
 15083 2381 9A08     		.2byte	0x89a
 15084 2383 00000000 		.4byte	.LFB94
 15085 2387 60000000 		.4byte	.LFE94-.LFB94
 15086 238b 01       		.uleb128 0x1
 15087 238c 9C       		.byte	0x9c
 15088 238d D8230000 		.4byte	0x23d8
 15089 2391 2C       		.uleb128 0x2c
 15090 2392 61220000 		.4byte	.LASF466
 15091 2396 01       		.byte	0x1
 15092 2397 9A08     		.2byte	0x89a
 15093 2399 30010000 		.4byte	0x130
ARM GAS  C:\Users\RECEPC~1\AppData\Local\Temp\ccZZcwiB.s 			page 315


 15094 239d 02       		.uleb128 0x2
 15095 239e 91       		.byte	0x91
 15096 239f 64       		.sleb128 -28
 15097 23a0 2A       		.uleb128 0x2a
 15098 23a1 34000000 		.4byte	.LASF480
 15099 23a5 01       		.byte	0x1
 15100 23a6 9C08     		.2byte	0x89c
 15101 23a8 FE0C0000 		.4byte	0xcfe
 15102 23ac 02       		.uleb128 0x2
 15103 23ad 91       		.byte	0x91
 15104 23ae 74       		.sleb128 -12
 15105 23af 26       		.uleb128 0x26
 15106 23b0 12000000 		.4byte	.LBB59
 15107 23b4 48000000 		.4byte	.LBE59-.LBB59
 15108 23b8 2A       		.uleb128 0x2a
 15109 23b9 7A240000 		.4byte	.LASF481
 15110 23bd 01       		.byte	0x1
 15111 23be 9F08     		.2byte	0x89f
 15112 23c0 81000000 		.4byte	0x81
 15113 23c4 02       		.uleb128 0x2
 15114 23c5 91       		.byte	0x91
 15115 23c6 73       		.sleb128 -13
 15116 23c7 2A       		.uleb128 0x2a
 15117 23c8 330C0000 		.4byte	.LASF482
 15118 23cc 01       		.byte	0x1
 15119 23cd A108     		.2byte	0x8a1
 15120 23cf 74050000 		.4byte	0x574
 15121 23d3 02       		.uleb128 0x2
 15122 23d4 91       		.byte	0x91
 15123 23d5 6C       		.sleb128 -20
 15124 23d6 00       		.byte	0
 15125 23d7 00       		.byte	0
 15126 23d8 2B       		.uleb128 0x2b
 15127 23d9 8A140000 		.4byte	.LASF520
 15128 23dd 01       		.byte	0x1
 15129 23de AD08     		.2byte	0x8ad
 15130 23e0 00000000 		.4byte	.LFB95
 15131 23e4 40020000 		.4byte	.LFE95-.LFB95
 15132 23e8 01       		.uleb128 0x1
 15133 23e9 9C       		.byte	0x9c
 15134 23ea 8D240000 		.4byte	0x248d
 15135 23ee 2C       		.uleb128 0x2c
 15136 23ef 61220000 		.4byte	.LASF466
 15137 23f3 01       		.byte	0x1
 15138 23f4 AD08     		.2byte	0x8ad
 15139 23f6 30010000 		.4byte	0x130
 15140 23fa 02       		.uleb128 0x2
 15141 23fb 91       		.byte	0x91
 15142 23fc 64       		.sleb128 -28
 15143 23fd 2A       		.uleb128 0x2a
 15144 23fe 2A1E0000 		.4byte	.LASF462
 15145 2402 01       		.byte	0x1
 15146 2403 B008     		.2byte	0x8b0
 15147 2405 460F0000 		.4byte	0xf46
 15148 2409 02       		.uleb128 0x2
 15149 240a 91       		.byte	0x91
 15150 240b 74       		.sleb128 -12
ARM GAS  C:\Users\RECEPC~1\AppData\Local\Temp\ccZZcwiB.s 			page 316


 15151 240c 29       		.uleb128 0x29
 15152 240d 48000000 		.4byte	.LBB60
 15153 2411 6C000000 		.4byte	.LBE60-.LBB60
 15154 2415 38240000 		.4byte	0x2438
 15155 2419 2A       		.uleb128 0x2a
 15156 241a 3E0E0000 		.4byte	.LASF521
 15157 241e 01       		.byte	0x1
 15158 241f BE08     		.2byte	0x8be
 15159 2421 97000000 		.4byte	0x97
 15160 2425 02       		.uleb128 0x2
 15161 2426 91       		.byte	0x91
 15162 2427 73       		.sleb128 -13
 15163 2428 2A       		.uleb128 0x2a
 15164 2429 960E0000 		.4byte	.LASF522
 15165 242d 01       		.byte	0x1
 15166 242e BF08     		.2byte	0x8bf
 15167 2430 97000000 		.4byte	0x97
 15168 2434 02       		.uleb128 0x2
 15169 2435 91       		.byte	0x91
 15170 2436 72       		.sleb128 -14
 15171 2437 00       		.byte	0
 15172 2438 29       		.uleb128 0x29
 15173 2439 B4000000 		.4byte	.LBB61
 15174 243d 6C000000 		.4byte	.LBE61-.LBB61
 15175 2441 64240000 		.4byte	0x2464
 15176 2445 2A       		.uleb128 0x2a
 15177 2446 3E0E0000 		.4byte	.LASF521
 15178 244a 01       		.byte	0x1
 15179 244b D008     		.2byte	0x8d0
 15180 244d 97000000 		.4byte	0x97
 15181 2451 02       		.uleb128 0x2
 15182 2452 91       		.byte	0x91
 15183 2453 71       		.sleb128 -15
 15184 2454 2A       		.uleb128 0x2a
 15185 2455 960E0000 		.4byte	.LASF522
 15186 2459 01       		.byte	0x1
 15187 245a D108     		.2byte	0x8d1
 15188 245c 97000000 		.4byte	0x97
 15189 2460 02       		.uleb128 0x2
 15190 2461 91       		.byte	0x91
 15191 2462 70       		.sleb128 -16
 15192 2463 00       		.byte	0
 15193 2464 26       		.uleb128 0x26
 15194 2465 20010000 		.4byte	.LBB62
 15195 2469 6C000000 		.4byte	.LBE62-.LBB62
 15196 246d 2A       		.uleb128 0x2a
 15197 246e 3E0E0000 		.4byte	.LASF521
 15198 2472 01       		.byte	0x1
 15199 2473 E208     		.2byte	0x8e2
 15200 2475 97000000 		.4byte	0x97
 15201 2479 02       		.uleb128 0x2
 15202 247a 91       		.byte	0x91
 15203 247b 6F       		.sleb128 -17
 15204 247c 2A       		.uleb128 0x2a
 15205 247d 960E0000 		.4byte	.LASF522
 15206 2481 01       		.byte	0x1
 15207 2482 E308     		.2byte	0x8e3
ARM GAS  C:\Users\RECEPC~1\AppData\Local\Temp\ccZZcwiB.s 			page 317


 15208 2484 97000000 		.4byte	0x97
 15209 2488 02       		.uleb128 0x2
 15210 2489 91       		.byte	0x91
 15211 248a 6E       		.sleb128 -18
 15212 248b 00       		.byte	0
 15213 248c 00       		.byte	0
 15214 248d 2D       		.uleb128 0x2d
 15215 248e 1D0C0000 		.4byte	.LASF523
 15216 2492 01       		.byte	0x1
 15217 2493 1009     		.2byte	0x910
 15218 2495 00000000 		.4byte	.LFB96
 15219 2499 6C000000 		.4byte	.LFE96-.LFB96
 15220 249d 01       		.uleb128 0x1
 15221 249e 9C       		.byte	0x9c
 15222 249f C2240000 		.4byte	0x24c2
 15223 24a3 2C       		.uleb128 0x2c
 15224 24a4 61220000 		.4byte	.LASF466
 15225 24a8 01       		.byte	0x1
 15226 24a9 1009     		.2byte	0x910
 15227 24ab 11010000 		.4byte	0x111
 15228 24af 02       		.uleb128 0x2
 15229 24b0 91       		.byte	0x91
 15230 24b1 6C       		.sleb128 -20
 15231 24b2 2A       		.uleb128 0x2a
 15232 24b3 2A1E0000 		.4byte	.LASF462
 15233 24b7 01       		.byte	0x1
 15234 24b8 1209     		.2byte	0x912
 15235 24ba 460F0000 		.4byte	0xf46
 15236 24be 02       		.uleb128 0x2
 15237 24bf 91       		.byte	0x91
 15238 24c0 74       		.sleb128 -12
 15239 24c1 00       		.byte	0
 15240 24c2 2F       		.uleb128 0x2f
 15241 24c3 17270000 		.4byte	.LASF525
 15242 24c7 01       		.byte	0x1
 15243 24c8 2309     		.2byte	0x923
 15244 24ca 49020000 		.4byte	0x249
 15245 24ce 00000000 		.4byte	.LFB97
 15246 24d2 5C010000 		.4byte	.LFE97-.LFB97
 15247 24d6 01       		.uleb128 0x1
 15248 24d7 9C       		.byte	0x9c
 15249 24d8 28250000 		.4byte	0x2528
 15250 24dc 2C       		.uleb128 0x2c
 15251 24dd 61220000 		.4byte	.LASF466
 15252 24e1 01       		.byte	0x1
 15253 24e2 2309     		.2byte	0x923
 15254 24e4 11010000 		.4byte	0x111
 15255 24e8 02       		.uleb128 0x2
 15256 24e9 91       		.byte	0x91
 15257 24ea 6C       		.sleb128 -20
 15258 24eb 2C       		.uleb128 0x2c
 15259 24ec A30E0000 		.4byte	.LASF516
 15260 24f0 01       		.byte	0x1
 15261 24f1 2309     		.2byte	0x923
 15262 24f3 11010000 		.4byte	0x111
 15263 24f7 02       		.uleb128 0x2
 15264 24f8 91       		.byte	0x91
ARM GAS  C:\Users\RECEPC~1\AppData\Local\Temp\ccZZcwiB.s 			page 318


 15265 24f9 68       		.sleb128 -24
 15266 24fa 2C       		.uleb128 0x2c
 15267 24fb 42190000 		.4byte	.LASF517
 15268 24ff 01       		.byte	0x1
 15269 2500 2309     		.2byte	0x923
 15270 2502 A3000000 		.4byte	0xa3
 15271 2506 02       		.uleb128 0x2
 15272 2507 91       		.byte	0x91
 15273 2508 66       		.sleb128 -26
 15274 2509 2A       		.uleb128 0x2a
 15275 250a 05150000 		.4byte	.LASF518
 15276 250e 01       		.byte	0x1
 15277 250f 2509     		.2byte	0x925
 15278 2511 49020000 		.4byte	0x249
 15279 2515 02       		.uleb128 0x2
 15280 2516 91       		.byte	0x91
 15281 2517 77       		.sleb128 -9
 15282 2518 2A       		.uleb128 0x2a
 15283 2519 34000000 		.4byte	.LASF480
 15284 251d 01       		.byte	0x1
 15285 251e 2609     		.2byte	0x926
 15286 2520 FE0C0000 		.4byte	0xcfe
 15287 2524 02       		.uleb128 0x2
 15288 2525 91       		.byte	0x91
 15289 2526 70       		.sleb128 -16
 15290 2527 00       		.byte	0
 15291 2528 2F       		.uleb128 0x2f
 15292 2529 F51F0000 		.4byte	.LASF526
 15293 252d 01       		.byte	0x1
 15294 252e 5209     		.2byte	0x952
 15295 2530 49020000 		.4byte	0x249
 15296 2534 00000000 		.4byte	.LFB98
 15297 2538 4C000000 		.4byte	.LFE98-.LFB98
 15298 253c 01       		.uleb128 0x1
 15299 253d 9C       		.byte	0x9c
 15300 253e 8E250000 		.4byte	0x258e
 15301 2542 2C       		.uleb128 0x2c
 15302 2543 61220000 		.4byte	.LASF466
 15303 2547 01       		.byte	0x1
 15304 2548 5209     		.2byte	0x952
 15305 254a 11010000 		.4byte	0x111
 15306 254e 02       		.uleb128 0x2
 15307 254f 91       		.byte	0x91
 15308 2550 6C       		.sleb128 -20
 15309 2551 2C       		.uleb128 0x2c
 15310 2552 A30E0000 		.4byte	.LASF516
 15311 2556 01       		.byte	0x1
 15312 2557 5209     		.2byte	0x952
 15313 2559 11010000 		.4byte	0x111
 15314 255d 02       		.uleb128 0x2
 15315 255e 91       		.byte	0x91
 15316 255f 68       		.sleb128 -24
 15317 2560 2C       		.uleb128 0x2c
 15318 2561 42190000 		.4byte	.LASF517
 15319 2565 01       		.byte	0x1
 15320 2566 5209     		.2byte	0x952
 15321 2568 A3000000 		.4byte	0xa3
ARM GAS  C:\Users\RECEPC~1\AppData\Local\Temp\ccZZcwiB.s 			page 319


 15322 256c 02       		.uleb128 0x2
 15323 256d 91       		.byte	0x91
 15324 256e 66       		.sleb128 -26
 15325 256f 2A       		.uleb128 0x2a
 15326 2570 05150000 		.4byte	.LASF518
 15327 2574 01       		.byte	0x1
 15328 2575 5409     		.2byte	0x954
 15329 2577 49020000 		.4byte	0x249
 15330 257b 02       		.uleb128 0x2
 15331 257c 91       		.byte	0x91
 15332 257d 77       		.sleb128 -9
 15333 257e 2A       		.uleb128 0x2a
 15334 257f 34000000 		.4byte	.LASF480
 15335 2583 01       		.byte	0x1
 15336 2584 5509     		.2byte	0x955
 15337 2586 FE0C0000 		.4byte	0xcfe
 15338 258a 02       		.uleb128 0x2
 15339 258b 91       		.byte	0x91
 15340 258c 70       		.sleb128 -16
 15341 258d 00       		.byte	0
 15342 258e 2D       		.uleb128 0x2d
 15343 258f 43150000 		.4byte	.LASF527
 15344 2593 01       		.byte	0x1
 15345 2594 6309     		.2byte	0x963
 15346 2596 00000000 		.4byte	.LFB99
 15347 259a 98000000 		.4byte	.LFE99-.LFB99
 15348 259e 01       		.uleb128 0x1
 15349 259f 9C       		.byte	0x9c
 15350 25a0 C3250000 		.4byte	0x25c3
 15351 25a4 2C       		.uleb128 0x2c
 15352 25a5 61220000 		.4byte	.LASF466
 15353 25a9 01       		.byte	0x1
 15354 25aa 6309     		.2byte	0x963
 15355 25ac 11010000 		.4byte	0x111
 15356 25b0 02       		.uleb128 0x2
 15357 25b1 91       		.byte	0x91
 15358 25b2 6C       		.sleb128 -20
 15359 25b3 2A       		.uleb128 0x2a
 15360 25b4 2A1E0000 		.4byte	.LASF462
 15361 25b8 01       		.byte	0x1
 15362 25b9 6509     		.2byte	0x965
 15363 25bb 460F0000 		.4byte	0xf46
 15364 25bf 02       		.uleb128 0x2
 15365 25c0 91       		.byte	0x91
 15366 25c1 74       		.sleb128 -12
 15367 25c2 00       		.byte	0
 15368 25c3 2B       		.uleb128 0x2b
 15369 25c4 34290000 		.4byte	.LASF528
 15370 25c8 01       		.byte	0x1
 15371 25c9 8009     		.2byte	0x980
 15372 25cb 00000000 		.4byte	.LFB100
 15373 25cf AC000000 		.4byte	.LFE100-.LFB100
 15374 25d3 01       		.uleb128 0x1
 15375 25d4 9C       		.byte	0x9c
 15376 25d5 39260000 		.4byte	0x2639
 15377 25d9 2C       		.uleb128 0x2c
 15378 25da 61220000 		.4byte	.LASF466
ARM GAS  C:\Users\RECEPC~1\AppData\Local\Temp\ccZZcwiB.s 			page 320


 15379 25de 01       		.byte	0x1
 15380 25df 8009     		.2byte	0x980
 15381 25e1 30010000 		.4byte	0x130
 15382 25e5 02       		.uleb128 0x2
 15383 25e6 91       		.byte	0x91
 15384 25e7 64       		.sleb128 -28
 15385 25e8 2A       		.uleb128 0x2a
 15386 25e9 34000000 		.4byte	.LASF480
 15387 25ed 01       		.byte	0x1
 15388 25ee 8209     		.2byte	0x982
 15389 25f0 FE0C0000 		.4byte	0xcfe
 15390 25f4 02       		.uleb128 0x2
 15391 25f5 91       		.byte	0x91
 15392 25f6 70       		.sleb128 -16
 15393 25f7 2A       		.uleb128 0x2a
 15394 25f8 B0240000 		.4byte	.LASF529
 15395 25fc 01       		.byte	0x1
 15396 25fd 8309     		.2byte	0x983
 15397 25ff 72020000 		.4byte	0x272
 15398 2603 02       		.uleb128 0x2
 15399 2604 91       		.byte	0x91
 15400 2605 6C       		.sleb128 -20
 15401 2606 26       		.uleb128 0x26
 15402 2607 16000000 		.4byte	.LBB63
 15403 260b 86000000 		.4byte	.LBE63-.LBB63
 15404 260f 2A       		.uleb128 0x2a
 15405 2610 5E110000 		.4byte	.LASF530
 15406 2614 01       		.byte	0x1
 15407 2615 8809     		.2byte	0x988
 15408 2617 2E0F0000 		.4byte	0xf2e
 15409 261b 02       		.uleb128 0x2
 15410 261c 91       		.byte	0x91
 15411 261d 74       		.sleb128 -12
 15412 261e 26       		.uleb128 0x26
 15413 261f 38000000 		.4byte	.LBB64
 15414 2623 5C000000 		.4byte	.LBE64-.LBB64
 15415 2627 2A       		.uleb128 0x2a
 15416 2628 ED0B0000 		.4byte	.LASF531
 15417 262c 01       		.byte	0x1
 15418 262d 8D09     		.2byte	0x98d
 15419 262f 460F0000 		.4byte	0xf46
 15420 2633 02       		.uleb128 0x2
 15421 2634 91       		.byte	0x91
 15422 2635 68       		.sleb128 -24
 15423 2636 00       		.byte	0
 15424 2637 00       		.byte	0
 15425 2638 00       		.byte	0
 15426 2639 2F       		.uleb128 0x2f
 15427 263a A4150000 		.4byte	.LASF532
 15428 263e 01       		.byte	0x1
 15429 263f A509     		.2byte	0x9a5
 15430 2641 81000000 		.4byte	0x81
 15431 2645 00000000 		.4byte	.LFB101
 15432 2649 5E000000 		.4byte	.LFE101-.LFB101
 15433 264d 01       		.uleb128 0x1
 15434 264e 9C       		.byte	0x9c
 15435 264f 72260000 		.4byte	0x2672
ARM GAS  C:\Users\RECEPC~1\AppData\Local\Temp\ccZZcwiB.s 			page 321


 15436 2653 2C       		.uleb128 0x2c
 15437 2654 AB0A0000 		.4byte	.LASF533
 15438 2658 01       		.byte	0x1
 15439 2659 A509     		.2byte	0x9a5
 15440 265b 3B010000 		.4byte	0x13b
 15441 265f 02       		.uleb128 0x2
 15442 2660 91       		.byte	0x91
 15443 2661 6C       		.sleb128 -20
 15444 2662 28       		.uleb128 0x28
 15445 2663 6C726300 		.ascii	"lrc\000"
 15446 2667 01       		.byte	0x1
 15447 2668 A709     		.2byte	0x9a7
 15448 266a 81000000 		.4byte	0x81
 15449 266e 02       		.uleb128 0x2
 15450 266f 91       		.byte	0x91
 15451 2670 77       		.sleb128 -9
 15452 2671 00       		.byte	0
 15453 2672 2F       		.uleb128 0x2f
 15454 2673 9C110000 		.4byte	.LASF534
 15455 2677 01       		.byte	0x1
 15456 2678 B109     		.2byte	0x9b1
 15457 267a 81000000 		.4byte	0x81
 15458 267e 00000000 		.4byte	.LFB102
 15459 2682 32000000 		.4byte	.LFE102-.LFB102
 15460 2686 01       		.uleb128 0x1
 15461 2687 9C       		.byte	0x9c
 15462 2688 AB260000 		.4byte	0x26ab
 15463 268c 2C       		.uleb128 0x2c
 15464 268d AB0A0000 		.4byte	.LASF533
 15465 2691 01       		.byte	0x1
 15466 2692 B109     		.2byte	0x9b1
 15467 2694 3B010000 		.4byte	0x13b
 15468 2698 02       		.uleb128 0x2
 15469 2699 91       		.byte	0x91
 15470 269a 6C       		.sleb128 -20
 15471 269b 28       		.uleb128 0x28
 15472 269c 6C726300 		.ascii	"lrc\000"
 15473 26a0 01       		.byte	0x1
 15474 26a1 B309     		.2byte	0x9b3
 15475 26a3 81000000 		.4byte	0x81
 15476 26a7 02       		.uleb128 0x2
 15477 26a8 91       		.byte	0x91
 15478 26a9 77       		.sleb128 -9
 15479 26aa 00       		.byte	0
 15480 26ab 2D       		.uleb128 0x2d
 15481 26ac 26130000 		.4byte	.LASF535
 15482 26b0 01       		.byte	0x1
 15483 26b1 BD09     		.2byte	0x9bd
 15484 26b3 00000000 		.4byte	.LFB103
 15485 26b7 2C000000 		.4byte	.LFE103-.LFB103
 15486 26bb 01       		.uleb128 0x1
 15487 26bc 9C       		.byte	0x9c
 15488 26bd E0260000 		.4byte	0x26e0
 15489 26c1 2C       		.uleb128 0x2c
 15490 26c2 61220000 		.4byte	.LASF466
 15491 26c6 01       		.byte	0x1
 15492 26c7 BD09     		.2byte	0x9bd
ARM GAS  C:\Users\RECEPC~1\AppData\Local\Temp\ccZZcwiB.s 			page 322


 15493 26c9 11010000 		.4byte	0x111
 15494 26cd 02       		.uleb128 0x2
 15495 26ce 91       		.byte	0x91
 15496 26cf 6C       		.sleb128 -20
 15497 26d0 2A       		.uleb128 0x2a
 15498 26d1 2A1E0000 		.4byte	.LASF462
 15499 26d5 01       		.byte	0x1
 15500 26d6 BF09     		.2byte	0x9bf
 15501 26d8 03100000 		.4byte	0x1003
 15502 26dc 02       		.uleb128 0x2
 15503 26dd 91       		.byte	0x91
 15504 26de 74       		.sleb128 -12
 15505 26df 00       		.byte	0
 15506 26e0 2D       		.uleb128 0x2d
 15507 26e1 3B050000 		.4byte	.LASF536
 15508 26e5 01       		.byte	0x1
 15509 26e6 C909     		.2byte	0x9c9
 15510 26e8 00000000 		.4byte	.LFB104
 15511 26ec 2C000000 		.4byte	.LFE104-.LFB104
 15512 26f0 01       		.uleb128 0x1
 15513 26f1 9C       		.byte	0x9c
 15514 26f2 15270000 		.4byte	0x2715
 15515 26f6 2C       		.uleb128 0x2c
 15516 26f7 61220000 		.4byte	.LASF466
 15517 26fb 01       		.byte	0x1
 15518 26fc C909     		.2byte	0x9c9
 15519 26fe 11010000 		.4byte	0x111
 15520 2702 02       		.uleb128 0x2
 15521 2703 91       		.byte	0x91
 15522 2704 6C       		.sleb128 -20
 15523 2705 2A       		.uleb128 0x2a
 15524 2706 2A1E0000 		.4byte	.LASF462
 15525 270a 01       		.byte	0x1
 15526 270b CB09     		.2byte	0x9cb
 15527 270d 460F0000 		.4byte	0xf46
 15528 2711 02       		.uleb128 0x2
 15529 2712 91       		.byte	0x91
 15530 2713 74       		.sleb128 -12
 15531 2714 00       		.byte	0
 15532 2715 2B       		.uleb128 0x2b
 15533 2716 63180000 		.4byte	.LASF537
 15534 271a 01       		.byte	0x1
 15535 271b D409     		.2byte	0x9d4
 15536 271d 00000000 		.4byte	.LFB105
 15537 2721 48020000 		.4byte	.LFE105-.LFB105
 15538 2725 01       		.uleb128 0x1
 15539 2726 9C       		.byte	0x9c
 15540 2727 63270000 		.4byte	0x2763
 15541 272b 2C       		.uleb128 0x2c
 15542 272c 61220000 		.4byte	.LASF466
 15543 2730 01       		.byte	0x1
 15544 2731 D409     		.2byte	0x9d4
 15545 2733 11010000 		.4byte	0x111
 15546 2737 02       		.uleb128 0x2
 15547 2738 91       		.byte	0x91
 15548 2739 64       		.sleb128 -28
 15549 273a 2A       		.uleb128 0x2a
ARM GAS  C:\Users\RECEPC~1\AppData\Local\Temp\ccZZcwiB.s 			page 323


 15550 273b 2A1E0000 		.4byte	.LASF462
 15551 273f 01       		.byte	0x1
 15552 2740 D609     		.2byte	0x9d6
 15553 2742 460F0000 		.4byte	0xf46
 15554 2746 02       		.uleb128 0x2
 15555 2747 91       		.byte	0x91
 15556 2748 6C       		.sleb128 -20
 15557 2749 26       		.uleb128 0x26
 15558 274a 3C000000 		.4byte	.LBB65
 15559 274e FA010000 		.4byte	.LBE65-.LBB65
 15560 2752 2A       		.uleb128 0x2a
 15561 2753 B5110000 		.4byte	.LASF513
 15562 2757 01       		.byte	0x1
 15563 2758 DF09     		.2byte	0x9df
 15564 275a 72020000 		.4byte	0x272
 15565 275e 02       		.uleb128 0x2
 15566 275f 91       		.byte	0x91
 15567 2760 68       		.sleb128 -24
 15568 2761 00       		.byte	0
 15569 2762 00       		.byte	0
 15570 2763 2D       		.uleb128 0x2d
 15571 2764 DB0C0000 		.4byte	.LASF538
 15572 2768 01       		.byte	0x1
 15573 2769 300A     		.2byte	0xa30
 15574 276b 00000000 		.4byte	.LFB106
 15575 276f 74010000 		.4byte	.LFE106-.LFB106
 15576 2773 01       		.uleb128 0x1
 15577 2774 9C       		.byte	0x9c
 15578 2775 D4270000 		.4byte	0x27d4
 15579 2779 2C       		.uleb128 0x2c
 15580 277a A30E0000 		.4byte	.LASF516
 15581 277e 01       		.byte	0x1
 15582 277f 300A     		.2byte	0xa30
 15583 2781 3B010000 		.4byte	0x13b
 15584 2785 02       		.uleb128 0x2
 15585 2786 91       		.byte	0x91
 15586 2787 6C       		.sleb128 -20
 15587 2788 2C       		.uleb128 0x2c
 15588 2789 42190000 		.4byte	.LASF517
 15589 278d 01       		.byte	0x1
 15590 278e 300A     		.2byte	0xa30
 15591 2790 97000000 		.4byte	0x97
 15592 2794 02       		.uleb128 0x2
 15593 2795 91       		.byte	0x91
 15594 2796 6B       		.sleb128 -21
 15595 2797 2A       		.uleb128 0x2a
 15596 2798 4D190000 		.4byte	.LASF539
 15597 279c 01       		.byte	0x1
 15598 279d 320A     		.2byte	0xa32
 15599 279f 97000000 		.4byte	0x97
 15600 27a3 02       		.uleb128 0x2
 15601 27a4 91       		.byte	0x91
 15602 27a5 77       		.sleb128 -9
 15603 27a6 2A       		.uleb128 0x2a
 15604 27a7 29100000 		.4byte	.LASF540
 15605 27ab 01       		.byte	0x1
 15606 27ac 330A     		.2byte	0xa33
ARM GAS  C:\Users\RECEPC~1\AppData\Local\Temp\ccZZcwiB.s 			page 324


 15607 27ae 49020000 		.4byte	0x249
 15608 27b2 02       		.uleb128 0x2
 15609 27b3 91       		.byte	0x91
 15610 27b4 76       		.sleb128 -10
 15611 27b5 2A       		.uleb128 0x2a
 15612 27b6 7A240000 		.4byte	.LASF481
 15613 27ba 01       		.byte	0x1
 15614 27bb 350A     		.2byte	0xa35
 15615 27bd BB000000 		.4byte	0xbb
 15616 27c1 02       		.uleb128 0x2
 15617 27c2 91       		.byte	0x91
 15618 27c3 75       		.sleb128 -11
 15619 27c4 2A       		.uleb128 0x2a
 15620 27c5 BD120000 		.4byte	.LASF541
 15621 27c9 01       		.byte	0x1
 15622 27ca 450A     		.2byte	0xa45
 15623 27cc BB000000 		.4byte	0xbb
 15624 27d0 02       		.uleb128 0x2
 15625 27d1 91       		.byte	0x91
 15626 27d2 74       		.sleb128 -12
 15627 27d3 00       		.byte	0
 15628 27d4 2D       		.uleb128 0x2d
 15629 27d5 7C250000 		.4byte	.LASF542
 15630 27d9 01       		.byte	0x1
 15631 27da 680A     		.2byte	0xa68
 15632 27dc 00000000 		.4byte	.LFB107
 15633 27e0 64010000 		.4byte	.LFE107-.LFB107
 15634 27e4 01       		.uleb128 0x1
 15635 27e5 9C       		.byte	0x9c
 15636 27e6 45280000 		.4byte	0x2845
 15637 27ea 2C       		.uleb128 0x2c
 15638 27eb A30E0000 		.4byte	.LASF516
 15639 27ef 01       		.byte	0x1
 15640 27f0 680A     		.2byte	0xa68
 15641 27f2 3B010000 		.4byte	0x13b
 15642 27f6 02       		.uleb128 0x2
 15643 27f7 91       		.byte	0x91
 15644 27f8 6C       		.sleb128 -20
 15645 27f9 2C       		.uleb128 0x2c
 15646 27fa 42190000 		.4byte	.LASF517
 15647 27fe 01       		.byte	0x1
 15648 27ff 680A     		.2byte	0xa68
 15649 2801 97000000 		.4byte	0x97
 15650 2805 02       		.uleb128 0x2
 15651 2806 91       		.byte	0x91
 15652 2807 6B       		.sleb128 -21
 15653 2808 2A       		.uleb128 0x2a
 15654 2809 4D190000 		.4byte	.LASF539
 15655 280d 01       		.byte	0x1
 15656 280e 6A0A     		.2byte	0xa6a
 15657 2810 97000000 		.4byte	0x97
 15658 2814 02       		.uleb128 0x2
 15659 2815 91       		.byte	0x91
 15660 2816 77       		.sleb128 -9
 15661 2817 2A       		.uleb128 0x2a
 15662 2818 29100000 		.4byte	.LASF540
 15663 281c 01       		.byte	0x1
ARM GAS  C:\Users\RECEPC~1\AppData\Local\Temp\ccZZcwiB.s 			page 325


 15664 281d 6B0A     		.2byte	0xa6b
 15665 281f 49020000 		.4byte	0x249
 15666 2823 02       		.uleb128 0x2
 15667 2824 91       		.byte	0x91
 15668 2825 76       		.sleb128 -10
 15669 2826 2A       		.uleb128 0x2a
 15670 2827 7A240000 		.4byte	.LASF481
 15671 282b 01       		.byte	0x1
 15672 282c 6D0A     		.2byte	0xa6d
 15673 282e BB000000 		.4byte	0xbb
 15674 2832 02       		.uleb128 0x2
 15675 2833 91       		.byte	0x91
 15676 2834 75       		.sleb128 -11
 15677 2835 2A       		.uleb128 0x2a
 15678 2836 BD120000 		.4byte	.LASF541
 15679 283a 01       		.byte	0x1
 15680 283b 7D0A     		.2byte	0xa7d
 15681 283d BB000000 		.4byte	0xbb
 15682 2841 02       		.uleb128 0x2
 15683 2842 91       		.byte	0x91
 15684 2843 74       		.sleb128 -12
 15685 2844 00       		.byte	0
 15686 2845 2F       		.uleb128 0x2f
 15687 2846 8D230000 		.4byte	.LASF543
 15688 284a 01       		.byte	0x1
 15689 284b A60A     		.2byte	0xaa6
 15690 284d E1000000 		.4byte	0xe1
 15691 2851 00000000 		.4byte	.LFB108
 15692 2855 48000000 		.4byte	.LFE108-.LFB108
 15693 2859 01       		.uleb128 0x1
 15694 285a 9C       		.byte	0x9c
 15695 285b 8D280000 		.4byte	0x288d
 15696 285f 2C       		.uleb128 0x2c
 15697 2860 FB250000 		.4byte	.LASF544
 15698 2864 01       		.byte	0x1
 15699 2865 A60A     		.2byte	0xaa6
 15700 2867 E1000000 		.4byte	0xe1
 15701 286b 02       		.uleb128 0x2
 15702 286c 91       		.byte	0x91
 15703 286d 6F       		.sleb128 -17
 15704 286e 2A       		.uleb128 0x2a
 15705 286f 05150000 		.4byte	.LASF518
 15706 2873 01       		.byte	0x1
 15707 2874 A80A     		.2byte	0xaa8
 15708 2876 E1000000 		.4byte	0xe1
 15709 287a 02       		.uleb128 0x2
 15710 287b 91       		.byte	0x91
 15711 287c 77       		.sleb128 -9
 15712 287d 2A       		.uleb128 0x2a
 15713 287e 741A0000 		.4byte	.LASF545
 15714 2882 01       		.byte	0x1
 15715 2883 A90A     		.2byte	0xaa9
 15716 2885 4C070000 		.4byte	0x74c
 15717 2889 02       		.uleb128 0x2
 15718 288a 91       		.byte	0x91
 15719 288b 70       		.sleb128 -16
 15720 288c 00       		.byte	0
ARM GAS  C:\Users\RECEPC~1\AppData\Local\Temp\ccZZcwiB.s 			page 326


 15721 288d 30       		.uleb128 0x30
 15722 288e E0170000 		.4byte	.LASF546
 15723 2892 0F       		.byte	0xf
 15724 2893 5506     		.2byte	0x655
 15725 2895 99280000 		.4byte	0x2899
 15726 2899 06       		.uleb128 0x6
 15727 289a 8C000000 		.4byte	0x8c
 15728 289e 30       		.uleb128 0x30
 15729 289f 79050000 		.4byte	.LASF547
 15730 28a3 0A       		.byte	0xa
 15731 28a4 4B02     		.2byte	0x24b
 15732 28a6 34100000 		.4byte	0x1034
 15733 28aa 0A       		.uleb128 0xa
 15734 28ab F20C0000 		.4byte	0xcf2
 15735 28af BA280000 		.4byte	0x28ba
 15736 28b3 0B       		.uleb128 0xb
 15737 28b4 0A010000 		.4byte	0x10a
 15738 28b8 03       		.byte	0x3
 15739 28b9 00       		.byte	0
 15740 28ba 30       		.uleb128 0x30
 15741 28bb A4110000 		.4byte	.LASF548
 15742 28bf 0A       		.byte	0xa
 15743 28c0 4C02     		.2byte	0x24c
 15744 28c2 AA280000 		.4byte	0x28aa
 15745 28c6 30       		.uleb128 0x30
 15746 28c7 C2020000 		.4byte	.LASF549
 15747 28cb 0A       		.byte	0xa
 15748 28cc 4E02     		.2byte	0x24e
 15749 28ce 2A110000 		.4byte	0x112a
 15750 28d2 31       		.uleb128 0x31
 15751 28d3 BF1F0000 		.4byte	.LASF550
 15752 28d7 0D       		.byte	0xd
 15753 28d8 BE       		.byte	0xbe
 15754 28d9 06140000 		.4byte	0x1406
 15755 28dd 31       		.uleb128 0x31
 15756 28de 9E1F0000 		.4byte	.LASF551
 15757 28e2 0E       		.byte	0xe
 15758 28e3 74       		.byte	0x74
 15759 28e4 32140000 		.4byte	0x1432
 15760 28e8 31       		.uleb128 0x31
 15761 28e9 80180000 		.4byte	.LASF552
 15762 28ed 01       		.byte	0x1
 15763 28ee 25       		.byte	0x25
 15764 28ef 36110000 		.4byte	0x1136
 15765 28f3 0A       		.uleb128 0xa
 15766 28f4 E1000000 		.4byte	0xe1
 15767 28f8 09290000 		.4byte	0x2909
 15768 28fc 0B       		.uleb128 0xb
 15769 28fd 0A010000 		.4byte	0x10a
 15770 2901 0F       		.byte	0xf
 15771 2902 0B       		.uleb128 0xb
 15772 2903 0A010000 		.4byte	0x10a
 15773 2907 01       		.byte	0x1
 15774 2908 00       		.byte	0
 15775 2909 32       		.uleb128 0x32
 15776 290a B8180000 		.4byte	.LASF553
 15777 290e 01       		.byte	0x1
ARM GAS  C:\Users\RECEPC~1\AppData\Local\Temp\ccZZcwiB.s 			page 327


 15778 290f 9E0A     		.2byte	0xa9e
 15779 2911 F3280000 		.4byte	0x28f3
 15780 2915 05       		.uleb128 0x5
 15781 2916 03       		.byte	0x3
 15782 2917 00000000 		.4byte	_g_sfcharmap
 15783 291b 00       		.byte	0
 15784              		.section	.debug_abbrev,"",%progbits
 15785              	.Ldebug_abbrev0:
 15786 0000 01       		.uleb128 0x1
 15787 0001 11       		.uleb128 0x11
 15788 0002 01       		.byte	0x1
 15789 0003 25       		.uleb128 0x25
 15790 0004 0E       		.uleb128 0xe
 15791 0005 13       		.uleb128 0x13
 15792 0006 0B       		.uleb128 0xb
 15793 0007 03       		.uleb128 0x3
 15794 0008 0E       		.uleb128 0xe
 15795 0009 1B       		.uleb128 0x1b
 15796 000a 0E       		.uleb128 0xe
 15797 000b 55       		.uleb128 0x55
 15798 000c 17       		.uleb128 0x17
 15799 000d 11       		.uleb128 0x11
 15800 000e 01       		.uleb128 0x1
 15801 000f 10       		.uleb128 0x10
 15802 0010 17       		.uleb128 0x17
 15803 0011 00       		.byte	0
 15804 0012 00       		.byte	0
 15805 0013 02       		.uleb128 0x2
 15806 0014 24       		.uleb128 0x24
 15807 0015 00       		.byte	0
 15808 0016 0B       		.uleb128 0xb
 15809 0017 0B       		.uleb128 0xb
 15810 0018 3E       		.uleb128 0x3e
 15811 0019 0B       		.uleb128 0xb
 15812 001a 03       		.uleb128 0x3
 15813 001b 0E       		.uleb128 0xe
 15814 001c 00       		.byte	0
 15815 001d 00       		.byte	0
 15816 001e 03       		.uleb128 0x3
 15817 001f 16       		.uleb128 0x16
 15818 0020 00       		.byte	0
 15819 0021 03       		.uleb128 0x3
 15820 0022 0E       		.uleb128 0xe
 15821 0023 3A       		.uleb128 0x3a
 15822 0024 0B       		.uleb128 0xb
 15823 0025 3B       		.uleb128 0x3b
 15824 0026 0B       		.uleb128 0xb
 15825 0027 49       		.uleb128 0x49
 15826 0028 13       		.uleb128 0x13
 15827 0029 00       		.byte	0
 15828 002a 00       		.byte	0
 15829 002b 04       		.uleb128 0x4
 15830 002c 24       		.uleb128 0x24
 15831 002d 00       		.byte	0
 15832 002e 0B       		.uleb128 0xb
 15833 002f 0B       		.uleb128 0xb
 15834 0030 3E       		.uleb128 0x3e
ARM GAS  C:\Users\RECEPC~1\AppData\Local\Temp\ccZZcwiB.s 			page 328


 15835 0031 0B       		.uleb128 0xb
 15836 0032 03       		.uleb128 0x3
 15837 0033 08       		.uleb128 0x8
 15838 0034 00       		.byte	0
 15839 0035 00       		.byte	0
 15840 0036 05       		.uleb128 0x5
 15841 0037 16       		.uleb128 0x16
 15842 0038 00       		.byte	0
 15843 0039 03       		.uleb128 0x3
 15844 003a 0E       		.uleb128 0xe
 15845 003b 3A       		.uleb128 0x3a
 15846 003c 0B       		.uleb128 0xb
 15847 003d 3B       		.uleb128 0x3b
 15848 003e 05       		.uleb128 0x5
 15849 003f 49       		.uleb128 0x49
 15850 0040 13       		.uleb128 0x13
 15851 0041 00       		.byte	0
 15852 0042 00       		.byte	0
 15853 0043 06       		.uleb128 0x6
 15854 0044 35       		.uleb128 0x35
 15855 0045 00       		.byte	0
 15856 0046 49       		.uleb128 0x49
 15857 0047 13       		.uleb128 0x13
 15858 0048 00       		.byte	0
 15859 0049 00       		.byte	0
 15860 004a 07       		.uleb128 0x7
 15861 004b 0F       		.uleb128 0xf
 15862 004c 00       		.byte	0
 15863 004d 0B       		.uleb128 0xb
 15864 004e 0B       		.uleb128 0xb
 15865 004f 49       		.uleb128 0x49
 15866 0050 13       		.uleb128 0x13
 15867 0051 00       		.byte	0
 15868 0052 00       		.byte	0
 15869 0053 08       		.uleb128 0x8
 15870 0054 15       		.uleb128 0x15
 15871 0055 00       		.byte	0
 15872 0056 27       		.uleb128 0x27
 15873 0057 19       		.uleb128 0x19
 15874 0058 00       		.byte	0
 15875 0059 00       		.byte	0
 15876 005a 09       		.uleb128 0x9
 15877 005b 0F       		.uleb128 0xf
 15878 005c 00       		.byte	0
 15879 005d 0B       		.uleb128 0xb
 15880 005e 0B       		.uleb128 0xb
 15881 005f 00       		.byte	0
 15882 0060 00       		.byte	0
 15883 0061 0A       		.uleb128 0xa
 15884 0062 01       		.uleb128 0x1
 15885 0063 01       		.byte	0x1
 15886 0064 49       		.uleb128 0x49
 15887 0065 13       		.uleb128 0x13
 15888 0066 01       		.uleb128 0x1
 15889 0067 13       		.uleb128 0x13
 15890 0068 00       		.byte	0
 15891 0069 00       		.byte	0
ARM GAS  C:\Users\RECEPC~1\AppData\Local\Temp\ccZZcwiB.s 			page 329


 15892 006a 0B       		.uleb128 0xb
 15893 006b 21       		.uleb128 0x21
 15894 006c 00       		.byte	0
 15895 006d 49       		.uleb128 0x49
 15896 006e 13       		.uleb128 0x13
 15897 006f 2F       		.uleb128 0x2f
 15898 0070 0B       		.uleb128 0xb
 15899 0071 00       		.byte	0
 15900 0072 00       		.byte	0
 15901 0073 0C       		.uleb128 0xc
 15902 0074 04       		.uleb128 0x4
 15903 0075 01       		.byte	0x1
 15904 0076 03       		.uleb128 0x3
 15905 0077 0E       		.uleb128 0xe
 15906 0078 0B       		.uleb128 0xb
 15907 0079 0B       		.uleb128 0xb
 15908 007a 3A       		.uleb128 0x3a
 15909 007b 0B       		.uleb128 0xb
 15910 007c 3B       		.uleb128 0x3b
 15911 007d 0B       		.uleb128 0xb
 15912 007e 01       		.uleb128 0x1
 15913 007f 13       		.uleb128 0x13
 15914 0080 00       		.byte	0
 15915 0081 00       		.byte	0
 15916 0082 0D       		.uleb128 0xd
 15917 0083 28       		.uleb128 0x28
 15918 0084 00       		.byte	0
 15919 0085 03       		.uleb128 0x3
 15920 0086 0E       		.uleb128 0xe
 15921 0087 1C       		.uleb128 0x1c
 15922 0088 0D       		.uleb128 0xd
 15923 0089 00       		.byte	0
 15924 008a 00       		.byte	0
 15925 008b 0E       		.uleb128 0xe
 15926 008c 13       		.uleb128 0x13
 15927 008d 01       		.byte	0x1
 15928 008e 03       		.uleb128 0x3
 15929 008f 0E       		.uleb128 0xe
 15930 0090 0B       		.uleb128 0xb
 15931 0091 05       		.uleb128 0x5
 15932 0092 3A       		.uleb128 0x3a
 15933 0093 0B       		.uleb128 0xb
 15934 0094 3B       		.uleb128 0x3b
 15935 0095 0B       		.uleb128 0xb
 15936 0096 01       		.uleb128 0x1
 15937 0097 13       		.uleb128 0x13
 15938 0098 00       		.byte	0
 15939 0099 00       		.byte	0
 15940 009a 0F       		.uleb128 0xf
 15941 009b 0D       		.uleb128 0xd
 15942 009c 00       		.byte	0
 15943 009d 03       		.uleb128 0x3
 15944 009e 0E       		.uleb128 0xe
 15945 009f 3A       		.uleb128 0x3a
 15946 00a0 0B       		.uleb128 0xb
 15947 00a1 3B       		.uleb128 0x3b
 15948 00a2 0B       		.uleb128 0xb
ARM GAS  C:\Users\RECEPC~1\AppData\Local\Temp\ccZZcwiB.s 			page 330


 15949 00a3 49       		.uleb128 0x49
 15950 00a4 13       		.uleb128 0x13
 15951 00a5 38       		.uleb128 0x38
 15952 00a6 0B       		.uleb128 0xb
 15953 00a7 00       		.byte	0
 15954 00a8 00       		.byte	0
 15955 00a9 10       		.uleb128 0x10
 15956 00aa 0D       		.uleb128 0xd
 15957 00ab 00       		.byte	0
 15958 00ac 03       		.uleb128 0x3
 15959 00ad 0E       		.uleb128 0xe
 15960 00ae 3A       		.uleb128 0x3a
 15961 00af 0B       		.uleb128 0xb
 15962 00b0 3B       		.uleb128 0x3b
 15963 00b1 0B       		.uleb128 0xb
 15964 00b2 49       		.uleb128 0x49
 15965 00b3 13       		.uleb128 0x13
 15966 00b4 38       		.uleb128 0x38
 15967 00b5 05       		.uleb128 0x5
 15968 00b6 00       		.byte	0
 15969 00b7 00       		.byte	0
 15970 00b8 11       		.uleb128 0x11
 15971 00b9 21       		.uleb128 0x21
 15972 00ba 00       		.byte	0
 15973 00bb 49       		.uleb128 0x49
 15974 00bc 13       		.uleb128 0x13
 15975 00bd 2F       		.uleb128 0x2f
 15976 00be 05       		.uleb128 0x5
 15977 00bf 00       		.byte	0
 15978 00c0 00       		.byte	0
 15979 00c1 12       		.uleb128 0x12
 15980 00c2 15       		.uleb128 0x15
 15981 00c3 01       		.byte	0x1
 15982 00c4 27       		.uleb128 0x27
 15983 00c5 19       		.uleb128 0x19
 15984 00c6 01       		.uleb128 0x1
 15985 00c7 13       		.uleb128 0x13
 15986 00c8 00       		.byte	0
 15987 00c9 00       		.byte	0
 15988 00ca 13       		.uleb128 0x13
 15989 00cb 05       		.uleb128 0x5
 15990 00cc 00       		.byte	0
 15991 00cd 49       		.uleb128 0x49
 15992 00ce 13       		.uleb128 0x13
 15993 00cf 00       		.byte	0
 15994 00d0 00       		.byte	0
 15995 00d1 14       		.uleb128 0x14
 15996 00d2 13       		.uleb128 0x13
 15997 00d3 01       		.byte	0x1
 15998 00d4 03       		.uleb128 0x3
 15999 00d5 0E       		.uleb128 0xe
 16000 00d6 0B       		.uleb128 0xb
 16001 00d7 0B       		.uleb128 0xb
 16002 00d8 3A       		.uleb128 0x3a
 16003 00d9 0B       		.uleb128 0xb
 16004 00da 3B       		.uleb128 0x3b
 16005 00db 0B       		.uleb128 0xb
ARM GAS  C:\Users\RECEPC~1\AppData\Local\Temp\ccZZcwiB.s 			page 331


 16006 00dc 01       		.uleb128 0x1
 16007 00dd 13       		.uleb128 0x13
 16008 00de 00       		.byte	0
 16009 00df 00       		.byte	0
 16010 00e0 15       		.uleb128 0x15
 16011 00e1 15       		.uleb128 0x15
 16012 00e2 00       		.byte	0
 16013 00e3 27       		.uleb128 0x27
 16014 00e4 19       		.uleb128 0x19
 16015 00e5 49       		.uleb128 0x49
 16016 00e6 13       		.uleb128 0x13
 16017 00e7 00       		.byte	0
 16018 00e8 00       		.byte	0
 16019 00e9 16       		.uleb128 0x16
 16020 00ea 26       		.uleb128 0x26
 16021 00eb 00       		.byte	0
 16022 00ec 49       		.uleb128 0x49
 16023 00ed 13       		.uleb128 0x13
 16024 00ee 00       		.byte	0
 16025 00ef 00       		.byte	0
 16026 00f0 17       		.uleb128 0x17
 16027 00f1 04       		.uleb128 0x4
 16028 00f2 01       		.byte	0x1
 16029 00f3 0B       		.uleb128 0xb
 16030 00f4 0B       		.uleb128 0xb
 16031 00f5 3A       		.uleb128 0x3a
 16032 00f6 0B       		.uleb128 0xb
 16033 00f7 3B       		.uleb128 0x3b
 16034 00f8 0B       		.uleb128 0xb
 16035 00f9 01       		.uleb128 0x1
 16036 00fa 13       		.uleb128 0x13
 16037 00fb 00       		.byte	0
 16038 00fc 00       		.byte	0
 16039 00fd 18       		.uleb128 0x18
 16040 00fe 15       		.uleb128 0x15
 16041 00ff 01       		.byte	0x1
 16042 0100 27       		.uleb128 0x27
 16043 0101 19       		.uleb128 0x19
 16044 0102 49       		.uleb128 0x49
 16045 0103 13       		.uleb128 0x13
 16046 0104 01       		.uleb128 0x1
 16047 0105 13       		.uleb128 0x13
 16048 0106 00       		.byte	0
 16049 0107 00       		.byte	0
 16050 0108 19       		.uleb128 0x19
 16051 0109 28       		.uleb128 0x28
 16052 010a 00       		.byte	0
 16053 010b 03       		.uleb128 0x3
 16054 010c 08       		.uleb128 0x8
 16055 010d 1C       		.uleb128 0x1c
 16056 010e 0D       		.uleb128 0xd
 16057 010f 00       		.byte	0
 16058 0110 00       		.byte	0
 16059 0111 1A       		.uleb128 0x1a
 16060 0112 04       		.uleb128 0x4
 16061 0113 01       		.byte	0x1
 16062 0114 03       		.uleb128 0x3
ARM GAS  C:\Users\RECEPC~1\AppData\Local\Temp\ccZZcwiB.s 			page 332


 16063 0115 0E       		.uleb128 0xe
 16064 0116 0B       		.uleb128 0xb
 16065 0117 0B       		.uleb128 0xb
 16066 0118 3A       		.uleb128 0x3a
 16067 0119 0B       		.uleb128 0xb
 16068 011a 3B       		.uleb128 0x3b
 16069 011b 05       		.uleb128 0x5
 16070 011c 01       		.uleb128 0x1
 16071 011d 13       		.uleb128 0x13
 16072 011e 00       		.byte	0
 16073 011f 00       		.byte	0
 16074 0120 1B       		.uleb128 0x1b
 16075 0121 13       		.uleb128 0x13
 16076 0122 01       		.byte	0x1
 16077 0123 0B       		.uleb128 0xb
 16078 0124 05       		.uleb128 0x5
 16079 0125 3A       		.uleb128 0x3a
 16080 0126 0B       		.uleb128 0xb
 16081 0127 3B       		.uleb128 0x3b
 16082 0128 05       		.uleb128 0x5
 16083 0129 01       		.uleb128 0x1
 16084 012a 13       		.uleb128 0x13
 16085 012b 00       		.byte	0
 16086 012c 00       		.byte	0
 16087 012d 1C       		.uleb128 0x1c
 16088 012e 0D       		.uleb128 0xd
 16089 012f 00       		.byte	0
 16090 0130 03       		.uleb128 0x3
 16091 0131 0E       		.uleb128 0xe
 16092 0132 3A       		.uleb128 0x3a
 16093 0133 0B       		.uleb128 0xb
 16094 0134 3B       		.uleb128 0x3b
 16095 0135 05       		.uleb128 0x5
 16096 0136 49       		.uleb128 0x49
 16097 0137 13       		.uleb128 0x13
 16098 0138 38       		.uleb128 0x38
 16099 0139 0B       		.uleb128 0xb
 16100 013a 00       		.byte	0
 16101 013b 00       		.byte	0
 16102 013c 1D       		.uleb128 0x1d
 16103 013d 0D       		.uleb128 0xd
 16104 013e 00       		.byte	0
 16105 013f 03       		.uleb128 0x3
 16106 0140 0E       		.uleb128 0xe
 16107 0141 3A       		.uleb128 0x3a
 16108 0142 0B       		.uleb128 0xb
 16109 0143 3B       		.uleb128 0x3b
 16110 0144 05       		.uleb128 0x5
 16111 0145 49       		.uleb128 0x49
 16112 0146 13       		.uleb128 0x13
 16113 0147 38       		.uleb128 0x38
 16114 0148 05       		.uleb128 0x5
 16115 0149 00       		.byte	0
 16116 014a 00       		.byte	0
 16117 014b 1E       		.uleb128 0x1e
 16118 014c 13       		.uleb128 0x13
 16119 014d 01       		.byte	0x1
ARM GAS  C:\Users\RECEPC~1\AppData\Local\Temp\ccZZcwiB.s 			page 333


 16120 014e 0B       		.uleb128 0xb
 16121 014f 0B       		.uleb128 0xb
 16122 0150 3A       		.uleb128 0x3a
 16123 0151 0B       		.uleb128 0xb
 16124 0152 3B       		.uleb128 0x3b
 16125 0153 05       		.uleb128 0x5
 16126 0154 01       		.uleb128 0x1
 16127 0155 13       		.uleb128 0x13
 16128 0156 00       		.byte	0
 16129 0157 00       		.byte	0
 16130 0158 1F       		.uleb128 0x1f
 16131 0159 13       		.uleb128 0x13
 16132 015a 01       		.byte	0x1
 16133 015b 03       		.uleb128 0x3
 16134 015c 0E       		.uleb128 0xe
 16135 015d 0B       		.uleb128 0xb
 16136 015e 05       		.uleb128 0x5
 16137 015f 3A       		.uleb128 0x3a
 16138 0160 0B       		.uleb128 0xb
 16139 0161 3B       		.uleb128 0x3b
 16140 0162 05       		.uleb128 0x5
 16141 0163 01       		.uleb128 0x1
 16142 0164 13       		.uleb128 0x13
 16143 0165 00       		.byte	0
 16144 0166 00       		.byte	0
 16145 0167 20       		.uleb128 0x20
 16146 0168 13       		.uleb128 0x13
 16147 0169 01       		.byte	0x1
 16148 016a 03       		.uleb128 0x3
 16149 016b 0E       		.uleb128 0xe
 16150 016c 0B       		.uleb128 0xb
 16151 016d 0B       		.uleb128 0xb
 16152 016e 3A       		.uleb128 0x3a
 16153 016f 0B       		.uleb128 0xb
 16154 0170 3B       		.uleb128 0x3b
 16155 0171 05       		.uleb128 0x5
 16156 0172 01       		.uleb128 0x1
 16157 0173 13       		.uleb128 0x13
 16158 0174 00       		.byte	0
 16159 0175 00       		.byte	0
 16160 0176 21       		.uleb128 0x21
 16161 0177 0D       		.uleb128 0xd
 16162 0178 00       		.byte	0
 16163 0179 03       		.uleb128 0x3
 16164 017a 0E       		.uleb128 0xe
 16165 017b 3A       		.uleb128 0x3a
 16166 017c 0B       		.uleb128 0xb
 16167 017d 3B       		.uleb128 0x3b
 16168 017e 05       		.uleb128 0x5
 16169 017f 49       		.uleb128 0x49
 16170 0180 13       		.uleb128 0x13
 16171 0181 0B       		.uleb128 0xb
 16172 0182 0B       		.uleb128 0xb
 16173 0183 0D       		.uleb128 0xd
 16174 0184 0B       		.uleb128 0xb
 16175 0185 0C       		.uleb128 0xc
 16176 0186 0B       		.uleb128 0xb
ARM GAS  C:\Users\RECEPC~1\AppData\Local\Temp\ccZZcwiB.s 			page 334


 16177 0187 38       		.uleb128 0x38
 16178 0188 0B       		.uleb128 0xb
 16179 0189 00       		.byte	0
 16180 018a 00       		.byte	0
 16181 018b 22       		.uleb128 0x22
 16182 018c 13       		.uleb128 0x13
 16183 018d 01       		.byte	0x1
 16184 018e 0B       		.uleb128 0xb
 16185 018f 0B       		.uleb128 0xb
 16186 0190 3A       		.uleb128 0x3a
 16187 0191 0B       		.uleb128 0xb
 16188 0192 3B       		.uleb128 0x3b
 16189 0193 0B       		.uleb128 0xb
 16190 0194 01       		.uleb128 0x1
 16191 0195 13       		.uleb128 0x13
 16192 0196 00       		.byte	0
 16193 0197 00       		.byte	0
 16194 0198 23       		.uleb128 0x23
 16195 0199 2E       		.uleb128 0x2e
 16196 019a 01       		.byte	0x1
 16197 019b 3F       		.uleb128 0x3f
 16198 019c 19       		.uleb128 0x19
 16199 019d 03       		.uleb128 0x3
 16200 019e 0E       		.uleb128 0xe
 16201 019f 3A       		.uleb128 0x3a
 16202 01a0 0B       		.uleb128 0xb
 16203 01a1 3B       		.uleb128 0x3b
 16204 01a2 0B       		.uleb128 0xb
 16205 01a3 27       		.uleb128 0x27
 16206 01a4 19       		.uleb128 0x19
 16207 01a5 11       		.uleb128 0x11
 16208 01a6 01       		.uleb128 0x1
 16209 01a7 12       		.uleb128 0x12
 16210 01a8 06       		.uleb128 0x6
 16211 01a9 40       		.uleb128 0x40
 16212 01aa 18       		.uleb128 0x18
 16213 01ab 9642     		.uleb128 0x2116
 16214 01ad 19       		.uleb128 0x19
 16215 01ae 01       		.uleb128 0x1
 16216 01af 13       		.uleb128 0x13
 16217 01b0 00       		.byte	0
 16218 01b1 00       		.byte	0
 16219 01b2 24       		.uleb128 0x24
 16220 01b3 05       		.uleb128 0x5
 16221 01b4 00       		.byte	0
 16222 01b5 03       		.uleb128 0x3
 16223 01b6 0E       		.uleb128 0xe
 16224 01b7 3A       		.uleb128 0x3a
 16225 01b8 0B       		.uleb128 0xb
 16226 01b9 3B       		.uleb128 0x3b
 16227 01ba 0B       		.uleb128 0xb
 16228 01bb 49       		.uleb128 0x49
 16229 01bc 13       		.uleb128 0x13
 16230 01bd 02       		.uleb128 0x2
 16231 01be 18       		.uleb128 0x18
 16232 01bf 00       		.byte	0
 16233 01c0 00       		.byte	0
ARM GAS  C:\Users\RECEPC~1\AppData\Local\Temp\ccZZcwiB.s 			page 335


 16234 01c1 25       		.uleb128 0x25
 16235 01c2 34       		.uleb128 0x34
 16236 01c3 00       		.byte	0
 16237 01c4 03       		.uleb128 0x3
 16238 01c5 0E       		.uleb128 0xe
 16239 01c6 3A       		.uleb128 0x3a
 16240 01c7 0B       		.uleb128 0xb
 16241 01c8 3B       		.uleb128 0x3b
 16242 01c9 0B       		.uleb128 0xb
 16243 01ca 49       		.uleb128 0x49
 16244 01cb 13       		.uleb128 0x13
 16245 01cc 02       		.uleb128 0x2
 16246 01cd 18       		.uleb128 0x18
 16247 01ce 00       		.byte	0
 16248 01cf 00       		.byte	0
 16249 01d0 26       		.uleb128 0x26
 16250 01d1 0B       		.uleb128 0xb
 16251 01d2 01       		.byte	0x1
 16252 01d3 11       		.uleb128 0x11
 16253 01d4 01       		.uleb128 0x1
 16254 01d5 12       		.uleb128 0x12
 16255 01d6 06       		.uleb128 0x6
 16256 01d7 00       		.byte	0
 16257 01d8 00       		.byte	0
 16258 01d9 27       		.uleb128 0x27
 16259 01da 2E       		.uleb128 0x2e
 16260 01db 01       		.byte	0x1
 16261 01dc 3F       		.uleb128 0x3f
 16262 01dd 19       		.uleb128 0x19
 16263 01de 03       		.uleb128 0x3
 16264 01df 0E       		.uleb128 0xe
 16265 01e0 3A       		.uleb128 0x3a
 16266 01e1 0B       		.uleb128 0xb
 16267 01e2 3B       		.uleb128 0x3b
 16268 01e3 0B       		.uleb128 0xb
 16269 01e4 27       		.uleb128 0x27
 16270 01e5 19       		.uleb128 0x19
 16271 01e6 11       		.uleb128 0x11
 16272 01e7 01       		.uleb128 0x1
 16273 01e8 12       		.uleb128 0x12
 16274 01e9 06       		.uleb128 0x6
 16275 01ea 40       		.uleb128 0x40
 16276 01eb 18       		.uleb128 0x18
 16277 01ec 9742     		.uleb128 0x2117
 16278 01ee 19       		.uleb128 0x19
 16279 01ef 01       		.uleb128 0x1
 16280 01f0 13       		.uleb128 0x13
 16281 01f1 00       		.byte	0
 16282 01f2 00       		.byte	0
 16283 01f3 28       		.uleb128 0x28
 16284 01f4 34       		.uleb128 0x34
 16285 01f5 00       		.byte	0
 16286 01f6 03       		.uleb128 0x3
 16287 01f7 08       		.uleb128 0x8
 16288 01f8 3A       		.uleb128 0x3a
 16289 01f9 0B       		.uleb128 0xb
 16290 01fa 3B       		.uleb128 0x3b
ARM GAS  C:\Users\RECEPC~1\AppData\Local\Temp\ccZZcwiB.s 			page 336


 16291 01fb 05       		.uleb128 0x5
 16292 01fc 49       		.uleb128 0x49
 16293 01fd 13       		.uleb128 0x13
 16294 01fe 02       		.uleb128 0x2
 16295 01ff 18       		.uleb128 0x18
 16296 0200 00       		.byte	0
 16297 0201 00       		.byte	0
 16298 0202 29       		.uleb128 0x29
 16299 0203 0B       		.uleb128 0xb
 16300 0204 01       		.byte	0x1
 16301 0205 11       		.uleb128 0x11
 16302 0206 01       		.uleb128 0x1
 16303 0207 12       		.uleb128 0x12
 16304 0208 06       		.uleb128 0x6
 16305 0209 01       		.uleb128 0x1
 16306 020a 13       		.uleb128 0x13
 16307 020b 00       		.byte	0
 16308 020c 00       		.byte	0
 16309 020d 2A       		.uleb128 0x2a
 16310 020e 34       		.uleb128 0x34
 16311 020f 00       		.byte	0
 16312 0210 03       		.uleb128 0x3
 16313 0211 0E       		.uleb128 0xe
 16314 0212 3A       		.uleb128 0x3a
 16315 0213 0B       		.uleb128 0xb
 16316 0214 3B       		.uleb128 0x3b
 16317 0215 05       		.uleb128 0x5
 16318 0216 49       		.uleb128 0x49
 16319 0217 13       		.uleb128 0x13
 16320 0218 02       		.uleb128 0x2
 16321 0219 18       		.uleb128 0x18
 16322 021a 00       		.byte	0
 16323 021b 00       		.byte	0
 16324 021c 2B       		.uleb128 0x2b
 16325 021d 2E       		.uleb128 0x2e
 16326 021e 01       		.byte	0x1
 16327 021f 3F       		.uleb128 0x3f
 16328 0220 19       		.uleb128 0x19
 16329 0221 03       		.uleb128 0x3
 16330 0222 0E       		.uleb128 0xe
 16331 0223 3A       		.uleb128 0x3a
 16332 0224 0B       		.uleb128 0xb
 16333 0225 3B       		.uleb128 0x3b
 16334 0226 05       		.uleb128 0x5
 16335 0227 27       		.uleb128 0x27
 16336 0228 19       		.uleb128 0x19
 16337 0229 11       		.uleb128 0x11
 16338 022a 01       		.uleb128 0x1
 16339 022b 12       		.uleb128 0x12
 16340 022c 06       		.uleb128 0x6
 16341 022d 40       		.uleb128 0x40
 16342 022e 18       		.uleb128 0x18
 16343 022f 9642     		.uleb128 0x2116
 16344 0231 19       		.uleb128 0x19
 16345 0232 01       		.uleb128 0x1
 16346 0233 13       		.uleb128 0x13
 16347 0234 00       		.byte	0
ARM GAS  C:\Users\RECEPC~1\AppData\Local\Temp\ccZZcwiB.s 			page 337


 16348 0235 00       		.byte	0
 16349 0236 2C       		.uleb128 0x2c
 16350 0237 05       		.uleb128 0x5
 16351 0238 00       		.byte	0
 16352 0239 03       		.uleb128 0x3
 16353 023a 0E       		.uleb128 0xe
 16354 023b 3A       		.uleb128 0x3a
 16355 023c 0B       		.uleb128 0xb
 16356 023d 3B       		.uleb128 0x3b
 16357 023e 05       		.uleb128 0x5
 16358 023f 49       		.uleb128 0x49
 16359 0240 13       		.uleb128 0x13
 16360 0241 02       		.uleb128 0x2
 16361 0242 18       		.uleb128 0x18
 16362 0243 00       		.byte	0
 16363 0244 00       		.byte	0
 16364 0245 2D       		.uleb128 0x2d
 16365 0246 2E       		.uleb128 0x2e
 16366 0247 01       		.byte	0x1
 16367 0248 3F       		.uleb128 0x3f
 16368 0249 19       		.uleb128 0x19
 16369 024a 03       		.uleb128 0x3
 16370 024b 0E       		.uleb128 0xe
 16371 024c 3A       		.uleb128 0x3a
 16372 024d 0B       		.uleb128 0xb
 16373 024e 3B       		.uleb128 0x3b
 16374 024f 05       		.uleb128 0x5
 16375 0250 27       		.uleb128 0x27
 16376 0251 19       		.uleb128 0x19
 16377 0252 11       		.uleb128 0x11
 16378 0253 01       		.uleb128 0x1
 16379 0254 12       		.uleb128 0x12
 16380 0255 06       		.uleb128 0x6
 16381 0256 40       		.uleb128 0x40
 16382 0257 18       		.uleb128 0x18
 16383 0258 9742     		.uleb128 0x2117
 16384 025a 19       		.uleb128 0x19
 16385 025b 01       		.uleb128 0x1
 16386 025c 13       		.uleb128 0x13
 16387 025d 00       		.byte	0
 16388 025e 00       		.byte	0
 16389 025f 2E       		.uleb128 0x2e
 16390 0260 2E       		.uleb128 0x2e
 16391 0261 01       		.byte	0x1
 16392 0262 3F       		.uleb128 0x3f
 16393 0263 19       		.uleb128 0x19
 16394 0264 03       		.uleb128 0x3
 16395 0265 0E       		.uleb128 0xe
 16396 0266 3A       		.uleb128 0x3a
 16397 0267 0B       		.uleb128 0xb
 16398 0268 3B       		.uleb128 0x3b
 16399 0269 05       		.uleb128 0x5
 16400 026a 27       		.uleb128 0x27
 16401 026b 19       		.uleb128 0x19
 16402 026c 49       		.uleb128 0x49
 16403 026d 13       		.uleb128 0x13
 16404 026e 11       		.uleb128 0x11
ARM GAS  C:\Users\RECEPC~1\AppData\Local\Temp\ccZZcwiB.s 			page 338


 16405 026f 01       		.uleb128 0x1
 16406 0270 12       		.uleb128 0x12
 16407 0271 06       		.uleb128 0x6
 16408 0272 40       		.uleb128 0x40
 16409 0273 18       		.uleb128 0x18
 16410 0274 9642     		.uleb128 0x2116
 16411 0276 19       		.uleb128 0x19
 16412 0277 01       		.uleb128 0x1
 16413 0278 13       		.uleb128 0x13
 16414 0279 00       		.byte	0
 16415 027a 00       		.byte	0
 16416 027b 2F       		.uleb128 0x2f
 16417 027c 2E       		.uleb128 0x2e
 16418 027d 01       		.byte	0x1
 16419 027e 3F       		.uleb128 0x3f
 16420 027f 19       		.uleb128 0x19
 16421 0280 03       		.uleb128 0x3
 16422 0281 0E       		.uleb128 0xe
 16423 0282 3A       		.uleb128 0x3a
 16424 0283 0B       		.uleb128 0xb
 16425 0284 3B       		.uleb128 0x3b
 16426 0285 05       		.uleb128 0x5
 16427 0286 27       		.uleb128 0x27
 16428 0287 19       		.uleb128 0x19
 16429 0288 49       		.uleb128 0x49
 16430 0289 13       		.uleb128 0x13
 16431 028a 11       		.uleb128 0x11
 16432 028b 01       		.uleb128 0x1
 16433 028c 12       		.uleb128 0x12
 16434 028d 06       		.uleb128 0x6
 16435 028e 40       		.uleb128 0x40
 16436 028f 18       		.uleb128 0x18
 16437 0290 9742     		.uleb128 0x2117
 16438 0292 19       		.uleb128 0x19
 16439 0293 01       		.uleb128 0x1
 16440 0294 13       		.uleb128 0x13
 16441 0295 00       		.byte	0
 16442 0296 00       		.byte	0
 16443 0297 30       		.uleb128 0x30
 16444 0298 34       		.uleb128 0x34
 16445 0299 00       		.byte	0
 16446 029a 03       		.uleb128 0x3
 16447 029b 0E       		.uleb128 0xe
 16448 029c 3A       		.uleb128 0x3a
 16449 029d 0B       		.uleb128 0xb
 16450 029e 3B       		.uleb128 0x3b
 16451 029f 05       		.uleb128 0x5
 16452 02a0 49       		.uleb128 0x49
 16453 02a1 13       		.uleb128 0x13
 16454 02a2 3F       		.uleb128 0x3f
 16455 02a3 19       		.uleb128 0x19
 16456 02a4 3C       		.uleb128 0x3c
 16457 02a5 19       		.uleb128 0x19
 16458 02a6 00       		.byte	0
 16459 02a7 00       		.byte	0
 16460 02a8 31       		.uleb128 0x31
 16461 02a9 34       		.uleb128 0x34
ARM GAS  C:\Users\RECEPC~1\AppData\Local\Temp\ccZZcwiB.s 			page 339


 16462 02aa 00       		.byte	0
 16463 02ab 03       		.uleb128 0x3
 16464 02ac 0E       		.uleb128 0xe
 16465 02ad 3A       		.uleb128 0x3a
 16466 02ae 0B       		.uleb128 0xb
 16467 02af 3B       		.uleb128 0x3b
 16468 02b0 0B       		.uleb128 0xb
 16469 02b1 49       		.uleb128 0x49
 16470 02b2 13       		.uleb128 0x13
 16471 02b3 3F       		.uleb128 0x3f
 16472 02b4 19       		.uleb128 0x19
 16473 02b5 3C       		.uleb128 0x3c
 16474 02b6 19       		.uleb128 0x19
 16475 02b7 00       		.byte	0
 16476 02b8 00       		.byte	0
 16477 02b9 32       		.uleb128 0x32
 16478 02ba 34       		.uleb128 0x34
 16479 02bb 00       		.byte	0
 16480 02bc 03       		.uleb128 0x3
 16481 02bd 0E       		.uleb128 0xe
 16482 02be 3A       		.uleb128 0x3a
 16483 02bf 0B       		.uleb128 0xb
 16484 02c0 3B       		.uleb128 0x3b
 16485 02c1 05       		.uleb128 0x5
 16486 02c2 49       		.uleb128 0x49
 16487 02c3 13       		.uleb128 0x13
 16488 02c4 3F       		.uleb128 0x3f
 16489 02c5 19       		.uleb128 0x19
 16490 02c6 02       		.uleb128 0x2
 16491 02c7 18       		.uleb128 0x18
 16492 02c8 00       		.byte	0
 16493 02c9 00       		.byte	0
 16494 02ca 00       		.byte	0
 16495              		.section	.debug_aranges,"",%progbits
 16496 0000 84010000 		.4byte	0x184
 16497 0004 0200     		.2byte	0x2
 16498 0006 00000000 		.4byte	.Ldebug_info0
 16499 000a 04       		.byte	0x4
 16500 000b 00       		.byte	0
 16501 000c 0000     		.2byte	0
 16502 000e 0000     		.2byte	0
 16503 0010 00000000 		.4byte	.LFB63
 16504 0014 B6000000 		.4byte	.LFE63-.LFB63
 16505 0018 00000000 		.4byte	.LFB64
 16506 001c 48000000 		.4byte	.LFE64-.LFB64
 16507 0020 00000000 		.4byte	.LFB65
 16508 0024 E0000000 		.4byte	.LFE65-.LFB65
 16509 0028 00000000 		.4byte	.LFB66
 16510 002c 9A0F0000 		.4byte	.LFE66-.LFB66
 16511 0030 00000000 		.4byte	.LFB67
 16512 0034 54010000 		.4byte	.LFE67-.LFB67
 16513 0038 00000000 		.4byte	.LFB68
 16514 003c 2C000000 		.4byte	.LFE68-.LFB68
 16515 0040 00000000 		.4byte	.LFB69
 16516 0044 36000000 		.4byte	.LFE69-.LFB69
 16517 0048 00000000 		.4byte	.LFB70
 16518 004c 36000000 		.4byte	.LFE70-.LFB70
ARM GAS  C:\Users\RECEPC~1\AppData\Local\Temp\ccZZcwiB.s 			page 340


 16519 0050 00000000 		.4byte	.LFB71
 16520 0054 82000000 		.4byte	.LFE71-.LFB71
 16521 0058 00000000 		.4byte	.LFB72
 16522 005c 70000000 		.4byte	.LFE72-.LFB72
 16523 0060 00000000 		.4byte	.LFB73
 16524 0064 60000000 		.4byte	.LFE73-.LFB73
 16525 0068 00000000 		.4byte	.LFB74
 16526 006c 6A000000 		.4byte	.LFE74-.LFB74
 16527 0070 00000000 		.4byte	.LFB75
 16528 0074 6A000000 		.4byte	.LFE75-.LFB75
 16529 0078 00000000 		.4byte	.LFB76
 16530 007c 6A000000 		.4byte	.LFE76-.LFB76
 16531 0080 00000000 		.4byte	.LFB77
 16532 0084 6A000000 		.4byte	.LFE77-.LFB77
 16533 0088 00000000 		.4byte	.LFB78
 16534 008c AA030000 		.4byte	.LFE78-.LFB78
 16535 0090 00000000 		.4byte	.LFB79
 16536 0094 78030000 		.4byte	.LFE79-.LFB79
 16537 0098 00000000 		.4byte	.LFB80
 16538 009c C4020000 		.4byte	.LFE80-.LFB80
 16539 00a0 00000000 		.4byte	.LFB81
 16540 00a4 D6010000 		.4byte	.LFE81-.LFB81
 16541 00a8 00000000 		.4byte	.LFB82
 16542 00ac AA000000 		.4byte	.LFE82-.LFB82
 16543 00b0 00000000 		.4byte	.LFB83
 16544 00b4 28030000 		.4byte	.LFE83-.LFB83
 16545 00b8 00000000 		.4byte	.LFB84
 16546 00bc 74020000 		.4byte	.LFE84-.LFB84
 16547 00c0 00000000 		.4byte	.LFB85
 16548 00c4 C4020000 		.4byte	.LFE85-.LFB85
 16549 00c8 00000000 		.4byte	.LFB86
 16550 00cc B0010000 		.4byte	.LFE86-.LFB86
 16551 00d0 00000000 		.4byte	.LFB87
 16552 00d4 3C020000 		.4byte	.LFE87-.LFB87
 16553 00d8 00000000 		.4byte	.LFB88
 16554 00dc 6A000000 		.4byte	.LFE88-.LFB88
 16555 00e0 00000000 		.4byte	.LFB89
 16556 00e4 60000000 		.4byte	.LFE89-.LFB89
 16557 00e8 00000000 		.4byte	.LFB90
 16558 00ec E6000000 		.4byte	.LFE90-.LFB90
 16559 00f0 00000000 		.4byte	.LFB91
 16560 00f4 54040000 		.4byte	.LFE91-.LFB91
 16561 00f8 00000000 		.4byte	.LFB92
 16562 00fc C8040000 		.4byte	.LFE92-.LFB92
 16563 0100 00000000 		.4byte	.LFB93
 16564 0104 28010000 		.4byte	.LFE93-.LFB93
 16565 0108 00000000 		.4byte	.LFB94
 16566 010c 60000000 		.4byte	.LFE94-.LFB94
 16567 0110 00000000 		.4byte	.LFB95
 16568 0114 40020000 		.4byte	.LFE95-.LFB95
 16569 0118 00000000 		.4byte	.LFB96
 16570 011c 6C000000 		.4byte	.LFE96-.LFB96
 16571 0120 00000000 		.4byte	.LFB97
 16572 0124 5C010000 		.4byte	.LFE97-.LFB97
 16573 0128 00000000 		.4byte	.LFB98
 16574 012c 4C000000 		.4byte	.LFE98-.LFB98
 16575 0130 00000000 		.4byte	.LFB99
ARM GAS  C:\Users\RECEPC~1\AppData\Local\Temp\ccZZcwiB.s 			page 341


 16576 0134 98000000 		.4byte	.LFE99-.LFB99
 16577 0138 00000000 		.4byte	.LFB100
 16578 013c AC000000 		.4byte	.LFE100-.LFB100
 16579 0140 00000000 		.4byte	.LFB101
 16580 0144 5E000000 		.4byte	.LFE101-.LFB101
 16581 0148 00000000 		.4byte	.LFB102
 16582 014c 32000000 		.4byte	.LFE102-.LFB102
 16583 0150 00000000 		.4byte	.LFB103
 16584 0154 2C000000 		.4byte	.LFE103-.LFB103
 16585 0158 00000000 		.4byte	.LFB104
 16586 015c 2C000000 		.4byte	.LFE104-.LFB104
 16587 0160 00000000 		.4byte	.LFB105
 16588 0164 48020000 		.4byte	.LFE105-.LFB105
 16589 0168 00000000 		.4byte	.LFB106
 16590 016c 74010000 		.4byte	.LFE106-.LFB106
 16591 0170 00000000 		.4byte	.LFB107
 16592 0174 64010000 		.4byte	.LFE107-.LFB107
 16593 0178 00000000 		.4byte	.LFB108
 16594 017c 48000000 		.4byte	.LFE108-.LFB108
 16595 0180 00000000 		.4byte	0
 16596 0184 00000000 		.4byte	0
 16597              		.section	.debug_ranges,"",%progbits
 16598              	.Ldebug_ranges0:
 16599 0000 00000000 		.4byte	.LFB63
 16600 0004 B6000000 		.4byte	.LFE63
 16601 0008 00000000 		.4byte	.LFB64
 16602 000c 48000000 		.4byte	.LFE64
 16603 0010 00000000 		.4byte	.LFB65
 16604 0014 E0000000 		.4byte	.LFE65
 16605 0018 00000000 		.4byte	.LFB66
 16606 001c 9A0F0000 		.4byte	.LFE66
 16607 0020 00000000 		.4byte	.LFB67
 16608 0024 54010000 		.4byte	.LFE67
 16609 0028 00000000 		.4byte	.LFB68
 16610 002c 2C000000 		.4byte	.LFE68
 16611 0030 00000000 		.4byte	.LFB69
 16612 0034 36000000 		.4byte	.LFE69
 16613 0038 00000000 		.4byte	.LFB70
 16614 003c 36000000 		.4byte	.LFE70
 16615 0040 00000000 		.4byte	.LFB71
 16616 0044 82000000 		.4byte	.LFE71
 16617 0048 00000000 		.4byte	.LFB72
 16618 004c 70000000 		.4byte	.LFE72
 16619 0050 00000000 		.4byte	.LFB73
 16620 0054 60000000 		.4byte	.LFE73
 16621 0058 00000000 		.4byte	.LFB74
 16622 005c 6A000000 		.4byte	.LFE74
 16623 0060 00000000 		.4byte	.LFB75
 16624 0064 6A000000 		.4byte	.LFE75
 16625 0068 00000000 		.4byte	.LFB76
 16626 006c 6A000000 		.4byte	.LFE76
 16627 0070 00000000 		.4byte	.LFB77
 16628 0074 6A000000 		.4byte	.LFE77
 16629 0078 00000000 		.4byte	.LFB78
 16630 007c AA030000 		.4byte	.LFE78
 16631 0080 00000000 		.4byte	.LFB79
 16632 0084 78030000 		.4byte	.LFE79
ARM GAS  C:\Users\RECEPC~1\AppData\Local\Temp\ccZZcwiB.s 			page 342


 16633 0088 00000000 		.4byte	.LFB80
 16634 008c C4020000 		.4byte	.LFE80
 16635 0090 00000000 		.4byte	.LFB81
 16636 0094 D6010000 		.4byte	.LFE81
 16637 0098 00000000 		.4byte	.LFB82
 16638 009c AA000000 		.4byte	.LFE82
 16639 00a0 00000000 		.4byte	.LFB83
 16640 00a4 28030000 		.4byte	.LFE83
 16641 00a8 00000000 		.4byte	.LFB84
 16642 00ac 74020000 		.4byte	.LFE84
 16643 00b0 00000000 		.4byte	.LFB85
 16644 00b4 C4020000 		.4byte	.LFE85
 16645 00b8 00000000 		.4byte	.LFB86
 16646 00bc B0010000 		.4byte	.LFE86
 16647 00c0 00000000 		.4byte	.LFB87
 16648 00c4 3C020000 		.4byte	.LFE87
 16649 00c8 00000000 		.4byte	.LFB88
 16650 00cc 6A000000 		.4byte	.LFE88
 16651 00d0 00000000 		.4byte	.LFB89
 16652 00d4 60000000 		.4byte	.LFE89
 16653 00d8 00000000 		.4byte	.LFB90
 16654 00dc E6000000 		.4byte	.LFE90
 16655 00e0 00000000 		.4byte	.LFB91
 16656 00e4 54040000 		.4byte	.LFE91
 16657 00e8 00000000 		.4byte	.LFB92
 16658 00ec C8040000 		.4byte	.LFE92
 16659 00f0 00000000 		.4byte	.LFB93
 16660 00f4 28010000 		.4byte	.LFE93
 16661 00f8 00000000 		.4byte	.LFB94
 16662 00fc 60000000 		.4byte	.LFE94
 16663 0100 00000000 		.4byte	.LFB95
 16664 0104 40020000 		.4byte	.LFE95
 16665 0108 00000000 		.4byte	.LFB96
 16666 010c 6C000000 		.4byte	.LFE96
 16667 0110 00000000 		.4byte	.LFB97
 16668 0114 5C010000 		.4byte	.LFE97
 16669 0118 00000000 		.4byte	.LFB98
 16670 011c 4C000000 		.4byte	.LFE98
 16671 0120 00000000 		.4byte	.LFB99
 16672 0124 98000000 		.4byte	.LFE99
 16673 0128 00000000 		.4byte	.LFB100
 16674 012c AC000000 		.4byte	.LFE100
 16675 0130 00000000 		.4byte	.LFB101
 16676 0134 5E000000 		.4byte	.LFE101
 16677 0138 00000000 		.4byte	.LFB102
 16678 013c 32000000 		.4byte	.LFE102
 16679 0140 00000000 		.4byte	.LFB103
 16680 0144 2C000000 		.4byte	.LFE103
 16681 0148 00000000 		.4byte	.LFB104
 16682 014c 2C000000 		.4byte	.LFE104
 16683 0150 00000000 		.4byte	.LFB105
 16684 0154 48020000 		.4byte	.LFE105
 16685 0158 00000000 		.4byte	.LFB106
 16686 015c 74010000 		.4byte	.LFE106
 16687 0160 00000000 		.4byte	.LFB107
 16688 0164 64010000 		.4byte	.LFE107
 16689 0168 00000000 		.4byte	.LFB108
ARM GAS  C:\Users\RECEPC~1\AppData\Local\Temp\ccZZcwiB.s 			page 343


 16690 016c 48000000 		.4byte	.LFE108
 16691 0170 00000000 		.4byte	0
 16692 0174 00000000 		.4byte	0
 16693              		.section	.debug_line,"",%progbits
 16694              	.Ldebug_line0:
 16695 0000 B50D0000 		.section	.debug_str,"MS",%progbits,1
 16695      02000402 
 16695      00000201 
 16695      FB0E0D00 
 16695      01010101 
 16696              	.LASF460:
 16697 0000 5F707269 		.ascii	"_printerportside2\000"
 16697      6E746572 
 16697      706F7274 
 16697      73696465 
 16697      3200
 16698              	.LASF362:
 16699 0012 5F706F73 		.ascii	"_positionoffset\000"
 16699      6974696F 
 16699      6E6F6666 
 16699      73657400 
 16700              	.LASF277:
 16701 0022 5F70756D 		.ascii	"_pumprftransstate\000"
 16701      70726674 
 16701      72616E73 
 16701      73746174 
 16701      6500
 16702              	.LASF480:
 16703 0034 7070756D 		.ascii	"ppump\000"
 16703      7000
 16704              	.LASF357:
 16705 003a 5F766F6C 		.ascii	"_volumeunit\000"
 16705      756D6575 
 16705      6E697400 
 16706              	.LASF186:
 16707 0046 44495350 		.ascii	"DISPLAY1\000"
 16707      4C415931 
 16707      00
 16708              	.LASF187:
 16709 004f 44495350 		.ascii	"DISPLAY2\000"
 16709      4C415932 
 16709      00
 16710              	.LASF92:
 16711 0058 5F53494E 		.ascii	"_SINK_MESSAGE_\000"
 16711      4B5F4D45 
 16711      53534147 
 16711      455F00
 16712              	.LASF364:
 16713 0067 504E4541 		.ascii	"PNEARDISPENSERACTIVATEPROGRAMMING\000"
 16713      52444953 
 16713      50454E53 
 16713      45524143 
 16713      54495641 
 16714              	.LASF305:
 16715 0089 52657370 		.ascii	"ResponseSizeResolver\000"
 16715      6F6E7365 
 16715      53697A65 
ARM GAS  C:\Users\RECEPC~1\AppData\Local\Temp\ccZZcwiB.s 			page 344


 16715      5265736F 
 16715      6C766572 
 16716              	.LASF327:
 16717 009e 5F726570 		.ascii	"_repushtimeoutmultiplier\000"
 16717      75736874 
 16717      696D656F 
 16717      75746D75 
 16717      6C746970 
 16718              	.LASF22:
 16719 00b7 73697A65 		.ascii	"sizetype\000"
 16719      74797065 
 16719      00
 16720              	.LASF476:
 16721 00c0 50726F63 		.ascii	"ProcessPumpTotalsDataPpuCheck\000"
 16721      65737350 
 16721      756D7054 
 16721      6F74616C 
 16721      73446174 
 16722              	.LASF62:
 16723 00de 44495350 		.ascii	"DISPENSER_ACQUIRE_PUMP_STATE\000"
 16723      454E5345 
 16723      525F4143 
 16723      51554952 
 16723      455F5055 
 16724              	.LASF119:
 16725 00fb 5F6D6573 		.ascii	"_messagelength\000"
 16725      73616765 
 16725      6C656E67 
 16725      746800
 16726              	.LASF317:
 16727 010a 5F50554D 		.ascii	"_PUMP_TRANSACTION_\000"
 16727      505F5452 
 16727      414E5341 
 16727      4354494F 
 16727      4E5F00
 16728              	.LASF195:
 16729 011d 50554D50 		.ascii	"PUMP_AUTHORIZATION\000"
 16729      5F415554 
 16729      484F5249 
 16729      5A415449 
 16729      4F4E00
 16730              	.LASF449:
 16731 0130 52465F43 		.ascii	"RF_CREDITSALEREPORT\000"
 16731      52454449 
 16731      5453414C 
 16731      45524550 
 16731      4F525400 
 16732              	.LASF141:
 16733 0144 44495350 		.ascii	"DISPLAY_SUBA_MANIJA\000"
 16733      4C41595F 
 16733      53554241 
 16733      5F4D414E 
 16733      494A4100 
 16734              	.LASF366:
 16735 0158 45455052 		.ascii	"EEPROM_CONFIGURATION_PAGE0\000"
 16735      4F4D5F43 
 16735      4F4E4649 
ARM GAS  C:\Users\RECEPC~1\AppData\Local\Temp\ccZZcwiB.s 			page 345


 16735      47555241 
 16735      54494F4E 
 16736              	.LASF37:
 16737 0173 53494E4B 		.ascii	"SINK_BUSY\000"
 16737      5F425553 
 16737      5900
 16738              	.LASF368:
 16739 017d 45455052 		.ascii	"EEPROM_CONFIGURATION_PAGE2\000"
 16739      4F4D5F43 
 16739      4F4E4649 
 16739      47555241 
 16739      54494F4E 
 16740              	.LASF369:
 16741 0198 45455052 		.ascii	"EEPROM_CONFIGURATION_PAGE3\000"
 16741      4F4D5F43 
 16741      4F4E4649 
 16741      47555241 
 16741      54494F4E 
 16742              	.LASF370:
 16743 01b3 45455052 		.ascii	"EEPROM_CONFIGURATION_PAGE4\000"
 16743      4F4D5F43 
 16743      4F4E4649 
 16743      47555241 
 16743      54494F4E 
 16744              	.LASF371:
 16745 01ce 45455052 		.ascii	"EEPROM_CONFIGURATION_PAGE5\000"
 16745      4F4D5F43 
 16745      4F4E4649 
 16745      47555241 
 16745      54494F4E 
 16746              	.LASF372:
 16747 01e9 45455052 		.ascii	"EEPROM_CONFIGURATION_PAGE6\000"
 16747      4F4D5F43 
 16747      4F4E4649 
 16747      47555241 
 16747      54494F4E 
 16748              	.LASF373:
 16749 0204 45455052 		.ascii	"EEPROM_CONFIGURATION_PAGE7\000"
 16749      4F4D5F43 
 16749      4F4E4649 
 16749      47555241 
 16749      54494F4E 
 16750              	.LASF57:
 16751 021f 53494E4B 		.ascii	"SINK_RELEASE_BY_ID\000"
 16751      5F52454C 
 16751      45415345 
 16751      5F42595F 
 16751      494400
 16752              	.LASF125:
 16753 0232 55415254 		.ascii	"UART_RF\000"
 16753      5F524600 
 16754              	.LASF12:
 16755 023a 696E7433 		.ascii	"int32_t\000"
 16755      325F7400 
 16756              	.LASF336:
 16757 0242 5F50554D 		.ascii	"_PUMP_JOB_QUEUE_\000"
 16757      505F4A4F 
ARM GAS  C:\Users\RECEPC~1\AppData\Local\Temp\ccZZcwiB.s 			page 346


 16757      425F5155 
 16757      4555455F 
 16757      00
 16758              	.LASF319:
 16759 0253 5F6A6F62 		.ascii	"_jobs\000"
 16759      7300
 16760              	.LASF285:
 16761 0259 5F727862 		.ascii	"_rxbuffersize\000"
 16761      75666665 
 16761      7273697A 
 16761      6500
 16762              	.LASF87:
 16763 0267 49425554 		.ascii	"IBUTTON1_SCAN\000"
 16763      544F4E31 
 16763      5F534341 
 16763      4E00
 16764              	.LASF211:
 16765 0275 50554D50 		.ascii	"PUMP_AUTHORIZED\000"
 16765      5F415554 
 16765      484F5249 
 16765      5A454400 
 16766              	.LASF55:
 16767 0285 55415254 		.ascii	"UART_RF_AUTONOMOUS_MONITOR\000"
 16767      5F52465F 
 16767      4155544F 
 16767      4E4F4D4F 
 16767      55535F4D 
 16768              	.LASF408:
 16769 02a0 52465F4D 		.ascii	"RF_MUX_CREDIT_SERIAL_AUTH_REQUEST\000"
 16769      55585F43 
 16769      52454449 
 16769      545F5345 
 16769      5249414C 
 16770              	.LASF549:
 16771 02c2 5F675F64 		.ascii	"_g_dispenserlayoutinfo\000"
 16771      69737065 
 16771      6E736572 
 16771      6C61796F 
 16771      7574696E 
 16772              	.LASF15:
 16773 02d9 75696E74 		.ascii	"uint32\000"
 16773      333200
 16774              	.LASF240:
 16775 02e0 5F737461 		.ascii	"_state\000"
 16775      746500
 16776              	.LASF346:
 16777 02e7 50756D70 		.ascii	"PumpJobQueue\000"
 16777      4A6F6251 
 16777      75657565 
 16777      00
 16778              	.LASF503:
 16779 02f4 50756D70 		.ascii	"PumpStopRequest\000"
 16779      53746F70 
 16779      52657175 
 16779      65737400 
 16780              	.LASF401:
 16781 0304 45455052 		.ascii	"EEPROM_DISPENSER_PUMP34_TRANSACTION_PAGE\000"
ARM GAS  C:\Users\RECEPC~1\AppData\Local\Temp\ccZZcwiB.s 			page 347


 16781      4F4D5F44 
 16781      49535045 
 16781      4E534552 
 16781      5F50554D 
 16782              	.LASF217:
 16783 032d 50554D50 		.ascii	"PUMP_UNKNOWN\000"
 16783      5F554E4B 
 16783      4E4F574E 
 16783      00
 16784              	.LASF201:
 16785 033a 50554D50 		.ascii	"PUMP_REAL_TIME_HOSE_VOLUME_REQUEST\000"
 16785      5F524541 
 16785      4C5F5449 
 16785      4D455F48 
 16785      4F53455F 
 16786              	.LASF80:
 16787 035d 44495350 		.ascii	"DISPLAY1_MESSAGE\000"
 16787      4C415931 
 16787      5F4D4553 
 16787      53414745 
 16787      00
 16788              	.LASF493:
 16789 036e 50756D70 		.ascii	"PumpPresetNoHose\000"
 16789      50726573 
 16789      65744E6F 
 16789      486F7365 
 16789      00
 16790              	.LASF63:
 16791 037f 44495350 		.ascii	"DISPENSER_UNLOCK_EOT_PUMPS\000"
 16791      454E5345 
 16791      525F554E 
 16791      4C4F434B 
 16791      5F454F54 
 16792              	.LASF97:
 16793 039a 53746F70 		.ascii	"Stop\000"
 16793      00
 16794              	.LASF113:
 16795 039f 55415254 		.ascii	"UARTManager\000"
 16795      4D616E61 
 16795      67657200 
 16796              	.LASF443:
 16797 03ab 5F52465F 		.ascii	"_RF_STATES_\000"
 16797      53544154 
 16797      45535F00 
 16798              	.LASF487:
 16799 03b7 50756D70 		.ascii	"PumpTotalsDataRequest\000"
 16799      546F7461 
 16799      6C734461 
 16799      74615265 
 16799      71756573 
 16800              	.LASF237:
 16801 03cd 5F50554D 		.ascii	"_PUMP_TRANS_HEALTH_\000"
 16801      505F5452 
 16801      414E535F 
 16801      4845414C 
 16801      54485F00 
 16802              	.LASF193:
ARM GAS  C:\Users\RECEPC~1\AppData\Local\Temp\ccZZcwiB.s 			page 348


 16803 03e1 5F434F4D 		.ascii	"_COMMAND_ID_\000"
 16803      4D414E44 
 16803      5F49445F 
 16803      00
 16804              	.LASF456:
 16805 03ee 5F74696D 		.ascii	"_timeouttoreceive\000"
 16805      656F7574 
 16805      746F7265 
 16805      63656976 
 16805      6500
 16806              	.LASF171:
 16807 0400 44495350 		.ascii	"DISPLAY_ABRIR_TURNO\000"
 16807      4C41595F 
 16807      41425249 
 16807      525F5455 
 16807      524E4F00 
 16808              	.LASF367:
 16809 0414 45455052 		.ascii	"EEPROM_CONFIGURATION_PAGE1\000"
 16809      4F4D5F43 
 16809      4F4E4649 
 16809      47555241 
 16809      54494F4E 
 16810              	.LASF444:
 16811 042f 52465F49 		.ascii	"RF_IDLE\000"
 16811      444C4500 
 16812              	.LASF484:
 16813 0437 50756D70 		.ascii	"PumpStateRequest\000"
 16813      53746174 
 16813      65526571 
 16813      75657374 
 16813      00
 16814              	.LASF160:
 16815 0448 44495350 		.ascii	"DISPLAY_CONFIGURACIONES\000"
 16815      4C41595F 
 16815      434F4E46 
 16815      49475552 
 16815      4143494F 
 16816              	.LASF120:
 16817 0460 5F6D6573 		.ascii	"_messagetx\000"
 16817      73616765 
 16817      747800
 16818              	.LASF313:
 16819 046b 5F706F73 		.ascii	"_postconditions\000"
 16819      74636F6E 
 16819      64697469 
 16819      6F6E7300 
 16820              	.LASF473:
 16821 047b 64617461 		.ascii	"dataok\000"
 16821      6F6B00
 16822              	.LASF404:
 16823 0482 45455052 		.ascii	"EEPROM_DISPENSER_PUMP43_TRANSACTION_PAGE\000"
 16823      4F4D5F44 
 16823      49535045 
 16823      4E534552 
 16823      5F50554D 
 16824              	.LASF20:
 16825 04ab 63686172 		.ascii	"char8\000"
ARM GAS  C:\Users\RECEPC~1\AppData\Local\Temp\ccZZcwiB.s 			page 349


 16825      3800
 16826              	.LASF90:
 16827 04b1 544F4747 		.ascii	"TOGGLE_SCREEN_AND_WRITE_TEST\000"
 16827      4C455F53 
 16827      43524545 
 16827      4E5F414E 
 16827      445F5752 
 16828              	.LASF70:
 16829 04ce 44495350 		.ascii	"DISPENSER_ACQUIRE_TOTALS\000"
 16829      454E5345 
 16829      525F4143 
 16829      51554952 
 16829      455F544F 
 16830              	.LASF58:
 16831 04e7 53494E4B 		.ascii	"SINK_RELEASE_BY_PTR\000"
 16831      5F52454C 
 16831      45415345 
 16831      5F42595F 
 16831      50545200 
 16832              	.LASF286:
 16833 04fb 5F747261 		.ascii	"_transqueue\000"
 16833      6E737175 
 16833      65756500 
 16834              	.LASF463:
 16835 0507 70726576 		.ascii	"prevstate\000"
 16835      73746174 
 16835      6500
 16836              	.LASF378:
 16837 0511 45455052 		.ascii	"EEPROM_DISPENSER_PUMP1_PRODUCT_NAMES_PAGE\000"
 16837      4F4D5F44 
 16837      49535045 
 16837      4E534552 
 16837      5F50554D 
 16838              	.LASF536:
 16839 053b 5465726D 		.ascii	"TerminateTransaction\000"
 16839      696E6174 
 16839      65547261 
 16839      6E736163 
 16839      74696F6E 
 16840              	.LASF452:
 16841 0550 52465F41 		.ascii	"RF_AUTONOMOUS\000"
 16841      55544F4E 
 16841      4F4D4F55 
 16841      5300
 16842              	.LASF314:
 16843 055e 496E6974 		.ascii	"Initialization\000"
 16843      69616C69 
 16843      7A617469 
 16843      6F6E00
 16844              	.LASF258:
 16845 056d 5F707265 		.ascii	"_presettype\000"
 16845      73657474 
 16845      79706500 
 16846              	.LASF547:
 16847 0579 5F675F70 		.ascii	"_g_pumpjobqueue\000"
 16847      756D706A 
 16847      6F627175 
ARM GAS  C:\Users\RECEPC~1\AppData\Local\Temp\ccZZcwiB.s 			page 350


 16847      65756500 
 16848              	.LASF397:
 16849 0589 45455052 		.ascii	"EEPROM_DISPENSER_PUMP24_TRANSACTION_PAGE\000"
 16849      4F4D5F44 
 16849      49535045 
 16849      4E534552 
 16849      5F50554D 
 16850              	.LASF74:
 16851 05b2 5052494E 		.ascii	"PRINTER21_JOB\000"
 16851      54455232 
 16851      315F4A4F 
 16851      4200
 16852              	.LASF222:
 16853 05c0 5F50554D 		.ascii	"_PUMP_FILL_CREDIT_\000"
 16853      505F4649 
 16853      4C4C5F43 
 16853      52454449 
 16853      545F00
 16854              	.LASF16:
 16855 05d3 696E7438 		.ascii	"int8\000"
 16855      00
 16856              	.LASF439:
 16857 05d8 52465F4D 		.ascii	"RF_MUX_ISLAND_OPER_DATA_RESPONSE\000"
 16857      55585F49 
 16857      534C414E 
 16857      445F4F50 
 16857      45525F44 
 16858              	.LASF454:
 16859 05f9 5F746F61 		.ascii	"_toautonomoustimetoken\000"
 16859      75746F6E 
 16859      6F6D6F75 
 16859      7374696D 
 16859      65746F6B 
 16860              	.LASF469:
 16861 0610 7374726D 		.ascii	"strmlrc\000"
 16861      6C726300 
 16862              	.LASF374:
 16863 0618 45455052 		.ascii	"EEPROM_DISPENSER_PUMP1_LAYOUT_PAGE\000"
 16863      4F4D5F44 
 16863      49535045 
 16863      4E534552 
 16863      5F50554D 
 16864              	.LASF292:
 16865 063b 50756D70 		.ascii	"PumpTransQueueDeallocate\000"
 16865      5472616E 
 16865      73517565 
 16865      75654465 
 16865      616C6C6F 
 16866              	.LASF200:
 16867 0654 50554D50 		.ascii	"PUMP_REAL_TIME_MONEY_REQUEST\000"
 16867      5F524541 
 16867      4C5F5449 
 16867      4D455F4D 
 16867      4F4E4559 
 16868              	.LASF427:
 16869 0671 52465F4D 		.ascii	"RF_MUX_CREDIT_SALE_PRINT_RESPONSE\000"
 16869      55585F43 
ARM GAS  C:\Users\RECEPC~1\AppData\Local\Temp\ccZZcwiB.s 			page 351


 16869      52454449 
 16869      545F5341 
 16869      4C455F50 
 16870              	.LASF114:
 16871 0693 5F554152 		.ascii	"_UART_MESSAGE_STATE_\000"
 16871      545F4D45 
 16871      53534147 
 16871      455F5354 
 16871      4154455F 
 16872              	.LASF437:
 16873 06a8 52465F4D 		.ascii	"RF_MUX_POSITION_CFG_RESPONSE\000"
 16873      55585F50 
 16873      4F534954 
 16873      494F4E5F 
 16873      4346475F 
 16874              	.LASF4:
 16875 06c5 5F5F7569 		.ascii	"__uint8_t\000"
 16875      6E74385F 
 16875      7400
 16876              	.LASF400:
 16877 06cf 45455052 		.ascii	"EEPROM_DISPENSER_PUMP33_TRANSACTION_PAGE\000"
 16877      4F4D5F44 
 16877      49535045 
 16877      4E534552 
 16877      5F50554D 
 16878              	.LASF499:
 16879 06f8 50756D70 		.ascii	"PumpPpuChange\000"
 16879      50707543 
 16879      68616E67 
 16879      6500
 16880              	.LASF138:
 16881 0706 44495350 		.ascii	"DISPLAY_INTRODUZCA_VALOR2\000"
 16881      4C41595F 
 16881      494E5452 
 16881      4F44555A 
 16881      43415F56 
 16882              	.LASF470:
 16883 0720 6C6F6361 		.ascii	"locallrc\000"
 16883      6C6C7263 
 16883      00
 16884              	.LASF178:
 16885 0729 44495350 		.ascii	"DISPLAY_IDENTIFICADOR_ESTACION\000"
 16885      4C41595F 
 16885      4944454E 
 16885      54494649 
 16885      4341444F 
 16886              	.LASF82:
 16887 0748 44495350 		.ascii	"DISPLAY1_ANIMATE_HOME\000"
 16887      4C415931 
 16887      5F414E49 
 16887      4D415445 
 16887      5F484F4D 
 16888              	.LASF46:
 16889 075e 5F627566 		.ascii	"_buffer\000"
 16889      66657200 
 16890              	.LASF441:
 16891 0766 52465F4D 		.ascii	"RF_MUX_ISLAND_ADMIN_RESPONSE\000"
ARM GAS  C:\Users\RECEPC~1\AppData\Local\Temp\ccZZcwiB.s 			page 352


 16891      55585F49 
 16891      534C414E 
 16891      445F4144 
 16891      4D494E5F 
 16892              	.LASF393:
 16893 0783 45455052 		.ascii	"EEPROM_DISPENSER_PUMP14_TRANSACTION_PAGE\000"
 16893      4F4D5F44 
 16893      49535045 
 16893      4E534552 
 16893      5F50554D 
 16894              	.LASF52:
 16895 07ac 5F53494E 		.ascii	"_SINK_OBSERVABLES_\000"
 16895      4B5F4F42 
 16895      53455256 
 16895      41424C45 
 16895      535F00
 16896              	.LASF330:
 16897 07bf 5F74696D 		.ascii	"_timeoutmultiplier\000"
 16897      656F7574 
 16897      6D756C74 
 16897      69706C69 
 16897      657200
 16898              	.LASF225:
 16899 07d2 5F50554D 		.ascii	"_PUMP_TOTALS_\000"
 16899      505F544F 
 16899      54414C53 
 16899      5F00
 16900              	.LASF365:
 16901 07e0 5F454550 		.ascii	"_EEPROM_MEM_FORMAT_\000"
 16901      524F4D5F 
 16901      4D454D5F 
 16901      464F524D 
 16901      41545F00 
 16902              	.LASF19:
 16903 07f4 75696E74 		.ascii	"uint64\000"
 16903      363400
 16904              	.LASF6:
 16905 07fb 6C6F6E67 		.ascii	"long int\000"
 16905      20696E74 
 16905      00
 16906              	.LASF275:
 16907 0804 5F726F75 		.ascii	"_roundrobinstate\000"
 16907      6E64726F 
 16907      62696E73 
 16907      74617465 
 16907      00
 16908              	.LASF268:
 16909 0815 5F70756D 		.ascii	"_pumpstate\000"
 16909      70737461 
 16909      746500
 16910              	.LASF131:
 16911 0820 5F415641 		.ascii	"_AVAILABLE_DISPLAYS_\000"
 16911      494C4142 
 16911      4C455F44 
 16911      4953504C 
 16911      4159535F 
 16912              	.LASF44:
ARM GAS  C:\Users\RECEPC~1\AppData\Local\Temp\ccZZcwiB.s 			page 353


 16913 0835 5F6D6573 		.ascii	"_messagetimeoutmultiplier\000"
 16913      73616765 
 16913      74696D65 
 16913      6F75746D 
 16913      756C7469 
 16914              	.LASF492:
 16915 084f 50756D70 		.ascii	"PumpPresetHose\000"
 16915      50726573 
 16915      6574486F 
 16915      736500
 16916              	.LASF519:
 16917 085e 50756D70 		.ascii	"PumpEnumeratorRequest\000"
 16917      456E756D 
 16917      65726174 
 16917      6F725265 
 16917      71756573 
 16918              	.LASF67:
 16919 0874 44495350 		.ascii	"DISPENSER_CONFIGURE_PRICES\000"
 16919      454E5345 
 16919      525F434F 
 16919      4E464947 
 16919      5552455F 
 16920              	.LASF375:
 16921 088f 45455052 		.ascii	"EEPROM_DISPENSER_PUMP2_LAYOUT_PAGE\000"
 16921      4F4D5F44 
 16921      49535045 
 16921      4E534552 
 16921      5F50554D 
 16922              	.LASF382:
 16923 08b2 45455052 		.ascii	"EEPROM_DISPENSER_PUMP1_PPU_INFO_PAGE\000"
 16923      4F4D5F44 
 16923      49535045 
 16923      4E534552 
 16923      5F50554D 
 16924              	.LASF451:
 16925 08d7 5F52465F 		.ascii	"_RF_AUTONOMOUS_MODE_\000"
 16925      4155544F 
 16925      4E4F4D4F 
 16925      55535F4D 
 16925      4F44455F 
 16926              	.LASF128:
 16927 08ec 55415254 		.ascii	"UART_DISPLAY1\000"
 16927      5F444953 
 16927      504C4159 
 16927      3100
 16928              	.LASF129:
 16929 08fa 55415254 		.ascii	"UART_DISPLAY2\000"
 16929      5F444953 
 16929      504C4159 
 16929      3200
 16930              	.LASF228:
 16931 0908 5F50554D 		.ascii	"_PUMP_NETWORK_ENUMERATOR_\000"
 16931      505F4E45 
 16931      54574F52 
 16931      4B5F454E 
 16931      554D4552 
 16932              	.LASF339:
ARM GAS  C:\Users\RECEPC~1\AppData\Local\Temp\ccZZcwiB.s 			page 354


 16933 0922 5F706A6F 		.ascii	"_pjobqueueallocated\000"
 16933      62717565 
 16933      7565616C 
 16933      6C6F6361 
 16933      74656400 
 16934              	.LASF158:
 16935 0936 44495350 		.ascii	"DISPLAY_INTRODUZCA_KILOMETRAJE\000"
 16935      4C41595F 
 16935      494E5452 
 16935      4F44555A 
 16935      43415F4B 
 16936              	.LASF413:
 16937 0955 52465F4D 		.ascii	"RF_MUX_CREDIT_PRESET_NOTIFICATION_RESPONSE\000"
 16937      55585F43 
 16937      52454449 
 16937      545F5052 
 16937      45534554 
 16938              	.LASF85:
 16939 0980 44495350 		.ascii	"DISPLAY2_UPDATE_DATETIME\000"
 16939      4C415932 
 16939      5F555044 
 16939      4154455F 
 16939      44415445 
 16940              	.LASF235:
 16941 0999 5F50554D 		.ascii	"_PUMP_IDLE_\000"
 16941      505F4944 
 16941      4C455F00 
 16942              	.LASF77:
 16943 09a5 5052494E 		.ascii	"PRINTER2_GENERIC_JOB\000"
 16943      54455232 
 16943      5F47454E 
 16943      45524943 
 16943      5F4A4F42 
 16944              	.LASF164:
 16945 09ba 44495350 		.ascii	"DISPLAY_POR_FAVOR_ESPERE\000"
 16945      4C41595F 
 16945      504F525F 
 16945      4641564F 
 16945      525F4553 
 16946              	.LASF406:
 16947 09d3 52465F4D 		.ascii	"RF_MUX_STATE_REQUEST\000"
 16947      55585F53 
 16947      54415445 
 16947      5F524551 
 16947      55455354 
 16948              	.LASF412:
 16949 09e8 52465F4D 		.ascii	"RF_MUX_CREDIT_PRESET_NOTIFICATION_REQUEST\000"
 16949      55585F43 
 16949      52454449 
 16949      545F5052 
 16949      45534554 
 16950              	.LASF169:
 16951 0a12 44495350 		.ascii	"DISPLAY_FECHA\000"
 16951      4C41595F 
 16951      46454348 
 16951      4100
 16952              	.LASF321:
ARM GAS  C:\Users\RECEPC~1\AppData\Local\Temp\ccZZcwiB.s 			page 355


 16953 0a20 5F726565 		.ascii	"_reenqueue\000"
 16953      6E717565 
 16953      756500
 16954              	.LASF498:
 16955 0a2b 50756D70 		.ascii	"PumpFullPresetNoHose\000"
 16955      46756C6C 
 16955      50726573 
 16955      65744E6F 
 16955      486F7365 
 16956              	.LASF316:
 16957 0a40 50756D70 		.ascii	"PumpTransactionJob\000"
 16957      5472616E 
 16957      73616374 
 16957      696F6E4A 
 16957      6F6200
 16958              	.LASF0:
 16959 0a53 7369676E 		.ascii	"signed char\000"
 16959      65642063 
 16959      68617200 
 16960              	.LASF11:
 16961 0a5f 75696E74 		.ascii	"uint8_t\000"
 16961      385F7400 
 16962              	.LASF483:
 16963 0a67 50756D70 		.ascii	"PumpStartupAuthorization\000"
 16963      53746172 
 16963      74757041 
 16963      7574686F 
 16963      72697A61 
 16964              	.LASF152:
 16965 0a80 44495350 		.ascii	"DISPLAY_ID_DIGITAL\000"
 16965      4C41595F 
 16965      49445F44 
 16965      49474954 
 16965      414C00
 16966              	.LASF150:
 16967 0a93 44495350 		.ascii	"DISPLAY_TIEMPO_EXPIRADO\000"
 16967      4C41595F 
 16967      5449454D 
 16967      504F5F45 
 16967      58504952 
 16968              	.LASF533:
 16969 0aab 5F706275 		.ascii	"_pbuffer\000"
 16969      66666572 
 16969      00
 16970              	.LASF105:
 16971 0ab4 436C6561 		.ascii	"ClearRxBuffer\000"
 16971      72527842 
 16971      75666665 
 16971      7200
 16972              	.LASF102:
 16973 0ac2 47657443 		.ascii	"GetChar\000"
 16973      68617200 
 16974              	.LASF407:
 16975 0aca 52465F4D 		.ascii	"RF_MUX_STATE_RESPONSE\000"
 16975      55585F53 
 16975      54415445 
 16975      5F524553 
ARM GAS  C:\Users\RECEPC~1\AppData\Local\Temp\ccZZcwiB.s 			page 356


 16975      504F4E53 
 16976              	.LASF303:
 16977 0ae0 52657370 		.ascii	"Response\000"
 16977      6F6E7365 
 16977      00
 16978              	.LASF392:
 16979 0ae9 45455052 		.ascii	"EEPROM_DISPENSER_PUMP13_TRANSACTION_PAGE\000"
 16979      4F4D5F44 
 16979      49535045 
 16979      4E534552 
 16979      5F50554D 
 16980              	.LASF174:
 16981 0b12 44495350 		.ascii	"DISPLAY_USUARIO_VALIDO\000"
 16981      4C41595F 
 16981      55535541 
 16981      52494F5F 
 16981      56414C49 
 16982              	.LASF172:
 16983 0b29 44495350 		.ascii	"DISPLAY_CERRAR_TURNO\000"
 16983      4C41595F 
 16983      43455252 
 16983      41525F54 
 16983      55524E4F 
 16984              	.LASF332:
 16985 0b3e 5F707265 		.ascii	"_presponse\000"
 16985      73706F6E 
 16985      736500
 16986              	.LASF161:
 16987 0b49 44495350 		.ascii	"DISPLAY_SELECCIONE_POSICION\000"
 16987      4C41595F 
 16987      53454C45 
 16987      4343494F 
 16987      4E455F50 
 16988              	.LASF117:
 16989 0b65 50454E44 		.ascii	"PENDING\000"
 16989      494E4700 
 16990              	.LASF81:
 16991 0b6d 44495350 		.ascii	"DISPLAY1_UPDATE_DATETIME\000"
 16991      4C415931 
 16991      5F555044 
 16991      4154455F 
 16991      44415445 
 16992              	.LASF361:
 16993 0b86 5F707265 		.ascii	"_presetdigits\000"
 16993      73657464 
 16993      69676974 
 16993      7300
 16994              	.LASF206:
 16995 0b94 4C52436E 		.ascii	"LRCn\000"
 16995      00
 16996              	.LASF1:
 16997 0b99 756E7369 		.ascii	"unsigned char\000"
 16997      676E6564 
 16997      20636861 
 16997      7200
 16998              	.LASF349:
 16999 0ba7 5F6E756D 		.ascii	"_numpositions\000"
ARM GAS  C:\Users\RECEPC~1\AppData\Local\Temp\ccZZcwiB.s 			page 357


 16999      706F7369 
 16999      74696F6E 
 16999      7300
 17000              	.LASF137:
 17001 0bb5 44495350 		.ascii	"DISPLAY_INTRODUZCA_VALOR\000"
 17001      4C41595F 
 17001      494E5452 
 17001      4F44555A 
 17001      43415F56 
 17002              	.LASF414:
 17003 0bce 52465F4D 		.ascii	"RF_MUX_CASH_SALE_START_REQUEST\000"
 17003      55585F43 
 17003      4153485F 
 17003      53414C45 
 17003      5F535441 
 17004              	.LASF531:
 17005 0bed 706A6F62 		.ascii	"pjobcntr\000"
 17005      636E7472 
 17005      00
 17006              	.LASF263:
 17007 0bf6 5F736572 		.ascii	"_serial\000"
 17007      69616C00 
 17008              	.LASF163:
 17009 0bfe 44495350 		.ascii	"DISPLAY_ESPERANDO_AUTORIZACION\000"
 17009      4C41595F 
 17009      45535045 
 17009      52414E44 
 17009      4F5F4155 
 17010              	.LASF523:
 17011 0c1d 50756D70 		.ascii	"PumpEnumeratorTimeout\000"
 17011      456E756D 
 17011      65726174 
 17011      6F725469 
 17011      6D656F75 
 17012              	.LASF482:
 17013 0c33 70756172 		.ascii	"puartdisp\000"
 17013      74646973 
 17013      7000
 17014              	.LASF115:
 17015 0c3d 46524545 		.ascii	"FREE\000"
 17015      00
 17016              	.LASF448:
 17017 0c42 52465F57 		.ascii	"RF_WORKSHIFTREQ\000"
 17017      4F524B53 
 17017      48494654 
 17017      52455100 
 17018              	.LASF320:
 17019 0c52 50756D70 		.ascii	"PumpTransaction\000"
 17019      5472616E 
 17019      73616374 
 17019      696F6E00 
 17020              	.LASF471:
 17021 0c62 65657072 		.ascii	"eeprompage\000"
 17021      6F6D7061 
 17021      676500
 17022              	.LASF66:
 17023 0c6d 44495350 		.ascii	"DISPENSER_ACQUIRE_CONFIGURATION_INFORMATION\000"
ARM GAS  C:\Users\RECEPC~1\AppData\Local\Temp\ccZZcwiB.s 			page 358


 17023      454E5345 
 17023      525F4143 
 17023      51554952 
 17023      455F434F 
 17024              	.LASF42:
 17025 0c99 5F6D6573 		.ascii	"_messagedelay\000"
 17025      73616765 
 17025      64656C61 
 17025      7900
 17026              	.LASF356:
 17027 0ca7 5F766F6C 		.ascii	"_volumedecimals\000"
 17027      756D6564 
 17027      6563696D 
 17027      616C7300 
 17028              	.LASF50:
 17029 0cb7 5F426F6F 		.ascii	"_Bool\000"
 17029      6C00
 17030              	.LASF351:
 17031 0cbd 5F686F73 		.ascii	"_hosesposition2\000"
 17031      6573706F 
 17031      73697469 
 17031      6F6E3200 
 17032              	.LASF262:
 17033 0ccd 5F766F6C 		.ascii	"_volumeamount\000"
 17033      756D6561 
 17033      6D6F756E 
 17033      7400
 17034              	.LASF538:
 17035 0cdb 43617374 		.ascii	"CastVolumeValue\000"
 17035      566F6C75 
 17035      6D655661 
 17035      6C756500 
 17036              	.LASF106:
 17037 0ceb 57726974 		.ascii	"WriteTxData\000"
 17037      65547844 
 17037      61746100 
 17038              	.LASF36:
 17039 0cf7 53494E4B 		.ascii	"SINK_ALLOCATED\000"
 17039      5F414C4C 
 17039      4F434154 
 17039      454400
 17040              	.LASF343:
 17041 0d06 5065656B 		.ascii	"Peek\000"
 17041      00
 17042              	.LASF294:
 17043 0d0b 50756D70 		.ascii	"PumpTransQueueDequeue\000"
 17043      5472616E 
 17043      73517565 
 17043      75654465 
 17043      71756575 
 17044              	.LASF21:
 17045 0d21 63686172 		.ascii	"char\000"
 17045      00
 17046              	.LASF433:
 17047 0d26 52465F4D 		.ascii	"RF_MUX_LAST_CASH_SALE_RESPONSE\000"
 17047      55585F4C 
 17047      4153545F 
ARM GAS  C:\Users\RECEPC~1\AppData\Local\Temp\ccZZcwiB.s 			page 359


 17047      43415348 
 17047      5F53414C 
 17048              	.LASF426:
 17049 0d45 52465F4D 		.ascii	"RF_MUX_CREDIT_SALE_PRINT_REQUEST\000"
 17049      55585F43 
 17049      52454449 
 17049      545F5341 
 17049      4C455F50 
 17050              	.LASF176:
 17051 0d66 44495350 		.ascii	"DISPLAY_AMBAS_IMPRESORAS_FUNCIONANDO\000"
 17051      4C41595F 
 17051      414D4241 
 17051      535F494D 
 17051      50524553 
 17052              	.LASF31:
 17053 0d8b 42524F41 		.ascii	"BROADCASTFOREVER\000"
 17053      44434153 
 17053      54464F52 
 17053      45564552 
 17053      00
 17054              	.LASF84:
 17055 0d9c 44495350 		.ascii	"DISPLAY2_MESSAGE\000"
 17055      4C415932 
 17055      5F4D4553 
 17055      53414745 
 17055      00
 17056              	.LASF205:
 17057 0dad 5052446E 		.ascii	"PRDn\000"
 17057      00
 17058              	.LASF488:
 17059 0db2 50756D70 		.ascii	"PumpDataToPump\000"
 17059      44617461 
 17059      546F5075 
 17059      6D7000
 17060              	.LASF310:
 17061 0dc1 5F6F6E65 		.ascii	"_oneshotpreconditions\000"
 17061      73686F74 
 17061      70726563 
 17061      6F6E6469 
 17061      74696F6E 
 17062              	.LASF126:
 17063 0dd7 55415254 		.ascii	"UART_PRINTER\000"
 17063      5F505249 
 17063      4E544552 
 17063      00
 17064              	.LASF379:
 17065 0de4 45455052 		.ascii	"EEPROM_DISPENSER_PUMP2_PRODUCT_NAMES_PAGE\000"
 17065      4F4D5F44 
 17065      49535045 
 17065      4E534552 
 17065      5F50554D 
 17066              	.LASF354:
 17067 0e0e 5F6D6F6E 		.ascii	"_moneydecimals\000"
 17067      65796465 
 17067      63696D61 
 17067      6C7300
 17068              	.LASF101:
ARM GAS  C:\Users\RECEPC~1\AppData\Local\Temp\ccZZcwiB.s 			page 360


 17069 0e1d 52656164 		.ascii	"ReadRxStatus\000"
 17069      52785374 
 17069      61747573 
 17069      00
 17070              	.LASF188:
 17071 0e2a 50535452 		.ascii	"PSTR\000"
 17071      00
 17072              	.LASF358:
 17073 0e2f 5F6D696E 		.ascii	"_minmoneyvalue\000"
 17073      6D6F6E65 
 17073      7976616C 
 17073      756500
 17074              	.LASF521:
 17075 0e3e 76617230 		.ascii	"var0\000"
 17075      00
 17076              	.LASF276:
 17077 0e43 5F706F73 		.ascii	"_positionlocked\000"
 17077      6974696F 
 17077      6E6C6F63 
 17077      6B656400 
 17078              	.LASF333:
 17079 0e53 5F707075 		.ascii	"_ppump\000"
 17079      6D7000
 17080              	.LASF233:
 17081 0e5a 5F50554D 		.ascii	"_PUMP_TRANS_STATE_\000"
 17081      505F5452 
 17081      414E535F 
 17081      53544154 
 17081      455F00
 17082              	.LASF396:
 17083 0e6d 45455052 		.ascii	"EEPROM_DISPENSER_PUMP23_TRANSACTION_PAGE\000"
 17083      4F4D5F44 
 17083      49535045 
 17083      4E534552 
 17083      5F50554D 
 17084              	.LASF522:
 17085 0e96 76617231 		.ascii	"var1\000"
 17085      00
 17086              	.LASF111:
 17087 0e9b 50757443 		.ascii	"PutCRLF\000"
 17087      524C4600 
 17088              	.LASF516:
 17089 0ea3 70627566 		.ascii	"pbuffer\000"
 17089      66657200 
 17090              	.LASF494:
 17091 0eab 50756D70 		.ascii	"PumpPresetNotification\000"
 17091      50726573 
 17091      65744E6F 
 17091      74696669 
 17091      63617469 
 17092              	.LASF287:
 17093 0ec2 5F747261 		.ascii	"_transqueuelocked\000"
 17093      6E737175 
 17093      6575656C 
 17093      6F636B65 
 17093      6400
 17094              	.LASF506:
ARM GAS  C:\Users\RECEPC~1\AppData\Local\Temp\ccZZcwiB.s 			page 361


 17095 0ed4 41637175 		.ascii	"AcquirePumpCompleteConfiguration\000"
 17095      69726550 
 17095      756D7043 
 17095      6F6D706C 
 17095      65746543 
 17096              	.LASF199:
 17097 0ef5 50554D50 		.ascii	"PUMP_TOTALS_DATA_REQUEST\000"
 17097      5F544F54 
 17097      414C535F 
 17097      44415441 
 17097      5F524551 
 17098              	.LASF212:
 17099 0f0e 50554D50 		.ascii	"PUMP_BUSY\000"
 17099      5F425553 
 17099      5900
 17100              	.LASF143:
 17101 0f18 44495350 		.ascii	"DISPLAY_BAJE_MANIJA\000"
 17101      4C41595F 
 17101      42414A45 
 17101      5F4D414E 
 17101      494A4100 
 17102              	.LASF467:
 17103 0f2c 50726F63 		.ascii	"ProcessPumpRTMoneyRequest\000"
 17103      65737350 
 17103      756D7052 
 17103      544D6F6E 
 17103      65795265 
 17104              	.LASF73:
 17105 0f46 5052494E 		.ascii	"PRINTER12_JOB\000"
 17105      54455231 
 17105      325F4A4F 
 17105      4200
 17106              	.LASF377:
 17107 0f54 45455052 		.ascii	"EEPROM_DISPENSER_PUMP4_LAYOUT_PAGE\000"
 17107      4F4D5F44 
 17107      49535045 
 17107      4E534552 
 17107      5F50554D 
 17108              	.LASF218:
 17109 0f77 5F545241 		.ascii	"_TRANSACTION_NAMES_\000"
 17109      4E534143 
 17109      54494F4E 
 17109      5F4E414D 
 17109      45535F00 
 17110              	.LASF43:
 17111 0f8b 5F6D6573 		.ascii	"_messagetimeout\000"
 17111      73616765 
 17111      74696D65 
 17111      6F757400 
 17112              	.LASF410:
 17113 0f9b 52465F4D 		.ascii	"RF_MUX_CREDIT_PRESET_AUTHORIZATION_REQUEST\000"
 17113      55585F43 
 17113      52454449 
 17113      545F5052 
 17113      45534554 
 17114              	.LASF465:
 17115 0fc6 41637175 		.ascii	"AcquireDatatoPumpResponse\000"
ARM GAS  C:\Users\RECEPC~1\AppData\Local\Temp\ccZZcwiB.s 			page 362


 17115      69726544 
 17115      61746174 
 17115      6F50756D 
 17115      70526573 
 17116              	.LASF136:
 17117 0fe0 44495350 		.ascii	"DISPLAY_FORMA_PROGRAMACION\000"
 17117      4C41595F 
 17117      464F524D 
 17117      415F5052 
 17117      4F475241 
 17118              	.LASF109:
 17119 0ffb 50757453 		.ascii	"PutString\000"
 17119      7472696E 
 17119      6700
 17120              	.LASF231:
 17121 1005 5F50554D 		.ascii	"_PUMP_COMPLETE_CONFIGURATION_\000"
 17121      505F434F 
 17121      4D504C45 
 17121      54455F43 
 17121      4F4E4649 
 17122              	.LASF345:
 17123 1023 436C6561 		.ascii	"Clear\000"
 17123      7200
 17124              	.LASF540:
 17125 1029 73686966 		.ascii	"shiftbydelimiter\000"
 17125      74627964 
 17125      656C696D 
 17125      69746572 
 17125      00
 17126              	.LASF95:
 17127 103a 43757374 		.ascii	"CustomUARTSend\000"
 17127      6F6D5541 
 17127      52545365 
 17127      6E6400
 17128              	.LASF479:
 17129 1049 50756D70 		.ascii	"PumpAuthorization\000"
 17129      41757468 
 17129      6F72697A 
 17129      6174696F 
 17129      6E00
 17130              	.LASF420:
 17131 105b 52465F4D 		.ascii	"RF_MUX_TOTALS_REPORT_REQUEST\000"
 17131      55585F54 
 17131      4F54414C 
 17131      535F5245 
 17131      504F5254 
 17132              	.LASF355:
 17133 1078 5F707075 		.ascii	"_ppudecimals\000"
 17133      64656369 
 17133      6D616C73 
 17133      00
 17134              	.LASF266:
 17135 1085 5F70756D 		.ascii	"_pumpid\000"
 17135      70696400 
 17136              	.LASF514:
 17137 108d 41637175 		.ascii	"AcquireDispenserLayoutInformation\000"
 17137      69726544 
ARM GAS  C:\Users\RECEPC~1\AppData\Local\Temp\ccZZcwiB.s 			page 363


 17137      69737065 
 17137      6E736572 
 17137      4C61796F 
 17138              	.LASF132:
 17139 10af 44495350 		.ascii	"DISPLAY_INICIO0\000"
 17139      4C41595F 
 17139      494E4943 
 17139      494F3000 
 17140              	.LASF133:
 17141 10bf 44495350 		.ascii	"DISPLAY_INICIO1\000"
 17141      4C41595F 
 17141      494E4943 
 17141      494F3100 
 17142              	.LASF134:
 17143 10cf 44495350 		.ascii	"DISPLAY_INICIO2\000"
 17143      4C41595F 
 17143      494E4943 
 17143      494F3200 
 17144              	.LASF29:
 17145 10df 44454C41 		.ascii	"DELAYEDALLINTERESTED\000"
 17145      59454441 
 17145      4C4C494E 
 17145      54455245 
 17145      53544544 
 17146              	.LASF284:
 17147 10f4 5F727862 		.ascii	"_rxbuffer\000"
 17147      75666665 
 17147      7200
 17148              	.LASF308:
 17149 10fe 5F726573 		.ascii	"_responsesize\000"
 17149      706F6E73 
 17149      6573697A 
 17149      6500
 17150              	.LASF340:
 17151 110c 526F7461 		.ascii	"Rotate\000"
 17151      746500
 17152              	.LASF243:
 17153 1113 504E4541 		.ascii	"PNEAR_PUMPTRANSACTIONALSTATEPTR\000"
 17153      525F5055 
 17153      4D505452 
 17153      414E5341 
 17153      4354494F 
 17154              	.LASF175:
 17155 1133 44495350 		.ascii	"DISPLAY_USUARIO_INVALIDO\000"
 17155      4C41595F 
 17155      55535541 
 17155      52494F5F 
 17155      494E5641 
 17156              	.LASF453:
 17157 114c 52465F4E 		.ascii	"RF_NON_AUTONOMOUS\000"
 17157      4F4E5F41 
 17157      55544F4E 
 17157      4F4D4F55 
 17157      5300
 17158              	.LASF530:
 17159 115e 7074726A 		.ascii	"ptrjob\000"
 17159      6F6200
ARM GAS  C:\Users\RECEPC~1\AppData\Local\Temp\ccZZcwiB.s 			page 364


 17160              	.LASF385:
 17161 1165 45455052 		.ascii	"EEPROM_DISPENSER_PUMP4_PPU_INFO_PAGE\000"
 17161      4F4D5F44 
 17161      49535045 
 17161      4E534552 
 17161      5F50554D 
 17162              	.LASF283:
 17163 118a 5F747261 		.ascii	"_trasactionbuffer\000"
 17163      73616374 
 17163      696F6E62 
 17163      75666665 
 17163      7200
 17164              	.LASF534:
 17165 119c 46696E64 		.ascii	"FindLRC\000"
 17165      4C524300 
 17166              	.LASF548:
 17167 11a4 5F675F70 		.ascii	"_g_pumps\000"
 17167      756D7073 
 17167      00
 17168              	.LASF342:
 17169 11ad 456E7175 		.ascii	"Enqueue\000"
 17169      65756500 
 17170              	.LASF513:
 17171 11b5 7073696E 		.ascii	"psinkmsg\000"
 17171      6B6D7367 
 17171      00
 17172              	.LASF500:
 17173 11be 62756666 		.ascii	"bufferlength\000"
 17173      65726C65 
 17173      6E677468 
 17173      00
 17174              	.LASF264:
 17175 11cb 50756D70 		.ascii	"PumpAuthorizationInfo\000"
 17175      41757468 
 17175      6F72697A 
 17175      6174696F 
 17175      6E496E66 
 17176              	.LASF386:
 17177 11e1 45455052 		.ascii	"EEPROM_INSEPET_RESERVED_PAGE1\000"
 17177      4F4D5F49 
 17177      4E534550 
 17177      45545F52 
 17177      45534552 
 17178              	.LASF387:
 17179 11ff 45455052 		.ascii	"EEPROM_INSEPET_RESERVED_PAGE2\000"
 17179      4F4D5F49 
 17179      4E534550 
 17179      45545F52 
 17179      45534552 
 17180              	.LASF388:
 17181 121d 45455052 		.ascii	"EEPROM_INSEPET_RESERVED_PAGE3\000"
 17181      4F4D5F49 
 17181      4E534550 
 17181      45545F52 
 17181      45534552 
 17182              	.LASF389:
 17183 123b 45455052 		.ascii	"EEPROM_INSEPET_RESERVED_PAGE4\000"
ARM GAS  C:\Users\RECEPC~1\AppData\Local\Temp\ccZZcwiB.s 			page 365


 17183      4F4D5F49 
 17183      4E534550 
 17183      45545F52 
 17183      45534552 
 17184              	.LASF280:
 17185 1259 5F727476 		.ascii	"_rtvolumeamount\000"
 17185      6F6C756D 
 17185      65616D6F 
 17185      756E7400 
 17186              	.LASF323:
 17187 1269 5F64656C 		.ascii	"_delay\000"
 17187      617900
 17188              	.LASF381:
 17189 1270 45455052 		.ascii	"EEPROM_DISPENSER_PUMP4_PRODUCT_NAMES_PAGE\000"
 17189      4F4D5F44 
 17189      49535045 
 17189      4E534552 
 17189      5F50554D 
 17190              	.LASF430:
 17191 129a 52465F4D 		.ascii	"RF_MUX_PENDING_CREDIT_SALE_REQUEST\000"
 17191      55585F50 
 17191      454E4449 
 17191      4E475F43 
 17191      52454449 
 17192              	.LASF541:
 17193 12bd 73686966 		.ascii	"shiftcount\000"
 17193      74636F75 
 17193      6E7400
 17194              	.LASF32:
 17195 12c8 414C4C49 		.ascii	"ALLINTERESTEDFOREVER\000"
 17195      4E544552 
 17195      45535445 
 17195      44464F52 
 17195      45564552 
 17196              	.LASF524:
 17197 12dd 41637175 		.ascii	"AcquirePumpSpecialFunctionResponseResolver\000"
 17197      69726550 
 17197      756D7053 
 17197      70656369 
 17197      616C4675 
 17198              	.LASF347:
 17199 1308 5F696E63 		.ascii	"_inconfiguration\000"
 17199      6F6E6669 
 17199      67757261 
 17199      74696F6E 
 17199      00
 17200              	.LASF226:
 17201 1319 5F50554D 		.ascii	"_PUMP_STATE_\000"
 17201      505F5354 
 17201      4154455F 
 17201      00
 17202              	.LASF535:
 17203 1326 496E6974 		.ascii	"InitiateTransaction\000"
 17203      69617465 
 17203      5472616E 
 17203      73616374 
 17203      696F6E00 
ARM GAS  C:\Users\RECEPC~1\AppData\Local\Temp\ccZZcwiB.s 			page 366


 17204              	.LASF7:
 17205 133a 6C6F6E67 		.ascii	"long unsigned int\000"
 17205      20756E73 
 17205      69676E65 
 17205      6420696E 
 17205      7400
 17206              	.LASF232:
 17207 134c 5F50554D 		.ascii	"_PUMP_PROGRAM_MODE_\000"
 17207      505F5052 
 17207      4F475241 
 17207      4D5F4D4F 
 17207      44455F00 
 17208              	.LASF180:
 17209 1360 44495350 		.ascii	"DISPLAY_DUMMY0\000"
 17209      4C41595F 
 17209      44554D4D 
 17209      593000
 17210              	.LASF181:
 17211 136f 44495350 		.ascii	"DISPLAY_DUMMY1\000"
 17211      4C41595F 
 17211      44554D4D 
 17211      593100
 17212              	.LASF182:
 17213 137e 44495350 		.ascii	"DISPLAY_DUMMY2\000"
 17213      4C41595F 
 17213      44554D4D 
 17213      593200
 17214              	.LASF183:
 17215 138d 44495350 		.ascii	"DISPLAY_DUMMY3\000"
 17215      4C41595F 
 17215      44554D4D 
 17215      593300
 17216              	.LASF236:
 17217 139c 5F50554D 		.ascii	"_PUMP_UNKNOWN_\000"
 17217      505F554E 
 17217      4B4E4F57 
 17217      4E5F00
 17218              	.LASF504:
 17219 13ab 50756D70 		.ascii	"PumpStopAllRequest\000"
 17219      53746F70 
 17219      416C6C52 
 17219      65717565 
 17219      737400
 17220              	.LASF464:
 17221 13be 41637175 		.ascii	"AcquirePumpStateResponse\000"
 17221      69726550 
 17221      756D7053 
 17221      74617465 
 17221      52657370 
 17222              	.LASF417:
 17223 13d7 52465F4D 		.ascii	"RF_MUX_CASH_SALE_END_REPORT_RESPONSE\000"
 17223      55585F43 
 17223      4153485F 
 17223      53414C45 
 17223      5F454E44 
 17224              	.LASF418:
 17225 13fc 52465F4D 		.ascii	"RF_MUX_TOTALS_REQUEST\000"
ARM GAS  C:\Users\RECEPC~1\AppData\Local\Temp\ccZZcwiB.s 			page 367


 17225      55585F54 
 17225      4F54414C 
 17225      535F5245 
 17225      51554553 
 17226              	.LASF48:
 17227 1412 5F706461 		.ascii	"_pdata\000"
 17227      746100
 17228              	.LASF60:
 17229 1419 44495350 		.ascii	"DISPENSER_UPDATE_STATE1\000"
 17229      454E5345 
 17229      525F5550 
 17229      44415445 
 17229      5F535441 
 17230              	.LASF61:
 17231 1431 44495350 		.ascii	"DISPENSER_UPDATE_STATE2\000"
 17231      454E5345 
 17231      525F5550 
 17231      44415445 
 17231      5F535441 
 17232              	.LASF191:
 17233 1449 5F504F49 		.ascii	"_POINT_AS_DECIMAL_SEPARATOR_\000"
 17233      4E545F41 
 17233      535F4445 
 17233      43494D41 
 17233      4C5F5345 
 17234              	.LASF272:
 17235 1466 5F726573 		.ascii	"_restoreprice\000"
 17235      746F7265 
 17235      70726963 
 17235      6500
 17236              	.LASF315:
 17237 1474 46696E61 		.ascii	"Finalization\000"
 17237      6C697A61 
 17237      74696F6E 
 17237      00
 17238              	.LASF49:
 17239 1481 43616C6C 		.ascii	"Callback\000"
 17239      6261636B 
 17239      00
 17240              	.LASF520:
 17241 148a 41637175 		.ascii	"AcquirePumpEnumeratorResponse\000"
 17241      69726550 
 17241      756D7045 
 17241      6E756D65 
 17241      7261746F 
 17242              	.LASF331:
 17243 14a8 5F707265 		.ascii	"_prequest\000"
 17243      71756573 
 17243      7400
 17244              	.LASF455:
 17245 14b2 5F74696D 		.ascii	"_timeouttoautonomous\000"
 17245      656F7574 
 17245      746F6175 
 17245      746F6E6F 
 17245      6D6F7573 
 17246              	.LASF442:
 17247 14c7 52465F4D 		.ascii	"RF_MUX_NULL\000"
ARM GAS  C:\Users\RECEPC~1\AppData\Local\Temp\ccZZcwiB.s 			page 368


 17247      55585F4E 
 17247      554C4C00 
 17248              	.LASF127:
 17249 14d3 55415254 		.ascii	"UART_DISPENSER\000"
 17249      5F444953 
 17249      50454E53 
 17249      455200
 17250              	.LASF155:
 17251 14e2 44495350 		.ascii	"DISPLAY_ID_RECONOCIDO\000"
 17251      4C41595F 
 17251      49445F52 
 17251      45434F4E 
 17251      4F434944 
 17252              	.LASF329:
 17253 14f8 5F74696D 		.ascii	"_timeoutseed\000"
 17253      656F7574 
 17253      73656564 
 17253      00
 17254              	.LASF518:
 17255 1505 72657476 		.ascii	"retval\000"
 17255      616C00
 17256              	.LASF403:
 17257 150c 45455052 		.ascii	"EEPROM_DISPENSER_PUMP42_TRANSACTION_PAGE\000"
 17257      4F4D5F44 
 17257      49535045 
 17257      4E534552 
 17257      5F50554D 
 17258              	.LASF265:
 17259 1535 5F50554D 		.ascii	"_PUMP_LAYOUT_\000"
 17259      505F4C41 
 17259      594F5554 
 17259      5F00
 17260              	.LASF527:
 17261 1543 41637175 		.ascii	"AcquirePpuChangeResponse\000"
 17261      69726550 
 17261      70754368 
 17261      616E6765 
 17261      52657370 
 17262              	.LASF491:
 17263 155c 62756666 		.ascii	"buffndx\000"
 17263      6E647800 
 17264              	.LASF91:
 17265 1564 57415443 		.ascii	"WATCHDOG_STARTUP\000"
 17265      48444F47 
 17265      5F535441 
 17265      52545550 
 17265      00
 17266              	.LASF177:
 17267 1575 44495350 		.ascii	"DISPLAY_IMPRESORA_NO_FUNCIONANDO\000"
 17267      4C41595F 
 17267      494D5052 
 17267      45534F52 
 17267      415F4E4F 
 17268              	.LASF72:
 17269 1596 5052494E 		.ascii	"PRINTER11_JOB\000"
 17269      54455231 
 17269      315F4A4F 
ARM GAS  C:\Users\RECEPC~1\AppData\Local\Temp\ccZZcwiB.s 			page 369


 17269      4200
 17270              	.LASF532:
 17271 15a4 4765744C 		.ascii	"GetLRC\000"
 17271      524300
 17272              	.LASF146:
 17273 15ab 44495350 		.ascii	"DISPLAY_INGRESE_PASSWORD\000"
 17273      4C41595F 
 17273      494E4752 
 17273      4553455F 
 17273      50415353 
 17274              	.LASF419:
 17275 15c4 52465F4D 		.ascii	"RF_MUX_TOTALS_RESPONSE\000"
 17275      55585F54 
 17275      4F54414C 
 17275      535F5245 
 17275      53504F4E 
 17276              	.LASF8:
 17277 15db 6C6F6E67 		.ascii	"long long int\000"
 17277      206C6F6E 
 17277      6720696E 
 17277      7400
 17278              	.LASF318:
 17279 15e9 5F747261 		.ascii	"_transactionname\000"
 17279      6E736163 
 17279      74696F6E 
 17279      6E616D65 
 17279      00
 17280              	.LASF165:
 17281 15fa 44495350 		.ascii	"DISPLAY_AUTORIZACION_ACEPTADA\000"
 17281      4C41595F 
 17281      4155544F 
 17281      52495A41 
 17281      43494F4E 
 17282              	.LASF145:
 17283 1618 44495350 		.ascii	"DISPLAY_DESEA_IMPRIMIR_RECIBO\000"
 17283      4C41595F 
 17283      44455345 
 17283      415F494D 
 17283      5052494D 
 17284              	.LASF151:
 17285 1636 44495350 		.ascii	"DISPLAY_GRACIAS_VUELVA_PRONTO\000"
 17285      4C41595F 
 17285      47524143 
 17285      4941535F 
 17285      5655454C 
 17286              	.LASF445:
 17287 1654 52465F44 		.ascii	"RF_DELIVERING\000"
 17287      454C4956 
 17287      4552494E 
 17287      4700
 17288              	.LASF59:
 17289 1662 44495350 		.ascii	"DISPENSER_UPDATE_PUMP_TRANSACTION_TIMEOUTS\000"
 17289      454E5345 
 17289      525F5550 
 17289      44415445 
 17289      5F50554D 
 17290              	.LASF428:
ARM GAS  C:\Users\RECEPC~1\AppData\Local\Temp\ccZZcwiB.s 			page 370


 17291 168d 52465F4D 		.ascii	"RF_MUX_CASH_SALE_PRINT_REQUEST\000"
 17291      55585F43 
 17291      4153485F 
 17291      53414C45 
 17291      5F505249 
 17292              	.LASF515:
 17293 16ac 70747262 		.ascii	"ptrbuff\000"
 17293      75666600 
 17294              	.LASF112:
 17295 16b4 436C6561 		.ascii	"ClearTxBuffer\000"
 17295      72547842 
 17295      75666665 
 17295      7200
 17296              	.LASF18:
 17297 16c2 646F7562 		.ascii	"double\000"
 17297      6C6500
 17298              	.LASF399:
 17299 16c9 45455052 		.ascii	"EEPROM_DISPENSER_PUMP32_TRANSACTION_PAGE\000"
 17299      4F4D5F44 
 17299      49535045 
 17299      4E534552 
 17299      5F50554D 
 17300              	.LASF147:
 17301 16f2 44495350 		.ascii	"DISPLAY_PASSWORD_VALIDO\000"
 17301      4C41595F 
 17301      50415353 
 17301      574F5244 
 17301      5F56414C 
 17302              	.LASF556:
 17303 170a 433A5C54 		.ascii	"C:\\TeamInsepet\\NSX-Prime\\Hardware\\CorEx-MUX-Ker"
 17303      65616D49 
 17303      6E736570 
 17303      65745C4E 
 17303      53582D50 
 17304 1739 6E656C2D 		.ascii	"nel-Enhanced\\Workspace01\\CorEx-Mux-Kernel.cydsn\000"
 17304      456E6861 
 17304      6E636564 
 17304      5C576F72 
 17304      6B737061 
 17305              	.LASF139:
 17306 1769 44495350 		.ascii	"DISPLAY_SELECCIONE_PRODUCTO3\000"
 17306      4C41595F 
 17306      53454C45 
 17306      4343494F 
 17306      4E455F50 
 17307              	.LASF140:
 17308 1786 44495350 		.ascii	"DISPLAY_SELECCIONE_PRODUCTO4\000"
 17308      4C41595F 
 17308      53454C45 
 17308      4343494F 
 17308      4E455F50 
 17309              	.LASF202:
 17310 17a3 50554D50 		.ascii	"PUMP_ALL_PUMPS_STOP\000"
 17310      5F414C4C 
 17310      5F50554D 
 17310      50535F53 
 17310      544F5000 
ARM GAS  C:\Users\RECEPC~1\AppData\Local\Temp\ccZZcwiB.s 			page 371


 17311              	.LASF148:
 17312 17b7 44495350 		.ascii	"DISPLAY_PASSWORD_INVALIDO\000"
 17312      4C41595F 
 17312      50415353 
 17312      574F5244 
 17312      5F494E56 
 17313              	.LASF279:
 17314 17d1 5F72746D 		.ascii	"_rtmoneyamount\000"
 17314      6F6E6579 
 17314      616D6F75 
 17314      6E7400
 17315              	.LASF546:
 17316 17e0 49544D5F 		.ascii	"ITM_RxBuffer\000"
 17316      52784275 
 17316      66666572 
 17316      00
 17317              	.LASF38:
 17318 17ed 5F73656C 		.ascii	"_selfkill\000"
 17318      666B696C 
 17318      6C00
 17319              	.LASF17:
 17320 17f7 666C6F61 		.ascii	"float\000"
 17320      7400
 17321              	.LASF510:
 17322 17fd 70747265 		.ascii	"ptreeprom\000"
 17322      6570726F 
 17322      6D00
 17323              	.LASF402:
 17324 1807 45455052 		.ascii	"EEPROM_DISPENSER_PUMP41_TRANSACTION_PAGE\000"
 17324      4F4D5F44 
 17324      49535045 
 17324      4E534552 
 17324      5F50554D 
 17325              	.LASF238:
 17326 1830 5F50554D 		.ascii	"_PUMP_OK_\000"
 17326      505F4F4B 
 17326      5F00
 17327              	.LASF390:
 17328 183a 45455052 		.ascii	"EEPROM_DISPENSER_PUMP11_TRANSACTION_PAGE\000"
 17328      4F4D5F44 
 17328      49535045 
 17328      4E534552 
 17328      5F50554D 
 17329              	.LASF537:
 17330 1863 5465726D 		.ascii	"TerminateTransactionAndPrint\000"
 17330      696E6174 
 17330      65547261 
 17330      6E736163 
 17330      74696F6E 
 17331              	.LASF552:
 17332 1880 5F675F70 		.ascii	"_g_ptractprogramming\000"
 17332      74726163 
 17332      7470726F 
 17332      6772616D 
 17332      6D696E67 
 17333              	.LASF256:
 17334 1895 50756D70 		.ascii	"PumpDataContainer\000"
ARM GAS  C:\Users\RECEPC~1\AppData\Local\Temp\ccZZcwiB.s 			page 372


 17334      44617461 
 17334      436F6E74 
 17334      61696E65 
 17334      7200
 17335              	.LASF324:
 17336 18a7 5F64656C 		.ascii	"_delaymultiplier\000"
 17336      61796D75 
 17336      6C746970 
 17336      6C696572 
 17336      00
 17337              	.LASF553:
 17338 18b8 5F675F73 		.ascii	"_g_sfcharmap\000"
 17338      66636861 
 17338      726D6170 
 17338      00
 17339              	.LASF260:
 17340 18c5 5F707269 		.ascii	"_price\000"
 17340      636500
 17341              	.LASF10:
 17342 18cc 756E7369 		.ascii	"unsigned int\000"
 17342      676E6564 
 17342      20696E74 
 17342      00
 17343              	.LASF107:
 17344 18d9 52656164 		.ascii	"ReadTxStatus\000"
 17344      54785374 
 17344      61747573 
 17344      00
 17345              	.LASF501:
 17346 18e6 50756D70 		.ascii	"PumpDefault2CreditPpuChange\000"
 17346      44656661 
 17346      756C7432 
 17346      43726564 
 17346      69745070 
 17347              	.LASF312:
 17348 1902 5F6F6E65 		.ascii	"_oneshotpostconditions\000"
 17348      73686F74 
 17348      706F7374 
 17348      636F6E64 
 17348      6974696F 
 17349              	.LASF153:
 17350 1919 44495350 		.ascii	"DISPLAY_ID_NO_RECONOCIDO\000"
 17350      4C41595F 
 17350      49445F4E 
 17350      4F5F5245 
 17350      434F4E4F 
 17351              	.LASF51:
 17352 1932 5053494E 		.ascii	"PSINKMESSAGEPTR\000"
 17352      4B4D4553 
 17352      53414745 
 17352      50545200 
 17353              	.LASF517:
 17354 1942 62756666 		.ascii	"buffersize\000"
 17354      65727369 
 17354      7A6500
 17355              	.LASF539:
 17356 194d 64656C69 		.ascii	"delimiterindex\000"
ARM GAS  C:\Users\RECEPC~1\AppData\Local\Temp\ccZZcwiB.s 			page 373


 17356      6D697465 
 17356      72696E64 
 17356      657800
 17357              	.LASF144:
 17358 195c 44495350 		.ascii	"DISPLAY_DIGITE_PLACA\000"
 17358      4C41595F 
 17358      44494749 
 17358      54455F50 
 17358      4C414341 
 17359              	.LASF26:
 17360 1971 42524F41 		.ascii	"BROADCAST\000"
 17360      44434153 
 17360      5400
 17361              	.LASF93:
 17362 197b 5F554152 		.ascii	"_UART_MANAGER_\000"
 17362      545F4D41 
 17362      4E414745 
 17362      525F00
 17363              	.LASF474:
 17364 198a 6E756D68 		.ascii	"numhoses\000"
 17364      6F736573 
 17364      00
 17365              	.LASF472:
 17366 1993 50726F63 		.ascii	"ProcessPumpTotalsDataReport\000"
 17366      65737350 
 17366      756D7054 
 17366      6F74616C 
 17366      73446174 
 17367              	.LASF337:
 17368 19af 5F717565 		.ascii	"_queueindex\000"
 17368      7565696E 
 17368      64657800 
 17369              	.LASF555:
 17370 19bb 2E5C4164 		.ascii	".\\AdvantageImpl.c\000"
 17370      76616E74 
 17370      61676549 
 17370      6D706C2E 
 17370      6300
 17371              	.LASF512:
 17372 19cd 6D73676C 		.ascii	"msglength\000"
 17372      656E6774 
 17372      6800
 17373              	.LASF557:
 17374 19d7 5F706F69 		.ascii	"_pointcommadecimalmode\000"
 17374      6E74636F 
 17374      6D6D6164 
 17374      6563696D 
 17374      616C6D6F 
 17375              	.LASF398:
 17376 19ee 45455052 		.ascii	"EEPROM_DISPENSER_PUMP31_TRANSACTION_PAGE\000"
 17376      4F4D5F44 
 17376      49535045 
 17376      4E534552 
 17376      5F50554D 
 17377              	.LASF130:
 17378 1a17 55415254 		.ascii	"UART_NULL\000"
 17378      5F4E554C 
ARM GAS  C:\Users\RECEPC~1\AppData\Local\Temp\ccZZcwiB.s 			page 374


 17378      4C00
 17379              	.LASF416:
 17380 1a21 52465F4D 		.ascii	"RF_MUX_CASH_SALE_END_REPORT_REQUEST\000"
 17380      55585F43 
 17380      4153485F 
 17380      53414C45 
 17380      5F454E44 
 17381              	.LASF505:
 17382 1a45 50756D70 		.ascii	"PumpCompleteConfiguration\000"
 17382      436F6D70 
 17382      6C657465 
 17382      436F6E66 
 17382      69677572 
 17383              	.LASF489:
 17384 1a5f 50756D70 		.ascii	"PumpCreditPresetHose\000"
 17384      43726564 
 17384      69745072 
 17384      65736574 
 17384      486F7365 
 17385              	.LASF545:
 17386 1a74 70747273 		.ascii	"ptrstr\000"
 17386      747200
 17387              	.LASF335:
 17388 1a7b 5050554D 		.ascii	"PPUMPTRANSACTIONJOBCONTEXTPTR\000"
 17388      50545241 
 17388      4E534143 
 17388      54494F4E 
 17388      4A4F4243 
 17389              	.LASF391:
 17390 1a99 45455052 		.ascii	"EEPROM_DISPENSER_PUMP12_TRANSACTION_PAGE\000"
 17390      4F4D5F44 
 17390      49535045 
 17390      4E534552 
 17390      5F50554D 
 17391              	.LASF511:
 17392 1ac2 626C6B69 		.ascii	"blkindex\000"
 17392      6E646578 
 17392      00
 17393              	.LASF99:
 17394 1acb 57726974 		.ascii	"WriteControlRegister\000"
 17394      65436F6E 
 17394      74726F6C 
 17394      52656769 
 17394      73746572 
 17395              	.LASF89:
 17396 1ae0 474C4F42 		.ascii	"GLOBAL_TICK_NOTIFICATION\000"
 17396      414C5F54 
 17396      49434B5F 
 17396      4E4F5449 
 17396      46494341 
 17397              	.LASF210:
 17398 1af9 50554D50 		.ascii	"PUMP_CALLING\000"
 17398      5F43414C 
 17398      4C494E47 
 17398      00
 17399              	.LASF27:
 17400 1b06 46495253 		.ascii	"FIRSTFOUND\000"
ARM GAS  C:\Users\RECEPC~1\AppData\Local\Temp\ccZZcwiB.s 			page 375


 17400      54464F55 
 17400      4E4400
 17401              	.LASF450:
 17402 1b11 52465F45 		.ascii	"RF_ERROR\000"
 17402      52524F52 
 17402      00
 17403              	.LASF24:
 17404 1b1a 4C50564F 		.ascii	"LPVOID\000"
 17404      494400
 17405              	.LASF71:
 17406 1b21 44495350 		.ascii	"DISPENSER_PUMP_HANDLER\000"
 17406      454E5345 
 17406      525F5055 
 17406      4D505F48 
 17406      414E444C 
 17407              	.LASF328:
 17408 1b38 5F726574 		.ascii	"_retriescounter\000"
 17408      72696573 
 17408      636F756E 
 17408      74657200 
 17409              	.LASF104:
 17410 1b48 47657452 		.ascii	"GetRxBufferSize\000"
 17410      78427566 
 17410      66657253 
 17410      697A6500 
 17411              	.LASF281:
 17412 1b58 5F747261 		.ascii	"_transhealth\000"
 17412      6E736865 
 17412      616C7468 
 17412      00
 17413              	.LASF446:
 17414 1b65 52465F43 		.ascii	"RF_CASHSALEREPORT\000"
 17414      41534853 
 17414      414C4552 
 17414      45504F52 
 17414      5400
 17415              	.LASF507:
 17416 1b77 72656D62 		.ascii	"remblocks\000"
 17416      6C6F636B 
 17416      7300
 17417              	.LASF394:
 17418 1b81 45455052 		.ascii	"EEPROM_DISPENSER_PUMP21_TRANSACTION_PAGE\000"
 17418      4F4D5F44 
 17418      49535045 
 17418      4E534552 
 17418      5F50554D 
 17419              	.LASF184:
 17420 1baa 44495350 		.ascii	"DISPLAY_SIDE_DUMMY_DISPLAY\000"
 17420      4C41595F 
 17420      53494445 
 17420      5F44554D 
 17420      4D595F44 
 17421              	.LASF167:
 17422 1bc5 44495350 		.ascii	"DISPLAY_CONFIGURAR_FECHA_HORA\000"
 17422      4C41595F 
 17422      434F4E46 
 17422      49475552 
ARM GAS  C:\Users\RECEPC~1\AppData\Local\Temp\ccZZcwiB.s 			page 376


 17422      41525F46 
 17423              	.LASF421:
 17424 1be3 52465F4D 		.ascii	"RF_MUX_TOTALS_REPORT_RESPONSE\000"
 17424      55585F54 
 17424      4F54414C 
 17424      535F5245 
 17424      504F5254 
 17425              	.LASF53:
 17426 1c01 55415254 		.ascii	"UART_RF_RECEPTION\000"
 17426      5F52465F 
 17426      52454345 
 17426      5054494F 
 17426      4E00
 17427              	.LASF301:
 17428 1c13 5F50554D 		.ascii	"_PUMP_TRANSACTION_JOB_\000"
 17428      505F5452 
 17428      414E5341 
 17428      4354494F 
 17428      4E5F4A4F 
 17429              	.LASF190:
 17430 1c2a 5F444543 		.ascii	"_DECIMAL_SEPARATOR_\000"
 17430      494D414C 
 17430      5F534550 
 17430      41524154 
 17430      4F525F00 
 17431              	.LASF257:
 17432 1c3e 5F617574 		.ascii	"_authorized\000"
 17432      686F7269 
 17432      7A656400 
 17433              	.LASF23:
 17434 1c4a 6C6F6E67 		.ascii	"long double\000"
 17434      20646F75 
 17434      626C6500 
 17435              	.LASF341:
 17436 1c56 416C6C6F 		.ascii	"Allocate\000"
 17436      63617465 
 17436      00
 17437              	.LASF194:
 17438 1c5f 50554D50 		.ascii	"PUMP_STATE_REQUEST\000"
 17438      5F535441 
 17438      54455F52 
 17438      45515545 
 17438      535400
 17439              	.LASF220:
 17440 1c72 5F50554D 		.ascii	"_PUMP_FILL_BY_VOLUME_\000"
 17440      505F4649 
 17440      4C4C5F42 
 17440      595F564F 
 17440      4C554D45 
 17441              	.LASF496:
 17442 1c88 50756D70 		.ascii	"PumpCreditPresetNotification\000"
 17442      43726564 
 17442      69745072 
 17442      65736574 
 17442      4E6F7469 
 17443              	.LASF241:
 17444 1ca5 5F747261 		.ascii	"_transtate\000"
ARM GAS  C:\Users\RECEPC~1\AppData\Local\Temp\ccZZcwiB.s 			page 377


 17444      6E737461 
 17444      746500
 17445              	.LASF208:
 17446 1cb0 50554D50 		.ascii	"PUMP_FAIL\000"
 17446      5F464149 
 17446      4C00
 17447              	.LASF96:
 17448 1cba 53746172 		.ascii	"Start\000"
 17448      7400
 17449              	.LASF118:
 17450 1cc0 5F554152 		.ascii	"_UART_MESSAGE_\000"
 17450      545F4D45 
 17450      53534147 
 17450      455F00
 17451              	.LASF162:
 17452 1ccf 44495350 		.ascii	"DISPLAY_OPERACION_CANCELADA\000"
 17452      4C41595F 
 17452      4F504552 
 17452      4143494F 
 17452      4E5F4341 
 17453              	.LASF159:
 17454 1ceb 44495350 		.ascii	"DISPLAY_OPERACIONES\000"
 17454      4C41595F 
 17454      4F504552 
 17454      4143494F 
 17454      4E455300 
 17455              	.LASF214:
 17456 1cff 50554D50 		.ascii	"PUMP_FEOT\000"
 17456      5F46454F 
 17456      5400
 17457              	.LASF311:
 17458 1d09 5F707265 		.ascii	"_preconditions\000"
 17458      636F6E64 
 17458      6974696F 
 17458      6E7300
 17459              	.LASF300:
 17460 1d18 504E4541 		.ascii	"PNEAR_PUMPPTR\000"
 17460      525F5055 
 17460      4D505054 
 17460      5200
 17461              	.LASF123:
 17462 1d26 50554152 		.ascii	"PUARTMESSAGEPTR\000"
 17462      544D4553 
 17462      53414745 
 17462      50545200 
 17463              	.LASF350:
 17464 1d36 5F686F73 		.ascii	"_hosesposition1\000"
 17464      6573706F 
 17464      73697469 
 17464      6F6E3100 
 17465              	.LASF270:
 17466 1d46 5F686F73 		.ascii	"_hoseactivestate\000"
 17466      65616374 
 17466      69766573 
 17466      74617465 
 17466      00
 17467              	.LASF352:
ARM GAS  C:\Users\RECEPC~1\AppData\Local\Temp\ccZZcwiB.s 			page 378


 17468 1d57 5F686F73 		.ascii	"_hosesposition3\000"
 17468      6573706F 
 17468      73697469 
 17468      6F6E3300 
 17469              	.LASF353:
 17470 1d67 5F686F73 		.ascii	"_hosesposition4\000"
 17470      6573706F 
 17470      73697469 
 17470      6F6E3400 
 17471              	.LASF149:
 17472 1d77 44495350 		.ascii	"DISPLAY_NUEVO_PASSWORD\000"
 17472      4C41595F 
 17472      4E554556 
 17472      4F5F5041 
 17472      5353574F 
 17473              	.LASF359:
 17474 1d8e 5F6D696E 		.ascii	"_minvolumevalue\000"
 17474      766F6C75 
 17474      6D657661 
 17474      6C756500 
 17475              	.LASF304:
 17476 1d9e 54696D65 		.ascii	"TimeoutCallback\000"
 17476      6F757443 
 17476      616C6C62 
 17476      61636B00 
 17477              	.LASF298:
 17478 1dae 436C6561 		.ascii	"CleanUp\000"
 17478      6E557000 
 17479              	.LASF154:
 17480 1db6 44495350 		.ascii	"DISPLAY_ESPERANDO_ID\000"
 17480      4C41595F 
 17480      45535045 
 17480      52414E44 
 17480      4F5F4944 
 17481              	.LASF338:
 17482 1dcb 5F6A6F62 		.ascii	"_jobqueueheap\000"
 17482      71756575 
 17482      65686561 
 17482      7000
 17483              	.LASF383:
 17484 1dd9 45455052 		.ascii	"EEPROM_DISPENSER_PUMP2_PPU_INFO_PAGE\000"
 17484      4F4D5F44 
 17484      49535045 
 17484      4E534552 
 17484      5F50554D 
 17485              	.LASF299:
 17486 1dfe 50756D70 		.ascii	"Pump\000"
 17486      00
 17487              	.LASF229:
 17488 1e03 5F50554D 		.ascii	"_PUMP_STOP_\000"
 17488      505F5354 
 17488      4F505F00 
 17489              	.LASF135:
 17490 1e0f 44495350 		.ascii	"DISPLAY_FORMA_PAGO_DESEADA\000"
 17490      4C41595F 
 17490      464F524D 
 17490      415F5041 
ARM GAS  C:\Users\RECEPC~1\AppData\Local\Temp\ccZZcwiB.s 			page 379


 17490      474F5F44 
 17491              	.LASF462:
 17492 1e2a 706A6F62 		.ascii	"pjob\000"
 17492      00
 17493              	.LASF9:
 17494 1e2f 6C6F6E67 		.ascii	"long long unsigned int\000"
 17494      206C6F6E 
 17494      6720756E 
 17494      7369676E 
 17494      65642069 
 17495              	.LASF223:
 17496 1e46 5F50554D 		.ascii	"_PUMP_PPU_CHANGE_\000"
 17496      505F5050 
 17496      555F4348 
 17496      414E4745 
 17496      5F00
 17497              	.LASF110:
 17498 1e58 50757441 		.ascii	"PutArray\000"
 17498      72726179 
 17498      00
 17499              	.LASF282:
 17500 1e61 5F706375 		.ascii	"_pcurrtransaction\000"
 17500      72727472 
 17500      616E7361 
 17500      6374696F 
 17500      6E00
 17501              	.LASF429:
 17502 1e73 52465F4D 		.ascii	"RF_MUX_CASH_SALE_PRINT_RESPONSE\000"
 17502      55585F43 
 17502      4153485F 
 17502      53414C45 
 17502      5F505249 
 17503              	.LASF334:
 17504 1e93 50756D70 		.ascii	"PumpTransactionJobContext\000"
 17504      5472616E 
 17504      73616374 
 17504      696F6E4A 
 17504      6F62436F 
 17505              	.LASF348:
 17506 1ead 5F637572 		.ascii	"_currentloopopen\000"
 17506      72656E74 
 17506      6C6F6F70 
 17506      6F70656E 
 17506      00
 17507              	.LASF213:
 17508 1ebe 50554D50 		.ascii	"PUMP_PEOT\000"
 17508      5F50454F 
 17508      5400
 17509              	.LASF56:
 17510 1ec8 53494E4B 		.ascii	"SINK_UPDATE_COUNTERS\000"
 17510      5F555044 
 17510      4154455F 
 17510      434F554E 
 17510      54455253 
 17511              	.LASF98:
 17512 1edd 52656164 		.ascii	"ReadControlRegister\000"
 17512      436F6E74 
ARM GAS  C:\Users\RECEPC~1\AppData\Local\Temp\ccZZcwiB.s 			page 380


 17512      726F6C52 
 17512      65676973 
 17512      74657200 
 17513              	.LASF440:
 17514 1ef1 52465F4D 		.ascii	"RF_MUX_ISLAND_ADMIN_REQUEST\000"
 17514      55585F49 
 17514      534C414E 
 17514      445F4144 
 17514      4D494E5F 
 17515              	.LASF247:
 17516 1f0d 5F766172 		.ascii	"_var3\000"
 17516      3300
 17517              	.LASF248:
 17518 1f13 5F766172 		.ascii	"_var4\000"
 17518      3400
 17519              	.LASF307:
 17520 1f19 5F726570 		.ascii	"_repushtimeoutlimit\000"
 17520      75736874 
 17520      696D656F 
 17520      75746C69 
 17520      6D697400 
 17521              	.LASF495:
 17522 1f2d 766F6C75 		.ascii	"volumeamount\000"
 17522      6D65616D 
 17522      6F756E74 
 17522      00
 17523              	.LASF64:
 17524 1f3a 44495350 		.ascii	"DISPENSER_LOAD_EEPROM_SETTINGS\000"
 17524      454E5345 
 17524      525F4C4F 
 17524      41445F45 
 17524      4550524F 
 17525              	.LASF261:
 17526 1f59 5F707265 		.ascii	"_presetamount\000"
 17526      73657461 
 17526      6D6F756E 
 17526      7400
 17527              	.LASF94:
 17528 1f67 5F696465 		.ascii	"_identifier\000"
 17528      6E746966 
 17528      69657200 
 17529              	.LASF432:
 17530 1f73 52465F4D 		.ascii	"RF_MUX_LAST_CASH_SALE_REQUEST\000"
 17530      55585F4C 
 17530      4153545F 
 17530      43415348 
 17530      5F53414C 
 17531              	.LASF269:
 17532 1f91 5F637572 		.ascii	"_currenthose\000"
 17532      72656E74 
 17532      686F7365 
 17532      00
 17533              	.LASF551:
 17534 1f9e 5F675F70 		.ascii	"_g_printerlayout\000"
 17534      72696E74 
 17534      65726C61 
 17534      796F7574 
ARM GAS  C:\Users\RECEPC~1\AppData\Local\Temp\ccZZcwiB.s 			page 381


 17534      00
 17535              	.LASF203:
 17536 1faf 5F434F4E 		.ascii	"_CONTROL_WORDS_\000"
 17536      54524F4C 
 17536      5F574F52 
 17536      44535F00 
 17537              	.LASF550:
 17538 1fbf 5F675F72 		.ascii	"_g_rfautorun\000"
 17538      66617574 
 17538      6F72756E 
 17538      00
 17539              	.LASF192:
 17540 1fcc 5F434F4D 		.ascii	"_COMMA_AS_DECIMAL_SEPARATOR_\000"
 17540      4D415F41 
 17540      535F4445 
 17540      43494D41 
 17540      4C5F5345 
 17541              	.LASF273:
 17542 1fe9 5F707265 		.ascii	"_presetdone\000"
 17542      73657464 
 17542      6F6E6500 
 17543              	.LASF526:
 17544 1ff5 41637175 		.ascii	"AcquirePumpTransactionDataResponseResolver\000"
 17544      69726550 
 17544      756D7054 
 17544      72616E73 
 17544      61637469 
 17545              	.LASF103:
 17546 2020 47657442 		.ascii	"GetByte\000"
 17546      79746500 
 17547              	.LASF363:
 17548 2028 44697370 		.ascii	"DispenserLayoutInfo\000"
 17548      656E7365 
 17548      724C6179 
 17548      6F757449 
 17548      6E666F00 
 17549              	.LASF502:
 17550 203c 50756D70 		.ascii	"PumpCredit2DefaultPpuChange\000"
 17550      43726564 
 17550      69743244 
 17550      65666175 
 17550      6C745070 
 17551              	.LASF54:
 17552 2058 55415254 		.ascii	"UART_RF_TEST\000"
 17552      5F52465F 
 17552      54455354 
 17552      00
 17553              	.LASF409:
 17554 2065 52465F4D 		.ascii	"RF_MUX_CREDIT_SERIAL_AUTH_RESPONSE\000"
 17554      55585F43 
 17554      52454449 
 17554      545F5345 
 17554      5249414C 
 17555              	.LASF405:
 17556 2088 45455052 		.ascii	"EEPROM_DISPENSER_PUMP44_TRANSACTION_PAGE\000"
 17556      4F4D5F44 
 17556      49535045 
ARM GAS  C:\Users\RECEPC~1\AppData\Local\Temp\ccZZcwiB.s 			page 382


 17556      4E534552 
 17556      5F50554D 
 17557              	.LASF239:
 17558 20b1 5F50554D 		.ascii	"_PUMP_FAIL_\000"
 17558      505F4641 
 17558      494C5F00 
 17559              	.LASF271:
 17560 20bd 5F616371 		.ascii	"_acquiringstate\000"
 17560      75697269 
 17560      6E677374 
 17560      61746500 
 17561              	.LASF142:
 17562 20cd 44495350 		.ascii	"DISPLAY_DESPACHANDO\000"
 17562      4C41595F 
 17562      44455350 
 17562      41434841 
 17562      4E444F00 
 17563              	.LASF216:
 17564 20e1 50554D50 		.ascii	"PUMP_SEND_DATA\000"
 17564      5F53454E 
 17564      445F4441 
 17564      544100
 17565              	.LASF244:
 17566 20f0 5F766172 		.ascii	"_var0\000"
 17566      3000
 17567              	.LASF245:
 17568 20f6 5F766172 		.ascii	"_var1\000"
 17568      3100
 17569              	.LASF246:
 17570 20fc 5F766172 		.ascii	"_var2\000"
 17570      3200
 17571              	.LASF168:
 17572 2102 44495350 		.ascii	"DISPLAY_HORA\000"
 17572      4C41595F 
 17572      484F5241 
 17572      00
 17573              	.LASF76:
 17574 210f 5052494E 		.ascii	"PRINTER1_GENERIC_JOB\000"
 17574      54455231 
 17574      5F47454E 
 17574      45524943 
 17574      5F4A4F42 
 17575              	.LASF249:
 17576 2124 5F766172 		.ascii	"_var5\000"
 17576      3500
 17577              	.LASF250:
 17578 212a 5F766172 		.ascii	"_var6\000"
 17578      3600
 17579              	.LASF251:
 17580 2130 5F766172 		.ascii	"_var7\000"
 17580      3700
 17581              	.LASF252:
 17582 2136 5F766172 		.ascii	"_var8\000"
 17582      3800
 17583              	.LASF253:
 17584 213c 5F766172 		.ascii	"_var9\000"
 17584      3900
ARM GAS  C:\Users\RECEPC~1\AppData\Local\Temp\ccZZcwiB.s 			page 383


 17585              	.LASF422:
 17586 2142 52465F4D 		.ascii	"RF_MUX_PRICE_CHANGE_REQUEST\000"
 17586      55585F50 
 17586      52494345 
 17586      5F434841 
 17586      4E47455F 
 17587              	.LASF224:
 17588 215e 5F50554D 		.ascii	"_PUMP_RESTORE_PRICE_\000"
 17588      505F5245 
 17588      53544F52 
 17588      455F5052 
 17588      4943455F 
 17589              	.LASF254:
 17590 2173 5F766172 		.ascii	"_varA\000"
 17590      4100
 17591              	.LASF255:
 17592 2179 5F766172 		.ascii	"_varB\000"
 17592      4200
 17593              	.LASF509:
 17594 217f 65657072 		.ascii	"eeprompumpconfigmemorypageid\000"
 17594      6F6D7075 
 17594      6D70636F 
 17594      6E666967 
 17594      6D656D6F 
 17595              	.LASF157:
 17596 219c 44495350 		.ascii	"DISPLAY_INTRODUZCA_VOLUMEN\000"
 17596      4C41595F 
 17596      494E5452 
 17596      4F44555A 
 17596      43415F56 
 17597              	.LASF28:
 17598 21b7 414C4C49 		.ascii	"ALLINTERESTED\000"
 17598      4E544552 
 17598      45535445 
 17598      4400
 17599              	.LASF173:
 17600 21c5 44495350 		.ascii	"DISPLAY_CANCELADO_X_PC\000"
 17600      4C41595F 
 17600      43414E43 
 17600      454C4144 
 17600      4F5F585F 
 17601              	.LASF267:
 17602 21dc 5F70756D 		.ascii	"_pumpindex\000"
 17602      70696E64 
 17602      657800
 17603              	.LASF302:
 17604 21e7 52657175 		.ascii	"Request\000"
 17604      65737400 
 17605              	.LASF468:
 17606 21ef 50726F63 		.ascii	"ProcessPumpTransactionData\000"
 17606      65737350 
 17606      756D7054 
 17606      72616E73 
 17606      61637469 
 17607              	.LASF274:
 17608 220a 5F70756D 		.ascii	"_pumplocked\000"
 17608      706C6F63 
ARM GAS  C:\Users\RECEPC~1\AppData\Local\Temp\ccZZcwiB.s 			page 384


 17608      6B656400 
 17609              	.LASF39:
 17610 2216 5F6D6573 		.ascii	"_messageid\000"
 17610      73616765 
 17610      696400
 17611              	.LASF219:
 17612 2221 5F50554D 		.ascii	"_PUMP_FILL_BY_MONEY_\000"
 17612      505F4649 
 17612      4C4C5F42 
 17612      595F4D4F 
 17612      4E45595F 
 17613              	.LASF116:
 17614 2236 414C4C4F 		.ascii	"ALLOCATED\000"
 17614      43415445 
 17614      4400
 17615              	.LASF13:
 17616 2240 75696E74 		.ascii	"uint8\000"
 17616      3800
 17617              	.LASF108:
 17618 2246 50757443 		.ascii	"PutChar\000"
 17618      68617200 
 17619              	.LASF83:
 17620 224e 44495350 		.ascii	"DISPLAY2_RECEPTION\000"
 17620      4C415932 
 17620      5F524543 
 17620      45505449 
 17620      4F4E00
 17621              	.LASF466:
 17622 2261 70706172 		.ascii	"pparam\000"
 17622      616D00
 17623              	.LASF447:
 17624 2268 52465F43 		.ascii	"RF_CREDITSALEAUTH\000"
 17624      52454449 
 17624      5453414C 
 17624      45415554 
 17624      4800
 17625              	.LASF197:
 17626 227a 50554D50 		.ascii	"PUMP_PUMP_STOP\000"
 17626      5F50554D 
 17626      505F5354 
 17626      4F5000
 17627              	.LASF2:
 17628 2289 73686F72 		.ascii	"short int\000"
 17628      7420696E 
 17628      7400
 17629              	.LASF179:
 17630 2293 44495350 		.ascii	"DISPLAY_PRECIO_POR_UNIDAD\000"
 17630      4C41595F 
 17630      50524543 
 17630      494F5F50 
 17630      4F525F55 
 17631              	.LASF288:
 17632 22ad 50756D70 		.ascii	"PumpTransQueueLock\000"
 17632      5472616E 
 17632      73517565 
 17632      75654C6F 
 17632      636B00
ARM GAS  C:\Users\RECEPC~1\AppData\Local\Temp\ccZZcwiB.s 			page 385


 17633              	.LASF185:
 17634 22c0 44495350 		.ascii	"DISPLAY_NULL\000"
 17634      4C41595F 
 17634      4E554C4C 
 17634      00
 17635              	.LASF293:
 17636 22cd 50756D70 		.ascii	"PumpTransQueueAllocate\000"
 17636      5472616E 
 17636      73517565 
 17636      7565416C 
 17636      6C6F6361 
 17637              	.LASF69:
 17638 22e4 44495350 		.ascii	"DISPENSER_CONFIGURE_SINGLE_PRICE\000"
 17638      454E5345 
 17638      525F434F 
 17638      4E464947 
 17638      5552455F 
 17639              	.LASF436:
 17640 2305 52465F4D 		.ascii	"RF_MUX_POSITION_CFG_REQUEST\000"
 17640      55585F50 
 17640      4F534954 
 17640      494F4E5F 
 17640      4346475F 
 17641              	.LASF79:
 17642 2321 44495350 		.ascii	"DISPLAY1_RECEPTION\000"
 17642      4C415931 
 17642      5F524543 
 17642      45505449 
 17642      4F4E00
 17643              	.LASF291:
 17644 2334 50756D70 		.ascii	"PumpTransQueueEnqueue\000"
 17644      5472616E 
 17644      73517565 
 17644      7565456E 
 17644      71756575 
 17645              	.LASF461:
 17646 234a 5072696E 		.ascii	"PrinterLayout\000"
 17646      7465724C 
 17646      61796F75 
 17646      7400
 17647              	.LASF344:
 17648 2358 44657175 		.ascii	"Dequeue\000"
 17648      65756500 
 17649              	.LASF65:
 17650 2360 44495350 		.ascii	"DISPENSER_ENUMERATE_VISIBLE_PUMPS\000"
 17650      454E5345 
 17650      525F454E 
 17650      554D4552 
 17650      4154455F 
 17651              	.LASF100:
 17652 2382 52656164 		.ascii	"ReadRxData\000"
 17652      52784461 
 17652      746100
 17653              	.LASF543:
 17654 238d 5472616E 		.ascii	"TranslateSpecialFuncionDigit\000"
 17654      736C6174 
 17654      65537065 
ARM GAS  C:\Users\RECEPC~1\AppData\Local\Temp\ccZZcwiB.s 			page 386


 17654      6369616C 
 17654      46756E63 
 17655              	.LASF45:
 17656 23aa 5F6D6573 		.ascii	"_messagetimeoutlimit\000"
 17656      73616765 
 17656      74696D65 
 17656      6F75746C 
 17656      696D6974 
 17657              	.LASF124:
 17658 23bf 5F554152 		.ascii	"_UART_MANAGERS_AVAILABLE_\000"
 17658      545F4D41 
 17658      4E414745 
 17658      52535F41 
 17658      5641494C 
 17659              	.LASF554:
 17660 23d9 474E5520 		.ascii	"GNU C 4.9.3 20150303 (release) [ARM/embedded-4_9-br"
 17660      4320342E 
 17660      392E3320 
 17660      32303135 
 17660      30333033 
 17661 240c 616E6368 		.ascii	"anch revision 221220] -mcpu=cortex-m3 -mthumb -g -O"
 17661      20726576 
 17661      6973696F 
 17661      6E203232 
 17661      31323230 
 17662 243f 30202D66 		.ascii	"0 -ffunction-sections -ffat-lto-objects\000"
 17662      66756E63 
 17662      74696F6E 
 17662      2D736563 
 17662      74696F6E 
 17663              	.LASF485:
 17664 2467 50756D70 		.ascii	"PumpRTMoneyRequest\000"
 17664      52544D6F 
 17664      6E657952 
 17664      65717565 
 17664      737400
 17665              	.LASF481:
 17666 247a 696E6465 		.ascii	"index\000"
 17666      7800
 17667              	.LASF156:
 17668 2480 44495350 		.ascii	"DISPLAY_INTRODUZCA_CEDULA\000"
 17668      4C41595F 
 17668      494E5452 
 17668      4F44555A 
 17668      43415F43 
 17669              	.LASF325:
 17670 249a 5F726570 		.ascii	"_repushretriescounter\000"
 17670      75736872 
 17670      65747269 
 17670      6573636F 
 17670      756E7465 
 17671              	.LASF529:
 17672 24b0 706D7367 		.ascii	"pmsg\000"
 17672      00
 17673              	.LASF40:
 17674 24b5 5F6D6573 		.ascii	"_messagetype\000"
 17674      73616765 
ARM GAS  C:\Users\RECEPC~1\AppData\Local\Temp\ccZZcwiB.s 			page 387


 17674      74797065 
 17674      00
 17675              	.LASF486:
 17676 24c2 50756D70 		.ascii	"PumpTransactionDataRequest\000"
 17676      5472616E 
 17676      73616374 
 17676      696F6E44 
 17676      61746152 
 17677              	.LASF30:
 17678 24dd 46495253 		.ascii	"FIRSTFOUNDFOREVER\000"
 17678      54464F55 
 17678      4E44464F 
 17678      52455645 
 17678      5200
 17679              	.LASF497:
 17680 24ef 50756D70 		.ascii	"PumpFullPresetHose\000"
 17680      46756C6C 
 17680      50726573 
 17680      6574486F 
 17680      736500
 17681              	.LASF475:
 17682 2502 7472616E 		.ascii	"transtatefound\000"
 17682      73746174 
 17682      65666F75 
 17682      6E6400
 17683              	.LASF209:
 17684 2511 50554D50 		.ascii	"PUMP_IDLE\000"
 17684      5F49444C 
 17684      4500
 17685              	.LASF384:
 17686 251b 45455052 		.ascii	"EEPROM_DISPENSER_PUMP3_PPU_INFO_PAGE\000"
 17686      4F4D5F44 
 17686      49535045 
 17686      4E534552 
 17686      5F50554D 
 17687              	.LASF435:
 17688 2540 52465F4D 		.ascii	"RF_MUX_BROADCAST_CFG_RESPONSE\000"
 17688      55585F42 
 17688      524F4144 
 17688      43415354 
 17688      5F434647 
 17689              	.LASF198:
 17690 255e 50554D50 		.ascii	"PUMP_TRANSACTION_DATA_REQUEST\000"
 17690      5F545241 
 17690      4E534143 
 17690      54494F4E 
 17690      5F444154 
 17691              	.LASF542:
 17692 257c 43617374 		.ascii	"CastMoneyValue\000"
 17692      4D6F6E65 
 17692      7956616C 
 17692      756500
 17693              	.LASF204:
 17694 258b 5055446E 		.ascii	"PUDn\000"
 17694      00
 17695              	.LASF295:
 17696 2590 50756D70 		.ascii	"PumpValidState\000"
ARM GAS  C:\Users\RECEPC~1\AppData\Local\Temp\ccZZcwiB.s 			page 388


 17696      56616C69 
 17696      64537461 
 17696      746500
 17697              	.LASF297:
 17698 259f 5F617574 		.ascii	"_authorizationinfo\000"
 17698      686F7269 
 17698      7A617469 
 17698      6F6E696E 
 17698      666F00
 17699              	.LASF230:
 17700 25b2 5F50554D 		.ascii	"_PUMP_STOPALL_\000"
 17700      505F5354 
 17700      4F50414C 
 17700      4C5F00
 17701              	.LASF490:
 17702 25c1 7472616E 		.ascii	"transtype\000"
 17702      73747970 
 17702      6500
 17703              	.LASF170:
 17704 25cb 44495350 		.ascii	"DISPLAY_OPCION_TURNO\000"
 17704      4C41595F 
 17704      4F504349 
 17704      4F4E5F54 
 17704      55524E4F 
 17705              	.LASF326:
 17706 25e0 5F726570 		.ascii	"_repushtimeoutseed\000"
 17706      75736874 
 17706      696D656F 
 17706      75747365 
 17706      656400
 17707              	.LASF259:
 17708 25f3 5F686F73 		.ascii	"_hoseid\000"
 17708      65696400 
 17709              	.LASF544:
 17710 25fb 72656676 		.ascii	"refval\000"
 17710      616C00
 17711              	.LASF411:
 17712 2602 52465F4D 		.ascii	"RF_MUX_CREDIT_PRESET_AUTHORIZATION_RESPONSE\000"
 17712      55585F43 
 17712      52454449 
 17712      545F5052 
 17712      45534554 
 17713              	.LASF41:
 17714 262e 5F6D6573 		.ascii	"_messagestate\000"
 17714      73616765 
 17714      73746174 
 17714      6500
 17715              	.LASF309:
 17716 263c 5F726574 		.ascii	"_retryinsteadofrepush\000"
 17716      7279696E 
 17716      73746561 
 17716      646F6672 
 17716      65707573 
 17717              	.LASF221:
 17718 2652 5F50554D 		.ascii	"_PUMP_FILL_FULL_\000"
 17718      505F4649 
 17718      4C4C5F46 
ARM GAS  C:\Users\RECEPC~1\AppData\Local\Temp\ccZZcwiB.s 			page 389


 17718      554C4C5F 
 17718      00
 17719              	.LASF86:
 17720 2663 44495350 		.ascii	"DISPLAY2_ANIMATE_HOME\000"
 17720      4C415932 
 17720      5F414E49 
 17720      4D415445 
 17720      5F484F4D 
 17721              	.LASF189:
 17722 2679 4C505241 		.ascii	"LPRAWPTR\000"
 17722      57505452 
 17722      00
 17723              	.LASF227:
 17724 2682 5F50554D 		.ascii	"_PUMP_EOT_\000"
 17724      505F454F 
 17724      545F00
 17725              	.LASF78:
 17726 268d 44495350 		.ascii	"DISPLAY_UPDATE_PUMP_STATE\000"
 17726      4C41595F 
 17726      55504441 
 17726      54455F50 
 17726      554D505F 
 17727              	.LASF33:
 17728 26a7 5F4D4553 		.ascii	"_MESSAGE_TYPE_\000"
 17728      53414745 
 17728      5F545950 
 17728      455F00
 17729              	.LASF68:
 17730 26b6 44495350 		.ascii	"DISPENSER_RESTORE_PRICES\000"
 17730      454E5345 
 17730      525F5245 
 17730      53544F52 
 17730      455F5052 
 17731              	.LASF196:
 17732 26cf 50554D50 		.ascii	"PUMP_DATA_TO_PUMP\000"
 17732      5F444154 
 17732      415F544F 
 17732      5F50554D 
 17732      5000
 17733              	.LASF415:
 17734 26e1 52465F4D 		.ascii	"RF_MUX_CASH_SALE_START_RESPONSE\000"
 17734      55585F43 
 17734      4153485F 
 17734      53414C45 
 17734      5F535441 
 17735              	.LASF306:
 17736 2701 5F726573 		.ascii	"_responsetimeoutlimit\000"
 17736      706F6E73 
 17736      6574696D 
 17736      656F7574 
 17736      6C696D69 
 17737              	.LASF525:
 17738 2717 41637175 		.ascii	"AcquirePumpTotalsResponseResolver\000"
 17738      69726550 
 17738      756D7054 
 17738      6F74616C 
 17738      73526573 
ARM GAS  C:\Users\RECEPC~1\AppData\Local\Temp\ccZZcwiB.s 			page 390


 17739              	.LASF278:
 17740 2739 5F707269 		.ascii	"_print\000"
 17740      6E7400
 17741              	.LASF234:
 17742 2740 5F50554D 		.ascii	"_PUMP_BUSY_\000"
 17742      505F4255 
 17742      53595F00 
 17743              	.LASF376:
 17744 274c 45455052 		.ascii	"EEPROM_DISPENSER_PUMP3_LAYOUT_PAGE\000"
 17744      4F4D5F44 
 17744      49535045 
 17744      4E534552 
 17744      5F50554D 
 17745              	.LASF423:
 17746 276f 52465F4D 		.ascii	"RF_MUX_PRICE_CHANGE_RESPONSE\000"
 17746      55585F50 
 17746      52494345 
 17746      5F434841 
 17746      4E47455F 
 17747              	.LASF3:
 17748 278c 73686F72 		.ascii	"short unsigned int\000"
 17748      7420756E 
 17748      7369676E 
 17748      65642069 
 17748      6E7400
 17749              	.LASF508:
 17750 279f 74617267 		.ascii	"targetmemoryareafound\000"
 17750      65746D65 
 17750      6D6F7279 
 17750      61726561 
 17750      666F756E 
 17751              	.LASF290:
 17752 27b5 50756D70 		.ascii	"PumpTransQueueFind\000"
 17752      5472616E 
 17752      73517565 
 17752      75654669 
 17752      6E6400
 17753              	.LASF121:
 17754 27c8 4572726F 		.ascii	"ErrorHandler\000"
 17754      7248616E 
 17754      646C6572 
 17754      00
 17755              	.LASF457:
 17756 27d5 5F74696D 		.ascii	"_timeouttoreceivemultiplier\000"
 17756      656F7574 
 17756      746F7265 
 17756      63656976 
 17756      656D756C 
 17757              	.LASF75:
 17758 27f1 5052494E 		.ascii	"PRINTER22_JOB\000"
 17758      54455232 
 17758      325F4A4F 
 17758      4200
 17759              	.LASF434:
 17760 27ff 52465F4D 		.ascii	"RF_MUX_BROADCAST_CFG_REQUEST\000"
 17760      55585F42 
 17760      524F4144 
ARM GAS  C:\Users\RECEPC~1\AppData\Local\Temp\ccZZcwiB.s 			page 391


 17760      43415354 
 17760      5F434647 
 17761              	.LASF477:
 17762 281c 50756D70 		.ascii	"PumpJobTimeout\000"
 17762      4A6F6254 
 17762      696D656F 
 17762      757400
 17763              	.LASF207:
 17764 282b 5F50554D 		.ascii	"_PUMP_STATES_\000"
 17764      505F5354 
 17764      41544553 
 17764      5F00
 17765              	.LASF5:
 17766 2839 5F5F696E 		.ascii	"__int32_t\000"
 17766      7433325F 
 17766      7400
 17767              	.LASF424:
 17768 2843 52465F4D 		.ascii	"RF_MUX_GENERAL_PRINT_REQUEST\000"
 17768      55585F47 
 17768      454E4552 
 17768      414C5F50 
 17768      52494E54 
 17769              	.LASF380:
 17770 2860 45455052 		.ascii	"EEPROM_DISPENSER_PUMP3_PRODUCT_NAMES_PAGE\000"
 17770      4F4D5F44 
 17770      49535045 
 17770      4E534552 
 17770      5F50554D 
 17771              	.LASF242:
 17772 288a 50756D70 		.ascii	"PumpTransactionalState\000"
 17772      5472616E 
 17772      73616374 
 17772      696F6E61 
 17772      6C537461 
 17773              	.LASF296:
 17774 28a1 5F646174 		.ascii	"_datacontainer\000"
 17774      61636F6E 
 17774      7461696E 
 17774      657200
 17775              	.LASF322:
 17776 28b0 5F726565 		.ascii	"_reenqueuecounter\000"
 17776      6E717565 
 17776      7565636F 
 17776      756E7465 
 17776      7200
 17777              	.LASF215:
 17778 28c2 50554D50 		.ascii	"PUMP_STOPPED\000"
 17778      5F53544F 
 17778      50504544 
 17778      00
 17779              	.LASF34:
 17780 28cf 5F4D4553 		.ascii	"_MESSAGE_STATE_\000"
 17780      53414745 
 17780      5F535441 
 17780      54455F00 
 17781              	.LASF35:
 17782 28df 53494E4B 		.ascii	"SINK_FREE\000"
ARM GAS  C:\Users\RECEPC~1\AppData\Local\Temp\ccZZcwiB.s 			page 392


 17782      5F465245 
 17782      4500
 17783              	.LASF25:
 17784 28e9 4E4F4E45 		.ascii	"NONE\000"
 17784      00
 17785              	.LASF478:
 17786 28ee 50756D70 		.ascii	"PumpStateJobTimeout\000"
 17786      53746174 
 17786      654A6F62 
 17786      54696D65 
 17786      6F757400 
 17787              	.LASF88:
 17788 2902 49425554 		.ascii	"IBUTTON2_SCAN\000"
 17788      544F4E32 
 17788      5F534341 
 17788      4E00
 17789              	.LASF431:
 17790 2910 52465F4D 		.ascii	"RF_MUX_PENDING_CREDIT_SALE_RESPONSE\000"
 17790      55585F50 
 17790      454E4449 
 17790      4E475F43 
 17790      52454449 
 17791              	.LASF528:
 17792 2934 41647661 		.ascii	"AdvantageActivateProgramming\000"
 17792      6E746167 
 17792      65416374 
 17792      69766174 
 17792      6550726F 
 17793              	.LASF360:
 17794 2951 5F646973 		.ascii	"_displaydigitsmode\000"
 17794      706C6179 
 17794      64696769 
 17794      74736D6F 
 17794      646500
 17795              	.LASF14:
 17796 2964 75696E74 		.ascii	"uint16\000"
 17796      313600
 17797              	.LASF438:
 17798 296b 52465F4D 		.ascii	"RF_MUX_ISLAND_OPER_DATA_REQUEST\000"
 17798      55585F49 
 17798      534C414E 
 17798      445F4F50 
 17798      45525F44 
 17799              	.LASF289:
 17800 298b 50756D70 		.ascii	"PumpTransQueueUnlock\000"
 17800      5472616E 
 17800      73517565 
 17800      7565556E 
 17800      6C6F636B 
 17801              	.LASF122:
 17802 29a0 5F707561 		.ascii	"_puartmanager\000"
 17802      72746D61 
 17802      6E616765 
 17802      7200
 17803              	.LASF425:
 17804 29ae 52465F4D 		.ascii	"RF_MUX_GENERAL_PRINT_RESPONSE\000"
 17804      55585F47 
ARM GAS  C:\Users\RECEPC~1\AppData\Local\Temp\ccZZcwiB.s 			page 393


 17804      454E4552 
 17804      414C5F50 
 17804      52494E54 
 17805              	.LASF458:
 17806 29cc 52464175 		.ascii	"RFAutoRun\000"
 17806      746F5275 
 17806      6E00
 17807              	.LASF47:
 17808 29d6 5F627566 		.ascii	"_buffersize\000"
 17808      66657273 
 17808      697A6500 
 17809              	.LASF395:
 17810 29e2 45455052 		.ascii	"EEPROM_DISPENSER_PUMP22_TRANSACTION_PAGE\000"
 17810      4F4D5F44 
 17810      49535045 
 17810      4E534552 
 17810      5F50554D 
 17811              	.LASF166:
 17812 2a0b 44495350 		.ascii	"DISPLAY_AUTORIZACION_RECHAZADA\000"
 17812      4C41595F 
 17812      4155544F 
 17812      52495A41 
 17812      43494F4E 
 17813              	.LASF459:
 17814 2a2a 5F707269 		.ascii	"_printerportside1\000"
 17814      6E746572 
 17814      706F7274 
 17814      73696465 
 17814      3100
 17815              		.ident	"GCC: (GNU Tools for ARM Embedded Processors) 4.9.3 20150303 (release) [ARM/embedded-4_9-br
