ARM GAS  C:\Users\Lenovo\AppData\Local\Temp\cccA9qMw.s 			page 1


   1              		.syntax unified
   2              		.cpu cortex-m3
   3              		.fpu softvfp
   4              		.eabi_attribute 20, 1
   5              		.eabi_attribute 21, 1
   6              		.eabi_attribute 23, 3
   7              		.eabi_attribute 24, 1
   8              		.eabi_attribute 25, 1
   9              		.eabi_attribute 26, 1
  10              		.eabi_attribute 30, 6
  11              		.eabi_attribute 34, 1
  12              		.eabi_attribute 18, 4
  13              		.thumb
  14              		.file	"AdvantageImpl.c"
  15              		.text
  16              	.Ltext0:
  17              		.cfi_sections	.debug_frame
  18              		.section	.text.AcquirePumpStateResponse,"ax",%progbits
  19              		.align	2
  20              		.global	AcquirePumpStateResponse
  21              		.thumb
  22              		.thumb_func
  23              		.type	AcquirePumpStateResponse, %function
  24              	AcquirePumpStateResponse:
  25              	.LFB63:
  26              		.file 1 ".\\AdvantageImpl.c"
   1:.\AdvantageImpl.c **** /* ========================================
   2:.\AdvantageImpl.c ****  *
   3:.\AdvantageImpl.c ****  * Copyright INSEPET SISTEMAS, 2016
   4:.\AdvantageImpl.c ****  * All Rights Reserved
   5:.\AdvantageImpl.c ****  * UNPUBLISHED, LICENSED SOFTWARE.
   6:.\AdvantageImpl.c ****  *
   7:.\AdvantageImpl.c ****  * CONFIDENTIAL AND PROPRIETARY INFORMATION
   8:.\AdvantageImpl.c ****  * WHICH IS THE PROPERTY OF your company.
   9:.\AdvantageImpl.c ****  *
  10:.\AdvantageImpl.c ****  * ========================================
  11:.\AdvantageImpl.c **** @Created By: HIJH
  12:.\AdvantageImpl.c **** @Date: Novembre de 2016
  13:.\AdvantageImpl.c **** */
  14:.\AdvantageImpl.c **** 
  15:.\AdvantageImpl.c **** #include <project.h>
  16:.\AdvantageImpl.c **** #include "GlobalDefinitions.h"
  17:.\AdvantageImpl.c **** #include "SinkManager.h"
  18:.\AdvantageImpl.c **** #include "SinkObservables.h"
  19:.\AdvantageImpl.c **** #include "UARTManager.h"
  20:.\AdvantageImpl.c **** #include "Display.h"
  21:.\AdvantageImpl.c **** #include "Dispenser.h"
  22:.\AdvantageImpl.c **** #include "Eeprom.h"
  23:.\AdvantageImpl.c **** #include "RFLink.h"
  24:.\AdvantageImpl.c **** #include "Printer.h"
  25:.\AdvantageImpl.c **** #include "Rtc.h"
  26:.\AdvantageImpl.c **** 
  27:.\AdvantageImpl.c **** #ifdef ADVANTAGE_PROTOCOL
  28:.\AdvantageImpl.c **** 
  29:.\AdvantageImpl.c **** uint8_t FindLRC(char8 *_pbuffer);
  30:.\AdvantageImpl.c **** uint8_t GetLRC(char8 *_pbuffer);
  31:.\AdvantageImpl.c **** 
ARM GAS  C:\Users\Lenovo\AppData\Local\Temp\cccA9qMw.s 			page 2


  32:.\AdvantageImpl.c **** ///////////////////////////////////////////////////////////////////////////////////////////////////
  33:.\AdvantageImpl.c **** //////////////////////                 BLOCK OF AVAILABLE RESPONSE HANDLERS
  34:.\AdvantageImpl.c **** ///////////////////////////////////////////////////////////////////////////////////////////////////
  35:.\AdvantageImpl.c **** 
  36:.\AdvantageImpl.c **** void AdvantageActivateProgramming(LPVOID pparam);
  37:.\AdvantageImpl.c **** extern PNEARDISPENSERACTIVATEPROGRAMMING _g_ptractprogramming;
  38:.\AdvantageImpl.c **** 
  39:.\AdvantageImpl.c **** //@Created By: HIJH
  40:.\AdvantageImpl.c **** //@Date: Septembre de 2016
  41:.\AdvantageImpl.c **** //Updates the pump state into the pump structure
  42:.\AdvantageImpl.c **** void AcquirePumpStateResponse(void *pparam)
  43:.\AdvantageImpl.c **** {
  27              		.loc 1 43 0
  28              		.cfi_startproc
  29              		@ args = 0, pretend = 0, frame = 16
  30              		@ frame_needed = 1, uses_anonymous_args = 0
  31 0000 80B5     		push	{r7, lr}
  32              		.cfi_def_cfa_offset 8
  33              		.cfi_offset 7, -8
  34              		.cfi_offset 14, -4
  35 0002 84B0     		sub	sp, sp, #16
  36              		.cfi_def_cfa_offset 24
  37 0004 00AF     		add	r7, sp, #0
  38              		.cfi_def_cfa_register 7
  39 0006 7860     		str	r0, [r7, #4]
  44:.\AdvantageImpl.c ****     PPUMPTRANSACTIONJOBCONTEXTPTR pjob = (PPUMPTRANSACTIONJOBCONTEXTPTR)pparam;
  40              		.loc 1 44 0
  41 0008 7B68     		ldr	r3, [r7, #4]
  42 000a FB60     		str	r3, [r7, #12]
  45:.\AdvantageImpl.c ****     if(pjob)
  43              		.loc 1 45 0
  44 000c FB68     		ldr	r3, [r7, #12]
  45 000e 002B     		cmp	r3, #0
  46 0010 5BD0     		beq	.L1
  47              	.LBB2:
  46:.\AdvantageImpl.c ****     {
  47:.\AdvantageImpl.c ****         uint8 prevstate = pjob->_ppump->_pumpstate;
  48              		.loc 1 47 0
  49 0012 FB68     		ldr	r3, [r7, #12]
  50 0014 DB69     		ldr	r3, [r3, #28]
  51 0016 9B78     		ldrb	r3, [r3, #2]
  52 0018 FB72     		strb	r3, [r7, #11]
  48:.\AdvantageImpl.c ****         pjob->_ppump->_pumpstate = ((pjob->_ppump->_rxbuffer[0x00] & 0xF0) >> 4);
  53              		.loc 1 48 0
  54 001a FB68     		ldr	r3, [r7, #12]
  55 001c DB69     		ldr	r3, [r3, #28]
  56 001e FA68     		ldr	r2, [r7, #12]
  57 0020 D269     		ldr	r2, [r2, #28]
  58 0022 92F8A021 		ldrb	r2, [r2, #416]	@ zero_extendqisi2
  59 0026 1209     		lsrs	r2, r2, #4
  60 0028 D2B2     		uxtb	r2, r2
  61 002a 9A70     		strb	r2, [r3, #2]
  49:.\AdvantageImpl.c ****         if(pjob->_ppump->PumpValidState(pjob->_ppump))
  62              		.loc 1 49 0
  63 002c FB68     		ldr	r3, [r7, #12]
  64 002e DB69     		ldr	r3, [r3, #28]
  65 0030 D3F8603B 		ldr	r3, [r3, #2912]
ARM GAS  C:\Users\Lenovo\AppData\Local\Temp\cccA9qMw.s 			page 3


  66 0034 FA68     		ldr	r2, [r7, #12]
  67 0036 D269     		ldr	r2, [r2, #28]
  68 0038 1046     		mov	r0, r2
  69 003a 9847     		blx	r3
  70 003c 0346     		mov	r3, r0
  71 003e 002B     		cmp	r3, #0
  72 0040 04D0     		beq	.L3
  50:.\AdvantageImpl.c ****             pjob->_ppump->_transhealth = _PUMP_OK_;
  73              		.loc 1 50 0
  74 0042 FB68     		ldr	r3, [r7, #12]
  75 0044 DB69     		ldr	r3, [r3, #28]
  76 0046 0122     		movs	r2, #1
  77 0048 1A76     		strb	r2, [r3, #24]
  78 004a 07E0     		b	.L4
  79              	.L3:
  51:.\AdvantageImpl.c ****         else
  52:.\AdvantageImpl.c ****         {
  53:.\AdvantageImpl.c ****             pjob->_ppump->_transhealth = _PUMP_FAIL_;
  80              		.loc 1 53 0
  81 004c FB68     		ldr	r3, [r7, #12]
  82 004e DB69     		ldr	r3, [r3, #28]
  83 0050 0222     		movs	r2, #2
  84 0052 1A76     		strb	r2, [r3, #24]
  54:.\AdvantageImpl.c ****             pjob->_ppump->_pumpstate = RF_ERROR;
  85              		.loc 1 54 0
  86 0054 FB68     		ldr	r3, [r7, #12]
  87 0056 DB69     		ldr	r3, [r3, #28]
  88 0058 0422     		movs	r2, #4
  89 005a 9A70     		strb	r2, [r3, #2]
  90              	.L4:
  55:.\AdvantageImpl.c ****         }
  56:.\AdvantageImpl.c ****         
  57:.\AdvantageImpl.c ****         if(pjob->_ppump->_pumpstate == PUMP_CALLING)
  91              		.loc 1 57 0
  92 005c FB68     		ldr	r3, [r7, #12]
  93 005e DB69     		ldr	r3, [r3, #28]
  94 0060 9B78     		ldrb	r3, [r3, #2]
  95 0062 DBB2     		uxtb	r3, r3
  96 0064 072B     		cmp	r3, #7
  97 0066 03D1     		bne	.L5
  58:.\AdvantageImpl.c ****             pjob->_ppump->_pumplocked = false;
  98              		.loc 1 58 0
  99 0068 FB68     		ldr	r3, [r7, #12]
 100 006a DB69     		ldr	r3, [r3, #28]
 101 006c 0022     		movs	r2, #0
 102 006e 5A72     		strb	r2, [r3, #9]
 103              	.L5:
  59:.\AdvantageImpl.c ****         
  60:.\AdvantageImpl.c ****         if((pjob->_ppump->_pumpstate == PUMP_IDLE || pjob->_ppump->_pumpstate == PUMP_CALLING) && 
 104              		.loc 1 60 0
 105 0070 FB68     		ldr	r3, [r7, #12]
 106 0072 DB69     		ldr	r3, [r3, #28]
 107 0074 9B78     		ldrb	r3, [r3, #2]
 108 0076 DBB2     		uxtb	r3, r3
 109 0078 062B     		cmp	r3, #6
 110 007a 05D0     		beq	.L6
 111              		.loc 1 60 0 is_stmt 0 discriminator 2
ARM GAS  C:\Users\Lenovo\AppData\Local\Temp\cccA9qMw.s 			page 4


 112 007c FB68     		ldr	r3, [r7, #12]
 113 007e DB69     		ldr	r3, [r3, #28]
 114 0080 9B78     		ldrb	r3, [r3, #2]
 115 0082 DBB2     		uxtb	r3, r3
 116 0084 072B     		cmp	r3, #7
 117 0086 09D1     		bne	.L7
 118              	.L6:
 119              		.loc 1 60 0 discriminator 3
 120 0088 FB7A     		ldrb	r3, [r7, #11]	@ zero_extendqisi2
 121 008a 092B     		cmp	r3, #9
 122 008c 02D0     		beq	.L8
  61:.\AdvantageImpl.c ****             (prevstate == PUMP_BUSY || prevstate == PUMP_AUTHORIZED))
 123              		.loc 1 61 0 is_stmt 1
 124 008e FB7A     		ldrb	r3, [r7, #11]	@ zero_extendqisi2
 125 0090 082B     		cmp	r3, #8
 126 0092 03D1     		bne	.L7
 127              	.L8:
  62:.\AdvantageImpl.c ****             pjob->_ppump->_pumprftransstate = RF_IDLE;
 128              		.loc 1 62 0
 129 0094 FB68     		ldr	r3, [r7, #12]
 130 0096 DB69     		ldr	r3, [r3, #28]
 131 0098 0822     		movs	r2, #8
 132 009a 1A73     		strb	r2, [r3, #12]
 133              	.L7:
  63:.\AdvantageImpl.c ****         if((pjob->_ppump->_pumpstate == PUMP_FEOT || pjob->_ppump->_pumpstate == PUMP_PEOT) && 
 134              		.loc 1 63 0
 135 009c FB68     		ldr	r3, [r7, #12]
 136 009e DB69     		ldr	r3, [r3, #28]
 137 00a0 9B78     		ldrb	r3, [r3, #2]
 138 00a2 DBB2     		uxtb	r3, r3
 139 00a4 0B2B     		cmp	r3, #11
 140 00a6 05D0     		beq	.L9
 141              		.loc 1 63 0 is_stmt 0 discriminator 2
 142 00a8 FB68     		ldr	r3, [r7, #12]
 143 00aa DB69     		ldr	r3, [r3, #28]
 144 00ac 9B78     		ldrb	r3, [r3, #2]
 145 00ae DBB2     		uxtb	r3, r3
 146 00b0 0A2B     		cmp	r3, #10
 147 00b2 06D1     		bne	.L10
 148              	.L9:
 149              		.loc 1 63 0 discriminator 3
 150 00b4 FB7A     		ldrb	r3, [r7, #11]	@ zero_extendqisi2
 151 00b6 092B     		cmp	r3, #9
 152 00b8 03D1     		bne	.L10
  64:.\AdvantageImpl.c ****             (prevstate == PUMP_BUSY))
  65:.\AdvantageImpl.c ****             pjob->_ppump->_pumprftransstate = RF_CASHSALEREPORT;
 153              		.loc 1 65 0 is_stmt 1
 154 00ba FB68     		ldr	r3, [r7, #12]
 155 00bc DB69     		ldr	r3, [r3, #28]
 156 00be 0222     		movs	r2, #2
 157 00c0 1A73     		strb	r2, [r3, #12]
 158              	.L10:
  66:.\AdvantageImpl.c ****         /*if((pjob->_ppump->_pumpstate == PUMP_IDLE || pjob->_ppump->_pumpstate == PUMP_CALLING) &&
  67:.\AdvantageImpl.c ****             (prevstate == PUMP_FEOT || prevstate == PUMP_PEOT || prevstate == PUMP_BUSY || prevstat
  68:.\AdvantageImpl.c ****             pjob->_ppump->_pumprftransstate = RF_IDLE;*/
  69:.\AdvantageImpl.c ****                 
  70:.\AdvantageImpl.c ****         pjob->_ppump->_acquiringstate = false;
ARM GAS  C:\Users\Lenovo\AppData\Local\Temp\cccA9qMw.s 			page 5


 159              		.loc 1 70 0
 160 00c2 FB68     		ldr	r3, [r7, #12]
 161 00c4 DB69     		ldr	r3, [r3, #28]
 162 00c6 0022     		movs	r2, #0
 163 00c8 5A71     		strb	r2, [r3, #5]
 164              	.L1:
 165              	.LBE2:
  71:.\AdvantageImpl.c ****     }
  72:.\AdvantageImpl.c **** }
 166              		.loc 1 72 0
 167 00ca 1037     		adds	r7, r7, #16
 168              		.cfi_def_cfa_offset 8
 169 00cc BD46     		mov	sp, r7
 170              		.cfi_def_cfa_register 13
 171              		@ sp needed
 172 00ce 80BD     		pop	{r7, pc}
 173              		.cfi_endproc
 174              	.LFE63:
 175              		.size	AcquirePumpStateResponse, .-AcquirePumpStateResponse
 176              		.section	.text.AcquireDatatoPumpResponse,"ax",%progbits
 177              		.align	2
 178              		.global	AcquireDatatoPumpResponse
 179              		.thumb
 180              		.thumb_func
 181              		.type	AcquireDatatoPumpResponse, %function
 182              	AcquireDatatoPumpResponse:
 183              	.LFB64:
  73:.\AdvantageImpl.c **** 
  74:.\AdvantageImpl.c **** //@Created By: HIJH
  75:.\AdvantageImpl.c **** //@Date: Septembre de 2016
  76:.\AdvantageImpl.c **** //Validates the response from the pump previous batch transfer (0xDp)
  77:.\AdvantageImpl.c **** void AcquireDatatoPumpResponse(void *pparam)
  78:.\AdvantageImpl.c **** {
 184              		.loc 1 78 0
 185              		.cfi_startproc
 186              		@ args = 0, pretend = 0, frame = 16
 187              		@ frame_needed = 1, uses_anonymous_args = 0
 188              		@ link register save eliminated.
 189 0000 80B4     		push	{r7}
 190              		.cfi_def_cfa_offset 4
 191              		.cfi_offset 7, -4
 192 0002 85B0     		sub	sp, sp, #20
 193              		.cfi_def_cfa_offset 24
 194 0004 00AF     		add	r7, sp, #0
 195              		.cfi_def_cfa_register 7
 196 0006 7860     		str	r0, [r7, #4]
  79:.\AdvantageImpl.c ****     PPUMPTRANSACTIONJOBCONTEXTPTR pjob = (PPUMPTRANSACTIONJOBCONTEXTPTR)pparam;
 197              		.loc 1 79 0
 198 0008 7B68     		ldr	r3, [r7, #4]
 199 000a FB60     		str	r3, [r7, #12]
  80:.\AdvantageImpl.c ****     if(pjob)
 200              		.loc 1 80 0
 201 000c FB68     		ldr	r3, [r7, #12]
 202 000e 002B     		cmp	r3, #0
 203 0010 15D0     		beq	.L11
  81:.\AdvantageImpl.c ****     {
  82:.\AdvantageImpl.c ****         if((0x0F & pjob->_ppump->_pumpid) == (pjob->_ppump->_rxbuffer[0x00] & 0x0F))
ARM GAS  C:\Users\Lenovo\AppData\Local\Temp\cccA9qMw.s 			page 6


 204              		.loc 1 82 0
 205 0012 FB68     		ldr	r3, [r7, #12]
 206 0014 DB69     		ldr	r3, [r3, #28]
 207 0016 1B78     		ldrb	r3, [r3]	@ zero_extendqisi2
 208 0018 1A46     		mov	r2, r3
 209 001a FB68     		ldr	r3, [r7, #12]
 210 001c DB69     		ldr	r3, [r3, #28]
 211 001e 93F8A031 		ldrb	r3, [r3, #416]	@ zero_extendqisi2
 212 0022 5340     		eors	r3, r3, r2
 213 0024 03F00F03 		and	r3, r3, #15
 214 0028 002B     		cmp	r3, #0
 215 002a 08D1     		bne	.L11
  83:.\AdvantageImpl.c ****             pjob->_ppump->_pumpstate = ((pjob->_ppump->_rxbuffer[0x00] >> 4)& 0x0F);
 216              		.loc 1 83 0
 217 002c FB68     		ldr	r3, [r7, #12]
 218 002e DB69     		ldr	r3, [r3, #28]
 219 0030 FA68     		ldr	r2, [r7, #12]
 220 0032 D269     		ldr	r2, [r2, #28]
 221 0034 92F8A021 		ldrb	r2, [r2, #416]	@ zero_extendqisi2
 222 0038 1209     		lsrs	r2, r2, #4
 223 003a D2B2     		uxtb	r2, r2
 224 003c 9A70     		strb	r2, [r3, #2]
 225              	.L11:
  84:.\AdvantageImpl.c ****     }
  85:.\AdvantageImpl.c **** }
 226              		.loc 1 85 0
 227 003e 1437     		adds	r7, r7, #20
 228              		.cfi_def_cfa_offset 4
 229 0040 BD46     		mov	sp, r7
 230              		.cfi_def_cfa_register 13
 231              		@ sp needed
 232 0042 5DF8047B 		ldr	r7, [sp], #4
 233              		.cfi_restore 7
 234              		.cfi_def_cfa_offset 0
 235 0046 7047     		bx	lr
 236              		.cfi_endproc
 237              	.LFE64:
 238              		.size	AcquireDatatoPumpResponse, .-AcquireDatatoPumpResponse
 239              		.section	.text.ProcessPumpRTMoneyRequest,"ax",%progbits
 240              		.align	2
 241              		.global	ProcessPumpRTMoneyRequest
 242              		.thumb
 243              		.thumb_func
 244              		.type	ProcessPumpRTMoneyRequest, %function
 245              	ProcessPumpRTMoneyRequest:
 246              	.LFB65:
  86:.\AdvantageImpl.c **** 
  87:.\AdvantageImpl.c **** void ProcessPumpRTMoneyRequest(void *pparam)
  88:.\AdvantageImpl.c **** {
 247              		.loc 1 88 0
 248              		.cfi_startproc
 249              		@ args = 0, pretend = 0, frame = 16
 250              		@ frame_needed = 1, uses_anonymous_args = 0
 251 0000 90B5     		push	{r4, r7, lr}
 252              		.cfi_def_cfa_offset 12
 253              		.cfi_offset 4, -12
 254              		.cfi_offset 7, -8
ARM GAS  C:\Users\Lenovo\AppData\Local\Temp\cccA9qMw.s 			page 7


 255              		.cfi_offset 14, -4
 256 0002 85B0     		sub	sp, sp, #20
 257              		.cfi_def_cfa_offset 32
 258 0004 00AF     		add	r7, sp, #0
 259              		.cfi_def_cfa_register 7
 260 0006 7860     		str	r0, [r7, #4]
  89:.\AdvantageImpl.c ****     PPUMPTRANSACTIONJOBCONTEXTPTR pjob = (PPUMPTRANSACTIONJOBCONTEXTPTR)pparam;
 261              		.loc 1 89 0
 262 0008 7B68     		ldr	r3, [r7, #4]
 263 000a FB60     		str	r3, [r7, #12]
  90:.\AdvantageImpl.c ****     if(pjob)
 264              		.loc 1 90 0
 265 000c FB68     		ldr	r3, [r7, #12]
 266 000e 002B     		cmp	r3, #0
 267 0010 63D0     		beq	.L13
  91:.\AdvantageImpl.c ****     {
  92:.\AdvantageImpl.c ****         //Bytes from index 0 to 7 are the digits for the Real Time Money Data in BCD format
  93:.\AdvantageImpl.c ****         pjob->_ppump->_rxbuffer[0x00] = (pjob->_ppump->_rxbuffer[0x00] & 0x0F);
 268              		.loc 1 93 0
 269 0012 FB68     		ldr	r3, [r7, #12]
 270 0014 DB69     		ldr	r3, [r3, #28]
 271 0016 FA68     		ldr	r2, [r7, #12]
 272 0018 D269     		ldr	r2, [r2, #28]
 273 001a 92F8A021 		ldrb	r2, [r2, #416]	@ zero_extendqisi2
 274 001e 02F00F02 		and	r2, r2, #15
 275 0022 D2B2     		uxtb	r2, r2
 276 0024 83F8A021 		strb	r2, [r3, #416]
  94:.\AdvantageImpl.c ****         pjob->_ppump->_rxbuffer[0x01] = (pjob->_ppump->_rxbuffer[0x01] & 0x0F);
 277              		.loc 1 94 0
 278 0028 FB68     		ldr	r3, [r7, #12]
 279 002a DB69     		ldr	r3, [r3, #28]
 280 002c FA68     		ldr	r2, [r7, #12]
 281 002e D269     		ldr	r2, [r2, #28]
 282 0030 92F8A121 		ldrb	r2, [r2, #417]	@ zero_extendqisi2
 283 0034 02F00F02 		and	r2, r2, #15
 284 0038 D2B2     		uxtb	r2, r2
 285 003a 83F8A121 		strb	r2, [r3, #417]
  95:.\AdvantageImpl.c ****         pjob->_ppump->_rxbuffer[0x02] = (pjob->_ppump->_rxbuffer[0x02] & 0x0F);
 286              		.loc 1 95 0
 287 003e FB68     		ldr	r3, [r7, #12]
 288 0040 DB69     		ldr	r3, [r3, #28]
 289 0042 FA68     		ldr	r2, [r7, #12]
 290 0044 D269     		ldr	r2, [r2, #28]
 291 0046 92F8A221 		ldrb	r2, [r2, #418]	@ zero_extendqisi2
 292 004a 02F00F02 		and	r2, r2, #15
 293 004e D2B2     		uxtb	r2, r2
 294 0050 83F8A221 		strb	r2, [r3, #418]
  96:.\AdvantageImpl.c ****         pjob->_ppump->_rxbuffer[0x03] = (pjob->_ppump->_rxbuffer[0x03] & 0x0F);
 295              		.loc 1 96 0
 296 0054 FB68     		ldr	r3, [r7, #12]
 297 0056 DB69     		ldr	r3, [r3, #28]
 298 0058 FA68     		ldr	r2, [r7, #12]
 299 005a D269     		ldr	r2, [r2, #28]
 300 005c 92F8A321 		ldrb	r2, [r2, #419]	@ zero_extendqisi2
 301 0060 02F00F02 		and	r2, r2, #15
 302 0064 D2B2     		uxtb	r2, r2
 303 0066 83F8A321 		strb	r2, [r3, #419]
ARM GAS  C:\Users\Lenovo\AppData\Local\Temp\cccA9qMw.s 			page 8


  97:.\AdvantageImpl.c ****         pjob->_ppump->_rxbuffer[0x04] = (pjob->_ppump->_rxbuffer[0x04] & 0x0F);
 304              		.loc 1 97 0
 305 006a FB68     		ldr	r3, [r7, #12]
 306 006c DB69     		ldr	r3, [r3, #28]
 307 006e FA68     		ldr	r2, [r7, #12]
 308 0070 D269     		ldr	r2, [r2, #28]
 309 0072 92F8A421 		ldrb	r2, [r2, #420]	@ zero_extendqisi2
 310 0076 02F00F02 		and	r2, r2, #15
 311 007a D2B2     		uxtb	r2, r2
 312 007c 83F8A421 		strb	r2, [r3, #420]
  98:.\AdvantageImpl.c ****         pjob->_ppump->_rxbuffer[0x05] = (pjob->_ppump->_rxbuffer[0x05] & 0x0F);
 313              		.loc 1 98 0
 314 0080 FB68     		ldr	r3, [r7, #12]
 315 0082 DB69     		ldr	r3, [r3, #28]
 316 0084 FA68     		ldr	r2, [r7, #12]
 317 0086 D269     		ldr	r2, [r2, #28]
 318 0088 92F8A521 		ldrb	r2, [r2, #421]	@ zero_extendqisi2
 319 008c 02F00F02 		and	r2, r2, #15
 320 0090 D2B2     		uxtb	r2, r2
 321 0092 83F8A521 		strb	r2, [r3, #421]
  99:.\AdvantageImpl.c ****         pjob->_ppump->_rxbuffer[0x06] = (pjob->_ppump->_rxbuffer[0x06] & 0x0F);
 322              		.loc 1 99 0
 323 0096 FB68     		ldr	r3, [r7, #12]
 324 0098 DB69     		ldr	r3, [r3, #28]
 325 009a FA68     		ldr	r2, [r7, #12]
 326 009c D269     		ldr	r2, [r2, #28]
 327 009e 92F8A621 		ldrb	r2, [r2, #422]	@ zero_extendqisi2
 328 00a2 02F00F02 		and	r2, r2, #15
 329 00a6 D2B2     		uxtb	r2, r2
 330 00a8 83F8A621 		strb	r2, [r3, #422]
 100:.\AdvantageImpl.c ****         pjob->_ppump->_rxbuffer[0x07] = (pjob->_ppump->_rxbuffer[0x07] & 0x0F);
 331              		.loc 1 100 0
 332 00ac FB68     		ldr	r3, [r7, #12]
 333 00ae DB69     		ldr	r3, [r3, #28]
 334 00b0 FA68     		ldr	r2, [r7, #12]
 335 00b2 D269     		ldr	r2, [r2, #28]
 336 00b4 92F8A721 		ldrb	r2, [r2, #423]	@ zero_extendqisi2
 337 00b8 02F00F02 		and	r2, r2, #15
 338 00bc D2B2     		uxtb	r2, r2
 339 00be 83F8A721 		strb	r2, [r3, #423]
 101:.\AdvantageImpl.c ****         pjob->_ppump->_rtmoneyamount = LSDBCDBUFF2HEX(PBYTECAST(&pjob->_ppump->_rxbuffer[0x00]), 0x
 340              		.loc 1 101 0
 341 00c2 FB68     		ldr	r3, [r7, #12]
 342 00c4 DC69     		ldr	r4, [r3, #28]
 343 00c6 FB68     		ldr	r3, [r7, #12]
 344 00c8 DB69     		ldr	r3, [r3, #28]
 345 00ca 03F5D073 		add	r3, r3, #416
 346 00ce 1846     		mov	r0, r3
 347 00d0 0821     		movs	r1, #8
 348 00d2 FFF7FEFF 		bl	LSDBCDBUFF2HEX
 349 00d6 0346     		mov	r3, r0
 350 00d8 2361     		str	r3, [r4, #16]
 351              	.L13:
 102:.\AdvantageImpl.c ****     }
 103:.\AdvantageImpl.c **** }
 352              		.loc 1 103 0
 353 00da 1437     		adds	r7, r7, #20
ARM GAS  C:\Users\Lenovo\AppData\Local\Temp\cccA9qMw.s 			page 9


 354              		.cfi_def_cfa_offset 12
 355 00dc BD46     		mov	sp, r7
 356              		.cfi_def_cfa_register 13
 357              		@ sp needed
 358 00de 90BD     		pop	{r4, r7, pc}
 359              		.cfi_endproc
 360              	.LFE65:
 361              		.size	ProcessPumpRTMoneyRequest, .-ProcessPumpRTMoneyRequest
 362              		.section	.text.ProcessPumpTransactionData,"ax",%progbits
 363              		.align	2
 364              		.global	ProcessPumpTransactionData
 365              		.thumb
 366              		.thumb_func
 367              		.type	ProcessPumpTransactionData, %function
 368              	ProcessPumpTransactionData:
 369              	.LFB66:
 104:.\AdvantageImpl.c **** 
 105:.\AdvantageImpl.c **** void ProcessPumpTransactionData(void *pparam)
 106:.\AdvantageImpl.c **** {
 370              		.loc 1 106 0
 371              		.cfi_startproc
 372              		@ args = 0, pretend = 0, frame = 24
 373              		@ frame_needed = 1, uses_anonymous_args = 0
 374 0000 B0B5     		push	{r4, r5, r7, lr}
 375              		.cfi_def_cfa_offset 16
 376              		.cfi_offset 4, -16
 377              		.cfi_offset 5, -12
 378              		.cfi_offset 7, -8
 379              		.cfi_offset 14, -4
 380 0002 86B0     		sub	sp, sp, #24
 381              		.cfi_def_cfa_offset 40
 382 0004 00AF     		add	r7, sp, #0
 383              		.cfi_def_cfa_register 7
 384 0006 7860     		str	r0, [r7, #4]
 107:.\AdvantageImpl.c ****     PPUMPTRANSACTIONJOBCONTEXTPTR pjob = (PPUMPTRANSACTIONJOBCONTEXTPTR)pparam;
 385              		.loc 1 107 0
 386 0008 7B68     		ldr	r3, [r7, #4]
 387 000a 7B61     		str	r3, [r7, #20]
 108:.\AdvantageImpl.c ****     if(pjob)
 388              		.loc 1 108 0
 389 000c 7B69     		ldr	r3, [r7, #20]
 390 000e 002B     		cmp	r3, #0
 391 0010 00F0C087 		beq	.L15
 392              	.LBB3:
 109:.\AdvantageImpl.c ****     {
 110:.\AdvantageImpl.c ****         {
 111:.\AdvantageImpl.c ****             uint8 strmlrc = FindLRC(pjob->_ppump->_rxbuffer);
 393              		.loc 1 111 0
 394 0014 7B69     		ldr	r3, [r7, #20]
 395 0016 DB69     		ldr	r3, [r3, #28]
 396 0018 03F5D073 		add	r3, r3, #416
 397 001c 1846     		mov	r0, r3
 398 001e FFF7FEFF 		bl	FindLRC
 399 0022 0346     		mov	r3, r0
 400 0024 FB74     		strb	r3, [r7, #19]
 112:.\AdvantageImpl.c ****             uint8 locallrc = GetLRC(pjob->_ppump->_rxbuffer);
 401              		.loc 1 112 0
ARM GAS  C:\Users\Lenovo\AppData\Local\Temp\cccA9qMw.s 			page 10


 402 0026 7B69     		ldr	r3, [r7, #20]
 403 0028 DB69     		ldr	r3, [r3, #28]
 404 002a 03F5D073 		add	r3, r3, #416
 405 002e 1846     		mov	r0, r3
 406 0030 FFF7FEFF 		bl	GetLRC
 407 0034 0346     		mov	r3, r0
 408 0036 BB74     		strb	r3, [r7, #18]
 113:.\AdvantageImpl.c ****             
 114:.\AdvantageImpl.c ****             if(strmlrc != locallrc && pjob->_reenqueuecounter < _MAX_RETRIES_)
 409              		.loc 1 114 0
 410 0038 FA7C     		ldrb	r2, [r7, #19]	@ zero_extendqisi2
 411 003a BB7C     		ldrb	r3, [r7, #18]	@ zero_extendqisi2
 412 003c 9A42     		cmp	r2, r3
 413 003e 10D0     		beq	.L17
 414              		.loc 1 114 0 is_stmt 0 discriminator 1
 415 0040 7B69     		ldr	r3, [r7, #20]
 416 0042 5B78     		ldrb	r3, [r3, #1]
 417 0044 DBB2     		uxtb	r3, r3
 418 0046 132B     		cmp	r3, #19
 419 0048 0BD8     		bhi	.L17
 115:.\AdvantageImpl.c ****             {
 116:.\AdvantageImpl.c ****                 pjob->_reenqueuecounter++;
 420              		.loc 1 116 0 is_stmt 1
 421 004a 7B69     		ldr	r3, [r7, #20]
 422 004c 5B78     		ldrb	r3, [r3, #1]
 423 004e DBB2     		uxtb	r3, r3
 424 0050 0133     		adds	r3, r3, #1
 425 0052 DAB2     		uxtb	r2, r3
 426 0054 7B69     		ldr	r3, [r7, #20]
 427 0056 5A70     		strb	r2, [r3, #1]
 117:.\AdvantageImpl.c ****                 pjob->_reenqueue = true;
 428              		.loc 1 117 0
 429 0058 7B69     		ldr	r3, [r7, #20]
 430 005a 0122     		movs	r2, #1
 431 005c 1A70     		strb	r2, [r3]
 118:.\AdvantageImpl.c ****                 return;
 432              		.loc 1 118 0
 433 005e 00F099BF 		b	.L15
 434              	.L17:
 119:.\AdvantageImpl.c ****             }
 120:.\AdvantageImpl.c ****             pjob->_reenqueue = false;
 435              		.loc 1 120 0
 436 0062 7B69     		ldr	r3, [r7, #20]
 437 0064 0022     		movs	r2, #0
 438 0066 1A70     		strb	r2, [r3]
 121:.\AdvantageImpl.c **** 
 122:.\AdvantageImpl.c ****             if(_g_dispenserlayoutinfo._displaydigitsmode == 0x06)
 439              		.loc 1 122 0
 440 0068 744B     		ldr	r3, .L54
 441 006a 1B7C     		ldrb	r3, [r3, #16]	@ zero_extendqisi2
 442 006c 062B     		cmp	r3, #6
 443 006e 40F07783 		bne	.L18
 123:.\AdvantageImpl.c ****             {            
 124:.\AdvantageImpl.c ****                 pjob->_ppump->_rxbuffer[0x09] = (pjob->_ppump->_rxbuffer[0x09] & 0x0F);//Hose id
 444              		.loc 1 124 0
 445 0072 7B69     		ldr	r3, [r7, #20]
 446 0074 DB69     		ldr	r3, [r3, #28]
ARM GAS  C:\Users\Lenovo\AppData\Local\Temp\cccA9qMw.s 			page 11


 447 0076 7A69     		ldr	r2, [r7, #20]
 448 0078 D269     		ldr	r2, [r2, #28]
 449 007a 92F8A921 		ldrb	r2, [r2, #425]	@ zero_extendqisi2
 450 007e 02F00F02 		and	r2, r2, #15
 451 0082 D2B2     		uxtb	r2, r2
 452 0084 83F8A921 		strb	r2, [r3, #425]
 125:.\AdvantageImpl.c ****                 pjob->_ppump->_authorizationinfo._hoseid = pjob->_ppump->_rxbuffer[0x09];//Hose id
 453              		.loc 1 125 0
 454 0088 7B69     		ldr	r3, [r7, #20]
 455 008a DB69     		ldr	r3, [r3, #28]
 456 008c 7A69     		ldr	r2, [r7, #20]
 457 008e D269     		ldr	r2, [r2, #28]
 458 0090 92F8A921 		ldrb	r2, [r2, #425]	@ zero_extendqisi2
 459 0094 83F8AA2B 		strb	r2, [r3, #2986]
 126:.\AdvantageImpl.c ****                 
 127:.\AdvantageImpl.c ****                 //In this position is located the payment type (CREDIT: 0x0E , CASH:0x0D)
 128:.\AdvantageImpl.c ****                 if(pjob->_ppump->_trasactionbuffer[0x00] == 0x0D)
 460              		.loc 1 128 0
 461 0098 7B69     		ldr	r3, [r7, #20]
 462 009a DB69     		ldr	r3, [r3, #28]
 463 009c 93F82030 		ldrb	r3, [r3, #32]	@ zero_extendqisi2
 464 00a0 0D2B     		cmp	r3, #13
 465 00a2 40F0CD80 		bne	.L19
 466              	.LBB4:
 129:.\AdvantageImpl.c ****                 {
 130:.\AdvantageImpl.c ****                     I2CBusLock();
 467              		.loc 1 130 0
 468 00a6 FFF7FEFF 		bl	I2CBusLock
 131:.\AdvantageImpl.c ****                     ClearEepromBuffer();
 469              		.loc 1 131 0
 470 00aa FFF7FEFF 		bl	ClearEepromBuffer
 132:.\AdvantageImpl.c ****                     uint16 eeprompage = DispenserGetEepromPPUPageFromPumpID(pjob->_ppump->_pumpid);
 471              		.loc 1 132 0
 472 00ae 7B69     		ldr	r3, [r7, #20]
 473 00b0 DB69     		ldr	r3, [r3, #28]
 474 00b2 1B78     		ldrb	r3, [r3]	@ zero_extendqisi2
 475 00b4 1846     		mov	r0, r3
 476 00b6 FFF7FEFF 		bl	DispenserGetEepromPPUPageFromPumpID
 477 00ba 0346     		mov	r3, r0
 478 00bc 3B82     		strh	r3, [r7, #16]	@ movhi
 133:.\AdvantageImpl.c ****                     LoadEepromPage(eeprompage);
 479              		.loc 1 133 0
 480 00be 3B8A     		ldrh	r3, [r7, #16]
 481 00c0 1846     		mov	r0, r3
 482 00c2 FFF7FEFF 		bl	LoadEepromPage
 134:.\AdvantageImpl.c ****                     switch(pjob->_ppump->_authorizationinfo._hoseid)
 483              		.loc 1 134 0
 484 00c6 7B69     		ldr	r3, [r7, #20]
 485 00c8 DB69     		ldr	r3, [r3, #28]
 486 00ca 93F8AA3B 		ldrb	r3, [r3, #2986]
 487 00ce DBB2     		uxtb	r3, r3
 488 00d0 032B     		cmp	r3, #3
 489 00d2 65D8     		bhi	.L20
 490 00d4 01A2     		adr	r2, .L22
 491 00d6 52F823F0 		ldr	pc, [r2, r3, lsl #2]
 492 00da 00BF     		.p2align 2
 493              	.L22:
ARM GAS  C:\Users\Lenovo\AppData\Local\Temp\cccA9qMw.s 			page 12


 494 00dc ED000000 		.word	.L21+1
 495 00e0 17010000 		.word	.L23+1
 496 00e4 45010000 		.word	.L24+1
 497 00e8 73010000 		.word	.L25+1
 498              		.p2align 1
 499              	.L21:
 135:.\AdvantageImpl.c ****                     {
 136:.\AdvantageImpl.c ****                         case 0x00:
 137:.\AdvantageImpl.c ****                         //Six bytes only since the PPU is constrained to this length
 138:.\AdvantageImpl.c ****                         memcpy(PBYTECAST(&pjob->_ppump->_trasactionbuffer[GetBufferIndexFromDisplay
 500              		.loc 1 138 0
 501 00ec 7B69     		ldr	r3, [r7, #20]
 502 00ee DC69     		ldr	r4, [r3, #28]
 503 00f0 6520     		movs	r0, #101
 504 00f2 FFF7FEFF 		bl	GetBufferIndexFromDisplayID
 505 00f6 0346     		mov	r3, r0
 506 00f8 2033     		adds	r3, r3, #32
 507 00fa 1C44     		add	r4, r4, r3
 508 00fc FFF7FEFF 		bl	GetEepromBuffer
 509 0100 0546     		mov	r5, r0
 510 0102 6520     		movs	r0, #101
 511 0104 FFF7FEFF 		bl	GetBufferLengthFromDisplayID
 512 0108 0346     		mov	r3, r0
 513 010a 2046     		mov	r0, r4
 514 010c 2946     		mov	r1, r5
 515 010e 1A46     		mov	r2, r3
 516 0110 FFF7FEFF 		bl	memcpy
 139:.\AdvantageImpl.c ****                         break;
 517              		.loc 1 139 0
 518 0114 44E0     		b	.L20
 519              	.L23:
 140:.\AdvantageImpl.c ****                         case 0x01:
 141:.\AdvantageImpl.c ****                         //Six bytes only since the PPU is constrained to this length
 142:.\AdvantageImpl.c ****                         memcpy(PBYTECAST(&pjob->_ppump->_trasactionbuffer[GetBufferIndexFromDisplay
 520              		.loc 1 142 0
 521 0116 7B69     		ldr	r3, [r7, #20]
 522 0118 DC69     		ldr	r4, [r3, #28]
 523 011a 6520     		movs	r0, #101
 524 011c FFF7FEFF 		bl	GetBufferIndexFromDisplayID
 525 0120 0346     		mov	r3, r0
 526 0122 2033     		adds	r3, r3, #32
 527 0124 E518     		adds	r5, r4, r3
 528 0126 FFF7FEFF 		bl	GetEepromBuffer
 529 012a 0346     		mov	r3, r0
 530 012c 03F11004 		add	r4, r3, #16
 531 0130 6520     		movs	r0, #101
 532 0132 FFF7FEFF 		bl	GetBufferLengthFromDisplayID
 533 0136 0346     		mov	r3, r0
 534 0138 2846     		mov	r0, r5
 535 013a 2146     		mov	r1, r4
 536 013c 1A46     		mov	r2, r3
 537 013e FFF7FEFF 		bl	memcpy
 143:.\AdvantageImpl.c ****                         break;
 538              		.loc 1 143 0
 539 0142 2DE0     		b	.L20
 540              	.L24:
 144:.\AdvantageImpl.c ****                         case 0x02:
ARM GAS  C:\Users\Lenovo\AppData\Local\Temp\cccA9qMw.s 			page 13


 145:.\AdvantageImpl.c ****                         //Six bytes only since the PPU is constrained to this length
 146:.\AdvantageImpl.c ****                         memcpy(PBYTECAST(&pjob->_ppump->_trasactionbuffer[GetBufferIndexFromDisplay
 541              		.loc 1 146 0
 542 0144 7B69     		ldr	r3, [r7, #20]
 543 0146 DC69     		ldr	r4, [r3, #28]
 544 0148 6520     		movs	r0, #101
 545 014a FFF7FEFF 		bl	GetBufferIndexFromDisplayID
 546 014e 0346     		mov	r3, r0
 547 0150 2033     		adds	r3, r3, #32
 548 0152 E518     		adds	r5, r4, r3
 549 0154 FFF7FEFF 		bl	GetEepromBuffer
 550 0158 0346     		mov	r3, r0
 551 015a 03F12004 		add	r4, r3, #32
 552 015e 6520     		movs	r0, #101
 553 0160 FFF7FEFF 		bl	GetBufferLengthFromDisplayID
 554 0164 0346     		mov	r3, r0
 555 0166 2846     		mov	r0, r5
 556 0168 2146     		mov	r1, r4
 557 016a 1A46     		mov	r2, r3
 558 016c FFF7FEFF 		bl	memcpy
 147:.\AdvantageImpl.c ****                         break;
 559              		.loc 1 147 0
 560 0170 16E0     		b	.L20
 561              	.L25:
 148:.\AdvantageImpl.c ****                         case 0x03:
 149:.\AdvantageImpl.c ****                         //Six bytes only since the PPU is constrained to this length
 150:.\AdvantageImpl.c ****                         memcpy(PBYTECAST(&pjob->_ppump->_trasactionbuffer[GetBufferIndexFromDisplay
 562              		.loc 1 150 0
 563 0172 7B69     		ldr	r3, [r7, #20]
 564 0174 DC69     		ldr	r4, [r3, #28]
 565 0176 6520     		movs	r0, #101
 566 0178 FFF7FEFF 		bl	GetBufferIndexFromDisplayID
 567 017c 0346     		mov	r3, r0
 568 017e 2033     		adds	r3, r3, #32
 569 0180 E518     		adds	r5, r4, r3
 570 0182 FFF7FEFF 		bl	GetEepromBuffer
 571 0186 0346     		mov	r3, r0
 572 0188 03F13004 		add	r4, r3, #48
 573 018c 6520     		movs	r0, #101
 574 018e FFF7FEFF 		bl	GetBufferLengthFromDisplayID
 575 0192 0346     		mov	r3, r0
 576 0194 2846     		mov	r0, r5
 577 0196 2146     		mov	r1, r4
 578 0198 1A46     		mov	r2, r3
 579 019a FFF7FEFF 		bl	memcpy
 151:.\AdvantageImpl.c ****                         break;
 580              		.loc 1 151 0
 581 019e 00BF     		nop
 582              	.L20:
 152:.\AdvantageImpl.c ****                     }
 153:.\AdvantageImpl.c ****                     I2CBusUnlock();
 583              		.loc 1 153 0
 584 01a0 FFF7FEFF 		bl	I2CBusUnlock
 154:.\AdvantageImpl.c ****                     
 155:.\AdvantageImpl.c ****                     memcpy(PBYTECAST(&pjob->_ppump->_rxbuffer[0x0C]), PBYTECAST(&pjob->_ppump->_tra
 585              		.loc 1 155 0
 586 01a4 7B69     		ldr	r3, [r7, #20]
ARM GAS  C:\Users\Lenovo\AppData\Local\Temp\cccA9qMw.s 			page 14


 587 01a6 DB69     		ldr	r3, [r3, #28]
 588 01a8 03F5D675 		add	r5, r3, #428
 589 01ac 7B69     		ldr	r3, [r7, #20]
 590 01ae DC69     		ldr	r4, [r3, #28]
 591 01b0 6520     		movs	r0, #101
 592 01b2 FFF7FEFF 		bl	GetBufferIndexFromDisplayID
 593 01b6 0346     		mov	r3, r0
 594 01b8 2033     		adds	r3, r3, #32
 595 01ba 2344     		add	r3, r3, r4
 596 01bc 2846     		mov	r0, r5
 597 01be 1946     		mov	r1, r3
 598 01c0 0422     		movs	r2, #4
 599 01c2 FFF7FEFF 		bl	memcpy
 156:.\AdvantageImpl.c ****                     
 157:.\AdvantageImpl.c ****                     //Bytes from index 12 to 17 are the digits for the PPU used for the transaction
 158:.\AdvantageImpl.c ****                     //Digits are in BCD format
 159:.\AdvantageImpl.c ****                     pjob->_ppump->_rxbuffer[0x0C] = (pjob->_ppump->_rxbuffer[0x0C] & 0x0F);
 600              		.loc 1 159 0
 601 01c6 7B69     		ldr	r3, [r7, #20]
 602 01c8 DB69     		ldr	r3, [r3, #28]
 603 01ca 7A69     		ldr	r2, [r7, #20]
 604 01cc D269     		ldr	r2, [r2, #28]
 605 01ce 92F8AC21 		ldrb	r2, [r2, #428]	@ zero_extendqisi2
 606 01d2 02F00F02 		and	r2, r2, #15
 607 01d6 D2B2     		uxtb	r2, r2
 608 01d8 83F8AC21 		strb	r2, [r3, #428]
 160:.\AdvantageImpl.c ****                     pjob->_ppump->_rxbuffer[0x0D] = (pjob->_ppump->_rxbuffer[0x0D] & 0x0F);
 609              		.loc 1 160 0
 610 01dc 7B69     		ldr	r3, [r7, #20]
 611 01de DB69     		ldr	r3, [r3, #28]
 612 01e0 7A69     		ldr	r2, [r7, #20]
 613 01e2 D269     		ldr	r2, [r2, #28]
 614 01e4 92F8AD21 		ldrb	r2, [r2, #429]	@ zero_extendqisi2
 615 01e8 02F00F02 		and	r2, r2, #15
 616 01ec D2B2     		uxtb	r2, r2
 617 01ee 83F8AD21 		strb	r2, [r3, #429]
 161:.\AdvantageImpl.c ****                     pjob->_ppump->_rxbuffer[0x0E] = (pjob->_ppump->_rxbuffer[0x0E] & 0x0F);
 618              		.loc 1 161 0
 619 01f2 7B69     		ldr	r3, [r7, #20]
 620 01f4 DB69     		ldr	r3, [r3, #28]
 621 01f6 7A69     		ldr	r2, [r7, #20]
 622 01f8 D269     		ldr	r2, [r2, #28]
 623 01fa 92F8AE21 		ldrb	r2, [r2, #430]	@ zero_extendqisi2
 624 01fe 02F00F02 		and	r2, r2, #15
 625 0202 D2B2     		uxtb	r2, r2
 626 0204 83F8AE21 		strb	r2, [r3, #430]
 162:.\AdvantageImpl.c ****                     pjob->_ppump->_rxbuffer[0x0F] = (pjob->_ppump->_rxbuffer[0x0F] & 0x0F);
 627              		.loc 1 162 0
 628 0208 7B69     		ldr	r3, [r7, #20]
 629 020a DB69     		ldr	r3, [r3, #28]
 630 020c 7A69     		ldr	r2, [r7, #20]
 631 020e D269     		ldr	r2, [r2, #28]
 632 0210 92F8AF21 		ldrb	r2, [r2, #431]	@ zero_extendqisi2
 633 0214 02F00F02 		and	r2, r2, #15
 634 0218 D2B2     		uxtb	r2, r2
 635 021a 83F8AF21 		strb	r2, [r3, #431]
 163:.\AdvantageImpl.c ****                     pjob->_ppump->_authorizationinfo._price = LSDBCDBUFF2HEX(PBYTECAST(&pjob->_ppum
ARM GAS  C:\Users\Lenovo\AppData\Local\Temp\cccA9qMw.s 			page 15


 636              		.loc 1 163 0
 637 021e 7B69     		ldr	r3, [r7, #20]
 638 0220 DC69     		ldr	r4, [r3, #28]
 639 0222 7B69     		ldr	r3, [r7, #20]
 640 0224 DB69     		ldr	r3, [r3, #28]
 641 0226 03F5D673 		add	r3, r3, #428
 642 022a 1846     		mov	r0, r3
 643 022c 0421     		movs	r1, #4
 644 022e FFF7FEFF 		bl	LSDBCDBUFF2HEX
 645 0232 0346     		mov	r3, r0
 646 0234 9BB2     		uxth	r3, r3
 647 0236 A4F8AC3B 		strh	r3, [r4, #2988]	@ movhi
 648              	.LBE4:
 649 023a 2DE0     		b	.L26
 650              	.L55:
 651              		.align	2
 652              	.L54:
 653 023c 00000000 		.word	_g_dispenserlayoutinfo
 654              	.L19:
 164:.\AdvantageImpl.c ****                     
 165:.\AdvantageImpl.c ****                 }
 166:.\AdvantageImpl.c ****                 else
 167:.\AdvantageImpl.c ****                 {
 168:.\AdvantageImpl.c ****                     pjob->_ppump->_rxbuffer[0x0C] = (pjob->_ppump->_rxbuffer[0x0C] & 0x0F);
 655              		.loc 1 168 0
 656 0240 7B69     		ldr	r3, [r7, #20]
 657 0242 DB69     		ldr	r3, [r3, #28]
 658 0244 7A69     		ldr	r2, [r7, #20]
 659 0246 D269     		ldr	r2, [r2, #28]
 660 0248 92F8AC21 		ldrb	r2, [r2, #428]	@ zero_extendqisi2
 661 024c 02F00F02 		and	r2, r2, #15
 662 0250 D2B2     		uxtb	r2, r2
 663 0252 83F8AC21 		strb	r2, [r3, #428]
 169:.\AdvantageImpl.c ****                     pjob->_ppump->_rxbuffer[0x0D] = (pjob->_ppump->_rxbuffer[0x0D] & 0x0F);
 664              		.loc 1 169 0
 665 0256 7B69     		ldr	r3, [r7, #20]
 666 0258 DB69     		ldr	r3, [r3, #28]
 667 025a 7A69     		ldr	r2, [r7, #20]
 668 025c D269     		ldr	r2, [r2, #28]
 669 025e 92F8AD21 		ldrb	r2, [r2, #429]	@ zero_extendqisi2
 670 0262 02F00F02 		and	r2, r2, #15
 671 0266 D2B2     		uxtb	r2, r2
 672 0268 83F8AD21 		strb	r2, [r3, #429]
 170:.\AdvantageImpl.c ****                     pjob->_ppump->_rxbuffer[0x0E] = (pjob->_ppump->_rxbuffer[0x0E] & 0x0F);
 673              		.loc 1 170 0
 674 026c 7B69     		ldr	r3, [r7, #20]
 675 026e DB69     		ldr	r3, [r3, #28]
 676 0270 7A69     		ldr	r2, [r7, #20]
 677 0272 D269     		ldr	r2, [r2, #28]
 678 0274 92F8AE21 		ldrb	r2, [r2, #430]	@ zero_extendqisi2
 679 0278 02F00F02 		and	r2, r2, #15
 680 027c D2B2     		uxtb	r2, r2
 681 027e 83F8AE21 		strb	r2, [r3, #430]
 171:.\AdvantageImpl.c ****                     pjob->_ppump->_rxbuffer[0x0F] = (pjob->_ppump->_rxbuffer[0x0F] & 0x0F);
 682              		.loc 1 171 0
 683 0282 7B69     		ldr	r3, [r7, #20]
 684 0284 DB69     		ldr	r3, [r3, #28]
ARM GAS  C:\Users\Lenovo\AppData\Local\Temp\cccA9qMw.s 			page 16


 685 0286 7A69     		ldr	r2, [r7, #20]
 686 0288 D269     		ldr	r2, [r2, #28]
 687 028a 92F8AF21 		ldrb	r2, [r2, #431]	@ zero_extendqisi2
 688 028e 02F00F02 		and	r2, r2, #15
 689 0292 D2B2     		uxtb	r2, r2
 690 0294 83F8AF21 		strb	r2, [r3, #431]
 691              	.L26:
 172:.\AdvantageImpl.c ****                 }
 173:.\AdvantageImpl.c ****                 
 174:.\AdvantageImpl.c ****                 //Bytes from index 19 to 26 are the digits for the fuel volume delivered in the tra
 175:.\AdvantageImpl.c ****                 //Digits are in BCD format
 176:.\AdvantageImpl.c ****                 pjob->_ppump->_rxbuffer[0x11] = (pjob->_ppump->_rxbuffer[0x11] & 0x0F);
 692              		.loc 1 176 0
 693 0298 7B69     		ldr	r3, [r7, #20]
 694 029a DB69     		ldr	r3, [r3, #28]
 695 029c 7A69     		ldr	r2, [r7, #20]
 696 029e D269     		ldr	r2, [r2, #28]
 697 02a0 92F8B121 		ldrb	r2, [r2, #433]	@ zero_extendqisi2
 698 02a4 02F00F02 		and	r2, r2, #15
 699 02a8 D2B2     		uxtb	r2, r2
 700 02aa 83F8B121 		strb	r2, [r3, #433]
 177:.\AdvantageImpl.c ****                 pjob->_ppump->_rxbuffer[0x12] = (pjob->_ppump->_rxbuffer[0x12] & 0x0F);
 701              		.loc 1 177 0
 702 02ae 7B69     		ldr	r3, [r7, #20]
 703 02b0 DB69     		ldr	r3, [r3, #28]
 704 02b2 7A69     		ldr	r2, [r7, #20]
 705 02b4 D269     		ldr	r2, [r2, #28]
 706 02b6 92F8B221 		ldrb	r2, [r2, #434]	@ zero_extendqisi2
 707 02ba 02F00F02 		and	r2, r2, #15
 708 02be D2B2     		uxtb	r2, r2
 709 02c0 83F8B221 		strb	r2, [r3, #434]
 178:.\AdvantageImpl.c ****                 pjob->_ppump->_rxbuffer[0x13] = (pjob->_ppump->_rxbuffer[0x13] & 0x0F);
 710              		.loc 1 178 0
 711 02c4 7B69     		ldr	r3, [r7, #20]
 712 02c6 DB69     		ldr	r3, [r3, #28]
 713 02c8 7A69     		ldr	r2, [r7, #20]
 714 02ca D269     		ldr	r2, [r2, #28]
 715 02cc 92F8B321 		ldrb	r2, [r2, #435]	@ zero_extendqisi2
 716 02d0 02F00F02 		and	r2, r2, #15
 717 02d4 D2B2     		uxtb	r2, r2
 718 02d6 83F8B321 		strb	r2, [r3, #435]
 179:.\AdvantageImpl.c ****                 pjob->_ppump->_rxbuffer[0x14] = (pjob->_ppump->_rxbuffer[0x14] & 0x0F);
 719              		.loc 1 179 0
 720 02da 7B69     		ldr	r3, [r7, #20]
 721 02dc DB69     		ldr	r3, [r3, #28]
 722 02de 7A69     		ldr	r2, [r7, #20]
 723 02e0 D269     		ldr	r2, [r2, #28]
 724 02e2 92F8B421 		ldrb	r2, [r2, #436]	@ zero_extendqisi2
 725 02e6 02F00F02 		and	r2, r2, #15
 726 02ea D2B2     		uxtb	r2, r2
 727 02ec 83F8B421 		strb	r2, [r3, #436]
 180:.\AdvantageImpl.c ****                 pjob->_ppump->_rxbuffer[0x15] = (pjob->_ppump->_rxbuffer[0x15] & 0x0F);
 728              		.loc 1 180 0
 729 02f0 7B69     		ldr	r3, [r7, #20]
 730 02f2 DB69     		ldr	r3, [r3, #28]
 731 02f4 7A69     		ldr	r2, [r7, #20]
 732 02f6 D269     		ldr	r2, [r2, #28]
ARM GAS  C:\Users\Lenovo\AppData\Local\Temp\cccA9qMw.s 			page 17


 733 02f8 92F8B521 		ldrb	r2, [r2, #437]	@ zero_extendqisi2
 734 02fc 02F00F02 		and	r2, r2, #15
 735 0300 D2B2     		uxtb	r2, r2
 736 0302 83F8B521 		strb	r2, [r3, #437]
 181:.\AdvantageImpl.c ****                 pjob->_ppump->_rxbuffer[0x16] = (pjob->_ppump->_rxbuffer[0x16] & 0x0F);            
 737              		.loc 1 181 0
 738 0306 7B69     		ldr	r3, [r7, #20]
 739 0308 DB69     		ldr	r3, [r3, #28]
 740 030a 7A69     		ldr	r2, [r7, #20]
 741 030c D269     		ldr	r2, [r2, #28]
 742 030e 92F8B621 		ldrb	r2, [r2, #438]	@ zero_extendqisi2
 743 0312 02F00F02 		and	r2, r2, #15
 744 0316 D2B2     		uxtb	r2, r2
 745 0318 83F8B621 		strb	r2, [r3, #438]
 182:.\AdvantageImpl.c ****                 pjob->_ppump->_authorizationinfo._volumeamount = LSDBCDBUFF2HEX(PBYTECAST(&pjob->_p
 746              		.loc 1 182 0
 747 031c 7B69     		ldr	r3, [r7, #20]
 748 031e DC69     		ldr	r4, [r3, #28]
 749 0320 7B69     		ldr	r3, [r7, #20]
 750 0322 DB69     		ldr	r3, [r3, #28]
 751 0324 03F2B113 		addw	r3, r3, #433
 752 0328 1846     		mov	r0, r3
 753 032a 0621     		movs	r1, #6
 754 032c FFF7FEFF 		bl	LSDBCDBUFF2HEX
 755 0330 0346     		mov	r3, r0
 756 0332 C4F8B43B 		str	r3, [r4, #2996]
 183:.\AdvantageImpl.c ****                 
 184:.\AdvantageImpl.c ****                 ////////////////////////////////////////////////////////////////////////////////
 185:.\AdvantageImpl.c ****                 ////////////////////////////////////////////////////////////////////////////////
 186:.\AdvantageImpl.c ****                 
 187:.\AdvantageImpl.c ****                 //Bytes from index 28 to 35 are the digits for the money charged to the transaction
 188:.\AdvantageImpl.c ****                 //Digits are in BCD format
 189:.\AdvantageImpl.c ****                 pjob->_ppump->_rxbuffer[0x18] = (pjob->_ppump->_rxbuffer[0x18] & 0x0F);
 757              		.loc 1 189 0
 758 0336 7B69     		ldr	r3, [r7, #20]
 759 0338 DB69     		ldr	r3, [r3, #28]
 760 033a 7A69     		ldr	r2, [r7, #20]
 761 033c D269     		ldr	r2, [r2, #28]
 762 033e 92F8B821 		ldrb	r2, [r2, #440]	@ zero_extendqisi2
 763 0342 02F00F02 		and	r2, r2, #15
 764 0346 D2B2     		uxtb	r2, r2
 765 0348 83F8B821 		strb	r2, [r3, #440]
 190:.\AdvantageImpl.c ****                 
 191:.\AdvantageImpl.c ****                 pjob->_ppump->_rxbuffer[0x19] = (pjob->_ppump->_rxbuffer[0x19] & 0x0F);
 766              		.loc 1 191 0
 767 034c 7B69     		ldr	r3, [r7, #20]
 768 034e DB69     		ldr	r3, [r3, #28]
 769 0350 7A69     		ldr	r2, [r7, #20]
 770 0352 D269     		ldr	r2, [r2, #28]
 771 0354 92F8B921 		ldrb	r2, [r2, #441]	@ zero_extendqisi2
 772 0358 02F00F02 		and	r2, r2, #15
 773 035c D2B2     		uxtb	r2, r2
 774 035e 83F8B921 		strb	r2, [r3, #441]
 192:.\AdvantageImpl.c ****                 pjob->_ppump->_rxbuffer[0x1A] = (pjob->_ppump->_rxbuffer[0x1A] & 0x0F);
 775              		.loc 1 192 0
 776 0362 7B69     		ldr	r3, [r7, #20]
 777 0364 DB69     		ldr	r3, [r3, #28]
ARM GAS  C:\Users\Lenovo\AppData\Local\Temp\cccA9qMw.s 			page 18


 778 0366 7A69     		ldr	r2, [r7, #20]
 779 0368 D269     		ldr	r2, [r2, #28]
 780 036a 92F8BA21 		ldrb	r2, [r2, #442]	@ zero_extendqisi2
 781 036e 02F00F02 		and	r2, r2, #15
 782 0372 D2B2     		uxtb	r2, r2
 783 0374 83F8BA21 		strb	r2, [r3, #442]
 193:.\AdvantageImpl.c ****                 pjob->_ppump->_rxbuffer[0x1B] = (pjob->_ppump->_rxbuffer[0x1B] & 0x0F);
 784              		.loc 1 193 0
 785 0378 7B69     		ldr	r3, [r7, #20]
 786 037a DB69     		ldr	r3, [r3, #28]
 787 037c 7A69     		ldr	r2, [r7, #20]
 788 037e D269     		ldr	r2, [r2, #28]
 789 0380 92F8BB21 		ldrb	r2, [r2, #443]	@ zero_extendqisi2
 790 0384 02F00F02 		and	r2, r2, #15
 791 0388 D2B2     		uxtb	r2, r2
 792 038a 83F8BB21 		strb	r2, [r3, #443]
 194:.\AdvantageImpl.c ****                 pjob->_ppump->_rxbuffer[0x1C] = (pjob->_ppump->_rxbuffer[0x1C] & 0x0F);
 793              		.loc 1 194 0
 794 038e 7B69     		ldr	r3, [r7, #20]
 795 0390 DB69     		ldr	r3, [r3, #28]
 796 0392 7A69     		ldr	r2, [r7, #20]
 797 0394 D269     		ldr	r2, [r2, #28]
 798 0396 92F8BC21 		ldrb	r2, [r2, #444]	@ zero_extendqisi2
 799 039a 02F00F02 		and	r2, r2, #15
 800 039e D2B2     		uxtb	r2, r2
 801 03a0 83F8BC21 		strb	r2, [r3, #444]
 195:.\AdvantageImpl.c ****                 pjob->_ppump->_rxbuffer[0x1D] = (pjob->_ppump->_rxbuffer[0x1D] & 0x0F);
 802              		.loc 1 195 0
 803 03a4 7B69     		ldr	r3, [r7, #20]
 804 03a6 DB69     		ldr	r3, [r3, #28]
 805 03a8 7A69     		ldr	r2, [r7, #20]
 806 03aa D269     		ldr	r2, [r2, #28]
 807 03ac 92F8BD21 		ldrb	r2, [r2, #445]	@ zero_extendqisi2
 808 03b0 02F00F02 		and	r2, r2, #15
 809 03b4 D2B2     		uxtb	r2, r2
 810 03b6 83F8BD21 		strb	r2, [r3, #445]
 196:.\AdvantageImpl.c ****                 //INQUIRY ABOUT THE EXTRA x10 RESULT SINCE THERE IS AN EXTRA 0 IN THE RESPONSE FOR 
 197:.\AdvantageImpl.c ****                 //MEANWHILE DIVIDING BY 10 TO REMOVE THE ZERO.
 198:.\AdvantageImpl.c ****                 pjob->_ppump->_authorizationinfo._presetamount = LSDBCDBUFF2HEX(PBYTECAST(&pjob->_p
 811              		.loc 1 198 0
 812 03ba 7B69     		ldr	r3, [r7, #20]
 813 03bc DC69     		ldr	r4, [r3, #28]
 814 03be 7B69     		ldr	r3, [r7, #20]
 815 03c0 DB69     		ldr	r3, [r3, #28]
 816 03c2 03F5DC73 		add	r3, r3, #440
 817 03c6 1846     		mov	r0, r3
 818 03c8 0621     		movs	r1, #6
 819 03ca FFF7FEFF 		bl	LSDBCDBUFF2HEX
 820 03ce 0346     		mov	r3, r0
 821 03d0 C4F8B03B 		str	r3, [r4, #2992]
 199:.\AdvantageImpl.c ****                     
 200:.\AdvantageImpl.c ****                 ClearRtcBuffer();
 822              		.loc 1 200 0
 823 03d4 FFF7FEFF 		bl	ClearRtcBuffer
 201:.\AdvantageImpl.c ****                 ReadRTC();
 824              		.loc 1 201 0
 825 03d8 FFF7FEFF 		bl	ReadRTC
ARM GAS  C:\Users\Lenovo\AppData\Local\Temp\cccA9qMw.s 			page 19


 202:.\AdvantageImpl.c ****                 //CAREFUL WITH RETURNS BETWEEN THE LOCK/UNLOCK CALLS
 203:.\AdvantageImpl.c ****                 //AND RECURSIVE CALLS THAT WOULD DEADLOCK!
 204:.\AdvantageImpl.c ****                 I2CBusLock();
 826              		.loc 1 204 0
 827 03dc FFF7FEFF 		bl	I2CBusLock
 205:.\AdvantageImpl.c ****             
 206:.\AdvantageImpl.c ****                 ClearEepromBuffer();
 828              		.loc 1 206 0
 829 03e0 FFF7FEFF 		bl	ClearEepromBuffer
 207:.\AdvantageImpl.c ****                 //In this position is located the payment type (CREDIT: 0x0E , CASH:0x0D)
 208:.\AdvantageImpl.c ****                 if(pjob->_ppump->_trasactionbuffer[0x00] == 0x0D)
 830              		.loc 1 208 0
 831 03e4 7B69     		ldr	r3, [r7, #20]
 832 03e6 DB69     		ldr	r3, [r3, #28]
 833 03e8 93F82030 		ldrb	r3, [r3, #32]	@ zero_extendqisi2
 834 03ec 0D2B     		cmp	r3, #13
 835 03ee 40F0DB80 		bne	.L27
 209:.\AdvantageImpl.c ****                 {
 210:.\AdvantageImpl.c ****                     //HERE WE STORE THE LAST TRANSACTION IN EEPROM! ALWAYS THE PREVIOUS TRANSACTION
 211:.\AdvantageImpl.c ****                     //WILL BE OVERWRITTEN AND LOST.
 212:.\AdvantageImpl.c ****                     //IN CASE OF A "CREDIT SALE", THE WHOLE DATA WILL BE STORED IN A SEPARATE MEMOR
 213:.\AdvantageImpl.c ****                     //SINCE IN CASE OF A RF LINK DROP, THE STATE OF THE SALE COULD BE RECOVERED BY 
 214:.\AdvantageImpl.c ****                     LoadEepromPage(EEPROM_DISPENSER_PUMP1_LAYOUT_PAGE);
 836              		.loc 1 214 0
 837 03f2 4FF40070 		mov	r0, #512
 838 03f6 FFF7FEFF 		bl	LoadEepromPage
 215:.\AdvantageImpl.c ****                     if(GetEepromBuffer()[0] == ((pjob->_ppump->_rxbuffer[0x04] & 0x0F) + 1))
 839              		.loc 1 215 0
 840 03fa FFF7FEFF 		bl	GetEepromBuffer
 841 03fe 0346     		mov	r3, r0
 842 0400 1B78     		ldrb	r3, [r3]	@ zero_extendqisi2
 843 0402 1A46     		mov	r2, r3
 844 0404 7B69     		ldr	r3, [r7, #20]
 845 0406 DB69     		ldr	r3, [r3, #28]
 846 0408 93F8A431 		ldrb	r3, [r3, #420]	@ zero_extendqisi2
 847 040c 03F00F03 		and	r3, r3, #15
 848 0410 0133     		adds	r3, r3, #1
 849 0412 9A42     		cmp	r2, r3
 850 0414 22D1     		bne	.L28
 216:.\AdvantageImpl.c ****                     {
 217:.\AdvantageImpl.c ****                         ClearEepromBuffer();
 851              		.loc 1 217 0
 852 0416 FFF7FEFF 		bl	ClearEepromBuffer
 218:.\AdvantageImpl.c ****                         //Storing the current Date/Time for this transaction
 219:.\AdvantageImpl.c ****                         memcpy(GetEepromBuffer(), GetRtcBuffer(), 0x07);
 853              		.loc 1 219 0
 854 041a FFF7FEFF 		bl	GetEepromBuffer
 855 041e 0446     		mov	r4, r0
 856 0420 FFF7FEFF 		bl	GetRtcBuffer
 857 0424 0346     		mov	r3, r0
 858 0426 2046     		mov	r0, r4
 859 0428 1946     		mov	r1, r3
 860 042a 0722     		movs	r2, #7
 861 042c FFF7FEFF 		bl	memcpy
 220:.\AdvantageImpl.c ****                         memcpy(&GetEepromBuffer()[0x07], pjob->_ppump->_rxbuffer, pjob->_ppump->_rx
 862              		.loc 1 220 0
 863 0430 FFF7FEFF 		bl	GetEepromBuffer
ARM GAS  C:\Users\Lenovo\AppData\Local\Temp\cccA9qMw.s 			page 20


 864 0434 0346     		mov	r3, r0
 865 0436 D91D     		adds	r1, r3, #7
 866 0438 7B69     		ldr	r3, [r7, #20]
 867 043a DB69     		ldr	r3, [r3, #28]
 868 043c 03F5D072 		add	r2, r3, #416
 869 0440 7B69     		ldr	r3, [r7, #20]
 870 0442 DB69     		ldr	r3, [r3, #28]
 871 0444 B3F82033 		ldrh	r3, [r3, #800]
 872 0448 0846     		mov	r0, r1
 873 044a 1146     		mov	r1, r2
 874 044c 1A46     		mov	r2, r3
 875 044e FFF7FEFF 		bl	memcpy
 221:.\AdvantageImpl.c ****                         StoreEepromPage(EEPROM_DISPENSER_PUMP12_TRANSACTION_PAGE);
 876              		.loc 1 221 0
 877 0452 4FF4C860 		mov	r0, #1600
 878 0456 FFF7FEFF 		bl	StoreEepromPage
 879 045a 7EE1     		b	.L32
 880              	.L28:
 222:.\AdvantageImpl.c ****                     }
 223:.\AdvantageImpl.c ****                     else
 224:.\AdvantageImpl.c ****                     {
 225:.\AdvantageImpl.c ****                         ClearEepromBuffer();
 881              		.loc 1 225 0
 882 045c FFF7FEFF 		bl	ClearEepromBuffer
 226:.\AdvantageImpl.c ****                         LoadEepromPage(EEPROM_DISPENSER_PUMP2_LAYOUT_PAGE);
 883              		.loc 1 226 0
 884 0460 4FF41070 		mov	r0, #576
 885 0464 FFF7FEFF 		bl	LoadEepromPage
 227:.\AdvantageImpl.c ****                         if(GetEepromBuffer()[0] == ((pjob->_ppump->_rxbuffer[0x04] & 0x0F) + 1))
 886              		.loc 1 227 0
 887 0468 FFF7FEFF 		bl	GetEepromBuffer
 888 046c 0346     		mov	r3, r0
 889 046e 1B78     		ldrb	r3, [r3]	@ zero_extendqisi2
 890 0470 1A46     		mov	r2, r3
 891 0472 7B69     		ldr	r3, [r7, #20]
 892 0474 DB69     		ldr	r3, [r3, #28]
 893 0476 93F8A431 		ldrb	r3, [r3, #420]	@ zero_extendqisi2
 894 047a 03F00F03 		and	r3, r3, #15
 895 047e 0133     		adds	r3, r3, #1
 896 0480 9A42     		cmp	r2, r3
 897 0482 22D1     		bne	.L30
 228:.\AdvantageImpl.c ****                         {
 229:.\AdvantageImpl.c ****                             ClearEepromBuffer();
 898              		.loc 1 229 0
 899 0484 FFF7FEFF 		bl	ClearEepromBuffer
 230:.\AdvantageImpl.c ****                             //Storing the current Date/Time for this transaction
 231:.\AdvantageImpl.c ****                             memcpy(GetEepromBuffer(), GetRtcBuffer(), 0x07);
 900              		.loc 1 231 0
 901 0488 FFF7FEFF 		bl	GetEepromBuffer
 902 048c 0446     		mov	r4, r0
 903 048e FFF7FEFF 		bl	GetRtcBuffer
 904 0492 0346     		mov	r3, r0
 905 0494 2046     		mov	r0, r4
 906 0496 1946     		mov	r1, r3
 907 0498 0722     		movs	r2, #7
 908 049a FFF7FEFF 		bl	memcpy
 232:.\AdvantageImpl.c ****                             memcpy(&GetEepromBuffer()[0x07], pjob->_ppump->_rxbuffer, pjob->_ppump-
ARM GAS  C:\Users\Lenovo\AppData\Local\Temp\cccA9qMw.s 			page 21


 909              		.loc 1 232 0
 910 049e FFF7FEFF 		bl	GetEepromBuffer
 911 04a2 0346     		mov	r3, r0
 912 04a4 D91D     		adds	r1, r3, #7
 913 04a6 7B69     		ldr	r3, [r7, #20]
 914 04a8 DB69     		ldr	r3, [r3, #28]
 915 04aa 03F5D072 		add	r2, r3, #416
 916 04ae 7B69     		ldr	r3, [r7, #20]
 917 04b0 DB69     		ldr	r3, [r3, #28]
 918 04b2 B3F82033 		ldrh	r3, [r3, #800]
 919 04b6 0846     		mov	r0, r1
 920 04b8 1146     		mov	r1, r2
 921 04ba 1A46     		mov	r2, r3
 922 04bc FFF7FEFF 		bl	memcpy
 233:.\AdvantageImpl.c ****                             StoreEepromPage(EEPROM_DISPENSER_PUMP22_TRANSACTION_PAGE);
 923              		.loc 1 233 0
 924 04c0 4FF4E860 		mov	r0, #1856
 925 04c4 FFF7FEFF 		bl	StoreEepromPage
 926 04c8 47E1     		b	.L32
 927              	.L30:
 234:.\AdvantageImpl.c ****                         }
 235:.\AdvantageImpl.c ****                         else
 236:.\AdvantageImpl.c ****                         {
 237:.\AdvantageImpl.c ****                             ClearEepromBuffer();
 928              		.loc 1 237 0
 929 04ca FFF7FEFF 		bl	ClearEepromBuffer
 238:.\AdvantageImpl.c ****                             LoadEepromPage(EEPROM_DISPENSER_PUMP3_LAYOUT_PAGE);
 930              		.loc 1 238 0
 931 04ce 4FF42070 		mov	r0, #640
 932 04d2 FFF7FEFF 		bl	LoadEepromPage
 239:.\AdvantageImpl.c ****                             if(GetEepromBuffer()[0] == ((pjob->_ppump->_rxbuffer[0x04] & 0x0F) + 1)
 933              		.loc 1 239 0
 934 04d6 FFF7FEFF 		bl	GetEepromBuffer
 935 04da 0346     		mov	r3, r0
 936 04dc 1B78     		ldrb	r3, [r3]	@ zero_extendqisi2
 937 04de 1A46     		mov	r2, r3
 938 04e0 7B69     		ldr	r3, [r7, #20]
 939 04e2 DB69     		ldr	r3, [r3, #28]
 940 04e4 93F8A431 		ldrb	r3, [r3, #420]	@ zero_extendqisi2
 941 04e8 03F00F03 		and	r3, r3, #15
 942 04ec 0133     		adds	r3, r3, #1
 943 04ee 9A42     		cmp	r2, r3
 944 04f0 22D1     		bne	.L31
 240:.\AdvantageImpl.c ****                             {
 241:.\AdvantageImpl.c ****                                 ClearEepromBuffer();
 945              		.loc 1 241 0
 946 04f2 FFF7FEFF 		bl	ClearEepromBuffer
 242:.\AdvantageImpl.c ****                                 //Storing the current Date/Time for this transaction
 243:.\AdvantageImpl.c ****                                 memcpy(GetEepromBuffer(), GetRtcBuffer(), 0x07);
 947              		.loc 1 243 0
 948 04f6 FFF7FEFF 		bl	GetEepromBuffer
 949 04fa 0446     		mov	r4, r0
 950 04fc FFF7FEFF 		bl	GetRtcBuffer
 951 0500 0346     		mov	r3, r0
 952 0502 2046     		mov	r0, r4
 953 0504 1946     		mov	r1, r3
 954 0506 0722     		movs	r2, #7
ARM GAS  C:\Users\Lenovo\AppData\Local\Temp\cccA9qMw.s 			page 22


 955 0508 FFF7FEFF 		bl	memcpy
 244:.\AdvantageImpl.c ****                                 memcpy(&GetEepromBuffer()[0x07], pjob->_ppump->_rxbuffer, pjob->_pp
 956              		.loc 1 244 0
 957 050c FFF7FEFF 		bl	GetEepromBuffer
 958 0510 0346     		mov	r3, r0
 959 0512 D91D     		adds	r1, r3, #7
 960 0514 7B69     		ldr	r3, [r7, #20]
 961 0516 DB69     		ldr	r3, [r3, #28]
 962 0518 03F5D072 		add	r2, r3, #416
 963 051c 7B69     		ldr	r3, [r7, #20]
 964 051e DB69     		ldr	r3, [r3, #28]
 965 0520 B3F82033 		ldrh	r3, [r3, #800]
 966 0524 0846     		mov	r0, r1
 967 0526 1146     		mov	r1, r2
 968 0528 1A46     		mov	r2, r3
 969 052a FFF7FEFF 		bl	memcpy
 245:.\AdvantageImpl.c ****                                 StoreEepromPage(EEPROM_DISPENSER_PUMP32_TRANSACTION_PAGE);
 970              		.loc 1 245 0
 971 052e 4FF40460 		mov	r0, #2112
 972 0532 FFF7FEFF 		bl	StoreEepromPage
 973 0536 10E1     		b	.L32
 974              	.L31:
 246:.\AdvantageImpl.c ****                             }
 247:.\AdvantageImpl.c ****                             else
 248:.\AdvantageImpl.c ****                             {
 249:.\AdvantageImpl.c ****                                 ClearEepromBuffer();
 975              		.loc 1 249 0
 976 0538 FFF7FEFF 		bl	ClearEepromBuffer
 250:.\AdvantageImpl.c ****                                 LoadEepromPage(EEPROM_DISPENSER_PUMP4_LAYOUT_PAGE);
 977              		.loc 1 250 0
 978 053c 4FF43070 		mov	r0, #704
 979 0540 FFF7FEFF 		bl	LoadEepromPage
 251:.\AdvantageImpl.c ****                                 if(GetEepromBuffer()[0] == ((pjob->_ppump->_rxbuffer[0x04] & 0x0F) 
 980              		.loc 1 251 0
 981 0544 FFF7FEFF 		bl	GetEepromBuffer
 982 0548 0346     		mov	r3, r0
 983 054a 1B78     		ldrb	r3, [r3]	@ zero_extendqisi2
 984 054c 1A46     		mov	r2, r3
 985 054e 7B69     		ldr	r3, [r7, #20]
 986 0550 DB69     		ldr	r3, [r3, #28]
 987 0552 93F8A431 		ldrb	r3, [r3, #420]	@ zero_extendqisi2
 988 0556 03F00F03 		and	r3, r3, #15
 989 055a 0133     		adds	r3, r3, #1
 990 055c 9A42     		cmp	r2, r3
 991 055e 40F0FC80 		bne	.L32
 252:.\AdvantageImpl.c ****                                 {
 253:.\AdvantageImpl.c ****                                     ClearEepromBuffer();
 992              		.loc 1 253 0
 993 0562 FFF7FEFF 		bl	ClearEepromBuffer
 254:.\AdvantageImpl.c ****                                     //Storing the current Date/Time for this transaction
 255:.\AdvantageImpl.c ****                                     memcpy(GetEepromBuffer(), GetRtcBuffer(), 0x07);
 994              		.loc 1 255 0
 995 0566 FFF7FEFF 		bl	GetEepromBuffer
 996 056a 0446     		mov	r4, r0
 997 056c FFF7FEFF 		bl	GetRtcBuffer
 998 0570 0346     		mov	r3, r0
 999 0572 2046     		mov	r0, r4
ARM GAS  C:\Users\Lenovo\AppData\Local\Temp\cccA9qMw.s 			page 23


 1000 0574 1946     		mov	r1, r3
 1001 0576 0722     		movs	r2, #7
 1002 0578 FFF7FEFF 		bl	memcpy
 256:.\AdvantageImpl.c ****                                     memcpy(&GetEepromBuffer()[0x07], pjob->_ppump->_rxbuffer, pjob-
 1003              		.loc 1 256 0
 1004 057c FFF7FEFF 		bl	GetEepromBuffer
 1005 0580 0346     		mov	r3, r0
 1006 0582 D91D     		adds	r1, r3, #7
 1007 0584 7B69     		ldr	r3, [r7, #20]
 1008 0586 DB69     		ldr	r3, [r3, #28]
 1009 0588 03F5D072 		add	r2, r3, #416
 1010 058c 7B69     		ldr	r3, [r7, #20]
 1011 058e DB69     		ldr	r3, [r3, #28]
 1012 0590 B3F82033 		ldrh	r3, [r3, #800]
 1013 0594 0846     		mov	r0, r1
 1014 0596 1146     		mov	r1, r2
 1015 0598 1A46     		mov	r2, r3
 1016 059a FFF7FEFF 		bl	memcpy
 257:.\AdvantageImpl.c ****                                     StoreEepromPage(EEPROM_DISPENSER_PUMP42_TRANSACTION_PAGE);
 1017              		.loc 1 257 0
 1018 059e 4FF41460 		mov	r0, #2368
 1019 05a2 FFF7FEFF 		bl	StoreEepromPage
 1020 05a6 D8E0     		b	.L32
 1021              	.L27:
 258:.\AdvantageImpl.c ****                                 }
 259:.\AdvantageImpl.c ****                             }
 260:.\AdvantageImpl.c ****                         }
 261:.\AdvantageImpl.c ****                     }
 262:.\AdvantageImpl.c ****                 }else{//CREDIT TRANSACTION
 263:.\AdvantageImpl.c ****                     //HERE WE STORE THE LAST TRANSACTION IN EEPROM! ALWAYS THE PREVIOUS TRANSACTION
 264:.\AdvantageImpl.c ****                     //WILL BE OVERWRITTEN AND LOST.
 265:.\AdvantageImpl.c ****                     //IN CASE OF A "CREDIT SALE", THE WHOLE DATA WILL BE STORED IN A SEPARATE MEMOR
 266:.\AdvantageImpl.c ****                     //SINCE IN CASE OF A RF LINK DROP, THE STATE OF THE SALE COULD BE RECOVERED BY 
 267:.\AdvantageImpl.c ****                     LoadEepromPage(EEPROM_DISPENSER_PUMP1_LAYOUT_PAGE);
 1022              		.loc 1 267 0
 1023 05a8 4FF40070 		mov	r0, #512
 1024 05ac FFF7FEFF 		bl	LoadEepromPage
 268:.\AdvantageImpl.c ****                     if(GetEepromBuffer()[0] == ((pjob->_ppump->_rxbuffer[0x04] & 0x0F) + 1))
 1025              		.loc 1 268 0
 1026 05b0 FFF7FEFF 		bl	GetEepromBuffer
 1027 05b4 0346     		mov	r3, r0
 1028 05b6 1B78     		ldrb	r3, [r3]	@ zero_extendqisi2
 1029 05b8 1A46     		mov	r2, r3
 1030 05ba 7B69     		ldr	r3, [r7, #20]
 1031 05bc DB69     		ldr	r3, [r3, #28]
 1032 05be 93F8A431 		ldrb	r3, [r3, #420]	@ zero_extendqisi2
 1033 05c2 03F00F03 		and	r3, r3, #15
 1034 05c6 0133     		adds	r3, r3, #1
 1035 05c8 9A42     		cmp	r2, r3
 1036 05ca 22D1     		bne	.L33
 269:.\AdvantageImpl.c ****                     {
 270:.\AdvantageImpl.c ****                         ClearEepromBuffer();
 1037              		.loc 1 270 0
 1038 05cc FFF7FEFF 		bl	ClearEepromBuffer
 271:.\AdvantageImpl.c ****                         //Storing the current Date/Time for this transaction
 272:.\AdvantageImpl.c ****                         memcpy(GetEepromBuffer(), GetRtcBuffer(), 0x07);
 1039              		.loc 1 272 0
ARM GAS  C:\Users\Lenovo\AppData\Local\Temp\cccA9qMw.s 			page 24


 1040 05d0 FFF7FEFF 		bl	GetEepromBuffer
 1041 05d4 0446     		mov	r4, r0
 1042 05d6 FFF7FEFF 		bl	GetRtcBuffer
 1043 05da 0346     		mov	r3, r0
 1044 05dc 2046     		mov	r0, r4
 1045 05de 1946     		mov	r1, r3
 1046 05e0 0722     		movs	r2, #7
 1047 05e2 FFF7FEFF 		bl	memcpy
 273:.\AdvantageImpl.c ****                         memcpy(&GetEepromBuffer()[0x07], pjob->_ppump->_rxbuffer, pjob->_ppump->_rx
 1048              		.loc 1 273 0
 1049 05e6 FFF7FEFF 		bl	GetEepromBuffer
 1050 05ea 0346     		mov	r3, r0
 1051 05ec D91D     		adds	r1, r3, #7
 1052 05ee 7B69     		ldr	r3, [r7, #20]
 1053 05f0 DB69     		ldr	r3, [r3, #28]
 1054 05f2 03F5D072 		add	r2, r3, #416
 1055 05f6 7B69     		ldr	r3, [r7, #20]
 1056 05f8 DB69     		ldr	r3, [r3, #28]
 1057 05fa B3F82033 		ldrh	r3, [r3, #800]
 1058 05fe 0846     		mov	r0, r1
 1059 0600 1146     		mov	r1, r2
 1060 0602 1A46     		mov	r2, r3
 1061 0604 FFF7FEFF 		bl	memcpy
 274:.\AdvantageImpl.c ****                         StoreEepromPage(EEPROM_DISPENSER_PUMP14_TRANSACTION_PAGE);
 1062              		.loc 1 274 0
 1063 0608 4FF4D860 		mov	r0, #1728
 1064 060c FFF7FEFF 		bl	StoreEepromPage
 1065 0610 A3E0     		b	.L32
 1066              	.L33:
 275:.\AdvantageImpl.c ****                     }
 276:.\AdvantageImpl.c ****                     else
 277:.\AdvantageImpl.c ****                     {
 278:.\AdvantageImpl.c ****                         ClearEepromBuffer();
 1067              		.loc 1 278 0
 1068 0612 FFF7FEFF 		bl	ClearEepromBuffer
 279:.\AdvantageImpl.c ****                         LoadEepromPage(EEPROM_DISPENSER_PUMP2_LAYOUT_PAGE);
 1069              		.loc 1 279 0
 1070 0616 4FF41070 		mov	r0, #576
 1071 061a FFF7FEFF 		bl	LoadEepromPage
 280:.\AdvantageImpl.c ****                         if(GetEepromBuffer()[0] == ((pjob->_ppump->_rxbuffer[0x04] & 0x0F) + 1))
 1072              		.loc 1 280 0
 1073 061e FFF7FEFF 		bl	GetEepromBuffer
 1074 0622 0346     		mov	r3, r0
 1075 0624 1B78     		ldrb	r3, [r3]	@ zero_extendqisi2
 1076 0626 1A46     		mov	r2, r3
 1077 0628 7B69     		ldr	r3, [r7, #20]
 1078 062a DB69     		ldr	r3, [r3, #28]
 1079 062c 93F8A431 		ldrb	r3, [r3, #420]	@ zero_extendqisi2
 1080 0630 03F00F03 		and	r3, r3, #15
 1081 0634 0133     		adds	r3, r3, #1
 1082 0636 9A42     		cmp	r2, r3
 1083 0638 22D1     		bne	.L34
 281:.\AdvantageImpl.c ****                         {
 282:.\AdvantageImpl.c ****                             ClearEepromBuffer();
 1084              		.loc 1 282 0
 1085 063a FFF7FEFF 		bl	ClearEepromBuffer
 283:.\AdvantageImpl.c ****                             //Storing the current Date/Time for this transaction
ARM GAS  C:\Users\Lenovo\AppData\Local\Temp\cccA9qMw.s 			page 25


 284:.\AdvantageImpl.c ****                             memcpy(GetEepromBuffer(), GetRtcBuffer(), 0x07);
 1086              		.loc 1 284 0
 1087 063e FFF7FEFF 		bl	GetEepromBuffer
 1088 0642 0446     		mov	r4, r0
 1089 0644 FFF7FEFF 		bl	GetRtcBuffer
 1090 0648 0346     		mov	r3, r0
 1091 064a 2046     		mov	r0, r4
 1092 064c 1946     		mov	r1, r3
 1093 064e 0722     		movs	r2, #7
 1094 0650 FFF7FEFF 		bl	memcpy
 285:.\AdvantageImpl.c ****                             memcpy(&GetEepromBuffer()[0x07], pjob->_ppump->_rxbuffer, pjob->_ppump-
 1095              		.loc 1 285 0
 1096 0654 FFF7FEFF 		bl	GetEepromBuffer
 1097 0658 0346     		mov	r3, r0
 1098 065a D91D     		adds	r1, r3, #7
 1099 065c 7B69     		ldr	r3, [r7, #20]
 1100 065e DB69     		ldr	r3, [r3, #28]
 1101 0660 03F5D072 		add	r2, r3, #416
 1102 0664 7B69     		ldr	r3, [r7, #20]
 1103 0666 DB69     		ldr	r3, [r3, #28]
 1104 0668 B3F82033 		ldrh	r3, [r3, #800]
 1105 066c 0846     		mov	r0, r1
 1106 066e 1146     		mov	r1, r2
 1107 0670 1A46     		mov	r2, r3
 1108 0672 FFF7FEFF 		bl	memcpy
 286:.\AdvantageImpl.c ****                             StoreEepromPage(EEPROM_DISPENSER_PUMP24_TRANSACTION_PAGE);
 1109              		.loc 1 286 0
 1110 0676 4FF4F860 		mov	r0, #1984
 1111 067a FFF7FEFF 		bl	StoreEepromPage
 1112 067e 6CE0     		b	.L32
 1113              	.L34:
 287:.\AdvantageImpl.c ****                         }
 288:.\AdvantageImpl.c ****                         else
 289:.\AdvantageImpl.c ****                         {
 290:.\AdvantageImpl.c ****                             ClearEepromBuffer();
 1114              		.loc 1 290 0
 1115 0680 FFF7FEFF 		bl	ClearEepromBuffer
 291:.\AdvantageImpl.c ****                             LoadEepromPage(EEPROM_DISPENSER_PUMP3_LAYOUT_PAGE);
 1116              		.loc 1 291 0
 1117 0684 4FF42070 		mov	r0, #640
 1118 0688 FFF7FEFF 		bl	LoadEepromPage
 292:.\AdvantageImpl.c ****                             if(GetEepromBuffer()[0] == ((pjob->_ppump->_rxbuffer[0x04] & 0x0F) + 1)
 1119              		.loc 1 292 0
 1120 068c FFF7FEFF 		bl	GetEepromBuffer
 1121 0690 0346     		mov	r3, r0
 1122 0692 1B78     		ldrb	r3, [r3]	@ zero_extendqisi2
 1123 0694 1A46     		mov	r2, r3
 1124 0696 7B69     		ldr	r3, [r7, #20]
 1125 0698 DB69     		ldr	r3, [r3, #28]
 1126 069a 93F8A431 		ldrb	r3, [r3, #420]	@ zero_extendqisi2
 1127 069e 03F00F03 		and	r3, r3, #15
 1128 06a2 0133     		adds	r3, r3, #1
 1129 06a4 9A42     		cmp	r2, r3
 1130 06a6 22D1     		bne	.L35
 293:.\AdvantageImpl.c ****                             {
 294:.\AdvantageImpl.c ****                                 ClearEepromBuffer();
 1131              		.loc 1 294 0
ARM GAS  C:\Users\Lenovo\AppData\Local\Temp\cccA9qMw.s 			page 26


 1132 06a8 FFF7FEFF 		bl	ClearEepromBuffer
 295:.\AdvantageImpl.c ****                                 //Storing the current Date/Time for this transaction
 296:.\AdvantageImpl.c ****                                 memcpy(GetEepromBuffer(), GetRtcBuffer(), 0x07);
 1133              		.loc 1 296 0
 1134 06ac FFF7FEFF 		bl	GetEepromBuffer
 1135 06b0 0446     		mov	r4, r0
 1136 06b2 FFF7FEFF 		bl	GetRtcBuffer
 1137 06b6 0346     		mov	r3, r0
 1138 06b8 2046     		mov	r0, r4
 1139 06ba 1946     		mov	r1, r3
 1140 06bc 0722     		movs	r2, #7
 1141 06be FFF7FEFF 		bl	memcpy
 297:.\AdvantageImpl.c ****                                 memcpy(&GetEepromBuffer()[0x07], pjob->_ppump->_rxbuffer, pjob->_pp
 1142              		.loc 1 297 0
 1143 06c2 FFF7FEFF 		bl	GetEepromBuffer
 1144 06c6 0346     		mov	r3, r0
 1145 06c8 D91D     		adds	r1, r3, #7
 1146 06ca 7B69     		ldr	r3, [r7, #20]
 1147 06cc DB69     		ldr	r3, [r3, #28]
 1148 06ce 03F5D072 		add	r2, r3, #416
 1149 06d2 7B69     		ldr	r3, [r7, #20]
 1150 06d4 DB69     		ldr	r3, [r3, #28]
 1151 06d6 B3F82033 		ldrh	r3, [r3, #800]
 1152 06da 0846     		mov	r0, r1
 1153 06dc 1146     		mov	r1, r2
 1154 06de 1A46     		mov	r2, r3
 1155 06e0 FFF7FEFF 		bl	memcpy
 298:.\AdvantageImpl.c ****                                 StoreEepromPage(EEPROM_DISPENSER_PUMP34_TRANSACTION_PAGE);
 1156              		.loc 1 298 0
 1157 06e4 4FF40C60 		mov	r0, #2240
 1158 06e8 FFF7FEFF 		bl	StoreEepromPage
 1159 06ec 35E0     		b	.L32
 1160              	.L35:
 299:.\AdvantageImpl.c ****                             }
 300:.\AdvantageImpl.c ****                             else
 301:.\AdvantageImpl.c ****                             {
 302:.\AdvantageImpl.c ****                                 ClearEepromBuffer();
 1161              		.loc 1 302 0
 1162 06ee FFF7FEFF 		bl	ClearEepromBuffer
 303:.\AdvantageImpl.c ****                                 LoadEepromPage(EEPROM_DISPENSER_PUMP4_LAYOUT_PAGE);
 1163              		.loc 1 303 0
 1164 06f2 4FF43070 		mov	r0, #704
 1165 06f6 FFF7FEFF 		bl	LoadEepromPage
 304:.\AdvantageImpl.c ****                                 if(GetEepromBuffer()[0] == ((pjob->_ppump->_rxbuffer[0x04] & 0x0F) 
 1166              		.loc 1 304 0
 1167 06fa FFF7FEFF 		bl	GetEepromBuffer
 1168 06fe 0346     		mov	r3, r0
 1169 0700 1B78     		ldrb	r3, [r3]	@ zero_extendqisi2
 1170 0702 1A46     		mov	r2, r3
 1171 0704 7B69     		ldr	r3, [r7, #20]
 1172 0706 DB69     		ldr	r3, [r3, #28]
 1173 0708 93F8A431 		ldrb	r3, [r3, #420]	@ zero_extendqisi2
 1174 070c 03F00F03 		and	r3, r3, #15
 1175 0710 0133     		adds	r3, r3, #1
 1176 0712 9A42     		cmp	r2, r3
 1177 0714 21D1     		bne	.L32
 305:.\AdvantageImpl.c ****                                 {
ARM GAS  C:\Users\Lenovo\AppData\Local\Temp\cccA9qMw.s 			page 27


 306:.\AdvantageImpl.c ****                                     ClearEepromBuffer();
 1178              		.loc 1 306 0
 1179 0716 FFF7FEFF 		bl	ClearEepromBuffer
 307:.\AdvantageImpl.c ****                                     //Storing the current Date/Time for this transaction
 308:.\AdvantageImpl.c ****                                     memcpy(GetEepromBuffer(), GetRtcBuffer(), 0x07);
 1180              		.loc 1 308 0
 1181 071a FFF7FEFF 		bl	GetEepromBuffer
 1182 071e 0446     		mov	r4, r0
 1183 0720 FFF7FEFF 		bl	GetRtcBuffer
 1184 0724 0346     		mov	r3, r0
 1185 0726 2046     		mov	r0, r4
 1186 0728 1946     		mov	r1, r3
 1187 072a 0722     		movs	r2, #7
 1188 072c FFF7FEFF 		bl	memcpy
 309:.\AdvantageImpl.c ****                                     memcpy(&GetEepromBuffer()[0x07], pjob->_ppump->_rxbuffer, pjob-
 1189              		.loc 1 309 0
 1190 0730 FFF7FEFF 		bl	GetEepromBuffer
 1191 0734 0346     		mov	r3, r0
 1192 0736 D91D     		adds	r1, r3, #7
 1193 0738 7B69     		ldr	r3, [r7, #20]
 1194 073a DB69     		ldr	r3, [r3, #28]
 1195 073c 03F5D072 		add	r2, r3, #416
 1196 0740 7B69     		ldr	r3, [r7, #20]
 1197 0742 DB69     		ldr	r3, [r3, #28]
 1198 0744 B3F82033 		ldrh	r3, [r3, #800]
 1199 0748 0846     		mov	r0, r1
 1200 074a 1146     		mov	r1, r2
 1201 074c 1A46     		mov	r2, r3
 1202 074e FFF7FEFF 		bl	memcpy
 310:.\AdvantageImpl.c ****                                     StoreEepromPage(EEPROM_DISPENSER_PUMP44_TRANSACTION_PAGE);
 1203              		.loc 1 310 0
 1204 0752 4FF41C60 		mov	r0, #2496
 1205 0756 FFF7FEFF 		bl	StoreEepromPage
 1206              	.L32:
 311:.\AdvantageImpl.c ****                                 }
 312:.\AdvantageImpl.c ****                             }
 313:.\AdvantageImpl.c ****                         }
 314:.\AdvantageImpl.c ****                     }
 315:.\AdvantageImpl.c ****                 }
 316:.\AdvantageImpl.c ****                 I2CBusUnlock();
 1207              		.loc 1 316 0
 1208 075a FFF7FEFF 		bl	I2CBusUnlock
 1209 075e CBE3     		b	.L36
 1210              	.L18:
 317:.\AdvantageImpl.c ****             }
 318:.\AdvantageImpl.c ****             else
 319:.\AdvantageImpl.c ****             {            
 320:.\AdvantageImpl.c ****                 pjob->_ppump->_rxbuffer[0x09] = (pjob->_ppump->_rxbuffer[0x09] & 0x0F);//Hose id
 1211              		.loc 1 320 0
 1212 0760 7B69     		ldr	r3, [r7, #20]
 1213 0762 DB69     		ldr	r3, [r3, #28]
 1214 0764 7A69     		ldr	r2, [r7, #20]
 1215 0766 D269     		ldr	r2, [r2, #28]
 1216 0768 92F8A921 		ldrb	r2, [r2, #425]	@ zero_extendqisi2
 1217 076c 02F00F02 		and	r2, r2, #15
 1218 0770 D2B2     		uxtb	r2, r2
 1219 0772 83F8A921 		strb	r2, [r3, #425]
ARM GAS  C:\Users\Lenovo\AppData\Local\Temp\cccA9qMw.s 			page 28


 321:.\AdvantageImpl.c ****                 pjob->_ppump->_authorizationinfo._hoseid = pjob->_ppump->_rxbuffer[0x09];//Hose id
 1220              		.loc 1 321 0
 1221 0776 7B69     		ldr	r3, [r7, #20]
 1222 0778 DB69     		ldr	r3, [r3, #28]
 1223 077a 7A69     		ldr	r2, [r7, #20]
 1224 077c D269     		ldr	r2, [r2, #28]
 1225 077e 92F8A921 		ldrb	r2, [r2, #425]	@ zero_extendqisi2
 1226 0782 83F8AA2B 		strb	r2, [r3, #2986]
 322:.\AdvantageImpl.c ****                 
 323:.\AdvantageImpl.c ****                 //In this position is located the payment type (CREDIT: 0x0E , CASH:0x0D)
 324:.\AdvantageImpl.c ****                 if(pjob->_ppump->_trasactionbuffer[0x00] == 0x0D)
 1227              		.loc 1 324 0
 1228 0786 7B69     		ldr	r3, [r7, #20]
 1229 0788 DB69     		ldr	r3, [r3, #28]
 1230 078a 93F82030 		ldrb	r3, [r3, #32]	@ zero_extendqisi2
 1231 078e 0D2B     		cmp	r3, #13
 1232 0790 40F0E080 		bne	.L37
 1233              	.LBB5:
 325:.\AdvantageImpl.c ****                 {
 326:.\AdvantageImpl.c ****                     I2CBusLock();
 1234              		.loc 1 326 0
 1235 0794 FFF7FEFF 		bl	I2CBusLock
 327:.\AdvantageImpl.c ****                     ClearEepromBuffer();
 1236              		.loc 1 327 0
 1237 0798 FFF7FEFF 		bl	ClearEepromBuffer
 328:.\AdvantageImpl.c ****                     uint16 eeprompage = DispenserGetEepromPPUPageFromPumpID(pjob->_ppump->_pumpid);
 1238              		.loc 1 328 0
 1239 079c 7B69     		ldr	r3, [r7, #20]
 1240 079e DB69     		ldr	r3, [r3, #28]
 1241 07a0 1B78     		ldrb	r3, [r3]	@ zero_extendqisi2
 1242 07a2 1846     		mov	r0, r3
 1243 07a4 FFF7FEFF 		bl	DispenserGetEepromPPUPageFromPumpID
 1244 07a8 0346     		mov	r3, r0
 1245 07aa FB81     		strh	r3, [r7, #14]	@ movhi
 329:.\AdvantageImpl.c ****                     LoadEepromPage(eeprompage);
 1246              		.loc 1 329 0
 1247 07ac FB89     		ldrh	r3, [r7, #14]
 1248 07ae 1846     		mov	r0, r3
 1249 07b0 FFF7FEFF 		bl	LoadEepromPage
 330:.\AdvantageImpl.c ****                     switch(pjob->_ppump->_authorizationinfo._hoseid)
 1250              		.loc 1 330 0
 1251 07b4 7B69     		ldr	r3, [r7, #20]
 1252 07b6 DB69     		ldr	r3, [r3, #28]
 1253 07b8 93F8AA3B 		ldrb	r3, [r3, #2986]
 1254 07bc DBB2     		uxtb	r3, r3
 1255 07be 032B     		cmp	r3, #3
 1256 07c0 64D8     		bhi	.L38
 1257 07c2 01A2     		adr	r2, .L40
 1258 07c4 52F823F0 		ldr	pc, [r2, r3, lsl #2]
 1259              		.p2align 2
 1260              	.L40:
 1261 07c8 D9070000 		.word	.L39+1
 1262 07cc 03080000 		.word	.L41+1
 1263 07d0 31080000 		.word	.L42+1
 1264 07d4 5F080000 		.word	.L43+1
 1265              		.p2align 1
 1266              	.L39:
ARM GAS  C:\Users\Lenovo\AppData\Local\Temp\cccA9qMw.s 			page 29


 331:.\AdvantageImpl.c ****                     {
 332:.\AdvantageImpl.c ****                         case 0x00:
 333:.\AdvantageImpl.c ****                         //Six bytes only since the PPU is constrained to this length
 334:.\AdvantageImpl.c ****                         memcpy(PBYTECAST(&pjob->_ppump->_trasactionbuffer[GetBufferIndexFromDisplay
 1267              		.loc 1 334 0
 1268 07d8 7B69     		ldr	r3, [r7, #20]
 1269 07da DC69     		ldr	r4, [r3, #28]
 1270 07dc 6520     		movs	r0, #101
 1271 07de FFF7FEFF 		bl	GetBufferIndexFromDisplayID
 1272 07e2 0346     		mov	r3, r0
 1273 07e4 2033     		adds	r3, r3, #32
 1274 07e6 1C44     		add	r4, r4, r3
 1275 07e8 FFF7FEFF 		bl	GetEepromBuffer
 1276 07ec 0546     		mov	r5, r0
 1277 07ee 6520     		movs	r0, #101
 1278 07f0 FFF7FEFF 		bl	GetBufferLengthFromDisplayID
 1279 07f4 0346     		mov	r3, r0
 1280 07f6 2046     		mov	r0, r4
 1281 07f8 2946     		mov	r1, r5
 1282 07fa 1A46     		mov	r2, r3
 1283 07fc FFF7FEFF 		bl	memcpy
 335:.\AdvantageImpl.c ****                         break;
 1284              		.loc 1 335 0
 1285 0800 44E0     		b	.L38
 1286              	.L41:
 336:.\AdvantageImpl.c ****                         case 0x01:
 337:.\AdvantageImpl.c ****                         //Six bytes only since the PPU is constrained to this length
 338:.\AdvantageImpl.c ****                         memcpy(PBYTECAST(&pjob->_ppump->_trasactionbuffer[GetBufferIndexFromDisplay
 1287              		.loc 1 338 0
 1288 0802 7B69     		ldr	r3, [r7, #20]
 1289 0804 DC69     		ldr	r4, [r3, #28]
 1290 0806 6520     		movs	r0, #101
 1291 0808 FFF7FEFF 		bl	GetBufferIndexFromDisplayID
 1292 080c 0346     		mov	r3, r0
 1293 080e 2033     		adds	r3, r3, #32
 1294 0810 E518     		adds	r5, r4, r3
 1295 0812 FFF7FEFF 		bl	GetEepromBuffer
 1296 0816 0346     		mov	r3, r0
 1297 0818 03F11004 		add	r4, r3, #16
 1298 081c 6520     		movs	r0, #101
 1299 081e FFF7FEFF 		bl	GetBufferLengthFromDisplayID
 1300 0822 0346     		mov	r3, r0
 1301 0824 2846     		mov	r0, r5
 1302 0826 2146     		mov	r1, r4
 1303 0828 1A46     		mov	r2, r3
 1304 082a FFF7FEFF 		bl	memcpy
 339:.\AdvantageImpl.c ****                         break;
 1305              		.loc 1 339 0
 1306 082e 2DE0     		b	.L38
 1307              	.L42:
 340:.\AdvantageImpl.c ****                         case 0x02:
 341:.\AdvantageImpl.c ****                         //Six bytes only since the PPU is constrained to this length
 342:.\AdvantageImpl.c ****                         memcpy(PBYTECAST(&pjob->_ppump->_trasactionbuffer[GetBufferIndexFromDisplay
 1308              		.loc 1 342 0
 1309 0830 7B69     		ldr	r3, [r7, #20]
 1310 0832 DC69     		ldr	r4, [r3, #28]
 1311 0834 6520     		movs	r0, #101
ARM GAS  C:\Users\Lenovo\AppData\Local\Temp\cccA9qMw.s 			page 30


 1312 0836 FFF7FEFF 		bl	GetBufferIndexFromDisplayID
 1313 083a 0346     		mov	r3, r0
 1314 083c 2033     		adds	r3, r3, #32
 1315 083e E518     		adds	r5, r4, r3
 1316 0840 FFF7FEFF 		bl	GetEepromBuffer
 1317 0844 0346     		mov	r3, r0
 1318 0846 03F12004 		add	r4, r3, #32
 1319 084a 6520     		movs	r0, #101
 1320 084c FFF7FEFF 		bl	GetBufferLengthFromDisplayID
 1321 0850 0346     		mov	r3, r0
 1322 0852 2846     		mov	r0, r5
 1323 0854 2146     		mov	r1, r4
 1324 0856 1A46     		mov	r2, r3
 1325 0858 FFF7FEFF 		bl	memcpy
 343:.\AdvantageImpl.c ****                         break;
 1326              		.loc 1 343 0
 1327 085c 16E0     		b	.L38
 1328              	.L43:
 344:.\AdvantageImpl.c ****                         case 0x03:
 345:.\AdvantageImpl.c ****                         //Six bytes only since the PPU is constrained to this length
 346:.\AdvantageImpl.c ****                         memcpy(PBYTECAST(&pjob->_ppump->_trasactionbuffer[GetBufferIndexFromDisplay
 1329              		.loc 1 346 0
 1330 085e 7B69     		ldr	r3, [r7, #20]
 1331 0860 DC69     		ldr	r4, [r3, #28]
 1332 0862 6520     		movs	r0, #101
 1333 0864 FFF7FEFF 		bl	GetBufferIndexFromDisplayID
 1334 0868 0346     		mov	r3, r0
 1335 086a 2033     		adds	r3, r3, #32
 1336 086c E518     		adds	r5, r4, r3
 1337 086e FFF7FEFF 		bl	GetEepromBuffer
 1338 0872 0346     		mov	r3, r0
 1339 0874 03F13004 		add	r4, r3, #48
 1340 0878 6520     		movs	r0, #101
 1341 087a FFF7FEFF 		bl	GetBufferLengthFromDisplayID
 1342 087e 0346     		mov	r3, r0
 1343 0880 2846     		mov	r0, r5
 1344 0882 2146     		mov	r1, r4
 1345 0884 1A46     		mov	r2, r3
 1346 0886 FFF7FEFF 		bl	memcpy
 347:.\AdvantageImpl.c ****                         break;
 1347              		.loc 1 347 0
 1348 088a 00BF     		nop
 1349              	.L38:
 348:.\AdvantageImpl.c ****                     }
 349:.\AdvantageImpl.c ****                     I2CBusUnlock();
 1350              		.loc 1 349 0
 1351 088c FFF7FEFF 		bl	I2CBusUnlock
 350:.\AdvantageImpl.c ****                     
 351:.\AdvantageImpl.c ****                     memcpy(PBYTECAST(&pjob->_ppump->_rxbuffer[0x0C]), PBYTECAST(&pjob->_ppump->_tra
 1352              		.loc 1 351 0
 1353 0890 7B69     		ldr	r3, [r7, #20]
 1354 0892 DB69     		ldr	r3, [r3, #28]
 1355 0894 03F5D675 		add	r5, r3, #428
 1356 0898 7B69     		ldr	r3, [r7, #20]
 1357 089a DC69     		ldr	r4, [r3, #28]
 1358 089c 6520     		movs	r0, #101
 1359 089e FFF7FEFF 		bl	GetBufferIndexFromDisplayID
ARM GAS  C:\Users\Lenovo\AppData\Local\Temp\cccA9qMw.s 			page 31


 1360 08a2 0346     		mov	r3, r0
 1361 08a4 2033     		adds	r3, r3, #32
 1362 08a6 2344     		add	r3, r3, r4
 1363 08a8 2846     		mov	r0, r5
 1364 08aa 1946     		mov	r1, r3
 1365 08ac 0622     		movs	r2, #6
 1366 08ae FFF7FEFF 		bl	memcpy
 352:.\AdvantageImpl.c ****                     
 353:.\AdvantageImpl.c ****                     //Bytes from index 12 to 17 are the digits for the PPU used for the transaction
 354:.\AdvantageImpl.c ****                     //Digits are in BCD format
 355:.\AdvantageImpl.c ****                     pjob->_ppump->_rxbuffer[0x0C] = (pjob->_ppump->_rxbuffer[0x0C] & 0x0F);
 1367              		.loc 1 355 0
 1368 08b2 7B69     		ldr	r3, [r7, #20]
 1369 08b4 DB69     		ldr	r3, [r3, #28]
 1370 08b6 7A69     		ldr	r2, [r7, #20]
 1371 08b8 D269     		ldr	r2, [r2, #28]
 1372 08ba 92F8AC21 		ldrb	r2, [r2, #428]	@ zero_extendqisi2
 1373 08be 02F00F02 		and	r2, r2, #15
 1374 08c2 D2B2     		uxtb	r2, r2
 1375 08c4 83F8AC21 		strb	r2, [r3, #428]
 356:.\AdvantageImpl.c ****                     pjob->_ppump->_rxbuffer[0x0D] = (pjob->_ppump->_rxbuffer[0x0D] & 0x0F);
 1376              		.loc 1 356 0
 1377 08c8 7B69     		ldr	r3, [r7, #20]
 1378 08ca DB69     		ldr	r3, [r3, #28]
 1379 08cc 7A69     		ldr	r2, [r7, #20]
 1380 08ce D269     		ldr	r2, [r2, #28]
 1381 08d0 92F8AD21 		ldrb	r2, [r2, #429]	@ zero_extendqisi2
 1382 08d4 02F00F02 		and	r2, r2, #15
 1383 08d8 D2B2     		uxtb	r2, r2
 1384 08da 83F8AD21 		strb	r2, [r3, #429]
 357:.\AdvantageImpl.c ****                     pjob->_ppump->_rxbuffer[0x0E] = (pjob->_ppump->_rxbuffer[0x0E] & 0x0F);
 1385              		.loc 1 357 0
 1386 08de 7B69     		ldr	r3, [r7, #20]
 1387 08e0 DB69     		ldr	r3, [r3, #28]
 1388 08e2 7A69     		ldr	r2, [r7, #20]
 1389 08e4 D269     		ldr	r2, [r2, #28]
 1390 08e6 92F8AE21 		ldrb	r2, [r2, #430]	@ zero_extendqisi2
 1391 08ea 02F00F02 		and	r2, r2, #15
 1392 08ee D2B2     		uxtb	r2, r2
 1393 08f0 83F8AE21 		strb	r2, [r3, #430]
 358:.\AdvantageImpl.c ****                     pjob->_ppump->_rxbuffer[0x0F] = (pjob->_ppump->_rxbuffer[0x0F] & 0x0F);
 1394              		.loc 1 358 0
 1395 08f4 7B69     		ldr	r3, [r7, #20]
 1396 08f6 DB69     		ldr	r3, [r3, #28]
 1397 08f8 7A69     		ldr	r2, [r7, #20]
 1398 08fa D269     		ldr	r2, [r2, #28]
 1399 08fc 92F8AF21 		ldrb	r2, [r2, #431]	@ zero_extendqisi2
 1400 0900 02F00F02 		and	r2, r2, #15
 1401 0904 D2B2     		uxtb	r2, r2
 1402 0906 83F8AF21 		strb	r2, [r3, #431]
 359:.\AdvantageImpl.c ****                     pjob->_ppump->_rxbuffer[0x10] = (pjob->_ppump->_rxbuffer[0x10] & 0x0F);
 1403              		.loc 1 359 0
 1404 090a 7B69     		ldr	r3, [r7, #20]
 1405 090c DB69     		ldr	r3, [r3, #28]
 1406 090e 7A69     		ldr	r2, [r7, #20]
 1407 0910 D269     		ldr	r2, [r2, #28]
 1408 0912 92F8B021 		ldrb	r2, [r2, #432]	@ zero_extendqisi2
ARM GAS  C:\Users\Lenovo\AppData\Local\Temp\cccA9qMw.s 			page 32


 1409 0916 02F00F02 		and	r2, r2, #15
 1410 091a D2B2     		uxtb	r2, r2
 1411 091c 83F8B021 		strb	r2, [r3, #432]
 360:.\AdvantageImpl.c ****                     pjob->_ppump->_rxbuffer[0x11] = (pjob->_ppump->_rxbuffer[0x11] & 0x0F);
 1412              		.loc 1 360 0
 1413 0920 7B69     		ldr	r3, [r7, #20]
 1414 0922 DB69     		ldr	r3, [r3, #28]
 1415 0924 7A69     		ldr	r2, [r7, #20]
 1416 0926 D269     		ldr	r2, [r2, #28]
 1417 0928 92F8B121 		ldrb	r2, [r2, #433]	@ zero_extendqisi2
 1418 092c 02F00F02 		and	r2, r2, #15
 1419 0930 D2B2     		uxtb	r2, r2
 1420 0932 83F8B121 		strb	r2, [r3, #433]
 361:.\AdvantageImpl.c ****                     pjob->_ppump->_authorizationinfo._price = LSDBCDBUFF2HEX(PBYTECAST(&pjob->_ppum
 1421              		.loc 1 361 0
 1422 0936 7B69     		ldr	r3, [r7, #20]
 1423 0938 DC69     		ldr	r4, [r3, #28]
 1424 093a 7B69     		ldr	r3, [r7, #20]
 1425 093c DB69     		ldr	r3, [r3, #28]
 1426 093e 03F5D673 		add	r3, r3, #428
 1427 0942 1846     		mov	r0, r3
 1428 0944 0621     		movs	r1, #6
 1429 0946 FFF7FEFF 		bl	LSDBCDBUFF2HEX
 1430 094a 0346     		mov	r3, r0
 1431 094c 9BB2     		uxth	r3, r3
 1432 094e A4F8AC3B 		strh	r3, [r4, #2988]	@ movhi
 1433              	.LBE5:
 1434 0952 41E0     		b	.L44
 1435              	.L37:
 362:.\AdvantageImpl.c ****                     
 363:.\AdvantageImpl.c ****                 }
 364:.\AdvantageImpl.c ****                 else
 365:.\AdvantageImpl.c ****                 {
 366:.\AdvantageImpl.c ****                     pjob->_ppump->_rxbuffer[0x0C] = (pjob->_ppump->_rxbuffer[0x0C] & 0x0F);
 1436              		.loc 1 366 0
 1437 0954 7B69     		ldr	r3, [r7, #20]
 1438 0956 DB69     		ldr	r3, [r3, #28]
 1439 0958 7A69     		ldr	r2, [r7, #20]
 1440 095a D269     		ldr	r2, [r2, #28]
 1441 095c 92F8AC21 		ldrb	r2, [r2, #428]	@ zero_extendqisi2
 1442 0960 02F00F02 		and	r2, r2, #15
 1443 0964 D2B2     		uxtb	r2, r2
 1444 0966 83F8AC21 		strb	r2, [r3, #428]
 367:.\AdvantageImpl.c ****                     pjob->_ppump->_rxbuffer[0x0D] = (pjob->_ppump->_rxbuffer[0x0D] & 0x0F);
 1445              		.loc 1 367 0
 1446 096a 7B69     		ldr	r3, [r7, #20]
 1447 096c DB69     		ldr	r3, [r3, #28]
 1448 096e 7A69     		ldr	r2, [r7, #20]
 1449 0970 D269     		ldr	r2, [r2, #28]
 1450 0972 92F8AD21 		ldrb	r2, [r2, #429]	@ zero_extendqisi2
 1451 0976 02F00F02 		and	r2, r2, #15
 1452 097a D2B2     		uxtb	r2, r2
 1453 097c 83F8AD21 		strb	r2, [r3, #429]
 368:.\AdvantageImpl.c ****                     pjob->_ppump->_rxbuffer[0x0E] = (pjob->_ppump->_rxbuffer[0x0E] & 0x0F);
 1454              		.loc 1 368 0
 1455 0980 7B69     		ldr	r3, [r7, #20]
 1456 0982 DB69     		ldr	r3, [r3, #28]
ARM GAS  C:\Users\Lenovo\AppData\Local\Temp\cccA9qMw.s 			page 33


 1457 0984 7A69     		ldr	r2, [r7, #20]
 1458 0986 D269     		ldr	r2, [r2, #28]
 1459 0988 92F8AE21 		ldrb	r2, [r2, #430]	@ zero_extendqisi2
 1460 098c 02F00F02 		and	r2, r2, #15
 1461 0990 D2B2     		uxtb	r2, r2
 1462 0992 83F8AE21 		strb	r2, [r3, #430]
 369:.\AdvantageImpl.c ****                     pjob->_ppump->_rxbuffer[0x0F] = (pjob->_ppump->_rxbuffer[0x0F] & 0x0F);
 1463              		.loc 1 369 0
 1464 0996 7B69     		ldr	r3, [r7, #20]
 1465 0998 DB69     		ldr	r3, [r3, #28]
 1466 099a 7A69     		ldr	r2, [r7, #20]
 1467 099c D269     		ldr	r2, [r2, #28]
 1468 099e 92F8AF21 		ldrb	r2, [r2, #431]	@ zero_extendqisi2
 1469 09a2 02F00F02 		and	r2, r2, #15
 1470 09a6 D2B2     		uxtb	r2, r2
 1471 09a8 83F8AF21 		strb	r2, [r3, #431]
 370:.\AdvantageImpl.c ****                     pjob->_ppump->_rxbuffer[0x10] = (pjob->_ppump->_rxbuffer[0x10] & 0x0F);
 1472              		.loc 1 370 0
 1473 09ac 7B69     		ldr	r3, [r7, #20]
 1474 09ae DB69     		ldr	r3, [r3, #28]
 1475 09b0 7A69     		ldr	r2, [r7, #20]
 1476 09b2 D269     		ldr	r2, [r2, #28]
 1477 09b4 92F8B021 		ldrb	r2, [r2, #432]	@ zero_extendqisi2
 1478 09b8 02F00F02 		and	r2, r2, #15
 1479 09bc D2B2     		uxtb	r2, r2
 1480 09be 83F8B021 		strb	r2, [r3, #432]
 371:.\AdvantageImpl.c ****                     pjob->_ppump->_rxbuffer[0x11] = (pjob->_ppump->_rxbuffer[0x11] & 0x0F);
 1481              		.loc 1 371 0
 1482 09c2 7B69     		ldr	r3, [r7, #20]
 1483 09c4 DB69     		ldr	r3, [r3, #28]
 1484 09c6 7A69     		ldr	r2, [r7, #20]
 1485 09c8 D269     		ldr	r2, [r2, #28]
 1486 09ca 92F8B121 		ldrb	r2, [r2, #433]	@ zero_extendqisi2
 1487 09ce 02F00F02 		and	r2, r2, #15
 1488 09d2 D2B2     		uxtb	r2, r2
 1489 09d4 83F8B121 		strb	r2, [r3, #433]
 1490              	.L44:
 372:.\AdvantageImpl.c ****                 }
 373:.\AdvantageImpl.c ****                 
 374:.\AdvantageImpl.c ****                 //Bytes from index 19 to 26 are the digits for the fuel volume delivered in the tra
 375:.\AdvantageImpl.c ****                 //Digits are in BCD format
 376:.\AdvantageImpl.c ****                 pjob->_ppump->_rxbuffer[0x13] = (pjob->_ppump->_rxbuffer[0x13] & 0x0F);
 1491              		.loc 1 376 0
 1492 09d8 7B69     		ldr	r3, [r7, #20]
 1493 09da DB69     		ldr	r3, [r3, #28]
 1494 09dc 7A69     		ldr	r2, [r7, #20]
 1495 09de D269     		ldr	r2, [r2, #28]
 1496 09e0 92F8B321 		ldrb	r2, [r2, #435]	@ zero_extendqisi2
 1497 09e4 02F00F02 		and	r2, r2, #15
 1498 09e8 D2B2     		uxtb	r2, r2
 1499 09ea 83F8B321 		strb	r2, [r3, #435]
 377:.\AdvantageImpl.c ****                 pjob->_ppump->_rxbuffer[0x14] = (pjob->_ppump->_rxbuffer[0x14] & 0x0F);
 1500              		.loc 1 377 0
 1501 09ee 7B69     		ldr	r3, [r7, #20]
 1502 09f0 DB69     		ldr	r3, [r3, #28]
 1503 09f2 7A69     		ldr	r2, [r7, #20]
 1504 09f4 D269     		ldr	r2, [r2, #28]
ARM GAS  C:\Users\Lenovo\AppData\Local\Temp\cccA9qMw.s 			page 34


 1505 09f6 92F8B421 		ldrb	r2, [r2, #436]	@ zero_extendqisi2
 1506 09fa 02F00F02 		and	r2, r2, #15
 1507 09fe D2B2     		uxtb	r2, r2
 1508 0a00 83F8B421 		strb	r2, [r3, #436]
 378:.\AdvantageImpl.c ****                 pjob->_ppump->_rxbuffer[0x15] = (pjob->_ppump->_rxbuffer[0x15] & 0x0F);
 1509              		.loc 1 378 0
 1510 0a04 7B69     		ldr	r3, [r7, #20]
 1511 0a06 DB69     		ldr	r3, [r3, #28]
 1512 0a08 7A69     		ldr	r2, [r7, #20]
 1513 0a0a D269     		ldr	r2, [r2, #28]
 1514 0a0c 92F8B521 		ldrb	r2, [r2, #437]	@ zero_extendqisi2
 1515 0a10 02F00F02 		and	r2, r2, #15
 1516 0a14 D2B2     		uxtb	r2, r2
 1517 0a16 83F8B521 		strb	r2, [r3, #437]
 379:.\AdvantageImpl.c ****                 pjob->_ppump->_rxbuffer[0x16] = (pjob->_ppump->_rxbuffer[0x16] & 0x0F);
 1518              		.loc 1 379 0
 1519 0a1a 7B69     		ldr	r3, [r7, #20]
 1520 0a1c DB69     		ldr	r3, [r3, #28]
 1521 0a1e 7A69     		ldr	r2, [r7, #20]
 1522 0a20 D269     		ldr	r2, [r2, #28]
 1523 0a22 92F8B621 		ldrb	r2, [r2, #438]	@ zero_extendqisi2
 1524 0a26 02F00F02 		and	r2, r2, #15
 1525 0a2a D2B2     		uxtb	r2, r2
 1526 0a2c 83F8B621 		strb	r2, [r3, #438]
 380:.\AdvantageImpl.c ****                 pjob->_ppump->_rxbuffer[0x17] = (pjob->_ppump->_rxbuffer[0x17] & 0x0F);
 1527              		.loc 1 380 0
 1528 0a30 7B69     		ldr	r3, [r7, #20]
 1529 0a32 DB69     		ldr	r3, [r3, #28]
 1530 0a34 7A69     		ldr	r2, [r7, #20]
 1531 0a36 D269     		ldr	r2, [r2, #28]
 1532 0a38 92F8B721 		ldrb	r2, [r2, #439]	@ zero_extendqisi2
 1533 0a3c 02F00F02 		and	r2, r2, #15
 1534 0a40 D2B2     		uxtb	r2, r2
 1535 0a42 83F8B721 		strb	r2, [r3, #439]
 381:.\AdvantageImpl.c ****                 pjob->_ppump->_rxbuffer[0x18] = (pjob->_ppump->_rxbuffer[0x18] & 0x0F);
 1536              		.loc 1 381 0
 1537 0a46 7B69     		ldr	r3, [r7, #20]
 1538 0a48 DB69     		ldr	r3, [r3, #28]
 1539 0a4a 7A69     		ldr	r2, [r7, #20]
 1540 0a4c D269     		ldr	r2, [r2, #28]
 1541 0a4e 92F8B821 		ldrb	r2, [r2, #440]	@ zero_extendqisi2
 1542 0a52 02F00F02 		and	r2, r2, #15
 1543 0a56 D2B2     		uxtb	r2, r2
 1544 0a58 83F8B821 		strb	r2, [r3, #440]
 382:.\AdvantageImpl.c ****                 pjob->_ppump->_rxbuffer[0x19] = (pjob->_ppump->_rxbuffer[0x19] & 0x0F);
 1545              		.loc 1 382 0
 1546 0a5c 7B69     		ldr	r3, [r7, #20]
 1547 0a5e DB69     		ldr	r3, [r3, #28]
 1548 0a60 7A69     		ldr	r2, [r7, #20]
 1549 0a62 D269     		ldr	r2, [r2, #28]
 1550 0a64 92F8B921 		ldrb	r2, [r2, #441]	@ zero_extendqisi2
 1551 0a68 02F00F02 		and	r2, r2, #15
 1552 0a6c D2B2     		uxtb	r2, r2
 1553 0a6e 83F8B921 		strb	r2, [r3, #441]
 383:.\AdvantageImpl.c ****                 pjob->_ppump->_rxbuffer[0x1A] = (pjob->_ppump->_rxbuffer[0x1A] & 0x0F);
 1554              		.loc 1 383 0
 1555 0a72 7B69     		ldr	r3, [r7, #20]
ARM GAS  C:\Users\Lenovo\AppData\Local\Temp\cccA9qMw.s 			page 35


 1556 0a74 DB69     		ldr	r3, [r3, #28]
 1557 0a76 7A69     		ldr	r2, [r7, #20]
 1558 0a78 D269     		ldr	r2, [r2, #28]
 1559 0a7a 92F8BA21 		ldrb	r2, [r2, #442]	@ zero_extendqisi2
 1560 0a7e 02F00F02 		and	r2, r2, #15
 1561 0a82 D2B2     		uxtb	r2, r2
 1562 0a84 83F8BA21 		strb	r2, [r3, #442]
 384:.\AdvantageImpl.c ****                 pjob->_ppump->_authorizationinfo._volumeamount = LSDBCDBUFF2HEX(PBYTECAST(&pjob->_p
 1563              		.loc 1 384 0
 1564 0a88 7B69     		ldr	r3, [r7, #20]
 1565 0a8a DC69     		ldr	r4, [r3, #28]
 1566 0a8c 7B69     		ldr	r3, [r7, #20]
 1567 0a8e DB69     		ldr	r3, [r3, #28]
 1568 0a90 03F2B313 		addw	r3, r3, #435
 1569 0a94 1846     		mov	r0, r3
 1570 0a96 0821     		movs	r1, #8
 1571 0a98 FFF7FEFF 		bl	LSDBCDBUFF2HEX
 1572 0a9c 0346     		mov	r3, r0
 1573 0a9e C4F8B43B 		str	r3, [r4, #2996]
 385:.\AdvantageImpl.c ****                 
 386:.\AdvantageImpl.c ****                 ////////////////////////////////////////////////////////////////////////////////
 387:.\AdvantageImpl.c ****                 ////////////////////////////////////////////////////////////////////////////////
 388:.\AdvantageImpl.c ****                 
 389:.\AdvantageImpl.c ****                 //Bytes from index 28 to 35 are the digits for the money charged to the transaction
 390:.\AdvantageImpl.c ****                 //Digits are in BCD format
 391:.\AdvantageImpl.c ****                 pjob->_ppump->_rxbuffer[0x1C] = (pjob->_ppump->_rxbuffer[0x1C] & 0x00);//Zero to ma
 1574              		.loc 1 391 0
 1575 0aa2 7B69     		ldr	r3, [r7, #20]
 1576 0aa4 DB69     		ldr	r3, [r3, #28]
 1577 0aa6 0022     		movs	r2, #0
 1578 0aa8 83F8BC21 		strb	r2, [r3, #444]
 392:.\AdvantageImpl.c ****                 
 393:.\AdvantageImpl.c ****                 pjob->_ppump->_rxbuffer[0x1D] = (pjob->_ppump->_rxbuffer[0x1D] & 0x0F);
 1579              		.loc 1 393 0
 1580 0aac 7B69     		ldr	r3, [r7, #20]
 1581 0aae DB69     		ldr	r3, [r3, #28]
 1582 0ab0 7A69     		ldr	r2, [r7, #20]
 1583 0ab2 D269     		ldr	r2, [r2, #28]
 1584 0ab4 92F8BD21 		ldrb	r2, [r2, #445]	@ zero_extendqisi2
 1585 0ab8 02F00F02 		and	r2, r2, #15
 1586 0abc D2B2     		uxtb	r2, r2
 1587 0abe 83F8BD21 		strb	r2, [r3, #445]
 394:.\AdvantageImpl.c ****                 pjob->_ppump->_rxbuffer[0x1E] = (pjob->_ppump->_rxbuffer[0x1E] & 0x0F);
 1588              		.loc 1 394 0
 1589 0ac2 7B69     		ldr	r3, [r7, #20]
 1590 0ac4 DB69     		ldr	r3, [r3, #28]
 1591 0ac6 7A69     		ldr	r2, [r7, #20]
 1592 0ac8 D269     		ldr	r2, [r2, #28]
 1593 0aca 92F8BE21 		ldrb	r2, [r2, #446]	@ zero_extendqisi2
 1594 0ace 02F00F02 		and	r2, r2, #15
 1595 0ad2 D2B2     		uxtb	r2, r2
 1596 0ad4 83F8BE21 		strb	r2, [r3, #446]
 395:.\AdvantageImpl.c ****                 pjob->_ppump->_rxbuffer[0x1F] = (pjob->_ppump->_rxbuffer[0x1F] & 0x0F);
 1597              		.loc 1 395 0
 1598 0ad8 7B69     		ldr	r3, [r7, #20]
 1599 0ada DB69     		ldr	r3, [r3, #28]
 1600 0adc 7A69     		ldr	r2, [r7, #20]
ARM GAS  C:\Users\Lenovo\AppData\Local\Temp\cccA9qMw.s 			page 36


 1601 0ade D269     		ldr	r2, [r2, #28]
 1602 0ae0 92F8BF21 		ldrb	r2, [r2, #447]	@ zero_extendqisi2
 1603 0ae4 02F00F02 		and	r2, r2, #15
 1604 0ae8 D2B2     		uxtb	r2, r2
 1605 0aea 83F8BF21 		strb	r2, [r3, #447]
 396:.\AdvantageImpl.c ****                 pjob->_ppump->_rxbuffer[0x20] = (pjob->_ppump->_rxbuffer[0x20] & 0x0F);
 1606              		.loc 1 396 0
 1607 0aee 7B69     		ldr	r3, [r7, #20]
 1608 0af0 DB69     		ldr	r3, [r3, #28]
 1609 0af2 7A69     		ldr	r2, [r7, #20]
 1610 0af4 D269     		ldr	r2, [r2, #28]
 1611 0af6 92F8C021 		ldrb	r2, [r2, #448]	@ zero_extendqisi2
 1612 0afa 02F00F02 		and	r2, r2, #15
 1613 0afe D2B2     		uxtb	r2, r2
 1614 0b00 83F8C021 		strb	r2, [r3, #448]
 397:.\AdvantageImpl.c ****                 pjob->_ppump->_rxbuffer[0x21] = (pjob->_ppump->_rxbuffer[0x21] & 0x0F);
 1615              		.loc 1 397 0
 1616 0b04 7B69     		ldr	r3, [r7, #20]
 1617 0b06 DB69     		ldr	r3, [r3, #28]
 1618 0b08 7A69     		ldr	r2, [r7, #20]
 1619 0b0a D269     		ldr	r2, [r2, #28]
 1620 0b0c 92F8C121 		ldrb	r2, [r2, #449]	@ zero_extendqisi2
 1621 0b10 02F00F02 		and	r2, r2, #15
 1622 0b14 D2B2     		uxtb	r2, r2
 1623 0b16 83F8C121 		strb	r2, [r3, #449]
 398:.\AdvantageImpl.c ****                 pjob->_ppump->_rxbuffer[0x22] = (pjob->_ppump->_rxbuffer[0x22] & 0x0F);
 1624              		.loc 1 398 0
 1625 0b1a 7B69     		ldr	r3, [r7, #20]
 1626 0b1c DB69     		ldr	r3, [r3, #28]
 1627 0b1e 7A69     		ldr	r2, [r7, #20]
 1628 0b20 D269     		ldr	r2, [r2, #28]
 1629 0b22 92F8C221 		ldrb	r2, [r2, #450]	@ zero_extendqisi2
 1630 0b26 02F00F02 		and	r2, r2, #15
 1631 0b2a D2B2     		uxtb	r2, r2
 1632 0b2c 83F8C221 		strb	r2, [r3, #450]
 399:.\AdvantageImpl.c ****                 pjob->_ppump->_rxbuffer[0x23] = (pjob->_ppump->_rxbuffer[0x23] & 0x0F);
 1633              		.loc 1 399 0
 1634 0b30 7B69     		ldr	r3, [r7, #20]
 1635 0b32 DB69     		ldr	r3, [r3, #28]
 1636 0b34 7A69     		ldr	r2, [r7, #20]
 1637 0b36 D269     		ldr	r2, [r2, #28]
 1638 0b38 92F8C321 		ldrb	r2, [r2, #451]	@ zero_extendqisi2
 1639 0b3c 02F00F02 		and	r2, r2, #15
 1640 0b40 D2B2     		uxtb	r2, r2
 1641 0b42 83F8C321 		strb	r2, [r3, #451]
 400:.\AdvantageImpl.c ****                 //INQUIRY ABOUT THE EXTRA x10 RESULT SINCE THERE IS AN EXTRA 0 IN THE RESPONSE FOR 
 401:.\AdvantageImpl.c ****                 //MEANWHILE DIVIDING BY 10 TO REMOVE THE ZERO
 402:.\AdvantageImpl.c ****                 pjob->_ppump->_authorizationinfo._presetamount = (LSDBCDBUFF2HEX(PBYTECAST(&pjob->_
 1642              		.loc 1 402 0
 1643 0b46 7B69     		ldr	r3, [r7, #20]
 1644 0b48 DC69     		ldr	r4, [r3, #28]
 1645 0b4a 7B69     		ldr	r3, [r7, #20]
 1646 0b4c DB69     		ldr	r3, [r3, #28]
 1647 0b4e 03F5DE73 		add	r3, r3, #444
 1648 0b52 1846     		mov	r0, r3
 1649 0b54 0821     		movs	r1, #8
 1650 0b56 FFF7FEFF 		bl	LSDBCDBUFF2HEX
ARM GAS  C:\Users\Lenovo\AppData\Local\Temp\cccA9qMw.s 			page 37


 1651 0b5a 0246     		mov	r2, r0
 1652 0b5c C94B     		ldr	r3, .L56
 1653 0b5e A3FB0223 		umull	r2, r3, r3, r2
 1654 0b62 DB08     		lsrs	r3, r3, #3
 1655 0b64 C4F8B03B 		str	r3, [r4, #2992]
 403:.\AdvantageImpl.c ****                     
 404:.\AdvantageImpl.c ****                 ClearRtcBuffer();
 1656              		.loc 1 404 0
 1657 0b68 FFF7FEFF 		bl	ClearRtcBuffer
 405:.\AdvantageImpl.c ****                 ReadRTC();
 1658              		.loc 1 405 0
 1659 0b6c FFF7FEFF 		bl	ReadRTC
 406:.\AdvantageImpl.c ****                 //CAREFUL WITH RETURNS BETWEEN THE LOCK/UNLOCK CALLS
 407:.\AdvantageImpl.c ****                 //AND RECURSIVE CALLS THAT WOULD DEAD LOCK!
 408:.\AdvantageImpl.c ****                 I2CBusLock();
 1660              		.loc 1 408 0
 1661 0b70 FFF7FEFF 		bl	I2CBusLock
 409:.\AdvantageImpl.c ****             
 410:.\AdvantageImpl.c ****                 ClearEepromBuffer();
 1662              		.loc 1 410 0
 1663 0b74 FFF7FEFF 		bl	ClearEepromBuffer
 411:.\AdvantageImpl.c ****                 //In this position is located the payment type (CREDIT: 0x0E , CASH:0x0D)
 412:.\AdvantageImpl.c ****                 if(pjob->_ppump->_trasactionbuffer[0x00] == 0x0D)
 1664              		.loc 1 412 0
 1665 0b78 7B69     		ldr	r3, [r7, #20]
 1666 0b7a DB69     		ldr	r3, [r3, #28]
 1667 0b7c 93F82030 		ldrb	r3, [r3, #32]	@ zero_extendqisi2
 1668 0b80 0D2B     		cmp	r3, #13
 1669 0b82 40F0DB80 		bne	.L45
 413:.\AdvantageImpl.c ****                 {
 414:.\AdvantageImpl.c ****                     //HERE WE STORE THE LAST TRANSACTION IN EEPROM! ALWAYS THE PREVIOUS TRANSACTION
 415:.\AdvantageImpl.c ****                     //WILL BE OVERWRITTEN AND LOST.
 416:.\AdvantageImpl.c ****                     //IN CASE OF A "CREDIT SALE", THE WHOLE DATA WILL BE STORED IN A SEPARATE MEMOR
 417:.\AdvantageImpl.c ****                     //SINCE IN CASE OF A RF LINK DROP, THE STATE OF THE SALE COULD BE RECOVERED BY 
 418:.\AdvantageImpl.c ****                     LoadEepromPage(EEPROM_DISPENSER_PUMP1_LAYOUT_PAGE);
 1670              		.loc 1 418 0
 1671 0b86 4FF40070 		mov	r0, #512
 1672 0b8a FFF7FEFF 		bl	LoadEepromPage
 419:.\AdvantageImpl.c ****                     if(GetEepromBuffer()[0] == ((pjob->_ppump->_rxbuffer[0x04] & 0x0F) + 1))
 1673              		.loc 1 419 0
 1674 0b8e FFF7FEFF 		bl	GetEepromBuffer
 1675 0b92 0346     		mov	r3, r0
 1676 0b94 1B78     		ldrb	r3, [r3]	@ zero_extendqisi2
 1677 0b96 1A46     		mov	r2, r3
 1678 0b98 7B69     		ldr	r3, [r7, #20]
 1679 0b9a DB69     		ldr	r3, [r3, #28]
 1680 0b9c 93F8A431 		ldrb	r3, [r3, #420]	@ zero_extendqisi2
 1681 0ba0 03F00F03 		and	r3, r3, #15
 1682 0ba4 0133     		adds	r3, r3, #1
 1683 0ba6 9A42     		cmp	r2, r3
 1684 0ba8 22D1     		bne	.L46
 420:.\AdvantageImpl.c ****                     {
 421:.\AdvantageImpl.c ****                         ClearEepromBuffer();
 1685              		.loc 1 421 0
 1686 0baa FFF7FEFF 		bl	ClearEepromBuffer
 422:.\AdvantageImpl.c ****                         //Storing the current Date/Time for this transaction
 423:.\AdvantageImpl.c ****                         memcpy(GetEepromBuffer(), GetRtcBuffer(), 0x07);
ARM GAS  C:\Users\Lenovo\AppData\Local\Temp\cccA9qMw.s 			page 38


 1687              		.loc 1 423 0
 1688 0bae FFF7FEFF 		bl	GetEepromBuffer
 1689 0bb2 0446     		mov	r4, r0
 1690 0bb4 FFF7FEFF 		bl	GetRtcBuffer
 1691 0bb8 0346     		mov	r3, r0
 1692 0bba 2046     		mov	r0, r4
 1693 0bbc 1946     		mov	r1, r3
 1694 0bbe 0722     		movs	r2, #7
 1695 0bc0 FFF7FEFF 		bl	memcpy
 424:.\AdvantageImpl.c ****                         memcpy(&GetEepromBuffer()[0x07], pjob->_ppump->_rxbuffer, pjob->_ppump->_rx
 1696              		.loc 1 424 0
 1697 0bc4 FFF7FEFF 		bl	GetEepromBuffer
 1698 0bc8 0346     		mov	r3, r0
 1699 0bca D91D     		adds	r1, r3, #7
 1700 0bcc 7B69     		ldr	r3, [r7, #20]
 1701 0bce DB69     		ldr	r3, [r3, #28]
 1702 0bd0 03F5D072 		add	r2, r3, #416
 1703 0bd4 7B69     		ldr	r3, [r7, #20]
 1704 0bd6 DB69     		ldr	r3, [r3, #28]
 1705 0bd8 B3F82033 		ldrh	r3, [r3, #800]
 1706 0bdc 0846     		mov	r0, r1
 1707 0bde 1146     		mov	r1, r2
 1708 0be0 1A46     		mov	r2, r3
 1709 0be2 FFF7FEFF 		bl	memcpy
 425:.\AdvantageImpl.c ****                         StoreEepromPage(EEPROM_DISPENSER_PUMP12_TRANSACTION_PAGE);
 1710              		.loc 1 425 0
 1711 0be6 4FF4C860 		mov	r0, #1600
 1712 0bea FFF7FEFF 		bl	StoreEepromPage
 1713 0bee 81E1     		b	.L50
 1714              	.L46:
 426:.\AdvantageImpl.c ****                     }
 427:.\AdvantageImpl.c ****                     else
 428:.\AdvantageImpl.c ****                     {
 429:.\AdvantageImpl.c ****                         ClearEepromBuffer();
 1715              		.loc 1 429 0
 1716 0bf0 FFF7FEFF 		bl	ClearEepromBuffer
 430:.\AdvantageImpl.c ****                         LoadEepromPage(EEPROM_DISPENSER_PUMP2_LAYOUT_PAGE);
 1717              		.loc 1 430 0
 1718 0bf4 4FF41070 		mov	r0, #576
 1719 0bf8 FFF7FEFF 		bl	LoadEepromPage
 431:.\AdvantageImpl.c ****                         if(GetEepromBuffer()[0] == ((pjob->_ppump->_rxbuffer[0x04] & 0x0F) + 1))
 1720              		.loc 1 431 0
 1721 0bfc FFF7FEFF 		bl	GetEepromBuffer
 1722 0c00 0346     		mov	r3, r0
 1723 0c02 1B78     		ldrb	r3, [r3]	@ zero_extendqisi2
 1724 0c04 1A46     		mov	r2, r3
 1725 0c06 7B69     		ldr	r3, [r7, #20]
 1726 0c08 DB69     		ldr	r3, [r3, #28]
 1727 0c0a 93F8A431 		ldrb	r3, [r3, #420]	@ zero_extendqisi2
 1728 0c0e 03F00F03 		and	r3, r3, #15
 1729 0c12 0133     		adds	r3, r3, #1
 1730 0c14 9A42     		cmp	r2, r3
 1731 0c16 22D1     		bne	.L48
 432:.\AdvantageImpl.c ****                         {
 433:.\AdvantageImpl.c ****                             ClearEepromBuffer();
 1732              		.loc 1 433 0
 1733 0c18 FFF7FEFF 		bl	ClearEepromBuffer
ARM GAS  C:\Users\Lenovo\AppData\Local\Temp\cccA9qMw.s 			page 39


 434:.\AdvantageImpl.c ****                             //Storing the current Date/Time for this transaction
 435:.\AdvantageImpl.c ****                             memcpy(GetEepromBuffer(), GetRtcBuffer(), 0x07);
 1734              		.loc 1 435 0
 1735 0c1c FFF7FEFF 		bl	GetEepromBuffer
 1736 0c20 0446     		mov	r4, r0
 1737 0c22 FFF7FEFF 		bl	GetRtcBuffer
 1738 0c26 0346     		mov	r3, r0
 1739 0c28 2046     		mov	r0, r4
 1740 0c2a 1946     		mov	r1, r3
 1741 0c2c 0722     		movs	r2, #7
 1742 0c2e FFF7FEFF 		bl	memcpy
 436:.\AdvantageImpl.c ****                             memcpy(&GetEepromBuffer()[0x07], pjob->_ppump->_rxbuffer, pjob->_ppump-
 1743              		.loc 1 436 0
 1744 0c32 FFF7FEFF 		bl	GetEepromBuffer
 1745 0c36 0346     		mov	r3, r0
 1746 0c38 D91D     		adds	r1, r3, #7
 1747 0c3a 7B69     		ldr	r3, [r7, #20]
 1748 0c3c DB69     		ldr	r3, [r3, #28]
 1749 0c3e 03F5D072 		add	r2, r3, #416
 1750 0c42 7B69     		ldr	r3, [r7, #20]
 1751 0c44 DB69     		ldr	r3, [r3, #28]
 1752 0c46 B3F82033 		ldrh	r3, [r3, #800]
 1753 0c4a 0846     		mov	r0, r1
 1754 0c4c 1146     		mov	r1, r2
 1755 0c4e 1A46     		mov	r2, r3
 1756 0c50 FFF7FEFF 		bl	memcpy
 437:.\AdvantageImpl.c ****                             StoreEepromPage(EEPROM_DISPENSER_PUMP22_TRANSACTION_PAGE);
 1757              		.loc 1 437 0
 1758 0c54 4FF4E860 		mov	r0, #1856
 1759 0c58 FFF7FEFF 		bl	StoreEepromPage
 1760 0c5c 4AE1     		b	.L50
 1761              	.L48:
 438:.\AdvantageImpl.c ****                         }
 439:.\AdvantageImpl.c ****                         else
 440:.\AdvantageImpl.c ****                         {
 441:.\AdvantageImpl.c ****                             ClearEepromBuffer();
 1762              		.loc 1 441 0
 1763 0c5e FFF7FEFF 		bl	ClearEepromBuffer
 442:.\AdvantageImpl.c ****                             LoadEepromPage(EEPROM_DISPENSER_PUMP3_LAYOUT_PAGE);
 1764              		.loc 1 442 0
 1765 0c62 4FF42070 		mov	r0, #640
 1766 0c66 FFF7FEFF 		bl	LoadEepromPage
 443:.\AdvantageImpl.c ****                             if(GetEepromBuffer()[0] == ((pjob->_ppump->_rxbuffer[0x04] & 0x0F) + 1)
 1767              		.loc 1 443 0
 1768 0c6a FFF7FEFF 		bl	GetEepromBuffer
 1769 0c6e 0346     		mov	r3, r0
 1770 0c70 1B78     		ldrb	r3, [r3]	@ zero_extendqisi2
 1771 0c72 1A46     		mov	r2, r3
 1772 0c74 7B69     		ldr	r3, [r7, #20]
 1773 0c76 DB69     		ldr	r3, [r3, #28]
 1774 0c78 93F8A431 		ldrb	r3, [r3, #420]	@ zero_extendqisi2
 1775 0c7c 03F00F03 		and	r3, r3, #15
 1776 0c80 0133     		adds	r3, r3, #1
 1777 0c82 9A42     		cmp	r2, r3
 1778 0c84 22D1     		bne	.L49
 444:.\AdvantageImpl.c ****                             {
 445:.\AdvantageImpl.c ****                                 ClearEepromBuffer();
ARM GAS  C:\Users\Lenovo\AppData\Local\Temp\cccA9qMw.s 			page 40


 1779              		.loc 1 445 0
 1780 0c86 FFF7FEFF 		bl	ClearEepromBuffer
 446:.\AdvantageImpl.c ****                                 //Storing the current Date/Time for this transaction
 447:.\AdvantageImpl.c ****                                 memcpy(GetEepromBuffer(), GetRtcBuffer(), 0x07);
 1781              		.loc 1 447 0
 1782 0c8a FFF7FEFF 		bl	GetEepromBuffer
 1783 0c8e 0446     		mov	r4, r0
 1784 0c90 FFF7FEFF 		bl	GetRtcBuffer
 1785 0c94 0346     		mov	r3, r0
 1786 0c96 2046     		mov	r0, r4
 1787 0c98 1946     		mov	r1, r3
 1788 0c9a 0722     		movs	r2, #7
 1789 0c9c FFF7FEFF 		bl	memcpy
 448:.\AdvantageImpl.c ****                                 memcpy(&GetEepromBuffer()[0x07], pjob->_ppump->_rxbuffer, pjob->_pp
 1790              		.loc 1 448 0
 1791 0ca0 FFF7FEFF 		bl	GetEepromBuffer
 1792 0ca4 0346     		mov	r3, r0
 1793 0ca6 D91D     		adds	r1, r3, #7
 1794 0ca8 7B69     		ldr	r3, [r7, #20]
 1795 0caa DB69     		ldr	r3, [r3, #28]
 1796 0cac 03F5D072 		add	r2, r3, #416
 1797 0cb0 7B69     		ldr	r3, [r7, #20]
 1798 0cb2 DB69     		ldr	r3, [r3, #28]
 1799 0cb4 B3F82033 		ldrh	r3, [r3, #800]
 1800 0cb8 0846     		mov	r0, r1
 1801 0cba 1146     		mov	r1, r2
 1802 0cbc 1A46     		mov	r2, r3
 1803 0cbe FFF7FEFF 		bl	memcpy
 449:.\AdvantageImpl.c ****                                 StoreEepromPage(EEPROM_DISPENSER_PUMP32_TRANSACTION_PAGE);
 1804              		.loc 1 449 0
 1805 0cc2 4FF40460 		mov	r0, #2112
 1806 0cc6 FFF7FEFF 		bl	StoreEepromPage
 1807 0cca 13E1     		b	.L50
 1808              	.L49:
 450:.\AdvantageImpl.c ****                             }
 451:.\AdvantageImpl.c ****                             else
 452:.\AdvantageImpl.c ****                             {
 453:.\AdvantageImpl.c ****                                 ClearEepromBuffer();
 1809              		.loc 1 453 0
 1810 0ccc FFF7FEFF 		bl	ClearEepromBuffer
 454:.\AdvantageImpl.c ****                                 LoadEepromPage(EEPROM_DISPENSER_PUMP4_LAYOUT_PAGE);
 1811              		.loc 1 454 0
 1812 0cd0 4FF43070 		mov	r0, #704
 1813 0cd4 FFF7FEFF 		bl	LoadEepromPage
 455:.\AdvantageImpl.c ****                                 if(GetEepromBuffer()[0] == ((pjob->_ppump->_rxbuffer[0x04] & 0x0F) 
 1814              		.loc 1 455 0
 1815 0cd8 FFF7FEFF 		bl	GetEepromBuffer
 1816 0cdc 0346     		mov	r3, r0
 1817 0cde 1B78     		ldrb	r3, [r3]	@ zero_extendqisi2
 1818 0ce0 1A46     		mov	r2, r3
 1819 0ce2 7B69     		ldr	r3, [r7, #20]
 1820 0ce4 DB69     		ldr	r3, [r3, #28]
 1821 0ce6 93F8A431 		ldrb	r3, [r3, #420]	@ zero_extendqisi2
 1822 0cea 03F00F03 		and	r3, r3, #15
 1823 0cee 0133     		adds	r3, r3, #1
 1824 0cf0 9A42     		cmp	r2, r3
 1825 0cf2 40F0FF80 		bne	.L50
ARM GAS  C:\Users\Lenovo\AppData\Local\Temp\cccA9qMw.s 			page 41


 456:.\AdvantageImpl.c ****                                 {
 457:.\AdvantageImpl.c ****                                     ClearEepromBuffer();
 1826              		.loc 1 457 0
 1827 0cf6 FFF7FEFF 		bl	ClearEepromBuffer
 458:.\AdvantageImpl.c ****                                     //Storing the current Date/Time for this transaction
 459:.\AdvantageImpl.c ****                                     memcpy(GetEepromBuffer(), GetRtcBuffer(), 0x07);
 1828              		.loc 1 459 0
 1829 0cfa FFF7FEFF 		bl	GetEepromBuffer
 1830 0cfe 0446     		mov	r4, r0
 1831 0d00 FFF7FEFF 		bl	GetRtcBuffer
 1832 0d04 0346     		mov	r3, r0
 1833 0d06 2046     		mov	r0, r4
 1834 0d08 1946     		mov	r1, r3
 1835 0d0a 0722     		movs	r2, #7
 1836 0d0c FFF7FEFF 		bl	memcpy
 460:.\AdvantageImpl.c ****                                     memcpy(&GetEepromBuffer()[0x07], pjob->_ppump->_rxbuffer, pjob-
 1837              		.loc 1 460 0
 1838 0d10 FFF7FEFF 		bl	GetEepromBuffer
 1839 0d14 0346     		mov	r3, r0
 1840 0d16 D91D     		adds	r1, r3, #7
 1841 0d18 7B69     		ldr	r3, [r7, #20]
 1842 0d1a DB69     		ldr	r3, [r3, #28]
 1843 0d1c 03F5D072 		add	r2, r3, #416
 1844 0d20 7B69     		ldr	r3, [r7, #20]
 1845 0d22 DB69     		ldr	r3, [r3, #28]
 1846 0d24 B3F82033 		ldrh	r3, [r3, #800]
 1847 0d28 0846     		mov	r0, r1
 1848 0d2a 1146     		mov	r1, r2
 1849 0d2c 1A46     		mov	r2, r3
 1850 0d2e FFF7FEFF 		bl	memcpy
 461:.\AdvantageImpl.c ****                                     StoreEepromPage(EEPROM_DISPENSER_PUMP42_TRANSACTION_PAGE);
 1851              		.loc 1 461 0
 1852 0d32 4FF41460 		mov	r0, #2368
 1853 0d36 FFF7FEFF 		bl	StoreEepromPage
 1854 0d3a DBE0     		b	.L50
 1855              	.L45:
 462:.\AdvantageImpl.c ****                                 }
 463:.\AdvantageImpl.c ****                             }
 464:.\AdvantageImpl.c ****                         }
 465:.\AdvantageImpl.c ****                     }
 466:.\AdvantageImpl.c ****                 }else{//CREDIT TRANSACTION
 467:.\AdvantageImpl.c ****                     //HERE WE STORE THE LAST TRANSACTION IN EEPROM! ALWAYS THE PREVIOUS TRANSACTION
 468:.\AdvantageImpl.c ****                     //WILL BE OVERWRITTEN AND LOST.
 469:.\AdvantageImpl.c ****                     //IN CASE OF A "CREDIT SALE", THE WHOLE DATA WILL BE STORED IN A SEPARATE MEMOR
 470:.\AdvantageImpl.c ****                     //SINCE IN CASE OF A RF LINK DROP, THE STATE OF THE SALE COULD BE RECOVERED BY 
 471:.\AdvantageImpl.c ****                     LoadEepromPage(EEPROM_DISPENSER_PUMP1_LAYOUT_PAGE);
 1856              		.loc 1 471 0
 1857 0d3c 4FF40070 		mov	r0, #512
 1858 0d40 FFF7FEFF 		bl	LoadEepromPage
 472:.\AdvantageImpl.c ****                     if(GetEepromBuffer()[0] == ((pjob->_ppump->_rxbuffer[0x04] & 0x0F) + 1))
 1859              		.loc 1 472 0
 1860 0d44 FFF7FEFF 		bl	GetEepromBuffer
 1861 0d48 0346     		mov	r3, r0
 1862 0d4a 1B78     		ldrb	r3, [r3]	@ zero_extendqisi2
 1863 0d4c 1A46     		mov	r2, r3
 1864 0d4e 7B69     		ldr	r3, [r7, #20]
 1865 0d50 DB69     		ldr	r3, [r3, #28]
ARM GAS  C:\Users\Lenovo\AppData\Local\Temp\cccA9qMw.s 			page 42


 1866 0d52 93F8A431 		ldrb	r3, [r3, #420]	@ zero_extendqisi2
 1867 0d56 03F00F03 		and	r3, r3, #15
 1868 0d5a 0133     		adds	r3, r3, #1
 1869 0d5c 9A42     		cmp	r2, r3
 1870 0d5e 22D1     		bne	.L51
 473:.\AdvantageImpl.c ****                     {
 474:.\AdvantageImpl.c ****                         ClearEepromBuffer();
 1871              		.loc 1 474 0
 1872 0d60 FFF7FEFF 		bl	ClearEepromBuffer
 475:.\AdvantageImpl.c ****                         //Storing the current Date/Time for this transaction
 476:.\AdvantageImpl.c ****                         memcpy(GetEepromBuffer(), GetRtcBuffer(), 0x07);
 1873              		.loc 1 476 0
 1874 0d64 FFF7FEFF 		bl	GetEepromBuffer
 1875 0d68 0446     		mov	r4, r0
 1876 0d6a FFF7FEFF 		bl	GetRtcBuffer
 1877 0d6e 0346     		mov	r3, r0
 1878 0d70 2046     		mov	r0, r4
 1879 0d72 1946     		mov	r1, r3
 1880 0d74 0722     		movs	r2, #7
 1881 0d76 FFF7FEFF 		bl	memcpy
 477:.\AdvantageImpl.c ****                         memcpy(&GetEepromBuffer()[0x07], pjob->_ppump->_rxbuffer, pjob->_ppump->_rx
 1882              		.loc 1 477 0
 1883 0d7a FFF7FEFF 		bl	GetEepromBuffer
 1884 0d7e 0346     		mov	r3, r0
 1885 0d80 D91D     		adds	r1, r3, #7
 1886 0d82 7B69     		ldr	r3, [r7, #20]
 1887 0d84 DB69     		ldr	r3, [r3, #28]
 1888 0d86 03F5D072 		add	r2, r3, #416
 1889 0d8a 7B69     		ldr	r3, [r7, #20]
 1890 0d8c DB69     		ldr	r3, [r3, #28]
 1891 0d8e B3F82033 		ldrh	r3, [r3, #800]
 1892 0d92 0846     		mov	r0, r1
 1893 0d94 1146     		mov	r1, r2
 1894 0d96 1A46     		mov	r2, r3
 1895 0d98 FFF7FEFF 		bl	memcpy
 478:.\AdvantageImpl.c ****                         StoreEepromPage(EEPROM_DISPENSER_PUMP14_TRANSACTION_PAGE);
 1896              		.loc 1 478 0
 1897 0d9c 4FF4D860 		mov	r0, #1728
 1898 0da0 FFF7FEFF 		bl	StoreEepromPage
 1899 0da4 A6E0     		b	.L50
 1900              	.L51:
 479:.\AdvantageImpl.c ****                     }
 480:.\AdvantageImpl.c ****                     else
 481:.\AdvantageImpl.c ****                     {
 482:.\AdvantageImpl.c ****                         ClearEepromBuffer();
 1901              		.loc 1 482 0
 1902 0da6 FFF7FEFF 		bl	ClearEepromBuffer
 483:.\AdvantageImpl.c ****                         LoadEepromPage(EEPROM_DISPENSER_PUMP2_LAYOUT_PAGE);
 1903              		.loc 1 483 0
 1904 0daa 4FF41070 		mov	r0, #576
 1905 0dae FFF7FEFF 		bl	LoadEepromPage
 484:.\AdvantageImpl.c ****                         if(GetEepromBuffer()[0] == ((pjob->_ppump->_rxbuffer[0x04] & 0x0F) + 1))
 1906              		.loc 1 484 0
 1907 0db2 FFF7FEFF 		bl	GetEepromBuffer
 1908 0db6 0346     		mov	r3, r0
 1909 0db8 1B78     		ldrb	r3, [r3]	@ zero_extendqisi2
 1910 0dba 1A46     		mov	r2, r3
ARM GAS  C:\Users\Lenovo\AppData\Local\Temp\cccA9qMw.s 			page 43


 1911 0dbc 7B69     		ldr	r3, [r7, #20]
 1912 0dbe DB69     		ldr	r3, [r3, #28]
 1913 0dc0 93F8A431 		ldrb	r3, [r3, #420]	@ zero_extendqisi2
 1914 0dc4 03F00F03 		and	r3, r3, #15
 1915 0dc8 0133     		adds	r3, r3, #1
 1916 0dca 9A42     		cmp	r2, r3
 1917 0dcc 22D1     		bne	.L52
 485:.\AdvantageImpl.c ****                         {
 486:.\AdvantageImpl.c ****                             ClearEepromBuffer();
 1918              		.loc 1 486 0
 1919 0dce FFF7FEFF 		bl	ClearEepromBuffer
 487:.\AdvantageImpl.c ****                             //Storing the current Date/Time for this transaction
 488:.\AdvantageImpl.c ****                             memcpy(GetEepromBuffer(), GetRtcBuffer(), 0x07);
 1920              		.loc 1 488 0
 1921 0dd2 FFF7FEFF 		bl	GetEepromBuffer
 1922 0dd6 0446     		mov	r4, r0
 1923 0dd8 FFF7FEFF 		bl	GetRtcBuffer
 1924 0ddc 0346     		mov	r3, r0
 1925 0dde 2046     		mov	r0, r4
 1926 0de0 1946     		mov	r1, r3
 1927 0de2 0722     		movs	r2, #7
 1928 0de4 FFF7FEFF 		bl	memcpy
 489:.\AdvantageImpl.c ****                             memcpy(&GetEepromBuffer()[0x07], pjob->_ppump->_rxbuffer, pjob->_ppump-
 1929              		.loc 1 489 0
 1930 0de8 FFF7FEFF 		bl	GetEepromBuffer
 1931 0dec 0346     		mov	r3, r0
 1932 0dee D91D     		adds	r1, r3, #7
 1933 0df0 7B69     		ldr	r3, [r7, #20]
 1934 0df2 DB69     		ldr	r3, [r3, #28]
 1935 0df4 03F5D072 		add	r2, r3, #416
 1936 0df8 7B69     		ldr	r3, [r7, #20]
 1937 0dfa DB69     		ldr	r3, [r3, #28]
 1938 0dfc B3F82033 		ldrh	r3, [r3, #800]
 1939 0e00 0846     		mov	r0, r1
 1940 0e02 1146     		mov	r1, r2
 1941 0e04 1A46     		mov	r2, r3
 1942 0e06 FFF7FEFF 		bl	memcpy
 490:.\AdvantageImpl.c ****                             StoreEepromPage(EEPROM_DISPENSER_PUMP24_TRANSACTION_PAGE);
 1943              		.loc 1 490 0
 1944 0e0a 4FF4F860 		mov	r0, #1984
 1945 0e0e FFF7FEFF 		bl	StoreEepromPage
 1946 0e12 6FE0     		b	.L50
 1947              	.L52:
 491:.\AdvantageImpl.c ****                         }
 492:.\AdvantageImpl.c ****                         else
 493:.\AdvantageImpl.c ****                         {
 494:.\AdvantageImpl.c ****                             ClearEepromBuffer();
 1948              		.loc 1 494 0
 1949 0e14 FFF7FEFF 		bl	ClearEepromBuffer
 495:.\AdvantageImpl.c ****                             LoadEepromPage(EEPROM_DISPENSER_PUMP3_LAYOUT_PAGE);
 1950              		.loc 1 495 0
 1951 0e18 4FF42070 		mov	r0, #640
 1952 0e1c FFF7FEFF 		bl	LoadEepromPage
 496:.\AdvantageImpl.c ****                             if(GetEepromBuffer()[0] == ((pjob->_ppump->_rxbuffer[0x04] & 0x0F) + 1)
 1953              		.loc 1 496 0
 1954 0e20 FFF7FEFF 		bl	GetEepromBuffer
 1955 0e24 0346     		mov	r3, r0
ARM GAS  C:\Users\Lenovo\AppData\Local\Temp\cccA9qMw.s 			page 44


 1956 0e26 1B78     		ldrb	r3, [r3]	@ zero_extendqisi2
 1957 0e28 1A46     		mov	r2, r3
 1958 0e2a 7B69     		ldr	r3, [r7, #20]
 1959 0e2c DB69     		ldr	r3, [r3, #28]
 1960 0e2e 93F8A431 		ldrb	r3, [r3, #420]	@ zero_extendqisi2
 1961 0e32 03F00F03 		and	r3, r3, #15
 1962 0e36 0133     		adds	r3, r3, #1
 1963 0e38 9A42     		cmp	r2, r3
 1964 0e3a 25D1     		bne	.L53
 497:.\AdvantageImpl.c ****                             {
 498:.\AdvantageImpl.c ****                                 ClearEepromBuffer();
 1965              		.loc 1 498 0
 1966 0e3c FFF7FEFF 		bl	ClearEepromBuffer
 499:.\AdvantageImpl.c ****                                 //Storing the current Date/Time for this transaction
 500:.\AdvantageImpl.c ****                                 memcpy(GetEepromBuffer(), GetRtcBuffer(), 0x07);
 1967              		.loc 1 500 0
 1968 0e40 FFF7FEFF 		bl	GetEepromBuffer
 1969 0e44 0446     		mov	r4, r0
 1970 0e46 FFF7FEFF 		bl	GetRtcBuffer
 1971 0e4a 0346     		mov	r3, r0
 1972 0e4c 2046     		mov	r0, r4
 1973 0e4e 1946     		mov	r1, r3
 1974 0e50 0722     		movs	r2, #7
 1975 0e52 FFF7FEFF 		bl	memcpy
 501:.\AdvantageImpl.c ****                                 memcpy(&GetEepromBuffer()[0x07], pjob->_ppump->_rxbuffer, pjob->_pp
 1976              		.loc 1 501 0
 1977 0e56 FFF7FEFF 		bl	GetEepromBuffer
 1978 0e5a 0346     		mov	r3, r0
 1979 0e5c D91D     		adds	r1, r3, #7
 1980 0e5e 7B69     		ldr	r3, [r7, #20]
 1981 0e60 DB69     		ldr	r3, [r3, #28]
 1982 0e62 03F5D072 		add	r2, r3, #416
 1983 0e66 7B69     		ldr	r3, [r7, #20]
 1984 0e68 DB69     		ldr	r3, [r3, #28]
 1985 0e6a B3F82033 		ldrh	r3, [r3, #800]
 1986 0e6e 0846     		mov	r0, r1
 1987 0e70 1146     		mov	r1, r2
 1988 0e72 1A46     		mov	r2, r3
 1989 0e74 FFF7FEFF 		bl	memcpy
 502:.\AdvantageImpl.c ****                                 StoreEepromPage(EEPROM_DISPENSER_PUMP34_TRANSACTION_PAGE);
 1990              		.loc 1 502 0
 1991 0e78 4FF40C60 		mov	r0, #2240
 1992 0e7c FFF7FEFF 		bl	StoreEepromPage
 1993 0e80 38E0     		b	.L50
 1994              	.L57:
 1995 0e82 00BF     		.align	2
 1996              	.L56:
 1997 0e84 CDCCCCCC 		.word	-858993459
 1998              	.L53:
 503:.\AdvantageImpl.c ****                             }
 504:.\AdvantageImpl.c ****                             else
 505:.\AdvantageImpl.c ****                             {
 506:.\AdvantageImpl.c ****                                 ClearEepromBuffer();
 1999              		.loc 1 506 0
 2000 0e88 FFF7FEFF 		bl	ClearEepromBuffer
 507:.\AdvantageImpl.c ****                                 LoadEepromPage(EEPROM_DISPENSER_PUMP4_LAYOUT_PAGE);
 2001              		.loc 1 507 0
ARM GAS  C:\Users\Lenovo\AppData\Local\Temp\cccA9qMw.s 			page 45


 2002 0e8c 4FF43070 		mov	r0, #704
 2003 0e90 FFF7FEFF 		bl	LoadEepromPage
 508:.\AdvantageImpl.c ****                                 if(GetEepromBuffer()[0] == ((pjob->_ppump->_rxbuffer[0x04] & 0x0F) 
 2004              		.loc 1 508 0
 2005 0e94 FFF7FEFF 		bl	GetEepromBuffer
 2006 0e98 0346     		mov	r3, r0
 2007 0e9a 1B78     		ldrb	r3, [r3]	@ zero_extendqisi2
 2008 0e9c 1A46     		mov	r2, r3
 2009 0e9e 7B69     		ldr	r3, [r7, #20]
 2010 0ea0 DB69     		ldr	r3, [r3, #28]
 2011 0ea2 93F8A431 		ldrb	r3, [r3, #420]	@ zero_extendqisi2
 2012 0ea6 03F00F03 		and	r3, r3, #15
 2013 0eaa 0133     		adds	r3, r3, #1
 2014 0eac 9A42     		cmp	r2, r3
 2015 0eae 21D1     		bne	.L50
 509:.\AdvantageImpl.c ****                                 {
 510:.\AdvantageImpl.c ****                                     ClearEepromBuffer();
 2016              		.loc 1 510 0
 2017 0eb0 FFF7FEFF 		bl	ClearEepromBuffer
 511:.\AdvantageImpl.c ****                                     //Storing the current Date/Time for this transaction
 512:.\AdvantageImpl.c ****                                     memcpy(GetEepromBuffer(), GetRtcBuffer(), 0x07);
 2018              		.loc 1 512 0
 2019 0eb4 FFF7FEFF 		bl	GetEepromBuffer
 2020 0eb8 0446     		mov	r4, r0
 2021 0eba FFF7FEFF 		bl	GetRtcBuffer
 2022 0ebe 0346     		mov	r3, r0
 2023 0ec0 2046     		mov	r0, r4
 2024 0ec2 1946     		mov	r1, r3
 2025 0ec4 0722     		movs	r2, #7
 2026 0ec6 FFF7FEFF 		bl	memcpy
 513:.\AdvantageImpl.c ****                                     memcpy(&GetEepromBuffer()[0x07], pjob->_ppump->_rxbuffer, pjob-
 2027              		.loc 1 513 0
 2028 0eca FFF7FEFF 		bl	GetEepromBuffer
 2029 0ece 0346     		mov	r3, r0
 2030 0ed0 D91D     		adds	r1, r3, #7
 2031 0ed2 7B69     		ldr	r3, [r7, #20]
 2032 0ed4 DB69     		ldr	r3, [r3, #28]
 2033 0ed6 03F5D072 		add	r2, r3, #416
 2034 0eda 7B69     		ldr	r3, [r7, #20]
 2035 0edc DB69     		ldr	r3, [r3, #28]
 2036 0ede B3F82033 		ldrh	r3, [r3, #800]
 2037 0ee2 0846     		mov	r0, r1
 2038 0ee4 1146     		mov	r1, r2
 2039 0ee6 1A46     		mov	r2, r3
 2040 0ee8 FFF7FEFF 		bl	memcpy
 514:.\AdvantageImpl.c ****                                     StoreEepromPage(EEPROM_DISPENSER_PUMP44_TRANSACTION_PAGE);
 2041              		.loc 1 514 0
 2042 0eec 4FF41C60 		mov	r0, #2496
 2043 0ef0 FFF7FEFF 		bl	StoreEepromPage
 2044              	.L50:
 515:.\AdvantageImpl.c ****                                 }
 516:.\AdvantageImpl.c ****                             }
 517:.\AdvantageImpl.c ****                         }
 518:.\AdvantageImpl.c ****                     }
 519:.\AdvantageImpl.c ****                 }
 520:.\AdvantageImpl.c ****                 I2CBusUnlock();
 2045              		.loc 1 520 0
ARM GAS  C:\Users\Lenovo\AppData\Local\Temp\cccA9qMw.s 			page 46


 2046 0ef4 FFF7FEFF 		bl	I2CBusUnlock
 2047              	.L36:
 521:.\AdvantageImpl.c ****             }
 522:.\AdvantageImpl.c ****                 
 523:.\AdvantageImpl.c ****             //HERE WE ATTEMPT TO PUSH THE TRANSACTION INTO THE PUMP'S TRANSACTIONAL QUEUE.
 524:.\AdvantageImpl.c ****             //THIS IS DONE ONLY IF THERE IS ROOM IN THE QUEUE, OTHERWISE THIS STATE WON'T
 525:.\AdvantageImpl.c ****             //BE REPORTED TO THE REMOTE PEER.
 526:.\AdvantageImpl.c ****             pjob->_ppump->PumpTransQueueLock(pjob->_ppump);
 2048              		.loc 1 526 0
 2049 0ef8 7B69     		ldr	r3, [r7, #20]
 2050 0efa DB69     		ldr	r3, [r3, #28]
 2051 0efc D3F8443B 		ldr	r3, [r3, #2884]
 2052 0f00 7A69     		ldr	r2, [r7, #20]
 2053 0f02 D269     		ldr	r2, [r2, #28]
 2054 0f04 1046     		mov	r0, r2
 2055 0f06 9847     		blx	r3
 527:.\AdvantageImpl.c ****             PNEAR_PUMPTRANSACTIONALSTATEPTR pts = pjob->_ppump->PumpTransQueueAllocate(pjob->_ppump
 2056              		.loc 1 527 0
 2057 0f08 7B69     		ldr	r3, [r7, #20]
 2058 0f0a DB69     		ldr	r3, [r3, #28]
 2059 0f0c D3F8583B 		ldr	r3, [r3, #2904]
 2060 0f10 7A69     		ldr	r2, [r7, #20]
 2061 0f12 D269     		ldr	r2, [r2, #28]
 2062 0f14 1046     		mov	r0, r2
 2063 0f16 9847     		blx	r3
 2064 0f18 B860     		str	r0, [r7, #8]
 528:.\AdvantageImpl.c ****             pjob->_ppump->PumpTransQueueUnlock(pjob->_ppump);
 2065              		.loc 1 528 0
 2066 0f1a 7B69     		ldr	r3, [r7, #20]
 2067 0f1c DB69     		ldr	r3, [r3, #28]
 2068 0f1e D3F8483B 		ldr	r3, [r3, #2888]
 2069 0f22 7A69     		ldr	r2, [r7, #20]
 2070 0f24 D269     		ldr	r2, [r2, #28]
 2071 0f26 1046     		mov	r0, r2
 2072 0f28 9847     		blx	r3
 529:.\AdvantageImpl.c ****             if(pts)
 2073              		.loc 1 529 0
 2074 0f2a BB68     		ldr	r3, [r7, #8]
 2075 0f2c 002B     		cmp	r3, #0
 2076 0f2e 31D0     		beq	.L15
 530:.\AdvantageImpl.c ****             {
 531:.\AdvantageImpl.c ****                 pts->_transtate = RF_MUX_CASH_SALE_END_REPORT_RESPONSE;
 2077              		.loc 1 531 0
 2078 0f30 BB68     		ldr	r3, [r7, #8]
 2079 0f32 A422     		movs	r2, #164
 2080 0f34 5A70     		strb	r2, [r3, #1]
 532:.\AdvantageImpl.c ****                 memcpy(pts->_buffer, pjob->_ppump->_rxbuffer, pjob->_ppump->_rxbuffersize);
 2081              		.loc 1 532 0
 2082 0f36 BB68     		ldr	r3, [r7, #8]
 2083 0f38 991C     		adds	r1, r3, #2
 2084 0f3a 7B69     		ldr	r3, [r7, #20]
 2085 0f3c DB69     		ldr	r3, [r3, #28]
 2086 0f3e 03F5D072 		add	r2, r3, #416
 2087 0f42 7B69     		ldr	r3, [r7, #20]
 2088 0f44 DB69     		ldr	r3, [r3, #28]
 2089 0f46 B3F82033 		ldrh	r3, [r3, #800]
 2090 0f4a 0846     		mov	r0, r1
ARM GAS  C:\Users\Lenovo\AppData\Local\Temp\cccA9qMw.s 			page 47


 2091 0f4c 1146     		mov	r1, r2
 2092 0f4e 1A46     		mov	r2, r3
 2093 0f50 FFF7FEFF 		bl	memcpy
 533:.\AdvantageImpl.c ****                 pts->_buffersize = pjob->_ppump->_rxbuffersize;
 2094              		.loc 1 533 0
 2095 0f54 7B69     		ldr	r3, [r7, #20]
 2096 0f56 DB69     		ldr	r3, [r3, #28]
 2097 0f58 B3F82023 		ldrh	r2, [r3, #800]
 2098 0f5c BB68     		ldr	r3, [r7, #8]
 2099 0f5e A3F80221 		strh	r2, [r3, #258]	@ movhi
 534:.\AdvantageImpl.c ****                 
 535:.\AdvantageImpl.c ****                 pjob->_ppump->PumpTransQueueLock(pjob->_ppump);
 2100              		.loc 1 535 0
 2101 0f62 7B69     		ldr	r3, [r7, #20]
 2102 0f64 DB69     		ldr	r3, [r3, #28]
 2103 0f66 D3F8443B 		ldr	r3, [r3, #2884]
 2104 0f6a 7A69     		ldr	r2, [r7, #20]
 2105 0f6c D269     		ldr	r2, [r2, #28]
 2106 0f6e 1046     		mov	r0, r2
 2107 0f70 9847     		blx	r3
 536:.\AdvantageImpl.c ****                 pjob->_ppump->PumpTransQueueEnqueue(pjob->_ppump, pts);
 2108              		.loc 1 536 0
 2109 0f72 7B69     		ldr	r3, [r7, #20]
 2110 0f74 DB69     		ldr	r3, [r3, #28]
 2111 0f76 D3F8503B 		ldr	r3, [r3, #2896]
 2112 0f7a 7A69     		ldr	r2, [r7, #20]
 2113 0f7c D269     		ldr	r2, [r2, #28]
 2114 0f7e 1046     		mov	r0, r2
 2115 0f80 B968     		ldr	r1, [r7, #8]
 2116 0f82 9847     		blx	r3
 537:.\AdvantageImpl.c ****                 pjob->_ppump->PumpTransQueueUnlock(pjob->_ppump);
 2117              		.loc 1 537 0
 2118 0f84 7B69     		ldr	r3, [r7, #20]
 2119 0f86 DB69     		ldr	r3, [r3, #28]
 2120 0f88 D3F8483B 		ldr	r3, [r3, #2888]
 2121 0f8c 7A69     		ldr	r2, [r7, #20]
 2122 0f8e D269     		ldr	r2, [r2, #28]
 2123 0f90 1046     		mov	r0, r2
 2124 0f92 9847     		blx	r3
 2125              	.L15:
 2126              	.LBE3:
 538:.\AdvantageImpl.c ****             }
 539:.\AdvantageImpl.c ****             
 540:.\AdvantageImpl.c ****         }  
 541:.\AdvantageImpl.c ****     }
 542:.\AdvantageImpl.c **** }
 2127              		.loc 1 542 0
 2128 0f94 1837     		adds	r7, r7, #24
 2129              		.cfi_def_cfa_offset 16
 2130 0f96 BD46     		mov	sp, r7
 2131              		.cfi_def_cfa_register 13
 2132              		@ sp needed
 2133 0f98 B0BD     		pop	{r4, r5, r7, pc}
 2134              		.cfi_endproc
 2135              	.LFE66:
 2136              		.size	ProcessPumpTransactionData, .-ProcessPumpTransactionData
 2137 0f9a 00BF     		.section	.text.ProcessPumpTotalsDataReport,"ax",%progbits
ARM GAS  C:\Users\Lenovo\AppData\Local\Temp\cccA9qMw.s 			page 48


 2138              		.align	2
 2139              		.global	ProcessPumpTotalsDataReport
 2140              		.thumb
 2141              		.thumb_func
 2142              		.type	ProcessPumpTotalsDataReport, %function
 2143              	ProcessPumpTotalsDataReport:
 2144              	.LFB67:
 543:.\AdvantageImpl.c **** 
 544:.\AdvantageImpl.c **** //@Created By: HIJH
 545:.\AdvantageImpl.c **** //@Septembre de 2016
 546:.\AdvantageImpl.c **** void ProcessPumpTotalsDataReport(void *pparam)
 547:.\AdvantageImpl.c **** {
 2145              		.loc 1 547 0
 2146              		.cfi_startproc
 2147              		@ args = 0, pretend = 0, frame = 24
 2148              		@ frame_needed = 1, uses_anonymous_args = 0
 2149 0000 80B5     		push	{r7, lr}
 2150              		.cfi_def_cfa_offset 8
 2151              		.cfi_offset 7, -8
 2152              		.cfi_offset 14, -4
 2153 0002 86B0     		sub	sp, sp, #24
 2154              		.cfi_def_cfa_offset 32
 2155 0004 00AF     		add	r7, sp, #0
 2156              		.cfi_def_cfa_register 7
 2157 0006 7860     		str	r0, [r7, #4]
 548:.\AdvantageImpl.c ****     PPUMPTRANSACTIONJOBCONTEXTPTR pjob = (PPUMPTRANSACTIONJOBCONTEXTPTR)pparam;
 2158              		.loc 1 548 0
 2159 0008 7B68     		ldr	r3, [r7, #4]
 2160 000a 7B61     		str	r3, [r7, #20]
 549:.\AdvantageImpl.c ****     if(pjob)
 2161              		.loc 1 549 0
 2162 000c 7B69     		ldr	r3, [r7, #20]
 2163 000e 002B     		cmp	r3, #0
 2164 0010 00F0C180 		beq	.L58
 2165              	.LBB6:
 550:.\AdvantageImpl.c ****     {
 551:.\AdvantageImpl.c ****         bool dataok = true;
 2166              		.loc 1 551 0
 2167 0014 0123     		movs	r3, #1
 2168 0016 FB74     		strb	r3, [r7, #19]
 552:.\AdvantageImpl.c ****         uint8 numhoses = 0x00;
 2169              		.loc 1 552 0
 2170 0018 0023     		movs	r3, #0
 2171 001a BB74     		strb	r3, [r7, #18]
 553:.\AdvantageImpl.c ****         switch(pjob->_ppump->_pumpindex)
 2172              		.loc 1 553 0
 2173 001c 7B69     		ldr	r3, [r7, #20]
 2174 001e DB69     		ldr	r3, [r3, #28]
 2175 0020 5B78     		ldrb	r3, [r3, #1]	@ zero_extendqisi2
 2176 0022 002B     		cmp	r3, #0
 2177 0024 02D0     		beq	.L61
 2178 0026 012B     		cmp	r3, #1
 2179 0028 04D0     		beq	.L62
 2180 002a 07E0     		b	.L60
 2181              	.L61:
 554:.\AdvantageImpl.c ****         {
 555:.\AdvantageImpl.c ****             case 0x00:
ARM GAS  C:\Users\Lenovo\AppData\Local\Temp\cccA9qMw.s 			page 49


 556:.\AdvantageImpl.c ****             {
 557:.\AdvantageImpl.c ****                 numhoses = _g_dispenserlayoutinfo._hosesposition1;
 2182              		.loc 1 557 0
 2183 002c 5B4B     		ldr	r3, .L66
 2184 002e DB78     		ldrb	r3, [r3, #3]
 2185 0030 BB74     		strb	r3, [r7, #18]
 558:.\AdvantageImpl.c ****                 break;
 2186              		.loc 1 558 0
 2187 0032 03E0     		b	.L60
 2188              	.L62:
 559:.\AdvantageImpl.c ****             }
 560:.\AdvantageImpl.c ****             case 0x01:
 561:.\AdvantageImpl.c ****             {
 562:.\AdvantageImpl.c ****                 numhoses = _g_dispenserlayoutinfo._hosesposition2;
 2189              		.loc 1 562 0
 2190 0034 594B     		ldr	r3, .L66
 2191 0036 1B79     		ldrb	r3, [r3, #4]
 2192 0038 BB74     		strb	r3, [r7, #18]
 563:.\AdvantageImpl.c ****                 break;
 2193              		.loc 1 563 0
 2194 003a 00BF     		nop
 2195              	.L60:
 564:.\AdvantageImpl.c ****             }
 565:.\AdvantageImpl.c ****         }
 566:.\AdvantageImpl.c ****         
 567:.\AdvantageImpl.c ****         pjob->_reenqueue = false;
 2196              		.loc 1 567 0
 2197 003c 7B69     		ldr	r3, [r7, #20]
 2198 003e 0022     		movs	r2, #0
 2199 0040 1A70     		strb	r2, [r3]
 568:.\AdvantageImpl.c ****         
 569:.\AdvantageImpl.c ****         pjob->_ppump->PumpTransQueueLock(pjob->_ppump);
 2200              		.loc 1 569 0
 2201 0042 7B69     		ldr	r3, [r7, #20]
 2202 0044 DB69     		ldr	r3, [r3, #28]
 2203 0046 D3F8443B 		ldr	r3, [r3, #2884]
 2204 004a 7A69     		ldr	r2, [r7, #20]
 2205 004c D269     		ldr	r2, [r2, #28]
 2206 004e 1046     		mov	r0, r2
 2207 0050 9847     		blx	r3
 570:.\AdvantageImpl.c ****         bool transtatefound = pjob->_ppump->PumpTransQueueFind(pjob->_ppump, RF_MUX_TOTALS_REPORT_R
 2208              		.loc 1 570 0
 2209 0052 7B69     		ldr	r3, [r7, #20]
 2210 0054 DB69     		ldr	r3, [r3, #28]
 2211 0056 D3F84C3B 		ldr	r3, [r3, #2892]
 2212 005a 7A69     		ldr	r2, [r7, #20]
 2213 005c D269     		ldr	r2, [r2, #28]
 2214 005e 1046     		mov	r0, r2
 2215 0060 E821     		movs	r1, #232
 2216 0062 9847     		blx	r3
 2217 0064 0346     		mov	r3, r0
 2218 0066 7B74     		strb	r3, [r7, #17]
 571:.\AdvantageImpl.c ****         PNEAR_PUMPTRANSACTIONALSTATEPTR pts = pjob->_ppump->PumpTransQueueAllocate(pjob->_ppump);
 2219              		.loc 1 571 0
 2220 0068 7B69     		ldr	r3, [r7, #20]
 2221 006a DB69     		ldr	r3, [r3, #28]
 2222 006c D3F8583B 		ldr	r3, [r3, #2904]
ARM GAS  C:\Users\Lenovo\AppData\Local\Temp\cccA9qMw.s 			page 50


 2223 0070 7A69     		ldr	r2, [r7, #20]
 2224 0072 D269     		ldr	r2, [r2, #28]
 2225 0074 1046     		mov	r0, r2
 2226 0076 9847     		blx	r3
 2227 0078 F860     		str	r0, [r7, #12]
 572:.\AdvantageImpl.c ****         PNEAR_PUMPTRANSACTIONALSTATEPTR ptstemp = pjob->_ppump->PumpTransQueueAllocate(pjob->_ppump
 2228              		.loc 1 572 0
 2229 007a 7B69     		ldr	r3, [r7, #20]
 2230 007c DB69     		ldr	r3, [r3, #28]
 2231 007e D3F8583B 		ldr	r3, [r3, #2904]
 2232 0082 7A69     		ldr	r2, [r7, #20]
 2233 0084 D269     		ldr	r2, [r2, #28]
 2234 0086 1046     		mov	r0, r2
 2235 0088 9847     		blx	r3
 2236 008a B860     		str	r0, [r7, #8]
 573:.\AdvantageImpl.c ****         
 574:.\AdvantageImpl.c ****         pjob->_ppump->PumpTransQueueUnlock(pjob->_ppump);
 2237              		.loc 1 574 0
 2238 008c 7B69     		ldr	r3, [r7, #20]
 2239 008e DB69     		ldr	r3, [r3, #28]
 2240 0090 D3F8483B 		ldr	r3, [r3, #2888]
 2241 0094 7A69     		ldr	r2, [r7, #20]
 2242 0096 D269     		ldr	r2, [r2, #28]
 2243 0098 1046     		mov	r0, r2
 2244 009a 9847     		blx	r3
 575:.\AdvantageImpl.c ****         if(ptstemp)
 2245              		.loc 1 575 0
 2246 009c BB68     		ldr	r3, [r7, #8]
 2247 009e 002B     		cmp	r3, #0
 2248 00a0 68D0     		beq	.L63
 576:.\AdvantageImpl.c ****         {
 577:.\AdvantageImpl.c ****             if(pts && !transtatefound)
 2249              		.loc 1 577 0
 2250 00a2 FB68     		ldr	r3, [r7, #12]
 2251 00a4 002B     		cmp	r3, #0
 2252 00a6 41D0     		beq	.L64
 2253              		.loc 1 577 0 is_stmt 0 discriminator 1
 2254 00a8 7B7C     		ldrb	r3, [r7, #17]
 2255 00aa 83F00103 		eor	r3, r3, #1
 2256 00ae DBB2     		uxtb	r3, r3
 2257 00b0 002B     		cmp	r3, #0
 2258 00b2 3BD0     		beq	.L64
 578:.\AdvantageImpl.c ****             {
 579:.\AdvantageImpl.c ****                 pts->_transtate = RF_MUX_TOTALS_REPORT_RESPONSE;
 2259              		.loc 1 579 0 is_stmt 1
 2260 00b4 FB68     		ldr	r3, [r7, #12]
 2261 00b6 E822     		movs	r2, #232
 2262 00b8 5A70     		strb	r2, [r3, #1]
 580:.\AdvantageImpl.c ****                 
 581:.\AdvantageImpl.c ****                 memcpy(pts->_buffer, pjob->_ppump->_rxbuffer, pjob->_ppump->_rxbuffersize);
 2263              		.loc 1 581 0
 2264 00ba FB68     		ldr	r3, [r7, #12]
 2265 00bc 991C     		adds	r1, r3, #2
 2266 00be 7B69     		ldr	r3, [r7, #20]
 2267 00c0 DB69     		ldr	r3, [r3, #28]
 2268 00c2 03F5D072 		add	r2, r3, #416
 2269 00c6 7B69     		ldr	r3, [r7, #20]
ARM GAS  C:\Users\Lenovo\AppData\Local\Temp\cccA9qMw.s 			page 51


 2270 00c8 DB69     		ldr	r3, [r3, #28]
 2271 00ca B3F82033 		ldrh	r3, [r3, #800]
 2272 00ce 0846     		mov	r0, r1
 2273 00d0 1146     		mov	r1, r2
 2274 00d2 1A46     		mov	r2, r3
 2275 00d4 FFF7FEFF 		bl	memcpy
 582:.\AdvantageImpl.c ****                 pts->_buffersize = pjob->_ppump->_rxbuffersize;
 2276              		.loc 1 582 0
 2277 00d8 7B69     		ldr	r3, [r7, #20]
 2278 00da DB69     		ldr	r3, [r3, #28]
 2279 00dc B3F82023 		ldrh	r2, [r3, #800]
 2280 00e0 FB68     		ldr	r3, [r7, #12]
 2281 00e2 A3F80221 		strh	r2, [r3, #258]	@ movhi
 583:.\AdvantageImpl.c ****                 
 584:.\AdvantageImpl.c ****                 pjob->_ppump->PumpTransQueueDeallocate(pjob->_ppump,ptstemp);
 2282              		.loc 1 584 0
 2283 00e6 7B69     		ldr	r3, [r7, #20]
 2284 00e8 DB69     		ldr	r3, [r3, #28]
 2285 00ea D3F8543B 		ldr	r3, [r3, #2900]
 2286 00ee 7A69     		ldr	r2, [r7, #20]
 2287 00f0 D269     		ldr	r2, [r2, #28]
 2288 00f2 1046     		mov	r0, r2
 2289 00f4 B968     		ldr	r1, [r7, #8]
 2290 00f6 9847     		blx	r3
 585:.\AdvantageImpl.c ****                 pjob->_ppump->PumpTransQueueLock(pjob->_ppump);
 2291              		.loc 1 585 0
 2292 00f8 7B69     		ldr	r3, [r7, #20]
 2293 00fa DB69     		ldr	r3, [r3, #28]
 2294 00fc D3F8443B 		ldr	r3, [r3, #2884]
 2295 0100 7A69     		ldr	r2, [r7, #20]
 2296 0102 D269     		ldr	r2, [r2, #28]
 2297 0104 1046     		mov	r0, r2
 2298 0106 9847     		blx	r3
 586:.\AdvantageImpl.c ****                 pjob->_ppump->PumpTransQueueEnqueue(pjob->_ppump, pts);
 2299              		.loc 1 586 0
 2300 0108 7B69     		ldr	r3, [r7, #20]
 2301 010a DB69     		ldr	r3, [r3, #28]
 2302 010c D3F8503B 		ldr	r3, [r3, #2896]
 2303 0110 7A69     		ldr	r2, [r7, #20]
 2304 0112 D269     		ldr	r2, [r2, #28]
 2305 0114 1046     		mov	r0, r2
 2306 0116 F968     		ldr	r1, [r7, #12]
 2307 0118 9847     		blx	r3
 587:.\AdvantageImpl.c ****                 pjob->_ppump->PumpTransQueueUnlock(pjob->_ppump);
 2308              		.loc 1 587 0
 2309 011a 7B69     		ldr	r3, [r7, #20]
 2310 011c DB69     		ldr	r3, [r3, #28]
 2311 011e D3F8483B 		ldr	r3, [r3, #2888]
 2312 0122 7A69     		ldr	r2, [r7, #20]
 2313 0124 D269     		ldr	r2, [r2, #28]
 2314 0126 1046     		mov	r0, r2
 2315 0128 9847     		blx	r3
 2316 012a 18E0     		b	.L65
 2317              	.L64:
 588:.\AdvantageImpl.c ****             }
 589:.\AdvantageImpl.c ****             else
 590:.\AdvantageImpl.c ****             {
ARM GAS  C:\Users\Lenovo\AppData\Local\Temp\cccA9qMw.s 			page 52


 591:.\AdvantageImpl.c ****                 pjob->_ppump->PumpTransQueueLock(pjob->_ppump);
 2318              		.loc 1 591 0
 2319 012c 7B69     		ldr	r3, [r7, #20]
 2320 012e DB69     		ldr	r3, [r3, #28]
 2321 0130 D3F8443B 		ldr	r3, [r3, #2884]
 2322 0134 7A69     		ldr	r2, [r7, #20]
 2323 0136 D269     		ldr	r2, [r2, #28]
 2324 0138 1046     		mov	r0, r2
 2325 013a 9847     		blx	r3
 592:.\AdvantageImpl.c ****                 pjob->_ppump->PumpTransQueueDeallocate(pjob->_ppump, pts);
 2326              		.loc 1 592 0
 2327 013c 7B69     		ldr	r3, [r7, #20]
 2328 013e DB69     		ldr	r3, [r3, #28]
 2329 0140 D3F8543B 		ldr	r3, [r3, #2900]
 2330 0144 7A69     		ldr	r2, [r7, #20]
 2331 0146 D269     		ldr	r2, [r2, #28]
 2332 0148 1046     		mov	r0, r2
 2333 014a F968     		ldr	r1, [r7, #12]
 2334 014c 9847     		blx	r3
 593:.\AdvantageImpl.c ****                 pjob->_ppump->PumpTransQueueUnlock(pjob->_ppump);
 2335              		.loc 1 593 0
 2336 014e 7B69     		ldr	r3, [r7, #20]
 2337 0150 DB69     		ldr	r3, [r3, #28]
 2338 0152 D3F8483B 		ldr	r3, [r3, #2888]
 2339 0156 7A69     		ldr	r2, [r7, #20]
 2340 0158 D269     		ldr	r2, [r2, #28]
 2341 015a 1046     		mov	r0, r2
 2342 015c 9847     		blx	r3
 2343              	.L65:
 594:.\AdvantageImpl.c ****             }
 595:.\AdvantageImpl.c ****             memset(pjob->_ppump->_rxbuffer, 0x00, _PUMP_RX_BUFFER_SIZE_);
 2344              		.loc 1 595 0
 2345 015e 7B69     		ldr	r3, [r7, #20]
 2346 0160 DB69     		ldr	r3, [r3, #28]
 2347 0162 03F5D073 		add	r3, r3, #416
 2348 0166 1846     		mov	r0, r3
 2349 0168 0021     		movs	r1, #0
 2350 016a 4FF4C072 		mov	r2, #384
 2351 016e FFF7FEFF 		bl	memset
 2352 0172 10E0     		b	.L58
 2353              	.L63:
 596:.\AdvantageImpl.c ****         }else{
 597:.\AdvantageImpl.c ****             pjob->_ppump->PumpTransQueueDeallocate(pjob->_ppump, pts);
 2354              		.loc 1 597 0
 2355 0174 7B69     		ldr	r3, [r7, #20]
 2356 0176 DB69     		ldr	r3, [r3, #28]
 2357 0178 D3F8543B 		ldr	r3, [r3, #2900]
 2358 017c 7A69     		ldr	r2, [r7, #20]
 2359 017e D269     		ldr	r2, [r2, #28]
 2360 0180 1046     		mov	r0, r2
 2361 0182 F968     		ldr	r1, [r7, #12]
 2362 0184 9847     		blx	r3
 598:.\AdvantageImpl.c ****             pjob->_ppump->PumpTransQueueUnlock(pjob->_ppump);
 2363              		.loc 1 598 0
 2364 0186 7B69     		ldr	r3, [r7, #20]
 2365 0188 DB69     		ldr	r3, [r3, #28]
 2366 018a D3F8483B 		ldr	r3, [r3, #2888]
ARM GAS  C:\Users\Lenovo\AppData\Local\Temp\cccA9qMw.s 			page 53


 2367 018e 7A69     		ldr	r2, [r7, #20]
 2368 0190 D269     		ldr	r2, [r2, #28]
 2369 0192 1046     		mov	r0, r2
 2370 0194 9847     		blx	r3
 2371              	.L58:
 2372              	.LBE6:
 599:.\AdvantageImpl.c ****         }
 600:.\AdvantageImpl.c ****     }
 601:.\AdvantageImpl.c **** }
 2373              		.loc 1 601 0
 2374 0196 1837     		adds	r7, r7, #24
 2375              		.cfi_def_cfa_offset 8
 2376 0198 BD46     		mov	sp, r7
 2377              		.cfi_def_cfa_register 13
 2378              		@ sp needed
 2379 019a 80BD     		pop	{r7, pc}
 2380              	.L67:
 2381              		.align	2
 2382              	.L66:
 2383 019c 00000000 		.word	_g_dispenserlayoutinfo
 2384              		.cfi_endproc
 2385              	.LFE67:
 2386              		.size	ProcessPumpTotalsDataReport, .-ProcessPumpTotalsDataReport
 2387              		.section	.text.ProcessPumpTotalsDataPpuCheck,"ax",%progbits
 2388              		.align	2
 2389              		.global	ProcessPumpTotalsDataPpuCheck
 2390              		.thumb
 2391              		.thumb_func
 2392              		.type	ProcessPumpTotalsDataPpuCheck, %function
 2393              	ProcessPumpTotalsDataPpuCheck:
 2394              	.LFB68:
 602:.\AdvantageImpl.c **** 
 603:.\AdvantageImpl.c **** //@Created By: HIJH
 604:.\AdvantageImpl.c **** //@Septembre de 2016
 605:.\AdvantageImpl.c **** void ProcessPumpTotalsDataPpuCheck(void *pparam)
 606:.\AdvantageImpl.c **** {
 2395              		.loc 1 606 0
 2396              		.cfi_startproc
 2397              		@ args = 0, pretend = 0, frame = 16
 2398              		@ frame_needed = 1, uses_anonymous_args = 0
 2399 0000 80B5     		push	{r7, lr}
 2400              		.cfi_def_cfa_offset 8
 2401              		.cfi_offset 7, -8
 2402              		.cfi_offset 14, -4
 2403 0002 84B0     		sub	sp, sp, #16
 2404              		.cfi_def_cfa_offset 24
 2405 0004 00AF     		add	r7, sp, #0
 2406              		.cfi_def_cfa_register 7
 2407 0006 7860     		str	r0, [r7, #4]
 607:.\AdvantageImpl.c ****     PPUMPTRANSACTIONJOBCONTEXTPTR pjob = (PPUMPTRANSACTIONJOBCONTEXTPTR)pparam;
 2408              		.loc 1 607 0
 2409 0008 7B68     		ldr	r3, [r7, #4]
 2410 000a FB60     		str	r3, [r7, #12]
 608:.\AdvantageImpl.c ****     if(pjob)
 2411              		.loc 1 608 0
 2412 000c FB68     		ldr	r3, [r7, #12]
 2413 000e 002B     		cmp	r3, #0
ARM GAS  C:\Users\Lenovo\AppData\Local\Temp\cccA9qMw.s 			page 54


 2414 0010 09D0     		beq	.L68
 609:.\AdvantageImpl.c ****     {
 610:.\AdvantageImpl.c **** /*        
 611:.\AdvantageImpl.c ****         
 612:.\AdvantageImpl.c ****         PNEAR_PUMPTRANSACTIONALSTATEPTR pts = pjob->_ppump->PumpTransQueueAllocate(pjob->_ppump);
 613:.\AdvantageImpl.c ****         if(pts)
 614:.\AdvantageImpl.c ****         {
 615:.\AdvantageImpl.c ****             pts->_transtate = _PUMP_POSITION_TRANSREPORT_;
 616:.\AdvantageImpl.c ****             memcpy(pts->_buffer, pjob->_ppump->_rxbuffer, pjob->_ppump->_rxbuffersize);
 617:.\AdvantageImpl.c ****             pts->_buffersize = pjob->_ppump->_rxbuffersize;
 618:.\AdvantageImpl.c ****         }
 619:.\AdvantageImpl.c ****         
 620:.\AdvantageImpl.c ****         
 621:.\AdvantageImpl.c ****         uint8 var = 0;//THIS IS A DUMMY VAR TO DROP THE WARNING IF THERE IS NO ASSIGNMENT!!
 622:.\AdvantageImpl.c ****         uint8 index = 0;
 623:.\AdvantageImpl.c ****         //All indexes were taken according to the documentation
 624:.\AdvantageImpl.c ****         var = (pjob->_ppump->_rxbuffer[0x02 + _PUMP_TOTALS_BUFFER_SHIFT_*index] & 0x0F);//Hose id
 625:.\AdvantageImpl.c **** 
 626:.\AdvantageImpl.c ****         //Bytes from index 0x04 + _PUMP_TOTALS_BUFFER_SHIFT_*index to 0x0F + _PUMP_TOTALS_BUFFER_SH
 627:.\AdvantageImpl.c ****         //are the digits for the total fuel volume delivered until now on this pump
 628:.\AdvantageImpl.c ****         //Digits are in BCD format
 629:.\AdvantageImpl.c ****         var = (pjob->_ppump->_rxbuffer[0x04 + _PUMP_TOTALS_BUFFER_SHIFT_*index] & 0x0F);
 630:.\AdvantageImpl.c ****         var = (pjob->_ppump->_rxbuffer[0x05 + _PUMP_TOTALS_BUFFER_SHIFT_*index] & 0x0F);
 631:.\AdvantageImpl.c ****         var = (pjob->_ppump->_rxbuffer[0x06 + _PUMP_TOTALS_BUFFER_SHIFT_*index] & 0x0F);
 632:.\AdvantageImpl.c ****         var = (pjob->_ppump->_rxbuffer[0x07 + _PUMP_TOTALS_BUFFER_SHIFT_*index] & 0x0F);
 633:.\AdvantageImpl.c ****         var = (pjob->_ppump->_rxbuffer[0x08 + _PUMP_TOTALS_BUFFER_SHIFT_*index] & 0x0F);
 634:.\AdvantageImpl.c ****         var = (pjob->_ppump->_rxbuffer[0x09 + _PUMP_TOTALS_BUFFER_SHIFT_*index] & 0x0F);
 635:.\AdvantageImpl.c ****         var = (pjob->_ppump->_rxbuffer[0x0A + _PUMP_TOTALS_BUFFER_SHIFT_*index] & 0x0F);
 636:.\AdvantageImpl.c ****         var = (pjob->_ppump->_rxbuffer[0x0B + _PUMP_TOTALS_BUFFER_SHIFT_*index] & 0x0F);
 637:.\AdvantageImpl.c ****         var = (pjob->_ppump->_rxbuffer[0x0C + _PUMP_TOTALS_BUFFER_SHIFT_*index] & 0x0F);
 638:.\AdvantageImpl.c ****         var = (pjob->_ppump->_rxbuffer[0x0D + _PUMP_TOTALS_BUFFER_SHIFT_*index] & 0x0F);
 639:.\AdvantageImpl.c ****         var = (pjob->_ppump->_rxbuffer[0x0E + _PUMP_TOTALS_BUFFER_SHIFT_*index] & 0x0F);
 640:.\AdvantageImpl.c ****         var = (pjob->_ppump->_rxbuffer[0x0F + _PUMP_TOTALS_BUFFER_SHIFT_*index] & 0x0F);
 641:.\AdvantageImpl.c **** 
 642:.\AdvantageImpl.c ****         //Bytes from index 0x11 + _PUMP_TOTALS_BUFFER_SHIFT_*index to 0x1C + _PUMP_TOTALS_BUFFER_SH
 643:.\AdvantageImpl.c ****         //are the digits for the total money charged until now on this pump
 644:.\AdvantageImpl.c ****         //Digits are in BCD format
 645:.\AdvantageImpl.c ****         var = (pjob->_ppump->_rxbuffer[0x11 + _PUMP_TOTALS_BUFFER_SHIFT_*index] & 0x0F);
 646:.\AdvantageImpl.c ****         var = (pjob->_ppump->_rxbuffer[0x12 + _PUMP_TOTALS_BUFFER_SHIFT_*index] & 0x0F);
 647:.\AdvantageImpl.c ****         var = (pjob->_ppump->_rxbuffer[0x13 + _PUMP_TOTALS_BUFFER_SHIFT_*index] & 0x0F);
 648:.\AdvantageImpl.c ****         var = (pjob->_ppump->_rxbuffer[0x14 + _PUMP_TOTALS_BUFFER_SHIFT_*index] & 0x0F);
 649:.\AdvantageImpl.c ****         var = (pjob->_ppump->_rxbuffer[0x15 + _PUMP_TOTALS_BUFFER_SHIFT_*index] & 0x0F);
 650:.\AdvantageImpl.c ****         var = (pjob->_ppump->_rxbuffer[0x16 + _PUMP_TOTALS_BUFFER_SHIFT_*index] & 0x0F);
 651:.\AdvantageImpl.c ****         var = (pjob->_ppump->_rxbuffer[0x17 + _PUMP_TOTALS_BUFFER_SHIFT_*index] & 0x0F);
 652:.\AdvantageImpl.c ****         var = (pjob->_ppump->_rxbuffer[0x18 + _PUMP_TOTALS_BUFFER_SHIFT_*index] & 0x0F);
 653:.\AdvantageImpl.c ****         var = (pjob->_ppump->_rxbuffer[0x19 + _PUMP_TOTALS_BUFFER_SHIFT_*index] & 0x0F);
 654:.\AdvantageImpl.c ****         var = (pjob->_ppump->_rxbuffer[0x1A + _PUMP_TOTALS_BUFFER_SHIFT_*index] & 0x0F);
 655:.\AdvantageImpl.c ****         var = (pjob->_ppump->_rxbuffer[0x1B + _PUMP_TOTALS_BUFFER_SHIFT_*index] & 0x0F);
 656:.\AdvantageImpl.c ****         var = (pjob->_ppump->_rxbuffer[0x1C + _PUMP_TOTALS_BUFFER_SHIFT_*index] & 0x0F);
 657:.\AdvantageImpl.c ****         
 658:.\AdvantageImpl.c ****         //Bytes from index 0x1E + _PUMP_TOTALS_BUFFER_SHIFT_*index to 0x23 + _PUMP_TOTALS_BUFFER_SH
 659:.\AdvantageImpl.c ****         //are the digits for the reference PPU used on this pump/hose
 660:.\AdvantageImpl.c ****         //Digits are in BCD format
 661:.\AdvantageImpl.c ****         var = (pjob->_ppump->_rxbuffer[0x1E + _PUMP_TOTALS_BUFFER_SHIFT_*index] & 0x0F);
 662:.\AdvantageImpl.c ****         var = (pjob->_ppump->_rxbuffer[0x1F + _PUMP_TOTALS_BUFFER_SHIFT_*index] & 0x0F);
 663:.\AdvantageImpl.c ****         var = (pjob->_ppump->_rxbuffer[0x20 + _PUMP_TOTALS_BUFFER_SHIFT_*index] & 0x0F);
 664:.\AdvantageImpl.c ****         var = (pjob->_ppump->_rxbuffer[0x21 + _PUMP_TOTALS_BUFFER_SHIFT_*index] & 0x0F);
ARM GAS  C:\Users\Lenovo\AppData\Local\Temp\cccA9qMw.s 			page 55


 665:.\AdvantageImpl.c ****         var = (pjob->_ppump->_rxbuffer[0x22 + _PUMP_TOTALS_BUFFER_SHIFT_*index] & 0x0F);
 666:.\AdvantageImpl.c ****         var = (pjob->_ppump->_rxbuffer[0x23 + _PUMP_TOTALS_BUFFER_SHIFT_*index] & 0x0F);
 667:.\AdvantageImpl.c **** */        
 668:.\AdvantageImpl.c ****         memset(pjob->_ppump->_rxbuffer, 0x00, _PUMP_RX_BUFFER_SIZE_);
 2415              		.loc 1 668 0
 2416 0012 FB68     		ldr	r3, [r7, #12]
 2417 0014 DB69     		ldr	r3, [r3, #28]
 2418 0016 03F5D073 		add	r3, r3, #416
 2419 001a 1846     		mov	r0, r3
 2420 001c 0021     		movs	r1, #0
 2421 001e 4FF4C072 		mov	r2, #384
 2422 0022 FFF7FEFF 		bl	memset
 2423              	.L68:
 669:.\AdvantageImpl.c ****     }
 670:.\AdvantageImpl.c **** }
 2424              		.loc 1 670 0
 2425 0026 1037     		adds	r7, r7, #16
 2426              		.cfi_def_cfa_offset 8
 2427 0028 BD46     		mov	sp, r7
 2428              		.cfi_def_cfa_register 13
 2429              		@ sp needed
 2430 002a 80BD     		pop	{r7, pc}
 2431              		.cfi_endproc
 2432              	.LFE68:
 2433              		.size	ProcessPumpTotalsDataPpuCheck, .-ProcessPumpTotalsDataPpuCheck
 2434              		.section	.text.PumpJobTimeout,"ax",%progbits
 2435              		.align	2
 2436              		.global	PumpJobTimeout
 2437              		.thumb
 2438              		.thumb_func
 2439              		.type	PumpJobTimeout, %function
 2440              	PumpJobTimeout:
 2441              	.LFB69:
 671:.\AdvantageImpl.c **** 
 672:.\AdvantageImpl.c **** //@Created By: HIJH
 673:.\AdvantageImpl.c **** //@Date: Septembre de 2016
 674:.\AdvantageImpl.c **** //This must be used to notify the log registry about the timeout issue
 675:.\AdvantageImpl.c **** void PumpJobTimeout(void *pparam)
 676:.\AdvantageImpl.c **** {
 2442              		.loc 1 676 0
 2443              		.cfi_startproc
 2444              		@ args = 0, pretend = 0, frame = 16
 2445              		@ frame_needed = 1, uses_anonymous_args = 0
 2446              		@ link register save eliminated.
 2447 0000 80B4     		push	{r7}
 2448              		.cfi_def_cfa_offset 4
 2449              		.cfi_offset 7, -4
 2450 0002 85B0     		sub	sp, sp, #20
 2451              		.cfi_def_cfa_offset 24
 2452 0004 00AF     		add	r7, sp, #0
 2453              		.cfi_def_cfa_register 7
 2454 0006 7860     		str	r0, [r7, #4]
 677:.\AdvantageImpl.c ****     PPUMPTRANSACTIONJOBCONTEXTPTR pjob = (PPUMPTRANSACTIONJOBCONTEXTPTR)pparam;
 2455              		.loc 1 677 0
 2456 0008 7B68     		ldr	r3, [r7, #4]
 2457 000a FB60     		str	r3, [r7, #12]
 678:.\AdvantageImpl.c ****     if(pjob)
ARM GAS  C:\Users\Lenovo\AppData\Local\Temp\cccA9qMw.s 			page 56


 2458              		.loc 1 678 0
 2459 000c FB68     		ldr	r3, [r7, #12]
 2460 000e 002B     		cmp	r3, #0
 2461 0010 0CD0     		beq	.L70
 679:.\AdvantageImpl.c ****     {
 680:.\AdvantageImpl.c ****         //Release the Current Loop and log if possible
 681:.\AdvantageImpl.c ****         if(pjob->_retriescounter >= _MAX_RETRIES_)
 2462              		.loc 1 681 0
 2463 0012 FB68     		ldr	r3, [r7, #12]
 2464 0014 DB89     		ldrh	r3, [r3, #14]	@ movhi
 2465 0016 9BB2     		uxth	r3, r3
 2466 0018 132B     		cmp	r3, #19
 2467 001a 07D9     		bls	.L70
 682:.\AdvantageImpl.c ****         {
 683:.\AdvantageImpl.c ****             pjob->_ppump->_pumpstate = PUMP_UNKNOWN;
 2468              		.loc 1 683 0
 2469 001c FB68     		ldr	r3, [r7, #12]
 2470 001e DB69     		ldr	r3, [r3, #28]
 2471 0020 FF22     		movs	r2, #255
 2472 0022 9A70     		strb	r2, [r3, #2]
 684:.\AdvantageImpl.c ****             pjob->_ppump->_transhealth = _PUMP_FAIL_;
 2473              		.loc 1 684 0
 2474 0024 FB68     		ldr	r3, [r7, #12]
 2475 0026 DB69     		ldr	r3, [r3, #28]
 2476 0028 0222     		movs	r2, #2
 2477 002a 1A76     		strb	r2, [r3, #24]
 2478              	.L70:
 685:.\AdvantageImpl.c ****         }
 686:.\AdvantageImpl.c ****     }
 687:.\AdvantageImpl.c **** }
 2479              		.loc 1 687 0
 2480 002c 1437     		adds	r7, r7, #20
 2481              		.cfi_def_cfa_offset 4
 2482 002e BD46     		mov	sp, r7
 2483              		.cfi_def_cfa_register 13
 2484              		@ sp needed
 2485 0030 5DF8047B 		ldr	r7, [sp], #4
 2486              		.cfi_restore 7
 2487              		.cfi_def_cfa_offset 0
 2488 0034 7047     		bx	lr
 2489              		.cfi_endproc
 2490              	.LFE69:
 2491              		.size	PumpJobTimeout, .-PumpJobTimeout
 2492 0036 00BF     		.section	.text.PumpStateJobTimeout,"ax",%progbits
 2493              		.align	2
 2494              		.global	PumpStateJobTimeout
 2495              		.thumb
 2496              		.thumb_func
 2497              		.type	PumpStateJobTimeout, %function
 2498              	PumpStateJobTimeout:
 2499              	.LFB70:
 688:.\AdvantageImpl.c **** 
 689:.\AdvantageImpl.c **** //@Created By: HIJH
 690:.\AdvantageImpl.c **** //@Date: Septembre de 2016
 691:.\AdvantageImpl.c **** //This must be used to notify the log registry about the timeout issue
 692:.\AdvantageImpl.c **** void PumpStateJobTimeout(void *pparam)
 693:.\AdvantageImpl.c **** {
ARM GAS  C:\Users\Lenovo\AppData\Local\Temp\cccA9qMw.s 			page 57


 2500              		.loc 1 693 0
 2501              		.cfi_startproc
 2502              		@ args = 0, pretend = 0, frame = 16
 2503              		@ frame_needed = 1, uses_anonymous_args = 0
 2504              		@ link register save eliminated.
 2505 0000 80B4     		push	{r7}
 2506              		.cfi_def_cfa_offset 4
 2507              		.cfi_offset 7, -4
 2508 0002 85B0     		sub	sp, sp, #20
 2509              		.cfi_def_cfa_offset 24
 2510 0004 00AF     		add	r7, sp, #0
 2511              		.cfi_def_cfa_register 7
 2512 0006 7860     		str	r0, [r7, #4]
 694:.\AdvantageImpl.c ****     PPUMPTRANSACTIONJOBCONTEXTPTR pjob = (PPUMPTRANSACTIONJOBCONTEXTPTR)pparam;
 2513              		.loc 1 694 0
 2514 0008 7B68     		ldr	r3, [r7, #4]
 2515 000a FB60     		str	r3, [r7, #12]
 695:.\AdvantageImpl.c ****     if(pjob)
 2516              		.loc 1 695 0
 2517 000c FB68     		ldr	r3, [r7, #12]
 2518 000e 002B     		cmp	r3, #0
 2519 0010 0CD0     		beq	.L72
 696:.\AdvantageImpl.c ****     {
 697:.\AdvantageImpl.c ****         //Release the Current Loop and log if possible
 698:.\AdvantageImpl.c ****         if(pjob->_retriescounter >= _MAX_RETRIES_)
 2520              		.loc 1 698 0
 2521 0012 FB68     		ldr	r3, [r7, #12]
 2522 0014 DB89     		ldrh	r3, [r3, #14]	@ movhi
 2523 0016 9BB2     		uxth	r3, r3
 2524 0018 132B     		cmp	r3, #19
 2525 001a 07D9     		bls	.L72
 699:.\AdvantageImpl.c ****         {
 700:.\AdvantageImpl.c ****             pjob->_ppump->_pumpstate = PUMP_UNKNOWN;
 2526              		.loc 1 700 0
 2527 001c FB68     		ldr	r3, [r7, #12]
 2528 001e DB69     		ldr	r3, [r3, #28]
 2529 0020 FF22     		movs	r2, #255
 2530 0022 9A70     		strb	r2, [r3, #2]
 701:.\AdvantageImpl.c ****             pjob->_ppump->_transhealth = _PUMP_FAIL_;
 2531              		.loc 1 701 0
 2532 0024 FB68     		ldr	r3, [r7, #12]
 2533 0026 DB69     		ldr	r3, [r3, #28]
 2534 0028 0222     		movs	r2, #2
 2535 002a 1A76     		strb	r2, [r3, #24]
 2536              	.L72:
 702:.\AdvantageImpl.c ****         }
 703:.\AdvantageImpl.c ****     }
 704:.\AdvantageImpl.c **** }
 2537              		.loc 1 704 0
 2538 002c 1437     		adds	r7, r7, #20
 2539              		.cfi_def_cfa_offset 4
 2540 002e BD46     		mov	sp, r7
 2541              		.cfi_def_cfa_register 13
 2542              		@ sp needed
 2543 0030 5DF8047B 		ldr	r7, [sp], #4
 2544              		.cfi_restore 7
 2545              		.cfi_def_cfa_offset 0
ARM GAS  C:\Users\Lenovo\AppData\Local\Temp\cccA9qMw.s 			page 58


 2546 0034 7047     		bx	lr
 2547              		.cfi_endproc
 2548              	.LFE70:
 2549              		.size	PumpStateJobTimeout, .-PumpStateJobTimeout
 2550 0036 00BF     		.section	.text.PumpAuthorization,"ax",%progbits
 2551              		.align	2
 2552              		.global	PumpAuthorization
 2553              		.thumb
 2554              		.thumb_func
 2555              		.type	PumpAuthorization, %function
 2556              	PumpAuthorization:
 2557              	.LFB71:
 705:.\AdvantageImpl.c **** 
 706:.\AdvantageImpl.c **** ///////////////////////////////////////////////////////////////////////////////////////////////////
 707:.\AdvantageImpl.c **** //////////////////////                 BLOCK OF AVAILABLE REQUEST HANDLERS
 708:.\AdvantageImpl.c **** ///////////////////////////////////////////////////////////////////////////////////////////////////
 709:.\AdvantageImpl.c **** 
 710:.\AdvantageImpl.c **** //@Created By: HIJH
 711:.\AdvantageImpl.c **** //@Date: Septembre de 2016
 712:.\AdvantageImpl.c **** //Sends the authorization request to the pump. This is a single byte command with no response
 713:.\AdvantageImpl.c **** void PumpAuthorization(void *pparam)
 714:.\AdvantageImpl.c **** {
 2558              		.loc 1 714 0
 2559              		.cfi_startproc
 2560              		@ args = 0, pretend = 0, frame = 24
 2561              		@ frame_needed = 1, uses_anonymous_args = 0
 2562 0000 80B5     		push	{r7, lr}
 2563              		.cfi_def_cfa_offset 8
 2564              		.cfi_offset 7, -8
 2565              		.cfi_offset 14, -4
 2566 0002 86B0     		sub	sp, sp, #24
 2567              		.cfi_def_cfa_offset 32
 2568 0004 00AF     		add	r7, sp, #0
 2569              		.cfi_def_cfa_register 7
 2570 0006 7860     		str	r0, [r7, #4]
 715:.\AdvantageImpl.c ****     PNEAR_PUMPPTR ppump = (PNEAR_PUMPPTR)pparam;
 2571              		.loc 1 715 0
 2572 0008 7B68     		ldr	r3, [r7, #4]
 2573 000a 7B61     		str	r3, [r7, #20]
 716:.\AdvantageImpl.c ****     if(ppump)
 2574              		.loc 1 716 0
 2575 000c 7B69     		ldr	r3, [r7, #20]
 2576 000e 002B     		cmp	r3, #0
 2577 0010 34D0     		beq	.L74
 2578              	.LBB7:
 717:.\AdvantageImpl.c ****     {
 718:.\AdvantageImpl.c **** 
 719:.\AdvantageImpl.c ****         if(!ppump->_presetdone)
 2579              		.loc 1 719 0
 2580 0012 7B69     		ldr	r3, [r7, #20]
 2581 0014 1B7A     		ldrb	r3, [r3, #8]
 2582 0016 DBB2     		uxtb	r3, r3
 2583 0018 83F00103 		eor	r3, r3, #1
 2584 001c DBB2     		uxtb	r3, r3
 2585 001e 002B     		cmp	r3, #0
 2586 0020 00D0     		beq	.L76
 720:.\AdvantageImpl.c ****             return;
ARM GAS  C:\Users\Lenovo\AppData\Local\Temp\cccA9qMw.s 			page 59


 2587              		.loc 1 720 0
 2588 0022 2BE0     		b	.L74
 2589              	.L76:
 721:.\AdvantageImpl.c **** 
 722:.\AdvantageImpl.c ****         uint8_t index = 0;
 2590              		.loc 1 722 0
 2591 0024 0023     		movs	r3, #0
 2592 0026 FB74     		strb	r3, [r7, #19]
 723:.\AdvantageImpl.c ****         memset(ppump->_rxbuffer, 0x00, _PUMP_RX_BUFFER_SIZE_);
 2593              		.loc 1 723 0
 2594 0028 7B69     		ldr	r3, [r7, #20]
 2595 002a 03F5D073 		add	r3, r3, #416
 2596 002e 1846     		mov	r0, r3
 2597 0030 0021     		movs	r1, #0
 2598 0032 4FF4C072 		mov	r2, #384
 2599 0036 FFF7FEFF 		bl	memset
 724:.\AdvantageImpl.c ****         PUARTMESSAGEPTR puartdisp = GetUARTMessageSlot(UART_DISPENSER);
 2600              		.loc 1 724 0
 2601 003a A220     		movs	r0, #162
 2602 003c FFF7FEFF 		bl	GetUARTMessageSlot
 2603 0040 F860     		str	r0, [r7, #12]
 725:.\AdvantageImpl.c ****         if(puartdisp)
 2604              		.loc 1 725 0
 2605 0042 FB68     		ldr	r3, [r7, #12]
 2606 0044 002B     		cmp	r3, #0
 2607 0046 19D0     		beq	.L74
 726:.\AdvantageImpl.c ****         {
 727:.\AdvantageImpl.c ****             //Just one byte for the response
 728:.\AdvantageImpl.c ****             puartdisp->_messagetx[index++] = PUMP_COMMAND(PUMP_AUTHORIZATION, ppump->_pumpid);
 2608              		.loc 1 728 0
 2609 0048 FB7C     		ldrb	r3, [r7, #19]	@ zero_extendqisi2
 2610 004a 5A1C     		adds	r2, r3, #1
 2611 004c FA74     		strb	r2, [r7, #19]
 2612 004e 1946     		mov	r1, r3
 2613 0050 7B69     		ldr	r3, [r7, #20]
 2614 0052 1B78     		ldrb	r3, [r3]	@ zero_extendqisi2
 2615 0054 DBB2     		uxtb	r3, r3
 2616 0056 03F00F03 		and	r3, r3, #15
 2617 005a DBB2     		uxtb	r3, r3
 2618 005c 43F01003 		orr	r3, r3, #16
 2619 0060 DBB2     		uxtb	r3, r3
 2620 0062 DAB2     		uxtb	r2, r3
 2621 0064 FB68     		ldr	r3, [r7, #12]
 2622 0066 0B44     		add	r3, r3, r1
 2623 0068 1A71     		strb	r2, [r3, #4]
 729:.\AdvantageImpl.c ****             puartdisp->_messagelength = 1;//One byte
 2624              		.loc 1 729 0
 2625 006a FB68     		ldr	r3, [r7, #12]
 2626 006c 0122     		movs	r2, #1
 2627 006e 5A80     		strh	r2, [r3, #2]	@ movhi
 730:.\AdvantageImpl.c ****             puartdisp->_messagestate = PENDING;
 2628              		.loc 1 730 0
 2629 0070 FB68     		ldr	r3, [r7, #12]
 2630 0072 C222     		movs	r2, #194
 2631 0074 1A70     		strb	r2, [r3]
 731:.\AdvantageImpl.c ****          
 732:.\AdvantageImpl.c ****             ppump->_authorized = true;
ARM GAS  C:\Users\Lenovo\AppData\Local\Temp\cccA9qMw.s 			page 60


 2632              		.loc 1 732 0
 2633 0076 7B69     		ldr	r3, [r7, #20]
 2634 0078 0122     		movs	r2, #1
 2635 007a 9A71     		strb	r2, [r3, #6]
 2636              	.L74:
 2637              	.LBE7:
 733:.\AdvantageImpl.c ****         }        
 734:.\AdvantageImpl.c ****     }
 735:.\AdvantageImpl.c **** }
 2638              		.loc 1 735 0
 2639 007c 1837     		adds	r7, r7, #24
 2640              		.cfi_def_cfa_offset 8
 2641 007e BD46     		mov	sp, r7
 2642              		.cfi_def_cfa_register 13
 2643              		@ sp needed
 2644 0080 80BD     		pop	{r7, pc}
 2645              		.cfi_endproc
 2646              	.LFE71:
 2647              		.size	PumpAuthorization, .-PumpAuthorization
 2648 0082 00BF     		.section	.text.PumpStartupAuthorization,"ax",%progbits
 2649              		.align	2
 2650              		.global	PumpStartupAuthorization
 2651              		.thumb
 2652              		.thumb_func
 2653              		.type	PumpStartupAuthorization, %function
 2654              	PumpStartupAuthorization:
 2655              	.LFB72:
 736:.\AdvantageImpl.c **** 
 737:.\AdvantageImpl.c **** //@Created By: HIJH
 738:.\AdvantageImpl.c **** //@Date: Septembre de 2016
 739:.\AdvantageImpl.c **** //Sends the authorization request to the pump. This is a single byte command with no response
 740:.\AdvantageImpl.c **** void PumpStartupAuthorization(void *pparam)
 741:.\AdvantageImpl.c **** {
 2656              		.loc 1 741 0
 2657              		.cfi_startproc
 2658              		@ args = 0, pretend = 0, frame = 24
 2659              		@ frame_needed = 1, uses_anonymous_args = 0
 2660 0000 80B5     		push	{r7, lr}
 2661              		.cfi_def_cfa_offset 8
 2662              		.cfi_offset 7, -8
 2663              		.cfi_offset 14, -4
 2664 0002 86B0     		sub	sp, sp, #24
 2665              		.cfi_def_cfa_offset 32
 2666 0004 00AF     		add	r7, sp, #0
 2667              		.cfi_def_cfa_register 7
 2668 0006 7860     		str	r0, [r7, #4]
 742:.\AdvantageImpl.c ****     PNEAR_PUMPPTR ppump = (PNEAR_PUMPPTR)pparam;
 2669              		.loc 1 742 0
 2670 0008 7B68     		ldr	r3, [r7, #4]
 2671 000a 7B61     		str	r3, [r7, #20]
 743:.\AdvantageImpl.c ****     if(ppump)
 2672              		.loc 1 743 0
 2673 000c 7B69     		ldr	r3, [r7, #20]
 2674 000e 002B     		cmp	r3, #0
 2675 0010 2BD0     		beq	.L77
 2676              	.LBB8:
 744:.\AdvantageImpl.c ****     {                
ARM GAS  C:\Users\Lenovo\AppData\Local\Temp\cccA9qMw.s 			page 61


 745:.\AdvantageImpl.c ****         uint8_t index = 0;
 2677              		.loc 1 745 0
 2678 0012 0023     		movs	r3, #0
 2679 0014 FB74     		strb	r3, [r7, #19]
 746:.\AdvantageImpl.c ****         memset(ppump->_rxbuffer, 0x00, _PUMP_RX_BUFFER_SIZE_);
 2680              		.loc 1 746 0
 2681 0016 7B69     		ldr	r3, [r7, #20]
 2682 0018 03F5D073 		add	r3, r3, #416
 2683 001c 1846     		mov	r0, r3
 2684 001e 0021     		movs	r1, #0
 2685 0020 4FF4C072 		mov	r2, #384
 2686 0024 FFF7FEFF 		bl	memset
 747:.\AdvantageImpl.c ****         PUARTMESSAGEPTR puartdisp = GetUARTMessageSlot(UART_DISPENSER);
 2687              		.loc 1 747 0
 2688 0028 A220     		movs	r0, #162
 2689 002a FFF7FEFF 		bl	GetUARTMessageSlot
 2690 002e F860     		str	r0, [r7, #12]
 748:.\AdvantageImpl.c ****         if(puartdisp)
 2691              		.loc 1 748 0
 2692 0030 FB68     		ldr	r3, [r7, #12]
 2693 0032 002B     		cmp	r3, #0
 2694 0034 16D0     		beq	.L79
 749:.\AdvantageImpl.c ****         {
 750:.\AdvantageImpl.c ****             //Just one byte for the response
 751:.\AdvantageImpl.c ****             puartdisp->_messagetx[index++] = PUMP_COMMAND(PUMP_AUTHORIZATION, ppump->_pumpid);
 2695              		.loc 1 751 0
 2696 0036 FB7C     		ldrb	r3, [r7, #19]	@ zero_extendqisi2
 2697 0038 5A1C     		adds	r2, r3, #1
 2698 003a FA74     		strb	r2, [r7, #19]
 2699 003c 1946     		mov	r1, r3
 2700 003e 7B69     		ldr	r3, [r7, #20]
 2701 0040 1B78     		ldrb	r3, [r3]	@ zero_extendqisi2
 2702 0042 DBB2     		uxtb	r3, r3
 2703 0044 03F00F03 		and	r3, r3, #15
 2704 0048 DBB2     		uxtb	r3, r3
 2705 004a 43F01003 		orr	r3, r3, #16
 2706 004e DBB2     		uxtb	r3, r3
 2707 0050 DAB2     		uxtb	r2, r3
 2708 0052 FB68     		ldr	r3, [r7, #12]
 2709 0054 0B44     		add	r3, r3, r1
 2710 0056 1A71     		strb	r2, [r3, #4]
 752:.\AdvantageImpl.c ****             puartdisp->_messagelength = 1;//One byte
 2711              		.loc 1 752 0
 2712 0058 FB68     		ldr	r3, [r7, #12]
 2713 005a 0122     		movs	r2, #1
 2714 005c 5A80     		strh	r2, [r3, #2]	@ movhi
 753:.\AdvantageImpl.c ****             puartdisp->_messagestate = PENDING;
 2715              		.loc 1 753 0
 2716 005e FB68     		ldr	r3, [r7, #12]
 2717 0060 C222     		movs	r2, #194
 2718 0062 1A70     		strb	r2, [r3]
 2719              	.L79:
 754:.\AdvantageImpl.c ****             
 755:.\AdvantageImpl.c ****         }
 756:.\AdvantageImpl.c ****         CyDelay(100);
 2720              		.loc 1 756 0
 2721 0064 6420     		movs	r0, #100
ARM GAS  C:\Users\Lenovo\AppData\Local\Temp\cccA9qMw.s 			page 62


 2722 0066 FFF7FEFF 		bl	CyDelay
 2723              	.L77:
 2724              	.LBE8:
 757:.\AdvantageImpl.c ****     }
 758:.\AdvantageImpl.c **** }
 2725              		.loc 1 758 0
 2726 006a 1837     		adds	r7, r7, #24
 2727              		.cfi_def_cfa_offset 8
 2728 006c BD46     		mov	sp, r7
 2729              		.cfi_def_cfa_register 13
 2730              		@ sp needed
 2731 006e 80BD     		pop	{r7, pc}
 2732              		.cfi_endproc
 2733              	.LFE72:
 2734              		.size	PumpStartupAuthorization, .-PumpStartupAuthorization
 2735              		.section	.text.PumpStateRequest,"ax",%progbits
 2736              		.align	2
 2737              		.global	PumpStateRequest
 2738              		.thumb
 2739              		.thumb_func
 2740              		.type	PumpStateRequest, %function
 2741              	PumpStateRequest:
 2742              	.LFB73:
 759:.\AdvantageImpl.c **** 
 760:.\AdvantageImpl.c **** //@Created By: HIJH
 761:.\AdvantageImpl.c **** //@Date: Septembre de 2016
 762:.\AdvantageImpl.c **** //Sends the state request to the pump. This is a single byte command with one byte of response
 763:.\AdvantageImpl.c **** void PumpStateRequest(void *pparam)
 764:.\AdvantageImpl.c **** {
 2743              		.loc 1 764 0
 2744              		.cfi_startproc
 2745              		@ args = 0, pretend = 0, frame = 24
 2746              		@ frame_needed = 1, uses_anonymous_args = 0
 2747 0000 80B5     		push	{r7, lr}
 2748              		.cfi_def_cfa_offset 8
 2749              		.cfi_offset 7, -8
 2750              		.cfi_offset 14, -4
 2751 0002 86B0     		sub	sp, sp, #24
 2752              		.cfi_def_cfa_offset 32
 2753 0004 00AF     		add	r7, sp, #0
 2754              		.cfi_def_cfa_register 7
 2755 0006 7860     		str	r0, [r7, #4]
 765:.\AdvantageImpl.c ****     PNEAR_PUMPPTR ppump = (PNEAR_PUMPPTR)pparam;
 2756              		.loc 1 765 0
 2757 0008 7B68     		ldr	r3, [r7, #4]
 2758 000a 7B61     		str	r3, [r7, #20]
 766:.\AdvantageImpl.c ****     if(ppump)
 2759              		.loc 1 766 0
 2760 000c 7B69     		ldr	r3, [r7, #20]
 2761 000e 002B     		cmp	r3, #0
 2762 0010 23D0     		beq	.L80
 2763              	.LBB9:
 767:.\AdvantageImpl.c ****     {
 768:.\AdvantageImpl.c ****         uint8_t index = 0;
 2764              		.loc 1 768 0
 2765 0012 0023     		movs	r3, #0
 2766 0014 FB74     		strb	r3, [r7, #19]
ARM GAS  C:\Users\Lenovo\AppData\Local\Temp\cccA9qMw.s 			page 63


 769:.\AdvantageImpl.c ****         memset(ppump->_rxbuffer, 0x00, _PUMP_RX_BUFFER_SIZE_);
 2767              		.loc 1 769 0
 2768 0016 7B69     		ldr	r3, [r7, #20]
 2769 0018 03F5D073 		add	r3, r3, #416
 2770 001c 1846     		mov	r0, r3
 2771 001e 0021     		movs	r1, #0
 2772 0020 4FF4C072 		mov	r2, #384
 2773 0024 FFF7FEFF 		bl	memset
 770:.\AdvantageImpl.c ****         PUARTMESSAGEPTR puartdisp = GetUARTMessageSlot(UART_DISPENSER);
 2774              		.loc 1 770 0
 2775 0028 A220     		movs	r0, #162
 2776 002a FFF7FEFF 		bl	GetUARTMessageSlot
 2777 002e F860     		str	r0, [r7, #12]
 771:.\AdvantageImpl.c ****         if(puartdisp)
 2778              		.loc 1 771 0
 2779 0030 FB68     		ldr	r3, [r7, #12]
 2780 0032 002B     		cmp	r3, #0
 2781 0034 11D0     		beq	.L80
 772:.\AdvantageImpl.c ****         {
 773:.\AdvantageImpl.c ****             puartdisp->_messagetx[index++] = PUMP_COMMAND(PUMP_STATE_REQUEST, ppump->_pumpid);
 2782              		.loc 1 773 0
 2783 0036 FB7C     		ldrb	r3, [r7, #19]	@ zero_extendqisi2
 2784 0038 5A1C     		adds	r2, r3, #1
 2785 003a FA74     		strb	r2, [r7, #19]
 2786 003c 1946     		mov	r1, r3
 2787 003e 7B69     		ldr	r3, [r7, #20]
 2788 0040 1B78     		ldrb	r3, [r3]	@ zero_extendqisi2
 2789 0042 03F00F03 		and	r3, r3, #15
 2790 0046 DAB2     		uxtb	r2, r3
 2791 0048 FB68     		ldr	r3, [r7, #12]
 2792 004a 0B44     		add	r3, r3, r1
 2793 004c 1A71     		strb	r2, [r3, #4]
 774:.\AdvantageImpl.c ****             puartdisp->_messagelength = 1;//One byte
 2794              		.loc 1 774 0
 2795 004e FB68     		ldr	r3, [r7, #12]
 2796 0050 0122     		movs	r2, #1
 2797 0052 5A80     		strh	r2, [r3, #2]	@ movhi
 775:.\AdvantageImpl.c ****             puartdisp->_messagestate = PENDING;
 2798              		.loc 1 775 0
 2799 0054 FB68     		ldr	r3, [r7, #12]
 2800 0056 C222     		movs	r2, #194
 2801 0058 1A70     		strb	r2, [r3]
 2802              	.L80:
 2803              	.LBE9:
 776:.\AdvantageImpl.c ****         }
 777:.\AdvantageImpl.c ****     }
 778:.\AdvantageImpl.c **** }
 2804              		.loc 1 778 0
 2805 005a 1837     		adds	r7, r7, #24
 2806              		.cfi_def_cfa_offset 8
 2807 005c BD46     		mov	sp, r7
 2808              		.cfi_def_cfa_register 13
 2809              		@ sp needed
 2810 005e 80BD     		pop	{r7, pc}
 2811              		.cfi_endproc
 2812              	.LFE73:
 2813              		.size	PumpStateRequest, .-PumpStateRequest
ARM GAS  C:\Users\Lenovo\AppData\Local\Temp\cccA9qMw.s 			page 64


 2814              		.section	.text.PumpRTMoneyRequest,"ax",%progbits
 2815              		.align	2
 2816              		.global	PumpRTMoneyRequest
 2817              		.thumb
 2818              		.thumb_func
 2819              		.type	PumpRTMoneyRequest, %function
 2820              	PumpRTMoneyRequest:
 2821              	.LFB74:
 779:.\AdvantageImpl.c **** 
 780:.\AdvantageImpl.c **** //@Created By: HIJH
 781:.\AdvantageImpl.c **** //@Date: Septembre de 2016
 782:.\AdvantageImpl.c **** void PumpRTMoneyRequest(void *pparam)
 783:.\AdvantageImpl.c **** {
 2822              		.loc 1 783 0
 2823              		.cfi_startproc
 2824              		@ args = 0, pretend = 0, frame = 24
 2825              		@ frame_needed = 1, uses_anonymous_args = 0
 2826 0000 80B5     		push	{r7, lr}
 2827              		.cfi_def_cfa_offset 8
 2828              		.cfi_offset 7, -8
 2829              		.cfi_offset 14, -4
 2830 0002 86B0     		sub	sp, sp, #24
 2831              		.cfi_def_cfa_offset 32
 2832 0004 00AF     		add	r7, sp, #0
 2833              		.cfi_def_cfa_register 7
 2834 0006 7860     		str	r0, [r7, #4]
 784:.\AdvantageImpl.c ****     PNEAR_PUMPPTR ppump = (PNEAR_PUMPPTR)pparam;
 2835              		.loc 1 784 0
 2836 0008 7B68     		ldr	r3, [r7, #4]
 2837 000a 7B61     		str	r3, [r7, #20]
 785:.\AdvantageImpl.c ****     if(ppump)
 2838              		.loc 1 785 0
 2839 000c 7B69     		ldr	r3, [r7, #20]
 2840 000e 002B     		cmp	r3, #0
 2841 0010 28D0     		beq	.L82
 2842              	.LBB10:
 786:.\AdvantageImpl.c ****     {
 787:.\AdvantageImpl.c ****         uint8_t index = 0;
 2843              		.loc 1 787 0
 2844 0012 0023     		movs	r3, #0
 2845 0014 FB74     		strb	r3, [r7, #19]
 788:.\AdvantageImpl.c ****         memset(ppump->_rxbuffer, 0x00, _PUMP_RX_BUFFER_SIZE_);
 2846              		.loc 1 788 0
 2847 0016 7B69     		ldr	r3, [r7, #20]
 2848 0018 03F5D073 		add	r3, r3, #416
 2849 001c 1846     		mov	r0, r3
 2850 001e 0021     		movs	r1, #0
 2851 0020 4FF4C072 		mov	r2, #384
 2852 0024 FFF7FEFF 		bl	memset
 789:.\AdvantageImpl.c ****         PUARTMESSAGEPTR puartdisp = GetUARTMessageSlot(UART_DISPENSER);
 2853              		.loc 1 789 0
 2854 0028 A220     		movs	r0, #162
 2855 002a FFF7FEFF 		bl	GetUARTMessageSlot
 2856 002e F860     		str	r0, [r7, #12]
 790:.\AdvantageImpl.c ****         if(puartdisp)
 2857              		.loc 1 790 0
 2858 0030 FB68     		ldr	r3, [r7, #12]
ARM GAS  C:\Users\Lenovo\AppData\Local\Temp\cccA9qMw.s 			page 65


 2859 0032 002B     		cmp	r3, #0
 2860 0034 16D0     		beq	.L82
 791:.\AdvantageImpl.c ****         {
 792:.\AdvantageImpl.c ****             puartdisp->_messagetx[index++] = PUMP_COMMAND(PUMP_REAL_TIME_MONEY_REQUEST, ppump->_pum
 2861              		.loc 1 792 0
 2862 0036 FB7C     		ldrb	r3, [r7, #19]	@ zero_extendqisi2
 2863 0038 5A1C     		adds	r2, r3, #1
 2864 003a FA74     		strb	r2, [r7, #19]
 2865 003c 1946     		mov	r1, r3
 2866 003e 7B69     		ldr	r3, [r7, #20]
 2867 0040 1B78     		ldrb	r3, [r3]	@ zero_extendqisi2
 2868 0042 DBB2     		uxtb	r3, r3
 2869 0044 03F00F03 		and	r3, r3, #15
 2870 0048 DBB2     		uxtb	r3, r3
 2871 004a 43F06003 		orr	r3, r3, #96
 2872 004e DBB2     		uxtb	r3, r3
 2873 0050 DAB2     		uxtb	r2, r3
 2874 0052 FB68     		ldr	r3, [r7, #12]
 2875 0054 0B44     		add	r3, r3, r1
 2876 0056 1A71     		strb	r2, [r3, #4]
 793:.\AdvantageImpl.c ****             puartdisp->_messagelength = 1;//One byte
 2877              		.loc 1 793 0
 2878 0058 FB68     		ldr	r3, [r7, #12]
 2879 005a 0122     		movs	r2, #1
 2880 005c 5A80     		strh	r2, [r3, #2]	@ movhi
 794:.\AdvantageImpl.c ****             puartdisp->_messagestate = PENDING;
 2881              		.loc 1 794 0
 2882 005e FB68     		ldr	r3, [r7, #12]
 2883 0060 C222     		movs	r2, #194
 2884 0062 1A70     		strb	r2, [r3]
 2885              	.L82:
 2886              	.LBE10:
 795:.\AdvantageImpl.c ****         }
 796:.\AdvantageImpl.c ****     }
 797:.\AdvantageImpl.c **** }
 2887              		.loc 1 797 0
 2888 0064 1837     		adds	r7, r7, #24
 2889              		.cfi_def_cfa_offset 8
 2890 0066 BD46     		mov	sp, r7
 2891              		.cfi_def_cfa_register 13
 2892              		@ sp needed
 2893 0068 80BD     		pop	{r7, pc}
 2894              		.cfi_endproc
 2895              	.LFE74:
 2896              		.size	PumpRTMoneyRequest, .-PumpRTMoneyRequest
 2897 006a 00BF     		.section	.text.PumpTransactionDataRequest,"ax",%progbits
 2898              		.align	2
 2899              		.global	PumpTransactionDataRequest
 2900              		.thumb
 2901              		.thumb_func
 2902              		.type	PumpTransactionDataRequest, %function
 2903              	PumpTransactionDataRequest:
 2904              	.LFB75:
 798:.\AdvantageImpl.c **** 
 799:.\AdvantageImpl.c **** //@Created By: HIJH
 800:.\AdvantageImpl.c **** //@Date: Septembre de 2016
 801:.\AdvantageImpl.c **** //Requests the last transaction data to the pump. This is a single byte command with a fixed length
ARM GAS  C:\Users\Lenovo\AppData\Local\Temp\cccA9qMw.s 			page 66


 802:.\AdvantageImpl.c **** void PumpTransactionDataRequest(void *pparam)
 803:.\AdvantageImpl.c **** {
 2905              		.loc 1 803 0
 2906              		.cfi_startproc
 2907              		@ args = 0, pretend = 0, frame = 24
 2908              		@ frame_needed = 1, uses_anonymous_args = 0
 2909 0000 80B5     		push	{r7, lr}
 2910              		.cfi_def_cfa_offset 8
 2911              		.cfi_offset 7, -8
 2912              		.cfi_offset 14, -4
 2913 0002 86B0     		sub	sp, sp, #24
 2914              		.cfi_def_cfa_offset 32
 2915 0004 00AF     		add	r7, sp, #0
 2916              		.cfi_def_cfa_register 7
 2917 0006 7860     		str	r0, [r7, #4]
 804:.\AdvantageImpl.c ****     PNEAR_PUMPPTR ppump = (PNEAR_PUMPPTR)pparam;
 2918              		.loc 1 804 0
 2919 0008 7B68     		ldr	r3, [r7, #4]
 2920 000a 7B61     		str	r3, [r7, #20]
 805:.\AdvantageImpl.c ****     if(ppump)
 2921              		.loc 1 805 0
 2922 000c 7B69     		ldr	r3, [r7, #20]
 2923 000e 002B     		cmp	r3, #0
 2924 0010 28D0     		beq	.L84
 2925              	.LBB11:
 806:.\AdvantageImpl.c ****     {        
 807:.\AdvantageImpl.c ****         uint8_t index = 0;
 2926              		.loc 1 807 0
 2927 0012 0023     		movs	r3, #0
 2928 0014 FB74     		strb	r3, [r7, #19]
 808:.\AdvantageImpl.c ****         memset(ppump->_rxbuffer, 0x00, _PUMP_RX_BUFFER_SIZE_);
 2929              		.loc 1 808 0
 2930 0016 7B69     		ldr	r3, [r7, #20]
 2931 0018 03F5D073 		add	r3, r3, #416
 2932 001c 1846     		mov	r0, r3
 2933 001e 0021     		movs	r1, #0
 2934 0020 4FF4C072 		mov	r2, #384
 2935 0024 FFF7FEFF 		bl	memset
 809:.\AdvantageImpl.c ****         PUARTMESSAGEPTR puartdisp = GetUARTMessageSlot(UART_DISPENSER);
 2936              		.loc 1 809 0
 2937 0028 A220     		movs	r0, #162
 2938 002a FFF7FEFF 		bl	GetUARTMessageSlot
 2939 002e F860     		str	r0, [r7, #12]
 810:.\AdvantageImpl.c ****         if(puartdisp)
 2940              		.loc 1 810 0
 2941 0030 FB68     		ldr	r3, [r7, #12]
 2942 0032 002B     		cmp	r3, #0
 2943 0034 16D0     		beq	.L84
 811:.\AdvantageImpl.c ****         {
 812:.\AdvantageImpl.c ****             puartdisp->_messagetx[index++] = PUMP_COMMAND(PUMP_TRANSACTION_DATA_REQUEST, ppump->_pu
 2944              		.loc 1 812 0
 2945 0036 FB7C     		ldrb	r3, [r7, #19]	@ zero_extendqisi2
 2946 0038 5A1C     		adds	r2, r3, #1
 2947 003a FA74     		strb	r2, [r7, #19]
 2948 003c 1946     		mov	r1, r3
 2949 003e 7B69     		ldr	r3, [r7, #20]
 2950 0040 1B78     		ldrb	r3, [r3]	@ zero_extendqisi2
ARM GAS  C:\Users\Lenovo\AppData\Local\Temp\cccA9qMw.s 			page 67


 2951 0042 DBB2     		uxtb	r3, r3
 2952 0044 03F00F03 		and	r3, r3, #15
 2953 0048 DBB2     		uxtb	r3, r3
 2954 004a 43F04003 		orr	r3, r3, #64
 2955 004e DBB2     		uxtb	r3, r3
 2956 0050 DAB2     		uxtb	r2, r3
 2957 0052 FB68     		ldr	r3, [r7, #12]
 2958 0054 0B44     		add	r3, r3, r1
 2959 0056 1A71     		strb	r2, [r3, #4]
 813:.\AdvantageImpl.c ****             puartdisp->_messagelength = 1;//One byte
 2960              		.loc 1 813 0
 2961 0058 FB68     		ldr	r3, [r7, #12]
 2962 005a 0122     		movs	r2, #1
 2963 005c 5A80     		strh	r2, [r3, #2]	@ movhi
 814:.\AdvantageImpl.c ****             puartdisp->_messagestate = PENDING;
 2964              		.loc 1 814 0
 2965 005e FB68     		ldr	r3, [r7, #12]
 2966 0060 C222     		movs	r2, #194
 2967 0062 1A70     		strb	r2, [r3]
 2968              	.L84:
 2969              	.LBE11:
 815:.\AdvantageImpl.c ****         }
 816:.\AdvantageImpl.c ****     }
 817:.\AdvantageImpl.c **** }
 2970              		.loc 1 817 0
 2971 0064 1837     		adds	r7, r7, #24
 2972              		.cfi_def_cfa_offset 8
 2973 0066 BD46     		mov	sp, r7
 2974              		.cfi_def_cfa_register 13
 2975              		@ sp needed
 2976 0068 80BD     		pop	{r7, pc}
 2977              		.cfi_endproc
 2978              	.LFE75:
 2979              		.size	PumpTransactionDataRequest, .-PumpTransactionDataRequest
 2980 006a 00BF     		.section	.text.PumpTotalsDataRequest,"ax",%progbits
 2981              		.align	2
 2982              		.global	PumpTotalsDataRequest
 2983              		.thumb
 2984              		.thumb_func
 2985              		.type	PumpTotalsDataRequest, %function
 2986              	PumpTotalsDataRequest:
 2987              	.LFB76:
 818:.\AdvantageImpl.c **** 
 819:.\AdvantageImpl.c **** //@Created By: HIJH
 820:.\AdvantageImpl.c **** //@Date: Septembre de 2016
 821:.\AdvantageImpl.c **** //Requests the report of totals for the current pump. This is a single byte command with a variable
 822:.\AdvantageImpl.c **** //that depends on the number of available hoses.
 823:.\AdvantageImpl.c **** void PumpTotalsDataRequest(void *pparam)
 824:.\AdvantageImpl.c **** {
 2988              		.loc 1 824 0
 2989              		.cfi_startproc
 2990              		@ args = 0, pretend = 0, frame = 24
 2991              		@ frame_needed = 1, uses_anonymous_args = 0
 2992 0000 80B5     		push	{r7, lr}
 2993              		.cfi_def_cfa_offset 8
 2994              		.cfi_offset 7, -8
 2995              		.cfi_offset 14, -4
ARM GAS  C:\Users\Lenovo\AppData\Local\Temp\cccA9qMw.s 			page 68


 2996 0002 86B0     		sub	sp, sp, #24
 2997              		.cfi_def_cfa_offset 32
 2998 0004 00AF     		add	r7, sp, #0
 2999              		.cfi_def_cfa_register 7
 3000 0006 7860     		str	r0, [r7, #4]
 825:.\AdvantageImpl.c ****     PNEAR_PUMPPTR ppump = (PNEAR_PUMPPTR)pparam;
 3001              		.loc 1 825 0
 3002 0008 7B68     		ldr	r3, [r7, #4]
 3003 000a 7B61     		str	r3, [r7, #20]
 826:.\AdvantageImpl.c ****     if(ppump)
 3004              		.loc 1 826 0
 3005 000c 7B69     		ldr	r3, [r7, #20]
 3006 000e 002B     		cmp	r3, #0
 3007 0010 28D0     		beq	.L86
 3008              	.LBB12:
 827:.\AdvantageImpl.c ****     {        
 828:.\AdvantageImpl.c ****         uint8_t index = 0;
 3009              		.loc 1 828 0
 3010 0012 0023     		movs	r3, #0
 3011 0014 FB74     		strb	r3, [r7, #19]
 829:.\AdvantageImpl.c ****         memset(ppump->_rxbuffer, 0x00, _PUMP_RX_BUFFER_SIZE_);
 3012              		.loc 1 829 0
 3013 0016 7B69     		ldr	r3, [r7, #20]
 3014 0018 03F5D073 		add	r3, r3, #416
 3015 001c 1846     		mov	r0, r3
 3016 001e 0021     		movs	r1, #0
 3017 0020 4FF4C072 		mov	r2, #384
 3018 0024 FFF7FEFF 		bl	memset
 830:.\AdvantageImpl.c ****         PUARTMESSAGEPTR puartdisp = GetUARTMessageSlot(UART_DISPENSER);
 3019              		.loc 1 830 0
 3020 0028 A220     		movs	r0, #162
 3021 002a FFF7FEFF 		bl	GetUARTMessageSlot
 3022 002e F860     		str	r0, [r7, #12]
 831:.\AdvantageImpl.c ****         if(puartdisp)
 3023              		.loc 1 831 0
 3024 0030 FB68     		ldr	r3, [r7, #12]
 3025 0032 002B     		cmp	r3, #0
 3026 0034 16D0     		beq	.L86
 832:.\AdvantageImpl.c ****         {
 833:.\AdvantageImpl.c ****             puartdisp->_messagetx[index++] = PUMP_COMMAND(PUMP_TOTALS_DATA_REQUEST, ppump->_pumpid)
 3027              		.loc 1 833 0
 3028 0036 FB7C     		ldrb	r3, [r7, #19]	@ zero_extendqisi2
 3029 0038 5A1C     		adds	r2, r3, #1
 3030 003a FA74     		strb	r2, [r7, #19]
 3031 003c 1946     		mov	r1, r3
 3032 003e 7B69     		ldr	r3, [r7, #20]
 3033 0040 1B78     		ldrb	r3, [r3]	@ zero_extendqisi2
 3034 0042 DBB2     		uxtb	r3, r3
 3035 0044 03F00F03 		and	r3, r3, #15
 3036 0048 DBB2     		uxtb	r3, r3
 3037 004a 43F05003 		orr	r3, r3, #80
 3038 004e DBB2     		uxtb	r3, r3
 3039 0050 DAB2     		uxtb	r2, r3
 3040 0052 FB68     		ldr	r3, [r7, #12]
 3041 0054 0B44     		add	r3, r3, r1
 3042 0056 1A71     		strb	r2, [r3, #4]
 834:.\AdvantageImpl.c ****             puartdisp->_messagelength = 1;//One byte
ARM GAS  C:\Users\Lenovo\AppData\Local\Temp\cccA9qMw.s 			page 69


 3043              		.loc 1 834 0
 3044 0058 FB68     		ldr	r3, [r7, #12]
 3045 005a 0122     		movs	r2, #1
 3046 005c 5A80     		strh	r2, [r3, #2]	@ movhi
 835:.\AdvantageImpl.c ****             puartdisp->_messagestate = PENDING;
 3047              		.loc 1 835 0
 3048 005e FB68     		ldr	r3, [r7, #12]
 3049 0060 C222     		movs	r2, #194
 3050 0062 1A70     		strb	r2, [r3]
 3051              	.L86:
 3052              	.LBE12:
 836:.\AdvantageImpl.c ****         }
 837:.\AdvantageImpl.c ****     }
 838:.\AdvantageImpl.c **** }
 3053              		.loc 1 838 0
 3054 0064 1837     		adds	r7, r7, #24
 3055              		.cfi_def_cfa_offset 8
 3056 0066 BD46     		mov	sp, r7
 3057              		.cfi_def_cfa_register 13
 3058              		@ sp needed
 3059 0068 80BD     		pop	{r7, pc}
 3060              		.cfi_endproc
 3061              	.LFE76:
 3062              		.size	PumpTotalsDataRequest, .-PumpTotalsDataRequest
 3063 006a 00BF     		.section	.text.PumpDataToPump,"ax",%progbits
 3064              		.align	2
 3065              		.global	PumpDataToPump
 3066              		.thumb
 3067              		.thumb_func
 3068              		.type	PumpDataToPump, %function
 3069              	PumpDataToPump:
 3070              	.LFB77:
 839:.\AdvantageImpl.c **** 
 840:.\AdvantageImpl.c **** //@Created By: HIJH
 841:.\AdvantageImpl.c **** //@Date: Septembre de 2016
 842:.\AdvantageImpl.c **** //Requests the pump to enter in "SEND DATA" mode. This is a single byte command with a special one 
 843:.\AdvantageImpl.c **** //that indicates that the pump is ready to receive data.
 844:.\AdvantageImpl.c **** void PumpDataToPump(void *pparam)
 845:.\AdvantageImpl.c **** {
 3071              		.loc 1 845 0
 3072              		.cfi_startproc
 3073              		@ args = 0, pretend = 0, frame = 24
 3074              		@ frame_needed = 1, uses_anonymous_args = 0
 3075 0000 80B5     		push	{r7, lr}
 3076              		.cfi_def_cfa_offset 8
 3077              		.cfi_offset 7, -8
 3078              		.cfi_offset 14, -4
 3079 0002 86B0     		sub	sp, sp, #24
 3080              		.cfi_def_cfa_offset 32
 3081 0004 00AF     		add	r7, sp, #0
 3082              		.cfi_def_cfa_register 7
 3083 0006 7860     		str	r0, [r7, #4]
 846:.\AdvantageImpl.c ****     PNEAR_PUMPPTR ppump = (PNEAR_PUMPPTR)pparam;
 3084              		.loc 1 846 0
 3085 0008 7B68     		ldr	r3, [r7, #4]
 3086 000a 7B61     		str	r3, [r7, #20]
 847:.\AdvantageImpl.c ****     if(ppump)
ARM GAS  C:\Users\Lenovo\AppData\Local\Temp\cccA9qMw.s 			page 70


 3087              		.loc 1 847 0
 3088 000c 7B69     		ldr	r3, [r7, #20]
 3089 000e 002B     		cmp	r3, #0
 3090 0010 28D0     		beq	.L88
 3091              	.LBB13:
 848:.\AdvantageImpl.c ****     {
 849:.\AdvantageImpl.c ****         uint8_t index = 0;        
 3092              		.loc 1 849 0
 3093 0012 0023     		movs	r3, #0
 3094 0014 FB74     		strb	r3, [r7, #19]
 850:.\AdvantageImpl.c ****         memset(ppump->_rxbuffer, 0x00, _PUMP_RX_BUFFER_SIZE_);
 3095              		.loc 1 850 0
 3096 0016 7B69     		ldr	r3, [r7, #20]
 3097 0018 03F5D073 		add	r3, r3, #416
 3098 001c 1846     		mov	r0, r3
 3099 001e 0021     		movs	r1, #0
 3100 0020 4FF4C072 		mov	r2, #384
 3101 0024 FFF7FEFF 		bl	memset
 851:.\AdvantageImpl.c ****         PUARTMESSAGEPTR puartdisp = GetUARTMessageSlot(UART_DISPENSER);
 3102              		.loc 1 851 0
 3103 0028 A220     		movs	r0, #162
 3104 002a FFF7FEFF 		bl	GetUARTMessageSlot
 3105 002e F860     		str	r0, [r7, #12]
 852:.\AdvantageImpl.c ****         if(puartdisp)
 3106              		.loc 1 852 0
 3107 0030 FB68     		ldr	r3, [r7, #12]
 3108 0032 002B     		cmp	r3, #0
 3109 0034 16D0     		beq	.L88
 853:.\AdvantageImpl.c ****         {
 854:.\AdvantageImpl.c ****             puartdisp->_messagetx[index++] = PUMP_COMMAND(PUMP_DATA_TO_PUMP, ppump->_pumpid);
 3110              		.loc 1 854 0
 3111 0036 FB7C     		ldrb	r3, [r7, #19]	@ zero_extendqisi2
 3112 0038 5A1C     		adds	r2, r3, #1
 3113 003a FA74     		strb	r2, [r7, #19]
 3114 003c 1946     		mov	r1, r3
 3115 003e 7B69     		ldr	r3, [r7, #20]
 3116 0040 1B78     		ldrb	r3, [r3]	@ zero_extendqisi2
 3117 0042 DBB2     		uxtb	r3, r3
 3118 0044 03F00F03 		and	r3, r3, #15
 3119 0048 DBB2     		uxtb	r3, r3
 3120 004a 43F02003 		orr	r3, r3, #32
 3121 004e DBB2     		uxtb	r3, r3
 3122 0050 DAB2     		uxtb	r2, r3
 3123 0052 FB68     		ldr	r3, [r7, #12]
 3124 0054 0B44     		add	r3, r3, r1
 3125 0056 1A71     		strb	r2, [r3, #4]
 855:.\AdvantageImpl.c ****             puartdisp->_messagelength = 1;//One byte
 3126              		.loc 1 855 0
 3127 0058 FB68     		ldr	r3, [r7, #12]
 3128 005a 0122     		movs	r2, #1
 3129 005c 5A80     		strh	r2, [r3, #2]	@ movhi
 856:.\AdvantageImpl.c ****             puartdisp->_messagestate = PENDING;
 3130              		.loc 1 856 0
 3131 005e FB68     		ldr	r3, [r7, #12]
 3132 0060 C222     		movs	r2, #194
 3133 0062 1A70     		strb	r2, [r3]
 3134              	.L88:
ARM GAS  C:\Users\Lenovo\AppData\Local\Temp\cccA9qMw.s 			page 71


 3135              	.LBE13:
 857:.\AdvantageImpl.c ****         }
 858:.\AdvantageImpl.c ****     }
 859:.\AdvantageImpl.c **** }
 3136              		.loc 1 859 0
 3137 0064 1837     		adds	r7, r7, #24
 3138              		.cfi_def_cfa_offset 8
 3139 0066 BD46     		mov	sp, r7
 3140              		.cfi_def_cfa_register 13
 3141              		@ sp needed
 3142 0068 80BD     		pop	{r7, pc}
 3143              		.cfi_endproc
 3144              	.LFE77:
 3145              		.size	PumpDataToPump, .-PumpDataToPump
 3146 006a 00BF     		.section	.text.PumpCreditPresetHose,"ax",%progbits
 3147              		.align	2
 3148              		.global	PumpCreditPresetHose
 3149              		.thumb
 3150              		.thumb_func
 3151              		.type	PumpCreditPresetHose, %function
 3152              	PumpCreditPresetHose:
 3153              	.LFB78:
 860:.\AdvantageImpl.c **** 
 861:.\AdvantageImpl.c **** 
 862:.\AdvantageImpl.c **** //@Created By: HIJH
 863:.\AdvantageImpl.c **** //@Septembre de 2016
 864:.\AdvantageImpl.c **** ///////////////////////////////////////////////////////////////////////////////////////////////////
 865:.\AdvantageImpl.c **** //This preset is a convention that applies to "Credit Transactions"
 866:.\AdvantageImpl.c **** //The pump will hold all the necessary information for the preset.
 867:.\AdvantageImpl.c **** //For this message the data comes as follows:
 868:.\AdvantageImpl.c **** void PumpCreditPresetHose(void *pparam)
 869:.\AdvantageImpl.c **** {
 3154              		.loc 1 869 0
 3155              		.cfi_startproc
 3156              		@ args = 0, pretend = 0, frame = 40
 3157              		@ frame_needed = 1, uses_anonymous_args = 0
 3158 0000 90B5     		push	{r4, r7, lr}
 3159              		.cfi_def_cfa_offset 12
 3160              		.cfi_offset 4, -12
 3161              		.cfi_offset 7, -8
 3162              		.cfi_offset 14, -4
 3163 0002 8BB0     		sub	sp, sp, #44
 3164              		.cfi_def_cfa_offset 56
 3165 0004 00AF     		add	r7, sp, #0
 3166              		.cfi_def_cfa_register 7
 3167 0006 7860     		str	r0, [r7, #4]
 870:.\AdvantageImpl.c ****     PNEAR_PUMPPTR ppump = (PNEAR_PUMPPTR)pparam;
 3168              		.loc 1 870 0
 3169 0008 7B68     		ldr	r3, [r7, #4]
 3170 000a 3B62     		str	r3, [r7, #32]
 871:.\AdvantageImpl.c ****     if(ppump)
 3171              		.loc 1 871 0
 3172 000c 3B6A     		ldr	r3, [r7, #32]
 3173 000e 002B     		cmp	r3, #0
 3174 0010 00F0C881 		beq	.L90
 3175              	.LBB14:
 872:.\AdvantageImpl.c ****     {
ARM GAS  C:\Users\Lenovo\AppData\Local\Temp\cccA9qMw.s 			page 72


 873:.\AdvantageImpl.c ****         uint8_t index = 0;        
 3176              		.loc 1 873 0
 3177 0014 0023     		movs	r3, #0
 3178 0016 87F82730 		strb	r3, [r7, #39]
 874:.\AdvantageImpl.c ****         PUARTMESSAGEPTR puartdisp = GetUARTMessageSlot(UART_DISPENSER);
 3179              		.loc 1 874 0
 3180 001a A220     		movs	r0, #162
 3181 001c FFF7FEFF 		bl	GetUARTMessageSlot
 3182 0020 F861     		str	r0, [r7, #28]
 875:.\AdvantageImpl.c ****         memset(ppump->_rxbuffer, 0x00, _PUMP_RX_BUFFER_SIZE_);
 3183              		.loc 1 875 0
 3184 0022 3B6A     		ldr	r3, [r7, #32]
 3185 0024 03F5D073 		add	r3, r3, #416
 3186 0028 1846     		mov	r0, r3
 3187 002a 0021     		movs	r1, #0
 3188 002c 4FF4C072 		mov	r2, #384
 3189 0030 FFF7FEFF 		bl	memset
 876:.\AdvantageImpl.c ****         if(puartdisp)
 3190              		.loc 1 876 0
 3191 0034 FB69     		ldr	r3, [r7, #28]
 3192 0036 002B     		cmp	r3, #0
 3193 0038 00F0B481 		beq	.L90
 877:.\AdvantageImpl.c ****         {
 878:.\AdvantageImpl.c **** ///////////////////////////////////////////////////////////////////////////////////////////////////
 879:.\AdvantageImpl.c ****             puartdisp->_messagetx[index++] = SOM;
 3194              		.loc 1 879 0
 3195 003c 97F82730 		ldrb	r3, [r7, #39]	@ zero_extendqisi2
 3196 0040 5A1C     		adds	r2, r3, #1
 3197 0042 87F82720 		strb	r2, [r7, #39]
 3198 0046 1A46     		mov	r2, r3
 3199 0048 FB69     		ldr	r3, [r7, #28]
 3200 004a 1344     		add	r3, r3, r2
 3201 004c FF22     		movs	r2, #255
 3202 004e 1A71     		strb	r2, [r3, #4]
 880:.\AdvantageImpl.c ****             if(_g_dispenserlayoutinfo._displaydigitsmode == 0x06)
 3203              		.loc 1 880 0
 3204 0050 AC4B     		ldr	r3, .L113
 3205 0052 1B7C     		ldrb	r3, [r3, #16]	@ zero_extendqisi2
 3206 0054 062B     		cmp	r3, #6
 3207 0056 40F0D580 		bne	.L92
 3208              	.LBB15:
 881:.\AdvantageImpl.c ****             {
 882:.\AdvantageImpl.c ****                 uint8 transtype = ((0xF0 | ppump->_authorizationinfo._presettype) == 0xF1)? 0xF2: 0
 3209              		.loc 1 882 0
 3210 005a 3B6A     		ldr	r3, [r7, #32]
 3211 005c 93F8A93B 		ldrb	r3, [r3, #2985]
 3212 0060 DBB2     		uxtb	r3, r3
 3213 0062 63F00F03 		orn	r3, r3, #15
 3214 0066 DBB2     		uxtb	r3, r3
 3215 0068 F12B     		cmp	r3, #241
 3216 006a 01D1     		bne	.L93
 3217              		.loc 1 882 0 is_stmt 0 discriminator 1
 3218 006c F223     		movs	r3, #242
 3219 006e 00E0     		b	.L94
 3220              	.L93:
 3221              		.loc 1 882 0 discriminator 2
 3222 0070 F123     		movs	r3, #241
ARM GAS  C:\Users\Lenovo\AppData\Local\Temp\cccA9qMw.s 			page 73


 3223              	.L94:
 3224              		.loc 1 882 0 discriminator 4
 3225 0072 FB76     		strb	r3, [r7, #27]
 883:.\AdvantageImpl.c ****                 if(transtype == 0xF1)
 3226              		.loc 1 883 0 is_stmt 1 discriminator 4
 3227 0074 FB7E     		ldrb	r3, [r7, #27]	@ zero_extendqisi2
 3228 0076 F12B     		cmp	r3, #241
 3229 0078 0AD1     		bne	.L95
 884:.\AdvantageImpl.c ****                     puartdisp->_messagetx[index++] = 0xE3;
 3230              		.loc 1 884 0
 3231 007a 97F82730 		ldrb	r3, [r7, #39]	@ zero_extendqisi2
 3232 007e 5A1C     		adds	r2, r3, #1
 3233 0080 87F82720 		strb	r2, [r7, #39]
 3234 0084 1A46     		mov	r2, r3
 3235 0086 FB69     		ldr	r3, [r7, #28]
 3236 0088 1344     		add	r3, r3, r2
 3237 008a E322     		movs	r2, #227
 3238 008c 1A71     		strb	r2, [r3, #4]
 3239 008e 09E0     		b	.L96
 3240              	.L95:
 885:.\AdvantageImpl.c ****                 else
 886:.\AdvantageImpl.c ****                     puartdisp->_messagetx[index++] = 0xE2;
 3241              		.loc 1 886 0
 3242 0090 97F82730 		ldrb	r3, [r7, #39]	@ zero_extendqisi2
 3243 0094 5A1C     		adds	r2, r3, #1
 3244 0096 87F82720 		strb	r2, [r7, #39]
 3245 009a 1A46     		mov	r2, r3
 3246 009c FB69     		ldr	r3, [r7, #28]
 3247 009e 1344     		add	r3, r3, r2
 3248 00a0 E222     		movs	r2, #226
 3249 00a2 1A71     		strb	r2, [r3, #4]
 3250              	.L96:
 887:.\AdvantageImpl.c ****                     
 888:.\AdvantageImpl.c ****                 ///THIS IS AN APPLIED CONVENTION ===>> 0x0004 INDEX POSITION WITHIN THE PUMP'S BUFF
 889:.\AdvantageImpl.c ****                 ///THESE CODES MUST BE MATCHED OTHERWISE THE LOGIC WILL BREAKUP THE CODE!
 890:.\AdvantageImpl.c ****                 puartdisp->_messagetx[index++] = transtype;
 3251              		.loc 1 890 0
 3252 00a4 97F82730 		ldrb	r3, [r7, #39]	@ zero_extendqisi2
 3253 00a8 5A1C     		adds	r2, r3, #1
 3254 00aa 87F82720 		strb	r2, [r7, #39]
 3255 00ae 1A46     		mov	r2, r3
 3256 00b0 FB69     		ldr	r3, [r7, #28]
 3257 00b2 1344     		add	r3, r3, r2
 3258 00b4 FA7E     		ldrb	r2, [r7, #27]
 3259 00b6 1A71     		strb	r2, [r3, #4]
 891:.\AdvantageImpl.c ****                 puartdisp->_messagetx[index++] = 0xF4;
 3260              		.loc 1 891 0
 3261 00b8 97F82730 		ldrb	r3, [r7, #39]	@ zero_extendqisi2
 3262 00bc 5A1C     		adds	r2, r3, #1
 3263 00be 87F82720 		strb	r2, [r7, #39]
 3264 00c2 1A46     		mov	r2, r3
 3265 00c4 FB69     		ldr	r3, [r7, #28]
 3266 00c6 1344     		add	r3, r3, r2
 3267 00c8 F422     		movs	r2, #244
 3268 00ca 1A71     		strb	r2, [r3, #4]
 892:.\AdvantageImpl.c ****                 puartdisp->_messagetx[index++] = 0xF6; //Hose Data next
 3269              		.loc 1 892 0
ARM GAS  C:\Users\Lenovo\AppData\Local\Temp\cccA9qMw.s 			page 74


 3270 00cc 97F82730 		ldrb	r3, [r7, #39]	@ zero_extendqisi2
 3271 00d0 5A1C     		adds	r2, r3, #1
 3272 00d2 87F82720 		strb	r2, [r7, #39]
 3273 00d6 1A46     		mov	r2, r3
 3274 00d8 FB69     		ldr	r3, [r7, #28]
 3275 00da 1344     		add	r3, r3, r2
 3276 00dc F622     		movs	r2, #246
 3277 00de 1A71     		strb	r2, [r3, #4]
 893:.\AdvantageImpl.c ****                 ///THIS IS AN APPLIED CONVENTION ===>> 0x0006 INDEX POSITION WITHIN THE PUMP'S BUFF
 894:.\AdvantageImpl.c ****                 ///THESE CODES MUST BE MATCHED OTHERWISE THE LOGIC WILL BREAKUP THE CODE!
 895:.\AdvantageImpl.c ****                 puartdisp->_messagetx[index++] = (0xE0 | (ppump->_authorizationinfo._hoseid & 0x0F)
 3278              		.loc 1 895 0
 3279 00e0 97F82730 		ldrb	r3, [r7, #39]	@ zero_extendqisi2
 3280 00e4 5A1C     		adds	r2, r3, #1
 3281 00e6 87F82720 		strb	r2, [r7, #39]
 3282 00ea 1946     		mov	r1, r3
 3283 00ec 3B6A     		ldr	r3, [r7, #32]
 3284 00ee 93F8AA3B 		ldrb	r3, [r3, #2986]
 3285 00f2 DBB2     		uxtb	r3, r3
 3286 00f4 DBB2     		uxtb	r3, r3
 3287 00f6 03F00F03 		and	r3, r3, #15
 3288 00fa DBB2     		uxtb	r3, r3
 3289 00fc 63F01F03 		orn	r3, r3, #31
 3290 0100 DBB2     		uxtb	r3, r3
 3291 0102 DAB2     		uxtb	r2, r3
 3292 0104 FB69     		ldr	r3, [r7, #28]
 3293 0106 0B44     		add	r3, r3, r1
 3294 0108 1A71     		strb	r2, [r3, #4]
 896:.\AdvantageImpl.c ****                 
 897:.\AdvantageImpl.c ****                 puartdisp->_messagetx[index++] = 0xF8; //Preset Data next
 3295              		.loc 1 897 0
 3296 010a 97F82730 		ldrb	r3, [r7, #39]	@ zero_extendqisi2
 3297 010e 5A1C     		adds	r2, r3, #1
 3298 0110 87F82720 		strb	r2, [r7, #39]
 3299 0114 1A46     		mov	r2, r3
 3300 0116 FB69     		ldr	r3, [r7, #28]
 3301 0118 1344     		add	r3, r3, r2
 3302 011a F822     		movs	r2, #248
 3303 011c 1A71     		strb	r2, [r3, #4]
 898:.\AdvantageImpl.c ****                 //Here we copy the remaining 8 bytes for the preset value
 899:.\AdvantageImpl.c ****                 ///THIS IS AN APPLIED CONVENTION ===>> 0x0008 INDEX POSITION WITHIN THE PUMP'S BUFF
 900:.\AdvantageImpl.c ****                 ///THESE CODES MUST BE MATCHED OTHERWISE THE LOGIC WILL BREAKUP THE CODE!
 901:.\AdvantageImpl.c ****                 memset(PBYTECAST(&ppump->_trasactionbuffer[0x0008]),0x00, 0x0008);
 3304              		.loc 1 901 0
 3305 011e 3B6A     		ldr	r3, [r7, #32]
 3306 0120 2833     		adds	r3, r3, #40
 3307 0122 1846     		mov	r0, r3
 3308 0124 0021     		movs	r1, #0
 3309 0126 0822     		movs	r2, #8
 3310 0128 FFF7FEFF 		bl	memset
 902:.\AdvantageImpl.c ****                 B78AD90CF552D9B30A(ppump->_authorizationinfo._presetamount, PBYTECAST(&ppump->_tras
 3311              		.loc 1 902 0
 3312 012c 3B6A     		ldr	r3, [r7, #32]
 3313 012e D3F8B03B 		ldr	r3, [r3, #2992]
 3314 0132 1A46     		mov	r2, r3
 3315 0134 4FF00003 		mov	r3, #0
 3316 0138 396A     		ldr	r1, [r7, #32]
ARM GAS  C:\Users\Lenovo\AppData\Local\Temp\cccA9qMw.s 			page 75


 3317 013a 01F12804 		add	r4, r1, #40
 3318 013e 1046     		mov	r0, r2
 3319 0140 1946     		mov	r1, r3
 3320 0142 2246     		mov	r2, r4
 3321 0144 FFF7FEFF 		bl	B78AD90CF552D9B30A
 903:.\AdvantageImpl.c ****                 char8 *ptr = &ppump->_trasactionbuffer[0x0008];
 3322              		.loc 1 903 0
 3323 0148 3B6A     		ldr	r3, [r7, #32]
 3324 014a 2833     		adds	r3, r3, #40
 3325 014c 7B61     		str	r3, [r7, #20]
 904:.\AdvantageImpl.c ****                 if(transtype == 0xF1) //Volume PRESET, then multiply by 1000
 3326              		.loc 1 904 0
 3327 014e FB7E     		ldrb	r3, [r7, #27]	@ zero_extendqisi2
 3328 0150 F12B     		cmp	r3, #241
 3329 0152 27D1     		bne	.L97
 3330              	.LBB16:
 905:.\AdvantageImpl.c ****                 {
 906:.\AdvantageImpl.c ****                     CastVolumeValue(ptr, 0x08);
 3331              		.loc 1 906 0
 3332 0154 7869     		ldr	r0, [r7, #20]
 3333 0156 0821     		movs	r1, #8
 3334 0158 FFF7FEFF 		bl	CastVolumeValue
 907:.\AdvantageImpl.c ****                     
 908:.\AdvantageImpl.c ****                     FOR(uint8 buffndx = 0, buffndx < 0x05, buffndx++)
 3335              		.loc 1 908 0
 3336 015c 0023     		movs	r3, #0
 3337 015e 87F82630 		strb	r3, [r7, #38]
 3338 0162 1AE0     		b	.L98
 3339              	.L99:
 909:.\AdvantageImpl.c ****                         puartdisp->_messagetx[index++] = (0xE0 | (ptr[buffndx] & 0x0F)); //Translat
 3340              		.loc 1 909 0 discriminator 3
 3341 0164 97F82730 		ldrb	r3, [r7, #39]	@ zero_extendqisi2
 3342 0168 5A1C     		adds	r2, r3, #1
 3343 016a 87F82720 		strb	r2, [r7, #39]
 3344 016e 1946     		mov	r1, r3
 3345 0170 97F82630 		ldrb	r3, [r7, #38]	@ zero_extendqisi2
 3346 0174 7A69     		ldr	r2, [r7, #20]
 3347 0176 1344     		add	r3, r3, r2
 3348 0178 1B78     		ldrb	r3, [r3]	@ zero_extendqisi2
 3349 017a DBB2     		uxtb	r3, r3
 3350 017c 03F00F03 		and	r3, r3, #15
 3351 0180 DBB2     		uxtb	r3, r3
 3352 0182 63F01F03 		orn	r3, r3, #31
 3353 0186 DBB2     		uxtb	r3, r3
 3354 0188 DAB2     		uxtb	r2, r3
 3355 018a FB69     		ldr	r3, [r7, #28]
 3356 018c 0B44     		add	r3, r3, r1
 3357 018e 1A71     		strb	r2, [r3, #4]
 908:.\AdvantageImpl.c ****                         puartdisp->_messagetx[index++] = (0xE0 | (ptr[buffndx] & 0x0F)); //Translat
 3358              		.loc 1 908 0 discriminator 3
 3359 0190 97F82630 		ldrb	r3, [r7, #38]	@ zero_extendqisi2
 3360 0194 0133     		adds	r3, r3, #1
 3361 0196 87F82630 		strb	r3, [r7, #38]
 3362              	.L98:
 908:.\AdvantageImpl.c ****                         puartdisp->_messagetx[index++] = (0xE0 | (ptr[buffndx] & 0x0F)); //Translat
 3363              		.loc 1 908 0 is_stmt 0 discriminator 1
 3364 019a 97F82630 		ldrb	r3, [r7, #38]	@ zero_extendqisi2
ARM GAS  C:\Users\Lenovo\AppData\Local\Temp\cccA9qMw.s 			page 76


 3365 019e 042B     		cmp	r3, #4
 3366 01a0 E0D9     		bls	.L99
 3367              	.LBE16:
 3368 01a2 2EE0     		b	.L100
 3369              	.L97:
 3370              	.LBB17:
 910:.\AdvantageImpl.c ****                 }
 911:.\AdvantageImpl.c ****                 else
 912:.\AdvantageImpl.c ****                 {
 913:.\AdvantageImpl.c ****                     if(!(_g_dispenserlayoutinfo._moneydecimals == 0x03 && _g_dispenserlayoutinfo._p
 3371              		.loc 1 913 0 is_stmt 1
 3372 01a4 574B     		ldr	r3, .L113
 3373 01a6 DB79     		ldrb	r3, [r3, #7]	@ zero_extendqisi2
 3374 01a8 032B     		cmp	r3, #3
 3375 01aa 03D1     		bne	.L101
 3376              		.loc 1 913 0 is_stmt 0 discriminator 1
 3377 01ac 554B     		ldr	r3, .L113
 3378 01ae 1B7A     		ldrb	r3, [r3, #8]	@ zero_extendqisi2
 3379 01b0 022B     		cmp	r3, #2
 3380 01b2 03D0     		beq	.L102
 3381              	.L101:
 914:.\AdvantageImpl.c ****                         CastMoneyValue(ptr, 0x08);
 3382              		.loc 1 914 0 is_stmt 1
 3383 01b4 7869     		ldr	r0, [r7, #20]
 3384 01b6 0821     		movs	r1, #8
 3385 01b8 FFF7FEFF 		bl	CastMoneyValue
 3386              	.L102:
 915:.\AdvantageImpl.c ****                     
 916:.\AdvantageImpl.c ****                     FOR(uint8 buffndx = 0, buffndx < 0x06, buffndx++)
 3387              		.loc 1 916 0
 3388 01bc 0023     		movs	r3, #0
 3389 01be 87F82530 		strb	r3, [r7, #37]
 3390 01c2 1AE0     		b	.L103
 3391              	.L104:
 917:.\AdvantageImpl.c ****                         puartdisp->_messagetx[index++] = (0xE0 | (ptr[buffndx] & 0x0F)); //Translat
 3392              		.loc 1 917 0 discriminator 3
 3393 01c4 97F82730 		ldrb	r3, [r7, #39]	@ zero_extendqisi2
 3394 01c8 5A1C     		adds	r2, r3, #1
 3395 01ca 87F82720 		strb	r2, [r7, #39]
 3396 01ce 1946     		mov	r1, r3
 3397 01d0 97F82530 		ldrb	r3, [r7, #37]	@ zero_extendqisi2
 3398 01d4 7A69     		ldr	r2, [r7, #20]
 3399 01d6 1344     		add	r3, r3, r2
 3400 01d8 1B78     		ldrb	r3, [r3]	@ zero_extendqisi2
 3401 01da DBB2     		uxtb	r3, r3
 3402 01dc 03F00F03 		and	r3, r3, #15
 3403 01e0 DBB2     		uxtb	r3, r3
 3404 01e2 63F01F03 		orn	r3, r3, #31
 3405 01e6 DBB2     		uxtb	r3, r3
 3406 01e8 DAB2     		uxtb	r2, r3
 3407 01ea FB69     		ldr	r3, [r7, #28]
 3408 01ec 0B44     		add	r3, r3, r1
 3409 01ee 1A71     		strb	r2, [r3, #4]
 916:.\AdvantageImpl.c ****                         puartdisp->_messagetx[index++] = (0xE0 | (ptr[buffndx] & 0x0F)); //Translat
 3410              		.loc 1 916 0 discriminator 3
 3411 01f0 97F82530 		ldrb	r3, [r7, #37]	@ zero_extendqisi2
 3412 01f4 0133     		adds	r3, r3, #1
ARM GAS  C:\Users\Lenovo\AppData\Local\Temp\cccA9qMw.s 			page 77


 3413 01f6 87F82530 		strb	r3, [r7, #37]
 3414              	.L103:
 916:.\AdvantageImpl.c ****                         puartdisp->_messagetx[index++] = (0xE0 | (ptr[buffndx] & 0x0F)); //Translat
 3415              		.loc 1 916 0 is_stmt 0 discriminator 1
 3416 01fa 97F82530 		ldrb	r3, [r7, #37]	@ zero_extendqisi2
 3417 01fe 052B     		cmp	r3, #5
 3418 0200 E0D9     		bls	.L104
 3419              	.L100:
 3420              	.LBE17:
 3421              	.LBE15:
 3422 0202 A0E0     		b	.L105
 3423              	.L92:
 918:.\AdvantageImpl.c ****                 }
 919:.\AdvantageImpl.c ****             }
 920:.\AdvantageImpl.c ****             else if(_g_dispenserlayoutinfo._displaydigitsmode == 0x07)
 3424              		.loc 1 920 0 is_stmt 1
 3425 0204 3F4B     		ldr	r3, .L113
 3426 0206 1B7C     		ldrb	r3, [r3, #16]	@ zero_extendqisi2
 3427 0208 072B     		cmp	r3, #7
 3428 020a 40F09C80 		bne	.L105
 3429              	.LBB18:
 921:.\AdvantageImpl.c ****             {
 922:.\AdvantageImpl.c ****                 puartdisp->_messagetx[index++] = 0xE1;
 3430              		.loc 1 922 0
 3431 020e 97F82730 		ldrb	r3, [r7, #39]	@ zero_extendqisi2
 3432 0212 5A1C     		adds	r2, r3, #1
 3433 0214 87F82720 		strb	r2, [r7, #39]
 3434 0218 1A46     		mov	r2, r3
 3435 021a FB69     		ldr	r3, [r7, #28]
 3436 021c 1344     		add	r3, r3, r2
 3437 021e E122     		movs	r2, #225
 3438 0220 1A71     		strb	r2, [r3, #4]
 923:.\AdvantageImpl.c ****                     
 924:.\AdvantageImpl.c ****                 ///THIS IS AN APPLIED CONVENTION ===>> 0x0004 INDEX POSITION WITHIN THE PUMP'S BUFF
 925:.\AdvantageImpl.c ****                 ///THESE CODES MUST BE MATCHED OTHERWISE THE LOGIC WILL BREAKUP THE CODE!
 926:.\AdvantageImpl.c ****                 uint8 transtype = ((0xF0 | ppump->_authorizationinfo._presettype) == 0xF1)? 0xF2: 0
 3439              		.loc 1 926 0
 3440 0222 3B6A     		ldr	r3, [r7, #32]
 3441 0224 93F8A93B 		ldrb	r3, [r3, #2985]
 3442 0228 DBB2     		uxtb	r3, r3
 3443 022a 63F00F03 		orn	r3, r3, #15
 3444 022e DBB2     		uxtb	r3, r3
 3445 0230 F12B     		cmp	r3, #241
 3446 0232 01D1     		bne	.L106
 3447              		.loc 1 926 0 is_stmt 0 discriminator 1
 3448 0234 F223     		movs	r3, #242
 3449 0236 00E0     		b	.L107
 3450              	.L106:
 3451              		.loc 1 926 0 discriminator 2
 3452 0238 F123     		movs	r3, #241
 3453              	.L107:
 3454              		.loc 1 926 0 discriminator 4
 3455 023a FB74     		strb	r3, [r7, #19]
 927:.\AdvantageImpl.c ****                 puartdisp->_messagetx[index++] = transtype;
 3456              		.loc 1 927 0 is_stmt 1 discriminator 4
 3457 023c 97F82730 		ldrb	r3, [r7, #39]	@ zero_extendqisi2
 3458 0240 5A1C     		adds	r2, r3, #1
ARM GAS  C:\Users\Lenovo\AppData\Local\Temp\cccA9qMw.s 			page 78


 3459 0242 87F82720 		strb	r2, [r7, #39]
 3460 0246 1A46     		mov	r2, r3
 3461 0248 FB69     		ldr	r3, [r7, #28]
 3462 024a 1344     		add	r3, r3, r2
 3463 024c FA7C     		ldrb	r2, [r7, #19]
 3464 024e 1A71     		strb	r2, [r3, #4]
 928:.\AdvantageImpl.c **** 
 929:.\AdvantageImpl.c ****                 puartdisp->_messagetx[index++] = 0xF6; //Hose Data next
 3465              		.loc 1 929 0 discriminator 4
 3466 0250 97F82730 		ldrb	r3, [r7, #39]	@ zero_extendqisi2
 3467 0254 5A1C     		adds	r2, r3, #1
 3468 0256 87F82720 		strb	r2, [r7, #39]
 3469 025a 1A46     		mov	r2, r3
 3470 025c FB69     		ldr	r3, [r7, #28]
 3471 025e 1344     		add	r3, r3, r2
 3472 0260 F622     		movs	r2, #246
 3473 0262 1A71     		strb	r2, [r3, #4]
 930:.\AdvantageImpl.c ****                 ///THIS IS AN APPLIED CONVENTION ===>> 0x0006 INDEX POSITION WITHIN THE PUMP'S BUFF
 931:.\AdvantageImpl.c ****                 ///THESE CODES MUST BE MATCHED OTHERWISE THE LOGIC WILL BREAKUP THE CODE!
 932:.\AdvantageImpl.c ****                 puartdisp->_messagetx[index++] = (0xE0 | (ppump->_authorizationinfo._hoseid & 0x0F)
 3474              		.loc 1 932 0 discriminator 4
 3475 0264 97F82730 		ldrb	r3, [r7, #39]	@ zero_extendqisi2
 3476 0268 5A1C     		adds	r2, r3, #1
 3477 026a 87F82720 		strb	r2, [r7, #39]
 3478 026e 1946     		mov	r1, r3
 3479 0270 3B6A     		ldr	r3, [r7, #32]
 3480 0272 93F8AA3B 		ldrb	r3, [r3, #2986]
 3481 0276 DBB2     		uxtb	r3, r3
 3482 0278 DBB2     		uxtb	r3, r3
 3483 027a 03F00F03 		and	r3, r3, #15
 3484 027e DBB2     		uxtb	r3, r3
 3485 0280 63F01F03 		orn	r3, r3, #31
 3486 0284 DBB2     		uxtb	r3, r3
 3487 0286 DAB2     		uxtb	r2, r3
 3488 0288 FB69     		ldr	r3, [r7, #28]
 3489 028a 0B44     		add	r3, r3, r1
 3490 028c 1A71     		strb	r2, [r3, #4]
 933:.\AdvantageImpl.c ****                 
 934:.\AdvantageImpl.c ****                 puartdisp->_messagetx[index++] = 0xF8; //Preset Data next
 3491              		.loc 1 934 0 discriminator 4
 3492 028e 97F82730 		ldrb	r3, [r7, #39]	@ zero_extendqisi2
 3493 0292 5A1C     		adds	r2, r3, #1
 3494 0294 87F82720 		strb	r2, [r7, #39]
 3495 0298 1A46     		mov	r2, r3
 3496 029a FB69     		ldr	r3, [r7, #28]
 3497 029c 1344     		add	r3, r3, r2
 3498 029e F822     		movs	r2, #248
 3499 02a0 1A71     		strb	r2, [r3, #4]
 935:.\AdvantageImpl.c ****                 //Here we copy the remaining 8 bytes for the preset value
 936:.\AdvantageImpl.c ****                 ///THIS IS AN APPLIED CONVENTION ===>> 0x0008 INDEX POSITION WITHIN THE PUMP'S BUFF
 937:.\AdvantageImpl.c ****                 ///THESE CODES MUST BE MATCHED OTHERWISE THE LOGIC WILL BREAKUP THE CODE!
 938:.\AdvantageImpl.c ****                 memset(PBYTECAST(&ppump->_trasactionbuffer[0x0008]),0x00, 0x0008);
 3500              		.loc 1 938 0 discriminator 4
 3501 02a2 3B6A     		ldr	r3, [r7, #32]
 3502 02a4 2833     		adds	r3, r3, #40
 3503 02a6 1846     		mov	r0, r3
 3504 02a8 0021     		movs	r1, #0
ARM GAS  C:\Users\Lenovo\AppData\Local\Temp\cccA9qMw.s 			page 79


 3505 02aa 0822     		movs	r2, #8
 3506 02ac FFF7FEFF 		bl	memset
 939:.\AdvantageImpl.c ****                 B78AD90CF552D9B30A(ppump->_authorizationinfo._presetamount, PBYTECAST(&ppump->_tras
 3507              		.loc 1 939 0 discriminator 4
 3508 02b0 3B6A     		ldr	r3, [r7, #32]
 3509 02b2 D3F8B03B 		ldr	r3, [r3, #2992]
 3510 02b6 1A46     		mov	r2, r3
 3511 02b8 4FF00003 		mov	r3, #0
 3512 02bc 396A     		ldr	r1, [r7, #32]
 3513 02be 01F12804 		add	r4, r1, #40
 3514 02c2 1046     		mov	r0, r2
 3515 02c4 1946     		mov	r1, r3
 3516 02c6 2246     		mov	r2, r4
 3517 02c8 FFF7FEFF 		bl	B78AD90CF552D9B30A
 940:.\AdvantageImpl.c ****                 char8 *ptr = &ppump->_trasactionbuffer[0x0008];
 3518              		.loc 1 940 0 discriminator 4
 3519 02cc 3B6A     		ldr	r3, [r7, #32]
 3520 02ce 2833     		adds	r3, r3, #40
 3521 02d0 FB60     		str	r3, [r7, #12]
 941:.\AdvantageImpl.c ****                 if(transtype == 0xF1) //Volume PRESET, then multiply by 1000
 3522              		.loc 1 941 0 discriminator 4
 3523 02d2 FB7C     		ldrb	r3, [r7, #19]	@ zero_extendqisi2
 3524 02d4 F12B     		cmp	r3, #241
 3525 02d6 04D1     		bne	.L108
 942:.\AdvantageImpl.c ****                     CastVolumeValue(ptr, 0x08);
 3526              		.loc 1 942 0
 3527 02d8 F868     		ldr	r0, [r7, #12]
 3528 02da 0821     		movs	r1, #8
 3529 02dc FFF7FEFF 		bl	CastVolumeValue
 3530 02e0 0BE0     		b	.L109
 3531              	.L108:
 943:.\AdvantageImpl.c ****                 else if(!(_g_dispenserlayoutinfo._moneydecimals == 0x03 && _g_dispenserlayoutinfo._
 3532              		.loc 1 943 0
 3533 02e2 084B     		ldr	r3, .L113
 3534 02e4 DB79     		ldrb	r3, [r3, #7]	@ zero_extendqisi2
 3535 02e6 032B     		cmp	r3, #3
 3536 02e8 03D1     		bne	.L110
 3537              		.loc 1 943 0 is_stmt 0 discriminator 1
 3538 02ea 064B     		ldr	r3, .L113
 3539 02ec 1B7A     		ldrb	r3, [r3, #8]	@ zero_extendqisi2
 3540 02ee 022B     		cmp	r3, #2
 3541 02f0 03D0     		beq	.L109
 3542              	.L110:
 944:.\AdvantageImpl.c ****                     CastMoneyValue(ptr, 0x08);
 3543              		.loc 1 944 0 is_stmt 1
 3544 02f2 F868     		ldr	r0, [r7, #12]
 3545 02f4 0821     		movs	r1, #8
 3546 02f6 FFF7FEFF 		bl	CastMoneyValue
 3547              	.L109:
 945:.\AdvantageImpl.c ****                     
 946:.\AdvantageImpl.c ****                 FOR(uint8 buffndx = 0, buffndx < 0x08, buffndx++)
 3548              		.loc 1 946 0
 3549 02fa 0023     		movs	r3, #0
 3550 02fc 87F82430 		strb	r3, [r7, #36]
 3551 0300 1DE0     		b	.L111
 3552              	.L114:
 3553 0302 00BF     		.align	2
ARM GAS  C:\Users\Lenovo\AppData\Local\Temp\cccA9qMw.s 			page 80


 3554              	.L113:
 3555 0304 00000000 		.word	_g_dispenserlayoutinfo
 3556              	.L112:
 947:.\AdvantageImpl.c ****                     puartdisp->_messagetx[index++] = (0xE0 | (ptr[buffndx] & 0x0F)); //Translate fr
 3557              		.loc 1 947 0 discriminator 3
 3558 0308 97F82730 		ldrb	r3, [r7, #39]	@ zero_extendqisi2
 3559 030c 5A1C     		adds	r2, r3, #1
 3560 030e 87F82720 		strb	r2, [r7, #39]
 3561 0312 1946     		mov	r1, r3
 3562 0314 97F82430 		ldrb	r3, [r7, #36]	@ zero_extendqisi2
 3563 0318 FA68     		ldr	r2, [r7, #12]
 3564 031a 1344     		add	r3, r3, r2
 3565 031c 1B78     		ldrb	r3, [r3]	@ zero_extendqisi2
 3566 031e DBB2     		uxtb	r3, r3
 3567 0320 03F00F03 		and	r3, r3, #15
 3568 0324 DBB2     		uxtb	r3, r3
 3569 0326 63F01F03 		orn	r3, r3, #31
 3570 032a DBB2     		uxtb	r3, r3
 3571 032c DAB2     		uxtb	r2, r3
 3572 032e FB69     		ldr	r3, [r7, #28]
 3573 0330 0B44     		add	r3, r3, r1
 3574 0332 1A71     		strb	r2, [r3, #4]
 946:.\AdvantageImpl.c ****                     puartdisp->_messagetx[index++] = (0xE0 | (ptr[buffndx] & 0x0F)); //Translate fr
 3575              		.loc 1 946 0 discriminator 3
 3576 0334 97F82430 		ldrb	r3, [r7, #36]	@ zero_extendqisi2
 3577 0338 0133     		adds	r3, r3, #1
 3578 033a 87F82430 		strb	r3, [r7, #36]
 3579              	.L111:
 946:.\AdvantageImpl.c ****                     puartdisp->_messagetx[index++] = (0xE0 | (ptr[buffndx] & 0x0F)); //Translate fr
 3580              		.loc 1 946 0 is_stmt 0 discriminator 1
 3581 033e 97F82430 		ldrb	r3, [r7, #36]	@ zero_extendqisi2
 3582 0342 072B     		cmp	r3, #7
 3583 0344 E0D9     		bls	.L112
 3584              	.L105:
 3585              	.LBE18:
 948:.\AdvantageImpl.c ****             }
 949:.\AdvantageImpl.c ****             ppump->_presetdone = true;
 3586              		.loc 1 949 0 is_stmt 1
 3587 0346 3B6A     		ldr	r3, [r7, #32]
 3588 0348 0122     		movs	r2, #1
 3589 034a 1A72     		strb	r2, [r3, #8]
 950:.\AdvantageImpl.c ****             
 951:.\AdvantageImpl.c ****             puartdisp->_messagetx[index++] = LRCn; //LRC next
 3590              		.loc 1 951 0
 3591 034c 97F82730 		ldrb	r3, [r7, #39]	@ zero_extendqisi2
 3592 0350 5A1C     		adds	r2, r3, #1
 3593 0352 87F82720 		strb	r2, [r7, #39]
 3594 0356 1A46     		mov	r2, r3
 3595 0358 FB69     		ldr	r3, [r7, #28]
 3596 035a 1344     		add	r3, r3, r2
 3597 035c FB22     		movs	r2, #251
 3598 035e 1A71     		strb	r2, [r3, #4]
 952:.\AdvantageImpl.c ****             puartdisp->_messagetx[index++] = GetLRC(puartdisp->_messagetx);
 3599              		.loc 1 952 0
 3600 0360 97F82730 		ldrb	r3, [r7, #39]	@ zero_extendqisi2
 3601 0364 5A1C     		adds	r2, r3, #1
 3602 0366 87F82720 		strb	r2, [r7, #39]
ARM GAS  C:\Users\Lenovo\AppData\Local\Temp\cccA9qMw.s 			page 81


 3603 036a 1C46     		mov	r4, r3
 3604 036c FB69     		ldr	r3, [r7, #28]
 3605 036e 0433     		adds	r3, r3, #4
 3606 0370 1846     		mov	r0, r3
 3607 0372 FFF7FEFF 		bl	GetLRC
 3608 0376 0346     		mov	r3, r0
 3609 0378 1A46     		mov	r2, r3
 3610 037a FB69     		ldr	r3, [r7, #28]
 3611 037c 2344     		add	r3, r3, r4
 3612 037e 1A71     		strb	r2, [r3, #4]
 953:.\AdvantageImpl.c ****             puartdisp->_messagetx[index++] = EOM;
 3613              		.loc 1 953 0
 3614 0380 97F82730 		ldrb	r3, [r7, #39]	@ zero_extendqisi2
 3615 0384 5A1C     		adds	r2, r3, #1
 3616 0386 87F82720 		strb	r2, [r7, #39]
 3617 038a 1A46     		mov	r2, r3
 3618 038c FB69     		ldr	r3, [r7, #28]
 3619 038e 1344     		add	r3, r3, r2
 3620 0390 F022     		movs	r2, #240
 3621 0392 1A71     		strb	r2, [r3, #4]
 954:.\AdvantageImpl.c **** ///////////////////////////////////////////////////////////////////////////////////////////////////
 955:.\AdvantageImpl.c ****             
 956:.\AdvantageImpl.c ****             puartdisp->_messagelength = index;
 3622              		.loc 1 956 0
 3623 0394 97F82730 		ldrb	r3, [r7, #39]	@ zero_extendqisi2
 3624 0398 9AB2     		uxth	r2, r3
 3625 039a FB69     		ldr	r3, [r7, #28]
 3626 039c 5A80     		strh	r2, [r3, #2]	@ movhi
 957:.\AdvantageImpl.c ****             puartdisp->_messagestate = PENDING;
 3627              		.loc 1 957 0
 3628 039e FB69     		ldr	r3, [r7, #28]
 3629 03a0 C222     		movs	r2, #194
 3630 03a2 1A70     		strb	r2, [r3]
 3631              	.L90:
 3632              	.LBE14:
 958:.\AdvantageImpl.c ****         }
 959:.\AdvantageImpl.c ****     }
 960:.\AdvantageImpl.c ****     
 961:.\AdvantageImpl.c **** }
 3633              		.loc 1 961 0
 3634 03a4 2C37     		adds	r7, r7, #44
 3635              		.cfi_def_cfa_offset 12
 3636 03a6 BD46     		mov	sp, r7
 3637              		.cfi_def_cfa_register 13
 3638              		@ sp needed
 3639 03a8 90BD     		pop	{r4, r7, pc}
 3640              		.cfi_endproc
 3641              	.LFE78:
 3642              		.size	PumpCreditPresetHose, .-PumpCreditPresetHose
 3643 03aa 00BF     		.section	.text.PumpPresetHose,"ax",%progbits
 3644              		.align	2
 3645              		.global	PumpPresetHose
 3646              		.thumb
 3647              		.thumb_func
 3648              		.type	PumpPresetHose, %function
 3649              	PumpPresetHose:
 3650              	.LFB79:
ARM GAS  C:\Users\Lenovo\AppData\Local\Temp\cccA9qMw.s 			page 82


 962:.\AdvantageImpl.c **** 
 963:.\AdvantageImpl.c **** //@Created By: HIJH
 964:.\AdvantageImpl.c **** //@Septembre de 2016
 965:.\AdvantageImpl.c **** ///////////////////////////////////////////////////////////////////////////////////////////////////
 966:.\AdvantageImpl.c **** //Preset values will be placed within the SinkMessage's buffer. This is a convention that applies t
 967:.\AdvantageImpl.c **** //all of the available transactions. The pump function must deal with this while it is assembling t
 968:.\AdvantageImpl.c **** //For this message the data comes as follows:
 969:.\AdvantageImpl.c **** // - First byte is the preset type (Volume:1 / Money:2 )
 970:.\AdvantageImpl.c **** // - Second byte is the Hose (A:0, B:1, C:2, D:3)
 971:.\AdvantageImpl.c **** // - Block of 8 bytes for the preset value
 972:.\AdvantageImpl.c **** //This block of data (10 bytes) must be moved to another position within the same buffer (even posi
 973:.\AdvantageImpl.c **** void PumpPresetHose(void *pparam)
 974:.\AdvantageImpl.c **** {
 3651              		.loc 1 974 0
 3652              		.cfi_startproc
 3653              		@ args = 0, pretend = 0, frame = 40
 3654              		@ frame_needed = 1, uses_anonymous_args = 0
 3655 0000 90B5     		push	{r4, r7, lr}
 3656              		.cfi_def_cfa_offset 12
 3657              		.cfi_offset 4, -12
 3658              		.cfi_offset 7, -8
 3659              		.cfi_offset 14, -4
 3660 0002 8BB0     		sub	sp, sp, #44
 3661              		.cfi_def_cfa_offset 56
 3662 0004 00AF     		add	r7, sp, #0
 3663              		.cfi_def_cfa_register 7
 3664 0006 7860     		str	r0, [r7, #4]
 975:.\AdvantageImpl.c ****     PNEAR_PUMPPTR ppump = (PNEAR_PUMPPTR)pparam;
 3665              		.loc 1 975 0
 3666 0008 7B68     		ldr	r3, [r7, #4]
 3667 000a 3B62     		str	r3, [r7, #32]
 976:.\AdvantageImpl.c ****     if(ppump)
 3668              		.loc 1 976 0
 3669 000c 3B6A     		ldr	r3, [r7, #32]
 3670 000e 002B     		cmp	r3, #0
 3671 0010 00F0AC81 		beq	.L115
 3672              	.LBB19:
 977:.\AdvantageImpl.c ****     {
 978:.\AdvantageImpl.c ****         uint8_t index = 0;        
 3673              		.loc 1 978 0
 3674 0014 0023     		movs	r3, #0
 3675 0016 87F82730 		strb	r3, [r7, #39]
 979:.\AdvantageImpl.c ****         PUARTMESSAGEPTR puartdisp = GetUARTMessageSlot(UART_DISPENSER);
 3676              		.loc 1 979 0
 3677 001a A220     		movs	r0, #162
 3678 001c FFF7FEFF 		bl	GetUARTMessageSlot
 3679 0020 F861     		str	r0, [r7, #28]
 980:.\AdvantageImpl.c ****         memset(ppump->_rxbuffer, 0x00, _PUMP_RX_BUFFER_SIZE_);
 3680              		.loc 1 980 0
 3681 0022 3B6A     		ldr	r3, [r7, #32]
 3682 0024 03F5D073 		add	r3, r3, #416
 3683 0028 1846     		mov	r0, r3
 3684 002a 0021     		movs	r1, #0
 3685 002c 4FF4C072 		mov	r2, #384
 3686 0030 FFF7FEFF 		bl	memset
 981:.\AdvantageImpl.c ****         if(puartdisp)
 3687              		.loc 1 981 0
ARM GAS  C:\Users\Lenovo\AppData\Local\Temp\cccA9qMw.s 			page 83


 3688 0034 FB69     		ldr	r3, [r7, #28]
 3689 0036 002B     		cmp	r3, #0
 3690 0038 00F09881 		beq	.L115
 982:.\AdvantageImpl.c ****         {
 983:.\AdvantageImpl.c **** ///////////////////////////////////////////////////////////////////////////////////////////////////
 984:.\AdvantageImpl.c ****             puartdisp->_messagetx[index++] = SOM;
 3691              		.loc 1 984 0
 3692 003c 97F82730 		ldrb	r3, [r7, #39]	@ zero_extendqisi2
 3693 0040 5A1C     		adds	r2, r3, #1
 3694 0042 87F82720 		strb	r2, [r7, #39]
 3695 0046 1A46     		mov	r2, r3
 3696 0048 FB69     		ldr	r3, [r7, #28]
 3697 004a 1344     		add	r3, r3, r2
 3698 004c FF22     		movs	r2, #255
 3699 004e 1A71     		strb	r2, [r3, #4]
 985:.\AdvantageImpl.c ****             if(_g_dispenserlayoutinfo._displaydigitsmode == 0x06)
 3700              		.loc 1 985 0
 3701 0050 C84B     		ldr	r3, .L138
 3702 0052 1B7C     		ldrb	r3, [r3, #16]	@ zero_extendqisi2
 3703 0054 062B     		cmp	r3, #6
 3704 0056 40F0C580 		bne	.L117
 3705              	.LBB20:
 986:.\AdvantageImpl.c ****             {
 987:.\AdvantageImpl.c ****                 uint8 transtype = (0xF0 | ((ppump->_trasactionbuffer[0x0004] == 0x0F)? 0x02: 0x01))
 3706              		.loc 1 987 0
 3707 005a 3B6A     		ldr	r3, [r7, #32]
 3708 005c 93F82430 		ldrb	r3, [r3, #36]	@ zero_extendqisi2
 3709 0060 0F2B     		cmp	r3, #15
 3710 0062 01D1     		bne	.L118
 3711              		.loc 1 987 0 is_stmt 0 discriminator 1
 3712 0064 F223     		movs	r3, #242
 3713 0066 00E0     		b	.L119
 3714              	.L118:
 3715              		.loc 1 987 0 discriminator 2
 3716 0068 F123     		movs	r3, #241
 3717              	.L119:
 3718              		.loc 1 987 0 discriminator 4
 3719 006a FB76     		strb	r3, [r7, #27]
 988:.\AdvantageImpl.c ****                 if(transtype == 0xF1)
 3720              		.loc 1 988 0 is_stmt 1 discriminator 4
 3721 006c FB7E     		ldrb	r3, [r7, #27]	@ zero_extendqisi2
 3722 006e F12B     		cmp	r3, #241
 3723 0070 0AD1     		bne	.L120
 989:.\AdvantageImpl.c ****                     puartdisp->_messagetx[index++] = 0xE3;
 3724              		.loc 1 989 0
 3725 0072 97F82730 		ldrb	r3, [r7, #39]	@ zero_extendqisi2
 3726 0076 5A1C     		adds	r2, r3, #1
 3727 0078 87F82720 		strb	r2, [r7, #39]
 3728 007c 1A46     		mov	r2, r3
 3729 007e FB69     		ldr	r3, [r7, #28]
 3730 0080 1344     		add	r3, r3, r2
 3731 0082 E322     		movs	r2, #227
 3732 0084 1A71     		strb	r2, [r3, #4]
 3733 0086 09E0     		b	.L121
 3734              	.L120:
 990:.\AdvantageImpl.c ****                 else
 991:.\AdvantageImpl.c ****                     puartdisp->_messagetx[index++] = 0xE2;
ARM GAS  C:\Users\Lenovo\AppData\Local\Temp\cccA9qMw.s 			page 84


 3735              		.loc 1 991 0
 3736 0088 97F82730 		ldrb	r3, [r7, #39]	@ zero_extendqisi2
 3737 008c 5A1C     		adds	r2, r3, #1
 3738 008e 87F82720 		strb	r2, [r7, #39]
 3739 0092 1A46     		mov	r2, r3
 3740 0094 FB69     		ldr	r3, [r7, #28]
 3741 0096 1344     		add	r3, r3, r2
 3742 0098 E222     		movs	r2, #226
 3743 009a 1A71     		strb	r2, [r3, #4]
 3744              	.L121:
 992:.\AdvantageImpl.c ****                 
 993:.\AdvantageImpl.c ****                 ///THIS IS AN APPLIED CONVENTION ===>> 0x0004 INDEX POSITION WITHIN THE PUMP'S BUFF
 994:.\AdvantageImpl.c ****                 ///THESE CODES MUST BE MATCHED OTHERWISE THE LOGIC WILL BREAKUP THE CODE!
 995:.\AdvantageImpl.c ****                 puartdisp->_messagetx[index++] = transtype;
 3745              		.loc 1 995 0
 3746 009c 97F82730 		ldrb	r3, [r7, #39]	@ zero_extendqisi2
 3747 00a0 5A1C     		adds	r2, r3, #1
 3748 00a2 87F82720 		strb	r2, [r7, #39]
 3749 00a6 1A46     		mov	r2, r3
 3750 00a8 FB69     		ldr	r3, [r7, #28]
 3751 00aa 1344     		add	r3, r3, r2
 3752 00ac FA7E     		ldrb	r2, [r7, #27]
 3753 00ae 1A71     		strb	r2, [r3, #4]
 996:.\AdvantageImpl.c ****                 puartdisp->_messagetx[index++] = 0xF4;
 3754              		.loc 1 996 0
 3755 00b0 97F82730 		ldrb	r3, [r7, #39]	@ zero_extendqisi2
 3756 00b4 5A1C     		adds	r2, r3, #1
 3757 00b6 87F82720 		strb	r2, [r7, #39]
 3758 00ba 1A46     		mov	r2, r3
 3759 00bc FB69     		ldr	r3, [r7, #28]
 3760 00be 1344     		add	r3, r3, r2
 3761 00c0 F422     		movs	r2, #244
 3762 00c2 1A71     		strb	r2, [r3, #4]
 997:.\AdvantageImpl.c ****                 puartdisp->_messagetx[index++] = 0xF6; //Hose Data next
 3763              		.loc 1 997 0
 3764 00c4 97F82730 		ldrb	r3, [r7, #39]	@ zero_extendqisi2
 3765 00c8 5A1C     		adds	r2, r3, #1
 3766 00ca 87F82720 		strb	r2, [r7, #39]
 3767 00ce 1A46     		mov	r2, r3
 3768 00d0 FB69     		ldr	r3, [r7, #28]
 3769 00d2 1344     		add	r3, r3, r2
 3770 00d4 F622     		movs	r2, #246
 3771 00d6 1A71     		strb	r2, [r3, #4]
 998:.\AdvantageImpl.c ****                 ///THIS IS AN APPLIED CONVENTION ===>> 0x0006 INDEX POSITION WITHIN THE PUMP'S BUFF
 999:.\AdvantageImpl.c ****                 ///THESE CODES MUST BE MATCHED OTHERWISE THE LOGIC WILL BREAKUP THE CODE!
1000:.\AdvantageImpl.c ****                 puartdisp->_messagetx[index++] = (0xE0 | (0x0F & ppump->_trasactionbuffer[GetBuffer
 3772              		.loc 1 1000 0
 3773 00d8 97F82730 		ldrb	r3, [r7, #39]	@ zero_extendqisi2
 3774 00dc 5A1C     		adds	r2, r3, #1
 3775 00de 87F82720 		strb	r2, [r7, #39]
 3776 00e2 1C46     		mov	r4, r3
 3777 00e4 0720     		movs	r0, #7
 3778 00e6 FFF7FEFF 		bl	GetBufferIndexFromDisplayID
 3779 00ea 0346     		mov	r3, r0
 3780 00ec 1A46     		mov	r2, r3
 3781 00ee 3B6A     		ldr	r3, [r7, #32]
 3782 00f0 1344     		add	r3, r3, r2
ARM GAS  C:\Users\Lenovo\AppData\Local\Temp\cccA9qMw.s 			page 85


 3783 00f2 93F82030 		ldrb	r3, [r3, #32]	@ zero_extendqisi2
 3784 00f6 03F00F03 		and	r3, r3, #15
 3785 00fa DBB2     		uxtb	r3, r3
 3786 00fc 63F01F03 		orn	r3, r3, #31
 3787 0100 DAB2     		uxtb	r2, r3
 3788 0102 FB69     		ldr	r3, [r7, #28]
 3789 0104 2344     		add	r3, r3, r4
 3790 0106 1A71     		strb	r2, [r3, #4]
1001:.\AdvantageImpl.c ****                 //puartdisp->_messagetx[index++] = 0xE0;
1002:.\AdvantageImpl.c ****                 
1003:.\AdvantageImpl.c ****                 puartdisp->_messagetx[index++] = 0xF8; //Preset Data next
 3791              		.loc 1 1003 0
 3792 0108 97F82730 		ldrb	r3, [r7, #39]	@ zero_extendqisi2
 3793 010c 5A1C     		adds	r2, r3, #1
 3794 010e 87F82720 		strb	r2, [r7, #39]
 3795 0112 1A46     		mov	r2, r3
 3796 0114 FB69     		ldr	r3, [r7, #28]
 3797 0116 1344     		add	r3, r3, r2
 3798 0118 F822     		movs	r2, #248
 3799 011a 1A71     		strb	r2, [r3, #4]
1004:.\AdvantageImpl.c ****                 //Here we copy the remaining 8 bytes for the preset value
1005:.\AdvantageImpl.c ****                 ///THIS IS AN APPLIED CONVENTION ===>> 0x0008 INDEX POSITION WITHIN THE PUMP'S BUFF
1006:.\AdvantageImpl.c ****                 ///THESE CODES MUST BE MATCHED OTHERWISE THE LOGIC WILL BREAKUP THE CODE!
1007:.\AdvantageImpl.c ****                 char8 *ptr = &ppump->_trasactionbuffer[0x0008];
 3800              		.loc 1 1007 0
 3801 011c 3B6A     		ldr	r3, [r7, #32]
 3802 011e 2833     		adds	r3, r3, #40
 3803 0120 7B61     		str	r3, [r7, #20]
1008:.\AdvantageImpl.c ****                 if(transtype == 0xF1) //Volume PRESET, then multiply by 1000
 3804              		.loc 1 1008 0
 3805 0122 FB7E     		ldrb	r3, [r7, #27]	@ zero_extendqisi2
 3806 0124 F12B     		cmp	r3, #241
 3807 0126 2AD1     		bne	.L122
 3808              	.LBB21:
1009:.\AdvantageImpl.c ****                 {
1010:.\AdvantageImpl.c ****                     CastVolumeValue(ptr, 0x08);
 3809              		.loc 1 1010 0
 3810 0128 7869     		ldr	r0, [r7, #20]
 3811 012a 0821     		movs	r1, #8
 3812 012c FFF7FEFF 		bl	CastVolumeValue
1011:.\AdvantageImpl.c ****                     
1012:.\AdvantageImpl.c ****                     FOR(uint8 buffndx = 0, buffndx < 0x05, buffndx++)
 3813              		.loc 1 1012 0
 3814 0130 0023     		movs	r3, #0
 3815 0132 87F82630 		strb	r3, [r7, #38]
 3816 0136 1DE0     		b	.L123
 3817              	.L124:
1013:.\AdvantageImpl.c ****                         puartdisp->_messagetx[index++] = (0xE0 | (ptr[7 - buffndx] & 0x0F)); //Tran
 3818              		.loc 1 1013 0 discriminator 3
 3819 0138 97F82730 		ldrb	r3, [r7, #39]	@ zero_extendqisi2
 3820 013c 5A1C     		adds	r2, r3, #1
 3821 013e 87F82720 		strb	r2, [r7, #39]
 3822 0142 1946     		mov	r1, r3
 3823 0144 97F82630 		ldrb	r3, [r7, #38]	@ zero_extendqisi2
 3824 0148 C3F10703 		rsb	r3, r3, #7
 3825 014c 1A46     		mov	r2, r3
 3826 014e 7B69     		ldr	r3, [r7, #20]
ARM GAS  C:\Users\Lenovo\AppData\Local\Temp\cccA9qMw.s 			page 86


 3827 0150 1344     		add	r3, r3, r2
 3828 0152 1B78     		ldrb	r3, [r3]	@ zero_extendqisi2
 3829 0154 DBB2     		uxtb	r3, r3
 3830 0156 03F00F03 		and	r3, r3, #15
 3831 015a DBB2     		uxtb	r3, r3
 3832 015c 63F01F03 		orn	r3, r3, #31
 3833 0160 DBB2     		uxtb	r3, r3
 3834 0162 DAB2     		uxtb	r2, r3
 3835 0164 FB69     		ldr	r3, [r7, #28]
 3836 0166 0B44     		add	r3, r3, r1
 3837 0168 1A71     		strb	r2, [r3, #4]
1012:.\AdvantageImpl.c ****                         puartdisp->_messagetx[index++] = (0xE0 | (ptr[7 - buffndx] & 0x0F)); //Tran
 3838              		.loc 1 1012 0 discriminator 3
 3839 016a 97F82630 		ldrb	r3, [r7, #38]	@ zero_extendqisi2
 3840 016e 0133     		adds	r3, r3, #1
 3841 0170 87F82630 		strb	r3, [r7, #38]
 3842              	.L123:
1012:.\AdvantageImpl.c ****                         puartdisp->_messagetx[index++] = (0xE0 | (ptr[7 - buffndx] & 0x0F)); //Tran
 3843              		.loc 1 1012 0 is_stmt 0 discriminator 1
 3844 0174 97F82630 		ldrb	r3, [r7, #38]	@ zero_extendqisi2
 3845 0178 042B     		cmp	r3, #4
 3846 017a DDD9     		bls	.L124
 3847              	.LBE21:
 3848 017c 31E0     		b	.L125
 3849              	.L122:
 3850              	.LBB22:
1014:.\AdvantageImpl.c ****                 }
1015:.\AdvantageImpl.c ****                 else
1016:.\AdvantageImpl.c ****                 {
1017:.\AdvantageImpl.c ****                     if(!(_g_dispenserlayoutinfo._moneydecimals == 0x03 && _g_dispenserlayoutinfo._p
 3851              		.loc 1 1017 0 is_stmt 1
 3852 017e 7D4B     		ldr	r3, .L138
 3853 0180 DB79     		ldrb	r3, [r3, #7]	@ zero_extendqisi2
 3854 0182 032B     		cmp	r3, #3
 3855 0184 03D1     		bne	.L126
 3856              		.loc 1 1017 0 is_stmt 0 discriminator 1
 3857 0186 7B4B     		ldr	r3, .L138
 3858 0188 1B7A     		ldrb	r3, [r3, #8]	@ zero_extendqisi2
 3859 018a 022B     		cmp	r3, #2
 3860 018c 03D0     		beq	.L127
 3861              	.L126:
1018:.\AdvantageImpl.c ****                         CastMoneyValue(ptr, 0x08);
 3862              		.loc 1 1018 0 is_stmt 1
 3863 018e 7869     		ldr	r0, [r7, #20]
 3864 0190 0821     		movs	r1, #8
 3865 0192 FFF7FEFF 		bl	CastMoneyValue
 3866              	.L127:
1019:.\AdvantageImpl.c ****                     
1020:.\AdvantageImpl.c ****                     FOR(uint8 buffndx = 0, buffndx < 0x06, buffndx++)
 3867              		.loc 1 1020 0
 3868 0196 0023     		movs	r3, #0
 3869 0198 87F82530 		strb	r3, [r7, #37]
 3870 019c 1DE0     		b	.L128
 3871              	.L129:
1021:.\AdvantageImpl.c ****                         puartdisp->_messagetx[index++] = (0xE0 | (ptr[7 - buffndx] & 0x0F)); //Tran
 3872              		.loc 1 1021 0 discriminator 3
 3873 019e 97F82730 		ldrb	r3, [r7, #39]	@ zero_extendqisi2
ARM GAS  C:\Users\Lenovo\AppData\Local\Temp\cccA9qMw.s 			page 87


 3874 01a2 5A1C     		adds	r2, r3, #1
 3875 01a4 87F82720 		strb	r2, [r7, #39]
 3876 01a8 1946     		mov	r1, r3
 3877 01aa 97F82530 		ldrb	r3, [r7, #37]	@ zero_extendqisi2
 3878 01ae C3F10703 		rsb	r3, r3, #7
 3879 01b2 1A46     		mov	r2, r3
 3880 01b4 7B69     		ldr	r3, [r7, #20]
 3881 01b6 1344     		add	r3, r3, r2
 3882 01b8 1B78     		ldrb	r3, [r3]	@ zero_extendqisi2
 3883 01ba DBB2     		uxtb	r3, r3
 3884 01bc 03F00F03 		and	r3, r3, #15
 3885 01c0 DBB2     		uxtb	r3, r3
 3886 01c2 63F01F03 		orn	r3, r3, #31
 3887 01c6 DBB2     		uxtb	r3, r3
 3888 01c8 DAB2     		uxtb	r2, r3
 3889 01ca FB69     		ldr	r3, [r7, #28]
 3890 01cc 0B44     		add	r3, r3, r1
 3891 01ce 1A71     		strb	r2, [r3, #4]
1020:.\AdvantageImpl.c ****                         puartdisp->_messagetx[index++] = (0xE0 | (ptr[7 - buffndx] & 0x0F)); //Tran
 3892              		.loc 1 1020 0 discriminator 3
 3893 01d0 97F82530 		ldrb	r3, [r7, #37]	@ zero_extendqisi2
 3894 01d4 0133     		adds	r3, r3, #1
 3895 01d6 87F82530 		strb	r3, [r7, #37]
 3896              	.L128:
1020:.\AdvantageImpl.c ****                         puartdisp->_messagetx[index++] = (0xE0 | (ptr[7 - buffndx] & 0x0F)); //Tran
 3897              		.loc 1 1020 0 is_stmt 0 discriminator 1
 3898 01da 97F82530 		ldrb	r3, [r7, #37]	@ zero_extendqisi2
 3899 01de 052B     		cmp	r3, #5
 3900 01e0 DDD9     		bls	.L129
 3901              	.L125:
 3902              	.LBE22:
 3903              	.LBE20:
 3904 01e2 94E0     		b	.L130
 3905              	.L117:
1022:.\AdvantageImpl.c ****                 }
1023:.\AdvantageImpl.c ****             }
1024:.\AdvantageImpl.c ****             else if(_g_dispenserlayoutinfo._displaydigitsmode == 0x07)
 3906              		.loc 1 1024 0 is_stmt 1
 3907 01e4 634B     		ldr	r3, .L138
 3908 01e6 1B7C     		ldrb	r3, [r3, #16]	@ zero_extendqisi2
 3909 01e8 072B     		cmp	r3, #7
 3910 01ea 40F09080 		bne	.L130
 3911              	.LBB23:
1025:.\AdvantageImpl.c ****             {
1026:.\AdvantageImpl.c ****                 puartdisp->_messagetx[index++] = 0xE1;
 3912              		.loc 1 1026 0
 3913 01ee 97F82730 		ldrb	r3, [r7, #39]	@ zero_extendqisi2
 3914 01f2 5A1C     		adds	r2, r3, #1
 3915 01f4 87F82720 		strb	r2, [r7, #39]
 3916 01f8 1A46     		mov	r2, r3
 3917 01fa FB69     		ldr	r3, [r7, #28]
 3918 01fc 1344     		add	r3, r3, r2
 3919 01fe E122     		movs	r2, #225
 3920 0200 1A71     		strb	r2, [r3, #4]
1027:.\AdvantageImpl.c ****                     
1028:.\AdvantageImpl.c ****                 ///THIS IS AN APPLIED CONVENTION ===>> 0x0004 INDEX POSITION WITHIN THE PUMP'S BUFF
1029:.\AdvantageImpl.c ****                 ///THESE CODES MUST BE MATCHED OTHERWISE THE LOGIC WILL BREAKUP THE CODE!
ARM GAS  C:\Users\Lenovo\AppData\Local\Temp\cccA9qMw.s 			page 88


1030:.\AdvantageImpl.c ****                 uint8 transtype = (0xF0 | ((ppump->_trasactionbuffer[0x0004] == 0x0F)? 0x02: 0x01))
 3921              		.loc 1 1030 0
 3922 0202 3B6A     		ldr	r3, [r7, #32]
 3923 0204 93F82430 		ldrb	r3, [r3, #36]	@ zero_extendqisi2
 3924 0208 0F2B     		cmp	r3, #15
 3925 020a 01D1     		bne	.L131
 3926              		.loc 1 1030 0 is_stmt 0 discriminator 1
 3927 020c F223     		movs	r3, #242
 3928 020e 00E0     		b	.L132
 3929              	.L131:
 3930              		.loc 1 1030 0 discriminator 2
 3931 0210 F123     		movs	r3, #241
 3932              	.L132:
 3933              		.loc 1 1030 0 discriminator 4
 3934 0212 FB74     		strb	r3, [r7, #19]
1031:.\AdvantageImpl.c ****                 puartdisp->_messagetx[index++] = transtype;
 3935              		.loc 1 1031 0 is_stmt 1 discriminator 4
 3936 0214 97F82730 		ldrb	r3, [r7, #39]	@ zero_extendqisi2
 3937 0218 5A1C     		adds	r2, r3, #1
 3938 021a 87F82720 		strb	r2, [r7, #39]
 3939 021e 1A46     		mov	r2, r3
 3940 0220 FB69     		ldr	r3, [r7, #28]
 3941 0222 1344     		add	r3, r3, r2
 3942 0224 FA7C     		ldrb	r2, [r7, #19]
 3943 0226 1A71     		strb	r2, [r3, #4]
1032:.\AdvantageImpl.c ****                 puartdisp->_messagetx[index++] = 0xF4;
 3944              		.loc 1 1032 0 discriminator 4
 3945 0228 97F82730 		ldrb	r3, [r7, #39]	@ zero_extendqisi2
 3946 022c 5A1C     		adds	r2, r3, #1
 3947 022e 87F82720 		strb	r2, [r7, #39]
 3948 0232 1A46     		mov	r2, r3
 3949 0234 FB69     		ldr	r3, [r7, #28]
 3950 0236 1344     		add	r3, r3, r2
 3951 0238 F422     		movs	r2, #244
 3952 023a 1A71     		strb	r2, [r3, #4]
1033:.\AdvantageImpl.c ****                 puartdisp->_messagetx[index++] = 0xF6; //Hose Data next
 3953              		.loc 1 1033 0 discriminator 4
 3954 023c 97F82730 		ldrb	r3, [r7, #39]	@ zero_extendqisi2
 3955 0240 5A1C     		adds	r2, r3, #1
 3956 0242 87F82720 		strb	r2, [r7, #39]
 3957 0246 1A46     		mov	r2, r3
 3958 0248 FB69     		ldr	r3, [r7, #28]
 3959 024a 1344     		add	r3, r3, r2
 3960 024c F622     		movs	r2, #246
 3961 024e 1A71     		strb	r2, [r3, #4]
1034:.\AdvantageImpl.c ****                 ///THIS IS AN APPLIED CONVENTION ===>> 0x0006 INDEX POSITION WITHIN THE PUMP'S BUFF
1035:.\AdvantageImpl.c ****                 ///THESE CODES MUST BE MATCHED OTHERWISE THE LOGIC WILL BREAKUP THE CODE!
1036:.\AdvantageImpl.c ****                 puartdisp->_messagetx[index++] = (0xE0 | (0x0F & ppump->_trasactionbuffer[GetBuffer
 3962              		.loc 1 1036 0 discriminator 4
 3963 0250 97F82730 		ldrb	r3, [r7, #39]	@ zero_extendqisi2
 3964 0254 5A1C     		adds	r2, r3, #1
 3965 0256 87F82720 		strb	r2, [r7, #39]
 3966 025a 1C46     		mov	r4, r3
 3967 025c 0720     		movs	r0, #7
 3968 025e FFF7FEFF 		bl	GetBufferIndexFromDisplayID
 3969 0262 0346     		mov	r3, r0
 3970 0264 1A46     		mov	r2, r3
ARM GAS  C:\Users\Lenovo\AppData\Local\Temp\cccA9qMw.s 			page 89


 3971 0266 3B6A     		ldr	r3, [r7, #32]
 3972 0268 1344     		add	r3, r3, r2
 3973 026a 93F82030 		ldrb	r3, [r3, #32]	@ zero_extendqisi2
 3974 026e 03F00F03 		and	r3, r3, #15
 3975 0272 DBB2     		uxtb	r3, r3
 3976 0274 63F01F03 		orn	r3, r3, #31
 3977 0278 DAB2     		uxtb	r2, r3
 3978 027a FB69     		ldr	r3, [r7, #28]
 3979 027c 2344     		add	r3, r3, r4
 3980 027e 1A71     		strb	r2, [r3, #4]
1037:.\AdvantageImpl.c ****                 //puartdisp->_messagetx[index++] = 0xE0;
1038:.\AdvantageImpl.c ****                 
1039:.\AdvantageImpl.c ****                 puartdisp->_messagetx[index++] = 0xF8; //Preset Data next
 3981              		.loc 1 1039 0 discriminator 4
 3982 0280 97F82730 		ldrb	r3, [r7, #39]	@ zero_extendqisi2
 3983 0284 5A1C     		adds	r2, r3, #1
 3984 0286 87F82720 		strb	r2, [r7, #39]
 3985 028a 1A46     		mov	r2, r3
 3986 028c FB69     		ldr	r3, [r7, #28]
 3987 028e 1344     		add	r3, r3, r2
 3988 0290 F822     		movs	r2, #248
 3989 0292 1A71     		strb	r2, [r3, #4]
1040:.\AdvantageImpl.c ****                 //Here we copy the remaining 8 bytes for the preset value
1041:.\AdvantageImpl.c ****                 ///THIS IS AN APPLIED CONVENTION ===>> 0x0008 INDEX POSITION WITHIN THE PUMP'S BUFF
1042:.\AdvantageImpl.c ****                 ///THESE CODES MUST BE MATCHED OTHERWISE THE LOGIC WILL BREAKUP THE CODE!
1043:.\AdvantageImpl.c ****                 char8 *ptr = &ppump->_trasactionbuffer[0x0008];
 3990              		.loc 1 1043 0 discriminator 4
 3991 0294 3B6A     		ldr	r3, [r7, #32]
 3992 0296 2833     		adds	r3, r3, #40
 3993 0298 FB60     		str	r3, [r7, #12]
1044:.\AdvantageImpl.c ****                 if(transtype == 0xF1) //Volume PRESET, then multiply by 1000
 3994              		.loc 1 1044 0 discriminator 4
 3995 029a FB7C     		ldrb	r3, [r7, #19]	@ zero_extendqisi2
 3996 029c F12B     		cmp	r3, #241
 3997 029e 04D1     		bne	.L133
1045:.\AdvantageImpl.c ****                     CastVolumeValue(ptr, 0x08);
 3998              		.loc 1 1045 0
 3999 02a0 F868     		ldr	r0, [r7, #12]
 4000 02a2 0821     		movs	r1, #8
 4001 02a4 FFF7FEFF 		bl	CastVolumeValue
 4002 02a8 0BE0     		b	.L134
 4003              	.L133:
1046:.\AdvantageImpl.c ****                 else if(!(_g_dispenserlayoutinfo._moneydecimals == 0x03 && _g_dispenserlayoutinfo._
 4004              		.loc 1 1046 0
 4005 02aa 324B     		ldr	r3, .L138
 4006 02ac DB79     		ldrb	r3, [r3, #7]	@ zero_extendqisi2
 4007 02ae 032B     		cmp	r3, #3
 4008 02b0 03D1     		bne	.L135
 4009              		.loc 1 1046 0 is_stmt 0 discriminator 1
 4010 02b2 304B     		ldr	r3, .L138
 4011 02b4 1B7A     		ldrb	r3, [r3, #8]	@ zero_extendqisi2
 4012 02b6 022B     		cmp	r3, #2
 4013 02b8 03D0     		beq	.L134
 4014              	.L135:
1047:.\AdvantageImpl.c ****                     CastMoneyValue(ptr, 0x08);
 4015              		.loc 1 1047 0 is_stmt 1
 4016 02ba F868     		ldr	r0, [r7, #12]
ARM GAS  C:\Users\Lenovo\AppData\Local\Temp\cccA9qMw.s 			page 90


 4017 02bc 0821     		movs	r1, #8
 4018 02be FFF7FEFF 		bl	CastMoneyValue
 4019              	.L134:
1048:.\AdvantageImpl.c ****                     
1049:.\AdvantageImpl.c ****                 FOR(uint8 buffndx = 0, buffndx < 0x08, buffndx++)
 4020              		.loc 1 1049 0
 4021 02c2 0023     		movs	r3, #0
 4022 02c4 87F82430 		strb	r3, [r7, #36]
 4023 02c8 1DE0     		b	.L136
 4024              	.L137:
1050:.\AdvantageImpl.c ****                     puartdisp->_messagetx[index++] = (0xE0 | (ptr[7 - buffndx] & 0x0F)); //Translat
 4025              		.loc 1 1050 0 discriminator 3
 4026 02ca 97F82730 		ldrb	r3, [r7, #39]	@ zero_extendqisi2
 4027 02ce 5A1C     		adds	r2, r3, #1
 4028 02d0 87F82720 		strb	r2, [r7, #39]
 4029 02d4 1946     		mov	r1, r3
 4030 02d6 97F82430 		ldrb	r3, [r7, #36]	@ zero_extendqisi2
 4031 02da C3F10703 		rsb	r3, r3, #7
 4032 02de 1A46     		mov	r2, r3
 4033 02e0 FB68     		ldr	r3, [r7, #12]
 4034 02e2 1344     		add	r3, r3, r2
 4035 02e4 1B78     		ldrb	r3, [r3]	@ zero_extendqisi2
 4036 02e6 DBB2     		uxtb	r3, r3
 4037 02e8 03F00F03 		and	r3, r3, #15
 4038 02ec DBB2     		uxtb	r3, r3
 4039 02ee 63F01F03 		orn	r3, r3, #31
 4040 02f2 DBB2     		uxtb	r3, r3
 4041 02f4 DAB2     		uxtb	r2, r3
 4042 02f6 FB69     		ldr	r3, [r7, #28]
 4043 02f8 0B44     		add	r3, r3, r1
 4044 02fa 1A71     		strb	r2, [r3, #4]
1049:.\AdvantageImpl.c ****                     puartdisp->_messagetx[index++] = (0xE0 | (ptr[7 - buffndx] & 0x0F)); //Translat
 4045              		.loc 1 1049 0 discriminator 3
 4046 02fc 97F82430 		ldrb	r3, [r7, #36]	@ zero_extendqisi2
 4047 0300 0133     		adds	r3, r3, #1
 4048 0302 87F82430 		strb	r3, [r7, #36]
 4049              	.L136:
1049:.\AdvantageImpl.c ****                     puartdisp->_messagetx[index++] = (0xE0 | (ptr[7 - buffndx] & 0x0F)); //Translat
 4050              		.loc 1 1049 0 is_stmt 0 discriminator 1
 4051 0306 97F82430 		ldrb	r3, [r7, #36]	@ zero_extendqisi2
 4052 030a 072B     		cmp	r3, #7
 4053 030c DDD9     		bls	.L137
 4054              	.L130:
 4055              	.LBE23:
1051:.\AdvantageImpl.c ****             }
1052:.\AdvantageImpl.c ****             ppump->_presetdone = true;
 4056              		.loc 1 1052 0 is_stmt 1
 4057 030e 3B6A     		ldr	r3, [r7, #32]
 4058 0310 0122     		movs	r2, #1
 4059 0312 1A72     		strb	r2, [r3, #8]
1053:.\AdvantageImpl.c ****             
1054:.\AdvantageImpl.c ****             puartdisp->_messagetx[index++] = LRCn; //LRC next
 4060              		.loc 1 1054 0
 4061 0314 97F82730 		ldrb	r3, [r7, #39]	@ zero_extendqisi2
 4062 0318 5A1C     		adds	r2, r3, #1
 4063 031a 87F82720 		strb	r2, [r7, #39]
 4064 031e 1A46     		mov	r2, r3
ARM GAS  C:\Users\Lenovo\AppData\Local\Temp\cccA9qMw.s 			page 91


 4065 0320 FB69     		ldr	r3, [r7, #28]
 4066 0322 1344     		add	r3, r3, r2
 4067 0324 FB22     		movs	r2, #251
 4068 0326 1A71     		strb	r2, [r3, #4]
1055:.\AdvantageImpl.c ****             puartdisp->_messagetx[index++] = GetLRC(puartdisp->_messagetx);
 4069              		.loc 1 1055 0
 4070 0328 97F82730 		ldrb	r3, [r7, #39]	@ zero_extendqisi2
 4071 032c 5A1C     		adds	r2, r3, #1
 4072 032e 87F82720 		strb	r2, [r7, #39]
 4073 0332 1C46     		mov	r4, r3
 4074 0334 FB69     		ldr	r3, [r7, #28]
 4075 0336 0433     		adds	r3, r3, #4
 4076 0338 1846     		mov	r0, r3
 4077 033a FFF7FEFF 		bl	GetLRC
 4078 033e 0346     		mov	r3, r0
 4079 0340 1A46     		mov	r2, r3
 4080 0342 FB69     		ldr	r3, [r7, #28]
 4081 0344 2344     		add	r3, r3, r4
 4082 0346 1A71     		strb	r2, [r3, #4]
1056:.\AdvantageImpl.c ****             puartdisp->_messagetx[index++] = EOM;
 4083              		.loc 1 1056 0
 4084 0348 97F82730 		ldrb	r3, [r7, #39]	@ zero_extendqisi2
 4085 034c 5A1C     		adds	r2, r3, #1
 4086 034e 87F82720 		strb	r2, [r7, #39]
 4087 0352 1A46     		mov	r2, r3
 4088 0354 FB69     		ldr	r3, [r7, #28]
 4089 0356 1344     		add	r3, r3, r2
 4090 0358 F022     		movs	r2, #240
 4091 035a 1A71     		strb	r2, [r3, #4]
1057:.\AdvantageImpl.c **** ///////////////////////////////////////////////////////////////////////////////////////////////////
1058:.\AdvantageImpl.c ****             
1059:.\AdvantageImpl.c ****             puartdisp->_messagelength = index;
 4092              		.loc 1 1059 0
 4093 035c 97F82730 		ldrb	r3, [r7, #39]	@ zero_extendqisi2
 4094 0360 9AB2     		uxth	r2, r3
 4095 0362 FB69     		ldr	r3, [r7, #28]
 4096 0364 5A80     		strh	r2, [r3, #2]	@ movhi
1060:.\AdvantageImpl.c ****             puartdisp->_messagestate = PENDING;
 4097              		.loc 1 1060 0
 4098 0366 FB69     		ldr	r3, [r7, #28]
 4099 0368 C222     		movs	r2, #194
 4100 036a 1A70     		strb	r2, [r3]
 4101              	.L115:
 4102              	.LBE19:
1061:.\AdvantageImpl.c ****         }
1062:.\AdvantageImpl.c ****     }
1063:.\AdvantageImpl.c ****     
1064:.\AdvantageImpl.c **** }
 4103              		.loc 1 1064 0
 4104 036c 2C37     		adds	r7, r7, #44
 4105              		.cfi_def_cfa_offset 12
 4106 036e BD46     		mov	sp, r7
 4107              		.cfi_def_cfa_register 13
 4108              		@ sp needed
 4109 0370 90BD     		pop	{r4, r7, pc}
 4110              	.L139:
 4111 0372 00BF     		.align	2
ARM GAS  C:\Users\Lenovo\AppData\Local\Temp\cccA9qMw.s 			page 92


 4112              	.L138:
 4113 0374 00000000 		.word	_g_dispenserlayoutinfo
 4114              		.cfi_endproc
 4115              	.LFE79:
 4116              		.size	PumpPresetHose, .-PumpPresetHose
 4117              		.section	.text.PumpPresetNoHose,"ax",%progbits
 4118              		.align	2
 4119              		.global	PumpPresetNoHose
 4120              		.thumb
 4121              		.thumb_func
 4122              		.type	PumpPresetNoHose, %function
 4123              	PumpPresetNoHose:
 4124              	.LFB80:
1065:.\AdvantageImpl.c **** 
1066:.\AdvantageImpl.c **** //@Created By: HIJH
1067:.\AdvantageImpl.c **** //@Septembre de 2016
1068:.\AdvantageImpl.c **** ///////////////////////////////////////////////////////////////////////////////////////////////////
1069:.\AdvantageImpl.c **** //Preset values will be placed within the SinkMessage's buffer. This is a convention that applies t
1070:.\AdvantageImpl.c **** //all of the available transactions. The pump function must deal with this while it is assembling t
1071:.\AdvantageImpl.c **** //For this message the data comes as follows:
1072:.\AdvantageImpl.c **** // - First byte is the preset type (Volume:1 / Money:2 )
1073:.\AdvantageImpl.c **** // - Block of 8 bytes for the preset value
1074:.\AdvantageImpl.c **** //This block of data (10 bytes) must be moved to another position within the same buffer (even posi
1075:.\AdvantageImpl.c **** void PumpPresetNoHose(void *pparam)
1076:.\AdvantageImpl.c **** {
 4125              		.loc 1 1076 0
 4126              		.cfi_startproc
 4127              		@ args = 0, pretend = 0, frame = 40
 4128              		@ frame_needed = 1, uses_anonymous_args = 0
 4129 0000 90B5     		push	{r4, r7, lr}
 4130              		.cfi_def_cfa_offset 12
 4131              		.cfi_offset 4, -12
 4132              		.cfi_offset 7, -8
 4133              		.cfi_offset 14, -4
 4134 0002 8BB0     		sub	sp, sp, #44
 4135              		.cfi_def_cfa_offset 56
 4136 0004 00AF     		add	r7, sp, #0
 4137              		.cfi_def_cfa_register 7
 4138 0006 7860     		str	r0, [r7, #4]
1077:.\AdvantageImpl.c ****     PNEAR_PUMPPTR ppump = (PNEAR_PUMPPTR)pparam;
 4139              		.loc 1 1077 0
 4140 0008 7B68     		ldr	r3, [r7, #4]
 4141 000a 3B62     		str	r3, [r7, #32]
1078:.\AdvantageImpl.c ****     if(ppump)
 4142              		.loc 1 1078 0
 4143 000c 3B6A     		ldr	r3, [r7, #32]
 4144 000e 002B     		cmp	r3, #0
 4145 0010 00F05381 		beq	.L140
 4146              	.LBB24:
1079:.\AdvantageImpl.c ****     {
1080:.\AdvantageImpl.c ****         uint8_t index = 0;
 4147              		.loc 1 1080 0
 4148 0014 0023     		movs	r3, #0
 4149 0016 87F82730 		strb	r3, [r7, #39]
1081:.\AdvantageImpl.c ****         memset(ppump->_rxbuffer, 0x00, _PUMP_RX_BUFFER_SIZE_);
 4150              		.loc 1 1081 0
 4151 001a 3B6A     		ldr	r3, [r7, #32]
ARM GAS  C:\Users\Lenovo\AppData\Local\Temp\cccA9qMw.s 			page 93


 4152 001c 03F5D073 		add	r3, r3, #416
 4153 0020 1846     		mov	r0, r3
 4154 0022 0021     		movs	r1, #0
 4155 0024 4FF4C072 		mov	r2, #384
 4156 0028 FFF7FEFF 		bl	memset
1082:.\AdvantageImpl.c ****         PUARTMESSAGEPTR puartdisp = GetUARTMessageSlot(UART_DISPENSER);
 4157              		.loc 1 1082 0
 4158 002c A220     		movs	r0, #162
 4159 002e FFF7FEFF 		bl	GetUARTMessageSlot
 4160 0032 F861     		str	r0, [r7, #28]
1083:.\AdvantageImpl.c ****         if(puartdisp)
 4161              		.loc 1 1083 0
 4162 0034 FB69     		ldr	r3, [r7, #28]
 4163 0036 002B     		cmp	r3, #0
 4164 0038 00F03F81 		beq	.L140
1084:.\AdvantageImpl.c ****         {
1085:.\AdvantageImpl.c **** ///////////////////////////////////////////////////////////////////////////////////////////////////
1086:.\AdvantageImpl.c ****             puartdisp->_messagetx[index++] = SOM;
 4165              		.loc 1 1086 0
 4166 003c 97F82730 		ldrb	r3, [r7, #39]	@ zero_extendqisi2
 4167 0040 5A1C     		adds	r2, r3, #1
 4168 0042 87F82720 		strb	r2, [r7, #39]
 4169 0046 1A46     		mov	r2, r3
 4170 0048 FB69     		ldr	r3, [r7, #28]
 4171 004a 1344     		add	r3, r3, r2
 4172 004c FF22     		movs	r2, #255
 4173 004e 1A71     		strb	r2, [r3, #4]
1087:.\AdvantageImpl.c ****             if(_g_dispenserlayoutinfo._displaydigitsmode == 0x06)
 4174              		.loc 1 1087 0
 4175 0050 9B4B     		ldr	r3, .L163
 4176 0052 1B7C     		ldrb	r3, [r3, #16]	@ zero_extendqisi2
 4177 0054 062B     		cmp	r3, #6
 4178 0056 40F09980 		bne	.L142
 4179              	.LBB25:
1088:.\AdvantageImpl.c ****             {
1089:.\AdvantageImpl.c ****                 uint8 transtype = (0xF0 | ((ppump->_trasactionbuffer[0x0004] == 0x0F)? 0x02: 0x01))
 4180              		.loc 1 1089 0
 4181 005a 3B6A     		ldr	r3, [r7, #32]
 4182 005c 93F82430 		ldrb	r3, [r3, #36]	@ zero_extendqisi2
 4183 0060 0F2B     		cmp	r3, #15
 4184 0062 01D1     		bne	.L143
 4185              		.loc 1 1089 0 is_stmt 0 discriminator 1
 4186 0064 F223     		movs	r3, #242
 4187 0066 00E0     		b	.L144
 4188              	.L143:
 4189              		.loc 1 1089 0 discriminator 2
 4190 0068 F123     		movs	r3, #241
 4191              	.L144:
 4192              		.loc 1 1089 0 discriminator 4
 4193 006a FB76     		strb	r3, [r7, #27]
1090:.\AdvantageImpl.c ****                 if(transtype == 0xF1)
 4194              		.loc 1 1090 0 is_stmt 1 discriminator 4
 4195 006c FB7E     		ldrb	r3, [r7, #27]	@ zero_extendqisi2
 4196 006e F12B     		cmp	r3, #241
 4197 0070 0AD1     		bne	.L145
1091:.\AdvantageImpl.c ****                     puartdisp->_messagetx[index++] = 0xE6;
 4198              		.loc 1 1091 0
ARM GAS  C:\Users\Lenovo\AppData\Local\Temp\cccA9qMw.s 			page 94


 4199 0072 97F82730 		ldrb	r3, [r7, #39]	@ zero_extendqisi2
 4200 0076 5A1C     		adds	r2, r3, #1
 4201 0078 87F82720 		strb	r2, [r7, #39]
 4202 007c 1A46     		mov	r2, r3
 4203 007e FB69     		ldr	r3, [r7, #28]
 4204 0080 1344     		add	r3, r3, r2
 4205 0082 E622     		movs	r2, #230
 4206 0084 1A71     		strb	r2, [r3, #4]
 4207 0086 09E0     		b	.L146
 4208              	.L145:
1092:.\AdvantageImpl.c ****                 else
1093:.\AdvantageImpl.c ****                     puartdisp->_messagetx[index++] = 0xE5;
 4209              		.loc 1 1093 0
 4210 0088 97F82730 		ldrb	r3, [r7, #39]	@ zero_extendqisi2
 4211 008c 5A1C     		adds	r2, r3, #1
 4212 008e 87F82720 		strb	r2, [r7, #39]
 4213 0092 1A46     		mov	r2, r3
 4214 0094 FB69     		ldr	r3, [r7, #28]
 4215 0096 1344     		add	r3, r3, r2
 4216 0098 E522     		movs	r2, #229
 4217 009a 1A71     		strb	r2, [r3, #4]
 4218              	.L146:
1094:.\AdvantageImpl.c **** 
1095:.\AdvantageImpl.c ****                 ///THIS IS AN APPLIED CONVENTION ===>> 0x0004 INDEX POSITION WITHIN THE PUMP'S BUFF
1096:.\AdvantageImpl.c ****                 ///THESE CODES MUST BE MATCHED OTHERWISE THE LOGIC WILL BREAKUP THE CODE!
1097:.\AdvantageImpl.c ****                 puartdisp->_messagetx[index++] = transtype;
 4219              		.loc 1 1097 0
 4220 009c 97F82730 		ldrb	r3, [r7, #39]	@ zero_extendqisi2
 4221 00a0 5A1C     		adds	r2, r3, #1
 4222 00a2 87F82720 		strb	r2, [r7, #39]
 4223 00a6 1A46     		mov	r2, r3
 4224 00a8 FB69     		ldr	r3, [r7, #28]
 4225 00aa 1344     		add	r3, r3, r2
 4226 00ac FA7E     		ldrb	r2, [r7, #27]
 4227 00ae 1A71     		strb	r2, [r3, #4]
1098:.\AdvantageImpl.c ****                             
1099:.\AdvantageImpl.c ****                 puartdisp->_messagetx[index++] = 0xF8; //Preset Data next
 4228              		.loc 1 1099 0
 4229 00b0 97F82730 		ldrb	r3, [r7, #39]	@ zero_extendqisi2
 4230 00b4 5A1C     		adds	r2, r3, #1
 4231 00b6 87F82720 		strb	r2, [r7, #39]
 4232 00ba 1A46     		mov	r2, r3
 4233 00bc FB69     		ldr	r3, [r7, #28]
 4234 00be 1344     		add	r3, r3, r2
 4235 00c0 F822     		movs	r2, #248
 4236 00c2 1A71     		strb	r2, [r3, #4]
1100:.\AdvantageImpl.c ****                 //Here we copy the remaining 8 bytes for the preset value
1101:.\AdvantageImpl.c ****                 ///THIS IS AN APPLIED CONVENTION ===>> 0x0008 INDEX POSITION WITHIN THE PUMP'S BUFF
1102:.\AdvantageImpl.c ****                 ///THESE CODES MUST BE MATCHED OTHERWISE THE LOGIC WILL BREAKUP THE CODE!
1103:.\AdvantageImpl.c ****                 char8 *ptr = &ppump->_trasactionbuffer[0x0008];
 4237              		.loc 1 1103 0
 4238 00c4 3B6A     		ldr	r3, [r7, #32]
 4239 00c6 2833     		adds	r3, r3, #40
 4240 00c8 7B61     		str	r3, [r7, #20]
1104:.\AdvantageImpl.c ****                 if(transtype == 0xF1) //Volume PRESET, then multiply by 1000
 4241              		.loc 1 1104 0
 4242 00ca FB7E     		ldrb	r3, [r7, #27]	@ zero_extendqisi2
ARM GAS  C:\Users\Lenovo\AppData\Local\Temp\cccA9qMw.s 			page 95


 4243 00cc F12B     		cmp	r3, #241
 4244 00ce 2AD1     		bne	.L147
 4245              	.LBB26:
1105:.\AdvantageImpl.c ****                 {
1106:.\AdvantageImpl.c ****                     CastVolumeValue(ptr, 0x08);
 4246              		.loc 1 1106 0
 4247 00d0 7869     		ldr	r0, [r7, #20]
 4248 00d2 0821     		movs	r1, #8
 4249 00d4 FFF7FEFF 		bl	CastVolumeValue
1107:.\AdvantageImpl.c ****                 
1108:.\AdvantageImpl.c ****                     FOR(uint8 buffndx = 0, buffndx < 0x05, buffndx++)
 4250              		.loc 1 1108 0
 4251 00d8 0023     		movs	r3, #0
 4252 00da 87F82630 		strb	r3, [r7, #38]
 4253 00de 1DE0     		b	.L148
 4254              	.L149:
1109:.\AdvantageImpl.c ****                         puartdisp->_messagetx[index++] = (0xE0 | (ptr[7 - buffndx] & 0x0F)); //Tran
 4255              		.loc 1 1109 0 discriminator 3
 4256 00e0 97F82730 		ldrb	r3, [r7, #39]	@ zero_extendqisi2
 4257 00e4 5A1C     		adds	r2, r3, #1
 4258 00e6 87F82720 		strb	r2, [r7, #39]
 4259 00ea 1946     		mov	r1, r3
 4260 00ec 97F82630 		ldrb	r3, [r7, #38]	@ zero_extendqisi2
 4261 00f0 C3F10703 		rsb	r3, r3, #7
 4262 00f4 1A46     		mov	r2, r3
 4263 00f6 7B69     		ldr	r3, [r7, #20]
 4264 00f8 1344     		add	r3, r3, r2
 4265 00fa 1B78     		ldrb	r3, [r3]	@ zero_extendqisi2
 4266 00fc DBB2     		uxtb	r3, r3
 4267 00fe 03F00F03 		and	r3, r3, #15
 4268 0102 DBB2     		uxtb	r3, r3
 4269 0104 63F01F03 		orn	r3, r3, #31
 4270 0108 DBB2     		uxtb	r3, r3
 4271 010a DAB2     		uxtb	r2, r3
 4272 010c FB69     		ldr	r3, [r7, #28]
 4273 010e 0B44     		add	r3, r3, r1
 4274 0110 1A71     		strb	r2, [r3, #4]
1108:.\AdvantageImpl.c ****                         puartdisp->_messagetx[index++] = (0xE0 | (ptr[7 - buffndx] & 0x0F)); //Tran
 4275              		.loc 1 1108 0 discriminator 3
 4276 0112 97F82630 		ldrb	r3, [r7, #38]	@ zero_extendqisi2
 4277 0116 0133     		adds	r3, r3, #1
 4278 0118 87F82630 		strb	r3, [r7, #38]
 4279              	.L148:
1108:.\AdvantageImpl.c ****                         puartdisp->_messagetx[index++] = (0xE0 | (ptr[7 - buffndx] & 0x0F)); //Tran
 4280              		.loc 1 1108 0 is_stmt 0 discriminator 1
 4281 011c 97F82630 		ldrb	r3, [r7, #38]	@ zero_extendqisi2
 4282 0120 042B     		cmp	r3, #4
 4283 0122 DDD9     		bls	.L149
 4284              	.LBE26:
 4285 0124 31E0     		b	.L150
 4286              	.L147:
 4287              	.LBB27:
1110:.\AdvantageImpl.c ****                 }
1111:.\AdvantageImpl.c ****                 else
1112:.\AdvantageImpl.c ****                 {
1113:.\AdvantageImpl.c ****                     if(!(_g_dispenserlayoutinfo._moneydecimals == 0x03 && _g_dispenserlayoutinfo._p
 4288              		.loc 1 1113 0 is_stmt 1
ARM GAS  C:\Users\Lenovo\AppData\Local\Temp\cccA9qMw.s 			page 96


 4289 0126 664B     		ldr	r3, .L163
 4290 0128 DB79     		ldrb	r3, [r3, #7]	@ zero_extendqisi2
 4291 012a 032B     		cmp	r3, #3
 4292 012c 03D1     		bne	.L151
 4293              		.loc 1 1113 0 is_stmt 0 discriminator 1
 4294 012e 644B     		ldr	r3, .L163
 4295 0130 1B7A     		ldrb	r3, [r3, #8]	@ zero_extendqisi2
 4296 0132 022B     		cmp	r3, #2
 4297 0134 03D0     		beq	.L152
 4298              	.L151:
1114:.\AdvantageImpl.c ****                         CastMoneyValue(ptr, 0x08);
 4299              		.loc 1 1114 0 is_stmt 1
 4300 0136 7869     		ldr	r0, [r7, #20]
 4301 0138 0821     		movs	r1, #8
 4302 013a FFF7FEFF 		bl	CastMoneyValue
 4303              	.L152:
1115:.\AdvantageImpl.c ****                     
1116:.\AdvantageImpl.c ****                     FOR(uint8 buffndx = 0, buffndx < 0x06, buffndx++)
 4304              		.loc 1 1116 0
 4305 013e 0023     		movs	r3, #0
 4306 0140 87F82530 		strb	r3, [r7, #37]
 4307 0144 1DE0     		b	.L153
 4308              	.L154:
1117:.\AdvantageImpl.c ****                         puartdisp->_messagetx[index++] = (0xE0 | (ptr[7 - buffndx] & 0x0F)); //Tran
 4309              		.loc 1 1117 0 discriminator 3
 4310 0146 97F82730 		ldrb	r3, [r7, #39]	@ zero_extendqisi2
 4311 014a 5A1C     		adds	r2, r3, #1
 4312 014c 87F82720 		strb	r2, [r7, #39]
 4313 0150 1946     		mov	r1, r3
 4314 0152 97F82530 		ldrb	r3, [r7, #37]	@ zero_extendqisi2
 4315 0156 C3F10703 		rsb	r3, r3, #7
 4316 015a 1A46     		mov	r2, r3
 4317 015c 7B69     		ldr	r3, [r7, #20]
 4318 015e 1344     		add	r3, r3, r2
 4319 0160 1B78     		ldrb	r3, [r3]	@ zero_extendqisi2
 4320 0162 DBB2     		uxtb	r3, r3
 4321 0164 03F00F03 		and	r3, r3, #15
 4322 0168 DBB2     		uxtb	r3, r3
 4323 016a 63F01F03 		orn	r3, r3, #31
 4324 016e DBB2     		uxtb	r3, r3
 4325 0170 DAB2     		uxtb	r2, r3
 4326 0172 FB69     		ldr	r3, [r7, #28]
 4327 0174 0B44     		add	r3, r3, r1
 4328 0176 1A71     		strb	r2, [r3, #4]
1116:.\AdvantageImpl.c ****                         puartdisp->_messagetx[index++] = (0xE0 | (ptr[7 - buffndx] & 0x0F)); //Tran
 4329              		.loc 1 1116 0 discriminator 3
 4330 0178 97F82530 		ldrb	r3, [r7, #37]	@ zero_extendqisi2
 4331 017c 0133     		adds	r3, r3, #1
 4332 017e 87F82530 		strb	r3, [r7, #37]
 4333              	.L153:
1116:.\AdvantageImpl.c ****                         puartdisp->_messagetx[index++] = (0xE0 | (ptr[7 - buffndx] & 0x0F)); //Tran
 4334              		.loc 1 1116 0 is_stmt 0 discriminator 1
 4335 0182 97F82530 		ldrb	r3, [r7, #37]	@ zero_extendqisi2
 4336 0186 052B     		cmp	r3, #5
 4337 0188 DDD9     		bls	.L154
 4338              	.L150:
 4339              	.LBE27:
ARM GAS  C:\Users\Lenovo\AppData\Local\Temp\cccA9qMw.s 			page 97


 4340              	.LBE25:
 4341 018a 67E0     		b	.L155
 4342              	.L142:
1118:.\AdvantageImpl.c ****                 }
1119:.\AdvantageImpl.c ****             }
1120:.\AdvantageImpl.c ****             else if(_g_dispenserlayoutinfo._displaydigitsmode == 0x07)
 4343              		.loc 1 1120 0 is_stmt 1
 4344 018c 4C4B     		ldr	r3, .L163
 4345 018e 1B7C     		ldrb	r3, [r3, #16]	@ zero_extendqisi2
 4346 0190 072B     		cmp	r3, #7
 4347 0192 63D1     		bne	.L155
 4348              	.LBB28:
1121:.\AdvantageImpl.c ****             {
1122:.\AdvantageImpl.c ****                 puartdisp->_messagetx[index++] = 0xE3;
 4349              		.loc 1 1122 0
 4350 0194 97F82730 		ldrb	r3, [r7, #39]	@ zero_extendqisi2
 4351 0198 5A1C     		adds	r2, r3, #1
 4352 019a 87F82720 		strb	r2, [r7, #39]
 4353 019e 1A46     		mov	r2, r3
 4354 01a0 FB69     		ldr	r3, [r7, #28]
 4355 01a2 1344     		add	r3, r3, r2
 4356 01a4 E322     		movs	r2, #227
 4357 01a6 1A71     		strb	r2, [r3, #4]
1123:.\AdvantageImpl.c **** 
1124:.\AdvantageImpl.c ****                 ///THIS IS AN APPLIED CONVENTION ===>> 0x0004 INDEX POSITION WITHIN THE PUMP'S BUFF
1125:.\AdvantageImpl.c ****                 ///THESE CODES MUST BE MATCHED OTHERWISE THE LOGIC WILL BREAKUP THE CODE!
1126:.\AdvantageImpl.c ****                 uint8 transtype = (0xF0 | ((ppump->_trasactionbuffer[0x0004] == 0x0F)? 0x02: 0x01))
 4358              		.loc 1 1126 0
 4359 01a8 3B6A     		ldr	r3, [r7, #32]
 4360 01aa 93F82430 		ldrb	r3, [r3, #36]	@ zero_extendqisi2
 4361 01ae 0F2B     		cmp	r3, #15
 4362 01b0 01D1     		bne	.L156
 4363              		.loc 1 1126 0 is_stmt 0 discriminator 1
 4364 01b2 F223     		movs	r3, #242
 4365 01b4 00E0     		b	.L157
 4366              	.L156:
 4367              		.loc 1 1126 0 discriminator 2
 4368 01b6 F123     		movs	r3, #241
 4369              	.L157:
 4370              		.loc 1 1126 0 discriminator 4
 4371 01b8 FB74     		strb	r3, [r7, #19]
1127:.\AdvantageImpl.c ****                 puartdisp->_messagetx[index++] = transtype;
 4372              		.loc 1 1127 0 is_stmt 1 discriminator 4
 4373 01ba 97F82730 		ldrb	r3, [r7, #39]	@ zero_extendqisi2
 4374 01be 5A1C     		adds	r2, r3, #1
 4375 01c0 87F82720 		strb	r2, [r7, #39]
 4376 01c4 1A46     		mov	r2, r3
 4377 01c6 FB69     		ldr	r3, [r7, #28]
 4378 01c8 1344     		add	r3, r3, r2
 4379 01ca FA7C     		ldrb	r2, [r7, #19]
 4380 01cc 1A71     		strb	r2, [r3, #4]
1128:.\AdvantageImpl.c ****                             
1129:.\AdvantageImpl.c ****                 puartdisp->_messagetx[index++] = 0xF8; //Preset Data next
 4381              		.loc 1 1129 0 discriminator 4
 4382 01ce 97F82730 		ldrb	r3, [r7, #39]	@ zero_extendqisi2
 4383 01d2 5A1C     		adds	r2, r3, #1
 4384 01d4 87F82720 		strb	r2, [r7, #39]
ARM GAS  C:\Users\Lenovo\AppData\Local\Temp\cccA9qMw.s 			page 98


 4385 01d8 1A46     		mov	r2, r3
 4386 01da FB69     		ldr	r3, [r7, #28]
 4387 01dc 1344     		add	r3, r3, r2
 4388 01de F822     		movs	r2, #248
 4389 01e0 1A71     		strb	r2, [r3, #4]
1130:.\AdvantageImpl.c ****                 //Here we copy the remaining 8 bytes for the preset value
1131:.\AdvantageImpl.c ****                 ///THIS IS AN APPLIED CONVENTION ===>> 0x0008 INDEX POSITION WITHIN THE PUMP'S BUFF
1132:.\AdvantageImpl.c ****                 ///THESE CODES MUST BE MATCHED OTHERWISE THE LOGIC WILL BREAKUP THE CODE!
1133:.\AdvantageImpl.c ****                 char8 *ptr = &ppump->_trasactionbuffer[0x0008];
 4390              		.loc 1 1133 0 discriminator 4
 4391 01e2 3B6A     		ldr	r3, [r7, #32]
 4392 01e4 2833     		adds	r3, r3, #40
 4393 01e6 FB60     		str	r3, [r7, #12]
1134:.\AdvantageImpl.c ****                 if(transtype == 0xF1) //Volume PRESET, then multiply by 1000
 4394              		.loc 1 1134 0 discriminator 4
 4395 01e8 FB7C     		ldrb	r3, [r7, #19]	@ zero_extendqisi2
 4396 01ea F12B     		cmp	r3, #241
 4397 01ec 04D1     		bne	.L158
1135:.\AdvantageImpl.c ****                     CastVolumeValue(ptr, 0x08);
 4398              		.loc 1 1135 0
 4399 01ee F868     		ldr	r0, [r7, #12]
 4400 01f0 0821     		movs	r1, #8
 4401 01f2 FFF7FEFF 		bl	CastVolumeValue
 4402 01f6 0BE0     		b	.L159
 4403              	.L158:
1136:.\AdvantageImpl.c ****                 else if(!(_g_dispenserlayoutinfo._moneydecimals == 0x03 && _g_dispenserlayoutinfo._
 4404              		.loc 1 1136 0
 4405 01f8 314B     		ldr	r3, .L163
 4406 01fa DB79     		ldrb	r3, [r3, #7]	@ zero_extendqisi2
 4407 01fc 032B     		cmp	r3, #3
 4408 01fe 03D1     		bne	.L160
 4409              		.loc 1 1136 0 is_stmt 0 discriminator 1
 4410 0200 2F4B     		ldr	r3, .L163
 4411 0202 1B7A     		ldrb	r3, [r3, #8]	@ zero_extendqisi2
 4412 0204 022B     		cmp	r3, #2
 4413 0206 03D0     		beq	.L159
 4414              	.L160:
1137:.\AdvantageImpl.c ****                     CastMoneyValue(ptr, 0x08);
 4415              		.loc 1 1137 0 is_stmt 1
 4416 0208 F868     		ldr	r0, [r7, #12]
 4417 020a 0821     		movs	r1, #8
 4418 020c FFF7FEFF 		bl	CastMoneyValue
 4419              	.L159:
1138:.\AdvantageImpl.c ****                 
1139:.\AdvantageImpl.c ****                 FOR(uint8 buffndx = 0, buffndx < 0x08, buffndx++)
 4420              		.loc 1 1139 0
 4421 0210 0023     		movs	r3, #0
 4422 0212 87F82430 		strb	r3, [r7, #36]
 4423 0216 1DE0     		b	.L161
 4424              	.L162:
1140:.\AdvantageImpl.c ****                     puartdisp->_messagetx[index++] = (0xE0 | (ptr[7 - buffndx] & 0x0F)); //Translat
 4425              		.loc 1 1140 0 discriminator 3
 4426 0218 97F82730 		ldrb	r3, [r7, #39]	@ zero_extendqisi2
 4427 021c 5A1C     		adds	r2, r3, #1
 4428 021e 87F82720 		strb	r2, [r7, #39]
 4429 0222 1946     		mov	r1, r3
 4430 0224 97F82430 		ldrb	r3, [r7, #36]	@ zero_extendqisi2
ARM GAS  C:\Users\Lenovo\AppData\Local\Temp\cccA9qMw.s 			page 99


 4431 0228 C3F10703 		rsb	r3, r3, #7
 4432 022c 1A46     		mov	r2, r3
 4433 022e FB68     		ldr	r3, [r7, #12]
 4434 0230 1344     		add	r3, r3, r2
 4435 0232 1B78     		ldrb	r3, [r3]	@ zero_extendqisi2
 4436 0234 DBB2     		uxtb	r3, r3
 4437 0236 03F00F03 		and	r3, r3, #15
 4438 023a DBB2     		uxtb	r3, r3
 4439 023c 63F01F03 		orn	r3, r3, #31
 4440 0240 DBB2     		uxtb	r3, r3
 4441 0242 DAB2     		uxtb	r2, r3
 4442 0244 FB69     		ldr	r3, [r7, #28]
 4443 0246 0B44     		add	r3, r3, r1
 4444 0248 1A71     		strb	r2, [r3, #4]
1139:.\AdvantageImpl.c ****                     puartdisp->_messagetx[index++] = (0xE0 | (ptr[7 - buffndx] & 0x0F)); //Translat
 4445              		.loc 1 1139 0 discriminator 3
 4446 024a 97F82430 		ldrb	r3, [r7, #36]	@ zero_extendqisi2
 4447 024e 0133     		adds	r3, r3, #1
 4448 0250 87F82430 		strb	r3, [r7, #36]
 4449              	.L161:
1139:.\AdvantageImpl.c ****                     puartdisp->_messagetx[index++] = (0xE0 | (ptr[7 - buffndx] & 0x0F)); //Translat
 4450              		.loc 1 1139 0 is_stmt 0 discriminator 1
 4451 0254 97F82430 		ldrb	r3, [r7, #36]	@ zero_extendqisi2
 4452 0258 072B     		cmp	r3, #7
 4453 025a DDD9     		bls	.L162
 4454              	.L155:
 4455              	.LBE28:
1141:.\AdvantageImpl.c ****             }
1142:.\AdvantageImpl.c ****             ppump->_presetdone = true;
 4456              		.loc 1 1142 0 is_stmt 1
 4457 025c 3B6A     		ldr	r3, [r7, #32]
 4458 025e 0122     		movs	r2, #1
 4459 0260 1A72     		strb	r2, [r3, #8]
1143:.\AdvantageImpl.c **** 
1144:.\AdvantageImpl.c ****             puartdisp->_messagetx[index++] = LRCn; //LRC next
 4460              		.loc 1 1144 0
 4461 0262 97F82730 		ldrb	r3, [r7, #39]	@ zero_extendqisi2
 4462 0266 5A1C     		adds	r2, r3, #1
 4463 0268 87F82720 		strb	r2, [r7, #39]
 4464 026c 1A46     		mov	r2, r3
 4465 026e FB69     		ldr	r3, [r7, #28]
 4466 0270 1344     		add	r3, r3, r2
 4467 0272 FB22     		movs	r2, #251
 4468 0274 1A71     		strb	r2, [r3, #4]
1145:.\AdvantageImpl.c ****             puartdisp->_messagetx[index++] = GetLRC(puartdisp->_messagetx);
 4469              		.loc 1 1145 0
 4470 0276 97F82730 		ldrb	r3, [r7, #39]	@ zero_extendqisi2
 4471 027a 5A1C     		adds	r2, r3, #1
 4472 027c 87F82720 		strb	r2, [r7, #39]
 4473 0280 1C46     		mov	r4, r3
 4474 0282 FB69     		ldr	r3, [r7, #28]
 4475 0284 0433     		adds	r3, r3, #4
 4476 0286 1846     		mov	r0, r3
 4477 0288 FFF7FEFF 		bl	GetLRC
 4478 028c 0346     		mov	r3, r0
 4479 028e 1A46     		mov	r2, r3
 4480 0290 FB69     		ldr	r3, [r7, #28]
ARM GAS  C:\Users\Lenovo\AppData\Local\Temp\cccA9qMw.s 			page 100


 4481 0292 2344     		add	r3, r3, r4
 4482 0294 1A71     		strb	r2, [r3, #4]
1146:.\AdvantageImpl.c ****             puartdisp->_messagetx[index++] = EOM;
 4483              		.loc 1 1146 0
 4484 0296 97F82730 		ldrb	r3, [r7, #39]	@ zero_extendqisi2
 4485 029a 5A1C     		adds	r2, r3, #1
 4486 029c 87F82720 		strb	r2, [r7, #39]
 4487 02a0 1A46     		mov	r2, r3
 4488 02a2 FB69     		ldr	r3, [r7, #28]
 4489 02a4 1344     		add	r3, r3, r2
 4490 02a6 F022     		movs	r2, #240
 4491 02a8 1A71     		strb	r2, [r3, #4]
1147:.\AdvantageImpl.c **** ///////////////////////////////////////////////////////////////////////////////////////////////////
1148:.\AdvantageImpl.c ****             
1149:.\AdvantageImpl.c ****             puartdisp->_messagelength = index;
 4492              		.loc 1 1149 0
 4493 02aa 97F82730 		ldrb	r3, [r7, #39]	@ zero_extendqisi2
 4494 02ae 9AB2     		uxth	r2, r3
 4495 02b0 FB69     		ldr	r3, [r7, #28]
 4496 02b2 5A80     		strh	r2, [r3, #2]	@ movhi
1150:.\AdvantageImpl.c ****             puartdisp->_messagestate = PENDING;
 4497              		.loc 1 1150 0
 4498 02b4 FB69     		ldr	r3, [r7, #28]
 4499 02b6 C222     		movs	r2, #194
 4500 02b8 1A70     		strb	r2, [r3]
 4501              	.L140:
 4502              	.LBE24:
1151:.\AdvantageImpl.c ****         }
1152:.\AdvantageImpl.c ****     }
1153:.\AdvantageImpl.c ****     
1154:.\AdvantageImpl.c **** }
 4503              		.loc 1 1154 0
 4504 02ba 2C37     		adds	r7, r7, #44
 4505              		.cfi_def_cfa_offset 12
 4506 02bc BD46     		mov	sp, r7
 4507              		.cfi_def_cfa_register 13
 4508              		@ sp needed
 4509 02be 90BD     		pop	{r4, r7, pc}
 4510              	.L164:
 4511              		.align	2
 4512              	.L163:
 4513 02c0 00000000 		.word	_g_dispenserlayoutinfo
 4514              		.cfi_endproc
 4515              	.LFE80:
 4516              		.size	PumpPresetNoHose, .-PumpPresetNoHose
 4517              		.section	.text.PumpPresetNotification,"ax",%progbits
 4518              		.align	2
 4519              		.global	PumpPresetNotification
 4520              		.thumb
 4521              		.thumb_func
 4522              		.type	PumpPresetNotification, %function
 4523              	PumpPresetNotification:
 4524              	.LFB81:
1155:.\AdvantageImpl.c **** 
1156:.\AdvantageImpl.c **** //@Created By: HIJH
1157:.\AdvantageImpl.c **** //@Septembre de 2016
1158:.\AdvantageImpl.c **** //Message to be notified to the remote peer (NSX)
ARM GAS  C:\Users\Lenovo\AppData\Local\Temp\cccA9qMw.s 			page 101


1159:.\AdvantageImpl.c **** void PumpPresetNotification(LPVOID pparam)
1160:.\AdvantageImpl.c **** {
 4525              		.loc 1 1160 0
 4526              		.cfi_startproc
 4527              		@ args = 0, pretend = 0, frame = 32
 4528              		@ frame_needed = 1, uses_anonymous_args = 0
 4529 0000 B0B5     		push	{r4, r5, r7, lr}
 4530              		.cfi_def_cfa_offset 16
 4531              		.cfi_offset 4, -16
 4532              		.cfi_offset 5, -12
 4533              		.cfi_offset 7, -8
 4534              		.cfi_offset 14, -4
 4535 0002 88B0     		sub	sp, sp, #32
 4536              		.cfi_def_cfa_offset 48
 4537 0004 00AF     		add	r7, sp, #0
 4538              		.cfi_def_cfa_register 7
 4539 0006 7860     		str	r0, [r7, #4]
1161:.\AdvantageImpl.c ****     PPUMPTRANSACTIONJOBCONTEXTPTR pjob = (PPUMPTRANSACTIONJOBCONTEXTPTR)pparam;
 4540              		.loc 1 1161 0
 4541 0008 7B68     		ldr	r3, [r7, #4]
 4542 000a FB61     		str	r3, [r7, #28]
1162:.\AdvantageImpl.c ****     if(pjob)
 4543              		.loc 1 1162 0
 4544 000c FB69     		ldr	r3, [r7, #28]
 4545 000e 002B     		cmp	r3, #0
 4546 0010 00F0FD80 		beq	.L165
 4547              	.LBB29:
1163:.\AdvantageImpl.c ****     {
1164:.\AdvantageImpl.c ****         //HERE WE ATTEMPT TO PUSH THE TRANSACTION INTO THE PUMP'S TRANSACTIONAL QUEUE.
1165:.\AdvantageImpl.c ****         //THIS IS DONE ONLY IF THERE IS ROOM IN THE QUEUE, OTHERWISE THIS STATE WON'T
1166:.\AdvantageImpl.c ****         //BE REPORTED TO THE REMOTE PEER.
1167:.\AdvantageImpl.c ****         pjob->_ppump->PumpTransQueueLock(pjob->_ppump);
 4548              		.loc 1 1167 0
 4549 0014 FB69     		ldr	r3, [r7, #28]
 4550 0016 DB69     		ldr	r3, [r3, #28]
 4551 0018 D3F8443B 		ldr	r3, [r3, #2884]
 4552 001c FA69     		ldr	r2, [r7, #28]
 4553 001e D269     		ldr	r2, [r2, #28]
 4554 0020 1046     		mov	r0, r2
 4555 0022 9847     		blx	r3
1168:.\AdvantageImpl.c ****         PNEAR_PUMPTRANSACTIONALSTATEPTR pts = pjob->_ppump->PumpTransQueueAllocate(pjob->_ppump);
 4556              		.loc 1 1168 0
 4557 0024 FB69     		ldr	r3, [r7, #28]
 4558 0026 DB69     		ldr	r3, [r3, #28]
 4559 0028 D3F8583B 		ldr	r3, [r3, #2904]
 4560 002c FA69     		ldr	r2, [r7, #28]
 4561 002e D269     		ldr	r2, [r2, #28]
 4562 0030 1046     		mov	r0, r2
 4563 0032 9847     		blx	r3
 4564 0034 B861     		str	r0, [r7, #24]
1169:.\AdvantageImpl.c ****         pjob->_ppump->PumpTransQueueUnlock(pjob->_ppump);
 4565              		.loc 1 1169 0
 4566 0036 FB69     		ldr	r3, [r7, #28]
 4567 0038 DB69     		ldr	r3, [r3, #28]
 4568 003a D3F8483B 		ldr	r3, [r3, #2888]
 4569 003e FA69     		ldr	r2, [r7, #28]
 4570 0040 D269     		ldr	r2, [r2, #28]
ARM GAS  C:\Users\Lenovo\AppData\Local\Temp\cccA9qMw.s 			page 102


 4571 0042 1046     		mov	r0, r2
 4572 0044 9847     		blx	r3
1170:.\AdvantageImpl.c ****         if(pts)
 4573              		.loc 1 1170 0
 4574 0046 BB69     		ldr	r3, [r7, #24]
 4575 0048 002B     		cmp	r3, #0
 4576 004a 00F0E080 		beq	.L165
 4577              	.LBB30:
1171:.\AdvantageImpl.c ****         {
1172:.\AdvantageImpl.c ****             uint8 index = 0;
 4578              		.loc 1 1172 0
 4579 004e 0023     		movs	r3, #0
 4580 0050 FB75     		strb	r3, [r7, #23]
1173:.\AdvantageImpl.c ****             pts->_transtate = RF_MUX_CASH_SALE_START_REQUEST;
 4581              		.loc 1 1173 0
 4582 0052 BB69     		ldr	r3, [r7, #24]
 4583 0054 AA22     		movs	r2, #170
 4584 0056 5A70     		strb	r2, [r3, #1]
1174:.\AdvantageImpl.c ****             //Pump ID always comes in position 0x00
1175:.\AdvantageImpl.c ****             pts->_buffer[index++] = pjob->_ppump->_pumpid;
 4585              		.loc 1 1175 0
 4586 0058 FB7D     		ldrb	r3, [r7, #23]	@ zero_extendqisi2
 4587 005a 5A1C     		adds	r2, r3, #1
 4588 005c FA75     		strb	r2, [r7, #23]
 4589 005e 1946     		mov	r1, r3
 4590 0060 FB69     		ldr	r3, [r7, #28]
 4591 0062 DB69     		ldr	r3, [r3, #28]
 4592 0064 1A78     		ldrb	r2, [r3]	@ zero_extendqisi2
 4593 0066 BB69     		ldr	r3, [r7, #24]
 4594 0068 0B44     		add	r3, r3, r1
 4595 006a 9A70     		strb	r2, [r3, #2]
1176:.\AdvantageImpl.c ****             //PRESET type
1177:.\AdvantageImpl.c ****             pts->_buffer[index++] = (0xF0 | ((pjob->_ppump->_trasactionbuffer[0x0004] == 0x0F)? 0x0
 4596              		.loc 1 1177 0
 4597 006c FB7D     		ldrb	r3, [r7, #23]	@ zero_extendqisi2
 4598 006e 5A1C     		adds	r2, r3, #1
 4599 0070 FA75     		strb	r2, [r7, #23]
 4600 0072 1946     		mov	r1, r3
 4601 0074 FB69     		ldr	r3, [r7, #28]
 4602 0076 DB69     		ldr	r3, [r3, #28]
 4603 0078 93F82430 		ldrb	r3, [r3, #36]	@ zero_extendqisi2
 4604 007c 0F2B     		cmp	r3, #15
 4605 007e 01D1     		bne	.L167
 4606              		.loc 1 1177 0 is_stmt 0 discriminator 1
 4607 0080 F222     		movs	r2, #242
 4608 0082 00E0     		b	.L168
 4609              	.L167:
 4610              		.loc 1 1177 0 discriminator 2
 4611 0084 F122     		movs	r2, #241
 4612              	.L168:
 4613              		.loc 1 1177 0 discriminator 4
 4614 0086 BB69     		ldr	r3, [r7, #24]
 4615 0088 0B44     		add	r3, r3, r1
 4616 008a 9A70     		strb	r2, [r3, #2]
1178:.\AdvantageImpl.c ****             
1179:.\AdvantageImpl.c ****             //Entering here means that volume preset was chosen and since this is a 6-6-4 dispenser
1180:.\AdvantageImpl.c ****             if(pjob->_ppump->_trasactionbuffer[0x0004] == 0x10)
ARM GAS  C:\Users\Lenovo\AppData\Local\Temp\cccA9qMw.s 			page 103


 4617              		.loc 1 1180 0 is_stmt 1 discriminator 4
 4618 008c FB69     		ldr	r3, [r7, #28]
 4619 008e DB69     		ldr	r3, [r3, #28]
 4620 0090 93F82430 		ldrb	r3, [r3, #36]	@ zero_extendqisi2
 4621 0094 102B     		cmp	r3, #16
 4622 0096 28D1     		bne	.L169
 4623              	.LBB31:
1181:.\AdvantageImpl.c ****             {
1182:.\AdvantageImpl.c ****                 PSTRBUFFTOGG(PBYTECAST(&pjob->_ppump->_trasactionbuffer[0x0008]), 0x08);
 4624              		.loc 1 1182 0
 4625 0098 FB69     		ldr	r3, [r7, #28]
 4626 009a DB69     		ldr	r3, [r3, #28]
 4627 009c 2833     		adds	r3, r3, #40
 4628 009e 1846     		mov	r0, r3
 4629 00a0 0821     		movs	r1, #8
 4630 00a2 FFF7FEFF 		bl	PSTRBUFFTOGG
1183:.\AdvantageImpl.c ****                 uint32 volumeamount = LSDBCDBUFF2HEX(PBYTECAST(&pjob->_ppump->_trasactionbuffer[0x0
 4631              		.loc 1 1183 0
 4632 00a6 FB69     		ldr	r3, [r7, #28]
 4633 00a8 DB69     		ldr	r3, [r3, #28]
 4634 00aa 2833     		adds	r3, r3, #40
 4635 00ac 1846     		mov	r0, r3
 4636 00ae 0821     		movs	r1, #8
 4637 00b0 FFF7FEFF 		bl	LSDBCDBUFF2HEX
 4638 00b4 3861     		str	r0, [r7, #16]
1184:.\AdvantageImpl.c ****                 memset(PBYTECAST(&pjob->_ppump->_trasactionbuffer[0x0008]), 0x00, 0x08);
 4639              		.loc 1 1184 0
 4640 00b6 FB69     		ldr	r3, [r7, #28]
 4641 00b8 DB69     		ldr	r3, [r3, #28]
 4642 00ba 2833     		adds	r3, r3, #40
 4643 00bc 1846     		mov	r0, r3
 4644 00be 0021     		movs	r1, #0
 4645 00c0 0822     		movs	r2, #8
 4646 00c2 FFF7FEFF 		bl	memset
1185:.\AdvantageImpl.c ****                 B78AD90CF552D9B30A(volumeamount * 10, PBYTECAST(&pjob->_ppump->_trasactionbuffer[0x
 4647              		.loc 1 1185 0
 4648 00c6 3A69     		ldr	r2, [r7, #16]
 4649 00c8 1346     		mov	r3, r2
 4650 00ca 9B00     		lsls	r3, r3, #2
 4651 00cc 1344     		add	r3, r3, r2
 4652 00ce 5B00     		lsls	r3, r3, #1
 4653 00d0 1A46     		mov	r2, r3
 4654 00d2 4FF00003 		mov	r3, #0
 4655 00d6 F969     		ldr	r1, [r7, #28]
 4656 00d8 C969     		ldr	r1, [r1, #28]
 4657 00da 01F12804 		add	r4, r1, #40
 4658 00de 1046     		mov	r0, r2
 4659 00e0 1946     		mov	r1, r3
 4660 00e2 2246     		mov	r2, r4
 4661 00e4 FFF7FEFF 		bl	B78AD90CF552D9B30A
 4662              	.LBE31:
 4663 00e8 06E0     		b	.L170
 4664              	.L169:
1186:.\AdvantageImpl.c ****             }else//Money PRESET
1187:.\AdvantageImpl.c ****                 PSTRBUFFTOGG(PBYTECAST(&pjob->_ppump->_trasactionbuffer[0x0008]), 0x08);
 4665              		.loc 1 1187 0
 4666 00ea FB69     		ldr	r3, [r7, #28]
ARM GAS  C:\Users\Lenovo\AppData\Local\Temp\cccA9qMw.s 			page 104


 4667 00ec DB69     		ldr	r3, [r3, #28]
 4668 00ee 2833     		adds	r3, r3, #40
 4669 00f0 1846     		mov	r0, r3
 4670 00f2 0821     		movs	r1, #8
 4671 00f4 FFF7FEFF 		bl	PSTRBUFFTOGG
 4672              	.L170:
1188:.\AdvantageImpl.c ****                 
1189:.\AdvantageImpl.c ****             memcpy(&pts->_buffer[index], &pjob->_ppump->_trasactionbuffer[0x0008], 0x08);
 4673              		.loc 1 1189 0
 4674 00f8 FB7D     		ldrb	r3, [r7, #23]	@ zero_extendqisi2
 4675 00fa BA69     		ldr	r2, [r7, #24]
 4676 00fc 1344     		add	r3, r3, r2
 4677 00fe 9A1C     		adds	r2, r3, #2
 4678 0100 FB69     		ldr	r3, [r7, #28]
 4679 0102 DB69     		ldr	r3, [r3, #28]
 4680 0104 2833     		adds	r3, r3, #40
 4681 0106 1046     		mov	r0, r2
 4682 0108 1946     		mov	r1, r3
 4683 010a 0822     		movs	r2, #8
 4684 010c FFF7FEFF 		bl	memcpy
1190:.\AdvantageImpl.c ****             index += 0x08;
 4685              		.loc 1 1190 0
 4686 0110 FB7D     		ldrb	r3, [r7, #23]
 4687 0112 0833     		adds	r3, r3, #8
 4688 0114 FB75     		strb	r3, [r7, #23]
1191:.\AdvantageImpl.c ****             //Car's Plate
1192:.\AdvantageImpl.c ****             memcpy(&pts->_buffer[index], &pjob->_ppump->_trasactionbuffer[GetBufferIndexFromDisplay
 4689              		.loc 1 1192 0
 4690 0116 FB7D     		ldrb	r3, [r7, #23]	@ zero_extendqisi2
 4691 0118 BA69     		ldr	r2, [r7, #24]
 4692 011a 1344     		add	r3, r3, r2
 4693 011c 9D1C     		adds	r5, r3, #2
 4694 011e FB69     		ldr	r3, [r7, #28]
 4695 0120 DC69     		ldr	r4, [r3, #28]
 4696 0122 0A20     		movs	r0, #10
 4697 0124 FFF7FEFF 		bl	GetBufferIndexFromDisplayID
 4698 0128 0346     		mov	r3, r0
 4699 012a 2033     		adds	r3, r3, #32
 4700 012c 1C44     		add	r4, r4, r3
 4701 012e 0A20     		movs	r0, #10
 4702 0130 FFF7FEFF 		bl	GetBufferLengthFromDisplayID
 4703 0134 0346     		mov	r3, r0
 4704 0136 2846     		mov	r0, r5
 4705 0138 2146     		mov	r1, r4
 4706 013a 1A46     		mov	r2, r3
 4707 013c FFF7FEFF 		bl	memcpy
1193:.\AdvantageImpl.c ****             index += GetBufferLengthFromDisplayID(DISPLAY_DIGITE_PLACA);
 4708              		.loc 1 1193 0
 4709 0140 0A20     		movs	r0, #10
 4710 0142 FFF7FEFF 		bl	GetBufferLengthFromDisplayID
 4711 0146 0346     		mov	r3, r0
 4712 0148 1A46     		mov	r2, r3
 4713 014a FB7D     		ldrb	r3, [r7, #23]
 4714 014c 1344     		add	r3, r3, r2
 4715 014e FB75     		strb	r3, [r7, #23]
1194:.\AdvantageImpl.c ****             pts->_buffer[index] = index;
 4716              		.loc 1 1194 0
ARM GAS  C:\Users\Lenovo\AppData\Local\Temp\cccA9qMw.s 			page 105


 4717 0150 FB7D     		ldrb	r3, [r7, #23]	@ zero_extendqisi2
 4718 0152 BA69     		ldr	r2, [r7, #24]
 4719 0154 1344     		add	r3, r3, r2
 4720 0156 FA7D     		ldrb	r2, [r7, #23]
 4721 0158 9A70     		strb	r2, [r3, #2]
1195:.\AdvantageImpl.c ****             //Car's Milleage
1196:.\AdvantageImpl.c ****             memcpy(&pts->_buffer[index], &pjob->_ppump->_trasactionbuffer[GetBufferIndexFromDisplay
 4722              		.loc 1 1196 0
 4723 015a FB7D     		ldrb	r3, [r7, #23]	@ zero_extendqisi2
 4724 015c BA69     		ldr	r2, [r7, #24]
 4725 015e 1344     		add	r3, r3, r2
 4726 0160 9D1C     		adds	r5, r3, #2
 4727 0162 FB69     		ldr	r3, [r7, #28]
 4728 0164 DC69     		ldr	r4, [r3, #28]
 4729 0166 0E20     		movs	r0, #14
 4730 0168 FFF7FEFF 		bl	GetBufferIndexFromDisplayID
 4731 016c 0346     		mov	r3, r0
 4732 016e 2033     		adds	r3, r3, #32
 4733 0170 1C44     		add	r4, r4, r3
 4734 0172 0E20     		movs	r0, #14
 4735 0174 FFF7FEFF 		bl	GetBufferLengthFromDisplayID
 4736 0178 0346     		mov	r3, r0
 4737 017a 2846     		mov	r0, r5
 4738 017c 2146     		mov	r1, r4
 4739 017e 1A46     		mov	r2, r3
 4740 0180 FFF7FEFF 		bl	memcpy
1197:.\AdvantageImpl.c ****             index += GetBufferLengthFromDisplayID(DISPLAY_INTRODUZCA_KILOMETRAJE);
 4741              		.loc 1 1197 0
 4742 0184 0E20     		movs	r0, #14
 4743 0186 FFF7FEFF 		bl	GetBufferLengthFromDisplayID
 4744 018a 0346     		mov	r3, r0
 4745 018c 1A46     		mov	r2, r3
 4746 018e FB7D     		ldrb	r3, [r7, #23]
 4747 0190 1344     		add	r3, r3, r2
 4748 0192 FB75     		strb	r3, [r7, #23]
1198:.\AdvantageImpl.c ****             
1199:.\AdvantageImpl.c ****             pts->_buffersize = index;
 4749              		.loc 1 1199 0
 4750 0194 FB7D     		ldrb	r3, [r7, #23]	@ zero_extendqisi2
 4751 0196 9AB2     		uxth	r2, r3
 4752 0198 BB69     		ldr	r3, [r7, #24]
 4753 019a A3F80221 		strh	r2, [r3, #258]	@ movhi
1200:.\AdvantageImpl.c ****             
1201:.\AdvantageImpl.c ****             PNEAR_PUMPTRANSACTIONALSTATEPTR ptstemp = pjob->_ppump->PumpTransQueueAllocate(pjob->_p
 4754              		.loc 1 1201 0
 4755 019e FB69     		ldr	r3, [r7, #28]
 4756 01a0 DB69     		ldr	r3, [r3, #28]
 4757 01a2 D3F8583B 		ldr	r3, [r3, #2904]
 4758 01a6 FA69     		ldr	r2, [r7, #28]
 4759 01a8 D269     		ldr	r2, [r2, #28]
 4760 01aa 1046     		mov	r0, r2
 4761 01ac 9847     		blx	r3
 4762 01ae F860     		str	r0, [r7, #12]
1202:.\AdvantageImpl.c ****             if(ptstemp)
 4763              		.loc 1 1202 0
 4764 01b0 FB68     		ldr	r3, [r7, #12]
 4765 01b2 002B     		cmp	r3, #0
ARM GAS  C:\Users\Lenovo\AppData\Local\Temp\cccA9qMw.s 			page 106


 4766 01b4 22D0     		beq	.L171
1203:.\AdvantageImpl.c ****             {
1204:.\AdvantageImpl.c ****                 pjob->_ppump->PumpTransQueueDeallocate(pjob->_ppump,ptstemp);
 4767              		.loc 1 1204 0
 4768 01b6 FB69     		ldr	r3, [r7, #28]
 4769 01b8 DB69     		ldr	r3, [r3, #28]
 4770 01ba D3F8543B 		ldr	r3, [r3, #2900]
 4771 01be FA69     		ldr	r2, [r7, #28]
 4772 01c0 D269     		ldr	r2, [r2, #28]
 4773 01c2 1046     		mov	r0, r2
 4774 01c4 F968     		ldr	r1, [r7, #12]
 4775 01c6 9847     		blx	r3
1205:.\AdvantageImpl.c ****                 pjob->_ppump->PumpTransQueueLock(pjob->_ppump);
 4776              		.loc 1 1205 0
 4777 01c8 FB69     		ldr	r3, [r7, #28]
 4778 01ca DB69     		ldr	r3, [r3, #28]
 4779 01cc D3F8443B 		ldr	r3, [r3, #2884]
 4780 01d0 FA69     		ldr	r2, [r7, #28]
 4781 01d2 D269     		ldr	r2, [r2, #28]
 4782 01d4 1046     		mov	r0, r2
 4783 01d6 9847     		blx	r3
1206:.\AdvantageImpl.c ****                 pjob->_ppump->PumpTransQueueEnqueue(pjob->_ppump, pts);
 4784              		.loc 1 1206 0
 4785 01d8 FB69     		ldr	r3, [r7, #28]
 4786 01da DB69     		ldr	r3, [r3, #28]
 4787 01dc D3F8503B 		ldr	r3, [r3, #2896]
 4788 01e0 FA69     		ldr	r2, [r7, #28]
 4789 01e2 D269     		ldr	r2, [r2, #28]
 4790 01e4 1046     		mov	r0, r2
 4791 01e6 B969     		ldr	r1, [r7, #24]
 4792 01e8 9847     		blx	r3
1207:.\AdvantageImpl.c ****                 pjob->_ppump->PumpTransQueueUnlock(pjob->_ppump);
 4793              		.loc 1 1207 0
 4794 01ea FB69     		ldr	r3, [r7, #28]
 4795 01ec DB69     		ldr	r3, [r3, #28]
 4796 01ee D3F8483B 		ldr	r3, [r3, #2888]
 4797 01f2 FA69     		ldr	r2, [r7, #28]
 4798 01f4 D269     		ldr	r2, [r2, #28]
 4799 01f6 1046     		mov	r0, r2
 4800 01f8 9847     		blx	r3
 4801 01fa 08E0     		b	.L165
 4802              	.L171:
1208:.\AdvantageImpl.c ****             }else
1209:.\AdvantageImpl.c ****                 pjob->_ppump->PumpTransQueueDeallocate(pjob->_ppump, pts);
 4803              		.loc 1 1209 0
 4804 01fc FB69     		ldr	r3, [r7, #28]
 4805 01fe DB69     		ldr	r3, [r3, #28]
 4806 0200 D3F8543B 		ldr	r3, [r3, #2900]
 4807 0204 FA69     		ldr	r2, [r7, #28]
 4808 0206 D269     		ldr	r2, [r2, #28]
 4809 0208 1046     		mov	r0, r2
 4810 020a B969     		ldr	r1, [r7, #24]
 4811 020c 9847     		blx	r3
 4812              	.L165:
 4813              	.LBE30:
 4814              	.LBE29:
1210:.\AdvantageImpl.c ****         }
ARM GAS  C:\Users\Lenovo\AppData\Local\Temp\cccA9qMw.s 			page 107


1211:.\AdvantageImpl.c ****     }
1212:.\AdvantageImpl.c **** }
 4815              		.loc 1 1212 0
 4816 020e 2037     		adds	r7, r7, #32
 4817              		.cfi_def_cfa_offset 16
 4818 0210 BD46     		mov	sp, r7
 4819              		.cfi_def_cfa_register 13
 4820              		@ sp needed
 4821 0212 B0BD     		pop	{r4, r5, r7, pc}
 4822              		.cfi_endproc
 4823              	.LFE81:
 4824              		.size	PumpPresetNotification, .-PumpPresetNotification
 4825              		.section	.text.PumpCreditPresetNotification,"ax",%progbits
 4826              		.align	2
 4827              		.global	PumpCreditPresetNotification
 4828              		.thumb
 4829              		.thumb_func
 4830              		.type	PumpCreditPresetNotification, %function
 4831              	PumpCreditPresetNotification:
 4832              	.LFB82:
1213:.\AdvantageImpl.c **** 
1214:.\AdvantageImpl.c **** 
1215:.\AdvantageImpl.c **** //@Created By: HIJH
1216:.\AdvantageImpl.c **** //@Septembre de 2016
1217:.\AdvantageImpl.c **** //Message to be notified to the remote peer (NSX)
1218:.\AdvantageImpl.c **** void PumpCreditPresetNotification(LPVOID pparam)
1219:.\AdvantageImpl.c **** {
 4833              		.loc 1 1219 0
 4834              		.cfi_startproc
 4835              		@ args = 0, pretend = 0, frame = 24
 4836              		@ frame_needed = 1, uses_anonymous_args = 0
 4837 0000 80B5     		push	{r7, lr}
 4838              		.cfi_def_cfa_offset 8
 4839              		.cfi_offset 7, -8
 4840              		.cfi_offset 14, -4
 4841 0002 86B0     		sub	sp, sp, #24
 4842              		.cfi_def_cfa_offset 32
 4843 0004 00AF     		add	r7, sp, #0
 4844              		.cfi_def_cfa_register 7
 4845 0006 7860     		str	r0, [r7, #4]
1220:.\AdvantageImpl.c ****     PPUMPTRANSACTIONJOBCONTEXTPTR pjob = (PPUMPTRANSACTIONJOBCONTEXTPTR)pparam;
 4846              		.loc 1 1220 0
 4847 0008 7B68     		ldr	r3, [r7, #4]
 4848 000a 7B61     		str	r3, [r7, #20]
1221:.\AdvantageImpl.c ****     if(pjob)
 4849              		.loc 1 1221 0
 4850 000c 7B69     		ldr	r3, [r7, #20]
 4851 000e 002B     		cmp	r3, #0
 4852 0010 67D0     		beq	.L172
 4853              	.LBB32:
1222:.\AdvantageImpl.c ****     {
1223:.\AdvantageImpl.c ****         //HERE WE ATTEMPT TO PUSH THE TRANSACTION INTO THE PUMP'S TRANSACTIONAL QUEUE.
1224:.\AdvantageImpl.c ****         //THIS IS DONE ONLY IF THERE IS ROOM IN THE QUEUE, OTHERWISE THIS STATE WON'T
1225:.\AdvantageImpl.c ****         //BE REPORTED TO THE REMOTE PEER.
1226:.\AdvantageImpl.c ****         pjob->_ppump->PumpTransQueueLock(pjob->_ppump);
 4854              		.loc 1 1226 0
 4855 0012 7B69     		ldr	r3, [r7, #20]
ARM GAS  C:\Users\Lenovo\AppData\Local\Temp\cccA9qMw.s 			page 108


 4856 0014 DB69     		ldr	r3, [r3, #28]
 4857 0016 D3F8443B 		ldr	r3, [r3, #2884]
 4858 001a 7A69     		ldr	r2, [r7, #20]
 4859 001c D269     		ldr	r2, [r2, #28]
 4860 001e 1046     		mov	r0, r2
 4861 0020 9847     		blx	r3
1227:.\AdvantageImpl.c ****         PNEAR_PUMPTRANSACTIONALSTATEPTR pts = pjob->_ppump->PumpTransQueueAllocate(pjob->_ppump);
 4862              		.loc 1 1227 0
 4863 0022 7B69     		ldr	r3, [r7, #20]
 4864 0024 DB69     		ldr	r3, [r3, #28]
 4865 0026 D3F8583B 		ldr	r3, [r3, #2904]
 4866 002a 7A69     		ldr	r2, [r7, #20]
 4867 002c D269     		ldr	r2, [r2, #28]
 4868 002e 1046     		mov	r0, r2
 4869 0030 9847     		blx	r3
 4870 0032 3861     		str	r0, [r7, #16]
1228:.\AdvantageImpl.c ****         pjob->_ppump->PumpTransQueueUnlock(pjob->_ppump);
 4871              		.loc 1 1228 0
 4872 0034 7B69     		ldr	r3, [r7, #20]
 4873 0036 DB69     		ldr	r3, [r3, #28]
 4874 0038 D3F8483B 		ldr	r3, [r3, #2888]
 4875 003c 7A69     		ldr	r2, [r7, #20]
 4876 003e D269     		ldr	r2, [r2, #28]
 4877 0040 1046     		mov	r0, r2
 4878 0042 9847     		blx	r3
1229:.\AdvantageImpl.c ****         if(pts)
 4879              		.loc 1 1229 0
 4880 0044 3B69     		ldr	r3, [r7, #16]
 4881 0046 002B     		cmp	r3, #0
 4882 0048 4BD0     		beq	.L172
 4883              	.LBB33:
1230:.\AdvantageImpl.c ****         {
1231:.\AdvantageImpl.c ****             uint8 index = 0;
 4884              		.loc 1 1231 0
 4885 004a 0023     		movs	r3, #0
 4886 004c FB73     		strb	r3, [r7, #15]
1232:.\AdvantageImpl.c ****             pts->_transtate = RF_MUX_CREDIT_PRESET_NOTIFICATION_REQUEST;
 4887              		.loc 1 1232 0
 4888 004e 3B69     		ldr	r3, [r7, #16]
 4889 0050 AE22     		movs	r2, #174
 4890 0052 5A70     		strb	r2, [r3, #1]
1233:.\AdvantageImpl.c ****             //Pump ID always comes in position 0x00
1234:.\AdvantageImpl.c ****             pts->_buffer[index++] = pjob->_ppump->_pumpid;
 4891              		.loc 1 1234 0
 4892 0054 FB7B     		ldrb	r3, [r7, #15]	@ zero_extendqisi2
 4893 0056 5A1C     		adds	r2, r3, #1
 4894 0058 FA73     		strb	r2, [r7, #15]
 4895 005a 1946     		mov	r1, r3
 4896 005c 7B69     		ldr	r3, [r7, #20]
 4897 005e DB69     		ldr	r3, [r3, #28]
 4898 0060 1A78     		ldrb	r2, [r3]	@ zero_extendqisi2
 4899 0062 3B69     		ldr	r3, [r7, #16]
 4900 0064 0B44     		add	r3, r3, r1
 4901 0066 9A70     		strb	r2, [r3, #2]
1235:.\AdvantageImpl.c ****             pts->_buffersize = index;
 4902              		.loc 1 1235 0
 4903 0068 FB7B     		ldrb	r3, [r7, #15]	@ zero_extendqisi2
ARM GAS  C:\Users\Lenovo\AppData\Local\Temp\cccA9qMw.s 			page 109


 4904 006a 9AB2     		uxth	r2, r3
 4905 006c 3B69     		ldr	r3, [r7, #16]
 4906 006e A3F80221 		strh	r2, [r3, #258]	@ movhi
1236:.\AdvantageImpl.c ****             
1237:.\AdvantageImpl.c ****             PNEAR_PUMPTRANSACTIONALSTATEPTR ptstemp = pjob->_ppump->PumpTransQueueAllocate(pjob->_p
 4907              		.loc 1 1237 0
 4908 0072 7B69     		ldr	r3, [r7, #20]
 4909 0074 DB69     		ldr	r3, [r3, #28]
 4910 0076 D3F8583B 		ldr	r3, [r3, #2904]
 4911 007a 7A69     		ldr	r2, [r7, #20]
 4912 007c D269     		ldr	r2, [r2, #28]
 4913 007e 1046     		mov	r0, r2
 4914 0080 9847     		blx	r3
 4915 0082 B860     		str	r0, [r7, #8]
1238:.\AdvantageImpl.c ****             if(ptstemp)
 4916              		.loc 1 1238 0
 4917 0084 BB68     		ldr	r3, [r7, #8]
 4918 0086 002B     		cmp	r3, #0
 4919 0088 22D0     		beq	.L174
1239:.\AdvantageImpl.c ****             {
1240:.\AdvantageImpl.c ****                 pjob->_ppump->PumpTransQueueDeallocate(pjob->_ppump,ptstemp);
 4920              		.loc 1 1240 0
 4921 008a 7B69     		ldr	r3, [r7, #20]
 4922 008c DB69     		ldr	r3, [r3, #28]
 4923 008e D3F8543B 		ldr	r3, [r3, #2900]
 4924 0092 7A69     		ldr	r2, [r7, #20]
 4925 0094 D269     		ldr	r2, [r2, #28]
 4926 0096 1046     		mov	r0, r2
 4927 0098 B968     		ldr	r1, [r7, #8]
 4928 009a 9847     		blx	r3
1241:.\AdvantageImpl.c ****                 pjob->_ppump->PumpTransQueueLock(pjob->_ppump);
 4929              		.loc 1 1241 0
 4930 009c 7B69     		ldr	r3, [r7, #20]
 4931 009e DB69     		ldr	r3, [r3, #28]
 4932 00a0 D3F8443B 		ldr	r3, [r3, #2884]
 4933 00a4 7A69     		ldr	r2, [r7, #20]
 4934 00a6 D269     		ldr	r2, [r2, #28]
 4935 00a8 1046     		mov	r0, r2
 4936 00aa 9847     		blx	r3
1242:.\AdvantageImpl.c ****                 pjob->_ppump->PumpTransQueueEnqueue(pjob->_ppump, pts);
 4937              		.loc 1 1242 0
 4938 00ac 7B69     		ldr	r3, [r7, #20]
 4939 00ae DB69     		ldr	r3, [r3, #28]
 4940 00b0 D3F8503B 		ldr	r3, [r3, #2896]
 4941 00b4 7A69     		ldr	r2, [r7, #20]
 4942 00b6 D269     		ldr	r2, [r2, #28]
 4943 00b8 1046     		mov	r0, r2
 4944 00ba 3969     		ldr	r1, [r7, #16]
 4945 00bc 9847     		blx	r3
1243:.\AdvantageImpl.c ****                 pjob->_ppump->PumpTransQueueUnlock(pjob->_ppump);
 4946              		.loc 1 1243 0
 4947 00be 7B69     		ldr	r3, [r7, #20]
 4948 00c0 DB69     		ldr	r3, [r3, #28]
 4949 00c2 D3F8483B 		ldr	r3, [r3, #2888]
 4950 00c6 7A69     		ldr	r2, [r7, #20]
 4951 00c8 D269     		ldr	r2, [r2, #28]
 4952 00ca 1046     		mov	r0, r2
ARM GAS  C:\Users\Lenovo\AppData\Local\Temp\cccA9qMw.s 			page 110


 4953 00cc 9847     		blx	r3
 4954 00ce 08E0     		b	.L172
 4955              	.L174:
1244:.\AdvantageImpl.c ****             }else
1245:.\AdvantageImpl.c ****                 pjob->_ppump->PumpTransQueueDeallocate(pjob->_ppump, pts);
 4956              		.loc 1 1245 0
 4957 00d0 7B69     		ldr	r3, [r7, #20]
 4958 00d2 DB69     		ldr	r3, [r3, #28]
 4959 00d4 D3F8543B 		ldr	r3, [r3, #2900]
 4960 00d8 7A69     		ldr	r2, [r7, #20]
 4961 00da D269     		ldr	r2, [r2, #28]
 4962 00dc 1046     		mov	r0, r2
 4963 00de 3969     		ldr	r1, [r7, #16]
 4964 00e0 9847     		blx	r3
 4965              	.L172:
 4966              	.LBE33:
 4967              	.LBE32:
1246:.\AdvantageImpl.c ****         }
1247:.\AdvantageImpl.c ****     }
1248:.\AdvantageImpl.c **** }
 4968              		.loc 1 1248 0
 4969 00e2 1837     		adds	r7, r7, #24
 4970              		.cfi_def_cfa_offset 8
 4971 00e4 BD46     		mov	sp, r7
 4972              		.cfi_def_cfa_register 13
 4973              		@ sp needed
 4974 00e6 80BD     		pop	{r7, pc}
 4975              		.cfi_endproc
 4976              	.LFE82:
 4977              		.size	PumpCreditPresetNotification, .-PumpCreditPresetNotification
 4978              		.section	.text.PumpFullPresetHose,"ax",%progbits
 4979              		.align	2
 4980              		.global	PumpFullPresetHose
 4981              		.thumb
 4982              		.thumb_func
 4983              		.type	PumpFullPresetHose, %function
 4984              	PumpFullPresetHose:
 4985              	.LFB83:
1249:.\AdvantageImpl.c **** 
1250:.\AdvantageImpl.c **** //@Created By: HIJH
1251:.\AdvantageImpl.c **** //@Septembre de 2016
1252:.\AdvantageImpl.c **** ///////////////////////////////////////////////////////////////////////////////////////////////////
1253:.\AdvantageImpl.c **** //Preset values will be placed within the SinkMessage's buffer. This is a convention that applies t
1254:.\AdvantageImpl.c **** //all of the available transactions. The pump function must deal with this while it is assembling t
1255:.\AdvantageImpl.c **** //For this message the data comes as follows:
1256:.\AdvantageImpl.c **** // - First byte is the preset type (Volume:1 / Money:2 )
1257:.\AdvantageImpl.c **** // - Second byte is the Hose (A:0, B:1, C:2, D:3)
1258:.\AdvantageImpl.c **** // - Block of 8 bytes for the preset value
1259:.\AdvantageImpl.c **** //This block of data (10 bytes) must be moved to another position within the same buffer (even posi
1260:.\AdvantageImpl.c **** void PumpFullPresetHose(void *pparam)
1261:.\AdvantageImpl.c **** {
 4986              		.loc 1 1261 0
 4987              		.cfi_startproc
 4988              		@ args = 0, pretend = 0, frame = 40
 4989              		@ frame_needed = 1, uses_anonymous_args = 0
 4990 0000 90B5     		push	{r4, r7, lr}
 4991              		.cfi_def_cfa_offset 12
ARM GAS  C:\Users\Lenovo\AppData\Local\Temp\cccA9qMw.s 			page 111


 4992              		.cfi_offset 4, -12
 4993              		.cfi_offset 7, -8
 4994              		.cfi_offset 14, -4
 4995 0002 8BB0     		sub	sp, sp, #44
 4996              		.cfi_def_cfa_offset 56
 4997 0004 00AF     		add	r7, sp, #0
 4998              		.cfi_def_cfa_register 7
 4999 0006 7860     		str	r0, [r7, #4]
1262:.\AdvantageImpl.c ****     PNEAR_PUMPPTR ppump = (PNEAR_PUMPPTR)pparam;
 5000              		.loc 1 1262 0
 5001 0008 7B68     		ldr	r3, [r7, #4]
 5002 000a 3B62     		str	r3, [r7, #32]
1263:.\AdvantageImpl.c ****     if(ppump)
 5003              		.loc 1 1263 0
 5004 000c 3B6A     		ldr	r3, [r7, #32]
 5005 000e 002B     		cmp	r3, #0
 5006 0010 00F08481 		beq	.L175
 5007              	.LBB34:
1264:.\AdvantageImpl.c ****     {
1265:.\AdvantageImpl.c ****         uint8_t index = 0;        
 5008              		.loc 1 1265 0
 5009 0014 0023     		movs	r3, #0
 5010 0016 87F82730 		strb	r3, [r7, #39]
1266:.\AdvantageImpl.c ****         PUARTMESSAGEPTR puartdisp = GetUARTMessageSlot(UART_DISPENSER);
 5011              		.loc 1 1266 0
 5012 001a A220     		movs	r0, #162
 5013 001c FFF7FEFF 		bl	GetUARTMessageSlot
 5014 0020 F861     		str	r0, [r7, #28]
1267:.\AdvantageImpl.c ****         memset(ppump->_rxbuffer, 0x00, _PUMP_RX_BUFFER_SIZE_);
 5015              		.loc 1 1267 0
 5016 0022 3B6A     		ldr	r3, [r7, #32]
 5017 0024 03F5D073 		add	r3, r3, #416
 5018 0028 1846     		mov	r0, r3
 5019 002a 0021     		movs	r1, #0
 5020 002c 4FF4C072 		mov	r2, #384
 5021 0030 FFF7FEFF 		bl	memset
1268:.\AdvantageImpl.c ****         if(puartdisp)
 5022              		.loc 1 1268 0
 5023 0034 FB69     		ldr	r3, [r7, #28]
 5024 0036 002B     		cmp	r3, #0
 5025 0038 00F07081 		beq	.L175
1269:.\AdvantageImpl.c ****         {
1270:.\AdvantageImpl.c **** ///////////////////////////////////////////////////////////////////////////////////////////////////
1271:.\AdvantageImpl.c ****             puartdisp->_messagetx[index++] = SOM;
 5026              		.loc 1 1271 0
 5027 003c 97F82730 		ldrb	r3, [r7, #39]	@ zero_extendqisi2
 5028 0040 5A1C     		adds	r2, r3, #1
 5029 0042 87F82720 		strb	r2, [r7, #39]
 5030 0046 1A46     		mov	r2, r3
 5031 0048 FB69     		ldr	r3, [r7, #28]
 5032 004a 1344     		add	r3, r3, r2
 5033 004c FF22     		movs	r2, #255
 5034 004e 1A71     		strb	r2, [r3, #4]
1272:.\AdvantageImpl.c ****             if(_g_dispenserlayoutinfo._displaydigitsmode == 0x06)
 5035              		.loc 1 1272 0
 5036 0050 B44B     		ldr	r3, .L189
 5037 0052 1B7C     		ldrb	r3, [r3, #16]	@ zero_extendqisi2
ARM GAS  C:\Users\Lenovo\AppData\Local\Temp\cccA9qMw.s 			page 112


 5038 0054 062B     		cmp	r3, #6
 5039 0056 40F09780 		bne	.L177
 5040              	.LBB35:
1273:.\AdvantageImpl.c ****             {
1274:.\AdvantageImpl.c ****                 puartdisp->_messagetx[index++] = 0xE3;
 5041              		.loc 1 1274 0
 5042 005a 97F82730 		ldrb	r3, [r7, #39]	@ zero_extendqisi2
 5043 005e 5A1C     		adds	r2, r3, #1
 5044 0060 87F82720 		strb	r2, [r7, #39]
 5045 0064 1A46     		mov	r2, r3
 5046 0066 FB69     		ldr	r3, [r7, #28]
 5047 0068 1344     		add	r3, r3, r2
 5048 006a E322     		movs	r2, #227
 5049 006c 1A71     		strb	r2, [r3, #4]
1275:.\AdvantageImpl.c **** 
1276:.\AdvantageImpl.c ****                 ///THIS IS AN APPLIED CONVENTION ===>> 0x0004 INDEX POSITION WITHIN THE PUMP'S BUFF
1277:.\AdvantageImpl.c ****                 ///THESE CODES MUST BE MATCHED OTHERWISE THE LOGIC WILL BREAKUP THE CODE!
1278:.\AdvantageImpl.c ****                 uint8 transtype = 0xF1;//preset type (0xF2 = Money, 0xF1 = Volume)
 5050              		.loc 1 1278 0
 5051 006e F123     		movs	r3, #241
 5052 0070 FB76     		strb	r3, [r7, #27]
1279:.\AdvantageImpl.c ****                 puartdisp->_messagetx[index++] = transtype;//preset type (0xF2 = Money, 0xF1 = Volu
 5053              		.loc 1 1279 0
 5054 0072 97F82730 		ldrb	r3, [r7, #39]	@ zero_extendqisi2
 5055 0076 5A1C     		adds	r2, r3, #1
 5056 0078 87F82720 		strb	r2, [r7, #39]
 5057 007c 1A46     		mov	r2, r3
 5058 007e FB69     		ldr	r3, [r7, #28]
 5059 0080 1344     		add	r3, r3, r2
 5060 0082 FA7E     		ldrb	r2, [r7, #27]
 5061 0084 1A71     		strb	r2, [r3, #4]
1280:.\AdvantageImpl.c ****                 puartdisp->_messagetx[index++] = 0xF4;
 5062              		.loc 1 1280 0
 5063 0086 97F82730 		ldrb	r3, [r7, #39]	@ zero_extendqisi2
 5064 008a 5A1C     		adds	r2, r3, #1
 5065 008c 87F82720 		strb	r2, [r7, #39]
 5066 0090 1A46     		mov	r2, r3
 5067 0092 FB69     		ldr	r3, [r7, #28]
 5068 0094 1344     		add	r3, r3, r2
 5069 0096 F422     		movs	r2, #244
 5070 0098 1A71     		strb	r2, [r3, #4]
1281:.\AdvantageImpl.c ****                 puartdisp->_messagetx[index++] = 0xF6; //Hose Data next
 5071              		.loc 1 1281 0
 5072 009a 97F82730 		ldrb	r3, [r7, #39]	@ zero_extendqisi2
 5073 009e 5A1C     		adds	r2, r3, #1
 5074 00a0 87F82720 		strb	r2, [r7, #39]
 5075 00a4 1A46     		mov	r2, r3
 5076 00a6 FB69     		ldr	r3, [r7, #28]
 5077 00a8 1344     		add	r3, r3, r2
 5078 00aa F622     		movs	r2, #246
 5079 00ac 1A71     		strb	r2, [r3, #4]
1282:.\AdvantageImpl.c ****                 ///THIS IS AN APPLIED CONVENTION ===>> 0x0006 INDEX POSITION WITHIN THE PUMP'S BUFF
1283:.\AdvantageImpl.c ****                 ///THESE CODES MUST BE MATCHED OTHERWISE THE LOGIC WILL BREAKUP THE CODE!
1284:.\AdvantageImpl.c ****                 puartdisp->_messagetx[index++] = (0xE0 | (0x0F & ppump->_trasactionbuffer[GetBuffer
 5080              		.loc 1 1284 0
 5081 00ae 97F82730 		ldrb	r3, [r7, #39]	@ zero_extendqisi2
 5082 00b2 5A1C     		adds	r2, r3, #1
ARM GAS  C:\Users\Lenovo\AppData\Local\Temp\cccA9qMw.s 			page 113


 5083 00b4 87F82720 		strb	r2, [r7, #39]
 5084 00b8 1C46     		mov	r4, r3
 5085 00ba 0720     		movs	r0, #7
 5086 00bc FFF7FEFF 		bl	GetBufferIndexFromDisplayID
 5087 00c0 0346     		mov	r3, r0
 5088 00c2 1A46     		mov	r2, r3
 5089 00c4 3B6A     		ldr	r3, [r7, #32]
 5090 00c6 1344     		add	r3, r3, r2
 5091 00c8 93F82030 		ldrb	r3, [r3, #32]	@ zero_extendqisi2
 5092 00cc 03F00F03 		and	r3, r3, #15
 5093 00d0 DBB2     		uxtb	r3, r3
 5094 00d2 63F01F03 		orn	r3, r3, #31
 5095 00d6 DAB2     		uxtb	r2, r3
 5096 00d8 FB69     		ldr	r3, [r7, #28]
 5097 00da 2344     		add	r3, r3, r4
 5098 00dc 1A71     		strb	r2, [r3, #4]
1285:.\AdvantageImpl.c ****                 
1286:.\AdvantageImpl.c ****                 puartdisp->_messagetx[index++] = 0xF8; //Preset Data next
 5099              		.loc 1 1286 0
 5100 00de 97F82730 		ldrb	r3, [r7, #39]	@ zero_extendqisi2
 5101 00e2 5A1C     		adds	r2, r3, #1
 5102 00e4 87F82720 		strb	r2, [r7, #39]
 5103 00e8 1A46     		mov	r2, r3
 5104 00ea FB69     		ldr	r3, [r7, #28]
 5105 00ec 1344     		add	r3, r3, r2
 5106 00ee F822     		movs	r2, #248
 5107 00f0 1A71     		strb	r2, [r3, #4]
1287:.\AdvantageImpl.c ****                 //Here we copy the remaining 8 bytes for the preset value
1288:.\AdvantageImpl.c ****                 ///THIS IS AN APPLIED CONVENTION ===>> 0x0008 INDEX POSITION WITHIN THE PUMP'S BUFF
1289:.\AdvantageImpl.c ****                 ///THESE CODES MUST BE MATCHED OTHERWISE THE LOGIC WILL BREAKUP THE CODE!
1290:.\AdvantageImpl.c ****                 char8 *ptr = &ppump->_trasactionbuffer[0x0008];
 5108              		.loc 1 1290 0
 5109 00f2 3B6A     		ldr	r3, [r7, #32]
 5110 00f4 2833     		adds	r3, r3, #40
 5111 00f6 7B61     		str	r3, [r7, #20]
1291:.\AdvantageImpl.c ****                 B78AD90CF552D9B30A(_PUMP_MAXIMUM_PRESET_GALLONS_, (LPRAWPTR)ptr);
 5112              		.loc 1 1291 0
 5113 00f8 4FF4FA70 		mov	r0, #500
 5114 00fc 4FF00001 		mov	r1, #0
 5115 0100 7A69     		ldr	r2, [r7, #20]
 5116 0102 FFF7FEFF 		bl	B78AD90CF552D9B30A
1292:.\AdvantageImpl.c **** 
1293:.\AdvantageImpl.c ****                 PSTRBUFFTOGG(PBYTECAST(&ppump->_trasactionbuffer[0x0008]), 0x08);
 5117              		.loc 1 1293 0
 5118 0106 3B6A     		ldr	r3, [r7, #32]
 5119 0108 2833     		adds	r3, r3, #40
 5120 010a 1846     		mov	r0, r3
 5121 010c 0821     		movs	r1, #8
 5122 010e FFF7FEFF 		bl	PSTRBUFFTOGG
1294:.\AdvantageImpl.c ****                 if(transtype == 0xF1) //Volume PRESET, then multiply by 1000
 5123              		.loc 1 1294 0
 5124 0112 FB7E     		ldrb	r3, [r7, #27]	@ zero_extendqisi2
 5125 0114 F12B     		cmp	r3, #241
 5126 0116 04D1     		bne	.L178
1295:.\AdvantageImpl.c ****                     CastVolumeValue(ptr, 0x08);
 5127              		.loc 1 1295 0
 5128 0118 7869     		ldr	r0, [r7, #20]
ARM GAS  C:\Users\Lenovo\AppData\Local\Temp\cccA9qMw.s 			page 114


 5129 011a 0821     		movs	r1, #8
 5130 011c FFF7FEFF 		bl	CastVolumeValue
 5131 0120 0BE0     		b	.L179
 5132              	.L178:
1296:.\AdvantageImpl.c ****                 else if(!(_g_dispenserlayoutinfo._moneydecimals == 0x03 && _g_dispenserlayoutinfo._
 5133              		.loc 1 1296 0
 5134 0122 804B     		ldr	r3, .L189
 5135 0124 DB79     		ldrb	r3, [r3, #7]	@ zero_extendqisi2
 5136 0126 032B     		cmp	r3, #3
 5137 0128 03D1     		bne	.L180
 5138              		.loc 1 1296 0 is_stmt 0 discriminator 1
 5139 012a 7E4B     		ldr	r3, .L189
 5140 012c 1B7A     		ldrb	r3, [r3, #8]	@ zero_extendqisi2
 5141 012e 022B     		cmp	r3, #2
 5142 0130 03D0     		beq	.L179
 5143              	.L180:
1297:.\AdvantageImpl.c ****                     CastMoneyValue(ptr, 0x08);
 5144              		.loc 1 1297 0 is_stmt 1
 5145 0132 7869     		ldr	r0, [r7, #20]
 5146 0134 0821     		movs	r1, #8
 5147 0136 FFF7FEFF 		bl	CastMoneyValue
 5148              	.L179:
1298:.\AdvantageImpl.c **** 
1299:.\AdvantageImpl.c ****                 FOR(uint8 buffndx = 0, buffndx < 0x05, buffndx++)
 5149              		.loc 1 1299 0
 5150 013a 0023     		movs	r3, #0
 5151 013c 87F82630 		strb	r3, [r7, #38]
 5152 0140 1DE0     		b	.L181
 5153              	.L182:
1300:.\AdvantageImpl.c ****                     puartdisp->_messagetx[index++] = (0xE0 | (ptr[7 - buffndx] & 0x0F)); //Translat
 5154              		.loc 1 1300 0 discriminator 3
 5155 0142 97F82730 		ldrb	r3, [r7, #39]	@ zero_extendqisi2
 5156 0146 5A1C     		adds	r2, r3, #1
 5157 0148 87F82720 		strb	r2, [r7, #39]
 5158 014c 1946     		mov	r1, r3
 5159 014e 97F82630 		ldrb	r3, [r7, #38]	@ zero_extendqisi2
 5160 0152 C3F10703 		rsb	r3, r3, #7
 5161 0156 1A46     		mov	r2, r3
 5162 0158 7B69     		ldr	r3, [r7, #20]
 5163 015a 1344     		add	r3, r3, r2
 5164 015c 1B78     		ldrb	r3, [r3]	@ zero_extendqisi2
 5165 015e DBB2     		uxtb	r3, r3
 5166 0160 03F00F03 		and	r3, r3, #15
 5167 0164 DBB2     		uxtb	r3, r3
 5168 0166 63F01F03 		orn	r3, r3, #31
 5169 016a DBB2     		uxtb	r3, r3
 5170 016c DAB2     		uxtb	r2, r3
 5171 016e FB69     		ldr	r3, [r7, #28]
 5172 0170 0B44     		add	r3, r3, r1
 5173 0172 1A71     		strb	r2, [r3, #4]
1299:.\AdvantageImpl.c ****                     puartdisp->_messagetx[index++] = (0xE0 | (ptr[7 - buffndx] & 0x0F)); //Translat
 5174              		.loc 1 1299 0 discriminator 3
 5175 0174 97F82630 		ldrb	r3, [r7, #38]	@ zero_extendqisi2
 5176 0178 0133     		adds	r3, r3, #1
 5177 017a 87F82630 		strb	r3, [r7, #38]
 5178              	.L181:
1299:.\AdvantageImpl.c ****                     puartdisp->_messagetx[index++] = (0xE0 | (ptr[7 - buffndx] & 0x0F)); //Translat
ARM GAS  C:\Users\Lenovo\AppData\Local\Temp\cccA9qMw.s 			page 115


 5179              		.loc 1 1299 0 is_stmt 0 discriminator 1
 5180 017e 97F82630 		ldrb	r3, [r7, #38]	@ zero_extendqisi2
 5181 0182 042B     		cmp	r3, #4
 5182 0184 DDD9     		bls	.L182
 5183              	.LBE35:
 5184 0186 9AE0     		b	.L183
 5185              	.L177:
1301:.\AdvantageImpl.c ****                     
1302:.\AdvantageImpl.c ****             }
1303:.\AdvantageImpl.c ****             else if(_g_dispenserlayoutinfo._displaydigitsmode == 0x07)
 5186              		.loc 1 1303 0 is_stmt 1
 5187 0188 664B     		ldr	r3, .L189
 5188 018a 1B7C     		ldrb	r3, [r3, #16]	@ zero_extendqisi2
 5189 018c 072B     		cmp	r3, #7
 5190 018e 40F09680 		bne	.L183
 5191              	.LBB36:
1304:.\AdvantageImpl.c ****             {
1305:.\AdvantageImpl.c ****                 puartdisp->_messagetx[index++] = 0xE1;
 5192              		.loc 1 1305 0
 5193 0192 97F82730 		ldrb	r3, [r7, #39]	@ zero_extendqisi2
 5194 0196 5A1C     		adds	r2, r3, #1
 5195 0198 87F82720 		strb	r2, [r7, #39]
 5196 019c 1A46     		mov	r2, r3
 5197 019e FB69     		ldr	r3, [r7, #28]
 5198 01a0 1344     		add	r3, r3, r2
 5199 01a2 E122     		movs	r2, #225
 5200 01a4 1A71     		strb	r2, [r3, #4]
1306:.\AdvantageImpl.c **** 
1307:.\AdvantageImpl.c ****                 ///THIS IS AN APPLIED CONVENTION ===>> 0x0004 INDEX POSITION WITHIN THE PUMP'S BUFF
1308:.\AdvantageImpl.c ****                 ///THESE CODES MUST BE MATCHED OTHERWISE THE LOGIC WILL BREAKUP THE CODE!
1309:.\AdvantageImpl.c ****                 uint8 transtype = 0xF1;//preset type (0xF2 = Money, 0xF1 = Volume)
 5201              		.loc 1 1309 0
 5202 01a6 F123     		movs	r3, #241
 5203 01a8 FB74     		strb	r3, [r7, #19]
1310:.\AdvantageImpl.c ****                 puartdisp->_messagetx[index++] = transtype;//preset type (0xF2 = Money, 0xF1 = Volu
 5204              		.loc 1 1310 0
 5205 01aa 97F82730 		ldrb	r3, [r7, #39]	@ zero_extendqisi2
 5206 01ae 5A1C     		adds	r2, r3, #1
 5207 01b0 87F82720 		strb	r2, [r7, #39]
 5208 01b4 1A46     		mov	r2, r3
 5209 01b6 FB69     		ldr	r3, [r7, #28]
 5210 01b8 1344     		add	r3, r3, r2
 5211 01ba FA7C     		ldrb	r2, [r7, #19]
 5212 01bc 1A71     		strb	r2, [r3, #4]
1311:.\AdvantageImpl.c ****                 puartdisp->_messagetx[index++] = 0xF4;
 5213              		.loc 1 1311 0
 5214 01be 97F82730 		ldrb	r3, [r7, #39]	@ zero_extendqisi2
 5215 01c2 5A1C     		adds	r2, r3, #1
 5216 01c4 87F82720 		strb	r2, [r7, #39]
 5217 01c8 1A46     		mov	r2, r3
 5218 01ca FB69     		ldr	r3, [r7, #28]
 5219 01cc 1344     		add	r3, r3, r2
 5220 01ce F422     		movs	r2, #244
 5221 01d0 1A71     		strb	r2, [r3, #4]
1312:.\AdvantageImpl.c ****                 puartdisp->_messagetx[index++] = 0xF6; //Hose Data next
 5222              		.loc 1 1312 0
 5223 01d2 97F82730 		ldrb	r3, [r7, #39]	@ zero_extendqisi2
ARM GAS  C:\Users\Lenovo\AppData\Local\Temp\cccA9qMw.s 			page 116


 5224 01d6 5A1C     		adds	r2, r3, #1
 5225 01d8 87F82720 		strb	r2, [r7, #39]
 5226 01dc 1A46     		mov	r2, r3
 5227 01de FB69     		ldr	r3, [r7, #28]
 5228 01e0 1344     		add	r3, r3, r2
 5229 01e2 F622     		movs	r2, #246
 5230 01e4 1A71     		strb	r2, [r3, #4]
1313:.\AdvantageImpl.c ****                 ///THIS IS AN APPLIED CONVENTION ===>> 0x0006 INDEX POSITION WITHIN THE PUMP'S BUFF
1314:.\AdvantageImpl.c ****                 ///THESE CODES MUST BE MATCHED OTHERWISE THE LOGIC WILL BREAKUP THE CODE!
1315:.\AdvantageImpl.c ****                 puartdisp->_messagetx[index++] = (0xE0 | (0x0F & ppump->_trasactionbuffer[GetBuffer
 5231              		.loc 1 1315 0
 5232 01e6 97F82730 		ldrb	r3, [r7, #39]	@ zero_extendqisi2
 5233 01ea 5A1C     		adds	r2, r3, #1
 5234 01ec 87F82720 		strb	r2, [r7, #39]
 5235 01f0 1C46     		mov	r4, r3
 5236 01f2 0720     		movs	r0, #7
 5237 01f4 FFF7FEFF 		bl	GetBufferIndexFromDisplayID
 5238 01f8 0346     		mov	r3, r0
 5239 01fa 1A46     		mov	r2, r3
 5240 01fc 3B6A     		ldr	r3, [r7, #32]
 5241 01fe 1344     		add	r3, r3, r2
 5242 0200 93F82030 		ldrb	r3, [r3, #32]	@ zero_extendqisi2
 5243 0204 03F00F03 		and	r3, r3, #15
 5244 0208 DBB2     		uxtb	r3, r3
 5245 020a 63F01F03 		orn	r3, r3, #31
 5246 020e DAB2     		uxtb	r2, r3
 5247 0210 FB69     		ldr	r3, [r7, #28]
 5248 0212 2344     		add	r3, r3, r4
 5249 0214 1A71     		strb	r2, [r3, #4]
1316:.\AdvantageImpl.c ****                 
1317:.\AdvantageImpl.c ****                 puartdisp->_messagetx[index++] = 0xF8; //Preset Data next
 5250              		.loc 1 1317 0
 5251 0216 97F82730 		ldrb	r3, [r7, #39]	@ zero_extendqisi2
 5252 021a 5A1C     		adds	r2, r3, #1
 5253 021c 87F82720 		strb	r2, [r7, #39]
 5254 0220 1A46     		mov	r2, r3
 5255 0222 FB69     		ldr	r3, [r7, #28]
 5256 0224 1344     		add	r3, r3, r2
 5257 0226 F822     		movs	r2, #248
 5258 0228 1A71     		strb	r2, [r3, #4]
1318:.\AdvantageImpl.c ****                 //Here we copy the remaining 8 bytes for the preset value
1319:.\AdvantageImpl.c ****                 ///THIS IS AN APPLIED CONVENTION ===>> 0x0008 INDEX POSITION WITHIN THE PUMP'S BUFF
1320:.\AdvantageImpl.c ****                 ///THESE CODES MUST BE MATCHED OTHERWISE THE LOGIC WILL BREAKUP THE CODE!
1321:.\AdvantageImpl.c ****                 char8 *ptr = &ppump->_trasactionbuffer[0x0008];
 5259              		.loc 1 1321 0
 5260 022a 3B6A     		ldr	r3, [r7, #32]
 5261 022c 2833     		adds	r3, r3, #40
 5262 022e FB60     		str	r3, [r7, #12]
1322:.\AdvantageImpl.c ****                 B78AD90CF552D9B30A(_PUMP_MAXIMUM_PRESET_GALLONS_, (LPRAWPTR)ptr);
 5263              		.loc 1 1322 0
 5264 0230 4FF4FA70 		mov	r0, #500
 5265 0234 4FF00001 		mov	r1, #0
 5266 0238 FA68     		ldr	r2, [r7, #12]
 5267 023a FFF7FEFF 		bl	B78AD90CF552D9B30A
1323:.\AdvantageImpl.c **** 
1324:.\AdvantageImpl.c ****                 PSTRBUFFTOGG(PBYTECAST(&ppump->_trasactionbuffer[0x0008]), 0x08);
 5268              		.loc 1 1324 0
ARM GAS  C:\Users\Lenovo\AppData\Local\Temp\cccA9qMw.s 			page 117


 5269 023e 3B6A     		ldr	r3, [r7, #32]
 5270 0240 2833     		adds	r3, r3, #40
 5271 0242 1846     		mov	r0, r3
 5272 0244 0821     		movs	r1, #8
 5273 0246 FFF7FEFF 		bl	PSTRBUFFTOGG
1325:.\AdvantageImpl.c ****                 if(transtype == 0xF1) //Volume PRESET, then multiply by 1000
 5274              		.loc 1 1325 0
 5275 024a FB7C     		ldrb	r3, [r7, #19]	@ zero_extendqisi2
 5276 024c F12B     		cmp	r3, #241
 5277 024e 04D1     		bne	.L184
1326:.\AdvantageImpl.c ****                     CastVolumeValue(ptr, 0x08);
 5278              		.loc 1 1326 0
 5279 0250 F868     		ldr	r0, [r7, #12]
 5280 0252 0821     		movs	r1, #8
 5281 0254 FFF7FEFF 		bl	CastVolumeValue
 5282 0258 0BE0     		b	.L185
 5283              	.L184:
1327:.\AdvantageImpl.c ****                 else if(!(_g_dispenserlayoutinfo._moneydecimals == 0x03 && _g_dispenserlayoutinfo._
 5284              		.loc 1 1327 0
 5285 025a 324B     		ldr	r3, .L189
 5286 025c DB79     		ldrb	r3, [r3, #7]	@ zero_extendqisi2
 5287 025e 032B     		cmp	r3, #3
 5288 0260 03D1     		bne	.L186
 5289              		.loc 1 1327 0 is_stmt 0 discriminator 1
 5290 0262 304B     		ldr	r3, .L189
 5291 0264 1B7A     		ldrb	r3, [r3, #8]	@ zero_extendqisi2
 5292 0266 022B     		cmp	r3, #2
 5293 0268 03D0     		beq	.L185
 5294              	.L186:
1328:.\AdvantageImpl.c ****                     CastMoneyValue(ptr, 0x08);
 5295              		.loc 1 1328 0 is_stmt 1
 5296 026a F868     		ldr	r0, [r7, #12]
 5297 026c 0821     		movs	r1, #8
 5298 026e FFF7FEFF 		bl	CastMoneyValue
 5299              	.L185:
1329:.\AdvantageImpl.c **** 
1330:.\AdvantageImpl.c ****                 FOR(uint8 buffndx = 0, buffndx < 0x08, buffndx++)
 5300              		.loc 1 1330 0
 5301 0272 0023     		movs	r3, #0
 5302 0274 87F82530 		strb	r3, [r7, #37]
 5303 0278 1DE0     		b	.L187
 5304              	.L188:
1331:.\AdvantageImpl.c ****                     puartdisp->_messagetx[index++] = (0xE0 | (ptr[7 - buffndx] & 0x0F)); //Translat
 5305              		.loc 1 1331 0 discriminator 3
 5306 027a 97F82730 		ldrb	r3, [r7, #39]	@ zero_extendqisi2
 5307 027e 5A1C     		adds	r2, r3, #1
 5308 0280 87F82720 		strb	r2, [r7, #39]
 5309 0284 1946     		mov	r1, r3
 5310 0286 97F82530 		ldrb	r3, [r7, #37]	@ zero_extendqisi2
 5311 028a C3F10703 		rsb	r3, r3, #7
 5312 028e 1A46     		mov	r2, r3
 5313 0290 FB68     		ldr	r3, [r7, #12]
 5314 0292 1344     		add	r3, r3, r2
 5315 0294 1B78     		ldrb	r3, [r3]	@ zero_extendqisi2
 5316 0296 DBB2     		uxtb	r3, r3
 5317 0298 03F00F03 		and	r3, r3, #15
 5318 029c DBB2     		uxtb	r3, r3
ARM GAS  C:\Users\Lenovo\AppData\Local\Temp\cccA9qMw.s 			page 118


 5319 029e 63F01F03 		orn	r3, r3, #31
 5320 02a2 DBB2     		uxtb	r3, r3
 5321 02a4 DAB2     		uxtb	r2, r3
 5322 02a6 FB69     		ldr	r3, [r7, #28]
 5323 02a8 0B44     		add	r3, r3, r1
 5324 02aa 1A71     		strb	r2, [r3, #4]
1330:.\AdvantageImpl.c ****                     puartdisp->_messagetx[index++] = (0xE0 | (ptr[7 - buffndx] & 0x0F)); //Translat
 5325              		.loc 1 1330 0 discriminator 3
 5326 02ac 97F82530 		ldrb	r3, [r7, #37]	@ zero_extendqisi2
 5327 02b0 0133     		adds	r3, r3, #1
 5328 02b2 87F82530 		strb	r3, [r7, #37]
 5329              	.L187:
1330:.\AdvantageImpl.c ****                     puartdisp->_messagetx[index++] = (0xE0 | (ptr[7 - buffndx] & 0x0F)); //Translat
 5330              		.loc 1 1330 0 is_stmt 0 discriminator 1
 5331 02b6 97F82530 		ldrb	r3, [r7, #37]	@ zero_extendqisi2
 5332 02ba 072B     		cmp	r3, #7
 5333 02bc DDD9     		bls	.L188
 5334              	.L183:
 5335              	.LBE36:
1332:.\AdvantageImpl.c ****                     
1333:.\AdvantageImpl.c ****             }
1334:.\AdvantageImpl.c ****             ppump->_presetdone = true;
 5336              		.loc 1 1334 0 is_stmt 1
 5337 02be 3B6A     		ldr	r3, [r7, #32]
 5338 02c0 0122     		movs	r2, #1
 5339 02c2 1A72     		strb	r2, [r3, #8]
1335:.\AdvantageImpl.c **** 
1336:.\AdvantageImpl.c ****             puartdisp->_messagetx[index++] = LRCn; //LRC next
 5340              		.loc 1 1336 0
 5341 02c4 97F82730 		ldrb	r3, [r7, #39]	@ zero_extendqisi2
 5342 02c8 5A1C     		adds	r2, r3, #1
 5343 02ca 87F82720 		strb	r2, [r7, #39]
 5344 02ce 1A46     		mov	r2, r3
 5345 02d0 FB69     		ldr	r3, [r7, #28]
 5346 02d2 1344     		add	r3, r3, r2
 5347 02d4 FB22     		movs	r2, #251
 5348 02d6 1A71     		strb	r2, [r3, #4]
1337:.\AdvantageImpl.c ****             puartdisp->_messagetx[index++] = GetLRC(puartdisp->_messagetx);
 5349              		.loc 1 1337 0
 5350 02d8 97F82730 		ldrb	r3, [r7, #39]	@ zero_extendqisi2
 5351 02dc 5A1C     		adds	r2, r3, #1
 5352 02de 87F82720 		strb	r2, [r7, #39]
 5353 02e2 1C46     		mov	r4, r3
 5354 02e4 FB69     		ldr	r3, [r7, #28]
 5355 02e6 0433     		adds	r3, r3, #4
 5356 02e8 1846     		mov	r0, r3
 5357 02ea FFF7FEFF 		bl	GetLRC
 5358 02ee 0346     		mov	r3, r0
 5359 02f0 1A46     		mov	r2, r3
 5360 02f2 FB69     		ldr	r3, [r7, #28]
 5361 02f4 2344     		add	r3, r3, r4
 5362 02f6 1A71     		strb	r2, [r3, #4]
1338:.\AdvantageImpl.c ****             puartdisp->_messagetx[index++] = EOM;
 5363              		.loc 1 1338 0
 5364 02f8 97F82730 		ldrb	r3, [r7, #39]	@ zero_extendqisi2
 5365 02fc 5A1C     		adds	r2, r3, #1
 5366 02fe 87F82720 		strb	r2, [r7, #39]
ARM GAS  C:\Users\Lenovo\AppData\Local\Temp\cccA9qMw.s 			page 119


 5367 0302 1A46     		mov	r2, r3
 5368 0304 FB69     		ldr	r3, [r7, #28]
 5369 0306 1344     		add	r3, r3, r2
 5370 0308 F022     		movs	r2, #240
 5371 030a 1A71     		strb	r2, [r3, #4]
1339:.\AdvantageImpl.c **** ///////////////////////////////////////////////////////////////////////////////////////////////////
1340:.\AdvantageImpl.c ****             
1341:.\AdvantageImpl.c ****             puartdisp->_messagelength = index;
 5372              		.loc 1 1341 0
 5373 030c 97F82730 		ldrb	r3, [r7, #39]	@ zero_extendqisi2
 5374 0310 9AB2     		uxth	r2, r3
 5375 0312 FB69     		ldr	r3, [r7, #28]
 5376 0314 5A80     		strh	r2, [r3, #2]	@ movhi
1342:.\AdvantageImpl.c ****             puartdisp->_messagestate = PENDING;
 5377              		.loc 1 1342 0
 5378 0316 FB69     		ldr	r3, [r7, #28]
 5379 0318 C222     		movs	r2, #194
 5380 031a 1A70     		strb	r2, [r3]
 5381              	.L175:
 5382              	.LBE34:
1343:.\AdvantageImpl.c ****         }
1344:.\AdvantageImpl.c ****     }
1345:.\AdvantageImpl.c ****     
1346:.\AdvantageImpl.c **** }
 5383              		.loc 1 1346 0
 5384 031c 2C37     		adds	r7, r7, #44
 5385              		.cfi_def_cfa_offset 12
 5386 031e BD46     		mov	sp, r7
 5387              		.cfi_def_cfa_register 13
 5388              		@ sp needed
 5389 0320 90BD     		pop	{r4, r7, pc}
 5390              	.L190:
 5391 0322 00BF     		.align	2
 5392              	.L189:
 5393 0324 00000000 		.word	_g_dispenserlayoutinfo
 5394              		.cfi_endproc
 5395              	.LFE83:
 5396              		.size	PumpFullPresetHose, .-PumpFullPresetHose
 5397              		.section	.text.PumpFullPresetNoHose,"ax",%progbits
 5398              		.align	2
 5399              		.global	PumpFullPresetNoHose
 5400              		.thumb
 5401              		.thumb_func
 5402              		.type	PumpFullPresetNoHose, %function
 5403              	PumpFullPresetNoHose:
 5404              	.LFB84:
1347:.\AdvantageImpl.c **** 
1348:.\AdvantageImpl.c **** //@Created By: HIJH
1349:.\AdvantageImpl.c **** //@Septembre de 2016
1350:.\AdvantageImpl.c **** ///////////////////////////////////////////////////////////////////////////////////////////////////
1351:.\AdvantageImpl.c **** //Preset values will be placed within the SinkMessage's buffer. This is a convention that applies t
1352:.\AdvantageImpl.c **** //all of the available transactions. The pump function must deal with this while it is assembling t
1353:.\AdvantageImpl.c **** //For this message the data comes as follows:
1354:.\AdvantageImpl.c **** // - First byte is the preset type (Volume:1 / Money:2 )
1355:.\AdvantageImpl.c **** // - Second byte is the Hose (A:0, B:1, C:2, D:3)
1356:.\AdvantageImpl.c **** // - Block of 8 bytes for the preset value
1357:.\AdvantageImpl.c **** //This block of data (10 bytes) must be moved to another position within the same buffer (even posi
ARM GAS  C:\Users\Lenovo\AppData\Local\Temp\cccA9qMw.s 			page 120


1358:.\AdvantageImpl.c **** void PumpFullPresetNoHose(void *pparam)
1359:.\AdvantageImpl.c **** {
 5405              		.loc 1 1359 0
 5406              		.cfi_startproc
 5407              		@ args = 0, pretend = 0, frame = 40
 5408              		@ frame_needed = 1, uses_anonymous_args = 0
 5409 0000 90B5     		push	{r4, r7, lr}
 5410              		.cfi_def_cfa_offset 12
 5411              		.cfi_offset 4, -12
 5412              		.cfi_offset 7, -8
 5413              		.cfi_offset 14, -4
 5414 0002 8BB0     		sub	sp, sp, #44
 5415              		.cfi_def_cfa_offset 56
 5416 0004 00AF     		add	r7, sp, #0
 5417              		.cfi_def_cfa_register 7
 5418 0006 7860     		str	r0, [r7, #4]
1360:.\AdvantageImpl.c ****     PNEAR_PUMPPTR ppump = (PNEAR_PUMPPTR)pparam;
 5419              		.loc 1 1360 0
 5420 0008 7B68     		ldr	r3, [r7, #4]
 5421 000a 3B62     		str	r3, [r7, #32]
1361:.\AdvantageImpl.c ****     if(ppump)
 5422              		.loc 1 1361 0
 5423 000c 3B6A     		ldr	r3, [r7, #32]
 5424 000e 002B     		cmp	r3, #0
 5425 0010 00F02A81 		beq	.L191
 5426              	.LBB37:
1362:.\AdvantageImpl.c ****     {
1363:.\AdvantageImpl.c ****         uint8_t index = 0;        
 5427              		.loc 1 1363 0
 5428 0014 0023     		movs	r3, #0
 5429 0016 87F82730 		strb	r3, [r7, #39]
1364:.\AdvantageImpl.c ****         PUARTMESSAGEPTR puartdisp = GetUARTMessageSlot(UART_DISPENSER);
 5430              		.loc 1 1364 0
 5431 001a A220     		movs	r0, #162
 5432 001c FFF7FEFF 		bl	GetUARTMessageSlot
 5433 0020 F861     		str	r0, [r7, #28]
1365:.\AdvantageImpl.c ****         memset(ppump->_rxbuffer, 0x00, _PUMP_RX_BUFFER_SIZE_);
 5434              		.loc 1 1365 0
 5435 0022 3B6A     		ldr	r3, [r7, #32]
 5436 0024 03F5D073 		add	r3, r3, #416
 5437 0028 1846     		mov	r0, r3
 5438 002a 0021     		movs	r1, #0
 5439 002c 4FF4C072 		mov	r2, #384
 5440 0030 FFF7FEFF 		bl	memset
1366:.\AdvantageImpl.c ****         if(puartdisp)
 5441              		.loc 1 1366 0
 5442 0034 FB69     		ldr	r3, [r7, #28]
 5443 0036 002B     		cmp	r3, #0
 5444 0038 00F01681 		beq	.L191
1367:.\AdvantageImpl.c ****         {
1368:.\AdvantageImpl.c ****             //This is required for the "Temination Handler" that will post the preset to the remote
1369:.\AdvantageImpl.c ****             ppump->_trasactionbuffer[0x0004] = 0x0F;
 5445              		.loc 1 1369 0
 5446 003c 3B6A     		ldr	r3, [r7, #32]
 5447 003e 0F22     		movs	r2, #15
 5448 0040 83F82420 		strb	r2, [r3, #36]
1370:.\AdvantageImpl.c **** ///////////////////////////////////////////////////////////////////////////////////////////////////
ARM GAS  C:\Users\Lenovo\AppData\Local\Temp\cccA9qMw.s 			page 121


1371:.\AdvantageImpl.c ****             puartdisp->_messagetx[index++] = SOM;
 5449              		.loc 1 1371 0
 5450 0044 97F82730 		ldrb	r3, [r7, #39]	@ zero_extendqisi2
 5451 0048 5A1C     		adds	r2, r3, #1
 5452 004a 87F82720 		strb	r2, [r7, #39]
 5453 004e 1A46     		mov	r2, r3
 5454 0050 FB69     		ldr	r3, [r7, #28]
 5455 0052 1344     		add	r3, r3, r2
 5456 0054 FF22     		movs	r2, #255
 5457 0056 1A71     		strb	r2, [r3, #4]
1372:.\AdvantageImpl.c ****             if(_g_dispenserlayoutinfo._displaydigitsmode == 0x06)
 5458              		.loc 1 1372 0
 5459 0058 854B     		ldr	r3, .L205
 5460 005a 1B7C     		ldrb	r3, [r3, #16]	@ zero_extendqisi2
 5461 005c 062B     		cmp	r3, #6
 5462 005e 6AD1     		bne	.L193
 5463              	.LBB38:
1373:.\AdvantageImpl.c ****             {
1374:.\AdvantageImpl.c ****                 puartdisp->_messagetx[index++] = 0xE5;
 5464              		.loc 1 1374 0
 5465 0060 97F82730 		ldrb	r3, [r7, #39]	@ zero_extendqisi2
 5466 0064 5A1C     		adds	r2, r3, #1
 5467 0066 87F82720 		strb	r2, [r7, #39]
 5468 006a 1A46     		mov	r2, r3
 5469 006c FB69     		ldr	r3, [r7, #28]
 5470 006e 1344     		add	r3, r3, r2
 5471 0070 E522     		movs	r2, #229
 5472 0072 1A71     		strb	r2, [r3, #4]
1375:.\AdvantageImpl.c ****                 
1376:.\AdvantageImpl.c ****                 ///THIS IS AN APPLIED CONVENTION ===>> 0x0004 INDEX POSITION WITHIN THE PUMP'S BUFF
1377:.\AdvantageImpl.c ****                 ///THESE CODES MUST BE MATCHED OTHERWISE THE LOGIC WILL BREAKUP THE CODE!
1378:.\AdvantageImpl.c ****                 uint8 transtype = 0xF1;//preset type (0xF2 = Money, 0xF1 = Volume)
 5473              		.loc 1 1378 0
 5474 0074 F123     		movs	r3, #241
 5475 0076 FB76     		strb	r3, [r7, #27]
1379:.\AdvantageImpl.c ****                 puartdisp->_messagetx[index++] = transtype;//preset type (0xF2 = Money, 0xF1 = Volu
 5476              		.loc 1 1379 0
 5477 0078 97F82730 		ldrb	r3, [r7, #39]	@ zero_extendqisi2
 5478 007c 5A1C     		adds	r2, r3, #1
 5479 007e 87F82720 		strb	r2, [r7, #39]
 5480 0082 1A46     		mov	r2, r3
 5481 0084 FB69     		ldr	r3, [r7, #28]
 5482 0086 1344     		add	r3, r3, r2
 5483 0088 FA7E     		ldrb	r2, [r7, #27]
 5484 008a 1A71     		strb	r2, [r3, #4]
1380:.\AdvantageImpl.c ****                 
1381:.\AdvantageImpl.c ****                 puartdisp->_messagetx[index++] = 0xF8; //Preset Data next
 5485              		.loc 1 1381 0
 5486 008c 97F82730 		ldrb	r3, [r7, #39]	@ zero_extendqisi2
 5487 0090 5A1C     		adds	r2, r3, #1
 5488 0092 87F82720 		strb	r2, [r7, #39]
 5489 0096 1A46     		mov	r2, r3
 5490 0098 FB69     		ldr	r3, [r7, #28]
 5491 009a 1344     		add	r3, r3, r2
 5492 009c F822     		movs	r2, #248
 5493 009e 1A71     		strb	r2, [r3, #4]
1382:.\AdvantageImpl.c ****                 //Here we copy the remaining 8 bytes for the preset value
ARM GAS  C:\Users\Lenovo\AppData\Local\Temp\cccA9qMw.s 			page 122


1383:.\AdvantageImpl.c ****                 ///THIS IS AN APPLIED CONVENTION ===>> 0x0008 INDEX POSITION WITHIN THE PUMP'S BUFF
1384:.\AdvantageImpl.c ****                 ///THESE CODES MUST BE MATCHED OTHERWISE THE LOGIC WILL BREAKUP THE CODE!
1385:.\AdvantageImpl.c ****                 char8 *ptr = &ppump->_trasactionbuffer[0x0008];
 5494              		.loc 1 1385 0
 5495 00a0 3B6A     		ldr	r3, [r7, #32]
 5496 00a2 2833     		adds	r3, r3, #40
 5497 00a4 7B61     		str	r3, [r7, #20]
1386:.\AdvantageImpl.c ****                 //B78AD90CF552D9B30A(_PUMP_MAXIMUM_PRESET_6_DIGITS_, (LPRAWPTR)ptr);
1387:.\AdvantageImpl.c ****                 B78AD90CF552D9B30A(10 * _PUMP_MAXIMUM_PRESET_GALLONS_, (LPRAWPTR)ptr);
 5498              		.loc 1 1387 0
 5499 00a6 41F28830 		movw	r0, #5000
 5500 00aa 4FF00001 		mov	r1, #0
 5501 00ae 7A69     		ldr	r2, [r7, #20]
 5502 00b0 FFF7FEFF 		bl	B78AD90CF552D9B30A
1388:.\AdvantageImpl.c **** 
1389:.\AdvantageImpl.c ****                 PSTRBUFFTOGG(PBYTECAST(&ppump->_trasactionbuffer[0x0008]), 0x08);
 5503              		.loc 1 1389 0
 5504 00b4 3B6A     		ldr	r3, [r7, #32]
 5505 00b6 2833     		adds	r3, r3, #40
 5506 00b8 1846     		mov	r0, r3
 5507 00ba 0821     		movs	r1, #8
 5508 00bc FFF7FEFF 		bl	PSTRBUFFTOGG
1390:.\AdvantageImpl.c ****                 if(transtype == 0xF1) //Volume PRESET, then multiply by 1000
 5509              		.loc 1 1390 0
 5510 00c0 FB7E     		ldrb	r3, [r7, #27]	@ zero_extendqisi2
 5511 00c2 F12B     		cmp	r3, #241
 5512 00c4 04D1     		bne	.L194
1391:.\AdvantageImpl.c ****                     CastVolumeValue(ptr, 0x08);
 5513              		.loc 1 1391 0
 5514 00c6 7869     		ldr	r0, [r7, #20]
 5515 00c8 0821     		movs	r1, #8
 5516 00ca FFF7FEFF 		bl	CastVolumeValue
 5517 00ce 0BE0     		b	.L195
 5518              	.L194:
1392:.\AdvantageImpl.c ****                 else if(!(_g_dispenserlayoutinfo._moneydecimals == 0x03 && _g_dispenserlayoutinfo._
 5519              		.loc 1 1392 0
 5520 00d0 674B     		ldr	r3, .L205
 5521 00d2 DB79     		ldrb	r3, [r3, #7]	@ zero_extendqisi2
 5522 00d4 032B     		cmp	r3, #3
 5523 00d6 03D1     		bne	.L196
 5524              		.loc 1 1392 0 is_stmt 0 discriminator 1
 5525 00d8 654B     		ldr	r3, .L205
 5526 00da 1B7A     		ldrb	r3, [r3, #8]	@ zero_extendqisi2
 5527 00dc 022B     		cmp	r3, #2
 5528 00de 03D0     		beq	.L195
 5529              	.L196:
1393:.\AdvantageImpl.c ****                     CastMoneyValue(ptr, 0x08);
 5530              		.loc 1 1393 0 is_stmt 1
 5531 00e0 7869     		ldr	r0, [r7, #20]
 5532 00e2 0821     		movs	r1, #8
 5533 00e4 FFF7FEFF 		bl	CastMoneyValue
 5534              	.L195:
1394:.\AdvantageImpl.c **** 
1395:.\AdvantageImpl.c ****                 FOR(uint8 buffndx = 0, buffndx < 0x05, buffndx++)
 5535              		.loc 1 1395 0
 5536 00e8 0023     		movs	r3, #0
 5537 00ea 87F82630 		strb	r3, [r7, #38]
ARM GAS  C:\Users\Lenovo\AppData\Local\Temp\cccA9qMw.s 			page 123


 5538 00ee 1DE0     		b	.L197
 5539              	.L198:
1396:.\AdvantageImpl.c ****                     puartdisp->_messagetx[index++] = (0xE0 | (ptr[7 - buffndx] & 0x0F)); //Translat
 5540              		.loc 1 1396 0 discriminator 3
 5541 00f0 97F82730 		ldrb	r3, [r7, #39]	@ zero_extendqisi2
 5542 00f4 5A1C     		adds	r2, r3, #1
 5543 00f6 87F82720 		strb	r2, [r7, #39]
 5544 00fa 1946     		mov	r1, r3
 5545 00fc 97F82630 		ldrb	r3, [r7, #38]	@ zero_extendqisi2
 5546 0100 C3F10703 		rsb	r3, r3, #7
 5547 0104 1A46     		mov	r2, r3
 5548 0106 7B69     		ldr	r3, [r7, #20]
 5549 0108 1344     		add	r3, r3, r2
 5550 010a 1B78     		ldrb	r3, [r3]	@ zero_extendqisi2
 5551 010c DBB2     		uxtb	r3, r3
 5552 010e 03F00F03 		and	r3, r3, #15
 5553 0112 DBB2     		uxtb	r3, r3
 5554 0114 63F01F03 		orn	r3, r3, #31
 5555 0118 DBB2     		uxtb	r3, r3
 5556 011a DAB2     		uxtb	r2, r3
 5557 011c FB69     		ldr	r3, [r7, #28]
 5558 011e 0B44     		add	r3, r3, r1
 5559 0120 1A71     		strb	r2, [r3, #4]
1395:.\AdvantageImpl.c ****                     puartdisp->_messagetx[index++] = (0xE0 | (ptr[7 - buffndx] & 0x0F)); //Translat
 5560              		.loc 1 1395 0 discriminator 3
 5561 0122 97F82630 		ldrb	r3, [r7, #38]	@ zero_extendqisi2
 5562 0126 0133     		adds	r3, r3, #1
 5563 0128 87F82630 		strb	r3, [r7, #38]
 5564              	.L197:
1395:.\AdvantageImpl.c ****                     puartdisp->_messagetx[index++] = (0xE0 | (ptr[7 - buffndx] & 0x0F)); //Translat
 5565              		.loc 1 1395 0 is_stmt 0 discriminator 1
 5566 012c 97F82630 		ldrb	r3, [r7, #38]	@ zero_extendqisi2
 5567 0130 042B     		cmp	r3, #4
 5568 0132 DDD9     		bls	.L198
 5569              	.LBE38:
 5570 0134 69E0     		b	.L199
 5571              	.L193:
 5572              	.LBB39:
1397:.\AdvantageImpl.c ****                     
1398:.\AdvantageImpl.c ****             }
1399:.\AdvantageImpl.c ****             else
1400:.\AdvantageImpl.c ****             {
1401:.\AdvantageImpl.c ****                 puartdisp->_messagetx[index++] = 0xE3;
 5573              		.loc 1 1401 0 is_stmt 1
 5574 0136 97F82730 		ldrb	r3, [r7, #39]	@ zero_extendqisi2
 5575 013a 5A1C     		adds	r2, r3, #1
 5576 013c 87F82720 		strb	r2, [r7, #39]
 5577 0140 1A46     		mov	r2, r3
 5578 0142 FB69     		ldr	r3, [r7, #28]
 5579 0144 1344     		add	r3, r3, r2
 5580 0146 E322     		movs	r2, #227
 5581 0148 1A71     		strb	r2, [r3, #4]
1402:.\AdvantageImpl.c ****                 
1403:.\AdvantageImpl.c ****                 ///THIS IS AN APPLIED CONVENTION ===>> 0x0004 INDEX POSITION WITHIN THE PUMP'S BUFF
1404:.\AdvantageImpl.c ****                 ///THESE CODES MUST BE MATCHED OTHERWISE THE LOGIC WILL BREAKUP THE CODE!
1405:.\AdvantageImpl.c ****                 uint8 transtype = 0xF1;//preset type (0xF2 = Money, 0xF1 = Volume)
 5582              		.loc 1 1405 0
ARM GAS  C:\Users\Lenovo\AppData\Local\Temp\cccA9qMw.s 			page 124


 5583 014a F123     		movs	r3, #241
 5584 014c FB74     		strb	r3, [r7, #19]
1406:.\AdvantageImpl.c ****                 puartdisp->_messagetx[index++] = transtype;//preset type (0xF2 = Money, 0xF1 = Volu
 5585              		.loc 1 1406 0
 5586 014e 97F82730 		ldrb	r3, [r7, #39]	@ zero_extendqisi2
 5587 0152 5A1C     		adds	r2, r3, #1
 5588 0154 87F82720 		strb	r2, [r7, #39]
 5589 0158 1A46     		mov	r2, r3
 5590 015a FB69     		ldr	r3, [r7, #28]
 5591 015c 1344     		add	r3, r3, r2
 5592 015e FA7C     		ldrb	r2, [r7, #19]
 5593 0160 1A71     		strb	r2, [r3, #4]
1407:.\AdvantageImpl.c ****                 
1408:.\AdvantageImpl.c ****                 puartdisp->_messagetx[index++] = 0xF8; //Preset Data next
 5594              		.loc 1 1408 0
 5595 0162 97F82730 		ldrb	r3, [r7, #39]	@ zero_extendqisi2
 5596 0166 5A1C     		adds	r2, r3, #1
 5597 0168 87F82720 		strb	r2, [r7, #39]
 5598 016c 1A46     		mov	r2, r3
 5599 016e FB69     		ldr	r3, [r7, #28]
 5600 0170 1344     		add	r3, r3, r2
 5601 0172 F822     		movs	r2, #248
 5602 0174 1A71     		strb	r2, [r3, #4]
1409:.\AdvantageImpl.c ****                 //Here we copy the remaining 8 bytes for the preset value
1410:.\AdvantageImpl.c ****                 ///THIS IS AN APPLIED CONVENTION ===>> 0x0008 INDEX POSITION WITHIN THE PUMP'S BUFF
1411:.\AdvantageImpl.c ****                 ///THESE CODES MUST BE MATCHED OTHERWISE THE LOGIC WILL BREAKUP THE CODE!
1412:.\AdvantageImpl.c ****                 char8 *ptr = &ppump->_trasactionbuffer[0x0008];
 5603              		.loc 1 1412 0
 5604 0176 3B6A     		ldr	r3, [r7, #32]
 5605 0178 2833     		adds	r3, r3, #40
 5606 017a FB60     		str	r3, [r7, #12]
1413:.\AdvantageImpl.c ****                 //B78AD90CF552D9B30A(_PUMP_MAXIMUM_PRESET_6_DIGITS_, (LPRAWPTR)ptr);
1414:.\AdvantageImpl.c ****                 B78AD90CF552D9B30A(_PUMP_MAXIMUM_PRESET_GALLONS_, (LPRAWPTR)ptr);
 5607              		.loc 1 1414 0
 5608 017c 4FF4FA70 		mov	r0, #500
 5609 0180 4FF00001 		mov	r1, #0
 5610 0184 FA68     		ldr	r2, [r7, #12]
 5611 0186 FFF7FEFF 		bl	B78AD90CF552D9B30A
1415:.\AdvantageImpl.c **** 
1416:.\AdvantageImpl.c ****                 PSTRBUFFTOGG(PBYTECAST(&ppump->_trasactionbuffer[0x0008]), 0x08);
 5612              		.loc 1 1416 0
 5613 018a 3B6A     		ldr	r3, [r7, #32]
 5614 018c 2833     		adds	r3, r3, #40
 5615 018e 1846     		mov	r0, r3
 5616 0190 0821     		movs	r1, #8
 5617 0192 FFF7FEFF 		bl	PSTRBUFFTOGG
1417:.\AdvantageImpl.c ****                 if(transtype == 0xF1) //Volume PRESET, then multiply by 1000
 5618              		.loc 1 1417 0
 5619 0196 FB7C     		ldrb	r3, [r7, #19]	@ zero_extendqisi2
 5620 0198 F12B     		cmp	r3, #241
 5621 019a 04D1     		bne	.L200
1418:.\AdvantageImpl.c ****                     CastVolumeValue(ptr, 0x08);
 5622              		.loc 1 1418 0
 5623 019c F868     		ldr	r0, [r7, #12]
 5624 019e 0821     		movs	r1, #8
 5625 01a0 FFF7FEFF 		bl	CastVolumeValue
 5626 01a4 0BE0     		b	.L201
ARM GAS  C:\Users\Lenovo\AppData\Local\Temp\cccA9qMw.s 			page 125


 5627              	.L200:
1419:.\AdvantageImpl.c ****                 else if(!(_g_dispenserlayoutinfo._moneydecimals == 0x03 && _g_dispenserlayoutinfo._
 5628              		.loc 1 1419 0
 5629 01a6 324B     		ldr	r3, .L205
 5630 01a8 DB79     		ldrb	r3, [r3, #7]	@ zero_extendqisi2
 5631 01aa 032B     		cmp	r3, #3
 5632 01ac 03D1     		bne	.L202
 5633              		.loc 1 1419 0 is_stmt 0 discriminator 1
 5634 01ae 304B     		ldr	r3, .L205
 5635 01b0 1B7A     		ldrb	r3, [r3, #8]	@ zero_extendqisi2
 5636 01b2 022B     		cmp	r3, #2
 5637 01b4 03D0     		beq	.L201
 5638              	.L202:
1420:.\AdvantageImpl.c ****                     CastMoneyValue(ptr, 0x08);
 5639              		.loc 1 1420 0 is_stmt 1
 5640 01b6 F868     		ldr	r0, [r7, #12]
 5641 01b8 0821     		movs	r1, #8
 5642 01ba FFF7FEFF 		bl	CastMoneyValue
 5643              	.L201:
1421:.\AdvantageImpl.c **** 
1422:.\AdvantageImpl.c ****                 FOR(uint8 buffndx = 0, buffndx < 0x08, buffndx++)
 5644              		.loc 1 1422 0
 5645 01be 0023     		movs	r3, #0
 5646 01c0 87F82530 		strb	r3, [r7, #37]
 5647 01c4 1DE0     		b	.L203
 5648              	.L204:
1423:.\AdvantageImpl.c ****                     puartdisp->_messagetx[index++] = (0xE0 | (ptr[7 - buffndx] & 0x0F)); //Translat
 5649              		.loc 1 1423 0 discriminator 3
 5650 01c6 97F82730 		ldrb	r3, [r7, #39]	@ zero_extendqisi2
 5651 01ca 5A1C     		adds	r2, r3, #1
 5652 01cc 87F82720 		strb	r2, [r7, #39]
 5653 01d0 1946     		mov	r1, r3
 5654 01d2 97F82530 		ldrb	r3, [r7, #37]	@ zero_extendqisi2
 5655 01d6 C3F10703 		rsb	r3, r3, #7
 5656 01da 1A46     		mov	r2, r3
 5657 01dc FB68     		ldr	r3, [r7, #12]
 5658 01de 1344     		add	r3, r3, r2
 5659 01e0 1B78     		ldrb	r3, [r3]	@ zero_extendqisi2
 5660 01e2 DBB2     		uxtb	r3, r3
 5661 01e4 03F00F03 		and	r3, r3, #15
 5662 01e8 DBB2     		uxtb	r3, r3
 5663 01ea 63F01F03 		orn	r3, r3, #31
 5664 01ee DBB2     		uxtb	r3, r3
 5665 01f0 DAB2     		uxtb	r2, r3
 5666 01f2 FB69     		ldr	r3, [r7, #28]
 5667 01f4 0B44     		add	r3, r3, r1
 5668 01f6 1A71     		strb	r2, [r3, #4]
1422:.\AdvantageImpl.c ****                     puartdisp->_messagetx[index++] = (0xE0 | (ptr[7 - buffndx] & 0x0F)); //Translat
 5669              		.loc 1 1422 0 discriminator 3
 5670 01f8 97F82530 		ldrb	r3, [r7, #37]	@ zero_extendqisi2
 5671 01fc 0133     		adds	r3, r3, #1
 5672 01fe 87F82530 		strb	r3, [r7, #37]
 5673              	.L203:
1422:.\AdvantageImpl.c ****                     puartdisp->_messagetx[index++] = (0xE0 | (ptr[7 - buffndx] & 0x0F)); //Translat
 5674              		.loc 1 1422 0 is_stmt 0 discriminator 1
 5675 0202 97F82530 		ldrb	r3, [r7, #37]	@ zero_extendqisi2
 5676 0206 072B     		cmp	r3, #7
ARM GAS  C:\Users\Lenovo\AppData\Local\Temp\cccA9qMw.s 			page 126


 5677 0208 DDD9     		bls	.L204
 5678              	.L199:
 5679              	.LBE39:
1424:.\AdvantageImpl.c ****             }
1425:.\AdvantageImpl.c ****             ppump->_presetdone = true;
 5680              		.loc 1 1425 0 is_stmt 1
 5681 020a 3B6A     		ldr	r3, [r7, #32]
 5682 020c 0122     		movs	r2, #1
 5683 020e 1A72     		strb	r2, [r3, #8]
1426:.\AdvantageImpl.c **** 
1427:.\AdvantageImpl.c ****             puartdisp->_messagetx[index++] = 0xFB; //LRC next
 5684              		.loc 1 1427 0
 5685 0210 97F82730 		ldrb	r3, [r7, #39]	@ zero_extendqisi2
 5686 0214 5A1C     		adds	r2, r3, #1
 5687 0216 87F82720 		strb	r2, [r7, #39]
 5688 021a 1A46     		mov	r2, r3
 5689 021c FB69     		ldr	r3, [r7, #28]
 5690 021e 1344     		add	r3, r3, r2
 5691 0220 FB22     		movs	r2, #251
 5692 0222 1A71     		strb	r2, [r3, #4]
1428:.\AdvantageImpl.c ****             puartdisp->_messagetx[index++] = GetLRC(puartdisp->_messagetx);
 5693              		.loc 1 1428 0
 5694 0224 97F82730 		ldrb	r3, [r7, #39]	@ zero_extendqisi2
 5695 0228 5A1C     		adds	r2, r3, #1
 5696 022a 87F82720 		strb	r2, [r7, #39]
 5697 022e 1C46     		mov	r4, r3
 5698 0230 FB69     		ldr	r3, [r7, #28]
 5699 0232 0433     		adds	r3, r3, #4
 5700 0234 1846     		mov	r0, r3
 5701 0236 FFF7FEFF 		bl	GetLRC
 5702 023a 0346     		mov	r3, r0
 5703 023c 1A46     		mov	r2, r3
 5704 023e FB69     		ldr	r3, [r7, #28]
 5705 0240 2344     		add	r3, r3, r4
 5706 0242 1A71     		strb	r2, [r3, #4]
1429:.\AdvantageImpl.c ****             puartdisp->_messagetx[index++] = EOM;
 5707              		.loc 1 1429 0
 5708 0244 97F82730 		ldrb	r3, [r7, #39]	@ zero_extendqisi2
 5709 0248 5A1C     		adds	r2, r3, #1
 5710 024a 87F82720 		strb	r2, [r7, #39]
 5711 024e 1A46     		mov	r2, r3
 5712 0250 FB69     		ldr	r3, [r7, #28]
 5713 0252 1344     		add	r3, r3, r2
 5714 0254 F022     		movs	r2, #240
 5715 0256 1A71     		strb	r2, [r3, #4]
1430:.\AdvantageImpl.c **** ///////////////////////////////////////////////////////////////////////////////////////////////////
1431:.\AdvantageImpl.c ****             
1432:.\AdvantageImpl.c ****             puartdisp->_messagelength = index;
 5716              		.loc 1 1432 0
 5717 0258 97F82730 		ldrb	r3, [r7, #39]	@ zero_extendqisi2
 5718 025c 9AB2     		uxth	r2, r3
 5719 025e FB69     		ldr	r3, [r7, #28]
 5720 0260 5A80     		strh	r2, [r3, #2]	@ movhi
1433:.\AdvantageImpl.c ****             puartdisp->_messagestate = PENDING;
 5721              		.loc 1 1433 0
 5722 0262 FB69     		ldr	r3, [r7, #28]
 5723 0264 C222     		movs	r2, #194
ARM GAS  C:\Users\Lenovo\AppData\Local\Temp\cccA9qMw.s 			page 127


 5724 0266 1A70     		strb	r2, [r3]
 5725              	.L191:
 5726              	.LBE37:
1434:.\AdvantageImpl.c ****         }
1435:.\AdvantageImpl.c ****     }
1436:.\AdvantageImpl.c ****     
1437:.\AdvantageImpl.c **** }
 5727              		.loc 1 1437 0
 5728 0268 2C37     		adds	r7, r7, #44
 5729              		.cfi_def_cfa_offset 12
 5730 026a BD46     		mov	sp, r7
 5731              		.cfi_def_cfa_register 13
 5732              		@ sp needed
 5733 026c 90BD     		pop	{r4, r7, pc}
 5734              	.L206:
 5735 026e 00BF     		.align	2
 5736              	.L205:
 5737 0270 00000000 		.word	_g_dispenserlayoutinfo
 5738              		.cfi_endproc
 5739              	.LFE84:
 5740              		.size	PumpFullPresetNoHose, .-PumpFullPresetNoHose
 5741              		.section	.text.PumpPpuChange,"ax",%progbits
 5742              		.align	2
 5743              		.global	PumpPpuChange
 5744              		.thumb
 5745              		.thumb_func
 5746              		.type	PumpPpuChange, %function
 5747              	PumpPpuChange:
 5748              	.LFB85:
1438:.\AdvantageImpl.c **** 
1439:.\AdvantageImpl.c **** //@Created By: HIJH
1440:.\AdvantageImpl.c **** //@Septembre de 2016
1441:.\AdvantageImpl.c **** ///////////////////////////////////////////////////////////////////////////////////////////////////
1442:.\AdvantageImpl.c **** //PPU value will be placed within the SinkMessage's buffer. This is a convention that applies to 
1443:.\AdvantageImpl.c **** //all of the available transactions. The pump function must deal with this while it is assembling t
1444:.\AdvantageImpl.c **** //For this message the data comes as follows:
1445:.\AdvantageImpl.c **** // - First byte is the Hose (A:0, B:1, C:2, D:3)
1446:.\AdvantageImpl.c **** // - Block of 6 bytes for the PPU value
1447:.\AdvantageImpl.c **** //This block of data (6 bytes) must be moved to another position within the same buffer (even posit
1448:.\AdvantageImpl.c **** void PumpPpuChange(void *pparam)
1449:.\AdvantageImpl.c **** {
 5749              		.loc 1 1449 0
 5750              		.cfi_startproc
 5751              		@ args = 0, pretend = 0, frame = 32
 5752              		@ frame_needed = 1, uses_anonymous_args = 0
 5753 0000 B0B5     		push	{r4, r5, r7, lr}
 5754              		.cfi_def_cfa_offset 16
 5755              		.cfi_offset 4, -16
 5756              		.cfi_offset 5, -12
 5757              		.cfi_offset 7, -8
 5758              		.cfi_offset 14, -4
 5759 0002 88B0     		sub	sp, sp, #32
 5760              		.cfi_def_cfa_offset 48
 5761 0004 00AF     		add	r7, sp, #0
 5762              		.cfi_def_cfa_register 7
 5763 0006 7860     		str	r0, [r7, #4]
1450:.\AdvantageImpl.c ****     PNEAR_PUMPPTR ppump = (PNEAR_PUMPPTR)pparam;
ARM GAS  C:\Users\Lenovo\AppData\Local\Temp\cccA9qMw.s 			page 128


 5764              		.loc 1 1450 0
 5765 0008 7B68     		ldr	r3, [r7, #4]
 5766 000a BB61     		str	r3, [r7, #24]
1451:.\AdvantageImpl.c ****     if(ppump)
 5767              		.loc 1 1451 0
 5768 000c BB69     		ldr	r3, [r7, #24]
 5769 000e 002B     		cmp	r3, #0
 5770 0010 00F05281 		beq	.L207
 5771              	.LBB40:
1452:.\AdvantageImpl.c ****     {
1453:.\AdvantageImpl.c ****         uint8_t index = 0;  
 5772              		.loc 1 1453 0
 5773 0014 0023     		movs	r3, #0
 5774 0016 FB77     		strb	r3, [r7, #31]
1454:.\AdvantageImpl.c ****         memset(ppump->_rxbuffer, 0x00, _PUMP_RX_BUFFER_SIZE_);
 5775              		.loc 1 1454 0
 5776 0018 BB69     		ldr	r3, [r7, #24]
 5777 001a 03F5D073 		add	r3, r3, #416
 5778 001e 1846     		mov	r0, r3
 5779 0020 0021     		movs	r1, #0
 5780 0022 4FF4C072 		mov	r2, #384
 5781 0026 FFF7FEFF 		bl	memset
1455:.\AdvantageImpl.c ****         PUARTMESSAGEPTR puartdisp = GetUARTMessageSlot(UART_DISPENSER);
 5782              		.loc 1 1455 0
 5783 002a A220     		movs	r0, #162
 5784 002c FFF7FEFF 		bl	GetUARTMessageSlot
 5785 0030 7861     		str	r0, [r7, #20]
1456:.\AdvantageImpl.c ****         if(puartdisp)
 5786              		.loc 1 1456 0
 5787 0032 7B69     		ldr	r3, [r7, #20]
 5788 0034 002B     		cmp	r3, #0
 5789 0036 00F03F81 		beq	.L207
 5790              	.LBB41:
1457:.\AdvantageImpl.c ****         {
1458:.\AdvantageImpl.c **** ///////////////////////////////////////////////////////////////////////////////////////////////////
1459:.\AdvantageImpl.c ****             puartdisp->_messagetx[index++] = SOM;
 5791              		.loc 1 1459 0
 5792 003a FB7F     		ldrb	r3, [r7, #31]	@ zero_extendqisi2
 5793 003c 5A1C     		adds	r2, r3, #1
 5794 003e FA77     		strb	r2, [r7, #31]
 5795 0040 1A46     		mov	r2, r3
 5796 0042 7B69     		ldr	r3, [r7, #20]
 5797 0044 1344     		add	r3, r3, r2
 5798 0046 FF22     		movs	r2, #255
 5799 0048 1A71     		strb	r2, [r3, #4]
1460:.\AdvantageImpl.c ****             if(_g_dispenserlayoutinfo._displaydigitsmode == 0x06)
 5800              		.loc 1 1460 0
 5801 004a 9D4B     		ldr	r3, .L223
 5802 004c 1B7C     		ldrb	r3, [r3, #16]	@ zero_extendqisi2
 5803 004e 062B     		cmp	r3, #6
 5804 0050 08D1     		bne	.L209
1461:.\AdvantageImpl.c ****                 puartdisp->_messagetx[index++] = 0xE5;//Standard Price Data
 5805              		.loc 1 1461 0
 5806 0052 FB7F     		ldrb	r3, [r7, #31]	@ zero_extendqisi2
 5807 0054 5A1C     		adds	r2, r3, #1
 5808 0056 FA77     		strb	r2, [r7, #31]
 5809 0058 1A46     		mov	r2, r3
ARM GAS  C:\Users\Lenovo\AppData\Local\Temp\cccA9qMw.s 			page 129


 5810 005a 7B69     		ldr	r3, [r7, #20]
 5811 005c 1344     		add	r3, r3, r2
 5812 005e E522     		movs	r2, #229
 5813 0060 1A71     		strb	r2, [r3, #4]
 5814 0062 07E0     		b	.L210
 5815              	.L209:
1462:.\AdvantageImpl.c ****             else
1463:.\AdvantageImpl.c ****                 puartdisp->_messagetx[index++] = 0xE3;//Long Price Data - Extended Two-Wire Mode
 5816              		.loc 1 1463 0
 5817 0064 FB7F     		ldrb	r3, [r7, #31]	@ zero_extendqisi2
 5818 0066 5A1C     		adds	r2, r3, #1
 5819 0068 FA77     		strb	r2, [r7, #31]
 5820 006a 1A46     		mov	r2, r3
 5821 006c 7B69     		ldr	r3, [r7, #20]
 5822 006e 1344     		add	r3, r3, r2
 5823 0070 E322     		movs	r2, #227
 5824 0072 1A71     		strb	r2, [r3, #4]
 5825              	.L210:
1464:.\AdvantageImpl.c ****                 
1465:.\AdvantageImpl.c ****             puartdisp->_messagetx[index++] = 0xF4;
 5826              		.loc 1 1465 0
 5827 0074 FB7F     		ldrb	r3, [r7, #31]	@ zero_extendqisi2
 5828 0076 5A1C     		adds	r2, r3, #1
 5829 0078 FA77     		strb	r2, [r7, #31]
 5830 007a 1A46     		mov	r2, r3
 5831 007c 7B69     		ldr	r3, [r7, #20]
 5832 007e 1344     		add	r3, r3, r2
 5833 0080 F422     		movs	r2, #244
 5834 0082 1A71     		strb	r2, [r3, #4]
1466:.\AdvantageImpl.c ****             puartdisp->_messagetx[index++] = 0xF6; //Hose Data next
 5835              		.loc 1 1466 0
 5836 0084 FB7F     		ldrb	r3, [r7, #31]	@ zero_extendqisi2
 5837 0086 5A1C     		adds	r2, r3, #1
 5838 0088 FA77     		strb	r2, [r7, #31]
 5839 008a 1A46     		mov	r2, r3
 5840 008c 7B69     		ldr	r3, [r7, #20]
 5841 008e 1344     		add	r3, r3, r2
 5842 0090 F622     		movs	r2, #246
 5843 0092 1A71     		strb	r2, [r3, #4]
1467:.\AdvantageImpl.c ****             ///THIS IS AN APPLIED CONVENTION ===>> 0x0006 INDEX POSITION WITHIN THE PUMP'S BUFFER P
1468:.\AdvantageImpl.c ****             ///THESE CODES MUST BE MATCHED OTHERWISE THE LOGIC WILL BREAKUP THE CODE!
1469:.\AdvantageImpl.c ****             puartdisp->_messagetx[index++] = (0xE0 | (0x0F & ppump->_currenthose));
 5844              		.loc 1 1469 0
 5845 0094 FB7F     		ldrb	r3, [r7, #31]	@ zero_extendqisi2
 5846 0096 5A1C     		adds	r2, r3, #1
 5847 0098 FA77     		strb	r2, [r7, #31]
 5848 009a 1946     		mov	r1, r3
 5849 009c BB69     		ldr	r3, [r7, #24]
 5850 009e DB78     		ldrb	r3, [r3, #3]
 5851 00a0 DBB2     		uxtb	r3, r3
 5852 00a2 03F00F03 		and	r3, r3, #15
 5853 00a6 DBB2     		uxtb	r3, r3
 5854 00a8 63F01F03 		orn	r3, r3, #31
 5855 00ac DAB2     		uxtb	r2, r3
 5856 00ae 7B69     		ldr	r3, [r7, #20]
 5857 00b0 0B44     		add	r3, r3, r1
 5858 00b2 1A71     		strb	r2, [r3, #4]
ARM GAS  C:\Users\Lenovo\AppData\Local\Temp\cccA9qMw.s 			page 130


1470:.\AdvantageImpl.c ****             
1471:.\AdvantageImpl.c ****             I2CBusLock();
 5859              		.loc 1 1471 0
 5860 00b4 FFF7FEFF 		bl	I2CBusLock
1472:.\AdvantageImpl.c ****             ClearEepromBuffer();
 5861              		.loc 1 1472 0
 5862 00b8 FFF7FEFF 		bl	ClearEepromBuffer
1473:.\AdvantageImpl.c ****             uint16 eeprompage = DispenserGetEepromPPUPageFromPumpID(ppump->_pumpid);
 5863              		.loc 1 1473 0
 5864 00bc BB69     		ldr	r3, [r7, #24]
 5865 00be 1B78     		ldrb	r3, [r3]	@ zero_extendqisi2
 5866 00c0 1846     		mov	r0, r3
 5867 00c2 FFF7FEFF 		bl	DispenserGetEepromPPUPageFromPumpID
 5868 00c6 0346     		mov	r3, r0
 5869 00c8 7B82     		strh	r3, [r7, #18]	@ movhi
1474:.\AdvantageImpl.c ****             LoadEepromPage(eeprompage);
 5870              		.loc 1 1474 0
 5871 00ca 7B8A     		ldrh	r3, [r7, #18]
 5872 00cc 1846     		mov	r0, r3
 5873 00ce FFF7FEFF 		bl	LoadEepromPage
1475:.\AdvantageImpl.c ****             switch(ppump->_currenthose)
 5874              		.loc 1 1475 0
 5875 00d2 BB69     		ldr	r3, [r7, #24]
 5876 00d4 DB78     		ldrb	r3, [r3, #3]
 5877 00d6 DBB2     		uxtb	r3, r3
 5878 00d8 032B     		cmp	r3, #3
 5879 00da 61D8     		bhi	.L211
 5880 00dc 01A2     		adr	r2, .L213
 5881 00de 52F823F0 		ldr	pc, [r2, r3, lsl #2]
 5882 00e2 00BF     		.p2align 2
 5883              	.L213:
 5884 00e4 F5000000 		.word	.L212+1
 5885 00e8 1D010000 		.word	.L214+1
 5886 00ec 49010000 		.word	.L215+1
 5887 00f0 75010000 		.word	.L216+1
 5888              		.p2align 1
 5889              	.L212:
1476:.\AdvantageImpl.c ****             {
1477:.\AdvantageImpl.c ****                 case 0x00:
1478:.\AdvantageImpl.c ****                 //Six bytes only since the PPU is constrained to this length
1479:.\AdvantageImpl.c ****                 memcpy(PBYTECAST(&ppump->_trasactionbuffer[GetBufferIndexFromDisplayID(DISPLAY_PREC
 5890              		.loc 1 1479 0
 5891 00f4 6520     		movs	r0, #101
 5892 00f6 FFF7FEFF 		bl	GetBufferIndexFromDisplayID
 5893 00fa 0346     		mov	r3, r0
 5894 00fc 2033     		adds	r3, r3, #32
 5895 00fe BA69     		ldr	r2, [r7, #24]
 5896 0100 D418     		adds	r4, r2, r3
 5897 0102 FFF7FEFF 		bl	GetEepromBuffer
 5898 0106 0546     		mov	r5, r0
 5899 0108 6520     		movs	r0, #101
 5900 010a FFF7FEFF 		bl	GetBufferLengthFromDisplayID
 5901 010e 0346     		mov	r3, r0
 5902 0110 2046     		mov	r0, r4
 5903 0112 2946     		mov	r1, r5
 5904 0114 1A46     		mov	r2, r3
 5905 0116 FFF7FEFF 		bl	memcpy
ARM GAS  C:\Users\Lenovo\AppData\Local\Temp\cccA9qMw.s 			page 131


1480:.\AdvantageImpl.c ****                 break;
 5906              		.loc 1 1480 0
 5907 011a 41E0     		b	.L211
 5908              	.L214:
1481:.\AdvantageImpl.c ****                 case 0x01:
1482:.\AdvantageImpl.c ****                 //Six bytes only since the PPU is constrained to this length
1483:.\AdvantageImpl.c ****                 memcpy(PBYTECAST(&ppump->_trasactionbuffer[GetBufferIndexFromDisplayID(DISPLAY_PREC
 5909              		.loc 1 1483 0
 5910 011c 6520     		movs	r0, #101
 5911 011e FFF7FEFF 		bl	GetBufferIndexFromDisplayID
 5912 0122 0346     		mov	r3, r0
 5913 0124 2033     		adds	r3, r3, #32
 5914 0126 BA69     		ldr	r2, [r7, #24]
 5915 0128 D518     		adds	r5, r2, r3
 5916 012a FFF7FEFF 		bl	GetEepromBuffer
 5917 012e 0346     		mov	r3, r0
 5918 0130 03F11004 		add	r4, r3, #16
 5919 0134 6520     		movs	r0, #101
 5920 0136 FFF7FEFF 		bl	GetBufferLengthFromDisplayID
 5921 013a 0346     		mov	r3, r0
 5922 013c 2846     		mov	r0, r5
 5923 013e 2146     		mov	r1, r4
 5924 0140 1A46     		mov	r2, r3
 5925 0142 FFF7FEFF 		bl	memcpy
1484:.\AdvantageImpl.c ****                 break;
 5926              		.loc 1 1484 0
 5927 0146 2BE0     		b	.L211
 5928              	.L215:
1485:.\AdvantageImpl.c ****                 case 0x02:
1486:.\AdvantageImpl.c ****                 //Six bytes only since the PPU is constrained to this length
1487:.\AdvantageImpl.c ****                 memcpy(PBYTECAST(&ppump->_trasactionbuffer[GetBufferIndexFromDisplayID(DISPLAY_PREC
 5929              		.loc 1 1487 0
 5930 0148 6520     		movs	r0, #101
 5931 014a FFF7FEFF 		bl	GetBufferIndexFromDisplayID
 5932 014e 0346     		mov	r3, r0
 5933 0150 2033     		adds	r3, r3, #32
 5934 0152 BA69     		ldr	r2, [r7, #24]
 5935 0154 D518     		adds	r5, r2, r3
 5936 0156 FFF7FEFF 		bl	GetEepromBuffer
 5937 015a 0346     		mov	r3, r0
 5938 015c 03F12004 		add	r4, r3, #32
 5939 0160 6520     		movs	r0, #101
 5940 0162 FFF7FEFF 		bl	GetBufferLengthFromDisplayID
 5941 0166 0346     		mov	r3, r0
 5942 0168 2846     		mov	r0, r5
 5943 016a 2146     		mov	r1, r4
 5944 016c 1A46     		mov	r2, r3
 5945 016e FFF7FEFF 		bl	memcpy
1488:.\AdvantageImpl.c ****                 break;
 5946              		.loc 1 1488 0
 5947 0172 15E0     		b	.L211
 5948              	.L216:
1489:.\AdvantageImpl.c ****                 case 0x03:
1490:.\AdvantageImpl.c ****                 //Six bytes only since the PPU is constrained to this length
1491:.\AdvantageImpl.c ****                 memcpy(PBYTECAST(&ppump->_trasactionbuffer[GetBufferIndexFromDisplayID(DISPLAY_PREC
 5949              		.loc 1 1491 0
 5950 0174 6520     		movs	r0, #101
ARM GAS  C:\Users\Lenovo\AppData\Local\Temp\cccA9qMw.s 			page 132


 5951 0176 FFF7FEFF 		bl	GetBufferIndexFromDisplayID
 5952 017a 0346     		mov	r3, r0
 5953 017c 2033     		adds	r3, r3, #32
 5954 017e BA69     		ldr	r2, [r7, #24]
 5955 0180 D518     		adds	r5, r2, r3
 5956 0182 FFF7FEFF 		bl	GetEepromBuffer
 5957 0186 0346     		mov	r3, r0
 5958 0188 03F13004 		add	r4, r3, #48
 5959 018c 6520     		movs	r0, #101
 5960 018e FFF7FEFF 		bl	GetBufferLengthFromDisplayID
 5961 0192 0346     		mov	r3, r0
 5962 0194 2846     		mov	r0, r5
 5963 0196 2146     		mov	r1, r4
 5964 0198 1A46     		mov	r2, r3
 5965 019a FFF7FEFF 		bl	memcpy
1492:.\AdvantageImpl.c ****                 break;
 5966              		.loc 1 1492 0
 5967 019e 00BF     		nop
 5968              	.L211:
1493:.\AdvantageImpl.c ****             }
1494:.\AdvantageImpl.c ****             I2CBusUnlock();
 5969              		.loc 1 1494 0
 5970 01a0 FFF7FEFF 		bl	I2CBusUnlock
1495:.\AdvantageImpl.c **** 
1496:.\AdvantageImpl.c ****             puartdisp->_messagetx[index++] = 0xF7; //PPU Data next            
 5971              		.loc 1 1496 0
 5972 01a4 FB7F     		ldrb	r3, [r7, #31]	@ zero_extendqisi2
 5973 01a6 5A1C     		adds	r2, r3, #1
 5974 01a8 FA77     		strb	r2, [r7, #31]
 5975 01aa 1A46     		mov	r2, r3
 5976 01ac 7B69     		ldr	r3, [r7, #20]
 5977 01ae 1344     		add	r3, r3, r2
 5978 01b0 F722     		movs	r2, #247
 5979 01b2 1A71     		strb	r2, [r3, #4]
1497:.\AdvantageImpl.c ****             //Here we copy the remaining 6 bytes for the preset value
1498:.\AdvantageImpl.c ****             ///THIS IS AN APPLIED CONVENTION ===>> 0x0008 INDEX POSITION WITHIN THE PUMP'S BUFFER P
1499:.\AdvantageImpl.c ****             ///THESE CODES MUST BE MATCHED OTHERWISE THE LOGIC WILL BREAKUP THE CODE!
1500:.\AdvantageImpl.c ****             uint8 bufferlength = GetBufferLengthFromDisplayID(DISPLAY_PRECIO_POR_UNIDAD);
 5980              		.loc 1 1500 0
 5981 01b4 6520     		movs	r0, #101
 5982 01b6 FFF7FEFF 		bl	GetBufferLengthFromDisplayID
 5983 01ba 0346     		mov	r3, r0
 5984 01bc 7B74     		strb	r3, [r7, #17]
1501:.\AdvantageImpl.c ****             char8 *ptr = &ppump->_trasactionbuffer[GetBufferIndexFromDisplayID(DISPLAY_PRECIO_POR_U
 5985              		.loc 1 1501 0
 5986 01be 6520     		movs	r0, #101
 5987 01c0 FFF7FEFF 		bl	GetBufferIndexFromDisplayID
 5988 01c4 0346     		mov	r3, r0
 5989 01c6 2033     		adds	r3, r3, #32
 5990 01c8 BA69     		ldr	r2, [r7, #24]
 5991 01ca 1344     		add	r3, r3, r2
 5992 01cc FB60     		str	r3, [r7, #12]
1502:.\AdvantageImpl.c ****             
1503:.\AdvantageImpl.c ****             if(_g_dispenserlayoutinfo._displaydigitsmode == 0x06)
 5993              		.loc 1 1503 0
 5994 01ce 3C4B     		ldr	r3, .L223
 5995 01d0 1B7C     		ldrb	r3, [r3, #16]	@ zero_extendqisi2
ARM GAS  C:\Users\Lenovo\AppData\Local\Temp\cccA9qMw.s 			page 133


 5996 01d2 062B     		cmp	r3, #6
 5997 01d4 1AD1     		bne	.L217
 5998              	.LBB42:
1504:.\AdvantageImpl.c ****             {
1505:.\AdvantageImpl.c ****                 FOR(uint8 buffndx = 0, buffndx < 4, buffndx++)//Standard Price Data
 5999              		.loc 1 1505 0
 6000 01d6 0023     		movs	r3, #0
 6001 01d8 BB77     		strb	r3, [r7, #30]
 6002 01da 13E0     		b	.L218
 6003              	.L219:
1506:.\AdvantageImpl.c ****                     puartdisp->_messagetx[index++] = (0xE0 | (0x0F & ptr[buffndx])); //Translate fr
 6004              		.loc 1 1506 0 discriminator 3
 6005 01dc FB7F     		ldrb	r3, [r7, #31]	@ zero_extendqisi2
 6006 01de 5A1C     		adds	r2, r3, #1
 6007 01e0 FA77     		strb	r2, [r7, #31]
 6008 01e2 1946     		mov	r1, r3
 6009 01e4 BB7F     		ldrb	r3, [r7, #30]	@ zero_extendqisi2
 6010 01e6 FA68     		ldr	r2, [r7, #12]
 6011 01e8 1344     		add	r3, r3, r2
 6012 01ea 1B78     		ldrb	r3, [r3]	@ zero_extendqisi2
 6013 01ec 03F00F03 		and	r3, r3, #15
 6014 01f0 DBB2     		uxtb	r3, r3
 6015 01f2 63F01F03 		orn	r3, r3, #31
 6016 01f6 DAB2     		uxtb	r2, r3
 6017 01f8 7B69     		ldr	r3, [r7, #20]
 6018 01fa 0B44     		add	r3, r3, r1
 6019 01fc 1A71     		strb	r2, [r3, #4]
1505:.\AdvantageImpl.c ****                     puartdisp->_messagetx[index++] = (0xE0 | (0x0F & ptr[buffndx])); //Translate fr
 6020              		.loc 1 1505 0 discriminator 3
 6021 01fe BB7F     		ldrb	r3, [r7, #30]	@ zero_extendqisi2
 6022 0200 0133     		adds	r3, r3, #1
 6023 0202 BB77     		strb	r3, [r7, #30]
 6024              	.L218:
1505:.\AdvantageImpl.c ****                     puartdisp->_messagetx[index++] = (0xE0 | (0x0F & ptr[buffndx])); //Translate fr
 6025              		.loc 1 1505 0 is_stmt 0 discriminator 1
 6026 0204 BB7F     		ldrb	r3, [r7, #30]	@ zero_extendqisi2
 6027 0206 032B     		cmp	r3, #3
 6028 0208 E8D9     		bls	.L219
 6029              	.LBE42:
 6030 020a 19E0     		b	.L220
 6031              	.L217:
 6032              	.LBB43:
1507:.\AdvantageImpl.c ****             }
1508:.\AdvantageImpl.c ****             else
1509:.\AdvantageImpl.c ****             {
1510:.\AdvantageImpl.c ****                 FOR(uint8 buffndx = 0, buffndx < 6, buffndx++)//Long Price Data - Extended Two-Wire
 6033              		.loc 1 1510 0 is_stmt 1
 6034 020c 0023     		movs	r3, #0
 6035 020e 7B77     		strb	r3, [r7, #29]
 6036 0210 13E0     		b	.L221
 6037              	.L222:
1511:.\AdvantageImpl.c ****                     puartdisp->_messagetx[index++] = (0xE0 | (0x0F & ptr[buffndx])); //Translate fr
 6038              		.loc 1 1511 0 discriminator 3
 6039 0212 FB7F     		ldrb	r3, [r7, #31]	@ zero_extendqisi2
 6040 0214 5A1C     		adds	r2, r3, #1
 6041 0216 FA77     		strb	r2, [r7, #31]
 6042 0218 1946     		mov	r1, r3
ARM GAS  C:\Users\Lenovo\AppData\Local\Temp\cccA9qMw.s 			page 134


 6043 021a 7B7F     		ldrb	r3, [r7, #29]	@ zero_extendqisi2
 6044 021c FA68     		ldr	r2, [r7, #12]
 6045 021e 1344     		add	r3, r3, r2
 6046 0220 1B78     		ldrb	r3, [r3]	@ zero_extendqisi2
 6047 0222 03F00F03 		and	r3, r3, #15
 6048 0226 DBB2     		uxtb	r3, r3
 6049 0228 63F01F03 		orn	r3, r3, #31
 6050 022c DAB2     		uxtb	r2, r3
 6051 022e 7B69     		ldr	r3, [r7, #20]
 6052 0230 0B44     		add	r3, r3, r1
 6053 0232 1A71     		strb	r2, [r3, #4]
1510:.\AdvantageImpl.c ****                     puartdisp->_messagetx[index++] = (0xE0 | (0x0F & ptr[buffndx])); //Translate fr
 6054              		.loc 1 1510 0 discriminator 3
 6055 0234 7B7F     		ldrb	r3, [r7, #29]	@ zero_extendqisi2
 6056 0236 0133     		adds	r3, r3, #1
 6057 0238 7B77     		strb	r3, [r7, #29]
 6058              	.L221:
1510:.\AdvantageImpl.c ****                     puartdisp->_messagetx[index++] = (0xE0 | (0x0F & ptr[buffndx])); //Translate fr
 6059              		.loc 1 1510 0 is_stmt 0 discriminator 1
 6060 023a 7B7F     		ldrb	r3, [r7, #29]	@ zero_extendqisi2
 6061 023c 052B     		cmp	r3, #5
 6062 023e E8D9     		bls	.L222
 6063              	.L220:
 6064              	.LBE43:
1512:.\AdvantageImpl.c ****             }
1513:.\AdvantageImpl.c **** 
1514:.\AdvantageImpl.c ****             memset(&ppump->_trasactionbuffer[GetBufferIndexFromDisplayID(DISPLAY_PRECIO_POR_UNIDAD)
 6065              		.loc 1 1514 0 is_stmt 1
 6066 0240 6520     		movs	r0, #101
 6067 0242 FFF7FEFF 		bl	GetBufferIndexFromDisplayID
 6068 0246 0346     		mov	r3, r0
 6069 0248 2033     		adds	r3, r3, #32
 6070 024a BA69     		ldr	r2, [r7, #24]
 6071 024c D418     		adds	r4, r2, r3
 6072 024e 6520     		movs	r0, #101
 6073 0250 FFF7FEFF 		bl	GetBufferLengthFromDisplayID
 6074 0254 0346     		mov	r3, r0
 6075 0256 2046     		mov	r0, r4
 6076 0258 0021     		movs	r1, #0
 6077 025a 1A46     		mov	r2, r3
 6078 025c FFF7FEFF 		bl	memset
1515:.\AdvantageImpl.c ****             puartdisp->_messagetx[index++] = 0xFB; //LRC next
 6079              		.loc 1 1515 0
 6080 0260 FB7F     		ldrb	r3, [r7, #31]	@ zero_extendqisi2
 6081 0262 5A1C     		adds	r2, r3, #1
 6082 0264 FA77     		strb	r2, [r7, #31]
 6083 0266 1A46     		mov	r2, r3
 6084 0268 7B69     		ldr	r3, [r7, #20]
 6085 026a 1344     		add	r3, r3, r2
 6086 026c FB22     		movs	r2, #251
 6087 026e 1A71     		strb	r2, [r3, #4]
1516:.\AdvantageImpl.c ****             puartdisp->_messagetx[index++] = GetLRC(puartdisp->_messagetx);
 6088              		.loc 1 1516 0
 6089 0270 FB7F     		ldrb	r3, [r7, #31]	@ zero_extendqisi2
 6090 0272 5A1C     		adds	r2, r3, #1
 6091 0274 FA77     		strb	r2, [r7, #31]
 6092 0276 1C46     		mov	r4, r3
ARM GAS  C:\Users\Lenovo\AppData\Local\Temp\cccA9qMw.s 			page 135


 6093 0278 7B69     		ldr	r3, [r7, #20]
 6094 027a 0433     		adds	r3, r3, #4
 6095 027c 1846     		mov	r0, r3
 6096 027e FFF7FEFF 		bl	GetLRC
 6097 0282 0346     		mov	r3, r0
 6098 0284 1A46     		mov	r2, r3
 6099 0286 7B69     		ldr	r3, [r7, #20]
 6100 0288 2344     		add	r3, r3, r4
 6101 028a 1A71     		strb	r2, [r3, #4]
1517:.\AdvantageImpl.c ****             puartdisp->_messagetx[index++] = EOM;
 6102              		.loc 1 1517 0
 6103 028c FB7F     		ldrb	r3, [r7, #31]	@ zero_extendqisi2
 6104 028e 5A1C     		adds	r2, r3, #1
 6105 0290 FA77     		strb	r2, [r7, #31]
 6106 0292 1A46     		mov	r2, r3
 6107 0294 7B69     		ldr	r3, [r7, #20]
 6108 0296 1344     		add	r3, r3, r2
 6109 0298 F022     		movs	r2, #240
 6110 029a 1A71     		strb	r2, [r3, #4]
1518:.\AdvantageImpl.c **** ///////////////////////////////////////////////////////////////////////////////////////////////////
1519:.\AdvantageImpl.c ****             
1520:.\AdvantageImpl.c ****             puartdisp->_messagelength = index;
 6111              		.loc 1 1520 0
 6112 029c FB7F     		ldrb	r3, [r7, #31]	@ zero_extendqisi2
 6113 029e 9AB2     		uxth	r2, r3
 6114 02a0 7B69     		ldr	r3, [r7, #20]
 6115 02a2 5A80     		strh	r2, [r3, #2]	@ movhi
1521:.\AdvantageImpl.c ****             puartdisp->_messagestate = PENDING;
 6116              		.loc 1 1521 0
 6117 02a4 7B69     		ldr	r3, [r7, #20]
 6118 02a6 C222     		movs	r2, #194
 6119 02a8 1A70     		strb	r2, [r3]
1522:.\AdvantageImpl.c ****             
1523:.\AdvantageImpl.c ****             ppump->_currenthose++;
 6120              		.loc 1 1523 0
 6121 02aa BB69     		ldr	r3, [r7, #24]
 6122 02ac DB78     		ldrb	r3, [r3, #3]
 6123 02ae DBB2     		uxtb	r3, r3
 6124 02b0 0133     		adds	r3, r3, #1
 6125 02b2 DAB2     		uxtb	r2, r3
 6126 02b4 BB69     		ldr	r3, [r7, #24]
 6127 02b6 DA70     		strb	r2, [r3, #3]
 6128              	.L207:
 6129              	.LBE41:
 6130              	.LBE40:
1524:.\AdvantageImpl.c ****         }
1525:.\AdvantageImpl.c ****     }    
1526:.\AdvantageImpl.c **** }
 6131              		.loc 1 1526 0
 6132 02b8 2037     		adds	r7, r7, #32
 6133              		.cfi_def_cfa_offset 16
 6134 02ba BD46     		mov	sp, r7
 6135              		.cfi_def_cfa_register 13
 6136              		@ sp needed
 6137 02bc B0BD     		pop	{r4, r5, r7, pc}
 6138              	.L224:
 6139 02be 00BF     		.align	2
ARM GAS  C:\Users\Lenovo\AppData\Local\Temp\cccA9qMw.s 			page 136


 6140              	.L223:
 6141 02c0 00000000 		.word	_g_dispenserlayoutinfo
 6142              		.cfi_endproc
 6143              	.LFE85:
 6144              		.size	PumpPpuChange, .-PumpPpuChange
 6145              		.section	.text.PumpDefault2CreditPpuChange,"ax",%progbits
 6146              		.align	2
 6147              		.global	PumpDefault2CreditPpuChange
 6148              		.thumb
 6149              		.thumb_func
 6150              		.type	PumpDefault2CreditPpuChange, %function
 6151              	PumpDefault2CreditPpuChange:
 6152              	.LFB86:
1527:.\AdvantageImpl.c **** 
1528:.\AdvantageImpl.c **** void PumpDefault2CreditPpuChange(void *pparam)
1529:.\AdvantageImpl.c **** {
 6153              		.loc 1 1529 0
 6154              		.cfi_startproc
 6155              		@ args = 0, pretend = 0, frame = 24
 6156              		@ frame_needed = 1, uses_anonymous_args = 0
 6157 0000 90B5     		push	{r4, r7, lr}
 6158              		.cfi_def_cfa_offset 12
 6159              		.cfi_offset 4, -12
 6160              		.cfi_offset 7, -8
 6161              		.cfi_offset 14, -4
 6162 0002 87B0     		sub	sp, sp, #28
 6163              		.cfi_def_cfa_offset 40
 6164 0004 00AF     		add	r7, sp, #0
 6165              		.cfi_def_cfa_register 7
 6166 0006 7860     		str	r0, [r7, #4]
1530:.\AdvantageImpl.c ****     PNEAR_PUMPPTR ppump = (PNEAR_PUMPPTR)pparam;
 6167              		.loc 1 1530 0
 6168 0008 7B68     		ldr	r3, [r7, #4]
 6169 000a 3B61     		str	r3, [r7, #16]
1531:.\AdvantageImpl.c ****     if(ppump)
 6170              		.loc 1 1531 0
 6171 000c 3B69     		ldr	r3, [r7, #16]
 6172 000e 002B     		cmp	r3, #0
 6173 0010 00F0C980 		beq	.L225
 6174              	.LBB44:
1532:.\AdvantageImpl.c ****     {
1533:.\AdvantageImpl.c ****         uint8_t index = 0;  
 6175              		.loc 1 1533 0
 6176 0014 0023     		movs	r3, #0
 6177 0016 FB75     		strb	r3, [r7, #23]
1534:.\AdvantageImpl.c ****         memset(ppump->_rxbuffer, 0x00, _PUMP_RX_BUFFER_SIZE_);
 6178              		.loc 1 1534 0
 6179 0018 3B69     		ldr	r3, [r7, #16]
 6180 001a 03F5D073 		add	r3, r3, #416
 6181 001e 1846     		mov	r0, r3
 6182 0020 0021     		movs	r1, #0
 6183 0022 4FF4C072 		mov	r2, #384
 6184 0026 FFF7FEFF 		bl	memset
1535:.\AdvantageImpl.c ****         PUARTMESSAGEPTR puartdisp = GetUARTMessageSlot(UART_DISPENSER);
 6185              		.loc 1 1535 0
 6186 002a A220     		movs	r0, #162
 6187 002c FFF7FEFF 		bl	GetUARTMessageSlot
ARM GAS  C:\Users\Lenovo\AppData\Local\Temp\cccA9qMw.s 			page 137


 6188 0030 F860     		str	r0, [r7, #12]
1536:.\AdvantageImpl.c ****         if(puartdisp)
 6189              		.loc 1 1536 0
 6190 0032 FB68     		ldr	r3, [r7, #12]
 6191 0034 002B     		cmp	r3, #0
 6192 0036 00F0B680 		beq	.L225
 6193              	.LBB45:
1537:.\AdvantageImpl.c ****         {
1538:.\AdvantageImpl.c **** ///////////////////////////////////////////////////////////////////////////////////////////////////
1539:.\AdvantageImpl.c ****             puartdisp->_messagetx[index++] = SOM;
 6194              		.loc 1 1539 0
 6195 003a FB7D     		ldrb	r3, [r7, #23]	@ zero_extendqisi2
 6196 003c 5A1C     		adds	r2, r3, #1
 6197 003e FA75     		strb	r2, [r7, #23]
 6198 0040 1A46     		mov	r2, r3
 6199 0042 FB68     		ldr	r3, [r7, #12]
 6200 0044 1344     		add	r3, r3, r2
 6201 0046 FF22     		movs	r2, #255
 6202 0048 1A71     		strb	r2, [r3, #4]
1540:.\AdvantageImpl.c ****             if(_g_dispenserlayoutinfo._displaydigitsmode == 0x06)
 6203              		.loc 1 1540 0
 6204 004a 584B     		ldr	r3, .L235
 6205 004c 1B7C     		ldrb	r3, [r3, #16]	@ zero_extendqisi2
 6206 004e 062B     		cmp	r3, #6
 6207 0050 08D1     		bne	.L227
1541:.\AdvantageImpl.c ****                 puartdisp->_messagetx[index++] = 0xE5;//Standard Price Data
 6208              		.loc 1 1541 0
 6209 0052 FB7D     		ldrb	r3, [r7, #23]	@ zero_extendqisi2
 6210 0054 5A1C     		adds	r2, r3, #1
 6211 0056 FA75     		strb	r2, [r7, #23]
 6212 0058 1A46     		mov	r2, r3
 6213 005a FB68     		ldr	r3, [r7, #12]
 6214 005c 1344     		add	r3, r3, r2
 6215 005e E522     		movs	r2, #229
 6216 0060 1A71     		strb	r2, [r3, #4]
 6217 0062 07E0     		b	.L228
 6218              	.L227:
1542:.\AdvantageImpl.c ****             else
1543:.\AdvantageImpl.c ****                 puartdisp->_messagetx[index++] = 0xE3;//Long Price Data - Extended Two-Wire Mode
 6219              		.loc 1 1543 0
 6220 0064 FB7D     		ldrb	r3, [r7, #23]	@ zero_extendqisi2
 6221 0066 5A1C     		adds	r2, r3, #1
 6222 0068 FA75     		strb	r2, [r7, #23]
 6223 006a 1A46     		mov	r2, r3
 6224 006c FB68     		ldr	r3, [r7, #12]
 6225 006e 1344     		add	r3, r3, r2
 6226 0070 E322     		movs	r2, #227
 6227 0072 1A71     		strb	r2, [r3, #4]
 6228              	.L228:
1544:.\AdvantageImpl.c ****             
1545:.\AdvantageImpl.c ****             puartdisp->_messagetx[index++] = 0xF4;
 6229              		.loc 1 1545 0
 6230 0074 FB7D     		ldrb	r3, [r7, #23]	@ zero_extendqisi2
 6231 0076 5A1C     		adds	r2, r3, #1
 6232 0078 FA75     		strb	r2, [r7, #23]
 6233 007a 1A46     		mov	r2, r3
 6234 007c FB68     		ldr	r3, [r7, #12]
ARM GAS  C:\Users\Lenovo\AppData\Local\Temp\cccA9qMw.s 			page 138


 6235 007e 1344     		add	r3, r3, r2
 6236 0080 F422     		movs	r2, #244
 6237 0082 1A71     		strb	r2, [r3, #4]
1546:.\AdvantageImpl.c ****             puartdisp->_messagetx[index++] = 0xF6; //Hose Data next
 6238              		.loc 1 1546 0
 6239 0084 FB7D     		ldrb	r3, [r7, #23]	@ zero_extendqisi2
 6240 0086 5A1C     		adds	r2, r3, #1
 6241 0088 FA75     		strb	r2, [r7, #23]
 6242 008a 1A46     		mov	r2, r3
 6243 008c FB68     		ldr	r3, [r7, #12]
 6244 008e 1344     		add	r3, r3, r2
 6245 0090 F622     		movs	r2, #246
 6246 0092 1A71     		strb	r2, [r3, #4]
1547:.\AdvantageImpl.c ****             ///THIS IS AN APPLIED CONVENTION ===>> 0x0006 INDEX POSITION WITHIN THE PUMP'S BUFFER P
1548:.\AdvantageImpl.c ****             ///THESE CODES MUST BE MATCHED OTHERWISE THE LOGIC WILL BREAKUP THE CODE!
1549:.\AdvantageImpl.c ****             puartdisp->_messagetx[index++] = (0xE0 | ppump->_authorizationinfo._hoseid);
 6247              		.loc 1 1549 0
 6248 0094 FB7D     		ldrb	r3, [r7, #23]	@ zero_extendqisi2
 6249 0096 5A1C     		adds	r2, r3, #1
 6250 0098 FA75     		strb	r2, [r7, #23]
 6251 009a 1946     		mov	r1, r3
 6252 009c 3B69     		ldr	r3, [r7, #16]
 6253 009e 93F8AA3B 		ldrb	r3, [r3, #2986]
 6254 00a2 DBB2     		uxtb	r3, r3
 6255 00a4 63F01F03 		orn	r3, r3, #31
 6256 00a8 DAB2     		uxtb	r2, r3
 6257 00aa FB68     		ldr	r3, [r7, #12]
 6258 00ac 0B44     		add	r3, r3, r1
 6259 00ae 1A71     		strb	r2, [r3, #4]
1550:.\AdvantageImpl.c ****             
1551:.\AdvantageImpl.c ****             puartdisp->_messagetx[index++] = 0xF7; //PPU Data next            
 6260              		.loc 1 1551 0
 6261 00b0 FB7D     		ldrb	r3, [r7, #23]	@ zero_extendqisi2
 6262 00b2 5A1C     		adds	r2, r3, #1
 6263 00b4 FA75     		strb	r2, [r7, #23]
 6264 00b6 1A46     		mov	r2, r3
 6265 00b8 FB68     		ldr	r3, [r7, #12]
 6266 00ba 1344     		add	r3, r3, r2
 6267 00bc F722     		movs	r2, #247
 6268 00be 1A71     		strb	r2, [r3, #4]
1552:.\AdvantageImpl.c ****             //Here we copy the remaining 6 bytes for the preset value
1553:.\AdvantageImpl.c ****             ///THIS IS AN APPLIED CONVENTION ===>> 0x0008 INDEX POSITION WITHIN THE PUMP'S BUFFER P
1554:.\AdvantageImpl.c ****             ///THESE CODES MUST BE MATCHED OTHERWISE THE LOGIC WILL BREAKUP THE CODE!
1555:.\AdvantageImpl.c ****             B78AD90CF552D9B30A(ppump->_authorizationinfo._price, PBYTECAST(&ppump->_trasactionbuffe
 6269              		.loc 1 1555 0
 6270 00c0 3B69     		ldr	r3, [r7, #16]
 6271 00c2 B3F8AC3B 		ldrh	r3, [r3, #2988]	@ movhi
 6272 00c6 9BB2     		uxth	r3, r3
 6273 00c8 9AB2     		uxth	r2, r3
 6274 00ca 4FF00003 		mov	r3, #0
 6275 00ce 3969     		ldr	r1, [r7, #16]
 6276 00d0 01F12804 		add	r4, r1, #40
 6277 00d4 1046     		mov	r0, r2
 6278 00d6 1946     		mov	r1, r3
 6279 00d8 2246     		mov	r2, r4
 6280 00da FFF7FEFF 		bl	B78AD90CF552D9B30A
1556:.\AdvantageImpl.c ****             char8 *ptr = &ppump->_trasactionbuffer[0x0008];
ARM GAS  C:\Users\Lenovo\AppData\Local\Temp\cccA9qMw.s 			page 139


 6281              		.loc 1 1556 0
 6282 00de 3B69     		ldr	r3, [r7, #16]
 6283 00e0 2833     		adds	r3, r3, #40
 6284 00e2 BB60     		str	r3, [r7, #8]
1557:.\AdvantageImpl.c ****             
1558:.\AdvantageImpl.c ****             if(_g_dispenserlayoutinfo._displaydigitsmode == 0x06)
 6285              		.loc 1 1558 0
 6286 00e4 314B     		ldr	r3, .L235
 6287 00e6 1B7C     		ldrb	r3, [r3, #16]	@ zero_extendqisi2
 6288 00e8 062B     		cmp	r3, #6
 6289 00ea 1AD1     		bne	.L229
 6290              	.LBB46:
1559:.\AdvantageImpl.c ****             {
1560:.\AdvantageImpl.c ****                 FOR(uint8 buffndx = 0, buffndx < 4, buffndx++)//Standard Price Data
 6291              		.loc 1 1560 0
 6292 00ec 0023     		movs	r3, #0
 6293 00ee BB75     		strb	r3, [r7, #22]
 6294 00f0 13E0     		b	.L230
 6295              	.L231:
1561:.\AdvantageImpl.c ****                     puartdisp->_messagetx[index++] = (0xE0 | (0x0F & ptr[buffndx])); //Translate fr
 6296              		.loc 1 1561 0 discriminator 3
 6297 00f2 FB7D     		ldrb	r3, [r7, #23]	@ zero_extendqisi2
 6298 00f4 5A1C     		adds	r2, r3, #1
 6299 00f6 FA75     		strb	r2, [r7, #23]
 6300 00f8 1946     		mov	r1, r3
 6301 00fa BB7D     		ldrb	r3, [r7, #22]	@ zero_extendqisi2
 6302 00fc BA68     		ldr	r2, [r7, #8]
 6303 00fe 1344     		add	r3, r3, r2
 6304 0100 1B78     		ldrb	r3, [r3]	@ zero_extendqisi2
 6305 0102 03F00F03 		and	r3, r3, #15
 6306 0106 DBB2     		uxtb	r3, r3
 6307 0108 63F01F03 		orn	r3, r3, #31
 6308 010c DAB2     		uxtb	r2, r3
 6309 010e FB68     		ldr	r3, [r7, #12]
 6310 0110 0B44     		add	r3, r3, r1
 6311 0112 1A71     		strb	r2, [r3, #4]
1560:.\AdvantageImpl.c ****                     puartdisp->_messagetx[index++] = (0xE0 | (0x0F & ptr[buffndx])); //Translate fr
 6312              		.loc 1 1560 0 discriminator 3
 6313 0114 BB7D     		ldrb	r3, [r7, #22]	@ zero_extendqisi2
 6314 0116 0133     		adds	r3, r3, #1
 6315 0118 BB75     		strb	r3, [r7, #22]
 6316              	.L230:
1560:.\AdvantageImpl.c ****                     puartdisp->_messagetx[index++] = (0xE0 | (0x0F & ptr[buffndx])); //Translate fr
 6317              		.loc 1 1560 0 is_stmt 0 discriminator 1
 6318 011a BB7D     		ldrb	r3, [r7, #22]	@ zero_extendqisi2
 6319 011c 032B     		cmp	r3, #3
 6320 011e E8D9     		bls	.L231
 6321              	.LBE46:
 6322 0120 19E0     		b	.L232
 6323              	.L229:
 6324              	.LBB47:
1562:.\AdvantageImpl.c ****             }
1563:.\AdvantageImpl.c ****             else
1564:.\AdvantageImpl.c ****             {
1565:.\AdvantageImpl.c ****                 FOR(uint8 buffndx = 0, buffndx < 6, buffndx++)//Long Price Data - Extended Two-Wire
 6325              		.loc 1 1565 0 is_stmt 1
 6326 0122 0023     		movs	r3, #0
ARM GAS  C:\Users\Lenovo\AppData\Local\Temp\cccA9qMw.s 			page 140


 6327 0124 7B75     		strb	r3, [r7, #21]
 6328 0126 13E0     		b	.L233
 6329              	.L234:
1566:.\AdvantageImpl.c ****                     puartdisp->_messagetx[index++] = (0xE0 | (0x0F & ptr[buffndx])); //Translate fr
 6330              		.loc 1 1566 0 discriminator 3
 6331 0128 FB7D     		ldrb	r3, [r7, #23]	@ zero_extendqisi2
 6332 012a 5A1C     		adds	r2, r3, #1
 6333 012c FA75     		strb	r2, [r7, #23]
 6334 012e 1946     		mov	r1, r3
 6335 0130 7B7D     		ldrb	r3, [r7, #21]	@ zero_extendqisi2
 6336 0132 BA68     		ldr	r2, [r7, #8]
 6337 0134 1344     		add	r3, r3, r2
 6338 0136 1B78     		ldrb	r3, [r3]	@ zero_extendqisi2
 6339 0138 03F00F03 		and	r3, r3, #15
 6340 013c DBB2     		uxtb	r3, r3
 6341 013e 63F01F03 		orn	r3, r3, #31
 6342 0142 DAB2     		uxtb	r2, r3
 6343 0144 FB68     		ldr	r3, [r7, #12]
 6344 0146 0B44     		add	r3, r3, r1
 6345 0148 1A71     		strb	r2, [r3, #4]
1565:.\AdvantageImpl.c ****                     puartdisp->_messagetx[index++] = (0xE0 | (0x0F & ptr[buffndx])); //Translate fr
 6346              		.loc 1 1565 0 discriminator 3
 6347 014a 7B7D     		ldrb	r3, [r7, #21]	@ zero_extendqisi2
 6348 014c 0133     		adds	r3, r3, #1
 6349 014e 7B75     		strb	r3, [r7, #21]
 6350              	.L233:
1565:.\AdvantageImpl.c ****                     puartdisp->_messagetx[index++] = (0xE0 | (0x0F & ptr[buffndx])); //Translate fr
 6351              		.loc 1 1565 0 is_stmt 0 discriminator 1
 6352 0150 7B7D     		ldrb	r3, [r7, #21]	@ zero_extendqisi2
 6353 0152 052B     		cmp	r3, #5
 6354 0154 E8D9     		bls	.L234
 6355              	.L232:
 6356              	.LBE47:
1567:.\AdvantageImpl.c ****             }
1568:.\AdvantageImpl.c ****             
1569:.\AdvantageImpl.c ****             puartdisp->_messagetx[index++] = 0xFB; //LRC next
 6357              		.loc 1 1569 0 is_stmt 1
 6358 0156 FB7D     		ldrb	r3, [r7, #23]	@ zero_extendqisi2
 6359 0158 5A1C     		adds	r2, r3, #1
 6360 015a FA75     		strb	r2, [r7, #23]
 6361 015c 1A46     		mov	r2, r3
 6362 015e FB68     		ldr	r3, [r7, #12]
 6363 0160 1344     		add	r3, r3, r2
 6364 0162 FB22     		movs	r2, #251
 6365 0164 1A71     		strb	r2, [r3, #4]
1570:.\AdvantageImpl.c ****             puartdisp->_messagetx[index++] = GetLRC(puartdisp->_messagetx);
 6366              		.loc 1 1570 0
 6367 0166 FB7D     		ldrb	r3, [r7, #23]	@ zero_extendqisi2
 6368 0168 5A1C     		adds	r2, r3, #1
 6369 016a FA75     		strb	r2, [r7, #23]
 6370 016c 1C46     		mov	r4, r3
 6371 016e FB68     		ldr	r3, [r7, #12]
 6372 0170 0433     		adds	r3, r3, #4
 6373 0172 1846     		mov	r0, r3
 6374 0174 FFF7FEFF 		bl	GetLRC
 6375 0178 0346     		mov	r3, r0
 6376 017a 1A46     		mov	r2, r3
ARM GAS  C:\Users\Lenovo\AppData\Local\Temp\cccA9qMw.s 			page 141


 6377 017c FB68     		ldr	r3, [r7, #12]
 6378 017e 2344     		add	r3, r3, r4
 6379 0180 1A71     		strb	r2, [r3, #4]
1571:.\AdvantageImpl.c ****             puartdisp->_messagetx[index++] = EOM;
 6380              		.loc 1 1571 0
 6381 0182 FB7D     		ldrb	r3, [r7, #23]	@ zero_extendqisi2
 6382 0184 5A1C     		adds	r2, r3, #1
 6383 0186 FA75     		strb	r2, [r7, #23]
 6384 0188 1A46     		mov	r2, r3
 6385 018a FB68     		ldr	r3, [r7, #12]
 6386 018c 1344     		add	r3, r3, r2
 6387 018e F022     		movs	r2, #240
 6388 0190 1A71     		strb	r2, [r3, #4]
1572:.\AdvantageImpl.c **** ///////////////////////////////////////////////////////////////////////////////////////////////////
1573:.\AdvantageImpl.c ****             
1574:.\AdvantageImpl.c ****             puartdisp->_messagelength = index;
 6389              		.loc 1 1574 0
 6390 0192 FB7D     		ldrb	r3, [r7, #23]	@ zero_extendqisi2
 6391 0194 9AB2     		uxth	r2, r3
 6392 0196 FB68     		ldr	r3, [r7, #12]
 6393 0198 5A80     		strh	r2, [r3, #2]	@ movhi
1575:.\AdvantageImpl.c ****             puartdisp->_messagestate = PENDING;
 6394              		.loc 1 1575 0
 6395 019a FB68     		ldr	r3, [r7, #12]
 6396 019c C222     		movs	r2, #194
 6397 019e 1A70     		strb	r2, [r3]
1576:.\AdvantageImpl.c ****             
1577:.\AdvantageImpl.c ****             //This marker flag is set to notify the transactional engine about the price restore re
1578:.\AdvantageImpl.c ****             ppump->_restoreprice = true;
 6398              		.loc 1 1578 0
 6399 01a0 3B69     		ldr	r3, [r7, #16]
 6400 01a2 0122     		movs	r2, #1
 6401 01a4 DA71     		strb	r2, [r3, #7]
 6402              	.L225:
 6403              	.LBE45:
 6404              	.LBE44:
1579:.\AdvantageImpl.c ****         }
1580:.\AdvantageImpl.c ****     }    
1581:.\AdvantageImpl.c **** }
 6405              		.loc 1 1581 0
 6406 01a6 1C37     		adds	r7, r7, #28
 6407              		.cfi_def_cfa_offset 12
 6408 01a8 BD46     		mov	sp, r7
 6409              		.cfi_def_cfa_register 13
 6410              		@ sp needed
 6411 01aa 90BD     		pop	{r4, r7, pc}
 6412              	.L236:
 6413              		.align	2
 6414              	.L235:
 6415 01ac 00000000 		.word	_g_dispenserlayoutinfo
 6416              		.cfi_endproc
 6417              	.LFE86:
 6418              		.size	PumpDefault2CreditPpuChange, .-PumpDefault2CreditPpuChange
 6419              		.section	.text.PumpCredit2DefaultPpuChange,"ax",%progbits
 6420              		.align	2
 6421              		.global	PumpCredit2DefaultPpuChange
 6422              		.thumb
ARM GAS  C:\Users\Lenovo\AppData\Local\Temp\cccA9qMw.s 			page 142


 6423              		.thumb_func
 6424              		.type	PumpCredit2DefaultPpuChange, %function
 6425              	PumpCredit2DefaultPpuChange:
 6426              	.LFB87:
1582:.\AdvantageImpl.c **** 
1583:.\AdvantageImpl.c **** void PumpCredit2DefaultPpuChange(void *pparam)
1584:.\AdvantageImpl.c **** {
 6427              		.loc 1 1584 0
 6428              		.cfi_startproc
 6429              		@ args = 0, pretend = 0, frame = 32
 6430              		@ frame_needed = 1, uses_anonymous_args = 0
 6431 0000 90B5     		push	{r4, r7, lr}
 6432              		.cfi_def_cfa_offset 12
 6433              		.cfi_offset 4, -12
 6434              		.cfi_offset 7, -8
 6435              		.cfi_offset 14, -4
 6436 0002 89B0     		sub	sp, sp, #36
 6437              		.cfi_def_cfa_offset 48
 6438 0004 00AF     		add	r7, sp, #0
 6439              		.cfi_def_cfa_register 7
 6440 0006 7860     		str	r0, [r7, #4]
1585:.\AdvantageImpl.c ****     PNEAR_PUMPPTR ppump = (PNEAR_PUMPPTR)pparam;
 6441              		.loc 1 1585 0
 6442 0008 7B68     		ldr	r3, [r7, #4]
 6443 000a BB61     		str	r3, [r7, #24]
1586:.\AdvantageImpl.c ****     if(ppump)
 6444              		.loc 1 1586 0
 6445 000c BB69     		ldr	r3, [r7, #24]
 6446 000e 002B     		cmp	r3, #0
 6447 0010 00F00F81 		beq	.L237
 6448              	.LBB48:
1587:.\AdvantageImpl.c ****     {
1588:.\AdvantageImpl.c ****         uint8_t index = 0;  
 6449              		.loc 1 1588 0
 6450 0014 0023     		movs	r3, #0
 6451 0016 FB77     		strb	r3, [r7, #31]
1589:.\AdvantageImpl.c ****         memset(ppump->_rxbuffer, 0x00, _PUMP_RX_BUFFER_SIZE_);
 6452              		.loc 1 1589 0
 6453 0018 BB69     		ldr	r3, [r7, #24]
 6454 001a 03F5D073 		add	r3, r3, #416
 6455 001e 1846     		mov	r0, r3
 6456 0020 0021     		movs	r1, #0
 6457 0022 4FF4C072 		mov	r2, #384
 6458 0026 FFF7FEFF 		bl	memset
1590:.\AdvantageImpl.c ****         PUARTMESSAGEPTR puartdisp = GetUARTMessageSlot(UART_DISPENSER);
 6459              		.loc 1 1590 0
 6460 002a A220     		movs	r0, #162
 6461 002c FFF7FEFF 		bl	GetUARTMessageSlot
 6462 0030 7861     		str	r0, [r7, #20]
1591:.\AdvantageImpl.c ****         if(puartdisp)
 6463              		.loc 1 1591 0
 6464 0032 7B69     		ldr	r3, [r7, #20]
 6465 0034 002B     		cmp	r3, #0
 6466 0036 00F0F980 		beq	.L239
 6467              	.LBB49:
1592:.\AdvantageImpl.c ****         {
1593:.\AdvantageImpl.c **** ///////////////////////////////////////////////////////////////////////////////////////////////////
ARM GAS  C:\Users\Lenovo\AppData\Local\Temp\cccA9qMw.s 			page 143


1594:.\AdvantageImpl.c ****             puartdisp->_messagetx[index++] = SOM;
 6468              		.loc 1 1594 0
 6469 003a FB7F     		ldrb	r3, [r7, #31]	@ zero_extendqisi2
 6470 003c 5A1C     		adds	r2, r3, #1
 6471 003e FA77     		strb	r2, [r7, #31]
 6472 0040 1A46     		mov	r2, r3
 6473 0042 7B69     		ldr	r3, [r7, #20]
 6474 0044 1344     		add	r3, r3, r2
 6475 0046 FF22     		movs	r2, #255
 6476 0048 1A71     		strb	r2, [r3, #4]
1595:.\AdvantageImpl.c ****             if(_g_dispenserlayoutinfo._displaydigitsmode == 0x06)
 6477              		.loc 1 1595 0
 6478 004a 7B4B     		ldr	r3, .L254
 6479 004c 1B7C     		ldrb	r3, [r3, #16]	@ zero_extendqisi2
 6480 004e 062B     		cmp	r3, #6
 6481 0050 08D1     		bne	.L240
1596:.\AdvantageImpl.c ****                 puartdisp->_messagetx[index++] = 0xE5;//Standard Price Data
 6482              		.loc 1 1596 0
 6483 0052 FB7F     		ldrb	r3, [r7, #31]	@ zero_extendqisi2
 6484 0054 5A1C     		adds	r2, r3, #1
 6485 0056 FA77     		strb	r2, [r7, #31]
 6486 0058 1A46     		mov	r2, r3
 6487 005a 7B69     		ldr	r3, [r7, #20]
 6488 005c 1344     		add	r3, r3, r2
 6489 005e E522     		movs	r2, #229
 6490 0060 1A71     		strb	r2, [r3, #4]
 6491 0062 07E0     		b	.L241
 6492              	.L240:
1597:.\AdvantageImpl.c ****             else
1598:.\AdvantageImpl.c ****                 puartdisp->_messagetx[index++] = 0xE3;//Long Price Data - Extended Two-Wire Mode
 6493              		.loc 1 1598 0
 6494 0064 FB7F     		ldrb	r3, [r7, #31]	@ zero_extendqisi2
 6495 0066 5A1C     		adds	r2, r3, #1
 6496 0068 FA77     		strb	r2, [r7, #31]
 6497 006a 1A46     		mov	r2, r3
 6498 006c 7B69     		ldr	r3, [r7, #20]
 6499 006e 1344     		add	r3, r3, r2
 6500 0070 E322     		movs	r2, #227
 6501 0072 1A71     		strb	r2, [r3, #4]
 6502              	.L241:
1599:.\AdvantageImpl.c ****             
1600:.\AdvantageImpl.c ****             puartdisp->_messagetx[index++] = 0xF4;
 6503              		.loc 1 1600 0
 6504 0074 FB7F     		ldrb	r3, [r7, #31]	@ zero_extendqisi2
 6505 0076 5A1C     		adds	r2, r3, #1
 6506 0078 FA77     		strb	r2, [r7, #31]
 6507 007a 1A46     		mov	r2, r3
 6508 007c 7B69     		ldr	r3, [r7, #20]
 6509 007e 1344     		add	r3, r3, r2
 6510 0080 F422     		movs	r2, #244
 6511 0082 1A71     		strb	r2, [r3, #4]
1601:.\AdvantageImpl.c ****             puartdisp->_messagetx[index++] = 0xF6; //Hose Data next
 6512              		.loc 1 1601 0
 6513 0084 FB7F     		ldrb	r3, [r7, #31]	@ zero_extendqisi2
 6514 0086 5A1C     		adds	r2, r3, #1
 6515 0088 FA77     		strb	r2, [r7, #31]
 6516 008a 1A46     		mov	r2, r3
ARM GAS  C:\Users\Lenovo\AppData\Local\Temp\cccA9qMw.s 			page 144


 6517 008c 7B69     		ldr	r3, [r7, #20]
 6518 008e 1344     		add	r3, r3, r2
 6519 0090 F622     		movs	r2, #246
 6520 0092 1A71     		strb	r2, [r3, #4]
1602:.\AdvantageImpl.c ****             ///THIS IS AN APPLIED CONVENTION ===>> 0x0006 INDEX POSITION WITHIN THE PUMP'S BUFFER P
1603:.\AdvantageImpl.c ****             ///THESE CODES MUST BE MATCHED OTHERWISE THE LOGIC WILL BREAKUP THE CODE!
1604:.\AdvantageImpl.c ****             puartdisp->_messagetx[index++] = (0xE0 | ppump->_authorizationinfo._hoseid);
 6521              		.loc 1 1604 0
 6522 0094 FB7F     		ldrb	r3, [r7, #31]	@ zero_extendqisi2
 6523 0096 5A1C     		adds	r2, r3, #1
 6524 0098 FA77     		strb	r2, [r7, #31]
 6525 009a 1946     		mov	r1, r3
 6526 009c BB69     		ldr	r3, [r7, #24]
 6527 009e 93F8AA3B 		ldrb	r3, [r3, #2986]
 6528 00a2 DBB2     		uxtb	r3, r3
 6529 00a4 63F01F03 		orn	r3, r3, #31
 6530 00a8 DAB2     		uxtb	r2, r3
 6531 00aa 7B69     		ldr	r3, [r7, #20]
 6532 00ac 0B44     		add	r3, r3, r1
 6533 00ae 1A71     		strb	r2, [r3, #4]
1605:.\AdvantageImpl.c **** 
1606:.\AdvantageImpl.c ****             puartdisp->_messagetx[index++] = 0xF7; //PPU Data next
 6534              		.loc 1 1606 0
 6535 00b0 FB7F     		ldrb	r3, [r7, #31]	@ zero_extendqisi2
 6536 00b2 5A1C     		adds	r2, r3, #1
 6537 00b4 FA77     		strb	r2, [r7, #31]
 6538 00b6 1A46     		mov	r2, r3
 6539 00b8 7B69     		ldr	r3, [r7, #20]
 6540 00ba 1344     		add	r3, r3, r2
 6541 00bc F722     		movs	r2, #247
 6542 00be 1A71     		strb	r2, [r3, #4]
1607:.\AdvantageImpl.c ****             
1608:.\AdvantageImpl.c ****             I2CBusLock();
 6543              		.loc 1 1608 0
 6544 00c0 FFF7FEFF 		bl	I2CBusLock
1609:.\AdvantageImpl.c ****             ClearEepromBuffer();
 6545              		.loc 1 1609 0
 6546 00c4 FFF7FEFF 		bl	ClearEepromBuffer
1610:.\AdvantageImpl.c ****             uint16 eeprompage = DispenserGetEepromPPUPageFromPumpID(ppump->_pumpid);
 6547              		.loc 1 1610 0
 6548 00c8 BB69     		ldr	r3, [r7, #24]
 6549 00ca 1B78     		ldrb	r3, [r3]	@ zero_extendqisi2
 6550 00cc 1846     		mov	r0, r3
 6551 00ce FFF7FEFF 		bl	DispenserGetEepromPPUPageFromPumpID
 6552 00d2 0346     		mov	r3, r0
 6553 00d4 7B82     		strh	r3, [r7, #18]	@ movhi
1611:.\AdvantageImpl.c ****             LoadEepromPage(eeprompage);
 6554              		.loc 1 1611 0
 6555 00d6 7B8A     		ldrh	r3, [r7, #18]
 6556 00d8 1846     		mov	r0, r3
 6557 00da FFF7FEFF 		bl	LoadEepromPage
1612:.\AdvantageImpl.c ****             switch(ppump->_authorizationinfo._hoseid)
 6558              		.loc 1 1612 0
 6559 00de BB69     		ldr	r3, [r7, #24]
 6560 00e0 93F8AA3B 		ldrb	r3, [r3, #2986]
 6561 00e4 DBB2     		uxtb	r3, r3
 6562 00e6 032B     		cmp	r3, #3
ARM GAS  C:\Users\Lenovo\AppData\Local\Temp\cccA9qMw.s 			page 145


 6563 00e8 3DD8     		bhi	.L242
 6564 00ea 01A2     		adr	r2, .L244
 6565 00ec 52F823F0 		ldr	pc, [r2, r3, lsl #2]
 6566              		.p2align 2
 6567              	.L244:
 6568 00f0 01010000 		.word	.L243+1
 6569 00f4 19010000 		.word	.L245+1
 6570 00f8 33010000 		.word	.L246+1
 6571 00fc 4D010000 		.word	.L247+1
 6572              		.p2align 1
 6573              	.L243:
1613:.\AdvantageImpl.c ****             {
1614:.\AdvantageImpl.c ****                 case 0x00:
1615:.\AdvantageImpl.c ****                 //Six bytes only since the PPU is constrained to this length
1616:.\AdvantageImpl.c ****                 memcpy(PBYTECAST(&ppump->_trasactionbuffer[0x0008]), &GetEepromBuffer()[_EEPROM_PAG
 6574              		.loc 1 1616 0
 6575 0100 BB69     		ldr	r3, [r7, #24]
 6576 0102 03F12804 		add	r4, r3, #40
 6577 0106 FFF7FEFF 		bl	GetEepromBuffer
 6578 010a 0346     		mov	r3, r0
 6579 010c 2046     		mov	r0, r4
 6580 010e 1946     		mov	r1, r3
 6581 0110 0622     		movs	r2, #6
 6582 0112 FFF7FEFF 		bl	memcpy
1617:.\AdvantageImpl.c ****                 break;
 6583              		.loc 1 1617 0
 6584 0116 26E0     		b	.L242
 6585              	.L245:
1618:.\AdvantageImpl.c ****                 case 0x01:
1619:.\AdvantageImpl.c ****                 //Six bytes only since the PPU is constrained to this length
1620:.\AdvantageImpl.c ****                 memcpy(PBYTECAST(&ppump->_trasactionbuffer[0x0008]), &GetEepromBuffer()[_EEPROM_PAG
 6586              		.loc 1 1620 0
 6587 0118 BB69     		ldr	r3, [r7, #24]
 6588 011a 03F12804 		add	r4, r3, #40
 6589 011e FFF7FEFF 		bl	GetEepromBuffer
 6590 0122 0346     		mov	r3, r0
 6591 0124 1033     		adds	r3, r3, #16
 6592 0126 2046     		mov	r0, r4
 6593 0128 1946     		mov	r1, r3
 6594 012a 0622     		movs	r2, #6
 6595 012c FFF7FEFF 		bl	memcpy
1621:.\AdvantageImpl.c ****                 break;
 6596              		.loc 1 1621 0
 6597 0130 19E0     		b	.L242
 6598              	.L246:
1622:.\AdvantageImpl.c ****                 case 0x02:
1623:.\AdvantageImpl.c ****                 //Six bytes only since the PPU is constrained to this length
1624:.\AdvantageImpl.c ****                 memcpy(PBYTECAST(&ppump->_trasactionbuffer[0x0008]), &GetEepromBuffer()[_EEPROM_PAG
 6599              		.loc 1 1624 0
 6600 0132 BB69     		ldr	r3, [r7, #24]
 6601 0134 03F12804 		add	r4, r3, #40
 6602 0138 FFF7FEFF 		bl	GetEepromBuffer
 6603 013c 0346     		mov	r3, r0
 6604 013e 2033     		adds	r3, r3, #32
 6605 0140 2046     		mov	r0, r4
 6606 0142 1946     		mov	r1, r3
 6607 0144 0622     		movs	r2, #6
ARM GAS  C:\Users\Lenovo\AppData\Local\Temp\cccA9qMw.s 			page 146


 6608 0146 FFF7FEFF 		bl	memcpy
1625:.\AdvantageImpl.c ****                 break;
 6609              		.loc 1 1625 0
 6610 014a 0CE0     		b	.L242
 6611              	.L247:
1626:.\AdvantageImpl.c ****                 case 0x03:
1627:.\AdvantageImpl.c ****                 //Six bytes only since the PPU is constrained to this length
1628:.\AdvantageImpl.c ****                 memcpy(PBYTECAST(&ppump->_trasactionbuffer[0x0008]), &GetEepromBuffer()[_EEPROM_PAG
 6612              		.loc 1 1628 0
 6613 014c BB69     		ldr	r3, [r7, #24]
 6614 014e 03F12804 		add	r4, r3, #40
 6615 0152 FFF7FEFF 		bl	GetEepromBuffer
 6616 0156 0346     		mov	r3, r0
 6617 0158 3033     		adds	r3, r3, #48
 6618 015a 2046     		mov	r0, r4
 6619 015c 1946     		mov	r1, r3
 6620 015e 0622     		movs	r2, #6
 6621 0160 FFF7FEFF 		bl	memcpy
1629:.\AdvantageImpl.c ****                 break;
 6622              		.loc 1 1629 0
 6623 0164 00BF     		nop
 6624              	.L242:
1630:.\AdvantageImpl.c ****             }
1631:.\AdvantageImpl.c ****             I2CBusUnlock();
 6625              		.loc 1 1631 0
 6626 0166 FFF7FEFF 		bl	I2CBusUnlock
1632:.\AdvantageImpl.c **** 
1633:.\AdvantageImpl.c ****             char8 *ptr = &ppump->_trasactionbuffer[0x0008];
 6627              		.loc 1 1633 0
 6628 016a BB69     		ldr	r3, [r7, #24]
 6629 016c 2833     		adds	r3, r3, #40
 6630 016e FB60     		str	r3, [r7, #12]
1634:.\AdvantageImpl.c ****             
1635:.\AdvantageImpl.c ****             if(_g_dispenserlayoutinfo._displaydigitsmode == 0x06)
 6631              		.loc 1 1635 0
 6632 0170 314B     		ldr	r3, .L254
 6633 0172 1B7C     		ldrb	r3, [r3, #16]	@ zero_extendqisi2
 6634 0174 062B     		cmp	r3, #6
 6635 0176 1AD1     		bne	.L248
 6636              	.LBB50:
1636:.\AdvantageImpl.c ****             {
1637:.\AdvantageImpl.c ****                 FOR(uint8 buffndx = 0, buffndx < 4, buffndx++)//Standard Price Data
 6637              		.loc 1 1637 0
 6638 0178 0023     		movs	r3, #0
 6639 017a BB77     		strb	r3, [r7, #30]
 6640 017c 13E0     		b	.L249
 6641              	.L250:
1638:.\AdvantageImpl.c ****                     puartdisp->_messagetx[index++] = (0xE0 | (0x0F & ptr[buffndx])); //Translate fr
 6642              		.loc 1 1638 0 discriminator 3
 6643 017e FB7F     		ldrb	r3, [r7, #31]	@ zero_extendqisi2
 6644 0180 5A1C     		adds	r2, r3, #1
 6645 0182 FA77     		strb	r2, [r7, #31]
 6646 0184 1946     		mov	r1, r3
 6647 0186 BB7F     		ldrb	r3, [r7, #30]	@ zero_extendqisi2
 6648 0188 FA68     		ldr	r2, [r7, #12]
 6649 018a 1344     		add	r3, r3, r2
 6650 018c 1B78     		ldrb	r3, [r3]	@ zero_extendqisi2
ARM GAS  C:\Users\Lenovo\AppData\Local\Temp\cccA9qMw.s 			page 147


 6651 018e 03F00F03 		and	r3, r3, #15
 6652 0192 DBB2     		uxtb	r3, r3
 6653 0194 63F01F03 		orn	r3, r3, #31
 6654 0198 DAB2     		uxtb	r2, r3
 6655 019a 7B69     		ldr	r3, [r7, #20]
 6656 019c 0B44     		add	r3, r3, r1
 6657 019e 1A71     		strb	r2, [r3, #4]
1637:.\AdvantageImpl.c ****                     puartdisp->_messagetx[index++] = (0xE0 | (0x0F & ptr[buffndx])); //Translate fr
 6658              		.loc 1 1637 0 discriminator 3
 6659 01a0 BB7F     		ldrb	r3, [r7, #30]	@ zero_extendqisi2
 6660 01a2 0133     		adds	r3, r3, #1
 6661 01a4 BB77     		strb	r3, [r7, #30]
 6662              	.L249:
1637:.\AdvantageImpl.c ****                     puartdisp->_messagetx[index++] = (0xE0 | (0x0F & ptr[buffndx])); //Translate fr
 6663              		.loc 1 1637 0 is_stmt 0 discriminator 1
 6664 01a6 BB7F     		ldrb	r3, [r7, #30]	@ zero_extendqisi2
 6665 01a8 032B     		cmp	r3, #3
 6666 01aa E8D9     		bls	.L250
 6667              	.LBE50:
 6668 01ac 19E0     		b	.L251
 6669              	.L248:
 6670              	.LBB51:
1639:.\AdvantageImpl.c ****             }
1640:.\AdvantageImpl.c ****             else
1641:.\AdvantageImpl.c ****             {
1642:.\AdvantageImpl.c ****                 FOR(uint8 buffndx = 0, buffndx < 6, buffndx++)//Long Price Data - Extended Two-Wire
 6671              		.loc 1 1642 0 is_stmt 1
 6672 01ae 0023     		movs	r3, #0
 6673 01b0 7B77     		strb	r3, [r7, #29]
 6674 01b2 13E0     		b	.L252
 6675              	.L253:
1643:.\AdvantageImpl.c ****                     puartdisp->_messagetx[index++] = (0xE0 | (0x0F & ptr[buffndx])); //Translate fr
 6676              		.loc 1 1643 0 discriminator 3
 6677 01b4 FB7F     		ldrb	r3, [r7, #31]	@ zero_extendqisi2
 6678 01b6 5A1C     		adds	r2, r3, #1
 6679 01b8 FA77     		strb	r2, [r7, #31]
 6680 01ba 1946     		mov	r1, r3
 6681 01bc 7B7F     		ldrb	r3, [r7, #29]	@ zero_extendqisi2
 6682 01be FA68     		ldr	r2, [r7, #12]
 6683 01c0 1344     		add	r3, r3, r2
 6684 01c2 1B78     		ldrb	r3, [r3]	@ zero_extendqisi2
 6685 01c4 03F00F03 		and	r3, r3, #15
 6686 01c8 DBB2     		uxtb	r3, r3
 6687 01ca 63F01F03 		orn	r3, r3, #31
 6688 01ce DAB2     		uxtb	r2, r3
 6689 01d0 7B69     		ldr	r3, [r7, #20]
 6690 01d2 0B44     		add	r3, r3, r1
 6691 01d4 1A71     		strb	r2, [r3, #4]
1642:.\AdvantageImpl.c ****                     puartdisp->_messagetx[index++] = (0xE0 | (0x0F & ptr[buffndx])); //Translate fr
 6692              		.loc 1 1642 0 discriminator 3
 6693 01d6 7B7F     		ldrb	r3, [r7, #29]	@ zero_extendqisi2
 6694 01d8 0133     		adds	r3, r3, #1
 6695 01da 7B77     		strb	r3, [r7, #29]
 6696              	.L252:
1642:.\AdvantageImpl.c ****                     puartdisp->_messagetx[index++] = (0xE0 | (0x0F & ptr[buffndx])); //Translate fr
 6697              		.loc 1 1642 0 is_stmt 0 discriminator 1
 6698 01dc 7B7F     		ldrb	r3, [r7, #29]	@ zero_extendqisi2
ARM GAS  C:\Users\Lenovo\AppData\Local\Temp\cccA9qMw.s 			page 148


 6699 01de 052B     		cmp	r3, #5
 6700 01e0 E8D9     		bls	.L253
 6701              	.L251:
 6702              	.LBE51:
1644:.\AdvantageImpl.c ****             }
1645:.\AdvantageImpl.c ****             
1646:.\AdvantageImpl.c ****             puartdisp->_messagetx[index++] = 0xFB; //LRC next
 6703              		.loc 1 1646 0 is_stmt 1
 6704 01e2 FB7F     		ldrb	r3, [r7, #31]	@ zero_extendqisi2
 6705 01e4 5A1C     		adds	r2, r3, #1
 6706 01e6 FA77     		strb	r2, [r7, #31]
 6707 01e8 1A46     		mov	r2, r3
 6708 01ea 7B69     		ldr	r3, [r7, #20]
 6709 01ec 1344     		add	r3, r3, r2
 6710 01ee FB22     		movs	r2, #251
 6711 01f0 1A71     		strb	r2, [r3, #4]
1647:.\AdvantageImpl.c ****             puartdisp->_messagetx[index++] = GetLRC(puartdisp->_messagetx);
 6712              		.loc 1 1647 0
 6713 01f2 FB7F     		ldrb	r3, [r7, #31]	@ zero_extendqisi2
 6714 01f4 5A1C     		adds	r2, r3, #1
 6715 01f6 FA77     		strb	r2, [r7, #31]
 6716 01f8 1C46     		mov	r4, r3
 6717 01fa 7B69     		ldr	r3, [r7, #20]
 6718 01fc 0433     		adds	r3, r3, #4
 6719 01fe 1846     		mov	r0, r3
 6720 0200 FFF7FEFF 		bl	GetLRC
 6721 0204 0346     		mov	r3, r0
 6722 0206 1A46     		mov	r2, r3
 6723 0208 7B69     		ldr	r3, [r7, #20]
 6724 020a 2344     		add	r3, r3, r4
 6725 020c 1A71     		strb	r2, [r3, #4]
1648:.\AdvantageImpl.c ****             puartdisp->_messagetx[index++] = EOM;
 6726              		.loc 1 1648 0
 6727 020e FB7F     		ldrb	r3, [r7, #31]	@ zero_extendqisi2
 6728 0210 5A1C     		adds	r2, r3, #1
 6729 0212 FA77     		strb	r2, [r7, #31]
 6730 0214 1A46     		mov	r2, r3
 6731 0216 7B69     		ldr	r3, [r7, #20]
 6732 0218 1344     		add	r3, r3, r2
 6733 021a F022     		movs	r2, #240
 6734 021c 1A71     		strb	r2, [r3, #4]
1649:.\AdvantageImpl.c **** ///////////////////////////////////////////////////////////////////////////////////////////////////
1650:.\AdvantageImpl.c ****             
1651:.\AdvantageImpl.c ****             puartdisp->_messagelength = index;
 6735              		.loc 1 1651 0
 6736 021e FB7F     		ldrb	r3, [r7, #31]	@ zero_extendqisi2
 6737 0220 9AB2     		uxth	r2, r3
 6738 0222 7B69     		ldr	r3, [r7, #20]
 6739 0224 5A80     		strh	r2, [r3, #2]	@ movhi
1652:.\AdvantageImpl.c ****             puartdisp->_messagestate = PENDING;
 6740              		.loc 1 1652 0
 6741 0226 7B69     		ldr	r3, [r7, #20]
 6742 0228 C222     		movs	r2, #194
 6743 022a 1A70     		strb	r2, [r3]
 6744              	.L239:
 6745              	.LBE49:
1653:.\AdvantageImpl.c ****         }
ARM GAS  C:\Users\Lenovo\AppData\Local\Temp\cccA9qMw.s 			page 149


1654:.\AdvantageImpl.c ****         ppump->_restoreprice = false;
 6746              		.loc 1 1654 0
 6747 022c BB69     		ldr	r3, [r7, #24]
 6748 022e 0022     		movs	r2, #0
 6749 0230 DA71     		strb	r2, [r3, #7]
 6750              	.L237:
 6751              	.LBE48:
1655:.\AdvantageImpl.c ****         //This lock is to force the operator to activate/deactivate the hose once the credit transa
1656:.\AdvantageImpl.c ****         #ifdef CREDIT_SALE_PUMP_LOCK
1657:.\AdvantageImpl.c ****         ppump->_pumplocked = true;
1658:.\AdvantageImpl.c ****         #endif
1659:.\AdvantageImpl.c ****     }    
1660:.\AdvantageImpl.c **** }
 6752              		.loc 1 1660 0
 6753 0232 2437     		adds	r7, r7, #36
 6754              		.cfi_def_cfa_offset 12
 6755 0234 BD46     		mov	sp, r7
 6756              		.cfi_def_cfa_register 13
 6757              		@ sp needed
 6758 0236 90BD     		pop	{r4, r7, pc}
 6759              	.L255:
 6760              		.align	2
 6761              	.L254:
 6762 0238 00000000 		.word	_g_dispenserlayoutinfo
 6763              		.cfi_endproc
 6764              	.LFE87:
 6765              		.size	PumpCredit2DefaultPpuChange, .-PumpCredit2DefaultPpuChange
 6766              		.section	.text.PumpStopRequest,"ax",%progbits
 6767              		.align	2
 6768              		.global	PumpStopRequest
 6769              		.thumb
 6770              		.thumb_func
 6771              		.type	PumpStopRequest, %function
 6772              	PumpStopRequest:
 6773              	.LFB88:
1661:.\AdvantageImpl.c **** 
1662:.\AdvantageImpl.c **** //@Created By: HIJH
1663:.\AdvantageImpl.c **** //@Septembre de 2016
1664:.\AdvantageImpl.c **** void PumpStopRequest(void *pparam)
1665:.\AdvantageImpl.c **** {
 6774              		.loc 1 1665 0
 6775              		.cfi_startproc
 6776              		@ args = 0, pretend = 0, frame = 24
 6777              		@ frame_needed = 1, uses_anonymous_args = 0
 6778 0000 80B5     		push	{r7, lr}
 6779              		.cfi_def_cfa_offset 8
 6780              		.cfi_offset 7, -8
 6781              		.cfi_offset 14, -4
 6782 0002 86B0     		sub	sp, sp, #24
 6783              		.cfi_def_cfa_offset 32
 6784 0004 00AF     		add	r7, sp, #0
 6785              		.cfi_def_cfa_register 7
 6786 0006 7860     		str	r0, [r7, #4]
1666:.\AdvantageImpl.c ****     PNEAR_PUMPPTR ppump = (PNEAR_PUMPPTR)pparam;
 6787              		.loc 1 1666 0
 6788 0008 7B68     		ldr	r3, [r7, #4]
 6789 000a 7B61     		str	r3, [r7, #20]
ARM GAS  C:\Users\Lenovo\AppData\Local\Temp\cccA9qMw.s 			page 150


1667:.\AdvantageImpl.c ****     if(ppump)
 6790              		.loc 1 1667 0
 6791 000c 7B69     		ldr	r3, [r7, #20]
 6792 000e 002B     		cmp	r3, #0
 6793 0010 28D0     		beq	.L256
 6794              	.LBB52:
1668:.\AdvantageImpl.c ****     {                
1669:.\AdvantageImpl.c ****         uint8_t index = 0;
 6795              		.loc 1 1669 0
 6796 0012 0023     		movs	r3, #0
 6797 0014 FB74     		strb	r3, [r7, #19]
1670:.\AdvantageImpl.c ****         memset(ppump->_rxbuffer, 0x00, _PUMP_RX_BUFFER_SIZE_);
 6798              		.loc 1 1670 0
 6799 0016 7B69     		ldr	r3, [r7, #20]
 6800 0018 03F5D073 		add	r3, r3, #416
 6801 001c 1846     		mov	r0, r3
 6802 001e 0021     		movs	r1, #0
 6803 0020 4FF4C072 		mov	r2, #384
 6804 0024 FFF7FEFF 		bl	memset
1671:.\AdvantageImpl.c ****         PUARTMESSAGEPTR puartdisp = GetUARTMessageSlot(UART_DISPENSER);
 6805              		.loc 1 1671 0
 6806 0028 A220     		movs	r0, #162
 6807 002a FFF7FEFF 		bl	GetUARTMessageSlot
 6808 002e F860     		str	r0, [r7, #12]
1672:.\AdvantageImpl.c ****         if(puartdisp)
 6809              		.loc 1 1672 0
 6810 0030 FB68     		ldr	r3, [r7, #12]
 6811 0032 002B     		cmp	r3, #0
 6812 0034 16D0     		beq	.L256
1673:.\AdvantageImpl.c ****         {
1674:.\AdvantageImpl.c ****             //Just one byte for the response
1675:.\AdvantageImpl.c ****             puartdisp->_messagetx[index++] = PUMP_COMMAND(PUMP_PUMP_STOP, ppump->_pumpid);
 6813              		.loc 1 1675 0
 6814 0036 FB7C     		ldrb	r3, [r7, #19]	@ zero_extendqisi2
 6815 0038 5A1C     		adds	r2, r3, #1
 6816 003a FA74     		strb	r2, [r7, #19]
 6817 003c 1946     		mov	r1, r3
 6818 003e 7B69     		ldr	r3, [r7, #20]
 6819 0040 1B78     		ldrb	r3, [r3]	@ zero_extendqisi2
 6820 0042 DBB2     		uxtb	r3, r3
 6821 0044 03F00F03 		and	r3, r3, #15
 6822 0048 DBB2     		uxtb	r3, r3
 6823 004a 43F03003 		orr	r3, r3, #48
 6824 004e DBB2     		uxtb	r3, r3
 6825 0050 DAB2     		uxtb	r2, r3
 6826 0052 FB68     		ldr	r3, [r7, #12]
 6827 0054 0B44     		add	r3, r3, r1
 6828 0056 1A71     		strb	r2, [r3, #4]
1676:.\AdvantageImpl.c ****             puartdisp->_messagelength = 1;//One byte
 6829              		.loc 1 1676 0
 6830 0058 FB68     		ldr	r3, [r7, #12]
 6831 005a 0122     		movs	r2, #1
 6832 005c 5A80     		strh	r2, [r3, #2]	@ movhi
1677:.\AdvantageImpl.c ****             puartdisp->_messagestate = PENDING;
 6833              		.loc 1 1677 0
 6834 005e FB68     		ldr	r3, [r7, #12]
 6835 0060 C222     		movs	r2, #194
ARM GAS  C:\Users\Lenovo\AppData\Local\Temp\cccA9qMw.s 			page 151


 6836 0062 1A70     		strb	r2, [r3]
 6837              	.L256:
 6838              	.LBE52:
1678:.\AdvantageImpl.c ****         }        
1679:.\AdvantageImpl.c ****     }
1680:.\AdvantageImpl.c **** }
 6839              		.loc 1 1680 0
 6840 0064 1837     		adds	r7, r7, #24
 6841              		.cfi_def_cfa_offset 8
 6842 0066 BD46     		mov	sp, r7
 6843              		.cfi_def_cfa_register 13
 6844              		@ sp needed
 6845 0068 80BD     		pop	{r7, pc}
 6846              		.cfi_endproc
 6847              	.LFE88:
 6848              		.size	PumpStopRequest, .-PumpStopRequest
 6849 006a 00BF     		.section	.text.PumpStopAllRequest,"ax",%progbits
 6850              		.align	2
 6851              		.global	PumpStopAllRequest
 6852              		.thumb
 6853              		.thumb_func
 6854              		.type	PumpStopAllRequest, %function
 6855              	PumpStopAllRequest:
 6856              	.LFB89:
1681:.\AdvantageImpl.c **** 
1682:.\AdvantageImpl.c **** //@Created By: HIJH
1683:.\AdvantageImpl.c **** //@Septembre de 2016
1684:.\AdvantageImpl.c **** void PumpStopAllRequest(void *pparam)
1685:.\AdvantageImpl.c **** {
 6857              		.loc 1 1685 0
 6858              		.cfi_startproc
 6859              		@ args = 0, pretend = 0, frame = 24
 6860              		@ frame_needed = 1, uses_anonymous_args = 0
 6861 0000 80B5     		push	{r7, lr}
 6862              		.cfi_def_cfa_offset 8
 6863              		.cfi_offset 7, -8
 6864              		.cfi_offset 14, -4
 6865 0002 86B0     		sub	sp, sp, #24
 6866              		.cfi_def_cfa_offset 32
 6867 0004 00AF     		add	r7, sp, #0
 6868              		.cfi_def_cfa_register 7
 6869 0006 7860     		str	r0, [r7, #4]
1686:.\AdvantageImpl.c ****     PNEAR_PUMPPTR ppump = (PNEAR_PUMPPTR)pparam;
 6870              		.loc 1 1686 0
 6871 0008 7B68     		ldr	r3, [r7, #4]
 6872 000a 7B61     		str	r3, [r7, #20]
1687:.\AdvantageImpl.c ****     if(ppump)
 6873              		.loc 1 1687 0
 6874 000c 7B69     		ldr	r3, [r7, #20]
 6875 000e 002B     		cmp	r3, #0
 6876 0010 23D0     		beq	.L258
 6877              	.LBB53:
1688:.\AdvantageImpl.c ****     {                
1689:.\AdvantageImpl.c ****         uint8_t index = 0;
 6878              		.loc 1 1689 0
 6879 0012 0023     		movs	r3, #0
 6880 0014 FB74     		strb	r3, [r7, #19]
ARM GAS  C:\Users\Lenovo\AppData\Local\Temp\cccA9qMw.s 			page 152


1690:.\AdvantageImpl.c ****         memset(ppump->_rxbuffer, 0x00, _PUMP_RX_BUFFER_SIZE_);
 6881              		.loc 1 1690 0
 6882 0016 7B69     		ldr	r3, [r7, #20]
 6883 0018 03F5D073 		add	r3, r3, #416
 6884 001c 1846     		mov	r0, r3
 6885 001e 0021     		movs	r1, #0
 6886 0020 4FF4C072 		mov	r2, #384
 6887 0024 FFF7FEFF 		bl	memset
1691:.\AdvantageImpl.c ****         PUARTMESSAGEPTR puartdisp = GetUARTMessageSlot(UART_DISPENSER);
 6888              		.loc 1 1691 0
 6889 0028 A220     		movs	r0, #162
 6890 002a FFF7FEFF 		bl	GetUARTMessageSlot
 6891 002e F860     		str	r0, [r7, #12]
1692:.\AdvantageImpl.c ****         if(puartdisp)
 6892              		.loc 1 1692 0
 6893 0030 FB68     		ldr	r3, [r7, #12]
 6894 0032 002B     		cmp	r3, #0
 6895 0034 11D0     		beq	.L258
1693:.\AdvantageImpl.c ****         {
1694:.\AdvantageImpl.c ****             //Just one byte for the response
1695:.\AdvantageImpl.c ****             puartdisp->_messagetx[index++] = PUMP_COMMAND(PUMP_ALL_PUMPS_STOP, ppump->_pumpid);
 6896              		.loc 1 1695 0
 6897 0036 FB7C     		ldrb	r3, [r7, #19]	@ zero_extendqisi2
 6898 0038 5A1C     		adds	r2, r3, #1
 6899 003a FA74     		strb	r2, [r7, #19]
 6900 003c 1946     		mov	r1, r3
 6901 003e 7B69     		ldr	r3, [r7, #20]
 6902 0040 1B78     		ldrb	r3, [r3]	@ zero_extendqisi2
 6903 0042 63F00F03 		orn	r3, r3, #15
 6904 0046 DAB2     		uxtb	r2, r3
 6905 0048 FB68     		ldr	r3, [r7, #12]
 6906 004a 0B44     		add	r3, r3, r1
 6907 004c 1A71     		strb	r2, [r3, #4]
1696:.\AdvantageImpl.c ****             puartdisp->_messagelength = 1;//One byte
 6908              		.loc 1 1696 0
 6909 004e FB68     		ldr	r3, [r7, #12]
 6910 0050 0122     		movs	r2, #1
 6911 0052 5A80     		strh	r2, [r3, #2]	@ movhi
1697:.\AdvantageImpl.c ****             puartdisp->_messagestate = PENDING;
 6912              		.loc 1 1697 0
 6913 0054 FB68     		ldr	r3, [r7, #12]
 6914 0056 C222     		movs	r2, #194
 6915 0058 1A70     		strb	r2, [r3]
 6916              	.L258:
 6917              	.LBE53:
1698:.\AdvantageImpl.c ****         }        
1699:.\AdvantageImpl.c ****     }
1700:.\AdvantageImpl.c **** }
 6918              		.loc 1 1700 0
 6919 005a 1837     		adds	r7, r7, #24
 6920              		.cfi_def_cfa_offset 8
 6921 005c BD46     		mov	sp, r7
 6922              		.cfi_def_cfa_register 13
 6923              		@ sp needed
 6924 005e 80BD     		pop	{r7, pc}
 6925              		.cfi_endproc
 6926              	.LFE89:
ARM GAS  C:\Users\Lenovo\AppData\Local\Temp\cccA9qMw.s 			page 153


 6927              		.size	PumpStopAllRequest, .-PumpStopAllRequest
 6928              		.section	.text.PumpCompleteConfiguration,"ax",%progbits
 6929              		.align	2
 6930              		.global	PumpCompleteConfiguration
 6931              		.thumb
 6932              		.thumb_func
 6933              		.type	PumpCompleteConfiguration, %function
 6934              	PumpCompleteConfiguration:
 6935              	.LFB90:
1701:.\AdvantageImpl.c **** 
1702:.\AdvantageImpl.c **** //@Created By: HIJH
1703:.\AdvantageImpl.c **** //@Septembre de 2016
1704:.\AdvantageImpl.c **** void PumpCompleteConfiguration(LPVOID pparam)
1705:.\AdvantageImpl.c **** {
 6936              		.loc 1 1705 0
 6937              		.cfi_startproc
 6938              		@ args = 0, pretend = 0, frame = 24
 6939              		@ frame_needed = 1, uses_anonymous_args = 0
 6940 0000 90B5     		push	{r4, r7, lr}
 6941              		.cfi_def_cfa_offset 12
 6942              		.cfi_offset 4, -12
 6943              		.cfi_offset 7, -8
 6944              		.cfi_offset 14, -4
 6945 0002 87B0     		sub	sp, sp, #28
 6946              		.cfi_def_cfa_offset 40
 6947 0004 00AF     		add	r7, sp, #0
 6948              		.cfi_def_cfa_register 7
 6949 0006 7860     		str	r0, [r7, #4]
1706:.\AdvantageImpl.c ****     PNEAR_PUMPPTR ppump = (PNEAR_PUMPPTR)pparam;
 6950              		.loc 1 1706 0
 6951 0008 7B68     		ldr	r3, [r7, #4]
 6952 000a 7B61     		str	r3, [r7, #20]
1707:.\AdvantageImpl.c ****     if(ppump)
 6953              		.loc 1 1707 0
 6954 000c 7B69     		ldr	r3, [r7, #20]
 6955 000e 002B     		cmp	r3, #0
 6956 0010 66D0     		beq	.L260
 6957              	.LBB54:
1708:.\AdvantageImpl.c ****     {
1709:.\AdvantageImpl.c ****         uint8_t index = 0;  
 6958              		.loc 1 1709 0
 6959 0012 0023     		movs	r3, #0
 6960 0014 FB74     		strb	r3, [r7, #19]
1710:.\AdvantageImpl.c ****         memset(ppump->_rxbuffer, 0x00, _PUMP_RX_BUFFER_SIZE_);
 6961              		.loc 1 1710 0
 6962 0016 7B69     		ldr	r3, [r7, #20]
 6963 0018 03F5D073 		add	r3, r3, #416
 6964 001c 1846     		mov	r0, r3
 6965 001e 0021     		movs	r1, #0
 6966 0020 4FF4C072 		mov	r2, #384
 6967 0024 FFF7FEFF 		bl	memset
1711:.\AdvantageImpl.c ****         PUARTMESSAGEPTR puartdisp = GetUARTMessageSlot(UART_DISPENSER);
 6968              		.loc 1 1711 0
 6969 0028 A220     		movs	r0, #162
 6970 002a FFF7FEFF 		bl	GetUARTMessageSlot
 6971 002e F860     		str	r0, [r7, #12]
1712:.\AdvantageImpl.c ****         if(puartdisp)
ARM GAS  C:\Users\Lenovo\AppData\Local\Temp\cccA9qMw.s 			page 154


 6972              		.loc 1 1712 0
 6973 0030 FB68     		ldr	r3, [r7, #12]
 6974 0032 002B     		cmp	r3, #0
 6975 0034 54D0     		beq	.L260
1713:.\AdvantageImpl.c ****         {
1714:.\AdvantageImpl.c **** ///////////////////////////////////////////////////////////////////////////////////////////////////
1715:.\AdvantageImpl.c ****             puartdisp->_messagetx[index++] = SOM;//Start Of Message
 6976              		.loc 1 1715 0
 6977 0036 FB7C     		ldrb	r3, [r7, #19]	@ zero_extendqisi2
 6978 0038 5A1C     		adds	r2, r3, #1
 6979 003a FA74     		strb	r2, [r7, #19]
 6980 003c 1A46     		mov	r2, r3
 6981 003e FB68     		ldr	r3, [r7, #12]
 6982 0040 1344     		add	r3, r3, r2
 6983 0042 FF22     		movs	r2, #255
 6984 0044 1A71     		strb	r2, [r3, #4]
1716:.\AdvantageImpl.c ****             puartdisp->_messagetx[index++] = 0xE9;//Data Length
 6985              		.loc 1 1716 0
 6986 0046 FB7C     		ldrb	r3, [r7, #19]	@ zero_extendqisi2
 6987 0048 5A1C     		adds	r2, r3, #1
 6988 004a FA74     		strb	r2, [r7, #19]
 6989 004c 1A46     		mov	r2, r3
 6990 004e FB68     		ldr	r3, [r7, #12]
 6991 0050 1344     		add	r3, r3, r2
 6992 0052 E922     		movs	r2, #233
 6993 0054 1A71     		strb	r2, [r3, #4]
1717:.\AdvantageImpl.c ****             puartdisp->_messagetx[index++] = 0xFE;//Special Functions Next (0xB0 0xB0 0xBE)
 6994              		.loc 1 1717 0
 6995 0056 FB7C     		ldrb	r3, [r7, #19]	@ zero_extendqisi2
 6996 0058 5A1C     		adds	r2, r3, #1
 6997 005a FA74     		strb	r2, [r7, #19]
 6998 005c 1A46     		mov	r2, r3
 6999 005e FB68     		ldr	r3, [r7, #12]
 7000 0060 1344     		add	r3, r3, r2
 7001 0062 FE22     		movs	r2, #254
 7002 0064 1A71     		strb	r2, [r3, #4]
1718:.\AdvantageImpl.c ****             puartdisp->_messagetx[index++] = 0xEE;//Complete Pump Configuration Request (sf1)
 7003              		.loc 1 1718 0
 7004 0066 FB7C     		ldrb	r3, [r7, #19]	@ zero_extendqisi2
 7005 0068 5A1C     		adds	r2, r3, #1
 7006 006a FA74     		strb	r2, [r7, #19]
 7007 006c 1A46     		mov	r2, r3
 7008 006e FB68     		ldr	r3, [r7, #12]
 7009 0070 1344     		add	r3, r3, r2
 7010 0072 EE22     		movs	r2, #238
 7011 0074 1A71     		strb	r2, [r3, #4]
1719:.\AdvantageImpl.c ****             puartdisp->_messagetx[index++] = 0xE0;//Complete Pump Configuration Request (sf2)
 7012              		.loc 1 1719 0
 7013 0076 FB7C     		ldrb	r3, [r7, #19]	@ zero_extendqisi2
 7014 0078 5A1C     		adds	r2, r3, #1
 7015 007a FA74     		strb	r2, [r7, #19]
 7016 007c 1A46     		mov	r2, r3
 7017 007e FB68     		ldr	r3, [r7, #12]
 7018 0080 1344     		add	r3, r3, r2
 7019 0082 E022     		movs	r2, #224
 7020 0084 1A71     		strb	r2, [r3, #4]
1720:.\AdvantageImpl.c ****             puartdisp->_messagetx[index++] = 0xE0;//Complete Pump Configuration Request (sf3)
ARM GAS  C:\Users\Lenovo\AppData\Local\Temp\cccA9qMw.s 			page 155


 7021              		.loc 1 1720 0
 7022 0086 FB7C     		ldrb	r3, [r7, #19]	@ zero_extendqisi2
 7023 0088 5A1C     		adds	r2, r3, #1
 7024 008a FA74     		strb	r2, [r7, #19]
 7025 008c 1A46     		mov	r2, r3
 7026 008e FB68     		ldr	r3, [r7, #12]
 7027 0090 1344     		add	r3, r3, r2
 7028 0092 E022     		movs	r2, #224
 7029 0094 1A71     		strb	r2, [r3, #4]
1721:.\AdvantageImpl.c ****             puartdisp->_messagetx[index++] = 0xFB;
 7030              		.loc 1 1721 0
 7031 0096 FB7C     		ldrb	r3, [r7, #19]	@ zero_extendqisi2
 7032 0098 5A1C     		adds	r2, r3, #1
 7033 009a FA74     		strb	r2, [r7, #19]
 7034 009c 1A46     		mov	r2, r3
 7035 009e FB68     		ldr	r3, [r7, #12]
 7036 00a0 1344     		add	r3, r3, r2
 7037 00a2 FB22     		movs	r2, #251
 7038 00a4 1A71     		strb	r2, [r3, #4]
1722:.\AdvantageImpl.c ****             puartdisp->_messagetx[index++] = GetLRC(puartdisp->_messagetx);
 7039              		.loc 1 1722 0
 7040 00a6 FB7C     		ldrb	r3, [r7, #19]	@ zero_extendqisi2
 7041 00a8 5A1C     		adds	r2, r3, #1
 7042 00aa FA74     		strb	r2, [r7, #19]
 7043 00ac 1C46     		mov	r4, r3
 7044 00ae FB68     		ldr	r3, [r7, #12]
 7045 00b0 0433     		adds	r3, r3, #4
 7046 00b2 1846     		mov	r0, r3
 7047 00b4 FFF7FEFF 		bl	GetLRC
 7048 00b8 0346     		mov	r3, r0
 7049 00ba 1A46     		mov	r2, r3
 7050 00bc FB68     		ldr	r3, [r7, #12]
 7051 00be 2344     		add	r3, r3, r4
 7052 00c0 1A71     		strb	r2, [r3, #4]
1723:.\AdvantageImpl.c ****             puartdisp->_messagetx[index++] = EOM;
 7053              		.loc 1 1723 0
 7054 00c2 FB7C     		ldrb	r3, [r7, #19]	@ zero_extendqisi2
 7055 00c4 5A1C     		adds	r2, r3, #1
 7056 00c6 FA74     		strb	r2, [r7, #19]
 7057 00c8 1A46     		mov	r2, r3
 7058 00ca FB68     		ldr	r3, [r7, #12]
 7059 00cc 1344     		add	r3, r3, r2
 7060 00ce F022     		movs	r2, #240
 7061 00d0 1A71     		strb	r2, [r3, #4]
1724:.\AdvantageImpl.c **** ///////////////////////////////////////////////////////////////////////////////////////////////////
1725:.\AdvantageImpl.c ****             
1726:.\AdvantageImpl.c ****             puartdisp->_messagelength = index;
 7062              		.loc 1 1726 0
 7063 00d2 FB7C     		ldrb	r3, [r7, #19]	@ zero_extendqisi2
 7064 00d4 9AB2     		uxth	r2, r3
 7065 00d6 FB68     		ldr	r3, [r7, #12]
 7066 00d8 5A80     		strh	r2, [r3, #2]	@ movhi
1727:.\AdvantageImpl.c ****             puartdisp->_messagestate = PENDING;
 7067              		.loc 1 1727 0
 7068 00da FB68     		ldr	r3, [r7, #12]
 7069 00dc C222     		movs	r2, #194
 7070 00de 1A70     		strb	r2, [r3]
ARM GAS  C:\Users\Lenovo\AppData\Local\Temp\cccA9qMw.s 			page 156


 7071              	.L260:
 7072              	.LBE54:
1728:.\AdvantageImpl.c ****         }
1729:.\AdvantageImpl.c ****     }
1730:.\AdvantageImpl.c **** }
 7073              		.loc 1 1730 0
 7074 00e0 1C37     		adds	r7, r7, #28
 7075              		.cfi_def_cfa_offset 12
 7076 00e2 BD46     		mov	sp, r7
 7077              		.cfi_def_cfa_register 13
 7078              		@ sp needed
 7079 00e4 90BD     		pop	{r4, r7, pc}
 7080              		.cfi_endproc
 7081              	.LFE90:
 7082              		.size	PumpCompleteConfiguration, .-PumpCompleteConfiguration
 7083 00e6 00BF     		.section	.text.AcquirePumpCompleteConfiguration,"ax",%progbits
 7084              		.align	2
 7085              		.global	AcquirePumpCompleteConfiguration
 7086              		.thumb
 7087              		.thumb_func
 7088              		.type	AcquirePumpCompleteConfiguration, %function
 7089              	AcquirePumpCompleteConfiguration:
 7090              	.LFB91:
1731:.\AdvantageImpl.c **** 
1732:.\AdvantageImpl.c **** //@Created By: HIJH
1733:.\AdvantageImpl.c **** //@Date: Septembre de 2016
1734:.\AdvantageImpl.c **** //Receives the complete pump configuration information
1735:.\AdvantageImpl.c **** void AcquirePumpCompleteConfiguration(void *pparam)
1736:.\AdvantageImpl.c **** {
 7091              		.loc 1 1736 0
 7092              		.cfi_startproc
 7093              		@ args = 0, pretend = 0, frame = 32
 7094              		@ frame_needed = 1, uses_anonymous_args = 0
 7095 0000 90B5     		push	{r4, r7, lr}
 7096              		.cfi_def_cfa_offset 12
 7097              		.cfi_offset 4, -12
 7098              		.cfi_offset 7, -8
 7099              		.cfi_offset 14, -4
 7100 0002 89B0     		sub	sp, sp, #36
 7101              		.cfi_def_cfa_offset 48
 7102 0004 00AF     		add	r7, sp, #0
 7103              		.cfi_def_cfa_register 7
 7104 0006 7860     		str	r0, [r7, #4]
1737:.\AdvantageImpl.c ****     PPUMPTRANSACTIONJOBCONTEXTPTR pjob = (PPUMPTRANSACTIONJOBCONTEXTPTR)pparam;
 7105              		.loc 1 1737 0
 7106 0008 7B68     		ldr	r3, [r7, #4]
 7107 000a BB61     		str	r3, [r7, #24]
1738:.\AdvantageImpl.c ****     if(pjob)    
 7108              		.loc 1 1738 0
 7109 000c BB69     		ldr	r3, [r7, #24]
 7110 000e 002B     		cmp	r3, #0
 7111 0010 00F01A82 		beq	.L262
 7112              	.LBB55:
1739:.\AdvantageImpl.c ****     {
1740:.\AdvantageImpl.c ****         uint8 index = 0;
 7113              		.loc 1 1740 0
 7114 0014 0023     		movs	r3, #0
ARM GAS  C:\Users\Lenovo\AppData\Local\Temp\cccA9qMw.s 			page 157


 7115 0016 FB75     		strb	r3, [r7, #23]
1741:.\AdvantageImpl.c ****         //NOT USED!! JUST FOR DEBUGGING PURPOSES!
1742:.\AdvantageImpl.c ****         //The "index" variable has been kept in some lines of code just for reference.
1743:.\AdvantageImpl.c ****         uint8 remblocks = (TranslateSpecialFuncionDigit(pjob->_ppump->_rxbuffer[7 + 45*index]) << 0
 7116              		.loc 1 1743 0
 7117 0018 BB69     		ldr	r3, [r7, #24]
 7118 001a D969     		ldr	r1, [r3, #28]
 7119 001c FA7D     		ldrb	r2, [r7, #23]	@ zero_extendqisi2
 7120 001e 1346     		mov	r3, r2
 7121 0020 5B00     		lsls	r3, r3, #1
 7122 0022 1344     		add	r3, r3, r2
 7123 0024 1A01     		lsls	r2, r3, #4
 7124 0026 D31A     		subs	r3, r2, r3
 7125 0028 0733     		adds	r3, r3, #7
 7126 002a 0B44     		add	r3, r3, r1
 7127 002c 93F8A031 		ldrb	r3, [r3, #416]	@ zero_extendqisi2
 7128 0030 1846     		mov	r0, r3
 7129 0032 FFF7FEFF 		bl	TranslateSpecialFuncionDigit
 7130 0036 0346     		mov	r3, r0
 7131 0038 1B01     		lsls	r3, r3, #4
 7132 003a DCB2     		uxtb	r4, r3
 7133 003c BB69     		ldr	r3, [r7, #24]
 7134 003e D969     		ldr	r1, [r3, #28]
 7135 0040 FA7D     		ldrb	r2, [r7, #23]	@ zero_extendqisi2
 7136 0042 1346     		mov	r3, r2
 7137 0044 5B00     		lsls	r3, r3, #1
 7138 0046 1344     		add	r3, r3, r2
 7139 0048 1A01     		lsls	r2, r3, #4
 7140 004a D31A     		subs	r3, r2, r3
 7141 004c 0833     		adds	r3, r3, #8
 7142 004e 0B44     		add	r3, r3, r1
 7143 0050 93F8A031 		ldrb	r3, [r3, #416]	@ zero_extendqisi2
 7144 0054 1846     		mov	r0, r3
 7145 0056 FFF7FEFF 		bl	TranslateSpecialFuncionDigit
 7146 005a 0346     		mov	r3, r0
 7147 005c DBB2     		uxtb	r3, r3
 7148 005e 2246     		mov	r2, r4
 7149 0060 1343     		orrs	r3, r3, r2
 7150 0062 DBB2     		uxtb	r3, r3
 7151 0064 BB75     		strb	r3, [r7, #22]
1744:.\AdvantageImpl.c ****         //HERE WE ACQUIRE THE MISCELLANEOUS PUMP CONFIGURATION INFORMATION AND STORE IT INTO
1745:.\AdvantageImpl.c ****         //THE PERSISTENT FILE SYSTEM (EEPROM)        
1746:.\AdvantageImpl.c ****         if(pjob->_ppump->_rxbuffer[0x00] == 0xBA)
 7152              		.loc 1 1746 0
 7153 0066 BB69     		ldr	r3, [r7, #24]
 7154 0068 DB69     		ldr	r3, [r3, #28]
 7155 006a 93F8A031 		ldrb	r3, [r3, #416]	@ zero_extendqisi2
 7156 006e BA2B     		cmp	r3, #186
 7157 0070 40F0EA81 		bne	.L262
 7158              	.LBB56:
1747:.\AdvantageImpl.c ****         {
1748:.\AdvantageImpl.c ****             ClearEepromBuffer();
 7159              		.loc 1 1748 0
 7160 0074 FFF7FEFF 		bl	ClearEepromBuffer
1749:.\AdvantageImpl.c ****             bool targetmemoryareafound = false;
 7161              		.loc 1 1749 0
 7162 0078 0023     		movs	r3, #0
ARM GAS  C:\Users\Lenovo\AppData\Local\Temp\cccA9qMw.s 			page 158


 7163 007a FB77     		strb	r3, [r7, #31]
1750:.\AdvantageImpl.c ****             uint16 eeprompumpconfigmemorypageid = 0;
 7164              		.loc 1 1750 0
 7165 007c 0023     		movs	r3, #0
 7166 007e BB83     		strh	r3, [r7, #28]	@ movhi
1751:.\AdvantageImpl.c ****             //WE ALWAYS READ THE PAGE FROM THE EEPROM BEFORE SINCE AFTER MODIFYING ANY FIELD IT MUS
1752:.\AdvantageImpl.c ****             eeprompumpconfigmemorypageid = (uint16)EEPROM_DISPENSER_PUMP1_LAYOUT_PAGE;
 7167              		.loc 1 1752 0
 7168 0080 4FF40073 		mov	r3, #512
 7169 0084 BB83     		strh	r3, [r7, #28]	@ movhi
1753:.\AdvantageImpl.c ****             LoadEepromPage(eeprompumpconfigmemorypageid);
 7170              		.loc 1 1753 0
 7171 0086 BB8B     		ldrh	r3, [r7, #28]
 7172 0088 1846     		mov	r0, r3
 7173 008a FFF7FEFF 		bl	LoadEepromPage
1754:.\AdvantageImpl.c ****             if(TranslateSpecialFuncionDigit(pjob->_ppump->_rxbuffer[0x03]) != (GetEepromBuffer()[0x
 7174              		.loc 1 1754 0
 7175 008e BB69     		ldr	r3, [r7, #24]
 7176 0090 DB69     		ldr	r3, [r3, #28]
 7177 0092 93F8A331 		ldrb	r3, [r3, #419]	@ zero_extendqisi2
 7178 0096 1846     		mov	r0, r3
 7179 0098 FFF7FEFF 		bl	TranslateSpecialFuncionDigit
 7180 009c 0346     		mov	r3, r0
 7181 009e 1C46     		mov	r4, r3
 7182 00a0 FFF7FEFF 		bl	GetEepromBuffer
 7183 00a4 0346     		mov	r3, r0
 7184 00a6 1B78     		ldrb	r3, [r3]	@ zero_extendqisi2
 7185 00a8 03F00F03 		and	r3, r3, #15
 7186 00ac 9C42     		cmp	r4, r3
 7187 00ae 50D0     		beq	.L264
1755:.\AdvantageImpl.c ****             {
1756:.\AdvantageImpl.c ****                 eeprompumpconfigmemorypageid = (uint16)EEPROM_DISPENSER_PUMP2_LAYOUT_PAGE;
 7188              		.loc 1 1756 0
 7189 00b0 4FF41073 		mov	r3, #576
 7190 00b4 BB83     		strh	r3, [r7, #28]	@ movhi
1757:.\AdvantageImpl.c ****                 LoadEepromPage(eeprompumpconfigmemorypageid);
 7191              		.loc 1 1757 0
 7192 00b6 BB8B     		ldrh	r3, [r7, #28]
 7193 00b8 1846     		mov	r0, r3
 7194 00ba FFF7FEFF 		bl	LoadEepromPage
1758:.\AdvantageImpl.c ****                 if(TranslateSpecialFuncionDigit(pjob->_ppump->_rxbuffer[0x03]) != (GetEepromBuffer(
 7195              		.loc 1 1758 0
 7196 00be BB69     		ldr	r3, [r7, #24]
 7197 00c0 DB69     		ldr	r3, [r3, #28]
 7198 00c2 93F8A331 		ldrb	r3, [r3, #419]	@ zero_extendqisi2
 7199 00c6 1846     		mov	r0, r3
 7200 00c8 FFF7FEFF 		bl	TranslateSpecialFuncionDigit
 7201 00cc 0346     		mov	r3, r0
 7202 00ce 1C46     		mov	r4, r3
 7203 00d0 FFF7FEFF 		bl	GetEepromBuffer
 7204 00d4 0346     		mov	r3, r0
 7205 00d6 1B78     		ldrb	r3, [r3]	@ zero_extendqisi2
 7206 00d8 03F00F03 		and	r3, r3, #15
 7207 00dc 9C42     		cmp	r4, r3
 7208 00de 35D0     		beq	.L265
1759:.\AdvantageImpl.c ****                 {
1760:.\AdvantageImpl.c ****                     eeprompumpconfigmemorypageid = (uint16)EEPROM_DISPENSER_PUMP3_LAYOUT_PAGE;
ARM GAS  C:\Users\Lenovo\AppData\Local\Temp\cccA9qMw.s 			page 159


 7209              		.loc 1 1760 0
 7210 00e0 4FF42073 		mov	r3, #640
 7211 00e4 BB83     		strh	r3, [r7, #28]	@ movhi
1761:.\AdvantageImpl.c ****                     LoadEepromPage(eeprompumpconfigmemorypageid);
 7212              		.loc 1 1761 0
 7213 00e6 BB8B     		ldrh	r3, [r7, #28]
 7214 00e8 1846     		mov	r0, r3
 7215 00ea FFF7FEFF 		bl	LoadEepromPage
1762:.\AdvantageImpl.c ****                     if(TranslateSpecialFuncionDigit(pjob->_ppump->_rxbuffer[0x03]) != (GetEepromBuf
 7216              		.loc 1 1762 0
 7217 00ee BB69     		ldr	r3, [r7, #24]
 7218 00f0 DB69     		ldr	r3, [r3, #28]
 7219 00f2 93F8A331 		ldrb	r3, [r3, #419]	@ zero_extendqisi2
 7220 00f6 1846     		mov	r0, r3
 7221 00f8 FFF7FEFF 		bl	TranslateSpecialFuncionDigit
 7222 00fc 0346     		mov	r3, r0
 7223 00fe 1C46     		mov	r4, r3
 7224 0100 FFF7FEFF 		bl	GetEepromBuffer
 7225 0104 0346     		mov	r3, r0
 7226 0106 1B78     		ldrb	r3, [r3]	@ zero_extendqisi2
 7227 0108 03F00F03 		and	r3, r3, #15
 7228 010c 9C42     		cmp	r4, r3
 7229 010e 1AD0     		beq	.L266
1763:.\AdvantageImpl.c ****                     {
1764:.\AdvantageImpl.c ****                         eeprompumpconfigmemorypageid = (uint16)EEPROM_DISPENSER_PUMP4_LAYOUT_PAGE;
 7230              		.loc 1 1764 0
 7231 0110 4FF43073 		mov	r3, #704
 7232 0114 BB83     		strh	r3, [r7, #28]	@ movhi
1765:.\AdvantageImpl.c ****                         LoadEepromPage(eeprompumpconfigmemorypageid);
 7233              		.loc 1 1765 0
 7234 0116 BB8B     		ldrh	r3, [r7, #28]
 7235 0118 1846     		mov	r0, r3
 7236 011a FFF7FEFF 		bl	LoadEepromPage
1766:.\AdvantageImpl.c ****                         if(TranslateSpecialFuncionDigit(pjob->_ppump->_rxbuffer[0x03]) == (GetEepro
 7237              		.loc 1 1766 0
 7238 011e BB69     		ldr	r3, [r7, #24]
 7239 0120 DB69     		ldr	r3, [r3, #28]
 7240 0122 93F8A331 		ldrb	r3, [r3, #419]	@ zero_extendqisi2
 7241 0126 1846     		mov	r0, r3
 7242 0128 FFF7FEFF 		bl	TranslateSpecialFuncionDigit
 7243 012c 0346     		mov	r3, r0
 7244 012e 1C46     		mov	r4, r3
 7245 0130 FFF7FEFF 		bl	GetEepromBuffer
 7246 0134 0346     		mov	r3, r0
 7247 0136 1B78     		ldrb	r3, [r3]	@ zero_extendqisi2
 7248 0138 03F00F03 		and	r3, r3, #15
 7249 013c 9C42     		cmp	r4, r3
 7250 013e 0AD1     		bne	.L270
1767:.\AdvantageImpl.c ****                             targetmemoryareafound = true;
 7251              		.loc 1 1767 0
 7252 0140 0123     		movs	r3, #1
 7253 0142 FB77     		strb	r3, [r7, #31]
 7254 0144 07E0     		b	.L270
 7255              	.L266:
1768:.\AdvantageImpl.c ****                             
1769:.\AdvantageImpl.c ****                     }else
1770:.\AdvantageImpl.c ****                         targetmemoryareafound = true;
ARM GAS  C:\Users\Lenovo\AppData\Local\Temp\cccA9qMw.s 			page 160


 7256              		.loc 1 1770 0
 7257 0146 0123     		movs	r3, #1
 7258 0148 FB77     		strb	r3, [r7, #31]
 7259 014a 04E0     		b	.L270
 7260              	.L265:
1771:.\AdvantageImpl.c ****                 }else
1772:.\AdvantageImpl.c ****                     targetmemoryareafound = true;
 7261              		.loc 1 1772 0
 7262 014c 0123     		movs	r3, #1
 7263 014e FB77     		strb	r3, [r7, #31]
 7264 0150 01E0     		b	.L270
 7265              	.L264:
1773:.\AdvantageImpl.c ****             }else
1774:.\AdvantageImpl.c ****                 targetmemoryareafound = true;
 7266              		.loc 1 1774 0
 7267 0152 0123     		movs	r3, #1
 7268 0154 FB77     		strb	r3, [r7, #31]
 7269              	.L270:
1775:.\AdvantageImpl.c ****             
1776:.\AdvantageImpl.c ****             ///////////////////////////////////////////////////////////////////////////////////////
1777:.\AdvantageImpl.c ****             //JUST RETURN SINCE IT MEANS THAT THE PUMP/POSITION IDENTIFIERS HAVE NOT YET BEEN DEFIN
1778:.\AdvantageImpl.c ****             if(!targetmemoryareafound)
 7270              		.loc 1 1778 0
 7271 0156 FB7F     		ldrb	r3, [r7, #31]
 7272 0158 83F00103 		eor	r3, r3, #1
 7273 015c DBB2     		uxtb	r3, r3
 7274 015e 002B     		cmp	r3, #0
 7275 0160 00D0     		beq	.L271
1779:.\AdvantageImpl.c ****                 return;
 7276              		.loc 1 1779 0
 7277 0162 71E1     		b	.L262
 7278              	.L271:
1780:.\AdvantageImpl.c ****                 
1781:.\AdvantageImpl.c ****             //THE FIRST 16 BYTES ARE RESERVED FOR LOCAL PUMP CONFIGURATION INFORMATION
1782:.\AdvantageImpl.c ****             LPRAWPTR ptreeprom = &(GetEepromBuffer()[0x10]);
 7279              		.loc 1 1782 0
 7280 0164 FFF7FEFF 		bl	GetEepromBuffer
 7281 0168 0346     		mov	r3, r0
 7282 016a 1033     		adds	r3, r3, #16
 7283 016c 3B61     		str	r3, [r7, #16]
1783:.\AdvantageImpl.c ****             
1784:.\AdvantageImpl.c ****             uint8 blkindex = 0;
 7284              		.loc 1 1784 0
 7285 016e 0023     		movs	r3, #0
 7286 0170 FB73     		strb	r3, [r7, #15]
1785:.\AdvantageImpl.c ****             uint8 msglength = (TranslateSpecialFuncionDigit(pjob->_ppump->_rxbuffer[0x01]) << 0x04)
 7287              		.loc 1 1785 0
 7288 0172 BB69     		ldr	r3, [r7, #24]
 7289 0174 DB69     		ldr	r3, [r3, #28]
 7290 0176 93F8A131 		ldrb	r3, [r3, #417]	@ zero_extendqisi2
 7291 017a 1846     		mov	r0, r3
 7292 017c FFF7FEFF 		bl	TranslateSpecialFuncionDigit
 7293 0180 0346     		mov	r3, r0
 7294 0182 1B01     		lsls	r3, r3, #4
 7295 0184 DCB2     		uxtb	r4, r3
 7296 0186 BB69     		ldr	r3, [r7, #24]
 7297 0188 DB69     		ldr	r3, [r3, #28]
ARM GAS  C:\Users\Lenovo\AppData\Local\Temp\cccA9qMw.s 			page 161


 7298 018a 93F8A231 		ldrb	r3, [r3, #418]	@ zero_extendqisi2
 7299 018e 1846     		mov	r0, r3
 7300 0190 FFF7FEFF 		bl	TranslateSpecialFuncionDigit
 7301 0194 0346     		mov	r3, r0
 7302 0196 DBB2     		uxtb	r3, r3
 7303 0198 2246     		mov	r2, r4
 7304 019a 1343     		orrs	r3, r3, r2
 7305 019c DBB2     		uxtb	r3, r3
 7306 019e BB73     		strb	r3, [r7, #14]
1786:.\AdvantageImpl.c ****             
1787:.\AdvantageImpl.c ****             //0
1788:.\AdvantageImpl.c ****             //Pump Type / Unit Type Code
1789:.\AdvantageImpl.c ****             *ptreeprom = ((TranslateSpecialFuncionDigit(pjob->_ppump->_rxbuffer[0x09 + 2*blkindex])
 7307              		.loc 1 1789 0
 7308 01a0 BB69     		ldr	r3, [r7, #24]
 7309 01a2 DA69     		ldr	r2, [r3, #28]
 7310 01a4 FB7B     		ldrb	r3, [r7, #15]	@ zero_extendqisi2
 7311 01a6 5B00     		lsls	r3, r3, #1
 7312 01a8 0933     		adds	r3, r3, #9
 7313 01aa 1344     		add	r3, r3, r2
 7314 01ac 93F8A031 		ldrb	r3, [r3, #416]	@ zero_extendqisi2
 7315 01b0 1846     		mov	r0, r3
 7316 01b2 FFF7FEFF 		bl	TranslateSpecialFuncionDigit
 7317 01b6 0346     		mov	r3, r0
 7318 01b8 1B01     		lsls	r3, r3, #4
 7319 01ba DCB2     		uxtb	r4, r3
1790:.\AdvantageImpl.c ****                             (TranslateSpecialFuncionDigit(pjob->_ppump->_rxbuffer[0x09 + (2*blkinde
 7320              		.loc 1 1790 0
 7321 01bc BB69     		ldr	r3, [r7, #24]
 7322 01be DA69     		ldr	r2, [r3, #28]
 7323 01c0 FB7B     		ldrb	r3, [r7, #15]	@ zero_extendqisi2
 7324 01c2 0533     		adds	r3, r3, #5
 7325 01c4 5B00     		lsls	r3, r3, #1
 7326 01c6 1344     		add	r3, r3, r2
 7327 01c8 93F8A031 		ldrb	r3, [r3, #416]	@ zero_extendqisi2
 7328 01cc 1846     		mov	r0, r3
 7329 01ce FFF7FEFF 		bl	TranslateSpecialFuncionDigit
 7330 01d2 0346     		mov	r3, r0
1789:.\AdvantageImpl.c ****                             (TranslateSpecialFuncionDigit(pjob->_ppump->_rxbuffer[0x09 + (2*blkinde
 7331              		.loc 1 1789 0
 7332 01d4 DBB2     		uxtb	r3, r3
 7333 01d6 03F00F03 		and	r3, r3, #15
 7334 01da DBB2     		uxtb	r3, r3
 7335 01dc 2246     		mov	r2, r4
 7336 01de 1343     		orrs	r3, r3, r2
 7337 01e0 DBB2     		uxtb	r3, r3
 7338 01e2 DAB2     		uxtb	r2, r3
 7339 01e4 3B69     		ldr	r3, [r7, #16]
 7340 01e6 1A70     		strb	r2, [r3]
1791:.\AdvantageImpl.c **** 
1792:.\AdvantageImpl.c ****             //1
1793:.\AdvantageImpl.c ****             ptreeprom++;
 7341              		.loc 1 1793 0
 7342 01e8 3B69     		ldr	r3, [r7, #16]
 7343 01ea 0133     		adds	r3, r3, #1
 7344 01ec 3B61     		str	r3, [r7, #16]
1794:.\AdvantageImpl.c ****             blkindex++;
ARM GAS  C:\Users\Lenovo\AppData\Local\Temp\cccA9qMw.s 			page 162


 7345              		.loc 1 1794 0
 7346 01ee FB7B     		ldrb	r3, [r7, #15]	@ zero_extendqisi2
 7347 01f0 0133     		adds	r3, r3, #1
 7348 01f2 FB73     		strb	r3, [r7, #15]
1795:.\AdvantageImpl.c ****             //Conversion Factor Code
1796:.\AdvantageImpl.c ****             *ptreeprom = ((TranslateSpecialFuncionDigit(pjob->_ppump->_rxbuffer[0x09 + 2*blkindex])
 7349              		.loc 1 1796 0
 7350 01f4 BB69     		ldr	r3, [r7, #24]
 7351 01f6 DA69     		ldr	r2, [r3, #28]
 7352 01f8 FB7B     		ldrb	r3, [r7, #15]	@ zero_extendqisi2
 7353 01fa 5B00     		lsls	r3, r3, #1
 7354 01fc 0933     		adds	r3, r3, #9
 7355 01fe 1344     		add	r3, r3, r2
 7356 0200 93F8A031 		ldrb	r3, [r3, #416]	@ zero_extendqisi2
 7357 0204 1846     		mov	r0, r3
 7358 0206 FFF7FEFF 		bl	TranslateSpecialFuncionDigit
 7359 020a 0346     		mov	r3, r0
 7360 020c 1B01     		lsls	r3, r3, #4
 7361 020e DCB2     		uxtb	r4, r3
1797:.\AdvantageImpl.c ****                             (TranslateSpecialFuncionDigit(pjob->_ppump->_rxbuffer[0x09 + (2*blkinde
 7362              		.loc 1 1797 0
 7363 0210 BB69     		ldr	r3, [r7, #24]
 7364 0212 DA69     		ldr	r2, [r3, #28]
 7365 0214 FB7B     		ldrb	r3, [r7, #15]	@ zero_extendqisi2
 7366 0216 0533     		adds	r3, r3, #5
 7367 0218 5B00     		lsls	r3, r3, #1
 7368 021a 1344     		add	r3, r3, r2
 7369 021c 93F8A031 		ldrb	r3, [r3, #416]	@ zero_extendqisi2
 7370 0220 1846     		mov	r0, r3
 7371 0222 FFF7FEFF 		bl	TranslateSpecialFuncionDigit
 7372 0226 0346     		mov	r3, r0
1796:.\AdvantageImpl.c ****                             (TranslateSpecialFuncionDigit(pjob->_ppump->_rxbuffer[0x09 + (2*blkinde
 7373              		.loc 1 1796 0
 7374 0228 DBB2     		uxtb	r3, r3
 7375 022a 03F00F03 		and	r3, r3, #15
 7376 022e DBB2     		uxtb	r3, r3
 7377 0230 2246     		mov	r2, r4
 7378 0232 1343     		orrs	r3, r3, r2
 7379 0234 DBB2     		uxtb	r3, r3
 7380 0236 DAB2     		uxtb	r2, r3
 7381 0238 3B69     		ldr	r3, [r7, #16]
 7382 023a 1A70     		strb	r2, [r3]
1798:.\AdvantageImpl.c **** 
1799:.\AdvantageImpl.c ****             //2
1800:.\AdvantageImpl.c ****             ptreeprom++;
 7383              		.loc 1 1800 0
 7384 023c 3B69     		ldr	r3, [r7, #16]
 7385 023e 0133     		adds	r3, r3, #1
 7386 0240 3B61     		str	r3, [r7, #16]
1801:.\AdvantageImpl.c ****             blkindex++;
 7387              		.loc 1 1801 0
 7388 0242 FB7B     		ldrb	r3, [r7, #15]	@ zero_extendqisi2
 7389 0244 0133     		adds	r3, r3, #1
 7390 0246 FB73     		strb	r3, [r7, #15]
1802:.\AdvantageImpl.c ****             //Money Decimal Point Code
1803:.\AdvantageImpl.c ****             *ptreeprom = ((TranslateSpecialFuncionDigit(pjob->_ppump->_rxbuffer[0x09 + 2*blkindex])
 7391              		.loc 1 1803 0
ARM GAS  C:\Users\Lenovo\AppData\Local\Temp\cccA9qMw.s 			page 163


 7392 0248 BB69     		ldr	r3, [r7, #24]
 7393 024a DA69     		ldr	r2, [r3, #28]
 7394 024c FB7B     		ldrb	r3, [r7, #15]	@ zero_extendqisi2
 7395 024e 5B00     		lsls	r3, r3, #1
 7396 0250 0933     		adds	r3, r3, #9
 7397 0252 1344     		add	r3, r3, r2
 7398 0254 93F8A031 		ldrb	r3, [r3, #416]	@ zero_extendqisi2
 7399 0258 1846     		mov	r0, r3
 7400 025a FFF7FEFF 		bl	TranslateSpecialFuncionDigit
 7401 025e 0346     		mov	r3, r0
 7402 0260 1B01     		lsls	r3, r3, #4
 7403 0262 DCB2     		uxtb	r4, r3
1804:.\AdvantageImpl.c ****                             (TranslateSpecialFuncionDigit(pjob->_ppump->_rxbuffer[0x09 + (2*blkinde
 7404              		.loc 1 1804 0
 7405 0264 BB69     		ldr	r3, [r7, #24]
 7406 0266 DA69     		ldr	r2, [r3, #28]
 7407 0268 FB7B     		ldrb	r3, [r7, #15]	@ zero_extendqisi2
 7408 026a 0533     		adds	r3, r3, #5
 7409 026c 5B00     		lsls	r3, r3, #1
 7410 026e 1344     		add	r3, r3, r2
 7411 0270 93F8A031 		ldrb	r3, [r3, #416]	@ zero_extendqisi2
 7412 0274 1846     		mov	r0, r3
 7413 0276 FFF7FEFF 		bl	TranslateSpecialFuncionDigit
 7414 027a 0346     		mov	r3, r0
1803:.\AdvantageImpl.c ****                             (TranslateSpecialFuncionDigit(pjob->_ppump->_rxbuffer[0x09 + (2*blkinde
 7415              		.loc 1 1803 0
 7416 027c DBB2     		uxtb	r3, r3
 7417 027e 03F00F03 		and	r3, r3, #15
 7418 0282 DBB2     		uxtb	r3, r3
 7419 0284 2246     		mov	r2, r4
 7420 0286 1343     		orrs	r3, r3, r2
 7421 0288 DBB2     		uxtb	r3, r3
 7422 028a DAB2     		uxtb	r2, r3
 7423 028c 3B69     		ldr	r3, [r7, #16]
 7424 028e 1A70     		strb	r2, [r3]
1805:.\AdvantageImpl.c ****                             
1806:.\AdvantageImpl.c ****             //3
1807:.\AdvantageImpl.c ****             ptreeprom++;
 7425              		.loc 1 1807 0
 7426 0290 3B69     		ldr	r3, [r7, #16]
 7427 0292 0133     		adds	r3, r3, #1
 7428 0294 3B61     		str	r3, [r7, #16]
1808:.\AdvantageImpl.c ****             blkindex++;
 7429              		.loc 1 1808 0
 7430 0296 FB7B     		ldrb	r3, [r7, #15]	@ zero_extendqisi2
 7431 0298 0133     		adds	r3, r3, #1
 7432 029a FB73     		strb	r3, [r7, #15]
1809:.\AdvantageImpl.c ****             //Volume Decimal Point Code
1810:.\AdvantageImpl.c ****             *ptreeprom = ((TranslateSpecialFuncionDigit(pjob->_ppump->_rxbuffer[0x09 + 2*blkindex])
 7433              		.loc 1 1810 0
 7434 029c BB69     		ldr	r3, [r7, #24]
 7435 029e DA69     		ldr	r2, [r3, #28]
 7436 02a0 FB7B     		ldrb	r3, [r7, #15]	@ zero_extendqisi2
 7437 02a2 5B00     		lsls	r3, r3, #1
 7438 02a4 0933     		adds	r3, r3, #9
 7439 02a6 1344     		add	r3, r3, r2
 7440 02a8 93F8A031 		ldrb	r3, [r3, #416]	@ zero_extendqisi2
ARM GAS  C:\Users\Lenovo\AppData\Local\Temp\cccA9qMw.s 			page 164


 7441 02ac 1846     		mov	r0, r3
 7442 02ae FFF7FEFF 		bl	TranslateSpecialFuncionDigit
 7443 02b2 0346     		mov	r3, r0
 7444 02b4 1B01     		lsls	r3, r3, #4
 7445 02b6 DCB2     		uxtb	r4, r3
1811:.\AdvantageImpl.c ****                             (TranslateSpecialFuncionDigit(pjob->_ppump->_rxbuffer[0x09 + (2*blkinde
 7446              		.loc 1 1811 0
 7447 02b8 BB69     		ldr	r3, [r7, #24]
 7448 02ba DA69     		ldr	r2, [r3, #28]
 7449 02bc FB7B     		ldrb	r3, [r7, #15]	@ zero_extendqisi2
 7450 02be 0533     		adds	r3, r3, #5
 7451 02c0 5B00     		lsls	r3, r3, #1
 7452 02c2 1344     		add	r3, r3, r2
 7453 02c4 93F8A031 		ldrb	r3, [r3, #416]	@ zero_extendqisi2
 7454 02c8 1846     		mov	r0, r3
 7455 02ca FFF7FEFF 		bl	TranslateSpecialFuncionDigit
 7456 02ce 0346     		mov	r3, r0
1810:.\AdvantageImpl.c ****                             (TranslateSpecialFuncionDigit(pjob->_ppump->_rxbuffer[0x09 + (2*blkinde
 7457              		.loc 1 1810 0
 7458 02d0 DBB2     		uxtb	r3, r3
 7459 02d2 03F00F03 		and	r3, r3, #15
 7460 02d6 DBB2     		uxtb	r3, r3
 7461 02d8 2246     		mov	r2, r4
 7462 02da 1343     		orrs	r3, r3, r2
 7463 02dc DBB2     		uxtb	r3, r3
 7464 02de DAB2     		uxtb	r2, r3
 7465 02e0 3B69     		ldr	r3, [r7, #16]
 7466 02e2 1A70     		strb	r2, [r3]
1812:.\AdvantageImpl.c ****             
1813:.\AdvantageImpl.c ****             //4
1814:.\AdvantageImpl.c ****             ptreeprom++;
 7467              		.loc 1 1814 0
 7468 02e4 3B69     		ldr	r3, [r7, #16]
 7469 02e6 0133     		adds	r3, r3, #1
 7470 02e8 3B61     		str	r3, [r7, #16]
1815:.\AdvantageImpl.c ****             blkindex++;
 7471              		.loc 1 1815 0
 7472 02ea FB7B     		ldrb	r3, [r7, #15]	@ zero_extendqisi2
 7473 02ec 0133     		adds	r3, r3, #1
 7474 02ee FB73     		strb	r3, [r7, #15]
1816:.\AdvantageImpl.c ****             //PPU Decimal Point Code
1817:.\AdvantageImpl.c ****             *ptreeprom = ((TranslateSpecialFuncionDigit(pjob->_ppump->_rxbuffer[0x09 + 2*blkindex])
 7475              		.loc 1 1817 0
 7476 02f0 BB69     		ldr	r3, [r7, #24]
 7477 02f2 DA69     		ldr	r2, [r3, #28]
 7478 02f4 FB7B     		ldrb	r3, [r7, #15]	@ zero_extendqisi2
 7479 02f6 5B00     		lsls	r3, r3, #1
 7480 02f8 0933     		adds	r3, r3, #9
 7481 02fa 1344     		add	r3, r3, r2
 7482 02fc 93F8A031 		ldrb	r3, [r3, #416]	@ zero_extendqisi2
 7483 0300 1846     		mov	r0, r3
 7484 0302 FFF7FEFF 		bl	TranslateSpecialFuncionDigit
 7485 0306 0346     		mov	r3, r0
 7486 0308 1B01     		lsls	r3, r3, #4
 7487 030a DCB2     		uxtb	r4, r3
1818:.\AdvantageImpl.c ****                             (TranslateSpecialFuncionDigit(pjob->_ppump->_rxbuffer[0x09 + (2*blkinde
 7488              		.loc 1 1818 0
ARM GAS  C:\Users\Lenovo\AppData\Local\Temp\cccA9qMw.s 			page 165


 7489 030c BB69     		ldr	r3, [r7, #24]
 7490 030e DA69     		ldr	r2, [r3, #28]
 7491 0310 FB7B     		ldrb	r3, [r7, #15]	@ zero_extendqisi2
 7492 0312 0533     		adds	r3, r3, #5
 7493 0314 5B00     		lsls	r3, r3, #1
 7494 0316 1344     		add	r3, r3, r2
 7495 0318 93F8A031 		ldrb	r3, [r3, #416]	@ zero_extendqisi2
 7496 031c 1846     		mov	r0, r3
 7497 031e FFF7FEFF 		bl	TranslateSpecialFuncionDigit
 7498 0322 0346     		mov	r3, r0
1817:.\AdvantageImpl.c ****                             (TranslateSpecialFuncionDigit(pjob->_ppump->_rxbuffer[0x09 + (2*blkinde
 7499              		.loc 1 1817 0
 7500 0324 DBB2     		uxtb	r3, r3
 7501 0326 03F00F03 		and	r3, r3, #15
 7502 032a DBB2     		uxtb	r3, r3
 7503 032c 2246     		mov	r2, r4
 7504 032e 1343     		orrs	r3, r3, r2
 7505 0330 DBB2     		uxtb	r3, r3
 7506 0332 DAB2     		uxtb	r2, r3
 7507 0334 3B69     		ldr	r3, [r7, #16]
 7508 0336 1A70     		strb	r2, [r3]
1819:.\AdvantageImpl.c **** 
1820:.\AdvantageImpl.c ****             //5
1821:.\AdvantageImpl.c ****             ptreeprom++;
 7509              		.loc 1 1821 0
 7510 0338 3B69     		ldr	r3, [r7, #16]
 7511 033a 0133     		adds	r3, r3, #1
 7512 033c 3B61     		str	r3, [r7, #16]
1822:.\AdvantageImpl.c ****             blkindex++;
 7513              		.loc 1 1822 0
 7514 033e FB7B     		ldrb	r3, [r7, #15]	@ zero_extendqisi2
 7515 0340 0133     		adds	r3, r3, #1
 7516 0342 FB73     		strb	r3, [r7, #15]
1823:.\AdvantageImpl.c ****             //5/6/7/8 Digit Money Mode
1824:.\AdvantageImpl.c ****             *ptreeprom = ((TranslateSpecialFuncionDigit(pjob->_ppump->_rxbuffer[0x09 + 2*blkindex])
 7517              		.loc 1 1824 0
 7518 0344 BB69     		ldr	r3, [r7, #24]
 7519 0346 DA69     		ldr	r2, [r3, #28]
 7520 0348 FB7B     		ldrb	r3, [r7, #15]	@ zero_extendqisi2
 7521 034a 5B00     		lsls	r3, r3, #1
 7522 034c 0933     		adds	r3, r3, #9
 7523 034e 1344     		add	r3, r3, r2
 7524 0350 93F8A031 		ldrb	r3, [r3, #416]	@ zero_extendqisi2
 7525 0354 1846     		mov	r0, r3
 7526 0356 FFF7FEFF 		bl	TranslateSpecialFuncionDigit
 7527 035a 0346     		mov	r3, r0
 7528 035c 1B01     		lsls	r3, r3, #4
 7529 035e DCB2     		uxtb	r4, r3
1825:.\AdvantageImpl.c ****                             (TranslateSpecialFuncionDigit(pjob->_ppump->_rxbuffer[0x09 + (2*blkinde
 7530              		.loc 1 1825 0
 7531 0360 BB69     		ldr	r3, [r7, #24]
 7532 0362 DA69     		ldr	r2, [r3, #28]
 7533 0364 FB7B     		ldrb	r3, [r7, #15]	@ zero_extendqisi2
 7534 0366 0533     		adds	r3, r3, #5
 7535 0368 5B00     		lsls	r3, r3, #1
 7536 036a 1344     		add	r3, r3, r2
 7537 036c 93F8A031 		ldrb	r3, [r3, #416]	@ zero_extendqisi2
ARM GAS  C:\Users\Lenovo\AppData\Local\Temp\cccA9qMw.s 			page 166


 7538 0370 1846     		mov	r0, r3
 7539 0372 FFF7FEFF 		bl	TranslateSpecialFuncionDigit
 7540 0376 0346     		mov	r3, r0
1824:.\AdvantageImpl.c ****                             (TranslateSpecialFuncionDigit(pjob->_ppump->_rxbuffer[0x09 + (2*blkinde
 7541              		.loc 1 1824 0
 7542 0378 DBB2     		uxtb	r3, r3
 7543 037a 03F00F03 		and	r3, r3, #15
 7544 037e DBB2     		uxtb	r3, r3
 7545 0380 2246     		mov	r2, r4
 7546 0382 1343     		orrs	r3, r3, r2
 7547 0384 DBB2     		uxtb	r3, r3
 7548 0386 DAB2     		uxtb	r2, r3
 7549 0388 3B69     		ldr	r3, [r7, #16]
 7550 038a 1A70     		strb	r2, [r3]
1826:.\AdvantageImpl.c **** 
1827:.\AdvantageImpl.c ****             //6
1828:.\AdvantageImpl.c ****             ptreeprom++;
 7551              		.loc 1 1828 0
 7552 038c 3B69     		ldr	r3, [r7, #16]
 7553 038e 0133     		adds	r3, r3, #1
 7554 0390 3B61     		str	r3, [r7, #16]
1829:.\AdvantageImpl.c ****             blkindex++;
 7555              		.loc 1 1829 0
 7556 0392 FB7B     		ldrb	r3, [r7, #15]	@ zero_extendqisi2
 7557 0394 0133     		adds	r3, r3, #1
 7558 0396 FB73     		strb	r3, [r7, #15]
1830:.\AdvantageImpl.c ****             //Auto On/Push to Start Mode
1831:.\AdvantageImpl.c ****             *ptreeprom = ((TranslateSpecialFuncionDigit(pjob->_ppump->_rxbuffer[0x09 + 2*blkindex])
 7559              		.loc 1 1831 0
 7560 0398 BB69     		ldr	r3, [r7, #24]
 7561 039a DA69     		ldr	r2, [r3, #28]
 7562 039c FB7B     		ldrb	r3, [r7, #15]	@ zero_extendqisi2
 7563 039e 5B00     		lsls	r3, r3, #1
 7564 03a0 0933     		adds	r3, r3, #9
 7565 03a2 1344     		add	r3, r3, r2
 7566 03a4 93F8A031 		ldrb	r3, [r3, #416]	@ zero_extendqisi2
 7567 03a8 1846     		mov	r0, r3
 7568 03aa FFF7FEFF 		bl	TranslateSpecialFuncionDigit
 7569 03ae 0346     		mov	r3, r0
 7570 03b0 1B01     		lsls	r3, r3, #4
 7571 03b2 DCB2     		uxtb	r4, r3
1832:.\AdvantageImpl.c ****                             (TranslateSpecialFuncionDigit(pjob->_ppump->_rxbuffer[0x09 + (2*blkinde
 7572              		.loc 1 1832 0
 7573 03b4 BB69     		ldr	r3, [r7, #24]
 7574 03b6 DA69     		ldr	r2, [r3, #28]
 7575 03b8 FB7B     		ldrb	r3, [r7, #15]	@ zero_extendqisi2
 7576 03ba 0533     		adds	r3, r3, #5
 7577 03bc 5B00     		lsls	r3, r3, #1
 7578 03be 1344     		add	r3, r3, r2
 7579 03c0 93F8A031 		ldrb	r3, [r3, #416]	@ zero_extendqisi2
 7580 03c4 1846     		mov	r0, r3
 7581 03c6 FFF7FEFF 		bl	TranslateSpecialFuncionDigit
 7582 03ca 0346     		mov	r3, r0
1831:.\AdvantageImpl.c ****                             (TranslateSpecialFuncionDigit(pjob->_ppump->_rxbuffer[0x09 + (2*blkinde
 7583              		.loc 1 1831 0
 7584 03cc DBB2     		uxtb	r3, r3
 7585 03ce 03F00F03 		and	r3, r3, #15
ARM GAS  C:\Users\Lenovo\AppData\Local\Temp\cccA9qMw.s 			page 167


 7586 03d2 DBB2     		uxtb	r3, r3
 7587 03d4 2246     		mov	r2, r4
 7588 03d6 1343     		orrs	r3, r3, r2
 7589 03d8 DBB2     		uxtb	r3, r3
 7590 03da DAB2     		uxtb	r2, r3
 7591 03dc 3B69     		ldr	r3, [r7, #16]
 7592 03de 1A70     		strb	r2, [r3]
1833:.\AdvantageImpl.c **** 
1834:.\AdvantageImpl.c **** 
1835:.\AdvantageImpl.c ****             //STORING BACK THE EEPROM PAGE
1836:.\AdvantageImpl.c ****             StoreEepromPage(eeprompumpconfigmemorypageid);
 7593              		.loc 1 1836 0
 7594 03e0 BB8B     		ldrh	r3, [r7, #28]
 7595 03e2 1846     		mov	r0, r3
 7596 03e4 FFF7FEFF 		bl	StoreEepromPage
1837:.\AdvantageImpl.c ****             AcquireDispenserLayoutInformation(&GetEepromBuffer()[0x10]);
 7597              		.loc 1 1837 0
 7598 03e8 FFF7FEFF 		bl	GetEepromBuffer
 7599 03ec 0346     		mov	r3, r0
 7600 03ee 1033     		adds	r3, r3, #16
 7601 03f0 1846     		mov	r0, r3
 7602 03f2 FFF7FEFF 		bl	AcquireDispenserLayoutInformation
1838:.\AdvantageImpl.c ****          
1839:.\AdvantageImpl.c ****             _g_dispenserlayoutinfo._inconfiguration = false;
 7603              		.loc 1 1839 0
 7604 03f6 164B     		ldr	r3, .L273
 7605 03f8 0022     		movs	r2, #0
 7606 03fa 1A70     		strb	r2, [r3]
1840:.\AdvantageImpl.c ****             _ALLOCATE_SINKMESSAGE_SLOT(psinkmsg);
 7607              		.loc 1 1840 0
 7608 03fc FFF7FEFF 		bl	AllocateMessageSlot
 7609 0400 B860     		str	r0, [r7, #8]
1841:.\AdvantageImpl.c ****             if(psinkmsg)
 7610              		.loc 1 1841 0
 7611 0402 BB68     		ldr	r3, [r7, #8]
 7612 0404 002B     		cmp	r3, #0
 7613 0406 0CD0     		beq	.L272
1842:.\AdvantageImpl.c ****             {
1843:.\AdvantageImpl.c ****                 psinkmsg->_messageid = DISPENSER_LOAD_EEPROM_SETTINGS;
 7614              		.loc 1 1843 0
 7615 0408 BB68     		ldr	r3, [r7, #8]
 7616 040a 0D22     		movs	r2, #13
 7617 040c 5A70     		strb	r2, [r3, #1]
1844:.\AdvantageImpl.c ****                 psinkmsg->_messagedelay = _SINK_TIMEOUT_1S_;
 7618              		.loc 1 1844 0
 7619 040e BB68     		ldr	r3, [r7, #8]
 7620 0410 4FF47A72 		mov	r2, #1000
 7621 0414 9A80     		strh	r2, [r3, #4]	@ movhi
1845:.\AdvantageImpl.c ****                 psinkmsg->_messagetype = FIRSTFOUND;
 7622              		.loc 1 1845 0
 7623 0416 BB68     		ldr	r3, [r7, #8]
 7624 0418 0322     		movs	r2, #3
 7625 041a 9A70     		strb	r2, [r3, #2]
1846:.\AdvantageImpl.c ****                 psinkmsg->_messagestate = SINK_BUSY;
 7626              		.loc 1 1846 0
 7627 041c BB68     		ldr	r3, [r7, #8]
 7628 041e 0322     		movs	r2, #3
ARM GAS  C:\Users\Lenovo\AppData\Local\Temp\cccA9qMw.s 			page 168


 7629 0420 DA70     		strb	r2, [r3, #3]
 7630              	.L272:
1847:.\AdvantageImpl.c ****             }
1848:.\AdvantageImpl.c ****             
1849:.\AdvantageImpl.c ****             _REALLOCATE_SINKMESSAGE_SLOT(psinkmsg);
 7631              		.loc 1 1849 0
 7632 0422 FFF7FEFF 		bl	AllocateMessageSlot
 7633 0426 B860     		str	r0, [r7, #8]
1850:.\AdvantageImpl.c ****             if(psinkmsg)
 7634              		.loc 1 1850 0
 7635 0428 BB68     		ldr	r3, [r7, #8]
 7636 042a 002B     		cmp	r3, #0
 7637 042c 0CD0     		beq	.L262
1851:.\AdvantageImpl.c ****             {
1852:.\AdvantageImpl.c ****                 psinkmsg->_messageid = DISPENSER_CONFIGURE_PRICES;
 7638              		.loc 1 1852 0
 7639 042e BB68     		ldr	r3, [r7, #8]
 7640 0430 1022     		movs	r2, #16
 7641 0432 5A70     		strb	r2, [r3, #1]
1853:.\AdvantageImpl.c ****                 psinkmsg->_messagedelay = _SINK_TIMEOUT_2S_;
 7642              		.loc 1 1853 0
 7643 0434 BB68     		ldr	r3, [r7, #8]
 7644 0436 4FF4FA62 		mov	r2, #2000
 7645 043a 9A80     		strh	r2, [r3, #4]	@ movhi
1854:.\AdvantageImpl.c ****                 psinkmsg->_messagetype = FIRSTFOUND;
 7646              		.loc 1 1854 0
 7647 043c BB68     		ldr	r3, [r7, #8]
 7648 043e 0322     		movs	r2, #3
 7649 0440 9A70     		strb	r2, [r3, #2]
1855:.\AdvantageImpl.c ****                 psinkmsg->_messagestate = SINK_BUSY;
 7650              		.loc 1 1855 0
 7651 0442 BB68     		ldr	r3, [r7, #8]
 7652 0444 0322     		movs	r2, #3
 7653 0446 DA70     		strb	r2, [r3, #3]
 7654              	.L262:
 7655              	.LBE56:
 7656              	.LBE55:
1856:.\AdvantageImpl.c ****             }
1857:.\AdvantageImpl.c ****         }
1858:.\AdvantageImpl.c ****     }
1859:.\AdvantageImpl.c **** }
 7657              		.loc 1 1859 0
 7658 0448 2437     		adds	r7, r7, #36
 7659              		.cfi_def_cfa_offset 12
 7660 044a BD46     		mov	sp, r7
 7661              		.cfi_def_cfa_register 13
 7662              		@ sp needed
 7663 044c 90BD     		pop	{r4, r7, pc}
 7664              	.L274:
 7665 044e 00BF     		.align	2
 7666              	.L273:
 7667 0450 00000000 		.word	_g_dispenserlayoutinfo
 7668              		.cfi_endproc
 7669              	.LFE91:
 7670              		.size	AcquirePumpCompleteConfiguration, .-AcquirePumpCompleteConfiguration
 7671              		.section	.text.AcquireDispenserLayoutInformation,"ax",%progbits
 7672              		.align	2
ARM GAS  C:\Users\Lenovo\AppData\Local\Temp\cccA9qMw.s 			page 169


 7673              		.global	AcquireDispenserLayoutInformation
 7674              		.thumb
 7675              		.thumb_func
 7676              		.type	AcquireDispenserLayoutInformation, %function
 7677              	AcquireDispenserLayoutInformation:
 7678              	.LFB92:
1860:.\AdvantageImpl.c **** 
1861:.\AdvantageImpl.c **** //@Created By: HIJH
1862:.\AdvantageImpl.c **** //@Septembre de 2016
1863:.\AdvantageImpl.c **** void AcquireDispenserLayoutInformation(LPVOID pparam)
1864:.\AdvantageImpl.c **** {
 7679              		.loc 1 1864 0
 7680              		.cfi_startproc
 7681              		@ args = 0, pretend = 0, frame = 16
 7682              		@ frame_needed = 1, uses_anonymous_args = 0
 7683              		@ link register save eliminated.
 7684 0000 80B4     		push	{r7}
 7685              		.cfi_def_cfa_offset 4
 7686              		.cfi_offset 7, -4
 7687 0002 85B0     		sub	sp, sp, #20
 7688              		.cfi_def_cfa_offset 24
 7689 0004 00AF     		add	r7, sp, #0
 7690              		.cfi_def_cfa_register 7
 7691 0006 7860     		str	r0, [r7, #4]
1865:.\AdvantageImpl.c ****     LPRAWPTR ptrbuff = (LPRAWPTR)pparam;
 7692              		.loc 1 1865 0
 7693 0008 7B68     		ldr	r3, [r7, #4]
 7694 000a FB60     		str	r3, [r7, #12]
1866:.\AdvantageImpl.c ****     
1867:.\AdvantageImpl.c ****     _g_dispenserlayoutinfo._hosesposition3 = 0x00;
 7695              		.loc 1 1867 0
 7696 000c C04B     		ldr	r3, .L337
 7697 000e 0022     		movs	r2, #0
 7698 0010 5A71     		strb	r2, [r3, #5]
1868:.\AdvantageImpl.c ****     _g_dispenserlayoutinfo._hosesposition4 = 0x00;
 7699              		.loc 1 1868 0
 7700 0012 BF4B     		ldr	r3, .L337
 7701 0014 0022     		movs	r2, #0
 7702 0016 9A71     		strb	r2, [r3, #6]
1869:.\AdvantageImpl.c ****     if(_g_dispenserlayoutinfo._numpositions == 0x02)
 7703              		.loc 1 1869 0
 7704 0018 BD4B     		ldr	r3, .L337
 7705 001a 9B78     		ldrb	r3, [r3, #2]	@ zero_extendqisi2
 7706 001c 022B     		cmp	r3, #2
 7707 001e 40F09C80 		bne	.L276
1870:.\AdvantageImpl.c ****     {
1871:.\AdvantageImpl.c ****         //PLEASE CHECK THE DOCUMENTATION TO UNDERSTAND THE COMPARISON VALUES
1872:.\AdvantageImpl.c ****         switch(ptrbuff[0x00])
 7708              		.loc 1 1872 0
 7709 0022 FB68     		ldr	r3, [r7, #12]
 7710 0024 1B78     		ldrb	r3, [r3]	@ zero_extendqisi2
 7711 0026 103B     		subs	r3, r3, #16
 7712 0028 172B     		cmp	r3, #23
 7713 002a 00F28D81 		bhi	.L293
 7714 002e 01A2     		adr	r2, .L279
 7715 0030 52F823F0 		ldr	pc, [r2, r3, lsl #2]
 7716              		.p2align 2
ARM GAS  C:\Users\Lenovo\AppData\Local\Temp\cccA9qMw.s 			page 170


 7717              	.L279:
 7718 0034 95000000 		.word	.L278+1
 7719 0038 A3000000 		.word	.L280+1
 7720 003c B1000000 		.word	.L281+1
 7721 0040 BF000000 		.word	.L282+1
 7722 0044 CD000000 		.word	.L283+1
 7723 0048 DB000000 		.word	.L284+1
 7724 004c 49030000 		.word	.L293+1
 7725 0050 49030000 		.word	.L293+1
 7726 0054 49030000 		.word	.L293+1
 7727 0058 49030000 		.word	.L293+1
 7728 005c 49030000 		.word	.L293+1
 7729 0060 49030000 		.word	.L293+1
 7730 0064 49030000 		.word	.L293+1
 7731 0068 49030000 		.word	.L293+1
 7732 006c 49030000 		.word	.L293+1
 7733 0070 49030000 		.word	.L293+1
 7734 0074 E9000000 		.word	.L285+1
 7735 0078 F7000000 		.word	.L286+1
 7736 007c 05010000 		.word	.L287+1
 7737 0080 13010000 		.word	.L288+1
 7738 0084 21010000 		.word	.L289+1
 7739 0088 2F010000 		.word	.L290+1
 7740 008c 3D010000 		.word	.L291+1
 7741 0090 4B010000 		.word	.L292+1
 7742              		.p2align 1
 7743              	.L278:
1873:.\AdvantageImpl.c ****         {
1874:.\AdvantageImpl.c ****             //Multi-Product Dispenser
1875:.\AdvantageImpl.c ****             case 0x10://MPD with 1 grade/hose per side
1876:.\AdvantageImpl.c ****             {
1877:.\AdvantageImpl.c ****                 _g_dispenserlayoutinfo._hosesposition1 = 0x01;
 7744              		.loc 1 1877 0
 7745 0094 9E4B     		ldr	r3, .L337
 7746 0096 0122     		movs	r2, #1
 7747 0098 DA70     		strb	r2, [r3, #3]
1878:.\AdvantageImpl.c ****                 _g_dispenserlayoutinfo._hosesposition2 = 0x01;
 7748              		.loc 1 1878 0
 7749 009a 9D4B     		ldr	r3, .L337
 7750 009c 0122     		movs	r2, #1
 7751 009e 1A71     		strb	r2, [r3, #4]
1879:.\AdvantageImpl.c ****                 break;
 7752              		.loc 1 1879 0
 7753 00a0 5AE0     		b	.L277
 7754              	.L280:
1880:.\AdvantageImpl.c ****             }
1881:.\AdvantageImpl.c ****             case 0x11://MPD with 2 grades/hoses per side
1882:.\AdvantageImpl.c ****             {
1883:.\AdvantageImpl.c ****                 _g_dispenserlayoutinfo._hosesposition1 = 0x02;
 7755              		.loc 1 1883 0
 7756 00a2 9B4B     		ldr	r3, .L337
 7757 00a4 0222     		movs	r2, #2
 7758 00a6 DA70     		strb	r2, [r3, #3]
1884:.\AdvantageImpl.c ****                 _g_dispenserlayoutinfo._hosesposition2 = 0x02;
 7759              		.loc 1 1884 0
 7760 00a8 994B     		ldr	r3, .L337
 7761 00aa 0222     		movs	r2, #2
ARM GAS  C:\Users\Lenovo\AppData\Local\Temp\cccA9qMw.s 			page 171


 7762 00ac 1A71     		strb	r2, [r3, #4]
1885:.\AdvantageImpl.c ****                 break;
 7763              		.loc 1 1885 0
 7764 00ae 53E0     		b	.L277
 7765              	.L281:
1886:.\AdvantageImpl.c ****             }
1887:.\AdvantageImpl.c ****             case 0x12://MPD with 3 grades/hoses per side
1888:.\AdvantageImpl.c ****             {
1889:.\AdvantageImpl.c ****                 _g_dispenserlayoutinfo._hosesposition1 = 0x03;
 7766              		.loc 1 1889 0
 7767 00b0 974B     		ldr	r3, .L337
 7768 00b2 0322     		movs	r2, #3
 7769 00b4 DA70     		strb	r2, [r3, #3]
1890:.\AdvantageImpl.c ****                 _g_dispenserlayoutinfo._hosesposition2 = 0x03;
 7770              		.loc 1 1890 0
 7771 00b6 964B     		ldr	r3, .L337
 7772 00b8 0322     		movs	r2, #3
 7773 00ba 1A71     		strb	r2, [r3, #4]
1891:.\AdvantageImpl.c ****                 break;
 7774              		.loc 1 1891 0
 7775 00bc 4CE0     		b	.L277
 7776              	.L282:
1892:.\AdvantageImpl.c ****             }
1893:.\AdvantageImpl.c ****             case 0x13://MPD with 4 grades/hoses per side
1894:.\AdvantageImpl.c ****             {
1895:.\AdvantageImpl.c ****                 _g_dispenserlayoutinfo._hosesposition1 = 0x04;
 7777              		.loc 1 1895 0
 7778 00be 944B     		ldr	r3, .L337
 7779 00c0 0422     		movs	r2, #4
 7780 00c2 DA70     		strb	r2, [r3, #3]
1896:.\AdvantageImpl.c ****                 _g_dispenserlayoutinfo._hosesposition2 = 0x04;
 7781              		.loc 1 1896 0
 7782 00c4 924B     		ldr	r3, .L337
 7783 00c6 0422     		movs	r2, #4
 7784 00c8 1A71     		strb	r2, [r3, #4]
1897:.\AdvantageImpl.c ****                 break;
 7785              		.loc 1 1897 0
 7786 00ca 45E0     		b	.L277
 7787              	.L283:
1898:.\AdvantageImpl.c ****             }
1899:.\AdvantageImpl.c ****             case 0x14://MPD with 5 grades/hoses per side
1900:.\AdvantageImpl.c ****             {
1901:.\AdvantageImpl.c ****                 _g_dispenserlayoutinfo._hosesposition1 = 0x05;
 7788              		.loc 1 1901 0
 7789 00cc 904B     		ldr	r3, .L337
 7790 00ce 0522     		movs	r2, #5
 7791 00d0 DA70     		strb	r2, [r3, #3]
1902:.\AdvantageImpl.c ****                 _g_dispenserlayoutinfo._hosesposition2 = 0x05;
 7792              		.loc 1 1902 0
 7793 00d2 8F4B     		ldr	r3, .L337
 7794 00d4 0522     		movs	r2, #5
 7795 00d6 1A71     		strb	r2, [r3, #4]
1903:.\AdvantageImpl.c ****                 break;
 7796              		.loc 1 1903 0
 7797 00d8 3EE0     		b	.L277
 7798              	.L284:
1904:.\AdvantageImpl.c ****             }
ARM GAS  C:\Users\Lenovo\AppData\Local\Temp\cccA9qMw.s 			page 172


1905:.\AdvantageImpl.c ****             case 0x15://MPD with 6 grades/hoses per side
1906:.\AdvantageImpl.c ****             {
1907:.\AdvantageImpl.c ****                 _g_dispenserlayoutinfo._hosesposition1 = 0x05;
 7799              		.loc 1 1907 0
 7800 00da 8D4B     		ldr	r3, .L337
 7801 00dc 0522     		movs	r2, #5
 7802 00de DA70     		strb	r2, [r3, #3]
1908:.\AdvantageImpl.c ****                 _g_dispenserlayoutinfo._hosesposition2 = 0x05;
 7803              		.loc 1 1908 0
 7804 00e0 8B4B     		ldr	r3, .L337
 7805 00e2 0522     		movs	r2, #5
 7806 00e4 1A71     		strb	r2, [r3, #4]
1909:.\AdvantageImpl.c ****                 break;
 7807              		.loc 1 1909 0
 7808 00e6 37E0     		b	.L277
 7809              	.L285:
1910:.\AdvantageImpl.c ****             }
1911:.\AdvantageImpl.c ****             //Single-Hose Multi-Product Dispenser
1912:.\AdvantageImpl.c ****             case 0x20://SHMPD 2+0 (2 grades, 1 hose/side)
1913:.\AdvantageImpl.c ****             {
1914:.\AdvantageImpl.c ****                 _g_dispenserlayoutinfo._hosesposition1 = 0x01;
 7810              		.loc 1 1914 0
 7811 00e8 894B     		ldr	r3, .L337
 7812 00ea 0122     		movs	r2, #1
 7813 00ec DA70     		strb	r2, [r3, #3]
1915:.\AdvantageImpl.c ****                 _g_dispenserlayoutinfo._hosesposition2 = 0x01;
 7814              		.loc 1 1915 0
 7815 00ee 884B     		ldr	r3, .L337
 7816 00f0 0122     		movs	r2, #1
 7817 00f2 1A71     		strb	r2, [r3, #4]
1916:.\AdvantageImpl.c ****                 break;
 7818              		.loc 1 1916 0
 7819 00f4 30E0     		b	.L277
 7820              	.L286:
1917:.\AdvantageImpl.c ****             }
1918:.\AdvantageImpl.c ****             case 0x21://SHMPD 2+1 (3 grades, 2 hoses/side)
1919:.\AdvantageImpl.c ****             {
1920:.\AdvantageImpl.c ****                 _g_dispenserlayoutinfo._hosesposition1 = 0x02;
 7821              		.loc 1 1920 0
 7822 00f6 864B     		ldr	r3, .L337
 7823 00f8 0222     		movs	r2, #2
 7824 00fa DA70     		strb	r2, [r3, #3]
1921:.\AdvantageImpl.c ****                 _g_dispenserlayoutinfo._hosesposition2 = 0x02;
 7825              		.loc 1 1921 0
 7826 00fc 844B     		ldr	r3, .L337
 7827 00fe 0222     		movs	r2, #2
 7828 0100 1A71     		strb	r2, [r3, #4]
1922:.\AdvantageImpl.c ****                 break;
 7829              		.loc 1 1922 0
 7830 0102 29E0     		b	.L277
 7831              	.L287:
1923:.\AdvantageImpl.c ****             }
1924:.\AdvantageImpl.c ****             case 0x22://SHMPD 3+0 (3 grades, 1 hose/side)
1925:.\AdvantageImpl.c ****             {
1926:.\AdvantageImpl.c ****                 _g_dispenserlayoutinfo._hosesposition1 = 0x01;
 7832              		.loc 1 1926 0
 7833 0104 824B     		ldr	r3, .L337
ARM GAS  C:\Users\Lenovo\AppData\Local\Temp\cccA9qMw.s 			page 173


 7834 0106 0122     		movs	r2, #1
 7835 0108 DA70     		strb	r2, [r3, #3]
1927:.\AdvantageImpl.c ****                 _g_dispenserlayoutinfo._hosesposition2 = 0x01;
 7836              		.loc 1 1927 0
 7837 010a 814B     		ldr	r3, .L337
 7838 010c 0122     		movs	r2, #1
 7839 010e 1A71     		strb	r2, [r3, #4]
1928:.\AdvantageImpl.c ****                 break;
 7840              		.loc 1 1928 0
 7841 0110 22E0     		b	.L277
 7842              	.L288:
1929:.\AdvantageImpl.c ****             }
1930:.\AdvantageImpl.c ****             case 0x23://SHMPD 3+1 (4 grades, 2 hoses/side)
1931:.\AdvantageImpl.c ****             {
1932:.\AdvantageImpl.c ****                 _g_dispenserlayoutinfo._hosesposition1 = 0x02;
 7843              		.loc 1 1932 0
 7844 0112 7F4B     		ldr	r3, .L337
 7845 0114 0222     		movs	r2, #2
 7846 0116 DA70     		strb	r2, [r3, #3]
1933:.\AdvantageImpl.c ****                 _g_dispenserlayoutinfo._hosesposition2 = 0x02;
 7847              		.loc 1 1933 0
 7848 0118 7D4B     		ldr	r3, .L337
 7849 011a 0222     		movs	r2, #2
 7850 011c 1A71     		strb	r2, [r3, #4]
1934:.\AdvantageImpl.c ****                 break;
 7851              		.loc 1 1934 0
 7852 011e 1BE0     		b	.L277
 7853              	.L289:
1935:.\AdvantageImpl.c ****             }
1936:.\AdvantageImpl.c ****             case 0x24://SHMPD 4+0 (4 grades, 1 hose/side)
1937:.\AdvantageImpl.c ****             {
1938:.\AdvantageImpl.c ****                 _g_dispenserlayoutinfo._hosesposition1 = 0x01;
 7854              		.loc 1 1938 0
 7855 0120 7B4B     		ldr	r3, .L337
 7856 0122 0122     		movs	r2, #1
 7857 0124 DA70     		strb	r2, [r3, #3]
1939:.\AdvantageImpl.c ****                 _g_dispenserlayoutinfo._hosesposition2 = 0x01;
 7858              		.loc 1 1939 0
 7859 0126 7A4B     		ldr	r3, .L337
 7860 0128 0122     		movs	r2, #1
 7861 012a 1A71     		strb	r2, [r3, #4]
1940:.\AdvantageImpl.c ****                 break;
 7862              		.loc 1 1940 0
 7863 012c 14E0     		b	.L277
 7864              	.L290:
1941:.\AdvantageImpl.c ****             }
1942:.\AdvantageImpl.c ****             case 0x25://SHMPD 4+1 (5 grades, 2 hoses/side)
1943:.\AdvantageImpl.c ****             {
1944:.\AdvantageImpl.c ****                 _g_dispenserlayoutinfo._hosesposition1 = 0x02;
 7865              		.loc 1 1944 0
 7866 012e 784B     		ldr	r3, .L337
 7867 0130 0222     		movs	r2, #2
 7868 0132 DA70     		strb	r2, [r3, #3]
1945:.\AdvantageImpl.c ****                 _g_dispenserlayoutinfo._hosesposition2 = 0x02;
 7869              		.loc 1 1945 0
 7870 0134 764B     		ldr	r3, .L337
 7871 0136 0222     		movs	r2, #2
ARM GAS  C:\Users\Lenovo\AppData\Local\Temp\cccA9qMw.s 			page 174


 7872 0138 1A71     		strb	r2, [r3, #4]
1946:.\AdvantageImpl.c ****                 break;
 7873              		.loc 1 1946 0
 7874 013a 0DE0     		b	.L277
 7875              	.L291:
1947:.\AdvantageImpl.c ****             }
1948:.\AdvantageImpl.c ****             case 0x26://SHMPD 5+0 (5 grades, 1 hose/side)
1949:.\AdvantageImpl.c ****             {
1950:.\AdvantageImpl.c ****                 _g_dispenserlayoutinfo._hosesposition1 = 0x01;
 7876              		.loc 1 1950 0
 7877 013c 744B     		ldr	r3, .L337
 7878 013e 0122     		movs	r2, #1
 7879 0140 DA70     		strb	r2, [r3, #3]
1951:.\AdvantageImpl.c ****                 _g_dispenserlayoutinfo._hosesposition2 = 0x01;
 7880              		.loc 1 1951 0
 7881 0142 734B     		ldr	r3, .L337
 7882 0144 0122     		movs	r2, #1
 7883 0146 1A71     		strb	r2, [r3, #4]
1952:.\AdvantageImpl.c ****                 break;
 7884              		.loc 1 1952 0
 7885 0148 06E0     		b	.L277
 7886              	.L292:
1953:.\AdvantageImpl.c ****             }
1954:.\AdvantageImpl.c ****             case 0x27://SHMPD 5+1 (6 grades, 2 hoses/side)
1955:.\AdvantageImpl.c ****             {
1956:.\AdvantageImpl.c ****                 _g_dispenserlayoutinfo._hosesposition1 = 0x02;
 7887              		.loc 1 1956 0
 7888 014a 714B     		ldr	r3, .L337
 7889 014c 0222     		movs	r2, #2
 7890 014e DA70     		strb	r2, [r3, #3]
1957:.\AdvantageImpl.c ****                 _g_dispenserlayoutinfo._hosesposition2 = 0x02;
 7891              		.loc 1 1957 0
 7892 0150 6F4B     		ldr	r3, .L337
 7893 0152 0222     		movs	r2, #2
 7894 0154 1A71     		strb	r2, [r3, #4]
1958:.\AdvantageImpl.c ****                 break;
 7895              		.loc 1 1958 0
 7896 0156 00BF     		nop
 7897              	.L277:
 7898 0158 F6E0     		b	.L293
 7899              	.L276:
1959:.\AdvantageImpl.c ****             }
1960:.\AdvantageImpl.c ****             //MISSING (NOT NEEDED) ...
1961:.\AdvantageImpl.c ****             //0x28 ~ 0x29
1962:.\AdvantageImpl.c ****             //0x3X Multi-Hose Blender
1963:.\AdvantageImpl.c ****             //0x4X Single-Hose Blender
1964:.\AdvantageImpl.c ****             //0x50 MH Hybrid Blender
1965:.\AdvantageImpl.c ****         }
1966:.\AdvantageImpl.c ****     }
1967:.\AdvantageImpl.c ****     else if(_g_dispenserlayoutinfo._numpositions == 0x04)
 7900              		.loc 1 1967 0
 7901 015a 6D4B     		ldr	r3, .L337
 7902 015c 9B78     		ldrb	r3, [r3, #2]	@ zero_extendqisi2
 7903 015e 042B     		cmp	r3, #4
 7904 0160 40F0F280 		bne	.L293
1968:.\AdvantageImpl.c ****     {
1969:.\AdvantageImpl.c ****         //PLEASE CHECK THE DOCUMENTATION TO UNDERSTAND THE COMPARISON VALUES
ARM GAS  C:\Users\Lenovo\AppData\Local\Temp\cccA9qMw.s 			page 175


1970:.\AdvantageImpl.c ****         switch(ptrbuff[0x00])
 7905              		.loc 1 1970 0
 7906 0164 FB68     		ldr	r3, [r7, #12]
 7907 0166 1B78     		ldrb	r3, [r3]	@ zero_extendqisi2
 7908 0168 103B     		subs	r3, r3, #16
 7909 016a 172B     		cmp	r3, #23
 7910 016c 00F2EC80 		bhi	.L293
 7911 0170 01A2     		adr	r2, .L295
 7912 0172 52F823F0 		ldr	pc, [r2, r3, lsl #2]
 7913 0176 00BF     		.p2align 2
 7914              	.L295:
 7915 0178 D9010000 		.word	.L294+1
 7916 017c F3010000 		.word	.L296+1
 7917 0180 0D020000 		.word	.L297+1
 7918 0184 27020000 		.word	.L298+1
 7919 0188 41020000 		.word	.L299+1
 7920 018c 5B020000 		.word	.L300+1
 7921 0190 49030000 		.word	.L293+1
 7922 0194 49030000 		.word	.L293+1
 7923 0198 49030000 		.word	.L293+1
 7924 019c 49030000 		.word	.L293+1
 7925 01a0 49030000 		.word	.L293+1
 7926 01a4 49030000 		.word	.L293+1
 7927 01a8 49030000 		.word	.L293+1
 7928 01ac 49030000 		.word	.L293+1
 7929 01b0 49030000 		.word	.L293+1
 7930 01b4 49030000 		.word	.L293+1
 7931 01b8 75020000 		.word	.L301+1
 7932 01bc 8F020000 		.word	.L302+1
 7933 01c0 A9020000 		.word	.L303+1
 7934 01c4 C3020000 		.word	.L304+1
 7935 01c8 DD020000 		.word	.L305+1
 7936 01cc F7020000 		.word	.L306+1
 7937 01d0 15030000 		.word	.L307+1
 7938 01d4 2F030000 		.word	.L308+1
 7939              		.p2align 1
 7940              	.L294:
1971:.\AdvantageImpl.c ****         {
1972:.\AdvantageImpl.c ****             //Multi-Product Dispenser
1973:.\AdvantageImpl.c ****             case 0x10://MPD with 1 grade/hose per side
1974:.\AdvantageImpl.c ****             {
1975:.\AdvantageImpl.c ****                 _g_dispenserlayoutinfo._hosesposition1 = 0x01;
 7941              		.loc 1 1975 0
 7942 01d8 4D4B     		ldr	r3, .L337
 7943 01da 0122     		movs	r2, #1
 7944 01dc DA70     		strb	r2, [r3, #3]
1976:.\AdvantageImpl.c ****                 _g_dispenserlayoutinfo._hosesposition2 = 0x01;
 7945              		.loc 1 1976 0
 7946 01de 4C4B     		ldr	r3, .L337
 7947 01e0 0122     		movs	r2, #1
 7948 01e2 1A71     		strb	r2, [r3, #4]
1977:.\AdvantageImpl.c ****                 _g_dispenserlayoutinfo._hosesposition3 = 0x01;
 7949              		.loc 1 1977 0
 7950 01e4 4A4B     		ldr	r3, .L337
 7951 01e6 0122     		movs	r2, #1
 7952 01e8 5A71     		strb	r2, [r3, #5]
1978:.\AdvantageImpl.c ****                 _g_dispenserlayoutinfo._hosesposition4 = 0x01;
ARM GAS  C:\Users\Lenovo\AppData\Local\Temp\cccA9qMw.s 			page 176


 7953              		.loc 1 1978 0
 7954 01ea 494B     		ldr	r3, .L337
 7955 01ec 0122     		movs	r2, #1
 7956 01ee 9A71     		strb	r2, [r3, #6]
1979:.\AdvantageImpl.c ****                 break;
 7957              		.loc 1 1979 0
 7958 01f0 AAE0     		b	.L293
 7959              	.L296:
1980:.\AdvantageImpl.c ****             }
1981:.\AdvantageImpl.c ****             case 0x11://MPD with 2 grades/hoses per side
1982:.\AdvantageImpl.c ****             {
1983:.\AdvantageImpl.c ****                 _g_dispenserlayoutinfo._hosesposition1 = 0x02;
 7960              		.loc 1 1983 0
 7961 01f2 474B     		ldr	r3, .L337
 7962 01f4 0222     		movs	r2, #2
 7963 01f6 DA70     		strb	r2, [r3, #3]
1984:.\AdvantageImpl.c ****                 _g_dispenserlayoutinfo._hosesposition2 = 0x02;
 7964              		.loc 1 1984 0
 7965 01f8 454B     		ldr	r3, .L337
 7966 01fa 0222     		movs	r2, #2
 7967 01fc 1A71     		strb	r2, [r3, #4]
1985:.\AdvantageImpl.c ****                 _g_dispenserlayoutinfo._hosesposition3 = 0x02;
 7968              		.loc 1 1985 0
 7969 01fe 444B     		ldr	r3, .L337
 7970 0200 0222     		movs	r2, #2
 7971 0202 5A71     		strb	r2, [r3, #5]
1986:.\AdvantageImpl.c ****                 _g_dispenserlayoutinfo._hosesposition4 = 0x02;
 7972              		.loc 1 1986 0
 7973 0204 424B     		ldr	r3, .L337
 7974 0206 0222     		movs	r2, #2
 7975 0208 9A71     		strb	r2, [r3, #6]
1987:.\AdvantageImpl.c ****                 break;
 7976              		.loc 1 1987 0
 7977 020a 9DE0     		b	.L293
 7978              	.L297:
1988:.\AdvantageImpl.c ****             }
1989:.\AdvantageImpl.c ****             case 0x12://MPD with 3 grades/hoses per side
1990:.\AdvantageImpl.c ****             {
1991:.\AdvantageImpl.c ****                 _g_dispenserlayoutinfo._hosesposition1 = 0x03;
 7979              		.loc 1 1991 0
 7980 020c 404B     		ldr	r3, .L337
 7981 020e 0322     		movs	r2, #3
 7982 0210 DA70     		strb	r2, [r3, #3]
1992:.\AdvantageImpl.c ****                 _g_dispenserlayoutinfo._hosesposition2 = 0x03;
 7983              		.loc 1 1992 0
 7984 0212 3F4B     		ldr	r3, .L337
 7985 0214 0322     		movs	r2, #3
 7986 0216 1A71     		strb	r2, [r3, #4]
1993:.\AdvantageImpl.c ****                 _g_dispenserlayoutinfo._hosesposition3 = 0x03;
 7987              		.loc 1 1993 0
 7988 0218 3D4B     		ldr	r3, .L337
 7989 021a 0322     		movs	r2, #3
 7990 021c 5A71     		strb	r2, [r3, #5]
1994:.\AdvantageImpl.c ****                 _g_dispenserlayoutinfo._hosesposition4 = 0x03;
 7991              		.loc 1 1994 0
 7992 021e 3C4B     		ldr	r3, .L337
 7993 0220 0322     		movs	r2, #3
ARM GAS  C:\Users\Lenovo\AppData\Local\Temp\cccA9qMw.s 			page 177


 7994 0222 9A71     		strb	r2, [r3, #6]
1995:.\AdvantageImpl.c ****                 break;
 7995              		.loc 1 1995 0
 7996 0224 90E0     		b	.L293
 7997              	.L298:
1996:.\AdvantageImpl.c ****             }
1997:.\AdvantageImpl.c ****             case 0x13://MPD with 4 grades/hoses per side
1998:.\AdvantageImpl.c ****             {
1999:.\AdvantageImpl.c ****                 _g_dispenserlayoutinfo._hosesposition1 = 0x04;
 7998              		.loc 1 1999 0
 7999 0226 3A4B     		ldr	r3, .L337
 8000 0228 0422     		movs	r2, #4
 8001 022a DA70     		strb	r2, [r3, #3]
2000:.\AdvantageImpl.c ****                 _g_dispenserlayoutinfo._hosesposition2 = 0x04;
 8002              		.loc 1 2000 0
 8003 022c 384B     		ldr	r3, .L337
 8004 022e 0422     		movs	r2, #4
 8005 0230 1A71     		strb	r2, [r3, #4]
2001:.\AdvantageImpl.c ****                 _g_dispenserlayoutinfo._hosesposition3 = 0x04;
 8006              		.loc 1 2001 0
 8007 0232 374B     		ldr	r3, .L337
 8008 0234 0422     		movs	r2, #4
 8009 0236 5A71     		strb	r2, [r3, #5]
2002:.\AdvantageImpl.c ****                 _g_dispenserlayoutinfo._hosesposition4 = 0x04;
 8010              		.loc 1 2002 0
 8011 0238 354B     		ldr	r3, .L337
 8012 023a 0422     		movs	r2, #4
 8013 023c 9A71     		strb	r2, [r3, #6]
2003:.\AdvantageImpl.c ****                 break;
 8014              		.loc 1 2003 0
 8015 023e 83E0     		b	.L293
 8016              	.L299:
2004:.\AdvantageImpl.c ****             }
2005:.\AdvantageImpl.c ****             case 0x14://MPD with 5 grades/hoses per side
2006:.\AdvantageImpl.c ****             {
2007:.\AdvantageImpl.c ****                 _g_dispenserlayoutinfo._hosesposition1 = 0x05;
 8017              		.loc 1 2007 0
 8018 0240 334B     		ldr	r3, .L337
 8019 0242 0522     		movs	r2, #5
 8020 0244 DA70     		strb	r2, [r3, #3]
2008:.\AdvantageImpl.c ****                 _g_dispenserlayoutinfo._hosesposition2 = 0x05;
 8021              		.loc 1 2008 0
 8022 0246 324B     		ldr	r3, .L337
 8023 0248 0522     		movs	r2, #5
 8024 024a 1A71     		strb	r2, [r3, #4]
2009:.\AdvantageImpl.c ****                 _g_dispenserlayoutinfo._hosesposition3 = 0x05;
 8025              		.loc 1 2009 0
 8026 024c 304B     		ldr	r3, .L337
 8027 024e 0522     		movs	r2, #5
 8028 0250 5A71     		strb	r2, [r3, #5]
2010:.\AdvantageImpl.c ****                 _g_dispenserlayoutinfo._hosesposition4 = 0x05;
 8029              		.loc 1 2010 0
 8030 0252 2F4B     		ldr	r3, .L337
 8031 0254 0522     		movs	r2, #5
 8032 0256 9A71     		strb	r2, [r3, #6]
2011:.\AdvantageImpl.c ****                 break;
 8033              		.loc 1 2011 0
ARM GAS  C:\Users\Lenovo\AppData\Local\Temp\cccA9qMw.s 			page 178


 8034 0258 76E0     		b	.L293
 8035              	.L300:
2012:.\AdvantageImpl.c ****             }
2013:.\AdvantageImpl.c ****             case 0x15://MPD with 6 grades/hoses per side
2014:.\AdvantageImpl.c ****             {
2015:.\AdvantageImpl.c ****                 _g_dispenserlayoutinfo._hosesposition1 = 0x05;
 8036              		.loc 1 2015 0
 8037 025a 2D4B     		ldr	r3, .L337
 8038 025c 0522     		movs	r2, #5
 8039 025e DA70     		strb	r2, [r3, #3]
2016:.\AdvantageImpl.c ****                 _g_dispenserlayoutinfo._hosesposition2 = 0x05;
 8040              		.loc 1 2016 0
 8041 0260 2B4B     		ldr	r3, .L337
 8042 0262 0522     		movs	r2, #5
 8043 0264 1A71     		strb	r2, [r3, #4]
2017:.\AdvantageImpl.c ****                 _g_dispenserlayoutinfo._hosesposition3 = 0x05;
 8044              		.loc 1 2017 0
 8045 0266 2A4B     		ldr	r3, .L337
 8046 0268 0522     		movs	r2, #5
 8047 026a 5A71     		strb	r2, [r3, #5]
2018:.\AdvantageImpl.c ****                 _g_dispenserlayoutinfo._hosesposition4 = 0x05;
 8048              		.loc 1 2018 0
 8049 026c 284B     		ldr	r3, .L337
 8050 026e 0522     		movs	r2, #5
 8051 0270 9A71     		strb	r2, [r3, #6]
2019:.\AdvantageImpl.c ****                 break;
 8052              		.loc 1 2019 0
 8053 0272 69E0     		b	.L293
 8054              	.L301:
2020:.\AdvantageImpl.c ****             }
2021:.\AdvantageImpl.c ****             //Single-Hose Multi-Product Dispenser
2022:.\AdvantageImpl.c ****             case 0x20://SHMPD 2+0 (2 grades, 1 hose/side)
2023:.\AdvantageImpl.c ****             {
2024:.\AdvantageImpl.c ****                 _g_dispenserlayoutinfo._hosesposition1 = 0x01;
 8055              		.loc 1 2024 0
 8056 0274 264B     		ldr	r3, .L337
 8057 0276 0122     		movs	r2, #1
 8058 0278 DA70     		strb	r2, [r3, #3]
2025:.\AdvantageImpl.c ****                 _g_dispenserlayoutinfo._hosesposition2 = 0x01;
 8059              		.loc 1 2025 0
 8060 027a 254B     		ldr	r3, .L337
 8061 027c 0122     		movs	r2, #1
 8062 027e 1A71     		strb	r2, [r3, #4]
2026:.\AdvantageImpl.c ****                 _g_dispenserlayoutinfo._hosesposition3 = 0x01;
 8063              		.loc 1 2026 0
 8064 0280 234B     		ldr	r3, .L337
 8065 0282 0122     		movs	r2, #1
 8066 0284 5A71     		strb	r2, [r3, #5]
2027:.\AdvantageImpl.c ****                 _g_dispenserlayoutinfo._hosesposition4 = 0x01;
 8067              		.loc 1 2027 0
 8068 0286 224B     		ldr	r3, .L337
 8069 0288 0122     		movs	r2, #1
 8070 028a 9A71     		strb	r2, [r3, #6]
2028:.\AdvantageImpl.c ****                 break;
 8071              		.loc 1 2028 0
 8072 028c 5CE0     		b	.L293
 8073              	.L302:
ARM GAS  C:\Users\Lenovo\AppData\Local\Temp\cccA9qMw.s 			page 179


2029:.\AdvantageImpl.c ****             }
2030:.\AdvantageImpl.c ****             case 0x21://SHMPD 2+1 (3 grades, 2 hoses/side)
2031:.\AdvantageImpl.c ****             {
2032:.\AdvantageImpl.c ****                 _g_dispenserlayoutinfo._hosesposition1 = 0x02;
 8074              		.loc 1 2032 0
 8075 028e 204B     		ldr	r3, .L337
 8076 0290 0222     		movs	r2, #2
 8077 0292 DA70     		strb	r2, [r3, #3]
2033:.\AdvantageImpl.c ****                 _g_dispenserlayoutinfo._hosesposition2 = 0x02;
 8078              		.loc 1 2033 0
 8079 0294 1E4B     		ldr	r3, .L337
 8080 0296 0222     		movs	r2, #2
 8081 0298 1A71     		strb	r2, [r3, #4]
2034:.\AdvantageImpl.c ****                 _g_dispenserlayoutinfo._hosesposition3 = 0x02;
 8082              		.loc 1 2034 0
 8083 029a 1D4B     		ldr	r3, .L337
 8084 029c 0222     		movs	r2, #2
 8085 029e 5A71     		strb	r2, [r3, #5]
2035:.\AdvantageImpl.c ****                 _g_dispenserlayoutinfo._hosesposition4 = 0x02;
 8086              		.loc 1 2035 0
 8087 02a0 1B4B     		ldr	r3, .L337
 8088 02a2 0222     		movs	r2, #2
 8089 02a4 9A71     		strb	r2, [r3, #6]
2036:.\AdvantageImpl.c ****                 break;
 8090              		.loc 1 2036 0
 8091 02a6 4FE0     		b	.L293
 8092              	.L303:
2037:.\AdvantageImpl.c ****             }
2038:.\AdvantageImpl.c ****             case 0x22://SHMPD 3+0 (3 grades, 1 hose/side)
2039:.\AdvantageImpl.c ****             {
2040:.\AdvantageImpl.c ****                 _g_dispenserlayoutinfo._hosesposition1 = 0x01;
 8093              		.loc 1 2040 0
 8094 02a8 194B     		ldr	r3, .L337
 8095 02aa 0122     		movs	r2, #1
 8096 02ac DA70     		strb	r2, [r3, #3]
2041:.\AdvantageImpl.c ****                 _g_dispenserlayoutinfo._hosesposition2 = 0x01;
 8097              		.loc 1 2041 0
 8098 02ae 184B     		ldr	r3, .L337
 8099 02b0 0122     		movs	r2, #1
 8100 02b2 1A71     		strb	r2, [r3, #4]
2042:.\AdvantageImpl.c ****                 _g_dispenserlayoutinfo._hosesposition3 = 0x01;
 8101              		.loc 1 2042 0
 8102 02b4 164B     		ldr	r3, .L337
 8103 02b6 0122     		movs	r2, #1
 8104 02b8 5A71     		strb	r2, [r3, #5]
2043:.\AdvantageImpl.c ****                 _g_dispenserlayoutinfo._hosesposition4 = 0x01;
 8105              		.loc 1 2043 0
 8106 02ba 154B     		ldr	r3, .L337
 8107 02bc 0122     		movs	r2, #1
 8108 02be 9A71     		strb	r2, [r3, #6]
2044:.\AdvantageImpl.c ****                 break;
 8109              		.loc 1 2044 0
 8110 02c0 42E0     		b	.L293
 8111              	.L304:
2045:.\AdvantageImpl.c ****             }
2046:.\AdvantageImpl.c ****             case 0x23://SHMPD 3+1 (4 grades, 2 hoses/side)
2047:.\AdvantageImpl.c ****             {
ARM GAS  C:\Users\Lenovo\AppData\Local\Temp\cccA9qMw.s 			page 180


2048:.\AdvantageImpl.c ****                 _g_dispenserlayoutinfo._hosesposition1 = 0x02;
 8112              		.loc 1 2048 0
 8113 02c2 134B     		ldr	r3, .L337
 8114 02c4 0222     		movs	r2, #2
 8115 02c6 DA70     		strb	r2, [r3, #3]
2049:.\AdvantageImpl.c ****                 _g_dispenserlayoutinfo._hosesposition2 = 0x02;
 8116              		.loc 1 2049 0
 8117 02c8 114B     		ldr	r3, .L337
 8118 02ca 0222     		movs	r2, #2
 8119 02cc 1A71     		strb	r2, [r3, #4]
2050:.\AdvantageImpl.c ****                 _g_dispenserlayoutinfo._hosesposition3 = 0x02;
 8120              		.loc 1 2050 0
 8121 02ce 104B     		ldr	r3, .L337
 8122 02d0 0222     		movs	r2, #2
 8123 02d2 5A71     		strb	r2, [r3, #5]
2051:.\AdvantageImpl.c ****                 _g_dispenserlayoutinfo._hosesposition4 = 0x02;
 8124              		.loc 1 2051 0
 8125 02d4 0E4B     		ldr	r3, .L337
 8126 02d6 0222     		movs	r2, #2
 8127 02d8 9A71     		strb	r2, [r3, #6]
2052:.\AdvantageImpl.c ****                 break;
 8128              		.loc 1 2052 0
 8129 02da 35E0     		b	.L293
 8130              	.L305:
2053:.\AdvantageImpl.c ****             }
2054:.\AdvantageImpl.c ****             case 0x24://SHMPD 4+0 (4 grades, 1 hose/side)
2055:.\AdvantageImpl.c ****             {
2056:.\AdvantageImpl.c ****                 _g_dispenserlayoutinfo._hosesposition1 = 0x01;
 8131              		.loc 1 2056 0
 8132 02dc 0C4B     		ldr	r3, .L337
 8133 02de 0122     		movs	r2, #1
 8134 02e0 DA70     		strb	r2, [r3, #3]
2057:.\AdvantageImpl.c ****                 _g_dispenserlayoutinfo._hosesposition2 = 0x01;
 8135              		.loc 1 2057 0
 8136 02e2 0B4B     		ldr	r3, .L337
 8137 02e4 0122     		movs	r2, #1
 8138 02e6 1A71     		strb	r2, [r3, #4]
2058:.\AdvantageImpl.c ****                 _g_dispenserlayoutinfo._hosesposition3 = 0x01;
 8139              		.loc 1 2058 0
 8140 02e8 094B     		ldr	r3, .L337
 8141 02ea 0122     		movs	r2, #1
 8142 02ec 5A71     		strb	r2, [r3, #5]
2059:.\AdvantageImpl.c ****                 _g_dispenserlayoutinfo._hosesposition4 = 0x01;
 8143              		.loc 1 2059 0
 8144 02ee 084B     		ldr	r3, .L337
 8145 02f0 0122     		movs	r2, #1
 8146 02f2 9A71     		strb	r2, [r3, #6]
2060:.\AdvantageImpl.c ****                 break;
 8147              		.loc 1 2060 0
 8148 02f4 28E0     		b	.L293
 8149              	.L306:
2061:.\AdvantageImpl.c ****             }
2062:.\AdvantageImpl.c ****             case 0x25://SHMPD 4+1 (5 grades, 2 hoses/side)
2063:.\AdvantageImpl.c ****             {
2064:.\AdvantageImpl.c ****                 _g_dispenserlayoutinfo._hosesposition1 = 0x02;
 8150              		.loc 1 2064 0
 8151 02f6 064B     		ldr	r3, .L337
ARM GAS  C:\Users\Lenovo\AppData\Local\Temp\cccA9qMw.s 			page 181


 8152 02f8 0222     		movs	r2, #2
 8153 02fa DA70     		strb	r2, [r3, #3]
2065:.\AdvantageImpl.c ****                 _g_dispenserlayoutinfo._hosesposition2 = 0x02;
 8154              		.loc 1 2065 0
 8155 02fc 044B     		ldr	r3, .L337
 8156 02fe 0222     		movs	r2, #2
 8157 0300 1A71     		strb	r2, [r3, #4]
2066:.\AdvantageImpl.c ****                 _g_dispenserlayoutinfo._hosesposition3 = 0x02;
 8158              		.loc 1 2066 0
 8159 0302 034B     		ldr	r3, .L337
 8160 0304 0222     		movs	r2, #2
 8161 0306 5A71     		strb	r2, [r3, #5]
2067:.\AdvantageImpl.c ****                 _g_dispenserlayoutinfo._hosesposition4 = 0x02;
 8162              		.loc 1 2067 0
 8163 0308 014B     		ldr	r3, .L337
 8164 030a 0222     		movs	r2, #2
 8165 030c 9A71     		strb	r2, [r3, #6]
2068:.\AdvantageImpl.c ****                 break;
 8166              		.loc 1 2068 0
 8167 030e 1BE0     		b	.L293
 8168              	.L338:
 8169              		.align	2
 8170              	.L337:
 8171 0310 00000000 		.word	_g_dispenserlayoutinfo
 8172              	.L307:
2069:.\AdvantageImpl.c ****             }
2070:.\AdvantageImpl.c ****             case 0x26://SHMPD 5+0 (5 grades, 1 hose/side)
2071:.\AdvantageImpl.c ****             {
2072:.\AdvantageImpl.c ****                 _g_dispenserlayoutinfo._hosesposition1 = 0x01;
 8173              		.loc 1 2072 0
 8174 0314 6B4B     		ldr	r3, .L339
 8175 0316 0122     		movs	r2, #1
 8176 0318 DA70     		strb	r2, [r3, #3]
2073:.\AdvantageImpl.c ****                 _g_dispenserlayoutinfo._hosesposition2 = 0x01;
 8177              		.loc 1 2073 0
 8178 031a 6A4B     		ldr	r3, .L339
 8179 031c 0122     		movs	r2, #1
 8180 031e 1A71     		strb	r2, [r3, #4]
2074:.\AdvantageImpl.c ****                 _g_dispenserlayoutinfo._hosesposition3 = 0x01;
 8181              		.loc 1 2074 0
 8182 0320 684B     		ldr	r3, .L339
 8183 0322 0122     		movs	r2, #1
 8184 0324 5A71     		strb	r2, [r3, #5]
2075:.\AdvantageImpl.c ****                 _g_dispenserlayoutinfo._hosesposition4 = 0x01;
 8185              		.loc 1 2075 0
 8186 0326 674B     		ldr	r3, .L339
 8187 0328 0122     		movs	r2, #1
 8188 032a 9A71     		strb	r2, [r3, #6]
2076:.\AdvantageImpl.c ****                 break;
 8189              		.loc 1 2076 0
 8190 032c 0CE0     		b	.L293
 8191              	.L308:
2077:.\AdvantageImpl.c ****             }
2078:.\AdvantageImpl.c ****             case 0x27://SHMPD 5+1 (6 grades, 2 hoses/side)
2079:.\AdvantageImpl.c ****             {
2080:.\AdvantageImpl.c ****                 _g_dispenserlayoutinfo._hosesposition1 = 0x02;
 8192              		.loc 1 2080 0
ARM GAS  C:\Users\Lenovo\AppData\Local\Temp\cccA9qMw.s 			page 182


 8193 032e 654B     		ldr	r3, .L339
 8194 0330 0222     		movs	r2, #2
 8195 0332 DA70     		strb	r2, [r3, #3]
2081:.\AdvantageImpl.c ****                 _g_dispenserlayoutinfo._hosesposition2 = 0x02;
 8196              		.loc 1 2081 0
 8197 0334 634B     		ldr	r3, .L339
 8198 0336 0222     		movs	r2, #2
 8199 0338 1A71     		strb	r2, [r3, #4]
2082:.\AdvantageImpl.c ****                 _g_dispenserlayoutinfo._hosesposition3 = 0x02;
 8200              		.loc 1 2082 0
 8201 033a 624B     		ldr	r3, .L339
 8202 033c 0222     		movs	r2, #2
 8203 033e 5A71     		strb	r2, [r3, #5]
2083:.\AdvantageImpl.c ****                 _g_dispenserlayoutinfo._hosesposition4 = 0x02;
 8204              		.loc 1 2083 0
 8205 0340 604B     		ldr	r3, .L339
 8206 0342 0222     		movs	r2, #2
 8207 0344 9A71     		strb	r2, [r3, #6]
2084:.\AdvantageImpl.c ****                 break;
 8208              		.loc 1 2084 0
 8209 0346 00BF     		nop
 8210              	.L293:
2085:.\AdvantageImpl.c ****             }
2086:.\AdvantageImpl.c ****             //MISSING (NOT NEEDED) ...
2087:.\AdvantageImpl.c ****             //0x28 ~ 0x29
2088:.\AdvantageImpl.c ****             //0x3X Multi-Hose Blender
2089:.\AdvantageImpl.c ****             //0x4X Single-Hose Blender
2090:.\AdvantageImpl.c ****             //0x50 MH Hybrid Blender
2091:.\AdvantageImpl.c ****         }
2092:.\AdvantageImpl.c ****     }
2093:.\AdvantageImpl.c **** 
2094:.\AdvantageImpl.c **** 
2095:.\AdvantageImpl.c ****     //0x01 => U.S. Gallons
2096:.\AdvantageImpl.c ****     //0x02 => Imperial Gallons / UK Gallons
2097:.\AdvantageImpl.c ****     //0x03 => Liters
2098:.\AdvantageImpl.c ****     //0x04 => 1012 pulses/gallon (Hawaii, N/A for ECAL)
2099:.\AdvantageImpl.c ****     _g_dispenserlayoutinfo._volumeunit = ptrbuff[0x01];
 8211              		.loc 1 2099 0
 8212 0348 FB68     		ldr	r3, [r7, #12]
 8213 034a 5A78     		ldrb	r2, [r3, #1]	@ zero_extendqisi2
 8214 034c 5D4B     		ldr	r3, .L339
 8215 034e 9A72     		strb	r2, [r3, #10]
2100:.\AdvantageImpl.c ****     
2101:.\AdvantageImpl.c ****     
2102:.\AdvantageImpl.c ****     //Money Decimal Points
2103:.\AdvantageImpl.c ****     switch(ptrbuff[0x02])
 8216              		.loc 1 2103 0
 8217 0350 FB68     		ldr	r3, [r7, #12]
 8218 0352 0233     		adds	r3, r3, #2
 8219 0354 1B78     		ldrb	r3, [r3]	@ zero_extendqisi2
 8220 0356 013B     		subs	r3, r3, #1
 8221 0358 032B     		cmp	r3, #3
 8222 035a 1BD8     		bhi	.L309
 8223 035c 01A2     		adr	r2, .L311
 8224 035e 52F823F0 		ldr	pc, [r2, r3, lsl #2]
 8225 0362 00BF     		.p2align 2
 8226              	.L311:
ARM GAS  C:\Users\Lenovo\AppData\Local\Temp\cccA9qMw.s 			page 183


 8227 0364 75030000 		.word	.L310+1
 8228 0368 7D030000 		.word	.L312+1
 8229 036c 85030000 		.word	.L313+1
 8230 0370 8D030000 		.word	.L314+1
 8231              		.p2align 1
 8232              	.L310:
2104:.\AdvantageImpl.c ****     {
2105:.\AdvantageImpl.c ****         case 0x01:
2106:.\AdvantageImpl.c ****         _g_dispenserlayoutinfo._moneydecimals = 0;
 8233              		.loc 1 2106 0
 8234 0374 534B     		ldr	r3, .L339
 8235 0376 0022     		movs	r2, #0
 8236 0378 DA71     		strb	r2, [r3, #7]
2107:.\AdvantageImpl.c ****         break;
 8237              		.loc 1 2107 0
 8238 037a 0BE0     		b	.L309
 8239              	.L312:
2108:.\AdvantageImpl.c ****         case 0x02:
2109:.\AdvantageImpl.c ****         _g_dispenserlayoutinfo._moneydecimals = 1;
 8240              		.loc 1 2109 0
 8241 037c 514B     		ldr	r3, .L339
 8242 037e 0122     		movs	r2, #1
 8243 0380 DA71     		strb	r2, [r3, #7]
2110:.\AdvantageImpl.c ****         break;
 8244              		.loc 1 2110 0
 8245 0382 07E0     		b	.L309
 8246              	.L313:
2111:.\AdvantageImpl.c ****         case 0x03:
2112:.\AdvantageImpl.c ****         _g_dispenserlayoutinfo._moneydecimals = 2;
 8247              		.loc 1 2112 0
 8248 0384 4F4B     		ldr	r3, .L339
 8249 0386 0222     		movs	r2, #2
 8250 0388 DA71     		strb	r2, [r3, #7]
2113:.\AdvantageImpl.c ****         break;
 8251              		.loc 1 2113 0
 8252 038a 03E0     		b	.L309
 8253              	.L314:
2114:.\AdvantageImpl.c ****         case 0x04:
2115:.\AdvantageImpl.c ****         _g_dispenserlayoutinfo._moneydecimals = 3;
 8254              		.loc 1 2115 0
 8255 038c 4D4B     		ldr	r3, .L339
 8256 038e 0322     		movs	r2, #3
 8257 0390 DA71     		strb	r2, [r3, #7]
2116:.\AdvantageImpl.c ****         break;
 8258              		.loc 1 2116 0
 8259 0392 00BF     		nop
 8260              	.L309:
2117:.\AdvantageImpl.c ****     }
2118:.\AdvantageImpl.c ****     
2119:.\AdvantageImpl.c ****     //Volume Decimal Points
2120:.\AdvantageImpl.c ****     switch(ptrbuff[0x03])
 8261              		.loc 1 2120 0
 8262 0394 FB68     		ldr	r3, [r7, #12]
 8263 0396 0333     		adds	r3, r3, #3
 8264 0398 1B78     		ldrb	r3, [r3]	@ zero_extendqisi2
 8265 039a 013B     		subs	r3, r3, #1
 8266 039c 102B     		cmp	r3, #16
ARM GAS  C:\Users\Lenovo\AppData\Local\Temp\cccA9qMw.s 			page 184


 8267 039e 45D8     		bhi	.L315
 8268 03a0 01A2     		adr	r2, .L317
 8269 03a2 52F823F0 		ldr	pc, [r2, r3, lsl #2]
 8270 03a6 00BF     		.p2align 2
 8271              	.L317:
 8272 03a8 ED030000 		.word	.L316+1
 8273 03ac F5030000 		.word	.L318+1
 8274 03b0 FD030000 		.word	.L319+1
 8275 03b4 05040000 		.word	.L320+1
 8276 03b8 0D040000 		.word	.L321+1
 8277 03bc 15040000 		.word	.L322+1
 8278 03c0 1D040000 		.word	.L323+1
 8279 03c4 2D040000 		.word	.L315+1
 8280 03c8 2D040000 		.word	.L315+1
 8281 03cc 2D040000 		.word	.L315+1
 8282 03d0 2D040000 		.word	.L315+1
 8283 03d4 2D040000 		.word	.L315+1
 8284 03d8 2D040000 		.word	.L315+1
 8285 03dc 2D040000 		.word	.L315+1
 8286 03e0 2D040000 		.word	.L315+1
 8287 03e4 2D040000 		.word	.L315+1
 8288 03e8 25040000 		.word	.L324+1
 8289              		.p2align 1
 8290              	.L316:
2121:.\AdvantageImpl.c ****     {
2122:.\AdvantageImpl.c ****         case 0x01:
2123:.\AdvantageImpl.c ****         _g_dispenserlayoutinfo._volumedecimals = 3;
 8291              		.loc 1 2123 0
 8292 03ec 354B     		ldr	r3, .L339
 8293 03ee 0322     		movs	r2, #3
 8294 03f0 5A72     		strb	r2, [r3, #9]
2124:.\AdvantageImpl.c ****         break;
 8295              		.loc 1 2124 0
 8296 03f2 1BE0     		b	.L315
 8297              	.L318:
2125:.\AdvantageImpl.c ****         case 0x02:
2126:.\AdvantageImpl.c ****         _g_dispenserlayoutinfo._volumedecimals = 1;
 8298              		.loc 1 2126 0
 8299 03f4 334B     		ldr	r3, .L339
 8300 03f6 0122     		movs	r2, #1
 8301 03f8 5A72     		strb	r2, [r3, #9]
2127:.\AdvantageImpl.c ****         break;
 8302              		.loc 1 2127 0
 8303 03fa 17E0     		b	.L315
 8304              	.L319:
2128:.\AdvantageImpl.c ****         case 0x03:
2129:.\AdvantageImpl.c ****         _g_dispenserlayoutinfo._volumedecimals = 2;
 8305              		.loc 1 2129 0
 8306 03fc 314B     		ldr	r3, .L339
 8307 03fe 0222     		movs	r2, #2
 8308 0400 5A72     		strb	r2, [r3, #9]
2130:.\AdvantageImpl.c ****         break;
 8309              		.loc 1 2130 0
 8310 0402 13E0     		b	.L315
 8311              	.L320:
2131:.\AdvantageImpl.c ****         case 0x04:
2132:.\AdvantageImpl.c ****         _g_dispenserlayoutinfo._volumedecimals = 3;
ARM GAS  C:\Users\Lenovo\AppData\Local\Temp\cccA9qMw.s 			page 185


 8312              		.loc 1 2132 0
 8313 0404 2F4B     		ldr	r3, .L339
 8314 0406 0322     		movs	r2, #3
 8315 0408 5A72     		strb	r2, [r3, #9]
2133:.\AdvantageImpl.c ****         break;
 8316              		.loc 1 2133 0
 8317 040a 0FE0     		b	.L315
 8318              	.L321:
2134:.\AdvantageImpl.c ****         case 0x05:
2135:.\AdvantageImpl.c ****         _g_dispenserlayoutinfo._volumedecimals = 4;
 8319              		.loc 1 2135 0
 8320 040c 2D4B     		ldr	r3, .L339
 8321 040e 0422     		movs	r2, #4
 8322 0410 5A72     		strb	r2, [r3, #9]
2136:.\AdvantageImpl.c ****         break;
 8323              		.loc 1 2136 0
 8324 0412 0BE0     		b	.L315
 8325              	.L322:
2137:.\AdvantageImpl.c ****         case 0x06:
2138:.\AdvantageImpl.c ****         _g_dispenserlayoutinfo._volumedecimals = 5;
 8326              		.loc 1 2138 0
 8327 0414 2B4B     		ldr	r3, .L339
 8328 0416 0522     		movs	r2, #5
 8329 0418 5A72     		strb	r2, [r3, #9]
2139:.\AdvantageImpl.c ****         break;
 8330              		.loc 1 2139 0
 8331 041a 07E0     		b	.L315
 8332              	.L323:
2140:.\AdvantageImpl.c ****         case 0x07:
2141:.\AdvantageImpl.c ****         _g_dispenserlayoutinfo._volumedecimals = 6;
 8333              		.loc 1 2141 0
 8334 041c 294B     		ldr	r3, .L339
 8335 041e 0622     		movs	r2, #6
 8336 0420 5A72     		strb	r2, [r3, #9]
2142:.\AdvantageImpl.c ****         break;
 8337              		.loc 1 2142 0
 8338 0422 03E0     		b	.L315
 8339              	.L324:
2143:.\AdvantageImpl.c ****         case 0x11:
2144:.\AdvantageImpl.c ****         _g_dispenserlayoutinfo._volumedecimals = 0;
 8340              		.loc 1 2144 0
 8341 0424 274B     		ldr	r3, .L339
 8342 0426 0022     		movs	r2, #0
 8343 0428 5A72     		strb	r2, [r3, #9]
2145:.\AdvantageImpl.c ****         break;
 8344              		.loc 1 2145 0
 8345 042a 00BF     		nop
 8346              	.L315:
2146:.\AdvantageImpl.c ****     }
2147:.\AdvantageImpl.c ****     
2148:.\AdvantageImpl.c ****     //PPU Decimal Points
2149:.\AdvantageImpl.c ****     switch(ptrbuff[0x04])
 8347              		.loc 1 2149 0
 8348 042c FB68     		ldr	r3, [r7, #12]
 8349 042e 0433     		adds	r3, r3, #4
 8350 0430 1B78     		ldrb	r3, [r3]	@ zero_extendqisi2
 8351 0432 013B     		subs	r3, r3, #1
ARM GAS  C:\Users\Lenovo\AppData\Local\Temp\cccA9qMw.s 			page 186


 8352 0434 032B     		cmp	r3, #3
 8353 0436 1BD8     		bhi	.L325
 8354 0438 01A2     		adr	r2, .L327
 8355 043a 52F823F0 		ldr	pc, [r2, r3, lsl #2]
 8356 043e 00BF     		.p2align 2
 8357              	.L327:
 8358 0440 51040000 		.word	.L326+1
 8359 0444 59040000 		.word	.L328+1
 8360 0448 61040000 		.word	.L329+1
 8361 044c 69040000 		.word	.L330+1
 8362              		.p2align 1
 8363              	.L326:
2150:.\AdvantageImpl.c ****     {
2151:.\AdvantageImpl.c ****         case 0x01:
2152:.\AdvantageImpl.c ****         _g_dispenserlayoutinfo._ppudecimals = 0;
 8364              		.loc 1 2152 0
 8365 0450 1C4B     		ldr	r3, .L339
 8366 0452 0022     		movs	r2, #0
 8367 0454 1A72     		strb	r2, [r3, #8]
2153:.\AdvantageImpl.c ****         break;
 8368              		.loc 1 2153 0
 8369 0456 0BE0     		b	.L325
 8370              	.L328:
2154:.\AdvantageImpl.c ****         case 0x02:
2155:.\AdvantageImpl.c ****         _g_dispenserlayoutinfo._ppudecimals = 1;
 8371              		.loc 1 2155 0
 8372 0458 1A4B     		ldr	r3, .L339
 8373 045a 0122     		movs	r2, #1
 8374 045c 1A72     		strb	r2, [r3, #8]
2156:.\AdvantageImpl.c ****         break;
 8375              		.loc 1 2156 0
 8376 045e 07E0     		b	.L325
 8377              	.L329:
2157:.\AdvantageImpl.c ****         case 0x03:
2158:.\AdvantageImpl.c ****         _g_dispenserlayoutinfo._ppudecimals = 2;
 8378              		.loc 1 2158 0
 8379 0460 184B     		ldr	r3, .L339
 8380 0462 0222     		movs	r2, #2
 8381 0464 1A72     		strb	r2, [r3, #8]
2159:.\AdvantageImpl.c ****         break;
 8382              		.loc 1 2159 0
 8383 0466 03E0     		b	.L325
 8384              	.L330:
2160:.\AdvantageImpl.c ****         case 0x04:
2161:.\AdvantageImpl.c ****         _g_dispenserlayoutinfo._ppudecimals = 3;
 8385              		.loc 1 2161 0
 8386 0468 164B     		ldr	r3, .L339
 8387 046a 0322     		movs	r2, #3
 8388 046c 1A72     		strb	r2, [r3, #8]
2162:.\AdvantageImpl.c ****         break;
 8389              		.loc 1 2162 0
 8390 046e 00BF     		nop
 8391              	.L325:
2163:.\AdvantageImpl.c ****     }
2164:.\AdvantageImpl.c ****     
2165:.\AdvantageImpl.c ****     switch(ptrbuff[0x05])
 8392              		.loc 1 2165 0
ARM GAS  C:\Users\Lenovo\AppData\Local\Temp\cccA9qMw.s 			page 187


 8393 0470 FB68     		ldr	r3, [r7, #12]
 8394 0472 0533     		adds	r3, r3, #5
 8395 0474 1B78     		ldrb	r3, [r3]	@ zero_extendqisi2
 8396 0476 032B     		cmp	r3, #3
 8397 0478 1AD8     		bhi	.L331
 8398 047a 01A2     		adr	r2, .L333
 8399 047c 52F823F0 		ldr	pc, [r2, r3, lsl #2]
 8400              		.p2align 2
 8401              	.L333:
 8402 0480 91040000 		.word	.L332+1
 8403 0484 99040000 		.word	.L334+1
 8404 0488 A1040000 		.word	.L335+1
 8405 048c A9040000 		.word	.L336+1
 8406              		.p2align 1
 8407              	.L332:
2166:.\AdvantageImpl.c ****     {
2167:.\AdvantageImpl.c ****         case 0x00:
2168:.\AdvantageImpl.c ****             _g_dispenserlayoutinfo._displaydigitsmode = 0x05; //5 money digits
 8408              		.loc 1 2168 0
 8409 0490 0C4B     		ldr	r3, .L339
 8410 0492 0522     		movs	r2, #5
 8411 0494 1A74     		strb	r2, [r3, #16]
2169:.\AdvantageImpl.c ****             break;
 8412              		.loc 1 2169 0
 8413 0496 0BE0     		b	.L331
 8414              	.L334:
2170:.\AdvantageImpl.c ****         case 0x01:
2171:.\AdvantageImpl.c ****             _g_dispenserlayoutinfo._displaydigitsmode = 0x06; //6 money digits
 8415              		.loc 1 2171 0
 8416 0498 0A4B     		ldr	r3, .L339
 8417 049a 0622     		movs	r2, #6
 8418 049c 1A74     		strb	r2, [r3, #16]
2172:.\AdvantageImpl.c ****             break;
 8419              		.loc 1 2172 0
 8420 049e 07E0     		b	.L331
 8421              	.L335:
2173:.\AdvantageImpl.c ****         case 0x02:
2174:.\AdvantageImpl.c ****             _g_dispenserlayoutinfo._displaydigitsmode = 0x07; //7 money digits
 8422              		.loc 1 2174 0
 8423 04a0 084B     		ldr	r3, .L339
 8424 04a2 0722     		movs	r2, #7
 8425 04a4 1A74     		strb	r2, [r3, #16]
2175:.\AdvantageImpl.c ****             break;
 8426              		.loc 1 2175 0
 8427 04a6 03E0     		b	.L331
 8428              	.L336:
2176:.\AdvantageImpl.c ****         case 0x03:
2177:.\AdvantageImpl.c ****             _g_dispenserlayoutinfo._displaydigitsmode = 0x08; //8 money digits
 8429              		.loc 1 2177 0
 8430 04a8 064B     		ldr	r3, .L339
 8431 04aa 0822     		movs	r2, #8
 8432 04ac 1A74     		strb	r2, [r3, #16]
2178:.\AdvantageImpl.c ****             break;
 8433              		.loc 1 2178 0
 8434 04ae 00BF     		nop
 8435              	.L331:
2179:.\AdvantageImpl.c ****     }
ARM GAS  C:\Users\Lenovo\AppData\Local\Temp\cccA9qMw.s 			page 188


2180:.\AdvantageImpl.c ****     
2181:.\AdvantageImpl.c ****     //_g_dispenserlayoutinfo._pointcommadecimalmode = _POINT_AS_DECIMAL_SEPARATOR_;
2182:.\AdvantageImpl.c ****     _g_dispenserlayoutinfo._pointcommadecimalmode = _COMMA_AS_DECIMAL_SEPARATOR_;
 8436              		.loc 1 2182 0
 8437 04b0 044A     		ldr	r2, .L339
 8438 04b2 D37C     		ldrb	r3, [r2, #19]
 8439 04b4 43F00103 		orr	r3, r3, #1
 8440 04b8 D374     		strb	r3, [r2, #19]
2183:.\AdvantageImpl.c **** }
 8441              		.loc 1 2183 0
 8442 04ba 1437     		adds	r7, r7, #20
 8443              		.cfi_def_cfa_offset 4
 8444 04bc BD46     		mov	sp, r7
 8445              		.cfi_def_cfa_register 13
 8446              		@ sp needed
 8447 04be 5DF8047B 		ldr	r7, [sp], #4
 8448              		.cfi_restore 7
 8449              		.cfi_def_cfa_offset 0
 8450 04c2 7047     		bx	lr
 8451              	.L340:
 8452              		.align	2
 8453              	.L339:
 8454 04c4 00000000 		.word	_g_dispenserlayoutinfo
 8455              		.cfi_endproc
 8456              	.LFE92:
 8457              		.size	AcquireDispenserLayoutInformation, .-AcquireDispenserLayoutInformation
 8458              		.section	.text.AcquirePumpSpecialFunctionResponseResolver,"ax",%progbits
 8459              		.align	2
 8460              		.global	AcquirePumpSpecialFunctionResponseResolver
 8461              		.thumb
 8462              		.thumb_func
 8463              		.type	AcquirePumpSpecialFunctionResponseResolver, %function
 8464              	AcquirePumpSpecialFunctionResponseResolver:
 8465              	.LFB93:
2184:.\AdvantageImpl.c **** 
2185:.\AdvantageImpl.c **** //@Created By: HIJH
2186:.\AdvantageImpl.c **** //@Date: Septembre de 2016
2187:.\AdvantageImpl.c **** //Resolves the completeness for the arriving data after the SFs invocation
2188:.\AdvantageImpl.c **** bool AcquirePumpSpecialFunctionResponseResolver(void *pparam, void *pbuffer, uint16 buffersize)
2189:.\AdvantageImpl.c **** {
 8466              		.loc 1 2189 0
 8467              		.cfi_startproc
 8468              		@ args = 0, pretend = 0, frame = 32
 8469              		@ frame_needed = 1, uses_anonymous_args = 0
 8470 0000 90B5     		push	{r4, r7, lr}
 8471              		.cfi_def_cfa_offset 12
 8472              		.cfi_offset 4, -12
 8473              		.cfi_offset 7, -8
 8474              		.cfi_offset 14, -4
 8475 0002 89B0     		sub	sp, sp, #36
 8476              		.cfi_def_cfa_offset 48
 8477 0004 00AF     		add	r7, sp, #0
 8478              		.cfi_def_cfa_register 7
 8479 0006 F860     		str	r0, [r7, #12]
 8480 0008 B960     		str	r1, [r7, #8]
 8481 000a 1346     		mov	r3, r2
 8482 000c FB80     		strh	r3, [r7, #6]	@ movhi
ARM GAS  C:\Users\Lenovo\AppData\Local\Temp\cccA9qMw.s 			page 189


2190:.\AdvantageImpl.c ****     bool retval = false;
 8483              		.loc 1 2190 0
 8484 000e 0023     		movs	r3, #0
 8485 0010 FB77     		strb	r3, [r7, #31]
2191:.\AdvantageImpl.c ****     static uint8 index = 0;
2192:.\AdvantageImpl.c ****     PNEAR_PUMPPTR ppump = (PNEAR_PUMPPTR)pparam;
 8486              		.loc 1 2192 0
 8487 0012 FB68     		ldr	r3, [r7, #12]
 8488 0014 BB61     		str	r3, [r7, #24]
2193:.\AdvantageImpl.c ****     //Since after the third byte we can start inquiry for the message length in words (this is acco
2194:.\AdvantageImpl.c ****     //that is  the reason for the number "3"
2195:.\AdvantageImpl.c ****     if((PSTRCAST(pbuffer)[0 + 45*index] == 0xBA) && buffersize >= 3)
 8489              		.loc 1 2195 0
 8490 0016 434B     		ldr	r3, .L345
 8491 0018 1B78     		ldrb	r3, [r3]	@ zero_extendqisi2
 8492 001a 1A46     		mov	r2, r3
 8493 001c 1346     		mov	r3, r2
 8494 001e 5B00     		lsls	r3, r3, #1
 8495 0020 1344     		add	r3, r3, r2
 8496 0022 1A01     		lsls	r2, r3, #4
 8497 0024 D31A     		subs	r3, r2, r3
 8498 0026 1A46     		mov	r2, r3
 8499 0028 BB68     		ldr	r3, [r7, #8]
 8500 002a 1344     		add	r3, r3, r2
 8501 002c 1B78     		ldrb	r3, [r3]	@ zero_extendqisi2
 8502 002e BA2B     		cmp	r3, #186
 8503 0030 73D1     		bne	.L342
 8504              		.loc 1 2195 0 is_stmt 0 discriminator 1
 8505 0032 FB88     		ldrh	r3, [r7, #6]
 8506 0034 022B     		cmp	r3, #2
 8507 0036 70D9     		bls	.L342
 8508              	.LBB57:
2196:.\AdvantageImpl.c ****     {
2197:.\AdvantageImpl.c ****         //char8 buff[24];
2198:.\AdvantageImpl.c ****         //memcpy(buff, PSTRCAST(pbuffer), buffersize);
2199:.\AdvantageImpl.c ****         uint8 msglength = (TranslateSpecialFuncionDigit(PSTRCAST(pbuffer)[1 + 45*index]) << 0x04) |
 8509              		.loc 1 2199 0 is_stmt 1
 8510 0038 3A4B     		ldr	r3, .L345
 8511 003a 1B78     		ldrb	r3, [r3]	@ zero_extendqisi2
 8512 003c 1A46     		mov	r2, r3
 8513 003e 1346     		mov	r3, r2
 8514 0040 5B00     		lsls	r3, r3, #1
 8515 0042 1344     		add	r3, r3, r2
 8516 0044 1A01     		lsls	r2, r3, #4
 8517 0046 D31A     		subs	r3, r2, r3
 8518 0048 0133     		adds	r3, r3, #1
 8519 004a 1A46     		mov	r2, r3
 8520 004c BB68     		ldr	r3, [r7, #8]
 8521 004e 1344     		add	r3, r3, r2
 8522 0050 1B78     		ldrb	r3, [r3]	@ zero_extendqisi2
 8523 0052 1846     		mov	r0, r3
 8524 0054 FFF7FEFF 		bl	TranslateSpecialFuncionDigit
 8525 0058 0346     		mov	r3, r0
 8526 005a 1B01     		lsls	r3, r3, #4
 8527 005c DCB2     		uxtb	r4, r3
 8528 005e 314B     		ldr	r3, .L345
 8529 0060 1B78     		ldrb	r3, [r3]	@ zero_extendqisi2
ARM GAS  C:\Users\Lenovo\AppData\Local\Temp\cccA9qMw.s 			page 190


 8530 0062 1A46     		mov	r2, r3
 8531 0064 1346     		mov	r3, r2
 8532 0066 5B00     		lsls	r3, r3, #1
 8533 0068 1344     		add	r3, r3, r2
 8534 006a 1A01     		lsls	r2, r3, #4
 8535 006c D31A     		subs	r3, r2, r3
 8536 006e 0233     		adds	r3, r3, #2
 8537 0070 1A46     		mov	r2, r3
 8538 0072 BB68     		ldr	r3, [r7, #8]
 8539 0074 1344     		add	r3, r3, r2
 8540 0076 1B78     		ldrb	r3, [r3]	@ zero_extendqisi2
 8541 0078 1846     		mov	r0, r3
 8542 007a FFF7FEFF 		bl	TranslateSpecialFuncionDigit
 8543 007e 0346     		mov	r3, r0
 8544 0080 DBB2     		uxtb	r3, r3
 8545 0082 2246     		mov	r2, r4
 8546 0084 1343     		orrs	r3, r3, r2
 8547 0086 DBB2     		uxtb	r3, r3
 8548 0088 FB75     		strb	r3, [r7, #23]
2200:.\AdvantageImpl.c ****         //plus 13 since there are some fixed bytes in the frame that sum that value
2201:.\AdvantageImpl.c ****         //msglength must be multiplied by 2 since this length is in words instead
2202:.\AdvantageImpl.c ****         //If more than 1 block is coming then the first blocks come full which means that they carr
2203:.\AdvantageImpl.c ****         //the maximum frame size which is 45 bytes (13 fixed bytes + 32 bytes for the message)
2204:.\AdvantageImpl.c ****         if(buffersize >= ((2*msglength + 13) + 45*index))
 8549              		.loc 1 2204 0
 8550 008a FA88     		ldrh	r2, [r7, #6]
 8551 008c FB7D     		ldrb	r3, [r7, #23]	@ zero_extendqisi2
 8552 008e 5B00     		lsls	r3, r3, #1
 8553 0090 03F10D01 		add	r1, r3, #13
 8554 0094 234B     		ldr	r3, .L345
 8555 0096 1B78     		ldrb	r3, [r3]	@ zero_extendqisi2
 8556 0098 1846     		mov	r0, r3
 8557 009a 0346     		mov	r3, r0
 8558 009c 5B00     		lsls	r3, r3, #1
 8559 009e 0344     		add	r3, r3, r0
 8560 00a0 1801     		lsls	r0, r3, #4
 8561 00a2 C31A     		subs	r3, r0, r3
 8562 00a4 0B44     		add	r3, r3, r1
 8563 00a6 9A42     		cmp	r2, r3
 8564 00a8 37DB     		blt	.L342
 8565              	.LBB58:
2205:.\AdvantageImpl.c ****         {
2206:.\AdvantageImpl.c ****             uint8 remblocks = (TranslateSpecialFuncionDigit(PSTRCAST(pbuffer)[7 + 45*index]) << 0x0
 8566              		.loc 1 2206 0
 8567 00aa 1E4B     		ldr	r3, .L345
 8568 00ac 1B78     		ldrb	r3, [r3]	@ zero_extendqisi2
 8569 00ae 1A46     		mov	r2, r3
 8570 00b0 1346     		mov	r3, r2
 8571 00b2 5B00     		lsls	r3, r3, #1
 8572 00b4 1344     		add	r3, r3, r2
 8573 00b6 1A01     		lsls	r2, r3, #4
 8574 00b8 D31A     		subs	r3, r2, r3
 8575 00ba 0733     		adds	r3, r3, #7
 8576 00bc 1A46     		mov	r2, r3
 8577 00be BB68     		ldr	r3, [r7, #8]
 8578 00c0 1344     		add	r3, r3, r2
 8579 00c2 1B78     		ldrb	r3, [r3]	@ zero_extendqisi2
ARM GAS  C:\Users\Lenovo\AppData\Local\Temp\cccA9qMw.s 			page 191


 8580 00c4 1846     		mov	r0, r3
 8581 00c6 FFF7FEFF 		bl	TranslateSpecialFuncionDigit
 8582 00ca 0346     		mov	r3, r0
 8583 00cc 1B01     		lsls	r3, r3, #4
 8584 00ce DCB2     		uxtb	r4, r3
 8585 00d0 144B     		ldr	r3, .L345
 8586 00d2 1B78     		ldrb	r3, [r3]	@ zero_extendqisi2
 8587 00d4 1A46     		mov	r2, r3
 8588 00d6 1346     		mov	r3, r2
 8589 00d8 5B00     		lsls	r3, r3, #1
 8590 00da 1344     		add	r3, r3, r2
 8591 00dc 1A01     		lsls	r2, r3, #4
 8592 00de D31A     		subs	r3, r2, r3
 8593 00e0 0833     		adds	r3, r3, #8
 8594 00e2 1A46     		mov	r2, r3
 8595 00e4 BB68     		ldr	r3, [r7, #8]
 8596 00e6 1344     		add	r3, r3, r2
 8597 00e8 1B78     		ldrb	r3, [r3]	@ zero_extendqisi2
 8598 00ea 1846     		mov	r0, r3
 8599 00ec FFF7FEFF 		bl	TranslateSpecialFuncionDigit
 8600 00f0 0346     		mov	r3, r0
 8601 00f2 DBB2     		uxtb	r3, r3
 8602 00f4 2246     		mov	r2, r4
 8603 00f6 1343     		orrs	r3, r3, r2
 8604 00f8 DBB2     		uxtb	r3, r3
 8605 00fa BB75     		strb	r3, [r7, #22]
2207:.\AdvantageImpl.c ****             if(remblocks == 0)
 8606              		.loc 1 2207 0
 8607 00fc BB7D     		ldrb	r3, [r7, #22]	@ zero_extendqisi2
 8608 00fe 002B     		cmp	r3, #0
 8609 0100 05D1     		bne	.L343
2208:.\AdvantageImpl.c ****             {
2209:.\AdvantageImpl.c ****                 index = 0;
 8610              		.loc 1 2209 0
 8611 0102 084B     		ldr	r3, .L345
 8612 0104 0022     		movs	r2, #0
 8613 0106 1A70     		strb	r2, [r3]
2210:.\AdvantageImpl.c ****                 retval = true;
 8614              		.loc 1 2210 0
 8615 0108 0123     		movs	r3, #1
 8616 010a FB77     		strb	r3, [r7, #31]
 8617 010c 05E0     		b	.L342
 8618              	.L343:
2211:.\AdvantageImpl.c ****             }else{
2212:.\AdvantageImpl.c ****                 index++;
 8619              		.loc 1 2212 0
 8620 010e 054B     		ldr	r3, .L345
 8621 0110 1B78     		ldrb	r3, [r3]	@ zero_extendqisi2
 8622 0112 0133     		adds	r3, r3, #1
 8623 0114 DAB2     		uxtb	r2, r3
 8624 0116 034B     		ldr	r3, .L345
 8625 0118 1A70     		strb	r2, [r3]
 8626              	.L342:
 8627              	.LBE58:
 8628              	.LBE57:
2213:.\AdvantageImpl.c ****             }
2214:.\AdvantageImpl.c ****         }
ARM GAS  C:\Users\Lenovo\AppData\Local\Temp\cccA9qMw.s 			page 192


2215:.\AdvantageImpl.c ****     }
2216:.\AdvantageImpl.c ****     return retval;
 8629              		.loc 1 2216 0
 8630 011a FB7F     		ldrb	r3, [r7, #31]	@ zero_extendqisi2
2217:.\AdvantageImpl.c **** }
 8631              		.loc 1 2217 0
 8632 011c 1846     		mov	r0, r3
 8633 011e 2437     		adds	r7, r7, #36
 8634              		.cfi_def_cfa_offset 12
 8635 0120 BD46     		mov	sp, r7
 8636              		.cfi_def_cfa_register 13
 8637              		@ sp needed
 8638 0122 90BD     		pop	{r4, r7, pc}
 8639              	.L346:
 8640              		.align	2
 8641              	.L345:
 8642 0124 00000000 		.word	index.9615
 8643              		.cfi_endproc
 8644              	.LFE93:
 8645              		.size	AcquirePumpSpecialFunctionResponseResolver, .-AcquirePumpSpecialFunctionResponseResolver
 8646              		.section	.text.PumpEnumeratorRequest,"ax",%progbits
 8647              		.align	2
 8648              		.global	PumpEnumeratorRequest
 8649              		.thumb
 8650              		.thumb_func
 8651              		.type	PumpEnumeratorRequest, %function
 8652              	PumpEnumeratorRequest:
 8653              	.LFB94:
2218:.\AdvantageImpl.c **** 
2219:.\AdvantageImpl.c **** //@Created By: HIJH
2220:.\AdvantageImpl.c **** //@Septembre de 2016
2221:.\AdvantageImpl.c **** void PumpEnumeratorRequest(LPVOID pparam)
2222:.\AdvantageImpl.c **** {
 8654              		.loc 1 2222 0
 8655              		.cfi_startproc
 8656              		@ args = 0, pretend = 0, frame = 24
 8657              		@ frame_needed = 1, uses_anonymous_args = 0
 8658 0000 80B5     		push	{r7, lr}
 8659              		.cfi_def_cfa_offset 8
 8660              		.cfi_offset 7, -8
 8661              		.cfi_offset 14, -4
 8662 0002 86B0     		sub	sp, sp, #24
 8663              		.cfi_def_cfa_offset 32
 8664 0004 00AF     		add	r7, sp, #0
 8665              		.cfi_def_cfa_register 7
 8666 0006 7860     		str	r0, [r7, #4]
2223:.\AdvantageImpl.c ****     PNEAR_PUMPPTR ppump = (PNEAR_PUMPPTR)pparam;
 8667              		.loc 1 2223 0
 8668 0008 7B68     		ldr	r3, [r7, #4]
 8669 000a 7B61     		str	r3, [r7, #20]
2224:.\AdvantageImpl.c ****     if(ppump)
 8670              		.loc 1 2224 0
 8671 000c 7B69     		ldr	r3, [r7, #20]
 8672 000e 002B     		cmp	r3, #0
 8673 0010 23D0     		beq	.L347
 8674              	.LBB59:
2225:.\AdvantageImpl.c ****     {
ARM GAS  C:\Users\Lenovo\AppData\Local\Temp\cccA9qMw.s 			page 193


2226:.\AdvantageImpl.c ****         uint8_t index = 0;
 8675              		.loc 1 2226 0
 8676 0012 0023     		movs	r3, #0
 8677 0014 FB74     		strb	r3, [r7, #19]
2227:.\AdvantageImpl.c ****         memset(ppump->_rxbuffer, 0x00, _PUMP_RX_BUFFER_SIZE_);
 8678              		.loc 1 2227 0
 8679 0016 7B69     		ldr	r3, [r7, #20]
 8680 0018 03F5D073 		add	r3, r3, #416
 8681 001c 1846     		mov	r0, r3
 8682 001e 0021     		movs	r1, #0
 8683 0020 4FF4C072 		mov	r2, #384
 8684 0024 FFF7FEFF 		bl	memset
2228:.\AdvantageImpl.c ****         PUARTMESSAGEPTR puartdisp = GetUARTMessageSlot(UART_DISPENSER);
 8685              		.loc 1 2228 0
 8686 0028 A220     		movs	r0, #162
 8687 002a FFF7FEFF 		bl	GetUARTMessageSlot
 8688 002e F860     		str	r0, [r7, #12]
2229:.\AdvantageImpl.c ****         if(puartdisp)
 8689              		.loc 1 2229 0
 8690 0030 FB68     		ldr	r3, [r7, #12]
 8691 0032 002B     		cmp	r3, #0
 8692 0034 11D0     		beq	.L347
2230:.\AdvantageImpl.c ****         {
2231:.\AdvantageImpl.c ****             puartdisp->_messagetx[index++] = PUMP_COMMAND(PUMP_STATE_REQUEST, ppump->_pumpid);
 8693              		.loc 1 2231 0
 8694 0036 FB7C     		ldrb	r3, [r7, #19]	@ zero_extendqisi2
 8695 0038 5A1C     		adds	r2, r3, #1
 8696 003a FA74     		strb	r2, [r7, #19]
 8697 003c 1946     		mov	r1, r3
 8698 003e 7B69     		ldr	r3, [r7, #20]
 8699 0040 1B78     		ldrb	r3, [r3]	@ zero_extendqisi2
 8700 0042 03F00F03 		and	r3, r3, #15
 8701 0046 DAB2     		uxtb	r2, r3
 8702 0048 FB68     		ldr	r3, [r7, #12]
 8703 004a 0B44     		add	r3, r3, r1
 8704 004c 1A71     		strb	r2, [r3, #4]
2232:.\AdvantageImpl.c ****             puartdisp->_messagelength = 1;//One byte
 8705              		.loc 1 2232 0
 8706 004e FB68     		ldr	r3, [r7, #12]
 8707 0050 0122     		movs	r2, #1
 8708 0052 5A80     		strh	r2, [r3, #2]	@ movhi
2233:.\AdvantageImpl.c ****             puartdisp->_messagestate = PENDING;
 8709              		.loc 1 2233 0
 8710 0054 FB68     		ldr	r3, [r7, #12]
 8711 0056 C222     		movs	r2, #194
 8712 0058 1A70     		strb	r2, [r3]
 8713              	.L347:
 8714              	.LBE59:
2234:.\AdvantageImpl.c ****         }
2235:.\AdvantageImpl.c ****     }
2236:.\AdvantageImpl.c **** }
 8715              		.loc 1 2236 0
 8716 005a 1837     		adds	r7, r7, #24
 8717              		.cfi_def_cfa_offset 8
 8718 005c BD46     		mov	sp, r7
 8719              		.cfi_def_cfa_register 13
 8720              		@ sp needed
ARM GAS  C:\Users\Lenovo\AppData\Local\Temp\cccA9qMw.s 			page 194


 8721 005e 80BD     		pop	{r7, pc}
 8722              		.cfi_endproc
 8723              	.LFE94:
 8724              		.size	PumpEnumeratorRequest, .-PumpEnumeratorRequest
 8725              		.section	.text.AcquirePumpEnumeratorResponse,"ax",%progbits
 8726              		.align	2
 8727              		.global	AcquirePumpEnumeratorResponse
 8728              		.thumb
 8729              		.thumb_func
 8730              		.type	AcquirePumpEnumeratorResponse, %function
 8731              	AcquirePumpEnumeratorResponse:
 8732              	.LFB95:
2237:.\AdvantageImpl.c **** 
2238:.\AdvantageImpl.c **** //@Created By: HIJH
2239:.\AdvantageImpl.c **** //@Septembre de 2016
2240:.\AdvantageImpl.c **** void AcquirePumpEnumeratorResponse(LPVOID pparam)
2241:.\AdvantageImpl.c **** {
 8733              		.loc 1 2241 0
 8734              		.cfi_startproc
 8735              		@ args = 0, pretend = 0, frame = 24
 8736              		@ frame_needed = 1, uses_anonymous_args = 0
 8737 0000 80B5     		push	{r7, lr}
 8738              		.cfi_def_cfa_offset 8
 8739              		.cfi_offset 7, -8
 8740              		.cfi_offset 14, -4
 8741 0002 86B0     		sub	sp, sp, #24
 8742              		.cfi_def_cfa_offset 32
 8743 0004 00AF     		add	r7, sp, #0
 8744              		.cfi_def_cfa_register 7
 8745 0006 7860     		str	r0, [r7, #4]
2242:.\AdvantageImpl.c ****     AcquirePumpStateResponse(pparam);
 8746              		.loc 1 2242 0
 8747 0008 7868     		ldr	r0, [r7, #4]
 8748 000a FFF7FEFF 		bl	AcquirePumpStateResponse
2243:.\AdvantageImpl.c ****     PPUMPTRANSACTIONJOBCONTEXTPTR pjob = (PPUMPTRANSACTIONJOBCONTEXTPTR)pparam;
 8749              		.loc 1 2243 0
 8750 000e 7B68     		ldr	r3, [r7, #4]
 8751 0010 7B61     		str	r3, [r7, #20]
2244:.\AdvantageImpl.c ****     if(pjob->_ppump->_datacontainer._var0 < 0xF)
 8752              		.loc 1 2244 0
 8753 0012 7B69     		ldr	r3, [r7, #20]
 8754 0014 DB69     		ldr	r3, [r3, #28]
 8755 0016 93F8683B 		ldrb	r3, [r3, #2920]
 8756 001a DBB2     		uxtb	r3, r3
 8757 001c 0E2B     		cmp	r3, #14
 8758 001e 00F2FA80 		bhi	.L350
2245:.\AdvantageImpl.c ****     {
2246:.\AdvantageImpl.c ****         switch(pjob->_ppump->_datacontainer._var1)
 8759              		.loc 1 2246 0
 8760 0022 7B69     		ldr	r3, [r7, #20]
 8761 0024 DB69     		ldr	r3, [r3, #28]
 8762 0026 93F8693B 		ldrb	r3, [r3, #2921]
 8763 002a DBB2     		uxtb	r3, r3
 8764 002c 032B     		cmp	r3, #3
 8765 002e 00F2C580 		bhi	.L351
 8766 0032 01A2     		adr	r2, .L353
 8767 0034 52F823F0 		ldr	pc, [r2, r3, lsl #2]
ARM GAS  C:\Users\Lenovo\AppData\Local\Temp\cccA9qMw.s 			page 195


 8768              		.p2align 2
 8769              	.L353:
 8770 0038 49000000 		.word	.L352+1
 8771 003c B5000000 		.word	.L354+1
 8772 0040 21010000 		.word	.L355+1
 8773 0044 8D010000 		.word	.L356+1
 8774              		.p2align 1
 8775              	.L352:
 8776              	.LBB60:
2247:.\AdvantageImpl.c ****         {
2248:.\AdvantageImpl.c ****             case 0:
2249:.\AdvantageImpl.c ****             {
2250:.\AdvantageImpl.c ****                 
2251:.\AdvantageImpl.c ****                 ClearEepromBuffer();
 8777              		.loc 1 2251 0
 8778 0048 FFF7FEFF 		bl	ClearEepromBuffer
2252:.\AdvantageImpl.c ****                 //Cleanup of the pump identifier in order to start the enumeration procedure
2253:.\AdvantageImpl.c ****                 LoadEepromPage(EEPROM_DISPENSER_PUMP1_LAYOUT_PAGE);
 8779              		.loc 1 2253 0
 8780 004c 4FF40070 		mov	r0, #512
 8781 0050 FFF7FEFF 		bl	LoadEepromPage
2254:.\AdvantageImpl.c ****                 GetEepromBuffer()[0] = pjob->_ppump->_pumpid;
 8782              		.loc 1 2254 0
 8783 0054 FFF7FEFF 		bl	GetEepromBuffer
 8784 0058 0246     		mov	r2, r0
 8785 005a 7B69     		ldr	r3, [r7, #20]
 8786 005c DB69     		ldr	r3, [r3, #28]
 8787 005e 1B78     		ldrb	r3, [r3]	@ zero_extendqisi2
 8788 0060 1370     		strb	r3, [r2]
2255:.\AdvantageImpl.c ****                 StoreEepromPage(EEPROM_DISPENSER_PUMP1_LAYOUT_PAGE);
 8789              		.loc 1 2255 0
 8790 0062 4FF40070 		mov	r0, #512
 8791 0066 FFF7FEFF 		bl	StoreEepromPage
2256:.\AdvantageImpl.c **** 
2257:.\AdvantageImpl.c ****                 uint8 var0 = pjob->_ppump->_datacontainer._var0;
 8792              		.loc 1 2257 0
 8793 006a 7B69     		ldr	r3, [r7, #20]
 8794 006c DB69     		ldr	r3, [r3, #28]
 8795 006e 93F8683B 		ldrb	r3, [r3, #2920]
 8796 0072 FB74     		strb	r3, [r7, #19]
2258:.\AdvantageImpl.c ****                 uint8 var1 = pjob->_ppump->_datacontainer._var1;
 8797              		.loc 1 2258 0
 8798 0074 7B69     		ldr	r3, [r7, #20]
 8799 0076 DB69     		ldr	r3, [r3, #28]
 8800 0078 93F8693B 		ldrb	r3, [r3, #2921]
 8801 007c BB74     		strb	r3, [r7, #18]
2259:.\AdvantageImpl.c ****                 pjob->_ppump = &_g_pumps[var1 + 1];
 8802              		.loc 1 2259 0
 8803 007e BB7C     		ldrb	r3, [r7, #18]	@ zero_extendqisi2
 8804 0080 0133     		adds	r3, r3, #1
 8805 0082 40F6C832 		movw	r2, #3016
 8806 0086 02FB03F3 		mul	r3, r2, r3
 8807 008a 694A     		ldr	r2, .L360
 8808 008c 1A44     		add	r2, r2, r3
 8809 008e 7B69     		ldr	r3, [r7, #20]
 8810 0090 DA61     		str	r2, [r3, #28]
2260:.\AdvantageImpl.c ****                 pjob->_ppump->_datacontainer._var1 = var1;
ARM GAS  C:\Users\Lenovo\AppData\Local\Temp\cccA9qMw.s 			page 196


 8811              		.loc 1 2260 0
 8812 0092 7B69     		ldr	r3, [r7, #20]
 8813 0094 DB69     		ldr	r3, [r3, #28]
 8814 0096 BA7C     		ldrb	r2, [r7, #18]
 8815 0098 83F8692B 		strb	r2, [r3, #2921]
2261:.\AdvantageImpl.c ****                 pjob->_ppump->_datacontainer._var0 = var0;
 8816              		.loc 1 2261 0
 8817 009c 7B69     		ldr	r3, [r7, #20]
 8818 009e DB69     		ldr	r3, [r3, #28]
 8819 00a0 FA7C     		ldrb	r2, [r7, #19]
 8820 00a2 83F8682B 		strb	r2, [r3, #2920]
2262:.\AdvantageImpl.c ****                 _g_dispenserlayoutinfo._numpositions++;
 8821              		.loc 1 2262 0
 8822 00a6 634B     		ldr	r3, .L360+4
 8823 00a8 9B78     		ldrb	r3, [r3, #2]	@ zero_extendqisi2
 8824 00aa 0133     		adds	r3, r3, #1
 8825 00ac DAB2     		uxtb	r2, r3
 8826 00ae 614B     		ldr	r3, .L360+4
 8827 00b0 9A70     		strb	r2, [r3, #2]
2263:.\AdvantageImpl.c ****                 
2264:.\AdvantageImpl.c ****                 break;
 8828              		.loc 1 2264 0
 8829 00b2 83E0     		b	.L351
 8830              	.L354:
 8831              	.LBE60:
 8832              	.LBB61:
2265:.\AdvantageImpl.c ****             }
2266:.\AdvantageImpl.c ****             case 1:
2267:.\AdvantageImpl.c ****             {
2268:.\AdvantageImpl.c ****                 
2269:.\AdvantageImpl.c ****                 ClearEepromBuffer();
 8833              		.loc 1 2269 0
 8834 00b4 FFF7FEFF 		bl	ClearEepromBuffer
2270:.\AdvantageImpl.c ****                 //Cleanup of the pump identifier in order to start the enumeration procedure
2271:.\AdvantageImpl.c ****                 LoadEepromPage(EEPROM_DISPENSER_PUMP2_LAYOUT_PAGE);
 8835              		.loc 1 2271 0
 8836 00b8 4FF41070 		mov	r0, #576
 8837 00bc FFF7FEFF 		bl	LoadEepromPage
2272:.\AdvantageImpl.c ****                 GetEepromBuffer()[0] = pjob->_ppump->_pumpid;
 8838              		.loc 1 2272 0
 8839 00c0 FFF7FEFF 		bl	GetEepromBuffer
 8840 00c4 0246     		mov	r2, r0
 8841 00c6 7B69     		ldr	r3, [r7, #20]
 8842 00c8 DB69     		ldr	r3, [r3, #28]
 8843 00ca 1B78     		ldrb	r3, [r3]	@ zero_extendqisi2
 8844 00cc 1370     		strb	r3, [r2]
2273:.\AdvantageImpl.c ****                 StoreEepromPage(EEPROM_DISPENSER_PUMP2_LAYOUT_PAGE);
 8845              		.loc 1 2273 0
 8846 00ce 4FF41070 		mov	r0, #576
 8847 00d2 FFF7FEFF 		bl	StoreEepromPage
2274:.\AdvantageImpl.c ****                 
2275:.\AdvantageImpl.c ****                 uint8 var0 = pjob->_ppump->_datacontainer._var0;
 8848              		.loc 1 2275 0
 8849 00d6 7B69     		ldr	r3, [r7, #20]
 8850 00d8 DB69     		ldr	r3, [r3, #28]
 8851 00da 93F8683B 		ldrb	r3, [r3, #2920]
 8852 00de 7B74     		strb	r3, [r7, #17]
ARM GAS  C:\Users\Lenovo\AppData\Local\Temp\cccA9qMw.s 			page 197


2276:.\AdvantageImpl.c ****                 uint8 var1 = pjob->_ppump->_datacontainer._var1;
 8853              		.loc 1 2276 0
 8854 00e0 7B69     		ldr	r3, [r7, #20]
 8855 00e2 DB69     		ldr	r3, [r3, #28]
 8856 00e4 93F8693B 		ldrb	r3, [r3, #2921]
 8857 00e8 3B74     		strb	r3, [r7, #16]
2277:.\AdvantageImpl.c ****                 pjob->_ppump = &_g_pumps[var1 + 1];
 8858              		.loc 1 2277 0
 8859 00ea 3B7C     		ldrb	r3, [r7, #16]	@ zero_extendqisi2
 8860 00ec 0133     		adds	r3, r3, #1
 8861 00ee 40F6C832 		movw	r2, #3016
 8862 00f2 02FB03F3 		mul	r3, r2, r3
 8863 00f6 4E4A     		ldr	r2, .L360
 8864 00f8 1A44     		add	r2, r2, r3
 8865 00fa 7B69     		ldr	r3, [r7, #20]
 8866 00fc DA61     		str	r2, [r3, #28]
2278:.\AdvantageImpl.c ****                 pjob->_ppump->_datacontainer._var1 = var1;
 8867              		.loc 1 2278 0
 8868 00fe 7B69     		ldr	r3, [r7, #20]
 8869 0100 DB69     		ldr	r3, [r3, #28]
 8870 0102 3A7C     		ldrb	r2, [r7, #16]
 8871 0104 83F8692B 		strb	r2, [r3, #2921]
2279:.\AdvantageImpl.c ****                 pjob->_ppump->_datacontainer._var0 = var0;
 8872              		.loc 1 2279 0
 8873 0108 7B69     		ldr	r3, [r7, #20]
 8874 010a DB69     		ldr	r3, [r3, #28]
 8875 010c 7A7C     		ldrb	r2, [r7, #17]
 8876 010e 83F8682B 		strb	r2, [r3, #2920]
2280:.\AdvantageImpl.c ****                 _g_dispenserlayoutinfo._numpositions++;
 8877              		.loc 1 2280 0
 8878 0112 484B     		ldr	r3, .L360+4
 8879 0114 9B78     		ldrb	r3, [r3, #2]	@ zero_extendqisi2
 8880 0116 0133     		adds	r3, r3, #1
 8881 0118 DAB2     		uxtb	r2, r3
 8882 011a 464B     		ldr	r3, .L360+4
 8883 011c 9A70     		strb	r2, [r3, #2]
2281:.\AdvantageImpl.c ****                 
2282:.\AdvantageImpl.c ****                 break;
 8884              		.loc 1 2282 0
 8885 011e 4DE0     		b	.L351
 8886              	.L355:
 8887              	.LBE61:
 8888              	.LBB62:
2283:.\AdvantageImpl.c ****             }
2284:.\AdvantageImpl.c ****             case 2:
2285:.\AdvantageImpl.c ****             {
2286:.\AdvantageImpl.c ****                 
2287:.\AdvantageImpl.c ****                 ClearEepromBuffer();
 8889              		.loc 1 2287 0
 8890 0120 FFF7FEFF 		bl	ClearEepromBuffer
2288:.\AdvantageImpl.c ****                 //Cleanup of the pump identifier in order to start the enumeration procedure
2289:.\AdvantageImpl.c ****                 LoadEepromPage(EEPROM_DISPENSER_PUMP3_LAYOUT_PAGE);
 8891              		.loc 1 2289 0
 8892 0124 4FF42070 		mov	r0, #640
 8893 0128 FFF7FEFF 		bl	LoadEepromPage
2290:.\AdvantageImpl.c ****                 GetEepromBuffer()[0] = pjob->_ppump->_pumpid;
 8894              		.loc 1 2290 0
ARM GAS  C:\Users\Lenovo\AppData\Local\Temp\cccA9qMw.s 			page 198


 8895 012c FFF7FEFF 		bl	GetEepromBuffer
 8896 0130 0246     		mov	r2, r0
 8897 0132 7B69     		ldr	r3, [r7, #20]
 8898 0134 DB69     		ldr	r3, [r3, #28]
 8899 0136 1B78     		ldrb	r3, [r3]	@ zero_extendqisi2
 8900 0138 1370     		strb	r3, [r2]
2291:.\AdvantageImpl.c ****                 StoreEepromPage(EEPROM_DISPENSER_PUMP3_LAYOUT_PAGE);
 8901              		.loc 1 2291 0
 8902 013a 4FF42070 		mov	r0, #640
 8903 013e FFF7FEFF 		bl	StoreEepromPage
2292:.\AdvantageImpl.c ****                 
2293:.\AdvantageImpl.c ****                 uint8 var0 = pjob->_ppump->_datacontainer._var0;
 8904              		.loc 1 2293 0
 8905 0142 7B69     		ldr	r3, [r7, #20]
 8906 0144 DB69     		ldr	r3, [r3, #28]
 8907 0146 93F8683B 		ldrb	r3, [r3, #2920]
 8908 014a FB73     		strb	r3, [r7, #15]
2294:.\AdvantageImpl.c ****                 uint8 var1 = pjob->_ppump->_datacontainer._var1;
 8909              		.loc 1 2294 0
 8910 014c 7B69     		ldr	r3, [r7, #20]
 8911 014e DB69     		ldr	r3, [r3, #28]
 8912 0150 93F8693B 		ldrb	r3, [r3, #2921]
 8913 0154 BB73     		strb	r3, [r7, #14]
2295:.\AdvantageImpl.c ****                 pjob->_ppump = &_g_pumps[var1 + 1];
 8914              		.loc 1 2295 0
 8915 0156 BB7B     		ldrb	r3, [r7, #14]	@ zero_extendqisi2
 8916 0158 0133     		adds	r3, r3, #1
 8917 015a 40F6C832 		movw	r2, #3016
 8918 015e 02FB03F3 		mul	r3, r2, r3
 8919 0162 334A     		ldr	r2, .L360
 8920 0164 1A44     		add	r2, r2, r3
 8921 0166 7B69     		ldr	r3, [r7, #20]
 8922 0168 DA61     		str	r2, [r3, #28]
2296:.\AdvantageImpl.c ****                 pjob->_ppump->_datacontainer._var1 = var1;
 8923              		.loc 1 2296 0
 8924 016a 7B69     		ldr	r3, [r7, #20]
 8925 016c DB69     		ldr	r3, [r3, #28]
 8926 016e BA7B     		ldrb	r2, [r7, #14]
 8927 0170 83F8692B 		strb	r2, [r3, #2921]
2297:.\AdvantageImpl.c ****                 pjob->_ppump->_datacontainer._var0 = var0;
 8928              		.loc 1 2297 0
 8929 0174 7B69     		ldr	r3, [r7, #20]
 8930 0176 DB69     		ldr	r3, [r3, #28]
 8931 0178 FA7B     		ldrb	r2, [r7, #15]
 8932 017a 83F8682B 		strb	r2, [r3, #2920]
2298:.\AdvantageImpl.c ****                 _g_dispenserlayoutinfo._numpositions++;
 8933              		.loc 1 2298 0
 8934 017e 2D4B     		ldr	r3, .L360+4
 8935 0180 9B78     		ldrb	r3, [r3, #2]	@ zero_extendqisi2
 8936 0182 0133     		adds	r3, r3, #1
 8937 0184 DAB2     		uxtb	r2, r3
 8938 0186 2B4B     		ldr	r3, .L360+4
 8939 0188 9A70     		strb	r2, [r3, #2]
2299:.\AdvantageImpl.c ****                 
2300:.\AdvantageImpl.c ****                 break;
 8940              		.loc 1 2300 0
 8941 018a 17E0     		b	.L351
ARM GAS  C:\Users\Lenovo\AppData\Local\Temp\cccA9qMw.s 			page 199


 8942              	.L356:
 8943              	.LBE62:
2301:.\AdvantageImpl.c ****             }
2302:.\AdvantageImpl.c ****             case 3:
2303:.\AdvantageImpl.c ****             {
2304:.\AdvantageImpl.c ****                 
2305:.\AdvantageImpl.c ****                 ClearEepromBuffer();
 8944              		.loc 1 2305 0
 8945 018c FFF7FEFF 		bl	ClearEepromBuffer
2306:.\AdvantageImpl.c ****                 //Cleanup of the pump identifier in order to start the enumeration procedure
2307:.\AdvantageImpl.c ****                 LoadEepromPage(EEPROM_DISPENSER_PUMP4_LAYOUT_PAGE);
 8946              		.loc 1 2307 0
 8947 0190 4FF43070 		mov	r0, #704
 8948 0194 FFF7FEFF 		bl	LoadEepromPage
2308:.\AdvantageImpl.c ****                 GetEepromBuffer()[0] = pjob->_ppump->_pumpid;                
 8949              		.loc 1 2308 0
 8950 0198 FFF7FEFF 		bl	GetEepromBuffer
 8951 019c 0246     		mov	r2, r0
 8952 019e 7B69     		ldr	r3, [r7, #20]
 8953 01a0 DB69     		ldr	r3, [r3, #28]
 8954 01a2 1B78     		ldrb	r3, [r3]	@ zero_extendqisi2
 8955 01a4 1370     		strb	r3, [r2]
2309:.\AdvantageImpl.c ****                 StoreEepromPage(EEPROM_DISPENSER_PUMP4_LAYOUT_PAGE);
 8956              		.loc 1 2309 0
 8957 01a6 4FF43070 		mov	r0, #704
 8958 01aa FFF7FEFF 		bl	StoreEepromPage
2310:.\AdvantageImpl.c ****                 _g_dispenserlayoutinfo._numpositions++;
 8959              		.loc 1 2310 0
 8960 01ae 214B     		ldr	r3, .L360+4
 8961 01b0 9B78     		ldrb	r3, [r3, #2]	@ zero_extendqisi2
 8962 01b2 0133     		adds	r3, r3, #1
 8963 01b4 DAB2     		uxtb	r2, r3
 8964 01b6 1F4B     		ldr	r3, .L360+4
 8965 01b8 9A70     		strb	r2, [r3, #2]
2311:.\AdvantageImpl.c ****                 
2312:.\AdvantageImpl.c ****                 break;
 8966              		.loc 1 2312 0
 8967 01ba 00BF     		nop
 8968              	.L351:
2313:.\AdvantageImpl.c ****             }
2314:.\AdvantageImpl.c ****         }
2315:.\AdvantageImpl.c ****         pjob->_ppump->_datacontainer._var1++;
 8969              		.loc 1 2315 0
 8970 01bc 7B69     		ldr	r3, [r7, #20]
 8971 01be DB69     		ldr	r3, [r3, #28]
 8972 01c0 93F8692B 		ldrb	r2, [r3, #2921]
 8973 01c4 D2B2     		uxtb	r2, r2
 8974 01c6 0132     		adds	r2, r2, #1
 8975 01c8 D2B2     		uxtb	r2, r2
 8976 01ca 83F8692B 		strb	r2, [r3, #2921]
2316:.\AdvantageImpl.c ****         if(pjob->_ppump->_datacontainer._var1 < _MAX_NUMBER_OF_PUMPS_)
 8977              		.loc 1 2316 0
 8978 01ce 7B69     		ldr	r3, [r7, #20]
 8979 01d0 DB69     		ldr	r3, [r3, #28]
 8980 01d2 93F8693B 		ldrb	r3, [r3, #2921]
 8981 01d6 DBB2     		uxtb	r3, r3
 8982 01d8 032B     		cmp	r3, #3
ARM GAS  C:\Users\Lenovo\AppData\Local\Temp\cccA9qMw.s 			page 200


 8983 01da 11D8     		bhi	.L357
2317:.\AdvantageImpl.c ****         {
2318:.\AdvantageImpl.c ****             pjob->_ppump->_datacontainer._var0++;
 8984              		.loc 1 2318 0
 8985 01dc 7B69     		ldr	r3, [r7, #20]
 8986 01de DB69     		ldr	r3, [r3, #28]
 8987 01e0 93F8682B 		ldrb	r2, [r3, #2920]
 8988 01e4 D2B2     		uxtb	r2, r2
 8989 01e6 0132     		adds	r2, r2, #1
 8990 01e8 D2B2     		uxtb	r2, r2
 8991 01ea 83F8682B 		strb	r2, [r3, #2920]
2319:.\AdvantageImpl.c ****             pjob->_ppump->_pumpid = pjob->_ppump->_datacontainer._var0;
 8992              		.loc 1 2319 0
 8993 01ee 7B69     		ldr	r3, [r7, #20]
 8994 01f0 DB69     		ldr	r3, [r3, #28]
 8995 01f2 7A69     		ldr	r2, [r7, #20]
 8996 01f4 D269     		ldr	r2, [r2, #28]
 8997 01f6 92F8682B 		ldrb	r2, [r2, #2920]
 8998 01fa D2B2     		uxtb	r2, r2
 8999 01fc 1A70     		strb	r2, [r3]
 9000 01fe 14E0     		b	.L349
 9001              	.L357:
2320:.\AdvantageImpl.c ****         }else{//This is the end of the enumeration procedure
2321:.\AdvantageImpl.c ****             pjob->_reenqueue = false;
 9002              		.loc 1 2321 0
 9003 0200 7B69     		ldr	r3, [r7, #20]
 9004 0202 0022     		movs	r2, #0
 9005 0204 1A70     		strb	r2, [r3]
2322:.\AdvantageImpl.c ****             
2323:.\AdvantageImpl.c ****             //Chance for any extra initialization
2324:.\AdvantageImpl.c ****             if(_g_ptractprogramming == PNEAR_NULLPTR)
 9006              		.loc 1 2324 0
 9007 0206 0C4B     		ldr	r3, .L360+8
 9008 0208 1B68     		ldr	r3, [r3]
 9009 020a 002B     		cmp	r3, #0
 9010 020c 0DD1     		bne	.L349
2325:.\AdvantageImpl.c ****                 _g_ptractprogramming = AdvantageActivateProgramming;
 9011              		.loc 1 2325 0
 9012 020e 0A4B     		ldr	r3, .L360+8
 9013 0210 0A4A     		ldr	r2, .L360+12
 9014 0212 1A60     		str	r2, [r3]
 9015 0214 09E0     		b	.L349
 9016              	.L350:
2326:.\AdvantageImpl.c ****         }
2327:.\AdvantageImpl.c ****         
2328:.\AdvantageImpl.c ****     }else{//This is the end of the enumeration procedure
2329:.\AdvantageImpl.c ****         pjob->_reenqueue = false;
 9017              		.loc 1 2329 0
 9018 0216 7B69     		ldr	r3, [r7, #20]
 9019 0218 0022     		movs	r2, #0
 9020 021a 1A70     		strb	r2, [r3]
2330:.\AdvantageImpl.c ****         
2331:.\AdvantageImpl.c ****         //Chance for any extra initialization
2332:.\AdvantageImpl.c ****         if(_g_ptractprogramming == PNEAR_NULLPTR)
 9021              		.loc 1 2332 0
 9022 021c 064B     		ldr	r3, .L360+8
 9023 021e 1B68     		ldr	r3, [r3]
ARM GAS  C:\Users\Lenovo\AppData\Local\Temp\cccA9qMw.s 			page 201


 9024 0220 002B     		cmp	r3, #0
 9025 0222 02D1     		bne	.L349
2333:.\AdvantageImpl.c ****             _g_ptractprogramming = AdvantageActivateProgramming;
 9026              		.loc 1 2333 0
 9027 0224 044B     		ldr	r3, .L360+8
 9028 0226 054A     		ldr	r2, .L360+12
 9029 0228 1A60     		str	r2, [r3]
 9030              	.L349:
2334:.\AdvantageImpl.c ****     }
2335:.\AdvantageImpl.c **** }
 9031              		.loc 1 2335 0
 9032 022a 1837     		adds	r7, r7, #24
 9033              		.cfi_def_cfa_offset 8
 9034 022c BD46     		mov	sp, r7
 9035              		.cfi_def_cfa_register 13
 9036              		@ sp needed
 9037 022e 80BD     		pop	{r7, pc}
 9038              	.L361:
 9039              		.align	2
 9040              	.L360:
 9041 0230 00000000 		.word	_g_pumps
 9042 0234 00000000 		.word	_g_dispenserlayoutinfo
 9043 0238 00000000 		.word	_g_ptractprogramming
 9044 023c 00000000 		.word	AdvantageActivateProgramming
 9045              		.cfi_endproc
 9046              	.LFE95:
 9047              		.size	AcquirePumpEnumeratorResponse, .-AcquirePumpEnumeratorResponse
 9048              		.section	.text.PumpEnumeratorTimeout,"ax",%progbits
 9049              		.align	2
 9050              		.global	PumpEnumeratorTimeout
 9051              		.thumb
 9052              		.thumb_func
 9053              		.type	PumpEnumeratorTimeout, %function
 9054              	PumpEnumeratorTimeout:
 9055              	.LFB96:
2336:.\AdvantageImpl.c **** 
2337:.\AdvantageImpl.c **** //@Created By: HIJH
2338:.\AdvantageImpl.c **** //@Septembre de 2016
2339:.\AdvantageImpl.c **** void PumpEnumeratorTimeout(void *pparam)
2340:.\AdvantageImpl.c **** {
 9056              		.loc 1 2340 0
 9057              		.cfi_startproc
 9058              		@ args = 0, pretend = 0, frame = 16
 9059              		@ frame_needed = 1, uses_anonymous_args = 0
 9060              		@ link register save eliminated.
 9061 0000 80B4     		push	{r7}
 9062              		.cfi_def_cfa_offset 4
 9063              		.cfi_offset 7, -4
 9064 0002 85B0     		sub	sp, sp, #20
 9065              		.cfi_def_cfa_offset 24
 9066 0004 00AF     		add	r7, sp, #0
 9067              		.cfi_def_cfa_register 7
 9068 0006 7860     		str	r0, [r7, #4]
2341:.\AdvantageImpl.c ****     PPUMPTRANSACTIONJOBCONTEXTPTR pjob = (PPUMPTRANSACTIONJOBCONTEXTPTR)pparam;
 9069              		.loc 1 2341 0
 9070 0008 7B68     		ldr	r3, [r7, #4]
 9071 000a FB60     		str	r3, [r7, #12]
ARM GAS  C:\Users\Lenovo\AppData\Local\Temp\cccA9qMw.s 			page 202


2342:.\AdvantageImpl.c ****     //_var0 holds the iterator index that goes from 0x0:pump16 to 0xF:pump15
2343:.\AdvantageImpl.c ****     if(pjob->_ppump->_datacontainer._var0 < 0x10)
 9072              		.loc 1 2343 0
 9073 000c FB68     		ldr	r3, [r7, #12]
 9074 000e DB69     		ldr	r3, [r3, #28]
 9075 0010 93F8683B 		ldrb	r3, [r3, #2920]
 9076 0014 DBB2     		uxtb	r3, r3
 9077 0016 0F2B     		cmp	r3, #15
 9078 0018 14D8     		bhi	.L363
2344:.\AdvantageImpl.c ****     {
2345:.\AdvantageImpl.c ****         pjob->_retriescounter = 0;
 9079              		.loc 1 2345 0
 9080 001a FB68     		ldr	r3, [r7, #12]
 9081 001c 0022     		movs	r2, #0
 9082 001e DA81     		strh	r2, [r3, #14]	@ movhi
2346:.\AdvantageImpl.c ****         pjob->_ppump->_datacontainer._var0++;
 9083              		.loc 1 2346 0
 9084 0020 FB68     		ldr	r3, [r7, #12]
 9085 0022 DB69     		ldr	r3, [r3, #28]
 9086 0024 93F8682B 		ldrb	r2, [r3, #2920]
 9087 0028 D2B2     		uxtb	r2, r2
 9088 002a 0132     		adds	r2, r2, #1
 9089 002c D2B2     		uxtb	r2, r2
 9090 002e 83F8682B 		strb	r2, [r3, #2920]
2347:.\AdvantageImpl.c ****         pjob->_ppump->_pumpid = pjob->_ppump->_datacontainer._var0;
 9091              		.loc 1 2347 0
 9092 0032 FB68     		ldr	r3, [r7, #12]
 9093 0034 DB69     		ldr	r3, [r3, #28]
 9094 0036 FA68     		ldr	r2, [r7, #12]
 9095 0038 D269     		ldr	r2, [r2, #28]
 9096 003a 92F8682B 		ldrb	r2, [r2, #2920]
 9097 003e D2B2     		uxtb	r2, r2
 9098 0040 1A70     		strb	r2, [r3]
 9099 0042 09E0     		b	.L362
 9100              	.L363:
2348:.\AdvantageImpl.c ****     }else{
2349:.\AdvantageImpl.c ****         pjob->_reenqueue = false;
 9101              		.loc 1 2349 0
 9102 0044 FB68     		ldr	r3, [r7, #12]
 9103 0046 0022     		movs	r2, #0
 9104 0048 1A70     		strb	r2, [r3]
2350:.\AdvantageImpl.c ****         
2351:.\AdvantageImpl.c ****         if(_g_ptractprogramming == PNEAR_NULLPTR)
 9105              		.loc 1 2351 0
 9106 004a 064B     		ldr	r3, .L365
 9107 004c 1B68     		ldr	r3, [r3]
 9108 004e 002B     		cmp	r3, #0
 9109 0050 02D1     		bne	.L362
2352:.\AdvantageImpl.c ****             _g_ptractprogramming = AdvantageActivateProgramming;
 9110              		.loc 1 2352 0
 9111 0052 044B     		ldr	r3, .L365
 9112 0054 044A     		ldr	r2, .L365+4
 9113 0056 1A60     		str	r2, [r3]
 9114              	.L362:
2353:.\AdvantageImpl.c ****     }
2354:.\AdvantageImpl.c **** }
 9115              		.loc 1 2354 0
ARM GAS  C:\Users\Lenovo\AppData\Local\Temp\cccA9qMw.s 			page 203


 9116 0058 1437     		adds	r7, r7, #20
 9117              		.cfi_def_cfa_offset 4
 9118 005a BD46     		mov	sp, r7
 9119              		.cfi_def_cfa_register 13
 9120              		@ sp needed
 9121 005c 5DF8047B 		ldr	r7, [sp], #4
 9122              		.cfi_restore 7
 9123              		.cfi_def_cfa_offset 0
 9124 0060 7047     		bx	lr
 9125              	.L366:
 9126 0062 00BF     		.align	2
 9127              	.L365:
 9128 0064 00000000 		.word	_g_ptractprogramming
 9129 0068 00000000 		.word	AdvantageActivateProgramming
 9130              		.cfi_endproc
 9131              	.LFE96:
 9132              		.size	PumpEnumeratorTimeout, .-PumpEnumeratorTimeout
 9133              		.section	.text.AcquirePumpTotalsResponseResolver,"ax",%progbits
 9134              		.align	2
 9135              		.global	AcquirePumpTotalsResponseResolver
 9136              		.thumb
 9137              		.thumb_func
 9138              		.type	AcquirePumpTotalsResponseResolver, %function
 9139              	AcquirePumpTotalsResponseResolver:
 9140              	.LFB97:
2355:.\AdvantageImpl.c **** 
2356:.\AdvantageImpl.c **** //@Created By: HIJH
2357:.\AdvantageImpl.c **** //@Septembre de 2016
2358:.\AdvantageImpl.c **** bool AcquirePumpTotalsResponseResolver(void *pparam, void *pbuffer, uint16 buffersize)
2359:.\AdvantageImpl.c **** {
 9141              		.loc 1 2359 0
 9142              		.cfi_startproc
 9143              		@ args = 0, pretend = 0, frame = 24
 9144              		@ frame_needed = 1, uses_anonymous_args = 0
 9145              		@ link register save eliminated.
 9146 0000 80B4     		push	{r7}
 9147              		.cfi_def_cfa_offset 4
 9148              		.cfi_offset 7, -4
 9149 0002 87B0     		sub	sp, sp, #28
 9150              		.cfi_def_cfa_offset 32
 9151 0004 00AF     		add	r7, sp, #0
 9152              		.cfi_def_cfa_register 7
 9153 0006 F860     		str	r0, [r7, #12]
 9154 0008 B960     		str	r1, [r7, #8]
 9155 000a 1346     		mov	r3, r2
 9156 000c FB80     		strh	r3, [r7, #6]	@ movhi
2360:.\AdvantageImpl.c ****     bool retval = false;
 9157              		.loc 1 2360 0
 9158 000e 0023     		movs	r3, #0
 9159 0010 FB75     		strb	r3, [r7, #23]
2361:.\AdvantageImpl.c ****     PNEAR_PUMPPTR ppump = (PNEAR_PUMPPTR)pparam;
 9160              		.loc 1 2361 0
 9161 0012 FB68     		ldr	r3, [r7, #12]
 9162 0014 3B61     		str	r3, [r7, #16]
2362:.\AdvantageImpl.c ****     
2363:.\AdvantageImpl.c ****     if(_g_dispenserlayoutinfo._displaydigitsmode == 0x06)
 9163              		.loc 1 2363 0
ARM GAS  C:\Users\Lenovo\AppData\Local\Temp\cccA9qMw.s 			page 204


 9164 0016 504B     		ldr	r3, .L382
 9165 0018 1B7C     		ldrb	r3, [r3, #16]	@ zero_extendqisi2
 9166 001a 062B     		cmp	r3, #6
 9167 001c 4DD1     		bne	.L368
2364:.\AdvantageImpl.c ****     {            
2365:.\AdvantageImpl.c ****         switch(ppump->_pumpindex)
 9168              		.loc 1 2365 0
 9169 001e 3B69     		ldr	r3, [r7, #16]
 9170 0020 5B78     		ldrb	r3, [r3, #1]	@ zero_extendqisi2
 9171 0022 032B     		cmp	r3, #3
 9172 0024 00F29080 		bhi	.L375
 9173 0028 01A2     		adr	r2, .L371
 9174 002a 52F823F0 		ldr	pc, [r2, r3, lsl #2]
 9175 002e 00BF     		.p2align 2
 9176              	.L371:
 9177 0030 41000000 		.word	.L370+1
 9178 0034 5F000000 		.word	.L372+1
 9179 0038 7D000000 		.word	.L373+1
 9180 003c 9B000000 		.word	.L374+1
 9181              		.p2align 1
 9182              	.L370:
2366:.\AdvantageImpl.c ****         {
2367:.\AdvantageImpl.c ****             case 0x00:
2368:.\AdvantageImpl.c ****                 retval = (buffersize >= (_g_dispenserlayoutinfo._hosesposition1*_PUMP_TOTALS_BUFFER
 9183              		.loc 1 2368 0
 9184 0040 FA88     		ldrh	r2, [r7, #6]
 9185 0042 454B     		ldr	r3, .L382
 9186 0044 DB78     		ldrb	r3, [r3, #3]	@ zero_extendqisi2
 9187 0046 1946     		mov	r1, r3
 9188 0048 0B46     		mov	r3, r1
 9189 004a 1B01     		lsls	r3, r3, #4
 9190 004c 5B1A     		subs	r3, r3, r1
 9191 004e 5B00     		lsls	r3, r3, #1
 9192 0050 0433     		adds	r3, r3, #4
 9193 0052 9A42     		cmp	r2, r3
 9194 0054 ACBF     		ite	ge
 9195 0056 0123     		movge	r3, #1
 9196 0058 0023     		movlt	r3, #0
 9197 005a FB75     		strb	r3, [r7, #23]
2369:.\AdvantageImpl.c ****             break;
 9198              		.loc 1 2369 0
 9199 005c 2CE0     		b	.L369
 9200              	.L372:
2370:.\AdvantageImpl.c ****             case 0x01:
2371:.\AdvantageImpl.c ****                 retval = (buffersize >= (_g_dispenserlayoutinfo._hosesposition2*_PUMP_TOTALS_BUFFER
 9201              		.loc 1 2371 0
 9202 005e FA88     		ldrh	r2, [r7, #6]
 9203 0060 3D4B     		ldr	r3, .L382
 9204 0062 1B79     		ldrb	r3, [r3, #4]	@ zero_extendqisi2
 9205 0064 1946     		mov	r1, r3
 9206 0066 0B46     		mov	r3, r1
 9207 0068 1B01     		lsls	r3, r3, #4
 9208 006a 5B1A     		subs	r3, r3, r1
 9209 006c 5B00     		lsls	r3, r3, #1
 9210 006e 0433     		adds	r3, r3, #4
 9211 0070 9A42     		cmp	r2, r3
 9212 0072 ACBF     		ite	ge
ARM GAS  C:\Users\Lenovo\AppData\Local\Temp\cccA9qMw.s 			page 205


 9213 0074 0123     		movge	r3, #1
 9214 0076 0023     		movlt	r3, #0
 9215 0078 FB75     		strb	r3, [r7, #23]
2372:.\AdvantageImpl.c ****             break;
 9216              		.loc 1 2372 0
 9217 007a 1DE0     		b	.L369
 9218              	.L373:
2373:.\AdvantageImpl.c ****             case 0x02:
2374:.\AdvantageImpl.c ****                 retval = (buffersize >= (_g_dispenserlayoutinfo._hosesposition3*_PUMP_TOTALS_BUFFER
 9219              		.loc 1 2374 0
 9220 007c FA88     		ldrh	r2, [r7, #6]
 9221 007e 364B     		ldr	r3, .L382
 9222 0080 5B79     		ldrb	r3, [r3, #5]	@ zero_extendqisi2
 9223 0082 1946     		mov	r1, r3
 9224 0084 0B46     		mov	r3, r1
 9225 0086 1B01     		lsls	r3, r3, #4
 9226 0088 5B1A     		subs	r3, r3, r1
 9227 008a 5B00     		lsls	r3, r3, #1
 9228 008c 0433     		adds	r3, r3, #4
 9229 008e 9A42     		cmp	r2, r3
 9230 0090 ACBF     		ite	ge
 9231 0092 0123     		movge	r3, #1
 9232 0094 0023     		movlt	r3, #0
 9233 0096 FB75     		strb	r3, [r7, #23]
2375:.\AdvantageImpl.c ****             break;
 9234              		.loc 1 2375 0
 9235 0098 0EE0     		b	.L369
 9236              	.L374:
2376:.\AdvantageImpl.c ****             case 0x03:
2377:.\AdvantageImpl.c ****                 retval = (buffersize >= (_g_dispenserlayoutinfo._hosesposition4*_PUMP_TOTALS_BUFFER
 9237              		.loc 1 2377 0
 9238 009a FA88     		ldrh	r2, [r7, #6]
 9239 009c 2E4B     		ldr	r3, .L382
 9240 009e 9B79     		ldrb	r3, [r3, #6]	@ zero_extendqisi2
 9241 00a0 1946     		mov	r1, r3
 9242 00a2 0B46     		mov	r3, r1
 9243 00a4 1B01     		lsls	r3, r3, #4
 9244 00a6 5B1A     		subs	r3, r3, r1
 9245 00a8 5B00     		lsls	r3, r3, #1
 9246 00aa 0433     		adds	r3, r3, #4
 9247 00ac 9A42     		cmp	r2, r3
 9248 00ae ACBF     		ite	ge
 9249 00b0 0123     		movge	r3, #1
 9250 00b2 0023     		movlt	r3, #0
 9251 00b4 FB75     		strb	r3, [r7, #23]
2378:.\AdvantageImpl.c ****             break;
 9252              		.loc 1 2378 0
 9253 00b6 00BF     		nop
 9254              	.L369:
 9255 00b8 46E0     		b	.L375
 9256              	.L368:
2379:.\AdvantageImpl.c ****         }
2380:.\AdvantageImpl.c ****     }
2381:.\AdvantageImpl.c ****     else
2382:.\AdvantageImpl.c ****     {            
2383:.\AdvantageImpl.c ****         switch(ppump->_pumpindex)
 9257              		.loc 1 2383 0
ARM GAS  C:\Users\Lenovo\AppData\Local\Temp\cccA9qMw.s 			page 206


 9258 00ba 3B69     		ldr	r3, [r7, #16]
 9259 00bc 5B78     		ldrb	r3, [r3, #1]	@ zero_extendqisi2
 9260 00be 032B     		cmp	r3, #3
 9261 00c0 42D8     		bhi	.L375
 9262 00c2 01A2     		adr	r2, .L377
 9263 00c4 52F823F0 		ldr	pc, [r2, r3, lsl #2]
 9264              		.p2align 2
 9265              	.L377:
 9266 00c8 D9000000 		.word	.L376+1
 9267 00cc F5000000 		.word	.L378+1
 9268 00d0 11010000 		.word	.L379+1
 9269 00d4 2D010000 		.word	.L380+1
 9270              		.p2align 1
 9271              	.L376:
2384:.\AdvantageImpl.c ****         {
2385:.\AdvantageImpl.c ****             case 0x00:
2386:.\AdvantageImpl.c ****                 retval = (buffersize >= (_g_dispenserlayoutinfo._hosesposition1*_PUMP_TOTALS_BUFFER
 9272              		.loc 1 2386 0
 9273 00d8 FA88     		ldrh	r2, [r7, #6]
 9274 00da 1F4B     		ldr	r3, .L382
 9275 00dc DB78     		ldrb	r3, [r3, #3]	@ zero_extendqisi2
 9276 00de 1946     		mov	r1, r3
 9277 00e0 2A23     		movs	r3, #42
 9278 00e2 03FB01F3 		mul	r3, r3, r1
 9279 00e6 0433     		adds	r3, r3, #4
 9280 00e8 9A42     		cmp	r2, r3
 9281 00ea ACBF     		ite	ge
 9282 00ec 0123     		movge	r3, #1
 9283 00ee 0023     		movlt	r3, #0
 9284 00f0 FB75     		strb	r3, [r7, #23]
2387:.\AdvantageImpl.c ****             break;
 9285              		.loc 1 2387 0
 9286 00f2 29E0     		b	.L375
 9287              	.L378:
2388:.\AdvantageImpl.c ****             case 0x01:
2389:.\AdvantageImpl.c ****                 retval = (buffersize >= (_g_dispenserlayoutinfo._hosesposition2*_PUMP_TOTALS_BUFFER
 9288              		.loc 1 2389 0
 9289 00f4 FA88     		ldrh	r2, [r7, #6]
 9290 00f6 184B     		ldr	r3, .L382
 9291 00f8 1B79     		ldrb	r3, [r3, #4]	@ zero_extendqisi2
 9292 00fa 1946     		mov	r1, r3
 9293 00fc 2A23     		movs	r3, #42
 9294 00fe 03FB01F3 		mul	r3, r3, r1
 9295 0102 0433     		adds	r3, r3, #4
 9296 0104 9A42     		cmp	r2, r3
 9297 0106 ACBF     		ite	ge
 9298 0108 0123     		movge	r3, #1
 9299 010a 0023     		movlt	r3, #0
 9300 010c FB75     		strb	r3, [r7, #23]
2390:.\AdvantageImpl.c ****             break;
 9301              		.loc 1 2390 0
 9302 010e 1BE0     		b	.L375
 9303              	.L379:
2391:.\AdvantageImpl.c ****             case 0x02:
2392:.\AdvantageImpl.c ****                 retval = (buffersize >= (_g_dispenserlayoutinfo._hosesposition3*_PUMP_TOTALS_BUFFER
 9304              		.loc 1 2392 0
 9305 0110 FA88     		ldrh	r2, [r7, #6]
ARM GAS  C:\Users\Lenovo\AppData\Local\Temp\cccA9qMw.s 			page 207


 9306 0112 114B     		ldr	r3, .L382
 9307 0114 5B79     		ldrb	r3, [r3, #5]	@ zero_extendqisi2
 9308 0116 1946     		mov	r1, r3
 9309 0118 2A23     		movs	r3, #42
 9310 011a 03FB01F3 		mul	r3, r3, r1
 9311 011e 0433     		adds	r3, r3, #4
 9312 0120 9A42     		cmp	r2, r3
 9313 0122 ACBF     		ite	ge
 9314 0124 0123     		movge	r3, #1
 9315 0126 0023     		movlt	r3, #0
 9316 0128 FB75     		strb	r3, [r7, #23]
2393:.\AdvantageImpl.c ****             break;
 9317              		.loc 1 2393 0
 9318 012a 0DE0     		b	.L375
 9319              	.L380:
2394:.\AdvantageImpl.c ****             case 0x03:
2395:.\AdvantageImpl.c ****                 retval = (buffersize >= (_g_dispenserlayoutinfo._hosesposition4*_PUMP_TOTALS_BUFFER
 9320              		.loc 1 2395 0
 9321 012c FA88     		ldrh	r2, [r7, #6]
 9322 012e 0A4B     		ldr	r3, .L382
 9323 0130 9B79     		ldrb	r3, [r3, #6]	@ zero_extendqisi2
 9324 0132 1946     		mov	r1, r3
 9325 0134 2A23     		movs	r3, #42
 9326 0136 03FB01F3 		mul	r3, r3, r1
 9327 013a 0433     		adds	r3, r3, #4
 9328 013c 9A42     		cmp	r2, r3
 9329 013e ACBF     		ite	ge
 9330 0140 0123     		movge	r3, #1
 9331 0142 0023     		movlt	r3, #0
 9332 0144 FB75     		strb	r3, [r7, #23]
2396:.\AdvantageImpl.c ****             break;
 9333              		.loc 1 2396 0
 9334 0146 00BF     		nop
 9335              	.L375:
2397:.\AdvantageImpl.c ****         }
2398:.\AdvantageImpl.c ****     }
2399:.\AdvantageImpl.c ****     
2400:.\AdvantageImpl.c ****     return retval;
 9336              		.loc 1 2400 0
 9337 0148 FB7D     		ldrb	r3, [r7, #23]	@ zero_extendqisi2
2401:.\AdvantageImpl.c **** }
 9338              		.loc 1 2401 0
 9339 014a 1846     		mov	r0, r3
 9340 014c 1C37     		adds	r7, r7, #28
 9341              		.cfi_def_cfa_offset 4
 9342 014e BD46     		mov	sp, r7
 9343              		.cfi_def_cfa_register 13
 9344              		@ sp needed
 9345 0150 5DF8047B 		ldr	r7, [sp], #4
 9346              		.cfi_restore 7
 9347              		.cfi_def_cfa_offset 0
 9348 0154 7047     		bx	lr
 9349              	.L383:
 9350 0156 00BF     		.align	2
 9351              	.L382:
 9352 0158 00000000 		.word	_g_dispenserlayoutinfo
 9353              		.cfi_endproc
ARM GAS  C:\Users\Lenovo\AppData\Local\Temp\cccA9qMw.s 			page 208


 9354              	.LFE97:
 9355              		.size	AcquirePumpTotalsResponseResolver, .-AcquirePumpTotalsResponseResolver
 9356              		.section	.text.AcquirePumpTransactionDataResponseResolver,"ax",%progbits
 9357              		.align	2
 9358              		.global	AcquirePumpTransactionDataResponseResolver
 9359              		.thumb
 9360              		.thumb_func
 9361              		.type	AcquirePumpTransactionDataResponseResolver, %function
 9362              	AcquirePumpTransactionDataResponseResolver:
 9363              	.LFB98:
2402:.\AdvantageImpl.c **** 
2403:.\AdvantageImpl.c **** //@Created By: HIJH
2404:.\AdvantageImpl.c **** //@Septembre de 2016
2405:.\AdvantageImpl.c **** bool AcquirePumpTransactionDataResponseResolver(void *pparam, void *pbuffer, uint16 buffersize)
2406:.\AdvantageImpl.c **** {
 9364              		.loc 1 2406 0
 9365              		.cfi_startproc
 9366              		@ args = 0, pretend = 0, frame = 24
 9367              		@ frame_needed = 1, uses_anonymous_args = 0
 9368              		@ link register save eliminated.
 9369 0000 80B4     		push	{r7}
 9370              		.cfi_def_cfa_offset 4
 9371              		.cfi_offset 7, -4
 9372 0002 87B0     		sub	sp, sp, #28
 9373              		.cfi_def_cfa_offset 32
 9374 0004 00AF     		add	r7, sp, #0
 9375              		.cfi_def_cfa_register 7
 9376 0006 F860     		str	r0, [r7, #12]
 9377 0008 B960     		str	r1, [r7, #8]
 9378 000a 1346     		mov	r3, r2
 9379 000c FB80     		strh	r3, [r7, #6]	@ movhi
2407:.\AdvantageImpl.c ****     bool retval = false;
 9380              		.loc 1 2407 0
 9381 000e 0023     		movs	r3, #0
 9382 0010 FB75     		strb	r3, [r7, #23]
2408:.\AdvantageImpl.c ****     PNEAR_PUMPPTR ppump = (PNEAR_PUMPPTR)pparam;
 9383              		.loc 1 2408 0
 9384 0012 FB68     		ldr	r3, [r7, #12]
 9385 0014 3B61     		str	r3, [r7, #16]
2409:.\AdvantageImpl.c ****     
2410:.\AdvantageImpl.c ****     if(_g_dispenserlayoutinfo._displaydigitsmode == 0x06)
 9386              		.loc 1 2410 0
 9387 0016 0C4B     		ldr	r3, .L388
 9388 0018 1B7C     		ldrb	r3, [r3, #16]	@ zero_extendqisi2
 9389 001a 062B     		cmp	r3, #6
 9390 001c 06D1     		bne	.L385
2411:.\AdvantageImpl.c ****     {            
2412:.\AdvantageImpl.c ****         retval = (buffersize >= PUMP_TRANSACTION_DATA_REQUEST_RESPONSE_SIZE_4DIGITS);
 9391              		.loc 1 2412 0
 9392 001e FB88     		ldrh	r3, [r7, #6]
 9393 0020 202B     		cmp	r3, #32
 9394 0022 8CBF     		ite	hi
 9395 0024 0123     		movhi	r3, #1
 9396 0026 0023     		movls	r3, #0
 9397 0028 FB75     		strb	r3, [r7, #23]
 9398 002a 05E0     		b	.L386
 9399              	.L385:
ARM GAS  C:\Users\Lenovo\AppData\Local\Temp\cccA9qMw.s 			page 209


2413:.\AdvantageImpl.c ****     }
2414:.\AdvantageImpl.c ****     else
2415:.\AdvantageImpl.c ****     {
2416:.\AdvantageImpl.c ****         retval = (buffersize >= PUMP_TRANSACTION_DATA_REQUEST_RESPONSE_SIZE);
 9400              		.loc 1 2416 0
 9401 002c FB88     		ldrh	r3, [r7, #6]
 9402 002e 262B     		cmp	r3, #38
 9403 0030 8CBF     		ite	hi
 9404 0032 0123     		movhi	r3, #1
 9405 0034 0023     		movls	r3, #0
 9406 0036 FB75     		strb	r3, [r7, #23]
 9407              	.L386:
2417:.\AdvantageImpl.c ****     }
2418:.\AdvantageImpl.c ****     
2419:.\AdvantageImpl.c ****     return retval;
 9408              		.loc 1 2419 0
 9409 0038 FB7D     		ldrb	r3, [r7, #23]	@ zero_extendqisi2
2420:.\AdvantageImpl.c **** }
 9410              		.loc 1 2420 0
 9411 003a 1846     		mov	r0, r3
 9412 003c 1C37     		adds	r7, r7, #28
 9413              		.cfi_def_cfa_offset 4
 9414 003e BD46     		mov	sp, r7
 9415              		.cfi_def_cfa_register 13
 9416              		@ sp needed
 9417 0040 5DF8047B 		ldr	r7, [sp], #4
 9418              		.cfi_restore 7
 9419              		.cfi_def_cfa_offset 0
 9420 0044 7047     		bx	lr
 9421              	.L389:
 9422 0046 00BF     		.align	2
 9423              	.L388:
 9424 0048 00000000 		.word	_g_dispenserlayoutinfo
 9425              		.cfi_endproc
 9426              	.LFE98:
 9427              		.size	AcquirePumpTransactionDataResponseResolver, .-AcquirePumpTransactionDataResponseResolver
 9428              		.section	.text.AcquirePpuChangeResponse,"ax",%progbits
 9429              		.align	2
 9430              		.global	AcquirePpuChangeResponse
 9431              		.thumb
 9432              		.thumb_func
 9433              		.type	AcquirePpuChangeResponse, %function
 9434              	AcquirePpuChangeResponse:
 9435              	.LFB99:
2421:.\AdvantageImpl.c **** 
2422:.\AdvantageImpl.c **** void AcquirePpuChangeResponse(void *pparam)
2423:.\AdvantageImpl.c **** {
 9436              		.loc 1 2423 0
 9437              		.cfi_startproc
 9438              		@ args = 0, pretend = 0, frame = 16
 9439              		@ frame_needed = 1, uses_anonymous_args = 0
 9440              		@ link register save eliminated.
 9441 0000 80B4     		push	{r7}
 9442              		.cfi_def_cfa_offset 4
 9443              		.cfi_offset 7, -4
 9444 0002 85B0     		sub	sp, sp, #20
 9445              		.cfi_def_cfa_offset 24
ARM GAS  C:\Users\Lenovo\AppData\Local\Temp\cccA9qMw.s 			page 210


 9446 0004 00AF     		add	r7, sp, #0
 9447              		.cfi_def_cfa_register 7
 9448 0006 7860     		str	r0, [r7, #4]
2424:.\AdvantageImpl.c ****     PPUMPTRANSACTIONJOBCONTEXTPTR pjob = (PPUMPTRANSACTIONJOBCONTEXTPTR)pparam;
 9449              		.loc 1 2424 0
 9450 0008 7B68     		ldr	r3, [r7, #4]
 9451 000a FB60     		str	r3, [r7, #12]
2425:.\AdvantageImpl.c ****     if(pjob)
 9452              		.loc 1 2425 0
 9453 000c FB68     		ldr	r3, [r7, #12]
 9454 000e 002B     		cmp	r3, #0
 9455 0010 3AD0     		beq	.L390
2426:.\AdvantageImpl.c ****     {
2427:.\AdvantageImpl.c ****         pjob->_ppump->_pumpstate = ((pjob->_ppump->_rxbuffer[0x00] & 0xF0) >> 4);
 9456              		.loc 1 2427 0
 9457 0012 FB68     		ldr	r3, [r7, #12]
 9458 0014 DB69     		ldr	r3, [r3, #28]
 9459 0016 FA68     		ldr	r2, [r7, #12]
 9460 0018 D269     		ldr	r2, [r2, #28]
 9461 001a 92F8A021 		ldrb	r2, [r2, #416]	@ zero_extendqisi2
 9462 001e 1209     		lsrs	r2, r2, #4
 9463 0020 D2B2     		uxtb	r2, r2
 9464 0022 9A70     		strb	r2, [r3, #2]
2428:.\AdvantageImpl.c ****         
2429:.\AdvantageImpl.c ****         switch(_g_dispenserlayoutinfo._numpositions)
 9465              		.loc 1 2429 0
 9466 0024 1B4B     		ldr	r3, .L396
 9467 0026 9B78     		ldrb	r3, [r3, #2]	@ zero_extendqisi2
 9468 0028 022B     		cmp	r3, #2
 9469 002a 02D0     		beq	.L392
 9470 002c 042B     		cmp	r3, #4
 9471 002e 16D0     		beq	.L393
 9472 0030 2AE0     		b	.L390
 9473              	.L392:
2430:.\AdvantageImpl.c ****         {
2431:.\AdvantageImpl.c ****             case 0x02:
2432:.\AdvantageImpl.c ****             {
2433:.\AdvantageImpl.c ****                 if(pjob->_ppump->_pumpindex == (_g_dispenserlayoutinfo._numpositions - 1) && (pjob-
 9474              		.loc 1 2433 0
 9475 0032 FB68     		ldr	r3, [r7, #12]
 9476 0034 DB69     		ldr	r3, [r3, #28]
 9477 0036 5B78     		ldrb	r3, [r3, #1]	@ zero_extendqisi2
 9478 0038 1A46     		mov	r2, r3
 9479 003a 164B     		ldr	r3, .L396
 9480 003c 9B78     		ldrb	r3, [r3, #2]	@ zero_extendqisi2
 9481 003e 013B     		subs	r3, r3, #1
 9482 0040 9A42     		cmp	r2, r3
 9483 0042 0BD1     		bne	.L394
 9484              		.loc 1 2433 0 is_stmt 0 discriminator 1
 9485 0044 FB68     		ldr	r3, [r7, #12]
 9486 0046 DB69     		ldr	r3, [r3, #28]
 9487 0048 DB78     		ldrb	r3, [r3, #3]
 9488 004a DAB2     		uxtb	r2, r3
 9489 004c 114B     		ldr	r3, .L396
 9490 004e 1B79     		ldrb	r3, [r3, #4]	@ zero_extendqisi2
 9491 0050 9A42     		cmp	r2, r3
 9492 0052 03D1     		bne	.L394
ARM GAS  C:\Users\Lenovo\AppData\Local\Temp\cccA9qMw.s 			page 211


2434:.\AdvantageImpl.c ****                     _g_dispenserlayoutinfo._inconfiguration = false;
 9493              		.loc 1 2434 0 is_stmt 1
 9494 0054 0F4B     		ldr	r3, .L396
 9495 0056 0022     		movs	r2, #0
 9496 0058 1A70     		strb	r2, [r3]
2435:.\AdvantageImpl.c ****                 
2436:.\AdvantageImpl.c ****                 break;
 9497              		.loc 1 2436 0
 9498 005a 15E0     		b	.L390
 9499              	.L394:
 9500 005c 14E0     		b	.L390
 9501              	.L393:
2437:.\AdvantageImpl.c ****             }
2438:.\AdvantageImpl.c ****             case 0x04:
2439:.\AdvantageImpl.c ****             {
2440:.\AdvantageImpl.c ****                 if(pjob->_ppump->_pumpindex == (_g_dispenserlayoutinfo._numpositions - 1) && (pjob-
 9502              		.loc 1 2440 0
 9503 005e FB68     		ldr	r3, [r7, #12]
 9504 0060 DB69     		ldr	r3, [r3, #28]
 9505 0062 5B78     		ldrb	r3, [r3, #1]	@ zero_extendqisi2
 9506 0064 1A46     		mov	r2, r3
 9507 0066 0B4B     		ldr	r3, .L396
 9508 0068 9B78     		ldrb	r3, [r3, #2]	@ zero_extendqisi2
 9509 006a 013B     		subs	r3, r3, #1
 9510 006c 9A42     		cmp	r2, r3
 9511 006e 0AD1     		bne	.L395
 9512              		.loc 1 2440 0 is_stmt 0 discriminator 1
 9513 0070 FB68     		ldr	r3, [r7, #12]
 9514 0072 DB69     		ldr	r3, [r3, #28]
 9515 0074 DB78     		ldrb	r3, [r3, #3]
 9516 0076 DAB2     		uxtb	r2, r3
 9517 0078 064B     		ldr	r3, .L396
 9518 007a 9B79     		ldrb	r3, [r3, #6]	@ zero_extendqisi2
 9519 007c 9A42     		cmp	r2, r3
 9520 007e 02D1     		bne	.L395
2441:.\AdvantageImpl.c ****                     _g_dispenserlayoutinfo._inconfiguration = false;
 9521              		.loc 1 2441 0 is_stmt 1
 9522 0080 044B     		ldr	r3, .L396
 9523 0082 0022     		movs	r2, #0
 9524 0084 1A70     		strb	r2, [r3]
 9525              	.L395:
2442:.\AdvantageImpl.c ****                 
2443:.\AdvantageImpl.c ****                 break;
 9526              		.loc 1 2443 0
 9527 0086 00BF     		nop
 9528              	.L390:
2444:.\AdvantageImpl.c ****             }
2445:.\AdvantageImpl.c ****         }
2446:.\AdvantageImpl.c ****     }
2447:.\AdvantageImpl.c **** }
 9529              		.loc 1 2447 0
 9530 0088 1437     		adds	r7, r7, #20
 9531              		.cfi_def_cfa_offset 4
 9532 008a BD46     		mov	sp, r7
 9533              		.cfi_def_cfa_register 13
 9534              		@ sp needed
 9535 008c 5DF8047B 		ldr	r7, [sp], #4
ARM GAS  C:\Users\Lenovo\AppData\Local\Temp\cccA9qMw.s 			page 212


 9536              		.cfi_restore 7
 9537              		.cfi_def_cfa_offset 0
 9538 0090 7047     		bx	lr
 9539              	.L397:
 9540 0092 00BF     		.align	2
 9541              	.L396:
 9542 0094 00000000 		.word	_g_dispenserlayoutinfo
 9543              		.cfi_endproc
 9544              	.LFE99:
 9545              		.size	AcquirePpuChangeResponse, .-AcquirePpuChangeResponse
 9546              		.section	.text.AdvantageActivateProgramming,"ax",%progbits
 9547              		.align	2
 9548              		.global	AdvantageActivateProgramming
 9549              		.thumb
 9550              		.thumb_func
 9551              		.type	AdvantageActivateProgramming, %function
 9552              	AdvantageActivateProgramming:
 9553              	.LFB100:
2448:.\AdvantageImpl.c **** 
2449:.\AdvantageImpl.c **** //@Created By: HIJH
2450:.\AdvantageImpl.c **** //@Novembre de 2016
2451:.\AdvantageImpl.c **** void AdvantageActivateProgramming(LPVOID pparam)
2452:.\AdvantageImpl.c **** {
 9554              		.loc 1 2452 0
 9555              		.cfi_startproc
 9556              		@ args = 0, pretend = 0, frame = 24
 9557              		@ frame_needed = 1, uses_anonymous_args = 0
 9558 0000 80B5     		push	{r7, lr}
 9559              		.cfi_def_cfa_offset 8
 9560              		.cfi_offset 7, -8
 9561              		.cfi_offset 14, -4
 9562 0002 86B0     		sub	sp, sp, #24
 9563              		.cfi_def_cfa_offset 32
 9564 0004 00AF     		add	r7, sp, #0
 9565              		.cfi_def_cfa_register 7
 9566 0006 7860     		str	r0, [r7, #4]
2453:.\AdvantageImpl.c ****     PNEAR_PUMPPTR ppump = &_g_pumps[0x00];
 9567              		.loc 1 2453 0
 9568 0008 264B     		ldr	r3, .L403
 9569 000a 3B61     		str	r3, [r7, #16]
2454:.\AdvantageImpl.c ****     PSINKMESSAGEPTR pmsg = (PSINKMESSAGEPTR)pparam;
 9570              		.loc 1 2454 0
 9571 000c 7B68     		ldr	r3, [r7, #4]
 9572 000e FB60     		str	r3, [r7, #12]
2455:.\AdvantageImpl.c ****     if(ppump)
 9573              		.loc 1 2455 0
 9574 0010 3B69     		ldr	r3, [r7, #16]
 9575 0012 002B     		cmp	r3, #0
 9576 0014 42D0     		beq	.L398
 9577              	.LBB63:
2456:.\AdvantageImpl.c ****     {
2457:.\AdvantageImpl.c ****         ppump->_acquiringstate = true;
 9578              		.loc 1 2457 0
 9579 0016 3B69     		ldr	r3, [r7, #16]
 9580 0018 0122     		movs	r2, #1
 9581 001a 5A71     		strb	r2, [r3, #5]
2458:.\AdvantageImpl.c ****         ppump->_pcurrtransaction = GetTransactionByName(_PUMP_PROGRAM_MODE_);
ARM GAS  C:\Users\Lenovo\AppData\Local\Temp\cccA9qMw.s 			page 213


 9582              		.loc 1 2458 0
 9583 001c 4F20     		movs	r0, #79
 9584 001e FFF7FEFF 		bl	GetTransactionByName
 9585 0022 0246     		mov	r2, r0
 9586 0024 3B69     		ldr	r3, [r7, #16]
 9587 0026 DA61     		str	r2, [r3, #28]
2459:.\AdvantageImpl.c ****         PumpTransactionJob *ptrjob = &((PumpTransaction*)ppump->_pcurrtransaction)->_jobs[0];
 9588              		.loc 1 2459 0
 9589 0028 3B69     		ldr	r3, [r7, #16]
 9590 002a DB69     		ldr	r3, [r3, #28]
 9591 002c 0433     		adds	r3, r3, #4
 9592 002e 7B61     		str	r3, [r7, #20]
2460:.\AdvantageImpl.c ****         if(ptrjob)
 9593              		.loc 1 2460 0
 9594 0030 7B69     		ldr	r3, [r7, #20]
 9595 0032 002B     		cmp	r3, #0
 9596 0034 32D0     		beq	.L398
2461:.\AdvantageImpl.c ****         {
2462:.\AdvantageImpl.c ****             while(ptrjob->Request != NULL)
 9597              		.loc 1 2462 0
 9598 0036 2DE0     		b	.L400
 9599              	.L402:
 9600              	.LBB64:
2463:.\AdvantageImpl.c ****             {
2464:.\AdvantageImpl.c ****                 PPUMPTRANSACTIONJOBCONTEXTPTR pjobcntr = _g_pumpjobqueue.Allocate(&_g_pumpjobqueue)
 9601              		.loc 1 2464 0
 9602 0038 1B4B     		ldr	r3, .L403+4
 9603 003a D3F84838 		ldr	r3, [r3, #2120]
 9604 003e 1A48     		ldr	r0, .L403+4
 9605 0040 9847     		blx	r3
 9606 0042 B860     		str	r0, [r7, #8]
2465:.\AdvantageImpl.c ****                 if(pjobcntr)
 9607              		.loc 1 2465 0
 9608 0044 BB68     		ldr	r3, [r7, #8]
 9609 0046 002B     		cmp	r3, #0
 9610 0048 21D0     		beq	.L401
2466:.\AdvantageImpl.c ****                 {
2467:.\AdvantageImpl.c ****                     pjobcntr->_reenqueue = false;
 9611              		.loc 1 2467 0
 9612 004a BB68     		ldr	r3, [r7, #8]
 9613 004c 0022     		movs	r2, #0
 9614 004e 1A70     		strb	r2, [r3]
2468:.\AdvantageImpl.c ****                     pjobcntr->_prequest = ptrjob;
 9615              		.loc 1 2468 0
 9616 0050 BB68     		ldr	r3, [r7, #8]
 9617 0052 7A69     		ldr	r2, [r7, #20]
 9618 0054 5A61     		str	r2, [r3, #20]
2469:.\AdvantageImpl.c ****                     pjobcntr->_presponse = NULL;
 9619              		.loc 1 2469 0
 9620 0056 BB68     		ldr	r3, [r7, #8]
 9621 0058 0022     		movs	r2, #0
 9622 005a 9A61     		str	r2, [r3, #24]
2470:.\AdvantageImpl.c ****                     pjobcntr->_ppump = ppump;
 9623              		.loc 1 2470 0
 9624 005c BB68     		ldr	r3, [r7, #8]
 9625 005e 3A69     		ldr	r2, [r7, #16]
 9626 0060 DA61     		str	r2, [r3, #28]
ARM GAS  C:\Users\Lenovo\AppData\Local\Temp\cccA9qMw.s 			page 214


2471:.\AdvantageImpl.c ****                     pjobcntr->_ppump->CleanUp(pjobcntr->_ppump);
 9627              		.loc 1 2471 0
 9628 0062 BB68     		ldr	r3, [r7, #8]
 9629 0064 DB69     		ldr	r3, [r3, #28]
 9630 0066 D3F8C03B 		ldr	r3, [r3, #3008]
 9631 006a BA68     		ldr	r2, [r7, #8]
 9632 006c D269     		ldr	r2, [r2, #28]
 9633 006e 1046     		mov	r0, r2
 9634 0070 9847     		blx	r3
2472:.\AdvantageImpl.c ****                     //This callback will be invoked upon response (if exists)
2473:.\AdvantageImpl.c ****                     pjobcntr->Callback = pmsg->Callback;
 9635              		.loc 1 2473 0
 9636 0072 FB68     		ldr	r3, [r7, #12]
 9637 0074 D3F89421 		ldr	r2, [r3, #404]
 9638 0078 BB68     		ldr	r3, [r7, #8]
 9639 007a 1A62     		str	r2, [r3, #32]
2474:.\AdvantageImpl.c ****                     pjobcntr->_pdata = pmsg;
 9640              		.loc 1 2474 0
 9641 007c BB68     		ldr	r3, [r7, #8]
 9642 007e FA68     		ldr	r2, [r7, #12]
 9643 0080 5A62     		str	r2, [r3, #36]
2475:.\AdvantageImpl.c ****                     
2476:.\AdvantageImpl.c ****                     _g_pumpjobqueue.Enqueue(&_g_pumpjobqueue, pjobcntr);
 9644              		.loc 1 2476 0
 9645 0082 094B     		ldr	r3, .L403+4
 9646 0084 D3F84C38 		ldr	r3, [r3, #2124]
 9647 0088 0748     		ldr	r0, .L403+4
 9648 008a B968     		ldr	r1, [r7, #8]
 9649 008c 9847     		blx	r3
 9650              	.L401:
2477:.\AdvantageImpl.c ****                 }
2478:.\AdvantageImpl.c ****                 ptrjob++;
 9651              		.loc 1 2478 0
 9652 008e 7B69     		ldr	r3, [r7, #20]
 9653 0090 3433     		adds	r3, r3, #52
 9654 0092 7B61     		str	r3, [r7, #20]
 9655              	.L400:
 9656              	.LBE64:
2462:.\AdvantageImpl.c ****             {
 9657              		.loc 1 2462 0
 9658 0094 7B69     		ldr	r3, [r7, #20]
 9659 0096 1B68     		ldr	r3, [r3]
 9660 0098 002B     		cmp	r3, #0
 9661 009a CDD1     		bne	.L402
 9662              	.L398:
 9663              	.LBE63:
2479:.\AdvantageImpl.c ****             }
2480:.\AdvantageImpl.c ****         }
2481:.\AdvantageImpl.c ****     }
2482:.\AdvantageImpl.c **** }
 9664              		.loc 1 2482 0
 9665 009c 1837     		adds	r7, r7, #24
 9666              		.cfi_def_cfa_offset 8
 9667 009e BD46     		mov	sp, r7
 9668              		.cfi_def_cfa_register 13
 9669              		@ sp needed
 9670 00a0 80BD     		pop	{r7, pc}
ARM GAS  C:\Users\Lenovo\AppData\Local\Temp\cccA9qMw.s 			page 215


 9671              	.L404:
 9672 00a2 00BF     		.align	2
 9673              	.L403:
 9674 00a4 00000000 		.word	_g_pumps
 9675 00a8 00000000 		.word	_g_pumpjobqueue
 9676              		.cfi_endproc
 9677              	.LFE100:
 9678              		.size	AdvantageActivateProgramming, .-AdvantageActivateProgramming
 9679              		.section	.text.GetLRC,"ax",%progbits
 9680              		.align	2
 9681              		.global	GetLRC
 9682              		.thumb
 9683              		.thumb_func
 9684              		.type	GetLRC, %function
 9685              	GetLRC:
 9686              	.LFB101:
2483:.\AdvantageImpl.c **** 
2484:.\AdvantageImpl.c **** ///////////////////////////////////////////////////////////////////////////////////////////////////
2485:.\AdvantageImpl.c **** //THESE ARE SUPPORT METHODS THAT WILL BE USED IN THE TRANSACTIONAL MACHINE
2486:.\AdvantageImpl.c **** ///////////////////////////////////////////////////////////////////////////////////////////////////
2487:.\AdvantageImpl.c **** //Calculation of the LRC according to the documentation
2488:.\AdvantageImpl.c **** uint8_t GetLRC(char8 *_pbuffer)
2489:.\AdvantageImpl.c **** {
 9687              		.loc 1 2489 0
 9688              		.cfi_startproc
 9689              		@ args = 0, pretend = 0, frame = 16
 9690              		@ frame_needed = 1, uses_anonymous_args = 0
 9691              		@ link register save eliminated.
 9692 0000 80B4     		push	{r7}
 9693              		.cfi_def_cfa_offset 4
 9694              		.cfi_offset 7, -4
 9695 0002 85B0     		sub	sp, sp, #20
 9696              		.cfi_def_cfa_offset 24
 9697 0004 00AF     		add	r7, sp, #0
 9698              		.cfi_def_cfa_register 7
 9699 0006 7860     		str	r0, [r7, #4]
2490:.\AdvantageImpl.c ****     uint8_t lrc = 0;
 9700              		.loc 1 2490 0
 9701 0008 0023     		movs	r3, #0
 9702 000a FB73     		strb	r3, [r7, #15]
2491:.\AdvantageImpl.c ****     while(*_pbuffer != 0xFB)
 9703              		.loc 1 2491 0
 9704 000c 0AE0     		b	.L406
 9705              	.L407:
2492:.\AdvantageImpl.c ****     {
2493:.\AdvantageImpl.c ****         lrc += (*_pbuffer & 0x0F);
 9706              		.loc 1 2493 0
 9707 000e 7B68     		ldr	r3, [r7, #4]
 9708 0010 1B78     		ldrb	r3, [r3]	@ zero_extendqisi2
 9709 0012 03F00F03 		and	r3, r3, #15
 9710 0016 DAB2     		uxtb	r2, r3
 9711 0018 FB7B     		ldrb	r3, [r7, #15]
 9712 001a 1344     		add	r3, r3, r2
 9713 001c FB73     		strb	r3, [r7, #15]
2494:.\AdvantageImpl.c ****         _pbuffer++;
 9714              		.loc 1 2494 0
 9715 001e 7B68     		ldr	r3, [r7, #4]
ARM GAS  C:\Users\Lenovo\AppData\Local\Temp\cccA9qMw.s 			page 216


 9716 0020 0133     		adds	r3, r3, #1
 9717 0022 7B60     		str	r3, [r7, #4]
 9718              	.L406:
2491:.\AdvantageImpl.c ****     while(*_pbuffer != 0xFB)
 9719              		.loc 1 2491 0
 9720 0024 7B68     		ldr	r3, [r7, #4]
 9721 0026 1B78     		ldrb	r3, [r3]	@ zero_extendqisi2
 9722 0028 FB2B     		cmp	r3, #251
 9723 002a F0D1     		bne	.L407
2495:.\AdvantageImpl.c ****     }
2496:.\AdvantageImpl.c ****     lrc += (*_pbuffer & 0x0F);
 9724              		.loc 1 2496 0
 9725 002c 7B68     		ldr	r3, [r7, #4]
 9726 002e 1B78     		ldrb	r3, [r3]	@ zero_extendqisi2
 9727 0030 03F00F03 		and	r3, r3, #15
 9728 0034 DAB2     		uxtb	r2, r3
 9729 0036 FB7B     		ldrb	r3, [r7, #15]
 9730 0038 1344     		add	r3, r3, r2
 9731 003a FB73     		strb	r3, [r7, #15]
2497:.\AdvantageImpl.c ****     return (((~lrc + 1) & 0x0F) | 0xE0);
 9732              		.loc 1 2497 0
 9733 003c FB7B     		ldrb	r3, [r7, #15]
 9734 003e 5B42     		negs	r3, r3
 9735 0040 DBB2     		uxtb	r3, r3
 9736 0042 DBB2     		uxtb	r3, r3
 9737 0044 03F00F03 		and	r3, r3, #15
 9738 0048 DBB2     		uxtb	r3, r3
 9739 004a 63F01F03 		orn	r3, r3, #31
 9740 004e DBB2     		uxtb	r3, r3
 9741 0050 DBB2     		uxtb	r3, r3
2498:.\AdvantageImpl.c **** }
 9742              		.loc 1 2498 0
 9743 0052 1846     		mov	r0, r3
 9744 0054 1437     		adds	r7, r7, #20
 9745              		.cfi_def_cfa_offset 4
 9746 0056 BD46     		mov	sp, r7
 9747              		.cfi_def_cfa_register 13
 9748              		@ sp needed
 9749 0058 5DF8047B 		ldr	r7, [sp], #4
 9750              		.cfi_restore 7
 9751              		.cfi_def_cfa_offset 0
 9752 005c 7047     		bx	lr
 9753              		.cfi_endproc
 9754              	.LFE101:
 9755              		.size	GetLRC, .-GetLRC
 9756 005e 00BF     		.section	.text.FindLRC,"ax",%progbits
 9757              		.align	2
 9758              		.global	FindLRC
 9759              		.thumb
 9760              		.thumb_func
 9761              		.type	FindLRC, %function
 9762              	FindLRC:
 9763              	.LFB102:
2499:.\AdvantageImpl.c **** 
2500:.\AdvantageImpl.c **** uint8_t FindLRC(char8 *_pbuffer)
2501:.\AdvantageImpl.c **** {
 9764              		.loc 1 2501 0
ARM GAS  C:\Users\Lenovo\AppData\Local\Temp\cccA9qMw.s 			page 217


 9765              		.cfi_startproc
 9766              		@ args = 0, pretend = 0, frame = 16
 9767              		@ frame_needed = 1, uses_anonymous_args = 0
 9768              		@ link register save eliminated.
 9769 0000 80B4     		push	{r7}
 9770              		.cfi_def_cfa_offset 4
 9771              		.cfi_offset 7, -4
 9772 0002 85B0     		sub	sp, sp, #20
 9773              		.cfi_def_cfa_offset 24
 9774 0004 00AF     		add	r7, sp, #0
 9775              		.cfi_def_cfa_register 7
 9776 0006 7860     		str	r0, [r7, #4]
2502:.\AdvantageImpl.c ****     uint8_t lrc = 0;
 9777              		.loc 1 2502 0
 9778 0008 0023     		movs	r3, #0
 9779 000a FB73     		strb	r3, [r7, #15]
2503:.\AdvantageImpl.c ****     while(*_pbuffer != 0xFB)
 9780              		.loc 1 2503 0
 9781 000c 02E0     		b	.L410
 9782              	.L411:
2504:.\AdvantageImpl.c ****     {
2505:.\AdvantageImpl.c ****         _pbuffer++;
 9783              		.loc 1 2505 0
 9784 000e 7B68     		ldr	r3, [r7, #4]
 9785 0010 0133     		adds	r3, r3, #1
 9786 0012 7B60     		str	r3, [r7, #4]
 9787              	.L410:
2503:.\AdvantageImpl.c ****     while(*_pbuffer != 0xFB)
 9788              		.loc 1 2503 0
 9789 0014 7B68     		ldr	r3, [r7, #4]
 9790 0016 1B78     		ldrb	r3, [r3]	@ zero_extendqisi2
 9791 0018 FB2B     		cmp	r3, #251
 9792 001a F8D1     		bne	.L411
2506:.\AdvantageImpl.c ****     }
2507:.\AdvantageImpl.c ****     return *(++_pbuffer);
 9793              		.loc 1 2507 0
 9794 001c 7B68     		ldr	r3, [r7, #4]
 9795 001e 0133     		adds	r3, r3, #1
 9796 0020 7B60     		str	r3, [r7, #4]
 9797 0022 7B68     		ldr	r3, [r7, #4]
 9798 0024 1B78     		ldrb	r3, [r3]	@ zero_extendqisi2
2508:.\AdvantageImpl.c **** }
 9799              		.loc 1 2508 0
 9800 0026 1846     		mov	r0, r3
 9801 0028 1437     		adds	r7, r7, #20
 9802              		.cfi_def_cfa_offset 4
 9803 002a BD46     		mov	sp, r7
 9804              		.cfi_def_cfa_register 13
 9805              		@ sp needed
 9806 002c 5DF8047B 		ldr	r7, [sp], #4
 9807              		.cfi_restore 7
 9808              		.cfi_def_cfa_offset 0
 9809 0030 7047     		bx	lr
 9810              		.cfi_endproc
 9811              	.LFE102:
 9812              		.size	FindLRC, .-FindLRC
 9813 0032 00BF     		.section	.text.InitiateTransaction,"ax",%progbits
ARM GAS  C:\Users\Lenovo\AppData\Local\Temp\cccA9qMw.s 			page 218


 9814              		.align	2
 9815              		.global	InitiateTransaction
 9816              		.thumb
 9817              		.thumb_func
 9818              		.type	InitiateTransaction, %function
 9819              	InitiateTransaction:
 9820              	.LFB103:
2509:.\AdvantageImpl.c **** 
2510:.\AdvantageImpl.c **** //@Created By: HIJH
2511:.\AdvantageImpl.c **** //@Septembre de 2016
2512:.\AdvantageImpl.c **** void InitiateTransaction(void *pparam)
2513:.\AdvantageImpl.c **** {
 9821              		.loc 1 2513 0
 9822              		.cfi_startproc
 9823              		@ args = 0, pretend = 0, frame = 16
 9824              		@ frame_needed = 1, uses_anonymous_args = 0
 9825              		@ link register save eliminated.
 9826 0000 80B4     		push	{r7}
 9827              		.cfi_def_cfa_offset 4
 9828              		.cfi_offset 7, -4
 9829 0002 85B0     		sub	sp, sp, #20
 9830              		.cfi_def_cfa_offset 24
 9831 0004 00AF     		add	r7, sp, #0
 9832              		.cfi_def_cfa_register 7
 9833 0006 7860     		str	r0, [r7, #4]
2514:.\AdvantageImpl.c ****     PumpTransactionJobContext *pjob = (PumpTransactionJobContext*)pparam;
 9834              		.loc 1 2514 0
 9835 0008 7B68     		ldr	r3, [r7, #4]
 9836 000a FB60     		str	r3, [r7, #12]
2515:.\AdvantageImpl.c ****     if(pjob)
 9837              		.loc 1 2515 0
 9838 000c FB68     		ldr	r3, [r7, #12]
 9839 000e 002B     		cmp	r3, #0
 9840 0010 07D0     		beq	.L413
2516:.\AdvantageImpl.c ****     {
2517:.\AdvantageImpl.c ****         pjob->_ppump->_transhealth = _PUMP_OK_;
 9841              		.loc 1 2517 0
 9842 0012 FB68     		ldr	r3, [r7, #12]
 9843 0014 DB69     		ldr	r3, [r3, #28]
 9844 0016 0122     		movs	r2, #1
 9845 0018 1A76     		strb	r2, [r3, #24]
2518:.\AdvantageImpl.c ****         pjob->_ppump->_transtate = _PUMP_BUSY_;
 9846              		.loc 1 2518 0
 9847 001a FB68     		ldr	r3, [r7, #12]
 9848 001c DB69     		ldr	r3, [r3, #28]
 9849 001e 0122     		movs	r2, #1
 9850 0020 5A76     		strb	r2, [r3, #25]
 9851              	.L413:
2519:.\AdvantageImpl.c ****     }
2520:.\AdvantageImpl.c **** }
 9852              		.loc 1 2520 0
 9853 0022 1437     		adds	r7, r7, #20
 9854              		.cfi_def_cfa_offset 4
 9855 0024 BD46     		mov	sp, r7
 9856              		.cfi_def_cfa_register 13
 9857              		@ sp needed
 9858 0026 5DF8047B 		ldr	r7, [sp], #4
ARM GAS  C:\Users\Lenovo\AppData\Local\Temp\cccA9qMw.s 			page 219


 9859              		.cfi_restore 7
 9860              		.cfi_def_cfa_offset 0
 9861 002a 7047     		bx	lr
 9862              		.cfi_endproc
 9863              	.LFE103:
 9864              		.size	InitiateTransaction, .-InitiateTransaction
 9865              		.section	.text.TerminateTransaction,"ax",%progbits
 9866              		.align	2
 9867              		.global	TerminateTransaction
 9868              		.thumb
 9869              		.thumb_func
 9870              		.type	TerminateTransaction, %function
 9871              	TerminateTransaction:
 9872              	.LFB104:
2521:.\AdvantageImpl.c **** 
2522:.\AdvantageImpl.c **** //@Created By: HIJH
2523:.\AdvantageImpl.c **** //@Septembre de 2016
2524:.\AdvantageImpl.c **** void TerminateTransaction(void *pparam)
2525:.\AdvantageImpl.c **** {
 9873              		.loc 1 2525 0
 9874              		.cfi_startproc
 9875              		@ args = 0, pretend = 0, frame = 16
 9876              		@ frame_needed = 1, uses_anonymous_args = 0
 9877              		@ link register save eliminated.
 9878 0000 80B4     		push	{r7}
 9879              		.cfi_def_cfa_offset 4
 9880              		.cfi_offset 7, -4
 9881 0002 85B0     		sub	sp, sp, #20
 9882              		.cfi_def_cfa_offset 24
 9883 0004 00AF     		add	r7, sp, #0
 9884              		.cfi_def_cfa_register 7
 9885 0006 7860     		str	r0, [r7, #4]
2526:.\AdvantageImpl.c ****     PPUMPTRANSACTIONJOBCONTEXTPTR pjob = (PPUMPTRANSACTIONJOBCONTEXTPTR)pparam;
 9886              		.loc 1 2526 0
 9887 0008 7B68     		ldr	r3, [r7, #4]
 9888 000a FB60     		str	r3, [r7, #12]
2527:.\AdvantageImpl.c ****     if(pjob)
 9889              		.loc 1 2527 0
 9890 000c FB68     		ldr	r3, [r7, #12]
 9891 000e 002B     		cmp	r3, #0
 9892 0010 07D0     		beq	.L415
2528:.\AdvantageImpl.c ****     {
2529:.\AdvantageImpl.c ****         pjob->_ppump->_transhealth = _PUMP_OK_;
 9893              		.loc 1 2529 0
 9894 0012 FB68     		ldr	r3, [r7, #12]
 9895 0014 DB69     		ldr	r3, [r3, #28]
 9896 0016 0122     		movs	r2, #1
 9897 0018 1A76     		strb	r2, [r3, #24]
2530:.\AdvantageImpl.c ****         pjob->_ppump->_transtate = _PUMP_IDLE_;
 9898              		.loc 1 2530 0
 9899 001a FB68     		ldr	r3, [r7, #12]
 9900 001c DB69     		ldr	r3, [r3, #28]
 9901 001e 0222     		movs	r2, #2
 9902 0020 5A76     		strb	r2, [r3, #25]
 9903              	.L415:
2531:.\AdvantageImpl.c ****         
2532:.\AdvantageImpl.c ****     }
ARM GAS  C:\Users\Lenovo\AppData\Local\Temp\cccA9qMw.s 			page 220


2533:.\AdvantageImpl.c **** }
 9904              		.loc 1 2533 0
 9905 0022 1437     		adds	r7, r7, #20
 9906              		.cfi_def_cfa_offset 4
 9907 0024 BD46     		mov	sp, r7
 9908              		.cfi_def_cfa_register 13
 9909              		@ sp needed
 9910 0026 5DF8047B 		ldr	r7, [sp], #4
 9911              		.cfi_restore 7
 9912              		.cfi_def_cfa_offset 0
 9913 002a 7047     		bx	lr
 9914              		.cfi_endproc
 9915              	.LFE104:
 9916              		.size	TerminateTransaction, .-TerminateTransaction
 9917              		.section	.text.TerminateTransactionAndPrint,"ax",%progbits
 9918              		.align	2
 9919              		.global	TerminateTransactionAndPrint
 9920              		.thumb
 9921              		.thumb_func
 9922              		.type	TerminateTransactionAndPrint, %function
 9923              	TerminateTransactionAndPrint:
 9924              	.LFB105:
2534:.\AdvantageImpl.c **** 
2535:.\AdvantageImpl.c **** void TerminateTransactionAndPrint(void *pparam)
2536:.\AdvantageImpl.c **** {
 9925              		.loc 1 2536 0
 9926              		.cfi_startproc
 9927              		@ args = 0, pretend = 0, frame = 16
 9928              		@ frame_needed = 1, uses_anonymous_args = 0
 9929 0000 90B5     		push	{r4, r7, lr}
 9930              		.cfi_def_cfa_offset 12
 9931              		.cfi_offset 4, -12
 9932              		.cfi_offset 7, -8
 9933              		.cfi_offset 14, -4
 9934 0002 85B0     		sub	sp, sp, #20
 9935              		.cfi_def_cfa_offset 32
 9936 0004 00AF     		add	r7, sp, #0
 9937              		.cfi_def_cfa_register 7
 9938 0006 7860     		str	r0, [r7, #4]
2537:.\AdvantageImpl.c ****     PPUMPTRANSACTIONJOBCONTEXTPTR pjob = (PPUMPTRANSACTIONJOBCONTEXTPTR)pparam;
 9939              		.loc 1 2537 0
 9940 0008 7B68     		ldr	r3, [r7, #4]
 9941 000a FB60     		str	r3, [r7, #12]
2538:.\AdvantageImpl.c ****     if(pjob)
 9942              		.loc 1 2538 0
 9943 000c FB68     		ldr	r3, [r7, #12]
 9944 000e 002B     		cmp	r3, #0
 9945 0010 00F01181 		beq	.L417
2539:.\AdvantageImpl.c ****     {
2540:.\AdvantageImpl.c ****         pjob->_ppump->_transhealth = _PUMP_OK_;
 9946              		.loc 1 2540 0
 9947 0014 FB68     		ldr	r3, [r7, #12]
 9948 0016 DB69     		ldr	r3, [r3, #28]
 9949 0018 0122     		movs	r2, #1
 9950 001a 1A76     		strb	r2, [r3, #24]
2541:.\AdvantageImpl.c ****         pjob->_ppump->_transtate = _PUMP_IDLE_;
 9951              		.loc 1 2541 0
ARM GAS  C:\Users\Lenovo\AppData\Local\Temp\cccA9qMw.s 			page 221


 9952 001c FB68     		ldr	r3, [r7, #12]
 9953 001e DB69     		ldr	r3, [r3, #28]
 9954 0020 0222     		movs	r2, #2
 9955 0022 5A76     		strb	r2, [r3, #25]
2542:.\AdvantageImpl.c ****         
2543:.\AdvantageImpl.c ****         //If printing has been selected then post the print job
2544:.\AdvantageImpl.c ****         if(pjob->_ppump->_trasactionbuffer[GetBufferIndexFromDisplayID(DISPLAY_DESEA_IMPRIMIR_RECIB
 9956              		.loc 1 2544 0
 9957 0024 FB68     		ldr	r3, [r7, #12]
 9958 0026 DC69     		ldr	r4, [r3, #28]
 9959 0028 0B20     		movs	r0, #11
 9960 002a FFF7FEFF 		bl	GetBufferIndexFromDisplayID
 9961 002e 0346     		mov	r3, r0
 9962 0030 2344     		add	r3, r3, r4
 9963 0032 93F82030 		ldrb	r3, [r3, #32]	@ zero_extendqisi2
 9964 0036 392B     		cmp	r3, #57
 9965 0038 40F0FD80 		bne	.L417
 9966              	.LBB65:
2545:.\AdvantageImpl.c ****         {
2546:.\AdvantageImpl.c ****             _ALLOCATE_SINKMESSAGE_SLOT(psinkmsg);
 9967              		.loc 1 2546 0
 9968 003c FFF7FEFF 		bl	AllocateMessageSlot
 9969 0040 B860     		str	r0, [r7, #8]
2547:.\AdvantageImpl.c ****             if(psinkmsg)
 9970              		.loc 1 2547 0
 9971 0042 BB68     		ldr	r3, [r7, #8]
 9972 0044 002B     		cmp	r3, #0
 9973 0046 00F0F680 		beq	.L417
2548:.\AdvantageImpl.c ****             {
2549:.\AdvantageImpl.c ****                 switch(pjob->_ppump->_trasactionbuffer[GetBufferIndexFromDisplayID(DISPLAY_SIDE_DUM
 9974              		.loc 1 2549 0
 9975 004a FB68     		ldr	r3, [r7, #12]
 9976 004c DC69     		ldr	r4, [r3, #28]
 9977 004e FA20     		movs	r0, #250
 9978 0050 FFF7FEFF 		bl	GetBufferIndexFromDisplayID
 9979 0054 0346     		mov	r3, r0
 9980 0056 2344     		add	r3, r3, r4
 9981 0058 93F82030 		ldrb	r3, [r3, #32]	@ zero_extendqisi2
 9982 005c 002B     		cmp	r3, #0
 9983 005e 02D0     		beq	.L420
 9984 0060 012B     		cmp	r3, #1
 9985 0062 05D0     		beq	.L421
 9986 0064 09E0     		b	.L419
 9987              	.L420:
2550:.\AdvantageImpl.c ****                 {
2551:.\AdvantageImpl.c ****                     case DISPLAY1:
2552:.\AdvantageImpl.c ****                     psinkmsg->_messageid = _g_printerlayout._printerportside1;
 9988              		.loc 1 2552 0
 9989 0066 754B     		ldr	r3, .L426
 9990 0068 1A78     		ldrb	r2, [r3]	@ zero_extendqisi2
 9991 006a BB68     		ldr	r3, [r7, #8]
 9992 006c 5A70     		strb	r2, [r3, #1]
2553:.\AdvantageImpl.c ****                     break;
 9993              		.loc 1 2553 0
 9994 006e 04E0     		b	.L419
 9995              	.L421:
2554:.\AdvantageImpl.c ****                     case DISPLAY2:
ARM GAS  C:\Users\Lenovo\AppData\Local\Temp\cccA9qMw.s 			page 222


2555:.\AdvantageImpl.c ****                     psinkmsg->_messageid = _g_printerlayout._printerportside2;
 9996              		.loc 1 2555 0
 9997 0070 724B     		ldr	r3, .L426
 9998 0072 5A78     		ldrb	r2, [r3, #1]	@ zero_extendqisi2
 9999 0074 BB68     		ldr	r3, [r7, #8]
 10000 0076 5A70     		strb	r2, [r3, #1]
2556:.\AdvantageImpl.c ****                     break;
 10001              		.loc 1 2556 0
 10002 0078 00BF     		nop
 10003              	.L419:
2557:.\AdvantageImpl.c ****                 }
2558:.\AdvantageImpl.c ****                 psinkmsg->_messagetype = DELAYEDALLINTERESTED;
 10004              		.loc 1 2558 0
 10005 007a BB68     		ldr	r3, [r7, #8]
 10006 007c 0522     		movs	r2, #5
 10007 007e 9A70     		strb	r2, [r3, #2]
2559:.\AdvantageImpl.c ****                 //Wait for 30 seconds before sending the command to the printer!
2560:.\AdvantageImpl.c ****                 //This will give some time to allow the remote peer (NSX) to respond with the appro
2561:.\AdvantageImpl.c ****                 if(_g_rfautorun._state == RF_AUTONOMOUS)
 10008              		.loc 1 2561 0
 10009 0080 6F4B     		ldr	r3, .L426+4
 10010 0082 1B78     		ldrb	r3, [r3]
 10011 0084 DBB2     		uxtb	r3, r3
 10012 0086 012B     		cmp	r3, #1
 10013 0088 04D1     		bne	.L422
2562:.\AdvantageImpl.c ****                     psinkmsg->_messagedelay = _SINK_TIMEOUT_1S_;
 10014              		.loc 1 2562 0
 10015 008a BB68     		ldr	r3, [r7, #8]
 10016 008c 4FF47A72 		mov	r2, #1000
 10017 0090 9A80     		strh	r2, [r3, #4]	@ movhi
 10018 0092 03E0     		b	.L423
 10019              	.L422:
2563:.\AdvantageImpl.c ****                 else
2564:.\AdvantageImpl.c ****                     psinkmsg->_messagedelay = _SINK_TIMEOUT_30S_;
 10020              		.loc 1 2564 0
 10021 0094 BB68     		ldr	r3, [r7, #8]
 10022 0096 47F23052 		movw	r2, #30000
 10023 009a 9A80     		strh	r2, [r3, #4]	@ movhi
 10024              	.L423:
2565:.\AdvantageImpl.c ****                 
2566:.\AdvantageImpl.c ****                 //PUMP POSITION GOES IN THE ARRAY INDEX 0X00 (SEE THE FILE "PRINTERBLL.C")
2567:.\AdvantageImpl.c ****                 psinkmsg->_buffer[0x00] = pjob->_ppump->_pumpid;
 10025              		.loc 1 2567 0
 10026 009c FB68     		ldr	r3, [r7, #12]
 10027 009e DB69     		ldr	r3, [r3, #28]
 10028 00a0 1A78     		ldrb	r2, [r3]	@ zero_extendqisi2
 10029 00a2 BB68     		ldr	r3, [r7, #8]
 10030 00a4 1A73     		strb	r2, [r3, #12]
2568:.\AdvantageImpl.c ****                 //PUMP HOSE TO SELECT THE PRODUCT NAME
2569:.\AdvantageImpl.c ****                 psinkmsg->_buffer[0x01] = pjob->_ppump->_authorizationinfo._hoseid;
 10031              		.loc 1 2569 0
 10032 00a6 FB68     		ldr	r3, [r7, #12]
 10033 00a8 DB69     		ldr	r3, [r3, #28]
 10034 00aa 93F8AA3B 		ldrb	r3, [r3, #2986]
 10035 00ae DAB2     		uxtb	r2, r3
 10036 00b0 BB68     		ldr	r3, [r7, #8]
 10037 00b2 5A73     		strb	r2, [r3, #13]
ARM GAS  C:\Users\Lenovo\AppData\Local\Temp\cccA9qMw.s 			page 223


2570:.\AdvantageImpl.c ****                 psinkmsg->_buffer[0x02] = 0x06;//Six bytes for the price (PPU)
 10038              		.loc 1 2570 0
 10039 00b4 BB68     		ldr	r3, [r7, #8]
 10040 00b6 0622     		movs	r2, #6
 10041 00b8 9A73     		strb	r2, [r3, #14]
2571:.\AdvantageImpl.c ****                 memset(&psinkmsg->_buffer[0x03], 0x00, 0x08);
 10042              		.loc 1 2571 0
 10043 00ba BB68     		ldr	r3, [r7, #8]
 10044 00bc 0F33     		adds	r3, r3, #15
 10045 00be 1846     		mov	r0, r3
 10046 00c0 0021     		movs	r1, #0
 10047 00c2 0822     		movs	r2, #8
 10048 00c4 FFF7FEFF 		bl	memset
2572:.\AdvantageImpl.c ****                 
2573:.\AdvantageImpl.c ****                 if(_g_dispenserlayoutinfo._moneydecimals == 0x03 && _g_dispenserlayoutinfo._ppudeci
 10049              		.loc 1 2573 0
 10050 00c8 5E4B     		ldr	r3, .L426+8
 10051 00ca DB79     		ldrb	r3, [r3, #7]	@ zero_extendqisi2
 10052 00cc 032B     		cmp	r3, #3
 10053 00ce 19D1     		bne	.L424
 10054              		.loc 1 2573 0 is_stmt 0 discriminator 1
 10055 00d0 5C4B     		ldr	r3, .L426+8
 10056 00d2 1B7A     		ldrb	r3, [r3, #8]	@ zero_extendqisi2
 10057 00d4 022B     		cmp	r3, #2
 10058 00d6 15D1     		bne	.L424
2574:.\AdvantageImpl.c ****                     B78AD90CF552D9B30A(pjob->_ppump->_authorizationinfo._price * 10, PBYTECAST(&psi
 10059              		.loc 1 2574 0 is_stmt 1
 10060 00d8 FB68     		ldr	r3, [r7, #12]
 10061 00da DB69     		ldr	r3, [r3, #28]
 10062 00dc B3F8AC3B 		ldrh	r3, [r3, #2988]	@ movhi
 10063 00e0 9BB2     		uxth	r3, r3
 10064 00e2 1A46     		mov	r2, r3
 10065 00e4 1346     		mov	r3, r2
 10066 00e6 9B00     		lsls	r3, r3, #2
 10067 00e8 1344     		add	r3, r3, r2
 10068 00ea 5B00     		lsls	r3, r3, #1
 10069 00ec 1A46     		mov	r2, r3
 10070 00ee 4FEAE273 		asr	r3, r2, #31
 10071 00f2 B968     		ldr	r1, [r7, #8]
 10072 00f4 01F10F04 		add	r4, r1, #15
 10073 00f8 1046     		mov	r0, r2
 10074 00fa 1946     		mov	r1, r3
 10075 00fc 2246     		mov	r2, r4
 10076 00fe FFF7FEFF 		bl	B78AD90CF552D9B30A
 10077 0102 0FE0     		b	.L425
 10078              	.L424:
2575:.\AdvantageImpl.c ****                 else
2576:.\AdvantageImpl.c ****                     B78AD90CF552D9B30A(pjob->_ppump->_authorizationinfo._price, PBYTECAST(&psinkmsg
 10079              		.loc 1 2576 0
 10080 0104 FB68     		ldr	r3, [r7, #12]
 10081 0106 DB69     		ldr	r3, [r3, #28]
 10082 0108 B3F8AC3B 		ldrh	r3, [r3, #2988]	@ movhi
 10083 010c 9BB2     		uxth	r3, r3
 10084 010e 9AB2     		uxth	r2, r3
 10085 0110 4FF00003 		mov	r3, #0
 10086 0114 B968     		ldr	r1, [r7, #8]
 10087 0116 01F10F04 		add	r4, r1, #15
ARM GAS  C:\Users\Lenovo\AppData\Local\Temp\cccA9qMw.s 			page 224


 10088 011a 1046     		mov	r0, r2
 10089 011c 1946     		mov	r1, r3
 10090 011e 2246     		mov	r2, r4
 10091 0120 FFF7FEFF 		bl	B78AD90CF552D9B30A
 10092              	.L425:
2577:.\AdvantageImpl.c ****                     
2578:.\AdvantageImpl.c ****                 psinkmsg->_buffer[0x09] = 0x08;//Eight bytes for the Volume
 10093              		.loc 1 2578 0
 10094 0124 BB68     		ldr	r3, [r7, #8]
 10095 0126 0822     		movs	r2, #8
 10096 0128 5A75     		strb	r2, [r3, #21]
2579:.\AdvantageImpl.c ****                 memset(&psinkmsg->_buffer[0x0A], 0x00, 0x08);
 10097              		.loc 1 2579 0
 10098 012a BB68     		ldr	r3, [r7, #8]
 10099 012c 1633     		adds	r3, r3, #22
 10100 012e 1846     		mov	r0, r3
 10101 0130 0021     		movs	r1, #0
 10102 0132 0822     		movs	r2, #8
 10103 0134 FFF7FEFF 		bl	memset
2580:.\AdvantageImpl.c ****                 B78AD90CF552D9B30A(pjob->_ppump->_authorizationinfo._volumeamount, PBYTECAST(&psink
 10104              		.loc 1 2580 0
 10105 0138 FB68     		ldr	r3, [r7, #12]
 10106 013a DB69     		ldr	r3, [r3, #28]
 10107 013c D3F8B43B 		ldr	r3, [r3, #2996]
 10108 0140 1A46     		mov	r2, r3
 10109 0142 4FF00003 		mov	r3, #0
 10110 0146 B968     		ldr	r1, [r7, #8]
 10111 0148 01F11604 		add	r4, r1, #22
 10112 014c 1046     		mov	r0, r2
 10113 014e 1946     		mov	r1, r3
 10114 0150 2246     		mov	r2, r4
 10115 0152 FFF7FEFF 		bl	B78AD90CF552D9B30A
2581:.\AdvantageImpl.c ****                 psinkmsg->_buffer[0x12] = 0x08;//Eight bytes for the Preset
 10116              		.loc 1 2581 0
 10117 0156 BB68     		ldr	r3, [r7, #8]
 10118 0158 0822     		movs	r2, #8
 10119 015a 9A77     		strb	r2, [r3, #30]
2582:.\AdvantageImpl.c ****                 memset(&psinkmsg->_buffer[0x13], 0x00, 0x08);
 10120              		.loc 1 2582 0
 10121 015c BB68     		ldr	r3, [r7, #8]
 10122 015e 1F33     		adds	r3, r3, #31
 10123 0160 1846     		mov	r0, r3
 10124 0162 0021     		movs	r1, #0
 10125 0164 0822     		movs	r2, #8
 10126 0166 FFF7FEFF 		bl	memset
2583:.\AdvantageImpl.c ****                 B78AD90CF552D9B30A(pjob->_ppump->_authorizationinfo._presetamount, PBYTECAST(&psink
 10127              		.loc 1 2583 0
 10128 016a FB68     		ldr	r3, [r7, #12]
 10129 016c DB69     		ldr	r3, [r3, #28]
 10130 016e D3F8B03B 		ldr	r3, [r3, #2992]
 10131 0172 1A46     		mov	r2, r3
 10132 0174 4FF00003 		mov	r3, #0
 10133 0178 B968     		ldr	r1, [r7, #8]
 10134 017a 01F11F04 		add	r4, r1, #31
 10135 017e 1046     		mov	r0, r2
 10136 0180 1946     		mov	r1, r3
 10137 0182 2246     		mov	r2, r4
ARM GAS  C:\Users\Lenovo\AppData\Local\Temp\cccA9qMw.s 			page 225


 10138 0184 FFF7FEFF 		bl	B78AD90CF552D9B30A
2584:.\AdvantageImpl.c ****                 
2585:.\AdvantageImpl.c ****                 //This is the transaction type (Cash: 0x0D / Credit: 0x0E). See the documentation t
2586:.\AdvantageImpl.c ****                 psinkmsg->_buffer[0x1B] = pjob->_ppump->_trasactionbuffer[GetBufferIndexFromDisplay
 10139              		.loc 1 2586 0
 10140 0188 FB68     		ldr	r3, [r7, #12]
 10141 018a DC69     		ldr	r4, [r3, #28]
 10142 018c 0420     		movs	r0, #4
 10143 018e FFF7FEFF 		bl	GetBufferIndexFromDisplayID
 10144 0192 0346     		mov	r3, r0
 10145 0194 2344     		add	r3, r3, r4
 10146 0196 93F82020 		ldrb	r2, [r3, #32]	@ zero_extendqisi2
 10147 019a BB68     		ldr	r3, [r7, #8]
 10148 019c 83F82720 		strb	r2, [r3, #39]
2587:.\AdvantageImpl.c ****                 
2588:.\AdvantageImpl.c ****                 //This means "N/A". This will be printed once the timeout has expired and no invoic
2589:.\AdvantageImpl.c ****                 //has been received
2590:.\AdvantageImpl.c ****                 psinkmsg->_buffer[0x20] = 0x4E;
 10149              		.loc 1 2590 0
 10150 01a0 BB68     		ldr	r3, [r7, #8]
 10151 01a2 4E22     		movs	r2, #78
 10152 01a4 83F82C20 		strb	r2, [r3, #44]
2591:.\AdvantageImpl.c ****                 psinkmsg->_buffer[0x21] = 0x2F;
 10153              		.loc 1 2591 0
 10154 01a8 BB68     		ldr	r3, [r7, #8]
 10155 01aa 2F22     		movs	r2, #47
 10156 01ac 83F82D20 		strb	r2, [r3, #45]
2592:.\AdvantageImpl.c ****                 psinkmsg->_buffer[0x22] = 0x41;
 10157              		.loc 1 2592 0
 10158 01b0 BB68     		ldr	r3, [r7, #8]
 10159 01b2 4122     		movs	r2, #65
 10160 01b4 83F82E20 		strb	r2, [r3, #46]
2593:.\AdvantageImpl.c ****                 //Car's plate
2594:.\AdvantageImpl.c ****                 psinkmsg->_buffer[0x2A] = 0x4E;
 10161              		.loc 1 2594 0
 10162 01b8 BB68     		ldr	r3, [r7, #8]
 10163 01ba 4E22     		movs	r2, #78
 10164 01bc 83F83620 		strb	r2, [r3, #54]
2595:.\AdvantageImpl.c ****                 psinkmsg->_buffer[0x2B] = 0x2F;
 10165              		.loc 1 2595 0
 10166 01c0 BB68     		ldr	r3, [r7, #8]
 10167 01c2 2F22     		movs	r2, #47
 10168 01c4 83F83720 		strb	r2, [r3, #55]
2596:.\AdvantageImpl.c ****                 psinkmsg->_buffer[0x2C] = 0x41;
 10169              		.loc 1 2596 0
 10170 01c8 BB68     		ldr	r3, [r7, #8]
 10171 01ca 4122     		movs	r2, #65
 10172 01cc 83F83820 		strb	r2, [r3, #56]
2597:.\AdvantageImpl.c ****                 //Balance
2598:.\AdvantageImpl.c ****                 psinkmsg->_buffer[0x32] = 0x4E;
 10173              		.loc 1 2598 0
 10174 01d0 BB68     		ldr	r3, [r7, #8]
 10175 01d2 4E22     		movs	r2, #78
 10176 01d4 83F83E20 		strb	r2, [r3, #62]
2599:.\AdvantageImpl.c ****                 psinkmsg->_buffer[0x33] = 0x2F;
 10177              		.loc 1 2599 0
 10178 01d8 BB68     		ldr	r3, [r7, #8]
ARM GAS  C:\Users\Lenovo\AppData\Local\Temp\cccA9qMw.s 			page 226


 10179 01da 2F22     		movs	r2, #47
 10180 01dc 83F83F20 		strb	r2, [r3, #63]
2600:.\AdvantageImpl.c ****                 psinkmsg->_buffer[0x34] = 0x41;
 10181              		.loc 1 2600 0
 10182 01e0 BB68     		ldr	r3, [r7, #8]
 10183 01e2 4122     		movs	r2, #65
 10184 01e4 83F84020 		strb	r2, [r3, #64]
2601:.\AdvantageImpl.c ****                 //Company
2602:.\AdvantageImpl.c ****                 psinkmsg->_buffer[0x3C] = 0x4E;
 10185              		.loc 1 2602 0
 10186 01e8 BB68     		ldr	r3, [r7, #8]
 10187 01ea 4E22     		movs	r2, #78
 10188 01ec 83F84820 		strb	r2, [r3, #72]
2603:.\AdvantageImpl.c ****                 psinkmsg->_buffer[0x3D] = 0x2F;
 10189              		.loc 1 2603 0
 10190 01f0 BB68     		ldr	r3, [r7, #8]
 10191 01f2 2F22     		movs	r2, #47
 10192 01f4 83F84920 		strb	r2, [r3, #73]
2604:.\AdvantageImpl.c ****                 psinkmsg->_buffer[0x3E] = 0x41;
 10193              		.loc 1 2604 0
 10194 01f8 BB68     		ldr	r3, [r7, #8]
 10195 01fa 4122     		movs	r2, #65
 10196 01fc 83F84A20 		strb	r2, [r3, #74]
2605:.\AdvantageImpl.c ****                 //Account Name
2606:.\AdvantageImpl.c ****                 psinkmsg->_buffer[0x50] = 0x4E;
 10197              		.loc 1 2606 0
 10198 0200 BB68     		ldr	r3, [r7, #8]
 10199 0202 4E22     		movs	r2, #78
 10200 0204 83F85C20 		strb	r2, [r3, #92]
2607:.\AdvantageImpl.c ****                 psinkmsg->_buffer[0x51] = 0x2F;
 10201              		.loc 1 2607 0
 10202 0208 BB68     		ldr	r3, [r7, #8]
 10203 020a 2F22     		movs	r2, #47
 10204 020c 83F85D20 		strb	r2, [r3, #93]
2608:.\AdvantageImpl.c ****                 psinkmsg->_buffer[0x52] = 0x41;
 10205              		.loc 1 2608 0
 10206 0210 BB68     		ldr	r3, [r7, #8]
 10207 0212 4122     		movs	r2, #65
 10208 0214 83F85E20 		strb	r2, [r3, #94]
2609:.\AdvantageImpl.c ****                 //Daily Visits
2610:.\AdvantageImpl.c ****                 psinkmsg->_buffer[0x64] = 0x00;
 10209              		.loc 1 2610 0
 10210 0218 BB68     		ldr	r3, [r7, #8]
 10211 021a 0022     		movs	r2, #0
 10212 021c 83F87020 		strb	r2, [r3, #112]
2611:.\AdvantageImpl.c ****                 //Weekly Visits
2612:.\AdvantageImpl.c ****                 psinkmsg->_buffer[0x65] = 0x00;
 10213              		.loc 1 2612 0
 10214 0220 BB68     		ldr	r3, [r7, #8]
 10215 0222 0022     		movs	r2, #0
 10216 0224 83F87120 		strb	r2, [r3, #113]
2613:.\AdvantageImpl.c ****                 //Monthly Visits
2614:.\AdvantageImpl.c ****                 psinkmsg->_buffer[0x66] = 0x00;
 10217              		.loc 1 2614 0
 10218 0228 BB68     		ldr	r3, [r7, #8]
 10219 022a 0022     		movs	r2, #0
 10220 022c 83F87220 		strb	r2, [r3, #114]
ARM GAS  C:\Users\Lenovo\AppData\Local\Temp\cccA9qMw.s 			page 227


2615:.\AdvantageImpl.c **** 
2616:.\AdvantageImpl.c ****                 psinkmsg->_messagestate = SINK_BUSY;
 10221              		.loc 1 2616 0
 10222 0230 BB68     		ldr	r3, [r7, #8]
 10223 0232 0322     		movs	r2, #3
 10224 0234 DA70     		strb	r2, [r3, #3]
 10225              	.L417:
 10226              	.LBE65:
2617:.\AdvantageImpl.c ****             }   
2618:.\AdvantageImpl.c ****             
2619:.\AdvantageImpl.c ****         }        
2620:.\AdvantageImpl.c ****     }
2621:.\AdvantageImpl.c **** }
 10227              		.loc 1 2621 0
 10228 0236 1437     		adds	r7, r7, #20
 10229              		.cfi_def_cfa_offset 12
 10230 0238 BD46     		mov	sp, r7
 10231              		.cfi_def_cfa_register 13
 10232              		@ sp needed
 10233 023a 90BD     		pop	{r4, r7, pc}
 10234              	.L427:
 10235              		.align	2
 10236              	.L426:
 10237 023c 00000000 		.word	_g_printerlayout
 10238 0240 00000000 		.word	_g_rfautorun
 10239 0244 00000000 		.word	_g_dispenserlayoutinfo
 10240              		.cfi_endproc
 10241              	.LFE105:
 10242              		.size	TerminateTransactionAndPrint, .-TerminateTransactionAndPrint
 10243              		.section	.text.CastVolumeValue,"ax",%progbits
 10244              		.align	2
 10245              		.global	CastVolumeValue
 10246              		.thumb
 10247              		.thumb_func
 10248              		.type	CastVolumeValue, %function
 10249              	CastVolumeValue:
 10250              	.LFB106:
2622:.\AdvantageImpl.c **** 
2623:.\AdvantageImpl.c **** //@Created by: HIJH
2624:.\AdvantageImpl.c **** //@Date: Septembre de 2016
2625:.\AdvantageImpl.c **** //This method arranges the PRESET buffer when this is a "Volume PRESET".
2626:.\AdvantageImpl.c **** //Volume PRESETS must be multiplied by 1000
2627:.\AdvantageImpl.c **** void CastVolumeValue(char8 *pbuffer, uint8 buffersize)
2628:.\AdvantageImpl.c **** {
 10251              		.loc 1 2628 0
 10252              		.cfi_startproc
 10253              		@ args = 0, pretend = 0, frame = 16
 10254              		@ frame_needed = 1, uses_anonymous_args = 0
 10255              		@ link register save eliminated.
 10256 0000 80B4     		push	{r7}
 10257              		.cfi_def_cfa_offset 4
 10258              		.cfi_offset 7, -4
 10259 0002 85B0     		sub	sp, sp, #20
 10260              		.cfi_def_cfa_offset 24
 10261 0004 00AF     		add	r7, sp, #0
 10262              		.cfi_def_cfa_register 7
 10263 0006 7860     		str	r0, [r7, #4]
ARM GAS  C:\Users\Lenovo\AppData\Local\Temp\cccA9qMw.s 			page 228


 10264 0008 0B46     		mov	r3, r1
 10265 000a FB70     		strb	r3, [r7, #3]
2629:.\AdvantageImpl.c ****     uint8 delimiterindex = 0x00;
 10266              		.loc 1 2629 0
 10267 000c 0023     		movs	r3, #0
 10268 000e FB73     		strb	r3, [r7, #15]
2630:.\AdvantageImpl.c ****     bool shiftbydelimiter = false;
 10269              		.loc 1 2630 0
 10270 0010 0023     		movs	r3, #0
 10271 0012 BB73     		strb	r3, [r7, #14]
2631:.\AdvantageImpl.c ****     //If there is a "Comma" inside of the buffer, then just remove it before and count this for the
2632:.\AdvantageImpl.c ****     FOR(int8 index = (buffersize - 1), index > 0, index--)
 10272              		.loc 1 2632 0
 10273 0014 FB78     		ldrb	r3, [r7, #3]
 10274 0016 013B     		subs	r3, r3, #1
 10275 0018 DBB2     		uxtb	r3, r3
 10276 001a 7B73     		strb	r3, [r7, #13]
 10277 001c 2CE0     		b	.L429
 10278              	.L433:
2633:.\AdvantageImpl.c ****     {
2634:.\AdvantageImpl.c ****         if(pbuffer[index] == 0x2C && !shiftbydelimiter)
 10279              		.loc 1 2634 0
 10280 001e 97F90D30 		ldrsb	r3, [r7, #13]
 10281 0022 7A68     		ldr	r2, [r7, #4]
 10282 0024 1344     		add	r3, r3, r2
 10283 0026 1B78     		ldrb	r3, [r3]	@ zero_extendqisi2
 10284 0028 2C2B     		cmp	r3, #44
 10285 002a 07D1     		bne	.L430
 10286              		.loc 1 2634 0 is_stmt 0 discriminator 1
 10287 002c BB7B     		ldrb	r3, [r7, #14]
 10288 002e 83F00103 		eor	r3, r3, #1
 10289 0032 DBB2     		uxtb	r3, r3
 10290 0034 002B     		cmp	r3, #0
 10291 0036 01D0     		beq	.L430
2635:.\AdvantageImpl.c ****             shiftbydelimiter = true;
 10292              		.loc 1 2635 0 is_stmt 1
 10293 0038 0123     		movs	r3, #1
 10294 003a BB73     		strb	r3, [r7, #14]
 10295              	.L430:
2636:.\AdvantageImpl.c **** 
2637:.\AdvantageImpl.c ****         if(shiftbydelimiter)
 10296              		.loc 1 2637 0
 10297 003c BB7B     		ldrb	r3, [r7, #14]	@ zero_extendqisi2
 10298 003e 002B     		cmp	r3, #0
 10299 0040 12D0     		beq	.L431
2638:.\AdvantageImpl.c ****         {
2639:.\AdvantageImpl.c ****             pbuffer[index] = pbuffer[index - 1];
 10300              		.loc 1 2639 0
 10301 0042 97F90D30 		ldrsb	r3, [r7, #13]
 10302 0046 7A68     		ldr	r2, [r7, #4]
 10303 0048 1344     		add	r3, r3, r2
 10304 004a 97F90D20 		ldrsb	r2, [r7, #13]
 10305 004e 013A     		subs	r2, r2, #1
 10306 0050 7968     		ldr	r1, [r7, #4]
 10307 0052 0A44     		add	r2, r2, r1
 10308 0054 1278     		ldrb	r2, [r2]	@ zero_extendqisi2
 10309 0056 1A70     		strb	r2, [r3]
ARM GAS  C:\Users\Lenovo\AppData\Local\Temp\cccA9qMw.s 			page 229


2640:.\AdvantageImpl.c ****             pbuffer[index - 1] = 0x00;
 10310              		.loc 1 2640 0
 10311 0058 97F90D30 		ldrsb	r3, [r7, #13]
 10312 005c 013B     		subs	r3, r3, #1
 10313 005e 7A68     		ldr	r2, [r7, #4]
 10314 0060 1344     		add	r3, r3, r2
 10315 0062 0022     		movs	r2, #0
 10316 0064 1A70     		strb	r2, [r3]
 10317 0066 02E0     		b	.L432
 10318              	.L431:
2641:.\AdvantageImpl.c ****         }else
2642:.\AdvantageImpl.c ****             delimiterindex++;
 10319              		.loc 1 2642 0
 10320 0068 FB7B     		ldrb	r3, [r7, #15]	@ zero_extendqisi2
 10321 006a 0133     		adds	r3, r3, #1
 10322 006c FB73     		strb	r3, [r7, #15]
 10323              	.L432:
2632:.\AdvantageImpl.c ****     {
 10324              		.loc 1 2632 0 discriminator 2
 10325 006e 7B7B     		ldrb	r3, [r7, #13]	@ zero_extendqisi2
 10326 0070 DBB2     		uxtb	r3, r3
 10327 0072 013B     		subs	r3, r3, #1
 10328 0074 DBB2     		uxtb	r3, r3
 10329 0076 7B73     		strb	r3, [r7, #13]
 10330              	.L429:
2632:.\AdvantageImpl.c ****     {
 10331              		.loc 1 2632 0 is_stmt 0 discriminator 1
 10332 0078 97F90D30 		ldrsb	r3, [r7, #13]
 10333 007c 002B     		cmp	r3, #0
 10334 007e CEDC     		bgt	.L433
2643:.\AdvantageImpl.c ****         
2644:.\AdvantageImpl.c ****     }
2645:.\AdvantageImpl.c ****     if(!shiftbydelimiter)
 10335              		.loc 1 2645 0 is_stmt 1
 10336 0080 BB7B     		ldrb	r3, [r7, #14]
 10337 0082 83F00103 		eor	r3, r3, #1
 10338 0086 DBB2     		uxtb	r3, r3
 10339 0088 002B     		cmp	r3, #0
 10340 008a 01D0     		beq	.L434
2646:.\AdvantageImpl.c ****         delimiterindex = 0x00;
 10341              		.loc 1 2646 0
 10342 008c 0023     		movs	r3, #0
 10343 008e FB73     		strb	r3, [r7, #15]
 10344              	.L434:
2647:.\AdvantageImpl.c ****     
2648:.\AdvantageImpl.c ****     int8 shiftcount = (delimiterindex - ((_g_dispenserlayoutinfo._displaydigitsmode == 0x06)?_g_dis
 10345              		.loc 1 2648 0
 10346 0090 374B     		ldr	r3, .L447
 10347 0092 1B7C     		ldrb	r3, [r3, #16]	@ zero_extendqisi2
 10348 0094 062B     		cmp	r3, #6
 10349 0096 04D1     		bne	.L435
 10350              		.loc 1 2648 0 is_stmt 0 discriminator 1
 10351 0098 354B     		ldr	r3, .L447
 10352 009a 5B7A     		ldrb	r3, [r3, #9]	@ zero_extendqisi2
 10353 009c 013B     		subs	r3, r3, #1
 10354 009e DBB2     		uxtb	r3, r3
 10355 00a0 01E0     		b	.L436
ARM GAS  C:\Users\Lenovo\AppData\Local\Temp\cccA9qMw.s 			page 230


 10356              	.L435:
 10357              		.loc 1 2648 0 discriminator 2
 10358 00a2 334B     		ldr	r3, .L447
 10359 00a4 5B7A     		ldrb	r3, [r3, #9]	@ zero_extendqisi2
 10360              	.L436:
 10361              		.loc 1 2648 0 discriminator 4
 10362 00a6 FA7B     		ldrb	r2, [r7, #15]
 10363 00a8 D31A     		subs	r3, r2, r3
 10364 00aa DBB2     		uxtb	r3, r3
 10365 00ac 3B73     		strb	r3, [r7, #12]
2649:.\AdvantageImpl.c ****     //8 is the size of the allocated buffer space for the preset values according to the protocol.
2650:.\AdvantageImpl.c ****     //The real buffer size allocated from the display side is 16 bytes. The buffer will be cast fro
2651:.\AdvantageImpl.c ****     //the end to the beginning, so the startup index has been calculated "explicitly", this is (8 -
2652:.\AdvantageImpl.c ****     //To multiply by 1000 we need to shift the entire buffer three bytes to shift the comma, so we
2653:.\AdvantageImpl.c ****     //will subtract 3 bytes to the starting position in order to make the shifting.
2654:.\AdvantageImpl.c ****     if(shiftcount > 0)
 10366              		.loc 1 2654 0 is_stmt 1 discriminator 4
 10367 00ae 97F90C30 		ldrsb	r3, [r7, #12]
 10368 00b2 002B     		cmp	r3, #0
 10369 00b4 29DD     		ble	.L437
2655:.\AdvantageImpl.c ****     {
2656:.\AdvantageImpl.c ****         while(shiftcount > 0)
 10370              		.loc 1 2656 0
 10371 00b6 23E0     		b	.L438
 10372              	.L441:
2657:.\AdvantageImpl.c ****         {
2658:.\AdvantageImpl.c ****             FOR(index = (buffersize - 1), index > 0, index--)
 10373              		.loc 1 2658 0
 10374 00b8 FB78     		ldrb	r3, [r7, #3]
 10375 00ba 013B     		subs	r3, r3, #1
 10376 00bc DBB2     		uxtb	r3, r3
 10377 00be 7B73     		strb	r3, [r7, #13]
 10378 00c0 15E0     		b	.L439
 10379              	.L440:
2659:.\AdvantageImpl.c ****             {
2660:.\AdvantageImpl.c ****                 pbuffer[index] = pbuffer[index - 1];
 10380              		.loc 1 2660 0 discriminator 3
 10381 00c2 97F90D30 		ldrsb	r3, [r7, #13]
 10382 00c6 7A68     		ldr	r2, [r7, #4]
 10383 00c8 1344     		add	r3, r3, r2
 10384 00ca 97F90D20 		ldrsb	r2, [r7, #13]
 10385 00ce 013A     		subs	r2, r2, #1
 10386 00d0 7968     		ldr	r1, [r7, #4]
 10387 00d2 0A44     		add	r2, r2, r1
 10388 00d4 1278     		ldrb	r2, [r2]	@ zero_extendqisi2
 10389 00d6 1A70     		strb	r2, [r3]
2661:.\AdvantageImpl.c ****                 pbuffer[index] = 0x00;
 10390              		.loc 1 2661 0 discriminator 3
 10391 00d8 97F90D30 		ldrsb	r3, [r7, #13]
 10392 00dc 7A68     		ldr	r2, [r7, #4]
 10393 00de 1344     		add	r3, r3, r2
 10394 00e0 0022     		movs	r2, #0
 10395 00e2 1A70     		strb	r2, [r3]
2658:.\AdvantageImpl.c ****             {
 10396              		.loc 1 2658 0 discriminator 3
 10397 00e4 7B7B     		ldrb	r3, [r7, #13]	@ zero_extendqisi2
 10398 00e6 DBB2     		uxtb	r3, r3
ARM GAS  C:\Users\Lenovo\AppData\Local\Temp\cccA9qMw.s 			page 231


 10399 00e8 013B     		subs	r3, r3, #1
 10400 00ea DBB2     		uxtb	r3, r3
 10401 00ec 7B73     		strb	r3, [r7, #13]
 10402              	.L439:
2658:.\AdvantageImpl.c ****             {
 10403              		.loc 1 2658 0 is_stmt 0 discriminator 1
 10404 00ee 97F90D30 		ldrsb	r3, [r7, #13]
 10405 00f2 002B     		cmp	r3, #0
 10406 00f4 E5DC     		bgt	.L440
2662:.\AdvantageImpl.c ****             }
2663:.\AdvantageImpl.c ****             shiftcount--;
 10407              		.loc 1 2663 0 is_stmt 1
 10408 00f6 3B7B     		ldrb	r3, [r7, #12]	@ zero_extendqisi2
 10409 00f8 DBB2     		uxtb	r3, r3
 10410 00fa 013B     		subs	r3, r3, #1
 10411 00fc DBB2     		uxtb	r3, r3
 10412 00fe 3B73     		strb	r3, [r7, #12]
 10413              	.L438:
2656:.\AdvantageImpl.c ****         {
 10414              		.loc 1 2656 0
 10415 0100 97F90C30 		ldrsb	r3, [r7, #12]
 10416 0104 002B     		cmp	r3, #0
 10417 0106 D7DC     		bgt	.L441
 10418 0108 2DE0     		b	.L428
 10419              	.L437:
2664:.\AdvantageImpl.c ****         }
2665:.\AdvantageImpl.c ****     }
2666:.\AdvantageImpl.c ****     else if(shiftcount < 0)
 10420              		.loc 1 2666 0
 10421 010a 97F90C30 		ldrsb	r3, [r7, #12]
 10422 010e 002B     		cmp	r3, #0
 10423 0110 29DA     		bge	.L428
2667:.\AdvantageImpl.c ****     {
2668:.\AdvantageImpl.c ****         while(shiftcount < 0)
 10424              		.loc 1 2668 0
 10425 0112 24E0     		b	.L443
 10426              	.L446:
2669:.\AdvantageImpl.c ****         {
2670:.\AdvantageImpl.c ****             FOR(index = 0, index < (buffersize  - 1), index++)
 10427              		.loc 1 2670 0
 10428 0114 0023     		movs	r3, #0
 10429 0116 7B73     		strb	r3, [r7, #13]
 10430 0118 16E0     		b	.L444
 10431              	.L445:
2671:.\AdvantageImpl.c ****             {
2672:.\AdvantageImpl.c ****                 pbuffer[index] = pbuffer[index + 1];
 10432              		.loc 1 2672 0 discriminator 3
 10433 011a 97F90D30 		ldrsb	r3, [r7, #13]
 10434 011e 7A68     		ldr	r2, [r7, #4]
 10435 0120 1344     		add	r3, r3, r2
 10436 0122 97F90D20 		ldrsb	r2, [r7, #13]
 10437 0126 0132     		adds	r2, r2, #1
 10438 0128 7968     		ldr	r1, [r7, #4]
 10439 012a 0A44     		add	r2, r2, r1
 10440 012c 1278     		ldrb	r2, [r2]	@ zero_extendqisi2
 10441 012e 1A70     		strb	r2, [r3]
2673:.\AdvantageImpl.c ****                 pbuffer[index + 1] = 0x30;
ARM GAS  C:\Users\Lenovo\AppData\Local\Temp\cccA9qMw.s 			page 232


 10442              		.loc 1 2673 0 discriminator 3
 10443 0130 97F90D30 		ldrsb	r3, [r7, #13]
 10444 0134 0133     		adds	r3, r3, #1
 10445 0136 7A68     		ldr	r2, [r7, #4]
 10446 0138 1344     		add	r3, r3, r2
 10447 013a 3022     		movs	r2, #48
 10448 013c 1A70     		strb	r2, [r3]
2670:.\AdvantageImpl.c ****             {
 10449              		.loc 1 2670 0 discriminator 3
 10450 013e 7B7B     		ldrb	r3, [r7, #13]	@ zero_extendqisi2
 10451 0140 DBB2     		uxtb	r3, r3
 10452 0142 0133     		adds	r3, r3, #1
 10453 0144 DBB2     		uxtb	r3, r3
 10454 0146 7B73     		strb	r3, [r7, #13]
 10455              	.L444:
2670:.\AdvantageImpl.c ****             {
 10456              		.loc 1 2670 0 is_stmt 0 discriminator 1
 10457 0148 97F90D20 		ldrsb	r2, [r7, #13]
 10458 014c FB78     		ldrb	r3, [r7, #3]	@ zero_extendqisi2
 10459 014e 013B     		subs	r3, r3, #1
 10460 0150 9A42     		cmp	r2, r3
 10461 0152 E2DB     		blt	.L445
2674:.\AdvantageImpl.c ****             }
2675:.\AdvantageImpl.c ****             shiftcount++;
 10462              		.loc 1 2675 0 is_stmt 1
 10463 0154 3B7B     		ldrb	r3, [r7, #12]	@ zero_extendqisi2
 10464 0156 DBB2     		uxtb	r3, r3
 10465 0158 0133     		adds	r3, r3, #1
 10466 015a DBB2     		uxtb	r3, r3
 10467 015c 3B73     		strb	r3, [r7, #12]
 10468              	.L443:
2668:.\AdvantageImpl.c ****         {
 10469              		.loc 1 2668 0
 10470 015e 97F90C30 		ldrsb	r3, [r7, #12]
 10471 0162 002B     		cmp	r3, #0
 10472 0164 D6DB     		blt	.L446
 10473              	.L428:
2676:.\AdvantageImpl.c ****         }
2677:.\AdvantageImpl.c ****     }
2678:.\AdvantageImpl.c **** }
 10474              		.loc 1 2678 0
 10475 0166 1437     		adds	r7, r7, #20
 10476              		.cfi_def_cfa_offset 4
 10477 0168 BD46     		mov	sp, r7
 10478              		.cfi_def_cfa_register 13
 10479              		@ sp needed
 10480 016a 5DF8047B 		ldr	r7, [sp], #4
 10481              		.cfi_restore 7
 10482              		.cfi_def_cfa_offset 0
 10483 016e 7047     		bx	lr
 10484              	.L448:
 10485              		.align	2
 10486              	.L447:
 10487 0170 00000000 		.word	_g_dispenserlayoutinfo
 10488              		.cfi_endproc
 10489              	.LFE106:
 10490              		.size	CastVolumeValue, .-CastVolumeValue
ARM GAS  C:\Users\Lenovo\AppData\Local\Temp\cccA9qMw.s 			page 233


 10491              		.section	.text.CastMoneyValue,"ax",%progbits
 10492              		.align	2
 10493              		.global	CastMoneyValue
 10494              		.thumb
 10495              		.thumb_func
 10496              		.type	CastMoneyValue, %function
 10497              	CastMoneyValue:
 10498              	.LFB107:
2679:.\AdvantageImpl.c **** 
2680:.\AdvantageImpl.c **** //@Created by: HIJH
2681:.\AdvantageImpl.c **** //@Date: Septembre de 2016
2682:.\AdvantageImpl.c **** //This method arranges the PRESET buffer when this is a "Money PRESET".
2683:.\AdvantageImpl.c **** void CastMoneyValue(char8 *pbuffer, uint8 buffersize)
2684:.\AdvantageImpl.c **** {
 10499              		.loc 1 2684 0
 10500              		.cfi_startproc
 10501              		@ args = 0, pretend = 0, frame = 16
 10502              		@ frame_needed = 1, uses_anonymous_args = 0
 10503              		@ link register save eliminated.
 10504 0000 80B4     		push	{r7}
 10505              		.cfi_def_cfa_offset 4
 10506              		.cfi_offset 7, -4
 10507 0002 85B0     		sub	sp, sp, #20
 10508              		.cfi_def_cfa_offset 24
 10509 0004 00AF     		add	r7, sp, #0
 10510              		.cfi_def_cfa_register 7
 10511 0006 7860     		str	r0, [r7, #4]
 10512 0008 0B46     		mov	r3, r1
 10513 000a FB70     		strb	r3, [r7, #3]
2685:.\AdvantageImpl.c ****     uint8 delimiterindex = 0x00;
 10514              		.loc 1 2685 0
 10515 000c 0023     		movs	r3, #0
 10516 000e FB73     		strb	r3, [r7, #15]
2686:.\AdvantageImpl.c ****     bool shiftbydelimiter = false;
 10517              		.loc 1 2686 0
 10518 0010 0023     		movs	r3, #0
 10519 0012 BB73     		strb	r3, [r7, #14]
2687:.\AdvantageImpl.c ****     //If there is a "Comma" inside of the buffer, then just remove it before and count this for the
2688:.\AdvantageImpl.c ****     FOR(int8 index = (buffersize - 1), index > 0, index--)
 10520              		.loc 1 2688 0
 10521 0014 FB78     		ldrb	r3, [r7, #3]
 10522 0016 013B     		subs	r3, r3, #1
 10523 0018 DBB2     		uxtb	r3, r3
 10524 001a 7B73     		strb	r3, [r7, #13]
 10525 001c 2CE0     		b	.L450
 10526              	.L454:
2689:.\AdvantageImpl.c ****     {
2690:.\AdvantageImpl.c ****         if(pbuffer[index] == 0x2C && !shiftbydelimiter)
 10527              		.loc 1 2690 0
 10528 001e 97F90D30 		ldrsb	r3, [r7, #13]
 10529 0022 7A68     		ldr	r2, [r7, #4]
 10530 0024 1344     		add	r3, r3, r2
 10531 0026 1B78     		ldrb	r3, [r3]	@ zero_extendqisi2
 10532 0028 2C2B     		cmp	r3, #44
 10533 002a 07D1     		bne	.L451
 10534              		.loc 1 2690 0 is_stmt 0 discriminator 1
 10535 002c BB7B     		ldrb	r3, [r7, #14]
ARM GAS  C:\Users\Lenovo\AppData\Local\Temp\cccA9qMw.s 			page 234


 10536 002e 83F00103 		eor	r3, r3, #1
 10537 0032 DBB2     		uxtb	r3, r3
 10538 0034 002B     		cmp	r3, #0
 10539 0036 01D0     		beq	.L451
2691:.\AdvantageImpl.c ****             shiftbydelimiter = true;
 10540              		.loc 1 2691 0 is_stmt 1
 10541 0038 0123     		movs	r3, #1
 10542 003a BB73     		strb	r3, [r7, #14]
 10543              	.L451:
2692:.\AdvantageImpl.c **** 
2693:.\AdvantageImpl.c ****         if(shiftbydelimiter)
 10544              		.loc 1 2693 0
 10545 003c BB7B     		ldrb	r3, [r7, #14]	@ zero_extendqisi2
 10546 003e 002B     		cmp	r3, #0
 10547 0040 12D0     		beq	.L452
2694:.\AdvantageImpl.c ****         {
2695:.\AdvantageImpl.c ****             pbuffer[index] = pbuffer[index - 1];
 10548              		.loc 1 2695 0
 10549 0042 97F90D30 		ldrsb	r3, [r7, #13]
 10550 0046 7A68     		ldr	r2, [r7, #4]
 10551 0048 1344     		add	r3, r3, r2
 10552 004a 97F90D20 		ldrsb	r2, [r7, #13]
 10553 004e 013A     		subs	r2, r2, #1
 10554 0050 7968     		ldr	r1, [r7, #4]
 10555 0052 0A44     		add	r2, r2, r1
 10556 0054 1278     		ldrb	r2, [r2]	@ zero_extendqisi2
 10557 0056 1A70     		strb	r2, [r3]
2696:.\AdvantageImpl.c ****             pbuffer[index - 1] = 0x00;
 10558              		.loc 1 2696 0
 10559 0058 97F90D30 		ldrsb	r3, [r7, #13]
 10560 005c 013B     		subs	r3, r3, #1
 10561 005e 7A68     		ldr	r2, [r7, #4]
 10562 0060 1344     		add	r3, r3, r2
 10563 0062 0022     		movs	r2, #0
 10564 0064 1A70     		strb	r2, [r3]
 10565 0066 02E0     		b	.L453
 10566              	.L452:
2697:.\AdvantageImpl.c ****         }else
2698:.\AdvantageImpl.c ****             delimiterindex++;
 10567              		.loc 1 2698 0
 10568 0068 FB7B     		ldrb	r3, [r7, #15]	@ zero_extendqisi2
 10569 006a 0133     		adds	r3, r3, #1
 10570 006c FB73     		strb	r3, [r7, #15]
 10571              	.L453:
2688:.\AdvantageImpl.c ****     {
 10572              		.loc 1 2688 0 discriminator 2
 10573 006e 7B7B     		ldrb	r3, [r7, #13]	@ zero_extendqisi2
 10574 0070 DBB2     		uxtb	r3, r3
 10575 0072 013B     		subs	r3, r3, #1
 10576 0074 DBB2     		uxtb	r3, r3
 10577 0076 7B73     		strb	r3, [r7, #13]
 10578              	.L450:
2688:.\AdvantageImpl.c ****     {
 10579              		.loc 1 2688 0 is_stmt 0 discriminator 1
 10580 0078 97F90D30 		ldrsb	r3, [r7, #13]
 10581 007c 002B     		cmp	r3, #0
 10582 007e CEDC     		bgt	.L454
ARM GAS  C:\Users\Lenovo\AppData\Local\Temp\cccA9qMw.s 			page 235


2699:.\AdvantageImpl.c ****         
2700:.\AdvantageImpl.c ****     }
2701:.\AdvantageImpl.c ****     if(!shiftbydelimiter)
 10583              		.loc 1 2701 0 is_stmt 1
 10584 0080 BB7B     		ldrb	r3, [r7, #14]
 10585 0082 83F00103 		eor	r3, r3, #1
 10586 0086 DBB2     		uxtb	r3, r3
 10587 0088 002B     		cmp	r3, #0
 10588 008a 01D0     		beq	.L455
2702:.\AdvantageImpl.c ****         delimiterindex = 0x00;
 10589              		.loc 1 2702 0
 10590 008c 0023     		movs	r3, #0
 10591 008e FB73     		strb	r3, [r7, #15]
 10592              	.L455:
2703:.\AdvantageImpl.c ****     
2704:.\AdvantageImpl.c ****     int8 shiftcount = (delimiterindex - _g_dispenserlayoutinfo._moneydecimals);
 10593              		.loc 1 2704 0
 10594 0090 334B     		ldr	r3, .L466
 10595 0092 DB79     		ldrb	r3, [r3, #7]	@ zero_extendqisi2
 10596 0094 FA7B     		ldrb	r2, [r7, #15]
 10597 0096 D31A     		subs	r3, r2, r3
 10598 0098 DBB2     		uxtb	r3, r3
 10599 009a 3B73     		strb	r3, [r7, #12]
2705:.\AdvantageImpl.c ****     //8 is the size of the allocated buffer space for the preset values according to the protocol.
2706:.\AdvantageImpl.c ****     //The real buffer size allocated from the display side is 16 bytes. The buffer will be cast fro
2707:.\AdvantageImpl.c ****     //the end to the beginning, so the startup index has been calculated "explicitly", this is (8 -
2708:.\AdvantageImpl.c ****     //To multiply by 1000 we need to shift the entire buffer three bytes to shift the comma, so we
2709:.\AdvantageImpl.c ****     //will subtract 3 bytes to the starting position in order to make the shifting.
2710:.\AdvantageImpl.c ****     if(shiftcount > 0)
 10600              		.loc 1 2710 0
 10601 009c 97F90C30 		ldrsb	r3, [r7, #12]
 10602 00a0 002B     		cmp	r3, #0
 10603 00a2 29DD     		ble	.L456
2711:.\AdvantageImpl.c ****     {
2712:.\AdvantageImpl.c ****         while(shiftcount > 0)
 10604              		.loc 1 2712 0
 10605 00a4 23E0     		b	.L457
 10606              	.L460:
2713:.\AdvantageImpl.c ****         {
2714:.\AdvantageImpl.c ****             FOR(index = (buffersize - 1), index > 0, index--)
 10607              		.loc 1 2714 0
 10608 00a6 FB78     		ldrb	r3, [r7, #3]
 10609 00a8 013B     		subs	r3, r3, #1
 10610 00aa DBB2     		uxtb	r3, r3
 10611 00ac 7B73     		strb	r3, [r7, #13]
 10612 00ae 15E0     		b	.L458
 10613              	.L459:
2715:.\AdvantageImpl.c ****             {
2716:.\AdvantageImpl.c ****                 pbuffer[index] = pbuffer[index - 1];
 10614              		.loc 1 2716 0 discriminator 3
 10615 00b0 97F90D30 		ldrsb	r3, [r7, #13]
 10616 00b4 7A68     		ldr	r2, [r7, #4]
 10617 00b6 1344     		add	r3, r3, r2
 10618 00b8 97F90D20 		ldrsb	r2, [r7, #13]
 10619 00bc 013A     		subs	r2, r2, #1
 10620 00be 7968     		ldr	r1, [r7, #4]
 10621 00c0 0A44     		add	r2, r2, r1
ARM GAS  C:\Users\Lenovo\AppData\Local\Temp\cccA9qMw.s 			page 236


 10622 00c2 1278     		ldrb	r2, [r2]	@ zero_extendqisi2
 10623 00c4 1A70     		strb	r2, [r3]
2717:.\AdvantageImpl.c ****                 pbuffer[index] = 0x00;
 10624              		.loc 1 2717 0 discriminator 3
 10625 00c6 97F90D30 		ldrsb	r3, [r7, #13]
 10626 00ca 7A68     		ldr	r2, [r7, #4]
 10627 00cc 1344     		add	r3, r3, r2
 10628 00ce 0022     		movs	r2, #0
 10629 00d0 1A70     		strb	r2, [r3]
2714:.\AdvantageImpl.c ****             {
 10630              		.loc 1 2714 0 discriminator 3
 10631 00d2 7B7B     		ldrb	r3, [r7, #13]	@ zero_extendqisi2
 10632 00d4 DBB2     		uxtb	r3, r3
 10633 00d6 013B     		subs	r3, r3, #1
 10634 00d8 DBB2     		uxtb	r3, r3
 10635 00da 7B73     		strb	r3, [r7, #13]
 10636              	.L458:
2714:.\AdvantageImpl.c ****             {
 10637              		.loc 1 2714 0 is_stmt 0 discriminator 1
 10638 00dc 97F90D30 		ldrsb	r3, [r7, #13]
 10639 00e0 002B     		cmp	r3, #0
 10640 00e2 E5DC     		bgt	.L459
2718:.\AdvantageImpl.c ****             }
2719:.\AdvantageImpl.c ****             shiftcount--;
 10641              		.loc 1 2719 0 is_stmt 1
 10642 00e4 3B7B     		ldrb	r3, [r7, #12]	@ zero_extendqisi2
 10643 00e6 DBB2     		uxtb	r3, r3
 10644 00e8 013B     		subs	r3, r3, #1
 10645 00ea DBB2     		uxtb	r3, r3
 10646 00ec 3B73     		strb	r3, [r7, #12]
 10647              	.L457:
2712:.\AdvantageImpl.c ****         {
 10648              		.loc 1 2712 0
 10649 00ee 97F90C30 		ldrsb	r3, [r7, #12]
 10650 00f2 002B     		cmp	r3, #0
 10651 00f4 D7DC     		bgt	.L460
 10652 00f6 2DE0     		b	.L449
 10653              	.L456:
2720:.\AdvantageImpl.c ****         }
2721:.\AdvantageImpl.c ****     }
2722:.\AdvantageImpl.c ****     else if(shiftcount < 0)
 10654              		.loc 1 2722 0
 10655 00f8 97F90C30 		ldrsb	r3, [r7, #12]
 10656 00fc 002B     		cmp	r3, #0
 10657 00fe 29DA     		bge	.L449
2723:.\AdvantageImpl.c ****     {
2724:.\AdvantageImpl.c ****         while(shiftcount < 0)
 10658              		.loc 1 2724 0
 10659 0100 24E0     		b	.L462
 10660              	.L465:
2725:.\AdvantageImpl.c ****         {
2726:.\AdvantageImpl.c ****             FOR(index = 0, index < (buffersize  - 1), index++)
 10661              		.loc 1 2726 0
 10662 0102 0023     		movs	r3, #0
 10663 0104 7B73     		strb	r3, [r7, #13]
 10664 0106 16E0     		b	.L463
 10665              	.L464:
ARM GAS  C:\Users\Lenovo\AppData\Local\Temp\cccA9qMw.s 			page 237


2727:.\AdvantageImpl.c ****             {
2728:.\AdvantageImpl.c ****                 pbuffer[index] = pbuffer[index + 1];
 10666              		.loc 1 2728 0 discriminator 3
 10667 0108 97F90D30 		ldrsb	r3, [r7, #13]
 10668 010c 7A68     		ldr	r2, [r7, #4]
 10669 010e 1344     		add	r3, r3, r2
 10670 0110 97F90D20 		ldrsb	r2, [r7, #13]
 10671 0114 0132     		adds	r2, r2, #1
 10672 0116 7968     		ldr	r1, [r7, #4]
 10673 0118 0A44     		add	r2, r2, r1
 10674 011a 1278     		ldrb	r2, [r2]	@ zero_extendqisi2
 10675 011c 1A70     		strb	r2, [r3]
2729:.\AdvantageImpl.c ****                 pbuffer[index + 1] = 0x30;
 10676              		.loc 1 2729 0 discriminator 3
 10677 011e 97F90D30 		ldrsb	r3, [r7, #13]
 10678 0122 0133     		adds	r3, r3, #1
 10679 0124 7A68     		ldr	r2, [r7, #4]
 10680 0126 1344     		add	r3, r3, r2
 10681 0128 3022     		movs	r2, #48
 10682 012a 1A70     		strb	r2, [r3]
2726:.\AdvantageImpl.c ****             {
 10683              		.loc 1 2726 0 discriminator 3
 10684 012c 7B7B     		ldrb	r3, [r7, #13]	@ zero_extendqisi2
 10685 012e DBB2     		uxtb	r3, r3
 10686 0130 0133     		adds	r3, r3, #1
 10687 0132 DBB2     		uxtb	r3, r3
 10688 0134 7B73     		strb	r3, [r7, #13]
 10689              	.L463:
2726:.\AdvantageImpl.c ****             {
 10690              		.loc 1 2726 0 is_stmt 0 discriminator 1
 10691 0136 97F90D20 		ldrsb	r2, [r7, #13]
 10692 013a FB78     		ldrb	r3, [r7, #3]	@ zero_extendqisi2
 10693 013c 013B     		subs	r3, r3, #1
 10694 013e 9A42     		cmp	r2, r3
 10695 0140 E2DB     		blt	.L464
2730:.\AdvantageImpl.c ****             }
2731:.\AdvantageImpl.c ****             shiftcount++;
 10696              		.loc 1 2731 0 is_stmt 1
 10697 0142 3B7B     		ldrb	r3, [r7, #12]	@ zero_extendqisi2
 10698 0144 DBB2     		uxtb	r3, r3
 10699 0146 0133     		adds	r3, r3, #1
 10700 0148 DBB2     		uxtb	r3, r3
 10701 014a 3B73     		strb	r3, [r7, #12]
 10702              	.L462:
2724:.\AdvantageImpl.c ****         {
 10703              		.loc 1 2724 0
 10704 014c 97F90C30 		ldrsb	r3, [r7, #12]
 10705 0150 002B     		cmp	r3, #0
 10706 0152 D6DB     		blt	.L465
 10707              	.L449:
2732:.\AdvantageImpl.c ****         }
2733:.\AdvantageImpl.c ****     }
2734:.\AdvantageImpl.c **** }
 10708              		.loc 1 2734 0
 10709 0154 1437     		adds	r7, r7, #20
 10710              		.cfi_def_cfa_offset 4
 10711 0156 BD46     		mov	sp, r7
ARM GAS  C:\Users\Lenovo\AppData\Local\Temp\cccA9qMw.s 			page 238


 10712              		.cfi_def_cfa_register 13
 10713              		@ sp needed
 10714 0158 5DF8047B 		ldr	r7, [sp], #4
 10715              		.cfi_restore 7
 10716              		.cfi_def_cfa_offset 0
 10717 015c 7047     		bx	lr
 10718              	.L467:
 10719 015e 00BF     		.align	2
 10720              	.L466:
 10721 0160 00000000 		.word	_g_dispenserlayoutinfo
 10722              		.cfi_endproc
 10723              	.LFE107:
 10724              		.size	CastMoneyValue, .-CastMoneyValue
 10725              		.global	_g_sfcharmap
 10726              		.data
 10727              		.align	2
 10728              		.type	_g_sfcharmap, %object
 10729              		.size	_g_sfcharmap, 32
 10730              	_g_sfcharmap:
 10731 0000 B1       		.byte	-79
 10732 0001 01       		.byte	1
 10733 0002 B2       		.byte	-78
 10734 0003 02       		.byte	2
 10735 0004 B3       		.byte	-77
 10736 0005 03       		.byte	3
 10737 0006 B4       		.byte	-76
 10738 0007 04       		.byte	4
 10739 0008 B5       		.byte	-75
 10740 0009 05       		.byte	5
 10741 000a B6       		.byte	-74
 10742 000b 06       		.byte	6
 10743 000c B7       		.byte	-73
 10744 000d 07       		.byte	7
 10745 000e B8       		.byte	-72
 10746 000f 08       		.byte	8
 10747 0010 B9       		.byte	-71
 10748 0011 09       		.byte	9
 10749 0012 C1       		.byte	-63
 10750 0013 0A       		.byte	10
 10751 0014 C2       		.byte	-62
 10752 0015 0B       		.byte	11
 10753 0016 C3       		.byte	-61
 10754 0017 0C       		.byte	12
 10755 0018 C4       		.byte	-60
 10756 0019 0D       		.byte	13
 10757 001a C5       		.byte	-59
 10758 001b 0E       		.byte	14
 10759 001c C6       		.byte	-58
 10760 001d 0F       		.byte	15
 10761 001e 00       		.byte	0
 10762 001f 00       		.byte	0
 10763              		.section	.text.TranslateSpecialFuncionDigit,"ax",%progbits
 10764              		.align	2
 10765              		.global	TranslateSpecialFuncionDigit
 10766              		.thumb
 10767              		.thumb_func
 10768              		.type	TranslateSpecialFuncionDigit, %function
ARM GAS  C:\Users\Lenovo\AppData\Local\Temp\cccA9qMw.s 			page 239


 10769              	TranslateSpecialFuncionDigit:
 10770              	.LFB108:
2735:.\AdvantageImpl.c **** 
2736:.\AdvantageImpl.c **** //This is a char map to translate from the special functions word domain to the normal byte domain
2737:.\AdvantageImpl.c **** char8 _g_sfcharmap[][2] = 
2738:.\AdvantageImpl.c **** {
2739:.\AdvantageImpl.c ****     { 0xB1, 0x01 }, { 0xB2, 0x02 }, { 0xB3, 0x03 }, { 0xB4, 0x04 }, { 0xB5, 0x05 }, { 0xB6, 0x06 },
2740:.\AdvantageImpl.c ****     { 0xC1, 0x0A }, { 0xC2, 0x0B }, { 0xC3, 0x0C }, { 0xC4, 0x0D }, { 0xC5, 0x0E }, { 0xC6, 0x0F },
2741:.\AdvantageImpl.c **** };
2742:.\AdvantageImpl.c **** 
2743:.\AdvantageImpl.c **** //@Created By: HIJH
2744:.\AdvantageImpl.c **** //@Septembre de 2016
2745:.\AdvantageImpl.c **** char8 TranslateSpecialFuncionDigit(char8 refval)
2746:.\AdvantageImpl.c **** {
 10771              		.loc 1 2746 0
 10772              		.cfi_startproc
 10773              		@ args = 0, pretend = 0, frame = 16
 10774              		@ frame_needed = 1, uses_anonymous_args = 0
 10775              		@ link register save eliminated.
 10776 0000 80B4     		push	{r7}
 10777              		.cfi_def_cfa_offset 4
 10778              		.cfi_offset 7, -4
 10779 0002 85B0     		sub	sp, sp, #20
 10780              		.cfi_def_cfa_offset 24
 10781 0004 00AF     		add	r7, sp, #0
 10782              		.cfi_def_cfa_register 7
 10783 0006 0346     		mov	r3, r0
 10784 0008 FB71     		strb	r3, [r7, #7]
2747:.\AdvantageImpl.c ****     char8 retval = 0x00;
 10785              		.loc 1 2747 0
 10786 000a 0023     		movs	r3, #0
 10787 000c FB73     		strb	r3, [r7, #15]
2748:.\AdvantageImpl.c ****     PSTR ptrstr = (PSTR)&_g_sfcharmap[0];
 10788              		.loc 1 2748 0
 10789 000e 0D4B     		ldr	r3, .L474
 10790 0010 BB60     		str	r3, [r7, #8]
2749:.\AdvantageImpl.c ****     while(*ptrstr != 0x00)
 10791              		.loc 1 2749 0
 10792 0012 0BE0     		b	.L469
 10793              	.L472:
2750:.\AdvantageImpl.c ****     {
2751:.\AdvantageImpl.c ****         if(ptrstr[0] == refval)
 10794              		.loc 1 2751 0
 10795 0014 BB68     		ldr	r3, [r7, #8]
 10796 0016 1B78     		ldrb	r3, [r3]	@ zero_extendqisi2
 10797 0018 FA79     		ldrb	r2, [r7, #7]	@ zero_extendqisi2
 10798 001a 9A42     		cmp	r2, r3
 10799 001c 03D1     		bne	.L470
2752:.\AdvantageImpl.c ****         {
2753:.\AdvantageImpl.c ****             retval = ptrstr[1];
 10800              		.loc 1 2753 0
 10801 001e BB68     		ldr	r3, [r7, #8]
 10802 0020 5B78     		ldrb	r3, [r3, #1]
 10803 0022 FB73     		strb	r3, [r7, #15]
2754:.\AdvantageImpl.c ****             break;
 10804              		.loc 1 2754 0
 10805 0024 06E0     		b	.L471
ARM GAS  C:\Users\Lenovo\AppData\Local\Temp\cccA9qMw.s 			page 240


 10806              	.L470:
2755:.\AdvantageImpl.c ****         }
2756:.\AdvantageImpl.c ****         ptrstr++;
 10807              		.loc 1 2756 0
 10808 0026 BB68     		ldr	r3, [r7, #8]
 10809 0028 0133     		adds	r3, r3, #1
 10810 002a BB60     		str	r3, [r7, #8]
 10811              	.L469:
2749:.\AdvantageImpl.c ****     {
 10812              		.loc 1 2749 0
 10813 002c BB68     		ldr	r3, [r7, #8]
 10814 002e 1B78     		ldrb	r3, [r3]	@ zero_extendqisi2
 10815 0030 002B     		cmp	r3, #0
 10816 0032 EFD1     		bne	.L472
 10817              	.L471:
2757:.\AdvantageImpl.c ****     }    
2758:.\AdvantageImpl.c ****     return retval;
 10818              		.loc 1 2758 0
 10819 0034 FB7B     		ldrb	r3, [r7, #15]	@ zero_extendqisi2
2759:.\AdvantageImpl.c **** }
 10820              		.loc 1 2759 0
 10821 0036 1846     		mov	r0, r3
 10822 0038 1437     		adds	r7, r7, #20
 10823              		.cfi_def_cfa_offset 4
 10824 003a BD46     		mov	sp, r7
 10825              		.cfi_def_cfa_register 13
 10826              		@ sp needed
 10827 003c 5DF8047B 		ldr	r7, [sp], #4
 10828              		.cfi_restore 7
 10829              		.cfi_def_cfa_offset 0
 10830 0040 7047     		bx	lr
 10831              	.L475:
 10832 0042 00BF     		.align	2
 10833              	.L474:
 10834 0044 00000000 		.word	_g_sfcharmap
 10835              		.cfi_endproc
 10836              	.LFE108:
 10837              		.size	TranslateSpecialFuncionDigit, .-TranslateSpecialFuncionDigit
 10838              		.bss
 10839              	index.9615:
 10840 0000 00       		.space	1
 10841              		.text
 10842              	.Letext0:
 10843              		.file 2 "c:\\program files (x86)\\cypress\\psoc creator\\3.3\\psoc creator\\import\\gnu\\arm\\4.9.
 10844              		.file 3 "c:\\program files (x86)\\cypress\\psoc creator\\3.3\\psoc creator\\import\\gnu\\arm\\4.9.
 10845              		.file 4 "Generated_Source\\PSoC5/cytypes.h"
 10846              		.file 5 ".\\GlobalDefinitions.h"
 10847              		.file 6 ".\\SinkManager.h"
 10848              		.file 7 ".\\SinkObservables.h"
 10849              		.file 8 ".\\UARTManager.h"
 10850              		.file 9 ".\\Display.h"
 10851              		.file 10 ".\\Advantage.h"
 10852              		.file 11 ".\\Dispenser.h"
 10853              		.file 12 ".\\Eeprom.h"
 10854              		.file 13 ".\\RFLink.h"
 10855              		.file 14 ".\\Printer.h"
 10856              		.file 15 "Generated_Source\\PSoC5/core_cm3.h"
ARM GAS  C:\Users\Lenovo\AppData\Local\Temp\cccA9qMw.s 			page 241


 10857              		.section	.debug_info,"",%progbits
 10858              	.Ldebug_info0:
 10859 0000 86290000 		.4byte	0x2986
 10860 0004 0400     		.2byte	0x4
 10861 0006 00000000 		.4byte	.Ldebug_abbrev0
 10862 000a 04       		.byte	0x4
 10863 000b 01       		.uleb128 0x1
 10864 000c 8C240000 		.4byte	.LASF565
 10865 0010 01       		.byte	0x1
 10866 0011 7B1A0000 		.4byte	.LASF566
 10867 0015 48140000 		.4byte	.LASF567
 10868 0019 00000000 		.4byte	.Ldebug_ranges0+0
 10869 001d 00000000 		.4byte	0
 10870 0021 00000000 		.4byte	.Ldebug_line0
 10871 0025 02       		.uleb128 0x2
 10872 0026 01       		.byte	0x1
 10873 0027 06       		.byte	0x6
 10874 0028 D60A0000 		.4byte	.LASF0
 10875 002c 03       		.uleb128 0x3
 10876 002d E4060000 		.4byte	.LASF4
 10877 0031 02       		.byte	0x2
 10878 0032 1D       		.byte	0x1d
 10879 0033 37000000 		.4byte	0x37
 10880 0037 02       		.uleb128 0x2
 10881 0038 01       		.byte	0x1
 10882 0039 08       		.byte	0x8
 10883 003a 1C0C0000 		.4byte	.LASF1
 10884 003e 02       		.uleb128 0x2
 10885 003f 02       		.byte	0x2
 10886 0040 05       		.byte	0x5
 10887 0041 3C230000 		.4byte	.LASF2
 10888 0045 02       		.uleb128 0x2
 10889 0046 02       		.byte	0x2
 10890 0047 07       		.byte	0x7
 10891 0048 47280000 		.4byte	.LASF3
 10892 004c 03       		.uleb128 0x3
 10893 004d F4280000 		.4byte	.LASF5
 10894 0051 02       		.byte	0x2
 10895 0052 3F       		.byte	0x3f
 10896 0053 57000000 		.4byte	0x57
 10897 0057 02       		.uleb128 0x2
 10898 0058 04       		.byte	0x4
 10899 0059 05       		.byte	0x5
 10900 005a 1A080000 		.4byte	.LASF6
 10901 005e 02       		.uleb128 0x2
 10902 005f 04       		.byte	0x4
 10903 0060 07       		.byte	0x7
 10904 0061 D7130000 		.4byte	.LASF7
 10905 0065 02       		.uleb128 0x2
 10906 0066 08       		.byte	0x8
 10907 0067 05       		.byte	0x5
 10908 0068 FA160000 		.4byte	.LASF8
 10909 006c 02       		.uleb128 0x2
 10910 006d 08       		.byte	0x8
 10911 006e 07       		.byte	0x7
 10912 006f EF1E0000 		.4byte	.LASF9
 10913 0073 04       		.uleb128 0x4
ARM GAS  C:\Users\Lenovo\AppData\Local\Temp\cccA9qMw.s 			page 242


 10914 0074 04       		.byte	0x4
 10915 0075 05       		.byte	0x5
 10916 0076 696E7400 		.ascii	"int\000"
 10917 007a 02       		.uleb128 0x2
 10918 007b 04       		.byte	0x4
 10919 007c 07       		.byte	0x7
 10920 007d 8C190000 		.4byte	.LASF10
 10921 0081 03       		.uleb128 0x3
 10922 0082 E20A0000 		.4byte	.LASF11
 10923 0086 03       		.byte	0x3
 10924 0087 15       		.byte	0x15
 10925 0088 2C000000 		.4byte	0x2c
 10926 008c 03       		.uleb128 0x3
 10927 008d 3A020000 		.4byte	.LASF12
 10928 0091 03       		.byte	0x3
 10929 0092 2C       		.byte	0x2c
 10930 0093 4C000000 		.4byte	0x4c
 10931 0097 05       		.uleb128 0x5
 10932 0098 F3220000 		.4byte	.LASF13
 10933 009c 04       		.byte	0x4
 10934 009d 3801     		.2byte	0x138
 10935 009f 37000000 		.4byte	0x37
 10936 00a3 05       		.uleb128 0x5
 10937 00a4 592A0000 		.4byte	.LASF14
 10938 00a8 04       		.byte	0x4
 10939 00a9 3901     		.2byte	0x139
 10940 00ab 45000000 		.4byte	0x45
 10941 00af 05       		.uleb128 0x5
 10942 00b0 D9020000 		.4byte	.LASF15
 10943 00b4 04       		.byte	0x4
 10944 00b5 3A01     		.2byte	0x13a
 10945 00b7 5E000000 		.4byte	0x5e
 10946 00bb 05       		.uleb128 0x5
 10947 00bc E7050000 		.4byte	.LASF16
 10948 00c0 04       		.byte	0x4
 10949 00c1 3B01     		.2byte	0x13b
 10950 00c3 25000000 		.4byte	0x25
 10951 00c7 02       		.uleb128 0x2
 10952 00c8 04       		.byte	0x4
 10953 00c9 04       		.byte	0x4
 10954 00ca B7180000 		.4byte	.LASF17
 10955 00ce 02       		.uleb128 0x2
 10956 00cf 08       		.byte	0x8
 10957 00d0 04       		.byte	0x4
 10958 00d1 E1170000 		.4byte	.LASF18
 10959 00d5 05       		.uleb128 0x5
 10960 00d6 13080000 		.4byte	.LASF19
 10961 00da 04       		.byte	0x4
 10962 00db 4401     		.2byte	0x144
 10963 00dd 6C000000 		.4byte	0x6c
 10964 00e1 05       		.uleb128 0x5
 10965 00e2 C0040000 		.4byte	.LASF20
 10966 00e6 04       		.byte	0x4
 10967 00e7 4901     		.2byte	0x149
 10968 00e9 ED000000 		.4byte	0xed
 10969 00ed 02       		.uleb128 0x2
 10970 00ee 01       		.byte	0x1
ARM GAS  C:\Users\Lenovo\AppData\Local\Temp\cccA9qMw.s 			page 243


 10971 00ef 08       		.byte	0x8
 10972 00f0 A40D0000 		.4byte	.LASF21
 10973 00f4 06       		.uleb128 0x6
 10974 00f5 97000000 		.4byte	0x97
 10975 00f9 06       		.uleb128 0x6
 10976 00fa A3000000 		.4byte	0xa3
 10977 00fe 06       		.uleb128 0x6
 10978 00ff AF000000 		.4byte	0xaf
 10979 0103 07       		.uleb128 0x7
 10980 0104 04       		.byte	0x4
 10981 0105 09010000 		.4byte	0x109
 10982 0109 08       		.uleb128 0x8
 10983 010a 02       		.uleb128 0x2
 10984 010b 04       		.byte	0x4
 10985 010c 07       		.byte	0x7
 10986 010d B7000000 		.4byte	.LASF22
 10987 0111 09       		.uleb128 0x9
 10988 0112 04       		.byte	0x4
 10989 0113 07       		.uleb128 0x7
 10990 0114 04       		.byte	0x4
 10991 0115 ED000000 		.4byte	0xed
 10992 0119 0A       		.uleb128 0xa
 10993 011a 97000000 		.4byte	0x97
 10994 011e 29010000 		.4byte	0x129
 10995 0122 0B       		.uleb128 0xb
 10996 0123 0A010000 		.4byte	0x10a
 10997 0127 03       		.byte	0x3
 10998 0128 00       		.byte	0
 10999 0129 02       		.uleb128 0x2
 11000 012a 08       		.byte	0x8
 11001 012b 04       		.byte	0x4
 11002 012c 0A1D0000 		.4byte	.LASF23
 11003 0130 03       		.uleb128 0x3
 11004 0131 DA1B0000 		.4byte	.LASF24
 11005 0135 05       		.byte	0x5
 11006 0136 29       		.byte	0x29
 11007 0137 11010000 		.4byte	0x111
 11008 013b 07       		.uleb128 0x7
 11009 013c 04       		.byte	0x4
 11010 013d E1000000 		.4byte	0xe1
 11011 0141 07       		.uleb128 0x7
 11012 0142 04       		.byte	0x4
 11013 0143 97000000 		.4byte	0x97
 11014 0147 0C       		.uleb128 0xc
 11015 0148 62270000 		.4byte	.LASF33
 11016 014c 01       		.byte	0x1
 11017 014d 06       		.byte	0x6
 11018 014e 3F       		.byte	0x3f
 11019 014f 84010000 		.4byte	0x184
 11020 0153 0D       		.uleb128 0xd
 11021 0154 DE290000 		.4byte	.LASF25
 11022 0158 01       		.sleb128 1
 11023 0159 0D       		.uleb128 0xd
 11024 015a 311A0000 		.4byte	.LASF26
 11025 015e 02       		.sleb128 2
 11026 015f 0D       		.uleb128 0xd
 11027 0160 C61B0000 		.4byte	.LASF27
ARM GAS  C:\Users\Lenovo\AppData\Local\Temp\cccA9qMw.s 			page 244


 11028 0164 03       		.sleb128 3
 11029 0165 0D       		.uleb128 0xd
 11030 0166 6A220000 		.4byte	.LASF28
 11031 016a 04       		.sleb128 4
 11032 016b 0D       		.uleb128 0xd
 11033 016c 62110000 		.4byte	.LASF29
 11034 0170 05       		.sleb128 5
 11035 0171 0D       		.uleb128 0xd
 11036 0172 90250000 		.4byte	.LASF30
 11037 0176 06       		.sleb128 6
 11038 0177 0D       		.uleb128 0xd
 11039 0178 0E0E0000 		.4byte	.LASF31
 11040 017c 07       		.sleb128 7
 11041 017d 0D       		.uleb128 0xd
 11042 017e 65130000 		.4byte	.LASF32
 11043 0182 08       		.sleb128 8
 11044 0183 00       		.byte	0
 11045 0184 0C       		.uleb128 0xc
 11046 0185 C4290000 		.4byte	.LASF34
 11047 0189 01       		.byte	0x1
 11048 018a 06       		.byte	0x6
 11049 018b 4C       		.byte	0x4c
 11050 018c A3010000 		.4byte	0x1a3
 11051 0190 0D       		.uleb128 0xd
 11052 0191 D4290000 		.4byte	.LASF35
 11053 0195 01       		.sleb128 1
 11054 0196 0D       		.uleb128 0xd
 11055 0197 7A0D0000 		.4byte	.LASF36
 11056 019b 02       		.sleb128 2
 11057 019c 0D       		.uleb128 0xd
 11058 019d 73010000 		.4byte	.LASF37
 11059 01a1 03       		.sleb128 3
 11060 01a2 00       		.byte	0
 11061 01a3 0E       		.uleb128 0xe
 11062 01a4 58000000 		.4byte	.LASF96
 11063 01a8 9801     		.2byte	0x198
 11064 01aa 06       		.byte	0x6
 11065 01ab 53       		.byte	0x53
 11066 01ac 44020000 		.4byte	0x244
 11067 01b0 0F       		.uleb128 0xf
 11068 01b1 AD180000 		.4byte	.LASF38
 11069 01b5 06       		.byte	0x6
 11070 01b6 55       		.byte	0x55
 11071 01b7 44020000 		.4byte	0x244
 11072 01bb 00       		.byte	0
 11073 01bc 0F       		.uleb128 0xf
 11074 01bd C9220000 		.4byte	.LASF39
 11075 01c1 06       		.byte	0x6
 11076 01c2 56       		.byte	0x56
 11077 01c3 F4000000 		.4byte	0xf4
 11078 01c7 01       		.byte	0x1
 11079 01c8 0F       		.uleb128 0xf
 11080 01c9 68250000 		.4byte	.LASF40
 11081 01cd 06       		.byte	0x6
 11082 01ce 57       		.byte	0x57
 11083 01cf F4000000 		.4byte	0xf4
 11084 01d3 02       		.byte	0x2
ARM GAS  C:\Users\Lenovo\AppData\Local\Temp\cccA9qMw.s 			page 245


 11085 01d4 0F       		.uleb128 0xf
 11086 01d5 E9260000 		.4byte	.LASF41
 11087 01d9 06       		.byte	0x6
 11088 01da 58       		.byte	0x58
 11089 01db F4000000 		.4byte	0xf4
 11090 01df 03       		.byte	0x3
 11091 01e0 0F       		.uleb128 0xf
 11092 01e1 1C0D0000 		.4byte	.LASF42
 11093 01e5 06       		.byte	0x6
 11094 01e6 5A       		.byte	0x5a
 11095 01e7 F9000000 		.4byte	0xf9
 11096 01eb 04       		.byte	0x4
 11097 01ec 0F       		.uleb128 0xf
 11098 01ed 0E100000 		.4byte	.LASF43
 11099 01f1 06       		.byte	0x6
 11100 01f2 5B       		.byte	0x5b
 11101 01f3 F9000000 		.4byte	0xf9
 11102 01f7 06       		.byte	0x6
 11103 01f8 0F       		.uleb128 0xf
 11104 01f9 77080000 		.4byte	.LASF44
 11105 01fd 06       		.byte	0x6
 11106 01fe 5C       		.byte	0x5c
 11107 01ff F9000000 		.4byte	0xf9
 11108 0203 08       		.byte	0x8
 11109 0204 0F       		.uleb128 0xf
 11110 0205 5D240000 		.4byte	.LASF45
 11111 0209 06       		.byte	0x6
 11112 020a 5D       		.byte	0x5d
 11113 020b F9000000 		.4byte	0xf9
 11114 020f 0A       		.byte	0xa
 11115 0210 0F       		.uleb128 0xf
 11116 0211 7D070000 		.4byte	.LASF46
 11117 0215 06       		.byte	0x6
 11118 0216 5E       		.byte	0x5e
 11119 0217 50020000 		.4byte	0x250
 11120 021b 0C       		.byte	0xc
 11121 021c 10       		.uleb128 0x10
 11122 021d E52A0000 		.4byte	.LASF47
 11123 0221 06       		.byte	0x6
 11124 0222 5F       		.byte	0x5f
 11125 0223 F9000000 		.4byte	0xf9
 11126 0227 8C01     		.2byte	0x18c
 11127 0229 10       		.uleb128 0x10
 11128 022a 28150000 		.4byte	.LASF48
 11129 022e 06       		.byte	0x6
 11130 022f 62       		.byte	0x62
 11131 0230 11010000 		.4byte	0x111
 11132 0234 9001     		.2byte	0x190
 11133 0236 10       		.uleb128 0x10
 11134 0237 7C150000 		.4byte	.LASF49
 11135 023b 06       		.byte	0x6
 11136 023c 63       		.byte	0x63
 11137 023d 6C020000 		.4byte	0x26c
 11138 0241 9401     		.2byte	0x194
 11139 0243 00       		.byte	0
 11140 0244 06       		.uleb128 0x6
 11141 0245 49020000 		.4byte	0x249
ARM GAS  C:\Users\Lenovo\AppData\Local\Temp\cccA9qMw.s 			page 246


 11142 0249 02       		.uleb128 0x2
 11143 024a 01       		.byte	0x1
 11144 024b 02       		.byte	0x2
 11145 024c 3A0D0000 		.4byte	.LASF50
 11146 0250 0A       		.uleb128 0xa
 11147 0251 E1000000 		.4byte	0xe1
 11148 0255 61020000 		.4byte	0x261
 11149 0259 11       		.uleb128 0x11
 11150 025a 0A010000 		.4byte	0x10a
 11151 025e 7F01     		.2byte	0x17f
 11152 0260 00       		.byte	0
 11153 0261 12       		.uleb128 0x12
 11154 0262 6C020000 		.4byte	0x26c
 11155 0266 13       		.uleb128 0x13
 11156 0267 11010000 		.4byte	0x111
 11157 026b 00       		.byte	0
 11158 026c 07       		.uleb128 0x7
 11159 026d 04       		.byte	0x4
 11160 026e 61020000 		.4byte	0x261
 11161 0272 03       		.uleb128 0x3
 11162 0273 F2190000 		.4byte	.LASF51
 11163 0277 06       		.byte	0x6
 11164 0278 64       		.byte	0x64
 11165 0279 7D020000 		.4byte	0x27d
 11166 027d 07       		.uleb128 0x7
 11167 027e 04       		.byte	0x4
 11168 027f A3010000 		.4byte	0x1a3
 11169 0283 0C       		.uleb128 0xc
 11170 0284 CB070000 		.4byte	.LASF52
 11171 0288 01       		.byte	0x1
 11172 0289 07       		.byte	0x7
 11173 028a 0F       		.byte	0xf
 11174 028b 92030000 		.4byte	0x392
 11175 028f 0D       		.uleb128 0xd
 11176 0290 C11C0000 		.4byte	.LASF53
 11177 0294 01       		.sleb128 1
 11178 0295 0D       		.uleb128 0xd
 11179 0296 18210000 		.4byte	.LASF54
 11180 029a 02       		.sleb128 2
 11181 029b 0D       		.uleb128 0xd
 11182 029c 85020000 		.4byte	.LASF55
 11183 02a0 03       		.sleb128 3
 11184 02a1 0D       		.uleb128 0xd
 11185 02a2 881F0000 		.4byte	.LASF56
 11186 02a6 04       		.sleb128 4
 11187 02a7 0D       		.uleb128 0xd
 11188 02a8 1F020000 		.4byte	.LASF57
 11189 02ac 05       		.sleb128 5
 11190 02ad 0D       		.uleb128 0xd
 11191 02ae FC040000 		.4byte	.LASF58
 11192 02b2 06       		.sleb128 6
 11193 02b3 0D       		.uleb128 0xd
 11194 02b4 81170000 		.4byte	.LASF59
 11195 02b8 07       		.sleb128 7
 11196 02b9 0D       		.uleb128 0xd
 11197 02ba DE000000 		.4byte	.LASF60
 11198 02be 08       		.sleb128 8
ARM GAS  C:\Users\Lenovo\AppData\Local\Temp\cccA9qMw.s 			page 247


 11199 02bf 0D       		.uleb128 0xd
 11200 02c0 85150000 		.4byte	.LASF61
 11201 02c4 09       		.sleb128 9
 11202 02c5 0D       		.uleb128 0xd
 11203 02c6 54080000 		.4byte	.LASF62
 11204 02ca 0A       		.sleb128 10
 11205 02cb 0D       		.uleb128 0xd
 11206 02cc 030A0000 		.4byte	.LASF63
 11207 02d0 0B       		.sleb128 11
 11208 02d1 0D       		.uleb128 0xd
 11209 02d2 87030000 		.4byte	.LASF64
 11210 02d6 0C       		.sleb128 12
 11211 02d7 0D       		.uleb128 0xd
 11212 02d8 FA1F0000 		.4byte	.LASF65
 11213 02dc 0D       		.sleb128 13
 11214 02dd 0D       		.uleb128 0xd
 11215 02de 13240000 		.4byte	.LASF66
 11216 02e2 0E       		.sleb128 14
 11217 02e3 0D       		.uleb128 0xd
 11218 02e4 F00C0000 		.4byte	.LASF67
 11219 02e8 0F       		.sleb128 15
 11220 02e9 0D       		.uleb128 0xd
 11221 02ea D2080000 		.4byte	.LASF68
 11222 02ee 10       		.sleb128 16
 11223 02ef 0D       		.uleb128 0xd
 11224 02f0 71270000 		.4byte	.LASF69
 11225 02f4 11       		.sleb128 17
 11226 02f5 0D       		.uleb128 0xd
 11227 02f6 97230000 		.4byte	.LASF70
 11228 02fa 12       		.sleb128 18
 11229 02fb 0D       		.uleb128 0xd
 11230 02fc E3040000 		.4byte	.LASF71
 11231 0300 13       		.sleb128 19
 11232 0301 0D       		.uleb128 0xd
 11233 0302 E11B0000 		.4byte	.LASF72
 11234 0306 14       		.sleb128 20
 11235 0307 0D       		.uleb128 0xd
 11236 0308 91080000 		.4byte	.LASF73
 11237 030c 15       		.sleb128 21
 11238 030d 0D       		.uleb128 0xd
 11239 030e B5160000 		.4byte	.LASF74
 11240 0312 16       		.sleb128 22
 11241 0313 0D       		.uleb128 0xd
 11242 0314 C90F0000 		.4byte	.LASF75
 11243 0318 17       		.sleb128 23
 11244 0319 0D       		.uleb128 0xd
 11245 031a C6050000 		.4byte	.LASF76
 11246 031e 18       		.sleb128 24
 11247 031f 0D       		.uleb128 0xd
 11248 0320 AC280000 		.4byte	.LASF77
 11249 0324 19       		.sleb128 25
 11250 0325 0D       		.uleb128 0xd
 11251 0326 CF210000 		.4byte	.LASF78
 11252 032a 1A       		.sleb128 26
 11253 032b 0D       		.uleb128 0xd
 11254 032c 280A0000 		.4byte	.LASF79
 11255 0330 1B       		.sleb128 27
ARM GAS  C:\Users\Lenovo\AppData\Local\Temp\cccA9qMw.s 			page 248


 11256 0331 0D       		.uleb128 0xd
 11257 0332 0D120000 		.4byte	.LASF80
 11258 0336 1C       		.sleb128 28
 11259 0337 0D       		.uleb128 0xd
 11260 0338 CB2A0000 		.4byte	.LASF81
 11261 033c 1D       		.sleb128 29
 11262 033d 0D       		.uleb128 0xd
 11263 033e 48270000 		.4byte	.LASF82
 11264 0342 1E       		.sleb128 30
 11265 0343 0D       		.uleb128 0xd
 11266 0344 D4230000 		.4byte	.LASF83
 11267 0348 1F       		.sleb128 31
 11268 0349 0D       		.uleb128 0xd
 11269 034a 65030000 		.4byte	.LASF84
 11270 034e 20       		.sleb128 32
 11271 034f 0D       		.uleb128 0xd
 11272 0350 F00B0000 		.4byte	.LASF85
 11273 0354 21       		.sleb128 33
 11274 0355 0D       		.uleb128 0xd
 11275 0356 67070000 		.4byte	.LASF86
 11276 035a 22       		.sleb128 34
 11277 035b 0D       		.uleb128 0xd
 11278 035c 01230000 		.4byte	.LASF87
 11279 0360 23       		.sleb128 35
 11280 0361 0D       		.uleb128 0xd
 11281 0362 1F0E0000 		.4byte	.LASF88
 11282 0366 24       		.sleb128 36
 11283 0367 0D       		.uleb128 0xd
 11284 0368 DE090000 		.4byte	.LASF89
 11285 036c 25       		.sleb128 37
 11286 036d 0D       		.uleb128 0xd
 11287 036e 1E270000 		.4byte	.LASF90
 11288 0372 26       		.sleb128 38
 11289 0373 0D       		.uleb128 0xd
 11290 0374 67020000 		.4byte	.LASF91
 11291 0378 27       		.sleb128 39
 11292 0379 0D       		.uleb128 0xd
 11293 037a F7290000 		.4byte	.LASF92
 11294 037e 28       		.sleb128 40
 11295 037f 0D       		.uleb128 0xd
 11296 0380 A01B0000 		.4byte	.LASF93
 11297 0384 29       		.sleb128 41
 11298 0385 0D       		.uleb128 0xd
 11299 0386 C6040000 		.4byte	.LASF94
 11300 038a 2A       		.sleb128 42
 11301 038b 0D       		.uleb128 0xd
 11302 038c 83160000 		.4byte	.LASF95
 11303 0390 2B       		.sleb128 43
 11304 0391 00       		.byte	0
 11305 0392 14       		.uleb128 0x14
 11306 0393 3B1A0000 		.4byte	.LASF97
 11307 0397 4C       		.byte	0x4c
 11308 0398 08       		.byte	0x8
 11309 0399 2C       		.byte	0x2c
 11310 039a 83040000 		.4byte	0x483
 11311 039e 0F       		.uleb128 0xf
 11312 039f 27200000 		.4byte	.LASF98
ARM GAS  C:\Users\Lenovo\AppData\Local\Temp\cccA9qMw.s 			page 249


 11313 03a3 08       		.byte	0x8
 11314 03a4 2E       		.byte	0x2e
 11315 03a5 97000000 		.4byte	0x97
 11316 03a9 00       		.byte	0
 11317 03aa 0F       		.uleb128 0xf
 11318 03ab BD100000 		.4byte	.LASF99
 11319 03af 08       		.byte	0x8
 11320 03b0 31       		.byte	0x31
 11321 03b1 6C020000 		.4byte	0x26c
 11322 03b5 04       		.byte	0x4
 11323 03b6 0F       		.uleb128 0xf
 11324 03b7 7A1D0000 		.4byte	.LASF100
 11325 03bb 08       		.byte	0x8
 11326 03bc 34       		.byte	0x34
 11327 03bd 03010000 		.4byte	0x103
 11328 03c1 08       		.byte	0x8
 11329 03c2 0F       		.uleb128 0xf
 11330 03c3 A2030000 		.4byte	.LASF101
 11331 03c7 08       		.byte	0x8
 11332 03c8 35       		.byte	0x35
 11333 03c9 03010000 		.4byte	0x103
 11334 03cd 0C       		.byte	0xc
 11335 03ce 0F       		.uleb128 0xf
 11336 03cf 9D1F0000 		.4byte	.LASF102
 11337 03d3 08       		.byte	0x8
 11338 03d4 36       		.byte	0x36
 11339 03d5 88040000 		.4byte	0x488
 11340 03d9 10       		.byte	0x10
 11341 03da 0F       		.uleb128 0xf
 11342 03db 8B1B0000 		.4byte	.LASF103
 11343 03df 08       		.byte	0x8
 11344 03e0 37       		.byte	0x37
 11345 03e1 99040000 		.4byte	0x499
 11346 03e5 14       		.byte	0x14
 11347 03e6 0F       		.uleb128 0xf
 11348 03e7 35240000 		.4byte	.LASF104
 11349 03eb 08       		.byte	0x8
 11350 03ec 39       		.byte	0x39
 11351 03ed 88040000 		.4byte	0x488
 11352 03f1 18       		.byte	0x18
 11353 03f2 0F       		.uleb128 0xf
 11354 03f3 A00E0000 		.4byte	.LASF105
 11355 03f7 08       		.byte	0x8
 11356 03f8 3A       		.byte	0x3a
 11357 03f9 88040000 		.4byte	0x488
 11358 03fd 1C       		.byte	0x1c
 11359 03fe 0F       		.uleb128 0xf
 11360 03ff 450B0000 		.4byte	.LASF106
 11361 0403 08       		.byte	0x8
 11362 0404 3B       		.byte	0x3b
 11363 0405 88040000 		.4byte	0x488
 11364 0409 20       		.byte	0x20
 11365 040a 0F       		.uleb128 0xf
 11366 040b E0200000 		.4byte	.LASF107
 11367 040f 08       		.byte	0x8
 11368 0410 3C       		.byte	0x3c
 11369 0411 A4040000 		.4byte	0x4a4
ARM GAS  C:\Users\Lenovo\AppData\Local\Temp\cccA9qMw.s 			page 250


 11370 0415 24       		.byte	0x24
 11371 0416 0F       		.uleb128 0xf
 11372 0417 081C0000 		.4byte	.LASF108
 11373 041b 08       		.byte	0x8
 11374 041c 3D       		.byte	0x3d
 11375 041d A4040000 		.4byte	0x4a4
 11376 0421 28       		.byte	0x28
 11377 0422 0F       		.uleb128 0xf
 11378 0423 370B0000 		.4byte	.LASF109
 11379 0427 08       		.byte	0x8
 11380 0428 3E       		.byte	0x3e
 11381 0429 03010000 		.4byte	0x103
 11382 042d 2C       		.byte	0x2c
 11383 042e 0F       		.uleb128 0xf
 11384 042f 6E0D0000 		.4byte	.LASF110
 11385 0433 08       		.byte	0x8
 11386 0434 40       		.byte	0x40
 11387 0435 99040000 		.4byte	0x499
 11388 0439 30       		.byte	0x30
 11389 043a 0F       		.uleb128 0xf
 11390 043b 99190000 		.4byte	.LASF111
 11391 043f 08       		.byte	0x8
 11392 0440 41       		.byte	0x41
 11393 0441 88040000 		.4byte	0x488
 11394 0445 34       		.byte	0x34
 11395 0446 0F       		.uleb128 0xf
 11396 0447 F9220000 		.4byte	.LASF112
 11397 044b 08       		.byte	0x8
 11398 044c 42       		.byte	0x42
 11399 044d 99040000 		.4byte	0x499
 11400 0451 38       		.byte	0x38
 11401 0452 0F       		.uleb128 0xf
 11402 0453 7E100000 		.4byte	.LASF113
 11403 0457 08       		.byte	0x8
 11404 0458 43       		.byte	0x43
 11405 0459 C0040000 		.4byte	0x4c0
 11406 045d 3C       		.byte	0x3c
 11407 045e 0F       		.uleb128 0xf
 11408 045f 181F0000 		.4byte	.LASF114
 11409 0463 08       		.byte	0x8
 11410 0464 44       		.byte	0x44
 11411 0465 E1040000 		.4byte	0x4e1
 11412 0469 40       		.byte	0x40
 11413 046a 0F       		.uleb128 0xf
 11414 046b 1E0F0000 		.4byte	.LASF115
 11415 046f 08       		.byte	0x8
 11416 0470 45       		.byte	0x45
 11417 0471 99040000 		.4byte	0x499
 11418 0475 44       		.byte	0x44
 11419 0476 0F       		.uleb128 0xf
 11420 0477 D3170000 		.4byte	.LASF116
 11421 047b 08       		.byte	0x8
 11422 047c 46       		.byte	0x46
 11423 047d 03010000 		.4byte	0x103
 11424 0481 48       		.byte	0x48
 11425 0482 00       		.byte	0
 11426 0483 15       		.uleb128 0x15
ARM GAS  C:\Users\Lenovo\AppData\Local\Temp\cccA9qMw.s 			page 251


 11427 0484 97000000 		.4byte	0x97
 11428 0488 07       		.uleb128 0x7
 11429 0489 04       		.byte	0x4
 11430 048a 83040000 		.4byte	0x483
 11431 048e 12       		.uleb128 0x12
 11432 048f 99040000 		.4byte	0x499
 11433 0493 13       		.uleb128 0x13
 11434 0494 97000000 		.4byte	0x97
 11435 0498 00       		.byte	0
 11436 0499 07       		.uleb128 0x7
 11437 049a 04       		.byte	0x4
 11438 049b 8E040000 		.4byte	0x48e
 11439 049f 15       		.uleb128 0x15
 11440 04a0 A3000000 		.4byte	0xa3
 11441 04a4 07       		.uleb128 0x7
 11442 04a5 04       		.byte	0x4
 11443 04a6 9F040000 		.4byte	0x49f
 11444 04aa 12       		.uleb128 0x12
 11445 04ab B5040000 		.4byte	0x4b5
 11446 04af 13       		.uleb128 0x13
 11447 04b0 B5040000 		.4byte	0x4b5
 11448 04b4 00       		.byte	0
 11449 04b5 07       		.uleb128 0x7
 11450 04b6 04       		.byte	0x4
 11451 04b7 BB040000 		.4byte	0x4bb
 11452 04bb 16       		.uleb128 0x16
 11453 04bc E1000000 		.4byte	0xe1
 11454 04c0 07       		.uleb128 0x7
 11455 04c1 04       		.byte	0x4
 11456 04c2 AA040000 		.4byte	0x4aa
 11457 04c6 12       		.uleb128 0x12
 11458 04c7 D6040000 		.4byte	0x4d6
 11459 04cb 13       		.uleb128 0x13
 11460 04cc D6040000 		.4byte	0x4d6
 11461 04d0 13       		.uleb128 0x13
 11462 04d1 97000000 		.4byte	0x97
 11463 04d5 00       		.byte	0
 11464 04d6 07       		.uleb128 0x7
 11465 04d7 04       		.byte	0x4
 11466 04d8 DC040000 		.4byte	0x4dc
 11467 04dc 16       		.uleb128 0x16
 11468 04dd 97000000 		.4byte	0x97
 11469 04e1 07       		.uleb128 0x7
 11470 04e2 04       		.byte	0x4
 11471 04e3 C6040000 		.4byte	0x4c6
 11472 04e7 03       		.uleb128 0x3
 11473 04e8 A7030000 		.4byte	.LASF117
 11474 04ec 08       		.byte	0x8
 11475 04ed 48       		.byte	0x48
 11476 04ee 92030000 		.4byte	0x392
 11477 04f2 0C       		.uleb128 0xc
 11478 04f3 B2060000 		.4byte	.LASF118
 11479 04f7 01       		.byte	0x1
 11480 04f8 08       		.byte	0x8
 11481 04f9 51       		.byte	0x51
 11482 04fa 14050000 		.4byte	0x514
 11483 04fe 0D       		.uleb128 0xd
ARM GAS  C:\Users\Lenovo\AppData\Local\Temp\cccA9qMw.s 			page 252


 11484 04ff C00C0000 		.4byte	.LASF119
 11485 0503 C001     		.sleb128 192
 11486 0505 0D       		.uleb128 0xd
 11487 0506 E9220000 		.4byte	.LASF120
 11488 050a C101     		.sleb128 193
 11489 050c 0D       		.uleb128 0xd
 11490 050d E80B0000 		.4byte	.LASF121
 11491 0511 C201     		.sleb128 194
 11492 0513 00       		.byte	0
 11493 0514 0E       		.uleb128 0xe
 11494 0515 801D0000 		.4byte	.LASF122
 11495 0519 0C01     		.2byte	0x10c
 11496 051b 08       		.byte	0x8
 11497 051c 59       		.byte	0x59
 11498 051d 60050000 		.4byte	0x560
 11499 0521 0F       		.uleb128 0xf
 11500 0522 E9260000 		.4byte	.LASF41
 11501 0526 08       		.byte	0x8
 11502 0527 5B       		.byte	0x5b
 11503 0528 F4000000 		.4byte	0xf4
 11504 052c 00       		.byte	0
 11505 052d 0F       		.uleb128 0xf
 11506 052e FB000000 		.4byte	.LASF123
 11507 0532 08       		.byte	0x8
 11508 0533 5C       		.byte	0x5c
 11509 0534 F9000000 		.4byte	0xf9
 11510 0538 02       		.byte	0x2
 11511 0539 0F       		.uleb128 0xf
 11512 053a 75040000 		.4byte	.LASF124
 11513 053e 08       		.byte	0x8
 11514 053f 5D       		.byte	0x5d
 11515 0540 60050000 		.4byte	0x560
 11516 0544 04       		.byte	0x4
 11517 0545 10       		.uleb128 0x10
 11518 0546 83280000 		.4byte	.LASF125
 11519 054a 08       		.byte	0x8
 11520 054b 5E       		.byte	0x5e
 11521 054c 80050000 		.4byte	0x580
 11522 0550 0401     		.2byte	0x104
 11523 0552 10       		.uleb128 0x10
 11524 0553 952A0000 		.4byte	.LASF126
 11525 0557 08       		.byte	0x8
 11526 0558 60       		.byte	0x60
 11527 0559 86050000 		.4byte	0x586
 11528 055d 0801     		.2byte	0x108
 11529 055f 00       		.byte	0
 11530 0560 0A       		.uleb128 0xa
 11531 0561 E1000000 		.4byte	0xe1
 11532 0565 70050000 		.4byte	0x570
 11533 0569 0B       		.uleb128 0xb
 11534 056a 0A010000 		.4byte	0x10a
 11535 056e FF       		.byte	0xff
 11536 056f 00       		.byte	0
 11537 0570 12       		.uleb128 0x12
 11538 0571 80050000 		.4byte	0x580
 11539 0575 13       		.uleb128 0x13
 11540 0576 97000000 		.4byte	0x97
ARM GAS  C:\Users\Lenovo\AppData\Local\Temp\cccA9qMw.s 			page 253


 11541 057a 13       		.uleb128 0x13
 11542 057b 3B010000 		.4byte	0x13b
 11543 057f 00       		.byte	0
 11544 0580 07       		.uleb128 0x7
 11545 0581 04       		.byte	0x4
 11546 0582 70050000 		.4byte	0x570
 11547 0586 07       		.uleb128 0x7
 11548 0587 04       		.byte	0x4
 11549 0588 E7040000 		.4byte	0x4e7
 11550 058c 03       		.uleb128 0x3
 11551 058d E61D0000 		.4byte	.LASF127
 11552 0591 08       		.byte	0x8
 11553 0592 61       		.byte	0x61
 11554 0593 97050000 		.4byte	0x597
 11555 0597 07       		.uleb128 0x7
 11556 0598 04       		.byte	0x4
 11557 0599 14050000 		.4byte	0x514
 11558 059d 0C       		.uleb128 0xc
 11559 059e 72240000 		.4byte	.LASF128
 11560 05a2 01       		.byte	0x1
 11561 05a3 08       		.byte	0x8
 11562 05a4 6D       		.byte	0x6d
 11563 05a5 D4050000 		.4byte	0x5d4
 11564 05a9 0D       		.uleb128 0xd
 11565 05aa 32020000 		.4byte	.LASF129
 11566 05ae A001     		.sleb128 160
 11567 05b0 0D       		.uleb128 0xd
 11568 05b1 5A0E0000 		.4byte	.LASF130
 11569 05b5 A101     		.sleb128 161
 11570 05b7 0D       		.uleb128 0xd
 11571 05b8 F2150000 		.4byte	.LASF131
 11572 05bc A201     		.sleb128 162
 11573 05be 0D       		.uleb128 0xd
 11574 05bf 4A090000 		.4byte	.LASF132
 11575 05c3 A301     		.sleb128 163
 11576 05c5 0D       		.uleb128 0xd
 11577 05c6 58090000 		.4byte	.LASF133
 11578 05ca A401     		.sleb128 164
 11579 05cc 0D       		.uleb128 0xd
 11580 05cd D71A0000 		.4byte	.LASF134
 11581 05d1 A501     		.sleb128 165
 11582 05d3 00       		.byte	0
 11583 05d4 0C       		.uleb128 0xc
 11584 05d5 3F080000 		.4byte	.LASF135
 11585 05d9 01       		.byte	0x1
 11586 05da 09       		.byte	0x9
 11587 05db 21       		.byte	0x21
 11588 05dc 47070000 		.4byte	0x747
 11589 05e0 0D       		.uleb128 0xd
 11590 05e1 32110000 		.4byte	.LASF136
 11591 05e5 01       		.sleb128 1
 11592 05e6 0D       		.uleb128 0xd
 11593 05e7 42110000 		.4byte	.LASF137
 11594 05eb 02       		.sleb128 2
 11595 05ec 0D       		.uleb128 0xd
 11596 05ed 52110000 		.4byte	.LASF138
 11597 05f1 03       		.sleb128 3
ARM GAS  C:\Users\Lenovo\AppData\Local\Temp\cccA9qMw.s 			page 254


 11598 05f2 0D       		.uleb128 0xd
 11599 05f3 CF1E0000 		.4byte	.LASF139
 11600 05f7 04       		.sleb128 4
 11601 05f8 0D       		.uleb128 0xd
 11602 05f9 63100000 		.4byte	.LASF140
 11603 05fd 05       		.sleb128 5
 11604 05fe 0D       		.uleb128 0xd
 11605 05ff 380C0000 		.4byte	.LASF141
 11606 0603 06       		.sleb128 6
 11607 0604 0D       		.uleb128 0xd
 11608 0605 25070000 		.4byte	.LASF142
 11609 0609 0F       		.sleb128 15
 11610 060a 0D       		.uleb128 0xd
 11611 060b 29180000 		.4byte	.LASF143
 11612 060f FE00     		.sleb128 126
 11613 0611 0D       		.uleb128 0xd
 11614 0612 46180000 		.4byte	.LASF144
 11615 0616 8601     		.sleb128 134
 11616 0618 0D       		.uleb128 0xd
 11617 0619 44010000 		.4byte	.LASF145
 11618 061d 07       		.sleb128 7
 11619 061e 0D       		.uleb128 0xd
 11620 061f 8D210000 		.4byte	.LASF146
 11621 0623 08       		.sleb128 8
 11622 0624 0D       		.uleb128 0xd
 11623 0625 9B0F0000 		.4byte	.LASF147
 11624 0629 09       		.sleb128 9
 11625 062a 0D       		.uleb128 0xd
 11626 062b 1C1A0000 		.4byte	.LASF148
 11627 062f 0A       		.sleb128 10
 11628 0630 0D       		.uleb128 0xd
 11629 0631 37170000 		.4byte	.LASF149
 11630 0635 0B       		.sleb128 11
 11631 0636 0D       		.uleb128 0xd
 11632 0637 CA160000 		.4byte	.LASF150
 11633 063b 25       		.sleb128 37
 11634 063c 0D       		.uleb128 0xd
 11635 063d 11180000 		.4byte	.LASF151
 11636 0641 26       		.sleb128 38
 11637 0642 0D       		.uleb128 0xd
 11638 0643 77180000 		.4byte	.LASF152
 11639 0647 27       		.sleb128 39
 11640 0648 0D       		.uleb128 0xd
 11641 0649 371E0000 		.4byte	.LASF153
 11642 064d 2F       		.sleb128 47
 11643 064e 0D       		.uleb128 0xd
 11644 064f 160B0000 		.4byte	.LASF154
 11645 0653 2C       		.sleb128 44
 11646 0654 0D       		.uleb128 0xd
 11647 0655 55170000 		.4byte	.LASF155
 11648 0659 0C       		.sleb128 12
 11649 065a 0D       		.uleb128 0xd
 11650 065b 030B0000 		.4byte	.LASF156
 11651 065f 8501     		.sleb128 133
 11652 0661 0D       		.uleb128 0xd
 11653 0662 D9190000 		.4byte	.LASF157
 11654 0666 1C       		.sleb128 28
ARM GAS  C:\Users\Lenovo\AppData\Local\Temp\cccA9qMw.s 			page 255


 11655 0667 0D       		.uleb128 0xd
 11656 0668 761E0000 		.4byte	.LASF158
 11657 066c 12       		.sleb128 18
 11658 066d 0D       		.uleb128 0xd
 11659 066e 01160000 		.4byte	.LASF159
 11660 0672 13       		.sleb128 19
 11661 0673 0D       		.uleb128 0xd
 11662 0674 33250000 		.4byte	.LASF160
 11663 0678 24       		.sleb128 36
 11664 0679 0D       		.uleb128 0xd
 11665 067a 4F220000 		.4byte	.LASF161
 11666 067e 0D       		.sleb128 13
 11667 067f 0D       		.uleb128 0xd
 11668 0680 94090000 		.4byte	.LASF162
 11669 0684 0E       		.sleb128 14
 11670 0685 0D       		.uleb128 0xd
 11671 0686 AB1D0000 		.4byte	.LASF163
 11672 068a 8301     		.sleb128 131
 11673 068c 0D       		.uleb128 0xd
 11674 068d 5D040000 		.4byte	.LASF164
 11675 0691 DA00     		.sleb128 90
 11676 0693 0D       		.uleb128 0xd
 11677 0694 E7020000 		.4byte	.LASF165
 11678 0698 31       		.sleb128 49
 11679 0699 0D       		.uleb128 0xd
 11680 069a B9140000 		.4byte	.LASF166
 11681 069e 35       		.sleb128 53
 11682 069f 0D       		.uleb128 0xd
 11683 06a0 CC0B0000 		.4byte	.LASF167
 11684 06a4 2E       		.sleb128 46
 11685 06a5 0D       		.uleb128 0xd
 11686 06a6 8F1D0000 		.4byte	.LASF168
 11687 06aa 8C01     		.sleb128 140
 11688 06ac 0D       		.uleb128 0xd
 11689 06ad 810C0000 		.4byte	.LASF169
 11690 06b1 9601     		.sleb128 150
 11691 06b3 0D       		.uleb128 0xd
 11692 06b4 3D0A0000 		.4byte	.LASF170
 11693 06b8 39       		.sleb128 57
 11694 06b9 0D       		.uleb128 0xd
 11695 06ba 19170000 		.4byte	.LASF171
 11696 06be 9701     		.sleb128 151
 11697 06c0 0D       		.uleb128 0xd
 11698 06c1 1A2B0000 		.4byte	.LASF172
 11699 06c5 9801     		.sleb128 152
 11700 06c7 0D       		.uleb128 0xd
 11701 06c8 851C0000 		.4byte	.LASF173
 11702 06cc 3E       		.sleb128 62
 11703 06cd 0D       		.uleb128 0xd
 11704 06ce C2210000 		.4byte	.LASF174
 11705 06d2 3F       		.sleb128 63
 11706 06d3 0D       		.uleb128 0xd
 11707 06d4 950A0000 		.4byte	.LASF175
 11708 06d8 C000     		.sleb128 64
 11709 06da 0D       		.uleb128 0xd
 11710 06db 86260000 		.4byte	.LASF176
 11711 06df 8D01     		.sleb128 141
ARM GAS  C:\Users\Lenovo\AppData\Local\Temp\cccA9qMw.s 			page 256


 11712 06e1 0D       		.uleb128 0xd
 11713 06e2 15040000 		.4byte	.LASF177
 11714 06e6 23       		.sleb128 35
 11715 06e7 0D       		.uleb128 0xd
 11716 06e8 AC0B0000 		.4byte	.LASF178
 11717 06ec 2A       		.sleb128 42
 11718 06ed 0D       		.uleb128 0xd
 11719 06ee 78220000 		.4byte	.LASF179
 11720 06f2 2B       		.sleb128 43
 11721 06f3 0D       		.uleb128 0xd
 11722 06f4 950B0000 		.4byte	.LASF180
 11723 06f8 3C       		.sleb128 60
 11724 06f9 0D       		.uleb128 0xd
 11725 06fa B6110000 		.4byte	.LASF181
 11726 06fe C100     		.sleb128 65
 11727 0700 0D       		.uleb128 0xd
 11728 0701 E90D0000 		.4byte	.LASF182
 11729 0705 EB00     		.sleb128 107
 11730 0707 0D       		.uleb128 0xd
 11731 0708 94160000 		.4byte	.LASF183
 11732 070c E700     		.sleb128 103
 11733 070e 0D       		.uleb128 0xd
 11734 070f 48070000 		.4byte	.LASF184
 11735 0713 E400     		.sleb128 100
 11736 0715 0D       		.uleb128 0xd
 11737 0716 46230000 		.4byte	.LASF185
 11738 071a E500     		.sleb128 101
 11739 071c 0D       		.uleb128 0xd
 11740 071d FD130000 		.4byte	.LASF186
 11741 0721 9901     		.sleb128 153
 11742 0723 0D       		.uleb128 0xd
 11743 0724 0C140000 		.4byte	.LASF187
 11744 0728 9A01     		.sleb128 154
 11745 072a 0D       		.uleb128 0xd
 11746 072b 1B140000 		.4byte	.LASF188
 11747 072f 9B01     		.sleb128 155
 11748 0731 0D       		.uleb128 0xd
 11749 0732 2A140000 		.4byte	.LASF189
 11750 0736 9C01     		.sleb128 156
 11751 0738 0D       		.uleb128 0xd
 11752 0739 6A1C0000 		.4byte	.LASF190
 11753 073d FA01     		.sleb128 250
 11754 073f 0D       		.uleb128 0xd
 11755 0740 73230000 		.4byte	.LASF191
 11756 0744 FF01     		.sleb128 255
 11757 0746 00       		.byte	0
 11758 0747 17       		.uleb128 0x17
 11759 0748 01       		.byte	0x1
 11760 0749 09       		.byte	0x9
 11761 074a 82       		.byte	0x82
 11762 074b 5C070000 		.4byte	0x75c
 11763 074f 0D       		.uleb128 0xd
 11764 0750 46000000 		.4byte	.LASF192
 11765 0754 00       		.sleb128 0
 11766 0755 0D       		.uleb128 0xd
 11767 0756 4F000000 		.4byte	.LASF193
 11768 075a 01       		.sleb128 1
ARM GAS  C:\Users\Lenovo\AppData\Local\Temp\cccA9qMw.s 			page 257


 11769 075b 00       		.byte	0
 11770 075c 07       		.uleb128 0x7
 11771 075d 04       		.byte	0x4
 11772 075e 62070000 		.4byte	0x762
 11773 0762 18       		.uleb128 0x18
 11774 0763 49020000 		.4byte	0x249
 11775 0767 71070000 		.4byte	0x771
 11776 076b 13       		.uleb128 0x13
 11777 076c 11010000 		.4byte	0x111
 11778 0770 00       		.byte	0
 11779 0771 03       		.uleb128 0x3
 11780 0772 AD0E0000 		.4byte	.LASF194
 11781 0776 0A       		.byte	0xa
 11782 0777 22       		.byte	0x22
 11783 0778 13010000 		.4byte	0x113
 11784 077c 03       		.uleb128 0x3
 11785 077d 34270000 		.4byte	.LASF195
 11786 0781 0A       		.byte	0xa
 11787 0782 23       		.byte	0x23
 11788 0783 41010000 		.4byte	0x141
 11789 0787 0C       		.uleb128 0xc
 11790 0788 EA1C0000 		.4byte	.LASF196
 11791 078c 01       		.byte	0x1
 11792 078d 0A       		.byte	0xa
 11793 078e 65       		.byte	0x65
 11794 078f A0070000 		.4byte	0x7a0
 11795 0793 0D       		.uleb128 0xd
 11796 0794 44150000 		.4byte	.LASF197
 11797 0798 00       		.sleb128 0
 11798 0799 0D       		.uleb128 0xd
 11799 079a 8C200000 		.4byte	.LASF198
 11800 079e 01       		.sleb128 1
 11801 079f 00       		.byte	0
 11802 07a0 0C       		.uleb128 0xc
 11803 07a1 F6030000 		.4byte	.LASF199
 11804 07a5 01       		.byte	0x1
 11805 07a6 0A       		.byte	0xa
 11806 07a7 7D       		.byte	0x7d
 11807 07a8 E8070000 		.4byte	0x7e8
 11808 07ac 0D       		.uleb128 0xd
 11809 07ad 1F1D0000 		.4byte	.LASF200
 11810 07b1 00       		.sleb128 0
 11811 07b2 0D       		.uleb128 0xd
 11812 07b3 1D010000 		.4byte	.LASF201
 11813 07b7 10       		.sleb128 16
 11814 07b8 0D       		.uleb128 0xd
 11815 07b9 8A270000 		.4byte	.LASF202
 11816 07bd 20       		.sleb128 32
 11817 07be 0D       		.uleb128 0xd
 11818 07bf 2D230000 		.4byte	.LASF203
 11819 07c3 30       		.sleb128 48
 11820 07c4 0D       		.uleb128 0xd
 11821 07c5 11260000 		.4byte	.LASF204
 11822 07c9 C000     		.sleb128 64
 11823 07cb 0D       		.uleb128 0xd
 11824 07cc 780F0000 		.4byte	.LASF205
 11825 07d0 D000     		.sleb128 80
ARM GAS  C:\Users\Lenovo\AppData\Local\Temp\cccA9qMw.s 			page 258


 11826 07d2 0D       		.uleb128 0xd
 11827 07d3 73060000 		.4byte	.LASF206
 11828 07d7 E000     		.sleb128 96
 11829 07d9 0D       		.uleb128 0xd
 11830 07da 42030000 		.4byte	.LASF207
 11831 07de F000     		.sleb128 112
 11832 07e0 0D       		.uleb128 0xd
 11833 07e1 63180000 		.4byte	.LASF208
 11834 07e5 FC01     		.sleb128 252
 11835 07e7 00       		.byte	0
 11836 07e8 0C       		.uleb128 0xc
 11837 07e9 6F200000 		.4byte	.LASF209
 11838 07ed 01       		.byte	0x1
 11839 07ee 0A       		.byte	0xa
 11840 07ef 8C       		.byte	0x8c
 11841 07f0 42080000 		.4byte	0x842
 11842 07f4 19       		.uleb128 0x19
 11843 07f5 534F4D00 		.ascii	"SOM\000"
 11844 07f9 FF01     		.sleb128 255
 11845 07fb 19       		.uleb128 0x19
 11846 07fc 56505400 		.ascii	"VPT\000"
 11847 0800 F101     		.sleb128 241
 11848 0802 19       		.uleb128 0x19
 11849 0803 4D505400 		.ascii	"MPT\000"
 11850 0807 F201     		.sleb128 242
 11851 0809 19       		.uleb128 0x19
 11852 080a 48446E00 		.ascii	"HDn\000"
 11853 080e F601     		.sleb128 246
 11854 0810 0D       		.uleb128 0xd
 11855 0811 46260000 		.4byte	.LASF210
 11856 0815 F701     		.sleb128 247
 11857 0817 0D       		.uleb128 0xd
 11858 0818 300E0000 		.4byte	.LASF211
 11859 081c F801     		.sleb128 248
 11860 081e 19       		.uleb128 0x19
 11861 081f 56446E00 		.ascii	"VDn\000"
 11862 0823 F901     		.sleb128 249
 11863 0825 19       		.uleb128 0x19
 11864 0826 4D446E00 		.ascii	"MDn\000"
 11865 082a FA01     		.sleb128 250
 11866 082c 0D       		.uleb128 0xd
 11867 082d 170C0000 		.4byte	.LASF212
 11868 0831 FB01     		.sleb128 251
 11869 0833 19       		.uleb128 0x19
 11870 0834 53466E00 		.ascii	"SFn\000"
 11871 0838 FE01     		.sleb128 254
 11872 083a 19       		.uleb128 0x19
 11873 083b 454F4D00 		.ascii	"EOM\000"
 11874 083f F001     		.sleb128 240
 11875 0841 00       		.byte	0
 11876 0842 0C       		.uleb128 0xc
 11877 0843 E6280000 		.4byte	.LASF213
 11878 0847 01       		.byte	0x1
 11879 0848 0A       		.byte	0xa
 11880 0849 9B       		.byte	0x9b
 11881 084a 8C080000 		.4byte	0x88c
 11882 084e 0D       		.uleb128 0xd
ARM GAS  C:\Users\Lenovo\AppData\Local\Temp\cccA9qMw.s 			page 259


 11883 084f 701D0000 		.4byte	.LASF214
 11884 0853 00       		.sleb128 0
 11885 0854 0D       		.uleb128 0xd
 11886 0855 C4250000 		.4byte	.LASF215
 11887 0859 06       		.sleb128 6
 11888 085a 0D       		.uleb128 0xd
 11889 085b B91B0000 		.4byte	.LASF216
 11890 085f 07       		.sleb128 7
 11891 0860 0D       		.uleb128 0xd
 11892 0861 75020000 		.4byte	.LASF217
 11893 0865 08       		.sleb128 8
 11894 0866 0D       		.uleb128 0xd
 11895 0867 910F0000 		.4byte	.LASF218
 11896 086b 09       		.sleb128 9
 11897 086c 0D       		.uleb128 0xd
 11898 086d 7E1F0000 		.4byte	.LASF219
 11899 0871 0A       		.sleb128 10
 11900 0872 0D       		.uleb128 0xd
 11901 0873 BF1D0000 		.4byte	.LASF220
 11902 0877 0B       		.sleb128 11
 11903 0878 0D       		.uleb128 0xd
 11904 0879 B7290000 		.4byte	.LASF221
 11905 087d 0C       		.sleb128 12
 11906 087e 0D       		.uleb128 0xd
 11907 087f A1210000 		.4byte	.LASF222
 11908 0883 0D       		.sleb128 13
 11909 0884 0D       		.uleb128 0xd
 11910 0885 35030000 		.4byte	.LASF223
 11911 0889 FF01     		.sleb128 255
 11912 088b 00       		.byte	0
 11913 088c 0C       		.uleb128 0xc
 11914 088d FA0F0000 		.4byte	.LASF224
 11915 0891 01       		.byte	0x1
 11916 0892 0A       		.byte	0xa
 11917 0893 F0       		.byte	0xf0
 11918 0894 00090000 		.4byte	0x900
 11919 0898 0D       		.uleb128 0xd
 11920 0899 D4220000 		.4byte	.LASF225
 11921 089d 0F       		.sleb128 15
 11922 089e 0D       		.uleb128 0xd
 11923 089f 321D0000 		.4byte	.LASF226
 11924 08a3 10       		.sleb128 16
 11925 08a4 0D       		.uleb128 0xd
 11926 08a5 0D270000 		.4byte	.LASF227
 11927 08a9 C300     		.sleb128 67
 11928 08ab 0D       		.uleb128 0xd
 11929 08ac D4050000 		.4byte	.LASF228
 11930 08b0 C400     		.sleb128 68
 11931 08b2 0D       		.uleb128 0xd
 11932 08b3 061F0000 		.4byte	.LASF229
 11933 08b7 C500     		.sleb128 69
 11934 08b9 0D       		.uleb128 0xd
 11935 08ba 1E220000 		.4byte	.LASF230
 11936 08be C600     		.sleb128 70
 11937 08c0 0D       		.uleb128 0xd
 11938 08c1 F1070000 		.4byte	.LASF231
 11939 08c5 C700     		.sleb128 71
ARM GAS  C:\Users\Lenovo\AppData\Local\Temp\cccA9qMw.s 			page 260


 11940 08c7 0D       		.uleb128 0xd
 11941 08c8 B6130000 		.4byte	.LASF232
 11942 08cc C800     		.sleb128 72
 11943 08ce 0D       		.uleb128 0xd
 11944 08cf 3D270000 		.4byte	.LASF233
 11945 08d3 C900     		.sleb128 73
 11946 08d5 0D       		.uleb128 0xd
 11947 08d6 24060000 		.4byte	.LASF234
 11948 08da CA00     		.sleb128 74
 11949 08dc 0D       		.uleb128 0xd
 11950 08dd 66090000 		.4byte	.LASF235
 11951 08e1 CB00     		.sleb128 75
 11952 08e3 0D       		.uleb128 0xd
 11953 08e4 C31E0000 		.4byte	.LASF236
 11954 08e8 CC00     		.sleb128 76
 11955 08ea 0D       		.uleb128 0xd
 11956 08eb 6D260000 		.4byte	.LASF237
 11957 08ef CD00     		.sleb128 77
 11958 08f1 0D       		.uleb128 0xd
 11959 08f2 88100000 		.4byte	.LASF238
 11960 08f6 CE00     		.sleb128 78
 11961 08f8 0D       		.uleb128 0xd
 11962 08f9 E9130000 		.4byte	.LASF239
 11963 08fd CF00     		.sleb128 79
 11964 08ff 00       		.byte	0
 11965 0900 1A       		.uleb128 0x1a
 11966 0901 DD0E0000 		.4byte	.LASF240
 11967 0905 01       		.byte	0x1
 11968 0906 0A       		.byte	0xa
 11969 0907 0301     		.2byte	0x103
 11970 0909 20090000 		.4byte	0x920
 11971 090d 0D       		.uleb128 0xd
 11972 090e FB270000 		.4byte	.LASF241
 11973 0912 01       		.sleb128 1
 11974 0913 0D       		.uleb128 0xd
 11975 0914 F7090000 		.4byte	.LASF242
 11976 0918 02       		.sleb128 2
 11977 0919 0D       		.uleb128 0xd
 11978 091a 39140000 		.4byte	.LASF243
 11979 091e 03       		.sleb128 3
 11980 091f 00       		.byte	0
 11981 0920 1A       		.uleb128 0x1a
 11982 0921 E2030000 		.4byte	.LASF244
 11983 0925 01       		.byte	0x1
 11984 0926 0A       		.byte	0xa
 11985 0927 1001     		.2byte	0x110
 11986 0929 3A090000 		.4byte	0x93a
 11987 092d 0D       		.uleb128 0xd
 11988 092e F0180000 		.4byte	.LASF245
 11989 0932 01       		.sleb128 1
 11990 0933 0D       		.uleb128 0xd
 11991 0934 71210000 		.4byte	.LASF246
 11992 0938 02       		.sleb128 2
 11993 0939 00       		.byte	0
 11994 093a 1B       		.uleb128 0x1b
 11995 093b 0401     		.2byte	0x104
 11996 093d 0A       		.byte	0xa
ARM GAS  C:\Users\Lenovo\AppData\Local\Temp\cccA9qMw.s 			page 261


 11997 093e 1D01     		.2byte	0x11d
 11998 0940 7A090000 		.4byte	0x97a
 11999 0944 1C       		.uleb128 0x1c
 12000 0945 E0020000 		.4byte	.LASF247
 12001 0949 0A       		.byte	0xa
 12002 094a 1F01     		.2byte	0x11f
 12003 094c 97000000 		.4byte	0x97
 12004 0950 00       		.byte	0
 12005 0951 1C       		.uleb128 0x1c
 12006 0952 651D0000 		.4byte	.LASF248
 12007 0956 0A       		.byte	0xa
 12008 0957 2001     		.2byte	0x120
 12009 0959 97000000 		.4byte	0x97
 12010 095d 01       		.byte	0x1
 12011 095e 1C       		.uleb128 0x1c
 12012 095f 7D070000 		.4byte	.LASF46
 12013 0963 0A       		.byte	0xa
 12014 0964 2101     		.2byte	0x121
 12015 0966 7A090000 		.4byte	0x97a
 12016 096a 02       		.byte	0x2
 12017 096b 1D       		.uleb128 0x1d
 12018 096c E52A0000 		.4byte	.LASF47
 12019 0970 0A       		.byte	0xa
 12020 0971 2201     		.2byte	0x122
 12021 0973 A3000000 		.4byte	0xa3
 12022 0977 0201     		.2byte	0x102
 12023 0979 00       		.byte	0
 12024 097a 0A       		.uleb128 0xa
 12025 097b ED000000 		.4byte	0xed
 12026 097f 8A090000 		.4byte	0x98a
 12027 0983 0B       		.uleb128 0xb
 12028 0984 0A010000 		.4byte	0x10a
 12029 0988 FF       		.byte	0xff
 12030 0989 00       		.byte	0
 12031 098a 05       		.uleb128 0x5
 12032 098b 7F290000 		.4byte	.LASF249
 12033 098f 0A       		.byte	0xa
 12034 0990 2401     		.2byte	0x124
 12035 0992 3A090000 		.4byte	0x93a
 12036 0996 05       		.uleb128 0x5
 12037 0997 96110000 		.4byte	.LASF250
 12038 099b 0A       		.byte	0xa
 12039 099c 2401     		.2byte	0x124
 12040 099e A2090000 		.4byte	0x9a2
 12041 09a2 07       		.uleb128 0x7
 12042 09a3 04       		.byte	0x4
 12043 09a4 3A090000 		.4byte	0x93a
 12044 09a8 1E       		.uleb128 0x1e
 12045 09a9 40       		.byte	0x40
 12046 09aa 0A       		.byte	0xa
 12047 09ab 2601     		.2byte	0x126
 12048 09ad 4E0A0000 		.4byte	0xa4e
 12049 09b1 1C       		.uleb128 0x1c
 12050 09b2 B0210000 		.4byte	.LASF251
 12051 09b6 0A       		.byte	0xa
 12052 09b7 2801     		.2byte	0x128
 12053 09b9 F4000000 		.4byte	0xf4
ARM GAS  C:\Users\Lenovo\AppData\Local\Temp\cccA9qMw.s 			page 262


 12054 09bd 00       		.byte	0
 12055 09be 1C       		.uleb128 0x1c
 12056 09bf B6210000 		.4byte	.LASF252
 12057 09c3 0A       		.byte	0xa
 12058 09c4 2901     		.2byte	0x129
 12059 09c6 F4000000 		.4byte	0xf4
 12060 09ca 01       		.byte	0x1
 12061 09cb 1C       		.uleb128 0x1c
 12062 09cc BC210000 		.4byte	.LASF253
 12063 09d0 0A       		.byte	0xa
 12064 09d1 2B01     		.2byte	0x12b
 12065 09d3 F9000000 		.4byte	0xf9
 12066 09d7 02       		.byte	0x2
 12067 09d8 1C       		.uleb128 0x1c
 12068 09d9 CD1F0000 		.4byte	.LASF254
 12069 09dd 0A       		.byte	0xa
 12070 09de 2C01     		.2byte	0x12c
 12071 09e0 F9000000 		.4byte	0xf9
 12072 09e4 04       		.byte	0x4
 12073 09e5 1C       		.uleb128 0x1c
 12074 09e6 D31F0000 		.4byte	.LASF255
 12075 09ea 0A       		.byte	0xa
 12076 09eb 2E01     		.2byte	0x12e
 12077 09ed FE000000 		.4byte	0xfe
 12078 09f1 08       		.byte	0x8
 12079 09f2 1C       		.uleb128 0x1c
 12080 09f3 E4210000 		.4byte	.LASF256
 12081 09f7 0A       		.byte	0xa
 12082 09f8 2F01     		.2byte	0x12f
 12083 09fa FE000000 		.4byte	0xfe
 12084 09fe 0C       		.byte	0xc
 12085 09ff 1C       		.uleb128 0x1c
 12086 0a00 EA210000 		.4byte	.LASF257
 12087 0a04 0A       		.byte	0xa
 12088 0a05 3401     		.2byte	0x134
 12089 0a07 4E0A0000 		.4byte	0xa4e
 12090 0a0b 10       		.byte	0x10
 12091 0a0c 1C       		.uleb128 0x1c
 12092 0a0d F0210000 		.4byte	.LASF258
 12093 0a11 0A       		.byte	0xa
 12094 0a12 3501     		.2byte	0x135
 12095 0a14 4E0A0000 		.4byte	0xa4e
 12096 0a18 18       		.byte	0x18
 12097 0a19 1C       		.uleb128 0x1c
 12098 0a1a F6210000 		.4byte	.LASF259
 12099 0a1e 0A       		.byte	0xa
 12100 0a1f 3601     		.2byte	0x136
 12101 0a21 4E0A0000 		.4byte	0xa4e
 12102 0a25 20       		.byte	0x20
 12103 0a26 1C       		.uleb128 0x1c
 12104 0a27 FC210000 		.4byte	.LASF260
 12105 0a2b 0A       		.byte	0xa
 12106 0a2c 3701     		.2byte	0x137
 12107 0a2e 4E0A0000 		.4byte	0xa4e
 12108 0a32 28       		.byte	0x28
 12109 0a33 1C       		.uleb128 0x1c
 12110 0a34 33220000 		.4byte	.LASF261
ARM GAS  C:\Users\Lenovo\AppData\Local\Temp\cccA9qMw.s 			page 263


 12111 0a38 0A       		.byte	0xa
 12112 0a39 3901     		.2byte	0x139
 12113 0a3b 530A0000 		.4byte	0xa53
 12114 0a3f 30       		.byte	0x30
 12115 0a40 1C       		.uleb128 0x1c
 12116 0a41 39220000 		.4byte	.LASF262
 12117 0a45 0A       		.byte	0xa
 12118 0a46 3A01     		.2byte	0x13a
 12119 0a48 530A0000 		.4byte	0xa53
 12120 0a4c 38       		.byte	0x38
 12121 0a4d 00       		.byte	0
 12122 0a4e 06       		.uleb128 0x6
 12123 0a4f D5000000 		.4byte	0xd5
 12124 0a53 06       		.uleb128 0x6
 12125 0a54 CE000000 		.4byte	0xce
 12126 0a58 05       		.uleb128 0x5
 12127 0a59 55190000 		.4byte	.LASF263
 12128 0a5d 0A       		.byte	0xa
 12129 0a5e 3C01     		.2byte	0x13c
 12130 0a60 A8090000 		.4byte	0x9a8
 12131 0a64 1E       		.uleb128 0x1e
 12132 0a65 18       		.byte	0x18
 12133 0a66 0A       		.byte	0xa
 12134 0a67 4401     		.2byte	0x144
 12135 0a69 C90A0000 		.4byte	0xac9
 12136 0a6d 1C       		.uleb128 0x1c
 12137 0a6e FE1C0000 		.4byte	.LASF264
 12138 0a72 0A       		.byte	0xa
 12139 0a73 4701     		.2byte	0x147
 12140 0a75 44020000 		.4byte	0x244
 12141 0a79 00       		.byte	0
 12142 0a7a 1C       		.uleb128 0x1c
 12143 0a7b 81050000 		.4byte	.LASF265
 12144 0a7f 0A       		.byte	0xa
 12145 0a80 4801     		.2byte	0x148
 12146 0a82 F4000000 		.4byte	0xf4
 12147 0a86 01       		.byte	0x1
 12148 0a87 1C       		.uleb128 0x1c
 12149 0a88 AE260000 		.4byte	.LASF266
 12150 0a8c 0A       		.byte	0xa
 12151 0a8d 4901     		.2byte	0x149
 12152 0a8f F4000000 		.4byte	0xf4
 12153 0a93 02       		.byte	0x2
 12154 0a94 1C       		.uleb128 0x1c
 12155 0a95 85190000 		.4byte	.LASF267
 12156 0a99 0A       		.byte	0xa
 12157 0a9a 4A01     		.2byte	0x14a
 12158 0a9c F9000000 		.4byte	0xf9
 12159 0aa0 04       		.byte	0x4
 12160 0aa1 1C       		.uleb128 0x1c
 12161 0aa2 19200000 		.4byte	.LASF268
 12162 0aa6 0A       		.byte	0xa
 12163 0aa7 4B01     		.2byte	0x14b
 12164 0aa9 FE000000 		.4byte	0xfe
 12165 0aad 08       		.byte	0x8
 12166 0aae 1C       		.uleb128 0x1c
 12167 0aaf 500D0000 		.4byte	.LASF269
ARM GAS  C:\Users\Lenovo\AppData\Local\Temp\cccA9qMw.s 			page 264


 12168 0ab3 0A       		.byte	0xa
 12169 0ab4 4C01     		.2byte	0x14c
 12170 0ab6 FE000000 		.4byte	0xfe
 12171 0aba 0C       		.byte	0xc
 12172 0abb 1C       		.uleb128 0x1c
 12173 0abc 790C0000 		.4byte	.LASF270
 12174 0ac0 0A       		.byte	0xa
 12175 0ac1 4D01     		.2byte	0x14d
 12176 0ac3 C90A0000 		.4byte	0xac9
 12177 0ac7 10       		.byte	0x10
 12178 0ac8 00       		.byte	0
 12179 0ac9 0A       		.uleb128 0xa
 12180 0aca E1000000 		.4byte	0xe1
 12181 0ace D90A0000 		.4byte	0xad9
 12182 0ad2 0B       		.uleb128 0xb
 12183 0ad3 0A010000 		.4byte	0x10a
 12184 0ad7 07       		.byte	0x7
 12185 0ad8 00       		.byte	0
 12186 0ad9 05       		.uleb128 0x5
 12187 0ada 68120000 		.4byte	.LASF271
 12188 0ade 0A       		.byte	0xa
 12189 0adf 4F01     		.2byte	0x14f
 12190 0ae1 640A0000 		.4byte	0xa64
 12191 0ae5 1F       		.uleb128 0x1f
 12192 0ae6 54160000 		.4byte	.LASF272
 12193 0aea C80B     		.2byte	0xbc8
 12194 0aec 0A       		.byte	0xa
 12195 0aed 5201     		.2byte	0x152
 12196 0aef CA0C0000 		.4byte	0xcca
 12197 0af3 1C       		.uleb128 0x1c
 12198 0af4 08110000 		.4byte	.LASF273
 12199 0af8 0A       		.byte	0xa
 12200 0af9 5401     		.2byte	0x154
 12201 0afb 97000000 		.4byte	0x97
 12202 0aff 00       		.byte	0
 12203 0b00 1C       		.uleb128 0x1c
 12204 0b01 8F220000 		.4byte	.LASF274
 12205 0b05 0A       		.byte	0xa
 12206 0b06 5501     		.2byte	0x155
 12207 0b08 97000000 		.4byte	0x97
 12208 0b0c 01       		.byte	0x1
 12209 0b0d 1C       		.uleb128 0x1c
 12210 0b0e 34080000 		.4byte	.LASF275
 12211 0b12 0A       		.byte	0xa
 12212 0b13 5701     		.2byte	0x157
 12213 0b15 F4000000 		.4byte	0xf4
 12214 0b19 02       		.byte	0x2
 12215 0b1a 1C       		.uleb128 0x1c
 12216 0b1b 51200000 		.4byte	.LASF276
 12217 0b1f 0A       		.byte	0xa
 12218 0b20 5801     		.2byte	0x158
 12219 0b22 F4000000 		.4byte	0xf4
 12220 0b26 03       		.byte	0x3
 12221 0b27 1C       		.uleb128 0x1c
 12222 0b28 061E0000 		.4byte	.LASF277
 12223 0b2c 0A       		.byte	0xa
 12224 0b2d 5901     		.2byte	0x159
ARM GAS  C:\Users\Lenovo\AppData\Local\Temp\cccA9qMw.s 			page 265


 12225 0b2f F4000000 		.4byte	0xf4
 12226 0b33 04       		.byte	0x4
 12227 0b34 1C       		.uleb128 0x1c
 12228 0b35 7D210000 		.4byte	.LASF278
 12229 0b39 0A       		.byte	0xa
 12230 0b3a 5A01     		.2byte	0x15a
 12231 0b3c 44020000 		.4byte	0x244
 12232 0b40 05       		.byte	0x5
 12233 0b41 1C       		.uleb128 0x1c
 12234 0b42 FE1C0000 		.4byte	.LASF264
 12235 0b46 0A       		.byte	0xa
 12236 0b47 5D01     		.2byte	0x15d
 12237 0b49 44020000 		.4byte	0x244
 12238 0b4d 06       		.byte	0x6
 12239 0b4e 1C       		.uleb128 0x1c
 12240 0b4f 61150000 		.4byte	.LASF279
 12241 0b53 0A       		.byte	0xa
 12242 0b54 5E01     		.2byte	0x15e
 12243 0b56 44020000 		.4byte	0x244
 12244 0b5a 07       		.byte	0x7
 12245 0b5b 1C       		.uleb128 0x1c
 12246 0b5c A9200000 		.4byte	.LASF280
 12247 0b60 0A       		.byte	0xa
 12248 0b61 5F01     		.2byte	0x15f
 12249 0b63 44020000 		.4byte	0x244
 12250 0b67 08       		.byte	0x8
 12251 0b68 1C       		.uleb128 0x1c
 12252 0b69 BD220000 		.4byte	.LASF281
 12253 0b6d 0A       		.byte	0xa
 12254 0b6e 6001     		.2byte	0x160
 12255 0b70 44020000 		.4byte	0x244
 12256 0b74 09       		.byte	0x9
 12257 0b75 1C       		.uleb128 0x1c
 12258 0b76 23080000 		.4byte	.LASF282
 12259 0b7a 0A       		.byte	0xa
 12260 0b7b 6101     		.2byte	0x161
 12261 0b7d F4000000 		.4byte	0xf4
 12262 0b81 0A       		.byte	0xa
 12263 0b82 1C       		.uleb128 0x1c
 12264 0b83 C60E0000 		.4byte	.LASF283
 12265 0b87 0A       		.byte	0xa
 12266 0b88 6201     		.2byte	0x162
 12267 0b8a 44020000 		.4byte	0x244
 12268 0b8e 0B       		.byte	0xb
 12269 0b8f 1C       		.uleb128 0x1c
 12270 0b90 22000000 		.4byte	.LASF284
 12271 0b94 0A       		.byte	0xa
 12272 0b95 6301     		.2byte	0x163
 12273 0b97 F4000000 		.4byte	0xf4
 12274 0b9b 0C       		.byte	0xc
 12275 0b9c 1C       		.uleb128 0x1c
 12276 0b9d F4270000 		.4byte	.LASF285
 12277 0ba1 0A       		.byte	0xa
 12278 0ba2 6501     		.2byte	0x165
 12279 0ba4 44020000 		.4byte	0x244
 12280 0ba8 0D       		.byte	0xd
 12281 0ba9 1C       		.uleb128 0x1c
ARM GAS  C:\Users\Lenovo\AppData\Local\Temp\cccA9qMw.s 			page 266


 12282 0baa 91180000 		.4byte	.LASF286
 12283 0bae 0A       		.byte	0xa
 12284 0baf 6701     		.2byte	0x167
 12285 0bb1 FE000000 		.4byte	0xfe
 12286 0bb5 10       		.byte	0x10
 12287 0bb6 1C       		.uleb128 0x1c
 12288 0bb7 F6120000 		.4byte	.LASF287
 12289 0bbb 0A       		.byte	0xa
 12290 0bbc 6801     		.2byte	0x168
 12291 0bbe FE000000 		.4byte	0xfe
 12292 0bc2 14       		.byte	0x14
 12293 0bc3 1C       		.uleb128 0x1c
 12294 0bc4 181C0000 		.4byte	.LASF288
 12295 0bc8 0A       		.byte	0xa
 12296 0bc9 6B01     		.2byte	0x16b
 12297 0bcb F4000000 		.4byte	0xf4
 12298 0bcf 18       		.byte	0x18
 12299 0bd0 1C       		.uleb128 0x1c
 12300 0bd1 651D0000 		.4byte	.LASF248
 12301 0bd5 0A       		.byte	0xa
 12302 0bd6 6C01     		.2byte	0x16c
 12303 0bd8 F4000000 		.4byte	0xf4
 12304 0bdc 19       		.byte	0x19
 12305 0bdd 1C       		.uleb128 0x1c
 12306 0bde 211F0000 		.4byte	.LASF289
 12307 0be2 0A       		.byte	0xa
 12308 0be3 6E01     		.2byte	0x16e
 12309 0be5 11010000 		.4byte	0x111
 12310 0be9 1C       		.byte	0x1c
 12311 0bea 1C       		.uleb128 0x1c
 12312 0beb 27120000 		.4byte	.LASF290
 12313 0bef 0A       		.byte	0xa
 12314 0bf0 6F01     		.2byte	0x16f
 12315 0bf2 50020000 		.4byte	0x250
 12316 0bf6 20       		.byte	0x20
 12317 0bf7 1D       		.uleb128 0x1d
 12318 0bf8 77110000 		.4byte	.LASF291
 12319 0bfc 0A       		.byte	0xa
 12320 0bfd 7101     		.2byte	0x171
 12321 0bff 50020000 		.4byte	0x250
 12322 0c03 A001     		.2byte	0x1a0
 12323 0c05 1D       		.uleb128 0x1d
 12324 0c06 59020000 		.4byte	.LASF292
 12325 0c0a 0A       		.byte	0xa
 12326 0c0b 7201     		.2byte	0x172
 12327 0c0d A3000000 		.4byte	0xa3
 12328 0c11 2003     		.2byte	0x320
 12329 0c13 1D       		.uleb128 0x1d
 12330 0c14 10050000 		.4byte	.LASF293
 12331 0c18 0A       		.byte	0xa
 12332 0c19 7601     		.2byte	0x176
 12333 0c1b CA0C0000 		.4byte	0xcca
 12334 0c1f 2203     		.2byte	0x322
 12335 0c21 1D       		.uleb128 0x1d
 12336 0c22 450F0000 		.4byte	.LASF294
 12337 0c26 0A       		.byte	0xa
 12338 0c27 7801     		.2byte	0x178
ARM GAS  C:\Users\Lenovo\AppData\Local\Temp\cccA9qMw.s 			page 267


 12339 0c29 44020000 		.4byte	0x244
 12340 0c2d 420B     		.2byte	0xb42
 12341 0c2f 1D       		.uleb128 0x1d
 12342 0c30 60230000 		.4byte	.LASF295
 12343 0c34 0A       		.byte	0xa
 12344 0c35 7A01     		.2byte	0x17a
 12345 0c37 6C020000 		.4byte	0x26c
 12346 0c3b 440B     		.2byte	0xb44
 12347 0c3d 1D       		.uleb128 0x1d
 12348 0c3e 802A0000 		.4byte	.LASF296
 12349 0c42 0A       		.byte	0xa
 12350 0c43 7B01     		.2byte	0x17b
 12351 0c45 6C020000 		.4byte	0x26c
 12352 0c49 480B     		.2byte	0xb48
 12353 0c4b 1D       		.uleb128 0x1d
 12354 0c4c 70280000 		.4byte	.LASF297
 12355 0c50 0A       		.byte	0xa
 12356 0c51 7C01     		.2byte	0x17c
 12357 0c53 EE0C0000 		.4byte	0xcee
 12358 0c57 4C0B     		.2byte	0xb4c
 12359 0c59 1D       		.uleb128 0x1d
 12360 0c5a E7230000 		.4byte	.LASF298
 12361 0c5e 0A       		.byte	0xa
 12362 0c5f 7D01     		.2byte	0x17d
 12363 0c61 040D0000 		.4byte	0xd04
 12364 0c65 500B     		.2byte	0xb50
 12365 0c67 1D       		.uleb128 0x1d
 12366 0c68 5A060000 		.4byte	.LASF299
 12367 0c6c 0A       		.byte	0xa
 12368 0c6d 7E01     		.2byte	0x17e
 12369 0c6f 040D0000 		.4byte	0xd04
 12370 0c73 540B     		.2byte	0xb54
 12371 0c75 1D       		.uleb128 0x1d
 12372 0c76 80230000 		.4byte	.LASF300
 12373 0c7a 0A       		.byte	0xa
 12374 0c7b 7F01     		.2byte	0x17f
 12375 0c7d 190D0000 		.4byte	0xd19
 12376 0c81 580B     		.2byte	0xb58
 12377 0c83 1D       		.uleb128 0x1d
 12378 0c84 8E0D0000 		.4byte	.LASF301
 12379 0c88 0A       		.byte	0xa
 12380 0c89 8001     		.2byte	0x180
 12381 0c8b 190D0000 		.4byte	0xd19
 12382 0c8f 5C0B     		.2byte	0xb5c
 12383 0c91 1D       		.uleb128 0x1d
 12384 0c92 4B260000 		.4byte	.LASF302
 12385 0c96 0A       		.byte	0xa
 12386 0c97 8201     		.2byte	0x182
 12387 0c99 5C070000 		.4byte	0x75c
 12388 0c9d 600B     		.2byte	0xb60
 12389 0c9f 1D       		.uleb128 0x1d
 12390 0ca0 96290000 		.4byte	.LASF303
 12391 0ca4 0A       		.byte	0xa
 12392 0ca5 8401     		.2byte	0x184
 12393 0ca7 580A0000 		.4byte	0xa58
 12394 0cab 680B     		.2byte	0xb68
 12395 0cad 1D       		.uleb128 0x1d
ARM GAS  C:\Users\Lenovo\AppData\Local\Temp\cccA9qMw.s 			page 268


 12396 0cae 5A260000 		.4byte	.LASF304
 12397 0cb2 0A       		.byte	0xa
 12398 0cb3 8501     		.2byte	0x185
 12399 0cb5 D90A0000 		.4byte	0xad9
 12400 0cb9 A80B     		.2byte	0xba8
 12401 0cbb 1D       		.uleb128 0x1d
 12402 0cbc 6E1E0000 		.4byte	.LASF305
 12403 0cc0 0A       		.byte	0xa
 12404 0cc1 8701     		.2byte	0x187
 12405 0cc3 6C020000 		.4byte	0x26c
 12406 0cc7 C00B     		.2byte	0xbc0
 12407 0cc9 00       		.byte	0
 12408 0cca 0A       		.uleb128 0xa
 12409 0ccb 8A090000 		.4byte	0x98a
 12410 0ccf DA0C0000 		.4byte	0xcda
 12411 0cd3 0B       		.uleb128 0xb
 12412 0cd4 0A010000 		.4byte	0x10a
 12413 0cd8 07       		.byte	0x7
 12414 0cd9 00       		.byte	0
 12415 0cda 18       		.uleb128 0x18
 12416 0cdb 49020000 		.4byte	0x249
 12417 0cdf EE0C0000 		.4byte	0xcee
 12418 0ce3 13       		.uleb128 0x13
 12419 0ce4 11010000 		.4byte	0x111
 12420 0ce8 13       		.uleb128 0x13
 12421 0ce9 97000000 		.4byte	0x97
 12422 0ced 00       		.byte	0
 12423 0cee 07       		.uleb128 0x7
 12424 0cef 04       		.byte	0x4
 12425 0cf0 DA0C0000 		.4byte	0xcda
 12426 0cf4 12       		.uleb128 0x12
 12427 0cf5 040D0000 		.4byte	0xd04
 12428 0cf9 13       		.uleb128 0x13
 12429 0cfa 11010000 		.4byte	0x111
 12430 0cfe 13       		.uleb128 0x13
 12431 0cff 96090000 		.4byte	0x996
 12432 0d03 00       		.byte	0
 12433 0d04 07       		.uleb128 0x7
 12434 0d05 04       		.byte	0x4
 12435 0d06 F40C0000 		.4byte	0xcf4
 12436 0d0a 18       		.uleb128 0x18
 12437 0d0b 96090000 		.4byte	0x996
 12438 0d0f 190D0000 		.4byte	0xd19
 12439 0d13 13       		.uleb128 0x13
 12440 0d14 11010000 		.4byte	0x111
 12441 0d18 00       		.byte	0
 12442 0d19 07       		.uleb128 0x7
 12443 0d1a 04       		.byte	0x4
 12444 0d1b 0A0D0000 		.4byte	0xd0a
 12445 0d1f 05       		.uleb128 0x5
 12446 0d20 BE1E0000 		.4byte	.LASF306
 12447 0d24 0A       		.byte	0xa
 12448 0d25 8901     		.2byte	0x189
 12449 0d27 E50A0000 		.4byte	0xae5
 12450 0d2b 05       		.uleb128 0x5
 12451 0d2c D81D0000 		.4byte	.LASF307
 12452 0d30 0A       		.byte	0xa
ARM GAS  C:\Users\Lenovo\AppData\Local\Temp\cccA9qMw.s 			page 269


 12453 0d31 8901     		.2byte	0x189
 12454 0d33 370D0000 		.4byte	0xd37
 12455 0d37 07       		.uleb128 0x7
 12456 0d38 04       		.byte	0x4
 12457 0d39 E50A0000 		.4byte	0xae5
 12458 0d3d 20       		.uleb128 0x20
 12459 0d3e D31C0000 		.4byte	.LASF308
 12460 0d42 34       		.byte	0x34
 12461 0d43 0A       		.byte	0xa
 12462 0d44 8E01     		.2byte	0x18e
 12463 0d46 010E0000 		.4byte	0xe01
 12464 0d4a 1C       		.uleb128 0x1c
 12465 0d4b 9A220000 		.4byte	.LASF309
 12466 0d4f 0A       		.byte	0xa
 12467 0d50 9001     		.2byte	0x190
 12468 0d52 6C020000 		.4byte	0x26c
 12469 0d56 00       		.byte	0
 12470 0d57 1C       		.uleb128 0x1c
 12471 0d58 630B0000 		.4byte	.LASF310
 12472 0d5c 0A       		.byte	0xa
 12473 0d5d 9101     		.2byte	0x191
 12474 0d5f 6C020000 		.4byte	0x26c
 12475 0d63 04       		.byte	0x4
 12476 0d64 1C       		.uleb128 0x1c
 12477 0d65 5E1E0000 		.4byte	.LASF311
 12478 0d69 0A       		.byte	0xa
 12479 0d6a 9201     		.2byte	0x192
 12480 0d6c 6C020000 		.4byte	0x26c
 12481 0d70 08       		.byte	0x8
 12482 0d71 1C       		.uleb128 0x1c
 12483 0d72 89000000 		.4byte	.LASF312
 12484 0d76 0A       		.byte	0xa
 12485 0d77 9301     		.2byte	0x193
 12486 0d79 1A0E0000 		.4byte	0xe1a
 12487 0d7d 0C       		.byte	0xc
 12488 0d7e 1C       		.uleb128 0x1c
 12489 0d7f BC270000 		.4byte	.LASF313
 12490 0d83 0A       		.byte	0xa
 12491 0d84 9401     		.2byte	0x194
 12492 0d86 A3000000 		.4byte	0xa3
 12493 0d8a 10       		.byte	0x10
 12494 0d8b 1C       		.uleb128 0x1c
 12495 0d8c D91F0000 		.4byte	.LASF314
 12496 0d90 0A       		.byte	0xa
 12497 0d91 9501     		.2byte	0x195
 12498 0d93 AF000000 		.4byte	0xaf
 12499 0d97 14       		.byte	0x14
 12500 0d98 1C       		.uleb128 0x1c
 12501 0d99 81110000 		.4byte	.LASF315
 12502 0d9d 0A       		.byte	0xa
 12503 0d9e 9601     		.2byte	0x196
 12504 0da0 97000000 		.4byte	0x97
 12505 0da4 18       		.byte	0x18
 12506 0da5 1C       		.uleb128 0x1c
 12507 0da6 F7260000 		.4byte	.LASF316
 12508 0daa 0A       		.byte	0xa
 12509 0dab 9801     		.2byte	0x198
ARM GAS  C:\Users\Lenovo\AppData\Local\Temp\cccA9qMw.s 			page 270


 12510 0dad 49020000 		.4byte	0x249
 12511 0db1 19       		.byte	0x19
 12512 0db2 1C       		.uleb128 0x1c
 12513 0db3 440E0000 		.4byte	.LASF317
 12514 0db7 0A       		.byte	0xa
 12515 0db8 9C01     		.2byte	0x19c
 12516 0dba 200E0000 		.4byte	0xe20
 12517 0dbe 1A       		.byte	0x1a
 12518 0dbf 1C       		.uleb128 0x1c
 12519 0dc0 C91D0000 		.4byte	.LASF318
 12520 0dc4 0A       		.byte	0xa
 12521 0dc5 9E01     		.2byte	0x19e
 12522 0dc7 19010000 		.4byte	0x119
 12523 0dcb 1E       		.byte	0x1e
 12524 0dcc 1C       		.uleb128 0x1c
 12525 0dcd C2190000 		.4byte	.LASF319
 12526 0dd1 0A       		.byte	0xa
 12527 0dd2 A201     		.2byte	0x1a2
 12528 0dd4 200E0000 		.4byte	0xe20
 12529 0dd8 22       		.byte	0x22
 12530 0dd9 1C       		.uleb128 0x1c
 12531 0dda 80040000 		.4byte	.LASF320
 12532 0dde 0A       		.byte	0xa
 12533 0ddf A401     		.2byte	0x1a4
 12534 0de1 19010000 		.4byte	0x119
 12535 0de5 26       		.byte	0x26
 12536 0de6 1C       		.uleb128 0x1c
 12537 0de7 5E050000 		.4byte	.LASF321
 12538 0deb 0A       		.byte	0xa
 12539 0dec A601     		.2byte	0x1a6
 12540 0dee 6C020000 		.4byte	0x26c
 12541 0df2 2C       		.byte	0x2c
 12542 0df3 1C       		.uleb128 0x1c
 12543 0df4 6F150000 		.4byte	.LASF322
 12544 0df8 0A       		.byte	0xa
 12545 0df9 A701     		.2byte	0x1a7
 12546 0dfb 6C020000 		.4byte	0x26c
 12547 0dff 30       		.byte	0x30
 12548 0e00 00       		.byte	0
 12549 0e01 18       		.uleb128 0x18
 12550 0e02 49020000 		.4byte	0x249
 12551 0e06 1A0E0000 		.4byte	0xe1a
 12552 0e0a 13       		.uleb128 0x13
 12553 0e0b 11010000 		.4byte	0x111
 12554 0e0f 13       		.uleb128 0x13
 12555 0e10 11010000 		.4byte	0x111
 12556 0e14 13       		.uleb128 0x13
 12557 0e15 A3000000 		.4byte	0xa3
 12558 0e19 00       		.byte	0
 12559 0e1a 07       		.uleb128 0x7
 12560 0e1b 04       		.byte	0x4
 12561 0e1c 010E0000 		.4byte	0xe01
 12562 0e20 0A       		.uleb128 0xa
 12563 0e21 49020000 		.4byte	0x249
 12564 0e25 300E0000 		.4byte	0xe30
 12565 0e29 0B       		.uleb128 0xb
 12566 0e2a 0A010000 		.4byte	0x10a
ARM GAS  C:\Users\Lenovo\AppData\Local\Temp\cccA9qMw.s 			page 271


 12567 0e2e 03       		.byte	0x3
 12568 0e2f 00       		.byte	0
 12569 0e30 05       		.uleb128 0x5
 12570 0e31 C30A0000 		.4byte	.LASF323
 12571 0e35 0A       		.byte	0xa
 12572 0e36 A801     		.2byte	0x1a8
 12573 0e38 3D0D0000 		.4byte	0xd3d
 12574 0e3c 1F       		.uleb128 0x1f
 12575 0e3d 0A010000 		.4byte	.LASF324
 12576 0e41 AC03     		.2byte	0x3ac
 12577 0e43 0A       		.byte	0xa
 12578 0e44 AA01     		.2byte	0x1aa
 12579 0e46 650E0000 		.4byte	0xe65
 12580 0e4a 1C       		.uleb128 0x1c
 12581 0e4b 08170000 		.4byte	.LASF325
 12582 0e4f 0A       		.byte	0xa
 12583 0e50 AC01     		.2byte	0x1ac
 12584 0e52 81000000 		.4byte	0x81
 12585 0e56 00       		.byte	0
 12586 0e57 1C       		.uleb128 0x1c
 12587 0e58 53020000 		.4byte	.LASF326
 12588 0e5c 0A       		.byte	0xa
 12589 0e5d AD01     		.2byte	0x1ad
 12590 0e5f 650E0000 		.4byte	0xe65
 12591 0e63 04       		.byte	0x4
 12592 0e64 00       		.byte	0
 12593 0e65 0A       		.uleb128 0xa
 12594 0e66 300E0000 		.4byte	0xe30
 12595 0e6a 750E0000 		.4byte	0xe75
 12596 0e6e 0B       		.uleb128 0xb
 12597 0e6f 0A010000 		.4byte	0x10a
 12598 0e73 11       		.byte	0x11
 12599 0e74 00       		.byte	0
 12600 0e75 05       		.uleb128 0x5
 12601 0e76 D50C0000 		.4byte	.LASF327
 12602 0e7a 0A       		.byte	0xa
 12603 0e7b AE01     		.2byte	0x1ae
 12604 0e7d 3C0E0000 		.4byte	0xe3c
 12605 0e81 1E       		.uleb128 0x1e
 12606 0e82 28       		.byte	0x28
 12607 0e83 0A       		.byte	0xa
 12608 0e84 B701     		.2byte	0x1b7
 12609 0e86 5B0F0000 		.4byte	0xf5b
 12610 0e8a 1C       		.uleb128 0x1c
 12611 0e8b A30A0000 		.4byte	.LASF328
 12612 0e8f 0A       		.byte	0xa
 12613 0e90 B901     		.2byte	0x1b9
 12614 0e92 44020000 		.4byte	0x244
 12615 0e96 00       		.byte	0
 12616 0e97 1C       		.uleb128 0x1c
 12617 0e98 A5290000 		.4byte	.LASF329
 12618 0e9c 0A       		.byte	0xa
 12619 0e9d BA01     		.2byte	0x1ba
 12620 0e9f F4000000 		.4byte	0xf4
 12621 0ea3 01       		.byte	0x1
 12622 0ea4 1C       		.uleb128 0x1c
 12623 0ea5 E0020000 		.4byte	.LASF247
ARM GAS  C:\Users\Lenovo\AppData\Local\Temp\cccA9qMw.s 			page 272


 12624 0ea9 0A       		.byte	0xa
 12625 0eaa BD01     		.2byte	0x1bd
 12626 0eac F4000000 		.4byte	0xf4
 12627 0eb0 02       		.byte	0x2
 12628 0eb1 1C       		.uleb128 0x1c
 12629 0eb2 06130000 		.4byte	.LASF330
 12630 0eb6 0A       		.byte	0xa
 12631 0eb7 BF01     		.2byte	0x1bf
 12632 0eb9 F9000000 		.4byte	0xf9
 12633 0ebd 04       		.byte	0x4
 12634 0ebe 1C       		.uleb128 0x1c
 12635 0ebf 67190000 		.4byte	.LASF331
 12636 0ec3 0A       		.byte	0xa
 12637 0ec4 C001     		.2byte	0x1c0
 12638 0ec6 F9000000 		.4byte	0xf9
 12639 0eca 06       		.byte	0x6
 12640 0ecb 1C       		.uleb128 0x1c
 12641 0ecc 4D250000 		.4byte	.LASF332
 12642 0ed0 0A       		.byte	0xa
 12643 0ed1 C201     		.2byte	0x1c2
 12644 0ed3 F9000000 		.4byte	0xf9
 12645 0ed7 08       		.byte	0x8
 12646 0ed8 1C       		.uleb128 0x1c
 12647 0ed9 9B260000 		.4byte	.LASF333
 12648 0edd 0A       		.byte	0xa
 12649 0ede C301     		.2byte	0x1c3
 12650 0ee0 F9000000 		.4byte	0xf9
 12651 0ee4 0A       		.byte	0xa
 12652 0ee5 1C       		.uleb128 0x1c
 12653 0ee6 9E000000 		.4byte	.LASF334
 12654 0eea 0A       		.byte	0xa
 12655 0eeb C401     		.2byte	0x1c4
 12656 0eed F9000000 		.4byte	0xf9
 12657 0ef1 0C       		.byte	0xc
 12658 0ef2 1C       		.uleb128 0x1c
 12659 0ef3 F81B0000 		.4byte	.LASF335
 12660 0ef7 0A       		.byte	0xa
 12661 0ef8 C601     		.2byte	0x1c6
 12662 0efa F9000000 		.4byte	0xf9
 12663 0efe 0E       		.byte	0xe
 12664 0eff 1C       		.uleb128 0x1c
 12665 0f00 17160000 		.4byte	.LASF336
 12666 0f04 0A       		.byte	0xa
 12667 0f05 C701     		.2byte	0x1c7
 12668 0f07 F9000000 		.4byte	0xf9
 12669 0f0b 10       		.byte	0x10
 12670 0f0c 1C       		.uleb128 0x1c
 12671 0f0d DE070000 		.4byte	.LASF337
 12672 0f11 0A       		.byte	0xa
 12673 0f12 C801     		.2byte	0x1c8
 12674 0f14 F9000000 		.4byte	0xf9
 12675 0f18 12       		.byte	0x12
 12676 0f19 1C       		.uleb128 0x1c
 12677 0f1a C7150000 		.4byte	.LASF338
 12678 0f1e 0A       		.byte	0xa
 12679 0f1f CA01     		.2byte	0x1ca
 12680 0f21 5B0F0000 		.4byte	0xf5b
ARM GAS  C:\Users\Lenovo\AppData\Local\Temp\cccA9qMw.s 			page 273


 12681 0f25 14       		.byte	0x14
 12682 0f26 1C       		.uleb128 0x1c
 12683 0f27 C10B0000 		.4byte	.LASF339
 12684 0f2b 0A       		.byte	0xa
 12685 0f2c CB01     		.2byte	0x1cb
 12686 0f2e 5B0F0000 		.4byte	0xf5b
 12687 0f32 18       		.byte	0x18
 12688 0f33 1C       		.uleb128 0x1c
 12689 0f34 D60E0000 		.4byte	.LASF340
 12690 0f38 0A       		.byte	0xa
 12691 0f39 CC01     		.2byte	0x1cc
 12692 0f3b 610F0000 		.4byte	0xf61
 12693 0f3f 1C       		.byte	0x1c
 12694 0f40 1C       		.uleb128 0x1c
 12695 0f41 7C150000 		.4byte	.LASF49
 12696 0f45 0A       		.byte	0xa
 12697 0f46 CE01     		.2byte	0x1ce
 12698 0f48 6C020000 		.4byte	0x26c
 12699 0f4c 20       		.byte	0x20
 12700 0f4d 1C       		.uleb128 0x1c
 12701 0f4e 28150000 		.4byte	.LASF48
 12702 0f52 0A       		.byte	0xa
 12703 0f53 CF01     		.2byte	0x1cf
 12704 0f55 11010000 		.4byte	0x111
 12705 0f59 24       		.byte	0x24
 12706 0f5a 00       		.byte	0
 12707 0f5b 07       		.uleb128 0x7
 12708 0f5c 04       		.byte	0x4
 12709 0f5d 300E0000 		.4byte	0xe30
 12710 0f61 07       		.uleb128 0x7
 12711 0f62 04       		.byte	0x4
 12712 0f63 1F0D0000 		.4byte	0xd1f
 12713 0f67 05       		.uleb128 0x5
 12714 0f68 531F0000 		.4byte	.LASF341
 12715 0f6c 0A       		.byte	0xa
 12716 0f6d D101     		.2byte	0x1d1
 12717 0f6f 810E0000 		.4byte	0xe81
 12718 0f73 05       		.uleb128 0x5
 12719 0f74 3B1B0000 		.4byte	.LASF342
 12720 0f78 0A       		.byte	0xa
 12721 0f79 D101     		.2byte	0x1d1
 12722 0f7b 7F0F0000 		.4byte	0xf7f
 12723 0f7f 07       		.uleb128 0x7
 12724 0f80 04       		.byte	0x4
 12725 0f81 810E0000 		.4byte	0xe81
 12726 0f85 1F       		.uleb128 0x1f
 12727 0f86 42020000 		.4byte	.LASF343
 12728 0f8a 5C08     		.2byte	0x85c
 12729 0f8c 0A       		.byte	0xa
 12730 0f8d D301     		.2byte	0x1d3
 12731 0f8f 10100000 		.4byte	0x1010
 12732 0f93 1C       		.uleb128 0x1c
 12733 0f94 6F1A0000 		.4byte	.LASF344
 12734 0f98 0A       		.byte	0xa
 12735 0f99 D501     		.2byte	0x1d5
 12736 0f9b F9000000 		.4byte	0xf9
 12737 0f9f 00       		.byte	0
ARM GAS  C:\Users\Lenovo\AppData\Local\Temp\cccA9qMw.s 			page 274


 12738 0fa0 1C       		.uleb128 0x1c
 12739 0fa1 8B1E0000 		.4byte	.LASF345
 12740 0fa5 0A       		.byte	0xa
 12741 0fa6 D701     		.2byte	0x1d7
 12742 0fa8 10100000 		.4byte	0x1010
 12743 0fac 04       		.byte	0x4
 12744 0fad 1D       		.uleb128 0x1d
 12745 0fae 80090000 		.4byte	.LASF346
 12746 0fb2 0A       		.byte	0xa
 12747 0fb3 D801     		.2byte	0x1d8
 12748 0fb5 20100000 		.4byte	0x1020
 12749 0fb9 8407     		.2byte	0x784
 12750 0fbb 1D       		.uleb128 0x1d
 12751 0fbc 8F110000 		.4byte	.LASF347
 12752 0fc0 0A       		.byte	0xa
 12753 0fc1 DA01     		.2byte	0x1da
 12754 0fc3 6C020000 		.4byte	0x26c
 12755 0fc7 4408     		.2byte	0x844
 12756 0fc9 1D       		.uleb128 0x1d
 12757 0fca 161D0000 		.4byte	.LASF348
 12758 0fce 0A       		.byte	0xa
 12759 0fcf DB01     		.2byte	0x1db
 12760 0fd1 45100000 		.4byte	0x1045
 12761 0fd5 4808     		.2byte	0x848
 12762 0fd7 1D       		.uleb128 0x1d
 12763 0fd8 4A120000 		.4byte	.LASF349
 12764 0fdc 0A       		.byte	0xa
 12765 0fdd DC01     		.2byte	0x1dc
 12766 0fdf 5B100000 		.4byte	0x105b
 12767 0fe3 4C08     		.2byte	0x84c
 12768 0fe5 1D       		.uleb128 0x1d
 12769 0fe6 890D0000 		.4byte	.LASF350
 12770 0fea 0A       		.byte	0xa
 12771 0feb DD01     		.2byte	0x1dd
 12772 0fed 45100000 		.4byte	0x1045
 12773 0ff1 5008     		.2byte	0x850
 12774 0ff3 1D       		.uleb128 0x1d
 12775 0ff4 0B240000 		.4byte	.LASF351
 12776 0ff8 0A       		.byte	0xa
 12777 0ff9 DE01     		.2byte	0x1de
 12778 0ffb 6C020000 		.4byte	0x26c
 12779 0fff 5408     		.2byte	0x854
 12780 1001 1D       		.uleb128 0x1d
 12781 1002 A6100000 		.4byte	.LASF352
 12782 1006 0A       		.byte	0xa
 12783 1007 DF01     		.2byte	0x1df
 12784 1009 6C020000 		.4byte	0x26c
 12785 100d 5808     		.2byte	0x858
 12786 100f 00       		.byte	0
 12787 1010 0A       		.uleb128 0xa
 12788 1011 670F0000 		.4byte	0xf67
 12789 1015 20100000 		.4byte	0x1020
 12790 1019 0B       		.uleb128 0xb
 12791 101a 0A010000 		.4byte	0x10a
 12792 101e 2F       		.byte	0x2f
 12793 101f 00       		.byte	0
 12794 1020 0A       		.uleb128 0xa
ARM GAS  C:\Users\Lenovo\AppData\Local\Temp\cccA9qMw.s 			page 275


 12795 1021 30100000 		.4byte	0x1030
 12796 1025 30100000 		.4byte	0x1030
 12797 1029 0B       		.uleb128 0xb
 12798 102a 0A010000 		.4byte	0x10a
 12799 102e 2F       		.byte	0x2f
 12800 102f 00       		.byte	0
 12801 1030 07       		.uleb128 0x7
 12802 1031 04       		.byte	0x4
 12803 1032 670F0000 		.4byte	0xf67
 12804 1036 18       		.uleb128 0x18
 12805 1037 30100000 		.4byte	0x1030
 12806 103b 45100000 		.4byte	0x1045
 12807 103f 13       		.uleb128 0x13
 12808 1040 11010000 		.4byte	0x111
 12809 1044 00       		.byte	0
 12810 1045 07       		.uleb128 0x7
 12811 1046 04       		.byte	0x4
 12812 1047 36100000 		.4byte	0x1036
 12813 104b 12       		.uleb128 0x12
 12814 104c 5B100000 		.4byte	0x105b
 12815 1050 13       		.uleb128 0x13
 12816 1051 11010000 		.4byte	0x111
 12817 1055 13       		.uleb128 0x13
 12818 1056 30100000 		.4byte	0x1030
 12819 105a 00       		.byte	0
 12820 105b 07       		.uleb128 0x7
 12821 105c 04       		.byte	0x4
 12822 105d 4B100000 		.4byte	0x104b
 12823 1061 05       		.uleb128 0x5
 12824 1062 D5030000 		.4byte	.LASF353
 12825 1066 0A       		.byte	0xa
 12826 1067 E101     		.2byte	0x1e1
 12827 1069 850F0000 		.4byte	0xf85
 12828 106d 1E       		.uleb128 0x1e
 12829 106e 14       		.byte	0x14
 12830 106f 0A       		.byte	0xa
 12831 1070 ED01     		.2byte	0x1ed
 12832 1072 57110000 		.4byte	0x1157
 12833 1076 1C       		.uleb128 0x1c
 12834 1077 A5130000 		.4byte	.LASF354
 12835 107b 0A       		.byte	0xa
 12836 107c EF01     		.2byte	0x1ef
 12837 107e 44020000 		.4byte	0x244
 12838 1082 00       		.byte	0
 12839 1083 1C       		.uleb128 0x1c
 12840 1084 6D1F0000 		.4byte	.LASF355
 12841 1088 0A       		.byte	0xa
 12842 1089 F001     		.2byte	0x1f0
 12843 108b 44020000 		.4byte	0x244
 12844 108f 01       		.byte	0x1
 12845 1090 1C       		.uleb128 0x1c
 12846 1091 2A0C0000 		.4byte	.LASF356
 12847 1095 0A       		.byte	0xa
 12848 1096 F401     		.2byte	0x1f4
 12849 1098 97000000 		.4byte	0x97
 12850 109c 02       		.byte	0x2
 12851 109d 1C       		.uleb128 0x1c
ARM GAS  C:\Users\Lenovo\AppData\Local\Temp\cccA9qMw.s 			page 276


 12852 109e F61D0000 		.4byte	.LASF357
 12853 10a2 0A       		.byte	0xa
 12854 10a3 0202     		.2byte	0x202
 12855 10a5 97000000 		.4byte	0x97
 12856 10a9 03       		.byte	0x3
 12857 10aa 1C       		.uleb128 0x1c
 12858 10ab 400D0000 		.4byte	.LASF358
 12859 10af 0A       		.byte	0xa
 12860 10b0 0302     		.2byte	0x203
 12861 10b2 97000000 		.4byte	0x97
 12862 10b6 04       		.byte	0x4
 12863 10b7 1C       		.uleb128 0x1c
 12864 10b8 171E0000 		.4byte	.LASF359
 12865 10bc 0A       		.byte	0xa
 12866 10bd 0402     		.2byte	0x204
 12867 10bf 97000000 		.4byte	0x97
 12868 10c3 05       		.byte	0x5
 12869 10c4 1C       		.uleb128 0x1c
 12870 10c5 271E0000 		.4byte	.LASF360
 12871 10c9 0A       		.byte	0xa
 12872 10ca 0502     		.2byte	0x205
 12873 10cc 97000000 		.4byte	0x97
 12874 10d0 06       		.byte	0x6
 12875 10d1 1C       		.uleb128 0x1c
 12876 10d2 910E0000 		.4byte	.LASF361
 12877 10d6 0A       		.byte	0xa
 12878 10d7 0702     		.2byte	0x207
 12879 10d9 97000000 		.4byte	0x97
 12880 10dd 07       		.byte	0x7
 12881 10de 1C       		.uleb128 0x1c
 12882 10df FB100000 		.4byte	.LASF362
 12883 10e3 0A       		.byte	0xa
 12884 10e4 0802     		.2byte	0x208
 12885 10e6 97000000 		.4byte	0x97
 12886 10ea 08       		.byte	0x8
 12887 10eb 1C       		.uleb128 0x1c
 12888 10ec 2A0D0000 		.4byte	.LASF363
 12889 10f0 0A       		.byte	0xa
 12890 10f1 0902     		.2byte	0x209
 12891 10f3 97000000 		.4byte	0x97
 12892 10f7 09       		.byte	0x9
 12893 10f8 1C       		.uleb128 0x1c
 12894 10f9 3A000000 		.4byte	.LASF364
 12895 10fd 0A       		.byte	0xa
 12896 10fe 0B02     		.2byte	0x20b
 12897 1100 97000000 		.4byte	0x97
 12898 1104 0A       		.byte	0xa
 12899 1105 1C       		.uleb128 0x1c
 12900 1106 B20E0000 		.4byte	.LASF365
 12901 110a 0A       		.byte	0xa
 12902 110b 0D02     		.2byte	0x20d
 12903 110d A3000000 		.4byte	0xa3
 12904 1111 0C       		.byte	0xc
 12905 1112 1C       		.uleb128 0x1c
 12906 1113 4E1E0000 		.4byte	.LASF366
 12907 1117 0A       		.byte	0xa
 12908 1118 0E02     		.2byte	0x20e
ARM GAS  C:\Users\Lenovo\AppData\Local\Temp\cccA9qMw.s 			page 277


 12909 111a A3000000 		.4byte	0xa3
 12910 111e 0E       		.byte	0xe
 12911 111f 1C       		.uleb128 0x1c
 12912 1120 462A0000 		.4byte	.LASF367
 12913 1124 0A       		.byte	0xa
 12914 1125 1002     		.2byte	0x210
 12915 1127 97000000 		.4byte	0x97
 12916 112b 10       		.byte	0x10
 12917 112c 1C       		.uleb128 0x1c
 12918 112d 090C0000 		.4byte	.LASF368
 12919 1131 0A       		.byte	0xa
 12920 1132 1202     		.2byte	0x212
 12921 1134 97000000 		.4byte	0x97
 12922 1138 11       		.byte	0x11
 12923 1139 1C       		.uleb128 0x1c
 12924 113a 12000000 		.4byte	.LASF369
 12925 113e 0A       		.byte	0xa
 12926 113f 1402     		.2byte	0x214
 12927 1141 97000000 		.4byte	0x97
 12928 1145 12       		.byte	0x12
 12929 1146 21       		.uleb128 0x21
 12930 1147 971A0000 		.4byte	.LASF568
 12931 114b 0A       		.byte	0xa
 12932 114c 1602     		.2byte	0x216
 12933 114e 97000000 		.4byte	0x97
 12934 1152 01       		.byte	0x1
 12935 1153 01       		.byte	0x1
 12936 1154 07       		.byte	0x7
 12937 1155 13       		.byte	0x13
 12938 1156 00       		.byte	0
 12939 1157 05       		.uleb128 0x5
 12940 1158 E8200000 		.4byte	.LASF370
 12941 115c 0A       		.byte	0xa
 12942 115d 1702     		.2byte	0x217
 12943 115f 6D100000 		.4byte	0x106d
 12944 1163 03       		.uleb128 0x3
 12945 1164 67000000 		.4byte	.LASF371
 12946 1168 0B       		.byte	0xb
 12947 1169 97       		.byte	0x97
 12948 116a 6C020000 		.4byte	0x26c
 12949 116e 0C       		.uleb128 0xc
 12950 116f FF070000 		.4byte	.LASF372
 12951 1173 02       		.byte	0x2
 12952 1174 0C       		.byte	0xc
 12953 1175 2A       		.byte	0x2a
 12954 1176 92120000 		.4byte	0x1292
 12955 117a 0D       		.uleb128 0xd
 12956 117b 58010000 		.4byte	.LASF373
 12957 117f 00       		.sleb128 0
 12958 1180 0D       		.uleb128 0xd
 12959 1181 29040000 		.4byte	.LASF374
 12960 1185 C000     		.sleb128 64
 12961 1187 0D       		.uleb128 0xd
 12962 1188 7D010000 		.4byte	.LASF375
 12963 118c 8001     		.sleb128 128
 12964 118e 0D       		.uleb128 0xd
 12965 118f 98010000 		.4byte	.LASF376
ARM GAS  C:\Users\Lenovo\AppData\Local\Temp\cccA9qMw.s 			page 278


 12966 1193 C001     		.sleb128 192
 12967 1195 0D       		.uleb128 0xd
 12968 1196 B3010000 		.4byte	.LASF377
 12969 119a 8002     		.sleb128 256
 12970 119c 0D       		.uleb128 0xd
 12971 119d CE010000 		.4byte	.LASF378
 12972 11a1 C002     		.sleb128 320
 12973 11a3 0D       		.uleb128 0xd
 12974 11a4 E9010000 		.4byte	.LASF379
 12975 11a8 8003     		.sleb128 384
 12976 11aa 0D       		.uleb128 0xd
 12977 11ab 04020000 		.4byte	.LASF380
 12978 11af C003     		.sleb128 448
 12979 11b1 0D       		.uleb128 0xd
 12980 11b2 37060000 		.4byte	.LASF381
 12981 11b6 8004     		.sleb128 512
 12982 11b8 0D       		.uleb128 0xd
 12983 11b9 ED080000 		.4byte	.LASF382
 12984 11bd C004     		.sleb128 576
 12985 11bf 0D       		.uleb128 0xd
 12986 11c0 07280000 		.4byte	.LASF383
 12987 11c4 8005     		.sleb128 640
 12988 11c6 0D       		.uleb128 0xd
 12989 11c7 D70F0000 		.4byte	.LASF384
 12990 11cb C005     		.sleb128 704
 12991 11cd 0D       		.uleb128 0xd
 12992 11ce 26050000 		.4byte	.LASF385
 12993 11d2 8006     		.sleb128 768
 12994 11d4 0D       		.uleb128 0xd
 12995 11d5 670E0000 		.4byte	.LASF386
 12996 11d9 C006     		.sleb128 832
 12997 11db 0D       		.uleb128 0xd
 12998 11dc 55290000 		.4byte	.LASF387
 12999 11e0 8007     		.sleb128 896
 13000 11e2 0D       		.uleb128 0xd
 13001 11e3 0D130000 		.4byte	.LASF388
 13002 11e7 C007     		.sleb128 960
 13003 11e9 0D       		.uleb128 0xd
 13004 11ea 10090000 		.4byte	.LASF389
 13005 11ee 8008     		.sleb128 1024
 13006 11f0 0D       		.uleb128 0xd
 13007 11f1 991E0000 		.4byte	.LASF390
 13008 11f5 C008     		.sleb128 1088
 13009 11f7 0D       		.uleb128 0xd
 13010 11f8 CE250000 		.4byte	.LASF391
 13011 11fc 8009     		.sleb128 1152
 13012 11fe 0D       		.uleb128 0xd
 13013 11ff E8110000 		.4byte	.LASF392
 13014 1203 C009     		.sleb128 1216
 13015 1205 0D       		.uleb128 0xd
 13016 1206 7E120000 		.4byte	.LASF393
 13017 120a 800A     		.sleb128 1280
 13018 120c 0D       		.uleb128 0xd
 13019 120d 9C120000 		.4byte	.LASF394
 13020 1211 C00A     		.sleb128 1344
 13021 1213 0D       		.uleb128 0xd
 13022 1214 BA120000 		.4byte	.LASF395
ARM GAS  C:\Users\Lenovo\AppData\Local\Temp\cccA9qMw.s 			page 279


 13023 1218 800B     		.sleb128 1408
 13024 121a 0D       		.uleb128 0xd
 13025 121b D8120000 		.4byte	.LASF396
 13026 121f C00B     		.sleb128 1472
 13027 1221 0D       		.uleb128 0xd
 13028 1222 FA180000 		.4byte	.LASF397
 13029 1226 800C     		.sleb128 1536
 13030 1228 0D       		.uleb128 0xd
 13031 1229 591B0000 		.4byte	.LASF398
 13032 122d C00C     		.sleb128 1600
 13033 122f 0D       		.uleb128 0xd
 13034 1230 6C0B0000 		.4byte	.LASF399
 13035 1234 800D     		.sleb128 1664
 13036 1236 0D       		.uleb128 0xd
 13037 1237 A2070000 		.4byte	.LASF400
 13038 123b C00D     		.sleb128 1728
 13039 123d 0D       		.uleb128 0xd
 13040 123e 411C0000 		.4byte	.LASF401
 13041 1242 800E     		.sleb128 1792
 13042 1244 0D       		.uleb128 0xd
 13043 1245 F12A0000 		.4byte	.LASF402
 13044 1249 C00E     		.sleb128 1856
 13045 124b 0D       		.uleb128 0xd
 13046 124c F00E0000 		.4byte	.LASF403
 13047 1250 800F     		.sleb128 1920
 13048 1252 0D       		.uleb128 0xd
 13049 1253 9D050000 		.4byte	.LASF404
 13050 1257 C00F     		.sleb128 1984
 13051 1259 0D       		.uleb128 0xd
 13052 125a AE1A0000 		.4byte	.LASF405
 13053 125e 8010     		.sleb128 2048
 13054 1260 0D       		.uleb128 0xd
 13055 1261 E8170000 		.4byte	.LASF406
 13056 1265 C010     		.sleb128 2112
 13057 1267 0D       		.uleb128 0xd
 13058 1268 EE060000 		.4byte	.LASF407
 13059 126c 8011     		.sleb128 2176
 13060 126e 0D       		.uleb128 0xd
 13061 126f 0C030000 		.4byte	.LASF408
 13062 1273 C011     		.sleb128 2240
 13063 1275 0D       		.uleb128 0xd
 13064 1276 C7180000 		.4byte	.LASF409
 13065 127a 8012     		.sleb128 2304
 13066 127c 0D       		.uleb128 0xd
 13067 127d 2B160000 		.4byte	.LASF410
 13068 1281 C012     		.sleb128 2368
 13069 1283 0D       		.uleb128 0xd
 13070 1284 97040000 		.4byte	.LASF411
 13071 1288 8013     		.sleb128 2432
 13072 128a 0D       		.uleb128 0xd
 13073 128b 48210000 		.4byte	.LASF412
 13074 128f C013     		.sleb128 2496
 13075 1291 00       		.byte	0
 13076 1292 17       		.uleb128 0x17
 13077 1293 01       		.byte	0x1
 13078 1294 0D       		.byte	0xd
 13079 1295 26       		.byte	0x26
ARM GAS  C:\Users\Lenovo\AppData\Local\Temp\cccA9qMw.s 			page 280


 13080 1296 AC130000 		.4byte	0x13ac
 13081 129a 0D       		.uleb128 0xd
 13082 129b 560A0000 		.4byte	.LASF413
 13083 129f A101     		.sleb128 161
 13084 12a1 0D       		.uleb128 0xd
 13085 12a2 4D0B0000 		.4byte	.LASF414
 13086 12a6 A101     		.sleb128 161
 13087 12a8 0D       		.uleb128 0xd
 13088 12a9 A0020000 		.4byte	.LASF415
 13089 12ad A201     		.sleb128 162
 13090 12af 0D       		.uleb128 0xd
 13091 12b0 25210000 		.4byte	.LASF416
 13092 12b4 A201     		.sleb128 162
 13093 12b6 0D       		.uleb128 0xd
 13094 12b7 1E100000 		.4byte	.LASF417
 13095 12bb A301     		.sleb128 163
 13096 12bd 0D       		.uleb128 0xd
 13097 12be BD260000 		.4byte	.LASF418
 13098 12c2 A301     		.sleb128 163
 13099 12c4 0D       		.uleb128 0xd
 13100 12c5 6B0A0000 		.4byte	.LASF419
 13101 12c9 AE01     		.sleb128 174
 13102 12cb 0D       		.uleb128 0xd
 13103 12cc B3090000 		.4byte	.LASF420
 13104 12d0 AE01     		.sleb128 174
 13105 12d2 0D       		.uleb128 0xd
 13106 12d3 510C0000 		.4byte	.LASF421
 13107 12d7 AA01     		.sleb128 170
 13108 12d9 0D       		.uleb128 0xd
 13109 12da 9C270000 		.4byte	.LASF422
 13110 12de AA01     		.sleb128 170
 13111 12e0 0D       		.uleb128 0xd
 13112 12e1 E11A0000 		.4byte	.LASF423
 13113 12e5 A401     		.sleb128 164
 13114 12e7 0D       		.uleb128 0xd
 13115 12e8 ED140000 		.4byte	.LASF424
 13116 12ec A401     		.sleb128 164
 13117 12ee 0D       		.uleb128 0xd
 13118 12ef 12150000 		.4byte	.LASF425
 13119 12f3 A501     		.sleb128 165
 13120 12f5 0D       		.uleb128 0xd
 13121 12f6 E3160000 		.4byte	.LASF426
 13122 12fa A501     		.sleb128 165
 13123 12fc 0D       		.uleb128 0xd
 13124 12fd DE100000 		.4byte	.LASF427
 13125 1301 E801     		.sleb128 232
 13126 1303 0D       		.uleb128 0xd
 13127 1304 A31C0000 		.4byte	.LASF428
 13128 1308 E801     		.sleb128 232
 13129 130a 0D       		.uleb128 0xd
 13130 130b 02220000 		.4byte	.LASF429
 13131 130f A601     		.sleb128 166
 13132 1311 0D       		.uleb128 0xd
 13133 1312 2A280000 		.4byte	.LASF430
 13134 1316 A601     		.sleb128 166
 13135 1318 0D       		.uleb128 0xd
 13136 1319 38290000 		.4byte	.LASF431
ARM GAS  C:\Users\Lenovo\AppData\Local\Temp\cccA9qMw.s 			page 281


 13137 131d A701     		.sleb128 167
 13138 131f 0D       		.uleb128 0xd
 13139 1320 A32A0000 		.4byte	.LASF432
 13140 1324 A701     		.sleb128 167
 13141 1326 0D       		.uleb128 0xd
 13142 1327 C80D0000 		.4byte	.LASF433
 13143 132b A801     		.sleb128 168
 13144 132d 0D       		.uleb128 0xd
 13145 132e 90060000 		.4byte	.LASF434
 13146 1332 A801     		.sleb128 168
 13147 1334 0D       		.uleb128 0xd
 13148 1335 AC170000 		.4byte	.LASF435
 13149 1339 A901     		.sleb128 169
 13150 133b 0D       		.uleb128 0xd
 13151 133c 331F0000 		.4byte	.LASF436
 13152 1340 A901     		.sleb128 169
 13153 1342 0D       		.uleb128 0xd
 13154 1343 37130000 		.4byte	.LASF437
 13155 1347 AC01     		.sleb128 172
 13156 1349 0D       		.uleb128 0xd
 13157 134a 052A0000 		.4byte	.LASF438
 13158 134e AC01     		.sleb128 172
 13159 1350 0D       		.uleb128 0xd
 13160 1351 33200000 		.4byte	.LASF439
 13161 1355 AD01     		.sleb128 173
 13162 1357 0D       		.uleb128 0xd
 13163 1358 A90D0000 		.4byte	.LASF440
 13164 135c AD01     		.sleb128 173
 13165 135e 0D       		.uleb128 0xd
 13166 135f BA280000 		.4byte	.LASF441
 13167 1363 E101     		.sleb128 225
 13168 1365 0D       		.uleb128 0xd
 13169 1366 F3250000 		.4byte	.LASF442
 13170 136a E101     		.sleb128 225
 13171 136c 0D       		.uleb128 0xd
 13172 136d B8230000 		.4byte	.LASF443
 13173 1371 E201     		.sleb128 226
 13174 1373 0D       		.uleb128 0xd
 13175 1374 C7060000 		.4byte	.LASF444
 13176 1378 E201     		.sleb128 226
 13177 137a 0D       		.uleb128 0xd
 13178 137b 602A0000 		.4byte	.LASF445
 13179 137f E301     		.sleb128 227
 13180 1381 0D       		.uleb128 0xd
 13181 1382 EC050000 		.4byte	.LASF446
 13182 1386 E301     		.sleb128 227
 13183 1388 0D       		.uleb128 0xd
 13184 1389 B11F0000 		.4byte	.LASF447
 13185 138d E401     		.sleb128 228
 13186 138f 0D       		.uleb128 0xd
 13187 1390 85070000 		.4byte	.LASF448
 13188 1394 E401     		.sleb128 228
 13189 1396 0D       		.uleb128 0xd
 13190 1397 6D050000 		.4byte	.LASF449
 13191 139b E601     		.sleb128 230
 13192 139d 0D       		.uleb128 0xd
 13193 139e FE280000 		.4byte	.LASF450
ARM GAS  C:\Users\Lenovo\AppData\Local\Temp\cccA9qMw.s 			page 282


 13194 13a2 E601     		.sleb128 230
 13195 13a4 0D       		.uleb128 0xd
 13196 13a5 E6150000 		.4byte	.LASF451
 13197 13a9 FF01     		.sleb128 255
 13198 13ab 00       		.byte	0
 13199 13ac 0C       		.uleb128 0xc
 13200 13ad B3030000 		.4byte	.LASF452
 13201 13b1 01       		.byte	0x1
 13202 13b2 0D       		.byte	0xd
 13203 13b3 8A       		.byte	0x8a
 13204 13b4 E9130000 		.4byte	0x13e9
 13205 13b8 0D       		.uleb128 0xd
 13206 13b9 44040000 		.4byte	.LASF453
 13207 13bd 08       		.sleb128 8
 13208 13be 0D       		.uleb128 0xd
 13209 13bf 73170000 		.4byte	.LASF454
 13210 13c3 01       		.sleb128 1
 13211 13c4 0D       		.uleb128 0xd
 13212 13c5 251C0000 		.4byte	.LASF455
 13213 13c9 02       		.sleb128 2
 13214 13ca 0D       		.uleb128 0xd
 13215 13cb 1B230000 		.4byte	.LASF456
 13216 13cf 03       		.sleb128 3
 13217 13d0 0D       		.uleb128 0xd
 13218 13d1 C50C0000 		.4byte	.LASF457
 13219 13d5 05       		.sleb128 5
 13220 13d6 0D       		.uleb128 0xd
 13221 13d7 30010000 		.4byte	.LASF458
 13222 13db 06       		.sleb128 6
 13223 13dc 0D       		.uleb128 0xd
 13224 13dd D11B0000 		.4byte	.LASF459
 13225 13e1 04       		.sleb128 4
 13226 13e2 0D       		.uleb128 0xd
 13227 13e3 3F220000 		.4byte	.LASF460
 13228 13e7 0B       		.sleb128 11
 13229 13e8 00       		.byte	0
 13230 13e9 0C       		.uleb128 0xc
 13231 13ea 35090000 		.4byte	.LASF461
 13232 13ee 01       		.byte	0x1
 13233 13ef 0D       		.byte	0xd
 13234 13f0 AB       		.byte	0xab
 13235 13f1 02140000 		.4byte	0x1402
 13236 13f5 0D       		.uleb128 0xd
 13237 13f6 50050000 		.4byte	.LASF462
 13238 13fa 01       		.sleb128 1
 13239 13fb 0D       		.uleb128 0xd
 13240 13fc CF110000 		.4byte	.LASF463
 13241 1400 02       		.sleb128 2
 13242 1401 00       		.byte	0
 13243 1402 22       		.uleb128 0x22
 13244 1403 0A       		.byte	0xa
 13245 1404 0D       		.byte	0xd
 13246 1405 B1       		.byte	0xb1
 13247 1406 47140000 		.4byte	0x1447
 13248 140a 0F       		.uleb128 0xf
 13249 140b E0020000 		.4byte	.LASF247
 13250 140f 0D       		.byte	0xd
ARM GAS  C:\Users\Lenovo\AppData\Local\Temp\cccA9qMw.s 			page 283


 13251 1410 B3       		.byte	0xb3
 13252 1411 F4000000 		.4byte	0xf4
 13253 1415 00       		.byte	0
 13254 1416 0F       		.uleb128 0xf
 13255 1417 0D060000 		.4byte	.LASF464
 13256 141b 0D       		.byte	0xd
 13257 141c B4       		.byte	0xb4
 13258 141d F9000000 		.4byte	0xf9
 13259 1421 02       		.byte	0x2
 13260 1422 0F       		.uleb128 0xf
 13261 1423 D1150000 		.4byte	.LASF465
 13262 1427 0D       		.byte	0xd
 13263 1428 B5       		.byte	0xb5
 13264 1429 F4000000 		.4byte	0xf4
 13265 142d 04       		.byte	0x4
 13266 142e 0F       		.uleb128 0xf
 13267 142f 03040000 		.4byte	.LASF466
 13268 1433 0D       		.byte	0xd
 13269 1434 B7       		.byte	0xb7
 13270 1435 F9000000 		.4byte	0xf9
 13271 1439 06       		.byte	0x6
 13272 143a 0F       		.uleb128 0xf
 13273 143b 90280000 		.4byte	.LASF467
 13274 143f 0D       		.byte	0xd
 13275 1440 B8       		.byte	0xb8
 13276 1441 F9000000 		.4byte	0xf9
 13277 1445 08       		.byte	0x8
 13278 1446 00       		.byte	0
 13279 1447 03       		.uleb128 0x3
 13280 1448 C12A0000 		.4byte	.LASF468
 13281 144c 0D       		.byte	0xd
 13282 144d B9       		.byte	0xb9
 13283 144e 02140000 		.4byte	0x1402
 13284 1452 22       		.uleb128 0x22
 13285 1453 02       		.byte	0x2
 13286 1454 0E       		.byte	0xe
 13287 1455 72       		.byte	0x72
 13288 1456 73140000 		.4byte	0x1473
 13289 145a 0F       		.uleb128 0xf
 13290 145b 392B0000 		.4byte	.LASF469
 13291 145f 0E       		.byte	0xe
 13292 1460 74       		.byte	0x74
 13293 1461 97000000 		.4byte	0x97
 13294 1465 00       		.byte	0
 13295 1466 0F       		.uleb128 0xf
 13296 1467 00000000 		.4byte	.LASF470
 13297 146b 0E       		.byte	0xe
 13298 146c 75       		.byte	0x75
 13299 146d 97000000 		.4byte	0x97
 13300 1471 01       		.byte	0x1
 13301 1472 00       		.byte	0
 13302 1473 03       		.uleb128 0x3
 13303 1474 FD230000 		.4byte	.LASF471
 13304 1478 0E       		.byte	0xe
 13305 1479 77       		.byte	0x77
 13306 147a 52140000 		.4byte	0x1452
 13307 147e 23       		.uleb128 0x23
ARM GAS  C:\Users\Lenovo\AppData\Local\Temp\cccA9qMw.s 			page 284


 13308 147f D4140000 		.4byte	.LASF474
 13309 1483 01       		.byte	0x1
 13310 1484 2A       		.byte	0x2a
 13311 1485 00000000 		.4byte	.LFB63
 13312 1489 D0000000 		.4byte	.LFE63-.LFB63
 13313 148d 01       		.uleb128 0x1
 13314 148e 9C       		.byte	0x9c
 13315 148f C8140000 		.4byte	0x14c8
 13316 1493 24       		.uleb128 0x24
 13317 1494 14230000 		.4byte	.LASF476
 13318 1498 01       		.byte	0x1
 13319 1499 2A       		.byte	0x2a
 13320 149a 11010000 		.4byte	0x111
 13321 149e 02       		.uleb128 0x2
 13322 149f 91       		.byte	0x91
 13323 14a0 6C       		.sleb128 -20
 13324 14a1 25       		.uleb128 0x25
 13325 14a2 EA1E0000 		.4byte	.LASF472
 13326 14a6 01       		.byte	0x1
 13327 14a7 2C       		.byte	0x2c
 13328 14a8 730F0000 		.4byte	0xf73
 13329 14ac 02       		.uleb128 0x2
 13330 14ad 91       		.byte	0x91
 13331 14ae 74       		.sleb128 -12
 13332 14af 26       		.uleb128 0x26
 13333 14b0 12000000 		.4byte	.LBB2
 13334 14b4 B8000000 		.4byte	.LBE2-.LBB2
 13335 14b8 25       		.uleb128 0x25
 13336 14b9 1C050000 		.4byte	.LASF473
 13337 14bd 01       		.byte	0x1
 13338 14be 2F       		.byte	0x2f
 13339 14bf 97000000 		.4byte	0x97
 13340 14c3 02       		.uleb128 0x2
 13341 14c4 91       		.byte	0x91
 13342 14c5 73       		.sleb128 -13
 13343 14c6 00       		.byte	0
 13344 14c7 00       		.byte	0
 13345 14c8 27       		.uleb128 0x27
 13346 14c9 49100000 		.4byte	.LASF475
 13347 14cd 01       		.byte	0x1
 13348 14ce 4D       		.byte	0x4d
 13349 14cf 00000000 		.4byte	.LFB64
 13350 14d3 48000000 		.4byte	.LFE64-.LFB64
 13351 14d7 01       		.uleb128 0x1
 13352 14d8 9C       		.byte	0x9c
 13353 14d9 FA140000 		.4byte	0x14fa
 13354 14dd 24       		.uleb128 0x24
 13355 14de 14230000 		.4byte	.LASF476
 13356 14e2 01       		.byte	0x1
 13357 14e3 4D       		.byte	0x4d
 13358 14e4 11010000 		.4byte	0x111
 13359 14e8 02       		.uleb128 0x2
 13360 14e9 91       		.byte	0x91
 13361 14ea 6C       		.sleb128 -20
 13362 14eb 25       		.uleb128 0x25
 13363 14ec EA1E0000 		.4byte	.LASF472
 13364 14f0 01       		.byte	0x1
ARM GAS  C:\Users\Lenovo\AppData\Local\Temp\cccA9qMw.s 			page 285


 13365 14f1 4F       		.byte	0x4f
 13366 14f2 730F0000 		.4byte	0xf73
 13367 14f6 02       		.uleb128 0x2
 13368 14f7 91       		.byte	0x91
 13369 14f8 74       		.sleb128 -12
 13370 14f9 00       		.byte	0
 13371 14fa 23       		.uleb128 0x23
 13372 14fb AF0F0000 		.4byte	.LASF477
 13373 14ff 01       		.byte	0x1
 13374 1500 57       		.byte	0x57
 13375 1501 00000000 		.4byte	.LFB65
 13376 1505 E0000000 		.4byte	.LFE65-.LFB65
 13377 1509 01       		.uleb128 0x1
 13378 150a 9C       		.byte	0x9c
 13379 150b 2C150000 		.4byte	0x152c
 13380 150f 24       		.uleb128 0x24
 13381 1510 14230000 		.4byte	.LASF476
 13382 1514 01       		.byte	0x1
 13383 1515 57       		.byte	0x57
 13384 1516 11010000 		.4byte	0x111
 13385 151a 02       		.uleb128 0x2
 13386 151b 91       		.byte	0x91
 13387 151c 64       		.sleb128 -28
 13388 151d 25       		.uleb128 0x25
 13389 151e EA1E0000 		.4byte	.LASF472
 13390 1522 01       		.byte	0x1
 13391 1523 59       		.byte	0x59
 13392 1524 730F0000 		.4byte	0xf73
 13393 1528 02       		.uleb128 0x2
 13394 1529 91       		.byte	0x91
 13395 152a 6C       		.sleb128 -20
 13396 152b 00       		.byte	0
 13397 152c 23       		.uleb128 0x23
 13398 152d A2220000 		.4byte	.LASF478
 13399 1531 01       		.byte	0x1
 13400 1532 69       		.byte	0x69
 13401 1533 00000000 		.4byte	.LFB66
 13402 1537 9A0F0000 		.4byte	.LFE66-.LFB66
 13403 153b 01       		.uleb128 0x1
 13404 153c 9C       		.byte	0x9c
 13405 153d C8150000 		.4byte	0x15c8
 13406 1541 24       		.uleb128 0x24
 13407 1542 14230000 		.4byte	.LASF476
 13408 1546 01       		.byte	0x1
 13409 1547 69       		.byte	0x69
 13410 1548 11010000 		.4byte	0x111
 13411 154c 02       		.uleb128 0x2
 13412 154d 91       		.byte	0x91
 13413 154e 5C       		.sleb128 -36
 13414 154f 25       		.uleb128 0x25
 13415 1550 EA1E0000 		.4byte	.LASF472
 13416 1554 01       		.byte	0x1
 13417 1555 6B       		.byte	0x6b
 13418 1556 730F0000 		.4byte	0xf73
 13419 155a 02       		.uleb128 0x2
 13420 155b 91       		.byte	0x91
 13421 155c 6C       		.sleb128 -20
ARM GAS  C:\Users\Lenovo\AppData\Local\Temp\cccA9qMw.s 			page 286


 13422 155d 26       		.uleb128 0x26
 13423 155e 14000000 		.4byte	.LBB3
 13424 1562 800F0000 		.4byte	.LBE3-.LBB3
 13425 1566 25       		.uleb128 0x25
 13426 1567 2F260000 		.4byte	.LASF479
 13427 156b 01       		.byte	0x1
 13428 156c 6F       		.byte	0x6f
 13429 156d 97000000 		.4byte	0x97
 13430 1571 02       		.uleb128 0x2
 13431 1572 91       		.byte	0x91
 13432 1573 6B       		.sleb128 -21
 13433 1574 25       		.uleb128 0x25
 13434 1575 3F070000 		.4byte	.LASF480
 13435 1579 01       		.byte	0x1
 13436 157a 70       		.byte	0x70
 13437 157b 97000000 		.4byte	0x97
 13438 157f 02       		.uleb128 0x2
 13439 1580 91       		.byte	0x91
 13440 1581 6A       		.sleb128 -22
 13441 1582 28       		.uleb128 0x28
 13442 1583 70747300 		.ascii	"pts\000"
 13443 1587 01       		.byte	0x1
 13444 1588 0F02     		.2byte	0x20f
 13445 158a 96090000 		.4byte	0x996
 13446 158e 02       		.uleb128 0x2
 13447 158f 91       		.byte	0x91
 13448 1590 60       		.sleb128 -32
 13449 1591 29       		.uleb128 0x29
 13450 1592 A6000000 		.4byte	.LBB4
 13451 1596 94010000 		.4byte	.LBE4-.LBB4
 13452 159a AD150000 		.4byte	0x15ad
 13453 159e 25       		.uleb128 0x25
 13454 159f E50C0000 		.4byte	.LASF481
 13455 15a3 01       		.byte	0x1
 13456 15a4 84       		.byte	0x84
 13457 15a5 A3000000 		.4byte	0xa3
 13458 15a9 02       		.uleb128 0x2
 13459 15aa 91       		.byte	0x91
 13460 15ab 68       		.sleb128 -24
 13461 15ac 00       		.byte	0
 13462 15ad 26       		.uleb128 0x26
 13463 15ae 94070000 		.4byte	.LBB5
 13464 15b2 BE010000 		.4byte	.LBE5-.LBB5
 13465 15b6 2A       		.uleb128 0x2a
 13466 15b7 E50C0000 		.4byte	.LASF481
 13467 15bb 01       		.byte	0x1
 13468 15bc 4801     		.2byte	0x148
 13469 15be A3000000 		.4byte	0xa3
 13470 15c2 02       		.uleb128 0x2
 13471 15c3 91       		.byte	0x91
 13472 15c4 66       		.sleb128 -26
 13473 15c5 00       		.byte	0
 13474 15c6 00       		.byte	0
 13475 15c7 00       		.byte	0
 13476 15c8 2B       		.uleb128 0x2b
 13477 15c9 531A0000 		.4byte	.LASF482
 13478 15cd 01       		.byte	0x1
ARM GAS  C:\Users\Lenovo\AppData\Local\Temp\cccA9qMw.s 			page 287


 13479 15ce 2202     		.2byte	0x222
 13480 15d0 00000000 		.4byte	.LFB67
 13481 15d4 A0010000 		.4byte	.LFE67-.LFB67
 13482 15d8 01       		.uleb128 0x1
 13483 15d9 9C       		.byte	0x9c
 13484 15da 52160000 		.4byte	0x1652
 13485 15de 2C       		.uleb128 0x2c
 13486 15df 14230000 		.4byte	.LASF476
 13487 15e3 01       		.byte	0x1
 13488 15e4 2202     		.2byte	0x222
 13489 15e6 11010000 		.4byte	0x111
 13490 15ea 02       		.uleb128 0x2
 13491 15eb 91       		.byte	0x91
 13492 15ec 64       		.sleb128 -28
 13493 15ed 2A       		.uleb128 0x2a
 13494 15ee EA1E0000 		.4byte	.LASF472
 13495 15f2 01       		.byte	0x1
 13496 15f3 2402     		.2byte	0x224
 13497 15f5 730F0000 		.4byte	0xf73
 13498 15f9 02       		.uleb128 0x2
 13499 15fa 91       		.byte	0x91
 13500 15fb 74       		.sleb128 -12
 13501 15fc 26       		.uleb128 0x26
 13502 15fd 14000000 		.4byte	.LBB6
 13503 1601 82010000 		.4byte	.LBE6-.LBB6
 13504 1605 2A       		.uleb128 0x2a
 13505 1606 90040000 		.4byte	.LASF483
 13506 160a 01       		.byte	0x1
 13507 160b 2702     		.2byte	0x227
 13508 160d 49020000 		.4byte	0x249
 13509 1611 02       		.uleb128 0x2
 13510 1612 91       		.byte	0x91
 13511 1613 73       		.sleb128 -13
 13512 1614 2A       		.uleb128 0x2a
 13513 1615 4A1A0000 		.4byte	.LASF484
 13514 1619 01       		.byte	0x1
 13515 161a 2802     		.2byte	0x228
 13516 161c 97000000 		.4byte	0x97
 13517 1620 02       		.uleb128 0x2
 13518 1621 91       		.byte	0x91
 13519 1622 72       		.sleb128 -14
 13520 1623 2A       		.uleb128 0x2a
 13521 1624 B5250000 		.4byte	.LASF485
 13522 1628 01       		.byte	0x1
 13523 1629 3A02     		.2byte	0x23a
 13524 162b 49020000 		.4byte	0x249
 13525 162f 02       		.uleb128 0x2
 13526 1630 91       		.byte	0x91
 13527 1631 71       		.sleb128 -15
 13528 1632 28       		.uleb128 0x28
 13529 1633 70747300 		.ascii	"pts\000"
 13530 1637 01       		.byte	0x1
 13531 1638 3B02     		.2byte	0x23b
 13532 163a 96090000 		.4byte	0x996
 13533 163e 02       		.uleb128 0x2
 13534 163f 91       		.byte	0x91
 13535 1640 6C       		.sleb128 -20
ARM GAS  C:\Users\Lenovo\AppData\Local\Temp\cccA9qMw.s 			page 288


 13536 1641 2A       		.uleb128 0x2a
 13537 1642 A1150000 		.4byte	.LASF486
 13538 1646 01       		.byte	0x1
 13539 1647 3C02     		.2byte	0x23c
 13540 1649 96090000 		.4byte	0x996
 13541 164d 02       		.uleb128 0x2
 13542 164e 91       		.byte	0x91
 13543 164f 68       		.sleb128 -24
 13544 1650 00       		.byte	0
 13545 1651 00       		.byte	0
 13546 1652 2B       		.uleb128 0x2b
 13547 1653 C0000000 		.4byte	.LASF487
 13548 1657 01       		.byte	0x1
 13549 1658 5D02     		.2byte	0x25d
 13550 165a 00000000 		.4byte	.LFB68
 13551 165e 2C000000 		.4byte	.LFE68-.LFB68
 13552 1662 01       		.uleb128 0x1
 13553 1663 9C       		.byte	0x9c
 13554 1664 87160000 		.4byte	0x1687
 13555 1668 2C       		.uleb128 0x2c
 13556 1669 14230000 		.4byte	.LASF476
 13557 166d 01       		.byte	0x1
 13558 166e 5D02     		.2byte	0x25d
 13559 1670 11010000 		.4byte	0x111
 13560 1674 02       		.uleb128 0x2
 13561 1675 91       		.byte	0x91
 13562 1676 6C       		.sleb128 -20
 13563 1677 2A       		.uleb128 0x2a
 13564 1678 EA1E0000 		.4byte	.LASF472
 13565 167c 01       		.byte	0x1
 13566 167d 5F02     		.2byte	0x25f
 13567 167f 730F0000 		.4byte	0xf73
 13568 1683 02       		.uleb128 0x2
 13569 1684 91       		.byte	0x91
 13570 1685 74       		.sleb128 -12
 13571 1686 00       		.byte	0
 13572 1687 2D       		.uleb128 0x2d
 13573 1688 D7280000 		.4byte	.LASF488
 13574 168c 01       		.byte	0x1
 13575 168d A302     		.2byte	0x2a3
 13576 168f 00000000 		.4byte	.LFB69
 13577 1693 36000000 		.4byte	.LFE69-.LFB69
 13578 1697 01       		.uleb128 0x1
 13579 1698 9C       		.byte	0x9c
 13580 1699 BC160000 		.4byte	0x16bc
 13581 169d 2C       		.uleb128 0x2c
 13582 169e 14230000 		.4byte	.LASF476
 13583 16a2 01       		.byte	0x1
 13584 16a3 A302     		.2byte	0x2a3
 13585 16a5 11010000 		.4byte	0x111
 13586 16a9 02       		.uleb128 0x2
 13587 16aa 91       		.byte	0x91
 13588 16ab 6C       		.sleb128 -20
 13589 16ac 2A       		.uleb128 0x2a
 13590 16ad EA1E0000 		.4byte	.LASF472
 13591 16b1 01       		.byte	0x1
 13592 16b2 A502     		.2byte	0x2a5
ARM GAS  C:\Users\Lenovo\AppData\Local\Temp\cccA9qMw.s 			page 289


 13593 16b4 730F0000 		.4byte	0xf73
 13594 16b8 02       		.uleb128 0x2
 13595 16b9 91       		.byte	0x91
 13596 16ba 74       		.sleb128 -12
 13597 16bb 00       		.byte	0
 13598 16bc 2D       		.uleb128 0x2d
 13599 16bd E3290000 		.4byte	.LASF489
 13600 16c1 01       		.byte	0x1
 13601 16c2 B402     		.2byte	0x2b4
 13602 16c4 00000000 		.4byte	.LFB70
 13603 16c8 36000000 		.4byte	.LFE70-.LFB70
 13604 16cc 01       		.uleb128 0x1
 13605 16cd 9C       		.byte	0x9c
 13606 16ce F1160000 		.4byte	0x16f1
 13607 16d2 2C       		.uleb128 0x2c
 13608 16d3 14230000 		.4byte	.LASF476
 13609 16d7 01       		.byte	0x1
 13610 16d8 B402     		.2byte	0x2b4
 13611 16da 11010000 		.4byte	0x111
 13612 16de 02       		.uleb128 0x2
 13613 16df 91       		.byte	0x91
 13614 16e0 6C       		.sleb128 -20
 13615 16e1 2A       		.uleb128 0x2a
 13616 16e2 EA1E0000 		.4byte	.LASF472
 13617 16e6 01       		.byte	0x1
 13618 16e7 B602     		.2byte	0x2b6
 13619 16e9 730F0000 		.4byte	0xf73
 13620 16ed 02       		.uleb128 0x2
 13621 16ee 91       		.byte	0x91
 13622 16ef 74       		.sleb128 -12
 13623 16f0 00       		.byte	0
 13624 16f1 2B       		.uleb128 0x2b
 13625 16f2 CC100000 		.4byte	.LASF490
 13626 16f6 01       		.byte	0x1
 13627 16f7 C902     		.2byte	0x2c9
 13628 16f9 00000000 		.4byte	.LFB71
 13629 16fd 82000000 		.4byte	.LFE71-.LFB71
 13630 1701 01       		.uleb128 0x1
 13631 1702 9C       		.byte	0x9c
 13632 1703 4E170000 		.4byte	0x174e
 13633 1707 2C       		.uleb128 0x2c
 13634 1708 14230000 		.4byte	.LASF476
 13635 170c 01       		.byte	0x1
 13636 170d C902     		.2byte	0x2c9
 13637 170f 11010000 		.4byte	0x111
 13638 1713 02       		.uleb128 0x2
 13639 1714 91       		.byte	0x91
 13640 1715 64       		.sleb128 -28
 13641 1716 2A       		.uleb128 0x2a
 13642 1717 34000000 		.4byte	.LASF491
 13643 171b 01       		.byte	0x1
 13644 171c CB02     		.2byte	0x2cb
 13645 171e 2B0D0000 		.4byte	0xd2b
 13646 1722 02       		.uleb128 0x2
 13647 1723 91       		.byte	0x91
 13648 1724 74       		.sleb128 -12
 13649 1725 26       		.uleb128 0x26
ARM GAS  C:\Users\Lenovo\AppData\Local\Temp\cccA9qMw.s 			page 290


 13650 1726 12000000 		.4byte	.LBB7
 13651 172a 6A000000 		.4byte	.LBE7-.LBB7
 13652 172e 2A       		.uleb128 0x2a
 13653 172f 2D250000 		.4byte	.LASF492
 13654 1733 01       		.byte	0x1
 13655 1734 D202     		.2byte	0x2d2
 13656 1736 81000000 		.4byte	0x81
 13657 173a 02       		.uleb128 0x2
 13658 173b 91       		.byte	0x91
 13659 173c 73       		.sleb128 -13
 13660 173d 2A       		.uleb128 0x2a
 13661 173e B60C0000 		.4byte	.LASF493
 13662 1742 01       		.byte	0x1
 13663 1743 D402     		.2byte	0x2d4
 13664 1745 8C050000 		.4byte	0x58c
 13665 1749 02       		.uleb128 0x2
 13666 174a 91       		.byte	0x91
 13667 174b 6C       		.sleb128 -20
 13668 174c 00       		.byte	0
 13669 174d 00       		.byte	0
 13670 174e 2B       		.uleb128 0x2b
 13671 174f EA0A0000 		.4byte	.LASF494
 13672 1753 01       		.byte	0x1
 13673 1754 E402     		.2byte	0x2e4
 13674 1756 00000000 		.4byte	.LFB72
 13675 175a 70000000 		.4byte	.LFE72-.LFB72
 13676 175e 01       		.uleb128 0x1
 13677 175f 9C       		.byte	0x9c
 13678 1760 AB170000 		.4byte	0x17ab
 13679 1764 2C       		.uleb128 0x2c
 13680 1765 14230000 		.4byte	.LASF476
 13681 1769 01       		.byte	0x1
 13682 176a E402     		.2byte	0x2e4
 13683 176c 11010000 		.4byte	0x111
 13684 1770 02       		.uleb128 0x2
 13685 1771 91       		.byte	0x91
 13686 1772 64       		.sleb128 -28
 13687 1773 2A       		.uleb128 0x2a
 13688 1774 34000000 		.4byte	.LASF491
 13689 1778 01       		.byte	0x1
 13690 1779 E602     		.2byte	0x2e6
 13691 177b 2B0D0000 		.4byte	0xd2b
 13692 177f 02       		.uleb128 0x2
 13693 1780 91       		.byte	0x91
 13694 1781 74       		.sleb128 -12
 13695 1782 26       		.uleb128 0x26
 13696 1783 12000000 		.4byte	.LBB8
 13697 1787 58000000 		.4byte	.LBE8-.LBB8
 13698 178b 2A       		.uleb128 0x2a
 13699 178c 2D250000 		.4byte	.LASF492
 13700 1790 01       		.byte	0x1
 13701 1791 E902     		.2byte	0x2e9
 13702 1793 81000000 		.4byte	0x81
 13703 1797 02       		.uleb128 0x2
 13704 1798 91       		.byte	0x91
 13705 1799 73       		.sleb128 -13
 13706 179a 2A       		.uleb128 0x2a
ARM GAS  C:\Users\Lenovo\AppData\Local\Temp\cccA9qMw.s 			page 291


 13707 179b B60C0000 		.4byte	.LASF493
 13708 179f 01       		.byte	0x1
 13709 17a0 EB02     		.2byte	0x2eb
 13710 17a2 8C050000 		.4byte	0x58c
 13711 17a6 02       		.uleb128 0x2
 13712 17a7 91       		.byte	0x91
 13713 17a8 6C       		.sleb128 -20
 13714 17a9 00       		.byte	0
 13715 17aa 00       		.byte	0
 13716 17ab 2B       		.uleb128 0x2b
 13717 17ac 4C040000 		.4byte	.LASF495
 13718 17b0 01       		.byte	0x1
 13719 17b1 FB02     		.2byte	0x2fb
 13720 17b3 00000000 		.4byte	.LFB73
 13721 17b7 60000000 		.4byte	.LFE73-.LFB73
 13722 17bb 01       		.uleb128 0x1
 13723 17bc 9C       		.byte	0x9c
 13724 17bd 08180000 		.4byte	0x1808
 13725 17c1 2C       		.uleb128 0x2c
 13726 17c2 14230000 		.4byte	.LASF476
 13727 17c6 01       		.byte	0x1
 13728 17c7 FB02     		.2byte	0x2fb
 13729 17c9 11010000 		.4byte	0x111
 13730 17cd 02       		.uleb128 0x2
 13731 17ce 91       		.byte	0x91
 13732 17cf 64       		.sleb128 -28
 13733 17d0 2A       		.uleb128 0x2a
 13734 17d1 34000000 		.4byte	.LASF491
 13735 17d5 01       		.byte	0x1
 13736 17d6 FD02     		.2byte	0x2fd
 13737 17d8 2B0D0000 		.4byte	0xd2b
 13738 17dc 02       		.uleb128 0x2
 13739 17dd 91       		.byte	0x91
 13740 17de 74       		.sleb128 -12
 13741 17df 26       		.uleb128 0x26
 13742 17e0 12000000 		.4byte	.LBB9
 13743 17e4 48000000 		.4byte	.LBE9-.LBB9
 13744 17e8 2A       		.uleb128 0x2a
 13745 17e9 2D250000 		.4byte	.LASF492
 13746 17ed 01       		.byte	0x1
 13747 17ee 0003     		.2byte	0x300
 13748 17f0 81000000 		.4byte	0x81
 13749 17f4 02       		.uleb128 0x2
 13750 17f5 91       		.byte	0x91
 13751 17f6 73       		.sleb128 -13
 13752 17f7 2A       		.uleb128 0x2a
 13753 17f8 B60C0000 		.4byte	.LASF493
 13754 17fc 01       		.byte	0x1
 13755 17fd 0203     		.2byte	0x302
 13756 17ff 8C050000 		.4byte	0x58c
 13757 1803 02       		.uleb128 0x2
 13758 1804 91       		.byte	0x91
 13759 1805 6C       		.sleb128 -20
 13760 1806 00       		.byte	0
 13761 1807 00       		.byte	0
 13762 1808 2B       		.uleb128 0x2b
 13763 1809 1A250000 		.4byte	.LASF496
ARM GAS  C:\Users\Lenovo\AppData\Local\Temp\cccA9qMw.s 			page 292


 13764 180d 01       		.byte	0x1
 13765 180e 0E03     		.2byte	0x30e
 13766 1810 00000000 		.4byte	.LFB74
 13767 1814 6A000000 		.4byte	.LFE74-.LFB74
 13768 1818 01       		.uleb128 0x1
 13769 1819 9C       		.byte	0x9c
 13770 181a 65180000 		.4byte	0x1865
 13771 181e 2C       		.uleb128 0x2c
 13772 181f 14230000 		.4byte	.LASF476
 13773 1823 01       		.byte	0x1
 13774 1824 0E03     		.2byte	0x30e
 13775 1826 11010000 		.4byte	0x111
 13776 182a 02       		.uleb128 0x2
 13777 182b 91       		.byte	0x91
 13778 182c 64       		.sleb128 -28
 13779 182d 2A       		.uleb128 0x2a
 13780 182e 34000000 		.4byte	.LASF491
 13781 1832 01       		.byte	0x1
 13782 1833 1003     		.2byte	0x310
 13783 1835 2B0D0000 		.4byte	0xd2b
 13784 1839 02       		.uleb128 0x2
 13785 183a 91       		.byte	0x91
 13786 183b 74       		.sleb128 -12
 13787 183c 26       		.uleb128 0x26
 13788 183d 12000000 		.4byte	.LBB10
 13789 1841 52000000 		.4byte	.LBE10-.LBB10
 13790 1845 2A       		.uleb128 0x2a
 13791 1846 2D250000 		.4byte	.LASF492
 13792 184a 01       		.byte	0x1
 13793 184b 1303     		.2byte	0x313
 13794 184d 81000000 		.4byte	0x81
 13795 1851 02       		.uleb128 0x2
 13796 1852 91       		.byte	0x91
 13797 1853 73       		.sleb128 -13
 13798 1854 2A       		.uleb128 0x2a
 13799 1855 B60C0000 		.4byte	.LASF493
 13800 1859 01       		.byte	0x1
 13801 185a 1503     		.2byte	0x315
 13802 185c 8C050000 		.4byte	0x58c
 13803 1860 02       		.uleb128 0x2
 13804 1861 91       		.byte	0x91
 13805 1862 6C       		.sleb128 -20
 13806 1863 00       		.byte	0
 13807 1864 00       		.byte	0
 13808 1865 2B       		.uleb128 0x2b
 13809 1866 75250000 		.4byte	.LASF497
 13810 186a 01       		.byte	0x1
 13811 186b 2203     		.2byte	0x322
 13812 186d 00000000 		.4byte	.LFB75
 13813 1871 6A000000 		.4byte	.LFE75-.LFB75
 13814 1875 01       		.uleb128 0x1
 13815 1876 9C       		.byte	0x9c
 13816 1877 C2180000 		.4byte	0x18c2
 13817 187b 2C       		.uleb128 0x2c
 13818 187c 14230000 		.4byte	.LASF476
 13819 1880 01       		.byte	0x1
 13820 1881 2203     		.2byte	0x322
ARM GAS  C:\Users\Lenovo\AppData\Local\Temp\cccA9qMw.s 			page 293


 13821 1883 11010000 		.4byte	0x111
 13822 1887 02       		.uleb128 0x2
 13823 1888 91       		.byte	0x91
 13824 1889 64       		.sleb128 -28
 13825 188a 2A       		.uleb128 0x2a
 13826 188b 34000000 		.4byte	.LASF491
 13827 188f 01       		.byte	0x1
 13828 1890 2403     		.2byte	0x324
 13829 1892 2B0D0000 		.4byte	0xd2b
 13830 1896 02       		.uleb128 0x2
 13831 1897 91       		.byte	0x91
 13832 1898 74       		.sleb128 -12
 13833 1899 26       		.uleb128 0x26
 13834 189a 12000000 		.4byte	.LBB11
 13835 189e 52000000 		.4byte	.LBE11-.LBB11
 13836 18a2 2A       		.uleb128 0x2a
 13837 18a3 2D250000 		.4byte	.LASF492
 13838 18a7 01       		.byte	0x1
 13839 18a8 2703     		.2byte	0x327
 13840 18aa 81000000 		.4byte	0x81
 13841 18ae 02       		.uleb128 0x2
 13842 18af 91       		.byte	0x91
 13843 18b0 73       		.sleb128 -13
 13844 18b1 2A       		.uleb128 0x2a
 13845 18b2 B60C0000 		.4byte	.LASF493
 13846 18b6 01       		.byte	0x1
 13847 18b7 2903     		.2byte	0x329
 13848 18b9 8C050000 		.4byte	0x58c
 13849 18bd 02       		.uleb128 0x2
 13850 18be 91       		.byte	0x91
 13851 18bf 6C       		.sleb128 -20
 13852 18c0 00       		.byte	0
 13853 18c1 00       		.byte	0
 13854 18c2 2B       		.uleb128 0x2b
 13855 18c3 BF030000 		.4byte	.LASF498
 13856 18c7 01       		.byte	0x1
 13857 18c8 3703     		.2byte	0x337
 13858 18ca 00000000 		.4byte	.LFB76
 13859 18ce 6A000000 		.4byte	.LFE76-.LFB76
 13860 18d2 01       		.uleb128 0x1
 13861 18d3 9C       		.byte	0x9c
 13862 18d4 1F190000 		.4byte	0x191f
 13863 18d8 2C       		.uleb128 0x2c
 13864 18d9 14230000 		.4byte	.LASF476
 13865 18dd 01       		.byte	0x1
 13866 18de 3703     		.2byte	0x337
 13867 18e0 11010000 		.4byte	0x111
 13868 18e4 02       		.uleb128 0x2
 13869 18e5 91       		.byte	0x91
 13870 18e6 64       		.sleb128 -28
 13871 18e7 2A       		.uleb128 0x2a
 13872 18e8 34000000 		.4byte	.LASF491
 13873 18ec 01       		.byte	0x1
 13874 18ed 3903     		.2byte	0x339
 13875 18ef 2B0D0000 		.4byte	0xd2b
 13876 18f3 02       		.uleb128 0x2
 13877 18f4 91       		.byte	0x91
ARM GAS  C:\Users\Lenovo\AppData\Local\Temp\cccA9qMw.s 			page 294


 13878 18f5 74       		.sleb128 -12
 13879 18f6 26       		.uleb128 0x26
 13880 18f7 12000000 		.4byte	.LBB12
 13881 18fb 52000000 		.4byte	.LBE12-.LBB12
 13882 18ff 2A       		.uleb128 0x2a
 13883 1900 2D250000 		.4byte	.LASF492
 13884 1904 01       		.byte	0x1
 13885 1905 3C03     		.2byte	0x33c
 13886 1907 81000000 		.4byte	0x81
 13887 190b 02       		.uleb128 0x2
 13888 190c 91       		.byte	0x91
 13889 190d 73       		.sleb128 -13
 13890 190e 2A       		.uleb128 0x2a
 13891 190f B60C0000 		.4byte	.LASF493
 13892 1913 01       		.byte	0x1
 13893 1914 3E03     		.2byte	0x33e
 13894 1916 8C050000 		.4byte	0x58c
 13895 191a 02       		.uleb128 0x2
 13896 191b 91       		.byte	0x91
 13897 191c 6C       		.sleb128 -20
 13898 191d 00       		.byte	0
 13899 191e 00       		.byte	0
 13900 191f 2B       		.uleb128 0x2b
 13901 1920 350E0000 		.4byte	.LASF499
 13902 1924 01       		.byte	0x1
 13903 1925 4C03     		.2byte	0x34c
 13904 1927 00000000 		.4byte	.LFB77
 13905 192b 6A000000 		.4byte	.LFE77-.LFB77
 13906 192f 01       		.uleb128 0x1
 13907 1930 9C       		.byte	0x9c
 13908 1931 7C190000 		.4byte	0x197c
 13909 1935 2C       		.uleb128 0x2c
 13910 1936 14230000 		.4byte	.LASF476
 13911 193a 01       		.byte	0x1
 13912 193b 4C03     		.2byte	0x34c
 13913 193d 11010000 		.4byte	0x111
 13914 1941 02       		.uleb128 0x2
 13915 1942 91       		.byte	0x91
 13916 1943 64       		.sleb128 -28
 13917 1944 2A       		.uleb128 0x2a
 13918 1945 34000000 		.4byte	.LASF491
 13919 1949 01       		.byte	0x1
 13920 194a 4E03     		.2byte	0x34e
 13921 194c 2B0D0000 		.4byte	0xd2b
 13922 1950 02       		.uleb128 0x2
 13923 1951 91       		.byte	0x91
 13924 1952 74       		.sleb128 -12
 13925 1953 26       		.uleb128 0x26
 13926 1954 12000000 		.4byte	.LBB13
 13927 1958 52000000 		.4byte	.LBE13-.LBB13
 13928 195c 2A       		.uleb128 0x2a
 13929 195d 2D250000 		.4byte	.LASF492
 13930 1961 01       		.byte	0x1
 13931 1962 5103     		.2byte	0x351
 13932 1964 81000000 		.4byte	0x81
 13933 1968 02       		.uleb128 0x2
 13934 1969 91       		.byte	0x91
ARM GAS  C:\Users\Lenovo\AppData\Local\Temp\cccA9qMw.s 			page 295


 13935 196a 73       		.sleb128 -13
 13936 196b 2A       		.uleb128 0x2a
 13937 196c B60C0000 		.4byte	.LASF493
 13938 1970 01       		.byte	0x1
 13939 1971 5303     		.2byte	0x353
 13940 1973 8C050000 		.4byte	0x58c
 13941 1977 02       		.uleb128 0x2
 13942 1978 91       		.byte	0x91
 13943 1979 6C       		.sleb128 -20
 13944 197a 00       		.byte	0
 13945 197b 00       		.byte	0
 13946 197c 2B       		.uleb128 0x2b
 13947 197d 1F1B0000 		.4byte	.LASF500
 13948 1981 01       		.byte	0x1
 13949 1982 6403     		.2byte	0x364
 13950 1984 00000000 		.4byte	.LFB78
 13951 1988 AA030000 		.4byte	.LFE78-.LFB78
 13952 198c 01       		.uleb128 0x1
 13953 198d 9C       		.byte	0x9c
 13954 198e 721A0000 		.4byte	0x1a72
 13955 1992 2C       		.uleb128 0x2c
 13956 1993 14230000 		.4byte	.LASF476
 13957 1997 01       		.byte	0x1
 13958 1998 6403     		.2byte	0x364
 13959 199a 11010000 		.4byte	0x111
 13960 199e 02       		.uleb128 0x2
 13961 199f 91       		.byte	0x91
 13962 19a0 4C       		.sleb128 -52
 13963 19a1 2A       		.uleb128 0x2a
 13964 19a2 34000000 		.4byte	.LASF491
 13965 19a6 01       		.byte	0x1
 13966 19a7 6603     		.2byte	0x366
 13967 19a9 2B0D0000 		.4byte	0xd2b
 13968 19ad 02       		.uleb128 0x2
 13969 19ae 91       		.byte	0x91
 13970 19af 68       		.sleb128 -24
 13971 19b0 26       		.uleb128 0x26
 13972 19b1 14000000 		.4byte	.LBB14
 13973 19b5 90030000 		.4byte	.LBE14-.LBB14
 13974 19b9 2A       		.uleb128 0x2a
 13975 19ba 2D250000 		.4byte	.LASF492
 13976 19be 01       		.byte	0x1
 13977 19bf 6903     		.2byte	0x369
 13978 19c1 81000000 		.4byte	0x81
 13979 19c5 02       		.uleb128 0x2
 13980 19c6 91       		.byte	0x91
 13981 19c7 6F       		.sleb128 -17
 13982 19c8 2A       		.uleb128 0x2a
 13983 19c9 B60C0000 		.4byte	.LASF493
 13984 19cd 01       		.byte	0x1
 13985 19ce 6A03     		.2byte	0x36a
 13986 19d0 8C050000 		.4byte	0x58c
 13987 19d4 02       		.uleb128 0x2
 13988 19d5 91       		.byte	0x91
 13989 19d6 64       		.sleb128 -28
 13990 19d7 29       		.uleb128 0x29
 13991 19d8 5A000000 		.4byte	.LBB15
ARM GAS  C:\Users\Lenovo\AppData\Local\Temp\cccA9qMw.s 			page 296


 13992 19dc A8010000 		.4byte	.LBE15-.LBB15
 13993 19e0 391A0000 		.4byte	0x1a39
 13994 19e4 2A       		.uleb128 0x2a
 13995 19e5 7C260000 		.4byte	.LASF501
 13996 19e9 01       		.byte	0x1
 13997 19ea 7203     		.2byte	0x372
 13998 19ec 97000000 		.4byte	0x97
 13999 19f0 02       		.uleb128 0x2
 14000 19f1 91       		.byte	0x91
 14001 19f2 63       		.sleb128 -29
 14002 19f3 28       		.uleb128 0x28
 14003 19f4 70747200 		.ascii	"ptr\000"
 14004 19f8 01       		.byte	0x1
 14005 19f9 8703     		.2byte	0x387
 14006 19fb 3B010000 		.4byte	0x13b
 14007 19ff 02       		.uleb128 0x2
 14008 1a00 91       		.byte	0x91
 14009 1a01 5C       		.sleb128 -36
 14010 1a02 29       		.uleb128 0x29
 14011 1a03 54010000 		.4byte	.LBB16
 14012 1a07 4E000000 		.4byte	.LBE16-.LBB16
 14013 1a0b 1F1A0000 		.4byte	0x1a1f
 14014 1a0f 2A       		.uleb128 0x2a
 14015 1a10 7B160000 		.4byte	.LASF502
 14016 1a14 01       		.byte	0x1
 14017 1a15 8C03     		.2byte	0x38c
 14018 1a17 97000000 		.4byte	0x97
 14019 1a1b 02       		.uleb128 0x2
 14020 1a1c 91       		.byte	0x91
 14021 1a1d 6E       		.sleb128 -18
 14022 1a1e 00       		.byte	0
 14023 1a1f 26       		.uleb128 0x26
 14024 1a20 A4010000 		.4byte	.LBB17
 14025 1a24 5E000000 		.4byte	.LBE17-.LBB17
 14026 1a28 2A       		.uleb128 0x2a
 14027 1a29 7B160000 		.4byte	.LASF502
 14028 1a2d 01       		.byte	0x1
 14029 1a2e 9403     		.2byte	0x394
 14030 1a30 97000000 		.4byte	0x97
 14031 1a34 02       		.uleb128 0x2
 14032 1a35 91       		.byte	0x91
 14033 1a36 6D       		.sleb128 -19
 14034 1a37 00       		.byte	0
 14035 1a38 00       		.byte	0
 14036 1a39 26       		.uleb128 0x26
 14037 1a3a 0E020000 		.4byte	.LBB18
 14038 1a3e 38010000 		.4byte	.LBE18-.LBB18
 14039 1a42 2A       		.uleb128 0x2a
 14040 1a43 7C260000 		.4byte	.LASF501
 14041 1a47 01       		.byte	0x1
 14042 1a48 9E03     		.2byte	0x39e
 14043 1a4a 97000000 		.4byte	0x97
 14044 1a4e 02       		.uleb128 0x2
 14045 1a4f 91       		.byte	0x91
 14046 1a50 5B       		.sleb128 -37
 14047 1a51 28       		.uleb128 0x28
 14048 1a52 70747200 		.ascii	"ptr\000"
ARM GAS  C:\Users\Lenovo\AppData\Local\Temp\cccA9qMw.s 			page 297


 14049 1a56 01       		.byte	0x1
 14050 1a57 AC03     		.2byte	0x3ac
 14051 1a59 3B010000 		.4byte	0x13b
 14052 1a5d 02       		.uleb128 0x2
 14053 1a5e 91       		.byte	0x91
 14054 1a5f 54       		.sleb128 -44
 14055 1a60 2A       		.uleb128 0x2a
 14056 1a61 7B160000 		.4byte	.LASF502
 14057 1a65 01       		.byte	0x1
 14058 1a66 B203     		.2byte	0x3b2
 14059 1a68 97000000 		.4byte	0x97
 14060 1a6c 02       		.uleb128 0x2
 14061 1a6d 91       		.byte	0x91
 14062 1a6e 6C       		.sleb128 -20
 14063 1a6f 00       		.byte	0
 14064 1a70 00       		.byte	0
 14065 1a71 00       		.byte	0
 14066 1a72 2B       		.uleb128 0x2b
 14067 1a73 AD080000 		.4byte	.LASF503
 14068 1a77 01       		.byte	0x1
 14069 1a78 CD03     		.2byte	0x3cd
 14070 1a7a 00000000 		.4byte	.LFB79
 14071 1a7e 78030000 		.4byte	.LFE79-.LFB79
 14072 1a82 01       		.uleb128 0x1
 14073 1a83 9C       		.byte	0x9c
 14074 1a84 681B0000 		.4byte	0x1b68
 14075 1a88 2C       		.uleb128 0x2c
 14076 1a89 14230000 		.4byte	.LASF476
 14077 1a8d 01       		.byte	0x1
 14078 1a8e CD03     		.2byte	0x3cd
 14079 1a90 11010000 		.4byte	0x111
 14080 1a94 02       		.uleb128 0x2
 14081 1a95 91       		.byte	0x91
 14082 1a96 4C       		.sleb128 -52
 14083 1a97 2A       		.uleb128 0x2a
 14084 1a98 34000000 		.4byte	.LASF491
 14085 1a9c 01       		.byte	0x1
 14086 1a9d CF03     		.2byte	0x3cf
 14087 1a9f 2B0D0000 		.4byte	0xd2b
 14088 1aa3 02       		.uleb128 0x2
 14089 1aa4 91       		.byte	0x91
 14090 1aa5 68       		.sleb128 -24
 14091 1aa6 26       		.uleb128 0x26
 14092 1aa7 14000000 		.4byte	.LBB19
 14093 1aab 58030000 		.4byte	.LBE19-.LBB19
 14094 1aaf 2A       		.uleb128 0x2a
 14095 1ab0 2D250000 		.4byte	.LASF492
 14096 1ab4 01       		.byte	0x1
 14097 1ab5 D203     		.2byte	0x3d2
 14098 1ab7 81000000 		.4byte	0x81
 14099 1abb 02       		.uleb128 0x2
 14100 1abc 91       		.byte	0x91
 14101 1abd 6F       		.sleb128 -17
 14102 1abe 2A       		.uleb128 0x2a
 14103 1abf B60C0000 		.4byte	.LASF493
 14104 1ac3 01       		.byte	0x1
 14105 1ac4 D303     		.2byte	0x3d3
ARM GAS  C:\Users\Lenovo\AppData\Local\Temp\cccA9qMw.s 			page 298


 14106 1ac6 8C050000 		.4byte	0x58c
 14107 1aca 02       		.uleb128 0x2
 14108 1acb 91       		.byte	0x91
 14109 1acc 64       		.sleb128 -28
 14110 1acd 29       		.uleb128 0x29
 14111 1ace 5A000000 		.4byte	.LBB20
 14112 1ad2 88010000 		.4byte	.LBE20-.LBB20
 14113 1ad6 2F1B0000 		.4byte	0x1b2f
 14114 1ada 2A       		.uleb128 0x2a
 14115 1adb 7C260000 		.4byte	.LASF501
 14116 1adf 01       		.byte	0x1
 14117 1ae0 DB03     		.2byte	0x3db
 14118 1ae2 97000000 		.4byte	0x97
 14119 1ae6 02       		.uleb128 0x2
 14120 1ae7 91       		.byte	0x91
 14121 1ae8 63       		.sleb128 -29
 14122 1ae9 28       		.uleb128 0x28
 14123 1aea 70747200 		.ascii	"ptr\000"
 14124 1aee 01       		.byte	0x1
 14125 1aef EF03     		.2byte	0x3ef
 14126 1af1 3B010000 		.4byte	0x13b
 14127 1af5 02       		.uleb128 0x2
 14128 1af6 91       		.byte	0x91
 14129 1af7 5C       		.sleb128 -36
 14130 1af8 29       		.uleb128 0x29
 14131 1af9 28010000 		.4byte	.LBB21
 14132 1afd 54000000 		.4byte	.LBE21-.LBB21
 14133 1b01 151B0000 		.4byte	0x1b15
 14134 1b05 2A       		.uleb128 0x2a
 14135 1b06 7B160000 		.4byte	.LASF502
 14136 1b0a 01       		.byte	0x1
 14137 1b0b F403     		.2byte	0x3f4
 14138 1b0d 97000000 		.4byte	0x97
 14139 1b11 02       		.uleb128 0x2
 14140 1b12 91       		.byte	0x91
 14141 1b13 6E       		.sleb128 -18
 14142 1b14 00       		.byte	0
 14143 1b15 26       		.uleb128 0x26
 14144 1b16 7E010000 		.4byte	.LBB22
 14145 1b1a 64000000 		.4byte	.LBE22-.LBB22
 14146 1b1e 2A       		.uleb128 0x2a
 14147 1b1f 7B160000 		.4byte	.LASF502
 14148 1b23 01       		.byte	0x1
 14149 1b24 FC03     		.2byte	0x3fc
 14150 1b26 97000000 		.4byte	0x97
 14151 1b2a 02       		.uleb128 0x2
 14152 1b2b 91       		.byte	0x91
 14153 1b2c 6D       		.sleb128 -19
 14154 1b2d 00       		.byte	0
 14155 1b2e 00       		.byte	0
 14156 1b2f 26       		.uleb128 0x26
 14157 1b30 EE010000 		.4byte	.LBB23
 14158 1b34 20010000 		.4byte	.LBE23-.LBB23
 14159 1b38 2A       		.uleb128 0x2a
 14160 1b39 7C260000 		.4byte	.LASF501
 14161 1b3d 01       		.byte	0x1
 14162 1b3e 0604     		.2byte	0x406
ARM GAS  C:\Users\Lenovo\AppData\Local\Temp\cccA9qMw.s 			page 299


 14163 1b40 97000000 		.4byte	0x97
 14164 1b44 02       		.uleb128 0x2
 14165 1b45 91       		.byte	0x91
 14166 1b46 5B       		.sleb128 -37
 14167 1b47 28       		.uleb128 0x28
 14168 1b48 70747200 		.ascii	"ptr\000"
 14169 1b4c 01       		.byte	0x1
 14170 1b4d 1304     		.2byte	0x413
 14171 1b4f 3B010000 		.4byte	0x13b
 14172 1b53 02       		.uleb128 0x2
 14173 1b54 91       		.byte	0x91
 14174 1b55 54       		.sleb128 -44
 14175 1b56 2A       		.uleb128 0x2a
 14176 1b57 7B160000 		.4byte	.LASF502
 14177 1b5b 01       		.byte	0x1
 14178 1b5c 1904     		.2byte	0x419
 14179 1b5e 97000000 		.4byte	0x97
 14180 1b62 02       		.uleb128 0x2
 14181 1b63 91       		.byte	0x91
 14182 1b64 6C       		.sleb128 -20
 14183 1b65 00       		.byte	0
 14184 1b66 00       		.byte	0
 14185 1b67 00       		.byte	0
 14186 1b68 2B       		.uleb128 0x2b
 14187 1b69 76030000 		.4byte	.LASF504
 14188 1b6d 01       		.byte	0x1
 14189 1b6e 3304     		.2byte	0x433
 14190 1b70 00000000 		.4byte	.LFB80
 14191 1b74 C4020000 		.4byte	.LFE80-.LFB80
 14192 1b78 01       		.uleb128 0x1
 14193 1b79 9C       		.byte	0x9c
 14194 1b7a 5E1C0000 		.4byte	0x1c5e
 14195 1b7e 2C       		.uleb128 0x2c
 14196 1b7f 14230000 		.4byte	.LASF476
 14197 1b83 01       		.byte	0x1
 14198 1b84 3304     		.2byte	0x433
 14199 1b86 11010000 		.4byte	0x111
 14200 1b8a 02       		.uleb128 0x2
 14201 1b8b 91       		.byte	0x91
 14202 1b8c 4C       		.sleb128 -52
 14203 1b8d 2A       		.uleb128 0x2a
 14204 1b8e 34000000 		.4byte	.LASF491
 14205 1b92 01       		.byte	0x1
 14206 1b93 3504     		.2byte	0x435
 14207 1b95 2B0D0000 		.4byte	0xd2b
 14208 1b99 02       		.uleb128 0x2
 14209 1b9a 91       		.byte	0x91
 14210 1b9b 68       		.sleb128 -24
 14211 1b9c 26       		.uleb128 0x26
 14212 1b9d 14000000 		.4byte	.LBB24
 14213 1ba1 A6020000 		.4byte	.LBE24-.LBB24
 14214 1ba5 2A       		.uleb128 0x2a
 14215 1ba6 2D250000 		.4byte	.LASF492
 14216 1baa 01       		.byte	0x1
 14217 1bab 3804     		.2byte	0x438
 14218 1bad 81000000 		.4byte	0x81
 14219 1bb1 02       		.uleb128 0x2
ARM GAS  C:\Users\Lenovo\AppData\Local\Temp\cccA9qMw.s 			page 300


 14220 1bb2 91       		.byte	0x91
 14221 1bb3 6F       		.sleb128 -17
 14222 1bb4 2A       		.uleb128 0x2a
 14223 1bb5 B60C0000 		.4byte	.LASF493
 14224 1bb9 01       		.byte	0x1
 14225 1bba 3A04     		.2byte	0x43a
 14226 1bbc 8C050000 		.4byte	0x58c
 14227 1bc0 02       		.uleb128 0x2
 14228 1bc1 91       		.byte	0x91
 14229 1bc2 64       		.sleb128 -28
 14230 1bc3 29       		.uleb128 0x29
 14231 1bc4 5A000000 		.4byte	.LBB25
 14232 1bc8 30010000 		.4byte	.LBE25-.LBB25
 14233 1bcc 251C0000 		.4byte	0x1c25
 14234 1bd0 2A       		.uleb128 0x2a
 14235 1bd1 7C260000 		.4byte	.LASF501
 14236 1bd5 01       		.byte	0x1
 14237 1bd6 4104     		.2byte	0x441
 14238 1bd8 97000000 		.4byte	0x97
 14239 1bdc 02       		.uleb128 0x2
 14240 1bdd 91       		.byte	0x91
 14241 1bde 63       		.sleb128 -29
 14242 1bdf 28       		.uleb128 0x28
 14243 1be0 70747200 		.ascii	"ptr\000"
 14244 1be4 01       		.byte	0x1
 14245 1be5 4F04     		.2byte	0x44f
 14246 1be7 3B010000 		.4byte	0x13b
 14247 1beb 02       		.uleb128 0x2
 14248 1bec 91       		.byte	0x91
 14249 1bed 5C       		.sleb128 -36
 14250 1bee 29       		.uleb128 0x29
 14251 1bef D0000000 		.4byte	.LBB26
 14252 1bf3 54000000 		.4byte	.LBE26-.LBB26
 14253 1bf7 0B1C0000 		.4byte	0x1c0b
 14254 1bfb 2A       		.uleb128 0x2a
 14255 1bfc 7B160000 		.4byte	.LASF502
 14256 1c00 01       		.byte	0x1
 14257 1c01 5404     		.2byte	0x454
 14258 1c03 97000000 		.4byte	0x97
 14259 1c07 02       		.uleb128 0x2
 14260 1c08 91       		.byte	0x91
 14261 1c09 6E       		.sleb128 -18
 14262 1c0a 00       		.byte	0
 14263 1c0b 26       		.uleb128 0x26
 14264 1c0c 26010000 		.4byte	.LBB27
 14265 1c10 64000000 		.4byte	.LBE27-.LBB27
 14266 1c14 2A       		.uleb128 0x2a
 14267 1c15 7B160000 		.4byte	.LASF502
 14268 1c19 01       		.byte	0x1
 14269 1c1a 5C04     		.2byte	0x45c
 14270 1c1c 97000000 		.4byte	0x97
 14271 1c20 02       		.uleb128 0x2
 14272 1c21 91       		.byte	0x91
 14273 1c22 6D       		.sleb128 -19
 14274 1c23 00       		.byte	0
 14275 1c24 00       		.byte	0
 14276 1c25 26       		.uleb128 0x26
ARM GAS  C:\Users\Lenovo\AppData\Local\Temp\cccA9qMw.s 			page 301


 14277 1c26 94010000 		.4byte	.LBB28
 14278 1c2a C8000000 		.4byte	.LBE28-.LBB28
 14279 1c2e 2A       		.uleb128 0x2a
 14280 1c2f 7C260000 		.4byte	.LASF501
 14281 1c33 01       		.byte	0x1
 14282 1c34 6604     		.2byte	0x466
 14283 1c36 97000000 		.4byte	0x97
 14284 1c3a 02       		.uleb128 0x2
 14285 1c3b 91       		.byte	0x91
 14286 1c3c 5B       		.sleb128 -37
 14287 1c3d 28       		.uleb128 0x28
 14288 1c3e 70747200 		.ascii	"ptr\000"
 14289 1c42 01       		.byte	0x1
 14290 1c43 6D04     		.2byte	0x46d
 14291 1c45 3B010000 		.4byte	0x13b
 14292 1c49 02       		.uleb128 0x2
 14293 1c4a 91       		.byte	0x91
 14294 1c4b 54       		.sleb128 -44
 14295 1c4c 2A       		.uleb128 0x2a
 14296 1c4d 7B160000 		.4byte	.LASF502
 14297 1c51 01       		.byte	0x1
 14298 1c52 7304     		.2byte	0x473
 14299 1c54 97000000 		.4byte	0x97
 14300 1c58 02       		.uleb128 0x2
 14301 1c59 91       		.byte	0x91
 14302 1c5a 6C       		.sleb128 -20
 14303 1c5b 00       		.byte	0
 14304 1c5c 00       		.byte	0
 14305 1c5d 00       		.byte	0
 14306 1c5e 2B       		.uleb128 0x2b
 14307 1c5f 2E0F0000 		.4byte	.LASF505
 14308 1c63 01       		.byte	0x1
 14309 1c64 8704     		.2byte	0x487
 14310 1c66 00000000 		.4byte	.LFB81
 14311 1c6a 14020000 		.4byte	.LFE81-.LFB81
 14312 1c6e 01       		.uleb128 0x1
 14313 1c6f 9C       		.byte	0x9c
 14314 1c70 ED1C0000 		.4byte	0x1ced
 14315 1c74 2C       		.uleb128 0x2c
 14316 1c75 14230000 		.4byte	.LASF476
 14317 1c79 01       		.byte	0x1
 14318 1c7a 8704     		.2byte	0x487
 14319 1c7c 30010000 		.4byte	0x130
 14320 1c80 02       		.uleb128 0x2
 14321 1c81 91       		.byte	0x91
 14322 1c82 54       		.sleb128 -44
 14323 1c83 2A       		.uleb128 0x2a
 14324 1c84 EA1E0000 		.4byte	.LASF472
 14325 1c88 01       		.byte	0x1
 14326 1c89 8904     		.2byte	0x489
 14327 1c8b 730F0000 		.4byte	0xf73
 14328 1c8f 02       		.uleb128 0x2
 14329 1c90 91       		.byte	0x91
 14330 1c91 6C       		.sleb128 -20
 14331 1c92 26       		.uleb128 0x26
 14332 1c93 14000000 		.4byte	.LBB29
 14333 1c97 FA010000 		.4byte	.LBE29-.LBB29
ARM GAS  C:\Users\Lenovo\AppData\Local\Temp\cccA9qMw.s 			page 302


 14334 1c9b 28       		.uleb128 0x28
 14335 1c9c 70747300 		.ascii	"pts\000"
 14336 1ca0 01       		.byte	0x1
 14337 1ca1 9004     		.2byte	0x490
 14338 1ca3 96090000 		.4byte	0x996
 14339 1ca7 02       		.uleb128 0x2
 14340 1ca8 91       		.byte	0x91
 14341 1ca9 68       		.sleb128 -24
 14342 1caa 26       		.uleb128 0x26
 14343 1cab 4E000000 		.4byte	.LBB30
 14344 1caf C0010000 		.4byte	.LBE30-.LBB30
 14345 1cb3 2A       		.uleb128 0x2a
 14346 1cb4 2D250000 		.4byte	.LASF492
 14347 1cb8 01       		.byte	0x1
 14348 1cb9 9404     		.2byte	0x494
 14349 1cbb 97000000 		.4byte	0x97
 14350 1cbf 02       		.uleb128 0x2
 14351 1cc0 91       		.byte	0x91
 14352 1cc1 67       		.sleb128 -25
 14353 1cc2 2A       		.uleb128 0x2a
 14354 1cc3 A1150000 		.4byte	.LASF486
 14355 1cc7 01       		.byte	0x1
 14356 1cc8 B104     		.2byte	0x4b1
 14357 1cca 96090000 		.4byte	0x996
 14358 1cce 02       		.uleb128 0x2
 14359 1ccf 91       		.byte	0x91
 14360 1cd0 5C       		.sleb128 -36
 14361 1cd1 26       		.uleb128 0x26
 14362 1cd2 98000000 		.4byte	.LBB31
 14363 1cd6 50000000 		.4byte	.LBE31-.LBB31
 14364 1cda 2A       		.uleb128 0x2a
 14365 1cdb ED1F0000 		.4byte	.LASF506
 14366 1cdf 01       		.byte	0x1
 14367 1ce0 9F04     		.2byte	0x49f
 14368 1ce2 AF000000 		.4byte	0xaf
 14369 1ce6 02       		.uleb128 0x2
 14370 1ce7 91       		.byte	0x91
 14371 1ce8 60       		.sleb128 -32
 14372 1ce9 00       		.byte	0
 14373 1cea 00       		.byte	0
 14374 1ceb 00       		.byte	0
 14375 1cec 00       		.byte	0
 14376 1ced 2B       		.uleb128 0x2b
 14377 1cee 481D0000 		.4byte	.LASF507
 14378 1cf2 01       		.byte	0x1
 14379 1cf3 C204     		.2byte	0x4c2
 14380 1cf5 00000000 		.4byte	.LFB82
 14381 1cf9 E8000000 		.4byte	.LFE82-.LFB82
 14382 1cfd 01       		.uleb128 0x1
 14383 1cfe 9C       		.byte	0x9c
 14384 1cff 631D0000 		.4byte	0x1d63
 14385 1d03 2C       		.uleb128 0x2c
 14386 1d04 14230000 		.4byte	.LASF476
 14387 1d08 01       		.byte	0x1
 14388 1d09 C204     		.2byte	0x4c2
 14389 1d0b 30010000 		.4byte	0x130
 14390 1d0f 02       		.uleb128 0x2
ARM GAS  C:\Users\Lenovo\AppData\Local\Temp\cccA9qMw.s 			page 303


 14391 1d10 91       		.byte	0x91
 14392 1d11 64       		.sleb128 -28
 14393 1d12 2A       		.uleb128 0x2a
 14394 1d13 EA1E0000 		.4byte	.LASF472
 14395 1d17 01       		.byte	0x1
 14396 1d18 C404     		.2byte	0x4c4
 14397 1d1a 730F0000 		.4byte	0xf73
 14398 1d1e 02       		.uleb128 0x2
 14399 1d1f 91       		.byte	0x91
 14400 1d20 74       		.sleb128 -12
 14401 1d21 26       		.uleb128 0x26
 14402 1d22 12000000 		.4byte	.LBB32
 14403 1d26 D0000000 		.4byte	.LBE32-.LBB32
 14404 1d2a 28       		.uleb128 0x28
 14405 1d2b 70747300 		.ascii	"pts\000"
 14406 1d2f 01       		.byte	0x1
 14407 1d30 CB04     		.2byte	0x4cb
 14408 1d32 96090000 		.4byte	0x996
 14409 1d36 02       		.uleb128 0x2
 14410 1d37 91       		.byte	0x91
 14411 1d38 70       		.sleb128 -16
 14412 1d39 26       		.uleb128 0x26
 14413 1d3a 4A000000 		.4byte	.LBB33
 14414 1d3e 98000000 		.4byte	.LBE33-.LBB33
 14415 1d42 2A       		.uleb128 0x2a
 14416 1d43 2D250000 		.4byte	.LASF492
 14417 1d47 01       		.byte	0x1
 14418 1d48 CF04     		.2byte	0x4cf
 14419 1d4a 97000000 		.4byte	0x97
 14420 1d4e 02       		.uleb128 0x2
 14421 1d4f 91       		.byte	0x91
 14422 1d50 6F       		.sleb128 -17
 14423 1d51 2A       		.uleb128 0x2a
 14424 1d52 A1150000 		.4byte	.LASF486
 14425 1d56 01       		.byte	0x1
 14426 1d57 D504     		.2byte	0x4d5
 14427 1d59 96090000 		.4byte	0x996
 14428 1d5d 02       		.uleb128 0x2
 14429 1d5e 91       		.byte	0x91
 14430 1d5f 68       		.sleb128 -24
 14431 1d60 00       		.byte	0
 14432 1d61 00       		.byte	0
 14433 1d62 00       		.byte	0
 14434 1d63 2B       		.uleb128 0x2b
 14435 1d64 A2250000 		.4byte	.LASF508
 14436 1d68 01       		.byte	0x1
 14437 1d69 EC04     		.2byte	0x4ec
 14438 1d6b 00000000 		.4byte	.LFB83
 14439 1d6f 28030000 		.4byte	.LFE83-.LFB83
 14440 1d73 01       		.uleb128 0x1
 14441 1d74 9C       		.byte	0x9c
 14442 1d75 321E0000 		.4byte	0x1e32
 14443 1d79 2C       		.uleb128 0x2c
 14444 1d7a 14230000 		.4byte	.LASF476
 14445 1d7e 01       		.byte	0x1
 14446 1d7f EC04     		.2byte	0x4ec
 14447 1d81 11010000 		.4byte	0x111
ARM GAS  C:\Users\Lenovo\AppData\Local\Temp\cccA9qMw.s 			page 304


 14448 1d85 02       		.uleb128 0x2
 14449 1d86 91       		.byte	0x91
 14450 1d87 4C       		.sleb128 -52
 14451 1d88 2A       		.uleb128 0x2a
 14452 1d89 34000000 		.4byte	.LASF491
 14453 1d8d 01       		.byte	0x1
 14454 1d8e EE04     		.2byte	0x4ee
 14455 1d90 2B0D0000 		.4byte	0xd2b
 14456 1d94 02       		.uleb128 0x2
 14457 1d95 91       		.byte	0x91
 14458 1d96 68       		.sleb128 -24
 14459 1d97 26       		.uleb128 0x26
 14460 1d98 14000000 		.4byte	.LBB34
 14461 1d9c 08030000 		.4byte	.LBE34-.LBB34
 14462 1da0 2A       		.uleb128 0x2a
 14463 1da1 2D250000 		.4byte	.LASF492
 14464 1da5 01       		.byte	0x1
 14465 1da6 F104     		.2byte	0x4f1
 14466 1da8 81000000 		.4byte	0x81
 14467 1dac 02       		.uleb128 0x2
 14468 1dad 91       		.byte	0x91
 14469 1dae 6F       		.sleb128 -17
 14470 1daf 2A       		.uleb128 0x2a
 14471 1db0 B60C0000 		.4byte	.LASF493
 14472 1db4 01       		.byte	0x1
 14473 1db5 F204     		.2byte	0x4f2
 14474 1db7 8C050000 		.4byte	0x58c
 14475 1dbb 02       		.uleb128 0x2
 14476 1dbc 91       		.byte	0x91
 14477 1dbd 64       		.sleb128 -28
 14478 1dbe 29       		.uleb128 0x29
 14479 1dbf 5A000000 		.4byte	.LBB35
 14480 1dc3 2C010000 		.4byte	.LBE35-.LBB35
 14481 1dc7 F91D0000 		.4byte	0x1df9
 14482 1dcb 2A       		.uleb128 0x2a
 14483 1dcc 7C260000 		.4byte	.LASF501
 14484 1dd0 01       		.byte	0x1
 14485 1dd1 FE04     		.2byte	0x4fe
 14486 1dd3 97000000 		.4byte	0x97
 14487 1dd7 02       		.uleb128 0x2
 14488 1dd8 91       		.byte	0x91
 14489 1dd9 63       		.sleb128 -29
 14490 1dda 28       		.uleb128 0x28
 14491 1ddb 70747200 		.ascii	"ptr\000"
 14492 1ddf 01       		.byte	0x1
 14493 1de0 0A05     		.2byte	0x50a
 14494 1de2 3B010000 		.4byte	0x13b
 14495 1de6 02       		.uleb128 0x2
 14496 1de7 91       		.byte	0x91
 14497 1de8 5C       		.sleb128 -36
 14498 1de9 2A       		.uleb128 0x2a
 14499 1dea 7B160000 		.4byte	.LASF502
 14500 1dee 01       		.byte	0x1
 14501 1def 1305     		.2byte	0x513
 14502 1df1 97000000 		.4byte	0x97
 14503 1df5 02       		.uleb128 0x2
 14504 1df6 91       		.byte	0x91
ARM GAS  C:\Users\Lenovo\AppData\Local\Temp\cccA9qMw.s 			page 305


 14505 1df7 6E       		.sleb128 -18
 14506 1df8 00       		.byte	0
 14507 1df9 26       		.uleb128 0x26
 14508 1dfa 92010000 		.4byte	.LBB36
 14509 1dfe 2C010000 		.4byte	.LBE36-.LBB36
 14510 1e02 2A       		.uleb128 0x2a
 14511 1e03 7C260000 		.4byte	.LASF501
 14512 1e07 01       		.byte	0x1
 14513 1e08 1D05     		.2byte	0x51d
 14514 1e0a 97000000 		.4byte	0x97
 14515 1e0e 02       		.uleb128 0x2
 14516 1e0f 91       		.byte	0x91
 14517 1e10 5B       		.sleb128 -37
 14518 1e11 28       		.uleb128 0x28
 14519 1e12 70747200 		.ascii	"ptr\000"
 14520 1e16 01       		.byte	0x1
 14521 1e17 2905     		.2byte	0x529
 14522 1e19 3B010000 		.4byte	0x13b
 14523 1e1d 02       		.uleb128 0x2
 14524 1e1e 91       		.byte	0x91
 14525 1e1f 54       		.sleb128 -44
 14526 1e20 2A       		.uleb128 0x2a
 14527 1e21 7B160000 		.4byte	.LASF502
 14528 1e25 01       		.byte	0x1
 14529 1e26 3205     		.2byte	0x532
 14530 1e28 97000000 		.4byte	0x97
 14531 1e2c 02       		.uleb128 0x2
 14532 1e2d 91       		.byte	0x91
 14533 1e2e 6D       		.sleb128 -19
 14534 1e2f 00       		.byte	0
 14535 1e30 00       		.byte	0
 14536 1e31 00       		.byte	0
 14537 1e32 2B       		.uleb128 0x2b
 14538 1e33 AE0A0000 		.4byte	.LASF509
 14539 1e37 01       		.byte	0x1
 14540 1e38 4E05     		.2byte	0x54e
 14541 1e3a 00000000 		.4byte	.LFB84
 14542 1e3e 74020000 		.4byte	.LFE84-.LFB84
 14543 1e42 01       		.uleb128 0x1
 14544 1e43 9C       		.byte	0x9c
 14545 1e44 011F0000 		.4byte	0x1f01
 14546 1e48 2C       		.uleb128 0x2c
 14547 1e49 14230000 		.4byte	.LASF476
 14548 1e4d 01       		.byte	0x1
 14549 1e4e 4E05     		.2byte	0x54e
 14550 1e50 11010000 		.4byte	0x111
 14551 1e54 02       		.uleb128 0x2
 14552 1e55 91       		.byte	0x91
 14553 1e56 4C       		.sleb128 -52
 14554 1e57 2A       		.uleb128 0x2a
 14555 1e58 34000000 		.4byte	.LASF491
 14556 1e5c 01       		.byte	0x1
 14557 1e5d 5005     		.2byte	0x550
 14558 1e5f 2B0D0000 		.4byte	0xd2b
 14559 1e63 02       		.uleb128 0x2
 14560 1e64 91       		.byte	0x91
 14561 1e65 68       		.sleb128 -24
ARM GAS  C:\Users\Lenovo\AppData\Local\Temp\cccA9qMw.s 			page 306


 14562 1e66 26       		.uleb128 0x26
 14563 1e67 14000000 		.4byte	.LBB37
 14564 1e6b 54020000 		.4byte	.LBE37-.LBB37
 14565 1e6f 2A       		.uleb128 0x2a
 14566 1e70 2D250000 		.4byte	.LASF492
 14567 1e74 01       		.byte	0x1
 14568 1e75 5305     		.2byte	0x553
 14569 1e77 81000000 		.4byte	0x81
 14570 1e7b 02       		.uleb128 0x2
 14571 1e7c 91       		.byte	0x91
 14572 1e7d 6F       		.sleb128 -17
 14573 1e7e 2A       		.uleb128 0x2a
 14574 1e7f B60C0000 		.4byte	.LASF493
 14575 1e83 01       		.byte	0x1
 14576 1e84 5405     		.2byte	0x554
 14577 1e86 8C050000 		.4byte	0x58c
 14578 1e8a 02       		.uleb128 0x2
 14579 1e8b 91       		.byte	0x91
 14580 1e8c 64       		.sleb128 -28
 14581 1e8d 29       		.uleb128 0x29
 14582 1e8e 60000000 		.4byte	.LBB38
 14583 1e92 D4000000 		.4byte	.LBE38-.LBB38
 14584 1e96 C81E0000 		.4byte	0x1ec8
 14585 1e9a 2A       		.uleb128 0x2a
 14586 1e9b 7C260000 		.4byte	.LASF501
 14587 1e9f 01       		.byte	0x1
 14588 1ea0 6205     		.2byte	0x562
 14589 1ea2 97000000 		.4byte	0x97
 14590 1ea6 02       		.uleb128 0x2
 14591 1ea7 91       		.byte	0x91
 14592 1ea8 63       		.sleb128 -29
 14593 1ea9 28       		.uleb128 0x28
 14594 1eaa 70747200 		.ascii	"ptr\000"
 14595 1eae 01       		.byte	0x1
 14596 1eaf 6905     		.2byte	0x569
 14597 1eb1 3B010000 		.4byte	0x13b
 14598 1eb5 02       		.uleb128 0x2
 14599 1eb6 91       		.byte	0x91
 14600 1eb7 5C       		.sleb128 -36
 14601 1eb8 2A       		.uleb128 0x2a
 14602 1eb9 7B160000 		.4byte	.LASF502
 14603 1ebd 01       		.byte	0x1
 14604 1ebe 7305     		.2byte	0x573
 14605 1ec0 97000000 		.4byte	0x97
 14606 1ec4 02       		.uleb128 0x2
 14607 1ec5 91       		.byte	0x91
 14608 1ec6 6E       		.sleb128 -18
 14609 1ec7 00       		.byte	0
 14610 1ec8 26       		.uleb128 0x26
 14611 1ec9 36010000 		.4byte	.LBB39
 14612 1ecd D4000000 		.4byte	.LBE39-.LBB39
 14613 1ed1 2A       		.uleb128 0x2a
 14614 1ed2 7C260000 		.4byte	.LASF501
 14615 1ed6 01       		.byte	0x1
 14616 1ed7 7D05     		.2byte	0x57d
 14617 1ed9 97000000 		.4byte	0x97
 14618 1edd 02       		.uleb128 0x2
ARM GAS  C:\Users\Lenovo\AppData\Local\Temp\cccA9qMw.s 			page 307


 14619 1ede 91       		.byte	0x91
 14620 1edf 5B       		.sleb128 -37
 14621 1ee0 28       		.uleb128 0x28
 14622 1ee1 70747200 		.ascii	"ptr\000"
 14623 1ee5 01       		.byte	0x1
 14624 1ee6 8405     		.2byte	0x584
 14625 1ee8 3B010000 		.4byte	0x13b
 14626 1eec 02       		.uleb128 0x2
 14627 1eed 91       		.byte	0x91
 14628 1eee 54       		.sleb128 -44
 14629 1eef 2A       		.uleb128 0x2a
 14630 1ef0 7B160000 		.4byte	.LASF502
 14631 1ef4 01       		.byte	0x1
 14632 1ef5 8E05     		.2byte	0x58e
 14633 1ef7 97000000 		.4byte	0x97
 14634 1efb 02       		.uleb128 0x2
 14635 1efc 91       		.byte	0x91
 14636 1efd 6D       		.sleb128 -19
 14637 1efe 00       		.byte	0
 14638 1eff 00       		.byte	0
 14639 1f00 00       		.byte	0
 14640 1f01 2B       		.uleb128 0x2b
 14641 1f02 17070000 		.4byte	.LASF510
 14642 1f06 01       		.byte	0x1
 14643 1f07 A805     		.2byte	0x5a8
 14644 1f09 00000000 		.4byte	.LFB85
 14645 1f0d C4020000 		.4byte	.LFE85-.LFB85
 14646 1f11 01       		.uleb128 0x1
 14647 1f12 9C       		.byte	0x9c
 14648 1f13 CB1F0000 		.4byte	0x1fcb
 14649 1f17 2C       		.uleb128 0x2c
 14650 1f18 14230000 		.4byte	.LASF476
 14651 1f1c 01       		.byte	0x1
 14652 1f1d A805     		.2byte	0x5a8
 14653 1f1f 11010000 		.4byte	0x111
 14654 1f23 02       		.uleb128 0x2
 14655 1f24 91       		.byte	0x91
 14656 1f25 54       		.sleb128 -44
 14657 1f26 2A       		.uleb128 0x2a
 14658 1f27 34000000 		.4byte	.LASF491
 14659 1f2b 01       		.byte	0x1
 14660 1f2c AA05     		.2byte	0x5aa
 14661 1f2e 2B0D0000 		.4byte	0xd2b
 14662 1f32 02       		.uleb128 0x2
 14663 1f33 91       		.byte	0x91
 14664 1f34 68       		.sleb128 -24
 14665 1f35 26       		.uleb128 0x26
 14666 1f36 14000000 		.4byte	.LBB40
 14667 1f3a A4020000 		.4byte	.LBE40-.LBB40
 14668 1f3e 2A       		.uleb128 0x2a
 14669 1f3f 2D250000 		.4byte	.LASF492
 14670 1f43 01       		.byte	0x1
 14671 1f44 AD05     		.2byte	0x5ad
 14672 1f46 81000000 		.4byte	0x81
 14673 1f4a 02       		.uleb128 0x2
 14674 1f4b 91       		.byte	0x91
 14675 1f4c 6F       		.sleb128 -17
ARM GAS  C:\Users\Lenovo\AppData\Local\Temp\cccA9qMw.s 			page 308


 14676 1f4d 2A       		.uleb128 0x2a
 14677 1f4e B60C0000 		.4byte	.LASF493
 14678 1f52 01       		.byte	0x1
 14679 1f53 AF05     		.2byte	0x5af
 14680 1f55 8C050000 		.4byte	0x58c
 14681 1f59 02       		.uleb128 0x2
 14682 1f5a 91       		.byte	0x91
 14683 1f5b 64       		.sleb128 -28
 14684 1f5c 26       		.uleb128 0x26
 14685 1f5d 3A000000 		.4byte	.LBB41
 14686 1f61 7E020000 		.4byte	.LBE41-.LBB41
 14687 1f65 2A       		.uleb128 0x2a
 14688 1f66 E50C0000 		.4byte	.LASF481
 14689 1f6a 01       		.byte	0x1
 14690 1f6b C105     		.2byte	0x5c1
 14691 1f6d A3000000 		.4byte	0xa3
 14692 1f71 02       		.uleb128 0x2
 14693 1f72 91       		.byte	0x91
 14694 1f73 62       		.sleb128 -30
 14695 1f74 2A       		.uleb128 0x2a
 14696 1f75 5B120000 		.4byte	.LASF511
 14697 1f79 01       		.byte	0x1
 14698 1f7a DC05     		.2byte	0x5dc
 14699 1f7c 97000000 		.4byte	0x97
 14700 1f80 02       		.uleb128 0x2
 14701 1f81 91       		.byte	0x91
 14702 1f82 61       		.sleb128 -31
 14703 1f83 28       		.uleb128 0x28
 14704 1f84 70747200 		.ascii	"ptr\000"
 14705 1f88 01       		.byte	0x1
 14706 1f89 DD05     		.2byte	0x5dd
 14707 1f8b 3B010000 		.4byte	0x13b
 14708 1f8f 02       		.uleb128 0x2
 14709 1f90 91       		.byte	0x91
 14710 1f91 5C       		.sleb128 -36
 14711 1f92 29       		.uleb128 0x29
 14712 1f93 D6010000 		.4byte	.LBB42
 14713 1f97 34000000 		.4byte	.LBE42-.LBB42
 14714 1f9b AF1F0000 		.4byte	0x1faf
 14715 1f9f 2A       		.uleb128 0x2a
 14716 1fa0 7B160000 		.4byte	.LASF502
 14717 1fa4 01       		.byte	0x1
 14718 1fa5 E105     		.2byte	0x5e1
 14719 1fa7 97000000 		.4byte	0x97
 14720 1fab 02       		.uleb128 0x2
 14721 1fac 91       		.byte	0x91
 14722 1fad 6E       		.sleb128 -18
 14723 1fae 00       		.byte	0
 14724 1faf 26       		.uleb128 0x26
 14725 1fb0 0C020000 		.4byte	.LBB43
 14726 1fb4 34000000 		.4byte	.LBE43-.LBB43
 14727 1fb8 2A       		.uleb128 0x2a
 14728 1fb9 7B160000 		.4byte	.LASF502
 14729 1fbd 01       		.byte	0x1
 14730 1fbe E605     		.2byte	0x5e6
 14731 1fc0 97000000 		.4byte	0x97
 14732 1fc4 02       		.uleb128 0x2
ARM GAS  C:\Users\Lenovo\AppData\Local\Temp\cccA9qMw.s 			page 309


 14733 1fc5 91       		.byte	0x91
 14734 1fc6 6D       		.sleb128 -19
 14735 1fc7 00       		.byte	0
 14736 1fc8 00       		.byte	0
 14737 1fc9 00       		.byte	0
 14738 1fca 00       		.byte	0
 14739 1fcb 2B       		.uleb128 0x2b
 14740 1fcc A6190000 		.4byte	.LASF512
 14741 1fd0 01       		.byte	0x1
 14742 1fd1 F805     		.2byte	0x5f8
 14743 1fd3 00000000 		.4byte	.LFB86
 14744 1fd7 B0010000 		.4byte	.LFE86-.LFB86
 14745 1fdb 01       		.uleb128 0x1
 14746 1fdc 9C       		.byte	0x9c
 14747 1fdd 77200000 		.4byte	0x2077
 14748 1fe1 2C       		.uleb128 0x2c
 14749 1fe2 14230000 		.4byte	.LASF476
 14750 1fe6 01       		.byte	0x1
 14751 1fe7 F805     		.2byte	0x5f8
 14752 1fe9 11010000 		.4byte	0x111
 14753 1fed 02       		.uleb128 0x2
 14754 1fee 91       		.byte	0x91
 14755 1fef 5C       		.sleb128 -36
 14756 1ff0 2A       		.uleb128 0x2a
 14757 1ff1 34000000 		.4byte	.LASF491
 14758 1ff5 01       		.byte	0x1
 14759 1ff6 FA05     		.2byte	0x5fa
 14760 1ff8 2B0D0000 		.4byte	0xd2b
 14761 1ffc 02       		.uleb128 0x2
 14762 1ffd 91       		.byte	0x91
 14763 1ffe 68       		.sleb128 -24
 14764 1fff 26       		.uleb128 0x26
 14765 2000 14000000 		.4byte	.LBB44
 14766 2004 92010000 		.4byte	.LBE44-.LBB44
 14767 2008 2A       		.uleb128 0x2a
 14768 2009 2D250000 		.4byte	.LASF492
 14769 200d 01       		.byte	0x1
 14770 200e FD05     		.2byte	0x5fd
 14771 2010 81000000 		.4byte	0x81
 14772 2014 02       		.uleb128 0x2
 14773 2015 91       		.byte	0x91
 14774 2016 6F       		.sleb128 -17
 14775 2017 2A       		.uleb128 0x2a
 14776 2018 B60C0000 		.4byte	.LASF493
 14777 201c 01       		.byte	0x1
 14778 201d FF05     		.2byte	0x5ff
 14779 201f 8C050000 		.4byte	0x58c
 14780 2023 02       		.uleb128 0x2
 14781 2024 91       		.byte	0x91
 14782 2025 64       		.sleb128 -28
 14783 2026 26       		.uleb128 0x26
 14784 2027 3A000000 		.4byte	.LBB45
 14785 202b 6C010000 		.4byte	.LBE45-.LBB45
 14786 202f 28       		.uleb128 0x28
 14787 2030 70747200 		.ascii	"ptr\000"
 14788 2034 01       		.byte	0x1
 14789 2035 1406     		.2byte	0x614
ARM GAS  C:\Users\Lenovo\AppData\Local\Temp\cccA9qMw.s 			page 310


 14790 2037 3B010000 		.4byte	0x13b
 14791 203b 02       		.uleb128 0x2
 14792 203c 91       		.byte	0x91
 14793 203d 60       		.sleb128 -32
 14794 203e 29       		.uleb128 0x29
 14795 203f EC000000 		.4byte	.LBB46
 14796 2043 34000000 		.4byte	.LBE46-.LBB46
 14797 2047 5B200000 		.4byte	0x205b
 14798 204b 2A       		.uleb128 0x2a
 14799 204c 7B160000 		.4byte	.LASF502
 14800 2050 01       		.byte	0x1
 14801 2051 1806     		.2byte	0x618
 14802 2053 97000000 		.4byte	0x97
 14803 2057 02       		.uleb128 0x2
 14804 2058 91       		.byte	0x91
 14805 2059 6E       		.sleb128 -18
 14806 205a 00       		.byte	0
 14807 205b 26       		.uleb128 0x26
 14808 205c 22010000 		.4byte	.LBB47
 14809 2060 34000000 		.4byte	.LBE47-.LBB47
 14810 2064 2A       		.uleb128 0x2a
 14811 2065 7B160000 		.4byte	.LASF502
 14812 2069 01       		.byte	0x1
 14813 206a 1D06     		.2byte	0x61d
 14814 206c 97000000 		.4byte	0x97
 14815 2070 02       		.uleb128 0x2
 14816 2071 91       		.byte	0x91
 14817 2072 6D       		.sleb128 -19
 14818 2073 00       		.byte	0
 14819 2074 00       		.byte	0
 14820 2075 00       		.byte	0
 14821 2076 00       		.byte	0
 14822 2077 2B       		.uleb128 0x2b
 14823 2078 FC200000 		.4byte	.LASF513
 14824 207c 01       		.byte	0x1
 14825 207d 2F06     		.2byte	0x62f
 14826 207f 00000000 		.4byte	.LFB87
 14827 2083 3C020000 		.4byte	.LFE87-.LFB87
 14828 2087 01       		.uleb128 0x1
 14829 2088 9C       		.byte	0x9c
 14830 2089 32210000 		.4byte	0x2132
 14831 208d 2C       		.uleb128 0x2c
 14832 208e 14230000 		.4byte	.LASF476
 14833 2092 01       		.byte	0x1
 14834 2093 2F06     		.2byte	0x62f
 14835 2095 11010000 		.4byte	0x111
 14836 2099 02       		.uleb128 0x2
 14837 209a 91       		.byte	0x91
 14838 209b 54       		.sleb128 -44
 14839 209c 2A       		.uleb128 0x2a
 14840 209d 34000000 		.4byte	.LASF491
 14841 20a1 01       		.byte	0x1
 14842 20a2 3106     		.2byte	0x631
 14843 20a4 2B0D0000 		.4byte	0xd2b
 14844 20a8 02       		.uleb128 0x2
 14845 20a9 91       		.byte	0x91
 14846 20aa 68       		.sleb128 -24
ARM GAS  C:\Users\Lenovo\AppData\Local\Temp\cccA9qMw.s 			page 311


 14847 20ab 26       		.uleb128 0x26
 14848 20ac 14000000 		.4byte	.LBB48
 14849 20b0 1E020000 		.4byte	.LBE48-.LBB48
 14850 20b4 2A       		.uleb128 0x2a
 14851 20b5 2D250000 		.4byte	.LASF492
 14852 20b9 01       		.byte	0x1
 14853 20ba 3406     		.2byte	0x634
 14854 20bc 81000000 		.4byte	0x81
 14855 20c0 02       		.uleb128 0x2
 14856 20c1 91       		.byte	0x91
 14857 20c2 6F       		.sleb128 -17
 14858 20c3 2A       		.uleb128 0x2a
 14859 20c4 B60C0000 		.4byte	.LASF493
 14860 20c8 01       		.byte	0x1
 14861 20c9 3606     		.2byte	0x636
 14862 20cb 8C050000 		.4byte	0x58c
 14863 20cf 02       		.uleb128 0x2
 14864 20d0 91       		.byte	0x91
 14865 20d1 64       		.sleb128 -28
 14866 20d2 26       		.uleb128 0x26
 14867 20d3 3A000000 		.4byte	.LBB49
 14868 20d7 F2010000 		.4byte	.LBE49-.LBB49
 14869 20db 2A       		.uleb128 0x2a
 14870 20dc E50C0000 		.4byte	.LASF481
 14871 20e0 01       		.byte	0x1
 14872 20e1 4A06     		.2byte	0x64a
 14873 20e3 A3000000 		.4byte	0xa3
 14874 20e7 02       		.uleb128 0x2
 14875 20e8 91       		.byte	0x91
 14876 20e9 62       		.sleb128 -30
 14877 20ea 28       		.uleb128 0x28
 14878 20eb 70747200 		.ascii	"ptr\000"
 14879 20ef 01       		.byte	0x1
 14880 20f0 6106     		.2byte	0x661
 14881 20f2 3B010000 		.4byte	0x13b
 14882 20f6 02       		.uleb128 0x2
 14883 20f7 91       		.byte	0x91
 14884 20f8 5C       		.sleb128 -36
 14885 20f9 29       		.uleb128 0x29
 14886 20fa 78010000 		.4byte	.LBB50
 14887 20fe 34000000 		.4byte	.LBE50-.LBB50
 14888 2102 16210000 		.4byte	0x2116
 14889 2106 2A       		.uleb128 0x2a
 14890 2107 7B160000 		.4byte	.LASF502
 14891 210b 01       		.byte	0x1
 14892 210c 6506     		.2byte	0x665
 14893 210e 97000000 		.4byte	0x97
 14894 2112 02       		.uleb128 0x2
 14895 2113 91       		.byte	0x91
 14896 2114 6E       		.sleb128 -18
 14897 2115 00       		.byte	0
 14898 2116 26       		.uleb128 0x26
 14899 2117 AE010000 		.4byte	.LBB51
 14900 211b 34000000 		.4byte	.LBE51-.LBB51
 14901 211f 2A       		.uleb128 0x2a
 14902 2120 7B160000 		.4byte	.LASF502
 14903 2124 01       		.byte	0x1
ARM GAS  C:\Users\Lenovo\AppData\Local\Temp\cccA9qMw.s 			page 312


 14904 2125 6A06     		.2byte	0x66a
 14905 2127 97000000 		.4byte	0x97
 14906 212b 02       		.uleb128 0x2
 14907 212c 91       		.byte	0x91
 14908 212d 6D       		.sleb128 -19
 14909 212e 00       		.byte	0
 14910 212f 00       		.byte	0
 14911 2130 00       		.byte	0
 14912 2131 00       		.byte	0
 14913 2132 2B       		.uleb128 0x2b
 14914 2133 FC020000 		.4byte	.LASF514
 14915 2137 01       		.byte	0x1
 14916 2138 8006     		.2byte	0x680
 14917 213a 00000000 		.4byte	.LFB88
 14918 213e 6A000000 		.4byte	.LFE88-.LFB88
 14919 2142 01       		.uleb128 0x1
 14920 2143 9C       		.byte	0x9c
 14921 2144 8F210000 		.4byte	0x218f
 14922 2148 2C       		.uleb128 0x2c
 14923 2149 14230000 		.4byte	.LASF476
 14924 214d 01       		.byte	0x1
 14925 214e 8006     		.2byte	0x680
 14926 2150 11010000 		.4byte	0x111
 14927 2154 02       		.uleb128 0x2
 14928 2155 91       		.byte	0x91
 14929 2156 64       		.sleb128 -28
 14930 2157 2A       		.uleb128 0x2a
 14931 2158 34000000 		.4byte	.LASF491
 14932 215c 01       		.byte	0x1
 14933 215d 8206     		.2byte	0x682
 14934 215f 2B0D0000 		.4byte	0xd2b
 14935 2163 02       		.uleb128 0x2
 14936 2164 91       		.byte	0x91
 14937 2165 74       		.sleb128 -12
 14938 2166 26       		.uleb128 0x26
 14939 2167 12000000 		.4byte	.LBB52
 14940 216b 52000000 		.4byte	.LBE52-.LBB52
 14941 216f 2A       		.uleb128 0x2a
 14942 2170 2D250000 		.4byte	.LASF492
 14943 2174 01       		.byte	0x1
 14944 2175 8506     		.2byte	0x685
 14945 2177 81000000 		.4byte	0x81
 14946 217b 02       		.uleb128 0x2
 14947 217c 91       		.byte	0x91
 14948 217d 73       		.sleb128 -13
 14949 217e 2A       		.uleb128 0x2a
 14950 217f B60C0000 		.4byte	.LASF493
 14951 2183 01       		.byte	0x1
 14952 2184 8706     		.2byte	0x687
 14953 2186 8C050000 		.4byte	0x58c
 14954 218a 02       		.uleb128 0x2
 14955 218b 91       		.byte	0x91
 14956 218c 6C       		.sleb128 -20
 14957 218d 00       		.byte	0
 14958 218e 00       		.byte	0
 14959 218f 2B       		.uleb128 0x2b
 14960 2190 A6140000 		.4byte	.LASF515
ARM GAS  C:\Users\Lenovo\AppData\Local\Temp\cccA9qMw.s 			page 313


 14961 2194 01       		.byte	0x1
 14962 2195 9406     		.2byte	0x694
 14963 2197 00000000 		.4byte	.LFB89
 14964 219b 60000000 		.4byte	.LFE89-.LFB89
 14965 219f 01       		.uleb128 0x1
 14966 21a0 9C       		.byte	0x9c
 14967 21a1 EC210000 		.4byte	0x21ec
 14968 21a5 2C       		.uleb128 0x2c
 14969 21a6 14230000 		.4byte	.LASF476
 14970 21aa 01       		.byte	0x1
 14971 21ab 9406     		.2byte	0x694
 14972 21ad 11010000 		.4byte	0x111
 14973 21b1 02       		.uleb128 0x2
 14974 21b2 91       		.byte	0x91
 14975 21b3 64       		.sleb128 -28
 14976 21b4 2A       		.uleb128 0x2a
 14977 21b5 34000000 		.4byte	.LASF491
 14978 21b9 01       		.byte	0x1
 14979 21ba 9606     		.2byte	0x696
 14980 21bc 2B0D0000 		.4byte	0xd2b
 14981 21c0 02       		.uleb128 0x2
 14982 21c1 91       		.byte	0x91
 14983 21c2 74       		.sleb128 -12
 14984 21c3 26       		.uleb128 0x26
 14985 21c4 12000000 		.4byte	.LBB53
 14986 21c8 48000000 		.4byte	.LBE53-.LBB53
 14987 21cc 2A       		.uleb128 0x2a
 14988 21cd 2D250000 		.4byte	.LASF492
 14989 21d1 01       		.byte	0x1
 14990 21d2 9906     		.2byte	0x699
 14991 21d4 81000000 		.4byte	0x81
 14992 21d8 02       		.uleb128 0x2
 14993 21d9 91       		.byte	0x91
 14994 21da 73       		.sleb128 -13
 14995 21db 2A       		.uleb128 0x2a
 14996 21dc B60C0000 		.4byte	.LASF493
 14997 21e0 01       		.byte	0x1
 14998 21e1 9B06     		.2byte	0x69b
 14999 21e3 8C050000 		.4byte	0x58c
 15000 21e7 02       		.uleb128 0x2
 15001 21e8 91       		.byte	0x91
 15002 21e9 6C       		.sleb128 -20
 15003 21ea 00       		.byte	0
 15004 21eb 00       		.byte	0
 15005 21ec 2B       		.uleb128 0x2b
 15006 21ed 051B0000 		.4byte	.LASF516
 15007 21f1 01       		.byte	0x1
 15008 21f2 A806     		.2byte	0x6a8
 15009 21f4 00000000 		.4byte	.LFB90
 15010 21f8 E6000000 		.4byte	.LFE90-.LFB90
 15011 21fc 01       		.uleb128 0x1
 15012 21fd 9C       		.byte	0x9c
 15013 21fe 49220000 		.4byte	0x2249
 15014 2202 2C       		.uleb128 0x2c
 15015 2203 14230000 		.4byte	.LASF476
 15016 2207 01       		.byte	0x1
 15017 2208 A806     		.2byte	0x6a8
ARM GAS  C:\Users\Lenovo\AppData\Local\Temp\cccA9qMw.s 			page 314


 15018 220a 30010000 		.4byte	0x130
 15019 220e 02       		.uleb128 0x2
 15020 220f 91       		.byte	0x91
 15021 2210 5C       		.sleb128 -36
 15022 2211 2A       		.uleb128 0x2a
 15023 2212 34000000 		.4byte	.LASF491
 15024 2216 01       		.byte	0x1
 15025 2217 AA06     		.2byte	0x6aa
 15026 2219 2B0D0000 		.4byte	0xd2b
 15027 221d 02       		.uleb128 0x2
 15028 221e 91       		.byte	0x91
 15029 221f 6C       		.sleb128 -20
 15030 2220 26       		.uleb128 0x26
 15031 2221 12000000 		.4byte	.LBB54
 15032 2225 CE000000 		.4byte	.LBE54-.LBB54
 15033 2229 2A       		.uleb128 0x2a
 15034 222a 2D250000 		.4byte	.LASF492
 15035 222e 01       		.byte	0x1
 15036 222f AD06     		.2byte	0x6ad
 15037 2231 81000000 		.4byte	0x81
 15038 2235 02       		.uleb128 0x2
 15039 2236 91       		.byte	0x91
 15040 2237 6B       		.sleb128 -21
 15041 2238 2A       		.uleb128 0x2a
 15042 2239 B60C0000 		.4byte	.LASF493
 15043 223d 01       		.byte	0x1
 15044 223e AF06     		.2byte	0x6af
 15045 2240 8C050000 		.4byte	0x58c
 15046 2244 02       		.uleb128 0x2
 15047 2245 91       		.byte	0x91
 15048 2246 64       		.sleb128 -28
 15049 2247 00       		.byte	0
 15050 2248 00       		.byte	0
 15051 2249 2B       		.uleb128 0x2b
 15052 224a 570F0000 		.4byte	.LASF517
 15053 224e 01       		.byte	0x1
 15054 224f C706     		.2byte	0x6c7
 15055 2251 00000000 		.4byte	.LFB91
 15056 2255 54040000 		.4byte	.LFE91-.LFB91
 15057 2259 01       		.uleb128 0x1
 15058 225a 9C       		.byte	0x9c
 15059 225b 0A230000 		.4byte	0x230a
 15060 225f 2C       		.uleb128 0x2c
 15061 2260 14230000 		.4byte	.LASF476
 15062 2264 01       		.byte	0x1
 15063 2265 C706     		.2byte	0x6c7
 15064 2267 11010000 		.4byte	0x111
 15065 226b 02       		.uleb128 0x2
 15066 226c 91       		.byte	0x91
 15067 226d 54       		.sleb128 -44
 15068 226e 2A       		.uleb128 0x2a
 15069 226f EA1E0000 		.4byte	.LASF472
 15070 2273 01       		.byte	0x1
 15071 2274 C906     		.2byte	0x6c9
 15072 2276 730F0000 		.4byte	0xf73
 15073 227a 02       		.uleb128 0x2
 15074 227b 91       		.byte	0x91
ARM GAS  C:\Users\Lenovo\AppData\Local\Temp\cccA9qMw.s 			page 315


 15075 227c 68       		.sleb128 -24
 15076 227d 26       		.uleb128 0x26
 15077 227e 14000000 		.4byte	.LBB55
 15078 2282 34040000 		.4byte	.LBE55-.LBB55
 15079 2286 2A       		.uleb128 0x2a
 15080 2287 2D250000 		.4byte	.LASF492
 15081 228b 01       		.byte	0x1
 15082 228c CC06     		.2byte	0x6cc
 15083 228e 97000000 		.4byte	0x97
 15084 2292 02       		.uleb128 0x2
 15085 2293 91       		.byte	0x91
 15086 2294 67       		.sleb128 -25
 15087 2295 2A       		.uleb128 0x2a
 15088 2296 371C0000 		.4byte	.LASF518
 15089 229a 01       		.byte	0x1
 15090 229b CF06     		.2byte	0x6cf
 15091 229d 97000000 		.4byte	0x97
 15092 22a1 02       		.uleb128 0x2
 15093 22a2 91       		.byte	0x91
 15094 22a3 66       		.sleb128 -26
 15095 22a4 26       		.uleb128 0x26
 15096 22a5 74000000 		.4byte	.LBB56
 15097 22a9 D4030000 		.4byte	.LBE56-.LBB56
 15098 22ad 2A       		.uleb128 0x2a
 15099 22ae 5A280000 		.4byte	.LASF519
 15100 22b2 01       		.byte	0x1
 15101 22b3 D506     		.2byte	0x6d5
 15102 22b5 49020000 		.4byte	0x249
 15103 22b9 02       		.uleb128 0x2
 15104 22ba 91       		.byte	0x91
 15105 22bb 6F       		.sleb128 -17
 15106 22bc 2A       		.uleb128 0x2a
 15107 22bd 1B290000 		.4byte	.LASF520
 15108 22c1 01       		.byte	0x1
 15109 22c2 D606     		.2byte	0x6d6
 15110 22c4 A3000000 		.4byte	0xa3
 15111 22c8 02       		.uleb128 0x2
 15112 22c9 91       		.byte	0x91
 15113 22ca 6C       		.sleb128 -20
 15114 22cb 2A       		.uleb128 0x2a
 15115 22cc BD180000 		.4byte	.LASF521
 15116 22d0 01       		.byte	0x1
 15117 22d1 F606     		.2byte	0x6f6
 15118 22d3 7C070000 		.4byte	0x77c
 15119 22d7 02       		.uleb128 0x2
 15120 22d8 91       		.byte	0x91
 15121 22d9 60       		.sleb128 -32
 15122 22da 2A       		.uleb128 0x2a
 15123 22db 821B0000 		.4byte	.LASF522
 15124 22df 01       		.byte	0x1
 15125 22e0 F806     		.2byte	0x6f8
 15126 22e2 97000000 		.4byte	0x97
 15127 22e6 02       		.uleb128 0x2
 15128 22e7 91       		.byte	0x91
 15129 22e8 5F       		.sleb128 -33
 15130 22e9 2A       		.uleb128 0x2a
 15131 22ea 8D1A0000 		.4byte	.LASF523
ARM GAS  C:\Users\Lenovo\AppData\Local\Temp\cccA9qMw.s 			page 316


 15132 22ee 01       		.byte	0x1
 15133 22ef F906     		.2byte	0x6f9
 15134 22f1 97000000 		.4byte	0x97
 15135 22f5 02       		.uleb128 0x2
 15136 22f6 91       		.byte	0x91
 15137 22f7 5E       		.sleb128 -34
 15138 22f8 2A       		.uleb128 0x2a
 15139 22f9 52120000 		.4byte	.LASF524
 15140 22fd 01       		.byte	0x1
 15141 22fe 3007     		.2byte	0x730
 15142 2300 72020000 		.4byte	0x272
 15143 2304 02       		.uleb128 0x2
 15144 2305 91       		.byte	0x91
 15145 2306 58       		.sleb128 -40
 15146 2307 00       		.byte	0
 15147 2308 00       		.byte	0
 15148 2309 00       		.byte	0
 15149 230a 2D       		.uleb128 0x2d
 15150 230b 10110000 		.4byte	.LASF525
 15151 230f 01       		.byte	0x1
 15152 2310 4707     		.2byte	0x747
 15153 2312 00000000 		.4byte	.LFB92
 15154 2316 C8040000 		.4byte	.LFE92-.LFB92
 15155 231a 01       		.uleb128 0x1
 15156 231b 9C       		.byte	0x9c
 15157 231c 3F230000 		.4byte	0x233f
 15158 2320 2C       		.uleb128 0x2c
 15159 2321 14230000 		.4byte	.LASF476
 15160 2325 01       		.byte	0x1
 15161 2326 4707     		.2byte	0x747
 15162 2328 30010000 		.4byte	0x130
 15163 232c 02       		.uleb128 0x2
 15164 232d 91       		.byte	0x91
 15165 232e 6C       		.sleb128 -20
 15166 232f 2A       		.uleb128 0x2a
 15167 2330 CB170000 		.4byte	.LASF526
 15168 2334 01       		.byte	0x1
 15169 2335 4907     		.2byte	0x749
 15170 2337 7C070000 		.4byte	0x77c
 15171 233b 02       		.uleb128 0x2
 15172 233c 91       		.byte	0x91
 15173 233d 74       		.sleb128 -12
 15174 233e 00       		.byte	0
 15175 233f 2E       		.uleb128 0x2e
 15176 2340 7A130000 		.4byte	.LASF535
 15177 2344 01       		.byte	0x1
 15178 2345 8C08     		.2byte	0x88c
 15179 2347 49020000 		.4byte	0x249
 15180 234b 00000000 		.4byte	.LFB93
 15181 234f 28010000 		.4byte	.LFE93-.LFB93
 15182 2353 01       		.uleb128 0x1
 15183 2354 9C       		.byte	0x9c
 15184 2355 E9230000 		.4byte	0x23e9
 15185 2359 2C       		.uleb128 0x2c
 15186 235a 14230000 		.4byte	.LASF476
 15187 235e 01       		.byte	0x1
 15188 235f 8C08     		.2byte	0x88c
ARM GAS  C:\Users\Lenovo\AppData\Local\Temp\cccA9qMw.s 			page 317


 15189 2361 11010000 		.4byte	0x111
 15190 2365 02       		.uleb128 0x2
 15191 2366 91       		.byte	0x91
 15192 2367 5C       		.sleb128 -36
 15193 2368 2C       		.uleb128 0x2c
 15194 2369 260F0000 		.4byte	.LASF527
 15195 236d 01       		.byte	0x1
 15196 236e 8C08     		.2byte	0x88c
 15197 2370 11010000 		.4byte	0x111
 15198 2374 02       		.uleb128 0x2
 15199 2375 91       		.byte	0x91
 15200 2376 58       		.sleb128 -40
 15201 2377 2C       		.uleb128 0x2c
 15202 2378 021A0000 		.4byte	.LASF528
 15203 237c 01       		.byte	0x1
 15204 237d 8C08     		.2byte	0x88c
 15205 237f A3000000 		.4byte	0xa3
 15206 2383 02       		.uleb128 0x2
 15207 2384 91       		.byte	0x91
 15208 2385 56       		.sleb128 -42
 15209 2386 2A       		.uleb128 0x2a
 15210 2387 24160000 		.4byte	.LASF529
 15211 238b 01       		.byte	0x1
 15212 238c 8E08     		.2byte	0x88e
 15213 238e 49020000 		.4byte	0x249
 15214 2392 02       		.uleb128 0x2
 15215 2393 91       		.byte	0x91
 15216 2394 6F       		.sleb128 -17
 15217 2395 2A       		.uleb128 0x2a
 15218 2396 2D250000 		.4byte	.LASF492
 15219 239a 01       		.byte	0x1
 15220 239b 8F08     		.2byte	0x88f
 15221 239d 97000000 		.4byte	0x97
 15222 23a1 05       		.uleb128 0x5
 15223 23a2 03       		.byte	0x3
 15224 23a3 00000000 		.4byte	index.9615
 15225 23a7 2A       		.uleb128 0x2a
 15226 23a8 34000000 		.4byte	.LASF491
 15227 23ac 01       		.byte	0x1
 15228 23ad 9008     		.2byte	0x890
 15229 23af 2B0D0000 		.4byte	0xd2b
 15230 23b3 02       		.uleb128 0x2
 15231 23b4 91       		.byte	0x91
 15232 23b5 68       		.sleb128 -24
 15233 23b6 26       		.uleb128 0x26
 15234 23b7 38000000 		.4byte	.LBB57
 15235 23bb E2000000 		.4byte	.LBE57-.LBB57
 15236 23bf 2A       		.uleb128 0x2a
 15237 23c0 8D1A0000 		.4byte	.LASF523
 15238 23c4 01       		.byte	0x1
 15239 23c5 9708     		.2byte	0x897
 15240 23c7 97000000 		.4byte	0x97
 15241 23cb 02       		.uleb128 0x2
 15242 23cc 91       		.byte	0x91
 15243 23cd 67       		.sleb128 -25
 15244 23ce 26       		.uleb128 0x26
 15245 23cf AA000000 		.4byte	.LBB58
ARM GAS  C:\Users\Lenovo\AppData\Local\Temp\cccA9qMw.s 			page 318


 15246 23d3 70000000 		.4byte	.LBE58-.LBB58
 15247 23d7 2A       		.uleb128 0x2a
 15248 23d8 371C0000 		.4byte	.LASF518
 15249 23dc 01       		.byte	0x1
 15250 23dd 9E08     		.2byte	0x89e
 15251 23df 97000000 		.4byte	0x97
 15252 23e3 02       		.uleb128 0x2
 15253 23e4 91       		.byte	0x91
 15254 23e5 66       		.sleb128 -26
 15255 23e6 00       		.byte	0
 15256 23e7 00       		.byte	0
 15257 23e8 00       		.byte	0
 15258 23e9 2B       		.uleb128 0x2b
 15259 23ea BC080000 		.4byte	.LASF530
 15260 23ee 01       		.byte	0x1
 15261 23ef AD08     		.2byte	0x8ad
 15262 23f1 00000000 		.4byte	.LFB94
 15263 23f5 60000000 		.4byte	.LFE94-.LFB94
 15264 23f9 01       		.uleb128 0x1
 15265 23fa 9C       		.byte	0x9c
 15266 23fb 46240000 		.4byte	0x2446
 15267 23ff 2C       		.uleb128 0x2c
 15268 2400 14230000 		.4byte	.LASF476
 15269 2404 01       		.byte	0x1
 15270 2405 AD08     		.2byte	0x8ad
 15271 2407 30010000 		.4byte	0x130
 15272 240b 02       		.uleb128 0x2
 15273 240c 91       		.byte	0x91
 15274 240d 64       		.sleb128 -28
 15275 240e 2A       		.uleb128 0x2a
 15276 240f 34000000 		.4byte	.LASF491
 15277 2413 01       		.byte	0x1
 15278 2414 AF08     		.2byte	0x8af
 15279 2416 2B0D0000 		.4byte	0xd2b
 15280 241a 02       		.uleb128 0x2
 15281 241b 91       		.byte	0x91
 15282 241c 74       		.sleb128 -12
 15283 241d 26       		.uleb128 0x26
 15284 241e 12000000 		.4byte	.LBB59
 15285 2422 48000000 		.4byte	.LBE59-.LBB59
 15286 2426 2A       		.uleb128 0x2a
 15287 2427 2D250000 		.4byte	.LASF492
 15288 242b 01       		.byte	0x1
 15289 242c B208     		.2byte	0x8b2
 15290 242e 81000000 		.4byte	0x81
 15291 2432 02       		.uleb128 0x2
 15292 2433 91       		.byte	0x91
 15293 2434 73       		.sleb128 -13
 15294 2435 2A       		.uleb128 0x2a
 15295 2436 B60C0000 		.4byte	.LASF493
 15296 243a 01       		.byte	0x1
 15297 243b B408     		.2byte	0x8b4
 15298 243d 8C050000 		.4byte	0x58c
 15299 2441 02       		.uleb128 0x2
 15300 2442 91       		.byte	0x91
 15301 2443 6C       		.sleb128 -20
 15302 2444 00       		.byte	0
ARM GAS  C:\Users\Lenovo\AppData\Local\Temp\cccA9qMw.s 			page 319


 15303 2445 00       		.byte	0
 15304 2446 2B       		.uleb128 0x2b
 15305 2447 A9150000 		.4byte	.LASF531
 15306 244b 01       		.byte	0x1
 15307 244c C008     		.2byte	0x8c0
 15308 244e 00000000 		.4byte	.LFB95
 15309 2452 40020000 		.4byte	.LFE95-.LFB95
 15310 2456 01       		.uleb128 0x1
 15311 2457 9C       		.byte	0x9c
 15312 2458 FB240000 		.4byte	0x24fb
 15313 245c 2C       		.uleb128 0x2c
 15314 245d 14230000 		.4byte	.LASF476
 15315 2461 01       		.byte	0x1
 15316 2462 C008     		.2byte	0x8c0
 15317 2464 30010000 		.4byte	0x130
 15318 2468 02       		.uleb128 0x2
 15319 2469 91       		.byte	0x91
 15320 246a 64       		.sleb128 -28
 15321 246b 2A       		.uleb128 0x2a
 15322 246c EA1E0000 		.4byte	.LASF472
 15323 2470 01       		.byte	0x1
 15324 2471 C308     		.2byte	0x8c3
 15325 2473 730F0000 		.4byte	0xf73
 15326 2477 02       		.uleb128 0x2
 15327 2478 91       		.byte	0x91
 15328 2479 74       		.sleb128 -12
 15329 247a 29       		.uleb128 0x29
 15330 247b 48000000 		.4byte	.LBB60
 15331 247f 6C000000 		.4byte	.LBE60-.LBB60
 15332 2483 A6240000 		.4byte	0x24a6
 15333 2487 2A       		.uleb128 0x2a
 15334 2488 C10E0000 		.4byte	.LASF532
 15335 248c 01       		.byte	0x1
 15336 248d D108     		.2byte	0x8d1
 15337 248f 97000000 		.4byte	0x97
 15338 2493 02       		.uleb128 0x2
 15339 2494 91       		.byte	0x91
 15340 2495 73       		.sleb128 -13
 15341 2496 2A       		.uleb128 0x2a
 15342 2497 190F0000 		.4byte	.LASF533
 15343 249b 01       		.byte	0x1
 15344 249c D208     		.2byte	0x8d2
 15345 249e 97000000 		.4byte	0x97
 15346 24a2 02       		.uleb128 0x2
 15347 24a3 91       		.byte	0x91
 15348 24a4 72       		.sleb128 -14
 15349 24a5 00       		.byte	0
 15350 24a6 29       		.uleb128 0x29
 15351 24a7 B4000000 		.4byte	.LBB61
 15352 24ab 6C000000 		.4byte	.LBE61-.LBB61
 15353 24af D2240000 		.4byte	0x24d2
 15354 24b3 2A       		.uleb128 0x2a
 15355 24b4 C10E0000 		.4byte	.LASF532
 15356 24b8 01       		.byte	0x1
 15357 24b9 E308     		.2byte	0x8e3
 15358 24bb 97000000 		.4byte	0x97
 15359 24bf 02       		.uleb128 0x2
ARM GAS  C:\Users\Lenovo\AppData\Local\Temp\cccA9qMw.s 			page 320


 15360 24c0 91       		.byte	0x91
 15361 24c1 71       		.sleb128 -15
 15362 24c2 2A       		.uleb128 0x2a
 15363 24c3 190F0000 		.4byte	.LASF533
 15364 24c7 01       		.byte	0x1
 15365 24c8 E408     		.2byte	0x8e4
 15366 24ca 97000000 		.4byte	0x97
 15367 24ce 02       		.uleb128 0x2
 15368 24cf 91       		.byte	0x91
 15369 24d0 70       		.sleb128 -16
 15370 24d1 00       		.byte	0
 15371 24d2 26       		.uleb128 0x26
 15372 24d3 20010000 		.4byte	.LBB62
 15373 24d7 6C000000 		.4byte	.LBE62-.LBB62
 15374 24db 2A       		.uleb128 0x2a
 15375 24dc C10E0000 		.4byte	.LASF532
 15376 24e0 01       		.byte	0x1
 15377 24e1 F508     		.2byte	0x8f5
 15378 24e3 97000000 		.4byte	0x97
 15379 24e7 02       		.uleb128 0x2
 15380 24e8 91       		.byte	0x91
 15381 24e9 6F       		.sleb128 -17
 15382 24ea 2A       		.uleb128 0x2a
 15383 24eb 190F0000 		.4byte	.LASF533
 15384 24ef 01       		.byte	0x1
 15385 24f0 F608     		.2byte	0x8f6
 15386 24f2 97000000 		.4byte	0x97
 15387 24f6 02       		.uleb128 0x2
 15388 24f7 91       		.byte	0x91
 15389 24f8 6E       		.sleb128 -18
 15390 24f9 00       		.byte	0
 15391 24fa 00       		.byte	0
 15392 24fb 2D       		.uleb128 0x2d
 15393 24fc A00C0000 		.4byte	.LASF534
 15394 2500 01       		.byte	0x1
 15395 2501 2309     		.2byte	0x923
 15396 2503 00000000 		.4byte	.LFB96
 15397 2507 6C000000 		.4byte	.LFE96-.LFB96
 15398 250b 01       		.uleb128 0x1
 15399 250c 9C       		.byte	0x9c
 15400 250d 30250000 		.4byte	0x2530
 15401 2511 2C       		.uleb128 0x2c
 15402 2512 14230000 		.4byte	.LASF476
 15403 2516 01       		.byte	0x1
 15404 2517 2309     		.2byte	0x923
 15405 2519 11010000 		.4byte	0x111
 15406 251d 02       		.uleb128 0x2
 15407 251e 91       		.byte	0x91
 15408 251f 6C       		.sleb128 -20
 15409 2520 2A       		.uleb128 0x2a
 15410 2521 EA1E0000 		.4byte	.LASF472
 15411 2525 01       		.byte	0x1
 15412 2526 2509     		.2byte	0x925
 15413 2528 730F0000 		.4byte	0xf73
 15414 252c 02       		.uleb128 0x2
 15415 252d 91       		.byte	0x91
 15416 252e 74       		.sleb128 -12
ARM GAS  C:\Users\Lenovo\AppData\Local\Temp\cccA9qMw.s 			page 321


 15417 252f 00       		.byte	0
 15418 2530 2F       		.uleb128 0x2f
 15419 2531 D2270000 		.4byte	.LASF536
 15420 2535 01       		.byte	0x1
 15421 2536 3609     		.2byte	0x936
 15422 2538 49020000 		.4byte	0x249
 15423 253c 00000000 		.4byte	.LFB97
 15424 2540 5C010000 		.4byte	.LFE97-.LFB97
 15425 2544 01       		.uleb128 0x1
 15426 2545 9C       		.byte	0x9c
 15427 2546 96250000 		.4byte	0x2596
 15428 254a 2C       		.uleb128 0x2c
 15429 254b 14230000 		.4byte	.LASF476
 15430 254f 01       		.byte	0x1
 15431 2550 3609     		.2byte	0x936
 15432 2552 11010000 		.4byte	0x111
 15433 2556 02       		.uleb128 0x2
 15434 2557 91       		.byte	0x91
 15435 2558 6C       		.sleb128 -20
 15436 2559 2C       		.uleb128 0x2c
 15437 255a 260F0000 		.4byte	.LASF527
 15438 255e 01       		.byte	0x1
 15439 255f 3609     		.2byte	0x936
 15440 2561 11010000 		.4byte	0x111
 15441 2565 02       		.uleb128 0x2
 15442 2566 91       		.byte	0x91
 15443 2567 68       		.sleb128 -24
 15444 2568 2C       		.uleb128 0x2c
 15445 2569 021A0000 		.4byte	.LASF528
 15446 256d 01       		.byte	0x1
 15447 256e 3609     		.2byte	0x936
 15448 2570 A3000000 		.4byte	0xa3
 15449 2574 02       		.uleb128 0x2
 15450 2575 91       		.byte	0x91
 15451 2576 66       		.sleb128 -26
 15452 2577 2A       		.uleb128 0x2a
 15453 2578 24160000 		.4byte	.LASF529
 15454 257c 01       		.byte	0x1
 15455 257d 3809     		.2byte	0x938
 15456 257f 49020000 		.4byte	0x249
 15457 2583 02       		.uleb128 0x2
 15458 2584 91       		.byte	0x91
 15459 2585 77       		.sleb128 -9
 15460 2586 2A       		.uleb128 0x2a
 15461 2587 34000000 		.4byte	.LASF491
 15462 258b 01       		.byte	0x1
 15463 258c 3909     		.2byte	0x939
 15464 258e 2B0D0000 		.4byte	0xd2b
 15465 2592 02       		.uleb128 0x2
 15466 2593 91       		.byte	0x91
 15467 2594 70       		.sleb128 -16
 15468 2595 00       		.byte	0
 15469 2596 2F       		.uleb128 0x2f
 15470 2597 B5200000 		.4byte	.LASF537
 15471 259b 01       		.byte	0x1
 15472 259c 6509     		.2byte	0x965
 15473 259e 49020000 		.4byte	0x249
ARM GAS  C:\Users\Lenovo\AppData\Local\Temp\cccA9qMw.s 			page 322


 15474 25a2 00000000 		.4byte	.LFB98
 15475 25a6 4C000000 		.4byte	.LFE98-.LFB98
 15476 25aa 01       		.uleb128 0x1
 15477 25ab 9C       		.byte	0x9c
 15478 25ac FC250000 		.4byte	0x25fc
 15479 25b0 2C       		.uleb128 0x2c
 15480 25b1 14230000 		.4byte	.LASF476
 15481 25b5 01       		.byte	0x1
 15482 25b6 6509     		.2byte	0x965
 15483 25b8 11010000 		.4byte	0x111
 15484 25bc 02       		.uleb128 0x2
 15485 25bd 91       		.byte	0x91
 15486 25be 6C       		.sleb128 -20
 15487 25bf 2C       		.uleb128 0x2c
 15488 25c0 260F0000 		.4byte	.LASF527
 15489 25c4 01       		.byte	0x1
 15490 25c5 6509     		.2byte	0x965
 15491 25c7 11010000 		.4byte	0x111
 15492 25cb 02       		.uleb128 0x2
 15493 25cc 91       		.byte	0x91
 15494 25cd 68       		.sleb128 -24
 15495 25ce 2C       		.uleb128 0x2c
 15496 25cf 021A0000 		.4byte	.LASF528
 15497 25d3 01       		.byte	0x1
 15498 25d4 6509     		.2byte	0x965
 15499 25d6 A3000000 		.4byte	0xa3
 15500 25da 02       		.uleb128 0x2
 15501 25db 91       		.byte	0x91
 15502 25dc 66       		.sleb128 -26
 15503 25dd 2A       		.uleb128 0x2a
 15504 25de 24160000 		.4byte	.LASF529
 15505 25e2 01       		.byte	0x1
 15506 25e3 6709     		.2byte	0x967
 15507 25e5 49020000 		.4byte	0x249
 15508 25e9 02       		.uleb128 0x2
 15509 25ea 91       		.byte	0x91
 15510 25eb 77       		.sleb128 -9
 15511 25ec 2A       		.uleb128 0x2a
 15512 25ed 34000000 		.4byte	.LASF491
 15513 25f1 01       		.byte	0x1
 15514 25f2 6809     		.2byte	0x968
 15515 25f4 2B0D0000 		.4byte	0xd2b
 15516 25f8 02       		.uleb128 0x2
 15517 25f9 91       		.byte	0x91
 15518 25fa 70       		.sleb128 -16
 15519 25fb 00       		.byte	0
 15520 25fc 2D       		.uleb128 0x2d
 15521 25fd 62160000 		.4byte	.LASF538
 15522 2601 01       		.byte	0x1
 15523 2602 7609     		.2byte	0x976
 15524 2604 00000000 		.4byte	.LFB99
 15525 2608 98000000 		.4byte	.LFE99-.LFB99
 15526 260c 01       		.uleb128 0x1
 15527 260d 9C       		.byte	0x9c
 15528 260e 31260000 		.4byte	0x2631
 15529 2612 2C       		.uleb128 0x2c
 15530 2613 14230000 		.4byte	.LASF476
ARM GAS  C:\Users\Lenovo\AppData\Local\Temp\cccA9qMw.s 			page 323


 15531 2617 01       		.byte	0x1
 15532 2618 7609     		.2byte	0x976
 15533 261a 11010000 		.4byte	0x111
 15534 261e 02       		.uleb128 0x2
 15535 261f 91       		.byte	0x91
 15536 2620 6C       		.sleb128 -20
 15537 2621 2A       		.uleb128 0x2a
 15538 2622 EA1E0000 		.4byte	.LASF472
 15539 2626 01       		.byte	0x1
 15540 2627 7809     		.2byte	0x978
 15541 2629 730F0000 		.4byte	0xf73
 15542 262d 02       		.uleb128 0x2
 15543 262e 91       		.byte	0x91
 15544 262f 74       		.sleb128 -12
 15545 2630 00       		.byte	0
 15546 2631 2B       		.uleb128 0x2b
 15547 2632 292A0000 		.4byte	.LASF539
 15548 2636 01       		.byte	0x1
 15549 2637 9309     		.2byte	0x993
 15550 2639 00000000 		.4byte	.LFB100
 15551 263d AC000000 		.4byte	.LFE100-.LFB100
 15552 2641 01       		.uleb128 0x1
 15553 2642 9C       		.byte	0x9c
 15554 2643 A7260000 		.4byte	0x26a7
 15555 2647 2C       		.uleb128 0x2c
 15556 2648 14230000 		.4byte	.LASF476
 15557 264c 01       		.byte	0x1
 15558 264d 9309     		.2byte	0x993
 15559 264f 30010000 		.4byte	0x130
 15560 2653 02       		.uleb128 0x2
 15561 2654 91       		.byte	0x91
 15562 2655 64       		.sleb128 -28
 15563 2656 2A       		.uleb128 0x2a
 15564 2657 34000000 		.4byte	.LASF491
 15565 265b 01       		.byte	0x1
 15566 265c 9509     		.2byte	0x995
 15567 265e 2B0D0000 		.4byte	0xd2b
 15568 2662 02       		.uleb128 0x2
 15569 2663 91       		.byte	0x91
 15570 2664 70       		.sleb128 -16
 15571 2665 2A       		.uleb128 0x2a
 15572 2666 63250000 		.4byte	.LASF540
 15573 266a 01       		.byte	0x1
 15574 266b 9609     		.2byte	0x996
 15575 266d 72020000 		.4byte	0x272
 15576 2671 02       		.uleb128 0x2
 15577 2672 91       		.byte	0x91
 15578 2673 6C       		.sleb128 -20
 15579 2674 26       		.uleb128 0x26
 15580 2675 16000000 		.4byte	.LBB63
 15581 2679 86000000 		.4byte	.LBE63-.LBB63
 15582 267d 2A       		.uleb128 0x2a
 15583 267e E1110000 		.4byte	.LASF541
 15584 2682 01       		.byte	0x1
 15585 2683 9B09     		.2byte	0x99b
 15586 2685 5B0F0000 		.4byte	0xf5b
 15587 2689 02       		.uleb128 0x2
ARM GAS  C:\Users\Lenovo\AppData\Local\Temp\cccA9qMw.s 			page 324


 15588 268a 91       		.byte	0x91
 15589 268b 74       		.sleb128 -12
 15590 268c 26       		.uleb128 0x26
 15591 268d 38000000 		.4byte	.LBB64
 15592 2691 5C000000 		.4byte	.LBE64-.LBB64
 15593 2695 2A       		.uleb128 0x2a
 15594 2696 700C0000 		.4byte	.LASF542
 15595 269a 01       		.byte	0x1
 15596 269b A009     		.2byte	0x9a0
 15597 269d 730F0000 		.4byte	0xf73
 15598 26a1 02       		.uleb128 0x2
 15599 26a2 91       		.byte	0x91
 15600 26a3 68       		.sleb128 -24
 15601 26a4 00       		.byte	0
 15602 26a5 00       		.byte	0
 15603 26a6 00       		.byte	0
 15604 26a7 2F       		.uleb128 0x2f
 15605 26a8 C3160000 		.4byte	.LASF543
 15606 26ac 01       		.byte	0x1
 15607 26ad B809     		.2byte	0x9b8
 15608 26af 81000000 		.4byte	0x81
 15609 26b3 00000000 		.4byte	.LFB101
 15610 26b7 5E000000 		.4byte	.LFE101-.LFB101
 15611 26bb 01       		.uleb128 0x1
 15612 26bc 9C       		.byte	0x9c
 15613 26bd E0260000 		.4byte	0x26e0
 15614 26c1 2C       		.uleb128 0x2c
 15615 26c2 2E0B0000 		.4byte	.LASF544
 15616 26c6 01       		.byte	0x1
 15617 26c7 B809     		.2byte	0x9b8
 15618 26c9 3B010000 		.4byte	0x13b
 15619 26cd 02       		.uleb128 0x2
 15620 26ce 91       		.byte	0x91
 15621 26cf 6C       		.sleb128 -20
 15622 26d0 28       		.uleb128 0x28
 15623 26d1 6C726300 		.ascii	"lrc\000"
 15624 26d5 01       		.byte	0x1
 15625 26d6 BA09     		.2byte	0x9ba
 15626 26d8 81000000 		.4byte	0x81
 15627 26dc 02       		.uleb128 0x2
 15628 26dd 91       		.byte	0x91
 15629 26de 77       		.sleb128 -9
 15630 26df 00       		.byte	0
 15631 26e0 2F       		.uleb128 0x2f
 15632 26e1 39120000 		.4byte	.LASF545
 15633 26e5 01       		.byte	0x1
 15634 26e6 C409     		.2byte	0x9c4
 15635 26e8 81000000 		.4byte	0x81
 15636 26ec 00000000 		.4byte	.LFB102
 15637 26f0 32000000 		.4byte	.LFE102-.LFB102
 15638 26f4 01       		.uleb128 0x1
 15639 26f5 9C       		.byte	0x9c
 15640 26f6 19270000 		.4byte	0x2719
 15641 26fa 2C       		.uleb128 0x2c
 15642 26fb 2E0B0000 		.4byte	.LASF544
 15643 26ff 01       		.byte	0x1
 15644 2700 C409     		.2byte	0x9c4
ARM GAS  C:\Users\Lenovo\AppData\Local\Temp\cccA9qMw.s 			page 325


 15645 2702 3B010000 		.4byte	0x13b
 15646 2706 02       		.uleb128 0x2
 15647 2707 91       		.byte	0x91
 15648 2708 6C       		.sleb128 -20
 15649 2709 28       		.uleb128 0x28
 15650 270a 6C726300 		.ascii	"lrc\000"
 15651 270e 01       		.byte	0x1
 15652 270f C609     		.2byte	0x9c6
 15653 2711 81000000 		.4byte	0x81
 15654 2715 02       		.uleb128 0x2
 15655 2716 91       		.byte	0x91
 15656 2717 77       		.sleb128 -9
 15657 2718 00       		.byte	0
 15658 2719 2D       		.uleb128 0x2d
 15659 271a C3130000 		.4byte	.LASF546
 15660 271e 01       		.byte	0x1
 15661 271f D009     		.2byte	0x9d0
 15662 2721 00000000 		.4byte	.LFB103
 15663 2725 2C000000 		.4byte	.LFE103-.LFB103
 15664 2729 01       		.uleb128 0x1
 15665 272a 9C       		.byte	0x9c
 15666 272b 4E270000 		.4byte	0x274e
 15667 272f 2C       		.uleb128 0x2c
 15668 2730 14230000 		.4byte	.LASF476
 15669 2734 01       		.byte	0x1
 15670 2735 D009     		.2byte	0x9d0
 15671 2737 11010000 		.4byte	0x111
 15672 273b 02       		.uleb128 0x2
 15673 273c 91       		.byte	0x91
 15674 273d 6C       		.sleb128 -20
 15675 273e 2A       		.uleb128 0x2a
 15676 273f EA1E0000 		.4byte	.LASF472
 15677 2743 01       		.byte	0x1
 15678 2744 D209     		.2byte	0x9d2
 15679 2746 30100000 		.4byte	0x1030
 15680 274a 02       		.uleb128 0x2
 15681 274b 91       		.byte	0x91
 15682 274c 74       		.sleb128 -12
 15683 274d 00       		.byte	0
 15684 274e 2D       		.uleb128 0x2d
 15685 274f 2F150000 		.4byte	.LASF547
 15686 2753 01       		.byte	0x1
 15687 2754 DC09     		.2byte	0x9dc
 15688 2756 00000000 		.4byte	.LFB104
 15689 275a 2C000000 		.4byte	.LFE104-.LFB104
 15690 275e 01       		.uleb128 0x1
 15691 275f 9C       		.byte	0x9c
 15692 2760 83270000 		.4byte	0x2783
 15693 2764 2C       		.uleb128 0x2c
 15694 2765 14230000 		.4byte	.LASF476
 15695 2769 01       		.byte	0x1
 15696 276a DC09     		.2byte	0x9dc
 15697 276c 11010000 		.4byte	0x111
 15698 2770 02       		.uleb128 0x2
 15699 2771 91       		.byte	0x91
 15700 2772 6C       		.sleb128 -20
 15701 2773 2A       		.uleb128 0x2a
ARM GAS  C:\Users\Lenovo\AppData\Local\Temp\cccA9qMw.s 			page 326


 15702 2774 EA1E0000 		.4byte	.LASF472
 15703 2778 01       		.byte	0x1
 15704 2779 DE09     		.2byte	0x9de
 15705 277b 730F0000 		.4byte	0xf73
 15706 277f 02       		.uleb128 0x2
 15707 2780 91       		.byte	0x91
 15708 2781 74       		.sleb128 -12
 15709 2782 00       		.byte	0
 15710 2783 2B       		.uleb128 0x2b
 15711 2784 23190000 		.4byte	.LASF548
 15712 2788 01       		.byte	0x1
 15713 2789 E709     		.2byte	0x9e7
 15714 278b 00000000 		.4byte	.LFB105
 15715 278f 48020000 		.4byte	.LFE105-.LFB105
 15716 2793 01       		.uleb128 0x1
 15717 2794 9C       		.byte	0x9c
 15718 2795 D1270000 		.4byte	0x27d1
 15719 2799 2C       		.uleb128 0x2c
 15720 279a 14230000 		.4byte	.LASF476
 15721 279e 01       		.byte	0x1
 15722 279f E709     		.2byte	0x9e7
 15723 27a1 11010000 		.4byte	0x111
 15724 27a5 02       		.uleb128 0x2
 15725 27a6 91       		.byte	0x91
 15726 27a7 64       		.sleb128 -28
 15727 27a8 2A       		.uleb128 0x2a
 15728 27a9 EA1E0000 		.4byte	.LASF472
 15729 27ad 01       		.byte	0x1
 15730 27ae E909     		.2byte	0x9e9
 15731 27b0 730F0000 		.4byte	0xf73
 15732 27b4 02       		.uleb128 0x2
 15733 27b5 91       		.byte	0x91
 15734 27b6 6C       		.sleb128 -20
 15735 27b7 26       		.uleb128 0x26
 15736 27b8 3C000000 		.4byte	.LBB65
 15737 27bc FA010000 		.4byte	.LBE65-.LBB65
 15738 27c0 2A       		.uleb128 0x2a
 15739 27c1 52120000 		.4byte	.LASF524
 15740 27c5 01       		.byte	0x1
 15741 27c6 F209     		.2byte	0x9f2
 15742 27c8 72020000 		.4byte	0x272
 15743 27cc 02       		.uleb128 0x2
 15744 27cd 91       		.byte	0x91
 15745 27ce 68       		.sleb128 -24
 15746 27cf 00       		.byte	0
 15747 27d0 00       		.byte	0
 15748 27d1 2D       		.uleb128 0x2d
 15749 27d2 5E0D0000 		.4byte	.LASF549
 15750 27d6 01       		.byte	0x1
 15751 27d7 430A     		.2byte	0xa43
 15752 27d9 00000000 		.4byte	.LFB106
 15753 27dd 74010000 		.4byte	.LFE106-.LFB106
 15754 27e1 01       		.uleb128 0x1
 15755 27e2 9C       		.byte	0x9c
 15756 27e3 42280000 		.4byte	0x2842
 15757 27e7 2C       		.uleb128 0x2c
 15758 27e8 260F0000 		.4byte	.LASF527
ARM GAS  C:\Users\Lenovo\AppData\Local\Temp\cccA9qMw.s 			page 327


 15759 27ec 01       		.byte	0x1
 15760 27ed 430A     		.2byte	0xa43
 15761 27ef 3B010000 		.4byte	0x13b
 15762 27f3 02       		.uleb128 0x2
 15763 27f4 91       		.byte	0x91
 15764 27f5 6C       		.sleb128 -20
 15765 27f6 2C       		.uleb128 0x2c
 15766 27f7 021A0000 		.4byte	.LASF528
 15767 27fb 01       		.byte	0x1
 15768 27fc 430A     		.2byte	0xa43
 15769 27fe 97000000 		.4byte	0x97
 15770 2802 02       		.uleb128 0x2
 15771 2803 91       		.byte	0x91
 15772 2804 6B       		.sleb128 -21
 15773 2805 2A       		.uleb128 0x2a
 15774 2806 0D1A0000 		.4byte	.LASF550
 15775 280a 01       		.byte	0x1
 15776 280b 450A     		.2byte	0xa45
 15777 280d 97000000 		.4byte	0x97
 15778 2811 02       		.uleb128 0x2
 15779 2812 91       		.byte	0x91
 15780 2813 77       		.sleb128 -9
 15781 2814 2A       		.uleb128 0x2a
 15782 2815 AC100000 		.4byte	.LASF551
 15783 2819 01       		.byte	0x1
 15784 281a 460A     		.2byte	0xa46
 15785 281c 49020000 		.4byte	0x249
 15786 2820 02       		.uleb128 0x2
 15787 2821 91       		.byte	0x91
 15788 2822 76       		.sleb128 -10
 15789 2823 2A       		.uleb128 0x2a
 15790 2824 2D250000 		.4byte	.LASF492
 15791 2828 01       		.byte	0x1
 15792 2829 480A     		.2byte	0xa48
 15793 282b BB000000 		.4byte	0xbb
 15794 282f 02       		.uleb128 0x2
 15795 2830 91       		.byte	0x91
 15796 2831 75       		.sleb128 -11
 15797 2832 2A       		.uleb128 0x2a
 15798 2833 5A130000 		.4byte	.LASF552
 15799 2837 01       		.byte	0x1
 15800 2838 580A     		.2byte	0xa58
 15801 283a BB000000 		.4byte	0xbb
 15802 283e 02       		.uleb128 0x2
 15803 283f 91       		.byte	0x91
 15804 2840 74       		.sleb128 -12
 15805 2841 00       		.byte	0
 15806 2842 2D       		.uleb128 0x2d
 15807 2843 37260000 		.4byte	.LASF553
 15808 2847 01       		.byte	0x1
 15809 2848 7B0A     		.2byte	0xa7b
 15810 284a 00000000 		.4byte	.LFB107
 15811 284e 64010000 		.4byte	.LFE107-.LFB107
 15812 2852 01       		.uleb128 0x1
 15813 2853 9C       		.byte	0x9c
 15814 2854 B3280000 		.4byte	0x28b3
 15815 2858 2C       		.uleb128 0x2c
ARM GAS  C:\Users\Lenovo\AppData\Local\Temp\cccA9qMw.s 			page 328


 15816 2859 260F0000 		.4byte	.LASF527
 15817 285d 01       		.byte	0x1
 15818 285e 7B0A     		.2byte	0xa7b
 15819 2860 3B010000 		.4byte	0x13b
 15820 2864 02       		.uleb128 0x2
 15821 2865 91       		.byte	0x91
 15822 2866 6C       		.sleb128 -20
 15823 2867 2C       		.uleb128 0x2c
 15824 2868 021A0000 		.4byte	.LASF528
 15825 286c 01       		.byte	0x1
 15826 286d 7B0A     		.2byte	0xa7b
 15827 286f 97000000 		.4byte	0x97
 15828 2873 02       		.uleb128 0x2
 15829 2874 91       		.byte	0x91
 15830 2875 6B       		.sleb128 -21
 15831 2876 2A       		.uleb128 0x2a
 15832 2877 0D1A0000 		.4byte	.LASF550
 15833 287b 01       		.byte	0x1
 15834 287c 7D0A     		.2byte	0xa7d
 15835 287e 97000000 		.4byte	0x97
 15836 2882 02       		.uleb128 0x2
 15837 2883 91       		.byte	0x91
 15838 2884 77       		.sleb128 -9
 15839 2885 2A       		.uleb128 0x2a
 15840 2886 AC100000 		.4byte	.LASF551
 15841 288a 01       		.byte	0x1
 15842 288b 7E0A     		.2byte	0xa7e
 15843 288d 49020000 		.4byte	0x249
 15844 2891 02       		.uleb128 0x2
 15845 2892 91       		.byte	0x91
 15846 2893 76       		.sleb128 -10
 15847 2894 2A       		.uleb128 0x2a
 15848 2895 2D250000 		.4byte	.LASF492
 15849 2899 01       		.byte	0x1
 15850 289a 800A     		.2byte	0xa80
 15851 289c BB000000 		.4byte	0xbb
 15852 28a0 02       		.uleb128 0x2
 15853 28a1 91       		.byte	0x91
 15854 28a2 75       		.sleb128 -11
 15855 28a3 2A       		.uleb128 0x2a
 15856 28a4 5A130000 		.4byte	.LASF552
 15857 28a8 01       		.byte	0x1
 15858 28a9 900A     		.2byte	0xa90
 15859 28ab BB000000 		.4byte	0xbb
 15860 28af 02       		.uleb128 0x2
 15861 28b0 91       		.byte	0x91
 15862 28b1 74       		.sleb128 -12
 15863 28b2 00       		.byte	0
 15864 28b3 2F       		.uleb128 0x2f
 15865 28b4 40240000 		.4byte	.LASF554
 15866 28b8 01       		.byte	0x1
 15867 28b9 B90A     		.2byte	0xab9
 15868 28bb E1000000 		.4byte	0xe1
 15869 28bf 00000000 		.4byte	.LFB108
 15870 28c3 48000000 		.4byte	.LFE108-.LFB108
 15871 28c7 01       		.uleb128 0x1
 15872 28c8 9C       		.byte	0x9c
ARM GAS  C:\Users\Lenovo\AppData\Local\Temp\cccA9qMw.s 			page 329


 15873 28c9 FB280000 		.4byte	0x28fb
 15874 28cd 2C       		.uleb128 0x2c
 15875 28ce B6260000 		.4byte	.LASF555
 15876 28d2 01       		.byte	0x1
 15877 28d3 B90A     		.2byte	0xab9
 15878 28d5 E1000000 		.4byte	0xe1
 15879 28d9 02       		.uleb128 0x2
 15880 28da 91       		.byte	0x91
 15881 28db 6F       		.sleb128 -17
 15882 28dc 2A       		.uleb128 0x2a
 15883 28dd 24160000 		.4byte	.LASF529
 15884 28e1 01       		.byte	0x1
 15885 28e2 BB0A     		.2byte	0xabb
 15886 28e4 E1000000 		.4byte	0xe1
 15887 28e8 02       		.uleb128 0x2
 15888 28e9 91       		.byte	0x91
 15889 28ea 77       		.sleb128 -9
 15890 28eb 2A       		.uleb128 0x2a
 15891 28ec 341B0000 		.4byte	.LASF556
 15892 28f0 01       		.byte	0x1
 15893 28f1 BC0A     		.2byte	0xabc
 15894 28f3 71070000 		.4byte	0x771
 15895 28f7 02       		.uleb128 0x2
 15896 28f8 91       		.byte	0x91
 15897 28f9 70       		.sleb128 -16
 15898 28fa 00       		.byte	0
 15899 28fb 30       		.uleb128 0x30
 15900 28fc A0180000 		.4byte	.LASF557
 15901 2900 0F       		.byte	0xf
 15902 2901 5506     		.2byte	0x655
 15903 2903 07290000 		.4byte	0x2907
 15904 2907 06       		.uleb128 0x6
 15905 2908 8C000000 		.4byte	0x8c
 15906 290c 30       		.uleb128 0x30
 15907 290d 8D050000 		.4byte	.LASF558
 15908 2911 0A       		.byte	0xa
 15909 2912 5002     		.2byte	0x250
 15910 2914 61100000 		.4byte	0x1061
 15911 2918 0A       		.uleb128 0xa
 15912 2919 1F0D0000 		.4byte	0xd1f
 15913 291d 28290000 		.4byte	0x2928
 15914 2921 0B       		.uleb128 0xb
 15915 2922 0A010000 		.4byte	0x10a
 15916 2926 03       		.byte	0x3
 15917 2927 00       		.byte	0
 15918 2928 30       		.uleb128 0x30
 15919 2929 41120000 		.4byte	.LASF559
 15920 292d 0A       		.byte	0xa
 15921 292e 5102     		.2byte	0x251
 15922 2930 18290000 		.4byte	0x2918
 15923 2934 30       		.uleb128 0x30
 15924 2935 C2020000 		.4byte	.LASF560
 15925 2939 0A       		.byte	0xa
 15926 293a 5302     		.2byte	0x253
 15927 293c 57110000 		.4byte	0x1157
 15928 2940 31       		.uleb128 0x31
 15929 2941 7F200000 		.4byte	.LASF561
ARM GAS  C:\Users\Lenovo\AppData\Local\Temp\cccA9qMw.s 			page 330


 15930 2945 0D       		.byte	0xd
 15931 2946 C2       		.byte	0xc2
 15932 2947 47140000 		.4byte	0x1447
 15933 294b 31       		.uleb128 0x31
 15934 294c 5E200000 		.4byte	.LASF562
 15935 2950 0E       		.byte	0xe
 15936 2951 79       		.byte	0x79
 15937 2952 73140000 		.4byte	0x1473
 15938 2956 31       		.uleb128 0x31
 15939 2957 40190000 		.4byte	.LASF563
 15940 295b 01       		.byte	0x1
 15941 295c 25       		.byte	0x25
 15942 295d 63110000 		.4byte	0x1163
 15943 2961 0A       		.uleb128 0xa
 15944 2962 E1000000 		.4byte	0xe1
 15945 2966 77290000 		.4byte	0x2977
 15946 296a 0B       		.uleb128 0xb
 15947 296b 0A010000 		.4byte	0x10a
 15948 296f 0F       		.byte	0xf
 15949 2970 0B       		.uleb128 0xb
 15950 2971 0A010000 		.4byte	0x10a
 15951 2975 01       		.byte	0x1
 15952 2976 00       		.byte	0
 15953 2977 32       		.uleb128 0x32
 15954 2978 78190000 		.4byte	.LASF564
 15955 297c 01       		.byte	0x1
 15956 297d B10A     		.2byte	0xab1
 15957 297f 61290000 		.4byte	0x2961
 15958 2983 05       		.uleb128 0x5
 15959 2984 03       		.byte	0x3
 15960 2985 00000000 		.4byte	_g_sfcharmap
 15961 2989 00       		.byte	0
 15962              		.section	.debug_abbrev,"",%progbits
 15963              	.Ldebug_abbrev0:
 15964 0000 01       		.uleb128 0x1
 15965 0001 11       		.uleb128 0x11
 15966 0002 01       		.byte	0x1
 15967 0003 25       		.uleb128 0x25
 15968 0004 0E       		.uleb128 0xe
 15969 0005 13       		.uleb128 0x13
 15970 0006 0B       		.uleb128 0xb
 15971 0007 03       		.uleb128 0x3
 15972 0008 0E       		.uleb128 0xe
 15973 0009 1B       		.uleb128 0x1b
 15974 000a 0E       		.uleb128 0xe
 15975 000b 55       		.uleb128 0x55
 15976 000c 17       		.uleb128 0x17
 15977 000d 11       		.uleb128 0x11
 15978 000e 01       		.uleb128 0x1
 15979 000f 10       		.uleb128 0x10
 15980 0010 17       		.uleb128 0x17
 15981 0011 00       		.byte	0
 15982 0012 00       		.byte	0
 15983 0013 02       		.uleb128 0x2
 15984 0014 24       		.uleb128 0x24
 15985 0015 00       		.byte	0
 15986 0016 0B       		.uleb128 0xb
ARM GAS  C:\Users\Lenovo\AppData\Local\Temp\cccA9qMw.s 			page 331


 15987 0017 0B       		.uleb128 0xb
 15988 0018 3E       		.uleb128 0x3e
 15989 0019 0B       		.uleb128 0xb
 15990 001a 03       		.uleb128 0x3
 15991 001b 0E       		.uleb128 0xe
 15992 001c 00       		.byte	0
 15993 001d 00       		.byte	0
 15994 001e 03       		.uleb128 0x3
 15995 001f 16       		.uleb128 0x16
 15996 0020 00       		.byte	0
 15997 0021 03       		.uleb128 0x3
 15998 0022 0E       		.uleb128 0xe
 15999 0023 3A       		.uleb128 0x3a
 16000 0024 0B       		.uleb128 0xb
 16001 0025 3B       		.uleb128 0x3b
 16002 0026 0B       		.uleb128 0xb
 16003 0027 49       		.uleb128 0x49
 16004 0028 13       		.uleb128 0x13
 16005 0029 00       		.byte	0
 16006 002a 00       		.byte	0
 16007 002b 04       		.uleb128 0x4
 16008 002c 24       		.uleb128 0x24
 16009 002d 00       		.byte	0
 16010 002e 0B       		.uleb128 0xb
 16011 002f 0B       		.uleb128 0xb
 16012 0030 3E       		.uleb128 0x3e
 16013 0031 0B       		.uleb128 0xb
 16014 0032 03       		.uleb128 0x3
 16015 0033 08       		.uleb128 0x8
 16016 0034 00       		.byte	0
 16017 0035 00       		.byte	0
 16018 0036 05       		.uleb128 0x5
 16019 0037 16       		.uleb128 0x16
 16020 0038 00       		.byte	0
 16021 0039 03       		.uleb128 0x3
 16022 003a 0E       		.uleb128 0xe
 16023 003b 3A       		.uleb128 0x3a
 16024 003c 0B       		.uleb128 0xb
 16025 003d 3B       		.uleb128 0x3b
 16026 003e 05       		.uleb128 0x5
 16027 003f 49       		.uleb128 0x49
 16028 0040 13       		.uleb128 0x13
 16029 0041 00       		.byte	0
 16030 0042 00       		.byte	0
 16031 0043 06       		.uleb128 0x6
 16032 0044 35       		.uleb128 0x35
 16033 0045 00       		.byte	0
 16034 0046 49       		.uleb128 0x49
 16035 0047 13       		.uleb128 0x13
 16036 0048 00       		.byte	0
 16037 0049 00       		.byte	0
 16038 004a 07       		.uleb128 0x7
 16039 004b 0F       		.uleb128 0xf
 16040 004c 00       		.byte	0
 16041 004d 0B       		.uleb128 0xb
 16042 004e 0B       		.uleb128 0xb
 16043 004f 49       		.uleb128 0x49
ARM GAS  C:\Users\Lenovo\AppData\Local\Temp\cccA9qMw.s 			page 332


 16044 0050 13       		.uleb128 0x13
 16045 0051 00       		.byte	0
 16046 0052 00       		.byte	0
 16047 0053 08       		.uleb128 0x8
 16048 0054 15       		.uleb128 0x15
 16049 0055 00       		.byte	0
 16050 0056 27       		.uleb128 0x27
 16051 0057 19       		.uleb128 0x19
 16052 0058 00       		.byte	0
 16053 0059 00       		.byte	0
 16054 005a 09       		.uleb128 0x9
 16055 005b 0F       		.uleb128 0xf
 16056 005c 00       		.byte	0
 16057 005d 0B       		.uleb128 0xb
 16058 005e 0B       		.uleb128 0xb
 16059 005f 00       		.byte	0
 16060 0060 00       		.byte	0
 16061 0061 0A       		.uleb128 0xa
 16062 0062 01       		.uleb128 0x1
 16063 0063 01       		.byte	0x1
 16064 0064 49       		.uleb128 0x49
 16065 0065 13       		.uleb128 0x13
 16066 0066 01       		.uleb128 0x1
 16067 0067 13       		.uleb128 0x13
 16068 0068 00       		.byte	0
 16069 0069 00       		.byte	0
 16070 006a 0B       		.uleb128 0xb
 16071 006b 21       		.uleb128 0x21
 16072 006c 00       		.byte	0
 16073 006d 49       		.uleb128 0x49
 16074 006e 13       		.uleb128 0x13
 16075 006f 2F       		.uleb128 0x2f
 16076 0070 0B       		.uleb128 0xb
 16077 0071 00       		.byte	0
 16078 0072 00       		.byte	0
 16079 0073 0C       		.uleb128 0xc
 16080 0074 04       		.uleb128 0x4
 16081 0075 01       		.byte	0x1
 16082 0076 03       		.uleb128 0x3
 16083 0077 0E       		.uleb128 0xe
 16084 0078 0B       		.uleb128 0xb
 16085 0079 0B       		.uleb128 0xb
 16086 007a 3A       		.uleb128 0x3a
 16087 007b 0B       		.uleb128 0xb
 16088 007c 3B       		.uleb128 0x3b
 16089 007d 0B       		.uleb128 0xb
 16090 007e 01       		.uleb128 0x1
 16091 007f 13       		.uleb128 0x13
 16092 0080 00       		.byte	0
 16093 0081 00       		.byte	0
 16094 0082 0D       		.uleb128 0xd
 16095 0083 28       		.uleb128 0x28
 16096 0084 00       		.byte	0
 16097 0085 03       		.uleb128 0x3
 16098 0086 0E       		.uleb128 0xe
 16099 0087 1C       		.uleb128 0x1c
 16100 0088 0D       		.uleb128 0xd
ARM GAS  C:\Users\Lenovo\AppData\Local\Temp\cccA9qMw.s 			page 333


 16101 0089 00       		.byte	0
 16102 008a 00       		.byte	0
 16103 008b 0E       		.uleb128 0xe
 16104 008c 13       		.uleb128 0x13
 16105 008d 01       		.byte	0x1
 16106 008e 03       		.uleb128 0x3
 16107 008f 0E       		.uleb128 0xe
 16108 0090 0B       		.uleb128 0xb
 16109 0091 05       		.uleb128 0x5
 16110 0092 3A       		.uleb128 0x3a
 16111 0093 0B       		.uleb128 0xb
 16112 0094 3B       		.uleb128 0x3b
 16113 0095 0B       		.uleb128 0xb
 16114 0096 01       		.uleb128 0x1
 16115 0097 13       		.uleb128 0x13
 16116 0098 00       		.byte	0
 16117 0099 00       		.byte	0
 16118 009a 0F       		.uleb128 0xf
 16119 009b 0D       		.uleb128 0xd
 16120 009c 00       		.byte	0
 16121 009d 03       		.uleb128 0x3
 16122 009e 0E       		.uleb128 0xe
 16123 009f 3A       		.uleb128 0x3a
 16124 00a0 0B       		.uleb128 0xb
 16125 00a1 3B       		.uleb128 0x3b
 16126 00a2 0B       		.uleb128 0xb
 16127 00a3 49       		.uleb128 0x49
 16128 00a4 13       		.uleb128 0x13
 16129 00a5 38       		.uleb128 0x38
 16130 00a6 0B       		.uleb128 0xb
 16131 00a7 00       		.byte	0
 16132 00a8 00       		.byte	0
 16133 00a9 10       		.uleb128 0x10
 16134 00aa 0D       		.uleb128 0xd
 16135 00ab 00       		.byte	0
 16136 00ac 03       		.uleb128 0x3
 16137 00ad 0E       		.uleb128 0xe
 16138 00ae 3A       		.uleb128 0x3a
 16139 00af 0B       		.uleb128 0xb
 16140 00b0 3B       		.uleb128 0x3b
 16141 00b1 0B       		.uleb128 0xb
 16142 00b2 49       		.uleb128 0x49
 16143 00b3 13       		.uleb128 0x13
 16144 00b4 38       		.uleb128 0x38
 16145 00b5 05       		.uleb128 0x5
 16146 00b6 00       		.byte	0
 16147 00b7 00       		.byte	0
 16148 00b8 11       		.uleb128 0x11
 16149 00b9 21       		.uleb128 0x21
 16150 00ba 00       		.byte	0
 16151 00bb 49       		.uleb128 0x49
 16152 00bc 13       		.uleb128 0x13
 16153 00bd 2F       		.uleb128 0x2f
 16154 00be 05       		.uleb128 0x5
 16155 00bf 00       		.byte	0
 16156 00c0 00       		.byte	0
 16157 00c1 12       		.uleb128 0x12
ARM GAS  C:\Users\Lenovo\AppData\Local\Temp\cccA9qMw.s 			page 334


 16158 00c2 15       		.uleb128 0x15
 16159 00c3 01       		.byte	0x1
 16160 00c4 27       		.uleb128 0x27
 16161 00c5 19       		.uleb128 0x19
 16162 00c6 01       		.uleb128 0x1
 16163 00c7 13       		.uleb128 0x13
 16164 00c8 00       		.byte	0
 16165 00c9 00       		.byte	0
 16166 00ca 13       		.uleb128 0x13
 16167 00cb 05       		.uleb128 0x5
 16168 00cc 00       		.byte	0
 16169 00cd 49       		.uleb128 0x49
 16170 00ce 13       		.uleb128 0x13
 16171 00cf 00       		.byte	0
 16172 00d0 00       		.byte	0
 16173 00d1 14       		.uleb128 0x14
 16174 00d2 13       		.uleb128 0x13
 16175 00d3 01       		.byte	0x1
 16176 00d4 03       		.uleb128 0x3
 16177 00d5 0E       		.uleb128 0xe
 16178 00d6 0B       		.uleb128 0xb
 16179 00d7 0B       		.uleb128 0xb
 16180 00d8 3A       		.uleb128 0x3a
 16181 00d9 0B       		.uleb128 0xb
 16182 00da 3B       		.uleb128 0x3b
 16183 00db 0B       		.uleb128 0xb
 16184 00dc 01       		.uleb128 0x1
 16185 00dd 13       		.uleb128 0x13
 16186 00de 00       		.byte	0
 16187 00df 00       		.byte	0
 16188 00e0 15       		.uleb128 0x15
 16189 00e1 15       		.uleb128 0x15
 16190 00e2 00       		.byte	0
 16191 00e3 27       		.uleb128 0x27
 16192 00e4 19       		.uleb128 0x19
 16193 00e5 49       		.uleb128 0x49
 16194 00e6 13       		.uleb128 0x13
 16195 00e7 00       		.byte	0
 16196 00e8 00       		.byte	0
 16197 00e9 16       		.uleb128 0x16
 16198 00ea 26       		.uleb128 0x26
 16199 00eb 00       		.byte	0
 16200 00ec 49       		.uleb128 0x49
 16201 00ed 13       		.uleb128 0x13
 16202 00ee 00       		.byte	0
 16203 00ef 00       		.byte	0
 16204 00f0 17       		.uleb128 0x17
 16205 00f1 04       		.uleb128 0x4
 16206 00f2 01       		.byte	0x1
 16207 00f3 0B       		.uleb128 0xb
 16208 00f4 0B       		.uleb128 0xb
 16209 00f5 3A       		.uleb128 0x3a
 16210 00f6 0B       		.uleb128 0xb
 16211 00f7 3B       		.uleb128 0x3b
 16212 00f8 0B       		.uleb128 0xb
 16213 00f9 01       		.uleb128 0x1
 16214 00fa 13       		.uleb128 0x13
ARM GAS  C:\Users\Lenovo\AppData\Local\Temp\cccA9qMw.s 			page 335


 16215 00fb 00       		.byte	0
 16216 00fc 00       		.byte	0
 16217 00fd 18       		.uleb128 0x18
 16218 00fe 15       		.uleb128 0x15
 16219 00ff 01       		.byte	0x1
 16220 0100 27       		.uleb128 0x27
 16221 0101 19       		.uleb128 0x19
 16222 0102 49       		.uleb128 0x49
 16223 0103 13       		.uleb128 0x13
 16224 0104 01       		.uleb128 0x1
 16225 0105 13       		.uleb128 0x13
 16226 0106 00       		.byte	0
 16227 0107 00       		.byte	0
 16228 0108 19       		.uleb128 0x19
 16229 0109 28       		.uleb128 0x28
 16230 010a 00       		.byte	0
 16231 010b 03       		.uleb128 0x3
 16232 010c 08       		.uleb128 0x8
 16233 010d 1C       		.uleb128 0x1c
 16234 010e 0D       		.uleb128 0xd
 16235 010f 00       		.byte	0
 16236 0110 00       		.byte	0
 16237 0111 1A       		.uleb128 0x1a
 16238 0112 04       		.uleb128 0x4
 16239 0113 01       		.byte	0x1
 16240 0114 03       		.uleb128 0x3
 16241 0115 0E       		.uleb128 0xe
 16242 0116 0B       		.uleb128 0xb
 16243 0117 0B       		.uleb128 0xb
 16244 0118 3A       		.uleb128 0x3a
 16245 0119 0B       		.uleb128 0xb
 16246 011a 3B       		.uleb128 0x3b
 16247 011b 05       		.uleb128 0x5
 16248 011c 01       		.uleb128 0x1
 16249 011d 13       		.uleb128 0x13
 16250 011e 00       		.byte	0
 16251 011f 00       		.byte	0
 16252 0120 1B       		.uleb128 0x1b
 16253 0121 13       		.uleb128 0x13
 16254 0122 01       		.byte	0x1
 16255 0123 0B       		.uleb128 0xb
 16256 0124 05       		.uleb128 0x5
 16257 0125 3A       		.uleb128 0x3a
 16258 0126 0B       		.uleb128 0xb
 16259 0127 3B       		.uleb128 0x3b
 16260 0128 05       		.uleb128 0x5
 16261 0129 01       		.uleb128 0x1
 16262 012a 13       		.uleb128 0x13
 16263 012b 00       		.byte	0
 16264 012c 00       		.byte	0
 16265 012d 1C       		.uleb128 0x1c
 16266 012e 0D       		.uleb128 0xd
 16267 012f 00       		.byte	0
 16268 0130 03       		.uleb128 0x3
 16269 0131 0E       		.uleb128 0xe
 16270 0132 3A       		.uleb128 0x3a
 16271 0133 0B       		.uleb128 0xb
ARM GAS  C:\Users\Lenovo\AppData\Local\Temp\cccA9qMw.s 			page 336


 16272 0134 3B       		.uleb128 0x3b
 16273 0135 05       		.uleb128 0x5
 16274 0136 49       		.uleb128 0x49
 16275 0137 13       		.uleb128 0x13
 16276 0138 38       		.uleb128 0x38
 16277 0139 0B       		.uleb128 0xb
 16278 013a 00       		.byte	0
 16279 013b 00       		.byte	0
 16280 013c 1D       		.uleb128 0x1d
 16281 013d 0D       		.uleb128 0xd
 16282 013e 00       		.byte	0
 16283 013f 03       		.uleb128 0x3
 16284 0140 0E       		.uleb128 0xe
 16285 0141 3A       		.uleb128 0x3a
 16286 0142 0B       		.uleb128 0xb
 16287 0143 3B       		.uleb128 0x3b
 16288 0144 05       		.uleb128 0x5
 16289 0145 49       		.uleb128 0x49
 16290 0146 13       		.uleb128 0x13
 16291 0147 38       		.uleb128 0x38
 16292 0148 05       		.uleb128 0x5
 16293 0149 00       		.byte	0
 16294 014a 00       		.byte	0
 16295 014b 1E       		.uleb128 0x1e
 16296 014c 13       		.uleb128 0x13
 16297 014d 01       		.byte	0x1
 16298 014e 0B       		.uleb128 0xb
 16299 014f 0B       		.uleb128 0xb
 16300 0150 3A       		.uleb128 0x3a
 16301 0151 0B       		.uleb128 0xb
 16302 0152 3B       		.uleb128 0x3b
 16303 0153 05       		.uleb128 0x5
 16304 0154 01       		.uleb128 0x1
 16305 0155 13       		.uleb128 0x13
 16306 0156 00       		.byte	0
 16307 0157 00       		.byte	0
 16308 0158 1F       		.uleb128 0x1f
 16309 0159 13       		.uleb128 0x13
 16310 015a 01       		.byte	0x1
 16311 015b 03       		.uleb128 0x3
 16312 015c 0E       		.uleb128 0xe
 16313 015d 0B       		.uleb128 0xb
 16314 015e 05       		.uleb128 0x5
 16315 015f 3A       		.uleb128 0x3a
 16316 0160 0B       		.uleb128 0xb
 16317 0161 3B       		.uleb128 0x3b
 16318 0162 05       		.uleb128 0x5
 16319 0163 01       		.uleb128 0x1
 16320 0164 13       		.uleb128 0x13
 16321 0165 00       		.byte	0
 16322 0166 00       		.byte	0
 16323 0167 20       		.uleb128 0x20
 16324 0168 13       		.uleb128 0x13
 16325 0169 01       		.byte	0x1
 16326 016a 03       		.uleb128 0x3
 16327 016b 0E       		.uleb128 0xe
 16328 016c 0B       		.uleb128 0xb
ARM GAS  C:\Users\Lenovo\AppData\Local\Temp\cccA9qMw.s 			page 337


 16329 016d 0B       		.uleb128 0xb
 16330 016e 3A       		.uleb128 0x3a
 16331 016f 0B       		.uleb128 0xb
 16332 0170 3B       		.uleb128 0x3b
 16333 0171 05       		.uleb128 0x5
 16334 0172 01       		.uleb128 0x1
 16335 0173 13       		.uleb128 0x13
 16336 0174 00       		.byte	0
 16337 0175 00       		.byte	0
 16338 0176 21       		.uleb128 0x21
 16339 0177 0D       		.uleb128 0xd
 16340 0178 00       		.byte	0
 16341 0179 03       		.uleb128 0x3
 16342 017a 0E       		.uleb128 0xe
 16343 017b 3A       		.uleb128 0x3a
 16344 017c 0B       		.uleb128 0xb
 16345 017d 3B       		.uleb128 0x3b
 16346 017e 05       		.uleb128 0x5
 16347 017f 49       		.uleb128 0x49
 16348 0180 13       		.uleb128 0x13
 16349 0181 0B       		.uleb128 0xb
 16350 0182 0B       		.uleb128 0xb
 16351 0183 0D       		.uleb128 0xd
 16352 0184 0B       		.uleb128 0xb
 16353 0185 0C       		.uleb128 0xc
 16354 0186 0B       		.uleb128 0xb
 16355 0187 38       		.uleb128 0x38
 16356 0188 0B       		.uleb128 0xb
 16357 0189 00       		.byte	0
 16358 018a 00       		.byte	0
 16359 018b 22       		.uleb128 0x22
 16360 018c 13       		.uleb128 0x13
 16361 018d 01       		.byte	0x1
 16362 018e 0B       		.uleb128 0xb
 16363 018f 0B       		.uleb128 0xb
 16364 0190 3A       		.uleb128 0x3a
 16365 0191 0B       		.uleb128 0xb
 16366 0192 3B       		.uleb128 0x3b
 16367 0193 0B       		.uleb128 0xb
 16368 0194 01       		.uleb128 0x1
 16369 0195 13       		.uleb128 0x13
 16370 0196 00       		.byte	0
 16371 0197 00       		.byte	0
 16372 0198 23       		.uleb128 0x23
 16373 0199 2E       		.uleb128 0x2e
 16374 019a 01       		.byte	0x1
 16375 019b 3F       		.uleb128 0x3f
 16376 019c 19       		.uleb128 0x19
 16377 019d 03       		.uleb128 0x3
 16378 019e 0E       		.uleb128 0xe
 16379 019f 3A       		.uleb128 0x3a
 16380 01a0 0B       		.uleb128 0xb
 16381 01a1 3B       		.uleb128 0x3b
 16382 01a2 0B       		.uleb128 0xb
 16383 01a3 27       		.uleb128 0x27
 16384 01a4 19       		.uleb128 0x19
 16385 01a5 11       		.uleb128 0x11
ARM GAS  C:\Users\Lenovo\AppData\Local\Temp\cccA9qMw.s 			page 338


 16386 01a6 01       		.uleb128 0x1
 16387 01a7 12       		.uleb128 0x12
 16388 01a8 06       		.uleb128 0x6
 16389 01a9 40       		.uleb128 0x40
 16390 01aa 18       		.uleb128 0x18
 16391 01ab 9642     		.uleb128 0x2116
 16392 01ad 19       		.uleb128 0x19
 16393 01ae 01       		.uleb128 0x1
 16394 01af 13       		.uleb128 0x13
 16395 01b0 00       		.byte	0
 16396 01b1 00       		.byte	0
 16397 01b2 24       		.uleb128 0x24
 16398 01b3 05       		.uleb128 0x5
 16399 01b4 00       		.byte	0
 16400 01b5 03       		.uleb128 0x3
 16401 01b6 0E       		.uleb128 0xe
 16402 01b7 3A       		.uleb128 0x3a
 16403 01b8 0B       		.uleb128 0xb
 16404 01b9 3B       		.uleb128 0x3b
 16405 01ba 0B       		.uleb128 0xb
 16406 01bb 49       		.uleb128 0x49
 16407 01bc 13       		.uleb128 0x13
 16408 01bd 02       		.uleb128 0x2
 16409 01be 18       		.uleb128 0x18
 16410 01bf 00       		.byte	0
 16411 01c0 00       		.byte	0
 16412 01c1 25       		.uleb128 0x25
 16413 01c2 34       		.uleb128 0x34
 16414 01c3 00       		.byte	0
 16415 01c4 03       		.uleb128 0x3
 16416 01c5 0E       		.uleb128 0xe
 16417 01c6 3A       		.uleb128 0x3a
 16418 01c7 0B       		.uleb128 0xb
 16419 01c8 3B       		.uleb128 0x3b
 16420 01c9 0B       		.uleb128 0xb
 16421 01ca 49       		.uleb128 0x49
 16422 01cb 13       		.uleb128 0x13
 16423 01cc 02       		.uleb128 0x2
 16424 01cd 18       		.uleb128 0x18
 16425 01ce 00       		.byte	0
 16426 01cf 00       		.byte	0
 16427 01d0 26       		.uleb128 0x26
 16428 01d1 0B       		.uleb128 0xb
 16429 01d2 01       		.byte	0x1
 16430 01d3 11       		.uleb128 0x11
 16431 01d4 01       		.uleb128 0x1
 16432 01d5 12       		.uleb128 0x12
 16433 01d6 06       		.uleb128 0x6
 16434 01d7 00       		.byte	0
 16435 01d8 00       		.byte	0
 16436 01d9 27       		.uleb128 0x27
 16437 01da 2E       		.uleb128 0x2e
 16438 01db 01       		.byte	0x1
 16439 01dc 3F       		.uleb128 0x3f
 16440 01dd 19       		.uleb128 0x19
 16441 01de 03       		.uleb128 0x3
 16442 01df 0E       		.uleb128 0xe
ARM GAS  C:\Users\Lenovo\AppData\Local\Temp\cccA9qMw.s 			page 339


 16443 01e0 3A       		.uleb128 0x3a
 16444 01e1 0B       		.uleb128 0xb
 16445 01e2 3B       		.uleb128 0x3b
 16446 01e3 0B       		.uleb128 0xb
 16447 01e4 27       		.uleb128 0x27
 16448 01e5 19       		.uleb128 0x19
 16449 01e6 11       		.uleb128 0x11
 16450 01e7 01       		.uleb128 0x1
 16451 01e8 12       		.uleb128 0x12
 16452 01e9 06       		.uleb128 0x6
 16453 01ea 40       		.uleb128 0x40
 16454 01eb 18       		.uleb128 0x18
 16455 01ec 9742     		.uleb128 0x2117
 16456 01ee 19       		.uleb128 0x19
 16457 01ef 01       		.uleb128 0x1
 16458 01f0 13       		.uleb128 0x13
 16459 01f1 00       		.byte	0
 16460 01f2 00       		.byte	0
 16461 01f3 28       		.uleb128 0x28
 16462 01f4 34       		.uleb128 0x34
 16463 01f5 00       		.byte	0
 16464 01f6 03       		.uleb128 0x3
 16465 01f7 08       		.uleb128 0x8
 16466 01f8 3A       		.uleb128 0x3a
 16467 01f9 0B       		.uleb128 0xb
 16468 01fa 3B       		.uleb128 0x3b
 16469 01fb 05       		.uleb128 0x5
 16470 01fc 49       		.uleb128 0x49
 16471 01fd 13       		.uleb128 0x13
 16472 01fe 02       		.uleb128 0x2
 16473 01ff 18       		.uleb128 0x18
 16474 0200 00       		.byte	0
 16475 0201 00       		.byte	0
 16476 0202 29       		.uleb128 0x29
 16477 0203 0B       		.uleb128 0xb
 16478 0204 01       		.byte	0x1
 16479 0205 11       		.uleb128 0x11
 16480 0206 01       		.uleb128 0x1
 16481 0207 12       		.uleb128 0x12
 16482 0208 06       		.uleb128 0x6
 16483 0209 01       		.uleb128 0x1
 16484 020a 13       		.uleb128 0x13
 16485 020b 00       		.byte	0
 16486 020c 00       		.byte	0
 16487 020d 2A       		.uleb128 0x2a
 16488 020e 34       		.uleb128 0x34
 16489 020f 00       		.byte	0
 16490 0210 03       		.uleb128 0x3
 16491 0211 0E       		.uleb128 0xe
 16492 0212 3A       		.uleb128 0x3a
 16493 0213 0B       		.uleb128 0xb
 16494 0214 3B       		.uleb128 0x3b
 16495 0215 05       		.uleb128 0x5
 16496 0216 49       		.uleb128 0x49
 16497 0217 13       		.uleb128 0x13
 16498 0218 02       		.uleb128 0x2
 16499 0219 18       		.uleb128 0x18
ARM GAS  C:\Users\Lenovo\AppData\Local\Temp\cccA9qMw.s 			page 340


 16500 021a 00       		.byte	0
 16501 021b 00       		.byte	0
 16502 021c 2B       		.uleb128 0x2b
 16503 021d 2E       		.uleb128 0x2e
 16504 021e 01       		.byte	0x1
 16505 021f 3F       		.uleb128 0x3f
 16506 0220 19       		.uleb128 0x19
 16507 0221 03       		.uleb128 0x3
 16508 0222 0E       		.uleb128 0xe
 16509 0223 3A       		.uleb128 0x3a
 16510 0224 0B       		.uleb128 0xb
 16511 0225 3B       		.uleb128 0x3b
 16512 0226 05       		.uleb128 0x5
 16513 0227 27       		.uleb128 0x27
 16514 0228 19       		.uleb128 0x19
 16515 0229 11       		.uleb128 0x11
 16516 022a 01       		.uleb128 0x1
 16517 022b 12       		.uleb128 0x12
 16518 022c 06       		.uleb128 0x6
 16519 022d 40       		.uleb128 0x40
 16520 022e 18       		.uleb128 0x18
 16521 022f 9642     		.uleb128 0x2116
 16522 0231 19       		.uleb128 0x19
 16523 0232 01       		.uleb128 0x1
 16524 0233 13       		.uleb128 0x13
 16525 0234 00       		.byte	0
 16526 0235 00       		.byte	0
 16527 0236 2C       		.uleb128 0x2c
 16528 0237 05       		.uleb128 0x5
 16529 0238 00       		.byte	0
 16530 0239 03       		.uleb128 0x3
 16531 023a 0E       		.uleb128 0xe
 16532 023b 3A       		.uleb128 0x3a
 16533 023c 0B       		.uleb128 0xb
 16534 023d 3B       		.uleb128 0x3b
 16535 023e 05       		.uleb128 0x5
 16536 023f 49       		.uleb128 0x49
 16537 0240 13       		.uleb128 0x13
 16538 0241 02       		.uleb128 0x2
 16539 0242 18       		.uleb128 0x18
 16540 0243 00       		.byte	0
 16541 0244 00       		.byte	0
 16542 0245 2D       		.uleb128 0x2d
 16543 0246 2E       		.uleb128 0x2e
 16544 0247 01       		.byte	0x1
 16545 0248 3F       		.uleb128 0x3f
 16546 0249 19       		.uleb128 0x19
 16547 024a 03       		.uleb128 0x3
 16548 024b 0E       		.uleb128 0xe
 16549 024c 3A       		.uleb128 0x3a
 16550 024d 0B       		.uleb128 0xb
 16551 024e 3B       		.uleb128 0x3b
 16552 024f 05       		.uleb128 0x5
 16553 0250 27       		.uleb128 0x27
 16554 0251 19       		.uleb128 0x19
 16555 0252 11       		.uleb128 0x11
 16556 0253 01       		.uleb128 0x1
ARM GAS  C:\Users\Lenovo\AppData\Local\Temp\cccA9qMw.s 			page 341


 16557 0254 12       		.uleb128 0x12
 16558 0255 06       		.uleb128 0x6
 16559 0256 40       		.uleb128 0x40
 16560 0257 18       		.uleb128 0x18
 16561 0258 9742     		.uleb128 0x2117
 16562 025a 19       		.uleb128 0x19
 16563 025b 01       		.uleb128 0x1
 16564 025c 13       		.uleb128 0x13
 16565 025d 00       		.byte	0
 16566 025e 00       		.byte	0
 16567 025f 2E       		.uleb128 0x2e
 16568 0260 2E       		.uleb128 0x2e
 16569 0261 01       		.byte	0x1
 16570 0262 3F       		.uleb128 0x3f
 16571 0263 19       		.uleb128 0x19
 16572 0264 03       		.uleb128 0x3
 16573 0265 0E       		.uleb128 0xe
 16574 0266 3A       		.uleb128 0x3a
 16575 0267 0B       		.uleb128 0xb
 16576 0268 3B       		.uleb128 0x3b
 16577 0269 05       		.uleb128 0x5
 16578 026a 27       		.uleb128 0x27
 16579 026b 19       		.uleb128 0x19
 16580 026c 49       		.uleb128 0x49
 16581 026d 13       		.uleb128 0x13
 16582 026e 11       		.uleb128 0x11
 16583 026f 01       		.uleb128 0x1
 16584 0270 12       		.uleb128 0x12
 16585 0271 06       		.uleb128 0x6
 16586 0272 40       		.uleb128 0x40
 16587 0273 18       		.uleb128 0x18
 16588 0274 9642     		.uleb128 0x2116
 16589 0276 19       		.uleb128 0x19
 16590 0277 01       		.uleb128 0x1
 16591 0278 13       		.uleb128 0x13
 16592 0279 00       		.byte	0
 16593 027a 00       		.byte	0
 16594 027b 2F       		.uleb128 0x2f
 16595 027c 2E       		.uleb128 0x2e
 16596 027d 01       		.byte	0x1
 16597 027e 3F       		.uleb128 0x3f
 16598 027f 19       		.uleb128 0x19
 16599 0280 03       		.uleb128 0x3
 16600 0281 0E       		.uleb128 0xe
 16601 0282 3A       		.uleb128 0x3a
 16602 0283 0B       		.uleb128 0xb
 16603 0284 3B       		.uleb128 0x3b
 16604 0285 05       		.uleb128 0x5
 16605 0286 27       		.uleb128 0x27
 16606 0287 19       		.uleb128 0x19
 16607 0288 49       		.uleb128 0x49
 16608 0289 13       		.uleb128 0x13
 16609 028a 11       		.uleb128 0x11
 16610 028b 01       		.uleb128 0x1
 16611 028c 12       		.uleb128 0x12
 16612 028d 06       		.uleb128 0x6
 16613 028e 40       		.uleb128 0x40
ARM GAS  C:\Users\Lenovo\AppData\Local\Temp\cccA9qMw.s 			page 342


 16614 028f 18       		.uleb128 0x18
 16615 0290 9742     		.uleb128 0x2117
 16616 0292 19       		.uleb128 0x19
 16617 0293 01       		.uleb128 0x1
 16618 0294 13       		.uleb128 0x13
 16619 0295 00       		.byte	0
 16620 0296 00       		.byte	0
 16621 0297 30       		.uleb128 0x30
 16622 0298 34       		.uleb128 0x34
 16623 0299 00       		.byte	0
 16624 029a 03       		.uleb128 0x3
 16625 029b 0E       		.uleb128 0xe
 16626 029c 3A       		.uleb128 0x3a
 16627 029d 0B       		.uleb128 0xb
 16628 029e 3B       		.uleb128 0x3b
 16629 029f 05       		.uleb128 0x5
 16630 02a0 49       		.uleb128 0x49
 16631 02a1 13       		.uleb128 0x13
 16632 02a2 3F       		.uleb128 0x3f
 16633 02a3 19       		.uleb128 0x19
 16634 02a4 3C       		.uleb128 0x3c
 16635 02a5 19       		.uleb128 0x19
 16636 02a6 00       		.byte	0
 16637 02a7 00       		.byte	0
 16638 02a8 31       		.uleb128 0x31
 16639 02a9 34       		.uleb128 0x34
 16640 02aa 00       		.byte	0
 16641 02ab 03       		.uleb128 0x3
 16642 02ac 0E       		.uleb128 0xe
 16643 02ad 3A       		.uleb128 0x3a
 16644 02ae 0B       		.uleb128 0xb
 16645 02af 3B       		.uleb128 0x3b
 16646 02b0 0B       		.uleb128 0xb
 16647 02b1 49       		.uleb128 0x49
 16648 02b2 13       		.uleb128 0x13
 16649 02b3 3F       		.uleb128 0x3f
 16650 02b4 19       		.uleb128 0x19
 16651 02b5 3C       		.uleb128 0x3c
 16652 02b6 19       		.uleb128 0x19
 16653 02b7 00       		.byte	0
 16654 02b8 00       		.byte	0
 16655 02b9 32       		.uleb128 0x32
 16656 02ba 34       		.uleb128 0x34
 16657 02bb 00       		.byte	0
 16658 02bc 03       		.uleb128 0x3
 16659 02bd 0E       		.uleb128 0xe
 16660 02be 3A       		.uleb128 0x3a
 16661 02bf 0B       		.uleb128 0xb
 16662 02c0 3B       		.uleb128 0x3b
 16663 02c1 05       		.uleb128 0x5
 16664 02c2 49       		.uleb128 0x49
 16665 02c3 13       		.uleb128 0x13
 16666 02c4 3F       		.uleb128 0x3f
 16667 02c5 19       		.uleb128 0x19
 16668 02c6 02       		.uleb128 0x2
 16669 02c7 18       		.uleb128 0x18
 16670 02c8 00       		.byte	0
ARM GAS  C:\Users\Lenovo\AppData\Local\Temp\cccA9qMw.s 			page 343


 16671 02c9 00       		.byte	0
 16672 02ca 00       		.byte	0
 16673              		.section	.debug_aranges,"",%progbits
 16674 0000 84010000 		.4byte	0x184
 16675 0004 0200     		.2byte	0x2
 16676 0006 00000000 		.4byte	.Ldebug_info0
 16677 000a 04       		.byte	0x4
 16678 000b 00       		.byte	0
 16679 000c 0000     		.2byte	0
 16680 000e 0000     		.2byte	0
 16681 0010 00000000 		.4byte	.LFB63
 16682 0014 D0000000 		.4byte	.LFE63-.LFB63
 16683 0018 00000000 		.4byte	.LFB64
 16684 001c 48000000 		.4byte	.LFE64-.LFB64
 16685 0020 00000000 		.4byte	.LFB65
 16686 0024 E0000000 		.4byte	.LFE65-.LFB65
 16687 0028 00000000 		.4byte	.LFB66
 16688 002c 9A0F0000 		.4byte	.LFE66-.LFB66
 16689 0030 00000000 		.4byte	.LFB67
 16690 0034 A0010000 		.4byte	.LFE67-.LFB67
 16691 0038 00000000 		.4byte	.LFB68
 16692 003c 2C000000 		.4byte	.LFE68-.LFB68
 16693 0040 00000000 		.4byte	.LFB69
 16694 0044 36000000 		.4byte	.LFE69-.LFB69
 16695 0048 00000000 		.4byte	.LFB70
 16696 004c 36000000 		.4byte	.LFE70-.LFB70
 16697 0050 00000000 		.4byte	.LFB71
 16698 0054 82000000 		.4byte	.LFE71-.LFB71
 16699 0058 00000000 		.4byte	.LFB72
 16700 005c 70000000 		.4byte	.LFE72-.LFB72
 16701 0060 00000000 		.4byte	.LFB73
 16702 0064 60000000 		.4byte	.LFE73-.LFB73
 16703 0068 00000000 		.4byte	.LFB74
 16704 006c 6A000000 		.4byte	.LFE74-.LFB74
 16705 0070 00000000 		.4byte	.LFB75
 16706 0074 6A000000 		.4byte	.LFE75-.LFB75
 16707 0078 00000000 		.4byte	.LFB76
 16708 007c 6A000000 		.4byte	.LFE76-.LFB76
 16709 0080 00000000 		.4byte	.LFB77
 16710 0084 6A000000 		.4byte	.LFE77-.LFB77
 16711 0088 00000000 		.4byte	.LFB78
 16712 008c AA030000 		.4byte	.LFE78-.LFB78
 16713 0090 00000000 		.4byte	.LFB79
 16714 0094 78030000 		.4byte	.LFE79-.LFB79
 16715 0098 00000000 		.4byte	.LFB80
 16716 009c C4020000 		.4byte	.LFE80-.LFB80
 16717 00a0 00000000 		.4byte	.LFB81
 16718 00a4 14020000 		.4byte	.LFE81-.LFB81
 16719 00a8 00000000 		.4byte	.LFB82
 16720 00ac E8000000 		.4byte	.LFE82-.LFB82
 16721 00b0 00000000 		.4byte	.LFB83
 16722 00b4 28030000 		.4byte	.LFE83-.LFB83
 16723 00b8 00000000 		.4byte	.LFB84
 16724 00bc 74020000 		.4byte	.LFE84-.LFB84
 16725 00c0 00000000 		.4byte	.LFB85
 16726 00c4 C4020000 		.4byte	.LFE85-.LFB85
 16727 00c8 00000000 		.4byte	.LFB86
ARM GAS  C:\Users\Lenovo\AppData\Local\Temp\cccA9qMw.s 			page 344


 16728 00cc B0010000 		.4byte	.LFE86-.LFB86
 16729 00d0 00000000 		.4byte	.LFB87
 16730 00d4 3C020000 		.4byte	.LFE87-.LFB87
 16731 00d8 00000000 		.4byte	.LFB88
 16732 00dc 6A000000 		.4byte	.LFE88-.LFB88
 16733 00e0 00000000 		.4byte	.LFB89
 16734 00e4 60000000 		.4byte	.LFE89-.LFB89
 16735 00e8 00000000 		.4byte	.LFB90
 16736 00ec E6000000 		.4byte	.LFE90-.LFB90
 16737 00f0 00000000 		.4byte	.LFB91
 16738 00f4 54040000 		.4byte	.LFE91-.LFB91
 16739 00f8 00000000 		.4byte	.LFB92
 16740 00fc C8040000 		.4byte	.LFE92-.LFB92
 16741 0100 00000000 		.4byte	.LFB93
 16742 0104 28010000 		.4byte	.LFE93-.LFB93
 16743 0108 00000000 		.4byte	.LFB94
 16744 010c 60000000 		.4byte	.LFE94-.LFB94
 16745 0110 00000000 		.4byte	.LFB95
 16746 0114 40020000 		.4byte	.LFE95-.LFB95
 16747 0118 00000000 		.4byte	.LFB96
 16748 011c 6C000000 		.4byte	.LFE96-.LFB96
 16749 0120 00000000 		.4byte	.LFB97
 16750 0124 5C010000 		.4byte	.LFE97-.LFB97
 16751 0128 00000000 		.4byte	.LFB98
 16752 012c 4C000000 		.4byte	.LFE98-.LFB98
 16753 0130 00000000 		.4byte	.LFB99
 16754 0134 98000000 		.4byte	.LFE99-.LFB99
 16755 0138 00000000 		.4byte	.LFB100
 16756 013c AC000000 		.4byte	.LFE100-.LFB100
 16757 0140 00000000 		.4byte	.LFB101
 16758 0144 5E000000 		.4byte	.LFE101-.LFB101
 16759 0148 00000000 		.4byte	.LFB102
 16760 014c 32000000 		.4byte	.LFE102-.LFB102
 16761 0150 00000000 		.4byte	.LFB103
 16762 0154 2C000000 		.4byte	.LFE103-.LFB103
 16763 0158 00000000 		.4byte	.LFB104
 16764 015c 2C000000 		.4byte	.LFE104-.LFB104
 16765 0160 00000000 		.4byte	.LFB105
 16766 0164 48020000 		.4byte	.LFE105-.LFB105
 16767 0168 00000000 		.4byte	.LFB106
 16768 016c 74010000 		.4byte	.LFE106-.LFB106
 16769 0170 00000000 		.4byte	.LFB107
 16770 0174 64010000 		.4byte	.LFE107-.LFB107
 16771 0178 00000000 		.4byte	.LFB108
 16772 017c 48000000 		.4byte	.LFE108-.LFB108
 16773 0180 00000000 		.4byte	0
 16774 0184 00000000 		.4byte	0
 16775              		.section	.debug_ranges,"",%progbits
 16776              	.Ldebug_ranges0:
 16777 0000 00000000 		.4byte	.LFB63
 16778 0004 D0000000 		.4byte	.LFE63
 16779 0008 00000000 		.4byte	.LFB64
 16780 000c 48000000 		.4byte	.LFE64
 16781 0010 00000000 		.4byte	.LFB65
 16782 0014 E0000000 		.4byte	.LFE65
 16783 0018 00000000 		.4byte	.LFB66
 16784 001c 9A0F0000 		.4byte	.LFE66
ARM GAS  C:\Users\Lenovo\AppData\Local\Temp\cccA9qMw.s 			page 345


 16785 0020 00000000 		.4byte	.LFB67
 16786 0024 A0010000 		.4byte	.LFE67
 16787 0028 00000000 		.4byte	.LFB68
 16788 002c 2C000000 		.4byte	.LFE68
 16789 0030 00000000 		.4byte	.LFB69
 16790 0034 36000000 		.4byte	.LFE69
 16791 0038 00000000 		.4byte	.LFB70
 16792 003c 36000000 		.4byte	.LFE70
 16793 0040 00000000 		.4byte	.LFB71
 16794 0044 82000000 		.4byte	.LFE71
 16795 0048 00000000 		.4byte	.LFB72
 16796 004c 70000000 		.4byte	.LFE72
 16797 0050 00000000 		.4byte	.LFB73
 16798 0054 60000000 		.4byte	.LFE73
 16799 0058 00000000 		.4byte	.LFB74
 16800 005c 6A000000 		.4byte	.LFE74
 16801 0060 00000000 		.4byte	.LFB75
 16802 0064 6A000000 		.4byte	.LFE75
 16803 0068 00000000 		.4byte	.LFB76
 16804 006c 6A000000 		.4byte	.LFE76
 16805 0070 00000000 		.4byte	.LFB77
 16806 0074 6A000000 		.4byte	.LFE77
 16807 0078 00000000 		.4byte	.LFB78
 16808 007c AA030000 		.4byte	.LFE78
 16809 0080 00000000 		.4byte	.LFB79
 16810 0084 78030000 		.4byte	.LFE79
 16811 0088 00000000 		.4byte	.LFB80
 16812 008c C4020000 		.4byte	.LFE80
 16813 0090 00000000 		.4byte	.LFB81
 16814 0094 14020000 		.4byte	.LFE81
 16815 0098 00000000 		.4byte	.LFB82
 16816 009c E8000000 		.4byte	.LFE82
 16817 00a0 00000000 		.4byte	.LFB83
 16818 00a4 28030000 		.4byte	.LFE83
 16819 00a8 00000000 		.4byte	.LFB84
 16820 00ac 74020000 		.4byte	.LFE84
 16821 00b0 00000000 		.4byte	.LFB85
 16822 00b4 C4020000 		.4byte	.LFE85
 16823 00b8 00000000 		.4byte	.LFB86
 16824 00bc B0010000 		.4byte	.LFE86
 16825 00c0 00000000 		.4byte	.LFB87
 16826 00c4 3C020000 		.4byte	.LFE87
 16827 00c8 00000000 		.4byte	.LFB88
 16828 00cc 6A000000 		.4byte	.LFE88
 16829 00d0 00000000 		.4byte	.LFB89
 16830 00d4 60000000 		.4byte	.LFE89
 16831 00d8 00000000 		.4byte	.LFB90
 16832 00dc E6000000 		.4byte	.LFE90
 16833 00e0 00000000 		.4byte	.LFB91
 16834 00e4 54040000 		.4byte	.LFE91
 16835 00e8 00000000 		.4byte	.LFB92
 16836 00ec C8040000 		.4byte	.LFE92
 16837 00f0 00000000 		.4byte	.LFB93
 16838 00f4 28010000 		.4byte	.LFE93
 16839 00f8 00000000 		.4byte	.LFB94
 16840 00fc 60000000 		.4byte	.LFE94
 16841 0100 00000000 		.4byte	.LFB95
ARM GAS  C:\Users\Lenovo\AppData\Local\Temp\cccA9qMw.s 			page 346


 16842 0104 40020000 		.4byte	.LFE95
 16843 0108 00000000 		.4byte	.LFB96
 16844 010c 6C000000 		.4byte	.LFE96
 16845 0110 00000000 		.4byte	.LFB97
 16846 0114 5C010000 		.4byte	.LFE97
 16847 0118 00000000 		.4byte	.LFB98
 16848 011c 4C000000 		.4byte	.LFE98
 16849 0120 00000000 		.4byte	.LFB99
 16850 0124 98000000 		.4byte	.LFE99
 16851 0128 00000000 		.4byte	.LFB100
 16852 012c AC000000 		.4byte	.LFE100
 16853 0130 00000000 		.4byte	.LFB101
 16854 0134 5E000000 		.4byte	.LFE101
 16855 0138 00000000 		.4byte	.LFB102
 16856 013c 32000000 		.4byte	.LFE102
 16857 0140 00000000 		.4byte	.LFB103
 16858 0144 2C000000 		.4byte	.LFE103
 16859 0148 00000000 		.4byte	.LFB104
 16860 014c 2C000000 		.4byte	.LFE104
 16861 0150 00000000 		.4byte	.LFB105
 16862 0154 48020000 		.4byte	.LFE105
 16863 0158 00000000 		.4byte	.LFB106
 16864 015c 74010000 		.4byte	.LFE106
 16865 0160 00000000 		.4byte	.LFB107
 16866 0164 64010000 		.4byte	.LFE107
 16867 0168 00000000 		.4byte	.LFB108
 16868 016c 48000000 		.4byte	.LFE108
 16869 0170 00000000 		.4byte	0
 16870 0174 00000000 		.4byte	0
 16871              		.section	.debug_line,"",%progbits
 16872              	.Ldebug_line0:
 16873 0000 C20D0000 		.section	.debug_str,"MS",%progbits,1
 16873      02000402 
 16873      00000201 
 16873      FB0E0D00 
 16873      01010101 
 16874              	.LASF470:
 16875 0000 5F707269 		.ascii	"_printerportside2\000"
 16875      6E746572 
 16875      706F7274 
 16875      73696465 
 16875      3200
 16876              	.LASF369:
 16877 0012 5F706F73 		.ascii	"_positionoffset\000"
 16877      6974696F 
 16877      6E6F6666 
 16877      73657400 
 16878              	.LASF284:
 16879 0022 5F70756D 		.ascii	"_pumprftransstate\000"
 16879      70726674 
 16879      72616E73 
 16879      73746174 
 16879      6500
 16880              	.LASF491:
 16881 0034 7070756D 		.ascii	"ppump\000"
 16881      7000
 16882              	.LASF364:
ARM GAS  C:\Users\Lenovo\AppData\Local\Temp\cccA9qMw.s 			page 347


 16883 003a 5F766F6C 		.ascii	"_volumeunit\000"
 16883      756D6575 
 16883      6E697400 
 16884              	.LASF192:
 16885 0046 44495350 		.ascii	"DISPLAY1\000"
 16885      4C415931 
 16885      00
 16886              	.LASF193:
 16887 004f 44495350 		.ascii	"DISPLAY2\000"
 16887      4C415932 
 16887      00
 16888              	.LASF96:
 16889 0058 5F53494E 		.ascii	"_SINK_MESSAGE_\000"
 16889      4B5F4D45 
 16889      53534147 
 16889      455F00
 16890              	.LASF371:
 16891 0067 504E4541 		.ascii	"PNEARDISPENSERACTIVATEPROGRAMMING\000"
 16891      52444953 
 16891      50454E53 
 16891      45524143 
 16891      54495641 
 16892              	.LASF312:
 16893 0089 52657370 		.ascii	"ResponseSizeResolver\000"
 16893      6F6E7365 
 16893      53697A65 
 16893      5265736F 
 16893      6C766572 
 16894              	.LASF334:
 16895 009e 5F726570 		.ascii	"_repushtimeoutmultiplier\000"
 16895      75736874 
 16895      696D656F 
 16895      75746D75 
 16895      6C746970 
 16896              	.LASF22:
 16897 00b7 73697A65 		.ascii	"sizetype\000"
 16897      74797065 
 16897      00
 16898              	.LASF487:
 16899 00c0 50726F63 		.ascii	"ProcessPumpTotalsDataPpuCheck\000"
 16899      65737350 
 16899      756D7054 
 16899      6F74616C 
 16899      73446174 
 16900              	.LASF60:
 16901 00de 44495350 		.ascii	"DISPENSER_ACQUIRE_PUMP_STATE\000"
 16901      454E5345 
 16901      525F4143 
 16901      51554952 
 16901      455F5055 
 16902              	.LASF123:
 16903 00fb 5F6D6573 		.ascii	"_messagelength\000"
 16903      73616765 
 16903      6C656E67 
 16903      746800
 16904              	.LASF324:
 16905 010a 5F50554D 		.ascii	"_PUMP_TRANSACTION_\000"
ARM GAS  C:\Users\Lenovo\AppData\Local\Temp\cccA9qMw.s 			page 348


 16905      505F5452 
 16905      414E5341 
 16905      4354494F 
 16905      4E5F00
 16906              	.LASF201:
 16907 011d 50554D50 		.ascii	"PUMP_AUTHORIZATION\000"
 16907      5F415554 
 16907      484F5249 
 16907      5A415449 
 16907      4F4E00
 16908              	.LASF458:
 16909 0130 52465F43 		.ascii	"RF_CREDITSALEREPORT\000"
 16909      52454449 
 16909      5453414C 
 16909      45524550 
 16909      4F525400 
 16910              	.LASF145:
 16911 0144 44495350 		.ascii	"DISPLAY_SUBA_MANIJA\000"
 16911      4C41595F 
 16911      53554241 
 16911      5F4D414E 
 16911      494A4100 
 16912              	.LASF373:
 16913 0158 45455052 		.ascii	"EEPROM_CONFIGURATION_PAGE0\000"
 16913      4F4D5F43 
 16913      4F4E4649 
 16913      47555241 
 16913      54494F4E 
 16914              	.LASF37:
 16915 0173 53494E4B 		.ascii	"SINK_BUSY\000"
 16915      5F425553 
 16915      5900
 16916              	.LASF375:
 16917 017d 45455052 		.ascii	"EEPROM_CONFIGURATION_PAGE2\000"
 16917      4F4D5F43 
 16917      4F4E4649 
 16917      47555241 
 16917      54494F4E 
 16918              	.LASF376:
 16919 0198 45455052 		.ascii	"EEPROM_CONFIGURATION_PAGE3\000"
 16919      4F4D5F43 
 16919      4F4E4649 
 16919      47555241 
 16919      54494F4E 
 16920              	.LASF377:
 16921 01b3 45455052 		.ascii	"EEPROM_CONFIGURATION_PAGE4\000"
 16921      4F4D5F43 
 16921      4F4E4649 
 16921      47555241 
 16921      54494F4E 
 16922              	.LASF378:
 16923 01ce 45455052 		.ascii	"EEPROM_CONFIGURATION_PAGE5\000"
 16923      4F4D5F43 
 16923      4F4E4649 
 16923      47555241 
 16923      54494F4E 
 16924              	.LASF379:
ARM GAS  C:\Users\Lenovo\AppData\Local\Temp\cccA9qMw.s 			page 349


 16925 01e9 45455052 		.ascii	"EEPROM_CONFIGURATION_PAGE6\000"
 16925      4F4D5F43 
 16925      4F4E4649 
 16925      47555241 
 16925      54494F4E 
 16926              	.LASF380:
 16927 0204 45455052 		.ascii	"EEPROM_CONFIGURATION_PAGE7\000"
 16927      4F4D5F43 
 16927      4F4E4649 
 16927      47555241 
 16927      54494F4E 
 16928              	.LASF57:
 16929 021f 53494E4B 		.ascii	"SINK_RELEASE_BY_ID\000"
 16929      5F52454C 
 16929      45415345 
 16929      5F42595F 
 16929      494400
 16930              	.LASF129:
 16931 0232 55415254 		.ascii	"UART_RF\000"
 16931      5F524600 
 16932              	.LASF12:
 16933 023a 696E7433 		.ascii	"int32_t\000"
 16933      325F7400 
 16934              	.LASF343:
 16935 0242 5F50554D 		.ascii	"_PUMP_JOB_QUEUE_\000"
 16935      505F4A4F 
 16935      425F5155 
 16935      4555455F 
 16935      00
 16936              	.LASF326:
 16937 0253 5F6A6F62 		.ascii	"_jobs\000"
 16937      7300
 16938              	.LASF292:
 16939 0259 5F727862 		.ascii	"_rxbuffersize\000"
 16939      75666665 
 16939      7273697A 
 16939      6500
 16940              	.LASF91:
 16941 0267 49425554 		.ascii	"IBUTTON1_SCAN\000"
 16941      544F4E31 
 16941      5F534341 
 16941      4E00
 16942              	.LASF217:
 16943 0275 50554D50 		.ascii	"PUMP_AUTHORIZED\000"
 16943      5F415554 
 16943      484F5249 
 16943      5A454400 
 16944              	.LASF55:
 16945 0285 55415254 		.ascii	"UART_RF_AUTONOMOUS_MONITOR\000"
 16945      5F52465F 
 16945      4155544F 
 16945      4E4F4D4F 
 16945      55535F4D 
 16946              	.LASF415:
 16947 02a0 52465F4D 		.ascii	"RF_MUX_CREDIT_SERIAL_AUTH_REQUEST\000"
 16947      55585F43 
 16947      52454449 
ARM GAS  C:\Users\Lenovo\AppData\Local\Temp\cccA9qMw.s 			page 350


 16947      545F5345 
 16947      5249414C 
 16948              	.LASF560:
 16949 02c2 5F675F64 		.ascii	"_g_dispenserlayoutinfo\000"
 16949      69737065 
 16949      6E736572 
 16949      6C61796F 
 16949      7574696E 
 16950              	.LASF15:
 16951 02d9 75696E74 		.ascii	"uint32\000"
 16951      333200
 16952              	.LASF247:
 16953 02e0 5F737461 		.ascii	"_state\000"
 16953      746500
 16954              	.LASF165:
 16955 02e7 44495350 		.ascii	"DISPLAY_COPIA_RECIBO\000"
 16955      4C41595F 
 16955      434F5049 
 16955      415F5245 
 16955      4349424F 
 16956              	.LASF514:
 16957 02fc 50756D70 		.ascii	"PumpStopRequest\000"
 16957      53746F70 
 16957      52657175 
 16957      65737400 
 16958              	.LASF408:
 16959 030c 45455052 		.ascii	"EEPROM_DISPENSER_PUMP34_TRANSACTION_PAGE\000"
 16959      4F4D5F44 
 16959      49535045 
 16959      4E534552 
 16959      5F50554D 
 16960              	.LASF223:
 16961 0335 50554D50 		.ascii	"PUMP_UNKNOWN\000"
 16961      5F554E4B 
 16961      4E4F574E 
 16961      00
 16962              	.LASF207:
 16963 0342 50554D50 		.ascii	"PUMP_REAL_TIME_HOSE_VOLUME_REQUEST\000"
 16963      5F524541 
 16963      4C5F5449 
 16963      4D455F48 
 16963      4F53455F 
 16964              	.LASF84:
 16965 0365 44495350 		.ascii	"DISPLAY1_MESSAGE\000"
 16965      4C415931 
 16965      5F4D4553 
 16965      53414745 
 16965      00
 16966              	.LASF504:
 16967 0376 50756D70 		.ascii	"PumpPresetNoHose\000"
 16967      50726573 
 16967      65744E6F 
 16967      486F7365 
 16967      00
 16968              	.LASF64:
 16969 0387 44495350 		.ascii	"DISPENSER_UNLOCK_EOT_PUMPS\000"
 16969      454E5345 
ARM GAS  C:\Users\Lenovo\AppData\Local\Temp\cccA9qMw.s 			page 351


 16969      525F554E 
 16969      4C4F434B 
 16969      5F454F54 
 16970              	.LASF101:
 16971 03a2 53746F70 		.ascii	"Stop\000"
 16971      00
 16972              	.LASF117:
 16973 03a7 55415254 		.ascii	"UARTManager\000"
 16973      4D616E61 
 16973      67657200 
 16974              	.LASF452:
 16975 03b3 5F52465F 		.ascii	"_RF_STATES_\000"
 16975      53544154 
 16975      45535F00 
 16976              	.LASF498:
 16977 03bf 50756D70 		.ascii	"PumpTotalsDataRequest\000"
 16977      546F7461 
 16977      6C734461 
 16977      74615265 
 16977      71756573 
 16978              	.LASF353:
 16979 03d5 50756D70 		.ascii	"PumpJobQueue\000"
 16979      4A6F6251 
 16979      75657565 
 16979      00
 16980              	.LASF244:
 16981 03e2 5F50554D 		.ascii	"_PUMP_TRANS_HEALTH_\000"
 16981      505F5452 
 16981      414E535F 
 16981      4845414C 
 16981      54485F00 
 16982              	.LASF199:
 16983 03f6 5F434F4D 		.ascii	"_COMMAND_ID_\000"
 16983      4D414E44 
 16983      5F49445F 
 16983      00
 16984              	.LASF466:
 16985 0403 5F74696D 		.ascii	"_timeouttoreceive\000"
 16985      656F7574 
 16985      746F7265 
 16985      63656976 
 16985      6500
 16986              	.LASF177:
 16987 0415 44495350 		.ascii	"DISPLAY_ABRIR_TURNO\000"
 16987      4C41595F 
 16987      41425249 
 16987      525F5455 
 16987      524E4F00 
 16988              	.LASF374:
 16989 0429 45455052 		.ascii	"EEPROM_CONFIGURATION_PAGE1\000"
 16989      4F4D5F43 
 16989      4F4E4649 
 16989      47555241 
 16989      54494F4E 
 16990              	.LASF453:
 16991 0444 52465F49 		.ascii	"RF_IDLE\000"
 16991      444C4500 
ARM GAS  C:\Users\Lenovo\AppData\Local\Temp\cccA9qMw.s 			page 352


 16992              	.LASF495:
 16993 044c 50756D70 		.ascii	"PumpStateRequest\000"
 16993      53746174 
 16993      65526571 
 16993      75657374 
 16993      00
 16994              	.LASF164:
 16995 045d 44495350 		.ascii	"DISPLAY_CONFIGURACIONES\000"
 16995      4C41595F 
 16995      434F4E46 
 16995      49475552 
 16995      4143494F 
 16996              	.LASF124:
 16997 0475 5F6D6573 		.ascii	"_messagetx\000"
 16997      73616765 
 16997      747800
 16998              	.LASF320:
 16999 0480 5F706F73 		.ascii	"_postconditions\000"
 16999      74636F6E 
 16999      64697469 
 16999      6F6E7300 
 17000              	.LASF483:
 17001 0490 64617461 		.ascii	"dataok\000"
 17001      6F6B00
 17002              	.LASF411:
 17003 0497 45455052 		.ascii	"EEPROM_DISPENSER_PUMP43_TRANSACTION_PAGE\000"
 17003      4F4D5F44 
 17003      49535045 
 17003      4E534552 
 17003      5F50554D 
 17004              	.LASF20:
 17005 04c0 63686172 		.ascii	"char8\000"
 17005      3800
 17006              	.LASF94:
 17007 04c6 544F4747 		.ascii	"TOGGLE_SCREEN_AND_WRITE_TEST\000"
 17007      4C455F53 
 17007      43524545 
 17007      4E5F414E 
 17007      445F5752 
 17008              	.LASF71:
 17009 04e3 44495350 		.ascii	"DISPENSER_ACQUIRE_TOTALS\000"
 17009      454E5345 
 17009      525F4143 
 17009      51554952 
 17009      455F544F 
 17010              	.LASF58:
 17011 04fc 53494E4B 		.ascii	"SINK_RELEASE_BY_PTR\000"
 17011      5F52454C 
 17011      45415345 
 17011      5F42595F 
 17011      50545200 
 17012              	.LASF293:
 17013 0510 5F747261 		.ascii	"_transqueue\000"
 17013      6E737175 
 17013      65756500 
 17014              	.LASF473:
 17015 051c 70726576 		.ascii	"prevstate\000"
ARM GAS  C:\Users\Lenovo\AppData\Local\Temp\cccA9qMw.s 			page 353


 17015      73746174 
 17015      6500
 17016              	.LASF385:
 17017 0526 45455052 		.ascii	"EEPROM_DISPENSER_PUMP1_PRODUCT_NAMES_PAGE\000"
 17017      4F4D5F44 
 17017      49535045 
 17017      4E534552 
 17017      5F50554D 
 17018              	.LASF462:
 17019 0550 52465F41 		.ascii	"RF_AUTONOMOUS\000"
 17019      55544F4E 
 17019      4F4D4F55 
 17019      5300
 17020              	.LASF321:
 17021 055e 496E6974 		.ascii	"Initialization\000"
 17021      69616C69 
 17021      7A617469 
 17021      6F6E00
 17022              	.LASF449:
 17023 056d 52465F4D 		.ascii	"RF_MUX_COPY_REQUEST\000"
 17023      55585F43 
 17023      4F50595F 
 17023      52455155 
 17023      45535400 
 17024              	.LASF265:
 17025 0581 5F707265 		.ascii	"_presettype\000"
 17025      73657474 
 17025      79706500 
 17026              	.LASF558:
 17027 058d 5F675F70 		.ascii	"_g_pumpjobqueue\000"
 17027      756D706A 
 17027      6F627175 
 17027      65756500 
 17028              	.LASF404:
 17029 059d 45455052 		.ascii	"EEPROM_DISPENSER_PUMP24_TRANSACTION_PAGE\000"
 17029      4F4D5F44 
 17029      49535045 
 17029      4E534552 
 17029      5F50554D 
 17030              	.LASF76:
 17031 05c6 5052494E 		.ascii	"PRINTER21_JOB\000"
 17031      54455232 
 17031      315F4A4F 
 17031      4200
 17032              	.LASF228:
 17033 05d4 5F50554D 		.ascii	"_PUMP_FILL_CREDIT_\000"
 17033      505F4649 
 17033      4C4C5F43 
 17033      52454449 
 17033      545F00
 17034              	.LASF16:
 17035 05e7 696E7438 		.ascii	"int8\000"
 17035      00
 17036              	.LASF446:
 17037 05ec 52465F4D 		.ascii	"RF_MUX_ISLAND_OPER_DATA_RESPONSE\000"
 17037      55585F49 
 17037      534C414E 
ARM GAS  C:\Users\Lenovo\AppData\Local\Temp\cccA9qMw.s 			page 354


 17037      445F4F50 
 17037      45525F44 
 17038              	.LASF464:
 17039 060d 5F746F61 		.ascii	"_toautonomoustimetoken\000"
 17039      75746F6E 
 17039      6F6D6F75 
 17039      7374696D 
 17039      65746F6B 
 17040              	.LASF234:
 17041 0624 5F50554D 		.ascii	"_PUMP_EOT_STARTUP_\000"
 17041      505F454F 
 17041      545F5354 
 17041      41525455 
 17041      505F00
 17042              	.LASF381:
 17043 0637 45455052 		.ascii	"EEPROM_DISPENSER_PUMP1_LAYOUT_PAGE\000"
 17043      4F4D5F44 
 17043      49535045 
 17043      4E534552 
 17043      5F50554D 
 17044              	.LASF299:
 17045 065a 50756D70 		.ascii	"PumpTransQueueDeallocate\000"
 17045      5472616E 
 17045      73517565 
 17045      75654465 
 17045      616C6C6F 
 17046              	.LASF206:
 17047 0673 50554D50 		.ascii	"PUMP_REAL_TIME_MONEY_REQUEST\000"
 17047      5F524541 
 17047      4C5F5449 
 17047      4D455F4D 
 17047      4F4E4559 
 17048              	.LASF434:
 17049 0690 52465F4D 		.ascii	"RF_MUX_CREDIT_SALE_PRINT_RESPONSE\000"
 17049      55585F43 
 17049      52454449 
 17049      545F5341 
 17049      4C455F50 
 17050              	.LASF118:
 17051 06b2 5F554152 		.ascii	"_UART_MESSAGE_STATE_\000"
 17051      545F4D45 
 17051      53534147 
 17051      455F5354 
 17051      4154455F 
 17052              	.LASF444:
 17053 06c7 52465F4D 		.ascii	"RF_MUX_POSITION_CFG_RESPONSE\000"
 17053      55585F50 
 17053      4F534954 
 17053      494F4E5F 
 17053      4346475F 
 17054              	.LASF4:
 17055 06e4 5F5F7569 		.ascii	"__uint8_t\000"
 17055      6E74385F 
 17055      7400
 17056              	.LASF407:
 17057 06ee 45455052 		.ascii	"EEPROM_DISPENSER_PUMP33_TRANSACTION_PAGE\000"
 17057      4F4D5F44 
ARM GAS  C:\Users\Lenovo\AppData\Local\Temp\cccA9qMw.s 			page 355


 17057      49535045 
 17057      4E534552 
 17057      5F50554D 
 17058              	.LASF510:
 17059 0717 50756D70 		.ascii	"PumpPpuChange\000"
 17059      50707543 
 17059      68616E67 
 17059      6500
 17060              	.LASF142:
 17061 0725 44495350 		.ascii	"DISPLAY_INTRODUZCA_VALOR2\000"
 17061      4C41595F 
 17061      494E5452 
 17061      4F44555A 
 17061      43415F56 
 17062              	.LASF480:
 17063 073f 6C6F6361 		.ascii	"locallrc\000"
 17063      6C6C7263 
 17063      00
 17064              	.LASF184:
 17065 0748 44495350 		.ascii	"DISPLAY_IDENTIFICADOR_ESTACION\000"
 17065      4C41595F 
 17065      4944454E 
 17065      54494649 
 17065      4341444F 
 17066              	.LASF86:
 17067 0767 44495350 		.ascii	"DISPLAY1_ANIMATE_HOME\000"
 17067      4C415931 
 17067      5F414E49 
 17067      4D415445 
 17067      5F484F4D 
 17068              	.LASF46:
 17069 077d 5F627566 		.ascii	"_buffer\000"
 17069      66657200 
 17070              	.LASF448:
 17071 0785 52465F4D 		.ascii	"RF_MUX_ISLAND_ADMIN_RESPONSE\000"
 17071      55585F49 
 17071      534C414E 
 17071      445F4144 
 17071      4D494E5F 
 17072              	.LASF400:
 17073 07a2 45455052 		.ascii	"EEPROM_DISPENSER_PUMP14_TRANSACTION_PAGE\000"
 17073      4F4D5F44 
 17073      49535045 
 17073      4E534552 
 17073      5F50554D 
 17074              	.LASF52:
 17075 07cb 5F53494E 		.ascii	"_SINK_OBSERVABLES_\000"
 17075      4B5F4F42 
 17075      53455256 
 17075      41424C45 
 17075      535F00
 17076              	.LASF337:
 17077 07de 5F74696D 		.ascii	"_timeoutmultiplier\000"
 17077      656F7574 
 17077      6D756C74 
 17077      69706C69 
 17077      657200
ARM GAS  C:\Users\Lenovo\AppData\Local\Temp\cccA9qMw.s 			page 356


 17078              	.LASF231:
 17079 07f1 5F50554D 		.ascii	"_PUMP_TOTALS_\000"
 17079      505F544F 
 17079      54414C53 
 17079      5F00
 17080              	.LASF372:
 17081 07ff 5F454550 		.ascii	"_EEPROM_MEM_FORMAT_\000"
 17081      524F4D5F 
 17081      4D454D5F 
 17081      464F524D 
 17081      41545F00 
 17082              	.LASF19:
 17083 0813 75696E74 		.ascii	"uint64\000"
 17083      363400
 17084              	.LASF6:
 17085 081a 6C6F6E67 		.ascii	"long int\000"
 17085      20696E74 
 17085      00
 17086              	.LASF282:
 17087 0823 5F726F75 		.ascii	"_roundrobinstate\000"
 17087      6E64726F 
 17087      62696E73 
 17087      74617465 
 17087      00
 17088              	.LASF275:
 17089 0834 5F70756D 		.ascii	"_pumpstate\000"
 17089      70737461 
 17089      746500
 17090              	.LASF135:
 17091 083f 5F415641 		.ascii	"_AVAILABLE_DISPLAYS_\000"
 17091      494C4142 
 17091      4C455F44 
 17091      4953504C 
 17091      4159535F 
 17092              	.LASF62:
 17093 0854 44495350 		.ascii	"DISPENSER_EXECUTE_CASH_TRANSACTION\000"
 17093      454E5345 
 17093      525F4558 
 17093      45435554 
 17093      455F4341 
 17094              	.LASF44:
 17095 0877 5F6D6573 		.ascii	"_messagetimeoutmultiplier\000"
 17095      73616765 
 17095      74696D65 
 17095      6F75746D 
 17095      756C7469 
 17096              	.LASF73:
 17097 0891 44495350 		.ascii	"DISPENSER_PUMP_BEEP_WARNING\000"
 17097      454E5345 
 17097      525F5055 
 17097      4D505F42 
 17097      4545505F 
 17098              	.LASF503:
 17099 08ad 50756D70 		.ascii	"PumpPresetHose\000"
 17099      50726573 
 17099      6574486F 
 17099      736500
ARM GAS  C:\Users\Lenovo\AppData\Local\Temp\cccA9qMw.s 			page 357


 17100              	.LASF530:
 17101 08bc 50756D70 		.ascii	"PumpEnumeratorRequest\000"
 17101      456E756D 
 17101      65726174 
 17101      6F725265 
 17101      71756573 
 17102              	.LASF68:
 17103 08d2 44495350 		.ascii	"DISPENSER_CONFIGURE_PRICES\000"
 17103      454E5345 
 17103      525F434F 
 17103      4E464947 
 17103      5552455F 
 17104              	.LASF382:
 17105 08ed 45455052 		.ascii	"EEPROM_DISPENSER_PUMP2_LAYOUT_PAGE\000"
 17105      4F4D5F44 
 17105      49535045 
 17105      4E534552 
 17105      5F50554D 
 17106              	.LASF389:
 17107 0910 45455052 		.ascii	"EEPROM_DISPENSER_PUMP1_PPU_INFO_PAGE\000"
 17107      4F4D5F44 
 17107      49535045 
 17107      4E534552 
 17107      5F50554D 
 17108              	.LASF461:
 17109 0935 5F52465F 		.ascii	"_RF_AUTONOMOUS_MODE_\000"
 17109      4155544F 
 17109      4E4F4D4F 
 17109      55535F4D 
 17109      4F44455F 
 17110              	.LASF132:
 17111 094a 55415254 		.ascii	"UART_DISPLAY1\000"
 17111      5F444953 
 17111      504C4159 
 17111      3100
 17112              	.LASF133:
 17113 0958 55415254 		.ascii	"UART_DISPLAY2\000"
 17113      5F444953 
 17113      504C4159 
 17113      3200
 17114              	.LASF235:
 17115 0966 5F50554D 		.ascii	"_PUMP_NETWORK_ENUMERATOR_\000"
 17115      505F4E45 
 17115      54574F52 
 17115      4B5F454E 
 17115      554D4552 
 17116              	.LASF346:
 17117 0980 5F706A6F 		.ascii	"_pjobqueueallocated\000"
 17117      62717565 
 17117      7565616C 
 17117      6C6F6361 
 17117      74656400 
 17118              	.LASF162:
 17119 0994 44495350 		.ascii	"DISPLAY_INTRODUZCA_KILOMETRAJE\000"
 17119      4C41595F 
 17119      494E5452 
 17119      4F44555A 
ARM GAS  C:\Users\Lenovo\AppData\Local\Temp\cccA9qMw.s 			page 358


 17119      43415F4B 
 17120              	.LASF420:
 17121 09b3 52465F4D 		.ascii	"RF_MUX_CREDIT_PRESET_NOTIFICATION_RESPONSE\000"
 17121      55585F43 
 17121      52454449 
 17121      545F5052 
 17121      45534554 
 17122              	.LASF89:
 17123 09de 44495350 		.ascii	"DISPLAY2_UPDATE_DATETIME\000"
 17123      4C415932 
 17123      5F555044 
 17123      4154455F 
 17123      44415445 
 17124              	.LASF242:
 17125 09f7 5F50554D 		.ascii	"_PUMP_IDLE_\000"
 17125      505F4944 
 17125      4C455F00 
 17126              	.LASF63:
 17127 0a03 44495350 		.ascii	"DISPENSER_EXECUTE_CREDIT_TRANSACTION\000"
 17127      454E5345 
 17127      525F4558 
 17127      45435554 
 17127      455F4352 
 17128              	.LASF79:
 17129 0a28 5052494E 		.ascii	"PRINTER2_GENERIC_JOB\000"
 17129      54455232 
 17129      5F47454E 
 17129      45524943 
 17129      5F4A4F42 
 17130              	.LASF170:
 17131 0a3d 44495350 		.ascii	"DISPLAY_POR_FAVOR_ESPERE\000"
 17131      4C41595F 
 17131      504F525F 
 17131      4641564F 
 17131      525F4553 
 17132              	.LASF413:
 17133 0a56 52465F4D 		.ascii	"RF_MUX_STATE_REQUEST\000"
 17133      55585F53 
 17133      54415445 
 17133      5F524551 
 17133      55455354 
 17134              	.LASF419:
 17135 0a6b 52465F4D 		.ascii	"RF_MUX_CREDIT_PRESET_NOTIFICATION_REQUEST\000"
 17135      55585F43 
 17135      52454449 
 17135      545F5052 
 17135      45534554 
 17136              	.LASF175:
 17137 0a95 44495350 		.ascii	"DISPLAY_FECHA\000"
 17137      4C41595F 
 17137      46454348 
 17137      4100
 17138              	.LASF328:
 17139 0aa3 5F726565 		.ascii	"_reenqueue\000"
 17139      6E717565 
 17139      756500
 17140              	.LASF509:
ARM GAS  C:\Users\Lenovo\AppData\Local\Temp\cccA9qMw.s 			page 359


 17141 0aae 50756D70 		.ascii	"PumpFullPresetNoHose\000"
 17141      46756C6C 
 17141      50726573 
 17141      65744E6F 
 17141      486F7365 
 17142              	.LASF323:
 17143 0ac3 50756D70 		.ascii	"PumpTransactionJob\000"
 17143      5472616E 
 17143      73616374 
 17143      696F6E4A 
 17143      6F6200
 17144              	.LASF0:
 17145 0ad6 7369676E 		.ascii	"signed char\000"
 17145      65642063 
 17145      68617200 
 17146              	.LASF11:
 17147 0ae2 75696E74 		.ascii	"uint8_t\000"
 17147      385F7400 
 17148              	.LASF494:
 17149 0aea 50756D70 		.ascii	"PumpStartupAuthorization\000"
 17149      53746172 
 17149      74757041 
 17149      7574686F 
 17149      72697A61 
 17150              	.LASF156:
 17151 0b03 44495350 		.ascii	"DISPLAY_ID_DIGITAL\000"
 17151      4C41595F 
 17151      49445F44 
 17151      49474954 
 17151      414C00
 17152              	.LASF154:
 17153 0b16 44495350 		.ascii	"DISPLAY_TIEMPO_EXPIRADO\000"
 17153      4C41595F 
 17153      5449454D 
 17153      504F5F45 
 17153      58504952 
 17154              	.LASF544:
 17155 0b2e 5F706275 		.ascii	"_pbuffer\000"
 17155      66666572 
 17155      00
 17156              	.LASF109:
 17157 0b37 436C6561 		.ascii	"ClearRxBuffer\000"
 17157      72527842 
 17157      75666665 
 17157      7200
 17158              	.LASF106:
 17159 0b45 47657443 		.ascii	"GetChar\000"
 17159      68617200 
 17160              	.LASF414:
 17161 0b4d 52465F4D 		.ascii	"RF_MUX_STATE_RESPONSE\000"
 17161      55585F53 
 17161      54415445 
 17161      5F524553 
 17161      504F4E53 
 17162              	.LASF310:
 17163 0b63 52657370 		.ascii	"Response\000"
 17163      6F6E7365 
ARM GAS  C:\Users\Lenovo\AppData\Local\Temp\cccA9qMw.s 			page 360


 17163      00
 17164              	.LASF399:
 17165 0b6c 45455052 		.ascii	"EEPROM_DISPENSER_PUMP13_TRANSACTION_PAGE\000"
 17165      4F4D5F44 
 17165      49535045 
 17165      4E534552 
 17165      5F50554D 
 17166              	.LASF180:
 17167 0b95 44495350 		.ascii	"DISPLAY_USUARIO_VALIDO\000"
 17167      4C41595F 
 17167      55535541 
 17167      52494F5F 
 17167      56414C49 
 17168              	.LASF178:
 17169 0bac 44495350 		.ascii	"DISPLAY_CERRAR_TURNO\000"
 17169      4C41595F 
 17169      43455252 
 17169      41525F54 
 17169      55524E4F 
 17170              	.LASF339:
 17171 0bc1 5F707265 		.ascii	"_presponse\000"
 17171      73706F6E 
 17171      736500
 17172              	.LASF167:
 17173 0bcc 44495350 		.ascii	"DISPLAY_SELECCIONE_POSICION\000"
 17173      4C41595F 
 17173      53454C45 
 17173      4343494F 
 17173      4E455F50 
 17174              	.LASF121:
 17175 0be8 50454E44 		.ascii	"PENDING\000"
 17175      494E4700 
 17176              	.LASF85:
 17177 0bf0 44495350 		.ascii	"DISPLAY1_UPDATE_DATETIME\000"
 17177      4C415931 
 17177      5F555044 
 17177      4154455F 
 17177      44415445 
 17178              	.LASF368:
 17179 0c09 5F707265 		.ascii	"_presetdigits\000"
 17179      73657464 
 17179      69676974 
 17179      7300
 17180              	.LASF212:
 17181 0c17 4C52436E 		.ascii	"LRCn\000"
 17181      00
 17182              	.LASF1:
 17183 0c1c 756E7369 		.ascii	"unsigned char\000"
 17183      676E6564 
 17183      20636861 
 17183      7200
 17184              	.LASF356:
 17185 0c2a 5F6E756D 		.ascii	"_numpositions\000"
 17185      706F7369 
 17185      74696F6E 
 17185      7300
 17186              	.LASF141:
ARM GAS  C:\Users\Lenovo\AppData\Local\Temp\cccA9qMw.s 			page 361


 17187 0c38 44495350 		.ascii	"DISPLAY_INTRODUZCA_VALOR\000"
 17187      4C41595F 
 17187      494E5452 
 17187      4F44555A 
 17187      43415F56 
 17188              	.LASF421:
 17189 0c51 52465F4D 		.ascii	"RF_MUX_CASH_SALE_START_REQUEST\000"
 17189      55585F43 
 17189      4153485F 
 17189      53414C45 
 17189      5F535441 
 17190              	.LASF542:
 17191 0c70 706A6F62 		.ascii	"pjobcntr\000"
 17191      636E7472 
 17191      00
 17192              	.LASF270:
 17193 0c79 5F736572 		.ascii	"_serial\000"
 17193      69616C00 
 17194              	.LASF169:
 17195 0c81 44495350 		.ascii	"DISPLAY_ESPERANDO_AUTORIZACION\000"
 17195      4C41595F 
 17195      45535045 
 17195      52414E44 
 17195      4F5F4155 
 17196              	.LASF534:
 17197 0ca0 50756D70 		.ascii	"PumpEnumeratorTimeout\000"
 17197      456E756D 
 17197      65726174 
 17197      6F725469 
 17197      6D656F75 
 17198              	.LASF493:
 17199 0cb6 70756172 		.ascii	"puartdisp\000"
 17199      74646973 
 17199      7000
 17200              	.LASF119:
 17201 0cc0 46524545 		.ascii	"FREE\000"
 17201      00
 17202              	.LASF457:
 17203 0cc5 52465F57 		.ascii	"RF_WORKSHIFTREQ\000"
 17203      4F524B53 
 17203      48494654 
 17203      52455100 
 17204              	.LASF327:
 17205 0cd5 50756D70 		.ascii	"PumpTransaction\000"
 17205      5472616E 
 17205      73616374 
 17205      696F6E00 
 17206              	.LASF481:
 17207 0ce5 65657072 		.ascii	"eeprompage\000"
 17207      6F6D7061 
 17207      676500
 17208              	.LASF67:
 17209 0cf0 44495350 		.ascii	"DISPENSER_ACQUIRE_CONFIGURATION_INFORMATION\000"
 17209      454E5345 
 17209      525F4143 
 17209      51554952 
 17209      455F434F 
ARM GAS  C:\Users\Lenovo\AppData\Local\Temp\cccA9qMw.s 			page 362


 17210              	.LASF42:
 17211 0d1c 5F6D6573 		.ascii	"_messagedelay\000"
 17211      73616765 
 17211      64656C61 
 17211      7900
 17212              	.LASF363:
 17213 0d2a 5F766F6C 		.ascii	"_volumedecimals\000"
 17213      756D6564 
 17213      6563696D 
 17213      616C7300 
 17214              	.LASF50:
 17215 0d3a 5F426F6F 		.ascii	"_Bool\000"
 17215      6C00
 17216              	.LASF358:
 17217 0d40 5F686F73 		.ascii	"_hosesposition2\000"
 17217      6573706F 
 17217      73697469 
 17217      6F6E3200 
 17218              	.LASF269:
 17219 0d50 5F766F6C 		.ascii	"_volumeamount\000"
 17219      756D6561 
 17219      6D6F756E 
 17219      7400
 17220              	.LASF549:
 17221 0d5e 43617374 		.ascii	"CastVolumeValue\000"
 17221      566F6C75 
 17221      6D655661 
 17221      6C756500 
 17222              	.LASF110:
 17223 0d6e 57726974 		.ascii	"WriteTxData\000"
 17223      65547844 
 17223      61746100 
 17224              	.LASF36:
 17225 0d7a 53494E4B 		.ascii	"SINK_ALLOCATED\000"
 17225      5F414C4C 
 17225      4F434154 
 17225      454400
 17226              	.LASF350:
 17227 0d89 5065656B 		.ascii	"Peek\000"
 17227      00
 17228              	.LASF301:
 17229 0d8e 50756D70 		.ascii	"PumpTransQueueDequeue\000"
 17229      5472616E 
 17229      73517565 
 17229      75654465 
 17229      71756575 
 17230              	.LASF21:
 17231 0da4 63686172 		.ascii	"char\000"
 17231      00
 17232              	.LASF440:
 17233 0da9 52465F4D 		.ascii	"RF_MUX_LAST_CASH_SALE_RESPONSE\000"
 17233      55585F4C 
 17233      4153545F 
 17233      43415348 
 17233      5F53414C 
 17234              	.LASF433:
 17235 0dc8 52465F4D 		.ascii	"RF_MUX_CREDIT_SALE_PRINT_REQUEST\000"
ARM GAS  C:\Users\Lenovo\AppData\Local\Temp\cccA9qMw.s 			page 363


 17235      55585F43 
 17235      52454449 
 17235      545F5341 
 17235      4C455F50 
 17236              	.LASF182:
 17237 0de9 44495350 		.ascii	"DISPLAY_AMBAS_IMPRESORAS_FUNCIONANDO\000"
 17237      4C41595F 
 17237      414D4241 
 17237      535F494D 
 17237      50524553 
 17238              	.LASF31:
 17239 0e0e 42524F41 		.ascii	"BROADCASTFOREVER\000"
 17239      44434153 
 17239      54464F52 
 17239      45564552 
 17239      00
 17240              	.LASF88:
 17241 0e1f 44495350 		.ascii	"DISPLAY2_MESSAGE\000"
 17241      4C415932 
 17241      5F4D4553 
 17241      53414745 
 17241      00
 17242              	.LASF211:
 17243 0e30 5052446E 		.ascii	"PRDn\000"
 17243      00
 17244              	.LASF499:
 17245 0e35 50756D70 		.ascii	"PumpDataToPump\000"
 17245      44617461 
 17245      546F5075 
 17245      6D7000
 17246              	.LASF317:
 17247 0e44 5F6F6E65 		.ascii	"_oneshotpreconditions\000"
 17247      73686F74 
 17247      70726563 
 17247      6F6E6469 
 17247      74696F6E 
 17248              	.LASF130:
 17249 0e5a 55415254 		.ascii	"UART_PRINTER\000"
 17249      5F505249 
 17249      4E544552 
 17249      00
 17250              	.LASF386:
 17251 0e67 45455052 		.ascii	"EEPROM_DISPENSER_PUMP2_PRODUCT_NAMES_PAGE\000"
 17251      4F4D5F44 
 17251      49535045 
 17251      4E534552 
 17251      5F50554D 
 17252              	.LASF361:
 17253 0e91 5F6D6F6E 		.ascii	"_moneydecimals\000"
 17253      65796465 
 17253      63696D61 
 17253      6C7300
 17254              	.LASF105:
 17255 0ea0 52656164 		.ascii	"ReadRxStatus\000"
 17255      52785374 
 17255      61747573 
 17255      00
ARM GAS  C:\Users\Lenovo\AppData\Local\Temp\cccA9qMw.s 			page 364


 17256              	.LASF194:
 17257 0ead 50535452 		.ascii	"PSTR\000"
 17257      00
 17258              	.LASF365:
 17259 0eb2 5F6D696E 		.ascii	"_minmoneyvalue\000"
 17259      6D6F6E65 
 17259      7976616C 
 17259      756500
 17260              	.LASF532:
 17261 0ec1 76617230 		.ascii	"var0\000"
 17261      00
 17262              	.LASF283:
 17263 0ec6 5F706F73 		.ascii	"_positionlocked\000"
 17263      6974696F 
 17263      6E6C6F63 
 17263      6B656400 
 17264              	.LASF340:
 17265 0ed6 5F707075 		.ascii	"_ppump\000"
 17265      6D7000
 17266              	.LASF240:
 17267 0edd 5F50554D 		.ascii	"_PUMP_TRANS_STATE_\000"
 17267      505F5452 
 17267      414E535F 
 17267      53544154 
 17267      455F00
 17268              	.LASF403:
 17269 0ef0 45455052 		.ascii	"EEPROM_DISPENSER_PUMP23_TRANSACTION_PAGE\000"
 17269      4F4D5F44 
 17269      49535045 
 17269      4E534552 
 17269      5F50554D 
 17270              	.LASF533:
 17271 0f19 76617231 		.ascii	"var1\000"
 17271      00
 17272              	.LASF115:
 17273 0f1e 50757443 		.ascii	"PutCRLF\000"
 17273      524C4600 
 17274              	.LASF527:
 17275 0f26 70627566 		.ascii	"pbuffer\000"
 17275      66657200 
 17276              	.LASF505:
 17277 0f2e 50756D70 		.ascii	"PumpPresetNotification\000"
 17277      50726573 
 17277      65744E6F 
 17277      74696669 
 17277      63617469 
 17278              	.LASF294:
 17279 0f45 5F747261 		.ascii	"_transqueuelocked\000"
 17279      6E737175 
 17279      6575656C 
 17279      6F636B65 
 17279      6400
 17280              	.LASF517:
 17281 0f57 41637175 		.ascii	"AcquirePumpCompleteConfiguration\000"
 17281      69726550 
 17281      756D7043 
 17281      6F6D706C 
ARM GAS  C:\Users\Lenovo\AppData\Local\Temp\cccA9qMw.s 			page 365


 17281      65746543 
 17282              	.LASF205:
 17283 0f78 50554D50 		.ascii	"PUMP_TOTALS_DATA_REQUEST\000"
 17283      5F544F54 
 17283      414C535F 
 17283      44415441 
 17283      5F524551 
 17284              	.LASF218:
 17285 0f91 50554D50 		.ascii	"PUMP_BUSY\000"
 17285      5F425553 
 17285      5900
 17286              	.LASF147:
 17287 0f9b 44495350 		.ascii	"DISPLAY_BAJE_MANIJA\000"
 17287      4C41595F 
 17287      42414A45 
 17287      5F4D414E 
 17287      494A4100 
 17288              	.LASF477:
 17289 0faf 50726F63 		.ascii	"ProcessPumpRTMoneyRequest\000"
 17289      65737350 
 17289      756D7052 
 17289      544D6F6E 
 17289      65795265 
 17290              	.LASF75:
 17291 0fc9 5052494E 		.ascii	"PRINTER12_JOB\000"
 17291      54455231 
 17291      325F4A4F 
 17291      4200
 17292              	.LASF384:
 17293 0fd7 45455052 		.ascii	"EEPROM_DISPENSER_PUMP4_LAYOUT_PAGE\000"
 17293      4F4D5F44 
 17293      49535045 
 17293      4E534552 
 17293      5F50554D 
 17294              	.LASF224:
 17295 0ffa 5F545241 		.ascii	"_TRANSACTION_NAMES_\000"
 17295      4E534143 
 17295      54494F4E 
 17295      5F4E414D 
 17295      45535F00 
 17296              	.LASF43:
 17297 100e 5F6D6573 		.ascii	"_messagetimeout\000"
 17297      73616765 
 17297      74696D65 
 17297      6F757400 
 17298              	.LASF417:
 17299 101e 52465F4D 		.ascii	"RF_MUX_CREDIT_PRESET_AUTHORIZATION_REQUEST\000"
 17299      55585F43 
 17299      52454449 
 17299      545F5052 
 17299      45534554 
 17300              	.LASF475:
 17301 1049 41637175 		.ascii	"AcquireDatatoPumpResponse\000"
 17301      69726544 
 17301      61746174 
 17301      6F50756D 
 17301      70526573 
ARM GAS  C:\Users\Lenovo\AppData\Local\Temp\cccA9qMw.s 			page 366


 17302              	.LASF140:
 17303 1063 44495350 		.ascii	"DISPLAY_FORMA_PROGRAMACION\000"
 17303      4C41595F 
 17303      464F524D 
 17303      415F5052 
 17303      4F475241 
 17304              	.LASF113:
 17305 107e 50757453 		.ascii	"PutString\000"
 17305      7472696E 
 17305      6700
 17306              	.LASF238:
 17307 1088 5F50554D 		.ascii	"_PUMP_COMPLETE_CONFIGURATION_\000"
 17307      505F434F 
 17307      4D504C45 
 17307      54455F43 
 17307      4F4E4649 
 17308              	.LASF352:
 17309 10a6 436C6561 		.ascii	"Clear\000"
 17309      7200
 17310              	.LASF551:
 17311 10ac 73686966 		.ascii	"shiftbydelimiter\000"
 17311      74627964 
 17311      656C696D 
 17311      69746572 
 17311      00
 17312              	.LASF99:
 17313 10bd 43757374 		.ascii	"CustomUARTSend\000"
 17313      6F6D5541 
 17313      52545365 
 17313      6E6400
 17314              	.LASF490:
 17315 10cc 50756D70 		.ascii	"PumpAuthorization\000"
 17315      41757468 
 17315      6F72697A 
 17315      6174696F 
 17315      6E00
 17316              	.LASF427:
 17317 10de 52465F4D 		.ascii	"RF_MUX_TOTALS_REPORT_REQUEST\000"
 17317      55585F54 
 17317      4F54414C 
 17317      535F5245 
 17317      504F5254 
 17318              	.LASF362:
 17319 10fb 5F707075 		.ascii	"_ppudecimals\000"
 17319      64656369 
 17319      6D616C73 
 17319      00
 17320              	.LASF273:
 17321 1108 5F70756D 		.ascii	"_pumpid\000"
 17321      70696400 
 17322              	.LASF525:
 17323 1110 41637175 		.ascii	"AcquireDispenserLayoutInformation\000"
 17323      69726544 
 17323      69737065 
 17323      6E736572 
 17323      4C61796F 
 17324              	.LASF136:
ARM GAS  C:\Users\Lenovo\AppData\Local\Temp\cccA9qMw.s 			page 367


 17325 1132 44495350 		.ascii	"DISPLAY_INICIO0\000"
 17325      4C41595F 
 17325      494E4943 
 17325      494F3000 
 17326              	.LASF137:
 17327 1142 44495350 		.ascii	"DISPLAY_INICIO1\000"
 17327      4C41595F 
 17327      494E4943 
 17327      494F3100 
 17328              	.LASF138:
 17329 1152 44495350 		.ascii	"DISPLAY_INICIO2\000"
 17329      4C41595F 
 17329      494E4943 
 17329      494F3200 
 17330              	.LASF29:
 17331 1162 44454C41 		.ascii	"DELAYEDALLINTERESTED\000"
 17331      59454441 
 17331      4C4C494E 
 17331      54455245 
 17331      53544544 
 17332              	.LASF291:
 17333 1177 5F727862 		.ascii	"_rxbuffer\000"
 17333      75666665 
 17333      7200
 17334              	.LASF315:
 17335 1181 5F726573 		.ascii	"_responsesize\000"
 17335      706F6E73 
 17335      6573697A 
 17335      6500
 17336              	.LASF347:
 17337 118f 526F7461 		.ascii	"Rotate\000"
 17337      746500
 17338              	.LASF250:
 17339 1196 504E4541 		.ascii	"PNEAR_PUMPTRANSACTIONALSTATEPTR\000"
 17339      525F5055 
 17339      4D505452 
 17339      414E5341 
 17339      4354494F 
 17340              	.LASF181:
 17341 11b6 44495350 		.ascii	"DISPLAY_USUARIO_INVALIDO\000"
 17341      4C41595F 
 17341      55535541 
 17341      52494F5F 
 17341      494E5641 
 17342              	.LASF463:
 17343 11cf 52465F4E 		.ascii	"RF_NON_AUTONOMOUS\000"
 17343      4F4E5F41 
 17343      55544F4E 
 17343      4F4D4F55 
 17343      5300
 17344              	.LASF541:
 17345 11e1 7074726A 		.ascii	"ptrjob\000"
 17345      6F6200
 17346              	.LASF392:
 17347 11e8 45455052 		.ascii	"EEPROM_DISPENSER_PUMP4_PPU_INFO_PAGE\000"
 17347      4F4D5F44 
 17347      49535045 
ARM GAS  C:\Users\Lenovo\AppData\Local\Temp\cccA9qMw.s 			page 368


 17347      4E534552 
 17347      5F50554D 
 17348              	.LASF80:
 17349 120d 5052494E 		.ascii	"PRINTER1_GENERIC_JOB_LOGO\000"
 17349      54455231 
 17349      5F47454E 
 17349      45524943 
 17349      5F4A4F42 
 17350              	.LASF290:
 17351 1227 5F747261 		.ascii	"_trasactionbuffer\000"
 17351      73616374 
 17351      696F6E62 
 17351      75666665 
 17351      7200
 17352              	.LASF545:
 17353 1239 46696E64 		.ascii	"FindLRC\000"
 17353      4C524300 
 17354              	.LASF559:
 17355 1241 5F675F70 		.ascii	"_g_pumps\000"
 17355      756D7073 
 17355      00
 17356              	.LASF349:
 17357 124a 456E7175 		.ascii	"Enqueue\000"
 17357      65756500 
 17358              	.LASF524:
 17359 1252 7073696E 		.ascii	"psinkmsg\000"
 17359      6B6D7367 
 17359      00
 17360              	.LASF511:
 17361 125b 62756666 		.ascii	"bufferlength\000"
 17361      65726C65 
 17361      6E677468 
 17361      00
 17362              	.LASF271:
 17363 1268 50756D70 		.ascii	"PumpAuthorizationInfo\000"
 17363      41757468 
 17363      6F72697A 
 17363      6174696F 
 17363      6E496E66 
 17364              	.LASF393:
 17365 127e 45455052 		.ascii	"EEPROM_INSEPET_RESERVED_PAGE1\000"
 17365      4F4D5F49 
 17365      4E534550 
 17365      45545F52 
 17365      45534552 
 17366              	.LASF394:
 17367 129c 45455052 		.ascii	"EEPROM_INSEPET_RESERVED_PAGE2\000"
 17367      4F4D5F49 
 17367      4E534550 
 17367      45545F52 
 17367      45534552 
 17368              	.LASF395:
 17369 12ba 45455052 		.ascii	"EEPROM_INSEPET_RESERVED_PAGE3\000"
 17369      4F4D5F49 
 17369      4E534550 
 17369      45545F52 
 17369      45534552 
ARM GAS  C:\Users\Lenovo\AppData\Local\Temp\cccA9qMw.s 			page 369


 17370              	.LASF396:
 17371 12d8 45455052 		.ascii	"EEPROM_INSEPET_RESERVED_PAGE4\000"
 17371      4F4D5F49 
 17371      4E534550 
 17371      45545F52 
 17371      45534552 
 17372              	.LASF287:
 17373 12f6 5F727476 		.ascii	"_rtvolumeamount\000"
 17373      6F6C756D 
 17373      65616D6F 
 17373      756E7400 
 17374              	.LASF330:
 17375 1306 5F64656C 		.ascii	"_delay\000"
 17375      617900
 17376              	.LASF388:
 17377 130d 45455052 		.ascii	"EEPROM_DISPENSER_PUMP4_PRODUCT_NAMES_PAGE\000"
 17377      4F4D5F44 
 17377      49535045 
 17377      4E534552 
 17377      5F50554D 
 17378              	.LASF437:
 17379 1337 52465F4D 		.ascii	"RF_MUX_PENDING_CREDIT_SALE_REQUEST\000"
 17379      55585F50 
 17379      454E4449 
 17379      4E475F43 
 17379      52454449 
 17380              	.LASF552:
 17381 135a 73686966 		.ascii	"shiftcount\000"
 17381      74636F75 
 17381      6E7400
 17382              	.LASF32:
 17383 1365 414C4C49 		.ascii	"ALLINTERESTEDFOREVER\000"
 17383      4E544552 
 17383      45535445 
 17383      44464F52 
 17383      45564552 
 17384              	.LASF535:
 17385 137a 41637175 		.ascii	"AcquirePumpSpecialFunctionResponseResolver\000"
 17385      69726550 
 17385      756D7053 
 17385      70656369 
 17385      616C4675 
 17386              	.LASF354:
 17387 13a5 5F696E63 		.ascii	"_inconfiguration\000"
 17387      6F6E6669 
 17387      67757261 
 17387      74696F6E 
 17387      00
 17388              	.LASF232:
 17389 13b6 5F50554D 		.ascii	"_PUMP_STATE_\000"
 17389      505F5354 
 17389      4154455F 
 17389      00
 17390              	.LASF546:
 17391 13c3 496E6974 		.ascii	"InitiateTransaction\000"
 17391      69617465 
 17391      5472616E 
ARM GAS  C:\Users\Lenovo\AppData\Local\Temp\cccA9qMw.s 			page 370


 17391      73616374 
 17391      696F6E00 
 17392              	.LASF7:
 17393 13d7 6C6F6E67 		.ascii	"long unsigned int\000"
 17393      20756E73 
 17393      69676E65 
 17393      6420696E 
 17393      7400
 17394              	.LASF239:
 17395 13e9 5F50554D 		.ascii	"_PUMP_PROGRAM_MODE_\000"
 17395      505F5052 
 17395      4F475241 
 17395      4D5F4D4F 
 17395      44455F00 
 17396              	.LASF186:
 17397 13fd 44495350 		.ascii	"DISPLAY_DUMMY0\000"
 17397      4C41595F 
 17397      44554D4D 
 17397      593000
 17398              	.LASF187:
 17399 140c 44495350 		.ascii	"DISPLAY_DUMMY1\000"
 17399      4C41595F 
 17399      44554D4D 
 17399      593100
 17400              	.LASF188:
 17401 141b 44495350 		.ascii	"DISPLAY_DUMMY2\000"
 17401      4C41595F 
 17401      44554D4D 
 17401      593200
 17402              	.LASF189:
 17403 142a 44495350 		.ascii	"DISPLAY_DUMMY3\000"
 17403      4C41595F 
 17403      44554D4D 
 17403      593300
 17404              	.LASF243:
 17405 1439 5F50554D 		.ascii	"_PUMP_UNKNOWN_\000"
 17405      505F554E 
 17405      4B4E4F57 
 17405      4E5F00
 17406              	.LASF567:
 17407 1448 433A5C55 		.ascii	"C:\\Users\\Lenovo\\Documents\\GitHub\\CorEx-MUX-Ker"
 17407      73657273 
 17407      5C4C656E 
 17407      6F766F5C 
 17407      446F6375 
 17408 1476 6E656C2D 		.ascii	"nel-Enhanced\\Workspace01\\CorEx-Mux-Kernel.cydsn\000"
 17408      456E6861 
 17408      6E636564 
 17408      5C576F72 
 17408      6B737061 
 17409              	.LASF515:
 17410 14a6 50756D70 		.ascii	"PumpStopAllRequest\000"
 17410      53746F70 
 17410      416C6C52 
 17410      65717565 
 17410      737400
 17411              	.LASF166:
ARM GAS  C:\Users\Lenovo\AppData\Local\Temp\cccA9qMw.s 			page 371


 17412 14b9 44495350 		.ascii	"DISPLAY_IMPRIMIENDO_RECIBO\000"
 17412      4C41595F 
 17412      494D5052 
 17412      494D4945 
 17412      4E444F5F 
 17413              	.LASF474:
 17414 14d4 41637175 		.ascii	"AcquirePumpStateResponse\000"
 17414      69726550 
 17414      756D7053 
 17414      74617465 
 17414      52657370 
 17415              	.LASF424:
 17416 14ed 52465F4D 		.ascii	"RF_MUX_CASH_SALE_END_REPORT_RESPONSE\000"
 17416      55585F43 
 17416      4153485F 
 17416      53414C45 
 17416      5F454E44 
 17417              	.LASF425:
 17418 1512 52465F4D 		.ascii	"RF_MUX_TOTALS_REQUEST\000"
 17418      55585F54 
 17418      4F54414C 
 17418      535F5245 
 17418      51554553 
 17419              	.LASF48:
 17420 1528 5F706461 		.ascii	"_pdata\000"
 17420      746100
 17421              	.LASF547:
 17422 152f 5465726D 		.ascii	"TerminateTransaction\000"
 17422      696E6174 
 17422      65547261 
 17422      6E736163 
 17422      74696F6E 
 17423              	.LASF197:
 17424 1544 5F504F49 		.ascii	"_POINT_AS_DECIMAL_SEPARATOR_\000"
 17424      4E545F41 
 17424      535F4445 
 17424      43494D41 
 17424      4C5F5345 
 17425              	.LASF279:
 17426 1561 5F726573 		.ascii	"_restoreprice\000"
 17426      746F7265 
 17426      70726963 
 17426      6500
 17427              	.LASF322:
 17428 156f 46696E61 		.ascii	"Finalization\000"
 17428      6C697A61 
 17428      74696F6E 
 17428      00
 17429              	.LASF49:
 17430 157c 43616C6C 		.ascii	"Callback\000"
 17430      6261636B 
 17430      00
 17431              	.LASF61:
 17432 1585 44495350 		.ascii	"DISPENSER_ACQUIRE_PUMP_HOSE\000"
 17432      454E5345 
 17432      525F4143 
 17432      51554952 
ARM GAS  C:\Users\Lenovo\AppData\Local\Temp\cccA9qMw.s 			page 372


 17432      455F5055 
 17433              	.LASF486:
 17434 15a1 70747374 		.ascii	"ptstemp\000"
 17434      656D7000 
 17435              	.LASF531:
 17436 15a9 41637175 		.ascii	"AcquirePumpEnumeratorResponse\000"
 17436      69726550 
 17436      756D7045 
 17436      6E756D65 
 17436      7261746F 
 17437              	.LASF338:
 17438 15c7 5F707265 		.ascii	"_prequest\000"
 17438      71756573 
 17438      7400
 17439              	.LASF465:
 17440 15d1 5F74696D 		.ascii	"_timeouttoautonomous\000"
 17440      656F7574 
 17440      746F6175 
 17440      746F6E6F 
 17440      6D6F7573 
 17441              	.LASF451:
 17442 15e6 52465F4D 		.ascii	"RF_MUX_NULL\000"
 17442      55585F4E 
 17442      554C4C00 
 17443              	.LASF131:
 17444 15f2 55415254 		.ascii	"UART_DISPENSER\000"
 17444      5F444953 
 17444      50454E53 
 17444      455200
 17445              	.LASF159:
 17446 1601 44495350 		.ascii	"DISPLAY_ID_RECONOCIDO\000"
 17446      4C41595F 
 17446      49445F52 
 17446      45434F4E 
 17446      4F434944 
 17447              	.LASF336:
 17448 1617 5F74696D 		.ascii	"_timeoutseed\000"
 17448      656F7574 
 17448      73656564 
 17448      00
 17449              	.LASF529:
 17450 1624 72657476 		.ascii	"retval\000"
 17450      616C00
 17451              	.LASF410:
 17452 162b 45455052 		.ascii	"EEPROM_DISPENSER_PUMP42_TRANSACTION_PAGE\000"
 17452      4F4D5F44 
 17452      49535045 
 17452      4E534552 
 17452      5F50554D 
 17453              	.LASF272:
 17454 1654 5F50554D 		.ascii	"_PUMP_LAYOUT_\000"
 17454      505F4C41 
 17454      594F5554 
 17454      5F00
 17455              	.LASF538:
 17456 1662 41637175 		.ascii	"AcquirePpuChangeResponse\000"
 17456      69726550 
ARM GAS  C:\Users\Lenovo\AppData\Local\Temp\cccA9qMw.s 			page 373


 17456      70754368 
 17456      616E6765 
 17456      52657370 
 17457              	.LASF502:
 17458 167b 62756666 		.ascii	"buffndx\000"
 17458      6E647800 
 17459              	.LASF95:
 17460 1683 57415443 		.ascii	"WATCHDOG_STARTUP\000"
 17460      48444F47 
 17460      5F535441 
 17460      52545550 
 17460      00
 17461              	.LASF183:
 17462 1694 44495350 		.ascii	"DISPLAY_IMPRESORA_NO_FUNCIONANDO\000"
 17462      4C41595F 
 17462      494D5052 
 17462      45534F52 
 17462      415F4E4F 
 17463              	.LASF74:
 17464 16b5 5052494E 		.ascii	"PRINTER11_JOB\000"
 17464      54455231 
 17464      315F4A4F 
 17464      4200
 17465              	.LASF543:
 17466 16c3 4765744C 		.ascii	"GetLRC\000"
 17466      524300
 17467              	.LASF150:
 17468 16ca 44495350 		.ascii	"DISPLAY_INGRESE_PASSWORD\000"
 17468      4C41595F 
 17468      494E4752 
 17468      4553455F 
 17468      50415353 
 17469              	.LASF426:
 17470 16e3 52465F4D 		.ascii	"RF_MUX_TOTALS_RESPONSE\000"
 17470      55585F54 
 17470      4F54414C 
 17470      535F5245 
 17470      53504F4E 
 17471              	.LASF8:
 17472 16fa 6C6F6E67 		.ascii	"long long int\000"
 17472      206C6F6E 
 17472      6720696E 
 17472      7400
 17473              	.LASF325:
 17474 1708 5F747261 		.ascii	"_transactionname\000"
 17474      6E736163 
 17474      74696F6E 
 17474      6E616D65 
 17474      00
 17475              	.LASF171:
 17476 1719 44495350 		.ascii	"DISPLAY_AUTORIZACION_ACEPTADA\000"
 17476      4C41595F 
 17476      4155544F 
 17476      52495A41 
 17476      43494F4E 
 17477              	.LASF149:
 17478 1737 44495350 		.ascii	"DISPLAY_DESEA_IMPRIMIR_RECIBO\000"
ARM GAS  C:\Users\Lenovo\AppData\Local\Temp\cccA9qMw.s 			page 374


 17478      4C41595F 
 17478      44455345 
 17478      415F494D 
 17478      5052494D 
 17479              	.LASF155:
 17480 1755 44495350 		.ascii	"DISPLAY_GRACIAS_VUELVA_PRONTO\000"
 17480      4C41595F 
 17480      47524143 
 17480      4941535F 
 17480      5655454C 
 17481              	.LASF454:
 17482 1773 52465F44 		.ascii	"RF_DELIVERING\000"
 17482      454C4956 
 17482      4552494E 
 17482      4700
 17483              	.LASF59:
 17484 1781 44495350 		.ascii	"DISPENSER_UPDATE_PUMP_TRANSACTION_TIMEOUTS\000"
 17484      454E5345 
 17484      525F5550 
 17484      44415445 
 17484      5F50554D 
 17485              	.LASF435:
 17486 17ac 52465F4D 		.ascii	"RF_MUX_CASH_SALE_PRINT_REQUEST\000"
 17486      55585F43 
 17486      4153485F 
 17486      53414C45 
 17486      5F505249 
 17487              	.LASF526:
 17488 17cb 70747262 		.ascii	"ptrbuff\000"
 17488      75666600 
 17489              	.LASF116:
 17490 17d3 436C6561 		.ascii	"ClearTxBuffer\000"
 17490      72547842 
 17490      75666665 
 17490      7200
 17491              	.LASF18:
 17492 17e1 646F7562 		.ascii	"double\000"
 17492      6C6500
 17493              	.LASF406:
 17494 17e8 45455052 		.ascii	"EEPROM_DISPENSER_PUMP32_TRANSACTION_PAGE\000"
 17494      4F4D5F44 
 17494      49535045 
 17494      4E534552 
 17494      5F50554D 
 17495              	.LASF151:
 17496 1811 44495350 		.ascii	"DISPLAY_PASSWORD_VALIDO\000"
 17496      4C41595F 
 17496      50415353 
 17496      574F5244 
 17496      5F56414C 
 17497              	.LASF143:
 17498 1829 44495350 		.ascii	"DISPLAY_SELECCIONE_PRODUCTO3\000"
 17498      4C41595F 
 17498      53454C45 
 17498      4343494F 
 17498      4E455F50 
 17499              	.LASF144:
ARM GAS  C:\Users\Lenovo\AppData\Local\Temp\cccA9qMw.s 			page 375


 17500 1846 44495350 		.ascii	"DISPLAY_SELECCIONE_PRODUCTO4\000"
 17500      4C41595F 
 17500      53454C45 
 17500      4343494F 
 17500      4E455F50 
 17501              	.LASF208:
 17502 1863 50554D50 		.ascii	"PUMP_ALL_PUMPS_STOP\000"
 17502      5F414C4C 
 17502      5F50554D 
 17502      50535F53 
 17502      544F5000 
 17503              	.LASF152:
 17504 1877 44495350 		.ascii	"DISPLAY_PASSWORD_INVALIDO\000"
 17504      4C41595F 
 17504      50415353 
 17504      574F5244 
 17504      5F494E56 
 17505              	.LASF286:
 17506 1891 5F72746D 		.ascii	"_rtmoneyamount\000"
 17506      6F6E6579 
 17506      616D6F75 
 17506      6E7400
 17507              	.LASF557:
 17508 18a0 49544D5F 		.ascii	"ITM_RxBuffer\000"
 17508      52784275 
 17508      66666572 
 17508      00
 17509              	.LASF38:
 17510 18ad 5F73656C 		.ascii	"_selfkill\000"
 17510      666B696C 
 17510      6C00
 17511              	.LASF17:
 17512 18b7 666C6F61 		.ascii	"float\000"
 17512      7400
 17513              	.LASF521:
 17514 18bd 70747265 		.ascii	"ptreeprom\000"
 17514      6570726F 
 17514      6D00
 17515              	.LASF409:
 17516 18c7 45455052 		.ascii	"EEPROM_DISPENSER_PUMP41_TRANSACTION_PAGE\000"
 17516      4F4D5F44 
 17516      49535045 
 17516      4E534552 
 17516      5F50554D 
 17517              	.LASF245:
 17518 18f0 5F50554D 		.ascii	"_PUMP_OK_\000"
 17518      505F4F4B 
 17518      5F00
 17519              	.LASF397:
 17520 18fa 45455052 		.ascii	"EEPROM_DISPENSER_PUMP11_TRANSACTION_PAGE\000"
 17520      4F4D5F44 
 17520      49535045 
 17520      4E534552 
 17520      5F50554D 
 17521              	.LASF548:
 17522 1923 5465726D 		.ascii	"TerminateTransactionAndPrint\000"
 17522      696E6174 
ARM GAS  C:\Users\Lenovo\AppData\Local\Temp\cccA9qMw.s 			page 376


 17522      65547261 
 17522      6E736163 
 17522      74696F6E 
 17523              	.LASF563:
 17524 1940 5F675F70 		.ascii	"_g_ptractprogramming\000"
 17524      74726163 
 17524      7470726F 
 17524      6772616D 
 17524      6D696E67 
 17525              	.LASF263:
 17526 1955 50756D70 		.ascii	"PumpDataContainer\000"
 17526      44617461 
 17526      436F6E74 
 17526      61696E65 
 17526      7200
 17527              	.LASF331:
 17528 1967 5F64656C 		.ascii	"_delaymultiplier\000"
 17528      61796D75 
 17528      6C746970 
 17528      6C696572 
 17528      00
 17529              	.LASF564:
 17530 1978 5F675F73 		.ascii	"_g_sfcharmap\000"
 17530      66636861 
 17530      726D6170 
 17530      00
 17531              	.LASF267:
 17532 1985 5F707269 		.ascii	"_price\000"
 17532      636500
 17533              	.LASF10:
 17534 198c 756E7369 		.ascii	"unsigned int\000"
 17534      676E6564 
 17534      20696E74 
 17534      00
 17535              	.LASF111:
 17536 1999 52656164 		.ascii	"ReadTxStatus\000"
 17536      54785374 
 17536      61747573 
 17536      00
 17537              	.LASF512:
 17538 19a6 50756D70 		.ascii	"PumpDefault2CreditPpuChange\000"
 17538      44656661 
 17538      756C7432 
 17538      43726564 
 17538      69745070 
 17539              	.LASF319:
 17540 19c2 5F6F6E65 		.ascii	"_oneshotpostconditions\000"
 17540      73686F74 
 17540      706F7374 
 17540      636F6E64 
 17540      6974696F 
 17541              	.LASF157:
 17542 19d9 44495350 		.ascii	"DISPLAY_ID_NO_RECONOCIDO\000"
 17542      4C41595F 
 17542      49445F4E 
 17542      4F5F5245 
 17542      434F4E4F 
ARM GAS  C:\Users\Lenovo\AppData\Local\Temp\cccA9qMw.s 			page 377


 17543              	.LASF51:
 17544 19f2 5053494E 		.ascii	"PSINKMESSAGEPTR\000"
 17544      4B4D4553 
 17544      53414745 
 17544      50545200 
 17545              	.LASF528:
 17546 1a02 62756666 		.ascii	"buffersize\000"
 17546      65727369 
 17546      7A6500
 17547              	.LASF550:
 17548 1a0d 64656C69 		.ascii	"delimiterindex\000"
 17548      6D697465 
 17548      72696E64 
 17548      657800
 17549              	.LASF148:
 17550 1a1c 44495350 		.ascii	"DISPLAY_DIGITE_PLACA\000"
 17550      4C41595F 
 17550      44494749 
 17550      54455F50 
 17550      4C414341 
 17551              	.LASF26:
 17552 1a31 42524F41 		.ascii	"BROADCAST\000"
 17552      44434153 
 17552      5400
 17553              	.LASF97:
 17554 1a3b 5F554152 		.ascii	"_UART_MANAGER_\000"
 17554      545F4D41 
 17554      4E414745 
 17554      525F00
 17555              	.LASF484:
 17556 1a4a 6E756D68 		.ascii	"numhoses\000"
 17556      6F736573 
 17556      00
 17557              	.LASF482:
 17558 1a53 50726F63 		.ascii	"ProcessPumpTotalsDataReport\000"
 17558      65737350 
 17558      756D7054 
 17558      6F74616C 
 17558      73446174 
 17559              	.LASF344:
 17560 1a6f 5F717565 		.ascii	"_queueindex\000"
 17560      7565696E 
 17560      64657800 
 17561              	.LASF566:
 17562 1a7b 2E5C4164 		.ascii	".\\AdvantageImpl.c\000"
 17562      76616E74 
 17562      61676549 
 17562      6D706C2E 
 17562      6300
 17563              	.LASF523:
 17564 1a8d 6D73676C 		.ascii	"msglength\000"
 17564      656E6774 
 17564      6800
 17565              	.LASF568:
 17566 1a97 5F706F69 		.ascii	"_pointcommadecimalmode\000"
 17566      6E74636F 
 17566      6D6D6164 
ARM GAS  C:\Users\Lenovo\AppData\Local\Temp\cccA9qMw.s 			page 378


 17566      6563696D 
 17566      616C6D6F 
 17567              	.LASF405:
 17568 1aae 45455052 		.ascii	"EEPROM_DISPENSER_PUMP31_TRANSACTION_PAGE\000"
 17568      4F4D5F44 
 17568      49535045 
 17568      4E534552 
 17568      5F50554D 
 17569              	.LASF134:
 17570 1ad7 55415254 		.ascii	"UART_NULL\000"
 17570      5F4E554C 
 17570      4C00
 17571              	.LASF423:
 17572 1ae1 52465F4D 		.ascii	"RF_MUX_CASH_SALE_END_REPORT_REQUEST\000"
 17572      55585F43 
 17572      4153485F 
 17572      53414C45 
 17572      5F454E44 
 17573              	.LASF516:
 17574 1b05 50756D70 		.ascii	"PumpCompleteConfiguration\000"
 17574      436F6D70 
 17574      6C657465 
 17574      436F6E66 
 17574      69677572 
 17575              	.LASF500:
 17576 1b1f 50756D70 		.ascii	"PumpCreditPresetHose\000"
 17576      43726564 
 17576      69745072 
 17576      65736574 
 17576      486F7365 
 17577              	.LASF556:
 17578 1b34 70747273 		.ascii	"ptrstr\000"
 17578      747200
 17579              	.LASF342:
 17580 1b3b 5050554D 		.ascii	"PPUMPTRANSACTIONJOBCONTEXTPTR\000"
 17580      50545241 
 17580      4E534143 
 17580      54494F4E 
 17580      4A4F4243 
 17581              	.LASF398:
 17582 1b59 45455052 		.ascii	"EEPROM_DISPENSER_PUMP12_TRANSACTION_PAGE\000"
 17582      4F4D5F44 
 17582      49535045 
 17582      4E534552 
 17582      5F50554D 
 17583              	.LASF522:
 17584 1b82 626C6B69 		.ascii	"blkindex\000"
 17584      6E646578 
 17584      00
 17585              	.LASF103:
 17586 1b8b 57726974 		.ascii	"WriteControlRegister\000"
 17586      65436F6E 
 17586      74726F6C 
 17586      52656769 
 17586      73746572 
 17587              	.LASF93:
 17588 1ba0 474C4F42 		.ascii	"GLOBAL_TICK_NOTIFICATION\000"
ARM GAS  C:\Users\Lenovo\AppData\Local\Temp\cccA9qMw.s 			page 379


 17588      414C5F54 
 17588      49434B5F 
 17588      4E4F5449 
 17588      46494341 
 17589              	.LASF216:
 17590 1bb9 50554D50 		.ascii	"PUMP_CALLING\000"
 17590      5F43414C 
 17590      4C494E47 
 17590      00
 17591              	.LASF27:
 17592 1bc6 46495253 		.ascii	"FIRSTFOUND\000"
 17592      54464F55 
 17592      4E4400
 17593              	.LASF459:
 17594 1bd1 52465F45 		.ascii	"RF_ERROR\000"
 17594      52524F52 
 17594      00
 17595              	.LASF24:
 17596 1bda 4C50564F 		.ascii	"LPVOID\000"
 17596      494400
 17597              	.LASF72:
 17598 1be1 44495350 		.ascii	"DISPENSER_PUMP_HANDLER\000"
 17598      454E5345 
 17598      525F5055 
 17598      4D505F48 
 17598      414E444C 
 17599              	.LASF335:
 17600 1bf8 5F726574 		.ascii	"_retriescounter\000"
 17600      72696573 
 17600      636F756E 
 17600      74657200 
 17601              	.LASF108:
 17602 1c08 47657452 		.ascii	"GetRxBufferSize\000"
 17602      78427566 
 17602      66657253 
 17602      697A6500 
 17603              	.LASF288:
 17604 1c18 5F747261 		.ascii	"_transhealth\000"
 17604      6E736865 
 17604      616C7468 
 17604      00
 17605              	.LASF455:
 17606 1c25 52465F43 		.ascii	"RF_CASHSALEREPORT\000"
 17606      41534853 
 17606      414C4552 
 17606      45504F52 
 17606      5400
 17607              	.LASF518:
 17608 1c37 72656D62 		.ascii	"remblocks\000"
 17608      6C6F636B 
 17608      7300
 17609              	.LASF401:
 17610 1c41 45455052 		.ascii	"EEPROM_DISPENSER_PUMP21_TRANSACTION_PAGE\000"
 17610      4F4D5F44 
 17610      49535045 
 17610      4E534552 
 17610      5F50554D 
ARM GAS  C:\Users\Lenovo\AppData\Local\Temp\cccA9qMw.s 			page 380


 17611              	.LASF190:
 17612 1c6a 44495350 		.ascii	"DISPLAY_SIDE_DUMMY_DISPLAY\000"
 17612      4C41595F 
 17612      53494445 
 17612      5F44554D 
 17612      4D595F44 
 17613              	.LASF173:
 17614 1c85 44495350 		.ascii	"DISPLAY_CONFIGURAR_FECHA_HORA\000"
 17614      4C41595F 
 17614      434F4E46 
 17614      49475552 
 17614      41525F46 
 17615              	.LASF428:
 17616 1ca3 52465F4D 		.ascii	"RF_MUX_TOTALS_REPORT_RESPONSE\000"
 17616      55585F54 
 17616      4F54414C 
 17616      535F5245 
 17616      504F5254 
 17617              	.LASF53:
 17618 1cc1 55415254 		.ascii	"UART_RF_RECEPTION\000"
 17618      5F52465F 
 17618      52454345 
 17618      5054494F 
 17618      4E00
 17619              	.LASF308:
 17620 1cd3 5F50554D 		.ascii	"_PUMP_TRANSACTION_JOB_\000"
 17620      505F5452 
 17620      414E5341 
 17620      4354494F 
 17620      4E5F4A4F 
 17621              	.LASF196:
 17622 1cea 5F444543 		.ascii	"_DECIMAL_SEPARATOR_\000"
 17622      494D414C 
 17622      5F534550 
 17622      41524154 
 17622      4F525F00 
 17623              	.LASF264:
 17624 1cfe 5F617574 		.ascii	"_authorized\000"
 17624      686F7269 
 17624      7A656400 
 17625              	.LASF23:
 17626 1d0a 6C6F6E67 		.ascii	"long double\000"
 17626      20646F75 
 17626      626C6500 
 17627              	.LASF348:
 17628 1d16 416C6C6F 		.ascii	"Allocate\000"
 17628      63617465 
 17628      00
 17629              	.LASF200:
 17630 1d1f 50554D50 		.ascii	"PUMP_STATE_REQUEST\000"
 17630      5F535441 
 17630      54455F52 
 17630      45515545 
 17630      535400
 17631              	.LASF226:
 17632 1d32 5F50554D 		.ascii	"_PUMP_FILL_BY_VOLUME_\000"
 17632      505F4649 
ARM GAS  C:\Users\Lenovo\AppData\Local\Temp\cccA9qMw.s 			page 381


 17632      4C4C5F42 
 17632      595F564F 
 17632      4C554D45 
 17633              	.LASF507:
 17634 1d48 50756D70 		.ascii	"PumpCreditPresetNotification\000"
 17634      43726564 
 17634      69745072 
 17634      65736574 
 17634      4E6F7469 
 17635              	.LASF248:
 17636 1d65 5F747261 		.ascii	"_transtate\000"
 17636      6E737461 
 17636      746500
 17637              	.LASF214:
 17638 1d70 50554D50 		.ascii	"PUMP_FAIL\000"
 17638      5F464149 
 17638      4C00
 17639              	.LASF100:
 17640 1d7a 53746172 		.ascii	"Start\000"
 17640      7400
 17641              	.LASF122:
 17642 1d80 5F554152 		.ascii	"_UART_MESSAGE_\000"
 17642      545F4D45 
 17642      53534147 
 17642      455F00
 17643              	.LASF168:
 17644 1d8f 44495350 		.ascii	"DISPLAY_OPERACION_CANCELADA\000"
 17644      4C41595F 
 17644      4F504552 
 17644      4143494F 
 17644      4E5F4341 
 17645              	.LASF163:
 17646 1dab 44495350 		.ascii	"DISPLAY_OPERACIONES\000"
 17646      4C41595F 
 17646      4F504552 
 17646      4143494F 
 17646      4E455300 
 17647              	.LASF220:
 17648 1dbf 50554D50 		.ascii	"PUMP_FEOT\000"
 17648      5F46454F 
 17648      5400
 17649              	.LASF318:
 17650 1dc9 5F707265 		.ascii	"_preconditions\000"
 17650      636F6E64 
 17650      6974696F 
 17650      6E7300
 17651              	.LASF307:
 17652 1dd8 504E4541 		.ascii	"PNEAR_PUMPPTR\000"
 17652      525F5055 
 17652      4D505054 
 17652      5200
 17653              	.LASF127:
 17654 1de6 50554152 		.ascii	"PUARTMESSAGEPTR\000"
 17654      544D4553 
 17654      53414745 
 17654      50545200 
 17655              	.LASF357:
ARM GAS  C:\Users\Lenovo\AppData\Local\Temp\cccA9qMw.s 			page 382


 17656 1df6 5F686F73 		.ascii	"_hosesposition1\000"
 17656      6573706F 
 17656      73697469 
 17656      6F6E3100 
 17657              	.LASF277:
 17658 1e06 5F686F73 		.ascii	"_hoseactivestate\000"
 17658      65616374 
 17658      69766573 
 17658      74617465 
 17658      00
 17659              	.LASF359:
 17660 1e17 5F686F73 		.ascii	"_hosesposition3\000"
 17660      6573706F 
 17660      73697469 
 17660      6F6E3300 
 17661              	.LASF360:
 17662 1e27 5F686F73 		.ascii	"_hosesposition4\000"
 17662      6573706F 
 17662      73697469 
 17662      6F6E3400 
 17663              	.LASF153:
 17664 1e37 44495350 		.ascii	"DISPLAY_NUEVO_PASSWORD\000"
 17664      4C41595F 
 17664      4E554556 
 17664      4F5F5041 
 17664      5353574F 
 17665              	.LASF366:
 17666 1e4e 5F6D696E 		.ascii	"_minvolumevalue\000"
 17666      766F6C75 
 17666      6D657661 
 17666      6C756500 
 17667              	.LASF311:
 17668 1e5e 54696D65 		.ascii	"TimeoutCallback\000"
 17668      6F757443 
 17668      616C6C62 
 17668      61636B00 
 17669              	.LASF305:
 17670 1e6e 436C6561 		.ascii	"CleanUp\000"
 17670      6E557000 
 17671              	.LASF158:
 17672 1e76 44495350 		.ascii	"DISPLAY_ESPERANDO_ID\000"
 17672      4C41595F 
 17672      45535045 
 17672      52414E44 
 17672      4F5F4944 
 17673              	.LASF345:
 17674 1e8b 5F6A6F62 		.ascii	"_jobqueueheap\000"
 17674      71756575 
 17674      65686561 
 17674      7000
 17675              	.LASF390:
 17676 1e99 45455052 		.ascii	"EEPROM_DISPENSER_PUMP2_PPU_INFO_PAGE\000"
 17676      4F4D5F44 
 17676      49535045 
 17676      4E534552 
 17676      5F50554D 
 17677              	.LASF306:
ARM GAS  C:\Users\Lenovo\AppData\Local\Temp\cccA9qMw.s 			page 383


 17678 1ebe 50756D70 		.ascii	"Pump\000"
 17678      00
 17679              	.LASF236:
 17680 1ec3 5F50554D 		.ascii	"_PUMP_STOP_\000"
 17680      505F5354 
 17680      4F505F00 
 17681              	.LASF139:
 17682 1ecf 44495350 		.ascii	"DISPLAY_FORMA_PAGO_DESEADA\000"
 17682      4C41595F 
 17682      464F524D 
 17682      415F5041 
 17682      474F5F44 
 17683              	.LASF472:
 17684 1eea 706A6F62 		.ascii	"pjob\000"
 17684      00
 17685              	.LASF9:
 17686 1eef 6C6F6E67 		.ascii	"long long unsigned int\000"
 17686      206C6F6E 
 17686      6720756E 
 17686      7369676E 
 17686      65642069 
 17687              	.LASF229:
 17688 1f06 5F50554D 		.ascii	"_PUMP_PPU_CHANGE_\000"
 17688      505F5050 
 17688      555F4348 
 17688      414E4745 
 17688      5F00
 17689              	.LASF114:
 17690 1f18 50757441 		.ascii	"PutArray\000"
 17690      72726179 
 17690      00
 17691              	.LASF289:
 17692 1f21 5F706375 		.ascii	"_pcurrtransaction\000"
 17692      72727472 
 17692      616E7361 
 17692      6374696F 
 17692      6E00
 17693              	.LASF436:
 17694 1f33 52465F4D 		.ascii	"RF_MUX_CASH_SALE_PRINT_RESPONSE\000"
 17694      55585F43 
 17694      4153485F 
 17694      53414C45 
 17694      5F505249 
 17695              	.LASF341:
 17696 1f53 50756D70 		.ascii	"PumpTransactionJobContext\000"
 17696      5472616E 
 17696      73616374 
 17696      696F6E4A 
 17696      6F62436F 
 17697              	.LASF355:
 17698 1f6d 5F637572 		.ascii	"_currentloopopen\000"
 17698      72656E74 
 17698      6C6F6F70 
 17698      6F70656E 
 17698      00
 17699              	.LASF219:
 17700 1f7e 50554D50 		.ascii	"PUMP_PEOT\000"
ARM GAS  C:\Users\Lenovo\AppData\Local\Temp\cccA9qMw.s 			page 384


 17700      5F50454F 
 17700      5400
 17701              	.LASF56:
 17702 1f88 53494E4B 		.ascii	"SINK_UPDATE_COUNTERS\000"
 17702      5F555044 
 17702      4154455F 
 17702      434F554E 
 17702      54455253 
 17703              	.LASF102:
 17704 1f9d 52656164 		.ascii	"ReadControlRegister\000"
 17704      436F6E74 
 17704      726F6C52 
 17704      65676973 
 17704      74657200 
 17705              	.LASF447:
 17706 1fb1 52465F4D 		.ascii	"RF_MUX_ISLAND_ADMIN_REQUEST\000"
 17706      55585F49 
 17706      534C414E 
 17706      445F4144 
 17706      4D494E5F 
 17707              	.LASF254:
 17708 1fcd 5F766172 		.ascii	"_var3\000"
 17708      3300
 17709              	.LASF255:
 17710 1fd3 5F766172 		.ascii	"_var4\000"
 17710      3400
 17711              	.LASF314:
 17712 1fd9 5F726570 		.ascii	"_repushtimeoutlimit\000"
 17712      75736874 
 17712      696D656F 
 17712      75746C69 
 17712      6D697400 
 17713              	.LASF506:
 17714 1fed 766F6C75 		.ascii	"volumeamount\000"
 17714      6D65616D 
 17714      6F756E74 
 17714      00
 17715              	.LASF65:
 17716 1ffa 44495350 		.ascii	"DISPENSER_LOAD_EEPROM_SETTINGS\000"
 17716      454E5345 
 17716      525F4C4F 
 17716      41445F45 
 17716      4550524F 
 17717              	.LASF268:
 17718 2019 5F707265 		.ascii	"_presetamount\000"
 17718      73657461 
 17718      6D6F756E 
 17718      7400
 17719              	.LASF98:
 17720 2027 5F696465 		.ascii	"_identifier\000"
 17720      6E746966 
 17720      69657200 
 17721              	.LASF439:
 17722 2033 52465F4D 		.ascii	"RF_MUX_LAST_CASH_SALE_REQUEST\000"
 17722      55585F4C 
 17722      4153545F 
 17722      43415348 
ARM GAS  C:\Users\Lenovo\AppData\Local\Temp\cccA9qMw.s 			page 385


 17722      5F53414C 
 17723              	.LASF276:
 17724 2051 5F637572 		.ascii	"_currenthose\000"
 17724      72656E74 
 17724      686F7365 
 17724      00
 17725              	.LASF562:
 17726 205e 5F675F70 		.ascii	"_g_printerlayout\000"
 17726      72696E74 
 17726      65726C61 
 17726      796F7574 
 17726      00
 17727              	.LASF209:
 17728 206f 5F434F4E 		.ascii	"_CONTROL_WORDS_\000"
 17728      54524F4C 
 17728      5F574F52 
 17728      44535F00 
 17729              	.LASF561:
 17730 207f 5F675F72 		.ascii	"_g_rfautorun\000"
 17730      66617574 
 17730      6F72756E 
 17730      00
 17731              	.LASF198:
 17732 208c 5F434F4D 		.ascii	"_COMMA_AS_DECIMAL_SEPARATOR_\000"
 17732      4D415F41 
 17732      535F4445 
 17732      43494D41 
 17732      4C5F5345 
 17733              	.LASF280:
 17734 20a9 5F707265 		.ascii	"_presetdone\000"
 17734      73657464 
 17734      6F6E6500 
 17735              	.LASF537:
 17736 20b5 41637175 		.ascii	"AcquirePumpTransactionDataResponseResolver\000"
 17736      69726550 
 17736      756D7054 
 17736      72616E73 
 17736      61637469 
 17737              	.LASF107:
 17738 20e0 47657442 		.ascii	"GetByte\000"
 17738      79746500 
 17739              	.LASF370:
 17740 20e8 44697370 		.ascii	"DispenserLayoutInfo\000"
 17740      656E7365 
 17740      724C6179 
 17740      6F757449 
 17740      6E666F00 
 17741              	.LASF513:
 17742 20fc 50756D70 		.ascii	"PumpCredit2DefaultPpuChange\000"
 17742      43726564 
 17742      69743244 
 17742      65666175 
 17742      6C745070 
 17743              	.LASF54:
 17744 2118 55415254 		.ascii	"UART_RF_TEST\000"
 17744      5F52465F 
 17744      54455354 
ARM GAS  C:\Users\Lenovo\AppData\Local\Temp\cccA9qMw.s 			page 386


 17744      00
 17745              	.LASF416:
 17746 2125 52465F4D 		.ascii	"RF_MUX_CREDIT_SERIAL_AUTH_RESPONSE\000"
 17746      55585F43 
 17746      52454449 
 17746      545F5345 
 17746      5249414C 
 17747              	.LASF412:
 17748 2148 45455052 		.ascii	"EEPROM_DISPENSER_PUMP44_TRANSACTION_PAGE\000"
 17748      4F4D5F44 
 17748      49535045 
 17748      4E534552 
 17748      5F50554D 
 17749              	.LASF246:
 17750 2171 5F50554D 		.ascii	"_PUMP_FAIL_\000"
 17750      505F4641 
 17750      494C5F00 
 17751              	.LASF278:
 17752 217d 5F616371 		.ascii	"_acquiringstate\000"
 17752      75697269 
 17752      6E677374 
 17752      61746500 
 17753              	.LASF146:
 17754 218d 44495350 		.ascii	"DISPLAY_DESPACHANDO\000"
 17754      4C41595F 
 17754      44455350 
 17754      41434841 
 17754      4E444F00 
 17755              	.LASF222:
 17756 21a1 50554D50 		.ascii	"PUMP_SEND_DATA\000"
 17756      5F53454E 
 17756      445F4441 
 17756      544100
 17757              	.LASF251:
 17758 21b0 5F766172 		.ascii	"_var0\000"
 17758      3000
 17759              	.LASF252:
 17760 21b6 5F766172 		.ascii	"_var1\000"
 17760      3100
 17761              	.LASF253:
 17762 21bc 5F766172 		.ascii	"_var2\000"
 17762      3200
 17763              	.LASF174:
 17764 21c2 44495350 		.ascii	"DISPLAY_HORA\000"
 17764      4C41595F 
 17764      484F5241 
 17764      00
 17765              	.LASF78:
 17766 21cf 5052494E 		.ascii	"PRINTER1_GENERIC_JOB\000"
 17766      54455231 
 17766      5F47454E 
 17766      45524943 
 17766      5F4A4F42 
 17767              	.LASF256:
 17768 21e4 5F766172 		.ascii	"_var5\000"
 17768      3500
 17769              	.LASF257:
ARM GAS  C:\Users\Lenovo\AppData\Local\Temp\cccA9qMw.s 			page 387


 17770 21ea 5F766172 		.ascii	"_var6\000"
 17770      3600
 17771              	.LASF258:
 17772 21f0 5F766172 		.ascii	"_var7\000"
 17772      3700
 17773              	.LASF259:
 17774 21f6 5F766172 		.ascii	"_var8\000"
 17774      3800
 17775              	.LASF260:
 17776 21fc 5F766172 		.ascii	"_var9\000"
 17776      3900
 17777              	.LASF429:
 17778 2202 52465F4D 		.ascii	"RF_MUX_PRICE_CHANGE_REQUEST\000"
 17778      55585F50 
 17778      52494345 
 17778      5F434841 
 17778      4E47455F 
 17779              	.LASF230:
 17780 221e 5F50554D 		.ascii	"_PUMP_RESTORE_PRICE_\000"
 17780      505F5245 
 17780      53544F52 
 17780      455F5052 
 17780      4943455F 
 17781              	.LASF261:
 17782 2233 5F766172 		.ascii	"_varA\000"
 17782      4100
 17783              	.LASF262:
 17784 2239 5F766172 		.ascii	"_varB\000"
 17784      4200
 17785              	.LASF460:
 17786 223f 52465F43 		.ascii	"RF_COPY_RECEIPT\000"
 17786      4F50595F 
 17786      52454345 
 17786      49505400 
 17787              	.LASF161:
 17788 224f 44495350 		.ascii	"DISPLAY_INTRODUZCA_VOLUMEN\000"
 17788      4C41595F 
 17788      494E5452 
 17788      4F44555A 
 17788      43415F56 
 17789              	.LASF28:
 17790 226a 414C4C49 		.ascii	"ALLINTERESTED\000"
 17790      4E544552 
 17790      45535445 
 17790      4400
 17791              	.LASF179:
 17792 2278 44495350 		.ascii	"DISPLAY_CANCELADO_X_PC\000"
 17792      4C41595F 
 17792      43414E43 
 17792      454C4144 
 17792      4F5F585F 
 17793              	.LASF274:
 17794 228f 5F70756D 		.ascii	"_pumpindex\000"
 17794      70696E64 
 17794      657800
 17795              	.LASF309:
 17796 229a 52657175 		.ascii	"Request\000"
ARM GAS  C:\Users\Lenovo\AppData\Local\Temp\cccA9qMw.s 			page 388


 17796      65737400 
 17797              	.LASF478:
 17798 22a2 50726F63 		.ascii	"ProcessPumpTransactionData\000"
 17798      65737350 
 17798      756D7054 
 17798      72616E73 
 17798      61637469 
 17799              	.LASF281:
 17800 22bd 5F70756D 		.ascii	"_pumplocked\000"
 17800      706C6F63 
 17800      6B656400 
 17801              	.LASF39:
 17802 22c9 5F6D6573 		.ascii	"_messageid\000"
 17802      73616765 
 17802      696400
 17803              	.LASF225:
 17804 22d4 5F50554D 		.ascii	"_PUMP_FILL_BY_MONEY_\000"
 17804      505F4649 
 17804      4C4C5F42 
 17804      595F4D4F 
 17804      4E45595F 
 17805              	.LASF120:
 17806 22e9 414C4C4F 		.ascii	"ALLOCATED\000"
 17806      43415445 
 17806      4400
 17807              	.LASF13:
 17808 22f3 75696E74 		.ascii	"uint8\000"
 17808      3800
 17809              	.LASF112:
 17810 22f9 50757443 		.ascii	"PutChar\000"
 17810      68617200 
 17811              	.LASF87:
 17812 2301 44495350 		.ascii	"DISPLAY2_RECEPTION\000"
 17812      4C415932 
 17812      5F524543 
 17812      45505449 
 17812      4F4E00
 17813              	.LASF476:
 17814 2314 70706172 		.ascii	"pparam\000"
 17814      616D00
 17815              	.LASF456:
 17816 231b 52465F43 		.ascii	"RF_CREDITSALEAUTH\000"
 17816      52454449 
 17816      5453414C 
 17816      45415554 
 17816      4800
 17817              	.LASF203:
 17818 232d 50554D50 		.ascii	"PUMP_PUMP_STOP\000"
 17818      5F50554D 
 17818      505F5354 
 17818      4F5000
 17819              	.LASF2:
 17820 233c 73686F72 		.ascii	"short int\000"
 17820      7420696E 
 17820      7400
 17821              	.LASF185:
 17822 2346 44495350 		.ascii	"DISPLAY_PRECIO_POR_UNIDAD\000"
ARM GAS  C:\Users\Lenovo\AppData\Local\Temp\cccA9qMw.s 			page 389


 17822      4C41595F 
 17822      50524543 
 17822      494F5F50 
 17822      4F525F55 
 17823              	.LASF295:
 17824 2360 50756D70 		.ascii	"PumpTransQueueLock\000"
 17824      5472616E 
 17824      73517565 
 17824      75654C6F 
 17824      636B00
 17825              	.LASF191:
 17826 2373 44495350 		.ascii	"DISPLAY_NULL\000"
 17826      4C41595F 
 17826      4E554C4C 
 17826      00
 17827              	.LASF300:
 17828 2380 50756D70 		.ascii	"PumpTransQueueAllocate\000"
 17828      5472616E 
 17828      73517565 
 17828      7565416C 
 17828      6C6F6361 
 17829              	.LASF70:
 17830 2397 44495350 		.ascii	"DISPENSER_CONFIGURE_SINGLE_PRICE\000"
 17830      454E5345 
 17830      525F434F 
 17830      4E464947 
 17830      5552455F 
 17831              	.LASF443:
 17832 23b8 52465F4D 		.ascii	"RF_MUX_POSITION_CFG_REQUEST\000"
 17832      55585F50 
 17832      4F534954 
 17832      494F4E5F 
 17832      4346475F 
 17833              	.LASF83:
 17834 23d4 44495350 		.ascii	"DISPLAY1_RECEPTION\000"
 17834      4C415931 
 17834      5F524543 
 17834      45505449 
 17834      4F4E00
 17835              	.LASF298:
 17836 23e7 50756D70 		.ascii	"PumpTransQueueEnqueue\000"
 17836      5472616E 
 17836      73517565 
 17836      7565456E 
 17836      71756575 
 17837              	.LASF471:
 17838 23fd 5072696E 		.ascii	"PrinterLayout\000"
 17838      7465724C 
 17838      61796F75 
 17838      7400
 17839              	.LASF351:
 17840 240b 44657175 		.ascii	"Dequeue\000"
 17840      65756500 
 17841              	.LASF66:
 17842 2413 44495350 		.ascii	"DISPENSER_ENUMERATE_VISIBLE_PUMPS\000"
 17842      454E5345 
 17842      525F454E 
ARM GAS  C:\Users\Lenovo\AppData\Local\Temp\cccA9qMw.s 			page 390


 17842      554D4552 
 17842      4154455F 
 17843              	.LASF104:
 17844 2435 52656164 		.ascii	"ReadRxData\000"
 17844      52784461 
 17844      746100
 17845              	.LASF554:
 17846 2440 5472616E 		.ascii	"TranslateSpecialFuncionDigit\000"
 17846      736C6174 
 17846      65537065 
 17846      6369616C 
 17846      46756E63 
 17847              	.LASF45:
 17848 245d 5F6D6573 		.ascii	"_messagetimeoutlimit\000"
 17848      73616765 
 17848      74696D65 
 17848      6F75746C 
 17848      696D6974 
 17849              	.LASF128:
 17850 2472 5F554152 		.ascii	"_UART_MANAGERS_AVAILABLE_\000"
 17850      545F4D41 
 17850      4E414745 
 17850      52535F41 
 17850      5641494C 
 17851              	.LASF565:
 17852 248c 474E5520 		.ascii	"GNU C 4.9.3 20150303 (release) [ARM/embedded-4_9-br"
 17852      4320342E 
 17852      392E3320 
 17852      32303135 
 17852      30333033 
 17853 24bf 616E6368 		.ascii	"anch revision 221220] -mcpu=cortex-m3 -mthumb -g -O"
 17853      20726576 
 17853      6973696F 
 17853      6E203232 
 17853      31323230 
 17854 24f2 30202D66 		.ascii	"0 -ffunction-sections -ffat-lto-objects\000"
 17854      66756E63 
 17854      74696F6E 
 17854      2D736563 
 17854      74696F6E 
 17855              	.LASF496:
 17856 251a 50756D70 		.ascii	"PumpRTMoneyRequest\000"
 17856      52544D6F 
 17856      6E657952 
 17856      65717565 
 17856      737400
 17857              	.LASF492:
 17858 252d 696E6465 		.ascii	"index\000"
 17858      7800
 17859              	.LASF160:
 17860 2533 44495350 		.ascii	"DISPLAY_INTRODUZCA_CEDULA\000"
 17860      4C41595F 
 17860      494E5452 
 17860      4F44555A 
 17860      43415F43 
 17861              	.LASF332:
 17862 254d 5F726570 		.ascii	"_repushretriescounter\000"
ARM GAS  C:\Users\Lenovo\AppData\Local\Temp\cccA9qMw.s 			page 391


 17862      75736872 
 17862      65747269 
 17862      6573636F 
 17862      756E7465 
 17863              	.LASF540:
 17864 2563 706D7367 		.ascii	"pmsg\000"
 17864      00
 17865              	.LASF40:
 17866 2568 5F6D6573 		.ascii	"_messagetype\000"
 17866      73616765 
 17866      74797065 
 17866      00
 17867              	.LASF497:
 17868 2575 50756D70 		.ascii	"PumpTransactionDataRequest\000"
 17868      5472616E 
 17868      73616374 
 17868      696F6E44 
 17868      61746152 
 17869              	.LASF30:
 17870 2590 46495253 		.ascii	"FIRSTFOUNDFOREVER\000"
 17870      54464F55 
 17870      4E44464F 
 17870      52455645 
 17870      5200
 17871              	.LASF508:
 17872 25a2 50756D70 		.ascii	"PumpFullPresetHose\000"
 17872      46756C6C 
 17872      50726573 
 17872      6574486F 
 17872      736500
 17873              	.LASF485:
 17874 25b5 7472616E 		.ascii	"transtatefound\000"
 17874      73746174 
 17874      65666F75 
 17874      6E6400
 17875              	.LASF215:
 17876 25c4 50554D50 		.ascii	"PUMP_IDLE\000"
 17876      5F49444C 
 17876      4500
 17877              	.LASF391:
 17878 25ce 45455052 		.ascii	"EEPROM_DISPENSER_PUMP3_PPU_INFO_PAGE\000"
 17878      4F4D5F44 
 17878      49535045 
 17878      4E534552 
 17878      5F50554D 
 17879              	.LASF442:
 17880 25f3 52465F4D 		.ascii	"RF_MUX_BROADCAST_CFG_RESPONSE\000"
 17880      55585F42 
 17880      524F4144 
 17880      43415354 
 17880      5F434647 
 17881              	.LASF204:
 17882 2611 50554D50 		.ascii	"PUMP_TRANSACTION_DATA_REQUEST\000"
 17882      5F545241 
 17882      4E534143 
 17882      54494F4E 
 17882      5F444154 
ARM GAS  C:\Users\Lenovo\AppData\Local\Temp\cccA9qMw.s 			page 392


 17883              	.LASF479:
 17884 262f 7374726D 		.ascii	"strmlrc\000"
 17884      6C726300 
 17885              	.LASF553:
 17886 2637 43617374 		.ascii	"CastMoneyValue\000"
 17886      4D6F6E65 
 17886      7956616C 
 17886      756500
 17887              	.LASF210:
 17888 2646 5055446E 		.ascii	"PUDn\000"
 17888      00
 17889              	.LASF302:
 17890 264b 50756D70 		.ascii	"PumpValidState\000"
 17890      56616C69 
 17890      64537461 
 17890      746500
 17891              	.LASF304:
 17892 265a 5F617574 		.ascii	"_authorizationinfo\000"
 17892      686F7269 
 17892      7A617469 
 17892      6F6E696E 
 17892      666F00
 17893              	.LASF237:
 17894 266d 5F50554D 		.ascii	"_PUMP_STOPALL_\000"
 17894      505F5354 
 17894      4F50414C 
 17894      4C5F00
 17895              	.LASF501:
 17896 267c 7472616E 		.ascii	"transtype\000"
 17896      73747970 
 17896      6500
 17897              	.LASF176:
 17898 2686 44495350 		.ascii	"DISPLAY_OPCION_TURNO\000"
 17898      4C41595F 
 17898      4F504349 
 17898      4F4E5F54 
 17898      55524E4F 
 17899              	.LASF333:
 17900 269b 5F726570 		.ascii	"_repushtimeoutseed\000"
 17900      75736874 
 17900      696D656F 
 17900      75747365 
 17900      656400
 17901              	.LASF266:
 17902 26ae 5F686F73 		.ascii	"_hoseid\000"
 17902      65696400 
 17903              	.LASF555:
 17904 26b6 72656676 		.ascii	"refval\000"
 17904      616C00
 17905              	.LASF418:
 17906 26bd 52465F4D 		.ascii	"RF_MUX_CREDIT_PRESET_AUTHORIZATION_RESPONSE\000"
 17906      55585F43 
 17906      52454449 
 17906      545F5052 
 17906      45534554 
 17907              	.LASF41:
 17908 26e9 5F6D6573 		.ascii	"_messagestate\000"
ARM GAS  C:\Users\Lenovo\AppData\Local\Temp\cccA9qMw.s 			page 393


 17908      73616765 
 17908      73746174 
 17908      6500
 17909              	.LASF316:
 17910 26f7 5F726574 		.ascii	"_retryinsteadofrepush\000"
 17910      7279696E 
 17910      73746561 
 17910      646F6672 
 17910      65707573 
 17911              	.LASF227:
 17912 270d 5F50554D 		.ascii	"_PUMP_FILL_FULL_\000"
 17912      505F4649 
 17912      4C4C5F46 
 17912      554C4C5F 
 17912      00
 17913              	.LASF90:
 17914 271e 44495350 		.ascii	"DISPLAY2_ANIMATE_HOME\000"
 17914      4C415932 
 17914      5F414E49 
 17914      4D415445 
 17914      5F484F4D 
 17915              	.LASF195:
 17916 2734 4C505241 		.ascii	"LPRAWPTR\000"
 17916      57505452 
 17916      00
 17917              	.LASF233:
 17918 273d 5F50554D 		.ascii	"_PUMP_EOT_\000"
 17918      505F454F 
 17918      545F00
 17919              	.LASF82:
 17920 2748 44495350 		.ascii	"DISPLAY_UPDATE_PUMP_STATE\000"
 17920      4C41595F 
 17920      55504441 
 17920      54455F50 
 17920      554D505F 
 17921              	.LASF33:
 17922 2762 5F4D4553 		.ascii	"_MESSAGE_TYPE_\000"
 17922      53414745 
 17922      5F545950 
 17922      455F00
 17923              	.LASF69:
 17924 2771 44495350 		.ascii	"DISPENSER_RESTORE_PRICES\000"
 17924      454E5345 
 17924      525F5245 
 17924      53544F52 
 17924      455F5052 
 17925              	.LASF202:
 17926 278a 50554D50 		.ascii	"PUMP_DATA_TO_PUMP\000"
 17926      5F444154 
 17926      415F544F 
 17926      5F50554D 
 17926      5000
 17927              	.LASF422:
 17928 279c 52465F4D 		.ascii	"RF_MUX_CASH_SALE_START_RESPONSE\000"
 17928      55585F43 
 17928      4153485F 
 17928      53414C45 
ARM GAS  C:\Users\Lenovo\AppData\Local\Temp\cccA9qMw.s 			page 394


 17928      5F535441 
 17929              	.LASF313:
 17930 27bc 5F726573 		.ascii	"_responsetimeoutlimit\000"
 17930      706F6E73 
 17930      6574696D 
 17930      656F7574 
 17930      6C696D69 
 17931              	.LASF536:
 17932 27d2 41637175 		.ascii	"AcquirePumpTotalsResponseResolver\000"
 17932      69726550 
 17932      756D7054 
 17932      6F74616C 
 17932      73526573 
 17933              	.LASF285:
 17934 27f4 5F707269 		.ascii	"_print\000"
 17934      6E7400
 17935              	.LASF241:
 17936 27fb 5F50554D 		.ascii	"_PUMP_BUSY_\000"
 17936      505F4255 
 17936      53595F00 
 17937              	.LASF383:
 17938 2807 45455052 		.ascii	"EEPROM_DISPENSER_PUMP3_LAYOUT_PAGE\000"
 17938      4F4D5F44 
 17938      49535045 
 17938      4E534552 
 17938      5F50554D 
 17939              	.LASF430:
 17940 282a 52465F4D 		.ascii	"RF_MUX_PRICE_CHANGE_RESPONSE\000"
 17940      55585F50 
 17940      52494345 
 17940      5F434841 
 17940      4E47455F 
 17941              	.LASF3:
 17942 2847 73686F72 		.ascii	"short unsigned int\000"
 17942      7420756E 
 17942      7369676E 
 17942      65642069 
 17942      6E7400
 17943              	.LASF519:
 17944 285a 74617267 		.ascii	"targetmemoryareafound\000"
 17944      65746D65 
 17944      6D6F7279 
 17944      61726561 
 17944      666F756E 
 17945              	.LASF297:
 17946 2870 50756D70 		.ascii	"PumpTransQueueFind\000"
 17946      5472616E 
 17946      73517565 
 17946      75654669 
 17946      6E6400
 17947              	.LASF125:
 17948 2883 4572726F 		.ascii	"ErrorHandler\000"
 17948      7248616E 
 17948      646C6572 
 17948      00
 17949              	.LASF467:
 17950 2890 5F74696D 		.ascii	"_timeouttoreceivemultiplier\000"
ARM GAS  C:\Users\Lenovo\AppData\Local\Temp\cccA9qMw.s 			page 395


 17950      656F7574 
 17950      746F7265 
 17950      63656976 
 17950      656D756C 
 17951              	.LASF77:
 17952 28ac 5052494E 		.ascii	"PRINTER22_JOB\000"
 17952      54455232 
 17952      325F4A4F 
 17952      4200
 17953              	.LASF441:
 17954 28ba 52465F4D 		.ascii	"RF_MUX_BROADCAST_CFG_REQUEST\000"
 17954      55585F42 
 17954      524F4144 
 17954      43415354 
 17954      5F434647 
 17955              	.LASF488:
 17956 28d7 50756D70 		.ascii	"PumpJobTimeout\000"
 17956      4A6F6254 
 17956      696D656F 
 17956      757400
 17957              	.LASF213:
 17958 28e6 5F50554D 		.ascii	"_PUMP_STATES_\000"
 17958      505F5354 
 17958      41544553 
 17958      5F00
 17959              	.LASF5:
 17960 28f4 5F5F696E 		.ascii	"__int32_t\000"
 17960      7433325F 
 17960      7400
 17961              	.LASF450:
 17962 28fe 52465F4D 		.ascii	"RF_MUX_COPY_REQUEST_RESPONSE\000"
 17962      55585F43 
 17962      4F50595F 
 17962      52455155 
 17962      4553545F 
 17963              	.LASF520:
 17964 291b 65657072 		.ascii	"eeprompumpconfigmemorypageid\000"
 17964      6F6D7075 
 17964      6D70636F 
 17964      6E666967 
 17964      6D656D6F 
 17965              	.LASF431:
 17966 2938 52465F4D 		.ascii	"RF_MUX_GENERAL_PRINT_REQUEST\000"
 17966      55585F47 
 17966      454E4552 
 17966      414C5F50 
 17966      52494E54 
 17967              	.LASF387:
 17968 2955 45455052 		.ascii	"EEPROM_DISPENSER_PUMP3_PRODUCT_NAMES_PAGE\000"
 17968      4F4D5F44 
 17968      49535045 
 17968      4E534552 
 17968      5F50554D 
 17969              	.LASF249:
 17970 297f 50756D70 		.ascii	"PumpTransactionalState\000"
 17970      5472616E 
 17970      73616374 
ARM GAS  C:\Users\Lenovo\AppData\Local\Temp\cccA9qMw.s 			page 396


 17970      696F6E61 
 17970      6C537461 
 17971              	.LASF303:
 17972 2996 5F646174 		.ascii	"_datacontainer\000"
 17972      61636F6E 
 17972      7461696E 
 17972      657200
 17973              	.LASF329:
 17974 29a5 5F726565 		.ascii	"_reenqueuecounter\000"
 17974      6E717565 
 17974      7565636F 
 17974      756E7465 
 17974      7200
 17975              	.LASF221:
 17976 29b7 50554D50 		.ascii	"PUMP_STOPPED\000"
 17976      5F53544F 
 17976      50504544 
 17976      00
 17977              	.LASF34:
 17978 29c4 5F4D4553 		.ascii	"_MESSAGE_STATE_\000"
 17978      53414745 
 17978      5F535441 
 17978      54455F00 
 17979              	.LASF35:
 17980 29d4 53494E4B 		.ascii	"SINK_FREE\000"
 17980      5F465245 
 17980      4500
 17981              	.LASF25:
 17982 29de 4E4F4E45 		.ascii	"NONE\000"
 17982      00
 17983              	.LASF489:
 17984 29e3 50756D70 		.ascii	"PumpStateJobTimeout\000"
 17984      53746174 
 17984      654A6F62 
 17984      54696D65 
 17984      6F757400 
 17985              	.LASF92:
 17986 29f7 49425554 		.ascii	"IBUTTON2_SCAN\000"
 17986      544F4E32 
 17986      5F534341 
 17986      4E00
 17987              	.LASF438:
 17988 2a05 52465F4D 		.ascii	"RF_MUX_PENDING_CREDIT_SALE_RESPONSE\000"
 17988      55585F50 
 17988      454E4449 
 17988      4E475F43 
 17988      52454449 
 17989              	.LASF539:
 17990 2a29 41647661 		.ascii	"AdvantageActivateProgramming\000"
 17990      6E746167 
 17990      65416374 
 17990      69766174 
 17990      6550726F 
 17991              	.LASF367:
 17992 2a46 5F646973 		.ascii	"_displaydigitsmode\000"
 17992      706C6179 
 17992      64696769 
ARM GAS  C:\Users\Lenovo\AppData\Local\Temp\cccA9qMw.s 			page 397


 17992      74736D6F 
 17992      646500
 17993              	.LASF14:
 17994 2a59 75696E74 		.ascii	"uint16\000"
 17994      313600
 17995              	.LASF445:
 17996 2a60 52465F4D 		.ascii	"RF_MUX_ISLAND_OPER_DATA_REQUEST\000"
 17996      55585F49 
 17996      534C414E 
 17996      445F4F50 
 17996      45525F44 
 17997              	.LASF296:
 17998 2a80 50756D70 		.ascii	"PumpTransQueueUnlock\000"
 17998      5472616E 
 17998      73517565 
 17998      7565556E 
 17998      6C6F636B 
 17999              	.LASF126:
 18000 2a95 5F707561 		.ascii	"_puartmanager\000"
 18000      72746D61 
 18000      6E616765 
 18000      7200
 18001              	.LASF432:
 18002 2aa3 52465F4D 		.ascii	"RF_MUX_GENERAL_PRINT_RESPONSE\000"
 18002      55585F47 
 18002      454E4552 
 18002      414C5F50 
 18002      52494E54 
 18003              	.LASF468:
 18004 2ac1 52464175 		.ascii	"RFAutoRun\000"
 18004      746F5275 
 18004      6E00
 18005              	.LASF81:
 18006 2acb 5052494E 		.ascii	"PRINTER2_GENERIC_JOB_LOGO\000"
 18006      54455232 
 18006      5F47454E 
 18006      45524943 
 18006      5F4A4F42 
 18007              	.LASF47:
 18008 2ae5 5F627566 		.ascii	"_buffersize\000"
 18008      66657273 
 18008      697A6500 
 18009              	.LASF402:
 18010 2af1 45455052 		.ascii	"EEPROM_DISPENSER_PUMP22_TRANSACTION_PAGE\000"
 18010      4F4D5F44 
 18010      49535045 
 18010      4E534552 
 18010      5F50554D 
 18011              	.LASF172:
 18012 2b1a 44495350 		.ascii	"DISPLAY_AUTORIZACION_RECHAZADA\000"
 18012      4C41595F 
 18012      4155544F 
 18012      52495A41 
 18012      43494F4E 
 18013              	.LASF469:
 18014 2b39 5F707269 		.ascii	"_printerportside1\000"
 18014      6E746572 
ARM GAS  C:\Users\Lenovo\AppData\Local\Temp\cccA9qMw.s 			page 398


 18014      706F7274 
 18014      73696465 
 18014      3100
 18015              		.ident	"GCC: (GNU Tools for ARM Embedded Processors) 4.9.3 20150303 (release) [ARM/embedded-4_9-br
