ARM GAS  C:\Users\Lenovo\AppData\Local\Temp\ccxL1InM.s 			page 1


   1              		.syntax unified
   2              		.cpu cortex-m3
   3              		.fpu softvfp
   4              		.eabi_attribute 20, 1
   5              		.eabi_attribute 21, 1
   6              		.eabi_attribute 23, 3
   7              		.eabi_attribute 24, 1
   8              		.eabi_attribute 25, 1
   9              		.eabi_attribute 26, 1
  10              		.eabi_attribute 30, 6
  11              		.eabi_attribute 34, 1
  12              		.eabi_attribute 18, 4
  13              		.thumb
  14              		.file	"AuxPSoC.c"
  15              		.text
  16              	.Ltext0:
  17              		.cfi_sections	.debug_frame
  18              		.section	.text.WriteAuxPSoC,"ax",%progbits
  19              		.align	2
  20              		.global	WriteAuxPSoC
  21              		.thumb
  22              		.thumb_func
  23              		.type	WriteAuxPSoC, %function
  24              	WriteAuxPSoC:
  25              	.LFB63:
  26              		.file 1 ".\\AuxPSoC.c"
   1:.\AuxPSoC.c   **** /* ========================================
   2:.\AuxPSoC.c   ****  *
   3:.\AuxPSoC.c   ****  * Copyright YOUR COMPANY, THE YEAR
   4:.\AuxPSoC.c   ****  * All Rights Reserved
   5:.\AuxPSoC.c   ****  * UNPUBLISHED, LICENSED SOFTWARE.
   6:.\AuxPSoC.c   ****  *
   7:.\AuxPSoC.c   ****  * CONFIDENTIAL AND PROPRIETARY INFORMATION
   8:.\AuxPSoC.c   ****  * WHICH IS THE PROPERTY OF your company.
   9:.\AuxPSoC.c   ****  *
  10:.\AuxPSoC.c   ****  * ========================================
  11:.\AuxPSoC.c   **** */
  12:.\AuxPSoC.c   **** 
  13:.\AuxPSoC.c   **** #include <project.h>
  14:.\AuxPSoC.c   **** #include "AuxPSoC.h"
  15:.\AuxPSoC.c   **** 
  16:.\AuxPSoC.c   **** //@Created By: HIJH
  17:.\AuxPSoC.c   **** //@Septembre de 2016
  18:.\AuxPSoC.c   **** uint8 WriteAuxPSoC(PNEAR_BYTE_PTR lpbuffer, uint16 buffersize, uint8 printerport)
  19:.\AuxPSoC.c   **** {
  27              		.loc 1 19 0
  28              		.cfi_startproc
  29              		@ args = 0, pretend = 0, frame = 16
  30              		@ frame_needed = 1, uses_anonymous_args = 0
  31 0000 80B5     		push	{r7, lr}
  32              		.cfi_def_cfa_offset 8
  33              		.cfi_offset 7, -8
  34              		.cfi_offset 14, -4
  35 0002 84B0     		sub	sp, sp, #16
  36              		.cfi_def_cfa_offset 24
  37 0004 00AF     		add	r7, sp, #0
  38              		.cfi_def_cfa_register 7
ARM GAS  C:\Users\Lenovo\AppData\Local\Temp\ccxL1InM.s 			page 2


  39 0006 7860     		str	r0, [r7, #4]
  40 0008 0B46     		mov	r3, r1
  41 000a 7B80     		strh	r3, [r7, #2]	@ movhi
  42 000c 1346     		mov	r3, r2
  43 000e 7B70     		strb	r3, [r7, #1]
  20:.\AuxPSoC.c   **** 	uint8 retval = 0x00;
  44              		.loc 1 20 0
  45 0010 0023     		movs	r3, #0
  46 0012 FB73     		strb	r3, [r7, #15]
  21:.\AuxPSoC.c   ****     
  22:.\AuxPSoC.c   ****     FOR(uint16 index = 0, index < buffersize, index++)
  47              		.loc 1 22 0
  48 0014 0023     		movs	r3, #0
  49 0016 BB81     		strh	r3, [r7, #12]	@ movhi
  50 0018 1AE0     		b	.L2
  51              	.L4:
  23:.\AuxPSoC.c   ****     {
  24:.\AuxPSoC.c   ****         I2C_Bus_MasterClearStatus();
  52              		.loc 1 24 0
  53 001a FFF7FEFF 		bl	I2C_Bus_MasterClearStatus
  25:.\AuxPSoC.c   ****         retval = I2C_Bus_MasterSendStart(_AUXPSOC_I2C_SLAVE_ADDRESS_, I2C_Bus_WRITE_XFER_MODE);
  54              		.loc 1 25 0
  55 001e 0720     		movs	r0, #7
  56 0020 0021     		movs	r1, #0
  57 0022 FFF7FEFF 		bl	I2C_Bus_MasterSendStart
  58 0026 0346     		mov	r3, r0
  59 0028 FB73     		strb	r3, [r7, #15]
  26:.\AuxPSoC.c   ****         if(I2C_Bus_MSTR_NO_ERROR == retval)
  60              		.loc 1 26 0
  61 002a FB7B     		ldrb	r3, [r7, #15]	@ zero_extendqisi2
  62 002c 002B     		cmp	r3, #0
  63 002e 0CD1     		bne	.L3
  27:.\AuxPSoC.c   ****         {
  28:.\AuxPSoC.c   ****             I2C_Bus_MasterWriteByte(printerport);
  64              		.loc 1 28 0
  65 0030 7B78     		ldrb	r3, [r7, #1]	@ zero_extendqisi2
  66 0032 1846     		mov	r0, r3
  67 0034 FFF7FEFF 		bl	I2C_Bus_MasterWriteByte
  29:.\AuxPSoC.c   ****             I2C_Bus_MasterWriteByte(lpbuffer[index]);
  68              		.loc 1 29 0
  69 0038 BB89     		ldrh	r3, [r7, #12]
  70 003a 7A68     		ldr	r2, [r7, #4]
  71 003c 1344     		add	r3, r3, r2
  72 003e 1B78     		ldrb	r3, [r3]	@ zero_extendqisi2
  73 0040 1846     		mov	r0, r3
  74 0042 FFF7FEFF 		bl	I2C_Bus_MasterWriteByte
  30:.\AuxPSoC.c   ****             
  31:.\AuxPSoC.c   ****             I2C_Bus_MasterSendStop();
  75              		.loc 1 31 0
  76 0046 FFF7FEFF 		bl	I2C_Bus_MasterSendStop
  77              	.L3:
  22:.\AuxPSoC.c   ****     {
  78              		.loc 1 22 0 discriminator 2
  79 004a BB89     		ldrh	r3, [r7, #12]
  80 004c 0133     		adds	r3, r3, #1
  81 004e BB81     		strh	r3, [r7, #12]	@ movhi
  82              	.L2:
ARM GAS  C:\Users\Lenovo\AppData\Local\Temp\ccxL1InM.s 			page 3


  22:.\AuxPSoC.c   ****     {
  83              		.loc 1 22 0 is_stmt 0 discriminator 1
  84 0050 BA89     		ldrh	r2, [r7, #12]
  85 0052 7B88     		ldrh	r3, [r7, #2]
  86 0054 9A42     		cmp	r2, r3
  87 0056 E0D3     		bcc	.L4
  32:.\AuxPSoC.c   ****         }
  33:.\AuxPSoC.c   ****     }
  34:.\AuxPSoC.c   ****     
  35:.\AuxPSoC.c   **** 	return retval;
  88              		.loc 1 35 0 is_stmt 1
  89 0058 FB7B     		ldrb	r3, [r7, #15]	@ zero_extendqisi2
  36:.\AuxPSoC.c   **** }
  90              		.loc 1 36 0
  91 005a 1846     		mov	r0, r3
  92 005c 1037     		adds	r7, r7, #16
  93              		.cfi_def_cfa_offset 8
  94 005e BD46     		mov	sp, r7
  95              		.cfi_def_cfa_register 13
  96              		@ sp needed
  97 0060 80BD     		pop	{r7, pc}
  98              		.cfi_endproc
  99              	.LFE63:
 100              		.size	WriteAuxPSoC, .-WriteAuxPSoC
 101 0062 00BF     		.text
 102              	.Letext0:
 103              		.file 2 "c:\\program files (x86)\\cypress\\psoc creator\\3.3\\psoc creator\\import\\gnu\\arm\\4.9.
 104              		.file 3 "c:\\program files (x86)\\cypress\\psoc creator\\3.3\\psoc creator\\import\\gnu\\arm\\4.9.
 105              		.file 4 "Generated_Source\\PSoC5/cytypes.h"
 106              		.file 5 ".\\GlobalDefinitions.h"
 107              		.file 6 "Generated_Source\\PSoC5/core_cm3.h"