Archive member included because of file (symbol)

.\CortexM3\ARM_GCC_493\Debug\CorEx-Mux-Kernel.a(cyfitter_cfg.o)
                              .\CortexM3\ARM_GCC_493\Debug\Cm3Start.o (cyfitter_cfg)
.\CortexM3\ARM_GCC_493\Debug\CorEx-Mux-Kernel.a(RF_Physical.o)
                              .\CortexM3\ARM_GCC_493\Debug\UARTManager.o (RF_Physical_Start)
.\CortexM3\ARM_GCC_493\Debug\CorEx-Mux-Kernel.a(RF_Physical_INT.o)
                              .\CortexM3\ARM_GCC_493\Debug\CorEx-Mux-Kernel.a(RF_Physical.o) (RF_Physical_RXISR)
.\CortexM3\ARM_GCC_493\Debug\CorEx-Mux-Kernel.a(RF_Physical_IntClock.o)
                              .\CortexM3\ARM_GCC_493\Debug\CorEx-Mux-Kernel.a(RF_Physical.o) (RF_Physical_IntClock_Start)
.\CortexM3\ARM_GCC_493\Debug\CorEx-Mux-Kernel.a(CyBootAsmGnu.o)
                              .\CortexM3\ARM_GCC_493\Debug\CorEx-Mux-Kernel.a(cyfitter_cfg.o) (CyDelayCycles)
.\CortexM3\ARM_GCC_493\Debug\CorEx-Mux-Kernel.a(CyLib.o)
                              .\CortexM3\ARM_GCC_493\Debug\Cm3Start.o (CyResetStatus)
.\CortexM3\ARM_GCC_493\Debug\CorEx-Mux-Kernel.a(cyPm.o)
                              .\CortexM3\ARM_GCC_493\Debug\CorEx-Mux-Kernel.a(CyLib.o) (CyPmReadStatus)
.\CortexM3\ARM_GCC_493\Debug\CorEx-Mux-Kernel.a(CRC_Security.o)
                              .\CortexM3\ARM_GCC_493\Debug\Security.o (CRC_Security_Start)
.\CortexM3\ARM_GCC_493\Debug\CorEx-Mux-Kernel.a(ShiftReg_Security.o)
                              .\CortexM3\ARM_GCC_493\Debug\Security.o (ShiftReg_Security_Start)
.\CortexM3\ARM_GCC_493\Debug\CorEx-Mux-Kernel.a(Clock_CRC.o)
                              .\CortexM3\ARM_GCC_493\Debug\Security.o (Clock_CRC_Write)
.\CortexM3\ARM_GCC_493\Debug\CorEx-Mux-Kernel.a(Reset_CRC.o)
                              .\CortexM3\ARM_GCC_493\Debug\Security.o (Reset_CRC_Write)
.\CortexM3\ARM_GCC_493\Debug\CorEx-Mux-Kernel.a(Printer.o)
                              .\CortexM3\ARM_GCC_493\Debug\UARTManager.o (Printer_Start)
.\CortexM3\ARM_GCC_493\Debug\CorEx-Mux-Kernel.a(Dispenser.o)
                              .\CortexM3\ARM_GCC_493\Debug\UARTManager.o (Dispenser_Start)
.\CortexM3\ARM_GCC_493\Debug\CorEx-Mux-Kernel.a(Dispenser_INT.o)
                              .\CortexM3\ARM_GCC_493\Debug\CorEx-Mux-Kernel.a(Dispenser.o) (Dispenser_RXISR)
.\CortexM3\ARM_GCC_493\Debug\CorEx-Mux-Kernel.a(Display1.o)
                              .\CortexM3\ARM_GCC_493\Debug\UARTManager.o (Display1_Start)
.\CortexM3\ARM_GCC_493\Debug\CorEx-Mux-Kernel.a(Display1_INT.o)
                              .\CortexM3\ARM_GCC_493\Debug\CorEx-Mux-Kernel.a(Display1.o) (Display1_RXISR)
.\CortexM3\ARM_GCC_493\Debug\CorEx-Mux-Kernel.a(Display2.o)
                              .\CortexM3\ARM_GCC_493\Debug\UARTManager.o (Display2_Start)
.\CortexM3\ARM_GCC_493\Debug\CorEx-Mux-Kernel.a(Display2_INT.o)
                              .\CortexM3\ARM_GCC_493\Debug\CorEx-Mux-Kernel.a(Display2.o) (Display2_RXISR)
.\CortexM3\ARM_GCC_493\Debug\CorEx-Mux-Kernel.a(Counter_ISR.o)
                              .\CortexM3\ARM_GCC_493\Debug\Timers.o (Counter_ISR_StartEx)
.\CortexM3\ARM_GCC_493\Debug\CorEx-Mux-Kernel.a(Display1_IntClock.o)
                              .\CortexM3\ARM_GCC_493\Debug\CorEx-Mux-Kernel.a(Display1.o) (Display1_IntClock_Start)
.\CortexM3\ARM_GCC_493\Debug\CorEx-Mux-Kernel.a(Display2_IntClock.o)
                              .\CortexM3\ARM_GCC_493\Debug\CorEx-Mux-Kernel.a(Display2.o) (Display2_IntClock_Start)
.\CortexM3\ARM_GCC_493\Debug\CorEx-Mux-Kernel.a(I2C_Bus.o)
                              .\CortexM3\ARM_GCC_493\Debug\Initializers.o (I2C_Bus_Start)
.\CortexM3\ARM_GCC_493\Debug\CorEx-Mux-Kernel.a(I2C_Bus_INT.o)
                              .\CortexM3\ARM_GCC_493\Debug\CorEx-Mux-Kernel.a(I2C_Bus.o) (I2C_Bus_ISR)
.\CortexM3\ARM_GCC_493\Debug\CorEx-Mux-Kernel.a(I2C_Bus_PM.o)
                              .\CortexM3\ARM_GCC_493\Debug\CorEx-Mux-Kernel.a(I2C_Bus.o) (I2C_Bus_backup)
.\CortexM3\ARM_GCC_493\Debug\CorEx-Mux-Kernel.a(I2C_Bus_MASTER.o)
                              .\CortexM3\ARM_GCC_493\Debug\CorEx-Mux-Kernel.a(I2C_Bus.o) (I2C_Bus_mstrStatus)
.\CortexM3\ARM_GCC_493\Debug\CorEx-Mux-Kernel.a(iButton1.o)
                              .\CortexM3\ARM_GCC_493\Debug\iButtonProtocol.o (iButton1_Write)
.\CortexM3\ARM_GCC_493\Debug\CorEx-Mux-Kernel.a(iButton2.o)
                              .\CortexM3\ARM_GCC_493\Debug\TestFile.o (iButton2_Write)
.\CortexM3\ARM_GCC_493\Debug\CorEx-Mux-Kernel.a(eepromWP.o)
                              .\CortexM3\ARM_GCC_493\Debug\EepromManager.o (eepromWP_Write)
.\CortexM3\ARM_GCC_493\Debug\CorEx-Mux-Kernel.a(Timer_DispenserState.o)
                              .\CortexM3\ARM_GCC_493\Debug\Timers.o (Timer_DispenserState_Start)
.\CortexM3\ARM_GCC_493\Debug\CorEx-Mux-Kernel.a(DispenserStateTimeout_ISR.o)
                              .\CortexM3\ARM_GCC_493\Debug\Timers.o (DispenserStateTimeout_ISR_StartEx)
.\CortexM3\ARM_GCC_493\Debug\CorEx-Mux-Kernel.a(Timer_Tick.o)
                              .\CortexM3\ARM_GCC_493\Debug\Timers.o (Timer_Tick_Start)
.\CortexM3\ARM_GCC_493\Debug\CorEx-Mux-Kernel.a(ShiftReg_iButtonCRC4LSB.o)
                              .\CortexM3\ARM_GCC_493\Debug\iButtonBLL.o (ShiftReg_iButtonCRC4LSB_ReadRegValue)
.\CortexM3\ARM_GCC_493\Debug\CorEx-Mux-Kernel.a(Input_iButton.o)
                              .\CortexM3\ARM_GCC_493\Debug\iButtonBLL.o (Input_iButton_Write)
.\CortexM3\ARM_GCC_493\Debug\CorEx-Mux-Kernel.a(Clock_iButton.o)
                              .\CortexM3\ARM_GCC_493\Debug\iButtonBLL.o (Clock_iButton_Write)
.\CortexM3\ARM_GCC_493\Debug\CorEx-Mux-Kernel.a(ShiftReg_iButtonCRC3MSB.o)
                              .\CortexM3\ARM_GCC_493\Debug\iButtonBLL.o (ShiftReg_iButtonCRC3MSB_ReadRegValue)
.\CortexM3\ARM_GCC_493\Debug\CorEx-Mux-Kernel.a(StatusReg_iButton5thCRCBit.o)
                              .\CortexM3\ARM_GCC_493\Debug\iButtonBLL.o (StatusReg_iButton5thCRCBit_Read)
.\CortexM3\ARM_GCC_493\Debug\CorEx-Mux-Kernel.a(Reset_iButton.o)
                              .\CortexM3\ARM_GCC_493\Debug\iButtonBLL.o (Reset_iButton_Write)
.\CortexM3\ARM_GCC_493\Debug\CorEx-Mux-Kernel.a(CyFlash.o)
                              .\CortexM3\ARM_GCC_493\Debug\CorEx-Mux-Kernel.a(cyPm.o) (CyFlash_SetWaitCycles)
.\CortexM3\ARM_GCC_493\Debug\CorEx-Mux-Kernel.a(CySpc.o)
                              .\CortexM3\ARM_GCC_493\Debug\CorEx-Mux-Kernel.a(CyFlash.o) (CySpcStart)
c:/program files (x86)/cypress/psoc creator/3.3/psoc creator/import/gnu/arm/4.9.3/bin/../lib/gcc/arm-none-eabi/4.9.3/../../../../arm-none-eabi/lib/armv7-m\libm.a(lib_a-s_pow10.o)
                              .\CortexM3\ARM_GCC_493\Debug\Utils.o (pow10)
c:/program files (x86)/cypress/psoc creator/3.3/psoc creator/import/gnu/arm/4.9.3/bin/../lib/gcc/arm-none-eabi/4.9.3/../../../../arm-none-eabi/lib/armv7-m\libm.a(lib_a-s_round.o)
                              .\CortexM3\ARM_GCC_493\Debug\DispenserBLL.o (round)
c:/program files (x86)/cypress/psoc creator/3.3/psoc creator/import/gnu/arm/4.9.3/bin/../lib/gcc/arm-none-eabi/4.9.3/../../../../arm-none-eabi/lib/armv7-m\libm.a(lib_a-w_pow.o)
                              .\CortexM3\ARM_GCC_493\Debug\Utils.o (pow)
c:/program files (x86)/cypress/psoc creator/3.3/psoc creator/import/gnu/arm/4.9.3/bin/../lib/gcc/arm-none-eabi/4.9.3/../../../../arm-none-eabi/lib/armv7-m\libm.a(lib_a-e_pow.o)
                              c:/program files (x86)/cypress/psoc creator/3.3/psoc creator/import/gnu/arm/4.9.3/bin/../lib/gcc/arm-none-eabi/4.9.3/../../../../arm-none-eabi/lib/armv7-m\libm.a(lib_a-w_pow.o) (__ieee754_pow)
c:/program files (x86)/cypress/psoc creator/3.3/psoc creator/import/gnu/arm/4.9.3/bin/../lib/gcc/arm-none-eabi/4.9.3/../../../../arm-none-eabi/lib/armv7-m\libm.a(lib_a-e_sqrt.o)
                              c:/program files (x86)/cypress/psoc creator/3.3/psoc creator/import/gnu/arm/4.9.3/bin/../lib/gcc/arm-none-eabi/4.9.3/../../../../arm-none-eabi/lib/armv7-m\libm.a(lib_a-e_pow.o) (__ieee754_sqrt)
c:/program files (x86)/cypress/psoc creator/3.3/psoc creator/import/gnu/arm/4.9.3/bin/../lib/gcc/arm-none-eabi/4.9.3/../../../../arm-none-eabi/lib/armv7-m\libm.a(lib_a-s_fabs.o)
                              c:/program files (x86)/cypress/psoc creator/3.3/psoc creator/import/gnu/arm/4.9.3/bin/../lib/gcc/arm-none-eabi/4.9.3/../../../../arm-none-eabi/lib/armv7-m\libm.a(lib_a-e_pow.o) (fabs)
c:/program files (x86)/cypress/psoc creator/3.3/psoc creator/import/gnu/arm/4.9.3/bin/../lib/gcc/arm-none-eabi/4.9.3/../../../../arm-none-eabi/lib/armv7-m\libm.a(lib_a-s_finite.o)
                              c:/program files (x86)/cypress/psoc creator/3.3/psoc creator/import/gnu/arm/4.9.3/bin/../lib/gcc/arm-none-eabi/4.9.3/../../../../arm-none-eabi/lib/armv7-m\libm.a(lib_a-w_pow.o) (finite)
c:/program files (x86)/cypress/psoc creator/3.3/psoc creator/import/gnu/arm/4.9.3/bin/../lib/gcc/arm-none-eabi/4.9.3/../../../../arm-none-eabi/lib/armv7-m\libm.a(lib_a-s_fpclassify.o)
                              c:/program files (x86)/cypress/psoc creator/3.3/psoc creator/import/gnu/arm/4.9.3/bin/../lib/gcc/arm-none-eabi/4.9.3/../../../../arm-none-eabi/lib/armv7-m\libm.a(lib_a-w_pow.o) (__fpclassifyd)
c:/program files (x86)/cypress/psoc creator/3.3/psoc creator/import/gnu/arm/4.9.3/bin/../lib/gcc/arm-none-eabi/4.9.3/../../../../arm-none-eabi/lib/armv7-m\libm.a(lib_a-s_lib_ver.o)
                              c:/program files (x86)/cypress/psoc creator/3.3/psoc creator/import/gnu/arm/4.9.3/bin/../lib/gcc/arm-none-eabi/4.9.3/../../../../arm-none-eabi/lib/armv7-m\libm.a(lib_a-w_pow.o) (__fdlib_version)
c:/program files (x86)/cypress/psoc creator/3.3/psoc creator/import/gnu/arm/4.9.3/bin/../lib/gcc/arm-none-eabi/4.9.3/../../../../arm-none-eabi/lib/armv7-m\libm.a(lib_a-s_matherr.o)
                              c:/program files (x86)/cypress/psoc creator/3.3/psoc creator/import/gnu/arm/4.9.3/bin/../lib/gcc/arm-none-eabi/4.9.3/../../../../arm-none-eabi/lib/armv7-m\libm.a(lib_a-w_pow.o) (matherr)
c:/program files (x86)/cypress/psoc creator/3.3/psoc creator/import/gnu/arm/4.9.3/bin/../lib/gcc/arm-none-eabi/4.9.3/../../../../arm-none-eabi/lib/armv7-m\libm.a(lib_a-s_nan.o)
                              c:/program files (x86)/cypress/psoc creator/3.3/psoc creator/import/gnu/arm/4.9.3/bin/../lib/gcc/arm-none-eabi/4.9.3/../../../../arm-none-eabi/lib/armv7-m\libm.a(lib_a-e_pow.o) (nan)
c:/program files (x86)/cypress/psoc creator/3.3/psoc creator/import/gnu/arm/4.9.3/bin/../lib/gcc/arm-none-eabi/4.9.3/../../../../arm-none-eabi/lib/armv7-m\libm.a(lib_a-s_rint.o)
                              c:/program files (x86)/cypress/psoc creator/3.3/psoc creator/import/gnu/arm/4.9.3/bin/../lib/gcc/arm-none-eabi/4.9.3/../../../../arm-none-eabi/lib/armv7-m\libm.a(lib_a-w_pow.o) (rint)
c:/program files (x86)/cypress/psoc creator/3.3/psoc creator/import/gnu/arm/4.9.3/bin/../lib/gcc/arm-none-eabi/4.9.3/../../../../arm-none-eabi/lib/armv7-m\libm.a(lib_a-s_scalbn.o)
                              c:/program files (x86)/cypress/psoc creator/3.3/psoc creator/import/gnu/arm/4.9.3/bin/../lib/gcc/arm-none-eabi/4.9.3/../../../../arm-none-eabi/lib/armv7-m\libm.a(lib_a-e_pow.o) (scalbn)
c:/program files (x86)/cypress/psoc creator/3.3/psoc creator/import/gnu/arm/4.9.3/bin/../lib/gcc/arm-none-eabi/4.9.3/../../../../arm-none-eabi/lib/armv7-m\libm.a(lib_a-s_copysign.o)
                              c:/program files (x86)/cypress/psoc creator/3.3/psoc creator/import/gnu/arm/4.9.3/bin/../lib/gcc/arm-none-eabi/4.9.3/../../../../arm-none-eabi/lib/armv7-m\libm.a(lib_a-s_scalbn.o) (copysign)
c:/program files (x86)/cypress/psoc creator/3.3/psoc creator/import/gnu/arm/4.9.3/bin/../lib/gcc/arm-none-eabi/4.9.3/armv7-m\libgcc.a(_arm_addsubdf3.o)
                              .\CortexM3\ARM_GCC_493\Debug\Utils.o (__aeabi_dsub)
c:/program files (x86)/cypress/psoc creator/3.3/psoc creator/import/gnu/arm/4.9.3/bin/../lib/gcc/arm-none-eabi/4.9.3/armv7-m\libgcc.a(_arm_muldivdf3.o)
                              .\CortexM3\ARM_GCC_493\Debug\Utils.o (__aeabi_dmul)
c:/program files (x86)/cypress/psoc creator/3.3/psoc creator/import/gnu/arm/4.9.3/bin/../lib/gcc/arm-none-eabi/4.9.3/armv7-m\libgcc.a(_arm_cmpdf2.o)
                              c:/program files (x86)/cypress/psoc creator/3.3/psoc creator/import/gnu/arm/4.9.3/bin/../lib/gcc/arm-none-eabi/4.9.3/../../../../arm-none-eabi/lib/armv7-m\libm.a(lib_a-w_pow.o) (__aeabi_dcmpeq)
c:/program files (x86)/cypress/psoc creator/3.3/psoc creator/import/gnu/arm/4.9.3/bin/../lib/gcc/arm-none-eabi/4.9.3/armv7-m\libgcc.a(_arm_fixdfsi.o)
                              .\CortexM3\ARM_GCC_493\Debug\Utils.o (__aeabi_d2iz)
c:/program files (x86)/cypress/psoc creator/3.3/psoc creator/import/gnu/arm/4.9.3/bin/../lib/gcc/arm-none-eabi/4.9.3/armv7-m\libgcc.a(_arm_fixunsdfsi.o)
                              .\CortexM3\ARM_GCC_493\Debug\Utils.o (__aeabi_d2uiz)
c:/program files (x86)/cypress/psoc creator/3.3/psoc creator/import/gnu/arm/4.9.3/bin/../lib/gcc/arm-none-eabi/4.9.3/armv7-m\libgcc.a(_aeabi_uldivmod.o)
                              .\CortexM3\ARM_GCC_493\Debug\Utils.o (__aeabi_uldivmod)
c:/program files (x86)/cypress/psoc creator/3.3/psoc creator/import/gnu/arm/4.9.3/bin/../lib/gcc/arm-none-eabi/4.9.3/armv7-m\libgcc.a(_fixunsdfdi.o)
                              .\CortexM3\ARM_GCC_493\Debug\Utils.o (__aeabi_d2ulz)
c:/program files (x86)/cypress/psoc creator/3.3/psoc creator/import/gnu/arm/4.9.3/bin/../lib/gcc/arm-none-eabi/4.9.3/armv7-m\libgcc.a(bpabi.o)
                              c:/program files (x86)/cypress/psoc creator/3.3/psoc creator/import/gnu/arm/4.9.3/bin/../lib/gcc/arm-none-eabi/4.9.3/armv7-m\libgcc.a(_aeabi_uldivmod.o) (__gnu_uldivmod_helper)
c:/program files (x86)/cypress/psoc creator/3.3/psoc creator/import/gnu/arm/4.9.3/bin/../lib/gcc/arm-none-eabi/4.9.3/armv7-m\libgcc.a(_dvmd_tls.o)
                              c:/program files (x86)/cypress/psoc creator/3.3/psoc creator/import/gnu/arm/4.9.3/bin/../lib/gcc/arm-none-eabi/4.9.3/armv7-m\libgcc.a(_aeabi_uldivmod.o) (__aeabi_ldiv0)
c:/program files (x86)/cypress/psoc creator/3.3/psoc creator/import/gnu/arm/4.9.3/bin/../lib/gcc/arm-none-eabi/4.9.3/armv7-m\libgcc.a(_divdi3.o)
                              c:/program files (x86)/cypress/psoc creator/3.3/psoc creator/import/gnu/arm/4.9.3/bin/../lib/gcc/arm-none-eabi/4.9.3/armv7-m\libgcc.a(bpabi.o) (__divdi3)
c:/program files (x86)/cypress/psoc creator/3.3/psoc creator/import/gnu/arm/4.9.3/bin/../lib/gcc/arm-none-eabi/4.9.3/armv7-m\libgcc.a(_udivdi3.o)
                              c:/program files (x86)/cypress/psoc creator/3.3/psoc creator/import/gnu/arm/4.9.3/bin/../lib/gcc/arm-none-eabi/4.9.3/armv7-m\libgcc.a(bpabi.o) (__udivdi3)
c:/program files (x86)/cypress/psoc creator/3.3/psoc creator/import/gnu/arm/4.9.3/bin/../lib/gcc/arm-none-eabi/4.9.3/../../../../arm-none-eabi/lib/armv7-m\libg_nano.a(lib_a-errno.o)
                              .\CortexM3\ARM_GCC_493\Debug\Cm3Start.o (__errno)
c:/program files (x86)/cypress/psoc creator/3.3/psoc creator/import/gnu/arm/4.9.3/bin/../lib/gcc/arm-none-eabi/4.9.3/../../../../arm-none-eabi/lib/armv7-m\libg_nano.a(lib_a-exit.o)
                              c:/program files (x86)/cypress/psoc creator/3.3/psoc creator/import/gnu/arm/4.9.3/bin/../lib/gcc/arm-none-eabi/4.9.3/../../../../arm-none-eabi/lib/armv7-m/crt0.o (exit)
c:/program files (x86)/cypress/psoc creator/3.3/psoc creator/import/gnu/arm/4.9.3/bin/../lib/gcc/arm-none-eabi/4.9.3/../../../../arm-none-eabi/lib/armv7-m\libg_nano.a(lib_a-impure.o)
                              c:/program files (x86)/cypress/psoc creator/3.3/psoc creator/import/gnu/arm/4.9.3/bin/../lib/gcc/arm-none-eabi/4.9.3/../../../../arm-none-eabi/lib/armv7-m\libg_nano.a(lib_a-exit.o) (_global_impure_ptr)
c:/program files (x86)/cypress/psoc creator/3.3/psoc creator/import/gnu/arm/4.9.3/bin/../lib/gcc/arm-none-eabi/4.9.3/../../../../arm-none-eabi/lib/armv7-m\libg_nano.a(lib_a-init.o)
                              c:/program files (x86)/cypress/psoc creator/3.3/psoc creator/import/gnu/arm/4.9.3/bin/../lib/gcc/arm-none-eabi/4.9.3/../../../../arm-none-eabi/lib/armv7-m/crt0.o (__libc_init_array)
c:/program files (x86)/cypress/psoc creator/3.3/psoc creator/import/gnu/arm/4.9.3/bin/../lib/gcc/arm-none-eabi/4.9.3/../../../../arm-none-eabi/lib/armv7-m\libg_nano.a(lib_a-memcpy.o)
                              .\CortexM3\ARM_GCC_493\Debug\DispenserResolver.o (memcpy)
c:/program files (x86)/cypress/psoc creator/3.3/psoc creator/import/gnu/arm/4.9.3/bin/../lib/gcc/arm-none-eabi/4.9.3/../../../../arm-none-eabi/lib/armv7-m\libg_nano.a(lib_a-memset.o)
                              c:/program files (x86)/cypress/psoc creator/3.3/psoc creator/import/gnu/arm/4.9.3/bin/../lib/gcc/arm-none-eabi/4.9.3/../../../../arm-none-eabi/lib/armv7-m/crt0.o (memset)
c:/program files (x86)/cypress/psoc creator/3.3/psoc creator/import/gnu/arm/4.9.3/bin/../lib/gcc/arm-none-eabi/4.9.3/../../../../arm-none-eabi/lib/armv7-m\libg_nano.a(lib_a-rand.o)
                              .\CortexM3\ARM_GCC_493\Debug\SinkManager.o (rand)
c:/program files (x86)/cypress/psoc creator/3.3/psoc creator/import/gnu/arm/4.9.3/bin/../lib/gcc/arm-none-eabi/4.9.3/../../../../arm-none-eabi/lib/armv7-m\libg_nano.a(lib_a-sprintf.o)
                              .\CortexM3\ARM_GCC_493\Debug\DisplayBLL.o (sprintf)
c:/program files (x86)/cypress/psoc creator/3.3/psoc creator/import/gnu/arm/4.9.3/bin/../lib/gcc/arm-none-eabi/4.9.3/../../../../arm-none-eabi/lib/armv7-m\libg_nano.a(lib_a-strchr.o)
                              .\CortexM3\ARM_GCC_493\Debug\DisplayUtils.o (strchr)
c:/program files (x86)/cypress/psoc creator/3.3/psoc creator/import/gnu/arm/4.9.3/bin/../lib/gcc/arm-none-eabi/4.9.3/../../../../arm-none-eabi/lib/armv7-m\libg_nano.a(lib_a-strlen.o)
                              .\CortexM3\ARM_GCC_493\Debug\DisplayBLL.o (strlen)
c:/program files (x86)/cypress/psoc creator/3.3/psoc creator/import/gnu/arm/4.9.3/bin/../lib/gcc/arm-none-eabi/4.9.3/../../../../arm-none-eabi/lib/armv7-m\libg_nano.a(lib_a-strncmp.o)
                              .\CortexM3\ARM_GCC_493\Debug\DisplayUtils.o (strncmp)
c:/program files (x86)/cypress/psoc creator/3.3/psoc creator/import/gnu/arm/4.9.3/bin/../lib/gcc/arm-none-eabi/4.9.3/../../../../arm-none-eabi/lib/armv7-m\libg_nano.a(lib_a-malloc.o)
                              c:/program files (x86)/cypress/psoc creator/3.3/psoc creator/import/gnu/arm/4.9.3/bin/../lib/gcc/arm-none-eabi/4.9.3/../../../../arm-none-eabi/lib/armv7-m\libg_nano.a(lib_a-rand.o) (malloc)
c:/program files (x86)/cypress/psoc creator/3.3/psoc creator/import/gnu/arm/4.9.3/bin/../lib/gcc/arm-none-eabi/4.9.3/../../../../arm-none-eabi/lib/armv7-m\libg_nano.a(lib_a-nano-freer.o)
                              c:/program files (x86)/cypress/psoc creator/3.3/psoc creator/import/gnu/arm/4.9.3/bin/../lib/gcc/arm-none-eabi/4.9.3/../../../../arm-none-eabi/lib/armv7-m\libg_nano.a(lib_a-malloc.o) (_free_r)
c:/program files (x86)/cypress/psoc creator/3.3/psoc creator/import/gnu/arm/4.9.3/bin/../lib/gcc/arm-none-eabi/4.9.3/../../../../arm-none-eabi/lib/armv7-m\libg_nano.a(lib_a-nano-mallocr.o)
                              c:/program files (x86)/cypress/psoc creator/3.3/psoc creator/import/gnu/arm/4.9.3/bin/../lib/gcc/arm-none-eabi/4.9.3/../../../../arm-none-eabi/lib/armv7-m\libg_nano.a(lib_a-malloc.o) (_malloc_r)
c:/program files (x86)/cypress/psoc creator/3.3/psoc creator/import/gnu/arm/4.9.3/bin/../lib/gcc/arm-none-eabi/4.9.3/../../../../arm-none-eabi/lib/armv7-m\libg_nano.a(lib_a-nano-svfprintf.o)
                              c:/program files (x86)/cypress/psoc creator/3.3/psoc creator/import/gnu/arm/4.9.3/bin/../lib/gcc/arm-none-eabi/4.9.3/../../../../arm-none-eabi/lib/armv7-m\libg_nano.a(lib_a-sprintf.o) (_svfprintf_r)
c:/program files (x86)/cypress/psoc creator/3.3/psoc creator/import/gnu/arm/4.9.3/bin/../lib/gcc/arm-none-eabi/4.9.3/../../../../arm-none-eabi/lib/armv7-m\libg_nano.a(lib_a-nano-vfprintf_i.o)
                              c:/program files (x86)/cypress/psoc creator/3.3/psoc creator/import/gnu/arm/4.9.3/bin/../lib/gcc/arm-none-eabi/4.9.3/../../../../arm-none-eabi/lib/armv7-m\libg_nano.a(lib_a-nano-svfprintf.o) (_printf_i)
c:/program files (x86)/cypress/psoc creator/3.3/psoc creator/import/gnu/arm/4.9.3/bin/../lib/gcc/arm-none-eabi/4.9.3/../../../../arm-none-eabi/lib/armv7-m\libg_nano.a(lib_a-sbrkr.o)
                              c:/program files (x86)/cypress/psoc creator/3.3/psoc creator/import/gnu/arm/4.9.3/bin/../lib/gcc/arm-none-eabi/4.9.3/../../../../arm-none-eabi/lib/armv7-m\libg_nano.a(lib_a-nano-mallocr.o) (_sbrk_r)
c:/program files (x86)/cypress/psoc creator/3.3/psoc creator/import/gnu/arm/4.9.3/bin/../lib/gcc/arm-none-eabi/4.9.3/../../../../arm-none-eabi/lib/armv7-m\libg_nano.a(lib_a-memchr.o)
                              c:/program files (x86)/cypress/psoc creator/3.3/psoc creator/import/gnu/arm/4.9.3/bin/../lib/gcc/arm-none-eabi/4.9.3/../../../../arm-none-eabi/lib/armv7-m\libg_nano.a(lib_a-nano-svfprintf.o) (memchr)
c:/program files (x86)/cypress/psoc creator/3.3/psoc creator/import/gnu/arm/4.9.3/bin/../lib/gcc/arm-none-eabi/4.9.3/../../../../arm-none-eabi/lib/armv7-m\libg_nano.a(lib_a-memmove.o)
                              c:/program files (x86)/cypress/psoc creator/3.3/psoc creator/import/gnu/arm/4.9.3/bin/../lib/gcc/arm-none-eabi/4.9.3/../../../../arm-none-eabi/lib/armv7-m\libg_nano.a(lib_a-nano-svfprintf.o) (memmove)
c:/program files (x86)/cypress/psoc creator/3.3/psoc creator/import/gnu/arm/4.9.3/bin/../lib/gcc/arm-none-eabi/4.9.3/../../../../arm-none-eabi/lib/armv7-m\libg_nano.a(lib_a-nano-reallocr.o)
                              c:/program files (x86)/cypress/psoc creator/3.3/psoc creator/import/gnu/arm/4.9.3/bin/../lib/gcc/arm-none-eabi/4.9.3/../../../../arm-none-eabi/lib/armv7-m\libg_nano.a(lib_a-nano-svfprintf.o) (_realloc_r)
c:/program files (x86)/cypress/psoc creator/3.3/psoc creator/import/gnu/arm/4.9.3/bin/../lib/gcc/arm-none-eabi/4.9.3/../../../../arm-none-eabi/lib/armv7-m\libg_nano.a(lib_a-reent.o)
                              c:/program files (x86)/cypress/psoc creator/3.3/psoc creator/import/gnu/arm/4.9.3/bin/../lib/gcc/arm-none-eabi/4.9.3/../../../../arm-none-eabi/lib/armv7-m\libg_nano.a(lib_a-sbrkr.o) (errno)
c:/program files (x86)/cypress/psoc creator/3.3/psoc creator/import/gnu/arm/4.9.3/bin/../lib/gcc/arm-none-eabi/4.9.3/../../../../arm-none-eabi/lib/armv7-m\libg_nano.a(lib_a-nano-msizer.o)
                              c:/program files (x86)/cypress/psoc creator/3.3/psoc creator/import/gnu/arm/4.9.3/bin/../lib/gcc/arm-none-eabi/4.9.3/../../../../arm-none-eabi/lib/armv7-m\libg_nano.a(lib_a-nano-reallocr.o) (_malloc_usable_size_r)

Allocating common symbols
Common symbol       size              file

_g_loop_container   0x44              .\CortexM3\ARM_GCC_493\Debug\PseudoRTOS.o
_g_padcharacters    0x1f              .\CortexM3\ARM_GCC_493\Debug\PrinterBLL.o
_g_pumps            0x2e60            .\CortexM3\ARM_GCC_493\Debug\Prime.o
_g_pretval          0x10              .\CortexM3\ARM_GCC_493\Debug\SinkManager.o
_g_ptr_LOOP         0x4               .\CortexM3\ARM_GCC_493\Debug\PseudoRTOS.o
I2C_Bus_mstrWrBufSize
                    0x1               .\CortexM3\ARM_GCC_493\Debug\CorEx-Mux-Kernel.a(I2C_Bus_MASTER.o)
errno               0x4               c:/program files (x86)/cypress/psoc creator/3.3/psoc creator/import/gnu/arm/4.9.3/bin/../lib/gcc/arm-none-eabi/4.9.3/../../../../arm-none-eabi/lib/armv7-m\libg_nano.a(lib_a-reent.o)
Dispenser_rxBuffer  0x100             .\CortexM3\ARM_GCC_493\Debug\CorEx-Mux-Kernel.a(Dispenser.o)
_g_sinkmessagequeue
                    0x4c80            .\CortexM3\ARM_GCC_493\Debug\SinkManager.o
Display1_rxBuffer   0x20              .\CortexM3\ARM_GCC_493\Debug\CorEx-Mux-Kernel.a(Display1.o)
_g_rfautorun        0xa               .\CortexM3\ARM_GCC_493\Debug\RFSink.o
I2C_Bus_state       0x1               .\CortexM3\ARM_GCC_493\Debug\CorEx-Mux-Kernel.a(I2C_Bus.o)
Display2_rxBuffer   0x20              .\CortexM3\ARM_GCC_493\Debug\CorEx-Mux-Kernel.a(Display2.o)
_g_rtc              0x10              .\CortexM3\ARM_GCC_493\Debug\RtcManager.o
I2C_Bus_mstrControl
                    0x1               .\CortexM3\ARM_GCC_493\Debug\CorEx-Mux-Kernel.a(I2C_Bus_MASTER.o)
I2C_Bus_mstrRdBufSize
                    0x1               .\CortexM3\ARM_GCC_493\Debug\CorEx-Mux-Kernel.a(I2C_Bus_MASTER.o)
_g_dispenserlayoutinfo
                    0x14              .\CortexM3\ARM_GCC_493\Debug\Prime.o
_g_sinksubscriberqueue
                    0x2c0             .\CortexM3\ARM_GCC_493\Debug\SinkManager.o
I2C_Bus_mstrRdBufPtr
                    0x4               .\CortexM3\ARM_GCC_493\Debug\CorEx-Mux-Kernel.a(I2C_Bus_MASTER.o)
I2C_Bus_mstrStatus  0x1               .\CortexM3\ARM_GCC_493\Debug\CorEx-Mux-Kernel.a(I2C_Bus_MASTER.o)
_g_pumpjobqueue     0x754             .\CortexM3\ARM_GCC_493\Debug\Prime.o
_g_uartmessages     0x14f0            .\CortexM3\ARM_GCC_493\Debug\UARTManager.o
_g_auxprinterbuffer
                    0x1f              .\CortexM3\ARM_GCC_493\Debug\PrinterBLL.o
I2C_Bus_mstrWrBufIndex
                    0x1               .\CortexM3\ARM_GCC_493\Debug\CorEx-Mux-Kernel.a(I2C_Bus_MASTER.o)
RF_Physical_rxBuffer
                    0x200             .\CortexM3\ARM_GCC_493\Debug\CorEx-Mux-Kernel.a(RF_Physical.o)
I2C_Bus_mstrWrBufPtr
                    0x4               .\CortexM3\ARM_GCC_493\Debug\CorEx-Mux-Kernel.a(I2C_Bus_MASTER.o)
_g_rfrx             0xc               .\CortexM3\ARM_GCC_493\Debug\RFResolver.o
I2C_Bus_mstrRdBufIndex
                    0x1               .\CortexM3\ARM_GCC_493\Debug\CorEx-Mux-Kernel.a(I2C_Bus_MASTER.o)
_g_respctxt         0x20c             .\CortexM3\ARM_GCC_493\Debug\DispenserResolver.o
dieTemperature      0x2               .\CortexM3\ARM_GCC_493\Debug\CorEx-Mux-Kernel.a(CyFlash.o)
_g_printerlayout    0x2               .\CortexM3\ARM_GCC_493\Debug\PrinterSink.o
_g_separator        0x1f              .\CortexM3\ARM_GCC_493\Debug\PrinterBLL.o
_g_eeprom           0x42              .\CortexM3\ARM_GCC_493\Debug\EepromManager.o

Discarded input sections

 .text          0x00000000        0x0 c:/program files (x86)/cypress/psoc creator/3.3/psoc creator/import/gnu/arm/4.9.3/bin/../lib/gcc/arm-none-eabi/4.9.3/armv7-m/crti.o
 .data          0x00000000        0x0 c:/program files (x86)/cypress/psoc creator/3.3/psoc creator/import/gnu/arm/4.9.3/bin/../lib/gcc/arm-none-eabi/4.9.3/armv7-m/crti.o
 .bss           0x00000000        0x0 c:/program files (x86)/cypress/psoc creator/3.3/psoc creator/import/gnu/arm/4.9.3/bin/../lib/gcc/arm-none-eabi/4.9.3/armv7-m/crti.o
 .data          0x00000000        0x4 c:/program files (x86)/cypress/psoc creator/3.3/psoc creator/import/gnu/arm/4.9.3/bin/../lib/gcc/arm-none-eabi/4.9.3/armv7-m/crtbegin.o
 .text          0x00000000       0x74 c:/program files (x86)/cypress/psoc creator/3.3/psoc creator/import/gnu/arm/4.9.3/bin/../lib/gcc/arm-none-eabi/4.9.3/../../../../arm-none-eabi/lib/armv7-m/crt0.o
 .data          0x00000000        0x0 c:/program files (x86)/cypress/psoc creator/3.3/psoc creator/import/gnu/arm/4.9.3/bin/../lib/gcc/arm-none-eabi/4.9.3/../../../../arm-none-eabi/lib/armv7-m/crt0.o
 .bss           0x00000000        0x0 c:/program files (x86)/cypress/psoc creator/3.3/psoc creator/import/gnu/arm/4.9.3/bin/../lib/gcc/arm-none-eabi/4.9.3/../../../../arm-none-eabi/lib/armv7-m/crt0.o
 .ARM.extab     0x00000000        0x0 c:/program files (x86)/cypress/psoc creator/3.3/psoc creator/import/gnu/arm/4.9.3/bin/../lib/gcc/arm-none-eabi/4.9.3/../../../../arm-none-eabi/lib/armv7-m/crt0.o
 .ARM.exidx     0x00000000        0x8 c:/program files (x86)/cypress/psoc creator/3.3/psoc creator/import/gnu/arm/4.9.3/bin/../lib/gcc/arm-none-eabi/4.9.3/../../../../arm-none-eabi/lib/armv7-m/crt0.o
 .text          0x00000000        0x0 .\CortexM3\ARM_GCC_493\Debug\UARTManager.o
 .bss           0x00000000        0x0 .\CortexM3\ARM_GCC_493\Debug\UARTManager.o
 .text          0x00000000        0x0 .\CortexM3\ARM_GCC_493\Debug\UARTResolver.o
 .bss           0x00000000        0x0 .\CortexM3\ARM_GCC_493\Debug\UARTResolver.o
 .text          0x00000000        0x0 .\CortexM3\ARM_GCC_493\Debug\UARTManagerSink.o
 .data          0x00000000        0x0 .\CortexM3\ARM_GCC_493\Debug\UARTManagerSink.o
 .bss           0x00000000        0x0 .\CortexM3\ARM_GCC_493\Debug\UARTManagerSink.o
 .text          0x00000000        0x0 .\CortexM3\ARM_GCC_493\Debug\PseudoRTOS.o
 .data          0x00000000        0x0 .\CortexM3\ARM_GCC_493\Debug\PseudoRTOS.o
 .bss           0x00000000        0x0 .\CortexM3\ARM_GCC_493\Debug\PseudoRTOS.o
 .text          0x00000000        0x0 .\CortexM3\ARM_GCC_493\Debug\Utils.o
 .data          0x00000000        0x0 .\CortexM3\ARM_GCC_493\Debug\Utils.o
 .bss           0x00000000        0x0 .\CortexM3\ARM_GCC_493\Debug\Utils.o
 .text.BCDPositiveValueToUInt
                0x00000000       0xcc .\CortexM3\ARM_GCC_493\Debug\Utils.o
 .text.DLSDBCDBUFF2HEX
                0x00000000       0x88 .\CortexM3\ARM_GCC_493\Debug\Utils.o
 .text.MSDBCDBUFF2HEX
                0x00000000       0xa0 .\CortexM3\ARM_GCC_493\Debug\Utils.o
 .text.ISVALIDBCD
                0x00000000       0x4c .\CortexM3\ARM_GCC_493\Debug\Utils.o
 .text.Ceil     0x00000000       0x6c .\CortexM3\ARM_GCC_493\Debug\Utils.o
 .text.RGB216BITS
                0x00000000       0x50 .\CortexM3\ARM_GCC_493\Debug\Utils.o
 .text.ISASCIIPRNBLE
                0x00000000       0x44 .\CortexM3\ARM_GCC_493\Debug\Utils.o
 .text          0x00000000        0x0 .\CortexM3\ARM_GCC_493\Debug\Security.o
 .data          0x00000000        0x0 .\CortexM3\ARM_GCC_493\Debug\Security.o
 .bss           0x00000000        0x0 .\CortexM3\ARM_GCC_493\Debug\Security.o
 .text.StartSecurityLayer
                0x00000000       0x10 .\CortexM3\ARM_GCC_493\Debug\Security.o
 .text.ClockCRC
                0x00000000       0x20 .\CortexM3\ARM_GCC_493\Debug\Security.o
 .text.CalcCRC  0x00000000       0x70 .\CortexM3\ARM_GCC_493\Debug\Security.o
 .text          0x00000000        0x0 .\CortexM3\ARM_GCC_493\Debug\SinkManager.o
 .data          0x00000000        0x0 .\CortexM3\ARM_GCC_493\Debug\SinkManager.o
 .bss           0x00000000        0x0 .\CortexM3\ARM_GCC_493\Debug\SinkManager.o
 .text          0x00000000        0x0 .\CortexM3\ARM_GCC_493\Debug\EepromManager.o
 .text          0x00000000        0x0 .\CortexM3\ARM_GCC_493\Debug\RtcManager.o
 .data          0x00000000        0x0 .\CortexM3\ARM_GCC_493\Debug\RtcManager.o
 .bss           0x00000000        0x0 .\CortexM3\ARM_GCC_493\Debug\RtcManager.o
 .text          0x00000000        0x0 .\CortexM3\ARM_GCC_493\Debug\Initializers.o
 .data          0x00000000        0x0 .\CortexM3\ARM_GCC_493\Debug\Initializers.o
 .bss           0x00000000        0x0 .\CortexM3\ARM_GCC_493\Debug\Initializers.o
 .text          0x00000000        0x0 .\CortexM3\ARM_GCC_493\Debug\Timers.o
 .data          0x00000000        0x0 .\CortexM3\ARM_GCC_493\Debug\Timers.o
 .bss           0x00000000        0x0 .\CortexM3\ARM_GCC_493\Debug\Timers.o
 .text          0x00000000        0x0 .\CortexM3\ARM_GCC_493\Debug\TestFile.o
 .data          0x00000000        0x0 .\CortexM3\ARM_GCC_493\Debug\TestFile.o
 .bss           0x00000000        0x0 .\CortexM3\ARM_GCC_493\Debug\TestFile.o
 .text.InitTest
                0x00000000        0xc .\CortexM3\ARM_GCC_493\Debug\TestFile.o
 .text.BlinkLEDOniButton2
                0x00000000       0x24 .\CortexM3\ARM_GCC_493\Debug\TestFile.o
 .text          0x00000000        0x0 .\CortexM3\ARM_GCC_493\Debug\AuxPSoC.o
 .data          0x00000000        0x0 .\CortexM3\ARM_GCC_493\Debug\AuxPSoC.o
 .bss           0x00000000        0x0 .\CortexM3\ARM_GCC_493\Debug\AuxPSoC.o
 .text          0x00000000        0x0 .\CortexM3\ARM_GCC_493\Debug\WatchDogReset.o
 .data          0x00000000        0x0 .\CortexM3\ARM_GCC_493\Debug\WatchDogReset.o
 .text          0x00000000        0x0 .\CortexM3\ARM_GCC_493\Debug\DispenserResolver.o
 .data          0x00000000        0x0 .\CortexM3\ARM_GCC_493\Debug\DispenserResolver.o
 .bss           0x00000000        0x0 .\CortexM3\ARM_GCC_493\Debug\DispenserResolver.o
 .text          0x00000000        0x0 .\CortexM3\ARM_GCC_493\Debug\DispenserBLL.o
 .text          0x00000000        0x0 .\CortexM3\ARM_GCC_493\Debug\DispenserSink.o
 .data          0x00000000        0x0 .\CortexM3\ARM_GCC_493\Debug\DispenserSink.o
 .text          0x00000000        0x0 .\CortexM3\ARM_GCC_493\Debug\DisplayBLL.o
 .text.MaskoutOptionDecorator
                0x00000000      0x134 .\CortexM3\ARM_GCC_493\Debug\DisplayBLL.o
 .text.AuthorizationMessageDecorator
                0x00000000      0x348 .\CortexM3\ARM_GCC_493\Debug\DisplayBLL.o
 .text.KillHosePositionStateValidation
                0x00000000       0x2c .\CortexM3\ARM_GCC_493\Debug\DisplayBLL.o
 .text.SaveSelectedPosition
                0x00000000       0x64 .\CortexM3\ARM_GCC_493\Debug\DisplayBLL.o
 .text          0x00000000        0x0 .\CortexM3\ARM_GCC_493\Debug\DisplaySink.o
 .data          0x00000000        0x0 .\CortexM3\ARM_GCC_493\Debug\DisplaySink.o
 .bss           0x00000000        0x0 .\CortexM3\ARM_GCC_493\Debug\DisplaySink.o
 .text          0x00000000        0x0 .\CortexM3\ARM_GCC_493\Debug\DisplayUtils.o
 .bss           0x00000000        0x0 .\CortexM3\ARM_GCC_493\Debug\DisplayUtils.o
 .text.DisplayNumericInputHandler
                0x00000000      0x1e4 .\CortexM3\ARM_GCC_493\Debug\DisplayUtils.o
 .text.NonEmptyVolumeValidator
                0x00000000      0x140 .\CortexM3\ARM_GCC_493\Debug\DisplayUtils.o
 .text          0x00000000        0x0 .\CortexM3\ARM_GCC_493\Debug\DisplayFlow.o
 .bss           0x00000000        0x0 .\CortexM3\ARM_GCC_493\Debug\DisplayFlow.o
 .text          0x00000000        0x0 .\CortexM3\ARM_GCC_493\Debug\DisplayCharacterMap.o
 .bss           0x00000000        0x0 .\CortexM3\ARM_GCC_493\Debug\DisplayCharacterMap.o
 .text          0x00000000        0x0 .\CortexM3\ARM_GCC_493\Debug\DisplayBufferScreenMap.o
 .bss           0x00000000        0x0 .\CortexM3\ARM_GCC_493\Debug\DisplayBufferScreenMap.o
 .text          0x00000000        0x0 .\CortexM3\ARM_GCC_493\Debug\DisplayResolver.o
 .data          0x00000000        0x0 .\CortexM3\ARM_GCC_493\Debug\DisplayResolver.o
 .bss           0x00000000        0x0 .\CortexM3\ARM_GCC_493\Debug\DisplayResolver.o
 .text.Dislay2UARTSend
                0x00000000       0x48 .\CortexM3\ARM_GCC_493\Debug\DisplayResolver.o
 .text          0x00000000        0x0 .\CortexM3\ARM_GCC_493\Debug\PrinterBLL.o
 .bss           0x00000000        0x0 .\CortexM3\ARM_GCC_493\Debug\PrinterBLL.o
 .text          0x00000000        0x0 .\CortexM3\ARM_GCC_493\Debug\PrinterSink.o
 .data          0x00000000        0x0 .\CortexM3\ARM_GCC_493\Debug\PrinterSink.o
 .bss           0x00000000        0x0 .\CortexM3\ARM_GCC_493\Debug\PrinterSink.o
 .text          0x00000000        0x0 .\CortexM3\ARM_GCC_493\Debug\PrinterResolver.o
 .data          0x00000000        0x0 .\CortexM3\ARM_GCC_493\Debug\PrinterResolver.o
 .bss           0x00000000        0x0 .\CortexM3\ARM_GCC_493\Debug\PrinterResolver.o
 .text          0x00000000        0x0 .\CortexM3\ARM_GCC_493\Debug\PrinterTemplate.o
 .bss           0x00000000        0x0 .\CortexM3\ARM_GCC_493\Debug\PrinterTemplate.o
 .text          0x00000000        0x0 .\CortexM3\ARM_GCC_493\Debug\iButtonSink.o
 .data          0x00000000        0x0 .\CortexM3\ARM_GCC_493\Debug\iButtonSink.o
 .bss           0x00000000        0x0 .\CortexM3\ARM_GCC_493\Debug\iButtonSink.o
 .text          0x00000000        0x0 .\CortexM3\ARM_GCC_493\Debug\iButtonBLL.o
 .data          0x00000000        0x0 .\CortexM3\ARM_GCC_493\Debug\iButtonBLL.o
 .bss           0x00000000        0x0 .\CortexM3\ARM_GCC_493\Debug\iButtonBLL.o
 .text.iButtonCRCReset
                0x00000000       0x2c .\CortexM3\ARM_GCC_493\Debug\iButtonBLL.o
 .text.iButtonCastCRCOutput
                0x00000000       0x40 .\CortexM3\ARM_GCC_493\Debug\iButtonBLL.o
 .text.iButtonCRCCheck
                0x00000000       0x7c .\CortexM3\ARM_GCC_493\Debug\iButtonBLL.o
 .text          0x00000000        0x0 .\CortexM3\ARM_GCC_493\Debug\iButtonProtocol.o
 .data          0x00000000        0x0 .\CortexM3\ARM_GCC_493\Debug\iButtonProtocol.o
 .bss           0x00000000        0x0 .\CortexM3\ARM_GCC_493\Debug\iButtonProtocol.o
 .text          0x00000000        0x0 .\CortexM3\ARM_GCC_493\Debug\Prime.o
 .data          0x00000000        0x0 .\CortexM3\ARM_GCC_493\Debug\Prime.o
 .bss           0x00000000        0x0 .\CortexM3\ARM_GCC_493\Debug\Prime.o
 .text          0x00000000        0x0 .\CortexM3\ARM_GCC_493\Debug\PrimeFlow.o
 .bss           0x00000000        0x0 .\CortexM3\ARM_GCC_493\Debug\PrimeFlow.o
 .text          0x00000000        0x0 .\CortexM3\ARM_GCC_493\Debug\PrimeImpl.o
 .text.ProcessPumpRTHoseVolumeRequestGlobal
                0x00000000       0x5c .\CortexM3\ARM_GCC_493\Debug\PrimeImpl.o
 .text.ProcessPumpTotalsDataStart
                0x00000000      0x18c .\CortexM3\ARM_GCC_493\Debug\PrimeImpl.o
 .text.ProcessPumpTotalsDataEnd
                0x00000000      0x204 .\CortexM3\ARM_GCC_493\Debug\PrimeImpl.o
 .text.ProcessPumpTotalsDataPpuCheck
                0x00000000       0x2c .\CortexM3\ARM_GCC_493\Debug\PrimeImpl.o
 .text.PumpPresetNoHose
                0x00000000      0x150 .\CortexM3\ARM_GCC_493\Debug\PrimeImpl.o
 .text.PumpFullPresetNoHose
                0x00000000      0x188 .\CortexM3\ARM_GCC_493\Debug\PrimeImpl.o
 .text.PumpMiscellaneousConfiguration
                0x00000000       0xe8 .\CortexM3\ARM_GCC_493\Debug\PrimeImpl.o
 .text.AcquirePumpMiscellaneousConfiguration
                0x00000000       0x18 .\CortexM3\ARM_GCC_493\Debug\PrimeImpl.o
 .text.AcquirePpuChangeResponse
                0x00000000       0x98 .\CortexM3\ARM_GCC_493\Debug\PrimeImpl.o
 .text.ComplementaryCreditTransactionOnHose
                0x00000000       0x88 .\CortexM3\ARM_GCC_493\Debug\PrimeImpl.o
 .text.FindLRC  0x00000000       0x30 .\CortexM3\ARM_GCC_493\Debug\PrimeImpl.o
 .text          0x00000000        0x0 .\CortexM3\ARM_GCC_493\Debug\Encore.o
 .data          0x00000000        0x0 .\CortexM3\ARM_GCC_493\Debug\Encore.o
 .bss           0x00000000        0x0 .\CortexM3\ARM_GCC_493\Debug\Encore.o
 .text          0x00000000        0x0 .\CortexM3\ARM_GCC_493\Debug\EncoreFlow.o
 .data          0x00000000        0x0 .\CortexM3\ARM_GCC_493\Debug\EncoreFlow.o
 .bss           0x00000000        0x0 .\CortexM3\ARM_GCC_493\Debug\EncoreFlow.o
 .text          0x00000000        0x0 .\CortexM3\ARM_GCC_493\Debug\EncoreImpl.o
 .data          0x00000000        0x0 .\CortexM3\ARM_GCC_493\Debug\EncoreImpl.o
 .bss           0x00000000        0x0 .\CortexM3\ARM_GCC_493\Debug\EncoreImpl.o
 .text          0x00000000        0x0 .\CortexM3\ARM_GCC_493\Debug\Advantage.o
 .data          0x00000000        0x0 .\CortexM3\ARM_GCC_493\Debug\Advantage.o
 .bss           0x00000000        0x0 .\CortexM3\ARM_GCC_493\Debug\Advantage.o
 .text          0x00000000        0x0 .\CortexM3\ARM_GCC_493\Debug\AdvantageFlow.o
 .data          0x00000000        0x0 .\CortexM3\ARM_GCC_493\Debug\AdvantageFlow.o
 .bss           0x00000000        0x0 .\CortexM3\ARM_GCC_493\Debug\AdvantageFlow.o
 .text          0x00000000        0x0 .\CortexM3\ARM_GCC_493\Debug\AdvantageImpl.o
 .data          0x00000000        0x0 .\CortexM3\ARM_GCC_493\Debug\AdvantageImpl.o
 .bss           0x00000000        0x0 .\CortexM3\ARM_GCC_493\Debug\AdvantageImpl.o
 .text          0x00000000        0x0 .\CortexM3\ARM_GCC_493\Debug\RFSink.o
 .data          0x00000000        0x0 .\CortexM3\ARM_GCC_493\Debug\RFSink.o
 .bss           0x00000000        0x0 .\CortexM3\ARM_GCC_493\Debug\RFSink.o
 .text          0x00000000        0x0 .\CortexM3\ARM_GCC_493\Debug\RFBLL.o
 .data          0x00000000        0x0 .\CortexM3\ARM_GCC_493\Debug\RFBLL.o
 .bss           0x00000000        0x0 .\CortexM3\ARM_GCC_493\Debug\RFBLL.o
 .text          0x00000000        0x0 .\CortexM3\ARM_GCC_493\Debug\RFResolver.o
 .data          0x00000000        0x0 .\CortexM3\ARM_GCC_493\Debug\RFResolver.o
 .bss           0x00000000        0x0 .\CortexM3\ARM_GCC_493\Debug\RFResolver.o
 .text          0x00000000        0x0 .\CortexM3\ARM_GCC_493\Debug\RFServerStack.o
 .bss           0x00000000        0x0 .\CortexM3\ARM_GCC_493\Debug\RFServerStack.o
 .text.RFGetRequestResponseServerHandler
                0x00000000       0x4c .\CortexM3\ARM_GCC_493\Debug\RFServerStack.o
 .text          0x00000000        0x0 .\CortexM3\ARM_GCC_493\Debug\RFServerStackImpl.o
 .bss           0x00000000        0x0 .\CortexM3\ARM_GCC_493\Debug\RFServerStackImpl.o
 .text.RFSpeedReport
                0x00000000      0x260 .\CortexM3\ARM_GCC_493\Debug\RFServerStackImpl.o
 .text          0x00000000        0x0 .\CortexM3\ARM_GCC_493\Debug\ClientDefinitions.o
 .bss           0x00000000        0x0 .\CortexM3\ARM_GCC_493\Debug\ClientDefinitions.o
 .text          0x00000000        0x0 .\CortexM3\ARM_GCC_493\Debug\main.o
 .data          0x00000000        0x0 .\CortexM3\ARM_GCC_493\Debug\main.o
 .bss           0x00000000        0x0 .\CortexM3\ARM_GCC_493\Debug\main.o
 .text          0x00000000        0x0 .\CortexM3\ARM_GCC_493\Debug\cymetadata.o
 .data          0x00000000        0x0 .\CortexM3\ARM_GCC_493\Debug\cymetadata.o
 .bss           0x00000000        0x0 .\CortexM3\ARM_GCC_493\Debug\cymetadata.o
 .text          0x00000000        0x0 .\CortexM3\ARM_GCC_493\Debug\Cm3Start.o
 .bss           0x00000000        0x0 .\CortexM3\ARM_GCC_493\Debug\Cm3Start.o
 .text._exit    0x00000000       0x14 .\CortexM3\ARM_GCC_493\Debug\Cm3Start.o
 .text          0x00000000        0x0 .\CortexM3\ARM_GCC_493\Debug\CorEx-Mux-Kernel.a(cyfitter_cfg.o)
 .data          0x00000000        0x0 .\CortexM3\ARM_GCC_493\Debug\CorEx-Mux-Kernel.a(cyfitter_cfg.o)
 .bss           0x00000000        0x0 .\CortexM3\ARM_GCC_493\Debug\CorEx-Mux-Kernel.a(cyfitter_cfg.o)
 .text.CYCONFIGCPYCODE
                0x00000000       0x1c .\CortexM3\ARM_GCC_493\Debug\CorEx-Mux-Kernel.a(cyfitter_cfg.o)
 .text.SetAnalogRoutingPumps
                0x00000000       0x28 .\CortexM3\ARM_GCC_493\Debug\CorEx-Mux-Kernel.a(cyfitter_cfg.o)
 .text          0x00000000        0x0 .\CortexM3\ARM_GCC_493\Debug\CorEx-Mux-Kernel.a(RF_Physical.o)
 .data          0x00000000        0x0 .\CortexM3\ARM_GCC_493\Debug\CorEx-Mux-Kernel.a(RF_Physical.o)
 .text.RF_Physical_SetRxInterruptMode
                0x00000000       0x20 .\CortexM3\ARM_GCC_493\Debug\CorEx-Mux-Kernel.a(RF_Physical.o)
 .text.RF_Physical_SetRxAddressMode
                0x00000000       0x14 .\CortexM3\ARM_GCC_493\Debug\CorEx-Mux-Kernel.a(RF_Physical.o)
 .text.RF_Physical_SetRxAddress1
                0x00000000       0x20 .\CortexM3\ARM_GCC_493\Debug\CorEx-Mux-Kernel.a(RF_Physical.o)
 .text.RF_Physical_SetRxAddress2
                0x00000000       0x20 .\CortexM3\ARM_GCC_493\Debug\CorEx-Mux-Kernel.a(RF_Physical.o)
 .text.RF_Physical_SetTxInterruptMode
                0x00000000       0x20 .\CortexM3\ARM_GCC_493\Debug\CorEx-Mux-Kernel.a(RF_Physical.o)
 .text.RF_Physical_GetTxBufferSize
                0x00000000       0x44 .\CortexM3\ARM_GCC_493\Debug\CorEx-Mux-Kernel.a(RF_Physical.o)
 .text.RF_Physical_SendBreak
                0x00000000       0x9c .\CortexM3\ARM_GCC_493\Debug\CorEx-Mux-Kernel.a(RF_Physical.o)
 .text.RF_Physical_SetTxAddressMode
                0x00000000       0x14 .\CortexM3\ARM_GCC_493\Debug\CorEx-Mux-Kernel.a(RF_Physical.o)
 .text          0x00000000        0x0 .\CortexM3\ARM_GCC_493\Debug\CorEx-Mux-Kernel.a(RF_Physical_INT.o)
 .data          0x00000000        0x0 .\CortexM3\ARM_GCC_493\Debug\CorEx-Mux-Kernel.a(RF_Physical_INT.o)
 .bss           0x00000000        0x0 .\CortexM3\ARM_GCC_493\Debug\CorEx-Mux-Kernel.a(RF_Physical_INT.o)
 .text          0x00000000        0x0 .\CortexM3\ARM_GCC_493\Debug\CorEx-Mux-Kernel.a(RF_Physical_IntClock.o)
 .data          0x00000000        0x0 .\CortexM3\ARM_GCC_493\Debug\CorEx-Mux-Kernel.a(RF_Physical_IntClock.o)
 .bss           0x00000000        0x0 .\CortexM3\ARM_GCC_493\Debug\CorEx-Mux-Kernel.a(RF_Physical_IntClock.o)
 .text.RF_Physical_IntClock_StopBlock
                0x00000000       0xb0 .\CortexM3\ARM_GCC_493\Debug\CorEx-Mux-Kernel.a(RF_Physical_IntClock.o)
 .text.RF_Physical_IntClock_StandbyPower
                0x00000000       0x40 .\CortexM3\ARM_GCC_493\Debug\CorEx-Mux-Kernel.a(RF_Physical_IntClock.o)
 .text.RF_Physical_IntClock_SetDividerRegister
                0x00000000      0x160 .\CortexM3\ARM_GCC_493\Debug\CorEx-Mux-Kernel.a(RF_Physical_IntClock.o)
 .text.RF_Physical_IntClock_GetDividerRegister
                0x00000000       0x18 .\CortexM3\ARM_GCC_493\Debug\CorEx-Mux-Kernel.a(RF_Physical_IntClock.o)
 .text.RF_Physical_IntClock_SetModeRegister
                0x00000000       0x34 .\CortexM3\ARM_GCC_493\Debug\CorEx-Mux-Kernel.a(RF_Physical_IntClock.o)
 .text.RF_Physical_IntClock_ClearModeRegister
                0x00000000       0x34 .\CortexM3\ARM_GCC_493\Debug\CorEx-Mux-Kernel.a(RF_Physical_IntClock.o)
 .text.RF_Physical_IntClock_GetModeRegister
                0x00000000       0x20 .\CortexM3\ARM_GCC_493\Debug\CorEx-Mux-Kernel.a(RF_Physical_IntClock.o)
 .text.RF_Physical_IntClock_SetSourceRegister
                0x00000000       0xbc .\CortexM3\ARM_GCC_493\Debug\CorEx-Mux-Kernel.a(RF_Physical_IntClock.o)
 .text.RF_Physical_IntClock_GetSourceRegister
                0x00000000       0x20 .\CortexM3\ARM_GCC_493\Debug\CorEx-Mux-Kernel.a(RF_Physical_IntClock.o)
 .data          0x00000000        0x0 .\CortexM3\ARM_GCC_493\Debug\CorEx-Mux-Kernel.a(CyBootAsmGnu.o)
 .bss           0x00000000        0x0 .\CortexM3\ARM_GCC_493\Debug\CorEx-Mux-Kernel.a(CyBootAsmGnu.o)
 .text          0x00000000        0x0 .\CortexM3\ARM_GCC_493\Debug\CorEx-Mux-Kernel.a(CyLib.o)
 .bss           0x00000000       0x1c .\CortexM3\ARM_GCC_493\Debug\CorEx-Mux-Kernel.a(CyLib.o)
 .text.CyPLL_OUT_Start
                0x00000000       0xb0 .\CortexM3\ARM_GCC_493\Debug\CorEx-Mux-Kernel.a(CyLib.o)
 .text.CyPLL_OUT_Stop
                0x00000000       0x20 .\CortexM3\ARM_GCC_493\Debug\CorEx-Mux-Kernel.a(CyLib.o)
 .text.CyPLL_OUT_SetPQ
                0x00000000       0x90 .\CortexM3\ARM_GCC_493\Debug\CorEx-Mux-Kernel.a(CyLib.o)
 .text.CyPLL_OUT_SetSource
                0x00000000       0x54 .\CortexM3\ARM_GCC_493\Debug\CorEx-Mux-Kernel.a(CyLib.o)
 .text.CyIMO_Start
                0x00000000       0x94 .\CortexM3\ARM_GCC_493\Debug\CorEx-Mux-Kernel.a(CyLib.o)
 .text.CyIMO_Stop
                0x00000000       0x34 .\CortexM3\ARM_GCC_493\Debug\CorEx-Mux-Kernel.a(CyLib.o)
 .text.CyUSB_PowerOnCheck
                0x00000000       0x60 .\CortexM3\ARM_GCC_493\Debug\CorEx-Mux-Kernel.a(CyLib.o)
 .text.CyIMO_SetTrimValue
                0x00000000      0x108 .\CortexM3\ARM_GCC_493\Debug\CorEx-Mux-Kernel.a(CyLib.o)
 .text.CyIMO_SetFreq
                0x00000000      0x1ac .\CortexM3\ARM_GCC_493\Debug\CorEx-Mux-Kernel.a(CyLib.o)
 .text.CyIMO_SetSource
                0x00000000       0x8c .\CortexM3\ARM_GCC_493\Debug\CorEx-Mux-Kernel.a(CyLib.o)
 .text.CyIMO_EnableDoubler
                0x00000000       0x20 .\CortexM3\ARM_GCC_493\Debug\CorEx-Mux-Kernel.a(CyLib.o)
 .text.CyIMO_DisableDoubler
                0x00000000       0x20 .\CortexM3\ARM_GCC_493\Debug\CorEx-Mux-Kernel.a(CyLib.o)
 .text.CyMasterClk_SetSource
                0x00000000       0x34 .\CortexM3\ARM_GCC_493\Debug\CorEx-Mux-Kernel.a(CyLib.o)
 .text.CyMasterClk_SetDivider
                0x00000000       0x20 .\CortexM3\ARM_GCC_493\Debug\CorEx-Mux-Kernel.a(CyLib.o)
 .text.CyBusClk_Internal_SetDivider
                0x00000000       0x78 .\CortexM3\ARM_GCC_493\Debug\CorEx-Mux-Kernel.a(CyLib.o)
 .text.CyBusClk_SetDivider
                0x00000000       0xb4 .\CortexM3\ARM_GCC_493\Debug\CorEx-Mux-Kernel.a(CyLib.o)
 .text.CyUsbClk_SetSource
                0x00000000       0x34 .\CortexM3\ARM_GCC_493\Debug\CorEx-Mux-Kernel.a(CyLib.o)
 .text.CyILO_Start1K
                0x00000000       0x20 .\CortexM3\ARM_GCC_493\Debug\CorEx-Mux-Kernel.a(CyLib.o)
 .text.CyILO_Stop1K
                0x00000000       0x20 .\CortexM3\ARM_GCC_493\Debug\CorEx-Mux-Kernel.a(CyLib.o)
 .text.CyILO_Start100K
                0x00000000       0x20 .\CortexM3\ARM_GCC_493\Debug\CorEx-Mux-Kernel.a(CyLib.o)
 .text.CyILO_Stop100K
                0x00000000       0x20 .\CortexM3\ARM_GCC_493\Debug\CorEx-Mux-Kernel.a(CyLib.o)
 .text.CyILO_Enable33K
                0x00000000       0x20 .\CortexM3\ARM_GCC_493\Debug\CorEx-Mux-Kernel.a(CyLib.o)
 .text.CyILO_Disable33K
                0x00000000       0x20 .\CortexM3\ARM_GCC_493\Debug\CorEx-Mux-Kernel.a(CyLib.o)
 .text.CyILO_SetSource
                0x00000000       0x38 .\CortexM3\ARM_GCC_493\Debug\CorEx-Mux-Kernel.a(CyLib.o)
 .text.CyILO_SetPowerMode
                0x00000000       0x4c .\CortexM3\ARM_GCC_493\Debug\CorEx-Mux-Kernel.a(CyLib.o)
 .text.CyXTAL_32KHZ_Start
                0x00000000       0x84 .\CortexM3\ARM_GCC_493\Debug\CorEx-Mux-Kernel.a(CyLib.o)
 .text.CyXTAL_32KHZ_Stop
                0x00000000       0x50 .\CortexM3\ARM_GCC_493\Debug\CorEx-Mux-Kernel.a(CyLib.o)
 .text.CyXTAL_32KHZ_ReadStatus
                0x00000000       0x20 .\CortexM3\ARM_GCC_493\Debug\CorEx-Mux-Kernel.a(CyLib.o)
 .text.CyXTAL_32KHZ_SetPowerMode
                0x00000000       0xb4 .\CortexM3\ARM_GCC_493\Debug\CorEx-Mux-Kernel.a(CyLib.o)
 .text.CyXTAL_Start
                0x00000000       0xd0 .\CortexM3\ARM_GCC_493\Debug\CorEx-Mux-Kernel.a(CyLib.o)
 .text.CyXTAL_Stop
                0x00000000       0x20 .\CortexM3\ARM_GCC_493\Debug\CorEx-Mux-Kernel.a(CyLib.o)
 .text.CyXTAL_EnableErrStatus
                0x00000000       0x20 .\CortexM3\ARM_GCC_493\Debug\CorEx-Mux-Kernel.a(CyLib.o)
 .text.CyXTAL_DisableErrStatus
                0x00000000       0x20 .\CortexM3\ARM_GCC_493\Debug\CorEx-Mux-Kernel.a(CyLib.o)
 .text.CyXTAL_ReadStatus
                0x00000000       0x28 .\CortexM3\ARM_GCC_493\Debug\CorEx-Mux-Kernel.a(CyLib.o)
 .text.CyXTAL_EnableFaultRecovery
                0x00000000       0x20 .\CortexM3\ARM_GCC_493\Debug\CorEx-Mux-Kernel.a(CyLib.o)
 .text.CyXTAL_DisableFaultRecovery
                0x00000000       0x20 .\CortexM3\ARM_GCC_493\Debug\CorEx-Mux-Kernel.a(CyLib.o)
 .text.CyXTAL_SetStartup
                0x00000000       0x34 .\CortexM3\ARM_GCC_493\Debug\CorEx-Mux-Kernel.a(CyLib.o)
 .text.CyXTAL_SetFbVoltage
                0x00000000       0x34 .\CortexM3\ARM_GCC_493\Debug\CorEx-Mux-Kernel.a(CyLib.o)
 .text.CyXTAL_SetWdVoltage
                0x00000000       0x38 .\CortexM3\ARM_GCC_493\Debug\CorEx-Mux-Kernel.a(CyLib.o)
 .text.CySoftwareReset
                0x00000000       0x20 .\CortexM3\ARM_GCC_493\Debug\CorEx-Mux-Kernel.a(CyLib.o)
 .text.CyVdLvDigitEnable
                0x00000000       0xcc .\CortexM3\ARM_GCC_493\Debug\CorEx-Mux-Kernel.a(CyLib.o)
 .text.CyVdLvAnalogEnable
                0x00000000       0xc8 .\CortexM3\ARM_GCC_493\Debug\CorEx-Mux-Kernel.a(CyLib.o)
 .text.CyVdLvDigitDisable
                0x00000000       0x48 .\CortexM3\ARM_GCC_493\Debug\CorEx-Mux-Kernel.a(CyLib.o)
 .text.CyVdLvAnalogDisable
                0x00000000       0x40 .\CortexM3\ARM_GCC_493\Debug\CorEx-Mux-Kernel.a(CyLib.o)
 .text.CyVdHvAnalogEnable
                0x00000000       0x78 .\CortexM3\ARM_GCC_493\Debug\CorEx-Mux-Kernel.a(CyLib.o)
 .text.CyVdHvAnalogDisable
                0x00000000       0x2c .\CortexM3\ARM_GCC_493\Debug\CorEx-Mux-Kernel.a(CyLib.o)
 .text.CyVdStickyStatus
                0x00000000       0x5c .\CortexM3\ARM_GCC_493\Debug\CorEx-Mux-Kernel.a(CyLib.o)
 .text.CyVdRealTimeStatus
                0x00000000       0x30 .\CortexM3\ARM_GCC_493\Debug\CorEx-Mux-Kernel.a(CyLib.o)
 .text.CyDisableInts
                0x00000000       0x34 .\CortexM3\ARM_GCC_493\Debug\CorEx-Mux-Kernel.a(CyLib.o)
 .text.CyEnableInts
                0x00000000       0x28 .\CortexM3\ARM_GCC_493\Debug\CorEx-Mux-Kernel.a(CyLib.o)
 .text.CyFlushCache
                0x00000000       0x58 .\CortexM3\ARM_GCC_493\Debug\CorEx-Mux-Kernel.a(CyLib.o)
 .text.CyIntSetSysVector
                0x00000000       0x4c .\CortexM3\ARM_GCC_493\Debug\CorEx-Mux-Kernel.a(CyLib.o)
 .text.CyIntGetSysVector
                0x00000000       0x38 .\CortexM3\ARM_GCC_493\Debug\CorEx-Mux-Kernel.a(CyLib.o)
 .text.CyIntGetVector
                0x00000000       0x38 .\CortexM3\ARM_GCC_493\Debug\CorEx-Mux-Kernel.a(CyLib.o)
 .text.CyIntGetPriority
                0x00000000       0x38 .\CortexM3\ARM_GCC_493\Debug\CorEx-Mux-Kernel.a(CyLib.o)
 .text.CyIntGetState
                0x00000000       0x44 .\CortexM3\ARM_GCC_493\Debug\CorEx-Mux-Kernel.a(CyLib.o)
 .text.CySysTickStart
                0x00000000       0x20 .\CortexM3\ARM_GCC_493\Debug\CorEx-Mux-Kernel.a(CyLib.o)
 .text.CySysTickInit
                0x00000000       0x68 .\CortexM3\ARM_GCC_493\Debug\CorEx-Mux-Kernel.a(CyLib.o)
 .text.CySysTickEnable
                0x00000000       0x1c .\CortexM3\ARM_GCC_493\Debug\CorEx-Mux-Kernel.a(CyLib.o)
 .text.CySysTickStop
                0x00000000       0x1c .\CortexM3\ARM_GCC_493\Debug\CorEx-Mux-Kernel.a(CyLib.o)
 .text.CySysTickEnableInterrupt
                0x00000000       0x1c .\CortexM3\ARM_GCC_493\Debug\CorEx-Mux-Kernel.a(CyLib.o)
 .text.CySysTickDisableInterrupt
                0x00000000       0x1c .\CortexM3\ARM_GCC_493\Debug\CorEx-Mux-Kernel.a(CyLib.o)
 .text.CySysTickSetReload
                0x00000000       0x20 .\CortexM3\ARM_GCC_493\Debug\CorEx-Mux-Kernel.a(CyLib.o)
 .text.CySysTickGetReload
                0x00000000       0x1c .\CortexM3\ARM_GCC_493\Debug\CorEx-Mux-Kernel.a(CyLib.o)
 .text.CySysTickGetValue
                0x00000000       0x1c .\CortexM3\ARM_GCC_493\Debug\CorEx-Mux-Kernel.a(CyLib.o)
 .text.CySysTickSetClockSource
                0x00000000       0x38 .\CortexM3\ARM_GCC_493\Debug\CorEx-Mux-Kernel.a(CyLib.o)
 .text.CySysTickGetCountFlag
                0x00000000       0x1c .\CortexM3\ARM_GCC_493\Debug\CorEx-Mux-Kernel.a(CyLib.o)
 .text.CySysTickClear
                0x00000000       0x18 .\CortexM3\ARM_GCC_493\Debug\CorEx-Mux-Kernel.a(CyLib.o)
 .text.CySysTickSetCallback
                0x00000000       0x30 .\CortexM3\ARM_GCC_493\Debug\CorEx-Mux-Kernel.a(CyLib.o)
 .text.CySysTickGetCallback
                0x00000000       0x20 .\CortexM3\ARM_GCC_493\Debug\CorEx-Mux-Kernel.a(CyLib.o)
 .text.CySysTickServiceCallbacks
                0x00000000       0x44 .\CortexM3\ARM_GCC_493\Debug\CorEx-Mux-Kernel.a(CyLib.o)
 .text.CyGetUniqueId
                0x00000000       0xc4 .\CortexM3\ARM_GCC_493\Debug\CorEx-Mux-Kernel.a(CyLib.o)
 .text          0x00000000        0x0 .\CortexM3\ARM_GCC_493\Debug\CorEx-Mux-Kernel.a(cyPm.o)
 .data          0x00000000        0x0 .\CortexM3\ARM_GCC_493\Debug\CorEx-Mux-Kernel.a(cyPm.o)
 .bss           0x00000000       0x44 .\CortexM3\ARM_GCC_493\Debug\CorEx-Mux-Kernel.a(cyPm.o)
 .rodata        0x00000000       0x10 .\CortexM3\ARM_GCC_493\Debug\CorEx-Mux-Kernel.a(cyPm.o)
 .text.CyPmSaveClocks
                0x00000000      0x284 .\CortexM3\ARM_GCC_493\Debug\CorEx-Mux-Kernel.a(cyPm.o)
 .text.CyPmRestoreClocks
                0x00000000      0x300 .\CortexM3\ARM_GCC_493\Debug\CorEx-Mux-Kernel.a(cyPm.o)
 .text.CyPmAltAct
                0x00000000       0xb8 .\CortexM3\ARM_GCC_493\Debug\CorEx-Mux-Kernel.a(cyPm.o)
 .text.CyPmSleep
                0x00000000      0x170 .\CortexM3\ARM_GCC_493\Debug\CorEx-Mux-Kernel.a(cyPm.o)
 .text.CyPmHibernate
                0x00000000        0xc .\CortexM3\ARM_GCC_493\Debug\CorEx-Mux-Kernel.a(cyPm.o)
 .text.CyPmHibernateEx
                0x00000000      0x158 .\CortexM3\ARM_GCC_493\Debug\CorEx-Mux-Kernel.a(cyPm.o)
 .text.CyPmReadStatus
                0x00000000       0x5c .\CortexM3\ARM_GCC_493\Debug\CorEx-Mux-Kernel.a(cyPm.o)
 .text.CyPmHibSaveSet
                0x00000000       0xd4 .\CortexM3\ARM_GCC_493\Debug\CorEx-Mux-Kernel.a(cyPm.o)
 .text.CyPmHibRestore
                0x00000000       0x68 .\CortexM3\ARM_GCC_493\Debug\CorEx-Mux-Kernel.a(cyPm.o)
 .text.CyPmCtwSetInterval
                0x00000000       0x90 .\CortexM3\ARM_GCC_493\Debug\CorEx-Mux-Kernel.a(cyPm.o)
 .text.CyPmOppsSet
                0x00000000       0x40 .\CortexM3\ARM_GCC_493\Debug\CorEx-Mux-Kernel.a(cyPm.o)
 .text.CyPmFtwSetInterval
                0x00000000       0x90 .\CortexM3\ARM_GCC_493\Debug\CorEx-Mux-Kernel.a(cyPm.o)
 .text.CyPmHibSlpSaveSet
                0x00000000      0x280 .\CortexM3\ARM_GCC_493\Debug\CorEx-Mux-Kernel.a(cyPm.o)
 .text.CyPmHibSlpRestore
                0x00000000      0x188 .\CortexM3\ARM_GCC_493\Debug\CorEx-Mux-Kernel.a(cyPm.o)
 .text.CyPmHviLviSaveDisable
                0x00000000       0xd4 .\CortexM3\ARM_GCC_493\Debug\CorEx-Mux-Kernel.a(cyPm.o)
 .text.CyPmHviLviRestore
                0x00000000       0x54 .\CortexM3\ARM_GCC_493\Debug\CorEx-Mux-Kernel.a(cyPm.o)
 .text          0x00000000        0x0 .\CortexM3\ARM_GCC_493\Debug\CorEx-Mux-Kernel.a(CRC_Security.o)
 .data          0x00000000        0x0 .\CortexM3\ARM_GCC_493\Debug\CorEx-Mux-Kernel.a(CRC_Security.o)
 .bss           0x00000000        0x8 .\CortexM3\ARM_GCC_493\Debug\CorEx-Mux-Kernel.a(CRC_Security.o)
 .text.CRC_Security_Init
                0x00000000       0x18 .\CortexM3\ARM_GCC_493\Debug\CorEx-Mux-Kernel.a(CRC_Security.o)
 .text.CRC_Security_Enable
                0x00000000       0x20 .\CortexM3\ARM_GCC_493\Debug\CorEx-Mux-Kernel.a(CRC_Security.o)
 .text.CRC_Security_Start
                0x00000000       0x20 .\CortexM3\ARM_GCC_493\Debug\CorEx-Mux-Kernel.a(CRC_Security.o)
 .text.CRC_Security_Stop
                0x00000000       0x20 .\CortexM3\ARM_GCC_493\Debug\CorEx-Mux-Kernel.a(CRC_Security.o)
 .text.CRC_Security_ResetSeedInit
                0x00000000       0x40 .\CortexM3\ARM_GCC_493\Debug\CorEx-Mux-Kernel.a(CRC_Security.o)
 .text.CRC_Security_ReadCRC
                0x00000000       0x18 .\CortexM3\ARM_GCC_493\Debug\CorEx-Mux-Kernel.a(CRC_Security.o)
 .text.CRC_Security_WriteSeed
                0x00000000       0x20 .\CortexM3\ARM_GCC_493\Debug\CorEx-Mux-Kernel.a(CRC_Security.o)
 .text.CRC_Security_ReadPolynomial
                0x00000000       0x18 .\CortexM3\ARM_GCC_493\Debug\CorEx-Mux-Kernel.a(CRC_Security.o)
 .text.CRC_Security_WritePolynomial
                0x00000000       0x20 .\CortexM3\ARM_GCC_493\Debug\CorEx-Mux-Kernel.a(CRC_Security.o)
 .text          0x00000000        0x0 .\CortexM3\ARM_GCC_493\Debug\CorEx-Mux-Kernel.a(ShiftReg_Security.o)
 .data          0x00000000        0x0 .\CortexM3\ARM_GCC_493\Debug\CorEx-Mux-Kernel.a(ShiftReg_Security.o)
 .bss           0x00000000        0x1 .\CortexM3\ARM_GCC_493\Debug\CorEx-Mux-Kernel.a(ShiftReg_Security.o)
 .text.ShiftReg_Security_Start
                0x00000000       0x20 .\CortexM3\ARM_GCC_493\Debug\CorEx-Mux-Kernel.a(ShiftReg_Security.o)
 .text.ShiftReg_Security_Enable
                0x00000000       0x20 .\CortexM3\ARM_GCC_493\Debug\CorEx-Mux-Kernel.a(ShiftReg_Security.o)
 .text.ShiftReg_Security_Init
                0x00000000        0xc .\CortexM3\ARM_GCC_493\Debug\CorEx-Mux-Kernel.a(ShiftReg_Security.o)
 .text.ShiftReg_Security_Stop
                0x00000000       0x20 .\CortexM3\ARM_GCC_493\Debug\CorEx-Mux-Kernel.a(ShiftReg_Security.o)
 .text.ShiftReg_Security_EnableInt
                0x00000000       0x30 .\CortexM3\ARM_GCC_493\Debug\CorEx-Mux-Kernel.a(ShiftReg_Security.o)
 .text.ShiftReg_Security_DisableInt
                0x00000000       0x30 .\CortexM3\ARM_GCC_493\Debug\CorEx-Mux-Kernel.a(ShiftReg_Security.o)
 .text.ShiftReg_Security_GetFIFOStatus
                0x00000000       0x58 .\CortexM3\ARM_GCC_493\Debug\CorEx-Mux-Kernel.a(ShiftReg_Security.o)
 .text.ShiftReg_Security_SetIntMode
                0x00000000       0x40 .\CortexM3\ARM_GCC_493\Debug\CorEx-Mux-Kernel.a(ShiftReg_Security.o)
 .text.ShiftReg_Security_GetIntStatus
                0x00000000       0x20 .\CortexM3\ARM_GCC_493\Debug\CorEx-Mux-Kernel.a(ShiftReg_Security.o)
 .text.ShiftReg_Security_WriteRegValue
                0x00000000       0x20 .\CortexM3\ARM_GCC_493\Debug\CorEx-Mux-Kernel.a(ShiftReg_Security.o)
 .text.ShiftReg_Security_ReadRegValue
                0x00000000       0x34 .\CortexM3\ARM_GCC_493\Debug\CorEx-Mux-Kernel.a(ShiftReg_Security.o)
 .text          0x00000000        0x0 .\CortexM3\ARM_GCC_493\Debug\CorEx-Mux-Kernel.a(Clock_CRC.o)
 .data          0x00000000        0x0 .\CortexM3\ARM_GCC_493\Debug\CorEx-Mux-Kernel.a(Clock_CRC.o)
 .bss           0x00000000        0x0 .\CortexM3\ARM_GCC_493\Debug\CorEx-Mux-Kernel.a(Clock_CRC.o)
 .text.Clock_CRC_Write
                0x00000000       0x20 .\CortexM3\ARM_GCC_493\Debug\CorEx-Mux-Kernel.a(Clock_CRC.o)
 .text.Clock_CRC_Read
                0x00000000       0x18 .\CortexM3\ARM_GCC_493\Debug\CorEx-Mux-Kernel.a(Clock_CRC.o)
 .text          0x00000000        0x0 .\CortexM3\ARM_GCC_493\Debug\CorEx-Mux-Kernel.a(Reset_CRC.o)
 .data          0x00000000        0x0 .\CortexM3\ARM_GCC_493\Debug\CorEx-Mux-Kernel.a(Reset_CRC.o)
 .bss           0x00000000        0x0 .\CortexM3\ARM_GCC_493\Debug\CorEx-Mux-Kernel.a(Reset_CRC.o)
 .text.Reset_CRC_Write
                0x00000000       0x20 .\CortexM3\ARM_GCC_493\Debug\CorEx-Mux-Kernel.a(Reset_CRC.o)
 .text.Reset_CRC_Read
                0x00000000       0x18 .\CortexM3\ARM_GCC_493\Debug\CorEx-Mux-Kernel.a(Reset_CRC.o)
 .text          0x00000000        0x0 .\CortexM3\ARM_GCC_493\Debug\CorEx-Mux-Kernel.a(Printer.o)
 .data          0x00000000        0x0 .\CortexM3\ARM_GCC_493\Debug\CorEx-Mux-Kernel.a(Printer.o)
 .text.Printer_SetRxInterruptMode
                0x00000000       0x20 .\CortexM3\ARM_GCC_493\Debug\CorEx-Mux-Kernel.a(Printer.o)
 .text.Printer_SetRxAddressMode
                0x00000000       0x14 .\CortexM3\ARM_GCC_493\Debug\CorEx-Mux-Kernel.a(Printer.o)
 .text.Printer_SetRxAddress1
                0x00000000       0x20 .\CortexM3\ARM_GCC_493\Debug\CorEx-Mux-Kernel.a(Printer.o)
 .text.Printer_SetRxAddress2
                0x00000000       0x20 .\CortexM3\ARM_GCC_493\Debug\CorEx-Mux-Kernel.a(Printer.o)
 .text.Printer_SetTxInterruptMode
                0x00000000       0x20 .\CortexM3\ARM_GCC_493\Debug\CorEx-Mux-Kernel.a(Printer.o)
 .text.Printer_GetTxBufferSize
                0x00000000       0x44 .\CortexM3\ARM_GCC_493\Debug\CorEx-Mux-Kernel.a(Printer.o)
 .text.Printer_SendBreak
                0x00000000       0x9c .\CortexM3\ARM_GCC_493\Debug\CorEx-Mux-Kernel.a(Printer.o)
 .text.Printer_SetTxAddressMode
                0x00000000       0x14 .\CortexM3\ARM_GCC_493\Debug\CorEx-Mux-Kernel.a(Printer.o)
 .text          0x00000000        0x0 .\CortexM3\ARM_GCC_493\Debug\CorEx-Mux-Kernel.a(Dispenser.o)
 .data          0x00000000        0x0 .\CortexM3\ARM_GCC_493\Debug\CorEx-Mux-Kernel.a(Dispenser.o)
 .text.Dispenser_SetRxInterruptMode
                0x00000000       0x20 .\CortexM3\ARM_GCC_493\Debug\CorEx-Mux-Kernel.a(Dispenser.o)
 .text.Dispenser_SetRxAddressMode
                0x00000000       0x14 .\CortexM3\ARM_GCC_493\Debug\CorEx-Mux-Kernel.a(Dispenser.o)
 .text.Dispenser_SetRxAddress1
                0x00000000       0x20 .\CortexM3\ARM_GCC_493\Debug\CorEx-Mux-Kernel.a(Dispenser.o)
 .text.Dispenser_SetRxAddress2
                0x00000000       0x20 .\CortexM3\ARM_GCC_493\Debug\CorEx-Mux-Kernel.a(Dispenser.o)
 .text.Dispenser_SetTxInterruptMode
                0x00000000       0x20 .\CortexM3\ARM_GCC_493\Debug\CorEx-Mux-Kernel.a(Dispenser.o)
 .text.Dispenser_GetTxBufferSize
                0x00000000       0x44 .\CortexM3\ARM_GCC_493\Debug\CorEx-Mux-Kernel.a(Dispenser.o)
 .text.Dispenser_SendBreak
                0x00000000       0xbc .\CortexM3\ARM_GCC_493\Debug\CorEx-Mux-Kernel.a(Dispenser.o)
 .text.Dispenser_SetTxAddressMode
                0x00000000       0x14 .\CortexM3\ARM_GCC_493\Debug\CorEx-Mux-Kernel.a(Dispenser.o)
 .text          0x00000000        0x0 .\CortexM3\ARM_GCC_493\Debug\CorEx-Mux-Kernel.a(Dispenser_INT.o)
 .data          0x00000000        0x0 .\CortexM3\ARM_GCC_493\Debug\CorEx-Mux-Kernel.a(Dispenser_INT.o)
 .bss           0x00000000        0x0 .\CortexM3\ARM_GCC_493\Debug\CorEx-Mux-Kernel.a(Dispenser_INT.o)
 .text          0x00000000        0x0 .\CortexM3\ARM_GCC_493\Debug\CorEx-Mux-Kernel.a(Display1.o)
 .data          0x00000000        0x0 .\CortexM3\ARM_GCC_493\Debug\CorEx-Mux-Kernel.a(Display1.o)
 .text.Display1_SetRxInterruptMode
                0x00000000       0x20 .\CortexM3\ARM_GCC_493\Debug\CorEx-Mux-Kernel.a(Display1.o)
 .text.Display1_SetRxAddressMode
                0x00000000       0x14 .\CortexM3\ARM_GCC_493\Debug\CorEx-Mux-Kernel.a(Display1.o)
 .text.Display1_SetRxAddress1
                0x00000000       0x20 .\CortexM3\ARM_GCC_493\Debug\CorEx-Mux-Kernel.a(Display1.o)
 .text.Display1_SetRxAddress2
                0x00000000       0x20 .\CortexM3\ARM_GCC_493\Debug\CorEx-Mux-Kernel.a(Display1.o)
 .text.Display1_SetTxInterruptMode
                0x00000000       0x20 .\CortexM3\ARM_GCC_493\Debug\CorEx-Mux-Kernel.a(Display1.o)
 .text.Display1_GetTxBufferSize
                0x00000000       0x44 .\CortexM3\ARM_GCC_493\Debug\CorEx-Mux-Kernel.a(Display1.o)
 .text.Display1_SendBreak
                0x00000000       0x9c .\CortexM3\ARM_GCC_493\Debug\CorEx-Mux-Kernel.a(Display1.o)
 .text.Display1_SetTxAddressMode
                0x00000000       0x14 .\CortexM3\ARM_GCC_493\Debug\CorEx-Mux-Kernel.a(Display1.o)
 .text          0x00000000        0x0 .\CortexM3\ARM_GCC_493\Debug\CorEx-Mux-Kernel.a(Display1_INT.o)
 .data          0x00000000        0x0 .\CortexM3\ARM_GCC_493\Debug\CorEx-Mux-Kernel.a(Display1_INT.o)
 .bss           0x00000000        0x0 .\CortexM3\ARM_GCC_493\Debug\CorEx-Mux-Kernel.a(Display1_INT.o)
 .text          0x00000000        0x0 .\CortexM3\ARM_GCC_493\Debug\CorEx-Mux-Kernel.a(Display2.o)
 .data          0x00000000        0x0 .\CortexM3\ARM_GCC_493\Debug\CorEx-Mux-Kernel.a(Display2.o)
 .text.Display2_SetRxInterruptMode
                0x00000000       0x20 .\CortexM3\ARM_GCC_493\Debug\CorEx-Mux-Kernel.a(Display2.o)
 .text.Display2_SetRxAddressMode
                0x00000000       0x14 .\CortexM3\ARM_GCC_493\Debug\CorEx-Mux-Kernel.a(Display2.o)
 .text.Display2_SetRxAddress1
                0x00000000       0x20 .\CortexM3\ARM_GCC_493\Debug\CorEx-Mux-Kernel.a(Display2.o)
 .text.Display2_SetRxAddress2
                0x00000000       0x20 .\CortexM3\ARM_GCC_493\Debug\CorEx-Mux-Kernel.a(Display2.o)
 .text.Display2_SetTxInterruptMode
                0x00000000       0x20 .\CortexM3\ARM_GCC_493\Debug\CorEx-Mux-Kernel.a(Display2.o)
 .text.Display2_GetTxBufferSize
                0x00000000       0x44 .\CortexM3\ARM_GCC_493\Debug\CorEx-Mux-Kernel.a(Display2.o)
 .text.Display2_SendBreak
                0x00000000       0x9c .\CortexM3\ARM_GCC_493\Debug\CorEx-Mux-Kernel.a(Display2.o)
 .text.Display2_SetTxAddressMode
                0x00000000       0x14 .\CortexM3\ARM_GCC_493\Debug\CorEx-Mux-Kernel.a(Display2.o)
 .text          0x00000000        0x0 .\CortexM3\ARM_GCC_493\Debug\CorEx-Mux-Kernel.a(Display2_INT.o)
 .data          0x00000000        0x0 .\CortexM3\ARM_GCC_493\Debug\CorEx-Mux-Kernel.a(Display2_INT.o)
 .bss           0x00000000        0x0 .\CortexM3\ARM_GCC_493\Debug\CorEx-Mux-Kernel.a(Display2_INT.o)
 .text          0x00000000        0x0 .\CortexM3\ARM_GCC_493\Debug\CorEx-Mux-Kernel.a(Counter_ISR.o)
 .data          0x00000000        0x0 .\CortexM3\ARM_GCC_493\Debug\CorEx-Mux-Kernel.a(Counter_ISR.o)
 .bss           0x00000000        0x0 .\CortexM3\ARM_GCC_493\Debug\CorEx-Mux-Kernel.a(Counter_ISR.o)
 .text.Counter_ISR_Start
                0x00000000       0x20 .\CortexM3\ARM_GCC_493\Debug\CorEx-Mux-Kernel.a(Counter_ISR.o)
 .text.Counter_ISR_Stop
                0x00000000       0x14 .\CortexM3\ARM_GCC_493\Debug\CorEx-Mux-Kernel.a(Counter_ISR.o)
 .text.Counter_ISR_Interrupt
                0x00000000        0xc .\CortexM3\ARM_GCC_493\Debug\CorEx-Mux-Kernel.a(Counter_ISR.o)
 .text.Counter_ISR_GetVector
                0x00000000       0x24 .\CortexM3\ARM_GCC_493\Debug\CorEx-Mux-Kernel.a(Counter_ISR.o)
 .text.Counter_ISR_GetPriority
                0x00000000       0x24 .\CortexM3\ARM_GCC_493\Debug\CorEx-Mux-Kernel.a(Counter_ISR.o)
 .text.Counter_ISR_GetState
                0x00000000       0x24 .\CortexM3\ARM_GCC_493\Debug\CorEx-Mux-Kernel.a(Counter_ISR.o)
 .text.Counter_ISR_SetPending
                0x00000000       0x18 .\CortexM3\ARM_GCC_493\Debug\CorEx-Mux-Kernel.a(Counter_ISR.o)
 .text.Counter_ISR_ClearPending
                0x00000000       0x18 .\CortexM3\ARM_GCC_493\Debug\CorEx-Mux-Kernel.a(Counter_ISR.o)
 .text          0x00000000        0x0 .\CortexM3\ARM_GCC_493\Debug\CorEx-Mux-Kernel.a(Display1_IntClock.o)
 .data          0x00000000        0x0 .\CortexM3\ARM_GCC_493\Debug\CorEx-Mux-Kernel.a(Display1_IntClock.o)
 .bss           0x00000000        0x0 .\CortexM3\ARM_GCC_493\Debug\CorEx-Mux-Kernel.a(Display1_IntClock.o)
 .text.Display1_IntClock_StopBlock
                0x00000000       0xb0 .\CortexM3\ARM_GCC_493\Debug\CorEx-Mux-Kernel.a(Display1_IntClock.o)
 .text.Display1_IntClock_StandbyPower
                0x00000000       0x40 .\CortexM3\ARM_GCC_493\Debug\CorEx-Mux-Kernel.a(Display1_IntClock.o)
 .text.Display1_IntClock_SetDividerRegister
                0x00000000      0x160 .\CortexM3\ARM_GCC_493\Debug\CorEx-Mux-Kernel.a(Display1_IntClock.o)
 .text.Display1_IntClock_GetDividerRegister
                0x00000000       0x18 .\CortexM3\ARM_GCC_493\Debug\CorEx-Mux-Kernel.a(Display1_IntClock.o)
 .text.Display1_IntClock_SetModeRegister
                0x00000000       0x34 .\CortexM3\ARM_GCC_493\Debug\CorEx-Mux-Kernel.a(Display1_IntClock.o)
 .text.Display1_IntClock_ClearModeRegister
                0x00000000       0x34 .\CortexM3\ARM_GCC_493\Debug\CorEx-Mux-Kernel.a(Display1_IntClock.o)
 .text.Display1_IntClock_GetModeRegister
                0x00000000       0x20 .\CortexM3\ARM_GCC_493\Debug\CorEx-Mux-Kernel.a(Display1_IntClock.o)
 .text.Display1_IntClock_SetSourceRegister
                0x00000000       0xbc .\CortexM3\ARM_GCC_493\Debug\CorEx-Mux-Kernel.a(Display1_IntClock.o)
 .text.Display1_IntClock_GetSourceRegister
                0x00000000       0x20 .\CortexM3\ARM_GCC_493\Debug\CorEx-Mux-Kernel.a(Display1_IntClock.o)
 .text          0x00000000        0x0 .\CortexM3\ARM_GCC_493\Debug\CorEx-Mux-Kernel.a(Display2_IntClock.o)
 .data          0x00000000        0x0 .\CortexM3\ARM_GCC_493\Debug\CorEx-Mux-Kernel.a(Display2_IntClock.o)
 .bss           0x00000000        0x0 .\CortexM3\ARM_GCC_493\Debug\CorEx-Mux-Kernel.a(Display2_IntClock.o)
 .text.Display2_IntClock_StopBlock
                0x00000000       0xb0 .\CortexM3\ARM_GCC_493\Debug\CorEx-Mux-Kernel.a(Display2_IntClock.o)
 .text.Display2_IntClock_StandbyPower
                0x00000000       0x40 .\CortexM3\ARM_GCC_493\Debug\CorEx-Mux-Kernel.a(Display2_IntClock.o)
 .text.Display2_IntClock_SetDividerRegister
                0x00000000      0x160 .\CortexM3\ARM_GCC_493\Debug\CorEx-Mux-Kernel.a(Display2_IntClock.o)
 .text.Display2_IntClock_GetDividerRegister
                0x00000000       0x18 .\CortexM3\ARM_GCC_493\Debug\CorEx-Mux-Kernel.a(Display2_IntClock.o)
 .text.Display2_IntClock_SetModeRegister
                0x00000000       0x34 .\CortexM3\ARM_GCC_493\Debug\CorEx-Mux-Kernel.a(Display2_IntClock.o)
 .text.Display2_IntClock_ClearModeRegister
                0x00000000       0x34 .\CortexM3\ARM_GCC_493\Debug\CorEx-Mux-Kernel.a(Display2_IntClock.o)
 .text.Display2_IntClock_GetModeRegister
                0x00000000       0x20 .\CortexM3\ARM_GCC_493\Debug\CorEx-Mux-Kernel.a(Display2_IntClock.o)
 .text.Display2_IntClock_SetSourceRegister
                0x00000000       0xbc .\CortexM3\ARM_GCC_493\Debug\CorEx-Mux-Kernel.a(Display2_IntClock.o)
 .text.Display2_IntClock_GetSourceRegister
                0x00000000       0x20 .\CortexM3\ARM_GCC_493\Debug\CorEx-Mux-Kernel.a(Display2_IntClock.o)
 .text          0x00000000        0x0 .\CortexM3\ARM_GCC_493\Debug\CorEx-Mux-Kernel.a(I2C_Bus.o)
 .data          0x00000000        0x0 .\CortexM3\ARM_GCC_493\Debug\CorEx-Mux-Kernel.a(I2C_Bus.o)
 .text.I2C_Bus_Stop
                0x00000000      0x10c .\CortexM3\ARM_GCC_493\Debug\CorEx-Mux-Kernel.a(I2C_Bus.o)
 .text          0x00000000        0x0 .\CortexM3\ARM_GCC_493\Debug\CorEx-Mux-Kernel.a(I2C_Bus_INT.o)
 .data          0x00000000        0x0 .\CortexM3\ARM_GCC_493\Debug\CorEx-Mux-Kernel.a(I2C_Bus_INT.o)
 .bss           0x00000000        0x0 .\CortexM3\ARM_GCC_493\Debug\CorEx-Mux-Kernel.a(I2C_Bus_INT.o)
 .text          0x00000000        0x0 .\CortexM3\ARM_GCC_493\Debug\CorEx-Mux-Kernel.a(I2C_Bus_PM.o)
 .data          0x00000000        0x8 .\CortexM3\ARM_GCC_493\Debug\CorEx-Mux-Kernel.a(I2C_Bus_PM.o)
 .bss           0x00000000        0x0 .\CortexM3\ARM_GCC_493\Debug\CorEx-Mux-Kernel.a(I2C_Bus_PM.o)
 .text.I2C_Bus_SaveConfig
                0x00000000       0x58 .\CortexM3\ARM_GCC_493\Debug\CorEx-Mux-Kernel.a(I2C_Bus_PM.o)
 .text.I2C_Bus_Sleep
                0x00000000       0x38 .\CortexM3\ARM_GCC_493\Debug\CorEx-Mux-Kernel.a(I2C_Bus_PM.o)
 .text.I2C_Bus_RestoreConfig
                0x00000000       0x8c .\CortexM3\ARM_GCC_493\Debug\CorEx-Mux-Kernel.a(I2C_Bus_PM.o)
 .text.I2C_Bus_Wakeup
                0x00000000       0x28 .\CortexM3\ARM_GCC_493\Debug\CorEx-Mux-Kernel.a(I2C_Bus_PM.o)
 .text          0x00000000        0x0 .\CortexM3\ARM_GCC_493\Debug\CorEx-Mux-Kernel.a(I2C_Bus_MASTER.o)
 .data          0x00000000        0x0 .\CortexM3\ARM_GCC_493\Debug\CorEx-Mux-Kernel.a(I2C_Bus_MASTER.o)
 .bss           0x00000000        0x0 .\CortexM3\ARM_GCC_493\Debug\CorEx-Mux-Kernel.a(I2C_Bus_MASTER.o)
 .text.I2C_Bus_MasterWriteBuf
                0x00000000      0x10c .\CortexM3\ARM_GCC_493\Debug\CorEx-Mux-Kernel.a(I2C_Bus_MASTER.o)
 .text.I2C_Bus_MasterReadBuf
                0x00000000      0x110 .\CortexM3\ARM_GCC_493\Debug\CorEx-Mux-Kernel.a(I2C_Bus_MASTER.o)
 .text.I2C_Bus_MasterStatus
                0x00000000       0x54 .\CortexM3\ARM_GCC_493\Debug\CorEx-Mux-Kernel.a(I2C_Bus_MASTER.o)
 .text.I2C_Bus_MasterGetReadBufSize
                0x00000000       0x18 .\CortexM3\ARM_GCC_493\Debug\CorEx-Mux-Kernel.a(I2C_Bus_MASTER.o)
 .text.I2C_Bus_MasterGetWriteBufSize
                0x00000000       0x18 .\CortexM3\ARM_GCC_493\Debug\CorEx-Mux-Kernel.a(I2C_Bus_MASTER.o)
 .text.I2C_Bus_MasterClearReadBuf
                0x00000000       0x44 .\CortexM3\ARM_GCC_493\Debug\CorEx-Mux-Kernel.a(I2C_Bus_MASTER.o)
 .text.I2C_Bus_MasterClearWriteBuf
                0x00000000       0x44 .\CortexM3\ARM_GCC_493\Debug\CorEx-Mux-Kernel.a(I2C_Bus_MASTER.o)
 .text          0x00000000        0x0 .\CortexM3\ARM_GCC_493\Debug\CorEx-Mux-Kernel.a(iButton1.o)
 .data          0x00000000        0x0 .\CortexM3\ARM_GCC_493\Debug\CorEx-Mux-Kernel.a(iButton1.o)
 .bss           0x00000000        0x0 .\CortexM3\ARM_GCC_493\Debug\CorEx-Mux-Kernel.a(iButton1.o)
 .text.iButton1_SetDriveMode
                0x00000000       0x38 .\CortexM3\ARM_GCC_493\Debug\CorEx-Mux-Kernel.a(iButton1.o)
 .text.iButton1_ReadDataReg
                0x00000000       0x20 .\CortexM3\ARM_GCC_493\Debug\CorEx-Mux-Kernel.a(iButton1.o)
 .text          0x00000000        0x0 .\CortexM3\ARM_GCC_493\Debug\CorEx-Mux-Kernel.a(iButton2.o)
 .data          0x00000000        0x0 .\CortexM3\ARM_GCC_493\Debug\CorEx-Mux-Kernel.a(iButton2.o)
 .bss           0x00000000        0x0 .\CortexM3\ARM_GCC_493\Debug\CorEx-Mux-Kernel.a(iButton2.o)
 .text.iButton2_SetDriveMode
                0x00000000       0x38 .\CortexM3\ARM_GCC_493\Debug\CorEx-Mux-Kernel.a(iButton2.o)
 .text.iButton2_ReadDataReg
                0x00000000       0x1c .\CortexM3\ARM_GCC_493\Debug\CorEx-Mux-Kernel.a(iButton2.o)
 .text          0x00000000        0x0 .\CortexM3\ARM_GCC_493\Debug\CorEx-Mux-Kernel.a(eepromWP.o)
 .data          0x00000000        0x0 .\CortexM3\ARM_GCC_493\Debug\CorEx-Mux-Kernel.a(eepromWP.o)
 .bss           0x00000000        0x0 .\CortexM3\ARM_GCC_493\Debug\CorEx-Mux-Kernel.a(eepromWP.o)
 .text.eepromWP_SetDriveMode
                0x00000000       0x38 .\CortexM3\ARM_GCC_493\Debug\CorEx-Mux-Kernel.a(eepromWP.o)
 .text.eepromWP_Read
                0x00000000       0x20 .\CortexM3\ARM_GCC_493\Debug\CorEx-Mux-Kernel.a(eepromWP.o)
 .text.eepromWP_ReadDataReg
                0x00000000       0x20 .\CortexM3\ARM_GCC_493\Debug\CorEx-Mux-Kernel.a(eepromWP.o)
 .text          0x00000000        0x0 .\CortexM3\ARM_GCC_493\Debug\CorEx-Mux-Kernel.a(Timer_DispenserState.o)
 .data          0x00000000        0x0 .\CortexM3\ARM_GCC_493\Debug\CorEx-Mux-Kernel.a(Timer_DispenserState.o)
 .text.Timer_DispenserState_Stop
                0x00000000       0x20 .\CortexM3\ARM_GCC_493\Debug\CorEx-Mux-Kernel.a(Timer_DispenserState.o)
 .text.Timer_DispenserState_SoftwareCapture
                0x00000000       0x14 .\CortexM3\ARM_GCC_493\Debug\CorEx-Mux-Kernel.a(Timer_DispenserState.o)
 .text.Timer_DispenserState_ReadControlRegister
                0x00000000       0x18 .\CortexM3\ARM_GCC_493\Debug\CorEx-Mux-Kernel.a(Timer_DispenserState.o)
 .text.Timer_DispenserState_WriteControlRegister
                0x00000000       0x20 .\CortexM3\ARM_GCC_493\Debug\CorEx-Mux-Kernel.a(Timer_DispenserState.o)
 .text.Timer_DispenserState_ReadPeriod
                0x00000000       0x18 .\CortexM3\ARM_GCC_493\Debug\CorEx-Mux-Kernel.a(Timer_DispenserState.o)
 .text          0x00000000        0x0 .\CortexM3\ARM_GCC_493\Debug\CorEx-Mux-Kernel.a(DispenserStateTimeout_ISR.o)
 .data          0x00000000        0x0 .\CortexM3\ARM_GCC_493\Debug\CorEx-Mux-Kernel.a(DispenserStateTimeout_ISR.o)
 .bss           0x00000000        0x0 .\CortexM3\ARM_GCC_493\Debug\CorEx-Mux-Kernel.a(DispenserStateTimeout_ISR.o)
 .text.DispenserStateTimeout_ISR_Start
                0x00000000       0x20 .\CortexM3\ARM_GCC_493\Debug\CorEx-Mux-Kernel.a(DispenserStateTimeout_ISR.o)
 .text.DispenserStateTimeout_ISR_Stop
                0x00000000       0x14 .\CortexM3\ARM_GCC_493\Debug\CorEx-Mux-Kernel.a(DispenserStateTimeout_ISR.o)
 .text.DispenserStateTimeout_ISR_Interrupt
                0x00000000        0xc .\CortexM3\ARM_GCC_493\Debug\CorEx-Mux-Kernel.a(DispenserStateTimeout_ISR.o)
 .text.DispenserStateTimeout_ISR_GetVector
                0x00000000       0x20 .\CortexM3\ARM_GCC_493\Debug\CorEx-Mux-Kernel.a(DispenserStateTimeout_ISR.o)
 .text.DispenserStateTimeout_ISR_GetPriority
                0x00000000       0x24 .\CortexM3\ARM_GCC_493\Debug\CorEx-Mux-Kernel.a(DispenserStateTimeout_ISR.o)
 .text.DispenserStateTimeout_ISR_GetState
                0x00000000       0x20 .\CortexM3\ARM_GCC_493\Debug\CorEx-Mux-Kernel.a(DispenserStateTimeout_ISR.o)
 .text.DispenserStateTimeout_ISR_SetPending
                0x00000000       0x18 .\CortexM3\ARM_GCC_493\Debug\CorEx-Mux-Kernel.a(DispenserStateTimeout_ISR.o)
 .text.DispenserStateTimeout_ISR_ClearPending
                0x00000000       0x18 .\CortexM3\ARM_GCC_493\Debug\CorEx-Mux-Kernel.a(DispenserStateTimeout_ISR.o)
 .text          0x00000000        0x0 .\CortexM3\ARM_GCC_493\Debug\CorEx-Mux-Kernel.a(Timer_Tick.o)
 .data          0x00000000        0x0 .\CortexM3\ARM_GCC_493\Debug\CorEx-Mux-Kernel.a(Timer_Tick.o)
 .text.Timer_Tick_Stop
                0x00000000       0x48 .\CortexM3\ARM_GCC_493\Debug\CorEx-Mux-Kernel.a(Timer_Tick.o)
 .text.Timer_Tick_SoftwareCapture
                0x00000000       0x14 .\CortexM3\ARM_GCC_493\Debug\CorEx-Mux-Kernel.a(Timer_Tick.o)
 .text.Timer_Tick_ReadControlRegister
                0x00000000       0x18 .\CortexM3\ARM_GCC_493\Debug\CorEx-Mux-Kernel.a(Timer_Tick.o)
 .text.Timer_Tick_WriteControlRegister
                0x00000000       0x20 .\CortexM3\ARM_GCC_493\Debug\CorEx-Mux-Kernel.a(Timer_Tick.o)
 .text.Timer_Tick_ReadPeriod
                0x00000000       0x18 .\CortexM3\ARM_GCC_493\Debug\CorEx-Mux-Kernel.a(Timer_Tick.o)
 .text.Timer_Tick_ReadCapture
                0x00000000       0x18 .\CortexM3\ARM_GCC_493\Debug\CorEx-Mux-Kernel.a(Timer_Tick.o)
 .text          0x00000000        0x0 .\CortexM3\ARM_GCC_493\Debug\CorEx-Mux-Kernel.a(ShiftReg_iButtonCRC4LSB.o)
 .data          0x00000000        0x0 .\CortexM3\ARM_GCC_493\Debug\CorEx-Mux-Kernel.a(ShiftReg_iButtonCRC4LSB.o)
 .bss           0x00000000        0x1 .\CortexM3\ARM_GCC_493\Debug\CorEx-Mux-Kernel.a(ShiftReg_iButtonCRC4LSB.o)
 .text.ShiftReg_iButtonCRC4LSB_Start
                0x00000000       0x20 .\CortexM3\ARM_GCC_493\Debug\CorEx-Mux-Kernel.a(ShiftReg_iButtonCRC4LSB.o)
 .text.ShiftReg_iButtonCRC4LSB_Enable
                0x00000000       0x20 .\CortexM3\ARM_GCC_493\Debug\CorEx-Mux-Kernel.a(ShiftReg_iButtonCRC4LSB.o)
 .text.ShiftReg_iButtonCRC4LSB_Init
                0x00000000        0xc .\CortexM3\ARM_GCC_493\Debug\CorEx-Mux-Kernel.a(ShiftReg_iButtonCRC4LSB.o)
 .text.ShiftReg_iButtonCRC4LSB_Stop
                0x00000000       0x20 .\CortexM3\ARM_GCC_493\Debug\CorEx-Mux-Kernel.a(ShiftReg_iButtonCRC4LSB.o)
 .text.ShiftReg_iButtonCRC4LSB_EnableInt
                0x00000000       0x30 .\CortexM3\ARM_GCC_493\Debug\CorEx-Mux-Kernel.a(ShiftReg_iButtonCRC4LSB.o)
 .text.ShiftReg_iButtonCRC4LSB_DisableInt
                0x00000000       0x30 .\CortexM3\ARM_GCC_493\Debug\CorEx-Mux-Kernel.a(ShiftReg_iButtonCRC4LSB.o)
 .text.ShiftReg_iButtonCRC4LSB_GetFIFOStatus
                0x00000000       0x58 .\CortexM3\ARM_GCC_493\Debug\CorEx-Mux-Kernel.a(ShiftReg_iButtonCRC4LSB.o)
 .text.ShiftReg_iButtonCRC4LSB_SetIntMode
                0x00000000       0x40 .\CortexM3\ARM_GCC_493\Debug\CorEx-Mux-Kernel.a(ShiftReg_iButtonCRC4LSB.o)
 .text.ShiftReg_iButtonCRC4LSB_GetIntStatus
                0x00000000       0x20 .\CortexM3\ARM_GCC_493\Debug\CorEx-Mux-Kernel.a(ShiftReg_iButtonCRC4LSB.o)
 .text.ShiftReg_iButtonCRC4LSB_WriteRegValue
                0x00000000       0x20 .\CortexM3\ARM_GCC_493\Debug\CorEx-Mux-Kernel.a(ShiftReg_iButtonCRC4LSB.o)
 .text.ShiftReg_iButtonCRC4LSB_ReadRegValue
                0x00000000       0x3c .\CortexM3\ARM_GCC_493\Debug\CorEx-Mux-Kernel.a(ShiftReg_iButtonCRC4LSB.o)
 .text          0x00000000        0x0 .\CortexM3\ARM_GCC_493\Debug\CorEx-Mux-Kernel.a(Input_iButton.o)
 .data          0x00000000        0x0 .\CortexM3\ARM_GCC_493\Debug\CorEx-Mux-Kernel.a(Input_iButton.o)
 .bss           0x00000000        0x0 .\CortexM3\ARM_GCC_493\Debug\CorEx-Mux-Kernel.a(Input_iButton.o)
 .text.Input_iButton_Write
                0x00000000       0x20 .\CortexM3\ARM_GCC_493\Debug\CorEx-Mux-Kernel.a(Input_iButton.o)
 .text.Input_iButton_Read
                0x00000000       0x18 .\CortexM3\ARM_GCC_493\Debug\CorEx-Mux-Kernel.a(Input_iButton.o)
 .text          0x00000000        0x0 .\CortexM3\ARM_GCC_493\Debug\CorEx-Mux-Kernel.a(Clock_iButton.o)
 .data          0x00000000        0x0 .\CortexM3\ARM_GCC_493\Debug\CorEx-Mux-Kernel.a(Clock_iButton.o)
 .bss           0x00000000        0x0 .\CortexM3\ARM_GCC_493\Debug\CorEx-Mux-Kernel.a(Clock_iButton.o)
 .text.Clock_iButton_Write
                0x00000000       0x20 .\CortexM3\ARM_GCC_493\Debug\CorEx-Mux-Kernel.a(Clock_iButton.o)
 .text.Clock_iButton_Read
                0x00000000       0x18 .\CortexM3\ARM_GCC_493\Debug\CorEx-Mux-Kernel.a(Clock_iButton.o)
 .text          0x00000000        0x0 .\CortexM3\ARM_GCC_493\Debug\CorEx-Mux-Kernel.a(ShiftReg_iButtonCRC3MSB.o)
 .data          0x00000000        0x0 .\CortexM3\ARM_GCC_493\Debug\CorEx-Mux-Kernel.a(ShiftReg_iButtonCRC3MSB.o)
 .bss           0x00000000        0x1 .\CortexM3\ARM_GCC_493\Debug\CorEx-Mux-Kernel.a(ShiftReg_iButtonCRC3MSB.o)
 .text.ShiftReg_iButtonCRC3MSB_Start
                0x00000000       0x20 .\CortexM3\ARM_GCC_493\Debug\CorEx-Mux-Kernel.a(ShiftReg_iButtonCRC3MSB.o)
 .text.ShiftReg_iButtonCRC3MSB_Enable
                0x00000000       0x20 .\CortexM3\ARM_GCC_493\Debug\CorEx-Mux-Kernel.a(ShiftReg_iButtonCRC3MSB.o)
 .text.ShiftReg_iButtonCRC3MSB_Init
                0x00000000        0xc .\CortexM3\ARM_GCC_493\Debug\CorEx-Mux-Kernel.a(ShiftReg_iButtonCRC3MSB.o)
 .text.ShiftReg_iButtonCRC3MSB_Stop
                0x00000000       0x20 .\CortexM3\ARM_GCC_493\Debug\CorEx-Mux-Kernel.a(ShiftReg_iButtonCRC3MSB.o)
 .text.ShiftReg_iButtonCRC3MSB_EnableInt
                0x00000000       0x30 .\CortexM3\ARM_GCC_493\Debug\CorEx-Mux-Kernel.a(ShiftReg_iButtonCRC3MSB.o)
 .text.ShiftReg_iButtonCRC3MSB_DisableInt
                0x00000000       0x30 .\CortexM3\ARM_GCC_493\Debug\CorEx-Mux-Kernel.a(ShiftReg_iButtonCRC3MSB.o)
 .text.ShiftReg_iButtonCRC3MSB_GetFIFOStatus
                0x00000000       0x58 .\CortexM3\ARM_GCC_493\Debug\CorEx-Mux-Kernel.a(ShiftReg_iButtonCRC3MSB.o)
 .text.ShiftReg_iButtonCRC3MSB_SetIntMode
                0x00000000       0x40 .\CortexM3\ARM_GCC_493\Debug\CorEx-Mux-Kernel.a(ShiftReg_iButtonCRC3MSB.o)
 .text.ShiftReg_iButtonCRC3MSB_GetIntStatus
                0x00000000       0x20 .\CortexM3\ARM_GCC_493\Debug\CorEx-Mux-Kernel.a(ShiftReg_iButtonCRC3MSB.o)
 .text.ShiftReg_iButtonCRC3MSB_WriteRegValue
                0x00000000       0x20 .\CortexM3\ARM_GCC_493\Debug\CorEx-Mux-Kernel.a(ShiftReg_iButtonCRC3MSB.o)
 .text.ShiftReg_iButtonCRC3MSB_ReadRegValue
                0x00000000       0x3c .\CortexM3\ARM_GCC_493\Debug\CorEx-Mux-Kernel.a(ShiftReg_iButtonCRC3MSB.o)
 .text          0x00000000        0x0 .\CortexM3\ARM_GCC_493\Debug\CorEx-Mux-Kernel.a(StatusReg_iButton5thCRCBit.o)
 .data          0x00000000        0x0 .\CortexM3\ARM_GCC_493\Debug\CorEx-Mux-Kernel.a(StatusReg_iButton5thCRCBit.o)
 .bss           0x00000000        0x0 .\CortexM3\ARM_GCC_493\Debug\CorEx-Mux-Kernel.a(StatusReg_iButton5thCRCBit.o)
 .text.StatusReg_iButton5thCRCBit_Read
                0x00000000       0x18 .\CortexM3\ARM_GCC_493\Debug\CorEx-Mux-Kernel.a(StatusReg_iButton5thCRCBit.o)
 .text.StatusReg_iButton5thCRCBit_InterruptEnable
                0x00000000       0x30 .\CortexM3\ARM_GCC_493\Debug\CorEx-Mux-Kernel.a(StatusReg_iButton5thCRCBit.o)
 .text.StatusReg_iButton5thCRCBit_InterruptDisable
                0x00000000       0x30 .\CortexM3\ARM_GCC_493\Debug\CorEx-Mux-Kernel.a(StatusReg_iButton5thCRCBit.o)
 .text.StatusReg_iButton5thCRCBit_WriteMask
                0x00000000       0x28 .\CortexM3\ARM_GCC_493\Debug\CorEx-Mux-Kernel.a(StatusReg_iButton5thCRCBit.o)
 .text.StatusReg_iButton5thCRCBit_ReadMask
                0x00000000       0x18 .\CortexM3\ARM_GCC_493\Debug\CorEx-Mux-Kernel.a(StatusReg_iButton5thCRCBit.o)
 .text          0x00000000        0x0 .\CortexM3\ARM_GCC_493\Debug\CorEx-Mux-Kernel.a(Reset_iButton.o)
 .data          0x00000000        0x0 .\CortexM3\ARM_GCC_493\Debug\CorEx-Mux-Kernel.a(Reset_iButton.o)
 .bss           0x00000000        0x0 .\CortexM3\ARM_GCC_493\Debug\CorEx-Mux-Kernel.a(Reset_iButton.o)
 .text.Reset_iButton_Write
                0x00000000       0x20 .\CortexM3\ARM_GCC_493\Debug\CorEx-Mux-Kernel.a(Reset_iButton.o)
 .text.Reset_iButton_Read
                0x00000000       0x18 .\CortexM3\ARM_GCC_493\Debug\CorEx-Mux-Kernel.a(Reset_iButton.o)
 .text          0x00000000        0x0 .\CortexM3\ARM_GCC_493\Debug\CorEx-Mux-Kernel.a(CyFlash.o)
 .data          0x00000000        0x0 .\CortexM3\ARM_GCC_493\Debug\CorEx-Mux-Kernel.a(CyFlash.o)
 .bss           0x00000000        0x4 .\CortexM3\ARM_GCC_493\Debug\CorEx-Mux-Kernel.a(CyFlash.o)
 .text.CyFlash_Start
                0x00000000       0x8c .\CortexM3\ARM_GCC_493\Debug\CorEx-Mux-Kernel.a(CyFlash.o)
 .text.CyFlash_Stop
                0x00000000       0x44 .\CortexM3\ARM_GCC_493\Debug\CorEx-Mux-Kernel.a(CyFlash.o)
 .text.CySetTempInt
                0x00000000       0x7c .\CortexM3\ARM_GCC_493\Debug\CorEx-Mux-Kernel.a(CyFlash.o)
 .text.CyFlashGetSpcAlgorithm
                0x00000000       0x70 .\CortexM3\ARM_GCC_493\Debug\CorEx-Mux-Kernel.a(CyFlash.o)
 .text.CySetTemp
                0x00000000       0x24 .\CortexM3\ARM_GCC_493\Debug\CorEx-Mux-Kernel.a(CyFlash.o)
 .text.CySetFlashEEBuffer
                0x00000000       0x54 .\CortexM3\ARM_GCC_493\Debug\CorEx-Mux-Kernel.a(CyFlash.o)
 .text.CyWriteRowData
                0x00000000       0x3c .\CortexM3\ARM_GCC_493\Debug\CorEx-Mux-Kernel.a(CyFlash.o)
 .text.CyWriteRowFull
                0x00000000      0x158 .\CortexM3\ARM_GCC_493\Debug\CorEx-Mux-Kernel.a(CyFlash.o)
 .text.CyFlash_SetWaitCycles
                0x00000000       0xbc .\CortexM3\ARM_GCC_493\Debug\CorEx-Mux-Kernel.a(CyFlash.o)
 .text.CyEEPROM_Start
                0x00000000       0x8c .\CortexM3\ARM_GCC_493\Debug\CorEx-Mux-Kernel.a(CyFlash.o)
 .text.CyEEPROM_Stop
                0x00000000       0x44 .\CortexM3\ARM_GCC_493\Debug\CorEx-Mux-Kernel.a(CyFlash.o)
 .text.CyEEPROM_ReadReserve
                0x00000000       0x30 .\CortexM3\ARM_GCC_493\Debug\CorEx-Mux-Kernel.a(CyFlash.o)
 .text.CyEEPROM_ReadRelease
                0x00000000       0x20 .\CortexM3\ARM_GCC_493\Debug\CorEx-Mux-Kernel.a(CyFlash.o)
 COMMON         0x00000000        0x2 .\CortexM3\ARM_GCC_493\Debug\CorEx-Mux-Kernel.a(CyFlash.o)
 .text          0x00000000        0x0 .\CortexM3\ARM_GCC_493\Debug\CorEx-Mux-Kernel.a(CySpc.o)
 .data          0x00000000        0x0 .\CortexM3\ARM_GCC_493\Debug\CorEx-Mux-Kernel.a(CySpc.o)
 .bss           0x00000000        0x8 .\CortexM3\ARM_GCC_493\Debug\CorEx-Mux-Kernel.a(CySpc.o)
 .text.CySpcStart
                0x00000000       0x44 .\CortexM3\ARM_GCC_493\Debug\CorEx-Mux-Kernel.a(CySpc.o)
 .text.CySpcStop
                0x00000000       0x44 .\CortexM3\ARM_GCC_493\Debug\CorEx-Mux-Kernel.a(CySpc.o)
 .text.CySpcReadData
                0x00000000       0x58 .\CortexM3\ARM_GCC_493\Debug\CorEx-Mux-Kernel.a(CySpc.o)
 .text.CySpcLoadMultiByte
                0x00000000       0xd4 .\CortexM3\ARM_GCC_493\Debug\CorEx-Mux-Kernel.a(CySpc.o)
 .text.CySpcLoadRow
                0x00000000       0x8c .\CortexM3\ARM_GCC_493\Debug\CorEx-Mux-Kernel.a(CySpc.o)
 .text.CySpcLoadRowFull
                0x00000000       0xd0 .\CortexM3\ARM_GCC_493\Debug\CorEx-Mux-Kernel.a(CySpc.o)
 .text.CySpcWriteRow
                0x00000000       0x98 .\CortexM3\ARM_GCC_493\Debug\CorEx-Mux-Kernel.a(CySpc.o)
 .text.CySpcEraseSector
                0x00000000       0x70 .\CortexM3\ARM_GCC_493\Debug\CorEx-Mux-Kernel.a(CySpc.o)
 .text.CySpcGetTemp
                0x00000000       0x64 .\CortexM3\ARM_GCC_493\Debug\CorEx-Mux-Kernel.a(CySpc.o)
 .text.CySpcLock
                0x00000000       0x68 .\CortexM3\ARM_GCC_493\Debug\CorEx-Mux-Kernel.a(CySpc.o)
 .text.CySpcUnlock
                0x00000000       0x50 .\CortexM3\ARM_GCC_493\Debug\CorEx-Mux-Kernel.a(CySpc.o)
 .text.CySpcGetAlgorithm
                0x00000000       0x48 .\CortexM3\ARM_GCC_493\Debug\CorEx-Mux-Kernel.a(CySpc.o)
 .text          0x00000000        0x0 c:/program files (x86)/cypress/psoc creator/3.3/psoc creator/import/gnu/arm/4.9.3/bin/../lib/gcc/arm-none-eabi/4.9.3/../../../../arm-none-eabi/lib/armv7-m\libm.a(lib_a-s_pow10.o)
 .data          0x00000000        0x0 c:/program files (x86)/cypress/psoc creator/3.3/psoc creator/import/gnu/arm/4.9.3/bin/../lib/gcc/arm-none-eabi/4.9.3/../../../../arm-none-eabi/lib/armv7-m\libm.a(lib_a-s_pow10.o)
 .bss           0x00000000        0x0 c:/program files (x86)/cypress/psoc creator/3.3/psoc creator/import/gnu/arm/4.9.3/bin/../lib/gcc/arm-none-eabi/4.9.3/../../../../arm-none-eabi/lib/armv7-m\libm.a(lib_a-s_pow10.o)
 .text          0x00000000        0x0 c:/program files (x86)/cypress/psoc creator/3.3/psoc creator/import/gnu/arm/4.9.3/bin/../lib/gcc/arm-none-eabi/4.9.3/../../../../arm-none-eabi/lib/armv7-m\libm.a(lib_a-s_round.o)
 .data          0x00000000        0x0 c:/program files (x86)/cypress/psoc creator/3.3/psoc creator/import/gnu/arm/4.9.3/bin/../lib/gcc/arm-none-eabi/4.9.3/../../../../arm-none-eabi/lib/armv7-m\libm.a(lib_a-s_round.o)
 .bss           0x00000000        0x0 c:/program files (x86)/cypress/psoc creator/3.3/psoc creator/import/gnu/arm/4.9.3/bin/../lib/gcc/arm-none-eabi/4.9.3/../../../../arm-none-eabi/lib/armv7-m\libm.a(lib_a-s_round.o)
 .text          0x00000000        0x0 c:/program files (x86)/cypress/psoc creator/3.3/psoc creator/import/gnu/arm/4.9.3/bin/../lib/gcc/arm-none-eabi/4.9.3/../../../../arm-none-eabi/lib/armv7-m\libm.a(lib_a-w_pow.o)
 .data          0x00000000        0x0 c:/program files (x86)/cypress/psoc creator/3.3/psoc creator/import/gnu/arm/4.9.3/bin/../lib/gcc/arm-none-eabi/4.9.3/../../../../arm-none-eabi/lib/armv7-m\libm.a(lib_a-w_pow.o)
 .bss           0x00000000        0x0 c:/program files (x86)/cypress/psoc creator/3.3/psoc creator/import/gnu/arm/4.9.3/bin/../lib/gcc/arm-none-eabi/4.9.3/../../../../arm-none-eabi/lib/armv7-m\libm.a(lib_a-w_pow.o)
 .text          0x00000000        0x0 c:/program files (x86)/cypress/psoc creator/3.3/psoc creator/import/gnu/arm/4.9.3/bin/../lib/gcc/arm-none-eabi/4.9.3/../../../../arm-none-eabi/lib/armv7-m\libm.a(lib_a-e_pow.o)
 .data          0x00000000        0x0 c:/program files (x86)/cypress/psoc creator/3.3/psoc creator/import/gnu/arm/4.9.3/bin/../lib/gcc/arm-none-eabi/4.9.3/../../../../arm-none-eabi/lib/armv7-m\libm.a(lib_a-e_pow.o)
 .bss           0x00000000        0x0 c:/program files (x86)/cypress/psoc creator/3.3/psoc creator/import/gnu/arm/4.9.3/bin/../lib/gcc/arm-none-eabi/4.9.3/../../../../arm-none-eabi/lib/armv7-m\libm.a(lib_a-e_pow.o)
 .text          0x00000000        0x0 c:/program files (x86)/cypress/psoc creator/3.3/psoc creator/import/gnu/arm/4.9.3/bin/../lib/gcc/arm-none-eabi/4.9.3/../../../../arm-none-eabi/lib/armv7-m\libm.a(lib_a-e_sqrt.o)
 .data          0x00000000        0x0 c:/program files (x86)/cypress/psoc creator/3.3/psoc creator/import/gnu/arm/4.9.3/bin/../lib/gcc/arm-none-eabi/4.9.3/../../../../arm-none-eabi/lib/armv7-m\libm.a(lib_a-e_sqrt.o)
 .bss           0x00000000        0x0 c:/program files (x86)/cypress/psoc creator/3.3/psoc creator/import/gnu/arm/4.9.3/bin/../lib/gcc/arm-none-eabi/4.9.3/../../../../arm-none-eabi/lib/armv7-m\libm.a(lib_a-e_sqrt.o)
 .text          0x00000000        0x0 c:/program files (x86)/cypress/psoc creator/3.3/psoc creator/import/gnu/arm/4.9.3/bin/../lib/gcc/arm-none-eabi/4.9.3/../../../../arm-none-eabi/lib/armv7-m\libm.a(lib_a-s_fabs.o)
 .data          0x00000000        0x0 c:/program files (x86)/cypress/psoc creator/3.3/psoc creator/import/gnu/arm/4.9.3/bin/../lib/gcc/arm-none-eabi/4.9.3/../../../../arm-none-eabi/lib/armv7-m\libm.a(lib_a-s_fabs.o)
 .bss           0x00000000        0x0 c:/program files (x86)/cypress/psoc creator/3.3/psoc creator/import/gnu/arm/4.9.3/bin/../lib/gcc/arm-none-eabi/4.9.3/../../../../arm-none-eabi/lib/armv7-m\libm.a(lib_a-s_fabs.o)
 .text          0x00000000        0x0 c:/program files (x86)/cypress/psoc creator/3.3/psoc creator/import/gnu/arm/4.9.3/bin/../lib/gcc/arm-none-eabi/4.9.3/../../../../arm-none-eabi/lib/armv7-m\libm.a(lib_a-s_finite.o)
 .data          0x00000000        0x0 c:/program files (x86)/cypress/psoc creator/3.3/psoc creator/import/gnu/arm/4.9.3/bin/../lib/gcc/arm-none-eabi/4.9.3/../../../../arm-none-eabi/lib/armv7-m\libm.a(lib_a-s_finite.o)
 .bss           0x00000000        0x0 c:/program files (x86)/cypress/psoc creator/3.3/psoc creator/import/gnu/arm/4.9.3/bin/../lib/gcc/arm-none-eabi/4.9.3/../../../../arm-none-eabi/lib/armv7-m\libm.a(lib_a-s_finite.o)
 .text          0x00000000        0x0 c:/program files (x86)/cypress/psoc creator/3.3/psoc creator/import/gnu/arm/4.9.3/bin/../lib/gcc/arm-none-eabi/4.9.3/../../../../arm-none-eabi/lib/armv7-m\libm.a(lib_a-s_fpclassify.o)
 .data          0x00000000        0x0 c:/program files (x86)/cypress/psoc creator/3.3/psoc creator/import/gnu/arm/4.9.3/bin/../lib/gcc/arm-none-eabi/4.9.3/../../../../arm-none-eabi/lib/armv7-m\libm.a(lib_a-s_fpclassify.o)
 .bss           0x00000000        0x0 c:/program files (x86)/cypress/psoc creator/3.3/psoc creator/import/gnu/arm/4.9.3/bin/../lib/gcc/arm-none-eabi/4.9.3/../../../../arm-none-eabi/lib/armv7-m\libm.a(lib_a-s_fpclassify.o)
 .text          0x00000000        0x0 c:/program files (x86)/cypress/psoc creator/3.3/psoc creator/import/gnu/arm/4.9.3/bin/../lib/gcc/arm-none-eabi/4.9.3/../../../../arm-none-eabi/lib/armv7-m\libm.a(lib_a-s_lib_ver.o)
 .data          0x00000000        0x0 c:/program files (x86)/cypress/psoc creator/3.3/psoc creator/import/gnu/arm/4.9.3/bin/../lib/gcc/arm-none-eabi/4.9.3/../../../../arm-none-eabi/lib/armv7-m\libm.a(lib_a-s_lib_ver.o)
 .bss           0x00000000        0x0 c:/program files (x86)/cypress/psoc creator/3.3/psoc creator/import/gnu/arm/4.9.3/bin/../lib/gcc/arm-none-eabi/4.9.3/../../../../arm-none-eabi/lib/armv7-m\libm.a(lib_a-s_lib_ver.o)
 .text          0x00000000        0x0 c:/program files (x86)/cypress/psoc creator/3.3/psoc creator/import/gnu/arm/4.9.3/bin/../lib/gcc/arm-none-eabi/4.9.3/../../../../arm-none-eabi/lib/armv7-m\libm.a(lib_a-s_matherr.o)
 .data          0x00000000        0x0 c:/program files (x86)/cypress/psoc creator/3.3/psoc creator/import/gnu/arm/4.9.3/bin/../lib/gcc/arm-none-eabi/4.9.3/../../../../arm-none-eabi/lib/armv7-m\libm.a(lib_a-s_matherr.o)
 .bss           0x00000000        0x0 c:/program files (x86)/cypress/psoc creator/3.3/psoc creator/import/gnu/arm/4.9.3/bin/../lib/gcc/arm-none-eabi/4.9.3/../../../../arm-none-eabi/lib/armv7-m\libm.a(lib_a-s_matherr.o)
 .text          0x00000000        0x0 c:/program files (x86)/cypress/psoc creator/3.3/psoc creator/import/gnu/arm/4.9.3/bin/../lib/gcc/arm-none-eabi/4.9.3/../../../../arm-none-eabi/lib/armv7-m\libm.a(lib_a-s_nan.o)
 .data          0x00000000        0x0 c:/program files (x86)/cypress/psoc creator/3.3/psoc creator/import/gnu/arm/4.9.3/bin/../lib/gcc/arm-none-eabi/4.9.3/../../../../arm-none-eabi/lib/armv7-m\libm.a(lib_a-s_nan.o)
 .bss           0x00000000        0x0 c:/program files (x86)/cypress/psoc creator/3.3/psoc creator/import/gnu/arm/4.9.3/bin/../lib/gcc/arm-none-eabi/4.9.3/../../../../arm-none-eabi/lib/armv7-m\libm.a(lib_a-s_nan.o)
 .text          0x00000000        0x0 c:/program files (x86)/cypress/psoc creator/3.3/psoc creator/import/gnu/arm/4.9.3/bin/../lib/gcc/arm-none-eabi/4.9.3/../../../../arm-none-eabi/lib/armv7-m\libm.a(lib_a-s_rint.o)
 .data          0x00000000        0x0 c:/program files (x86)/cypress/psoc creator/3.3/psoc creator/import/gnu/arm/4.9.3/bin/../lib/gcc/arm-none-eabi/4.9.3/../../../../arm-none-eabi/lib/armv7-m\libm.a(lib_a-s_rint.o)
 .bss           0x00000000        0x0 c:/program files (x86)/cypress/psoc creator/3.3/psoc creator/import/gnu/arm/4.9.3/bin/../lib/gcc/arm-none-eabi/4.9.3/../../../../arm-none-eabi/lib/armv7-m\libm.a(lib_a-s_rint.o)
 .text          0x00000000        0x0 c:/program files (x86)/cypress/psoc creator/3.3/psoc creator/import/gnu/arm/4.9.3/bin/../lib/gcc/arm-none-eabi/4.9.3/../../../../arm-none-eabi/lib/armv7-m\libm.a(lib_a-s_scalbn.o)
 .data          0x00000000        0x0 c:/program files (x86)/cypress/psoc creator/3.3/psoc creator/import/gnu/arm/4.9.3/bin/../lib/gcc/arm-none-eabi/4.9.3/../../../../arm-none-eabi/lib/armv7-m\libm.a(lib_a-s_scalbn.o)
 .bss           0x00000000        0x0 c:/program files (x86)/cypress/psoc creator/3.3/psoc creator/import/gnu/arm/4.9.3/bin/../lib/gcc/arm-none-eabi/4.9.3/../../../../arm-none-eabi/lib/armv7-m\libm.a(lib_a-s_scalbn.o)
 .text          0x00000000        0x0 c:/program files (x86)/cypress/psoc creator/3.3/psoc creator/import/gnu/arm/4.9.3/bin/../lib/gcc/arm-none-eabi/4.9.3/../../../../arm-none-eabi/lib/armv7-m\libm.a(lib_a-s_copysign.o)
 .data          0x00000000        0x0 c:/program files (x86)/cypress/psoc creator/3.3/psoc creator/import/gnu/arm/4.9.3/bin/../lib/gcc/arm-none-eabi/4.9.3/../../../../arm-none-eabi/lib/armv7-m\libm.a(lib_a-s_copysign.o)
 .bss           0x00000000        0x0 c:/program files (x86)/cypress/psoc creator/3.3/psoc creator/import/gnu/arm/4.9.3/bin/../lib/gcc/arm-none-eabi/4.9.3/../../../../arm-none-eabi/lib/armv7-m\libm.a(lib_a-s_copysign.o)
 .data          0x00000000        0x0 c:/program files (x86)/cypress/psoc creator/3.3/psoc creator/import/gnu/arm/4.9.3/bin/../lib/gcc/arm-none-eabi/4.9.3/armv7-m\libgcc.a(_arm_addsubdf3.o)
 .bss           0x00000000        0x0 c:/program files (x86)/cypress/psoc creator/3.3/psoc creator/import/gnu/arm/4.9.3/bin/../lib/gcc/arm-none-eabi/4.9.3/armv7-m\libgcc.a(_arm_addsubdf3.o)
 .data          0x00000000        0x0 c:/program files (x86)/cypress/psoc creator/3.3/psoc creator/import/gnu/arm/4.9.3/bin/../lib/gcc/arm-none-eabi/4.9.3/armv7-m\libgcc.a(_arm_muldivdf3.o)
 .bss           0x00000000        0x0 c:/program files (x86)/cypress/psoc creator/3.3/psoc creator/import/gnu/arm/4.9.3/bin/../lib/gcc/arm-none-eabi/4.9.3/armv7-m\libgcc.a(_arm_muldivdf3.o)
 .data          0x00000000        0x0 c:/program files (x86)/cypress/psoc creator/3.3/psoc creator/import/gnu/arm/4.9.3/bin/../lib/gcc/arm-none-eabi/4.9.3/armv7-m\libgcc.a(_arm_cmpdf2.o)
 .bss           0x00000000        0x0 c:/program files (x86)/cypress/psoc creator/3.3/psoc creator/import/gnu/arm/4.9.3/bin/../lib/gcc/arm-none-eabi/4.9.3/armv7-m\libgcc.a(_arm_cmpdf2.o)
 .text          0x00000000       0x50 c:/program files (x86)/cypress/psoc creator/3.3/psoc creator/import/gnu/arm/4.9.3/bin/../lib/gcc/arm-none-eabi/4.9.3/armv7-m\libgcc.a(_arm_fixdfsi.o)
 .data          0x00000000        0x0 c:/program files (x86)/cypress/psoc creator/3.3/psoc creator/import/gnu/arm/4.9.3/bin/../lib/gcc/arm-none-eabi/4.9.3/armv7-m\libgcc.a(_arm_fixdfsi.o)
 .bss           0x00000000        0x0 c:/program files (x86)/cypress/psoc creator/3.3/psoc creator/import/gnu/arm/4.9.3/bin/../lib/gcc/arm-none-eabi/4.9.3/armv7-m\libgcc.a(_arm_fixdfsi.o)
 .data          0x00000000        0x0 c:/program files (x86)/cypress/psoc creator/3.3/psoc creator/import/gnu/arm/4.9.3/bin/../lib/gcc/arm-none-eabi/4.9.3/armv7-m\libgcc.a(_arm_fixunsdfsi.o)
 .bss           0x00000000        0x0 c:/program files (x86)/cypress/psoc creator/3.3/psoc creator/import/gnu/arm/4.9.3/bin/../lib/gcc/arm-none-eabi/4.9.3/armv7-m\libgcc.a(_arm_fixunsdfsi.o)
 .data          0x00000000        0x0 c:/program files (x86)/cypress/psoc creator/3.3/psoc creator/import/gnu/arm/4.9.3/bin/../lib/gcc/arm-none-eabi/4.9.3/armv7-m\libgcc.a(_aeabi_uldivmod.o)
 .bss           0x00000000        0x0 c:/program files (x86)/cypress/psoc creator/3.3/psoc creator/import/gnu/arm/4.9.3/bin/../lib/gcc/arm-none-eabi/4.9.3/armv7-m\libgcc.a(_aeabi_uldivmod.o)
 .text          0x00000000       0x48 c:/program files (x86)/cypress/psoc creator/3.3/psoc creator/import/gnu/arm/4.9.3/bin/../lib/gcc/arm-none-eabi/4.9.3/armv7-m\libgcc.a(_fixunsdfdi.o)
 .data          0x00000000        0x0 c:/program files (x86)/cypress/psoc creator/3.3/psoc creator/import/gnu/arm/4.9.3/bin/../lib/gcc/arm-none-eabi/4.9.3/armv7-m\libgcc.a(_fixunsdfdi.o)
 .bss           0x00000000        0x0 c:/program files (x86)/cypress/psoc creator/3.3/psoc creator/import/gnu/arm/4.9.3/bin/../lib/gcc/arm-none-eabi/4.9.3/armv7-m\libgcc.a(_fixunsdfdi.o)
 .data          0x00000000        0x0 c:/program files (x86)/cypress/psoc creator/3.3/psoc creator/import/gnu/arm/4.9.3/bin/../lib/gcc/arm-none-eabi/4.9.3/armv7-m\libgcc.a(bpabi.o)
 .bss           0x00000000        0x0 c:/program files (x86)/cypress/psoc creator/3.3/psoc creator/import/gnu/arm/4.9.3/bin/../lib/gcc/arm-none-eabi/4.9.3/armv7-m\libgcc.a(bpabi.o)
 .data          0x00000000        0x0 c:/program files (x86)/cypress/psoc creator/3.3/psoc creator/import/gnu/arm/4.9.3/bin/../lib/gcc/arm-none-eabi/4.9.3/armv7-m\libgcc.a(_dvmd_tls.o)
 .bss           0x00000000        0x0 c:/program files (x86)/cypress/psoc creator/3.3/psoc creator/import/gnu/arm/4.9.3/bin/../lib/gcc/arm-none-eabi/4.9.3/armv7-m\libgcc.a(_dvmd_tls.o)
 .data          0x00000000        0x0 c:/program files (x86)/cypress/psoc creator/3.3/psoc creator/import/gnu/arm/4.9.3/bin/../lib/gcc/arm-none-eabi/4.9.3/armv7-m\libgcc.a(_divdi3.o)
 .bss           0x00000000        0x0 c:/program files (x86)/cypress/psoc creator/3.3/psoc creator/import/gnu/arm/4.9.3/bin/../lib/gcc/arm-none-eabi/4.9.3/armv7-m\libgcc.a(_divdi3.o)
 .ARM.extab     0x00000000        0x0 c:/program files (x86)/cypress/psoc creator/3.3/psoc creator/import/gnu/arm/4.9.3/bin/../lib/gcc/arm-none-eabi/4.9.3/armv7-m\libgcc.a(_divdi3.o)
 .data          0x00000000        0x0 c:/program files (x86)/cypress/psoc creator/3.3/psoc creator/import/gnu/arm/4.9.3/bin/../lib/gcc/arm-none-eabi/4.9.3/armv7-m\libgcc.a(_udivdi3.o)
 .bss           0x00000000        0x0 c:/program files (x86)/cypress/psoc creator/3.3/psoc creator/import/gnu/arm/4.9.3/bin/../lib/gcc/arm-none-eabi/4.9.3/armv7-m\libgcc.a(_udivdi3.o)
 .ARM.extab     0x00000000        0x0 c:/program files (x86)/cypress/psoc creator/3.3/psoc creator/import/gnu/arm/4.9.3/bin/../lib/gcc/arm-none-eabi/4.9.3/armv7-m\libgcc.a(_udivdi3.o)
 .text          0x00000000        0x0 c:/program files (x86)/cypress/psoc creator/3.3/psoc creator/import/gnu/arm/4.9.3/bin/../lib/gcc/arm-none-eabi/4.9.3/../../../../arm-none-eabi/lib/armv7-m\libg_nano.a(lib_a-errno.o)
 .data          0x00000000        0x0 c:/program files (x86)/cypress/psoc creator/3.3/psoc creator/import/gnu/arm/4.9.3/bin/../lib/gcc/arm-none-eabi/4.9.3/../../../../arm-none-eabi/lib/armv7-m\libg_nano.a(lib_a-errno.o)
 .bss           0x00000000        0x0 c:/program files (x86)/cypress/psoc creator/3.3/psoc creator/import/gnu/arm/4.9.3/bin/../lib/gcc/arm-none-eabi/4.9.3/../../../../arm-none-eabi/lib/armv7-m\libg_nano.a(lib_a-errno.o)
 .text          0x00000000        0x0 c:/program files (x86)/cypress/psoc creator/3.3/psoc creator/import/gnu/arm/4.9.3/bin/../lib/gcc/arm-none-eabi/4.9.3/../../../../arm-none-eabi/lib/armv7-m\libg_nano.a(lib_a-exit.o)
 .data          0x00000000        0x0 c:/program files (x86)/cypress/psoc creator/3.3/psoc creator/import/gnu/arm/4.9.3/bin/../lib/gcc/arm-none-eabi/4.9.3/../../../../arm-none-eabi/lib/armv7-m\libg_nano.a(lib_a-exit.o)
 .bss           0x00000000        0x0 c:/program files (x86)/cypress/psoc creator/3.3/psoc creator/import/gnu/arm/4.9.3/bin/../lib/gcc/arm-none-eabi/4.9.3/../../../../arm-none-eabi/lib/armv7-m\libg_nano.a(lib_a-exit.o)
 .text.exit     0x00000000       0x28 c:/program files (x86)/cypress/psoc creator/3.3/psoc creator/import/gnu/arm/4.9.3/bin/../lib/gcc/arm-none-eabi/4.9.3/../../../../arm-none-eabi/lib/armv7-m\libg_nano.a(lib_a-exit.o)
 .text          0x00000000        0x0 c:/program files (x86)/cypress/psoc creator/3.3/psoc creator/import/gnu/arm/4.9.3/bin/../lib/gcc/arm-none-eabi/4.9.3/../../../../arm-none-eabi/lib/armv7-m\libg_nano.a(lib_a-impure.o)
 .data          0x00000000        0x0 c:/program files (x86)/cypress/psoc creator/3.3/psoc creator/import/gnu/arm/4.9.3/bin/../lib/gcc/arm-none-eabi/4.9.3/../../../../arm-none-eabi/lib/armv7-m\libg_nano.a(lib_a-impure.o)
 .bss           0x00000000        0x0 c:/program files (x86)/cypress/psoc creator/3.3/psoc creator/import/gnu/arm/4.9.3/bin/../lib/gcc/arm-none-eabi/4.9.3/../../../../arm-none-eabi/lib/armv7-m\libg_nano.a(lib_a-impure.o)
 .rodata._global_impure_ptr
                0x00000000        0x4 c:/program files (x86)/cypress/psoc creator/3.3/psoc creator/import/gnu/arm/4.9.3/bin/../lib/gcc/arm-none-eabi/4.9.3/../../../../arm-none-eabi/lib/armv7-m\libg_nano.a(lib_a-impure.o)
 .text          0x00000000        0x0 c:/program files (x86)/cypress/psoc creator/3.3/psoc creator/import/gnu/arm/4.9.3/bin/../lib/gcc/arm-none-eabi/4.9.3/../../../../arm-none-eabi/lib/armv7-m\libg_nano.a(lib_a-init.o)
 .data          0x00000000        0x0 c:/program files (x86)/cypress/psoc creator/3.3/psoc creator/import/gnu/arm/4.9.3/bin/../lib/gcc/arm-none-eabi/4.9.3/../../../../arm-none-eabi/lib/armv7-m\libg_nano.a(lib_a-init.o)
 .bss           0x00000000        0x0 c:/program files (x86)/cypress/psoc creator/3.3/psoc creator/import/gnu/arm/4.9.3/bin/../lib/gcc/arm-none-eabi/4.9.3/../../../../arm-none-eabi/lib/armv7-m\libg_nano.a(lib_a-init.o)
 .text          0x00000000        0x0 c:/program files (x86)/cypress/psoc creator/3.3/psoc creator/import/gnu/arm/4.9.3/bin/../lib/gcc/arm-none-eabi/4.9.3/../../../../arm-none-eabi/lib/armv7-m\libg_nano.a(lib_a-memcpy.o)
 .data          0x00000000        0x0 c:/program files (x86)/cypress/psoc creator/3.3/psoc creator/import/gnu/arm/4.9.3/bin/../lib/gcc/arm-none-eabi/4.9.3/../../../../arm-none-eabi/lib/armv7-m\libg_nano.a(lib_a-memcpy.o)
 .bss           0x00000000        0x0 c:/program files (x86)/cypress/psoc creator/3.3/psoc creator/import/gnu/arm/4.9.3/bin/../lib/gcc/arm-none-eabi/4.9.3/../../../../arm-none-eabi/lib/armv7-m\libg_nano.a(lib_a-memcpy.o)
 .text          0x00000000        0x0 c:/program files (x86)/cypress/psoc creator/3.3/psoc creator/import/gnu/arm/4.9.3/bin/../lib/gcc/arm-none-eabi/4.9.3/../../../../arm-none-eabi/lib/armv7-m\libg_nano.a(lib_a-memset.o)
 .data          0x00000000        0x0 c:/program files (x86)/cypress/psoc creator/3.3/psoc creator/import/gnu/arm/4.9.3/bin/../lib/gcc/arm-none-eabi/4.9.3/../../../../arm-none-eabi/lib/armv7-m\libg_nano.a(lib_a-memset.o)
 .bss           0x00000000        0x0 c:/program files (x86)/cypress/psoc creator/3.3/psoc creator/import/gnu/arm/4.9.3/bin/../lib/gcc/arm-none-eabi/4.9.3/../../../../arm-none-eabi/lib/armv7-m\libg_nano.a(lib_a-memset.o)
 .text          0x00000000        0x0 c:/program files (x86)/cypress/psoc creator/3.3/psoc creator/import/gnu/arm/4.9.3/bin/../lib/gcc/arm-none-eabi/4.9.3/../../../../arm-none-eabi/lib/armv7-m\libg_nano.a(lib_a-rand.o)
 .data          0x00000000        0x0 c:/program files (x86)/cypress/psoc creator/3.3/psoc creator/import/gnu/arm/4.9.3/bin/../lib/gcc/arm-none-eabi/4.9.3/../../../../arm-none-eabi/lib/armv7-m\libg_nano.a(lib_a-rand.o)
 .bss           0x00000000        0x0 c:/program files (x86)/cypress/psoc creator/3.3/psoc creator/import/gnu/arm/4.9.3/bin/../lib/gcc/arm-none-eabi/4.9.3/../../../../arm-none-eabi/lib/armv7-m\libg_nano.a(lib_a-rand.o)
 .text.srand    0x00000000       0x50 c:/program files (x86)/cypress/psoc creator/3.3/psoc creator/import/gnu/arm/4.9.3/bin/../lib/gcc/arm-none-eabi/4.9.3/../../../../arm-none-eabi/lib/armv7-m\libg_nano.a(lib_a-rand.o)
 .text          0x00000000        0x0 c:/program files (x86)/cypress/psoc creator/3.3/psoc creator/import/gnu/arm/4.9.3/bin/../lib/gcc/arm-none-eabi/4.9.3/../../../../arm-none-eabi/lib/armv7-m\libg_nano.a(lib_a-sprintf.o)
 .data          0x00000000        0x0 c:/program files (x86)/cypress/psoc creator/3.3/psoc creator/import/gnu/arm/4.9.3/bin/../lib/gcc/arm-none-eabi/4.9.3/../../../../arm-none-eabi/lib/armv7-m\libg_nano.a(lib_a-sprintf.o)
 .bss           0x00000000        0x0 c:/program files (x86)/cypress/psoc creator/3.3/psoc creator/import/gnu/arm/4.9.3/bin/../lib/gcc/arm-none-eabi/4.9.3/../../../../arm-none-eabi/lib/armv7-m\libg_nano.a(lib_a-sprintf.o)
 .text._sprintf_r
                0x00000000       0x40 c:/program files (x86)/cypress/psoc creator/3.3/psoc creator/import/gnu/arm/4.9.3/bin/../lib/gcc/arm-none-eabi/4.9.3/../../../../arm-none-eabi/lib/armv7-m\libg_nano.a(lib_a-sprintf.o)
 .text          0x00000000        0x0 c:/program files (x86)/cypress/psoc creator/3.3/psoc creator/import/gnu/arm/4.9.3/bin/../lib/gcc/arm-none-eabi/4.9.3/../../../../arm-none-eabi/lib/armv7-m\libg_nano.a(lib_a-strchr.o)
 .data          0x00000000        0x0 c:/program files (x86)/cypress/psoc creator/3.3/psoc creator/import/gnu/arm/4.9.3/bin/../lib/gcc/arm-none-eabi/4.9.3/../../../../arm-none-eabi/lib/armv7-m\libg_nano.a(lib_a-strchr.o)
 .bss           0x00000000        0x0 c:/program files (x86)/cypress/psoc creator/3.3/psoc creator/import/gnu/arm/4.9.3/bin/../lib/gcc/arm-none-eabi/4.9.3/../../../../arm-none-eabi/lib/armv7-m\libg_nano.a(lib_a-strchr.o)
 .text          0x00000000        0x0 c:/program files (x86)/cypress/psoc creator/3.3/psoc creator/import/gnu/arm/4.9.3/bin/../lib/gcc/arm-none-eabi/4.9.3/../../../../arm-none-eabi/lib/armv7-m\libg_nano.a(lib_a-strlen.o)
 .data          0x00000000        0x0 c:/program files (x86)/cypress/psoc creator/3.3/psoc creator/import/gnu/arm/4.9.3/bin/../lib/gcc/arm-none-eabi/4.9.3/../../../../arm-none-eabi/lib/armv7-m\libg_nano.a(lib_a-strlen.o)
 .bss           0x00000000        0x0 c:/program files (x86)/cypress/psoc creator/3.3/psoc creator/import/gnu/arm/4.9.3/bin/../lib/gcc/arm-none-eabi/4.9.3/../../../../arm-none-eabi/lib/armv7-m\libg_nano.a(lib_a-strlen.o)
 .text          0x00000000        0x0 c:/program files (x86)/cypress/psoc creator/3.3/psoc creator/import/gnu/arm/4.9.3/bin/../lib/gcc/arm-none-eabi/4.9.3/../../../../arm-none-eabi/lib/armv7-m\libg_nano.a(lib_a-strncmp.o)
 .data          0x00000000        0x0 c:/program files (x86)/cypress/psoc creator/3.3/psoc creator/import/gnu/arm/4.9.3/bin/../lib/gcc/arm-none-eabi/4.9.3/../../../../arm-none-eabi/lib/armv7-m\libg_nano.a(lib_a-strncmp.o)
 .bss           0x00000000        0x0 c:/program files (x86)/cypress/psoc creator/3.3/psoc creator/import/gnu/arm/4.9.3/bin/../lib/gcc/arm-none-eabi/4.9.3/../../../../arm-none-eabi/lib/armv7-m\libg_nano.a(lib_a-strncmp.o)
 .text          0x00000000        0x0 c:/program files (x86)/cypress/psoc creator/3.3/psoc creator/import/gnu/arm/4.9.3/bin/../lib/gcc/arm-none-eabi/4.9.3/../../../../arm-none-eabi/lib/armv7-m\libg_nano.a(lib_a-malloc.o)
 .data          0x00000000        0x0 c:/program files (x86)/cypress/psoc creator/3.3/psoc creator/import/gnu/arm/4.9.3/bin/../lib/gcc/arm-none-eabi/4.9.3/../../../../arm-none-eabi/lib/armv7-m\libg_nano.a(lib_a-malloc.o)
 .bss           0x00000000        0x0 c:/program files (x86)/cypress/psoc creator/3.3/psoc creator/import/gnu/arm/4.9.3/bin/../lib/gcc/arm-none-eabi/4.9.3/../../../../arm-none-eabi/lib/armv7-m\libg_nano.a(lib_a-malloc.o)
 .text.free     0x00000000       0x10 c:/program files (x86)/cypress/psoc creator/3.3/psoc creator/import/gnu/arm/4.9.3/bin/../lib/gcc/arm-none-eabi/4.9.3/../../../../arm-none-eabi/lib/armv7-m\libg_nano.a(lib_a-malloc.o)
 .text          0x00000000        0x0 c:/program files (x86)/cypress/psoc creator/3.3/psoc creator/import/gnu/arm/4.9.3/bin/../lib/gcc/arm-none-eabi/4.9.3/../../../../arm-none-eabi/lib/armv7-m\libg_nano.a(lib_a-nano-freer.o)
 .data          0x00000000        0x0 c:/program files (x86)/cypress/psoc creator/3.3/psoc creator/import/gnu/arm/4.9.3/bin/../lib/gcc/arm-none-eabi/4.9.3/../../../../arm-none-eabi/lib/armv7-m\libg_nano.a(lib_a-nano-freer.o)
 .bss           0x00000000        0x0 c:/program files (x86)/cypress/psoc creator/3.3/psoc creator/import/gnu/arm/4.9.3/bin/../lib/gcc/arm-none-eabi/4.9.3/../../../../arm-none-eabi/lib/armv7-m\libg_nano.a(lib_a-nano-freer.o)
 .text          0x00000000        0x0 c:/program files (x86)/cypress/psoc creator/3.3/psoc creator/import/gnu/arm/4.9.3/bin/../lib/gcc/arm-none-eabi/4.9.3/../../../../arm-none-eabi/lib/armv7-m\libg_nano.a(lib_a-nano-mallocr.o)
 .data          0x00000000        0x0 c:/program files (x86)/cypress/psoc creator/3.3/psoc creator/import/gnu/arm/4.9.3/bin/../lib/gcc/arm-none-eabi/4.9.3/../../../../arm-none-eabi/lib/armv7-m\libg_nano.a(lib_a-nano-mallocr.o)
 .bss           0x00000000        0x0 c:/program files (x86)/cypress/psoc creator/3.3/psoc creator/import/gnu/arm/4.9.3/bin/../lib/gcc/arm-none-eabi/4.9.3/../../../../arm-none-eabi/lib/armv7-m\libg_nano.a(lib_a-nano-mallocr.o)
 .text          0x00000000        0x0 c:/program files (x86)/cypress/psoc creator/3.3/psoc creator/import/gnu/arm/4.9.3/bin/../lib/gcc/arm-none-eabi/4.9.3/../../../../arm-none-eabi/lib/armv7-m\libg_nano.a(lib_a-nano-svfprintf.o)
 .data          0x00000000        0x0 c:/program files (x86)/cypress/psoc creator/3.3/psoc creator/import/gnu/arm/4.9.3/bin/../lib/gcc/arm-none-eabi/4.9.3/../../../../arm-none-eabi/lib/armv7-m\libg_nano.a(lib_a-nano-svfprintf.o)
 .bss           0x00000000        0x0 c:/program files (x86)/cypress/psoc creator/3.3/psoc creator/import/gnu/arm/4.9.3/bin/../lib/gcc/arm-none-eabi/4.9.3/../../../../arm-none-eabi/lib/armv7-m\libg_nano.a(lib_a-nano-svfprintf.o)
 .text.__ssprint_r
                0x00000000       0xfe c:/program files (x86)/cypress/psoc creator/3.3/psoc creator/import/gnu/arm/4.9.3/bin/../lib/gcc/arm-none-eabi/4.9.3/../../../../arm-none-eabi/lib/armv7-m\libg_nano.a(lib_a-nano-svfprintf.o)
 .text          0x00000000        0x0 c:/program files (x86)/cypress/psoc creator/3.3/psoc creator/import/gnu/arm/4.9.3/bin/../lib/gcc/arm-none-eabi/4.9.3/../../../../arm-none-eabi/lib/armv7-m\libg_nano.a(lib_a-nano-vfprintf_i.o)
 .data          0x00000000        0x0 c:/program files (x86)/cypress/psoc creator/3.3/psoc creator/import/gnu/arm/4.9.3/bin/../lib/gcc/arm-none-eabi/4.9.3/../../../../arm-none-eabi/lib/armv7-m\libg_nano.a(lib_a-nano-vfprintf_i.o)
 .bss           0x00000000        0x0 c:/program files (x86)/cypress/psoc creator/3.3/psoc creator/import/gnu/arm/4.9.3/bin/../lib/gcc/arm-none-eabi/4.9.3/../../../../arm-none-eabi/lib/armv7-m\libg_nano.a(lib_a-nano-vfprintf_i.o)
 .text          0x00000000        0x0 c:/program files (x86)/cypress/psoc creator/3.3/psoc creator/import/gnu/arm/4.9.3/bin/../lib/gcc/arm-none-eabi/4.9.3/../../../../arm-none-eabi/lib/armv7-m\libg_nano.a(lib_a-sbrkr.o)
 .data          0x00000000        0x0 c:/program files (x86)/cypress/psoc creator/3.3/psoc creator/import/gnu/arm/4.9.3/bin/../lib/gcc/arm-none-eabi/4.9.3/../../../../arm-none-eabi/lib/armv7-m\libg_nano.a(lib_a-sbrkr.o)
 .bss           0x00000000        0x0 c:/program files (x86)/cypress/psoc creator/3.3/psoc creator/import/gnu/arm/4.9.3/bin/../lib/gcc/arm-none-eabi/4.9.3/../../../../arm-none-eabi/lib/armv7-m\libg_nano.a(lib_a-sbrkr.o)
 .text          0x00000000        0x0 c:/program files (x86)/cypress/psoc creator/3.3/psoc creator/import/gnu/arm/4.9.3/bin/../lib/gcc/arm-none-eabi/4.9.3/../../../../arm-none-eabi/lib/armv7-m\libg_nano.a(lib_a-memchr.o)
 .data          0x00000000        0x0 c:/program files (x86)/cypress/psoc creator/3.3/psoc creator/import/gnu/arm/4.9.3/bin/../lib/gcc/arm-none-eabi/4.9.3/../../../../arm-none-eabi/lib/armv7-m\libg_nano.a(lib_a-memchr.o)
 .bss           0x00000000        0x0 c:/program files (x86)/cypress/psoc creator/3.3/psoc creator/import/gnu/arm/4.9.3/bin/../lib/gcc/arm-none-eabi/4.9.3/../../../../arm-none-eabi/lib/armv7-m\libg_nano.a(lib_a-memchr.o)
 .text          0x00000000        0x0 c:/program files (x86)/cypress/psoc creator/3.3/psoc creator/import/gnu/arm/4.9.3/bin/../lib/gcc/arm-none-eabi/4.9.3/../../../../arm-none-eabi/lib/armv7-m\libg_nano.a(lib_a-memmove.o)
 .data          0x00000000        0x0 c:/program files (x86)/cypress/psoc creator/3.3/psoc creator/import/gnu/arm/4.9.3/bin/../lib/gcc/arm-none-eabi/4.9.3/../../../../arm-none-eabi/lib/armv7-m\libg_nano.a(lib_a-memmove.o)
 .bss           0x00000000        0x0 c:/program files (x86)/cypress/psoc creator/3.3/psoc creator/import/gnu/arm/4.9.3/bin/../lib/gcc/arm-none-eabi/4.9.3/../../../../arm-none-eabi/lib/armv7-m\libg_nano.a(lib_a-memmove.o)
 .text          0x00000000        0x0 c:/program files (x86)/cypress/psoc creator/3.3/psoc creator/import/gnu/arm/4.9.3/bin/../lib/gcc/arm-none-eabi/4.9.3/../../../../arm-none-eabi/lib/armv7-m\libg_nano.a(lib_a-nano-reallocr.o)
 .data          0x00000000        0x0 c:/program files (x86)/cypress/psoc creator/3.3/psoc creator/import/gnu/arm/4.9.3/bin/../lib/gcc/arm-none-eabi/4.9.3/../../../../arm-none-eabi/lib/armv7-m\libg_nano.a(lib_a-nano-reallocr.o)
 .bss           0x00000000        0x0 c:/program files (x86)/cypress/psoc creator/3.3/psoc creator/import/gnu/arm/4.9.3/bin/../lib/gcc/arm-none-eabi/4.9.3/../../../../arm-none-eabi/lib/armv7-m\libg_nano.a(lib_a-nano-reallocr.o)
 .text          0x00000000        0x0 c:/program files (x86)/cypress/psoc creator/3.3/psoc creator/import/gnu/arm/4.9.3/bin/../lib/gcc/arm-none-eabi/4.9.3/../../../../arm-none-eabi/lib/armv7-m\libg_nano.a(lib_a-reent.o)
 .data          0x00000000        0x0 c:/program files (x86)/cypress/psoc creator/3.3/psoc creator/import/gnu/arm/4.9.3/bin/../lib/gcc/arm-none-eabi/4.9.3/../../../../arm-none-eabi/lib/armv7-m\libg_nano.a(lib_a-reent.o)
 .bss           0x00000000        0x0 c:/program files (x86)/cypress/psoc creator/3.3/psoc creator/import/gnu/arm/4.9.3/bin/../lib/gcc/arm-none-eabi/4.9.3/../../../../arm-none-eabi/lib/armv7-m\libg_nano.a(lib_a-reent.o)
 .text.cleanup_glue
                0x00000000       0x1a c:/program files (x86)/cypress/psoc creator/3.3/psoc creator/import/gnu/arm/4.9.3/bin/../lib/gcc/arm-none-eabi/4.9.3/../../../../arm-none-eabi/lib/armv7-m\libg_nano.a(lib_a-reent.o)
 .text._reclaim_reent
                0x00000000       0xb4 c:/program files (x86)/cypress/psoc creator/3.3/psoc creator/import/gnu/arm/4.9.3/bin/../lib/gcc/arm-none-eabi/4.9.3/../../../../arm-none-eabi/lib/armv7-m\libg_nano.a(lib_a-reent.o)
 .text          0x00000000        0x0 c:/program files (x86)/cypress/psoc creator/3.3/psoc creator/import/gnu/arm/4.9.3/bin/../lib/gcc/arm-none-eabi/4.9.3/../../../../arm-none-eabi/lib/armv7-m\libg_nano.a(lib_a-nano-msizer.o)
 .data          0x00000000        0x0 c:/program files (x86)/cypress/psoc creator/3.3/psoc creator/import/gnu/arm/4.9.3/bin/../lib/gcc/arm-none-eabi/4.9.3/../../../../arm-none-eabi/lib/armv7-m\libg_nano.a(lib_a-nano-msizer.o)
 .bss           0x00000000        0x0 c:/program files (x86)/cypress/psoc creator/3.3/psoc creator/import/gnu/arm/4.9.3/bin/../lib/gcc/arm-none-eabi/4.9.3/../../../../arm-none-eabi/lib/armv7-m\libg_nano.a(lib_a-nano-msizer.o)
 .text          0x00000000        0x0 c:/program files (x86)/cypress/psoc creator/3.3/psoc creator/import/gnu/arm/4.9.3/bin/../lib/gcc/arm-none-eabi/4.9.3/armv7-m/crtend.o
 .data          0x00000000        0x0 c:/program files (x86)/cypress/psoc creator/3.3/psoc creator/import/gnu/arm/4.9.3/bin/../lib/gcc/arm-none-eabi/4.9.3/armv7-m/crtend.o
 .bss           0x00000000        0x0 c:/program files (x86)/cypress/psoc creator/3.3/psoc creator/import/gnu/arm/4.9.3/bin/../lib/gcc/arm-none-eabi/4.9.3/armv7-m/crtend.o
 .text          0x00000000        0x0 c:/program files (x86)/cypress/psoc creator/3.3/psoc creator/import/gnu/arm/4.9.3/bin/../lib/gcc/arm-none-eabi/4.9.3/armv7-m/crtn.o
 .data          0x00000000        0x0 c:/program files (x86)/cypress/psoc creator/3.3/psoc creator/import/gnu/arm/4.9.3/bin/../lib/gcc/arm-none-eabi/4.9.3/armv7-m/crtn.o
 .bss           0x00000000        0x0 c:/program files (x86)/cypress/psoc creator/3.3/psoc creator/import/gnu/arm/4.9.3/bin/../lib/gcc/arm-none-eabi/4.9.3/armv7-m/crtn.o

Memory Configuration

Name             Origin             Length             Attributes
rom              0x00000000         0x00040000         xr
ram              0x1fff8000         0x00010000         xrw
*default*        0x00000000         0xffffffff

Linker script and memory map

LOAD c:/program files (x86)/cypress/psoc creator/3.3/psoc creator/import/gnu/arm/4.9.3/bin/../lib/gcc/arm-none-eabi/4.9.3/armv7-m/crti.o
LOAD c:/program files (x86)/cypress/psoc creator/3.3/psoc creator/import/gnu/arm/4.9.3/bin/../lib/gcc/arm-none-eabi/4.9.3/armv7-m/crtbegin.o
LOAD c:/program files (x86)/cypress/psoc creator/3.3/psoc creator/import/gnu/arm/4.9.3/bin/../lib/gcc/arm-none-eabi/4.9.3/../../../../arm-none-eabi/lib/armv7-m/crt0.o
START GROUP
LOAD .\CortexM3\ARM_GCC_493\Debug\UARTManager.o
LOAD .\CortexM3\ARM_GCC_493\Debug\UARTResolver.o
LOAD .\CortexM3\ARM_GCC_493\Debug\UARTManagerSink.o
LOAD .\CortexM3\ARM_GCC_493\Debug\PseudoRTOS.o
LOAD .\CortexM3\ARM_GCC_493\Debug\Utils.o
LOAD .\CortexM3\ARM_GCC_493\Debug\Security.o
LOAD .\CortexM3\ARM_GCC_493\Debug\SinkManager.o
LOAD .\CortexM3\ARM_GCC_493\Debug\EepromManager.o
LOAD .\CortexM3\ARM_GCC_493\Debug\RtcManager.o
LOAD .\CortexM3\ARM_GCC_493\Debug\Initializers.o
LOAD .\CortexM3\ARM_GCC_493\Debug\Timers.o
LOAD .\CortexM3\ARM_GCC_493\Debug\TestFile.o
LOAD .\CortexM3\ARM_GCC_493\Debug\AuxPSoC.o
LOAD .\CortexM3\ARM_GCC_493\Debug\WatchDogReset.o
LOAD .\CortexM3\ARM_GCC_493\Debug\DispenserResolver.o
LOAD .\CortexM3\ARM_GCC_493\Debug\DispenserBLL.o
LOAD .\CortexM3\ARM_GCC_493\Debug\DispenserSink.o
LOAD .\CortexM3\ARM_GCC_493\Debug\DisplayBLL.o
LOAD .\CortexM3\ARM_GCC_493\Debug\DisplaySink.o
LOAD .\CortexM3\ARM_GCC_493\Debug\DisplayUtils.o
LOAD .\CortexM3\ARM_GCC_493\Debug\DisplayFlow.o
LOAD .\CortexM3\ARM_GCC_493\Debug\DisplayCharacterMap.o
LOAD .\CortexM3\ARM_GCC_493\Debug\DisplayBufferScreenMap.o
LOAD .\CortexM3\ARM_GCC_493\Debug\DisplayResolver.o
LOAD .\CortexM3\ARM_GCC_493\Debug\PrinterBLL.o
LOAD .\CortexM3\ARM_GCC_493\Debug\PrinterSink.o
LOAD .\CortexM3\ARM_GCC_493\Debug\PrinterResolver.o
LOAD .\CortexM3\ARM_GCC_493\Debug\PrinterTemplate.o
LOAD .\CortexM3\ARM_GCC_493\Debug\iButtonSink.o
LOAD .\CortexM3\ARM_GCC_493\Debug\iButtonBLL.o
LOAD .\CortexM3\ARM_GCC_493\Debug\iButtonProtocol.o
LOAD .\CortexM3\ARM_GCC_493\Debug\Prime.o
LOAD .\CortexM3\ARM_GCC_493\Debug\PrimeFlow.o
LOAD .\CortexM3\ARM_GCC_493\Debug\PrimeImpl.o
LOAD .\CortexM3\ARM_GCC_493\Debug\Encore.o
LOAD .\CortexM3\ARM_GCC_493\Debug\EncoreFlow.o
LOAD .\CortexM3\ARM_GCC_493\Debug\EncoreImpl.o
LOAD .\CortexM3\ARM_GCC_493\Debug\Advantage.o
LOAD .\CortexM3\ARM_GCC_493\Debug\AdvantageFlow.o
LOAD .\CortexM3\ARM_GCC_493\Debug\AdvantageImpl.o
LOAD .\CortexM3\ARM_GCC_493\Debug\RFSink.o
LOAD .\CortexM3\ARM_GCC_493\Debug\RFBLL.o
LOAD .\CortexM3\ARM_GCC_493\Debug\RFResolver.o
LOAD .\CortexM3\ARM_GCC_493\Debug\RFServerStack.o
LOAD .\CortexM3\ARM_GCC_493\Debug\RFServerStackImpl.o
LOAD .\CortexM3\ARM_GCC_493\Debug\ClientDefinitions.o
LOAD .\CortexM3\ARM_GCC_493\Debug\main.o
LOAD .\CortexM3\ARM_GCC_493\Debug\cymetadata.o
LOAD .\CortexM3\ARM_GCC_493\Debug\Cm3Start.o
LOAD .\CortexM3\ARM_GCC_493\Debug\CorEx-Mux-Kernel.a
LOAD C:\Program Files (x86)\Cypress\PSoC Creator\3.3\PSoC Creator\psoc\content\cycomponentlibrary\CyComponentLibrary.cylib\CortexM3\ARM_GCC_493\Debug\CyComponentLibrary.a
LOAD c:/program files (x86)/cypress/psoc creator/3.3/psoc creator/import/gnu/arm/4.9.3/bin/../lib/gcc/arm-none-eabi/4.9.3/../../../../arm-none-eabi/lib/armv7-m\libm.a
END GROUP
START GROUP
LOAD c:/program files (x86)/cypress/psoc creator/3.3/psoc creator/import/gnu/arm/4.9.3/bin/../lib/gcc/arm-none-eabi/4.9.3/armv7-m\libgcc.a
LOAD c:/program files (x86)/cypress/psoc creator/3.3/psoc creator/import/gnu/arm/4.9.3/bin/../lib/gcc/arm-none-eabi/4.9.3/../../../../arm-none-eabi/lib/armv7-m\libg_nano.a
LOAD c:/program files (x86)/cypress/psoc creator/3.3/psoc creator/import/gnu/arm/4.9.3/bin/../lib/gcc/arm-none-eabi/4.9.3/../../../../arm-none-eabi/lib/armv7-m\libc_nano.a
END GROUP
START GROUP
LOAD c:/program files (x86)/cypress/psoc creator/3.3/psoc creator/import/gnu/arm/4.9.3/bin/../lib/gcc/arm-none-eabi/4.9.3/armv7-m\libgcc.a
LOAD c:/program files (x86)/cypress/psoc creator/3.3/psoc creator/import/gnu/arm/4.9.3/bin/../lib/gcc/arm-none-eabi/4.9.3/../../../../arm-none-eabi/lib/armv7-m\libc_nano.a
END GROUP
LOAD c:/program files (x86)/cypress/psoc creator/3.3/psoc creator/import/gnu/arm/4.9.3/bin/../lib/gcc/arm-none-eabi/4.9.3/armv7-m/crtend.o
LOAD c:/program files (x86)/cypress/psoc creator/3.3/psoc creator/import/gnu/arm/4.9.3/bin/../lib/gcc/arm-none-eabi/4.9.3/armv7-m/crtn.o
START GROUP
LOAD c:/program files (x86)/cypress/psoc creator/3.3/psoc creator/import/gnu/arm/4.9.3/bin/../lib/gcc/arm-none-eabi/4.9.3/armv7-m\libgcc.a
LOAD c:/program files (x86)/cypress/psoc creator/3.3/psoc creator/import/gnu/arm/4.9.3/bin/../lib/gcc/arm-none-eabi/4.9.3/../../../../arm-none-eabi/lib/armv7-m\libc.a
LOAD c:/program files (x86)/cypress/psoc creator/3.3/psoc creator/import/gnu/arm/4.9.3/bin/../lib/gcc/arm-none-eabi/4.9.3/../../../../arm-none-eabi/lib/armv7-m\libnosys.a
END GROUP
                0x00000000                CY_APPL_ORIGIN = 0x0
                0x00000100                CY_FLASH_ROW_SIZE = 0x100
                0x00000020                CY_ECC_ROW_SIZE = 0x20
                0x00000000                CY_EE_IN_BTLDR = 0x0
                0x00000000                CY_APPL_LOADABLE = 0x0
                0x00000800                CY_EE_SIZE = 0x800
                0x00000001                CY_APPL_NUM = 0x1
                0x00000001                CY_APPL_MAX = 0x1
                0x00000040                CY_METADATA_SIZE = 0x40
                0x00000000                CY_APPL_LOADABLE = 0x0
                0x00000000                CY_CHECKSUM_EXCLUDE_SIZE = ALIGN (0x0, CY_FLASH_ROW_SIZE)
                0x20007548                PROVIDE (__cy_heap_start, _end)
                0x00000001                PROVIDE (__cy_region_num, ((__cy_regions_end - __cy_regions) / 0x10))
                0x20008000                PROVIDE (__cy_stack, (ORIGIN (ram) + 0x10000))
                0x20007800                PROVIDE (__cy_heap_end, (__cy_stack - 0x800))

.cybootloader   0x00000000        0x0
 *(.cybootloader)
                0x00000000                appl1_start = CY_APPL_ORIGIN?CY_APPL_ORIGIN:ALIGN (CY_FLASH_ROW_SIZE)
                0x0001ff00                appl2_start = (appl1_start + ALIGN ((((0x40000 - appl1_start) - (0x2 * CY_FLASH_ROW_SIZE)) / 0x2), CY_FLASH_ROW_SIZE))
                0x00000000                appl_start = (CY_APPL_NUM == 0x1)?appl1_start:appl2_start
                0x00000000                ecc_offset = ((appl_start / CY_FLASH_ROW_SIZE) * CY_ECC_ROW_SIZE)
                0x00000000                ee_offset = (CY_APPL_LOADABLE && ! (CY_EE_IN_BTLDR))?((CY_EE_SIZE / CY_APPL_MAX) * (CY_APPL_NUM - 0x1)):0x0
                0x00000800                ee_size = (CY_APPL_LOADABLE && ! (CY_EE_IN_BTLDR))?(CY_EE_SIZE / CY_APPL_MAX):CY_EE_SIZE
                0x00000000                PROVIDE (CY_ECC_OFFSET, ecc_offset)

.text           0x00000000    0x1d952
 CREATE_OBJECT_SYMBOLS
                0x00000000                PROVIDE (__cy_interrupt_vector, RomVectors)
 *(.romvectors)
 .romvectors    0x00000000       0x10 .\CortexM3\ARM_GCC_493\Debug\Cm3Start.o
                0x00000000                RomVectors
                0x00000001                ASSERT ((. != __cy_interrupt_vector), No interrupt vector)
                0x00000001                ASSERT (CY_APPL_ORIGIN?(SIZEOF (.cybootloader) <= CY_APPL_ORIGIN):0x1, Wrong image location)
                0x00000010                PROVIDE (__cy_reset, Reset)
 *(.text.Reset)
 .text.Reset    0x00000010       0x18 .\CortexM3\ARM_GCC_493\Debug\Cm3Start.o
                0x00000010                Reset
                0x00000001                ASSERT ((. != __cy_reset), No reset code)
 *(.dma_init)
                0x00000001                ASSERT ((((appl_start + .) <= 0x10000) || 0x1), DMA Init must be within the first 64k of flash)
 *(.text .text.* .gnu.linkonce.t.*)
 .text          0x00000028       0x5c c:/program files (x86)/cypress/psoc creator/3.3/psoc creator/import/gnu/arm/4.9.3/bin/../lib/gcc/arm-none-eabi/4.9.3/armv7-m/crtbegin.o
 .text.UARTGlobalHandler
                0x00000084       0x50 .\CortexM3\ARM_GCC_493\Debug\UARTManager.o
                0x00000084                UARTGlobalHandler
 .text.GetUARTManager
                0x000000d4       0x3c .\CortexM3\ARM_GCC_493\Debug\UARTManager.o
                0x000000d4                GetUARTManager
 .text.GetUARTMessageSlot
                0x00000110       0xb4 .\CortexM3\ARM_GCC_493\Debug\UARTManager.o
                0x00000110                GetUARTMessageSlot
 .text.InitUARTManager
                0x000001c4       0x84 .\CortexM3\ARM_GCC_493\Debug\UARTManager.o
                0x000001c4                InitUARTManager
 .text.ReleaseMessage
                0x00000248       0x34 .\CortexM3\ARM_GCC_493\Debug\UARTManager.o
                0x00000248                ReleaseMessage
 .text.InvokeResolver
                0x0000027c       0x54 .\CortexM3\ARM_GCC_493\Debug\UARTResolver.o
                0x0000027c                InvokeResolver
 .text.UARTSinkRegistration
                0x000002d0        0xc .\CortexM3\ARM_GCC_493\Debug\UARTManagerSink.o
                0x000002d0                UARTSinkRegistration
 .text.loop_push
                0x000002dc       0x3c .\CortexM3\ARM_GCC_493\Debug\PseudoRTOS.o
                0x000002dc                loop_push
 .text.loop_invoke
                0x00000318       0x4c .\CortexM3\ARM_GCC_493\Debug\PseudoRTOS.o
                0x00000318                loop_invoke
 .text.B78AD90CF552D9B30A
                0x00000364      0x1dc .\CortexM3\ARM_GCC_493\Debug\Utils.o
                0x00000364                B78AD90CF552D9B30A
 .text.PSTRBUFFTOGG
                0x00000540       0x7c .\CortexM3\ARM_GCC_493\Debug\Utils.o
                0x00000540                PSTRBUFFTOGG
 .text.LSDBCDBUFF2HEX
                0x000005bc       0x94 .\CortexM3\ARM_GCC_493\Debug\Utils.o
                0x000005bc                LSDBCDBUFF2HEX
 .text.CRCCheck
                0x00000650       0x58 .\CortexM3\ARM_GCC_493\Debug\Security.o
                0x00000650                CRCCheck
 .text.RawCRCCheck
                0x000006a8       0x44 .\CortexM3\ARM_GCC_493\Debug\Security.o
                0x000006a8                RawCRCCheck
 .text.SinkManagerRegistration
                0x000006ec      0x148 .\CortexM3\ARM_GCC_493\Debug\SinkManager.o
                0x000006ec                SinkManagerRegistration
 *fill*         0x00000834        0x4 
 .text.AllocateMessageSlot
                0x00000838      0x150 .\CortexM3\ARM_GCC_493\Debug\SinkManager.o
                0x00000838                AllocateMessageSlot
 .text.FindSinkMessage
                0x00000988       0xc8 .\CortexM3\ARM_GCC_493\Debug\SinkManager.o
                0x00000988                FindSinkMessage
 .text.AllocateMessageSlotConditional
                0x00000a50      0x190 .\CortexM3\ARM_GCC_493\Debug\SinkManager.o
                0x00000a50                AllocateMessageSlotConditional
 .text.AllocateMessageArraySlotConditional
                0x00000be0      0x100 .\CortexM3\ARM_GCC_493\Debug\SinkManager.o
                0x00000be0                AllocateMessageArraySlotConditional
 .text.ReleaseSinkMessage
                0x00000ce0       0x2c .\CortexM3\ARM_GCC_493\Debug\SinkManager.o
                0x00000ce0                ReleaseSinkMessage
 .text.ReleaseSinkMessageByID
                0x00000d0c       0x4c .\CortexM3\ARM_GCC_493\Debug\SinkManager.o
                0x00000d0c                ReleaseSinkMessageByID
 .text.AllocateSubscriberSlot
                0x00000d58       0x68 .\CortexM3\ARM_GCC_493\Debug\SinkManager.o
                0x00000d58                AllocateSubscriberSlot
 .text.SinkHandler
                0x00000dc0      0x5c0 .\CortexM3\ARM_GCC_493\Debug\SinkManager.o
                0x00000dc0                SinkHandler
 .text.SinkBroadcast
                0x00001380       0x98 .\CortexM3\ARM_GCC_493\Debug\SinkManager.o
                0x00001380                SinkBroadcast
 .text.SinkFirstFound
                0x00001418       0xc0 .\CortexM3\ARM_GCC_493\Debug\SinkManager.o
                0x00001418                SinkFirstFound
 .text.SinkAllInterested
                0x000014d8       0xb4 .\CortexM3\ARM_GCC_493\Debug\SinkManager.o
                0x000014d8                SinkAllInterested
 .text.SinkBroadcastForever
                0x0000158c       0x94 .\CortexM3\ARM_GCC_493\Debug\SinkManager.o
                0x0000158c                SinkBroadcastForever
 .text.SinkCounterUpdateCallback
                0x00001620       0x70 .\CortexM3\ARM_GCC_493\Debug\SinkManager.o
                0x00001620                SinkCounterUpdateCallback
 .text.SinkReleaseByIDCallback
                0x00001690       0x1c .\CortexM3\ARM_GCC_493\Debug\SinkManager.o
                0x00001690                SinkReleaseByIDCallback
 .text.SinkReleaseByPtrCallback
                0x000016ac       0x20 .\CortexM3\ARM_GCC_493\Debug\SinkManager.o
                0x000016ac                SinkReleaseByPtrCallback
 .text.GetEepromBuffer
                0x000016cc       0x14 .\CortexM3\ARM_GCC_493\Debug\EepromManager.o
                0x000016cc                GetEepromBuffer
 .text.I2CBusUnlock
                0x000016e0       0x14 .\CortexM3\ARM_GCC_493\Debug\EepromManager.o
                0x000016e0                I2CBusUnlock
 .text.LoadEepromPage
                0x000016f4       0x94 .\CortexM3\ARM_GCC_493\Debug\EepromManager.o
                0x000016f4                LoadEepromPage
 .text.I2CBusLock
                0x00001788       0xc8 .\CortexM3\ARM_GCC_493\Debug\EepromManager.o
                0x00001788                I2CBusLock
 .text.StoreEepromPage
                0x00001850       0x8c .\CortexM3\ARM_GCC_493\Debug\EepromManager.o
                0x00001850                StoreEepromPage
 .text.ClearEepromBuffer
                0x000018dc       0x14 .\CortexM3\ARM_GCC_493\Debug\EepromManager.o
                0x000018dc                ClearEepromBuffer
 .text.GetRtcBuffer
                0x000018f0       0x14 .\CortexM3\ARM_GCC_493\Debug\RtcManager.o
                0x000018f0                GetRtcBuffer
 .text.ClearRtcBuffer
                0x00001904       0x14 .\CortexM3\ARM_GCC_493\Debug\RtcManager.o
                0x00001904                ClearRtcBuffer
 .text.UpdateRTC
                0x00001918       0xf8 .\CortexM3\ARM_GCC_493\Debug\RtcManager.o
                0x00001918                UpdateRTC
 .text.ReadRTC  0x00001a10       0x84 .\CortexM3\ARM_GCC_493\Debug\RtcManager.o
                0x00001a10                ReadRTC
 .text.StartRtc
                0x00001a94       0x30 .\CortexM3\ARM_GCC_493\Debug\RtcManager.o
                0x00001a94                StartRtc
 .text.GlobalInitializer
                0x00001ac4       0x48 .\CortexM3\ARM_GCC_493\Debug\Initializers.o
                0x00001ac4                GlobalInitializer
 .text.InitTimers
                0x00001b0c       0x24 .\CortexM3\ARM_GCC_493\Debug\Timers.o
                0x00001b0c                InitTimers
 .text.CounterIsr
                0x00001b30       0x40 .\CortexM3\ARM_GCC_493\Debug\Timers.o
                0x00001b30                CounterIsr
 .text.DispenserStateIsr
                0x00001b70       0x30 .\CortexM3\ARM_GCC_493\Debug\Timers.o
                0x00001b70                DispenserStateIsr
 .text.WriteAuxPSoC
                0x00001ba0       0x64 .\CortexM3\ARM_GCC_493\Debug\AuxPSoC.o
                0x00001ba0                WriteAuxPSoC
 .text.WatchDogInitialize
                0x00001c04       0x48 .\CortexM3\ARM_GCC_493\Debug\WatchDogReset.o
                0x00001c04                WatchDogInitialize
 .text.WatchDogHandler
                0x00001c4c       0x18 .\CortexM3\ARM_GCC_493\Debug\WatchDogReset.o
                0x00001c4c                WatchDogHandler
 .text.WatchDogStartup
                0x00001c64       0x18 .\CortexM3\ARM_GCC_493\Debug\WatchDogReset.o
                0x00001c64                WatchDogStartup
 .text.DispenserBufferResolver
                0x00001c7c       0x7c .\CortexM3\ARM_GCC_493\Debug\DispenserResolver.o
                0x00001c7c                DispenserBufferResolver
 .text.DispenserUARTSend
                0x00001cf8       0x54 .\CortexM3\ARM_GCC_493\Debug\DispenserResolver.o
                0x00001cf8                DispenserUARTSend
 .text.DispenserHoseActiveState
                0x00001d4c       0x90 .\CortexM3\ARM_GCC_493\Debug\DispenserBLL.o
                0x00001d4c                DispenserHoseActiveState
 .text.DispenserExecuteCreditTransaction
                0x00001ddc       0x90 .\CortexM3\ARM_GCC_493\Debug\DispenserBLL.o
                0x00001ddc                DispenserExecuteCreditTransaction
 .text.DispenserExecuteCashTransaction
                0x00001e6c       0x94 .\CortexM3\ARM_GCC_493\Debug\DispenserBLL.o
                0x00001e6c                DispenserExecuteCashTransaction
 .text.DispenserBeepWarning
                0x00001f00       0x90 .\CortexM3\ARM_GCC_493\Debug\DispenserBLL.o
                0x00001f00                DispenserBeepWarning
 .text.DispenserUpdatePumpState
                0x00001f90      0x138 .\CortexM3\ARM_GCC_493\Debug\DispenserBLL.o
                0x00001f90                DispenserUpdatePumpState
 .text.DispenserUnlockPumpsOnEOT
                0x000020c8       0xd4 .\CortexM3\ARM_GCC_493\Debug\DispenserBLL.o
                0x000020c8                DispenserUnlockPumpsOnEOT
 .text.DispenserUnlockPumpsOnEOTStartup
                0x0000219c       0xac .\CortexM3\ARM_GCC_493\Debug\DispenserBLL.o
                0x0000219c                DispenserUnlockPumpsOnEOTStartup
 .text.DispenserRestorePrices
                0x00002248       0xa4 .\CortexM3\ARM_GCC_493\Debug\DispenserBLL.o
                0x00002248                DispenserRestorePrices
 .text.DispenserAcquireConfiguration
                0x000022ec      0x114 .\CortexM3\ARM_GCC_493\Debug\DispenserBLL.o
                0x000022ec                DispenserAcquireConfiguration
 .text.DispenserConfigurePrices
                0x00002400      0x12c .\CortexM3\ARM_GCC_493\Debug\DispenserBLL.o
                0x00002400                DispenserConfigurePrices
 .text.DispenserConfigureSinglePrice
                0x0000252c      0x370 .\CortexM3\ARM_GCC_493\Debug\DispenserBLL.o
                0x0000252c                DispenserConfigureSinglePrice
 .text.DispenserAcquireTotals
                0x0000289c       0xa0 .\CortexM3\ARM_GCC_493\Debug\DispenserBLL.o
                0x0000289c                DispenserAcquireTotals
 .text.DispenserEnumeratePumps
                0x0000293c      0x150 .\CortexM3\ARM_GCC_493\Debug\DispenserBLL.o
                0x0000293c                DispenserEnumeratePumps
 .text.DispenserLoadEEPROMSettings
                0x00002a8c      0x1ec .\CortexM3\ARM_GCC_493\Debug\DispenserBLL.o
                0x00002a8c                DispenserLoadEEPROMSettings
 .text.DispenserGetEepromPPUPageFromPumpID
                0x00002c78       0xb4 .\CortexM3\ARM_GCC_493\Debug\DispenserBLL.o
                0x00002c78                DispenserGetEepromPPUPageFromPumpID
 .text.GetPumpFromRemotePositionID
                0x00002d2c       0x64 .\CortexM3\ARM_GCC_493\Debug\DispenserBLL.o
                0x00002d2c                GetPumpFromRemotePositionID
 .text.DispenserSide1Listener
                0x00002d90      0x17c .\CortexM3\ARM_GCC_493\Debug\DispenserBLL.o
                0x00002d90                DispenserSide1Listener
 .text.DispenserSide2Listener
                0x00002f0c      0x17c .\CortexM3\ARM_GCC_493\Debug\DispenserBLL.o
                0x00002f0c                DispenserSide2Listener
 .text.DispenserTimeoutHandler
                0x00003088       0xf8 .\CortexM3\ARM_GCC_493\Debug\DispenserSink.o
                0x00003088                DispenserTimeoutHandler
 .text.DispenserDataReceptionHandler
                0x00003180      0x2b0 .\CortexM3\ARM_GCC_493\Debug\DispenserSink.o
                0x00003180                DispenserDataReceptionHandler
 .text.DispenserUpdateTimeouts
                0x00003430       0x84 .\CortexM3\ARM_GCC_493\Debug\DispenserSink.o
                0x00003430                DispenserUpdateTimeouts
 .text.DispenserHandler
                0x000034b4      0x250 .\CortexM3\ARM_GCC_493\Debug\DispenserSink.o
                0x000034b4                DispenserHandler
 .text.DispenserSinkRegistration
                0x00003704      0x31c .\CortexM3\ARM_GCC_493\Debug\DispenserSink.o
                0x00003704                DispenserSinkRegistration
 .text.WorkShiftDecorator
                0x00003a20       0xc4 .\CortexM3\ARM_GCC_493\Debug\DisplayBLL.o
                0x00003a20                WorkShiftDecorator
 .text.InitiateWorkShiftValidation
                0x00003ae4      0x144 .\CortexM3\ARM_GCC_493\Debug\DisplayBLL.o
                0x00003ae4                InitiateWorkShiftValidation
 .text.RequestWorkShiftOperAuthorization
                0x00003c28      0x13c .\CortexM3\ARM_GCC_493\Debug\DisplayBLL.o
                0x00003c28                RequestWorkShiftOperAuthorization
 .text.DrawNumberOfCopies
                0x00003d64      0x170 .\CortexM3\ARM_GCC_493\Debug\DisplayBLL.o
                0x00003d64                DrawNumberOfCopies
 .text.CancelMessageDecorator
                0x00003ed4       0xc4 .\CortexM3\ARM_GCC_493\Debug\DisplayBLL.o
                0x00003ed4                CancelMessageDecorator
 .text.AcceptedAuthorizationMessageDecorator
                0x00003f98      0x15c .\CortexM3\ARM_GCC_493\Debug\DisplayBLL.o
                0x00003f98                AcceptedAuthorizationMessageDecorator
 .text.ProductNameSelectionDecorator
                0x000040f4      0x500 .\CortexM3\ARM_GCC_493\Debug\DisplayBLL.o
                0x000040f4                ProductNameSelectionDecorator
 .text.RejectedAuthorizationMessageDecorator
                0x000045f4      0x15c .\CortexM3\ARM_GCC_493\Debug\DisplayBLL.o
                0x000045f4                RejectedAuthorizationMessageDecorator
 .text.ValidateAuthorizationResponse4Credit
                0x00004750       0x94 .\CortexM3\ARM_GCC_493\Debug\DisplayBLL.o
                0x00004750                ValidateAuthorizationResponse4Credit
 .text.SendAuthorizationRequest4Credit
                0x000047e4      0x234 .\CortexM3\ARM_GCC_493\Debug\DisplayBLL.o
                0x000047e4                SendAuthorizationRequest4Credit
 .text.DisplayStationIDDecorator
                0x00004a18       0xe4 .\CortexM3\ARM_GCC_493\Debug\DisplayBLL.o
                0x00004a18                DisplayStationIDDecorator
 .text.DisplayStationIDStore
                0x00004afc       0xd4 .\CortexM3\ARM_GCC_493\Debug\DisplayBLL.o
                0x00004afc                DisplayStationIDStore
 .text.DisplayStationIDLoad
                0x00004bd0       0x94 .\CortexM3\ARM_GCC_493\Debug\DisplayBLL.o
                0x00004bd0                DisplayStationIDLoad
 .text.DisplayPumpIDOffsetLoad
                0x00004c64       0x80 .\CortexM3\ARM_GCC_493\Debug\DisplayBLL.o
                0x00004c64                DisplayPumpIDOffsetLoad
 .text.DisplayPumpIDOffsetDecorator
                0x00004ce4       0xe4 .\CortexM3\ARM_GCC_493\Debug\DisplayBLL.o
                0x00004ce4                DisplayPumpIDOffsetDecorator
 .text.DisplayPumpIDOffsetStore
                0x00004dc8       0xc4 .\CortexM3\ARM_GCC_493\Debug\DisplayBLL.o
                0x00004dc8                DisplayPumpIDOffsetStore
 .text.iButtonScreenNotification
                0x00004e8c       0x98 .\CortexM3\ARM_GCC_493\Debug\DisplayBLL.o
                0x00004e8c                iButtonScreenNotification
 .text.TerminateiButtonScan
                0x00004f24       0x34 .\CortexM3\ARM_GCC_493\Debug\DisplayBLL.o
                0x00004f24                TerminateiButtonScan
 .text.InitiateiButtonScan
                0x00004f58       0xb0 .\CortexM3\ARM_GCC_493\Debug\DisplayBLL.o
                0x00004f58                InitiateiButtonScan
 .text.DrawDateTime
                0x00005008      0x820 .\CortexM3\ARM_GCC_493\Debug\DisplayBLL.o
                0x00005008                DrawDateTime
 .text.DrawHomeDateTime
                0x00005828      0x788 .\CortexM3\ARM_GCC_493\Debug\DisplayBLL.o
                0x00005828                DrawHomeDateTime
 .text.DisplayUpdateHomeAnimation
                0x00005fb0      0xd30 .\CortexM3\ARM_GCC_493\Debug\DisplayBLL.o
                0x00005fb0                DisplayUpdateHomeAnimation
 .text.InitiateUpdateDateTime
                0x00006ce0       0xa8 .\CortexM3\ARM_GCC_493\Debug\DisplayBLL.o
                0x00006ce0                InitiateUpdateDateTime
 .text.TerminateUpdateDateTime
                0x00006d88       0x50 .\CortexM3\ARM_GCC_493\Debug\DisplayBLL.o
                0x00006d88                TerminateUpdateDateTime
 .text.InitiateHomeAnimation
                0x00006dd8       0xa0 .\CortexM3\ARM_GCC_493\Debug\DisplayBLL.o
                0x00006dd8                InitiateHomeAnimation
 .text.DisplayUpdateDateTime
                0x00006e78       0x2c .\CortexM3\ARM_GCC_493\Debug\DisplayBLL.o
                0x00006e78                DisplayUpdateDateTime
 .text.TerminateHomeAnimation
                0x00006ea4       0x50 .\CortexM3\ARM_GCC_493\Debug\DisplayBLL.o
                0x00006ea4                TerminateHomeAnimation
 .text.DisplayGenericValidator
                0x00006ef4      0x270 .\CortexM3\ARM_GCC_493\Debug\DisplayBLL.o
                0x00006ef4                DisplayGenericValidator
 .text.PrintersWorking
                0x00007164       0x64 .\CortexM3\ARM_GCC_493\Debug\DisplayBLL.o
                0x00007164                PrintersWorking
 .text.EitherPrinterWorking
                0x000071c8       0x78 .\CortexM3\ARM_GCC_493\Debug\DisplayBLL.o
                0x000071c8                EitherPrinterWorking
 .text.CastCreditVolumeValue
                0x00007240      0x164 .\CortexM3\ARM_GCC_493\Debug\DisplayBLL.o
                0x00007240                CastCreditVolumeValue
 .text.Display1Logic
                0x000073a4      0x1b4 .\CortexM3\ARM_GCC_493\Debug\DisplayBLL.o
                0x000073a4                Display1Logic
 .text.PrintcopyReceipt
                0x00007558       0xa0 .\CortexM3\ARM_GCC_493\Debug\DisplayBLL.o
                0x00007558                PrintcopyReceipt
 .text.Display2Logic
                0x000075f8      0x1b4 .\CortexM3\ARM_GCC_493\Debug\DisplayBLL.o
                0x000075f8                Display2Logic
 .text.DisplaySinkRegistration
                0x000077ac      0x19c .\CortexM3\ARM_GCC_493\Debug\DisplaySink.o
                0x000077ac                DisplaySinkRegistration
 .text.InitDisplays
                0x00007948       0xd0 .\CortexM3\ARM_GCC_493\Debug\DisplaySink.o
                0x00007948                InitDisplays
 .text.DisplayRaiseTimeoutsAndStateChanges
                0x00007a18      0x300 .\CortexM3\ARM_GCC_493\Debug\DisplaySink.o
                0x00007a18                DisplayRaiseTimeoutsAndStateChanges
 .text.DisplayOutputString
                0x00007d18      0x138 .\CortexM3\ARM_GCC_493\Debug\DisplayUtils.o
                0x00007d18                DisplayOutputString
 .text.ParseDisplayFlow
                0x00007e50       0xa8 .\CortexM3\ARM_GCC_493\Debug\DisplayUtils.o
                0x00007e50                ParseDisplayFlow
 .text.DisplayFlowInputHandler
                0x00007ef8       0x68 .\CortexM3\ARM_GCC_493\Debug\DisplayUtils.o
                0x00007ef8                DisplayFlowInputHandler
 .text.DisplayFlowInputValidator
                0x00007f60       0x68 .\CortexM3\ARM_GCC_493\Debug\DisplayUtils.o
                0x00007f60                DisplayFlowInputValidator
 .text.DisplayInitializer
                0x00007fc8       0x68 .\CortexM3\ARM_GCC_493\Debug\DisplayUtils.o
                0x00007fc8                DisplayInitializer
 .text.DisplayFlowDecorator
                0x00008030       0x68 .\CortexM3\ARM_GCC_493\Debug\DisplayUtils.o
                0x00008030                DisplayFlowDecorator
 .text.DisplayFinalizer
                0x00008098       0x68 .\CortexM3\ARM_GCC_493\Debug\DisplayUtils.o
                0x00008098                DisplayFinalizer
 .text.ParseDisplayStream
                0x00008100       0xac .\CortexM3\ARM_GCC_493\Debug\DisplayUtils.o
                0x00008100                ParseDisplayStream
 .text.GetDisplayFlowNode
                0x000081ac       0xa0 .\CortexM3\ARM_GCC_493\Debug\DisplayUtils.o
                0x000081ac                GetDisplayFlowNode
 .text.PrepareDisplayStructure
                0x0000824c       0x70 .\CortexM3\ARM_GCC_493\Debug\DisplayUtils.o
                0x0000824c                PrepareDisplayStructure
 .text.NonEmptyDataValidator
                0x000082bc       0x2c .\CortexM3\ARM_GCC_493\Debug\DisplayUtils.o
                0x000082bc                NonEmptyDataValidator
 .text.SecureConfigurationValidator
                0x000082e8       0x74 .\CortexM3\ARM_GCC_493\Debug\DisplayUtils.o
                0x000082e8                SecureConfigurationValidator
 .text.SaveNewPassword
                0x0000835c       0x48 .\CortexM3\ARM_GCC_493\Debug\DisplayUtils.o
                0x0000835c                SaveNewPassword
 .text.DisplayIntegerInputHandler
                0x000083a4      0x16c .\CortexM3\ARM_GCC_493\Debug\DisplayUtils.o
                0x000083a4                DisplayIntegerInputHandler
 .text.DisplayMoneyInputHandler
                0x00008510      0x204 .\CortexM3\ARM_GCC_493\Debug\DisplayUtils.o
                0x00008510                DisplayMoneyInputHandler
 .text.DisplayVolumeInputHandler
                0x00008714      0x238 .\CortexM3\ARM_GCC_493\Debug\DisplayUtils.o
                0x00008714                DisplayVolumeInputHandler
 .text.NonEmptyMoneyValidator
                0x0000894c      0x144 .\CortexM3\ARM_GCC_493\Debug\DisplayUtils.o
                0x0000894c                NonEmptyMoneyValidator
 .text.NonEmpty15ModuloValidator
                0x00008a90      0x11c .\CortexM3\ARM_GCC_493\Debug\DisplayUtils.o
                0x00008a90                NonEmpty15ModuloValidator
 .text.ValidatePumpAvailability4Positions
                0x00008bac      0x1a4 .\CortexM3\ARM_GCC_493\Debug\DisplayUtils.o
                0x00008bac                ValidatePumpAvailability4Positions
 .text.ValidatePumpAvailability21Positions
                0x00008d50      0x15c .\CortexM3\ARM_GCC_493\Debug\DisplayUtils.o
                0x00008d50                ValidatePumpAvailability21Positions
 .text.GetPumpsAvailability
                0x00008eac      0x28c .\CortexM3\ARM_GCC_493\Debug\DisplayUtils.o
                0x00008eac                GetPumpsAvailability
 .text.GetPumpsPrintState
                0x00009138       0xe8 .\CortexM3\ARM_GCC_493\Debug\DisplayUtils.o
                0x00009138                GetPumpsPrintState
 .text.DisplayInputHandler
                0x00009220      0x14c .\CortexM3\ARM_GCC_493\Debug\DisplayUtils.o
                0x00009220                DisplayInputHandler
 .text.DisplayIDInputHandler
                0x0000936c      0x164 .\CortexM3\ARM_GCC_493\Debug\DisplayUtils.o
                0x0000936c                DisplayIDInputHandler
 .text.DisplayInputPasswordHandler
                0x000094d0      0x190 .\CortexM3\ARM_GCC_493\Debug\DisplayUtils.o
                0x000094d0                DisplayInputPasswordHandler
 .text.GetDisplayFromPumpID
                0x00009660       0xb0 .\CortexM3\ARM_GCC_493\Debug\DisplayUtils.o
                0x00009660                GetDisplayFromPumpID
 .text.DisplayProductSelectionInputHandler
                0x00009710       0xb4 .\CortexM3\ARM_GCC_493\Debug\DisplayUtils.o
                0x00009710                DisplayProductSelectionInputHandler
 .text.CleanMessageSink
                0x000097c4       0x40 .\CortexM3\ARM_GCC_493\Debug\DisplayUtils.o
                0x000097c4                CleanMessageSink
 .text.SequesterMessageSink
                0x00009804      0x148 .\CortexM3\ARM_GCC_493\Debug\DisplayUtils.o
                0x00009804                SequesterMessageSink
 .text.ReleaseMessageSink
                0x0000994c      0x1a8 .\CortexM3\ARM_GCC_493\Debug\DisplayUtils.o
                0x0000994c                ReleaseMessageSink
 .text.StoreTransactionData
                0x00009af4      0x3d0 .\CortexM3\ARM_GCC_493\Debug\DisplayUtils.o
                0x00009af4                StoreTransactionData
 .text.UnmapCode
                0x00009ec4       0x48 .\CortexM3\ARM_GCC_493\Debug\DisplayCharacterMap.o
                0x00009ec4                UnmapCode
 .text.GetBufferIndexFromDisplayID
                0x00009f0c       0x48 .\CortexM3\ARM_GCC_493\Debug\DisplayBufferScreenMap.o
                0x00009f0c                GetBufferIndexFromDisplayID
 .text.GetBufferLengthFromDisplayID
                0x00009f54       0x48 .\CortexM3\ARM_GCC_493\Debug\DisplayBufferScreenMap.o
                0x00009f54                GetBufferLengthFromDisplayID
 .text.GetPumpIndexFromDisplay
                0x00009f9c       0x78 .\CortexM3\ARM_GCC_493\Debug\DisplayBufferScreenMap.o
                0x00009f9c                GetPumpIndexFromDisplay
 .text.Display1BufferResolver
                0x0000a014       0xf4 .\CortexM3\ARM_GCC_493\Debug\DisplayResolver.o
                0x0000a014                Display1BufferResolver
 .text.Display2BufferResolver
                0x0000a108       0xf4 .\CortexM3\ARM_GCC_493\Debug\DisplayResolver.o
                0x0000a108                Display2BufferResolver
 .text.Dislay1UARTSend
                0x0000a1fc       0x48 .\CortexM3\ARM_GCC_493\Debug\DisplayResolver.o
                0x0000a1fc                Dislay1UARTSend
 .text.PrintLogo
                0x0000a244       0x3c .\CortexM3\ARM_GCC_493\Debug\PrinterBLL.o
                0x0000a244                PrintLogo
 .text.Printer11Callback
                0x0000a280       0x54 .\CortexM3\ARM_GCC_493\Debug\PrinterBLL.o
                0x0000a280                Printer11Callback
 .text.Printer12Callback
                0x0000a2d4       0x54 .\CortexM3\ARM_GCC_493\Debug\PrinterBLL.o
                0x0000a2d4                Printer12Callback
 .text.Printer21Callback
                0x0000a328       0x54 .\CortexM3\ARM_GCC_493\Debug\PrinterBLL.o
                0x0000a328                Printer21Callback
 .text.Printer22Callback
                0x0000a37c       0x54 .\CortexM3\ARM_GCC_493\Debug\PrinterBLL.o
                0x0000a37c                Printer22Callback
 .text.Printer1GenericCallback
                0x0000a3d0       0x1c .\CortexM3\ARM_GCC_493\Debug\PrinterBLL.o
                0x0000a3d0                Printer1GenericCallback
 .text.Printer2GenericCallback
                0x0000a3ec       0x1c .\CortexM3\ARM_GCC_493\Debug\PrinterBLL.o
                0x0000a3ec                Printer2GenericCallback
 .text.MeasurePrinterASCIIBufferLength
                0x0000a408       0x34 .\CortexM3\ARM_GCC_493\Debug\PrinterBLL.o
                0x0000a408                MeasurePrinterASCIIBufferLength
 .text.Printer1GenericCallbacklogo
                0x0000a43c       0x18 .\CortexM3\ARM_GCC_493\Debug\PrinterBLL.o
                0x0000a43c                Printer1GenericCallbacklogo
 .text.Printer2GenericCallbacklogo
                0x0000a454       0x18 .\CortexM3\ARM_GCC_493\Debug\PrinterBLL.o
                0x0000a454                Printer2GenericCallbacklogo
 .text.PadSpacesToCenter
                0x0000a46c       0x24 .\CortexM3\ARM_GCC_493\Debug\PrinterBLL.o
                0x0000a46c                PadSpacesToCenter
 .text.GetProductNameFromPumpAndHose
                0x0000a490      0x3c8 .\CortexM3\ARM_GCC_493\Debug\PrinterBLL.o
                0x0000a490                GetProductNameFromPumpAndHose
 .text.FormatNumberLSDFirst
                0x0000a858      0x140 .\CortexM3\ARM_GCC_493\Debug\PrinterBLL.o
                0x0000a858                FormatNumberLSDFirst
 .text.Print    0x0000a998     0x11a0 .\CortexM3\ARM_GCC_493\Debug\PrinterBLL.o
                0x0000a998                Print
 .text.PrintGeneric
                0x0000bb38       0x44 .\CortexM3\ARM_GCC_493\Debug\PrinterBLL.o
                0x0000bb38                PrintGeneric
 .text.PrinterSinkRegistration
                0x0000bb7c      0x148 .\CortexM3\ARM_GCC_493\Debug\PrinterSink.o
                0x0000bb7c                PrinterSinkRegistration
 .text.PrinterUARTSend
                0x0000bcc4       0x14 .\CortexM3\ARM_GCC_493\Debug\PrinterResolver.o
                0x0000bcc4                PrinterUARTSend
 .text.GetPrinterTemplateLine
                0x0000bcd8       0x48 .\CortexM3\ARM_GCC_493\Debug\PrinterTemplate.o
                0x0000bcd8                GetPrinterTemplateLine
 .text.GetPrinterVolumeTemplateTag
                0x0000bd20       0x48 .\CortexM3\ARM_GCC_493\Debug\PrinterTemplate.o
                0x0000bd20                GetPrinterVolumeTemplateTag
 .text.GetPrinterPriceTemplateTag
                0x0000bd68       0x34 .\CortexM3\ARM_GCC_493\Debug\PrinterTemplate.o
                0x0000bd68                GetPrinterPriceTemplateTag
 .text.iButtonSinkRegistration
                0x0000bd9c       0x5c .\CortexM3\ARM_GCC_493\Debug\iButtonSink.o
                0x0000bd9c                iButtonSinkRegistration
 .text.iButton1Scan
                0x0000bdf8       0xb4 .\CortexM3\ARM_GCC_493\Debug\iButtonBLL.o
                0x0000bdf8                iButton1Scan
 .text.iButton2Scan
                0x0000beac       0xa8 .\CortexM3\ARM_GCC_493\Debug\iButtonBLL.o
                0x0000beac                iButton2Scan
 .text.iButtonResetPresenceSequence
                0x0000bf54       0x84 .\CortexM3\ARM_GCC_493\Debug\iButtonProtocol.o
                0x0000bf54                iButtonResetPresenceSequence
 .text.iButtonRead
                0x0000bfd8       0xbc .\CortexM3\ARM_GCC_493\Debug\iButtonProtocol.o
                0x0000bfd8                iButtonRead
 .text.iButtonWrite
                0x0000c094       0xc4 .\CortexM3\ARM_GCC_493\Debug\iButtonProtocol.o
                0x0000c094                iButtonWrite
 .text.InitProtocol
                0x0000c158      0x32c .\CortexM3\ARM_GCC_493\Debug\Prime.o
                0x0000c158                InitProtocol
 .text.PumpIsInValidState
                0x0000c484       0x38 .\CortexM3\ARM_GCC_493\Debug\Prime.o
                0x0000c484                PumpIsInValidState
 .text.PumpJobQueueClear
                0x0000c4bc       0x8c .\CortexM3\ARM_GCC_493\Debug\Prime.o
                0x0000c4bc                PumpJobQueueClear
 .text.PumpJobAllocate
                0x0000c548      0x144 .\CortexM3\ARM_GCC_493\Debug\Prime.o
                0x0000c548                PumpJobAllocate
 .text.PumpJobEnqueue
                0x0000c68c       0x5c .\CortexM3\ARM_GCC_493\Debug\Prime.o
                0x0000c68c                PumpJobEnqueue
 .text.PumpJobQueuePeek
                0x0000c6e8       0x30 .\CortexM3\ARM_GCC_493\Debug\Prime.o
                0x0000c6e8                PumpJobQueuePeek
 .text.PumpJobDequeue
                0x0000c718       0xb8 .\CortexM3\ARM_GCC_493\Debug\Prime.o
                0x0000c718                PumpJobDequeue
 .text.PumpJobRotate
                0x0000c7d0       0x78 .\CortexM3\ARM_GCC_493\Debug\Prime.o
                0x0000c7d0                PumpJobRotate
 .text.PumpTransactionalStateDequeue
                0x0000c848       0x60 .\CortexM3\ARM_GCC_493\Debug\Prime.o
                0x0000c848                PumpTransactionalStateDequeue
 .text.PumpTransactionalStateEnqueue
                0x0000c8a8       0x1c .\CortexM3\ARM_GCC_493\Debug\Prime.o
                0x0000c8a8                PumpTransactionalStateEnqueue
 .text.PumpTransactionalStateDeallocate
                0x0000c8c4       0x94 .\CortexM3\ARM_GCC_493\Debug\Prime.o
                0x0000c8c4                PumpTransactionalStateDeallocate
 .text.PumpTransactionalStateFind
                0x0000c958       0x54 .\CortexM3\ARM_GCC_493\Debug\Prime.o
                0x0000c958                PumpTransactionalStateFind
 .text.PumpTransactionalStateAllocate
                0x0000c9ac       0x94 .\CortexM3\ARM_GCC_493\Debug\Prime.o
                0x0000c9ac                PumpTransactionalStateAllocate
 .text.PumpTransactionalStateLock
                0x0000ca40       0x70 .\CortexM3\ARM_GCC_493\Debug\Prime.o
                0x0000ca40                PumpTransactionalStateLock
 .text.PumpTransactionalStateUnlock
                0x0000cab0       0x20 .\CortexM3\ARM_GCC_493\Debug\Prime.o
                0x0000cab0                PumpTransactionalStateUnlock
 .text.PumpCleanUp
                0x0000cad0       0xb4 .\CortexM3\ARM_GCC_493\Debug\Prime.o
                0x0000cad0                PumpCleanUp
 .text.GetTransactionByName
                0x0000cb84       0x48 .\CortexM3\ARM_GCC_493\Debug\PrimeFlow.o
                0x0000cb84                GetTransactionByName
 .text.AcquirePumpStateResponse
                0x0000cbcc       0xac .\CortexM3\ARM_GCC_493\Debug\PrimeImpl.o
                0x0000cbcc                AcquirePumpStateResponse
 .text.AcquireDatatoPumpResponse
                0x0000cc78       0x48 .\CortexM3\ARM_GCC_493\Debug\PrimeImpl.o
                0x0000cc78                AcquireDatatoPumpResponse
 .text.ProcessPumpRTMoneyRequest
                0x0000ccc0       0xe0 .\CortexM3\ARM_GCC_493\Debug\PrimeImpl.o
                0x0000ccc0                ProcessPumpRTMoneyRequest
 .text.ProcessPumpRTHoseVolumeRequest
                0x0000cda0       0xf4 .\CortexM3\ARM_GCC_493\Debug\PrimeImpl.o
                0x0000cda0                ProcessPumpRTHoseVolumeRequest
 .text.ProcessPumpTransactionData
                0x0000ce94      0x8f4 .\CortexM3\ARM_GCC_493\Debug\PrimeImpl.o
                0x0000ce94                ProcessPumpTransactionData
 .text.ProcessPumpTotalsDataReport
                0x0000d788      0x1a0 .\CortexM3\ARM_GCC_493\Debug\PrimeImpl.o
                0x0000d788                ProcessPumpTotalsDataReport
 .text.PumpJobTimeout
                0x0000d928       0x38 .\CortexM3\ARM_GCC_493\Debug\PrimeImpl.o
                0x0000d928                PumpJobTimeout
 .text.PumpStateJobTimeout
                0x0000d960       0x38 .\CortexM3\ARM_GCC_493\Debug\PrimeImpl.o
                0x0000d960                PumpStateJobTimeout
 .text.PumpAuthorization
                0x0000d998       0x84 .\CortexM3\ARM_GCC_493\Debug\PrimeImpl.o
                0x0000d998                PumpAuthorization
 .text.PumpStartupAuthorization
                0x0000da1c       0x70 .\CortexM3\ARM_GCC_493\Debug\PrimeImpl.o
                0x0000da1c                PumpStartupAuthorization
 .text.PumpStateRequest
                0x0000da8c       0x60 .\CortexM3\ARM_GCC_493\Debug\PrimeImpl.o
                0x0000da8c                PumpStateRequest
 .text.PumpRTMoneyRequest
                0x0000daec       0x6c .\CortexM3\ARM_GCC_493\Debug\PrimeImpl.o
                0x0000daec                PumpRTMoneyRequest
 .text.PumpRTHoseVolumeRequest
                0x0000db58       0x6c .\CortexM3\ARM_GCC_493\Debug\PrimeImpl.o
                0x0000db58                PumpRTHoseVolumeRequest
 .text.PumpTransactionDataRequest
                0x0000dbc4       0x6c .\CortexM3\ARM_GCC_493\Debug\PrimeImpl.o
                0x0000dbc4                PumpTransactionDataRequest
 .text.PumpTotalsDataRequest
                0x0000dc30       0x6c .\CortexM3\ARM_GCC_493\Debug\PrimeImpl.o
                0x0000dc30                PumpTotalsDataRequest
 .text.PumpDataToPump
                0x0000dc9c       0x6c .\CortexM3\ARM_GCC_493\Debug\PrimeImpl.o
                0x0000dc9c                PumpDataToPump
 .text.PumpPresetHose
                0x0000dd08      0x14c .\CortexM3\ARM_GCC_493\Debug\PrimeImpl.o
                0x0000dd08                PumpPresetHose
 .text.PumpCreditPresetHose
                0x0000de54      0x160 .\CortexM3\ARM_GCC_493\Debug\PrimeImpl.o
                0x0000de54                PumpCreditPresetHose
 .text.PumpPresetNotification
                0x0000dfb4      0x1b8 .\CortexM3\ARM_GCC_493\Debug\PrimeImpl.o
                0x0000dfb4                PumpPresetNotification
 .text.PumpCreditPresetNotification
                0x0000e16c       0xe8 .\CortexM3\ARM_GCC_493\Debug\PrimeImpl.o
                0x0000e16c                PumpCreditPresetNotification
 .text.PumpFullPresetHose
                0x0000e254      0x178 .\CortexM3\ARM_GCC_493\Debug\PrimeImpl.o
                0x0000e254                PumpFullPresetHose
 .text.PumpPpuChange
                0x0000e3cc      0x260 .\CortexM3\ARM_GCC_493\Debug\PrimeImpl.o
                0x0000e3cc                PumpPpuChange
 .text.PumpDefault2CreditPpuChange
                0x0000e62c      0x154 .\CortexM3\ARM_GCC_493\Debug\PrimeImpl.o
                0x0000e62c                PumpDefault2CreditPpuChange
 .text.PumpCredit2DefaultPpuChange
                0x0000e780      0x1e4 .\CortexM3\ARM_GCC_493\Debug\PrimeImpl.o
                0x0000e780                PumpCredit2DefaultPpuChange
 .text.PumpStopRequest
                0x0000e964       0x6c .\CortexM3\ARM_GCC_493\Debug\PrimeImpl.o
                0x0000e964                PumpStopRequest
 .text.PumpStopAllRequest
                0x0000e9d0       0x60 .\CortexM3\ARM_GCC_493\Debug\PrimeImpl.o
                0x0000e9d0                PumpStopAllRequest
 .text.PumpCompleteConfiguration
                0x0000ea30       0xe8 .\CortexM3\ARM_GCC_493\Debug\PrimeImpl.o
                0x0000ea30                PumpCompleteConfiguration
 .text.PumpHoseActiveState
                0x0000eb18       0xec .\CortexM3\ARM_GCC_493\Debug\PrimeImpl.o
                0x0000eb18                PumpHoseActiveState
 .text.AcquirePumpHoseActiveState
                0x0000ec04      0x1a0 .\CortexM3\ARM_GCC_493\Debug\PrimeImpl.o
                0x0000ec04                AcquirePumpHoseActiveState
 .text.AcquirePumpCompleteConfiguration
                0x0000eda4     0x1038 .\CortexM3\ARM_GCC_493\Debug\PrimeImpl.o
                0x0000eda4                AcquirePumpCompleteConfiguration
 .text.AcquireDispenserLayoutInformation
                0x0000fddc      0x1e4 .\CortexM3\ARM_GCC_493\Debug\PrimeImpl.o
                0x0000fddc                AcquireDispenserLayoutInformation
 .text.AcquirePumpSpecialFunctionResponseResolver
                0x0000ffc0      0x124 .\CortexM3\ARM_GCC_493\Debug\PrimeImpl.o
                0x0000ffc0                AcquirePumpSpecialFunctionResponseResolver
 .text.PumpEnumeratorRequest
                0x000100e4       0x60 .\CortexM3\ARM_GCC_493\Debug\PrimeImpl.o
                0x000100e4                PumpEnumeratorRequest
 .text.AcquirePumpEnumeratorResponse
                0x00010144      0x240 .\CortexM3\ARM_GCC_493\Debug\PrimeImpl.o
                0x00010144                AcquirePumpEnumeratorResponse
 .text.PumpEnumeratorTimeout
                0x00010384       0x6c .\CortexM3\ARM_GCC_493\Debug\PrimeImpl.o
                0x00010384                PumpEnumeratorTimeout
 .text.AcquirePumpTotalsResponseResolver
                0x000103f0       0xb8 .\CortexM3\ARM_GCC_493\Debug\PrimeImpl.o
                0x000103f0                AcquirePumpTotalsResponseResolver
 .text.PrimeActivateProgramming
                0x000104a8       0xac .\CortexM3\ARM_GCC_493\Debug\PrimeImpl.o
                0x000104a8                PrimeActivateProgramming
 .text.GetLRC   0x00010554       0x60 .\CortexM3\ARM_GCC_493\Debug\PrimeImpl.o
                0x00010554                GetLRC
 .text.InitiateTransaction
                0x000105b4       0x2c .\CortexM3\ARM_GCC_493\Debug\PrimeImpl.o
                0x000105b4                InitiateTransaction
 .text.TerminateTransaction
                0x000105e0       0x2c .\CortexM3\ARM_GCC_493\Debug\PrimeImpl.o
                0x000105e0                TerminateTransaction
 .text.TerminateTransactionAndPrint
                0x0001060c      0x208 .\CortexM3\ARM_GCC_493\Debug\PrimeImpl.o
                0x0001060c                TerminateTransactionAndPrint
 .text.CastVolumeValue
                0x00010814      0x164 .\CortexM3\ARM_GCC_493\Debug\PrimeImpl.o
                0x00010814                CastVolumeValue
 .text.CastMoneyValue
                0x00010978      0x164 .\CortexM3\ARM_GCC_493\Debug\PrimeImpl.o
                0x00010978                CastMoneyValue
 .text.TranslateSpecialFuncionDigit
                0x00010adc       0x48 .\CortexM3\ARM_GCC_493\Debug\PrimeImpl.o
                0x00010adc                TranslateSpecialFuncionDigit
 .text.RFSinkRegistration
                0x00010b24       0xdc .\CortexM3\ARM_GCC_493\Debug\RFSink.o
                0x00010b24                RFSinkRegistration
 .text.RFServerAutonomousMonitor
                0x00010c00       0x64 .\CortexM3\ARM_GCC_493\Debug\RFSink.o
                0x00010c00                RFServerAutonomousMonitor
 .text.RFServerRequestHandler
                0x00010c64       0x68 .\CortexM3\ARM_GCC_493\Debug\RFBLL.o
                0x00010c64                RFServerRequestHandler
 .text.RFErrorHandler
                0x00010ccc       0x14 .\CortexM3\ARM_GCC_493\Debug\RFBLL.o
                0x00010ccc                RFErrorHandler
 .text.GetRFRequestResolver
                0x00010ce0       0x58 .\CortexM3\ARM_GCC_493\Debug\RFBLL.o
                0x00010ce0                GetRFRequestResolver
 .text.RFUARTBufferResolver
                0x00010d38      0x1f8 .\CortexM3\ARM_GCC_493\Debug\RFResolver.o
                0x00010d38                RFUARTBufferResolver
 .text.RFUARTSend
                0x00010f30       0x4c .\CortexM3\ARM_GCC_493\Debug\RFResolver.o
                0x00010f30                RFUARTSend
 .text.RFGetPayloadLengthFromRequestCode
                0x00010f7c       0x48 .\CortexM3\ARM_GCC_493\Debug\RFServerStack.o
                0x00010f7c                RFGetPayloadLengthFromRequestCode
 .text.RFGetDynamicPayloadLengthFromRequestCode
                0x00010fc4       0x48 .\CortexM3\ARM_GCC_493\Debug\RFServerStack.o
                0x00010fc4                RFGetDynamicPayloadLengthFromRequestCode
 .text.RFGetCRC
                0x0001100c       0x6c .\CortexM3\ARM_GCC_493\Debug\RFServerStack.o
                0x0001100c                RFGetCRC
 .text.RFUnmapCommand2State
                0x00011078       0x48 .\CortexM3\ARM_GCC_493\Debug\RFServerStack.o
                0x00011078                RFUnmapCommand2State
 .text.RFStateReqResp
                0x000110c0      0x3d8 .\CortexM3\ARM_GCC_493\Debug\RFServerStackImpl.o
                0x000110c0                RFStateReqResp
 .text.RFCreditSerialAuthReqResp
                0x00011498      0x26c .\CortexM3\ARM_GCC_493\Debug\RFServerStackImpl.o
                0x00011498                RFCreditSerialAuthReqResp
 .text.RFCreditAuthorizationReqResp
                0x00011704      0x408 .\CortexM3\ARM_GCC_493\Debug\RFServerStackImpl.o
                0x00011704                RFCreditAuthorizationReqResp
 .text.RFCreditSalePresetReportReqResp
                0x00011b0c      0x1f4 .\CortexM3\ARM_GCC_493\Debug\RFServerStackImpl.o
                0x00011b0c                RFCreditSalePresetReportReqResp
 .text.RFCashSalePresetReportReqResp
                0x00011d00      0x438 .\CortexM3\ARM_GCC_493\Debug\RFServerStackImpl.o
                0x00011d00                RFCashSalePresetReportReqResp
 .text.RFCashCreditSaleFinalReportReqResp
                0x00012138      0x558 .\CortexM3\ARM_GCC_493\Debug\RFServerStackImpl.o
                0x00012138                RFCashCreditSaleFinalReportReqResp
 .text.RFTotalsDataReqResp
                0x00012690      0x284 .\CortexM3\ARM_GCC_493\Debug\RFServerStackImpl.o
                0x00012690                RFTotalsDataReqResp
 .text.RFTotalsDataReportReqResp
                0x00012914      0xedc .\CortexM3\ARM_GCC_493\Debug\RFServerStackImpl.o
                0x00012914                RFTotalsDataReportReqResp
 .text.RFPriceChangeReqResp
                0x000137f0      0x370 .\CortexM3\ARM_GCC_493\Debug\RFServerStackImpl.o
                0x000137f0                RFPriceChangeReqResp
 .text.RFGeneralPrintReqResp
                0x00013b60      0x30c .\CortexM3\ARM_GCC_493\Debug\RFServerStackImpl.o
                0x00013b60                RFGeneralPrintReqResp
 .text.RFCreditSalePrintReqResp
                0x00013e6c      0x458 .\CortexM3\ARM_GCC_493\Debug\RFServerStackImpl.o
                0x00013e6c                RFCreditSalePrintReqResp
 .text.RFCashSalePrintReqResp
                0x000142c4      0x2fc .\CortexM3\ARM_GCC_493\Debug\RFServerStackImpl.o
                0x000142c4                RFCashSalePrintReqResp
 .text.RFPendingCreditSaleReqResp
                0x000145c0     0x12d4 .\CortexM3\ARM_GCC_493\Debug\RFServerStackImpl.o
                0x000145c0                RFPendingCreditSaleReqResp
 .text.RFPendingCashSaleReqResp
                0x00015894     0x1054 .\CortexM3\ARM_GCC_493\Debug\RFServerStackImpl.o
                0x00015894                RFPendingCashSaleReqResp
 .text.RFBroadcastConfigurationReqResp
                0x000168e8      0x548 .\CortexM3\ARM_GCC_493\Debug\RFServerStackImpl.o
                0x000168e8                RFBroadcastConfigurationReqResp
 .text.RFPositionConfigurationReqResp
                0x00016e30      0x38c .\CortexM3\ARM_GCC_493\Debug\RFServerStackImpl.o
                0x00016e30                RFPositionConfigurationReqResp
 .text.RFIslandOperDataReqResp
                0x000171bc      0x2c0 .\CortexM3\ARM_GCC_493\Debug\RFServerStackImpl.o
                0x000171bc                RFIslandOperDataReqResp
 .text.RFIslandAdminReqResp
                0x0001747c      0x350 .\CortexM3\ARM_GCC_493\Debug\RFServerStackImpl.o
                0x0001747c                RFIslandAdminReqResp
 .text.GeneralPrintRequestPayloadSizeResolver
                0x000177cc       0x20 .\CortexM3\ARM_GCC_493\Debug\RFServerStackImpl.o
                0x000177cc                GeneralPrintRequestPayloadSizeResolver
 .text.RFCopyPrintReqResp
                0x000177ec      0x2e0 .\CortexM3\ARM_GCC_493\Debug\RFServerStackImpl.o
                0x000177ec                RFCopyPrintReqResp
 .text.main     0x00017acc       0x28 .\CortexM3\ARM_GCC_493\Debug\main.o
                0x00017acc                main
 .text.IntDefaultHandler
                0x00017af4        0x8 .\CortexM3\ARM_GCC_493\Debug\Cm3Start.o
                0x00017af4                IntDefaultHandler
 .text._sbrk    0x00017afc       0x50 .\CortexM3\ARM_GCC_493\Debug\Cm3Start.o
                0x00017afc                _sbrk
 .text.Start_c  0x00017b4c       0x98 .\CortexM3\ARM_GCC_493\Debug\Cm3Start.o
                0x00017b4c                Start_c
 .text.initialize_psoc
                0x00017be4       0x8c .\CortexM3\ARM_GCC_493\Debug\Cm3Start.o
                0x00017be4                initialize_psoc
 .text.CYMEMZERO
                0x00017c70       0x1c .\CortexM3\ARM_GCC_493\Debug\CorEx-Mux-Kernel.a(cyfitter_cfg.o)
 .text.CYCONFIGCPY
                0x00017c8c       0x1c .\CortexM3\ARM_GCC_493\Debug\CorEx-Mux-Kernel.a(cyfitter_cfg.o)
 .text.CyClockStartupError
                0x00017ca8        0xc .\CortexM3\ARM_GCC_493\Debug\CorEx-Mux-Kernel.a(cyfitter_cfg.o)
 .text.cfg_write_bytes32
                0x00017cb4       0x74 .\CortexM3\ARM_GCC_493\Debug\CorEx-Mux-Kernel.a(cyfitter_cfg.o)
 .text.ClockSetup
                0x00017d28      0x17c .\CortexM3\ARM_GCC_493\Debug\CorEx-Mux-Kernel.a(cyfitter_cfg.o)
 .text.AnalogSetDefault
                0x00017ea4       0x44 .\CortexM3\ARM_GCC_493\Debug\CorEx-Mux-Kernel.a(cyfitter_cfg.o)
 .text.cyfitter_cfg
                0x00017ee8      0x190 .\CortexM3\ARM_GCC_493\Debug\CorEx-Mux-Kernel.a(cyfitter_cfg.o)
                0x00017ee8                cyfitter_cfg
 .text.RF_Physical_Start
                0x00018078       0x20 .\CortexM3\ARM_GCC_493\Debug\CorEx-Mux-Kernel.a(RF_Physical.o)
                0x00018078                RF_Physical_Start
 .text.RF_Physical_Init
                0x00018098       0x58 .\CortexM3\ARM_GCC_493\Debug\CorEx-Mux-Kernel.a(RF_Physical.o)
                0x00018098                RF_Physical_Init
 .text.RF_Physical_Enable
                0x000180f0       0x68 .\CortexM3\ARM_GCC_493\Debug\CorEx-Mux-Kernel.a(RF_Physical.o)
                0x000180f0                RF_Physical_Enable
 .text.RF_Physical_Stop
                0x00018158       0x68 .\CortexM3\ARM_GCC_493\Debug\CorEx-Mux-Kernel.a(RF_Physical.o)
                0x00018158                RF_Physical_Stop
 .text.RF_Physical_ReadControlRegister
                0x000181c0       0x10 .\CortexM3\ARM_GCC_493\Debug\CorEx-Mux-Kernel.a(RF_Physical.o)
                0x000181c0                RF_Physical_ReadControlRegister
 .text.RF_Physical_WriteControlRegister
                0x000181d0       0x14 .\CortexM3\ARM_GCC_493\Debug\CorEx-Mux-Kernel.a(RF_Physical.o)
                0x000181d0                RF_Physical_WriteControlRegister
 .text.RF_Physical_ReadRxData
                0x000181e4       0x94 .\CortexM3\ARM_GCC_493\Debug\CorEx-Mux-Kernel.a(RF_Physical.o)
                0x000181e4                RF_Physical_ReadRxData
 .text.RF_Physical_ReadRxStatus
                0x00018278       0x40 .\CortexM3\ARM_GCC_493\Debug\CorEx-Mux-Kernel.a(RF_Physical.o)
                0x00018278                RF_Physical_ReadRxStatus
 .text.RF_Physical_GetChar
                0x000182b8       0xbc .\CortexM3\ARM_GCC_493\Debug\CorEx-Mux-Kernel.a(RF_Physical.o)
                0x000182b8                RF_Physical_GetChar
 .text.RF_Physical_GetByte
                0x00018374       0x44 .\CortexM3\ARM_GCC_493\Debug\CorEx-Mux-Kernel.a(RF_Physical.o)
                0x00018374                RF_Physical_GetByte
 .text.RF_Physical_GetRxBufferSize
                0x000183b8       0x94 .\CortexM3\ARM_GCC_493\Debug\CorEx-Mux-Kernel.a(RF_Physical.o)
                0x000183b8                RF_Physical_GetRxBufferSize
 .text.RF_Physical_ClearRxBuffer
                0x0001844c       0x7c .\CortexM3\ARM_GCC_493\Debug\CorEx-Mux-Kernel.a(RF_Physical.o)
                0x0001844c                RF_Physical_ClearRxBuffer
 .text.RF_Physical_WriteTxData
                0x000184c8       0x2c .\CortexM3\ARM_GCC_493\Debug\CorEx-Mux-Kernel.a(RF_Physical.o)
                0x000184c8                RF_Physical_WriteTxData
 .text.RF_Physical_ReadTxStatus
                0x000184f4       0x18 .\CortexM3\ARM_GCC_493\Debug\CorEx-Mux-Kernel.a(RF_Physical.o)
                0x000184f4                RF_Physical_ReadTxStatus
 .text.RF_Physical_PutChar
                0x0001850c       0x34 .\CortexM3\ARM_GCC_493\Debug\CorEx-Mux-Kernel.a(RF_Physical.o)
                0x0001850c                RF_Physical_PutChar
 .text.RF_Physical_PutString
                0x00018540       0x40 .\CortexM3\ARM_GCC_493\Debug\CorEx-Mux-Kernel.a(RF_Physical.o)
                0x00018540                RF_Physical_PutString
 .text.RF_Physical_PutArray
                0x00018580       0x40 .\CortexM3\ARM_GCC_493\Debug\CorEx-Mux-Kernel.a(RF_Physical.o)
                0x00018580                RF_Physical_PutArray
 .text.RF_Physical_PutCRLF
                0x000185c0       0x30 .\CortexM3\ARM_GCC_493\Debug\CorEx-Mux-Kernel.a(RF_Physical.o)
                0x000185c0                RF_Physical_PutCRLF
 .text.RF_Physical_ClearTxBuffer
                0x000185f0       0x40 .\CortexM3\ARM_GCC_493\Debug\CorEx-Mux-Kernel.a(RF_Physical.o)
                0x000185f0                RF_Physical_ClearTxBuffer
 .text.RF_Physical_RXISR
                0x00018630       0xf0 .\CortexM3\ARM_GCC_493\Debug\CorEx-Mux-Kernel.a(RF_Physical_INT.o)
                0x00018630                RF_Physical_RXISR
 .text.RF_Physical_IntClock_Start
                0x00018720       0x34 .\CortexM3\ARM_GCC_493\Debug\CorEx-Mux-Kernel.a(RF_Physical_IntClock.o)
                0x00018720                RF_Physical_IntClock_Start
 .text.RF_Physical_IntClock_Stop
                0x00018754       0x34 .\CortexM3\ARM_GCC_493\Debug\CorEx-Mux-Kernel.a(RF_Physical_IntClock.o)
                0x00018754                RF_Physical_IntClock_Stop
 .text          0x00018788       0x20 .\CortexM3\ARM_GCC_493\Debug\CorEx-Mux-Kernel.a(CyBootAsmGnu.o)
                0x00018788                CyDelayCycles
                0x00018798                CyEnterCriticalSection
                0x000187a0                CyExitCriticalSection
 .text.CyHalt   0x000187a8       0x18 .\CortexM3\ARM_GCC_493\Debug\CorEx-Mux-Kernel.a(CyLib.o)
                0x000187a8                CyHalt
 .text.CyDelay  0x000187c0       0x44 .\CortexM3\ARM_GCC_493\Debug\CorEx-Mux-Kernel.a(CyLib.o)
                0x000187c0                CyDelay
 .text.CyDelayUs
                0x00018804       0x24 .\CortexM3\ARM_GCC_493\Debug\CorEx-Mux-Kernel.a(CyLib.o)
                0x00018804                CyDelayUs
 .text.CyDelayFreq
                0x00018828       0x7c .\CortexM3\ARM_GCC_493\Debug\CorEx-Mux-Kernel.a(CyLib.o)
                0x00018828                CyDelayFreq
 .text.CyWdtStart
                0x000188a4       0x8c .\CortexM3\ARM_GCC_493\Debug\CorEx-Mux-Kernel.a(CyLib.o)
                0x000188a4                CyWdtStart
 .text.CyWdtClear
                0x00018930       0x18 .\CortexM3\ARM_GCC_493\Debug\CorEx-Mux-Kernel.a(CyLib.o)
                0x00018930                CyWdtClear
 .text.CyIntSetVector
                0x00018948       0x50 .\CortexM3\ARM_GCC_493\Debug\CorEx-Mux-Kernel.a(CyLib.o)
                0x00018948                CyIntSetVector
 .text.CyIntSetPriority
                0x00018998       0x44 .\CortexM3\ARM_GCC_493\Debug\CorEx-Mux-Kernel.a(CyLib.o)
                0x00018998                CyIntSetPriority
 .text.Printer_Start
                0x000189dc       0x20 .\CortexM3\ARM_GCC_493\Debug\CorEx-Mux-Kernel.a(Printer.o)
                0x000189dc                Printer_Start
 .text.Printer_Init
                0x000189fc       0x40 .\CortexM3\ARM_GCC_493\Debug\CorEx-Mux-Kernel.a(Printer.o)
                0x000189fc                Printer_Init
 .text.Printer_Enable
                0x00018a3c       0x58 .\CortexM3\ARM_GCC_493\Debug\CorEx-Mux-Kernel.a(Printer.o)
                0x00018a3c                Printer_Enable
 .text.Printer_Stop
                0x00018a94       0x58 .\CortexM3\ARM_GCC_493\Debug\CorEx-Mux-Kernel.a(Printer.o)
                0x00018a94                Printer_Stop
 .text.Printer_ReadControlRegister
                0x00018aec       0x10 .\CortexM3\ARM_GCC_493\Debug\CorEx-Mux-Kernel.a(Printer.o)
                0x00018aec                Printer_ReadControlRegister
 .text.Printer_WriteControlRegister
                0x00018afc       0x14 .\CortexM3\ARM_GCC_493\Debug\CorEx-Mux-Kernel.a(Printer.o)
                0x00018afc                Printer_WriteControlRegister
 .text.Printer_ReadRxData
                0x00018b10       0x20 .\CortexM3\ARM_GCC_493\Debug\CorEx-Mux-Kernel.a(Printer.o)
                0x00018b10                Printer_ReadRxData
 .text.Printer_ReadRxStatus
                0x00018b30       0x24 .\CortexM3\ARM_GCC_493\Debug\CorEx-Mux-Kernel.a(Printer.o)
                0x00018b30                Printer_ReadRxStatus
 .text.Printer_GetChar
                0x00018b54       0x44 .\CortexM3\ARM_GCC_493\Debug\CorEx-Mux-Kernel.a(Printer.o)
                0x00018b54                Printer_GetChar
 .text.Printer_GetByte
                0x00018b98       0x24 .\CortexM3\ARM_GCC_493\Debug\CorEx-Mux-Kernel.a(Printer.o)
                0x00018b98                Printer_GetByte
 .text.Printer_GetRxBufferSize
                0x00018bbc       0x30 .\CortexM3\ARM_GCC_493\Debug\CorEx-Mux-Kernel.a(Printer.o)
                0x00018bbc                Printer_GetRxBufferSize
 .text.Printer_ClearRxBuffer
                0x00018bec       0x40 .\CortexM3\ARM_GCC_493\Debug\CorEx-Mux-Kernel.a(Printer.o)
                0x00018bec                Printer_ClearRxBuffer
 .text.Printer_WriteTxData
                0x00018c2c       0x2c .\CortexM3\ARM_GCC_493\Debug\CorEx-Mux-Kernel.a(Printer.o)
                0x00018c2c                Printer_WriteTxData
 .text.Printer_ReadTxStatus
                0x00018c58       0x18 .\CortexM3\ARM_GCC_493\Debug\CorEx-Mux-Kernel.a(Printer.o)
                0x00018c58                Printer_ReadTxStatus
 .text.Printer_PutChar
                0x00018c70       0x34 .\CortexM3\ARM_GCC_493\Debug\CorEx-Mux-Kernel.a(Printer.o)
                0x00018c70                Printer_PutChar
 .text.Printer_PutString
                0x00018ca4       0x40 .\CortexM3\ARM_GCC_493\Debug\CorEx-Mux-Kernel.a(Printer.o)
                0x00018ca4                Printer_PutString
 .text.Printer_PutArray
                0x00018ce4       0x40 .\CortexM3\ARM_GCC_493\Debug\CorEx-Mux-Kernel.a(Printer.o)
                0x00018ce4                Printer_PutArray
 .text.Printer_PutCRLF
                0x00018d24       0x30 .\CortexM3\ARM_GCC_493\Debug\CorEx-Mux-Kernel.a(Printer.o)
                0x00018d24                Printer_PutCRLF
 .text.Printer_ClearTxBuffer
                0x00018d54       0x40 .\CortexM3\ARM_GCC_493\Debug\CorEx-Mux-Kernel.a(Printer.o)
                0x00018d54                Printer_ClearTxBuffer
 .text.Dispenser_Start
                0x00018d94       0x20 .\CortexM3\ARM_GCC_493\Debug\CorEx-Mux-Kernel.a(Dispenser.o)
                0x00018d94                Dispenser_Start
 .text.Dispenser_Init
                0x00018db4       0x58 .\CortexM3\ARM_GCC_493\Debug\CorEx-Mux-Kernel.a(Dispenser.o)
                0x00018db4                Dispenser_Init
 .text.Dispenser_Enable
                0x00018e0c       0x64 .\CortexM3\ARM_GCC_493\Debug\CorEx-Mux-Kernel.a(Dispenser.o)
                0x00018e0c                Dispenser_Enable
 .text.Dispenser_Stop
                0x00018e70       0x64 .\CortexM3\ARM_GCC_493\Debug\CorEx-Mux-Kernel.a(Dispenser.o)
                0x00018e70                Dispenser_Stop
 .text.Dispenser_ReadControlRegister
                0x00018ed4       0x10 .\CortexM3\ARM_GCC_493\Debug\CorEx-Mux-Kernel.a(Dispenser.o)
                0x00018ed4                Dispenser_ReadControlRegister
 .text.Dispenser_WriteControlRegister
                0x00018ee4       0x14 .\CortexM3\ARM_GCC_493\Debug\CorEx-Mux-Kernel.a(Dispenser.o)
                0x00018ee4                Dispenser_WriteControlRegister
 .text.Dispenser_ReadRxData
                0x00018ef8       0x94 .\CortexM3\ARM_GCC_493\Debug\CorEx-Mux-Kernel.a(Dispenser.o)
                0x00018ef8                Dispenser_ReadRxData
 .text.Dispenser_ReadRxStatus
                0x00018f8c       0x40 .\CortexM3\ARM_GCC_493\Debug\CorEx-Mux-Kernel.a(Dispenser.o)
                0x00018f8c                Dispenser_ReadRxStatus
 .text.Dispenser_GetChar
                0x00018fcc       0xb8 .\CortexM3\ARM_GCC_493\Debug\CorEx-Mux-Kernel.a(Dispenser.o)
                0x00018fcc                Dispenser_GetChar
 .text.Dispenser_GetByte
                0x00019084       0x44 .\CortexM3\ARM_GCC_493\Debug\CorEx-Mux-Kernel.a(Dispenser.o)
                0x00019084                Dispenser_GetByte
 .text.Dispenser_GetRxBufferSize
                0x000190c8       0x94 .\CortexM3\ARM_GCC_493\Debug\CorEx-Mux-Kernel.a(Dispenser.o)
                0x000190c8                Dispenser_GetRxBufferSize
 .text.Dispenser_ClearRxBuffer
                0x0001915c       0x7c .\CortexM3\ARM_GCC_493\Debug\CorEx-Mux-Kernel.a(Dispenser.o)
                0x0001915c                Dispenser_ClearRxBuffer
 .text.Dispenser_WriteTxData
                0x000191d8       0x2c .\CortexM3\ARM_GCC_493\Debug\CorEx-Mux-Kernel.a(Dispenser.o)
                0x000191d8                Dispenser_WriteTxData
 .text.Dispenser_ReadTxStatus
                0x00019204       0x18 .\CortexM3\ARM_GCC_493\Debug\CorEx-Mux-Kernel.a(Dispenser.o)
                0x00019204                Dispenser_ReadTxStatus
 .text.Dispenser_PutChar
                0x0001921c       0x34 .\CortexM3\ARM_GCC_493\Debug\CorEx-Mux-Kernel.a(Dispenser.o)
                0x0001921c                Dispenser_PutChar
 .text.Dispenser_PutString
                0x00019250       0x40 .\CortexM3\ARM_GCC_493\Debug\CorEx-Mux-Kernel.a(Dispenser.o)
                0x00019250                Dispenser_PutString
 .text.Dispenser_PutArray
                0x00019290       0x40 .\CortexM3\ARM_GCC_493\Debug\CorEx-Mux-Kernel.a(Dispenser.o)
                0x00019290                Dispenser_PutArray
 .text.Dispenser_PutCRLF
                0x000192d0       0x30 .\CortexM3\ARM_GCC_493\Debug\CorEx-Mux-Kernel.a(Dispenser.o)
                0x000192d0                Dispenser_PutCRLF
 .text.Dispenser_ClearTxBuffer
                0x00019300       0x40 .\CortexM3\ARM_GCC_493\Debug\CorEx-Mux-Kernel.a(Dispenser.o)
                0x00019300                Dispenser_ClearTxBuffer
 .text.Dispenser_RXISR
                0x00019340       0xec .\CortexM3\ARM_GCC_493\Debug\CorEx-Mux-Kernel.a(Dispenser_INT.o)
                0x00019340                Dispenser_RXISR
 .text.Display1_Start
                0x0001942c       0x20 .\CortexM3\ARM_GCC_493\Debug\CorEx-Mux-Kernel.a(Display1.o)
                0x0001942c                Display1_Start
 .text.Display1_Init
                0x0001944c       0x58 .\CortexM3\ARM_GCC_493\Debug\CorEx-Mux-Kernel.a(Display1.o)
                0x0001944c                Display1_Init
 .text.Display1_Enable
                0x000194a4       0x68 .\CortexM3\ARM_GCC_493\Debug\CorEx-Mux-Kernel.a(Display1.o)
                0x000194a4                Display1_Enable
 .text.Display1_Stop
                0x0001950c       0x68 .\CortexM3\ARM_GCC_493\Debug\CorEx-Mux-Kernel.a(Display1.o)
                0x0001950c                Display1_Stop
 .text.Display1_ReadControlRegister
                0x00019574       0x10 .\CortexM3\ARM_GCC_493\Debug\CorEx-Mux-Kernel.a(Display1.o)
                0x00019574                Display1_ReadControlRegister
 .text.Display1_WriteControlRegister
                0x00019584       0x14 .\CortexM3\ARM_GCC_493\Debug\CorEx-Mux-Kernel.a(Display1.o)
                0x00019584                Display1_WriteControlRegister
 .text.Display1_ReadRxData
                0x00019598       0x94 .\CortexM3\ARM_GCC_493\Debug\CorEx-Mux-Kernel.a(Display1.o)
                0x00019598                Display1_ReadRxData
 .text.Display1_ReadRxStatus
                0x0001962c       0x40 .\CortexM3\ARM_GCC_493\Debug\CorEx-Mux-Kernel.a(Display1.o)
                0x0001962c                Display1_ReadRxStatus
 .text.Display1_GetChar
                0x0001966c       0xb8 .\CortexM3\ARM_GCC_493\Debug\CorEx-Mux-Kernel.a(Display1.o)
                0x0001966c                Display1_GetChar
 .text.Display1_GetByte
                0x00019724       0x44 .\CortexM3\ARM_GCC_493\Debug\CorEx-Mux-Kernel.a(Display1.o)
                0x00019724                Display1_GetByte
 .text.Display1_GetRxBufferSize
                0x00019768       0x90 .\CortexM3\ARM_GCC_493\Debug\CorEx-Mux-Kernel.a(Display1.o)
                0x00019768                Display1_GetRxBufferSize
 .text.Display1_ClearRxBuffer
                0x000197f8       0x7c .\CortexM3\ARM_GCC_493\Debug\CorEx-Mux-Kernel.a(Display1.o)
                0x000197f8                Display1_ClearRxBuffer
 .text.Display1_WriteTxData
                0x00019874       0x2c .\CortexM3\ARM_GCC_493\Debug\CorEx-Mux-Kernel.a(Display1.o)
                0x00019874                Display1_WriteTxData
 .text.Display1_ReadTxStatus
                0x000198a0       0x18 .\CortexM3\ARM_GCC_493\Debug\CorEx-Mux-Kernel.a(Display1.o)
                0x000198a0                Display1_ReadTxStatus
 .text.Display1_PutChar
                0x000198b8       0x34 .\CortexM3\ARM_GCC_493\Debug\CorEx-Mux-Kernel.a(Display1.o)
                0x000198b8                Display1_PutChar
 .text.Display1_PutString
                0x000198ec       0x40 .\CortexM3\ARM_GCC_493\Debug\CorEx-Mux-Kernel.a(Display1.o)
                0x000198ec                Display1_PutString
 .text.Display1_PutArray
                0x0001992c       0x40 .\CortexM3\ARM_GCC_493\Debug\CorEx-Mux-Kernel.a(Display1.o)
                0x0001992c                Display1_PutArray
 .text.Display1_PutCRLF
                0x0001996c       0x30 .\CortexM3\ARM_GCC_493\Debug\CorEx-Mux-Kernel.a(Display1.o)
                0x0001996c                Display1_PutCRLF
 .text.Display1_ClearTxBuffer
                0x0001999c       0x40 .\CortexM3\ARM_GCC_493\Debug\CorEx-Mux-Kernel.a(Display1.o)
                0x0001999c                Display1_ClearTxBuffer
 .text.Display1_RXISR
                0x000199dc       0xf0 .\CortexM3\ARM_GCC_493\Debug\CorEx-Mux-Kernel.a(Display1_INT.o)
                0x000199dc                Display1_RXISR
 .text.Display2_Start
                0x00019acc       0x20 .\CortexM3\ARM_GCC_493\Debug\CorEx-Mux-Kernel.a(Display2.o)
                0x00019acc                Display2_Start
 .text.Display2_Init
                0x00019aec       0x58 .\CortexM3\ARM_GCC_493\Debug\CorEx-Mux-Kernel.a(Display2.o)
                0x00019aec                Display2_Init
 .text.Display2_Enable
                0x00019b44       0x68 .\CortexM3\ARM_GCC_493\Debug\CorEx-Mux-Kernel.a(Display2.o)
                0x00019b44                Display2_Enable
 .text.Display2_Stop
                0x00019bac       0x68 .\CortexM3\ARM_GCC_493\Debug\CorEx-Mux-Kernel.a(Display2.o)
                0x00019bac                Display2_Stop
 .text.Display2_ReadControlRegister
                0x00019c14       0x10 .\CortexM3\ARM_GCC_493\Debug\CorEx-Mux-Kernel.a(Display2.o)
                0x00019c14                Display2_ReadControlRegister
 .text.Display2_WriteControlRegister
                0x00019c24       0x14 .\CortexM3\ARM_GCC_493\Debug\CorEx-Mux-Kernel.a(Display2.o)
                0x00019c24                Display2_WriteControlRegister
 .text.Display2_ReadRxData
                0x00019c38       0x94 .\CortexM3\ARM_GCC_493\Debug\CorEx-Mux-Kernel.a(Display2.o)
                0x00019c38                Display2_ReadRxData
 .text.Display2_ReadRxStatus
                0x00019ccc       0x40 .\CortexM3\ARM_GCC_493\Debug\CorEx-Mux-Kernel.a(Display2.o)
                0x00019ccc                Display2_ReadRxStatus
 .text.Display2_GetChar
                0x00019d0c       0xb8 .\CortexM3\ARM_GCC_493\Debug\CorEx-Mux-Kernel.a(Display2.o)
                0x00019d0c                Display2_GetChar
 .text.Display2_GetByte
                0x00019dc4       0x44 .\CortexM3\ARM_GCC_493\Debug\CorEx-Mux-Kernel.a(Display2.o)
                0x00019dc4                Display2_GetByte
 .text.Display2_GetRxBufferSize
                0x00019e08       0x90 .\CortexM3\ARM_GCC_493\Debug\CorEx-Mux-Kernel.a(Display2.o)
                0x00019e08                Display2_GetRxBufferSize
 .text.Display2_ClearRxBuffer
                0x00019e98       0x7c .\CortexM3\ARM_GCC_493\Debug\CorEx-Mux-Kernel.a(Display2.o)
                0x00019e98                Display2_ClearRxBuffer
 .text.Display2_WriteTxData
                0x00019f14       0x2c .\CortexM3\ARM_GCC_493\Debug\CorEx-Mux-Kernel.a(Display2.o)
                0x00019f14                Display2_WriteTxData
 .text.Display2_ReadTxStatus
                0x00019f40       0x18 .\CortexM3\ARM_GCC_493\Debug\CorEx-Mux-Kernel.a(Display2.o)
                0x00019f40                Display2_ReadTxStatus
 .text.Display2_PutChar
                0x00019f58       0x34 .\CortexM3\ARM_GCC_493\Debug\CorEx-Mux-Kernel.a(Display2.o)
                0x00019f58                Display2_PutChar
 .text.Display2_PutString
                0x00019f8c       0x40 .\CortexM3\ARM_GCC_493\Debug\CorEx-Mux-Kernel.a(Display2.o)
                0x00019f8c                Display2_PutString
 .text.Display2_PutArray
                0x00019fcc       0x40 .\CortexM3\ARM_GCC_493\Debug\CorEx-Mux-Kernel.a(Display2.o)
                0x00019fcc                Display2_PutArray
 .text.Display2_PutCRLF
                0x0001a00c       0x30 .\CortexM3\ARM_GCC_493\Debug\CorEx-Mux-Kernel.a(Display2.o)
                0x0001a00c                Display2_PutCRLF
 .text.Display2_ClearTxBuffer
                0x0001a03c       0x40 .\CortexM3\ARM_GCC_493\Debug\CorEx-Mux-Kernel.a(Display2.o)
                0x0001a03c                Display2_ClearTxBuffer
 .text.Display2_RXISR
                0x0001a07c       0xf0 .\CortexM3\ARM_GCC_493\Debug\CorEx-Mux-Kernel.a(Display2_INT.o)
                0x0001a07c                Display2_RXISR
 .text.Counter_ISR_StartEx
                0x0001a16c       0x24 .\CortexM3\ARM_GCC_493\Debug\CorEx-Mux-Kernel.a(Counter_ISR.o)
                0x0001a16c                Counter_ISR_StartEx
 .text.Counter_ISR_SetVector
                0x0001a190       0x24 .\CortexM3\ARM_GCC_493\Debug\CorEx-Mux-Kernel.a(Counter_ISR.o)
                0x0001a190                Counter_ISR_SetVector
 .text.Counter_ISR_SetPriority
                0x0001a1b4       0x24 .\CortexM3\ARM_GCC_493\Debug\CorEx-Mux-Kernel.a(Counter_ISR.o)
                0x0001a1b4                Counter_ISR_SetPriority
 .text.Counter_ISR_Enable
                0x0001a1d8       0x18 .\CortexM3\ARM_GCC_493\Debug\CorEx-Mux-Kernel.a(Counter_ISR.o)
                0x0001a1d8                Counter_ISR_Enable
 .text.Counter_ISR_Disable
                0x0001a1f0       0x18 .\CortexM3\ARM_GCC_493\Debug\CorEx-Mux-Kernel.a(Counter_ISR.o)
                0x0001a1f0                Counter_ISR_Disable
 .text.Display1_IntClock_Start
                0x0001a208       0x34 .\CortexM3\ARM_GCC_493\Debug\CorEx-Mux-Kernel.a(Display1_IntClock.o)
                0x0001a208                Display1_IntClock_Start
 .text.Display1_IntClock_Stop
                0x0001a23c       0x34 .\CortexM3\ARM_GCC_493\Debug\CorEx-Mux-Kernel.a(Display1_IntClock.o)
                0x0001a23c                Display1_IntClock_Stop
 .text.Display2_IntClock_Start
                0x0001a270       0x34 .\CortexM3\ARM_GCC_493\Debug\CorEx-Mux-Kernel.a(Display2_IntClock.o)
                0x0001a270                Display2_IntClock_Start
 .text.Display2_IntClock_Stop
                0x0001a2a4       0x34 .\CortexM3\ARM_GCC_493\Debug\CorEx-Mux-Kernel.a(Display2_IntClock.o)
                0x0001a2a4                Display2_IntClock_Stop
 .text.I2C_Bus_Init
                0x0001a2d8       0x80 .\CortexM3\ARM_GCC_493\Debug\CorEx-Mux-Kernel.a(I2C_Bus.o)
                0x0001a2d8                I2C_Bus_Init
 .text.I2C_Bus_Enable
                0x0001a358       0x44 .\CortexM3\ARM_GCC_493\Debug\CorEx-Mux-Kernel.a(I2C_Bus.o)
                0x0001a358                I2C_Bus_Enable
 .text.I2C_Bus_Start
                0x0001a39c       0x2c .\CortexM3\ARM_GCC_493\Debug\CorEx-Mux-Kernel.a(I2C_Bus.o)
                0x0001a39c                I2C_Bus_Start
 .text.I2C_Bus_ISR
                0x0001a3c8      0x3ac .\CortexM3\ARM_GCC_493\Debug\CorEx-Mux-Kernel.a(I2C_Bus_INT.o)
                0x0001a3c8                I2C_Bus_ISR
 .text.I2C_Bus_MasterSendStart
                0x0001a774       0xbc .\CortexM3\ARM_GCC_493\Debug\CorEx-Mux-Kernel.a(I2C_Bus_MASTER.o)
                0x0001a774                I2C_Bus_MasterSendStart
 .text.I2C_Bus_MasterSendRestart
                0x0001a830       0xa4 .\CortexM3\ARM_GCC_493\Debug\CorEx-Mux-Kernel.a(I2C_Bus_MASTER.o)
                0x0001a830                I2C_Bus_MasterSendRestart
 .text.I2C_Bus_MasterSendStop
                0x0001a8d4       0x58 .\CortexM3\ARM_GCC_493\Debug\CorEx-Mux-Kernel.a(I2C_Bus_MASTER.o)
                0x0001a8d4                I2C_Bus_MasterSendStop
 .text.I2C_Bus_MasterWriteByte
                0x0001a92c       0x80 .\CortexM3\ARM_GCC_493\Debug\CorEx-Mux-Kernel.a(I2C_Bus_MASTER.o)
                0x0001a92c                I2C_Bus_MasterWriteByte
 .text.I2C_Bus_MasterReadByte
                0x0001a9ac       0x7c .\CortexM3\ARM_GCC_493\Debug\CorEx-Mux-Kernel.a(I2C_Bus_MASTER.o)
                0x0001a9ac                I2C_Bus_MasterReadByte
 .text.I2C_Bus_MasterClearStatus
                0x0001aa28       0x3c .\CortexM3\ARM_GCC_493\Debug\CorEx-Mux-Kernel.a(I2C_Bus_MASTER.o)
                0x0001aa28                I2C_Bus_MasterClearStatus
 .text.iButton1_Write
                0x0001aa64       0x3c .\CortexM3\ARM_GCC_493\Debug\CorEx-Mux-Kernel.a(iButton1.o)
                0x0001aa64                iButton1_Write
 .text.iButton1_Read
                0x0001aaa0       0x20 .\CortexM3\ARM_GCC_493\Debug\CorEx-Mux-Kernel.a(iButton1.o)
                0x0001aaa0                iButton1_Read
 .text.iButton2_Write
                0x0001aac0       0x34 .\CortexM3\ARM_GCC_493\Debug\CorEx-Mux-Kernel.a(iButton2.o)
                0x0001aac0                iButton2_Write
 .text.iButton2_Read
                0x0001aaf4       0x1c .\CortexM3\ARM_GCC_493\Debug\CorEx-Mux-Kernel.a(iButton2.o)
                0x0001aaf4                iButton2_Read
 .text.eepromWP_Write
                0x0001ab10       0x3c .\CortexM3\ARM_GCC_493\Debug\CorEx-Mux-Kernel.a(eepromWP.o)
                0x0001ab10                eepromWP_Write
 .text.Timer_DispenserState_Init
                0x0001ab4c       0x4c .\CortexM3\ARM_GCC_493\Debug\CorEx-Mux-Kernel.a(Timer_DispenserState.o)
                0x0001ab4c                Timer_DispenserState_Init
 .text.Timer_DispenserState_Enable
                0x0001ab98       0x20 .\CortexM3\ARM_GCC_493\Debug\CorEx-Mux-Kernel.a(Timer_DispenserState.o)
                0x0001ab98                Timer_DispenserState_Enable
 .text.Timer_DispenserState_Start
                0x0001abb8       0x20 .\CortexM3\ARM_GCC_493\Debug\CorEx-Mux-Kernel.a(Timer_DispenserState.o)
                0x0001abb8                Timer_DispenserState_Start
 .text.Timer_DispenserState_SetInterruptMode
                0x0001abd8       0x20 .\CortexM3\ARM_GCC_493\Debug\CorEx-Mux-Kernel.a(Timer_DispenserState.o)
                0x0001abd8                Timer_DispenserState_SetInterruptMode
 .text.Timer_DispenserState_ReadStatusRegister
                0x0001abf8       0x18 .\CortexM3\ARM_GCC_493\Debug\CorEx-Mux-Kernel.a(Timer_DispenserState.o)
                0x0001abf8                Timer_DispenserState_ReadStatusRegister
 .text.Timer_DispenserState_WritePeriod
                0x0001ac10       0x20 .\CortexM3\ARM_GCC_493\Debug\CorEx-Mux-Kernel.a(Timer_DispenserState.o)
                0x0001ac10                Timer_DispenserState_WritePeriod
 .text.Timer_DispenserState_ReadCapture
                0x0001ac30       0x18 .\CortexM3\ARM_GCC_493\Debug\CorEx-Mux-Kernel.a(Timer_DispenserState.o)
                0x0001ac30                Timer_DispenserState_ReadCapture
 .text.Timer_DispenserState_WriteCounter
                0x0001ac48       0x20 .\CortexM3\ARM_GCC_493\Debug\CorEx-Mux-Kernel.a(Timer_DispenserState.o)
                0x0001ac48                Timer_DispenserState_WriteCounter
 .text.Timer_DispenserState_ReadCounter
                0x0001ac68       0x20 .\CortexM3\ARM_GCC_493\Debug\CorEx-Mux-Kernel.a(Timer_DispenserState.o)
                0x0001ac68                Timer_DispenserState_ReadCounter
 .text.Timer_DispenserState_ClearFIFO
                0x0001ac88       0x1c .\CortexM3\ARM_GCC_493\Debug\CorEx-Mux-Kernel.a(Timer_DispenserState.o)
                0x0001ac88                Timer_DispenserState_ClearFIFO
 .text.DispenserStateTimeout_ISR_StartEx
                0x0001aca4       0x24 .\CortexM3\ARM_GCC_493\Debug\CorEx-Mux-Kernel.a(DispenserStateTimeout_ISR.o)
                0x0001aca4                DispenserStateTimeout_ISR_StartEx
 .text.DispenserStateTimeout_ISR_SetVector
                0x0001acc8       0x24 .\CortexM3\ARM_GCC_493\Debug\CorEx-Mux-Kernel.a(DispenserStateTimeout_ISR.o)
                0x0001acc8                DispenserStateTimeout_ISR_SetVector
 .text.DispenserStateTimeout_ISR_SetPriority
                0x0001acec       0x24 .\CortexM3\ARM_GCC_493\Debug\CorEx-Mux-Kernel.a(DispenserStateTimeout_ISR.o)
                0x0001acec                DispenserStateTimeout_ISR_SetPriority
 .text.DispenserStateTimeout_ISR_Enable
                0x0001ad10       0x18 .\CortexM3\ARM_GCC_493\Debug\CorEx-Mux-Kernel.a(DispenserStateTimeout_ISR.o)
                0x0001ad10                DispenserStateTimeout_ISR_Enable
 .text.DispenserStateTimeout_ISR_Disable
                0x0001ad28       0x18 .\CortexM3\ARM_GCC_493\Debug\CorEx-Mux-Kernel.a(DispenserStateTimeout_ISR.o)
                0x0001ad28                DispenserStateTimeout_ISR_Disable
 .text.Timer_Tick_Init
                0x0001ad40       0x9c .\CortexM3\ARM_GCC_493\Debug\CorEx-Mux-Kernel.a(Timer_Tick.o)
                0x0001ad40                Timer_Tick_Init
 .text.Timer_Tick_Enable
                0x0001addc       0x48 .\CortexM3\ARM_GCC_493\Debug\CorEx-Mux-Kernel.a(Timer_Tick.o)
                0x0001addc                Timer_Tick_Enable
 .text.Timer_Tick_Start
                0x0001ae24       0x20 .\CortexM3\ARM_GCC_493\Debug\CorEx-Mux-Kernel.a(Timer_Tick.o)
                0x0001ae24                Timer_Tick_Start
 .text.Timer_Tick_SetInterruptMode
                0x0001ae44       0x20 .\CortexM3\ARM_GCC_493\Debug\CorEx-Mux-Kernel.a(Timer_Tick.o)
                0x0001ae44                Timer_Tick_SetInterruptMode
 .text.Timer_Tick_ReadStatusRegister
                0x0001ae64       0x18 .\CortexM3\ARM_GCC_493\Debug\CorEx-Mux-Kernel.a(Timer_Tick.o)
                0x0001ae64                Timer_Tick_ReadStatusRegister
 .text.Timer_Tick_WritePeriod
                0x0001ae7c       0x24 .\CortexM3\ARM_GCC_493\Debug\CorEx-Mux-Kernel.a(Timer_Tick.o)
                0x0001ae7c                Timer_Tick_WritePeriod
 .text.Timer_Tick_WriteCounter
                0x0001aea0       0x20 .\CortexM3\ARM_GCC_493\Debug\CorEx-Mux-Kernel.a(Timer_Tick.o)
                0x0001aea0                Timer_Tick_WriteCounter
 .text.Timer_Tick_ReadCounter
                0x0001aec0       0x20 .\CortexM3\ARM_GCC_493\Debug\CorEx-Mux-Kernel.a(Timer_Tick.o)
                0x0001aec0                Timer_Tick_ReadCounter
 .text.pow10    0x0001aee0       0x10 c:/program files (x86)/cypress/psoc creator/3.3/psoc creator/import/gnu/arm/4.9.3/bin/../lib/gcc/arm-none-eabi/4.9.3/../../../../arm-none-eabi/lib/armv7-m\libm.a(lib_a-s_pow10.o)
                0x0001aee0                pow10
 .text.round    0x0001aef0       0xa0 c:/program files (x86)/cypress/psoc creator/3.3/psoc creator/import/gnu/arm/4.9.3/bin/../lib/gcc/arm-none-eabi/4.9.3/../../../../arm-none-eabi/lib/armv7-m\libm.a(lib_a-s_round.o)
                0x0001aef0                round
 .text.pow      0x0001af90      0x2f0 c:/program files (x86)/cypress/psoc creator/3.3/psoc creator/import/gnu/arm/4.9.3/bin/../lib/gcc/arm-none-eabi/4.9.3/../../../../arm-none-eabi/lib/armv7-m\libm.a(lib_a-w_pow.o)
                0x0001af90                pow
 .text.__ieee754_pow
                0x0001b280      0xaa0 c:/program files (x86)/cypress/psoc creator/3.3/psoc creator/import/gnu/arm/4.9.3/bin/../lib/gcc/arm-none-eabi/4.9.3/../../../../arm-none-eabi/lib/armv7-m\libm.a(lib_a-e_pow.o)
                0x0001b280                __ieee754_pow
 .text.__ieee754_sqrt
                0x0001bd20      0x18c c:/program files (x86)/cypress/psoc creator/3.3/psoc creator/import/gnu/arm/4.9.3/bin/../lib/gcc/arm-none-eabi/4.9.3/../../../../arm-none-eabi/lib/armv7-m\libm.a(lib_a-e_sqrt.o)
                0x0001bd20                __ieee754_sqrt
 .text.fabs     0x0001beac        0x8 c:/program files (x86)/cypress/psoc creator/3.3/psoc creator/import/gnu/arm/4.9.3/bin/../lib/gcc/arm-none-eabi/4.9.3/../../../../arm-none-eabi/lib/armv7-m\libm.a(lib_a-s_fabs.o)
                0x0001beac                fabs
 .text.finite   0x0001beb4        0xc c:/program files (x86)/cypress/psoc creator/3.3/psoc creator/import/gnu/arm/4.9.3/bin/../lib/gcc/arm-none-eabi/4.9.3/../../../../arm-none-eabi/lib/armv7-m\libm.a(lib_a-s_finite.o)
                0x0001beb4                finite
 .text.__fpclassifyd
                0x0001bec0       0x58 c:/program files (x86)/cypress/psoc creator/3.3/psoc creator/import/gnu/arm/4.9.3/bin/../lib/gcc/arm-none-eabi/4.9.3/../../../../arm-none-eabi/lib/armv7-m\libm.a(lib_a-s_fpclassify.o)
                0x0001bec0                __fpclassifyd
 .text.matherr  0x0001bf18        0x4 c:/program files (x86)/cypress/psoc creator/3.3/psoc creator/import/gnu/arm/4.9.3/bin/../lib/gcc/arm-none-eabi/4.9.3/../../../../arm-none-eabi/lib/armv7-m\libm.a(lib_a-s_matherr.o)
                0x0001bf18                matherr
 .text.nan      0x0001bf1c        0xc c:/program files (x86)/cypress/psoc creator/3.3/psoc creator/import/gnu/arm/4.9.3/bin/../lib/gcc/arm-none-eabi/4.9.3/../../../../arm-none-eabi/lib/armv7-m\libm.a(lib_a-s_nan.o)
                0x0001bf1c                nan
 .text.rint     0x0001bf28      0x11c c:/program files (x86)/cypress/psoc creator/3.3/psoc creator/import/gnu/arm/4.9.3/bin/../lib/gcc/arm-none-eabi/4.9.3/../../../../arm-none-eabi/lib/armv7-m\libm.a(lib_a-s_rint.o)
                0x0001bf28                rint
 *fill*         0x0001c044        0x4 
 .text.scalbn   0x0001c048       0xf0 c:/program files (x86)/cypress/psoc creator/3.3/psoc creator/import/gnu/arm/4.9.3/bin/../lib/gcc/arm-none-eabi/4.9.3/../../../../arm-none-eabi/lib/armv7-m\libm.a(lib_a-s_scalbn.o)
                0x0001c048                scalbn
 .text.copysign
                0x0001c138       0x10 c:/program files (x86)/cypress/psoc creator/3.3/psoc creator/import/gnu/arm/4.9.3/bin/../lib/gcc/arm-none-eabi/4.9.3/../../../../arm-none-eabi/lib/armv7-m\libm.a(lib_a-s_copysign.o)
                0x0001c138                copysign
 .text          0x0001c148      0x370 c:/program files (x86)/cypress/psoc creator/3.3/psoc creator/import/gnu/arm/4.9.3/bin/../lib/gcc/arm-none-eabi/4.9.3/armv7-m\libgcc.a(_arm_addsubdf3.o)
                0x0001c148                __aeabi_drsub
                0x0001c150                __aeabi_dsub
                0x0001c150                __subdf3
                0x0001c154                __aeabi_dadd
                0x0001c154                __adddf3
                0x0001c3cc                __floatunsidf
                0x0001c3cc                __aeabi_ui2d
                0x0001c3ec                __floatsidf
                0x0001c3ec                __aeabi_i2d
                0x0001c410                __aeabi_f2d
                0x0001c410                __extendsfdf2
                0x0001c44c                __floatundidf
                0x0001c44c                __aeabi_ul2d
                0x0001c45c                __floatdidf
                0x0001c45c                __aeabi_l2d
 .text          0x0001c4b8      0x424 c:/program files (x86)/cypress/psoc creator/3.3/psoc creator/import/gnu/arm/4.9.3/bin/../lib/gcc/arm-none-eabi/4.9.3/armv7-m\libgcc.a(_arm_muldivdf3.o)
                0x0001c4b8                __aeabi_dmul
                0x0001c4b8                __muldf3
                0x0001c70c                __divdf3
                0x0001c70c                __aeabi_ddiv
 .text          0x0001c8dc      0x110 c:/program files (x86)/cypress/psoc creator/3.3/psoc creator/import/gnu/arm/4.9.3/bin/../lib/gcc/arm-none-eabi/4.9.3/armv7-m\libgcc.a(_arm_cmpdf2.o)
                0x0001c8dc                __gtdf2
                0x0001c8dc                __gedf2
                0x0001c8e4                __ltdf2
                0x0001c8e4                __ledf2
                0x0001c8ec                __nedf2
                0x0001c8ec                __eqdf2
                0x0001c8ec                __cmpdf2
                0x0001c968                __aeabi_cdrcmple
                0x0001c978                __aeabi_cdcmpeq
                0x0001c978                __aeabi_cdcmple
                0x0001c988                __aeabi_dcmpeq
                0x0001c99c                __aeabi_dcmplt
                0x0001c9b0                __aeabi_dcmple
                0x0001c9c4                __aeabi_dcmpge
                0x0001c9d8                __aeabi_dcmpgt
 .text          0x0001c9ec       0x40 c:/program files (x86)/cypress/psoc creator/3.3/psoc creator/import/gnu/arm/4.9.3/bin/../lib/gcc/arm-none-eabi/4.9.3/armv7-m\libgcc.a(_arm_fixunsdfsi.o)
                0x0001c9ec                __aeabi_d2uiz
                0x0001c9ec                __fixunsdfsi
 .text          0x0001ca2c       0x30 c:/program files (x86)/cypress/psoc creator/3.3/psoc creator/import/gnu/arm/4.9.3/bin/../lib/gcc/arm-none-eabi/4.9.3/armv7-m\libgcc.a(_aeabi_uldivmod.o)
                0x0001ca2c                __aeabi_uldivmod
 .text          0x0001ca5c       0x60 c:/program files (x86)/cypress/psoc creator/3.3/psoc creator/import/gnu/arm/4.9.3/bin/../lib/gcc/arm-none-eabi/4.9.3/armv7-m\libgcc.a(bpabi.o)
                0x0001ca5c                __gnu_ldivmod_helper
                0x0001ca8c                __gnu_uldivmod_helper
 .text          0x0001cabc        0x4 c:/program files (x86)/cypress/psoc creator/3.3/psoc creator/import/gnu/arm/4.9.3/bin/../lib/gcc/arm-none-eabi/4.9.3/armv7-m\libgcc.a(_dvmd_tls.o)
                0x0001cabc                __aeabi_idiv0
                0x0001cabc                __aeabi_ldiv0
 .text          0x0001cac0      0x2ac c:/program files (x86)/cypress/psoc creator/3.3/psoc creator/import/gnu/arm/4.9.3/bin/../lib/gcc/arm-none-eabi/4.9.3/armv7-m\libgcc.a(_divdi3.o)
                0x0001cac0                __divdi3
 .text          0x0001cd6c      0x270 c:/program files (x86)/cypress/psoc creator/3.3/psoc creator/import/gnu/arm/4.9.3/bin/../lib/gcc/arm-none-eabi/4.9.3/armv7-m\libgcc.a(_udivdi3.o)
                0x0001cd6c                __udivdi3
 .text.__errno  0x0001cfdc        0xc c:/program files (x86)/cypress/psoc creator/3.3/psoc creator/import/gnu/arm/4.9.3/bin/../lib/gcc/arm-none-eabi/4.9.3/../../../../arm-none-eabi/lib/armv7-m\libg_nano.a(lib_a-errno.o)
                0x0001cfdc                __errno
 .text.__libc_init_array
                0x0001cfe8       0x4c c:/program files (x86)/cypress/psoc creator/3.3/psoc creator/import/gnu/arm/4.9.3/bin/../lib/gcc/arm-none-eabi/4.9.3/../../../../arm-none-eabi/lib/armv7-m\libg_nano.a(lib_a-init.o)
                0x0001cfe8                __libc_init_array
 .text.memcpy   0x0001d034       0x16 c:/program files (x86)/cypress/psoc creator/3.3/psoc creator/import/gnu/arm/4.9.3/bin/../lib/gcc/arm-none-eabi/4.9.3/../../../../arm-none-eabi/lib/armv7-m\libg_nano.a(lib_a-memcpy.o)
                0x0001d034                memcpy
 .text.memset   0x0001d04a       0x10 c:/program files (x86)/cypress/psoc creator/3.3/psoc creator/import/gnu/arm/4.9.3/bin/../lib/gcc/arm-none-eabi/4.9.3/../../../../arm-none-eabi/lib/armv7-m\libg_nano.a(lib_a-memset.o)
                0x0001d04a                memset
 *fill*         0x0001d05a        0x2 
 .text.rand     0x0001d05c       0x74 c:/program files (x86)/cypress/psoc creator/3.3/psoc creator/import/gnu/arm/4.9.3/bin/../lib/gcc/arm-none-eabi/4.9.3/../../../../arm-none-eabi/lib/armv7-m\libg_nano.a(lib_a-rand.o)
                0x0001d05c                rand
 .text.sprintf  0x0001d0d0       0x48 c:/program files (x86)/cypress/psoc creator/3.3/psoc creator/import/gnu/arm/4.9.3/bin/../lib/gcc/arm-none-eabi/4.9.3/../../../../arm-none-eabi/lib/armv7-m\libg_nano.a(lib_a-sprintf.o)
                0x0001d0d0                siprintf
                0x0001d0d0                sprintf
 .text.strchr   0x0001d118       0x1c c:/program files (x86)/cypress/psoc creator/3.3/psoc creator/import/gnu/arm/4.9.3/bin/../lib/gcc/arm-none-eabi/4.9.3/../../../../arm-none-eabi/lib/armv7-m\libg_nano.a(lib_a-strchr.o)
                0x0001d118                strchr
 .text.strlen   0x0001d134       0x10 c:/program files (x86)/cypress/psoc creator/3.3/psoc creator/import/gnu/arm/4.9.3/bin/../lib/gcc/arm-none-eabi/4.9.3/../../../../arm-none-eabi/lib/armv7-m\libg_nano.a(lib_a-strlen.o)
                0x0001d134                strlen
 .text.strncmp  0x0001d144       0x32 c:/program files (x86)/cypress/psoc creator/3.3/psoc creator/import/gnu/arm/4.9.3/bin/../lib/gcc/arm-none-eabi/4.9.3/../../../../arm-none-eabi/lib/armv7-m\libg_nano.a(lib_a-strncmp.o)
                0x0001d144                strncmp
 *fill*         0x0001d176        0x2 
 .text.malloc   0x0001d178       0x10 c:/program files (x86)/cypress/psoc creator/3.3/psoc creator/import/gnu/arm/4.9.3/bin/../lib/gcc/arm-none-eabi/4.9.3/../../../../arm-none-eabi/lib/armv7-m\libg_nano.a(lib_a-malloc.o)
                0x0001d178                malloc
 .text._free_r  0x0001d188       0x88 c:/program files (x86)/cypress/psoc creator/3.3/psoc creator/import/gnu/arm/4.9.3/bin/../lib/gcc/arm-none-eabi/4.9.3/../../../../arm-none-eabi/lib/armv7-m\libg_nano.a(lib_a-nano-freer.o)
                0x0001d188                _free_r
 .text._malloc_r
                0x0001d210       0xac c:/program files (x86)/cypress/psoc creator/3.3/psoc creator/import/gnu/arm/4.9.3/bin/../lib/gcc/arm-none-eabi/4.9.3/../../../../arm-none-eabi/lib/armv7-m\libg_nano.a(lib_a-nano-mallocr.o)
                0x0001d210                _malloc_r
 .text.__ssputs_r
                0x0001d2bc       0xb2 c:/program files (x86)/cypress/psoc creator/3.3/psoc creator/import/gnu/arm/4.9.3/bin/../lib/gcc/arm-none-eabi/4.9.3/../../../../arm-none-eabi/lib/armv7-m\libg_nano.a(lib_a-nano-svfprintf.o)
                0x0001d2bc                __ssputs_r
 *fill*         0x0001d36e        0x2 
 .text._svfprintf_r
                0x0001d370      0x1e4 c:/program files (x86)/cypress/psoc creator/3.3/psoc creator/import/gnu/arm/4.9.3/bin/../lib/gcc/arm-none-eabi/4.9.3/../../../../arm-none-eabi/lib/armv7-m\libg_nano.a(lib_a-nano-svfprintf.o)
                0x0001d370                _svfiprintf_r
                0x0001d370                _svfprintf_r
 .text._printf_common
                0x0001d554       0xea c:/program files (x86)/cypress/psoc creator/3.3/psoc creator/import/gnu/arm/4.9.3/bin/../lib/gcc/arm-none-eabi/4.9.3/../../../../arm-none-eabi/lib/armv7-m\libg_nano.a(lib_a-nano-vfprintf_i.o)
                0x0001d554                _printf_common
 *fill*         0x0001d63e        0x2 
 .text._printf_i
                0x0001d640      0x240 c:/program files (x86)/cypress/psoc creator/3.3/psoc creator/import/gnu/arm/4.9.3/bin/../lib/gcc/arm-none-eabi/4.9.3/../../../../arm-none-eabi/lib/armv7-m\libg_nano.a(lib_a-nano-vfprintf_i.o)
                0x0001d640                _printf_i
 .text._sbrk_r  0x0001d880       0x20 c:/program files (x86)/cypress/psoc creator/3.3/psoc creator/import/gnu/arm/4.9.3/bin/../lib/gcc/arm-none-eabi/4.9.3/../../../../arm-none-eabi/lib/armv7-m\libg_nano.a(lib_a-sbrkr.o)
                0x0001d880                _sbrk_r
 .text.memchr   0x0001d8a0       0x1c c:/program files (x86)/cypress/psoc creator/3.3/psoc creator/import/gnu/arm/4.9.3/bin/../lib/gcc/arm-none-eabi/4.9.3/../../../../arm-none-eabi/lib/armv7-m\libg_nano.a(lib_a-memchr.o)
                0x0001d8a0                memchr
 .text.memmove  0x0001d8bc       0x36 c:/program files (x86)/cypress/psoc creator/3.3/psoc creator/import/gnu/arm/4.9.3/bin/../lib/gcc/arm-none-eabi/4.9.3/../../../../arm-none-eabi/lib/armv7-m\libg_nano.a(lib_a-memmove.o)
                0x0001d8bc                memmove
 .text._realloc_r
                0x0001d8f2       0x4c c:/program files (x86)/cypress/psoc creator/3.3/psoc creator/import/gnu/arm/4.9.3/bin/../lib/gcc/arm-none-eabi/4.9.3/../../../../arm-none-eabi/lib/armv7-m\libg_nano.a(lib_a-nano-reallocr.o)
                0x0001d8f2                _realloc_r
 .text._malloc_usable_size_r
                0x0001d93e       0x14 c:/program files (x86)/cypress/psoc creator/3.3/psoc creator/import/gnu/arm/4.9.3/bin/../lib/gcc/arm-none-eabi/4.9.3/../../../../arm-none-eabi/lib/armv7-m\libg_nano.a(lib_a-nano-msizer.o)
                0x0001d93e                _malloc_usable_size_r
 *(.plt)
 *(.gnu.warning)
 *(.glue_7t)
 .glue_7t       0x00000000        0x0 linker stubs
 *(.glue_7)
 .glue_7        0x00000000        0x0 linker stubs
 *(.vfp11_veneer)
 .vfp11_veneer  0x00000000        0x0 linker stubs
 *(.bootloader)
 *(.ARM.extab* .gnu.linkonce.armextab.*)
 *(.gcc_except_table)

.v4_bx          0x0001d954        0x0
 .v4_bx         0x00000000        0x0 linker stubs

.iplt           0x0001d954        0x0
 .iplt          0x00000000        0x0 c:/program files (x86)/cypress/psoc creator/3.3/psoc creator/import/gnu/arm/4.9.3/bin/../lib/gcc/arm-none-eabi/4.9.3/armv7-m/crtbegin.o

.eh_frame_hdr
 *(.eh_frame_hdr)

.eh_frame       0x0001d954        0x4
 *(.eh_frame)
 .eh_frame      0x0001d954        0x0 c:/program files (x86)/cypress/psoc creator/3.3/psoc creator/import/gnu/arm/4.9.3/bin/../lib/gcc/arm-none-eabi/4.9.3/armv7-m/crtbegin.o
 .eh_frame      0x0001d954        0x4 c:/program files (x86)/cypress/psoc creator/3.3/psoc creator/import/gnu/arm/4.9.3/bin/../lib/gcc/arm-none-eabi/4.9.3/armv7-m/crtend.o
                0x0001d958                PROVIDE (__exidx_start, .)

.ARM.exidx      0x0001d958        0x8
 *(.ARM.exidx* .gnu.linkonce.armexidx.*)
 .ARM.exidx     0x0001d958        0x8 c:/program files (x86)/cypress/psoc creator/3.3/psoc creator/import/gnu/arm/4.9.3/bin/../lib/gcc/arm-none-eabi/4.9.3/armv7-m\libgcc.a(_divdi3.o)
 .ARM.exidx     0x0001d960        0x0 c:/program files (x86)/cypress/psoc creator/3.3/psoc creator/import/gnu/arm/4.9.3/bin/../lib/gcc/arm-none-eabi/4.9.3/armv7-m\libgcc.a(_udivdi3.o)
                                  0x8 (size before relaxing)
                0x0001d960                __exidx_end = .

.rodata         0x0001d960      0x948
 *(.rodata .rodata.* .gnu.linkonce.r.*)
 .rodata        0x0001d960      0x268 .\CortexM3\ARM_GCC_493\Debug\DisplayBLL.o
 .rodata        0x0001dbc8        0x8 .\CortexM3\ARM_GCC_493\Debug\DisplaySink.o
 .rodata        0x0001dbd0        0xc .\CortexM3\ARM_GCC_493\Debug\DisplayUtils.o
 .rodata        0x0001dbdc        0x8 .\CortexM3\ARM_GCC_493\Debug\DisplayResolver.o
 .rodata        0x0001dbe4      0x1bc .\CortexM3\ARM_GCC_493\Debug\PrinterTemplate.o
 .rodata        0x0001dda0       0x34 .\CortexM3\ARM_GCC_493\Debug\RFServerStackImpl.o
 .rodata        0x0001ddd4      0x3b0 .\CortexM3\ARM_GCC_493\Debug\ClientDefinitions.o
                0x0001ddd4                _g_currentlogo
 .rodata        0x0001e184       0x64 .\CortexM3\ARM_GCC_493\Debug\CorEx-Mux-Kernel.a(cyfitter_cfg.o)
 .rodata.str1.4
                0x0001e1e8        0x4 c:/program files (x86)/cypress/psoc creator/3.3/psoc creator/import/gnu/arm/4.9.3/bin/../lib/gcc/arm-none-eabi/4.9.3/../../../../arm-none-eabi/lib/armv7-m\libm.a(lib_a-w_pow.o)
 *fill*         0x0001e1ec        0x4 
 .rodata.dp_h   0x0001e1f0       0x10 c:/program files (x86)/cypress/psoc creator/3.3/psoc creator/import/gnu/arm/4.9.3/bin/../lib/gcc/arm-none-eabi/4.9.3/../../../../arm-none-eabi/lib/armv7-m\libm.a(lib_a-e_pow.o)
 .rodata.dp_l   0x0001e200       0x10 c:/program files (x86)/cypress/psoc creator/3.3/psoc creator/import/gnu/arm/4.9.3/bin/../lib/gcc/arm-none-eabi/4.9.3/../../../../arm-none-eabi/lib/armv7-m\libm.a(lib_a-e_pow.o)
 .rodata.bp     0x0001e210       0x10 c:/program files (x86)/cypress/psoc creator/3.3/psoc creator/import/gnu/arm/4.9.3/bin/../lib/gcc/arm-none-eabi/4.9.3/../../../../arm-none-eabi/lib/armv7-m\libm.a(lib_a-e_pow.o)
 .rodata.str1.4
                0x0001e220        0x4 c:/program files (x86)/cypress/psoc creator/3.3/psoc creator/import/gnu/arm/4.9.3/bin/../lib/gcc/arm-none-eabi/4.9.3/../../../../arm-none-eabi/lib/armv7-m\libm.a(lib_a-e_pow.o)
 *fill*         0x0001e224        0x4 
 .rodata.TWO52  0x0001e228       0x10 c:/program files (x86)/cypress/psoc creator/3.3/psoc creator/import/gnu/arm/4.9.3/bin/../lib/gcc/arm-none-eabi/4.9.3/../../../../arm-none-eabi/lib/armv7-m\libm.a(lib_a-s_rint.o)
 .rodata.str1.1
                0x0001e238        0x2 c:/program files (x86)/cypress/psoc creator/3.3/psoc creator/import/gnu/arm/4.9.3/bin/../lib/gcc/arm-none-eabi/4.9.3/../../../../arm-none-eabi/lib/armv7-m\libg_nano.a(lib_a-impure.o)
 .rodata.str1.1
                0x0001e23a       0x11 c:/program files (x86)/cypress/psoc creator/3.3/psoc creator/import/gnu/arm/4.9.3/bin/../lib/gcc/arm-none-eabi/4.9.3/../../../../arm-none-eabi/lib/armv7-m\libg_nano.a(lib_a-nano-svfprintf.o)
 .rodata.str1.1
                0x0001e24b       0x22 c:/program files (x86)/cypress/psoc creator/3.3/psoc creator/import/gnu/arm/4.9.3/bin/../lib/gcc/arm-none-eabi/4.9.3/../../../../arm-none-eabi/lib/armv7-m\libg_nano.a(lib_a-nano-vfprintf_i.o)
                0x0001e270                . = ALIGN (0x4)
 *fill*         0x0001e26d        0x3 
 *(.init)
 .init          0x0001e270        0x4 c:/program files (x86)/cypress/psoc creator/3.3/psoc creator/import/gnu/arm/4.9.3/bin/../lib/gcc/arm-none-eabi/4.9.3/armv7-m/crti.o
                0x0001e270                _init
 .init          0x0001e274        0x8 c:/program files (x86)/cypress/psoc creator/3.3/psoc creator/import/gnu/arm/4.9.3/bin/../lib/gcc/arm-none-eabi/4.9.3/armv7-m/crtn.o
                0x0001e27c                . = ALIGN (0x4)
                0x0001e27c                __preinit_array_start = .
 *(.preinit_array)
                0x0001e27c                __preinit_array_end = .
                0x0001e27c                . = ALIGN (0x4)
                0x0001e27c                __init_array_start = .
 *(SORT(.init_array.*))
 *(.init_array)
 .init_array    0x0001e27c        0x4 c:/program files (x86)/cypress/psoc creator/3.3/psoc creator/import/gnu/arm/4.9.3/bin/../lib/gcc/arm-none-eabi/4.9.3/armv7-m/crtbegin.o
 .init_array    0x0001e280        0x4 .\CortexM3\ARM_GCC_493\Debug\Cm3Start.o
                0x0001e284                __init_array_end = .
                0x0001e284                . = ALIGN (0x4)
 *(.fini)
 .fini          0x0001e284        0x4 c:/program files (x86)/cypress/psoc creator/3.3/psoc creator/import/gnu/arm/4.9.3/bin/../lib/gcc/arm-none-eabi/4.9.3/armv7-m/crti.o
                0x0001e284                _fini
 .fini          0x0001e288        0x8 c:/program files (x86)/cypress/psoc creator/3.3/psoc creator/import/gnu/arm/4.9.3/bin/../lib/gcc/arm-none-eabi/4.9.3/armv7-m/crtn.o
                0x0001e290                . = ALIGN (0x4)
                0x0001e290                __fini_array_start = .
 *(.fini_array)
 .fini_array    0x0001e290        0x4 c:/program files (x86)/cypress/psoc creator/3.3/psoc creator/import/gnu/arm/4.9.3/bin/../lib/gcc/arm-none-eabi/4.9.3/armv7-m/crtbegin.o
 *(SORT(.fini_array.*))
                0x0001e294                __fini_array_end = .
                0x0001e294                . = ALIGN (0x4)
 *crtbegin.o(.ctors)
 *(EXCLUDE_FILE(*crtend.o) .ctors)
 *(SORT(.ctors.*))
 *crtend.o(.ctors)
                0x0001e294                . = ALIGN (0x4)
 *crtbegin.o(.dtors)
 *(EXCLUDE_FILE(*crtend.o) .dtors)
 *(SORT(.dtors.*))
 *crtend.o(.dtors)
                0x0001e294                . = ALIGN (0x4)
                0x0001e294                __cy_regions = .
                0x0001e294        0x4 LONG 0x1e2a8 __cy_region_init_ram
                0x0001e298        0x4 LONG 0x1fff8108 __cy_region_start_data
                0x0001e29c        0x4 LONG 0x5350 __cy_region_init_size_ram
                0x0001e2a0        0x4 LONG 0xa0f0 __cy_region_zero_size_ram
                0x0001e2a4                __cy_regions_end = .
                0x0001e2a8                . = ALIGN (0x8)
 *fill*         0x0001e2a4        0x4 
                0x0001e2a8                _etext = .

.cy_checksum_exclude
                0x0001e2a8        0x0
 *(.cy_checksum_exclude)

.ramvectors     0x1fff8000      0x100
                0x1fff8000                __cy_region_start_ram = .
 *(.ramvectors)
 .ramvectors    0x1fff8000      0x100 .\CortexM3\ARM_GCC_493\Debug\Cm3Start.o
                0x1fff8000                CyRamVectors

.noinit         0x1fff8100        0x5
 *(.noinit)
 .noinit        0x1fff8100        0x4 .\CortexM3\ARM_GCC_493\Debug\Cm3Start.o
 .noinit        0x1fff8104        0x1 .\CortexM3\ARM_GCC_493\Debug\CorEx-Mux-Kernel.a(CyLib.o)
                0x1fff8104                CyResetStatus

.data           0x1fff8108     0x5350 load address 0x0001e2a8
                0x1fff8108                __cy_region_start_data = .
 *(.jcr)
 .jcr           0x1fff8108        0x0 c:/program files (x86)/cypress/psoc creator/3.3/psoc creator/import/gnu/arm/4.9.3/bin/../lib/gcc/arm-none-eabi/4.9.3/armv7-m/crtbegin.o
 .jcr           0x1fff8108        0x4 c:/program files (x86)/cypress/psoc creator/3.3/psoc creator/import/gnu/arm/4.9.3/bin/../lib/gcc/arm-none-eabi/4.9.3/armv7-m/crtend.o
 *(.got.plt)
 *(.got)
 *(.shdata)
 *(.data .data.* .gnu.linkonce.d.*)
 .data          0x1fff810c      0x1c8 .\CortexM3\ARM_GCC_493\Debug\UARTManager.o
                0x1fff810c                _g_uartmanagers
 .data          0x1fff82d4       0x30 .\CortexM3\ARM_GCC_493\Debug\UARTResolver.o
                0x1fff82d4                _g_uartresolvers
 .data          0x1fff8304        0x1 .\CortexM3\ARM_GCC_493\Debug\EepromManager.o
                0x1fff8304                _g_i2cstart
 *fill*         0x1fff8305        0x3 
 .data          0x1fff8308       0x28 .\CortexM3\ARM_GCC_493\Debug\DispenserBLL.o
                0x1fff8308                _g_pumpcodemap
 .data          0x1fff8330       0xa0 .\CortexM3\ARM_GCC_493\Debug\DisplayBLL.o
                0x1fff8330                _g_dispvalcodes
                0x1fff8334                _g_display1
                0x1fff8370                _g_display2
                0x1fff83ac                _g_homeanimarray
                0x1fff83bc                _g_productscreenpos
 .data          0x1fff83d0        0xc .\CortexM3\ARM_GCC_493\Debug\DisplayUtils.o
                0x1fff83d0                _g_productbuttonmap
                0x1fff83da                _g_displaystarting
 .data          0x1fff83dc      0xd8c .\CortexM3\ARM_GCC_493\Debug\DisplayFlow.o
                0x1fff83dc                _g_displayflow
 .data          0x1fff9168       0x50 .\CortexM3\ARM_GCC_493\Debug\DisplayCharacterMap.o
                0x1fff9168                _g_charmaplut
 .data          0x1fff91b8       0x68 .\CortexM3\ARM_GCC_493\Debug\DisplayBufferScreenMap.o
                0x1fff91b8                _g_buffscrlut
 .data          0x1fff9220       0x14 .\CortexM3\ARM_GCC_493\Debug\PrinterBLL.o
                0x1fff9220                _g_linefeed
                0x1fff9224                _g_autocut
                0x1fff9228                _g_starting_position
                0x1fff922c                _g_logoprintcmd
 .data          0x1fff9234      0x120 .\CortexM3\ARM_GCC_493\Debug\PrinterTemplate.o
                0x1fff9234                _g_printertemplate
                0x1fff930c                _g_printervolumetemplate
                0x1fff933c                _g_printerpricetemplate
 .data          0x1fff9354     0x3e6c .\CortexM3\ARM_GCC_493\Debug\PrimeFlow.o
                0x1fff9354                _g_standardtransactions
 .data          0x1fffd1c0       0x20 .\CortexM3\ARM_GCC_493\Debug\PrimeImpl.o
                0x1fffd1c0                _g_sfcharmap
 .data          0x1fffd1e0      0x1e4 .\CortexM3\ARM_GCC_493\Debug\RFServerStack.o
                0x1fffd1e0                _g_rfresolvers
                0x1fffd320                _g_rfreqpayloadmap
                0x1fffd3b0                _g_rfcommandstatemap
 .data          0x1fffd3c4        0xc .\CortexM3\ARM_GCC_493\Debug\RFServerStackImpl.o
                0x1fffd3c4                _g_rfslaveheader
                0x1fffd3c8                _g_rfmasterheader
                0x1fffd3cc                _g_rfmasterfooter
 .data          0x1fffd3d0        0x8 .\CortexM3\ARM_GCC_493\Debug\ClientDefinitions.o
                0x1fffd3d0                _g_stationidentifier
                0x1fffd3d2                _g_logosize
                0x1fffd3d4                _g_ptrlogo
 .data          0x1fffd3d8        0x4 .\CortexM3\ARM_GCC_493\Debug\Cm3Start.o
 .data          0x1fffd3dc       0x10 .\CortexM3\ARM_GCC_493\Debug\CorEx-Mux-Kernel.a(CyLib.o)
                0x1fffd3dc                cydelay_freq_hz
                0x1fffd3e0                cydelay_freq_khz
                0x1fffd3e4                cydelay_freq_mhz
                0x1fffd3e8                cydelay_32k_ms
 .data.__fdlib_version
                0x1fffd3ec        0x1 c:/program files (x86)/cypress/psoc creator/3.3/psoc creator/import/gnu/arm/4.9.3/bin/../lib/gcc/arm-none-eabi/4.9.3/../../../../arm-none-eabi/lib/armv7-m\libm.a(lib_a-s_lib_ver.o)
                0x1fffd3ec                __fdlib_version
 *fill*         0x1fffd3ed        0x3 
 .data.impure_data
                0x1fffd3f0       0x60 c:/program files (x86)/cypress/psoc creator/3.3/psoc creator/import/gnu/arm/4.9.3/bin/../lib/gcc/arm-none-eabi/4.9.3/../../../../arm-none-eabi/lib/armv7-m\libg_nano.a(lib_a-impure.o)
 .data._impure_ptr
                0x1fffd450        0x4 c:/program files (x86)/cypress/psoc creator/3.3/psoc creator/import/gnu/arm/4.9.3/bin/../lib/gcc/arm-none-eabi/4.9.3/../../../../arm-none-eabi/lib/armv7-m\libg_nano.a(lib_a-impure.o)
                0x1fffd450                _impure_ptr
                0x1fffd458                . = ALIGN (0x8)
 *fill*         0x1fffd454        0x4 
 *(.ram)
                0x1fffd458                _edata = .

.igot.plt       0x1fffd458        0x0 load address 0x000235f8
 .igot.plt      0x00000000        0x0 c:/program files (x86)/cypress/psoc creator/3.3/psoc creator/import/gnu/arm/4.9.3/bin/../lib/gcc/arm-none-eabi/4.9.3/armv7-m/crtbegin.o

.bss            0x1fffd458     0xa0f0 load address 0x000235f8
                0x1fffd458                PROVIDE (__bss_start__, .)
 *(.shbss)
 *(.bss .bss.* .gnu.linkonce.b.*)
 .bss           0x1fffd458       0x1c c:/program files (x86)/cypress/psoc creator/3.3/psoc creator/import/gnu/arm/4.9.3/bin/../lib/gcc/arm-none-eabi/4.9.3/armv7-m/crtbegin.o
 .bss           0x1fffd474        0x1 .\CortexM3\ARM_GCC_493\Debug\EepromManager.o
                0x1fffd474                _g_i2cbuslock
 .bss           0x1fffd475        0x1 .\CortexM3\ARM_GCC_493\Debug\WatchDogReset.o
                0x1fffd475                _g_wdtstarted
 *fill*         0x1fffd476        0x2 
 .bss           0x1fffd478        0x4 .\CortexM3\ARM_GCC_493\Debug\DispenserBLL.o
                0x1fffd478                _g_ptractprogramming
 .bss           0x1fffd47c        0x4 .\CortexM3\ARM_GCC_493\Debug\DispenserSink.o
                0x1fffd47c                _g_dispenserupdatetimeout
                0x1fffd47e                _g_dispenserupdatetimeoutmultiplier
 .bss           0x1fffd480        0x4 .\CortexM3\ARM_GCC_493\Debug\DisplayBLL.o
                0x1fffd480                _g_configured
 .bss           0x1fffd484        0x1 .\CortexM3\ARM_GCC_493\Debug\PrimeImpl.o
 *fill*         0x1fffd485        0x1 
 .bss           0x1fffd486        0xa .\CortexM3\ARM_GCC_493\Debug\CorEx-Mux-Kernel.a(RF_Physical.o)
                0x1fffd486                RF_Physical_initVar
                0x1fffd487                RF_Physical_errorStatus
                0x1fffd488                RF_Physical_rxBufferRead
                0x1fffd48a                RF_Physical_rxBufferWrite
                0x1fffd48c                RF_Physical_rxBufferLoopDetect
                0x1fffd48d                RF_Physical_rxBufferOverflow
 .bss           0x1fffd490        0x2 .\CortexM3\ARM_GCC_493\Debug\CorEx-Mux-Kernel.a(Printer.o)
                0x1fffd490                Printer_initVar
 .bss           0x1fffd492        0xa .\CortexM3\ARM_GCC_493\Debug\CorEx-Mux-Kernel.a(Dispenser.o)
                0x1fffd492                Dispenser_initVar
                0x1fffd493                Dispenser_errorStatus
                0x1fffd494                Dispenser_rxBufferRead
                0x1fffd496                Dispenser_rxBufferWrite
                0x1fffd498                Dispenser_rxBufferLoopDetect
                0x1fffd499                Dispenser_rxBufferOverflow
 .bss           0x1fffd49c        0x7 .\CortexM3\ARM_GCC_493\Debug\CorEx-Mux-Kernel.a(Display1.o)
                0x1fffd49c                Display1_initVar
                0x1fffd49d                Display1_errorStatus
                0x1fffd49e                Display1_rxBufferRead
                0x1fffd49f                Display1_rxBufferWrite
                0x1fffd4a0                Display1_rxBufferLoopDetect
                0x1fffd4a1                Display1_rxBufferOverflow
 .bss           0x1fffd4a3        0x7 .\CortexM3\ARM_GCC_493\Debug\CorEx-Mux-Kernel.a(Display2.o)
                0x1fffd4a3                Display2_initVar
                0x1fffd4a4                Display2_errorStatus
                0x1fffd4a5                Display2_rxBufferRead
                0x1fffd4a6                Display2_rxBufferWrite
                0x1fffd4a7                Display2_rxBufferLoopDetect
                0x1fffd4a8                Display2_rxBufferOverflow
 .bss           0x1fffd4aa        0x1 .\CortexM3\ARM_GCC_493\Debug\CorEx-Mux-Kernel.a(I2C_Bus.o)
                0x1fffd4aa                I2C_Bus_initVar
 .bss           0x1fffd4ab        0x1 .\CortexM3\ARM_GCC_493\Debug\CorEx-Mux-Kernel.a(Timer_DispenserState.o)
                0x1fffd4ab                Timer_DispenserState_initVar
 .bss           0x1fffd4ac        0x1 .\CortexM3\ARM_GCC_493\Debug\CorEx-Mux-Kernel.a(Timer_Tick.o)
                0x1fffd4ac                Timer_Tick_initVar
 *fill*         0x1fffd4ad        0x3 
 .bss.__malloc_sbrk_start
                0x1fffd4b0        0x4 c:/program files (x86)/cypress/psoc creator/3.3/psoc creator/import/gnu/arm/4.9.3/bin/../lib/gcc/arm-none-eabi/4.9.3/../../../../arm-none-eabi/lib/armv7-m\libg_nano.a(lib_a-nano-mallocr.o)
                0x1fffd4b0                __malloc_sbrk_start
 .bss.__malloc_free_list
                0x1fffd4b4        0x4 c:/program files (x86)/cypress/psoc creator/3.3/psoc creator/import/gnu/arm/4.9.3/bin/../lib/gcc/arm-none-eabi/4.9.3/../../../../arm-none-eabi/lib/armv7-m\libg_nano.a(lib_a-nano-mallocr.o)
                0x1fffd4b4                __malloc_free_list
 *(COMMON)
 COMMON         0x1fffd4b8     0x14f0 .\CortexM3\ARM_GCC_493\Debug\UARTManager.o
                0x1fffd4b8                _g_uartmessages
 COMMON         0x1fffe9a8       0x48 .\CortexM3\ARM_GCC_493\Debug\PseudoRTOS.o
                0x1fffe9a8                _g_loop_container
                0x1fffe9ec                _g_ptr_LOOP
 COMMON         0x1fffe9f0     0x4f50 .\CortexM3\ARM_GCC_493\Debug\SinkManager.o
                0x1fffe9f0                _g_pretval
                0x1fffea00                _g_sinkmessagequeue
                0x20003680                _g_sinksubscriberqueue
 COMMON         0x20003940       0x42 .\CortexM3\ARM_GCC_493\Debug\EepromManager.o
                0x20003940                _g_eeprom
 *fill*         0x20003982        0x2 
 COMMON         0x20003984       0x10 .\CortexM3\ARM_GCC_493\Debug\RtcManager.o
                0x20003984                _g_rtc
 COMMON         0x20003994      0x20c .\CortexM3\ARM_GCC_493\Debug\DispenserResolver.o
                0x20003994                _g_respctxt
 COMMON         0x20003ba0       0x5f .\CortexM3\ARM_GCC_493\Debug\PrinterBLL.o
                0x20003ba0                _g_padcharacters
                0x20003bc0                _g_auxprinterbuffer
                0x20003be0                _g_separator
 *fill*         0x20003bff        0x1 
 COMMON         0x20003c00        0x2 .\CortexM3\ARM_GCC_493\Debug\PrinterSink.o
                0x20003c00                _g_printerlayout
 *fill*         0x20003c02        0x6 
 COMMON         0x20003c08     0x35c8 .\CortexM3\ARM_GCC_493\Debug\Prime.o
                0x20003c08                _g_pumps
                0x20006a68                _g_dispenserlayoutinfo
                0x20006a7c                _g_pumpjobqueue
 COMMON         0x200071d0        0xa .\CortexM3\ARM_GCC_493\Debug\RFSink.o
                0x200071d0                _g_rfautorun
 *fill*         0x200071da        0x2 
 COMMON         0x200071dc        0xc .\CortexM3\ARM_GCC_493\Debug\RFResolver.o
                0x200071dc                _g_rfrx
 COMMON         0x200071e8      0x200 .\CortexM3\ARM_GCC_493\Debug\CorEx-Mux-Kernel.a(RF_Physical.o)
                0x200071e8                RF_Physical_rxBuffer
 COMMON         0x200073e8      0x100 .\CortexM3\ARM_GCC_493\Debug\CorEx-Mux-Kernel.a(Dispenser.o)
                0x200073e8                Dispenser_rxBuffer
 COMMON         0x200074e8       0x20 .\CortexM3\ARM_GCC_493\Debug\CorEx-Mux-Kernel.a(Display1.o)
                0x200074e8                Display1_rxBuffer
 COMMON         0x20007508       0x20 .\CortexM3\ARM_GCC_493\Debug\CorEx-Mux-Kernel.a(Display2.o)
                0x20007508                Display2_rxBuffer
 COMMON         0x20007528        0x1 .\CortexM3\ARM_GCC_493\Debug\CorEx-Mux-Kernel.a(I2C_Bus.o)
                0x20007528                I2C_Bus_state
 *fill*         0x20007529        0x3 
 COMMON         0x2000752c       0x11 .\CortexM3\ARM_GCC_493\Debug\CorEx-Mux-Kernel.a(I2C_Bus_MASTER.o)
                0x2000752c                I2C_Bus_mstrWrBufSize
                0x2000752d                I2C_Bus_mstrControl
                0x2000752e                I2C_Bus_mstrRdBufSize
                0x20007530                I2C_Bus_mstrRdBufPtr
                0x20007534                I2C_Bus_mstrStatus
                0x20007535                I2C_Bus_mstrWrBufIndex
                0x20007538                I2C_Bus_mstrWrBufPtr
                0x2000753c                I2C_Bus_mstrRdBufIndex
 *fill*         0x2000753d        0x3 
 COMMON         0x20007540        0x4 c:/program files (x86)/cypress/psoc creator/3.3/psoc creator/import/gnu/arm/4.9.3/bin/../lib/gcc/arm-none-eabi/4.9.3/../../../../arm-none-eabi/lib/armv7-m\libg_nano.a(lib_a-reent.o)
                0x20007540                errno
                0x20007548                . = ALIGN (0x8)
 *fill*         0x20007544        0x4 
 *(.ram.b)
                0x20007548                _end = .
                0x20007548                __end = .
                0x20007548                PROVIDE (end, .)
                0x20007548                PROVIDE (__bss_end__, .)
                0x0001e2a8                __cy_region_init_ram = LOADADDR (.data)
                0x00005350                __cy_region_init_size_ram = (_edata - ADDR (.data))
                0x0000a0f0                __cy_region_zero_size_ram = (_end - _edata)

.heap           0x20007548       0x80 load address 0x000235f8
                0x20007548                . = _end
                0x200075c8                . = (. + 0x80)
 *fill*         0x20007548       0x80 
                0x200075c8                __cy_heap_limit = .

.stack          0x20007800      0x800
                0x20007800                __cy_stack_limit = .
                0x20008000                . = (. + 0x800)
 *fill*         0x20007800      0x800 
                0x00000001                ASSERT ((__cy_stack_limit >= __cy_heap_limit), region RAM overflowed with stack)
                0x00000000                cy_checksum_exclude_size = (CY_APPL_LOADABLE == 0x1)?SIZEOF (.cy_checksum_exclude):0x0
                0x00000001                ASSERT ((cy_checksum_exclude_size <= CY_CHECKSUM_EXCLUDE_SIZE), CY_BOOT: Section .cy_checksum_exclude size exceedes specified limit.)

.cyloadermeta
 *(.cyloadermeta)

.cyloadablemeta
 *(.cyloadablemeta)

.cyconfigecc    0x80000000     0x128c
 *(.cyconfigecc)
 .cyconfigecc   0x80000000     0x128c .\CortexM3\ARM_GCC_493\Debug\cymetadata.o
                0x80000000                cy_meta_configecc

.cycustnvl      0x90000000        0x4
 *(.cycustnvl)
 .cycustnvl     0x90000000        0x4 .\CortexM3\ARM_GCC_493\Debug\cymetadata.o
                0x90000000                cy_meta_custnvl

.cywolatch      0x90100000        0x4
 *(.cywolatch)
 .cywolatch     0x90100000        0x4 .\CortexM3\ARM_GCC_493\Debug\cymetadata.o
                0x90100000                cy_meta_wonvl

.cyeeprom       0x90200000        0x0
 *(.cyeeprom)
                0x00000001                ASSERT ((. <= ((0x90200000 + ee_offset) + ee_size)), .cyeeprom data will not fit in EEPROM)

.cyflashprotect
                0x90400000      0x100
 *(.cyflashprotect)
 .cyflashprotect
                0x90400000      0x100 .\CortexM3\ARM_GCC_493\Debug\cymetadata.o
                0x90400000                cy_meta_flashprotect

.cymeta         0x90500000        0xc
 *(.cymeta)
 .cymeta        0x90500000        0xc .\CortexM3\ARM_GCC_493\Debug\cymetadata.o
                0x90500000                cy_metadata

.rel.dyn        0x000235f8        0x0 load address 0x9050000c
 .rel.iplt      0x00000000        0x0 c:/program files (x86)/cypress/psoc creator/3.3/psoc creator/import/gnu/arm/4.9.3/bin/../lib/gcc/arm-none-eabi/4.9.3/armv7-m/crtbegin.o

.stab
 *(.stab)

.stabstr
 *(.stabstr)

.debug
 *(.debug)

.line
 *(.line)

.debug_srcinfo
 *(.debug_srcinfo)

.debug_sfnames
 *(.debug_sfnames)

.debug_aranges  0x00000000     0x1ff0
 *(.debug_aranges)
 .debug_aranges
                0x00000000       0x40 .\CortexM3\ARM_GCC_493\Debug\UARTManager.o
 .debug_aranges
                0x00000040       0x20 .\CortexM3\ARM_GCC_493\Debug\UARTResolver.o
 .debug_aranges
                0x00000060       0x20 .\CortexM3\ARM_GCC_493\Debug\UARTManagerSink.o
 .debug_aranges
                0x00000080       0x28 .\CortexM3\ARM_GCC_493\Debug\PseudoRTOS.o
 .debug_aranges
                0x000000a8       0x68 .\CortexM3\ARM_GCC_493\Debug\Utils.o
 .debug_aranges
                0x00000110       0x40 .\CortexM3\ARM_GCC_493\Debug\Security.o
 .debug_aranges
                0x00000150       0x98 .\CortexM3\ARM_GCC_493\Debug\SinkManager.o
 .debug_aranges
                0x000001e8       0x48 .\CortexM3\ARM_GCC_493\Debug\EepromManager.o
 .debug_aranges
                0x00000230       0x40 .\CortexM3\ARM_GCC_493\Debug\RtcManager.o
 .debug_aranges
                0x00000270       0x20 .\CortexM3\ARM_GCC_493\Debug\Initializers.o
 .debug_aranges
                0x00000290       0x30 .\CortexM3\ARM_GCC_493\Debug\Timers.o
 .debug_aranges
                0x000002c0       0x28 .\CortexM3\ARM_GCC_493\Debug\TestFile.o
 .debug_aranges
                0x000002e8       0x20 .\CortexM3\ARM_GCC_493\Debug\AuxPSoC.o
 .debug_aranges
                0x00000308       0x30 .\CortexM3\ARM_GCC_493\Debug\WatchDogReset.o
 .debug_aranges
                0x00000338       0x28 .\CortexM3\ARM_GCC_493\Debug\DispenserResolver.o
 .debug_aranges
                0x00000360       0xa8 .\CortexM3\ARM_GCC_493\Debug\DispenserBLL.o
 .debug_aranges
                0x00000408       0x40 .\CortexM3\ARM_GCC_493\Debug\DispenserSink.o
 .debug_aranges
                0x00000448      0x148 .\CortexM3\ARM_GCC_493\Debug\DisplayBLL.o
 .debug_aranges
                0x00000590       0x30 .\CortexM3\ARM_GCC_493\Debug\DisplaySink.o
 .debug_aranges
                0x000005c0      0x120 .\CortexM3\ARM_GCC_493\Debug\DisplayUtils.o
 .debug_aranges
                0x000006e0       0x18 .\CortexM3\ARM_GCC_493\Debug\DisplayFlow.o
 .debug_aranges
                0x000006f8       0x20 .\CortexM3\ARM_GCC_493\Debug\DisplayCharacterMap.o
 .debug_aranges
                0x00000718       0x30 .\CortexM3\ARM_GCC_493\Debug\DisplayBufferScreenMap.o
 .debug_aranges
                0x00000748       0x38 .\CortexM3\ARM_GCC_493\Debug\DisplayResolver.o
 .debug_aranges
                0x00000780       0x90 .\CortexM3\ARM_GCC_493\Debug\PrinterBLL.o
 .debug_aranges
                0x00000810       0x20 .\CortexM3\ARM_GCC_493\Debug\PrinterSink.o
 .debug_aranges
                0x00000830       0x20 .\CortexM3\ARM_GCC_493\Debug\PrinterResolver.o
 .debug_aranges
                0x00000850       0x30 .\CortexM3\ARM_GCC_493\Debug\PrinterTemplate.o
 .debug_aranges
                0x00000880       0x20 .\CortexM3\ARM_GCC_493\Debug\iButtonSink.o
 .debug_aranges
                0x000008a0       0x40 .\CortexM3\ARM_GCC_493\Debug\iButtonBLL.o
 .debug_aranges
                0x000008e0       0x30 .\CortexM3\ARM_GCC_493\Debug\iButtonProtocol.o
 .debug_aranges
                0x00000910       0x98 .\CortexM3\ARM_GCC_493\Debug\Prime.o
 .debug_aranges
                0x000009a8       0x20 .\CortexM3\ARM_GCC_493\Debug\PrimeFlow.o
 .debug_aranges
                0x000009c8      0x1d0 .\CortexM3\ARM_GCC_493\Debug\PrimeImpl.o
 .debug_aranges
                0x00000b98       0x18 .\CortexM3\ARM_GCC_493\Debug\Encore.o
 .debug_aranges
                0x00000bb0       0x18 .\CortexM3\ARM_GCC_493\Debug\EncoreFlow.o
 .debug_aranges
                0x00000bc8       0x18 .\CortexM3\ARM_GCC_493\Debug\EncoreImpl.o
 .debug_aranges
                0x00000be0       0x18 .\CortexM3\ARM_GCC_493\Debug\Advantage.o
 .debug_aranges
                0x00000bf8       0x18 .\CortexM3\ARM_GCC_493\Debug\AdvantageFlow.o
 .debug_aranges
                0x00000c10       0x18 .\CortexM3\ARM_GCC_493\Debug\AdvantageImpl.o
 .debug_aranges
                0x00000c28       0x28 .\CortexM3\ARM_GCC_493\Debug\RFSink.o
 .debug_aranges
                0x00000c50       0x30 .\CortexM3\ARM_GCC_493\Debug\RFBLL.o
 .debug_aranges
                0x00000c80       0x28 .\CortexM3\ARM_GCC_493\Debug\RFResolver.o
 .debug_aranges
                0x00000ca8       0x40 .\CortexM3\ARM_GCC_493\Debug\RFServerStack.o
 .debug_aranges
                0x00000ce8       0xc0 .\CortexM3\ARM_GCC_493\Debug\RFServerStackImpl.o
 .debug_aranges
                0x00000da8       0x18 .\CortexM3\ARM_GCC_493\Debug\ClientDefinitions.o
 .debug_aranges
                0x00000dc0       0x20 .\CortexM3\ARM_GCC_493\Debug\main.o
 .debug_aranges
                0x00000de0       0x18 .\CortexM3\ARM_GCC_493\Debug\cymetadata.o
 .debug_aranges
                0x00000df8       0x48 .\CortexM3\ARM_GCC_493\Debug\Cm3Start.o
 .debug_aranges
                0x00000e40       0x60 .\CortexM3\ARM_GCC_493\Debug\CorEx-Mux-Kernel.a(cyfitter_cfg.o)
 .debug_aranges
                0x00000ea0       0xf0 .\CortexM3\ARM_GCC_493\Debug\CorEx-Mux-Kernel.a(RF_Physical.o)
 .debug_aranges
                0x00000f90       0x20 .\CortexM3\ARM_GCC_493\Debug\CorEx-Mux-Kernel.a(RF_Physical_INT.o)
 .debug_aranges
                0x00000fb0       0x70 .\CortexM3\ARM_GCC_493\Debug\CorEx-Mux-Kernel.a(RF_Physical_IntClock.o)
 .debug_aranges
                0x00001020       0x20 .\CortexM3\ARM_GCC_493\Debug\CorEx-Mux-Kernel.a(CyBootAsmGnu.o)
 .debug_aranges
                0x00001040      0x298 .\CortexM3\ARM_GCC_493\Debug\CorEx-Mux-Kernel.a(CyLib.o)
 .debug_aranges
                0x000012d8       0x98 .\CortexM3\ARM_GCC_493\Debug\CorEx-Mux-Kernel.a(cyPm.o)
 .debug_aranges
                0x00001370       0x60 .\CortexM3\ARM_GCC_493\Debug\CorEx-Mux-Kernel.a(CRC_Security.o)
 .debug_aranges
                0x000013d0       0x70 .\CortexM3\ARM_GCC_493\Debug\CorEx-Mux-Kernel.a(ShiftReg_Security.o)
 .debug_aranges
                0x00001440       0x28 .\CortexM3\ARM_GCC_493\Debug\CorEx-Mux-Kernel.a(Clock_CRC.o)
 .debug_aranges
                0x00001468       0x28 .\CortexM3\ARM_GCC_493\Debug\CorEx-Mux-Kernel.a(Reset_CRC.o)
 .debug_aranges
                0x00001490       0xf0 .\CortexM3\ARM_GCC_493\Debug\CorEx-Mux-Kernel.a(Printer.o)
 .debug_aranges
                0x00001580       0xf0 .\CortexM3\ARM_GCC_493\Debug\CorEx-Mux-Kernel.a(Dispenser.o)
 .debug_aranges
                0x00001670       0x20 .\CortexM3\ARM_GCC_493\Debug\CorEx-Mux-Kernel.a(Dispenser_INT.o)
 .debug_aranges
                0x00001690       0xf0 .\CortexM3\ARM_GCC_493\Debug\CorEx-Mux-Kernel.a(Display1.o)
 .debug_aranges
                0x00001780       0x20 .\CortexM3\ARM_GCC_493\Debug\CorEx-Mux-Kernel.a(Display1_INT.o)
 .debug_aranges
                0x000017a0       0xf0 .\CortexM3\ARM_GCC_493\Debug\CorEx-Mux-Kernel.a(Display2.o)
 .debug_aranges
                0x00001890       0x20 .\CortexM3\ARM_GCC_493\Debug\CorEx-Mux-Kernel.a(Display2_INT.o)
 .debug_aranges
                0x000018b0       0x80 .\CortexM3\ARM_GCC_493\Debug\CorEx-Mux-Kernel.a(Counter_ISR.o)
 .debug_aranges
                0x00001930       0x70 .\CortexM3\ARM_GCC_493\Debug\CorEx-Mux-Kernel.a(Display1_IntClock.o)
 .debug_aranges
                0x000019a0       0x70 .\CortexM3\ARM_GCC_493\Debug\CorEx-Mux-Kernel.a(Display2_IntClock.o)
 .debug_aranges
                0x00001a10       0x38 .\CortexM3\ARM_GCC_493\Debug\CorEx-Mux-Kernel.a(I2C_Bus.o)
 .debug_aranges
                0x00001a48       0x20 .\CortexM3\ARM_GCC_493\Debug\CorEx-Mux-Kernel.a(I2C_Bus_INT.o)
 .debug_aranges
                0x00001a68       0x38 .\CortexM3\ARM_GCC_493\Debug\CorEx-Mux-Kernel.a(I2C_Bus_PM.o)
 .debug_aranges
                0x00001aa0       0x80 .\CortexM3\ARM_GCC_493\Debug\CorEx-Mux-Kernel.a(I2C_Bus_MASTER.o)
 .debug_aranges
                0x00001b20       0x38 .\CortexM3\ARM_GCC_493\Debug\CorEx-Mux-Kernel.a(iButton1.o)
 .debug_aranges
                0x00001b58       0x38 .\CortexM3\ARM_GCC_493\Debug\CorEx-Mux-Kernel.a(iButton2.o)
 .debug_aranges
                0x00001b90       0x38 .\CortexM3\ARM_GCC_493\Debug\CorEx-Mux-Kernel.a(eepromWP.o)
 .debug_aranges
                0x00001bc8       0x90 .\CortexM3\ARM_GCC_493\Debug\CorEx-Mux-Kernel.a(Timer_DispenserState.o)
 .debug_aranges
                0x00001c58       0x80 .\CortexM3\ARM_GCC_493\Debug\CorEx-Mux-Kernel.a(DispenserStateTimeout_ISR.o)
 .debug_aranges
                0x00001cd8       0x88 .\CortexM3\ARM_GCC_493\Debug\CorEx-Mux-Kernel.a(Timer_Tick.o)
 .debug_aranges
                0x00001d60       0x70 .\CortexM3\ARM_GCC_493\Debug\CorEx-Mux-Kernel.a(ShiftReg_iButtonCRC4LSB.o)
 .debug_aranges
                0x00001dd0       0x28 .\CortexM3\ARM_GCC_493\Debug\CorEx-Mux-Kernel.a(Input_iButton.o)
 .debug_aranges
                0x00001df8       0x28 .\CortexM3\ARM_GCC_493\Debug\CorEx-Mux-Kernel.a(Clock_iButton.o)
 .debug_aranges
                0x00001e20       0x70 .\CortexM3\ARM_GCC_493\Debug\CorEx-Mux-Kernel.a(ShiftReg_iButtonCRC3MSB.o)
 .debug_aranges
                0x00001e90       0x40 .\CortexM3\ARM_GCC_493\Debug\CorEx-Mux-Kernel.a(StatusReg_iButton5thCRCBit.o)
 .debug_aranges
                0x00001ed0       0x28 .\CortexM3\ARM_GCC_493\Debug\CorEx-Mux-Kernel.a(Reset_iButton.o)
 .debug_aranges
                0x00001ef8       0x80 .\CortexM3\ARM_GCC_493\Debug\CorEx-Mux-Kernel.a(CyFlash.o)
 .debug_aranges
                0x00001f78       0x78 .\CortexM3\ARM_GCC_493\Debug\CorEx-Mux-Kernel.a(CySpc.o)

.debug_pubnames
 *(.debug_pubnames)

.debug_info     0x00000000    0x1d34f
 *(.debug_info .gnu.linkonce.wi.*)
 .debug_info    0x00000000      0x4af .\CortexM3\ARM_GCC_493\Debug\UARTManager.o
 .debug_info    0x000004af      0x1c7 .\CortexM3\ARM_GCC_493\Debug\UARTResolver.o
 .debug_info    0x00000676       0xa7 .\CortexM3\ARM_GCC_493\Debug\UARTManagerSink.o
 .debug_info    0x0000071d      0x167 .\CortexM3\ARM_GCC_493\Debug\PseudoRTOS.o
 .debug_info    0x00000884      0x419 .\CortexM3\ARM_GCC_493\Debug\Utils.o
 .debug_info    0x00000c9d      0x1f6 .\CortexM3\ARM_GCC_493\Debug\Security.o
 .debug_info    0x00000e93      0x92f .\CortexM3\ARM_GCC_493\Debug\SinkManager.o
 .debug_info    0x000017c2      0x259 .\CortexM3\ARM_GCC_493\Debug\EepromManager.o
 .debug_info    0x00001a1b      0x211 .\CortexM3\ARM_GCC_493\Debug\RtcManager.o
 .debug_info    0x00001c2c       0xce .\CortexM3\ARM_GCC_493\Debug\Initializers.o
 .debug_info    0x00001cfa      0x3de .\CortexM3\ARM_GCC_493\Debug\Timers.o
 .debug_info    0x000020d8       0xf4 .\CortexM3\ARM_GCC_493\Debug\TestFile.o
 .debug_info    0x000021cc      0x13f .\CortexM3\ARM_GCC_493\Debug\AuxPSoC.o
 .debug_info    0x0000230b      0x2c6 .\CortexM3\ARM_GCC_493\Debug\WatchDogReset.o
 .debug_info    0x000025d1      0x435 .\CortexM3\ARM_GCC_493\Debug\DispenserResolver.o
 .debug_info    0x00002a06     0x1977 .\CortexM3\ARM_GCC_493\Debug\DispenserBLL.o
 .debug_info    0x0000437d      0xd35 .\CortexM3\ARM_GCC_493\Debug\DispenserSink.o
 .debug_info    0x000050b2     0x2e2f .\CortexM3\ARM_GCC_493\Debug\DisplayBLL.o
 .debug_info    0x00007ee1      0xcd0 .\CortexM3\ARM_GCC_493\Debug\DisplaySink.o
 .debug_info    0x00008bb1     0x20af .\CortexM3\ARM_GCC_493\Debug\DisplayUtils.o
 .debug_info    0x0000ac60      0x49e .\CortexM3\ARM_GCC_493\Debug\DisplayFlow.o
 .debug_info    0x0000b0fe      0x145 .\CortexM3\ARM_GCC_493\Debug\DisplayCharacterMap.o
 .debug_info    0x0000b243      0x77c .\CortexM3\ARM_GCC_493\Debug\DisplayBufferScreenMap.o
 .debug_info    0x0000b9bf      0x6a8 .\CortexM3\ARM_GCC_493\Debug\DisplayResolver.o
 .debug_info    0x0000c067      0xbfa .\CortexM3\ARM_GCC_493\Debug\PrinterBLL.o
 .debug_info    0x0000cc61      0x2ca .\CortexM3\ARM_GCC_493\Debug\PrinterSink.o
 .debug_info    0x0000cf2b       0xb8 .\CortexM3\ARM_GCC_493\Debug\PrinterResolver.o
 .debug_info    0x0000cfe3      0x303 .\CortexM3\ARM_GCC_493\Debug\PrinterTemplate.o
 .debug_info    0x0000d2e6      0x28e .\CortexM3\ARM_GCC_493\Debug\iButtonSink.o
 .debug_info    0x0000d574      0x414 .\CortexM3\ARM_GCC_493\Debug\iButtonBLL.o
 .debug_info    0x0000d988      0x214 .\CortexM3\ARM_GCC_493\Debug\iButtonProtocol.o
 .debug_info    0x0000db9c      0xf92 .\CortexM3\ARM_GCC_493\Debug\Prime.o
 .debug_info    0x0000eb2e      0x36e .\CortexM3\ARM_GCC_493\Debug\PrimeFlow.o
 .debug_info    0x0000ee9c     0x2a54 .\CortexM3\ARM_GCC_493\Debug\PrimeImpl.o
 .debug_info    0x000118f0       0xb5 .\CortexM3\ARM_GCC_493\Debug\Encore.o
 .debug_info    0x000119a5       0x8e .\CortexM3\ARM_GCC_493\Debug\EncoreFlow.o
 .debug_info    0x00011a33       0xb5 .\CortexM3\ARM_GCC_493\Debug\EncoreImpl.o
 .debug_info    0x00011ae8       0xb5 .\CortexM3\ARM_GCC_493\Debug\Advantage.o
 .debug_info    0x00011b9d       0x8e .\CortexM3\ARM_GCC_493\Debug\AdvantageFlow.o
 .debug_info    0x00011c2b       0xb5 .\CortexM3\ARM_GCC_493\Debug\AdvantageImpl.o
 .debug_info    0x00011ce0      0x60c .\CortexM3\ARM_GCC_493\Debug\RFSink.o
 .debug_info    0x000122ec      0x560 .\CortexM3\ARM_GCC_493\Debug\RFBLL.o
 .debug_info    0x0001284c      0xc4e .\CortexM3\ARM_GCC_493\Debug\RFResolver.o
 .debug_info    0x0001349a      0x52d .\CortexM3\ARM_GCC_493\Debug\RFServerStack.o
 .debug_info    0x000139c7     0x265d .\CortexM3\ARM_GCC_493\Debug\RFServerStackImpl.o
 .debug_info    0x00016024       0xff .\CortexM3\ARM_GCC_493\Debug\ClientDefinitions.o
 .debug_info    0x00016123       0xcb .\CortexM3\ARM_GCC_493\Debug\main.o
 .debug_info    0x000161ee      0x13f .\CortexM3\ARM_GCC_493\Debug\cymetadata.o
 .debug_info    0x0001632d      0x319 .\CortexM3\ARM_GCC_493\Debug\Cm3Start.o
 .debug_info    0x00016646      0x44b .\CortexM3\ARM_GCC_493\Debug\CorEx-Mux-Kernel.a(cyfitter_cfg.o)
 .debug_info    0x00016a91      0x5f1 .\CortexM3\ARM_GCC_493\Debug\CorEx-Mux-Kernel.a(RF_Physical.o)
 .debug_info    0x00017082      0x199 .\CortexM3\ARM_GCC_493\Debug\CorEx-Mux-Kernel.a(RF_Physical_INT.o)
 .debug_info    0x0001721b      0x25d .\CortexM3\ARM_GCC_493\Debug\CorEx-Mux-Kernel.a(RF_Physical_IntClock.o)
 .debug_info    0x00017478       0xaf .\CortexM3\ARM_GCC_493\Debug\CorEx-Mux-Kernel.a(CyBootAsmGnu.o)
 .debug_info    0x00017527      0xe36 .\CortexM3\ARM_GCC_493\Debug\CorEx-Mux-Kernel.a(CyLib.o)
 .debug_info    0x0001835d      0x562 .\CortexM3\ARM_GCC_493\Debug\CorEx-Mux-Kernel.a(cyPm.o)
 .debug_info    0x000188bf      0x1d5 .\CortexM3\ARM_GCC_493\Debug\CorEx-Mux-Kernel.a(CRC_Security.o)
 .debug_info    0x00018a94      0x204 .\CortexM3\ARM_GCC_493\Debug\CorEx-Mux-Kernel.a(ShiftReg_Security.o)
 .debug_info    0x00018c98       0xd7 .\CortexM3\ARM_GCC_493\Debug\CorEx-Mux-Kernel.a(Clock_CRC.o)
 .debug_info    0x00018d6f       0xd7 .\CortexM3\ARM_GCC_493\Debug\CorEx-Mux-Kernel.a(Reset_CRC.o)
 .debug_info    0x00018e46      0x503 .\CortexM3\ARM_GCC_493\Debug\CorEx-Mux-Kernel.a(Printer.o)
 .debug_info    0x00019349      0x5f0 .\CortexM3\ARM_GCC_493\Debug\CorEx-Mux-Kernel.a(Dispenser.o)
 .debug_info    0x00019939      0x198 .\CortexM3\ARM_GCC_493\Debug\CorEx-Mux-Kernel.a(Dispenser_INT.o)
 .debug_info    0x00019ad1      0x5eb .\CortexM3\ARM_GCC_493\Debug\CorEx-Mux-Kernel.a(Display1.o)
 .debug_info    0x0001a0bc      0x193 .\CortexM3\ARM_GCC_493\Debug\CorEx-Mux-Kernel.a(Display1_INT.o)
 .debug_info    0x0001a24f      0x5eb .\CortexM3\ARM_GCC_493\Debug\CorEx-Mux-Kernel.a(Display2.o)
 .debug_info    0x0001a83a      0x193 .\CortexM3\ARM_GCC_493\Debug\CorEx-Mux-Kernel.a(Display2_INT.o)
 .debug_info    0x0001a9cd      0x248 .\CortexM3\ARM_GCC_493\Debug\CorEx-Mux-Kernel.a(Counter_ISR.o)
 .debug_info    0x0001ac15      0x25d .\CortexM3\ARM_GCC_493\Debug\CorEx-Mux-Kernel.a(Display1_IntClock.o)
 .debug_info    0x0001ae72      0x25d .\CortexM3\ARM_GCC_493\Debug\CorEx-Mux-Kernel.a(Display2_IntClock.o)
 .debug_info    0x0001b0cf      0x1fa .\CortexM3\ARM_GCC_493\Debug\CorEx-Mux-Kernel.a(I2C_Bus.o)
 .debug_info    0x0001b2c9      0x14f .\CortexM3\ARM_GCC_493\Debug\CorEx-Mux-Kernel.a(I2C_Bus_INT.o)
 .debug_info    0x0001b418      0x193 .\CortexM3\ARM_GCC_493\Debug\CorEx-Mux-Kernel.a(I2C_Bus_PM.o)
 .debug_info    0x0001b5ab      0x3f1 .\CortexM3\ARM_GCC_493\Debug\CorEx-Mux-Kernel.a(I2C_Bus_MASTER.o)
 .debug_info    0x0001b99c      0x11e .\CortexM3\ARM_GCC_493\Debug\CorEx-Mux-Kernel.a(iButton1.o)
 .debug_info    0x0001baba      0x11e .\CortexM3\ARM_GCC_493\Debug\CorEx-Mux-Kernel.a(iButton2.o)
 .debug_info    0x0001bbd8      0x11e .\CortexM3\ARM_GCC_493\Debug\CorEx-Mux-Kernel.a(eepromWP.o)
 .debug_info    0x0001bcf6      0x254 .\CortexM3\ARM_GCC_493\Debug\CorEx-Mux-Kernel.a(Timer_DispenserState.o)
 .debug_info    0x0001bf4a      0x23a .\CortexM3\ARM_GCC_493\Debug\CorEx-Mux-Kernel.a(DispenserStateTimeout_ISR.o)
 .debug_info    0x0001c184      0x23e .\CortexM3\ARM_GCC_493\Debug\CorEx-Mux-Kernel.a(Timer_Tick.o)
 .debug_info    0x0001c3c2      0x204 .\CortexM3\ARM_GCC_493\Debug\CorEx-Mux-Kernel.a(ShiftReg_iButtonCRC4LSB.o)
 .debug_info    0x0001c5c6       0xd7 .\CortexM3\ARM_GCC_493\Debug\CorEx-Mux-Kernel.a(Input_iButton.o)
 .debug_info    0x0001c69d       0xd7 .\CortexM3\ARM_GCC_493\Debug\CorEx-Mux-Kernel.a(Clock_iButton.o)
 .debug_info    0x0001c774      0x204 .\CortexM3\ARM_GCC_493\Debug\CorEx-Mux-Kernel.a(ShiftReg_iButtonCRC3MSB.o)
 .debug_info    0x0001c978      0x13b .\CortexM3\ARM_GCC_493\Debug\CorEx-Mux-Kernel.a(StatusReg_iButton5thCRCBit.o)
 .debug_info    0x0001cab3       0xd7 .\CortexM3\ARM_GCC_493\Debug\CorEx-Mux-Kernel.a(Reset_iButton.o)
 .debug_info    0x0001cb8a      0x36c .\CortexM3\ARM_GCC_493\Debug\CorEx-Mux-Kernel.a(CyFlash.o)
 .debug_info    0x0001cef6      0x459 .\CortexM3\ARM_GCC_493\Debug\CorEx-Mux-Kernel.a(CySpc.o)

.debug_abbrev   0x00000000     0x60b8
 *(.debug_abbrev)
 .debug_abbrev  0x00000000      0x19b .\CortexM3\ARM_GCC_493\Debug\UARTManager.o
 .debug_abbrev  0x0000019b       0xf2 .\CortexM3\ARM_GCC_493\Debug\UARTResolver.o
 .debug_abbrev  0x0000028d       0x40 .\CortexM3\ARM_GCC_493\Debug\UARTManagerSink.o
 .debug_abbrev  0x000002cd       0xdd .\CortexM3\ARM_GCC_493\Debug\PseudoRTOS.o
 .debug_abbrev  0x000003aa      0x109 .\CortexM3\ARM_GCC_493\Debug\Utils.o
 .debug_abbrev  0x000004b3       0xe0 .\CortexM3\ARM_GCC_493\Debug\Security.o
 .debug_abbrev  0x00000593      0x21c .\CortexM3\ARM_GCC_493\Debug\SinkManager.o
 .debug_abbrev  0x000007af      0x11e .\CortexM3\ARM_GCC_493\Debug\EepromManager.o
 .debug_abbrev  0x000008cd       0xd9 .\CortexM3\ARM_GCC_493\Debug\RtcManager.o
 .debug_abbrev  0x000009a6       0x65 .\CortexM3\ARM_GCC_493\Debug\Initializers.o
 .debug_abbrev  0x00000a0b      0x130 .\CortexM3\ARM_GCC_493\Debug\Timers.o
 .debug_abbrev  0x00000b3b       0x95 .\CortexM3\ARM_GCC_493\Debug\TestFile.o
 .debug_abbrev  0x00000bd0       0x9f .\CortexM3\ARM_GCC_493\Debug\AuxPSoC.o
 .debug_abbrev  0x00000c6f      0x11b .\CortexM3\ARM_GCC_493\Debug\WatchDogReset.o
 .debug_abbrev  0x00000d8a      0x18e .\CortexM3\ARM_GCC_493\Debug\DispenserResolver.o
 .debug_abbrev  0x00000f18      0x24c .\CortexM3\ARM_GCC_493\Debug\DispenserBLL.o
 .debug_abbrev  0x00001164      0x1f9 .\CortexM3\ARM_GCC_493\Debug\DispenserSink.o
 .debug_abbrev  0x0000135d      0x298 .\CortexM3\ARM_GCC_493\Debug\DisplayBLL.o
 .debug_abbrev  0x000015f5      0x1a1 .\CortexM3\ARM_GCC_493\Debug\DisplaySink.o
 .debug_abbrev  0x00001796      0x2c7 .\CortexM3\ARM_GCC_493\Debug\DisplayUtils.o
 .debug_abbrev  0x00001a5d       0xcf .\CortexM3\ARM_GCC_493\Debug\DisplayFlow.o
 .debug_abbrev  0x00001b2c       0xc6 .\CortexM3\ARM_GCC_493\Debug\DisplayCharacterMap.o
 .debug_abbrev  0x00001bf2      0x184 .\CortexM3\ARM_GCC_493\Debug\DisplayBufferScreenMap.o
 .debug_abbrev  0x00001d76      0x16e .\CortexM3\ARM_GCC_493\Debug\DisplayResolver.o
 .debug_abbrev  0x00001ee4      0x1fb .\CortexM3\ARM_GCC_493\Debug\PrinterBLL.o
 .debug_abbrev  0x000020df      0x112 .\CortexM3\ARM_GCC_493\Debug\PrinterSink.o
 .debug_abbrev  0x000021f1       0x58 .\CortexM3\ARM_GCC_493\Debug\PrinterResolver.o
 .debug_abbrev  0x00002249       0xf4 .\CortexM3\ARM_GCC_493\Debug\PrinterTemplate.o
 .debug_abbrev  0x0000233d       0xf4 .\CortexM3\ARM_GCC_493\Debug\iButtonSink.o
 .debug_abbrev  0x00002431      0x17a .\CortexM3\ARM_GCC_493\Debug\iButtonBLL.o
 .debug_abbrev  0x000025ab       0xda .\CortexM3\ARM_GCC_493\Debug\iButtonProtocol.o
 .debug_abbrev  0x00002685      0x253 .\CortexM3\ARM_GCC_493\Debug\Prime.o
 .debug_abbrev  0x000028d8      0x120 .\CortexM3\ARM_GCC_493\Debug\PrimeFlow.o
 .debug_abbrev  0x000029f8      0x2cb .\CortexM3\ARM_GCC_493\Debug\PrimeImpl.o
 .debug_abbrev  0x00002cc3       0x4b .\CortexM3\ARM_GCC_493\Debug\Encore.o
 .debug_abbrev  0x00002d0e       0x26 .\CortexM3\ARM_GCC_493\Debug\EncoreFlow.o
 .debug_abbrev  0x00002d34       0x4b .\CortexM3\ARM_GCC_493\Debug\EncoreImpl.o
 .debug_abbrev  0x00002d7f       0x4b .\CortexM3\ARM_GCC_493\Debug\Advantage.o
 .debug_abbrev  0x00002dca       0x26 .\CortexM3\ARM_GCC_493\Debug\AdvantageFlow.o
 .debug_abbrev  0x00002df0       0x4b .\CortexM3\ARM_GCC_493\Debug\AdvantageImpl.o
 .debug_abbrev  0x00002e3b      0x173 .\CortexM3\ARM_GCC_493\Debug\RFSink.o
 .debug_abbrev  0x00002fae      0x19e .\CortexM3\ARM_GCC_493\Debug\RFBLL.o
 .debug_abbrev  0x0000314c      0x214 .\CortexM3\ARM_GCC_493\Debug\RFResolver.o
 .debug_abbrev  0x00003360      0x172 .\CortexM3\ARM_GCC_493\Debug\RFServerStack.o
 .debug_abbrev  0x000034d2      0x281 .\CortexM3\ARM_GCC_493\Debug\RFServerStackImpl.o
 .debug_abbrev  0x00003753       0x66 .\CortexM3\ARM_GCC_493\Debug\ClientDefinitions.o
 .debug_abbrev  0x000037b9       0x67 .\CortexM3\ARM_GCC_493\Debug\main.o
 .debug_abbrev  0x00003820       0x77 .\CortexM3\ARM_GCC_493\Debug\cymetadata.o
 .debug_abbrev  0x00003897      0x1b6 .\CortexM3\ARM_GCC_493\Debug\Cm3Start.o
 .debug_abbrev  0x00003a4d      0x1b7 .\CortexM3\ARM_GCC_493\Debug\CorEx-Mux-Kernel.a(cyfitter_cfg.o)
 .debug_abbrev  0x00003c04      0x15f .\CortexM3\ARM_GCC_493\Debug\CorEx-Mux-Kernel.a(RF_Physical.o)
 .debug_abbrev  0x00003d63       0xa2 .\CortexM3\ARM_GCC_493\Debug\CorEx-Mux-Kernel.a(RF_Physical_INT.o)
 .debug_abbrev  0x00003e05      0x11d .\CortexM3\ARM_GCC_493\Debug\CorEx-Mux-Kernel.a(RF_Physical_IntClock.o)
 .debug_abbrev  0x00003f22       0x14 .\CortexM3\ARM_GCC_493\Debug\CorEx-Mux-Kernel.a(CyBootAsmGnu.o)
 .debug_abbrev  0x00003f36      0x217 .\CortexM3\ARM_GCC_493\Debug\CorEx-Mux-Kernel.a(CyLib.o)
 .debug_abbrev  0x0000414d      0x161 .\CortexM3\ARM_GCC_493\Debug\CorEx-Mux-Kernel.a(cyPm.o)
 .debug_abbrev  0x000042ae      0x123 .\CortexM3\ARM_GCC_493\Debug\CorEx-Mux-Kernel.a(CRC_Security.o)
 .debug_abbrev  0x000043d1      0x129 .\CortexM3\ARM_GCC_493\Debug\CorEx-Mux-Kernel.a(ShiftReg_Security.o)
 .debug_abbrev  0x000044fa       0x81 .\CortexM3\ARM_GCC_493\Debug\CorEx-Mux-Kernel.a(Clock_CRC.o)
 .debug_abbrev  0x0000457b       0x81 .\CortexM3\ARM_GCC_493\Debug\CorEx-Mux-Kernel.a(Reset_CRC.o)
 .debug_abbrev  0x000045fc      0x163 .\CortexM3\ARM_GCC_493\Debug\CorEx-Mux-Kernel.a(Printer.o)
 .debug_abbrev  0x0000475f      0x15f .\CortexM3\ARM_GCC_493\Debug\CorEx-Mux-Kernel.a(Dispenser.o)
 .debug_abbrev  0x000048be       0xa2 .\CortexM3\ARM_GCC_493\Debug\CorEx-Mux-Kernel.a(Dispenser_INT.o)
 .debug_abbrev  0x00004960      0x15f .\CortexM3\ARM_GCC_493\Debug\CorEx-Mux-Kernel.a(Display1.o)
 .debug_abbrev  0x00004abf       0xa2 .\CortexM3\ARM_GCC_493\Debug\CorEx-Mux-Kernel.a(Display1_INT.o)
 .debug_abbrev  0x00004b61      0x15f .\CortexM3\ARM_GCC_493\Debug\CorEx-Mux-Kernel.a(Display2.o)
 .debug_abbrev  0x00004cc0       0xa2 .\CortexM3\ARM_GCC_493\Debug\CorEx-Mux-Kernel.a(Display2_INT.o)
 .debug_abbrev  0x00004d62      0x172 .\CortexM3\ARM_GCC_493\Debug\CorEx-Mux-Kernel.a(Counter_ISR.o)
 .debug_abbrev  0x00004ed4      0x11d .\CortexM3\ARM_GCC_493\Debug\CorEx-Mux-Kernel.a(Display1_IntClock.o)
 .debug_abbrev  0x00004ff1      0x11d .\CortexM3\ARM_GCC_493\Debug\CorEx-Mux-Kernel.a(Display2_IntClock.o)
 .debug_abbrev  0x0000510e       0xe2 .\CortexM3\ARM_GCC_493\Debug\CorEx-Mux-Kernel.a(I2C_Bus.o)
 .debug_abbrev  0x000051f0       0x81 .\CortexM3\ARM_GCC_493\Debug\CorEx-Mux-Kernel.a(I2C_Bus_INT.o)
 .debug_abbrev  0x00005271       0xf8 .\CortexM3\ARM_GCC_493\Debug\CorEx-Mux-Kernel.a(I2C_Bus_PM.o)
 .debug_abbrev  0x00005369      0x11e .\CortexM3\ARM_GCC_493\Debug\CorEx-Mux-Kernel.a(I2C_Bus_MASTER.o)
 .debug_abbrev  0x00005487       0x90 .\CortexM3\ARM_GCC_493\Debug\CorEx-Mux-Kernel.a(iButton1.o)
 .debug_abbrev  0x00005517       0x90 .\CortexM3\ARM_GCC_493\Debug\CorEx-Mux-Kernel.a(iButton2.o)
 .debug_abbrev  0x000055a7       0x90 .\CortexM3\ARM_GCC_493\Debug\CorEx-Mux-Kernel.a(eepromWP.o)
 .debug_abbrev  0x00005637      0x11b .\CortexM3\ARM_GCC_493\Debug\CorEx-Mux-Kernel.a(Timer_DispenserState.o)
 .debug_abbrev  0x00005752      0x172 .\CortexM3\ARM_GCC_493\Debug\CorEx-Mux-Kernel.a(DispenserStateTimeout_ISR.o)
 .debug_abbrev  0x000058c4       0xe9 .\CortexM3\ARM_GCC_493\Debug\CorEx-Mux-Kernel.a(Timer_Tick.o)
 .debug_abbrev  0x000059ad      0x129 .\CortexM3\ARM_GCC_493\Debug\CorEx-Mux-Kernel.a(ShiftReg_iButtonCRC4LSB.o)
 .debug_abbrev  0x00005ad6       0x81 .\CortexM3\ARM_GCC_493\Debug\CorEx-Mux-Kernel.a(Input_iButton.o)
 .debug_abbrev  0x00005b57       0x81 .\CortexM3\ARM_GCC_493\Debug\CorEx-Mux-Kernel.a(Clock_iButton.o)
 .debug_abbrev  0x00005bd8      0x129 .\CortexM3\ARM_GCC_493\Debug\CorEx-Mux-Kernel.a(ShiftReg_iButtonCRC3MSB.o)
 .debug_abbrev  0x00005d01       0xaa .\CortexM3\ARM_GCC_493\Debug\CorEx-Mux-Kernel.a(StatusReg_iButton5thCRCBit.o)
 .debug_abbrev  0x00005dab       0x81 .\CortexM3\ARM_GCC_493\Debug\CorEx-Mux-Kernel.a(Reset_iButton.o)
 .debug_abbrev  0x00005e2c      0x120 .\CortexM3\ARM_GCC_493\Debug\CorEx-Mux-Kernel.a(CyFlash.o)
 .debug_abbrev  0x00005f4c      0x16c .\CortexM3\ARM_GCC_493\Debug\CorEx-Mux-Kernel.a(CySpc.o)

.debug_line     0x00000000     0xb80a
 *(.debug_line)
 .debug_line    0x00000000      0x21e .\CortexM3\ARM_GCC_493\Debug\UARTManager.o
 .debug_line    0x0000021e       0x85 .\CortexM3\ARM_GCC_493\Debug\UARTResolver.o
 .debug_line    0x000002a3       0x44 .\CortexM3\ARM_GCC_493\Debug\UARTManagerSink.o
 .debug_line    0x000002e7      0x175 .\CortexM3\ARM_GCC_493\Debug\PseudoRTOS.o
 .debug_line    0x0000045c      0x1dc .\CortexM3\ARM_GCC_493\Debug\Utils.o
 .debug_line    0x00000638      0x202 .\CortexM3\ARM_GCC_493\Debug\Security.o
 .debug_line    0x0000083a      0x4ef .\CortexM3\ARM_GCC_493\Debug\SinkManager.o
 .debug_line    0x00000d29      0x22f .\CortexM3\ARM_GCC_493\Debug\EepromManager.o
 .debug_line    0x00000f58       0xe4 .\CortexM3\ARM_GCC_493\Debug\RtcManager.o
 .debug_line    0x0000103c      0x16e .\CortexM3\ARM_GCC_493\Debug\Initializers.o
 .debug_line    0x000011aa      0x1ce .\CortexM3\ARM_GCC_493\Debug\Timers.o
 .debug_line    0x00001378      0x16d .\CortexM3\ARM_GCC_493\Debug\TestFile.o
 .debug_line    0x000014e5      0x198 .\CortexM3\ARM_GCC_493\Debug\AuxPSoC.o
 .debug_line    0x0000167d      0x1c0 .\CortexM3\ARM_GCC_493\Debug\WatchDogReset.o
 .debug_line    0x0000183d      0x1c4 .\CortexM3\ARM_GCC_493\Debug\DispenserResolver.o
 .debug_line    0x00001a01      0x673 .\CortexM3\ARM_GCC_493\Debug\DispenserBLL.o
 .debug_line    0x00002074      0x307 .\CortexM3\ARM_GCC_493\Debug\DispenserSink.o
 .debug_line    0x0000237b      0xb03 .\CortexM3\ARM_GCC_493\Debug\DisplayBLL.o
 .debug_line    0x00002e7e      0x196 .\CortexM3\ARM_GCC_493\Debug\DisplaySink.o
 .debug_line    0x00003014      0xa9c .\CortexM3\ARM_GCC_493\Debug\DisplayUtils.o
 .debug_line    0x00003ab0       0x63 .\CortexM3\ARM_GCC_493\Debug\DisplayFlow.o
 .debug_line    0x00003b13       0x88 .\CortexM3\ARM_GCC_493\Debug\DisplayCharacterMap.o
 .debug_line    0x00003b9b       0xf5 .\CortexM3\ARM_GCC_493\Debug\DisplayBufferScreenMap.o
 .debug_line    0x00003c90      0x247 .\CortexM3\ARM_GCC_493\Debug\DisplayResolver.o
 .debug_line    0x00003ed7      0x478 .\CortexM3\ARM_GCC_493\Debug\PrinterBLL.o
 .debug_line    0x0000434f       0xb4 .\CortexM3\ARM_GCC_493\Debug\PrinterSink.o
 .debug_line    0x00004403       0x44 .\CortexM3\ARM_GCC_493\Debug\PrinterResolver.o
 .debug_line    0x00004447       0xb8 .\CortexM3\ARM_GCC_493\Debug\PrinterTemplate.o
 .debug_line    0x000044ff      0x19b .\CortexM3\ARM_GCC_493\Debug\iButtonSink.o
 .debug_line    0x0000469a      0x279 .\CortexM3\ARM_GCC_493\Debug\iButtonBLL.o
 .debug_line    0x00004913      0x250 .\CortexM3\ARM_GCC_493\Debug\iButtonProtocol.o
 .debug_line    0x00004b63      0x43e .\CortexM3\ARM_GCC_493\Debug\Prime.o
 .debug_line    0x00004fa1      0x174 .\CortexM3\ARM_GCC_493\Debug\PrimeFlow.o
 .debug_line    0x00005115      0xd37 .\CortexM3\ARM_GCC_493\Debug\PrimeImpl.o
 .debug_line    0x00005e4c      0x13a .\CortexM3\ARM_GCC_493\Debug\Encore.o
 .debug_line    0x00005f86       0x1d .\CortexM3\ARM_GCC_493\Debug\EncoreFlow.o
 .debug_line    0x00005fa3      0x13a .\CortexM3\ARM_GCC_493\Debug\EncoreImpl.o
 .debug_line    0x000060dd      0x13a .\CortexM3\ARM_GCC_493\Debug\Advantage.o
 .debug_line    0x00006217       0x1d .\CortexM3\ARM_GCC_493\Debug\AdvantageFlow.o
 .debug_line    0x00006234      0x13a .\CortexM3\ARM_GCC_493\Debug\AdvantageImpl.o
 .debug_line    0x0000636e      0x1f8 .\CortexM3\ARM_GCC_493\Debug\RFSink.o
 .debug_line    0x00006566       0xce .\CortexM3\ARM_GCC_493\Debug\RFBLL.o
 .debug_line    0x00006634      0x266 .\CortexM3\ARM_GCC_493\Debug\RFResolver.o
 .debug_line    0x0000689a      0x120 .\CortexM3\ARM_GCC_493\Debug\RFServerStack.o
 .debug_line    0x000069ba      0xc8b .\CortexM3\ARM_GCC_493\Debug\RFServerStackImpl.o
 .debug_line    0x00007645       0x5a .\CortexM3\ARM_GCC_493\Debug\ClientDefinitions.o
 .debug_line    0x0000769f      0x161 .\CortexM3\ARM_GCC_493\Debug\main.o
 .debug_line    0x00007800       0x53 .\CortexM3\ARM_GCC_493\Debug\cymetadata.o
 .debug_line    0x00007853      0x1d6 .\CortexM3\ARM_GCC_493\Debug\Cm3Start.o
 .debug_line    0x00007a29      0x225 .\CortexM3\ARM_GCC_493\Debug\CorEx-Mux-Kernel.a(cyfitter_cfg.o)
 .debug_line    0x00007c4e      0x313 .\CortexM3\ARM_GCC_493\Debug\CorEx-Mux-Kernel.a(RF_Physical.o)
 .debug_line    0x00007f61       0xab .\CortexM3\ARM_GCC_493\Debug\CorEx-Mux-Kernel.a(RF_Physical_INT.o)
 .debug_line    0x0000800c      0x1c8 .\CortexM3\ARM_GCC_493\Debug\CorEx-Mux-Kernel.a(RF_Physical_IntClock.o)
 .debug_line    0x000081d4       0x68 .\CortexM3\ARM_GCC_493\Debug\CorEx-Mux-Kernel.a(CyBootAsmGnu.o)
 .debug_line    0x0000823c      0x872 .\CortexM3\ARM_GCC_493\Debug\CorEx-Mux-Kernel.a(CyLib.o)
 .debug_line    0x00008aae      0x381 .\CortexM3\ARM_GCC_493\Debug\CorEx-Mux-Kernel.a(cyPm.o)
 .debug_line    0x00008e2f      0x120 .\CortexM3\ARM_GCC_493\Debug\CorEx-Mux-Kernel.a(CRC_Security.o)
 .debug_line    0x00008f4f      0x13b .\CortexM3\ARM_GCC_493\Debug\CorEx-Mux-Kernel.a(ShiftReg_Security.o)
 .debug_line    0x0000908a       0x74 .\CortexM3\ARM_GCC_493\Debug\CorEx-Mux-Kernel.a(Clock_CRC.o)
 .debug_line    0x000090fe       0x74 .\CortexM3\ARM_GCC_493\Debug\CorEx-Mux-Kernel.a(Reset_CRC.o)
 .debug_line    0x00009172      0x2e7 .\CortexM3\ARM_GCC_493\Debug\CorEx-Mux-Kernel.a(Printer.o)
 .debug_line    0x00009459      0x30f .\CortexM3\ARM_GCC_493\Debug\CorEx-Mux-Kernel.a(Dispenser.o)
 .debug_line    0x00009768       0xa7 .\CortexM3\ARM_GCC_493\Debug\CorEx-Mux-Kernel.a(Dispenser_INT.o)
 .debug_line    0x0000980f      0x310 .\CortexM3\ARM_GCC_493\Debug\CorEx-Mux-Kernel.a(Display1.o)
 .debug_line    0x00009b1f       0xa5 .\CortexM3\ARM_GCC_493\Debug\CorEx-Mux-Kernel.a(Display1_INT.o)
 .debug_line    0x00009bc4      0x310 .\CortexM3\ARM_GCC_493\Debug\CorEx-Mux-Kernel.a(Display2.o)
 .debug_line    0x00009ed4       0xa5 .\CortexM3\ARM_GCC_493\Debug\CorEx-Mux-Kernel.a(Display2_INT.o)
 .debug_line    0x00009f79      0x170 .\CortexM3\ARM_GCC_493\Debug\CorEx-Mux-Kernel.a(Counter_ISR.o)
 .debug_line    0x0000a0e9      0x1c5 .\CortexM3\ARM_GCC_493\Debug\CorEx-Mux-Kernel.a(Display1_IntClock.o)
 .debug_line    0x0000a2ae      0x1c5 .\CortexM3\ARM_GCC_493\Debug\CorEx-Mux-Kernel.a(Display2_IntClock.o)
 .debug_line    0x0000a473       0xe3 .\CortexM3\ARM_GCC_493\Debug\CorEx-Mux-Kernel.a(I2C_Bus.o)
 .debug_line    0x0000a556      0x11c .\CortexM3\ARM_GCC_493\Debug\CorEx-Mux-Kernel.a(I2C_Bus_INT.o)
 .debug_line    0x0000a672       0xc2 .\CortexM3\ARM_GCC_493\Debug\CorEx-Mux-Kernel.a(I2C_Bus_PM.o)
 .debug_line    0x0000a734      0x1f1 .\CortexM3\ARM_GCC_493\Debug\CorEx-Mux-Kernel.a(I2C_Bus_MASTER.o)
 .debug_line    0x0000a925       0x99 .\CortexM3\ARM_GCC_493\Debug\CorEx-Mux-Kernel.a(iButton1.o)
 .debug_line    0x0000a9be       0x99 .\CortexM3\ARM_GCC_493\Debug\CorEx-Mux-Kernel.a(iButton2.o)
 .debug_line    0x0000aa57       0x99 .\CortexM3\ARM_GCC_493\Debug\CorEx-Mux-Kernel.a(eepromWP.o)
 .debug_line    0x0000aaf0      0x17f .\CortexM3\ARM_GCC_493\Debug\CorEx-Mux-Kernel.a(Timer_DispenserState.o)
 .debug_line    0x0000ac6f      0x16d .\CortexM3\ARM_GCC_493\Debug\CorEx-Mux-Kernel.a(DispenserStateTimeout_ISR.o)
 .debug_line    0x0000addc      0x164 .\CortexM3\ARM_GCC_493\Debug\CorEx-Mux-Kernel.a(Timer_Tick.o)
 .debug_line    0x0000af40      0x142 .\CortexM3\ARM_GCC_493\Debug\CorEx-Mux-Kernel.a(ShiftReg_iButtonCRC4LSB.o)
 .debug_line    0x0000b082       0x78 .\CortexM3\ARM_GCC_493\Debug\CorEx-Mux-Kernel.a(Input_iButton.o)
 .debug_line    0x0000b0fa       0x78 .\CortexM3\ARM_GCC_493\Debug\CorEx-Mux-Kernel.a(Clock_iButton.o)
 .debug_line    0x0000b172      0x142 .\CortexM3\ARM_GCC_493\Debug\CorEx-Mux-Kernel.a(ShiftReg_iButtonCRC3MSB.o)
 .debug_line    0x0000b2b4       0xc0 .\CortexM3\ARM_GCC_493\Debug\CorEx-Mux-Kernel.a(StatusReg_iButton5thCRCBit.o)
 .debug_line    0x0000b374       0x78 .\CortexM3\ARM_GCC_493\Debug\CorEx-Mux-Kernel.a(Reset_iButton.o)
 .debug_line    0x0000b3ec      0x207 .\CortexM3\ARM_GCC_493\Debug\CorEx-Mux-Kernel.a(CyFlash.o)
 .debug_line    0x0000b5f3      0x217 .\CortexM3\ARM_GCC_493\Debug\CorEx-Mux-Kernel.a(CySpc.o)

.debug_frame    0x00000000     0x804c
 *(.debug_frame)
 .debug_frame   0x00000000       0xdc .\CortexM3\ARM_GCC_493\Debug\UARTManager.o
 .debug_frame   0x000000dc       0x38 .\CortexM3\ARM_GCC_493\Debug\UARTResolver.o
 .debug_frame   0x00000114       0x34 .\CortexM3\ARM_GCC_493\Debug\UARTManagerSink.o
 .debug_frame   0x00000148       0x60 .\CortexM3\ARM_GCC_493\Debug\PseudoRTOS.o
 .debug_frame   0x000001a8      0x1b8 .\CortexM3\ARM_GCC_493\Debug\Utils.o
 .debug_frame   0x00000360       0xc0 .\CortexM3\ARM_GCC_493\Debug\Security.o
 .debug_frame   0x00000420      0x2a0 .\CortexM3\ARM_GCC_493\Debug\SinkManager.o
 .debug_frame   0x000006c0       0xe8 .\CortexM3\ARM_GCC_493\Debug\EepromManager.o
 .debug_frame   0x000007a8       0xc8 .\CortexM3\ARM_GCC_493\Debug\RtcManager.o
 .debug_frame   0x00000870       0x2c .\CortexM3\ARM_GCC_493\Debug\Initializers.o
 .debug_frame   0x0000089c       0x7c .\CortexM3\ARM_GCC_493\Debug\Timers.o
 .debug_frame   0x00000918       0x5c .\CortexM3\ARM_GCC_493\Debug\TestFile.o
 .debug_frame   0x00000974       0x38 .\CortexM3\ARM_GCC_493\Debug\AuxPSoC.o
 .debug_frame   0x000009ac       0x70 .\CortexM3\ARM_GCC_493\Debug\WatchDogReset.o
 .debug_frame   0x00000a1c       0x60 .\CortexM3\ARM_GCC_493\Debug\DispenserResolver.o
 .debug_frame   0x00000a7c      0x2e8 .\CortexM3\ARM_GCC_493\Debug\DispenserBLL.o
 .debug_frame   0x00000d64       0xdc .\CortexM3\ARM_GCC_493\Debug\DispenserSink.o
 .debug_frame   0x00000e40      0x68c .\CortexM3\ARM_GCC_493\Debug\DisplayBLL.o
 .debug_frame   0x000014cc       0x8c .\CortexM3\ARM_GCC_493\Debug\DisplaySink.o
 .debug_frame   0x00001558      0x590 .\CortexM3\ARM_GCC_493\Debug\DisplayUtils.o
 .debug_frame   0x00001ae8       0x38 .\CortexM3\ARM_GCC_493\Debug\DisplayCharacterMap.o
 .debug_frame   0x00001b20       0x88 .\CortexM3\ARM_GCC_493\Debug\DisplayBufferScreenMap.o
 .debug_frame   0x00001ba8       0xb0 .\CortexM3\ARM_GCC_493\Debug\DisplayResolver.o
 .debug_frame   0x00001c58      0x26c .\CortexM3\ARM_GCC_493\Debug\PrinterBLL.o
 .debug_frame   0x00001ec4       0x38 .\CortexM3\ARM_GCC_493\Debug\PrinterSink.o
 .debug_frame   0x00001efc       0x38 .\CortexM3\ARM_GCC_493\Debug\PrinterResolver.o
 .debug_frame   0x00001f34       0x88 .\CortexM3\ARM_GCC_493\Debug\PrinterTemplate.o
 .debug_frame   0x00001fbc       0x38 .\CortexM3\ARM_GCC_493\Debug\iButtonSink.o
 .debug_frame   0x00001ff4       0xd0 .\CortexM3\ARM_GCC_493\Debug\iButtonBLL.o
 .debug_frame   0x000020c4       0x88 .\CortexM3\ARM_GCC_493\Debug\iButtonProtocol.o
 .debug_frame   0x0000214c      0x290 .\CortexM3\ARM_GCC_493\Debug\Prime.o
 .debug_frame   0x000023dc       0x38 .\CortexM3\ARM_GCC_493\Debug\PrimeFlow.o
 .debug_frame   0x00002414      0x8fc .\CortexM3\ARM_GCC_493\Debug\PrimeImpl.o
 .debug_frame   0x00002d10       0x60 .\CortexM3\ARM_GCC_493\Debug\RFSink.o
 .debug_frame   0x00002d70       0x88 .\CortexM3\ARM_GCC_493\Debug\RFBLL.o
 .debug_frame   0x00002df8       0x60 .\CortexM3\ARM_GCC_493\Debug\RFResolver.o
 .debug_frame   0x00002e58       0xd8 .\CortexM3\ARM_GCC_493\Debug\RFServerStack.o
 .debug_frame   0x00002f30      0x3b8 .\CortexM3\ARM_GCC_493\Debug\RFServerStackImpl.o
 .debug_frame   0x000032e8       0x2c .\CortexM3\ARM_GCC_493\Debug\main.o
 .debug_frame   0x00003314       0xd8 .\CortexM3\ARM_GCC_493\Debug\Cm3Start.o
 .debug_frame   0x000033ec      0x16c .\CortexM3\ARM_GCC_493\Debug\CorEx-Mux-Kernel.a(cyfitter_cfg.o)
 .debug_frame   0x00003558      0x428 .\CortexM3\ARM_GCC_493\Debug\CorEx-Mux-Kernel.a(RF_Physical.o)
 .debug_frame   0x00003980       0x38 .\CortexM3\ARM_GCC_493\Debug\CorEx-Mux-Kernel.a(RF_Physical_INT.o)
 .debug_frame   0x000039b8      0x1b4 .\CortexM3\ARM_GCC_493\Debug\CorEx-Mux-Kernel.a(RF_Physical_IntClock.o)
 .debug_frame   0x00003b6c      0xbe8 .\CortexM3\ARM_GCC_493\Debug\CorEx-Mux-Kernel.a(CyLib.o)
 .debug_frame   0x00004754      0x234 .\CortexM3\ARM_GCC_493\Debug\CorEx-Mux-Kernel.a(cyPm.o)
 .debug_frame   0x00004988      0x150 .\CortexM3\ARM_GCC_493\Debug\CorEx-Mux-Kernel.a(CRC_Security.o)
 .debug_frame   0x00004ad8      0x194 .\CortexM3\ARM_GCC_493\Debug\CorEx-Mux-Kernel.a(ShiftReg_Security.o)
 .debug_frame   0x00004c6c       0x5c .\CortexM3\ARM_GCC_493\Debug\CorEx-Mux-Kernel.a(Clock_CRC.o)
 .debug_frame   0x00004cc8       0x5c .\CortexM3\ARM_GCC_493\Debug\CorEx-Mux-Kernel.a(Reset_CRC.o)
 .debug_frame   0x00004d24      0x42c .\CortexM3\ARM_GCC_493\Debug\CorEx-Mux-Kernel.a(Printer.o)
 .debug_frame   0x00005150      0x428 .\CortexM3\ARM_GCC_493\Debug\CorEx-Mux-Kernel.a(Dispenser.o)
 .debug_frame   0x00005578       0x38 .\CortexM3\ARM_GCC_493\Debug\CorEx-Mux-Kernel.a(Dispenser_INT.o)
 .debug_frame   0x000055b0      0x428 .\CortexM3\ARM_GCC_493\Debug\CorEx-Mux-Kernel.a(Display1.o)
 .debug_frame   0x000059d8       0x38 .\CortexM3\ARM_GCC_493\Debug\CorEx-Mux-Kernel.a(Display1_INT.o)
 .debug_frame   0x00005a10      0x428 .\CortexM3\ARM_GCC_493\Debug\CorEx-Mux-Kernel.a(Display2.o)
 .debug_frame   0x00005e38       0x38 .\CortexM3\ARM_GCC_493\Debug\CorEx-Mux-Kernel.a(Display2_INT.o)
 .debug_frame   0x00005e70      0x1e8 .\CortexM3\ARM_GCC_493\Debug\CorEx-Mux-Kernel.a(Counter_ISR.o)
 .debug_frame   0x00006058      0x1b4 .\CortexM3\ARM_GCC_493\Debug\CorEx-Mux-Kernel.a(Display1_IntClock.o)
 .debug_frame   0x0000620c      0x1b4 .\CortexM3\ARM_GCC_493\Debug\CorEx-Mux-Kernel.a(Display2_IntClock.o)
 .debug_frame   0x000063c0       0x98 .\CortexM3\ARM_GCC_493\Debug\CorEx-Mux-Kernel.a(I2C_Bus.o)
 .debug_frame   0x00006458       0x38 .\CortexM3\ARM_GCC_493\Debug\CorEx-Mux-Kernel.a(I2C_Bus_INT.o)
 .debug_frame   0x00006490       0x94 .\CortexM3\ARM_GCC_493\Debug\CorEx-Mux-Kernel.a(I2C_Bus_PM.o)
 .debug_frame   0x00006524      0x208 .\CortexM3\ARM_GCC_493\Debug\CorEx-Mux-Kernel.a(I2C_Bus_MASTER.o)
 .debug_frame   0x0000672c       0xa8 .\CortexM3\ARM_GCC_493\Debug\CorEx-Mux-Kernel.a(iButton1.o)
 .debug_frame   0x000067d4       0xa8 .\CortexM3\ARM_GCC_493\Debug\CorEx-Mux-Kernel.a(iButton2.o)
 .debug_frame   0x0000687c       0xa8 .\CortexM3\ARM_GCC_493\Debug\CorEx-Mux-Kernel.a(eepromWP.o)
 .debug_frame   0x00006924      0x230 .\CortexM3\ARM_GCC_493\Debug\CorEx-Mux-Kernel.a(Timer_DispenserState.o)
 .debug_frame   0x00006b54      0x1e8 .\CortexM3\ARM_GCC_493\Debug\CorEx-Mux-Kernel.a(DispenserStateTimeout_ISR.o)
 .debug_frame   0x00006d3c      0x208 .\CortexM3\ARM_GCC_493\Debug\CorEx-Mux-Kernel.a(Timer_Tick.o)
 .debug_frame   0x00006f44      0x194 .\CortexM3\ARM_GCC_493\Debug\CorEx-Mux-Kernel.a(ShiftReg_iButtonCRC4LSB.o)
 .debug_frame   0x000070d8       0x5c .\CortexM3\ARM_GCC_493\Debug\CorEx-Mux-Kernel.a(Input_iButton.o)
 .debug_frame   0x00007134       0x5c .\CortexM3\ARM_GCC_493\Debug\CorEx-Mux-Kernel.a(Clock_iButton.o)
 .debug_frame   0x00007190      0x194 .\CortexM3\ARM_GCC_493\Debug\CorEx-Mux-Kernel.a(ShiftReg_iButtonCRC3MSB.o)
 .debug_frame   0x00007324       0xd0 .\CortexM3\ARM_GCC_493\Debug\CorEx-Mux-Kernel.a(StatusReg_iButton5thCRCBit.o)
 .debug_frame   0x000073f4       0x5c .\CortexM3\ARM_GCC_493\Debug\CorEx-Mux-Kernel.a(Reset_iButton.o)
 .debug_frame   0x00007450      0x210 .\CortexM3\ARM_GCC_493\Debug\CorEx-Mux-Kernel.a(CyFlash.o)
 .debug_frame   0x00007660      0x1f8 .\CortexM3\ARM_GCC_493\Debug\CorEx-Mux-Kernel.a(CySpc.o)
 .debug_frame   0x00007858       0x20 c:/program files (x86)/cypress/psoc creator/3.3/psoc creator/import/gnu/arm/4.9.3/bin/../lib/gcc/arm-none-eabi/4.9.3/../../../../arm-none-eabi/lib/armv7-m\libm.a(lib_a-s_pow10.o)
 .debug_frame   0x00007878       0x30 c:/program files (x86)/cypress/psoc creator/3.3/psoc creator/import/gnu/arm/4.9.3/bin/../lib/gcc/arm-none-eabi/4.9.3/../../../../arm-none-eabi/lib/armv7-m\libm.a(lib_a-s_round.o)
 .debug_frame   0x000078a8       0x44 c:/program files (x86)/cypress/psoc creator/3.3/psoc creator/import/gnu/arm/4.9.3/bin/../lib/gcc/arm-none-eabi/4.9.3/../../../../arm-none-eabi/lib/armv7-m\libm.a(lib_a-w_pow.o)
 .debug_frame   0x000078ec       0x64 c:/program files (x86)/cypress/psoc creator/3.3/psoc creator/import/gnu/arm/4.9.3/bin/../lib/gcc/arm-none-eabi/4.9.3/../../../../arm-none-eabi/lib/armv7-m\libm.a(lib_a-e_pow.o)
 .debug_frame   0x00007950       0x30 c:/program files (x86)/cypress/psoc creator/3.3/psoc creator/import/gnu/arm/4.9.3/bin/../lib/gcc/arm-none-eabi/4.9.3/../../../../arm-none-eabi/lib/armv7-m\libm.a(lib_a-e_sqrt.o)
 .debug_frame   0x00007980       0x20 c:/program files (x86)/cypress/psoc creator/3.3/psoc creator/import/gnu/arm/4.9.3/bin/../lib/gcc/arm-none-eabi/4.9.3/../../../../arm-none-eabi/lib/armv7-m\libm.a(lib_a-s_fabs.o)
 .debug_frame   0x000079a0       0x20 c:/program files (x86)/cypress/psoc creator/3.3/psoc creator/import/gnu/arm/4.9.3/bin/../lib/gcc/arm-none-eabi/4.9.3/../../../../arm-none-eabi/lib/armv7-m\libm.a(lib_a-s_finite.o)
 .debug_frame   0x000079c0       0x34 c:/program files (x86)/cypress/psoc creator/3.3/psoc creator/import/gnu/arm/4.9.3/bin/../lib/gcc/arm-none-eabi/4.9.3/../../../../arm-none-eabi/lib/armv7-m\libm.a(lib_a-s_fpclassify.o)
 .debug_frame   0x000079f4       0x20 c:/program files (x86)/cypress/psoc creator/3.3/psoc creator/import/gnu/arm/4.9.3/bin/../lib/gcc/arm-none-eabi/4.9.3/../../../../arm-none-eabi/lib/armv7-m\libm.a(lib_a-s_matherr.o)
 .debug_frame   0x00007a14       0x20 c:/program files (x86)/cypress/psoc creator/3.3/psoc creator/import/gnu/arm/4.9.3/bin/../lib/gcc/arm-none-eabi/4.9.3/../../../../arm-none-eabi/lib/armv7-m\libm.a(lib_a-s_nan.o)
 .debug_frame   0x00007a34       0x3c c:/program files (x86)/cypress/psoc creator/3.3/psoc creator/import/gnu/arm/4.9.3/bin/../lib/gcc/arm-none-eabi/4.9.3/../../../../arm-none-eabi/lib/armv7-m\libm.a(lib_a-s_rint.o)
 .debug_frame   0x00007a70       0x30 c:/program files (x86)/cypress/psoc creator/3.3/psoc creator/import/gnu/arm/4.9.3/bin/../lib/gcc/arm-none-eabi/4.9.3/../../../../arm-none-eabi/lib/armv7-m\libm.a(lib_a-s_scalbn.o)
 .debug_frame   0x00007aa0       0x20 c:/program files (x86)/cypress/psoc creator/3.3/psoc creator/import/gnu/arm/4.9.3/bin/../lib/gcc/arm-none-eabi/4.9.3/../../../../arm-none-eabi/lib/armv7-m\libm.a(lib_a-s_copysign.o)
 .debug_frame   0x00007ac0       0x28 c:/program files (x86)/cypress/psoc creator/3.3/psoc creator/import/gnu/arm/4.9.3/bin/../lib/gcc/arm-none-eabi/4.9.3/armv7-m\libgcc.a(_aeabi_uldivmod.o)
 .debug_frame   0x00007ae8       0x2c c:/program files (x86)/cypress/psoc creator/3.3/psoc creator/import/gnu/arm/4.9.3/bin/../lib/gcc/arm-none-eabi/4.9.3/armv7-m\libgcc.a(_fixunsdfdi.o)
 .debug_frame   0x00007b14       0x54 c:/program files (x86)/cypress/psoc creator/3.3/psoc creator/import/gnu/arm/4.9.3/bin/../lib/gcc/arm-none-eabi/4.9.3/armv7-m\libgcc.a(bpabi.o)
 .debug_frame   0x00007b68       0x34 c:/program files (x86)/cypress/psoc creator/3.3/psoc creator/import/gnu/arm/4.9.3/bin/../lib/gcc/arm-none-eabi/4.9.3/armv7-m\libgcc.a(_divdi3.o)
 .debug_frame   0x00007b9c       0x34 c:/program files (x86)/cypress/psoc creator/3.3/psoc creator/import/gnu/arm/4.9.3/bin/../lib/gcc/arm-none-eabi/4.9.3/armv7-m\libgcc.a(_udivdi3.o)
 .debug_frame   0x00007bd0       0x20 c:/program files (x86)/cypress/psoc creator/3.3/psoc creator/import/gnu/arm/4.9.3/bin/../lib/gcc/arm-none-eabi/4.9.3/../../../../arm-none-eabi/lib/armv7-m\libg_nano.a(lib_a-errno.o)
 .debug_frame   0x00007bf0       0x28 c:/program files (x86)/cypress/psoc creator/3.3/psoc creator/import/gnu/arm/4.9.3/bin/../lib/gcc/arm-none-eabi/4.9.3/../../../../arm-none-eabi/lib/armv7-m\libg_nano.a(lib_a-exit.o)
 .debug_frame   0x00007c18       0x2c c:/program files (x86)/cypress/psoc creator/3.3/psoc creator/import/gnu/arm/4.9.3/bin/../lib/gcc/arm-none-eabi/4.9.3/../../../../arm-none-eabi/lib/armv7-m\libg_nano.a(lib_a-init.o)
 .debug_frame   0x00007c44       0x28 c:/program files (x86)/cypress/psoc creator/3.3/psoc creator/import/gnu/arm/4.9.3/bin/../lib/gcc/arm-none-eabi/4.9.3/../../../../arm-none-eabi/lib/armv7-m\libg_nano.a(lib_a-memcpy.o)
 .debug_frame   0x00007c6c       0x20 c:/program files (x86)/cypress/psoc creator/3.3/psoc creator/import/gnu/arm/4.9.3/bin/../lib/gcc/arm-none-eabi/4.9.3/../../../../arm-none-eabi/lib/armv7-m\libg_nano.a(lib_a-memset.o)
 .debug_frame   0x00007c8c       0x44 c:/program files (x86)/cypress/psoc creator/3.3/psoc creator/import/gnu/arm/4.9.3/bin/../lib/gcc/arm-none-eabi/4.9.3/../../../../arm-none-eabi/lib/armv7-m\libg_nano.a(lib_a-rand.o)
 .debug_frame   0x00007cd0       0x70 c:/program files (x86)/cypress/psoc creator/3.3/psoc creator/import/gnu/arm/4.9.3/bin/../lib/gcc/arm-none-eabi/4.9.3/../../../../arm-none-eabi/lib/armv7-m\libg_nano.a(lib_a-sprintf.o)
 .debug_frame   0x00007d40       0x20 c:/program files (x86)/cypress/psoc creator/3.3/psoc creator/import/gnu/arm/4.9.3/bin/../lib/gcc/arm-none-eabi/4.9.3/../../../../arm-none-eabi/lib/armv7-m\libg_nano.a(lib_a-strchr.o)
 .debug_frame   0x00007d60       0x20 c:/program files (x86)/cypress/psoc creator/3.3/psoc creator/import/gnu/arm/4.9.3/bin/../lib/gcc/arm-none-eabi/4.9.3/../../../../arm-none-eabi/lib/armv7-m\libg_nano.a(lib_a-strlen.o)
 .debug_frame   0x00007d80       0x2c c:/program files (x86)/cypress/psoc creator/3.3/psoc creator/import/gnu/arm/4.9.3/bin/../lib/gcc/arm-none-eabi/4.9.3/../../../../arm-none-eabi/lib/armv7-m\libg_nano.a(lib_a-strncmp.o)
 .debug_frame   0x00007dac       0x30 c:/program files (x86)/cypress/psoc creator/3.3/psoc creator/import/gnu/arm/4.9.3/bin/../lib/gcc/arm-none-eabi/4.9.3/../../../../arm-none-eabi/lib/armv7-m\libg_nano.a(lib_a-malloc.o)
 .debug_frame   0x00007ddc       0x2c c:/program files (x86)/cypress/psoc creator/3.3/psoc creator/import/gnu/arm/4.9.3/bin/../lib/gcc/arm-none-eabi/4.9.3/../../../../arm-none-eabi/lib/armv7-m\libg_nano.a(lib_a-nano-freer.o)
 .debug_frame   0x00007e08       0x2c c:/program files (x86)/cypress/psoc creator/3.3/psoc creator/import/gnu/arm/4.9.3/bin/../lib/gcc/arm-none-eabi/4.9.3/../../../../arm-none-eabi/lib/armv7-m\libg_nano.a(lib_a-nano-mallocr.o)
 .debug_frame   0x00007e34       0x8c c:/program files (x86)/cypress/psoc creator/3.3/psoc creator/import/gnu/arm/4.9.3/bin/../lib/gcc/arm-none-eabi/4.9.3/../../../../arm-none-eabi/lib/armv7-m\libg_nano.a(lib_a-nano-svfprintf.o)
 .debug_frame   0x00007ec0       0x58 c:/program files (x86)/cypress/psoc creator/3.3/psoc creator/import/gnu/arm/4.9.3/bin/../lib/gcc/arm-none-eabi/4.9.3/../../../../arm-none-eabi/lib/armv7-m\libg_nano.a(lib_a-nano-vfprintf_i.o)
 .debug_frame   0x00007f18       0x2c c:/program files (x86)/cypress/psoc creator/3.3/psoc creator/import/gnu/arm/4.9.3/bin/../lib/gcc/arm-none-eabi/4.9.3/../../../../arm-none-eabi/lib/armv7-m\libg_nano.a(lib_a-sbrkr.o)
 .debug_frame   0x00007f44       0x28 c:/program files (x86)/cypress/psoc creator/3.3/psoc creator/import/gnu/arm/4.9.3/bin/../lib/gcc/arm-none-eabi/4.9.3/../../../../arm-none-eabi/lib/armv7-m\libg_nano.a(lib_a-memchr.o)
 .debug_frame   0x00007f6c       0x28 c:/program files (x86)/cypress/psoc creator/3.3/psoc creator/import/gnu/arm/4.9.3/bin/../lib/gcc/arm-none-eabi/4.9.3/../../../../arm-none-eabi/lib/armv7-m\libg_nano.a(lib_a-memmove.o)
 .debug_frame   0x00007f94       0x3c c:/program files (x86)/cypress/psoc creator/3.3/psoc creator/import/gnu/arm/4.9.3/bin/../lib/gcc/arm-none-eabi/4.9.3/../../../../arm-none-eabi/lib/armv7-m\libg_nano.a(lib_a-nano-reallocr.o)
 .debug_frame   0x00007fd0       0x5c c:/program files (x86)/cypress/psoc creator/3.3/psoc creator/import/gnu/arm/4.9.3/bin/../lib/gcc/arm-none-eabi/4.9.3/../../../../arm-none-eabi/lib/armv7-m\libg_nano.a(lib_a-reent.o)
 .debug_frame   0x0000802c       0x20 c:/program files (x86)/cypress/psoc creator/3.3/psoc creator/import/gnu/arm/4.9.3/bin/../lib/gcc/arm-none-eabi/4.9.3/../../../../arm-none-eabi/lib/armv7-m\libg_nano.a(lib_a-nano-msizer.o)

.debug_str      0x00000000     0x9325
 *(.debug_str)
 .debug_str     0x00000000      0x340 .\CortexM3\ARM_GCC_493\Debug\UARTManager.o
                                0x48a (size before relaxing)
 .debug_str     0x00000340       0x83 .\CortexM3\ARM_GCC_493\Debug\UARTResolver.o
                                0x2c3 (size before relaxing)
 .debug_str     0x000003c3       0x29 .\CortexM3\ARM_GCC_493\Debug\UARTManagerSink.o
                                0x1c7 (size before relaxing)
 .debug_str     0x000003ec       0x8a .\CortexM3\ARM_GCC_493\Debug\PseudoRTOS.o
                                0x22a (size before relaxing)
 .debug_str     0x00000476       0xc7 .\CortexM3\ARM_GCC_493\Debug\Utils.o
                                0x2b7 (size before relaxing)
 .debug_str     0x0000053d       0x4f .\CortexM3\ARM_GCC_493\Debug\Security.o
                                0x24d (size before relaxing)
 .debug_str     0x0000058c      0x766 .\CortexM3\ARM_GCC_493\Debug\SinkManager.o
                                0x9d2 (size before relaxing)
 .debug_str     0x00000cf2       0x9c .\CortexM3\ARM_GCC_493\Debug\EepromManager.o
                                0x27e (size before relaxing)
 .debug_str     0x00000d8e      0x125 .\CortexM3\ARM_GCC_493\Debug\RtcManager.o
                                0x2dd (size before relaxing)
 .debug_str     0x00000eb3       0x23 .\CortexM3\ARM_GCC_493\Debug\Initializers.o
                                0x1e0 (size before relaxing)
 .debug_str     0x00000ed6       0x85 .\CortexM3\ARM_GCC_493\Debug\Timers.o
                                0x7ea (size before relaxing)
 .debug_str     0x00000f5b       0x29 .\CortexM3\ARM_GCC_493\Debug\TestFile.o
                                0x1ed (size before relaxing)
 .debug_str     0x00000f84       0x2e .\CortexM3\ARM_GCC_493\Debug\AuxPSoC.o
                                0x219 (size before relaxing)
 .debug_str     0x00000fb2       0x53 .\CortexM3\ARM_GCC_493\Debug\WatchDogReset.o
                                0x67e (size before relaxing)
 .debug_str     0x00001005       0xa8 .\CortexM3\ARM_GCC_493\Debug\DispenserResolver.o
                                0x3fd (size before relaxing)
 .debug_str     0x000010ad     0x17cd .\CortexM3\ARM_GCC_493\Debug\DispenserBLL.o
                               0x2006 (size before relaxing)
 .debug_str     0x0000287a       0xf2 .\CortexM3\ARM_GCC_493\Debug\DispenserSink.o
                                0xeeb (size before relaxing)
 .debug_str     0x0000296c      0xf8f .\CortexM3\ARM_GCC_493\Debug\DisplayBLL.o
                               0x2be9 (size before relaxing)
 .debug_str     0x000038fb       0x8b .\CortexM3\ARM_GCC_493\Debug\DisplaySink.o
                               0x121a (size before relaxing)
 .debug_str     0x00003986      0x45f .\CortexM3\ARM_GCC_493\Debug\DisplayUtils.o
                               0x233e (size before relaxing)
 .debug_str     0x00003de5       0x10 .\CortexM3\ARM_GCC_493\Debug\DisplayFlow.o
                                0xa57 (size before relaxing)
 .debug_str     0x00003df5       0x30 .\CortexM3\ARM_GCC_493\Debug\DisplayCharacterMap.o
                                0x216 (size before relaxing)
 .debug_str     0x00003e25       0x6c .\CortexM3\ARM_GCC_493\Debug\DisplayBufferScreenMap.o
                                0xb34 (size before relaxing)
 .debug_str     0x00003e91       0x62 .\CortexM3\ARM_GCC_493\Debug\DisplayResolver.o
                                0x956 (size before relaxing)
 .debug_str     0x00003ef3      0x3f5 .\CortexM3\ARM_GCC_493\Debug\PrinterBLL.o
                               0x136d (size before relaxing)
 .debug_str     0x000042e8       0x28 .\CortexM3\ARM_GCC_493\Debug\PrinterSink.o
                                0x695 (size before relaxing)
 .debug_str     0x00004310       0x24 .\CortexM3\ARM_GCC_493\Debug\PrinterResolver.o
                                0x1c2 (size before relaxing)
 .debug_str     0x00004334      0x1c8 .\CortexM3\ARM_GCC_493\Debug\PrinterTemplate.o
                                0x4d6 (size before relaxing)
 .debug_str     0x000044fc       0x28 .\CortexM3\ARM_GCC_493\Debug\iButtonSink.o
                                0x653 (size before relaxing)
 .debug_str     0x00004524       0x87 .\CortexM3\ARM_GCC_493\Debug\iButtonBLL.o
                                0x752 (size before relaxing)
 .debug_str     0x000045ab       0x52 .\CortexM3\ARM_GCC_493\Debug\iButtonProtocol.o
                                0x24c (size before relaxing)
 .debug_str     0x000045fd      0x36f .\CortexM3\ARM_GCC_493\Debug\Prime.o
                                0xe1a (size before relaxing)
 .debug_str     0x0000496c       0x44 .\CortexM3\ARM_GCC_493\Debug\PrimeFlow.o
                                0x544 (size before relaxing)
 .debug_str     0x000049b0      0x6e7 .\CortexM3\ARM_GCC_493\Debug\PrimeImpl.o
                               0x2cae (size before relaxing)
 .debug_str     0x00005097        0xb .\CortexM3\ARM_GCC_493\Debug\Encore.o
                                0x1c8 (size before relaxing)
 .debug_str     0x000050a2        0xf .\CortexM3\ARM_GCC_493\Debug\EncoreFlow.o
                                0x1ad (size before relaxing)
 .debug_str     0x000050b1        0xf .\CortexM3\ARM_GCC_493\Debug\EncoreImpl.o
                                0x1cc (size before relaxing)
 .debug_str     0x000050c0        0xe .\CortexM3\ARM_GCC_493\Debug\Advantage.o
                                0x1cb (size before relaxing)
 .debug_str     0x000050ce       0x12 .\CortexM3\ARM_GCC_493\Debug\AdvantageFlow.o
                                0x1b0 (size before relaxing)
 .debug_str     0x000050e0       0x12 .\CortexM3\ARM_GCC_493\Debug\AdvantageImpl.o
                                0x1cf (size before relaxing)
 .debug_str     0x000050f2       0x44 .\CortexM3\ARM_GCC_493\Debug\RFSink.o
                                0xeb3 (size before relaxing)
 .debug_str     0x00005136       0xdd .\CortexM3\ARM_GCC_493\Debug\RFBLL.o
                                0x9e4 (size before relaxing)
 .debug_str     0x00005213       0xa3 .\CortexM3\ARM_GCC_493\Debug\RFResolver.o
                                0xe87 (size before relaxing)
 .debug_str     0x000052b6      0x1a6 .\CortexM3\ARM_GCC_493\Debug\RFServerStack.o
                                0x966 (size before relaxing)
 .debug_str     0x0000545c      0x30a .\CortexM3\ARM_GCC_493\Debug\RFServerStackImpl.o
                               0x27b9 (size before relaxing)
 .debug_str     0x00005766       0x25 .\CortexM3\ARM_GCC_493\Debug\ClientDefinitions.o
                                0x1f6 (size before relaxing)
 .debug_str     0x0000578b        0xe .\CortexM3\ARM_GCC_493\Debug\main.o
                                0x1c5 (size before relaxing)
 .debug_str     0x00005799       0x77 .\CortexM3\ARM_GCC_493\Debug\cymetadata.o
                                0x209 (size before relaxing)
 .debug_str     0x00005810      0x11b .\CortexM3\ARM_GCC_493\Debug\Cm3Start.o
                                0x2ea (size before relaxing)
 .debug_str     0x0000592b      0x177 .\CortexM3\ARM_GCC_493\Debug\CorEx-Mux-Kernel.a(cyfitter_cfg.o)
                                0x34b (size before relaxing)
 .debug_str     0x00005aa2      0x40c .\CortexM3\ARM_GCC_493\Debug\CorEx-Mux-Kernel.a(RF_Physical.o)
                                0x5d8 (size before relaxing)
 .debug_str     0x00005eae       0x63 .\CortexM3\ARM_GCC_493\Debug\CorEx-Mux-Kernel.a(RF_Physical_INT.o)
                                0x313 (size before relaxing)
 .debug_str     0x00005f11      0x200 .\CortexM3\ARM_GCC_493\Debug\CorEx-Mux-Kernel.a(RF_Physical_IntClock.o)
                                0x3a9 (size before relaxing)
 .debug_str     0x00006111      0x7c7 .\CortexM3\ARM_GCC_493\Debug\CorEx-Mux-Kernel.a(CyLib.o)
                                0x9e5 (size before relaxing)
 .debug_str     0x000068d8      0x367 .\CortexM3\ARM_GCC_493\Debug\CorEx-Mux-Kernel.a(cyPm.o)
                                0x54a (size before relaxing)
 .debug_str     0x00006c3f      0x14e .\CortexM3\ARM_GCC_493\Debug\CorEx-Mux-Kernel.a(CRC_Security.o)
                                0x2fb (size before relaxing)
 .debug_str     0x00006d8d      0x1a2 .\CortexM3\ARM_GCC_493\Debug\CorEx-Mux-Kernel.a(ShiftReg_Security.o)
                                0x348 (size before relaxing)
 .debug_str     0x00006f2f       0x44 .\CortexM3\ARM_GCC_493\Debug\CorEx-Mux-Kernel.a(Clock_CRC.o)
                                0x1da (size before relaxing)
 .debug_str     0x00006f73       0x44 .\CortexM3\ARM_GCC_493\Debug\CorEx-Mux-Kernel.a(Reset_CRC.o)
                                0x1da (size before relaxing)
 .debug_str     0x00006fb7      0x259 .\CortexM3\ARM_GCC_493\Debug\CorEx-Mux-Kernel.a(Printer.o)
                                0x48b (size before relaxing)
 .debug_str     0x00007210      0x323 .\CortexM3\ARM_GCC_493\Debug\CorEx-Mux-Kernel.a(Dispenser.o)
                                0x592 (size before relaxing)
 .debug_str     0x00007533       0x39 .\CortexM3\ARM_GCC_493\Debug\CorEx-Mux-Kernel.a(Dispenser_INT.o)
                                0x303 (size before relaxing)
 .debug_str     0x0000756c      0x300 .\CortexM3\ARM_GCC_493\Debug\CorEx-Mux-Kernel.a(Display1.o)
                                0x56f (size before relaxing)
 .debug_str     0x0000786c       0x37 .\CortexM3\ARM_GCC_493\Debug\CorEx-Mux-Kernel.a(Display1_INT.o)
                                0x2fa (size before relaxing)
 .debug_str     0x000078a3      0x300 .\CortexM3\ARM_GCC_493\Debug\CorEx-Mux-Kernel.a(Display2.o)
                                0x56f (size before relaxing)
 .debug_str     0x00007ba3       0x37 .\CortexM3\ARM_GCC_493\Debug\CorEx-Mux-Kernel.a(Display2_INT.o)
                                0x2fa (size before relaxing)
 .debug_str     0x00007bda      0x13c .\CortexM3\ARM_GCC_493\Debug\CorEx-Mux-Kernel.a(Counter_ISR.o)
                                0x31f (size before relaxing)
 .debug_str     0x00007d16      0x191 .\CortexM3\ARM_GCC_493\Debug\CorEx-Mux-Kernel.a(Display1_IntClock.o)
                                0x385 (size before relaxing)
 .debug_str     0x00007ea7      0x191 .\CortexM3\ARM_GCC_493\Debug\CorEx-Mux-Kernel.a(Display2_IntClock.o)
                                0x385 (size before relaxing)
 .debug_str     0x00008038      0x109 .\CortexM3\ARM_GCC_493\Debug\CorEx-Mux-Kernel.a(I2C_Bus.o)
                                0x2c9 (size before relaxing)
 .debug_str     0x00008141       0xa4 .\CortexM3\ARM_GCC_493\Debug\CorEx-Mux-Kernel.a(I2C_Bus_INT.o)
                                0x297 (size before relaxing)
 .debug_str     0x000081e5       0x6c .\CortexM3\ARM_GCC_493\Debug\CorEx-Mux-Kernel.a(I2C_Bus_PM.o)
                                0x26b (size before relaxing)
 .debug_str     0x00008251      0x1aa .\CortexM3\ARM_GCC_493\Debug\CorEx-Mux-Kernel.a(I2C_Bus_MASTER.o)
                                0x413 (size before relaxing)
 .debug_str     0x000083fb       0x77 .\CortexM3\ARM_GCC_493\Debug\CorEx-Mux-Kernel.a(iButton1.o)
                                0x210 (size before relaxing)
 .debug_str     0x00008472       0x6c .\CortexM3\ARM_GCC_493\Debug\CorEx-Mux-Kernel.a(iButton2.o)
                                0x210 (size before relaxing)
 .debug_str     0x000084de       0x6c .\CortexM3\ARM_GCC_493\Debug\CorEx-Mux-Kernel.a(eepromWP.o)
                                0x210 (size before relaxing)
 .debug_str     0x0000854a      0x27b .\CortexM3\ARM_GCC_493\Debug\CorEx-Mux-Kernel.a(Timer_DispenserState.o)
                                0x42f (size before relaxing)
 .debug_str     0x000087c5      0x200 .\CortexM3\ARM_GCC_493\Debug\CorEx-Mux-Kernel.a(DispenserStateTimeout_ISR.o)
                                0x3d1 (size before relaxing)
 .debug_str     0x000089c5      0x18f .\CortexM3\ARM_GCC_493\Debug\CorEx-Mux-Kernel.a(Timer_Tick.o)
                                0x358 (size before relaxing)
 .debug_str     0x00008b54      0x1c8 .\CortexM3\ARM_GCC_493\Debug\CorEx-Mux-Kernel.a(ShiftReg_iButtonCRC4LSB.o)
                                0x396 (size before relaxing)
 .debug_str     0x00008d1c       0x50 .\CortexM3\ARM_GCC_493\Debug\CorEx-Mux-Kernel.a(Input_iButton.o)
                                0x1e6 (size before relaxing)
 .debug_str     0x00008d6c       0x50 .\CortexM3\ARM_GCC_493\Debug\CorEx-Mux-Kernel.a(Clock_iButton.o)
                                0x1e6 (size before relaxing)
 .debug_str     0x00008dbc      0x1c8 .\CortexM3\ARM_GCC_493\Debug\CorEx-Mux-Kernel.a(ShiftReg_iButtonCRC3MSB.o)
                                0x396 (size before relaxing)
 .debug_str     0x00008f84       0xf6 .\CortexM3\ARM_GCC_493\Debug\CorEx-Mux-Kernel.a(StatusReg_iButton5thCRCBit.o)
                                0x2a1 (size before relaxing)
 .debug_str     0x0000907a       0x50 .\CortexM3\ARM_GCC_493\Debug\CorEx-Mux-Kernel.a(Reset_iButton.o)
                                0x1e6 (size before relaxing)
 .debug_str     0x000090ca      0x140 .\CortexM3\ARM_GCC_493\Debug\CorEx-Mux-Kernel.a(CyFlash.o)
                                0x309 (size before relaxing)
 .debug_str     0x0000920a      0x11b .\CortexM3\ARM_GCC_493\Debug\CorEx-Mux-Kernel.a(CySpc.o)
                                0x306 (size before relaxing)

.debug_loc
 *(.debug_loc)

.debug_macinfo
 *(.debug_macinfo)

.debug_ranges   0x00000000     0x1a90
 *(.debug_ranges)
 .debug_ranges  0x00000000       0x30 .\CortexM3\ARM_GCC_493\Debug\UARTManager.o
 .debug_ranges  0x00000030       0x10 .\CortexM3\ARM_GCC_493\Debug\UARTResolver.o
 .debug_ranges  0x00000040       0x10 .\CortexM3\ARM_GCC_493\Debug\UARTManagerSink.o
 .debug_ranges  0x00000050       0x18 .\CortexM3\ARM_GCC_493\Debug\PseudoRTOS.o
 .debug_ranges  0x00000068       0x58 .\CortexM3\ARM_GCC_493\Debug\Utils.o
 .debug_ranges  0x000000c0       0x30 .\CortexM3\ARM_GCC_493\Debug\Security.o
 .debug_ranges  0x000000f0       0x88 .\CortexM3\ARM_GCC_493\Debug\SinkManager.o
 .debug_ranges  0x00000178       0x38 .\CortexM3\ARM_GCC_493\Debug\EepromManager.o
 .debug_ranges  0x000001b0       0x30 .\CortexM3\ARM_GCC_493\Debug\RtcManager.o
 .debug_ranges  0x000001e0       0x10 .\CortexM3\ARM_GCC_493\Debug\Initializers.o
 .debug_ranges  0x000001f0       0x20 .\CortexM3\ARM_GCC_493\Debug\Timers.o
 .debug_ranges  0x00000210       0x18 .\CortexM3\ARM_GCC_493\Debug\TestFile.o
 .debug_ranges  0x00000228       0x10 .\CortexM3\ARM_GCC_493\Debug\AuxPSoC.o
 .debug_ranges  0x00000238       0x20 .\CortexM3\ARM_GCC_493\Debug\WatchDogReset.o
 .debug_ranges  0x00000258       0x18 .\CortexM3\ARM_GCC_493\Debug\DispenserResolver.o
 .debug_ranges  0x00000270       0x98 .\CortexM3\ARM_GCC_493\Debug\DispenserBLL.o
 .debug_ranges  0x00000308       0x30 .\CortexM3\ARM_GCC_493\Debug\DispenserSink.o
 .debug_ranges  0x00000338      0x150 .\CortexM3\ARM_GCC_493\Debug\DisplayBLL.o
 .debug_ranges  0x00000488       0x20 .\CortexM3\ARM_GCC_493\Debug\DisplaySink.o
 .debug_ranges  0x000004a8      0x110 .\CortexM3\ARM_GCC_493\Debug\DisplayUtils.o
 .debug_ranges  0x000005b8       0x10 .\CortexM3\ARM_GCC_493\Debug\DisplayCharacterMap.o
 .debug_ranges  0x000005c8       0x20 .\CortexM3\ARM_GCC_493\Debug\DisplayBufferScreenMap.o
 .debug_ranges  0x000005e8       0x28 .\CortexM3\ARM_GCC_493\Debug\DisplayResolver.o
 .debug_ranges  0x00000610       0xe0 .\CortexM3\ARM_GCC_493\Debug\PrinterBLL.o
 .debug_ranges  0x000006f0       0x10 .\CortexM3\ARM_GCC_493\Debug\PrinterSink.o
 .debug_ranges  0x00000700       0x10 .\CortexM3\ARM_GCC_493\Debug\PrinterResolver.o
 .debug_ranges  0x00000710       0x20 .\CortexM3\ARM_GCC_493\Debug\PrinterTemplate.o
 .debug_ranges  0x00000730       0x10 .\CortexM3\ARM_GCC_493\Debug\iButtonSink.o
 .debug_ranges  0x00000740       0x30 .\CortexM3\ARM_GCC_493\Debug\iButtonBLL.o
 .debug_ranges  0x00000770       0x20 .\CortexM3\ARM_GCC_493\Debug\iButtonProtocol.o
 .debug_ranges  0x00000790       0x88 .\CortexM3\ARM_GCC_493\Debug\Prime.o
 .debug_ranges  0x00000818       0x10 .\CortexM3\ARM_GCC_493\Debug\PrimeFlow.o
 .debug_ranges  0x00000828      0x1c0 .\CortexM3\ARM_GCC_493\Debug\PrimeImpl.o
 .debug_ranges  0x000009e8       0x18 .\CortexM3\ARM_GCC_493\Debug\RFSink.o
 .debug_ranges  0x00000a00       0x20 .\CortexM3\ARM_GCC_493\Debug\RFBLL.o
 .debug_ranges  0x00000a20       0x18 .\CortexM3\ARM_GCC_493\Debug\RFResolver.o
 .debug_ranges  0x00000a38       0x30 .\CortexM3\ARM_GCC_493\Debug\RFServerStack.o
 .debug_ranges  0x00000a68       0xb0 .\CortexM3\ARM_GCC_493\Debug\RFServerStackImpl.o
 .debug_ranges  0x00000b18       0x10 .\CortexM3\ARM_GCC_493\Debug\main.o
 .debug_ranges  0x00000b28       0x38 .\CortexM3\ARM_GCC_493\Debug\Cm3Start.o
 .debug_ranges  0x00000b60       0x50 .\CortexM3\ARM_GCC_493\Debug\CorEx-Mux-Kernel.a(cyfitter_cfg.o)
 .debug_ranges  0x00000bb0       0xe0 .\CortexM3\ARM_GCC_493\Debug\CorEx-Mux-Kernel.a(RF_Physical.o)
 .debug_ranges  0x00000c90       0x10 .\CortexM3\ARM_GCC_493\Debug\CorEx-Mux-Kernel.a(RF_Physical_INT.o)
 .debug_ranges  0x00000ca0       0x60 .\CortexM3\ARM_GCC_493\Debug\CorEx-Mux-Kernel.a(RF_Physical_IntClock.o)
 .debug_ranges  0x00000d00      0x288 .\CortexM3\ARM_GCC_493\Debug\CorEx-Mux-Kernel.a(CyLib.o)
 .debug_ranges  0x00000f88       0x88 .\CortexM3\ARM_GCC_493\Debug\CorEx-Mux-Kernel.a(cyPm.o)
 .debug_ranges  0x00001010       0x50 .\CortexM3\ARM_GCC_493\Debug\CorEx-Mux-Kernel.a(CRC_Security.o)
 .debug_ranges  0x00001060       0x60 .\CortexM3\ARM_GCC_493\Debug\CorEx-Mux-Kernel.a(ShiftReg_Security.o)
 .debug_ranges  0x000010c0       0x18 .\CortexM3\ARM_GCC_493\Debug\CorEx-Mux-Kernel.a(Clock_CRC.o)
 .debug_ranges  0x000010d8       0x18 .\CortexM3\ARM_GCC_493\Debug\CorEx-Mux-Kernel.a(Reset_CRC.o)
 .debug_ranges  0x000010f0       0xe0 .\CortexM3\ARM_GCC_493\Debug\CorEx-Mux-Kernel.a(Printer.o)
 .debug_ranges  0x000011d0       0xe0 .\CortexM3\ARM_GCC_493\Debug\CorEx-Mux-Kernel.a(Dispenser.o)
 .debug_ranges  0x000012b0       0x10 .\CortexM3\ARM_GCC_493\Debug\CorEx-Mux-Kernel.a(Dispenser_INT.o)
 .debug_ranges  0x000012c0       0xe0 .\CortexM3\ARM_GCC_493\Debug\CorEx-Mux-Kernel.a(Display1.o)
 .debug_ranges  0x000013a0       0x10 .\CortexM3\ARM_GCC_493\Debug\CorEx-Mux-Kernel.a(Display1_INT.o)
 .debug_ranges  0x000013b0       0xe0 .\CortexM3\ARM_GCC_493\Debug\CorEx-Mux-Kernel.a(Display2.o)
 .debug_ranges  0x00001490       0x10 .\CortexM3\ARM_GCC_493\Debug\CorEx-Mux-Kernel.a(Display2_INT.o)
 .debug_ranges  0x000014a0       0x70 .\CortexM3\ARM_GCC_493\Debug\CorEx-Mux-Kernel.a(Counter_ISR.o)
 .debug_ranges  0x00001510       0x60 .\CortexM3\ARM_GCC_493\Debug\CorEx-Mux-Kernel.a(Display1_IntClock.o)
 .debug_ranges  0x00001570       0x60 .\CortexM3\ARM_GCC_493\Debug\CorEx-Mux-Kernel.a(Display2_IntClock.o)
 .debug_ranges  0x000015d0       0x28 .\CortexM3\ARM_GCC_493\Debug\CorEx-Mux-Kernel.a(I2C_Bus.o)
 .debug_ranges  0x000015f8       0x10 .\CortexM3\ARM_GCC_493\Debug\CorEx-Mux-Kernel.a(I2C_Bus_INT.o)
 .debug_ranges  0x00001608       0x28 .\CortexM3\ARM_GCC_493\Debug\CorEx-Mux-Kernel.a(I2C_Bus_PM.o)
 .debug_ranges  0x00001630       0x70 .\CortexM3\ARM_GCC_493\Debug\CorEx-Mux-Kernel.a(I2C_Bus_MASTER.o)
 .debug_ranges  0x000016a0       0x28 .\CortexM3\ARM_GCC_493\Debug\CorEx-Mux-Kernel.a(iButton1.o)
 .debug_ranges  0x000016c8       0x28 .\CortexM3\ARM_GCC_493\Debug\CorEx-Mux-Kernel.a(iButton2.o)
 .debug_ranges  0x000016f0       0x28 .\CortexM3\ARM_GCC_493\Debug\CorEx-Mux-Kernel.a(eepromWP.o)
 .debug_ranges  0x00001718       0x80 .\CortexM3\ARM_GCC_493\Debug\CorEx-Mux-Kernel.a(Timer_DispenserState.o)
 .debug_ranges  0x00001798       0x70 .\CortexM3\ARM_GCC_493\Debug\CorEx-Mux-Kernel.a(DispenserStateTimeout_ISR.o)
 .debug_ranges  0x00001808       0x78 .\CortexM3\ARM_GCC_493\Debug\CorEx-Mux-Kernel.a(Timer_Tick.o)
 .debug_ranges  0x00001880       0x60 .\CortexM3\ARM_GCC_493\Debug\CorEx-Mux-Kernel.a(ShiftReg_iButtonCRC4LSB.o)
 .debug_ranges  0x000018e0       0x18 .\CortexM3\ARM_GCC_493\Debug\CorEx-Mux-Kernel.a(Input_iButton.o)
 .debug_ranges  0x000018f8       0x18 .\CortexM3\ARM_GCC_493\Debug\CorEx-Mux-Kernel.a(Clock_iButton.o)
 .debug_ranges  0x00001910       0x60 .\CortexM3\ARM_GCC_493\Debug\CorEx-Mux-Kernel.a(ShiftReg_iButtonCRC3MSB.o)
 .debug_ranges  0x00001970       0x30 .\CortexM3\ARM_GCC_493\Debug\CorEx-Mux-Kernel.a(StatusReg_iButton5thCRCBit.o)
 .debug_ranges  0x000019a0       0x18 .\CortexM3\ARM_GCC_493\Debug\CorEx-Mux-Kernel.a(Reset_iButton.o)
 .debug_ranges  0x000019b8       0x70 .\CortexM3\ARM_GCC_493\Debug\CorEx-Mux-Kernel.a(CyFlash.o)
 .debug_ranges  0x00001a28       0x68 .\CortexM3\ARM_GCC_493\Debug\CorEx-Mux-Kernel.a(CySpc.o)

.comment        0x00000000       0x70
 .comment       0x00000000       0x70 .\CortexM3\ARM_GCC_493\Debug\UARTManager.o
                                 0x71 (size before relaxing)
 .comment       0x00000000       0x71 .\CortexM3\ARM_GCC_493\Debug\UARTResolver.o
 .comment       0x00000000       0x71 .\CortexM3\ARM_GCC_493\Debug\UARTManagerSink.o
 .comment       0x00000000       0x71 .\CortexM3\ARM_GCC_493\Debug\PseudoRTOS.o
 .comment       0x00000000       0x71 .\CortexM3\ARM_GCC_493\Debug\Utils.o
 .comment       0x00000000       0x71 .\CortexM3\ARM_GCC_493\Debug\Security.o
 .comment       0x00000000       0x71 .\CortexM3\ARM_GCC_493\Debug\SinkManager.o
 .comment       0x00000000       0x71 .\CortexM3\ARM_GCC_493\Debug\EepromManager.o
 .comment       0x00000000       0x71 .\CortexM3\ARM_GCC_493\Debug\RtcManager.o
 .comment       0x00000000       0x71 .\CortexM3\ARM_GCC_493\Debug\Initializers.o
 .comment       0x00000000       0x71 .\CortexM3\ARM_GCC_493\Debug\Timers.o
 .comment       0x00000000       0x71 .\CortexM3\ARM_GCC_493\Debug\TestFile.o
 .comment       0x00000000       0x71 .\CortexM3\ARM_GCC_493\Debug\AuxPSoC.o
 .comment       0x00000000       0x71 .\CortexM3\ARM_GCC_493\Debug\WatchDogReset.o
 .comment       0x00000000       0x71 .\CortexM3\ARM_GCC_493\Debug\DispenserResolver.o
 .comment       0x00000000       0x71 .\CortexM3\ARM_GCC_493\Debug\DispenserBLL.o
 .comment       0x00000000       0x71 .\CortexM3\ARM_GCC_493\Debug\DispenserSink.o
 .comment       0x00000000       0x71 .\CortexM3\ARM_GCC_493\Debug\DisplayBLL.o
 .comment       0x00000000       0x71 .\CortexM3\ARM_GCC_493\Debug\DisplaySink.o
 .comment       0x00000000       0x71 .\CortexM3\ARM_GCC_493\Debug\DisplayUtils.o
 .comment       0x00000000       0x71 .\CortexM3\ARM_GCC_493\Debug\DisplayFlow.o
 .comment       0x00000000       0x71 .\CortexM3\ARM_GCC_493\Debug\DisplayCharacterMap.o
 .comment       0x00000000       0x71 .\CortexM3\ARM_GCC_493\Debug\DisplayBufferScreenMap.o
 .comment       0x00000000       0x71 .\CortexM3\ARM_GCC_493\Debug\DisplayResolver.o
 .comment       0x00000000       0x71 .\CortexM3\ARM_GCC_493\Debug\PrinterBLL.o
 .comment       0x00000000       0x71 .\CortexM3\ARM_GCC_493\Debug\PrinterSink.o
 .comment       0x00000000       0x71 .\CortexM3\ARM_GCC_493\Debug\PrinterResolver.o
 .comment       0x00000000       0x71 .\CortexM3\ARM_GCC_493\Debug\PrinterTemplate.o
 .comment       0x00000000       0x71 .\CortexM3\ARM_GCC_493\Debug\iButtonSink.o
 .comment       0x00000000       0x71 .\CortexM3\ARM_GCC_493\Debug\iButtonBLL.o
 .comment       0x00000000       0x71 .\CortexM3\ARM_GCC_493\Debug\iButtonProtocol.o
 .comment       0x00000000       0x71 .\CortexM3\ARM_GCC_493\Debug\Prime.o
 .comment       0x00000000       0x71 .\CortexM3\ARM_GCC_493\Debug\PrimeFlow.o
 .comment       0x00000000       0x71 .\CortexM3\ARM_GCC_493\Debug\PrimeImpl.o
 .comment       0x00000000       0x71 .\CortexM3\ARM_GCC_493\Debug\Encore.o
 .comment       0x00000000       0x71 .\CortexM3\ARM_GCC_493\Debug\EncoreFlow.o
 .comment       0x00000000       0x71 .\CortexM3\ARM_GCC_493\Debug\EncoreImpl.o
 .comment       0x00000000       0x71 .\CortexM3\ARM_GCC_493\Debug\Advantage.o
 .comment       0x00000000       0x71 .\CortexM3\ARM_GCC_493\Debug\AdvantageFlow.o
 .comment       0x00000000       0x71 .\CortexM3\ARM_GCC_493\Debug\AdvantageImpl.o
 .comment       0x00000000       0x71 .\CortexM3\ARM_GCC_493\Debug\RFSink.o
 .comment       0x00000000       0x71 .\CortexM3\ARM_GCC_493\Debug\RFBLL.o
 .comment       0x00000000       0x71 .\CortexM3\ARM_GCC_493\Debug\RFResolver.o
 .comment       0x00000000       0x71 .\CortexM3\ARM_GCC_493\Debug\RFServerStack.o
 .comment       0x00000000       0x71 .\CortexM3\ARM_GCC_493\Debug\RFServerStackImpl.o
 .comment       0x00000000       0x71 .\CortexM3\ARM_GCC_493\Debug\ClientDefinitions.o
 .comment       0x00000000       0x71 .\CortexM3\ARM_GCC_493\Debug\main.o
 .comment       0x00000000       0x71 .\CortexM3\ARM_GCC_493\Debug\cymetadata.o
 .comment       0x00000000       0x71 .\CortexM3\ARM_GCC_493\Debug\Cm3Start.o
 .comment       0x00000000       0x71 .\CortexM3\ARM_GCC_493\Debug\CorEx-Mux-Kernel.a(cyfitter_cfg.o)
 .comment       0x00000000       0x71 .\CortexM3\ARM_GCC_493\Debug\CorEx-Mux-Kernel.a(RF_Physical.o)
 .comment       0x00000000       0x71 .\CortexM3\ARM_GCC_493\Debug\CorEx-Mux-Kernel.a(RF_Physical_INT.o)
 .comment       0x00000000       0x71 .\CortexM3\ARM_GCC_493\Debug\CorEx-Mux-Kernel.a(RF_Physical_IntClock.o)
 .comment       0x00000000       0x71 .\CortexM3\ARM_GCC_493\Debug\CorEx-Mux-Kernel.a(CyLib.o)
 .comment       0x00000000       0x71 .\CortexM3\ARM_GCC_493\Debug\CorEx-Mux-Kernel.a(cyPm.o)
 .comment       0x00000000       0x71 .\CortexM3\ARM_GCC_493\Debug\CorEx-Mux-Kernel.a(CRC_Security.o)
 .comment       0x00000000       0x71 .\CortexM3\ARM_GCC_493\Debug\CorEx-Mux-Kernel.a(ShiftReg_Security.o)
 .comment       0x00000000       0x71 .\CortexM3\ARM_GCC_493\Debug\CorEx-Mux-Kernel.a(Clock_CRC.o)
 .comment       0x00000000       0x71 .\CortexM3\ARM_GCC_493\Debug\CorEx-Mux-Kernel.a(Reset_CRC.o)
 .comment       0x00000000       0x71 .\CortexM3\ARM_GCC_493\Debug\CorEx-Mux-Kernel.a(Printer.o)
 .comment       0x00000000       0x71 .\CortexM3\ARM_GCC_493\Debug\CorEx-Mux-Kernel.a(Dispenser.o)
 .comment       0x00000000       0x71 .\CortexM3\ARM_GCC_493\Debug\CorEx-Mux-Kernel.a(Dispenser_INT.o)
 .comment       0x00000000       0x71 .\CortexM3\ARM_GCC_493\Debug\CorEx-Mux-Kernel.a(Display1.o)
 .comment       0x00000000       0x71 .\CortexM3\ARM_GCC_493\Debug\CorEx-Mux-Kernel.a(Display1_INT.o)
 .comment       0x00000000       0x71 .\CortexM3\ARM_GCC_493\Debug\CorEx-Mux-Kernel.a(Display2.o)
 .comment       0x00000000       0x71 .\CortexM3\ARM_GCC_493\Debug\CorEx-Mux-Kernel.a(Display2_INT.o)
 .comment       0x00000000       0x71 .\CortexM3\ARM_GCC_493\Debug\CorEx-Mux-Kernel.a(Counter_ISR.o)
 .comment       0x00000000       0x71 .\CortexM3\ARM_GCC_493\Debug\CorEx-Mux-Kernel.a(Display1_IntClock.o)
 .comment       0x00000000       0x71 .\CortexM3\ARM_GCC_493\Debug\CorEx-Mux-Kernel.a(Display2_IntClock.o)
 .comment       0x00000000       0x71 .\CortexM3\ARM_GCC_493\Debug\CorEx-Mux-Kernel.a(I2C_Bus.o)
 .comment       0x00000000       0x71 .\CortexM3\ARM_GCC_493\Debug\CorEx-Mux-Kernel.a(I2C_Bus_INT.o)
 .comment       0x00000000       0x71 .\CortexM3\ARM_GCC_493\Debug\CorEx-Mux-Kernel.a(I2C_Bus_PM.o)
 .comment       0x00000000       0x71 .\CortexM3\ARM_GCC_493\Debug\CorEx-Mux-Kernel.a(I2C_Bus_MASTER.o)
 .comment       0x00000000       0x71 .\CortexM3\ARM_GCC_493\Debug\CorEx-Mux-Kernel.a(iButton1.o)
 .comment       0x00000000       0x71 .\CortexM3\ARM_GCC_493\Debug\CorEx-Mux-Kernel.a(iButton2.o)
 .comment       0x00000000       0x71 .\CortexM3\ARM_GCC_493\Debug\CorEx-Mux-Kernel.a(eepromWP.o)
 .comment       0x00000000       0x71 .\CortexM3\ARM_GCC_493\Debug\CorEx-Mux-Kernel.a(Timer_DispenserState.o)
 .comment       0x00000000       0x71 .\CortexM3\ARM_GCC_493\Debug\CorEx-Mux-Kernel.a(DispenserStateTimeout_ISR.o)
 .comment       0x00000000       0x71 .\CortexM3\ARM_GCC_493\Debug\CorEx-Mux-Kernel.a(Timer_Tick.o)
 .comment       0x00000000       0x71 .\CortexM3\ARM_GCC_493\Debug\CorEx-Mux-Kernel.a(ShiftReg_iButtonCRC4LSB.o)
 .comment       0x00000000       0x71 .\CortexM3\ARM_GCC_493\Debug\CorEx-Mux-Kernel.a(Input_iButton.o)
 .comment       0x00000000       0x71 .\CortexM3\ARM_GCC_493\Debug\CorEx-Mux-Kernel.a(Clock_iButton.o)
 .comment       0x00000000       0x71 .\CortexM3\ARM_GCC_493\Debug\CorEx-Mux-Kernel.a(ShiftReg_iButtonCRC3MSB.o)
 .comment       0x00000000       0x71 .\CortexM3\ARM_GCC_493\Debug\CorEx-Mux-Kernel.a(StatusReg_iButton5thCRCBit.o)
 .comment       0x00000000       0x71 .\CortexM3\ARM_GCC_493\Debug\CorEx-Mux-Kernel.a(Reset_iButton.o)
 .comment       0x00000000       0x71 .\CortexM3\ARM_GCC_493\Debug\CorEx-Mux-Kernel.a(CyFlash.o)
 .comment       0x00000000       0x71 .\CortexM3\ARM_GCC_493\Debug\CorEx-Mux-Kernel.a(CySpc.o)

.debug_weaknames
 *(.debug_weaknames)

.debug_funcnames
 *(.debug_funcnames)

.debug_typenames
 *(.debug_typenames)

.debug_varnames
 *(.debug_varnames)

.note.gnu.arm.ident
 *(.note.gnu.arm.ident)

.ARM.attributes
                0x00000000       0x29
 *(.ARM.attributes)
 .ARM.attributes
                0x00000000       0x1d c:/program files (x86)/cypress/psoc creator/3.3/psoc creator/import/gnu/arm/4.9.3/bin/../lib/gcc/arm-none-eabi/4.9.3/armv7-m/crti.o
 .ARM.attributes
                0x0000001d       0x2d c:/program files (x86)/cypress/psoc creator/3.3/psoc creator/import/gnu/arm/4.9.3/bin/../lib/gcc/arm-none-eabi/4.9.3/armv7-m/crtbegin.o
 .ARM.attributes
                0x0000004a       0x1b c:/program files (x86)/cypress/psoc creator/3.3/psoc creator/import/gnu/arm/4.9.3/bin/../lib/gcc/arm-none-eabi/4.9.3/../../../../arm-none-eabi/lib/armv7-m/crt0.o
 .ARM.attributes
                0x00000065       0x33 .\CortexM3\ARM_GCC_493\Debug\UARTManager.o
 .ARM.attributes
                0x00000098       0x33 .\CortexM3\ARM_GCC_493\Debug\UARTResolver.o
 .ARM.attributes
                0x000000cb       0x33 .\CortexM3\ARM_GCC_493\Debug\UARTManagerSink.o
 .ARM.attributes
                0x000000fe       0x33 .\CortexM3\ARM_GCC_493\Debug\PseudoRTOS.o
 .ARM.attributes
                0x00000131       0x33 .\CortexM3\ARM_GCC_493\Debug\Utils.o
 .ARM.attributes
                0x00000164       0x33 .\CortexM3\ARM_GCC_493\Debug\Security.o
 .ARM.attributes
                0x00000197       0x33 .\CortexM3\ARM_GCC_493\Debug\SinkManager.o
 .ARM.attributes
                0x000001ca       0x33 .\CortexM3\ARM_GCC_493\Debug\EepromManager.o
 .ARM.attributes
                0x000001fd       0x33 .\CortexM3\ARM_GCC_493\Debug\RtcManager.o
 .ARM.attributes
                0x00000230       0x33 .\CortexM3\ARM_GCC_493\Debug\Initializers.o
 .ARM.attributes
                0x00000263       0x33 .\CortexM3\ARM_GCC_493\Debug\Timers.o
 .ARM.attributes
                0x00000296       0x33 .\CortexM3\ARM_GCC_493\Debug\TestFile.o
 .ARM.attributes
                0x000002c9       0x33 .\CortexM3\ARM_GCC_493\Debug\AuxPSoC.o
 .ARM.attributes
                0x000002fc       0x33 .\CortexM3\ARM_GCC_493\Debug\WatchDogReset.o
 .ARM.attributes
                0x0000032f       0x33 .\CortexM3\ARM_GCC_493\Debug\DispenserResolver.o
 .ARM.attributes
                0x00000362       0x33 .\CortexM3\ARM_GCC_493\Debug\DispenserBLL.o
 .ARM.attributes
                0x00000395       0x33 .\CortexM3\ARM_GCC_493\Debug\DispenserSink.o
 .ARM.attributes
                0x000003c8       0x33 .\CortexM3\ARM_GCC_493\Debug\DisplayBLL.o
 .ARM.attributes
                0x000003fb       0x33 .\CortexM3\ARM_GCC_493\Debug\DisplaySink.o
 .ARM.attributes
                0x0000042e       0x33 .\CortexM3\ARM_GCC_493\Debug\DisplayUtils.o
 .ARM.attributes
                0x00000461       0x33 .\CortexM3\ARM_GCC_493\Debug\DisplayFlow.o
 .ARM.attributes
                0x00000494       0x33 .\CortexM3\ARM_GCC_493\Debug\DisplayCharacterMap.o
 .ARM.attributes
                0x000004c7       0x33 .\CortexM3\ARM_GCC_493\Debug\DisplayBufferScreenMap.o
 .ARM.attributes
                0x000004fa       0x33 .\CortexM3\ARM_GCC_493\Debug\DisplayResolver.o
 .ARM.attributes
                0x0000052d       0x33 .\CortexM3\ARM_GCC_493\Debug\PrinterBLL.o
 .ARM.attributes
                0x00000560       0x33 .\CortexM3\ARM_GCC_493\Debug\PrinterSink.o
 .ARM.attributes
                0x00000593       0x33 .\CortexM3\ARM_GCC_493\Debug\PrinterResolver.o
 .ARM.attributes
                0x000005c6       0x33 .\CortexM3\ARM_GCC_493\Debug\PrinterTemplate.o
 .ARM.attributes
                0x000005f9       0x33 .\CortexM3\ARM_GCC_493\Debug\iButtonSink.o
 .ARM.attributes
                0x0000062c       0x33 .\CortexM3\ARM_GCC_493\Debug\iButtonBLL.o
 .ARM.attributes
                0x0000065f       0x33 .\CortexM3\ARM_GCC_493\Debug\iButtonProtocol.o
 .ARM.attributes
                0x00000692       0x33 .\CortexM3\ARM_GCC_493\Debug\Prime.o
 .ARM.attributes
                0x000006c5       0x33 .\CortexM3\ARM_GCC_493\Debug\PrimeFlow.o
 .ARM.attributes
                0x000006f8       0x33 .\CortexM3\ARM_GCC_493\Debug\PrimeImpl.o
 .ARM.attributes
                0x0000072b       0x33 .\CortexM3\ARM_GCC_493\Debug\Encore.o
 .ARM.attributes
                0x0000075e       0x33 .\CortexM3\ARM_GCC_493\Debug\EncoreFlow.o
 .ARM.attributes
                0x00000791       0x33 .\CortexM3\ARM_GCC_493\Debug\EncoreImpl.o
 .ARM.attributes
                0x000007c4       0x33 .\CortexM3\ARM_GCC_493\Debug\Advantage.o
 .ARM.attributes
                0x000007f7       0x33 .\CortexM3\ARM_GCC_493\Debug\AdvantageFlow.o
 .ARM.attributes
                0x0000082a       0x33 .\CortexM3\ARM_GCC_493\Debug\AdvantageImpl.o
 .ARM.attributes
                0x0000085d       0x33 .\CortexM3\ARM_GCC_493\Debug\RFSink.o
 .ARM.attributes
                0x00000890       0x33 .\CortexM3\ARM_GCC_493\Debug\RFBLL.o
 .ARM.attributes
                0x000008c3       0x33 .\CortexM3\ARM_GCC_493\Debug\RFResolver.o
 .ARM.attributes
                0x000008f6       0x33 .\CortexM3\ARM_GCC_493\Debug\RFServerStack.o
 .ARM.attributes
                0x00000929       0x33 .\CortexM3\ARM_GCC_493\Debug\RFServerStackImpl.o
 .ARM.attributes
                0x0000095c       0x33 .\CortexM3\ARM_GCC_493\Debug\ClientDefinitions.o
 .ARM.attributes
                0x0000098f       0x33 .\CortexM3\ARM_GCC_493\Debug\main.o
 .ARM.attributes
                0x000009c2       0x33 .\CortexM3\ARM_GCC_493\Debug\cymetadata.o
 .ARM.attributes
                0x000009f5       0x33 .\CortexM3\ARM_GCC_493\Debug\Cm3Start.o
 .ARM.attributes
                0x00000a28       0x33 .\CortexM3\ARM_GCC_493\Debug\CorEx-Mux-Kernel.a(cyfitter_cfg.o)
 .ARM.attributes
                0x00000a5b       0x33 .\CortexM3\ARM_GCC_493\Debug\CorEx-Mux-Kernel.a(RF_Physical.o)
 .ARM.attributes
                0x00000a8e       0x33 .\CortexM3\ARM_GCC_493\Debug\CorEx-Mux-Kernel.a(RF_Physical_INT.o)
 .ARM.attributes
                0x00000ac1       0x33 .\CortexM3\ARM_GCC_493\Debug\CorEx-Mux-Kernel.a(RF_Physical_IntClock.o)
 .ARM.attributes
                0x00000af4       0x21 .\CortexM3\ARM_GCC_493\Debug\CorEx-Mux-Kernel.a(CyBootAsmGnu.o)
 .ARM.attributes
                0x00000b15       0x33 .\CortexM3\ARM_GCC_493\Debug\CorEx-Mux-Kernel.a(CyLib.o)
 .ARM.attributes
                0x00000b48       0x33 .\CortexM3\ARM_GCC_493\Debug\CorEx-Mux-Kernel.a(cyPm.o)
 .ARM.attributes
                0x00000b7b       0x33 .\CortexM3\ARM_GCC_493\Debug\CorEx-Mux-Kernel.a(CRC_Security.o)
 .ARM.attributes
                0x00000bae       0x33 .\CortexM3\ARM_GCC_493\Debug\CorEx-Mux-Kernel.a(ShiftReg_Security.o)
 .ARM.attributes
                0x00000be1       0x33 .\CortexM3\ARM_GCC_493\Debug\CorEx-Mux-Kernel.a(Clock_CRC.o)
 .ARM.attributes
                0x00000c14       0x33 .\CortexM3\ARM_GCC_493\Debug\CorEx-Mux-Kernel.a(Reset_CRC.o)
 .ARM.attributes
                0x00000c47       0x33 .\CortexM3\ARM_GCC_493\Debug\CorEx-Mux-Kernel.a(Printer.o)
 .ARM.attributes
                0x00000c7a       0x33 .\CortexM3\ARM_GCC_493\Debug\CorEx-Mux-Kernel.a(Dispenser.o)
 .ARM.attributes
                0x00000cad       0x33 .\CortexM3\ARM_GCC_493\Debug\CorEx-Mux-Kernel.a(Dispenser_INT.o)
 .ARM.attributes
                0x00000ce0       0x33 .\CortexM3\ARM_GCC_493\Debug\CorEx-Mux-Kernel.a(Display1.o)
 .ARM.attributes
                0x00000d13       0x33 .\CortexM3\ARM_GCC_493\Debug\CorEx-Mux-Kernel.a(Display1_INT.o)
 .ARM.attributes
                0x00000d46       0x33 .\CortexM3\ARM_GCC_493\Debug\CorEx-Mux-Kernel.a(Display2.o)
 .ARM.attributes
                0x00000d79       0x33 .\CortexM3\ARM_GCC_493\Debug\CorEx-Mux-Kernel.a(Display2_INT.o)
 .ARM.attributes
                0x00000dac       0x33 .\CortexM3\ARM_GCC_493\Debug\CorEx-Mux-Kernel.a(Counter_ISR.o)
 .ARM.attributes
                0x00000ddf       0x33 .\CortexM3\ARM_GCC_493\Debug\CorEx-Mux-Kernel.a(Display1_IntClock.o)
 .ARM.attributes
                0x00000e12       0x33 .\CortexM3\ARM_GCC_493\Debug\CorEx-Mux-Kernel.a(Display2_IntClock.o)
 .ARM.attributes
                0x00000e45       0x33 .\CortexM3\ARM_GCC_493\Debug\CorEx-Mux-Kernel.a(I2C_Bus.o)
 .ARM.attributes
                0x00000e78       0x33 .\CortexM3\ARM_GCC_493\Debug\CorEx-Mux-Kernel.a(I2C_Bus_INT.o)
 .ARM.attributes
                0x00000eab       0x33 .\CortexM3\ARM_GCC_493\Debug\CorEx-Mux-Kernel.a(I2C_Bus_PM.o)
 .ARM.attributes
                0x00000ede       0x33 .\CortexM3\ARM_GCC_493\Debug\CorEx-Mux-Kernel.a(I2C_Bus_MASTER.o)
 .ARM.attributes
                0x00000f11       0x33 .\CortexM3\ARM_GCC_493\Debug\CorEx-Mux-Kernel.a(iButton1.o)
 .ARM.attributes
                0x00000f44       0x33 .\CortexM3\ARM_GCC_493\Debug\CorEx-Mux-Kernel.a(iButton2.o)
 .ARM.attributes
                0x00000f77       0x33 .\CortexM3\ARM_GCC_493\Debug\CorEx-Mux-Kernel.a(eepromWP.o)
 .ARM.attributes
                0x00000faa       0x33 .\CortexM3\ARM_GCC_493\Debug\CorEx-Mux-Kernel.a(Timer_DispenserState.o)
 .ARM.attributes
                0x00000fdd       0x33 .\CortexM3\ARM_GCC_493\Debug\CorEx-Mux-Kernel.a(DispenserStateTimeout_ISR.o)
 .ARM.attributes
                0x00001010       0x33 .\CortexM3\ARM_GCC_493\Debug\CorEx-Mux-Kernel.a(Timer_Tick.o)
 .ARM.attributes
                0x00001043       0x33 .\CortexM3\ARM_GCC_493\Debug\CorEx-Mux-Kernel.a(ShiftReg_iButtonCRC4LSB.o)
 .ARM.attributes
                0x00001076       0x33 .\CortexM3\ARM_GCC_493\Debug\CorEx-Mux-Kernel.a(Input_iButton.o)
 .ARM.attributes
                0x000010a9       0x33 .\CortexM3\ARM_GCC_493\Debug\CorEx-Mux-Kernel.a(Clock_iButton.o)
 .ARM.attributes
                0x000010dc       0x33 .\CortexM3\ARM_GCC_493\Debug\CorEx-Mux-Kernel.a(ShiftReg_iButtonCRC3MSB.o)
 .ARM.attributes
                0x0000110f       0x33 .\CortexM3\ARM_GCC_493\Debug\CorEx-Mux-Kernel.a(StatusReg_iButton5thCRCBit.o)
 .ARM.attributes
                0x00001142       0x33 .\CortexM3\ARM_GCC_493\Debug\CorEx-Mux-Kernel.a(Reset_iButton.o)
 .ARM.attributes
                0x00001175       0x33 .\CortexM3\ARM_GCC_493\Debug\CorEx-Mux-Kernel.a(CyFlash.o)
 .ARM.attributes
                0x000011a8       0x33 .\CortexM3\ARM_GCC_493\Debug\CorEx-Mux-Kernel.a(CySpc.o)
 .ARM.attributes
                0x000011db       0x2d c:/program files (x86)/cypress/psoc creator/3.3/psoc creator/import/gnu/arm/4.9.3/bin/../lib/gcc/arm-none-eabi/4.9.3/../../../../arm-none-eabi/lib/armv7-m\libm.a(lib_a-s_pow10.o)
 .ARM.attributes
                0x00001208       0x2d c:/program files (x86)/cypress/psoc creator/3.3/psoc creator/import/gnu/arm/4.9.3/bin/../lib/gcc/arm-none-eabi/4.9.3/../../../../arm-none-eabi/lib/armv7-m\libm.a(lib_a-s_round.o)
 .ARM.attributes
                0x00001235       0x2d c:/program files (x86)/cypress/psoc creator/3.3/psoc creator/import/gnu/arm/4.9.3/bin/../lib/gcc/arm-none-eabi/4.9.3/../../../../arm-none-eabi/lib/armv7-m\libm.a(lib_a-w_pow.o)
 .ARM.attributes
                0x00001262       0x2d c:/program files (x86)/cypress/psoc creator/3.3/psoc creator/import/gnu/arm/4.9.3/bin/../lib/gcc/arm-none-eabi/4.9.3/../../../../arm-none-eabi/lib/armv7-m\libm.a(lib_a-e_pow.o)
 .ARM.attributes
                0x0000128f       0x2d c:/program files (x86)/cypress/psoc creator/3.3/psoc creator/import/gnu/arm/4.9.3/bin/../lib/gcc/arm-none-eabi/4.9.3/../../../../arm-none-eabi/lib/armv7-m\libm.a(lib_a-e_sqrt.o)
 .ARM.attributes
                0x000012bc       0x2d c:/program files (x86)/cypress/psoc creator/3.3/psoc creator/import/gnu/arm/4.9.3/bin/../lib/gcc/arm-none-eabi/4.9.3/../../../../arm-none-eabi/lib/armv7-m\libm.a(lib_a-s_fabs.o)
 .ARM.attributes
                0x000012e9       0x2d c:/program files (x86)/cypress/psoc creator/3.3/psoc creator/import/gnu/arm/4.9.3/bin/../lib/gcc/arm-none-eabi/4.9.3/../../../../arm-none-eabi/lib/armv7-m\libm.a(lib_a-s_finite.o)
 .ARM.attributes
                0x00001316       0x2d c:/program files (x86)/cypress/psoc creator/3.3/psoc creator/import/gnu/arm/4.9.3/bin/../lib/gcc/arm-none-eabi/4.9.3/../../../../arm-none-eabi/lib/armv7-m\libm.a(lib_a-s_fpclassify.o)
 .ARM.attributes
                0x00001343       0x2d c:/program files (x86)/cypress/psoc creator/3.3/psoc creator/import/gnu/arm/4.9.3/bin/../lib/gcc/arm-none-eabi/4.9.3/../../../../arm-none-eabi/lib/armv7-m\libm.a(lib_a-s_lib_ver.o)
 .ARM.attributes
                0x00001370       0x2d c:/program files (x86)/cypress/psoc creator/3.3/psoc creator/import/gnu/arm/4.9.3/bin/../lib/gcc/arm-none-eabi/4.9.3/../../../../arm-none-eabi/lib/armv7-m\libm.a(lib_a-s_matherr.o)
 .ARM.attributes
                0x0000139d       0x2d c:/program files (x86)/cypress/psoc creator/3.3/psoc creator/import/gnu/arm/4.9.3/bin/../lib/gcc/arm-none-eabi/4.9.3/../../../../arm-none-eabi/lib/armv7-m\libm.a(lib_a-s_nan.o)
 .ARM.attributes
                0x000013ca       0x2d c:/program files (x86)/cypress/psoc creator/3.3/psoc creator/import/gnu/arm/4.9.3/bin/../lib/gcc/arm-none-eabi/4.9.3/../../../../arm-none-eabi/lib/armv7-m\libm.a(lib_a-s_rint.o)
 .ARM.attributes
                0x000013f7       0x2d c:/program files (x86)/cypress/psoc creator/3.3/psoc creator/import/gnu/arm/4.9.3/bin/../lib/gcc/arm-none-eabi/4.9.3/../../../../arm-none-eabi/lib/armv7-m\libm.a(lib_a-s_scalbn.o)
 .ARM.attributes
                0x00001424       0x2d c:/program files (x86)/cypress/psoc creator/3.3/psoc creator/import/gnu/arm/4.9.3/bin/../lib/gcc/arm-none-eabi/4.9.3/../../../../arm-none-eabi/lib/armv7-m\libm.a(lib_a-s_copysign.o)
 .ARM.attributes
                0x00001451       0x1d c:/program files (x86)/cypress/psoc creator/3.3/psoc creator/import/gnu/arm/4.9.3/bin/../lib/gcc/arm-none-eabi/4.9.3/armv7-m\libgcc.a(_arm_addsubdf3.o)
 .ARM.attributes
                0x0000146e       0x1d c:/program files (x86)/cypress/psoc creator/3.3/psoc creator/import/gnu/arm/4.9.3/bin/../lib/gcc/arm-none-eabi/4.9.3/armv7-m\libgcc.a(_arm_muldivdf3.o)
 .ARM.attributes
                0x0000148b       0x1d c:/program files (x86)/cypress/psoc creator/3.3/psoc creator/import/gnu/arm/4.9.3/bin/../lib/gcc/arm-none-eabi/4.9.3/armv7-m\libgcc.a(_arm_cmpdf2.o)
 .ARM.attributes
                0x000014a8       0x1d c:/program files (x86)/cypress/psoc creator/3.3/psoc creator/import/gnu/arm/4.9.3/bin/../lib/gcc/arm-none-eabi/4.9.3/armv7-m\libgcc.a(_arm_fixdfsi.o)
 .ARM.attributes
                0x000014c5       0x1d c:/program files (x86)/cypress/psoc creator/3.3/psoc creator/import/gnu/arm/4.9.3/bin/../lib/gcc/arm-none-eabi/4.9.3/armv7-m\libgcc.a(_arm_fixunsdfsi.o)
 .ARM.attributes
                0x000014e2       0x1d c:/program files (x86)/cypress/psoc creator/3.3/psoc creator/import/gnu/arm/4.9.3/bin/../lib/gcc/arm-none-eabi/4.9.3/armv7-m\libgcc.a(_aeabi_uldivmod.o)
 .ARM.attributes
                0x000014ff       0x2d c:/program files (x86)/cypress/psoc creator/3.3/psoc creator/import/gnu/arm/4.9.3/bin/../lib/gcc/arm-none-eabi/4.9.3/armv7-m\libgcc.a(_fixunsdfdi.o)
 .ARM.attributes
                0x0000152c       0x2d c:/program files (x86)/cypress/psoc creator/3.3/psoc creator/import/gnu/arm/4.9.3/bin/../lib/gcc/arm-none-eabi/4.9.3/armv7-m\libgcc.a(bpabi.o)
 .ARM.attributes
                0x00001559       0x1d c:/program files (x86)/cypress/psoc creator/3.3/psoc creator/import/gnu/arm/4.9.3/bin/../lib/gcc/arm-none-eabi/4.9.3/armv7-m\libgcc.a(_dvmd_tls.o)
 .ARM.attributes
                0x00001576       0x2d c:/program files (x86)/cypress/psoc creator/3.3/psoc creator/import/gnu/arm/4.9.3/bin/../lib/gcc/arm-none-eabi/4.9.3/armv7-m\libgcc.a(_divdi3.o)
 .ARM.attributes
                0x000015a3       0x2d c:/program files (x86)/cypress/psoc creator/3.3/psoc creator/import/gnu/arm/4.9.3/bin/../lib/gcc/arm-none-eabi/4.9.3/armv7-m\libgcc.a(_udivdi3.o)
 .ARM.attributes
                0x000015d0       0x2d c:/program files (x86)/cypress/psoc creator/3.3/psoc creator/import/gnu/arm/4.9.3/bin/../lib/gcc/arm-none-eabi/4.9.3/../../../../arm-none-eabi/lib/armv7-m\libg_nano.a(lib_a-errno.o)
 .ARM.attributes
                0x000015fd       0x2d c:/program files (x86)/cypress/psoc creator/3.3/psoc creator/import/gnu/arm/4.9.3/bin/../lib/gcc/arm-none-eabi/4.9.3/../../../../arm-none-eabi/lib/armv7-m\libg_nano.a(lib_a-exit.o)
 .ARM.attributes
                0x0000162a       0x2d c:/program files (x86)/cypress/psoc creator/3.3/psoc creator/import/gnu/arm/4.9.3/bin/../lib/gcc/arm-none-eabi/4.9.3/../../../../arm-none-eabi/lib/armv7-m\libg_nano.a(lib_a-impure.o)
 .ARM.attributes
                0x00001657       0x2d c:/program files (x86)/cypress/psoc creator/3.3/psoc creator/import/gnu/arm/4.9.3/bin/../lib/gcc/arm-none-eabi/4.9.3/../../../../arm-none-eabi/lib/armv7-m\libg_nano.a(lib_a-init.o)
 .ARM.attributes
                0x00001684       0x2d c:/program files (x86)/cypress/psoc creator/3.3/psoc creator/import/gnu/arm/4.9.3/bin/../lib/gcc/arm-none-eabi/4.9.3/../../../../arm-none-eabi/lib/armv7-m\libg_nano.a(lib_a-memcpy.o)
 .ARM.attributes
                0x000016b1       0x2d c:/program files (x86)/cypress/psoc creator/3.3/psoc creator/import/gnu/arm/4.9.3/bin/../lib/gcc/arm-none-eabi/4.9.3/../../../../arm-none-eabi/lib/armv7-m\libg_nano.a(lib_a-memset.o)
 .ARM.attributes
                0x000016de       0x2d c:/program files (x86)/cypress/psoc creator/3.3/psoc creator/import/gnu/arm/4.9.3/bin/../lib/gcc/arm-none-eabi/4.9.3/../../../../arm-none-eabi/lib/armv7-m\libg_nano.a(lib_a-rand.o)
 .ARM.attributes
                0x0000170b       0x2d c:/program files (x86)/cypress/psoc creator/3.3/psoc creator/import/gnu/arm/4.9.3/bin/../lib/gcc/arm-none-eabi/4.9.3/../../../../arm-none-eabi/lib/armv7-m\libg_nano.a(lib_a-sprintf.o)
 .ARM.attributes
                0x00001738       0x2d c:/program files (x86)/cypress/psoc creator/3.3/psoc creator/import/gnu/arm/4.9.3/bin/../lib/gcc/arm-none-eabi/4.9.3/../../../../arm-none-eabi/lib/armv7-m\libg_nano.a(lib_a-strchr.o)
 .ARM.attributes
                0x00001765       0x2d c:/program files (x86)/cypress/psoc creator/3.3/psoc creator/import/gnu/arm/4.9.3/bin/../lib/gcc/arm-none-eabi/4.9.3/../../../../arm-none-eabi/lib/armv7-m\libg_nano.a(lib_a-strlen.o)
 .ARM.attributes
                0x00001792       0x2d c:/program files (x86)/cypress/psoc creator/3.3/psoc creator/import/gnu/arm/4.9.3/bin/../lib/gcc/arm-none-eabi/4.9.3/../../../../arm-none-eabi/lib/armv7-m\libg_nano.a(lib_a-strncmp.o)
 .ARM.attributes
                0x000017bf       0x2d c:/program files (x86)/cypress/psoc creator/3.3/psoc creator/import/gnu/arm/4.9.3/bin/../lib/gcc/arm-none-eabi/4.9.3/../../../../arm-none-eabi/lib/armv7-m\libg_nano.a(lib_a-malloc.o)
 .ARM.attributes
                0x000017ec       0x2d c:/program files (x86)/cypress/psoc creator/3.3/psoc creator/import/gnu/arm/4.9.3/bin/../lib/gcc/arm-none-eabi/4.9.3/../../../../arm-none-eabi/lib/armv7-m\libg_nano.a(lib_a-nano-freer.o)
 .ARM.attributes
                0x00001819       0x2d c:/program files (x86)/cypress/psoc creator/3.3/psoc creator/import/gnu/arm/4.9.3/bin/../lib/gcc/arm-none-eabi/4.9.3/../../../../arm-none-eabi/lib/armv7-m\libg_nano.a(lib_a-nano-mallocr.o)
 .ARM.attributes
                0x00001846       0x2d c:/program files (x86)/cypress/psoc creator/3.3/psoc creator/import/gnu/arm/4.9.3/bin/../lib/gcc/arm-none-eabi/4.9.3/../../../../arm-none-eabi/lib/armv7-m\libg_nano.a(lib_a-nano-svfprintf.o)
 .ARM.attributes
                0x00001873       0x2d c:/program files (x86)/cypress/psoc creator/3.3/psoc creator/import/gnu/arm/4.9.3/bin/../lib/gcc/arm-none-eabi/4.9.3/../../../../arm-none-eabi/lib/armv7-m\libg_nano.a(lib_a-nano-vfprintf_i.o)
 .ARM.attributes
                0x000018a0       0x2d c:/program files (x86)/cypress/psoc creator/3.3/psoc creator/import/gnu/arm/4.9.3/bin/../lib/gcc/arm-none-eabi/4.9.3/../../../../arm-none-eabi/lib/armv7-m\libg_nano.a(lib_a-sbrkr.o)
 .ARM.attributes
                0x000018cd       0x2d c:/program files (x86)/cypress/psoc creator/3.3/psoc creator/import/gnu/arm/4.9.3/bin/../lib/gcc/arm-none-eabi/4.9.3/../../../../arm-none-eabi/lib/armv7-m\libg_nano.a(lib_a-memchr.o)
 .ARM.attributes
                0x000018fa       0x2d c:/program files (x86)/cypress/psoc creator/3.3/psoc creator/import/gnu/arm/4.9.3/bin/../lib/gcc/arm-none-eabi/4.9.3/../../../../arm-none-eabi/lib/armv7-m\libg_nano.a(lib_a-memmove.o)
 .ARM.attributes
                0x00001927       0x2d c:/program files (x86)/cypress/psoc creator/3.3/psoc creator/import/gnu/arm/4.9.3/bin/../lib/gcc/arm-none-eabi/4.9.3/../../../../arm-none-eabi/lib/armv7-m\libg_nano.a(lib_a-nano-reallocr.o)
 .ARM.attributes
                0x00001954       0x2d c:/program files (x86)/cypress/psoc creator/3.3/psoc creator/import/gnu/arm/4.9.3/bin/../lib/gcc/arm-none-eabi/4.9.3/../../../../arm-none-eabi/lib/armv7-m\libg_nano.a(lib_a-reent.o)
 .ARM.attributes
                0x00001981       0x2d c:/program files (x86)/cypress/psoc creator/3.3/psoc creator/import/gnu/arm/4.9.3/bin/../lib/gcc/arm-none-eabi/4.9.3/../../../../arm-none-eabi/lib/armv7-m\libg_nano.a(lib_a-nano-msizer.o)
 .ARM.attributes
                0x000019ae       0x2d c:/program files (x86)/cypress/psoc creator/3.3/psoc creator/import/gnu/arm/4.9.3/bin/../lib/gcc/arm-none-eabi/4.9.3/armv7-m/crtend.o
 .ARM.attributes
                0x000019db       0x1d c:/program files (x86)/cypress/psoc creator/3.3/psoc creator/import/gnu/arm/4.9.3/bin/../lib/gcc/arm-none-eabi/4.9.3/armv7-m/crtn.o

/DISCARD/
 *(.note.GNU-stack)
OUTPUT(.\CortexM3\ARM_GCC_493\Debug\CorEx-Mux-Kernel.elf elf32-littlearm)
