ARM GAS  C:\Users\RECEPC~1\AppData\Local\Temp\ccR42HpU.s 			page 1


   1              		.syntax unified
   2              		.cpu cortex-m3
   3              		.fpu softvfp
   4              		.eabi_attribute 20, 1
   5              		.eabi_attribute 21, 1
   6              		.eabi_attribute 23, 3
   7              		.eabi_attribute 24, 1
   8              		.eabi_attribute 25, 1
   9              		.eabi_attribute 26, 1
  10              		.eabi_attribute 30, 6
  11              		.eabi_attribute 34, 1
  12              		.eabi_attribute 18, 4
  13              		.thumb
  14              		.file	"DisplayBufferScreenMap.c"
  15              		.text
  16              	.Ltext0:
  17              		.cfi_sections	.debug_frame
  18              		.comm	HoseDispenser,1,1
  19              		.global	_g_buffscrlut
  20              		.data
  21              		.align	2
  22              		.type	_g_buffscrlut, %object
  23              		.size	_g_buffscrlut, 102
  24              	_g_buffscrlut:
  25 0000 04       		.byte	4
  26 0001 00       		.space	1
  27 0002 0000     		.short	0
  28 0004 02       		.byte	2
  29 0005 00       		.space	1
  30 0006 2E       		.byte	46
  31 0007 00       		.space	1
  32 0008 0200     		.short	2
  33 000a 02       		.byte	2
  34 000b 00       		.space	1
  35 000c 05       		.byte	5
  36 000d 00       		.space	1
  37 000e 0400     		.short	4
  38 0010 02       		.byte	2
  39 0011 00       		.space	1
  40 0012 7E       		.byte	126
  41 0013 00       		.space	1
  42 0014 0600     		.short	6
  43 0016 02       		.byte	2
  44 0017 00       		.space	1
  45 0018 86       		.byte	-122
  46 0019 00       		.space	1
  47 001a 0600     		.short	6
  48 001c 02       		.byte	2
  49 001d 00       		.space	1
  50 001e 06       		.byte	6
  51 001f 00       		.space	1
  52 0020 0800     		.short	8
  53 0022 10       		.byte	16
  54 0023 00       		.space	1
  55 0024 0D       		.byte	13
  56 0025 00       		.space	1
  57 0026 0800     		.short	8
ARM GAS  C:\Users\RECEPC~1\AppData\Local\Temp\ccR42HpU.s 			page 2


  58 0028 10       		.byte	16
  59 0029 00       		.space	1
  60 002a 0A       		.byte	10
  61 002b 00       		.space	1
  62 002c 1800     		.short	24
  63 002e 08       		.byte	8
  64 002f 00       		.space	1
  65 0030 0B       		.byte	11
  66 0031 00       		.space	1
  67 0032 2000     		.short	32
  68 0034 02       		.byte	2
  69 0035 00       		.space	1
  70 0036 0E       		.byte	14
  71 0037 00       		.space	1
  72 0038 2200     		.short	34
  73 003a 09       		.byte	9
  74 003b 00       		.space	1
  75 003c 12       		.byte	18
  76 003d 00       		.space	1
  77 003e 2B00     		.short	43
  78 0040 08       		.byte	8
  79 0041 00       		.space	1
  80 0042 07       		.byte	7
  81 0043 00       		.space	1
  82 0044 3300     		.short	51
  83 0046 02       		.byte	2
  84 0047 00       		.space	1
  85 0048 65       		.byte	101
  86 0049 00       		.space	1
  87 004a 3500     		.short	53
  88 004c 06       		.byte	6
  89 004d 00       		.space	1
  90 004e FA       		.byte	-6
  91 004f 00       		.space	1
  92 0050 3B00     		.short	59
  93 0052 02       		.byte	2
  94 0053 00       		.space	1
  95 0054 24       		.byte	36
  96 0055 00       		.space	1
  97 0056 3D00     		.short	61
  98 0058 0A       		.byte	10
  99 0059 00       		.space	1
 100 005a 25       		.byte	37
 101 005b 00       		.space	1
 102 005c 4700     		.short	71
 103 005e 08       		.byte	8
 104 005f 00       		.space	1
 105 0060 00       		.byte	0
 106 0061 00       		.space	1
 107 0062 0000     		.short	0
 108 0064 00       		.byte	0
 109 0065 00       		.space	1
 110 0066 0000     		.section	.text.GetBufferIndexFromDisplayID,"ax",%progbits
 111              		.align	2
 112              		.global	GetBufferIndexFromDisplayID
 113              		.thumb
 114              		.thumb_func
ARM GAS  C:\Users\RECEPC~1\AppData\Local\Temp\ccR42HpU.s 			page 3


 115              		.type	GetBufferIndexFromDisplayID, %function
 116              	GetBufferIndexFromDisplayID:
 117              	.LFB0:
 118              		.file 1 ".\\DisplayBufferScreenMap.c"
   1:.\DisplayBufferScreenMap.c **** /* ========================================
   2:.\DisplayBufferScreenMap.c ****  *
   3:.\DisplayBufferScreenMap.c ****  * Copyright INSEPET SISTEMAS, 2016
   4:.\DisplayBufferScreenMap.c ****  * All Rights Reserved
   5:.\DisplayBufferScreenMap.c ****  * UNPUBLISHED, LICENSED SOFTWARE.
   6:.\DisplayBufferScreenMap.c ****  *
   7:.\DisplayBufferScreenMap.c ****  * CONFIDENTIAL AND PROPRIETARY INFORMATION
   8:.\DisplayBufferScreenMap.c ****  * WHICH IS THE PROPERTY OF your company.
   9:.\DisplayBufferScreenMap.c ****  *
  10:.\DisplayBufferScreenMap.c ****  * ========================================
  11:.\DisplayBufferScreenMap.c **** @Created By: HIJH
  12:.\DisplayBufferScreenMap.c **** @Date: Septembre de 2016
  13:.\DisplayBufferScreenMap.c **** */
  14:.\DisplayBufferScreenMap.c **** #include "GlobalDefinitions.h"
  15:.\DisplayBufferScreenMap.c **** #include "SinkManager.h"
  16:.\DisplayBufferScreenMap.c **** #include "Display.h"
  17:.\DisplayBufferScreenMap.c **** 
  18:.\DisplayBufferScreenMap.c **** //@Created By: HIJH
  19:.\DisplayBufferScreenMap.c **** //@Septembre de 2016
  20:.\DisplayBufferScreenMap.c **** DisplayScreenBufferMap _g_buffscrlut[] = 
  21:.\DisplayBufferScreenMap.c **** {
  22:.\DisplayBufferScreenMap.c **** //THIS IS THE MEMORY LAYOUT FOR PAYMENT IN CASH
  23:.\DisplayBufferScreenMap.c ****     { DISPLAY_FORMA_PAGO_DESEADA,       0x0000, 0x02 }, //Two bytes allocated for the payment optio
  24:.\DisplayBufferScreenMap.c ****     { DISPLAY_SELECCIONE_POSICION,      0x0002, 0x02 }, //Two bytes allocated for the pump selectio
  25:.\DisplayBufferScreenMap.c ****     { DISPLAY_FORMA_PROGRAMACION,       0x0004, 0x02 }, //Two bytes allocated for the type of PRESE
  26:.\DisplayBufferScreenMap.c ****     { DISPLAY_SELECCIONE_PRODUCTO3,     0x0006, 0x02 }, //Two bytes allocated for the product type 
  27:.\DisplayBufferScreenMap.c ****     { DISPLAY_SELECCIONE_PRODUCTO4,     0x0006, 0x02 }, //Two bytes allocated for the product type 
  28:.\DisplayBufferScreenMap.c ****     //Both have the same offfset and length since they are mutually exclusive
  29:.\DisplayBufferScreenMap.c ****     { DISPLAY_INTRODUZCA_VALOR,         0x0008, 0x10 }, //Sixteen bytes allocated for the money
  30:.\DisplayBufferScreenMap.c ****     { DISPLAY_INTRODUZCA_VOLUMEN,       0x0008, 0x10 }, //Sixteen bytes allocated for the volume
  31:.\DisplayBufferScreenMap.c ****     { DISPLAY_DIGITE_PLACA,             0x0018, 0x08 }, //Eight bytes allocated for the car's plate
  32:.\DisplayBufferScreenMap.c ****     { DISPLAY_DESEA_IMPRIMIR_RECIBO,    0x0020, 0x02 }, //Two bytes allocated for the invoice print
  33:.\DisplayBufferScreenMap.c ****     { DISPLAY_INTRODUZCA_KILOMETRAJE,   0x0022, 0x09 }, //Nine bytes allocated for the car's mileag
  34:.\DisplayBufferScreenMap.c ****     { DISPLAY_ESPERANDO_ID,             0x002B, 0x08 }, //Eight bytes allocated for the iButton ser
  35:.\DisplayBufferScreenMap.c ****     { DISPLAY_SUBA_MANIJA,              0x0033, 0x02 }, //Two bytes allocated for the Hose identifi
  36:.\DisplayBufferScreenMap.c ****     { DISPLAY_PRECIO_POR_UNIDAD,        0x0035, 0x06 },
  37:.\DisplayBufferScreenMap.c ****     { DISPLAY_SIDE_DUMMY_DISPLAY,       0x003B, 0x02 },
  38:.\DisplayBufferScreenMap.c ****     { DISPLAY_INTRODUZCA_CEDULA,        0x003D, 0x0A },
  39:.\DisplayBufferScreenMap.c ****     { DISPLAY_INGRESE_PASSWORD,         0x0047, 0x08 },
  40:.\DisplayBufferScreenMap.c ****     { 0x00, 0x0000, 0x00 }
  41:.\DisplayBufferScreenMap.c **** //THIS IS THE MEMORY LAYOUT FOR PAYMENT IN CREDIT
  42:.\DisplayBufferScreenMap.c **** };
  43:.\DisplayBufferScreenMap.c **** 
  44:.\DisplayBufferScreenMap.c **** //@Created By: HIJH
  45:.\DisplayBufferScreenMap.c **** //@Septembre de 2016
  46:.\DisplayBufferScreenMap.c **** uint16 GetBufferIndexFromDisplayID(uint8 id)
  47:.\DisplayBufferScreenMap.c **** {
 119              		.loc 1 47 0
 120              		.cfi_startproc
 121              		@ args = 0, pretend = 0, frame = 16
 122              		@ frame_needed = 1, uses_anonymous_args = 0
 123              		@ link register save eliminated.
 124 0000 80B4     		push	{r7}
ARM GAS  C:\Users\RECEPC~1\AppData\Local\Temp\ccR42HpU.s 			page 4


 125              		.cfi_def_cfa_offset 4
 126              		.cfi_offset 7, -4
 127 0002 85B0     		sub	sp, sp, #20
 128              		.cfi_def_cfa_offset 24
 129 0004 00AF     		add	r7, sp, #0
 130              		.cfi_def_cfa_register 7
 131 0006 0346     		mov	r3, r0
 132 0008 FB71     		strb	r3, [r7, #7]
  48:.\DisplayBufferScreenMap.c ****     uint16 retval = 0x0000;
 133              		.loc 1 48 0
 134 000a 0023     		movs	r3, #0
 135 000c FB81     		strh	r3, [r7, #14]	@ movhi
  49:.\DisplayBufferScreenMap.c ****     DisplayScreenBufferMap *ptr = _g_buffscrlut;
 136              		.loc 1 49 0
 137 000e 0D4B     		ldr	r3, .L7
 138 0010 BB60     		str	r3, [r7, #8]
  50:.\DisplayBufferScreenMap.c ****     while(ptr->_refscrid != 0x00)
 139              		.loc 1 50 0
 140 0012 0BE0     		b	.L2
 141              	.L5:
  51:.\DisplayBufferScreenMap.c ****     {
  52:.\DisplayBufferScreenMap.c ****         if(ptr->_refscrid == id)
 142              		.loc 1 52 0
 143 0014 BB68     		ldr	r3, [r7, #8]
 144 0016 1B78     		ldrb	r3, [r3]	@ zero_extendqisi2
 145 0018 FA79     		ldrb	r2, [r7, #7]	@ zero_extendqisi2
 146 001a 9A42     		cmp	r2, r3
 147 001c 03D1     		bne	.L3
  53:.\DisplayBufferScreenMap.c ****         {
  54:.\DisplayBufferScreenMap.c ****             retval = ptr->_bufferpos;
 148              		.loc 1 54 0
 149 001e BB68     		ldr	r3, [r7, #8]
 150 0020 5B88     		ldrh	r3, [r3, #2]	@ movhi
 151 0022 FB81     		strh	r3, [r7, #14]	@ movhi
  55:.\DisplayBufferScreenMap.c ****             break;
 152              		.loc 1 55 0
 153 0024 06E0     		b	.L4
 154              	.L3:
  56:.\DisplayBufferScreenMap.c ****         }
  57:.\DisplayBufferScreenMap.c ****         ptr++;
 155              		.loc 1 57 0
 156 0026 BB68     		ldr	r3, [r7, #8]
 157 0028 0633     		adds	r3, r3, #6
 158 002a BB60     		str	r3, [r7, #8]
 159              	.L2:
  50:.\DisplayBufferScreenMap.c ****     {
 160              		.loc 1 50 0
 161 002c BB68     		ldr	r3, [r7, #8]
 162 002e 1B78     		ldrb	r3, [r3]	@ zero_extendqisi2
 163 0030 002B     		cmp	r3, #0
 164 0032 EFD1     		bne	.L5
 165              	.L4:
  58:.\DisplayBufferScreenMap.c ****     }    
  59:.\DisplayBufferScreenMap.c ****     return retval;
 166              		.loc 1 59 0
 167 0034 FB89     		ldrh	r3, [r7, #14]
  60:.\DisplayBufferScreenMap.c **** }
ARM GAS  C:\Users\RECEPC~1\AppData\Local\Temp\ccR42HpU.s 			page 5


 168              		.loc 1 60 0
 169 0036 1846     		mov	r0, r3
 170 0038 1437     		adds	r7, r7, #20
 171              		.cfi_def_cfa_offset 4
 172 003a BD46     		mov	sp, r7
 173              		.cfi_def_cfa_register 13
 174              		@ sp needed
 175 003c 5DF8047B 		ldr	r7, [sp], #4
 176              		.cfi_restore 7
 177              		.cfi_def_cfa_offset 0
 178 0040 7047     		bx	lr
 179              	.L8:
 180 0042 00BF     		.align	2
 181              	.L7:
 182 0044 00000000 		.word	_g_buffscrlut
 183              		.cfi_endproc
 184              	.LFE0:
 185              		.size	GetBufferIndexFromDisplayID, .-GetBufferIndexFromDisplayID
 186              		.section	.text.GetBufferLengthFromDisplayID,"ax",%progbits
 187              		.align	2
 188              		.global	GetBufferLengthFromDisplayID
 189              		.thumb
 190              		.thumb_func
 191              		.type	GetBufferLengthFromDisplayID, %function
 192              	GetBufferLengthFromDisplayID:
 193              	.LFB1:
  61:.\DisplayBufferScreenMap.c **** 
  62:.\DisplayBufferScreenMap.c **** //@Created By: HIJH
  63:.\DisplayBufferScreenMap.c **** //@Septembre de 2016
  64:.\DisplayBufferScreenMap.c **** uint8 GetBufferLengthFromDisplayID(uint8 id)
  65:.\DisplayBufferScreenMap.c **** {
 194              		.loc 1 65 0
 195              		.cfi_startproc
 196              		@ args = 0, pretend = 0, frame = 16
 197              		@ frame_needed = 1, uses_anonymous_args = 0
 198              		@ link register save eliminated.
 199 0000 80B4     		push	{r7}
 200              		.cfi_def_cfa_offset 4
 201              		.cfi_offset 7, -4
 202 0002 85B0     		sub	sp, sp, #20
 203              		.cfi_def_cfa_offset 24
 204 0004 00AF     		add	r7, sp, #0
 205              		.cfi_def_cfa_register 7
 206 0006 0346     		mov	r3, r0
 207 0008 FB71     		strb	r3, [r7, #7]
  66:.\DisplayBufferScreenMap.c ****     uint8 retval = 0x00;
 208              		.loc 1 66 0
 209 000a 0023     		movs	r3, #0
 210 000c FB73     		strb	r3, [r7, #15]
  67:.\DisplayBufferScreenMap.c ****     DisplayScreenBufferMap *ptr = _g_buffscrlut;
 211              		.loc 1 67 0
 212 000e 0D4B     		ldr	r3, .L15
 213 0010 BB60     		str	r3, [r7, #8]
  68:.\DisplayBufferScreenMap.c ****     while(ptr->_refscrid != 0x00)
 214              		.loc 1 68 0
 215 0012 0BE0     		b	.L10
 216              	.L13:
ARM GAS  C:\Users\RECEPC~1\AppData\Local\Temp\ccR42HpU.s 			page 6


  69:.\DisplayBufferScreenMap.c ****     {
  70:.\DisplayBufferScreenMap.c ****         if(ptr->_refscrid == id)
 217              		.loc 1 70 0
 218 0014 BB68     		ldr	r3, [r7, #8]
 219 0016 1B78     		ldrb	r3, [r3]	@ zero_extendqisi2
 220 0018 FA79     		ldrb	r2, [r7, #7]	@ zero_extendqisi2
 221 001a 9A42     		cmp	r2, r3
 222 001c 03D1     		bne	.L11
  71:.\DisplayBufferScreenMap.c ****         {
  72:.\DisplayBufferScreenMap.c ****             retval = ptr->_bufferlength;
 223              		.loc 1 72 0
 224 001e BB68     		ldr	r3, [r7, #8]
 225 0020 1B79     		ldrb	r3, [r3, #4]
 226 0022 FB73     		strb	r3, [r7, #15]
  73:.\DisplayBufferScreenMap.c ****             break;
 227              		.loc 1 73 0
 228 0024 06E0     		b	.L12
 229              	.L11:
  74:.\DisplayBufferScreenMap.c ****         }
  75:.\DisplayBufferScreenMap.c ****         ptr++;
 230              		.loc 1 75 0
 231 0026 BB68     		ldr	r3, [r7, #8]
 232 0028 0633     		adds	r3, r3, #6
 233 002a BB60     		str	r3, [r7, #8]
 234              	.L10:
  68:.\DisplayBufferScreenMap.c ****     {
 235              		.loc 1 68 0
 236 002c BB68     		ldr	r3, [r7, #8]
 237 002e 1B78     		ldrb	r3, [r3]	@ zero_extendqisi2
 238 0030 002B     		cmp	r3, #0
 239 0032 EFD1     		bne	.L13
 240              	.L12:
  76:.\DisplayBufferScreenMap.c ****     }    
  77:.\DisplayBufferScreenMap.c ****     return retval;
 241              		.loc 1 77 0
 242 0034 FB7B     		ldrb	r3, [r7, #15]	@ zero_extendqisi2
  78:.\DisplayBufferScreenMap.c **** }
 243              		.loc 1 78 0
 244 0036 1846     		mov	r0, r3
 245 0038 1437     		adds	r7, r7, #20
 246              		.cfi_def_cfa_offset 4
 247 003a BD46     		mov	sp, r7
 248              		.cfi_def_cfa_register 13
 249              		@ sp needed
 250 003c 5DF8047B 		ldr	r7, [sp], #4
 251              		.cfi_restore 7
 252              		.cfi_def_cfa_offset 0
 253 0040 7047     		bx	lr
 254              	.L16:
 255 0042 00BF     		.align	2
 256              	.L15:
 257 0044 00000000 		.word	_g_buffscrlut
 258              		.cfi_endproc
 259              	.LFE1:
 260              		.size	GetBufferLengthFromDisplayID, .-GetBufferLengthFromDisplayID
 261              		.section	.text.GetPumpIndexFromDisplay,"ax",%progbits
 262              		.align	2
ARM GAS  C:\Users\RECEPC~1\AppData\Local\Temp\ccR42HpU.s 			page 7


 263              		.global	GetPumpIndexFromDisplay
 264              		.thumb
 265              		.thumb_func
 266              		.type	GetPumpIndexFromDisplay, %function
 267              	GetPumpIndexFromDisplay:
 268              	.LFB2:
  79:.\DisplayBufferScreenMap.c **** 
  80:.\DisplayBufferScreenMap.c **** uint8 GetPumpIndexFromDisplay(LPVOID pparam)
  81:.\DisplayBufferScreenMap.c **** {
 269              		.loc 1 81 0
 270              		.cfi_startproc
 271              		@ args = 0, pretend = 0, frame = 16
 272              		@ frame_needed = 1, uses_anonymous_args = 0
 273 0000 90B5     		push	{r4, r7, lr}
 274              		.cfi_def_cfa_offset 12
 275              		.cfi_offset 4, -12
 276              		.cfi_offset 7, -8
 277              		.cfi_offset 14, -4
 278 0002 85B0     		sub	sp, sp, #20
 279              		.cfi_def_cfa_offset 32
 280 0004 00AF     		add	r7, sp, #0
 281              		.cfi_def_cfa_register 7
 282 0006 7860     		str	r0, [r7, #4]
  82:.\DisplayBufferScreenMap.c ****     uint8 retval = 0;
 283              		.loc 1 82 0
 284 0008 0023     		movs	r3, #0
 285 000a FB73     		strb	r3, [r7, #15]
  83:.\DisplayBufferScreenMap.c ****     PDISPLAYLAYOUTPTR pdisplay = (PDISPLAYLAYOUTPTR)pparam;
 286              		.loc 1 83 0
 287 000c 7B68     		ldr	r3, [r7, #4]
 288 000e BB60     		str	r3, [r7, #8]
  84:.\DisplayBufferScreenMap.c ****     if(pdisplay->_dispid == DISPLAY1)
 289              		.loc 1 84 0
 290 0010 BB68     		ldr	r3, [r7, #8]
 291 0012 1B78     		ldrb	r3, [r3]	@ zero_extendqisi2
 292 0014 002B     		cmp	r3, #0
 293 0016 13D1     		bne	.L18
  85:.\DisplayBufferScreenMap.c ****     {
  86:.\DisplayBufferScreenMap.c ****         switch((uint8)((PSINKMESSAGEPTR)pdisplay->_psequesteredmessagesink)->_buffer[GetBufferIndex
 294              		.loc 1 86 0
 295 0018 BB68     		ldr	r3, [r7, #8]
 296 001a 1C6B     		ldr	r4, [r3, #48]
 297 001c 2E20     		movs	r0, #46
 298 001e FFF7FEFF 		bl	GetBufferIndexFromDisplayID
 299 0022 0346     		mov	r3, r0
 300 0024 2344     		add	r3, r3, r4
 301 0026 1B7B     		ldrb	r3, [r3, #12]	@ zero_extendqisi2
 302 0028 562B     		cmp	r3, #86
 303 002a 02D0     		beq	.L20
 304 002c 572B     		cmp	r3, #87
 305 002e 03D0     		beq	.L21
 306 0030 1DE0     		b	.L22
 307              	.L20:
  87:.\DisplayBufferScreenMap.c ****         {
  88:.\DisplayBufferScreenMap.c ****             case POSITIONA:
  89:.\DisplayBufferScreenMap.c ****             {
  90:.\DisplayBufferScreenMap.c ****                 retval = 0x00;
ARM GAS  C:\Users\RECEPC~1\AppData\Local\Temp\ccR42HpU.s 			page 8


 308              		.loc 1 90 0
 309 0032 0023     		movs	r3, #0
 310 0034 FB73     		strb	r3, [r7, #15]
  91:.\DisplayBufferScreenMap.c ****                 break;
 311              		.loc 1 91 0
 312 0036 02E0     		b	.L19
 313              	.L21:
  92:.\DisplayBufferScreenMap.c ****             }
  93:.\DisplayBufferScreenMap.c ****             case POSITIONB:
  94:.\DisplayBufferScreenMap.c ****             {
  95:.\DisplayBufferScreenMap.c ****                 retval = 0x02;
 314              		.loc 1 95 0
 315 0038 0223     		movs	r3, #2
 316 003a FB73     		strb	r3, [r7, #15]
  96:.\DisplayBufferScreenMap.c ****                 break;
 317              		.loc 1 96 0
 318 003c 00BF     		nop
 319              	.L19:
 320 003e 16E0     		b	.L22
 321              	.L18:
  97:.\DisplayBufferScreenMap.c ****             }
  98:.\DisplayBufferScreenMap.c ****         }
  99:.\DisplayBufferScreenMap.c ****     }
 100:.\DisplayBufferScreenMap.c ****     else if(pdisplay->_dispid == DISPLAY2)
 322              		.loc 1 100 0
 323 0040 BB68     		ldr	r3, [r7, #8]
 324 0042 1B78     		ldrb	r3, [r3]	@ zero_extendqisi2
 325 0044 012B     		cmp	r3, #1
 326 0046 12D1     		bne	.L22
 101:.\DisplayBufferScreenMap.c ****     {
 102:.\DisplayBufferScreenMap.c ****         switch((uint8)((PSINKMESSAGEPTR)pdisplay->_psequesteredmessagesink)->_buffer[GetBufferIndex
 327              		.loc 1 102 0
 328 0048 BB68     		ldr	r3, [r7, #8]
 329 004a 1C6B     		ldr	r4, [r3, #48]
 330 004c 2E20     		movs	r0, #46
 331 004e FFF7FEFF 		bl	GetBufferIndexFromDisplayID
 332 0052 0346     		mov	r3, r0
 333 0054 2344     		add	r3, r3, r4
 334 0056 1B7B     		ldrb	r3, [r3, #12]	@ zero_extendqisi2
 335 0058 562B     		cmp	r3, #86
 336 005a 02D0     		beq	.L23
 337 005c 572B     		cmp	r3, #87
 338 005e 03D0     		beq	.L24
 339 0060 05E0     		b	.L22
 340              	.L23:
 103:.\DisplayBufferScreenMap.c ****         {
 104:.\DisplayBufferScreenMap.c ****             case POSITIONA:
 105:.\DisplayBufferScreenMap.c ****             {
 106:.\DisplayBufferScreenMap.c ****                 retval = 0x03;
 341              		.loc 1 106 0
 342 0062 0323     		movs	r3, #3
 343 0064 FB73     		strb	r3, [r7, #15]
 107:.\DisplayBufferScreenMap.c ****                 break;
 344              		.loc 1 107 0
 345 0066 02E0     		b	.L22
 346              	.L24:
 108:.\DisplayBufferScreenMap.c ****             }
ARM GAS  C:\Users\RECEPC~1\AppData\Local\Temp\ccR42HpU.s 			page 9


 109:.\DisplayBufferScreenMap.c ****             case POSITIONB:
 110:.\DisplayBufferScreenMap.c ****             {
 111:.\DisplayBufferScreenMap.c ****                 retval = 0x01;
 347              		.loc 1 111 0
 348 0068 0123     		movs	r3, #1
 349 006a FB73     		strb	r3, [r7, #15]
 112:.\DisplayBufferScreenMap.c ****                 break;
 350              		.loc 1 112 0
 351 006c 00BF     		nop
 352              	.L22:
 113:.\DisplayBufferScreenMap.c ****             }
 114:.\DisplayBufferScreenMap.c ****         }
 115:.\DisplayBufferScreenMap.c ****     }
 116:.\DisplayBufferScreenMap.c ****     
 117:.\DisplayBufferScreenMap.c ****     return retval;
 353              		.loc 1 117 0
 354 006e FB7B     		ldrb	r3, [r7, #15]	@ zero_extendqisi2
 118:.\DisplayBufferScreenMap.c **** }
 355              		.loc 1 118 0
 356 0070 1846     		mov	r0, r3
 357 0072 1437     		adds	r7, r7, #20
 358              		.cfi_def_cfa_offset 12
 359 0074 BD46     		mov	sp, r7
 360              		.cfi_def_cfa_register 13
 361              		@ sp needed
 362 0076 90BD     		pop	{r4, r7, pc}
 363              		.cfi_endproc
 364              	.LFE2:
 365              		.size	GetPumpIndexFromDisplay, .-GetPumpIndexFromDisplay
 366              		.text
 367              	.Letext0:
 368              		.file 2 "Generated_Source\\PSoC5/cytypes.h"
 369              		.file 3 ".\\GlobalDefinitions.h"
 370              		.file 4 ".\\SinkManager.h"
 371              		.file 5 ".\\Display.h"