

   1              		.syntax unified
   2              		.cpu cortex-m3
   3              		.fpu softvfp
   4              		.eabi_attribute 20, 1
   5              		.eabi_attribute 21, 1
   6              		.eabi_attribute 23, 3
   7              		.eabi_attribute 24, 1
   8              		.eabi_attribute 25, 1
   9              		.eabi_attribute 26, 1
  10              		.eabi_attribute 30, 6
  11              		.eabi_attribute 34, 1
  12              		.eabi_attribute 18, 4
  13              		.thumb
  14              		.file	"DisplayUtils.c"
  15              		.text
  16              	.Ltext0:
  17              		.cfi_sections	.debug_frame
  18              		.global	_g_displaystarting
  19              		.data
  20              		.type	_g_displaystarting, %object
  21              		.size	_g_displaystarting, 1
  22              	_g_displaystarting:
  23 0000 01       		.byte	1
  24              		.global	_g_productbuttonmap
  25 0001 000000   		.align	2
  26              		.type	_g_productbuttonmap, %object
  27              		.size	_g_productbuttonmap, 10
  28              	_g_productbuttonmap:
  29 0004 80       		.byte	-128
  30 0005 00       		.byte	0
  31 0006 81       		.byte	-127
  32 0007 01       		.byte	1
  33 0008 7F       		.byte	127
  34 0009 02       		.byte	2
  35 000a B8       		.byte	-72
  36 000b 03       		.byte	3
  37 000c 00       		.byte	0
  38 000d 00       		.byte	0
  39 000e 0000     		.section	.rodata
  40              		.align	2
  41              	.LC0:
  42 0000 AA       		.byte	-86
  43 0001 98       		.byte	-104
  44 0002 CC       		.byte	-52
  45 0003 33       		.byte	51
  46 0004 C3       		.byte	-61
  47 0005 3C       		.byte	60
  48              		.section	.text.DisplayOutputString,"ax",%progbits
  49              		.align	2
  50              		.global	DisplayOutputString
  51              		.thumb
  52              		.thumb_func
  53              		.type	DisplayOutputString, %function
  54              	DisplayOutputString:
  55              	.LFB63:
  56              		.file 1 ".\\DisplayUtils.c"
   1:.\DisplayUtils.c **** /* ========================================


   2:.\DisplayUtils.c ****  *
   3:.\DisplayUtils.c ****  * Copyright INSEPET SISTEMAS, 2016
   4:.\DisplayUtils.c ****  * All Rights Reserved
   5:.\DisplayUtils.c ****  * UNPUBLISHED, LICENSED SOFTWARE.
   6:.\DisplayUtils.c ****  *
   7:.\DisplayUtils.c ****  * CONFIDENTIAL AND PROPRIETARY INFORMATION
   8:.\DisplayUtils.c ****  * WHICH IS THE PROPERTY OF your company.
   9:.\DisplayUtils.c ****  *
  10:.\DisplayUtils.c ****  * ========================================
  11:.\DisplayUtils.c **** @Created By: HIJH
  12:.\DisplayUtils.c **** @Date: Septembre de 2016
  13:.\DisplayUtils.c **** */
  14:.\DisplayUtils.c **** #include <project.h>
  15:.\DisplayUtils.c **** #include "GlobalDefinitions.h"
  16:.\DisplayUtils.c **** #include "Dispenser.h"
  17:.\DisplayUtils.c **** #include "UARTManager.h"
  18:.\DisplayUtils.c **** #include "SinkManager.h"
  19:.\DisplayUtils.c **** #include "SinkObservables.h"
  20:.\DisplayUtils.c **** #include "Printer.h"
  21:.\DisplayUtils.c **** #include "Display.h"
  22:.\DisplayUtils.c **** #include "Eeprom.h"
  23:.\DisplayUtils.c **** #include "Rtc.h"
  24:.\DisplayUtils.c **** 
  25:.\DisplayUtils.c **** bool _g_displaystarting = true;
  26:.\DisplayUtils.c **** 
  27:.\DisplayUtils.c **** DisplayCharacterMap _g_productbuttonmap[] = 
  28:.\DisplayUtils.c **** {
  29:.\DisplayUtils.c ****     { 0x80, 0x00 },
  30:.\DisplayUtils.c ****     { 0x81, 0x01 },
  31:.\DisplayUtils.c ****     { 0x7F, 0x02 },
  32:.\DisplayUtils.c ****     { 0xB8, 0x03 },
  33:.\DisplayUtils.c ****     { 0x00, 0x00 }
  34:.\DisplayUtils.c **** };
  35:.\DisplayUtils.c **** 
  36:.\DisplayUtils.c **** //@Created By: HIJH
  37:.\DisplayUtils.c **** //@Septembre de 2016
  38:.\DisplayUtils.c **** uint16 DisplayOutputString(uint16 xpos, uint16 ypos, char *pbuffer, char8 *pstring, uint16 buffersi
  39:.\DisplayUtils.c **** {
  57              		.loc 1 39 0
  58              		.cfi_startproc
  59              		@ args = 12, pretend = 0, frame = 32
  60              		@ frame_needed = 1, uses_anonymous_args = 0
  61 0000 80B5     		push	{r7, lr}
  62              		.cfi_def_cfa_offset 8
  63              		.cfi_offset 7, -8
  64              		.cfi_offset 14, -4
  65 0002 88B0     		sub	sp, sp, #32
  66              		.cfi_def_cfa_offset 40
  67 0004 00AF     		add	r7, sp, #0
  68              		.cfi_def_cfa_register 7
  69 0006 BA60     		str	r2, [r7, #8]
  70 0008 7B60     		str	r3, [r7, #4]
  71 000a 0346     		mov	r3, r0	@ movhi
  72 000c FB81     		strh	r3, [r7, #14]	@ movhi
  73 000e 0B46     		mov	r3, r1	@ movhi
  74 0010 BB81     		strh	r3, [r7, #12]	@ movhi
  40:.\DisplayUtils.c ****     uint16 retval = 0x0000;


  75              		.loc 1 40 0
  76 0012 0023     		movs	r3, #0
  77 0014 FB83     		strh	r3, [r7, #30]	@ movhi
  41:.\DisplayUtils.c ****     if(pbuffer)
  78              		.loc 1 41 0
  79 0016 BB68     		ldr	r3, [r7, #8]
  80 0018 002B     		cmp	r3, #0
  81 001a 00F08680 		beq	.L2
  82              	.LBB2:
  42:.\DisplayUtils.c ****     {
  43:.\DisplayUtils.c ****         char8 pframedelimiters[] = { 0xAA, 0x98, 0xCC, 0x33, 0xC3, 0x3C };
  83              		.loc 1 43 0
  84 001e 454A     		ldr	r2, .L4
  85 0020 07F11803 		add	r3, r7, #24
  86 0024 1068     		ldr	r0, [r2]	@ unaligned
  87 0026 1860     		str	r0, [r3]	@ unaligned
  88 0028 9288     		ldrh	r2, [r2, #4]	@ unaligned
  89 002a 9A80     		strh	r2, [r3, #4]	@ unaligned
  44:.\DisplayUtils.c ****         //Frame header + Command ID delimiters
  45:.\DisplayUtils.c ****         memcpy(&pbuffer[retval], &pframedelimiters[0], 2);
  90              		.loc 1 45 0
  91 002c FB8B     		ldrh	r3, [r7, #30]
  92 002e BA68     		ldr	r2, [r7, #8]
  93 0030 1A44     		add	r2, r2, r3
  94 0032 07F11803 		add	r3, r7, #24
  95 0036 1046     		mov	r0, r2
  96 0038 1946     		mov	r1, r3
  97 003a 0222     		movs	r2, #2
  98 003c FFF7FEFF 		bl	memcpy
  46:.\DisplayUtils.c ****         retval += 2;
  99              		.loc 1 46 0
 100 0040 FB8B     		ldrh	r3, [r7, #30]	@ movhi
 101 0042 0233     		adds	r3, r3, #2
 102 0044 FB83     		strh	r3, [r7, #30]	@ movhi
  47:.\DisplayUtils.c ****         
  48:.\DisplayUtils.c ****         //X position of the string MSB
  49:.\DisplayUtils.c ****         pbuffer[retval++] = (xpos >> 8) & 0xFF;
 103              		.loc 1 49 0
 104 0046 FB8B     		ldrh	r3, [r7, #30]
 105 0048 5A1C     		adds	r2, r3, #1
 106 004a FA83     		strh	r2, [r7, #30]	@ movhi
 107 004c 1A46     		mov	r2, r3
 108 004e BB68     		ldr	r3, [r7, #8]
 109 0050 1344     		add	r3, r3, r2
 110 0052 FA89     		ldrh	r2, [r7, #14]
 111 0054 120A     		lsrs	r2, r2, #8
 112 0056 92B2     		uxth	r2, r2
 113 0058 D2B2     		uxtb	r2, r2
 114 005a 1A70     		strb	r2, [r3]
  50:.\DisplayUtils.c ****         //X position of the string LSB
  51:.\DisplayUtils.c ****         pbuffer[retval++] = xpos & 0xFF;
 115              		.loc 1 51 0
 116 005c FB8B     		ldrh	r3, [r7, #30]
 117 005e 5A1C     		adds	r2, r3, #1
 118 0060 FA83     		strh	r2, [r7, #30]	@ movhi
 119 0062 1A46     		mov	r2, r3
 120 0064 BB68     		ldr	r3, [r7, #8]


 121 0066 1344     		add	r3, r3, r2
 122 0068 FA89     		ldrh	r2, [r7, #14]	@ movhi
 123 006a D2B2     		uxtb	r2, r2
 124 006c 1A70     		strb	r2, [r3]
  52:.\DisplayUtils.c ****         //Y position of the string MSB
  53:.\DisplayUtils.c ****         pbuffer[retval++] = (ypos >> 8) & 0xFF;
 125              		.loc 1 53 0
 126 006e FB8B     		ldrh	r3, [r7, #30]
 127 0070 5A1C     		adds	r2, r3, #1
 128 0072 FA83     		strh	r2, [r7, #30]	@ movhi
 129 0074 1A46     		mov	r2, r3
 130 0076 BB68     		ldr	r3, [r7, #8]
 131 0078 1344     		add	r3, r3, r2
 132 007a BA89     		ldrh	r2, [r7, #12]
 133 007c 120A     		lsrs	r2, r2, #8
 134 007e 92B2     		uxth	r2, r2
 135 0080 D2B2     		uxtb	r2, r2
 136 0082 1A70     		strb	r2, [r3]
  54:.\DisplayUtils.c ****         //Y position of the string LSB
  55:.\DisplayUtils.c ****         pbuffer[retval++] = ypos & 0xFF;
 137              		.loc 1 55 0
 138 0084 FB8B     		ldrh	r3, [r7, #30]
 139 0086 5A1C     		adds	r2, r3, #1
 140 0088 FA83     		strh	r2, [r7, #30]	@ movhi
 141 008a 1A46     		mov	r2, r3
 142 008c BB68     		ldr	r3, [r7, #8]
 143 008e 1344     		add	r3, r3, r2
 144 0090 BA89     		ldrh	r2, [r7, #12]	@ movhi
 145 0092 D2B2     		uxtb	r2, r2
 146 0094 1A70     		strb	r2, [r3]
  56:.\DisplayUtils.c ****         
  57:.\DisplayUtils.c ****         //Transparent Background: 0x85
  58:.\DisplayUtils.c ****         //Opaque Background: 0xC5
  59:.\DisplayUtils.c ****         char8 punk[]  = { 0x20 | (fontdata._size & 0x0F), fontdata._opaquebackground, 0x02, (fontda
 147              		.loc 1 59 0
 148 0096 97F82C30 		ldrb	r3, [r7, #44]	@ zero_extendqisi2
 149 009a DBB2     		uxtb	r3, r3
 150 009c 03F00F03 		and	r3, r3, #15
 151 00a0 DBB2     		uxtb	r3, r3
 152 00a2 43F02003 		orr	r3, r3, #32
 153 00a6 DBB2     		uxtb	r3, r3
 154 00a8 DBB2     		uxtb	r3, r3
 155 00aa 3B74     		strb	r3, [r7, #16]
 156 00ac 97F82E30 		ldrb	r3, [r7, #46]	@ zero_extendqisi2
 157 00b0 7B74     		strb	r3, [r7, #17]
 158 00b2 0223     		movs	r3, #2
 159 00b4 BB74     		strb	r3, [r7, #18]
 160 00b6 7B8E     		ldrh	r3, [r7, #50]
 161 00b8 1B0A     		lsrs	r3, r3, #8
 162 00ba 9BB2     		uxth	r3, r3
 163 00bc DBB2     		uxtb	r3, r3
 164 00be FB74     		strb	r3, [r7, #19]
 165 00c0 7B8E     		ldrh	r3, [r7, #50]
 166 00c2 DBB2     		uxtb	r3, r3
 167 00c4 3B75     		strb	r3, [r7, #20]
 168 00c6 3B8E     		ldrh	r3, [r7, #48]
 169 00c8 1B0A     		lsrs	r3, r3, #8


 170 00ca 9BB2     		uxth	r3, r3
 171 00cc DBB2     		uxtb	r3, r3
 172 00ce 7B75     		strb	r3, [r7, #21]
 173 00d0 3B8E     		ldrh	r3, [r7, #48]
 174 00d2 DBB2     		uxtb	r3, r3
 175 00d4 BB75     		strb	r3, [r7, #22]
  60:.\DisplayUtils.c ****         memcpy(&pbuffer[retval], punk, sizeof(punk));
 176              		.loc 1 60 0
 177 00d6 FB8B     		ldrh	r3, [r7, #30]
 178 00d8 BA68     		ldr	r2, [r7, #8]
 179 00da 1344     		add	r3, r3, r2
 180 00dc 1A46     		mov	r2, r3
 181 00de 07F11003 		add	r3, r7, #16
 182 00e2 1868     		ldr	r0, [r3]	@ unaligned
 183 00e4 1060     		str	r0, [r2]	@ unaligned
 184 00e6 9988     		ldrh	r1, [r3, #4]	@ unaligned
 185 00e8 9B79     		ldrb	r3, [r3, #6]
 186 00ea 9180     		strh	r1, [r2, #4]	@ unaligned
 187 00ec 9371     		strb	r3, [r2, #6]
  61:.\DisplayUtils.c ****         retval += sizeof(punk);
 188              		.loc 1 61 0
 189 00ee FB8B     		ldrh	r3, [r7, #30]	@ movhi
 190 00f0 0733     		adds	r3, r3, #7
 191 00f2 FB83     		strh	r3, [r7, #30]	@ movhi
  62:.\DisplayUtils.c **** 
  63:.\DisplayUtils.c ****         //Copying the string into the buffer
  64:.\DisplayUtils.c ****         memcpy(&pbuffer[retval], pstring, buffersize);
 192              		.loc 1 64 0
 193 00f4 FB8B     		ldrh	r3, [r7, #30]
 194 00f6 BA68     		ldr	r2, [r7, #8]
 195 00f8 1A44     		add	r2, r2, r3
 196 00fa 3B8D     		ldrh	r3, [r7, #40]
 197 00fc 1046     		mov	r0, r2
 198 00fe 7968     		ldr	r1, [r7, #4]
 199 0100 1A46     		mov	r2, r3
 200 0102 FFF7FEFF 		bl	memcpy
  65:.\DisplayUtils.c ****         retval += buffersize;
 201              		.loc 1 65 0
 202 0106 FA8B     		ldrh	r2, [r7, #30]	@ movhi
 203 0108 3B8D     		ldrh	r3, [r7, #40]	@ movhi
 204 010a 1344     		add	r3, r3, r2
 205 010c FB83     		strh	r3, [r7, #30]	@ movhi
  66:.\DisplayUtils.c ****         //Frame foot delimiter
  67:.\DisplayUtils.c ****         memcpy(&pbuffer[retval], &pframedelimiters[2], 4);
 206              		.loc 1 67 0
 207 010e FB8B     		ldrh	r3, [r7, #30]
 208 0110 BA68     		ldr	r2, [r7, #8]
 209 0112 1A44     		add	r2, r2, r3
 210 0114 07F11803 		add	r3, r7, #24
 211 0118 0233     		adds	r3, r3, #2
 212 011a 1046     		mov	r0, r2
 213 011c 1946     		mov	r1, r3
 214 011e 0422     		movs	r2, #4
 215 0120 FFF7FEFF 		bl	memcpy
  68:.\DisplayUtils.c ****         retval += 4;
 216              		.loc 1 68 0
 217 0124 FB8B     		ldrh	r3, [r7, #30]	@ movhi


 218 0126 0433     		adds	r3, r3, #4
 219 0128 FB83     		strh	r3, [r7, #30]	@ movhi
 220              	.L2:
 221              	.LBE2:
  69:.\DisplayUtils.c ****     }
  70:.\DisplayUtils.c ****     return retval;
 222              		.loc 1 70 0
 223 012a FB8B     		ldrh	r3, [r7, #30]
  71:.\DisplayUtils.c **** }
 224              		.loc 1 71 0
 225 012c 1846     		mov	r0, r3
 226 012e 2037     		adds	r7, r7, #32
 227              		.cfi_def_cfa_offset 8
 228 0130 BD46     		mov	sp, r7
 229              		.cfi_def_cfa_register 13
 230              		@ sp needed
 231 0132 80BD     		pop	{r7, pc}
 232              	.L5:
 233              		.align	2
 234              	.L4:
 235 0134 00000000 		.word	.LC0
 236              		.cfi_endproc
 237              	.LFE63:
 238              		.size	DisplayOutputString, .-DisplayOutputString
 239              		.section	.text.ParseDisplayFlow,"ax",%progbits
 240              		.align	2
 241              		.global	ParseDisplayFlow
 242              		.thumb
 243              		.thumb_func
 244              		.type	ParseDisplayFlow, %function
 245              	ParseDisplayFlow:
 246              	.LFB64:
  72:.\DisplayUtils.c **** 
  73:.\DisplayUtils.c **** //@Created by: HIJH
  74:.\DisplayUtils.c **** //@Date: Septembre de 2016
  75:.\DisplayUtils.c **** //Parses the display flow matrix and determines which screen is next
  76:.\DisplayUtils.c **** //depending on the predefined conditions.
  77:.\DisplayUtils.c **** //It also checks on the current screen for either display, this parser determines whether the curre
  78:.\DisplayUtils.c **** //screen needs to change as consequence of an external state change. For instance, if a PUMP state 
  79:.\DisplayUtils.c **** //maybe it requires that the display shows another different screen.
  80:.\DisplayUtils.c **** void ParseDisplayFlow(void *pparam)
  81:.\DisplayUtils.c **** {
 247              		.loc 1 81 0
 248              		.cfi_startproc
 249              		@ args = 0, pretend = 0, frame = 24
 250              		@ frame_needed = 1, uses_anonymous_args = 0
 251              		@ link register save eliminated.
 252 0000 80B4     		push	{r7}
 253              		.cfi_def_cfa_offset 4
 254              		.cfi_offset 7, -4
 255 0002 87B0     		sub	sp, sp, #28
 256              		.cfi_def_cfa_offset 32
 257 0004 00AF     		add	r7, sp, #0
 258              		.cfi_def_cfa_register 7
 259 0006 7860     		str	r0, [r7, #4]
  82:.\DisplayUtils.c ****     PDISPLAYLAYOUTPTR pdisplay = (PDISPLAYLAYOUTPTR)pparam;
 260              		.loc 1 82 0


 261 0008 7B68     		ldr	r3, [r7, #4]
 262 000a FB60     		str	r3, [r7, #12]
  83:.\DisplayUtils.c ****     PDISPLAYFLOWPTR pdispflow = pdisplay->_preferenceflow;
 263              		.loc 1 83 0
 264 000c FB68     		ldr	r3, [r7, #12]
 265 000e 5B69     		ldr	r3, [r3, #20]
 266 0010 7B61     		str	r3, [r7, #20]
  84:.\DisplayUtils.c ****     while(pdispflow->_scrid != DISPLAY_NULL)
 267              		.loc 1 84 0
 268 0012 3FE0     		b	.L7
 269              	.L15:
  85:.\DisplayUtils.c ****     {        
  86:.\DisplayUtils.c ****         if(pdispflow->_scrid == pdisplay->_pcurrflow->_scrid && 
 270              		.loc 1 86 0
 271 0014 7B69     		ldr	r3, [r7, #20]
 272 0016 1A78     		ldrb	r2, [r3]	@ zero_extendqisi2
 273 0018 FB68     		ldr	r3, [r7, #12]
 274 001a 1B69     		ldr	r3, [r3, #16]
 275 001c 1B78     		ldrb	r3, [r3]	@ zero_extendqisi2
 276 001e 9A42     		cmp	r2, r3
 277 0020 35D1     		bne	.L8
  87:.\DisplayUtils.c ****             pdispflow->_parentscrid == pdisplay->_pcurrflow->_parentscrid && 
 278              		.loc 1 87 0 discriminator 1
 279 0022 7B69     		ldr	r3, [r7, #20]
 280 0024 5A78     		ldrb	r2, [r3, #1]	@ zero_extendqisi2
 281 0026 FB68     		ldr	r3, [r7, #12]
 282 0028 1B69     		ldr	r3, [r3, #16]
 283 002a 5B78     		ldrb	r3, [r3, #1]	@ zero_extendqisi2
  86:.\DisplayUtils.c ****             pdispflow->_parentscrid == pdisplay->_pcurrflow->_parentscrid && 
 284              		.loc 1 86 0 discriminator 1
 285 002c 9A42     		cmp	r2, r3
 286 002e 2ED1     		bne	.L8
  88:.\DisplayUtils.c ****             pdispflow->_parentcode == pdisplay->_pcurrflow->_parentcode)
 287              		.loc 1 88 0
 288 0030 7B69     		ldr	r3, [r7, #20]
 289 0032 9A78     		ldrb	r2, [r3, #2]	@ zero_extendqisi2
 290 0034 FB68     		ldr	r3, [r7, #12]
 291 0036 1B69     		ldr	r3, [r3, #16]
 292 0038 9B78     		ldrb	r3, [r3, #2]	@ zero_extendqisi2
  87:.\DisplayUtils.c ****             pdispflow->_parentscrid == pdisplay->_pcurrflow->_parentscrid && 
 293              		.loc 1 87 0
 294 003a 9A42     		cmp	r2, r3
 295 003c 27D1     		bne	.L8
 296              	.LBB3:
  89:.\DisplayUtils.c ****         {
  90:.\DisplayUtils.c ****             FOR(uint8 index = 0, index < _MAX_DISPLAY_PATHS_, index++)
 297              		.loc 1 90 0
 298 003e 0023     		movs	r3, #0
 299 0040 FB74     		strb	r3, [r7, #19]
 300 0042 20E0     		b	.L9
 301              	.L13:
  91:.\DisplayUtils.c ****             {
  92:.\DisplayUtils.c ****                 if(pdispflow->_pathcodes[index] == pdisplay->_currscrcode)
 302              		.loc 1 92 0
 303 0044 FB7C     		ldrb	r3, [r7, #19]	@ zero_extendqisi2
 304 0046 7A69     		ldr	r2, [r7, #20]
 305 0048 1344     		add	r3, r3, r2


 306 004a DA79     		ldrb	r2, [r3, #7]	@ zero_extendqisi2
 307 004c FB68     		ldr	r3, [r7, #12]
 308 004e DB78     		ldrb	r3, [r3, #3]	@ zero_extendqisi2
 309 0050 9A42     		cmp	r2, r3
 310 0052 06D1     		bne	.L10
  93:.\DisplayUtils.c ****                 {
  94:.\DisplayUtils.c ****                     pdisplay->_nextscrid = pdispflow->_pathnodes[index];
 311              		.loc 1 94 0
 312 0054 FB7C     		ldrb	r3, [r7, #19]	@ zero_extendqisi2
 313 0056 7A69     		ldr	r2, [r7, #20]
 314 0058 1344     		add	r3, r3, r2
 315 005a 5A7B     		ldrb	r2, [r3, #13]	@ zero_extendqisi2
 316 005c FB68     		ldr	r3, [r7, #12]
 317 005e 9A70     		strb	r2, [r3, #2]
  95:.\DisplayUtils.c ****                     break;
 318              		.loc 1 95 0
 319 0060 14E0     		b	.L11
 320              	.L10:
  96:.\DisplayUtils.c ****                 }
  97:.\DisplayUtils.c ****                 if(pdispflow->_statecodes[index] == pdisplay->_currentstate)
 321              		.loc 1 97 0
 322 0062 FB7C     		ldrb	r3, [r7, #19]	@ zero_extendqisi2
 323 0064 7A69     		ldr	r2, [r7, #20]
 324 0066 1344     		add	r3, r3, r2
 325 0068 DA7C     		ldrb	r2, [r3, #19]	@ zero_extendqisi2
 326 006a FB68     		ldr	r3, [r7, #12]
 327 006c 1B79     		ldrb	r3, [r3, #4]	@ zero_extendqisi2
 328 006e 9A42     		cmp	r2, r3
 329 0070 06D1     		bne	.L12
  98:.\DisplayUtils.c ****                 {
  99:.\DisplayUtils.c ****                     pdisplay->_statechangescrid = pdispflow->_statenodes[index];
 330              		.loc 1 99 0
 331 0072 FB7C     		ldrb	r3, [r7, #19]	@ zero_extendqisi2
 332 0074 7A69     		ldr	r2, [r7, #20]
 333 0076 1344     		add	r3, r3, r2
 334 0078 5A7E     		ldrb	r2, [r3, #25]	@ zero_extendqisi2
 335 007a FB68     		ldr	r3, [r7, #12]
 336 007c 5A71     		strb	r2, [r3, #5]
 100:.\DisplayUtils.c ****                     break;
 337              		.loc 1 100 0
 338 007e 05E0     		b	.L11
 339              	.L12:
  90:.\DisplayUtils.c ****             {
 340              		.loc 1 90 0 discriminator 2
 341 0080 FB7C     		ldrb	r3, [r7, #19]	@ zero_extendqisi2
 342 0082 0133     		adds	r3, r3, #1
 343 0084 FB74     		strb	r3, [r7, #19]
 344              	.L9:
  90:.\DisplayUtils.c ****             {
 345              		.loc 1 90 0 is_stmt 0 discriminator 1
 346 0086 FB7C     		ldrb	r3, [r7, #19]	@ zero_extendqisi2
 347 0088 052B     		cmp	r3, #5
 348 008a DBD9     		bls	.L13
 349              	.L11:
 101:.\DisplayUtils.c ****                 }
 102:.\DisplayUtils.c ****             }
 103:.\DisplayUtils.c ****             break;


 350              		.loc 1 103 0 is_stmt 1
 351 008c 06E0     		b	.L6
 352              	.L8:
 353              	.LBE3:
 104:.\DisplayUtils.c ****         }
 105:.\DisplayUtils.c ****         pdispflow++;
 354              		.loc 1 105 0
 355 008e 7B69     		ldr	r3, [r7, #20]
 356 0090 4433     		adds	r3, r3, #68
 357 0092 7B61     		str	r3, [r7, #20]
 358              	.L7:
  84:.\DisplayUtils.c ****     {        
 359              		.loc 1 84 0
 360 0094 7B69     		ldr	r3, [r7, #20]
 361 0096 1B78     		ldrb	r3, [r3]	@ zero_extendqisi2
 362 0098 FF2B     		cmp	r3, #255
 363 009a BBD1     		bne	.L15
 364              	.L6:
 106:.\DisplayUtils.c ****     }
 107:.\DisplayUtils.c **** }
 365              		.loc 1 107 0
 366 009c 1C37     		adds	r7, r7, #28
 367              		.cfi_def_cfa_offset 4
 368 009e BD46     		mov	sp, r7
 369              		.cfi_def_cfa_register 13
 370              		@ sp needed
 371 00a0 5DF8047B 		ldr	r7, [sp], #4
 372              		.cfi_restore 7
 373              		.cfi_def_cfa_offset 0
 374 00a4 7047     		bx	lr
 375              		.cfi_endproc
 376              	.LFE64:
 377              		.size	ParseDisplayFlow, .-ParseDisplayFlow
 378 00a6 00BF     		.section	.text.DisplayFlowInputValidator,"ax",%progbits
 379              		.align	2
 380              		.global	DisplayFlowInputValidator
 381              		.thumb
 382              		.thumb_func
 383              		.type	DisplayFlowInputValidator, %function
 384              	DisplayFlowInputValidator:
 385              	.LFB65:
 108:.\DisplayUtils.c **** 
 109:.\DisplayUtils.c **** //@Created by: HIJH
 110:.\DisplayUtils.c **** //@Date: Septembre de 2016
 111:.\DisplayUtils.c **** //This validator checks whether data has been entered into the InpupBox
 112:.\DisplayUtils.c **** FPTRINPUTVALIDATOR DisplayFlowInputValidator(void *pparam)
 113:.\DisplayUtils.c **** {
 386              		.loc 1 113 0
 387              		.cfi_startproc
 388              		@ args = 0, pretend = 0, frame = 24
 389              		@ frame_needed = 1, uses_anonymous_args = 0
 390              		@ link register save eliminated.
 391 0000 80B4     		push	{r7}
 392              		.cfi_def_cfa_offset 4
 393              		.cfi_offset 7, -4
 394 0002 87B0     		sub	sp, sp, #28
 395              		.cfi_def_cfa_offset 32


 396 0004 00AF     		add	r7, sp, #0
 397              		.cfi_def_cfa_register 7
 398 0006 7860     		str	r0, [r7, #4]
 114:.\DisplayUtils.c ****     FPTRINPUTVALIDATOR pretval = NULL;
 399              		.loc 1 114 0
 400 0008 0023     		movs	r3, #0
 401 000a 7B61     		str	r3, [r7, #20]
 115:.\DisplayUtils.c ****     PDISPLAYLAYOUTPTR pdisplay = (PDISPLAYLAYOUTPTR)pparam;
 402              		.loc 1 115 0
 403 000c 7B68     		ldr	r3, [r7, #4]
 404 000e FB60     		str	r3, [r7, #12]
 116:.\DisplayUtils.c ****     PDISPLAYFLOWPTR pdispflow = pdisplay->_preferenceflow;
 405              		.loc 1 116 0
 406 0010 FB68     		ldr	r3, [r7, #12]
 407 0012 5B69     		ldr	r3, [r3, #20]
 408 0014 3B61     		str	r3, [r7, #16]
 117:.\DisplayUtils.c ****     while(pdispflow->_scrid != DISPLAY_NULL)
 409              		.loc 1 117 0
 410 0016 1BE0     		b	.L17
 411              	.L20:
 118:.\DisplayUtils.c ****     {
 119:.\DisplayUtils.c ****         if(pdispflow->_scrid == pdisplay->_pcurrflow->_scrid && 
 412              		.loc 1 119 0
 413 0018 3B69     		ldr	r3, [r7, #16]
 414 001a 1A78     		ldrb	r2, [r3]	@ zero_extendqisi2
 415 001c FB68     		ldr	r3, [r7, #12]
 416 001e 1B69     		ldr	r3, [r3, #16]
 417 0020 1B78     		ldrb	r3, [r3]	@ zero_extendqisi2
 418 0022 9A42     		cmp	r2, r3
 419 0024 11D1     		bne	.L18
 120:.\DisplayUtils.c ****             pdispflow->_parentscrid == pdisplay->_pcurrflow->_parentscrid && 
 420              		.loc 1 120 0 discriminator 1
 421 0026 3B69     		ldr	r3, [r7, #16]
 422 0028 5A78     		ldrb	r2, [r3, #1]	@ zero_extendqisi2
 423 002a FB68     		ldr	r3, [r7, #12]
 424 002c 1B69     		ldr	r3, [r3, #16]
 425 002e 5B78     		ldrb	r3, [r3, #1]	@ zero_extendqisi2
 119:.\DisplayUtils.c ****             pdispflow->_parentscrid == pdisplay->_pcurrflow->_parentscrid && 
 426              		.loc 1 119 0 discriminator 1
 427 0030 9A42     		cmp	r2, r3
 428 0032 0AD1     		bne	.L18
 121:.\DisplayUtils.c ****             pdispflow->_parentcode == pdisplay->_pcurrflow->_parentcode)
 429              		.loc 1 121 0
 430 0034 3B69     		ldr	r3, [r7, #16]
 431 0036 9A78     		ldrb	r2, [r3, #2]	@ zero_extendqisi2
 432 0038 FB68     		ldr	r3, [r7, #12]
 433 003a 1B69     		ldr	r3, [r3, #16]
 434 003c 9B78     		ldrb	r3, [r3, #2]	@ zero_extendqisi2
 120:.\DisplayUtils.c ****             pdispflow->_parentscrid == pdisplay->_pcurrflow->_parentscrid && 
 435              		.loc 1 120 0
 436 003e 9A42     		cmp	r2, r3
 437 0040 03D1     		bne	.L18
 122:.\DisplayUtils.c ****         {
 123:.\DisplayUtils.c ****             pretval = pdispflow->_inputvalidator;
 438              		.loc 1 123 0
 439 0042 3B69     		ldr	r3, [r7, #16]
 440 0044 9B6A     		ldr	r3, [r3, #40]


 441 0046 7B61     		str	r3, [r7, #20]
 124:.\DisplayUtils.c ****             break;
 442              		.loc 1 124 0
 443 0048 06E0     		b	.L19
 444              	.L18:
 125:.\DisplayUtils.c ****         }
 126:.\DisplayUtils.c ****         pdispflow++;
 445              		.loc 1 126 0
 446 004a 3B69     		ldr	r3, [r7, #16]
 447 004c 4433     		adds	r3, r3, #68
 448 004e 3B61     		str	r3, [r7, #16]
 449              	.L17:
 117:.\DisplayUtils.c ****     {
 450              		.loc 1 117 0
 451 0050 3B69     		ldr	r3, [r7, #16]
 452 0052 1B78     		ldrb	r3, [r3]	@ zero_extendqisi2
 453 0054 FF2B     		cmp	r3, #255
 454 0056 DFD1     		bne	.L20
 455              	.L19:
 127:.\DisplayUtils.c ****     }
 128:.\DisplayUtils.c ****     return pretval;
 456              		.loc 1 128 0
 457 0058 7B69     		ldr	r3, [r7, #20]
 129:.\DisplayUtils.c **** }
 458              		.loc 1 129 0
 459 005a 1846     		mov	r0, r3
 460 005c 1C37     		adds	r7, r7, #28
 461              		.cfi_def_cfa_offset 4
 462 005e BD46     		mov	sp, r7
 463              		.cfi_def_cfa_register 13
 464              		@ sp needed
 465 0060 5DF8047B 		ldr	r7, [sp], #4
 466              		.cfi_restore 7
 467              		.cfi_def_cfa_offset 0
 468 0064 7047     		bx	lr
 469              		.cfi_endproc
 470              	.LFE65:
 471              		.size	DisplayFlowInputValidator, .-DisplayFlowInputValidator
 472 0066 00BF     		.section	.text.DisplayFlowInputHandler,"ax",%progbits
 473              		.align	2
 474              		.global	DisplayFlowInputHandler
 475              		.thumb
 476              		.thumb_func
 477              		.type	DisplayFlowInputHandler, %function
 478              	DisplayFlowInputHandler:
 479              	.LFB66:
 130:.\DisplayUtils.c **** 
 131:.\DisplayUtils.c **** //@Created by: HIJH
 132:.\DisplayUtils.c **** //@Date: Septembre de 2016
 133:.\DisplayUtils.c **** //This is the core handler for the input processing. It manages all the incoming codes from the scr
 134:.\DisplayUtils.c **** //and map them to the valid ASCII. It also validates the inputbox size and manages the cleanup.
 135:.\DisplayUtils.c **** FPTRINPUTHANDLER DisplayFlowInputHandler(void *pparam)
 136:.\DisplayUtils.c **** {
 480              		.loc 1 136 0
 481              		.cfi_startproc
 482              		@ args = 0, pretend = 0, frame = 24
 483              		@ frame_needed = 1, uses_anonymous_args = 0


 484              		@ link register save eliminated.
 485 0000 80B4     		push	{r7}
 486              		.cfi_def_cfa_offset 4
 487              		.cfi_offset 7, -4
 488 0002 87B0     		sub	sp, sp, #28
 489              		.cfi_def_cfa_offset 32
 490 0004 00AF     		add	r7, sp, #0
 491              		.cfi_def_cfa_register 7
 492 0006 7860     		str	r0, [r7, #4]
 137:.\DisplayUtils.c ****     FPTRINPUTHANDLER pretval = NULL;
 493              		.loc 1 137 0
 494 0008 0023     		movs	r3, #0
 495 000a 7B61     		str	r3, [r7, #20]
 138:.\DisplayUtils.c ****     PDISPLAYLAYOUTPTR pdisplay = (PDISPLAYLAYOUTPTR)pparam;
 496              		.loc 1 138 0
 497 000c 7B68     		ldr	r3, [r7, #4]
 498 000e FB60     		str	r3, [r7, #12]
 139:.\DisplayUtils.c ****     PDISPLAYFLOWPTR pdispflow = pdisplay->_preferenceflow;    
 499              		.loc 1 139 0
 500 0010 FB68     		ldr	r3, [r7, #12]
 501 0012 5B69     		ldr	r3, [r3, #20]
 502 0014 3B61     		str	r3, [r7, #16]
 140:.\DisplayUtils.c ****     while(pdispflow->_scrid != DISPLAY_NULL)
 503              		.loc 1 140 0
 504 0016 1BE0     		b	.L23
 505              	.L26:
 141:.\DisplayUtils.c ****     {
 142:.\DisplayUtils.c ****         if(pdispflow->_scrid == pdisplay->_pcurrflow->_scrid && 
 506              		.loc 1 142 0
 507 0018 3B69     		ldr	r3, [r7, #16]
 508 001a 1A78     		ldrb	r2, [r3]	@ zero_extendqisi2
 509 001c FB68     		ldr	r3, [r7, #12]
 510 001e 1B69     		ldr	r3, [r3, #16]
 511 0020 1B78     		ldrb	r3, [r3]	@ zero_extendqisi2
 512 0022 9A42     		cmp	r2, r3
 513 0024 11D1     		bne	.L24
 143:.\DisplayUtils.c ****             pdispflow->_parentscrid == pdisplay->_pcurrflow->_parentscrid && 
 514              		.loc 1 143 0 discriminator 1
 515 0026 3B69     		ldr	r3, [r7, #16]
 516 0028 5A78     		ldrb	r2, [r3, #1]	@ zero_extendqisi2
 517 002a FB68     		ldr	r3, [r7, #12]
 518 002c 1B69     		ldr	r3, [r3, #16]
 519 002e 5B78     		ldrb	r3, [r3, #1]	@ zero_extendqisi2
 142:.\DisplayUtils.c ****             pdispflow->_parentscrid == pdisplay->_pcurrflow->_parentscrid && 
 520              		.loc 1 142 0 discriminator 1
 521 0030 9A42     		cmp	r2, r3
 522 0032 0AD1     		bne	.L24
 144:.\DisplayUtils.c ****             pdispflow->_parentcode == pdisplay->_pcurrflow->_parentcode)
 523              		.loc 1 144 0
 524 0034 3B69     		ldr	r3, [r7, #16]
 525 0036 9A78     		ldrb	r2, [r3, #2]	@ zero_extendqisi2
 526 0038 FB68     		ldr	r3, [r7, #12]
 527 003a 1B69     		ldr	r3, [r3, #16]
 528 003c 9B78     		ldrb	r3, [r3, #2]	@ zero_extendqisi2
 143:.\DisplayUtils.c ****             pdispflow->_parentscrid == pdisplay->_pcurrflow->_parentscrid && 
 529              		.loc 1 143 0
 530 003e 9A42     		cmp	r2, r3


 531 0040 03D1     		bne	.L24
 145:.\DisplayUtils.c ****         {
 146:.\DisplayUtils.c ****             pretval = pdispflow->_inputhandler;
 532              		.loc 1 146 0
 533 0042 3B69     		ldr	r3, [r7, #16]
 534 0044 5B6A     		ldr	r3, [r3, #36]
 535 0046 7B61     		str	r3, [r7, #20]
 147:.\DisplayUtils.c ****             break;
 536              		.loc 1 147 0
 537 0048 06E0     		b	.L25
 538              	.L24:
 148:.\DisplayUtils.c ****         }
 149:.\DisplayUtils.c ****         pdispflow++;
 539              		.loc 1 149 0
 540 004a 3B69     		ldr	r3, [r7, #16]
 541 004c 4433     		adds	r3, r3, #68
 542 004e 3B61     		str	r3, [r7, #16]
 543              	.L23:
 140:.\DisplayUtils.c ****     {
 544              		.loc 1 140 0
 545 0050 3B69     		ldr	r3, [r7, #16]
 546 0052 1B78     		ldrb	r3, [r3]	@ zero_extendqisi2
 547 0054 FF2B     		cmp	r3, #255
 548 0056 DFD1     		bne	.L26
 549              	.L25:
 150:.\DisplayUtils.c ****     }
 151:.\DisplayUtils.c ****     return pretval;
 550              		.loc 1 151 0
 551 0058 7B69     		ldr	r3, [r7, #20]
 152:.\DisplayUtils.c **** }
 552              		.loc 1 152 0
 553 005a 1846     		mov	r0, r3
 554 005c 1C37     		adds	r7, r7, #28
 555              		.cfi_def_cfa_offset 4
 556 005e BD46     		mov	sp, r7
 557              		.cfi_def_cfa_register 13
 558              		@ sp needed
 559 0060 5DF8047B 		ldr	r7, [sp], #4
 560              		.cfi_restore 7
 561              		.cfi_def_cfa_offset 0
 562 0064 7047     		bx	lr
 563              		.cfi_endproc
 564              	.LFE66:
 565              		.size	DisplayFlowInputHandler, .-DisplayFlowInputHandler
 566 0066 00BF     		.section	.text.DisplayFlowDecorator,"ax",%progbits
 567              		.align	2
 568              		.global	DisplayFlowDecorator
 569              		.thumb
 570              		.thumb_func
 571              		.type	DisplayFlowDecorator, %function
 572              	DisplayFlowDecorator:
 573              	.LFB67:
 153:.\DisplayUtils.c **** 
 154:.\DisplayUtils.c **** //@Created by: HIJH
 155:.\DisplayUtils.c **** //@Date: Septembre de 2016
 156:.\DisplayUtils.c **** //Retrieves the Decorator for the currently selected screen
 157:.\DisplayUtils.c **** FPTRDECORATOR DisplayFlowDecorator(void *pparam)


 158:.\DisplayUtils.c **** {
 574              		.loc 1 158 0
 575              		.cfi_startproc
 576              		@ args = 0, pretend = 0, frame = 24
 577              		@ frame_needed = 1, uses_anonymous_args = 0
 578              		@ link register save eliminated.
 579 0000 80B4     		push	{r7}
 580              		.cfi_def_cfa_offset 4
 581              		.cfi_offset 7, -4
 582 0002 87B0     		sub	sp, sp, #28
 583              		.cfi_def_cfa_offset 32
 584 0004 00AF     		add	r7, sp, #0
 585              		.cfi_def_cfa_register 7
 586 0006 7860     		str	r0, [r7, #4]
 159:.\DisplayUtils.c ****     FPTRDECORATOR pretval = NULL;
 587              		.loc 1 159 0
 588 0008 0023     		movs	r3, #0
 589 000a 7B61     		str	r3, [r7, #20]
 160:.\DisplayUtils.c ****     PDISPLAYLAYOUTPTR pdisplay = (PDISPLAYLAYOUTPTR)pparam;
 590              		.loc 1 160 0
 591 000c 7B68     		ldr	r3, [r7, #4]
 592 000e FB60     		str	r3, [r7, #12]
 161:.\DisplayUtils.c ****     PDISPLAYFLOWPTR pdispflow = pdisplay->_preferenceflow;
 593              		.loc 1 161 0
 594 0010 FB68     		ldr	r3, [r7, #12]
 595 0012 5B69     		ldr	r3, [r3, #20]
 596 0014 3B61     		str	r3, [r7, #16]
 162:.\DisplayUtils.c ****     while(pdispflow->_scrid != DISPLAY_NULL)
 597              		.loc 1 162 0
 598 0016 1BE0     		b	.L29
 599              	.L32:
 163:.\DisplayUtils.c ****     {
 164:.\DisplayUtils.c ****         if(pdispflow->_scrid == pdisplay->_pcurrflow->_scrid && 
 600              		.loc 1 164 0
 601 0018 3B69     		ldr	r3, [r7, #16]
 602 001a 1A78     		ldrb	r2, [r3]	@ zero_extendqisi2
 603 001c FB68     		ldr	r3, [r7, #12]
 604 001e 1B69     		ldr	r3, [r3, #16]
 605 0020 1B78     		ldrb	r3, [r3]	@ zero_extendqisi2
 606 0022 9A42     		cmp	r2, r3
 607 0024 11D1     		bne	.L30
 165:.\DisplayUtils.c ****             pdispflow->_parentscrid == pdisplay->_pcurrflow->_parentscrid && 
 608              		.loc 1 165 0 discriminator 1
 609 0026 3B69     		ldr	r3, [r7, #16]
 610 0028 5A78     		ldrb	r2, [r3, #1]	@ zero_extendqisi2
 611 002a FB68     		ldr	r3, [r7, #12]
 612 002c 1B69     		ldr	r3, [r3, #16]
 613 002e 5B78     		ldrb	r3, [r3, #1]	@ zero_extendqisi2
 164:.\DisplayUtils.c ****             pdispflow->_parentscrid == pdisplay->_pcurrflow->_parentscrid && 
 614              		.loc 1 164 0 discriminator 1
 615 0030 9A42     		cmp	r2, r3
 616 0032 0AD1     		bne	.L30
 166:.\DisplayUtils.c ****             pdispflow->_parentcode == pdisplay->_pcurrflow->_parentcode)
 617              		.loc 1 166 0
 618 0034 3B69     		ldr	r3, [r7, #16]
 619 0036 9A78     		ldrb	r2, [r3, #2]	@ zero_extendqisi2
 620 0038 FB68     		ldr	r3, [r7, #12]


 621 003a 1B69     		ldr	r3, [r3, #16]
 622 003c 9B78     		ldrb	r3, [r3, #2]	@ zero_extendqisi2
 165:.\DisplayUtils.c ****             pdispflow->_parentscrid == pdisplay->_pcurrflow->_parentscrid && 
 623              		.loc 1 165 0
 624 003e 9A42     		cmp	r2, r3
 625 0040 03D1     		bne	.L30
 167:.\DisplayUtils.c ****         {
 168:.\DisplayUtils.c ****             pretval = pdispflow->_decorator;
 626              		.loc 1 168 0
 627 0042 3B69     		ldr	r3, [r7, #16]
 628 0044 1B6A     		ldr	r3, [r3, #32]
 629 0046 7B61     		str	r3, [r7, #20]
 169:.\DisplayUtils.c ****             break;
 630              		.loc 1 169 0
 631 0048 06E0     		b	.L31
 632              	.L30:
 170:.\DisplayUtils.c ****         }
 171:.\DisplayUtils.c ****         pdispflow++;
 633              		.loc 1 171 0
 634 004a 3B69     		ldr	r3, [r7, #16]
 635 004c 4433     		adds	r3, r3, #68
 636 004e 3B61     		str	r3, [r7, #16]
 637              	.L29:
 162:.\DisplayUtils.c ****     {
 638              		.loc 1 162 0
 639 0050 3B69     		ldr	r3, [r7, #16]
 640 0052 1B78     		ldrb	r3, [r3]	@ zero_extendqisi2
 641 0054 FF2B     		cmp	r3, #255
 642 0056 DFD1     		bne	.L32
 643              	.L31:
 172:.\DisplayUtils.c ****     }
 173:.\DisplayUtils.c ****     return pretval;
 644              		.loc 1 173 0
 645 0058 7B69     		ldr	r3, [r7, #20]
 174:.\DisplayUtils.c **** }
 646              		.loc 1 174 0
 647 005a 1846     		mov	r0, r3
 648 005c 1C37     		adds	r7, r7, #28
 649              		.cfi_def_cfa_offset 4
 650 005e BD46     		mov	sp, r7
 651              		.cfi_def_cfa_register 13
 652              		@ sp needed
 653 0060 5DF8047B 		ldr	r7, [sp], #4
 654              		.cfi_restore 7
 655              		.cfi_def_cfa_offset 0
 656 0064 7047     		bx	lr
 657              		.cfi_endproc
 658              	.LFE67:
 659              		.size	DisplayFlowDecorator, .-DisplayFlowDecorator
 660 0066 00BF     		.section	.text.DisplayInitializer,"ax",%progbits
 661              		.align	2
 662              		.global	DisplayInitializer
 663              		.thumb
 664              		.thumb_func
 665              		.type	DisplayInitializer, %function
 666              	DisplayInitializer:
 667              	.LFB68:


 175:.\DisplayUtils.c **** 
 176:.\DisplayUtils.c **** //@Created by: HIJH
 177:.\DisplayUtils.c **** //@Date: Septembre de 2016
 178:.\DisplayUtils.c **** //Retrieves the Initializer for the currently selected screen
 179:.\DisplayUtils.c **** FPTRINITIALIZER DisplayInitializer(void *pparam)
 180:.\DisplayUtils.c **** {
 668              		.loc 1 180 0
 669              		.cfi_startproc
 670              		@ args = 0, pretend = 0, frame = 24
 671              		@ frame_needed = 1, uses_anonymous_args = 0
 672              		@ link register save eliminated.
 673 0000 80B4     		push	{r7}
 674              		.cfi_def_cfa_offset 4
 675              		.cfi_offset 7, -4
 676 0002 87B0     		sub	sp, sp, #28
 677              		.cfi_def_cfa_offset 32
 678 0004 00AF     		add	r7, sp, #0
 679              		.cfi_def_cfa_register 7
 680 0006 7860     		str	r0, [r7, #4]
 181:.\DisplayUtils.c ****     FPTRINITIALIZER pretval = NULL;
 681              		.loc 1 181 0
 682 0008 0023     		movs	r3, #0
 683 000a 7B61     		str	r3, [r7, #20]
 182:.\DisplayUtils.c ****     PDISPLAYLAYOUTPTR pdisplay = (PDISPLAYLAYOUTPTR)pparam;
 684              		.loc 1 182 0
 685 000c 7B68     		ldr	r3, [r7, #4]
 686 000e FB60     		str	r3, [r7, #12]
 183:.\DisplayUtils.c ****     PDISPLAYFLOWPTR pdispflow = pdisplay->_preferenceflow;
 687              		.loc 1 183 0
 688 0010 FB68     		ldr	r3, [r7, #12]
 689 0012 5B69     		ldr	r3, [r3, #20]
 690 0014 3B61     		str	r3, [r7, #16]
 184:.\DisplayUtils.c ****     while(pdispflow->_scrid != DISPLAY_NULL)
 691              		.loc 1 184 0
 692 0016 1BE0     		b	.L35
 693              	.L38:
 185:.\DisplayUtils.c ****     {
 186:.\DisplayUtils.c ****         if(pdispflow->_scrid == pdisplay->_pcurrflow->_scrid && 
 694              		.loc 1 186 0
 695 0018 3B69     		ldr	r3, [r7, #16]
 696 001a 1A78     		ldrb	r2, [r3]	@ zero_extendqisi2
 697 001c FB68     		ldr	r3, [r7, #12]
 698 001e 1B69     		ldr	r3, [r3, #16]
 699 0020 1B78     		ldrb	r3, [r3]	@ zero_extendqisi2
 700 0022 9A42     		cmp	r2, r3
 701 0024 11D1     		bne	.L36
 187:.\DisplayUtils.c ****             pdispflow->_parentscrid == pdisplay->_pcurrflow->_parentscrid && 
 702              		.loc 1 187 0 discriminator 1
 703 0026 3B69     		ldr	r3, [r7, #16]
 704 0028 5A78     		ldrb	r2, [r3, #1]	@ zero_extendqisi2
 705 002a FB68     		ldr	r3, [r7, #12]
 706 002c 1B69     		ldr	r3, [r3, #16]
 707 002e 5B78     		ldrb	r3, [r3, #1]	@ zero_extendqisi2
 186:.\DisplayUtils.c ****             pdispflow->_parentscrid == pdisplay->_pcurrflow->_parentscrid && 
 708              		.loc 1 186 0 discriminator 1
 709 0030 9A42     		cmp	r2, r3
 710 0032 0AD1     		bne	.L36


 188:.\DisplayUtils.c ****             pdispflow->_parentcode == pdisplay->_pcurrflow->_parentcode)
 711              		.loc 1 188 0
 712 0034 3B69     		ldr	r3, [r7, #16]
 713 0036 9A78     		ldrb	r2, [r3, #2]	@ zero_extendqisi2
 714 0038 FB68     		ldr	r3, [r7, #12]
 715 003a 1B69     		ldr	r3, [r3, #16]
 716 003c 9B78     		ldrb	r3, [r3, #2]	@ zero_extendqisi2
 187:.\DisplayUtils.c ****             pdispflow->_parentscrid == pdisplay->_pcurrflow->_parentscrid && 
 717              		.loc 1 187 0
 718 003e 9A42     		cmp	r2, r3
 719 0040 03D1     		bne	.L36
 189:.\DisplayUtils.c ****         {
 190:.\DisplayUtils.c ****             pretval = pdispflow->_initializer;
 720              		.loc 1 190 0
 721 0042 3B69     		ldr	r3, [r7, #16]
 722 0044 DB6B     		ldr	r3, [r3, #60]
 723 0046 7B61     		str	r3, [r7, #20]
 191:.\DisplayUtils.c ****             break;
 724              		.loc 1 191 0
 725 0048 06E0     		b	.L37
 726              	.L36:
 192:.\DisplayUtils.c ****         }
 193:.\DisplayUtils.c ****         pdispflow++;
 727              		.loc 1 193 0
 728 004a 3B69     		ldr	r3, [r7, #16]
 729 004c 4433     		adds	r3, r3, #68
 730 004e 3B61     		str	r3, [r7, #16]
 731              	.L35:
 184:.\DisplayUtils.c ****     {
 732              		.loc 1 184 0
 733 0050 3B69     		ldr	r3, [r7, #16]
 734 0052 1B78     		ldrb	r3, [r3]	@ zero_extendqisi2
 735 0054 FF2B     		cmp	r3, #255
 736 0056 DFD1     		bne	.L38
 737              	.L37:
 194:.\DisplayUtils.c ****     }
 195:.\DisplayUtils.c ****     return pretval;
 738              		.loc 1 195 0
 739 0058 7B69     		ldr	r3, [r7, #20]
 196:.\DisplayUtils.c **** }
 740              		.loc 1 196 0
 741 005a 1846     		mov	r0, r3
 742 005c 1C37     		adds	r7, r7, #28
 743              		.cfi_def_cfa_offset 4
 744 005e BD46     		mov	sp, r7
 745              		.cfi_def_cfa_register 13
 746              		@ sp needed
 747 0060 5DF8047B 		ldr	r7, [sp], #4
 748              		.cfi_restore 7
 749              		.cfi_def_cfa_offset 0
 750 0064 7047     		bx	lr
 751              		.cfi_endproc
 752              	.LFE68:
 753              		.size	DisplayInitializer, .-DisplayInitializer
 754 0066 00BF     		.section	.text.DisplayFinalizer,"ax",%progbits
 755              		.align	2
 756              		.global	DisplayFinalizer


 757              		.thumb
 758              		.thumb_func
 759              		.type	DisplayFinalizer, %function
 760              	DisplayFinalizer:
 761              	.LFB69:
 197:.\DisplayUtils.c **** 
 198:.\DisplayUtils.c **** //@Created by: HIJH
 199:.\DisplayUtils.c **** //@Date: Septembre de 2016
 200:.\DisplayUtils.c **** //Retrieves the Finalizer for the currently selected screen
 201:.\DisplayUtils.c **** FPTRFINALIZER DisplayFinalizer(void *pparam)
 202:.\DisplayUtils.c **** {
 762              		.loc 1 202 0
 763              		.cfi_startproc
 764              		@ args = 0, pretend = 0, frame = 24
 765              		@ frame_needed = 1, uses_anonymous_args = 0
 766              		@ link register save eliminated.
 767 0000 80B4     		push	{r7}
 768              		.cfi_def_cfa_offset 4
 769              		.cfi_offset 7, -4
 770 0002 87B0     		sub	sp, sp, #28
 771              		.cfi_def_cfa_offset 32
 772 0004 00AF     		add	r7, sp, #0
 773              		.cfi_def_cfa_register 7
 774 0006 7860     		str	r0, [r7, #4]
 203:.\DisplayUtils.c ****     FPTRFINALIZER pretval = NULL;
 775              		.loc 1 203 0
 776 0008 0023     		movs	r3, #0
 777 000a 7B61     		str	r3, [r7, #20]
 204:.\DisplayUtils.c ****     PDISPLAYLAYOUTPTR pdisplay = (PDISPLAYLAYOUTPTR)pparam;
 778              		.loc 1 204 0
 779 000c 7B68     		ldr	r3, [r7, #4]
 780 000e FB60     		str	r3, [r7, #12]
 205:.\DisplayUtils.c ****     PDISPLAYFLOWPTR pdispflow = pdisplay->_preferenceflow;
 781              		.loc 1 205 0
 782 0010 FB68     		ldr	r3, [r7, #12]
 783 0012 5B69     		ldr	r3, [r3, #20]
 784 0014 3B61     		str	r3, [r7, #16]
 206:.\DisplayUtils.c ****     while(pdispflow->_scrid != DISPLAY_NULL)
 785              		.loc 1 206 0
 786 0016 1BE0     		b	.L41
 787              	.L44:
 207:.\DisplayUtils.c ****     {
 208:.\DisplayUtils.c ****         if(pdispflow->_scrid == pdisplay->_pcurrflow->_scrid && 
 788              		.loc 1 208 0
 789 0018 3B69     		ldr	r3, [r7, #16]
 790 001a 1A78     		ldrb	r2, [r3]	@ zero_extendqisi2
 791 001c FB68     		ldr	r3, [r7, #12]
 792 001e 1B69     		ldr	r3, [r3, #16]
 793 0020 1B78     		ldrb	r3, [r3]	@ zero_extendqisi2
 794 0022 9A42     		cmp	r2, r3
 795 0024 11D1     		bne	.L42
 209:.\DisplayUtils.c ****             pdispflow->_parentscrid == pdisplay->_pcurrflow->_parentscrid && 
 796              		.loc 1 209 0 discriminator 1
 797 0026 3B69     		ldr	r3, [r7, #16]
 798 0028 5A78     		ldrb	r2, [r3, #1]	@ zero_extendqisi2
 799 002a FB68     		ldr	r3, [r7, #12]
 800 002c 1B69     		ldr	r3, [r3, #16]


 801 002e 5B78     		ldrb	r3, [r3, #1]	@ zero_extendqisi2
 208:.\DisplayUtils.c ****             pdispflow->_parentscrid == pdisplay->_pcurrflow->_parentscrid && 
 802              		.loc 1 208 0 discriminator 1
 803 0030 9A42     		cmp	r2, r3
 804 0032 0AD1     		bne	.L42
 210:.\DisplayUtils.c ****             pdispflow->_parentcode == pdisplay->_pcurrflow->_parentcode)
 805              		.loc 1 210 0
 806 0034 3B69     		ldr	r3, [r7, #16]
 807 0036 9A78     		ldrb	r2, [r3, #2]	@ zero_extendqisi2
 808 0038 FB68     		ldr	r3, [r7, #12]
 809 003a 1B69     		ldr	r3, [r3, #16]
 810 003c 9B78     		ldrb	r3, [r3, #2]	@ zero_extendqisi2
 209:.\DisplayUtils.c ****             pdispflow->_parentscrid == pdisplay->_pcurrflow->_parentscrid && 
 811              		.loc 1 209 0
 812 003e 9A42     		cmp	r2, r3
 813 0040 03D1     		bne	.L42
 211:.\DisplayUtils.c ****         {
 212:.\DisplayUtils.c ****             pretval = pdispflow->_finalizer;
 814              		.loc 1 212 0
 815 0042 3B69     		ldr	r3, [r7, #16]
 816 0044 1B6C     		ldr	r3, [r3, #64]
 817 0046 7B61     		str	r3, [r7, #20]
 213:.\DisplayUtils.c ****             break;
 818              		.loc 1 213 0
 819 0048 06E0     		b	.L43
 820              	.L42:
 214:.\DisplayUtils.c ****         }
 215:.\DisplayUtils.c ****         pdispflow++;
 821              		.loc 1 215 0
 822 004a 3B69     		ldr	r3, [r7, #16]
 823 004c 4433     		adds	r3, r3, #68
 824 004e 3B61     		str	r3, [r7, #16]
 825              	.L41:
 206:.\DisplayUtils.c ****     {
 826              		.loc 1 206 0
 827 0050 3B69     		ldr	r3, [r7, #16]
 828 0052 1B78     		ldrb	r3, [r3]	@ zero_extendqisi2
 829 0054 FF2B     		cmp	r3, #255
 830 0056 DFD1     		bne	.L44
 831              	.L43:
 216:.\DisplayUtils.c ****     }
 217:.\DisplayUtils.c ****     return pretval;
 832              		.loc 1 217 0
 833 0058 7B69     		ldr	r3, [r7, #20]
 218:.\DisplayUtils.c **** }
 834              		.loc 1 218 0
 835 005a 1846     		mov	r0, r3
 836 005c 1C37     		adds	r7, r7, #28
 837              		.cfi_def_cfa_offset 4
 838 005e BD46     		mov	sp, r7
 839              		.cfi_def_cfa_register 13
 840              		@ sp needed
 841 0060 5DF8047B 		ldr	r7, [sp], #4
 842              		.cfi_restore 7
 843              		.cfi_def_cfa_offset 0
 844 0064 7047     		bx	lr
 845              		.cfi_endproc


 846              	.LFE69:
 847              		.size	DisplayFinalizer, .-DisplayFinalizer
 848 0066 00BF     		.section	.rodata
 849 0006 0000     		.align	2
 850              	.LC1:
 851 0008 CC       		.byte	-52
 852 0009 33       		.byte	51
 853 000a C3       		.byte	-61
 854 000b 3C       		.byte	60
 855              		.section	.text.ParseDisplayStream,"ax",%progbits
 856              		.align	2
 857              		.global	ParseDisplayStream
 858              		.thumb
 859              		.thumb_func
 860              		.type	ParseDisplayStream, %function
 861              	ParseDisplayStream:
 862              	.LFB70:
 219:.\DisplayUtils.c **** 
 220:.\DisplayUtils.c **** char8 ParseDisplayStream(char* pbuffer, uint8 buffersize)
 221:.\DisplayUtils.c **** {
 863              		.loc 1 221 0
 864              		.cfi_startproc
 865              		@ args = 0, pretend = 0, frame = 16
 866              		@ frame_needed = 1, uses_anonymous_args = 0
 867              		@ link register save eliminated.
 868 0000 80B4     		push	{r7}
 869              		.cfi_def_cfa_offset 4
 870              		.cfi_offset 7, -4
 871 0002 85B0     		sub	sp, sp, #20
 872              		.cfi_def_cfa_offset 24
 873 0004 00AF     		add	r7, sp, #0
 874              		.cfi_def_cfa_register 7
 875 0006 7860     		str	r0, [r7, #4]
 876 0008 0B46     		mov	r3, r1
 877 000a FB70     		strb	r3, [r7, #3]
 222:.\DisplayUtils.c ****     char8 retval = 0x00;
 878              		.loc 1 222 0
 879 000c 0023     		movs	r3, #0
 880 000e FB73     		strb	r3, [r7, #15]
 223:.\DisplayUtils.c ****     char8 pdelimiter[] = { 0xCC, 0x33, 0xC3, 0x3C };
 881              		.loc 1 223 0
 882 0010 254A     		ldr	r2, .L49
 883 0012 07F10803 		add	r3, r7, #8
 884 0016 1068     		ldr	r0, [r2]	@ unaligned
 885 0018 1860     		str	r0, [r3]	@ unaligned
 224:.\DisplayUtils.c ****     uint16 delimitersize = sizeof(pdelimiter);
 886              		.loc 1 224 0
 887 001a 0423     		movs	r3, #4
 888 001c BB81     		strh	r3, [r7, #12]	@ movhi
 225:.\DisplayUtils.c ****     
 226:.\DisplayUtils.c ****     if((pbuffer[buffersize - 1] == pdelimiter[delimitersize - 1]) && 
 889              		.loc 1 226 0
 890 001e FB78     		ldrb	r3, [r7, #3]	@ zero_extendqisi2
 891 0020 013B     		subs	r3, r3, #1
 892 0022 7A68     		ldr	r2, [r7, #4]
 893 0024 1344     		add	r3, r3, r2
 894 0026 1A78     		ldrb	r2, [r3]	@ zero_extendqisi2


 895 0028 BB89     		ldrh	r3, [r7, #12]
 896 002a 013B     		subs	r3, r3, #1
 897 002c 07F11001 		add	r1, r7, #16
 898 0030 0B44     		add	r3, r3, r1
 899 0032 13F8083C 		ldrb	r3, [r3, #-8]	@ zero_extendqisi2
 900 0036 9A42     		cmp	r2, r3
 901 0038 2FD1     		bne	.L47
 227:.\DisplayUtils.c ****         (pbuffer[buffersize - 2] == pdelimiter[delimitersize - 2]) &&
 902              		.loc 1 227 0 discriminator 1
 903 003a FB78     		ldrb	r3, [r7, #3]	@ zero_extendqisi2
 904 003c 023B     		subs	r3, r3, #2
 905 003e 7A68     		ldr	r2, [r7, #4]
 906 0040 1344     		add	r3, r3, r2
 907 0042 1A78     		ldrb	r2, [r3]	@ zero_extendqisi2
 908 0044 BB89     		ldrh	r3, [r7, #12]
 909 0046 023B     		subs	r3, r3, #2
 910 0048 07F11001 		add	r1, r7, #16
 911 004c 0B44     		add	r3, r3, r1
 912 004e 13F8083C 		ldrb	r3, [r3, #-8]	@ zero_extendqisi2
 226:.\DisplayUtils.c ****         (pbuffer[buffersize - 2] == pdelimiter[delimitersize - 2]) &&
 913              		.loc 1 226 0 discriminator 1
 914 0052 9A42     		cmp	r2, r3
 915 0054 21D1     		bne	.L47
 228:.\DisplayUtils.c ****         (pbuffer[buffersize - 3] == pdelimiter[delimitersize - 3]) && 
 916              		.loc 1 228 0
 917 0056 FB78     		ldrb	r3, [r7, #3]	@ zero_extendqisi2
 918 0058 033B     		subs	r3, r3, #3
 919 005a 7A68     		ldr	r2, [r7, #4]
 920 005c 1344     		add	r3, r3, r2
 921 005e 1A78     		ldrb	r2, [r3]	@ zero_extendqisi2
 922 0060 BB89     		ldrh	r3, [r7, #12]
 923 0062 033B     		subs	r3, r3, #3
 924 0064 07F11001 		add	r1, r7, #16
 925 0068 0B44     		add	r3, r3, r1
 926 006a 13F8083C 		ldrb	r3, [r3, #-8]	@ zero_extendqisi2
 227:.\DisplayUtils.c ****         (pbuffer[buffersize - 2] == pdelimiter[delimitersize - 2]) &&
 927              		.loc 1 227 0
 928 006e 9A42     		cmp	r2, r3
 929 0070 13D1     		bne	.L47
 229:.\DisplayUtils.c ****         (pbuffer[buffersize - 4] == pdelimiter[delimitersize - 4]))
 930              		.loc 1 229 0
 931 0072 FB78     		ldrb	r3, [r7, #3]	@ zero_extendqisi2
 932 0074 043B     		subs	r3, r3, #4
 933 0076 7A68     		ldr	r2, [r7, #4]
 934 0078 1344     		add	r3, r3, r2
 935 007a 1A78     		ldrb	r2, [r3]	@ zero_extendqisi2
 936 007c BB89     		ldrh	r3, [r7, #12]
 937 007e 043B     		subs	r3, r3, #4
 938 0080 07F11001 		add	r1, r7, #16
 939 0084 0B44     		add	r3, r3, r1
 940 0086 13F8083C 		ldrb	r3, [r3, #-8]	@ zero_extendqisi2
 228:.\DisplayUtils.c ****         (pbuffer[buffersize - 3] == pdelimiter[delimitersize - 3]) && 
 941              		.loc 1 228 0
 942 008a 9A42     		cmp	r2, r3
 943 008c 05D1     		bne	.L47
 230:.\DisplayUtils.c ****         retval = pbuffer[buffersize - 5];
 944              		.loc 1 230 0


 945 008e FB78     		ldrb	r3, [r7, #3]	@ zero_extendqisi2
 946 0090 053B     		subs	r3, r3, #5
 947 0092 7A68     		ldr	r2, [r7, #4]
 948 0094 1344     		add	r3, r3, r2
 949 0096 1B78     		ldrb	r3, [r3]
 950 0098 FB73     		strb	r3, [r7, #15]
 951              	.L47:
 231:.\DisplayUtils.c ****     
 232:.\DisplayUtils.c ****     return retval;
 952              		.loc 1 232 0
 953 009a FB7B     		ldrb	r3, [r7, #15]	@ zero_extendqisi2
 233:.\DisplayUtils.c **** }
 954              		.loc 1 233 0
 955 009c 1846     		mov	r0, r3
 956 009e 1437     		adds	r7, r7, #20
 957              		.cfi_def_cfa_offset 4
 958 00a0 BD46     		mov	sp, r7
 959              		.cfi_def_cfa_register 13
 960              		@ sp needed
 961 00a2 5DF8047B 		ldr	r7, [sp], #4
 962              		.cfi_restore 7
 963              		.cfi_def_cfa_offset 0
 964 00a6 7047     		bx	lr
 965              	.L50:
 966              		.align	2
 967              	.L49:
 968 00a8 08000000 		.word	.LC1
 969              		.cfi_endproc
 970              	.LFE70:
 971              		.size	ParseDisplayStream, .-ParseDisplayStream
 972              		.section	.text.GetDisplayFlowNode,"ax",%progbits
 973              		.align	2
 974              		.global	GetDisplayFlowNode
 975              		.thumb
 976              		.thumb_func
 977              		.type	GetDisplayFlowNode, %function
 978              	GetDisplayFlowNode:
 979              	.LFB71:
 234:.\DisplayUtils.c **** 
 235:.\DisplayUtils.c **** //@Created by: HIJH
 236:.\DisplayUtils.c **** //@Date: Septembre de 2016
 237:.\DisplayUtils.c **** //Retrieves the selected DisplayFlow node from the DisplayFlow Matrix matching the correct parent
 238:.\DisplayUtils.c **** DisplayFlow *GetDisplayFlowNode(void *pparam)
 239:.\DisplayUtils.c **** {
 980              		.loc 1 239 0
 981              		.cfi_startproc
 982              		@ args = 0, pretend = 0, frame = 24
 983              		@ frame_needed = 1, uses_anonymous_args = 0
 984              		@ link register save eliminated.
 985 0000 80B4     		push	{r7}
 986              		.cfi_def_cfa_offset 4
 987              		.cfi_offset 7, -4
 988 0002 87B0     		sub	sp, sp, #28
 989              		.cfi_def_cfa_offset 32
 990 0004 00AF     		add	r7, sp, #0
 991              		.cfi_def_cfa_register 7
 992 0006 7860     		str	r0, [r7, #4]


 240:.\DisplayUtils.c ****     PDISPLAYFLOWPTR retval = NULL;
 993              		.loc 1 240 0
 994 0008 0023     		movs	r3, #0
 995 000a 7B61     		str	r3, [r7, #20]
 241:.\DisplayUtils.c ****     PDISPLAYLAYOUTPTR pdisplay = (PDISPLAYLAYOUTPTR)pparam;
 996              		.loc 1 241 0
 997 000c 7B68     		ldr	r3, [r7, #4]
 998 000e FB60     		str	r3, [r7, #12]
 242:.\DisplayUtils.c ****     PDISPLAYFLOWPTR pdispflow = pdisplay->_preferenceflow;
 999              		.loc 1 242 0
 1000 0010 FB68     		ldr	r3, [r7, #12]
 1001 0012 5B69     		ldr	r3, [r3, #20]
 1002 0014 3B61     		str	r3, [r7, #16]
 243:.\DisplayUtils.c ****     
 244:.\DisplayUtils.c ****     uint8 scrid = (pdisplay->_nextscrid == 0xFF)?  ((pdisplay->_statechangescrid == 0xFF)? pdisplay
 1003              		.loc 1 244 0
 1004 0016 FB68     		ldr	r3, [r7, #12]
 1005 0018 9B78     		ldrb	r3, [r3, #2]	@ zero_extendqisi2
 1006 001a FF2B     		cmp	r3, #255
 1007 001c 09D1     		bne	.L52
 1008              		.loc 1 244 0 is_stmt 0 discriminator 1
 1009 001e FB68     		ldr	r3, [r7, #12]
 1010 0020 5B79     		ldrb	r3, [r3, #5]	@ zero_extendqisi2
 1011 0022 FF2B     		cmp	r3, #255
 1012 0024 02D1     		bne	.L53
 1013              		.loc 1 244 0 discriminator 3
 1014 0026 FB68     		ldr	r3, [r7, #12]
 1015 0028 9B7A     		ldrb	r3, [r3, #10]	@ zero_extendqisi2
 1016 002a 04E0     		b	.L55
 1017              	.L53:
 1018              		.loc 1 244 0 discriminator 4
 1019 002c FB68     		ldr	r3, [r7, #12]
 1020 002e 5B79     		ldrb	r3, [r3, #5]	@ zero_extendqisi2
 1021 0030 01E0     		b	.L55
 1022              	.L52:
 1023              		.loc 1 244 0 discriminator 2
 1024 0032 FB68     		ldr	r3, [r7, #12]
 1025 0034 9B78     		ldrb	r3, [r3, #2]	@ zero_extendqisi2
 1026              	.L55:
 1027              		.loc 1 244 0 discriminator 8
 1028 0036 FB72     		strb	r3, [r7, #11]
 245:.\DisplayUtils.c ****     uint8 parcode = pdisplay->_currscrcode;
 1029              		.loc 1 245 0 is_stmt 1 discriminator 8
 1030 0038 FB68     		ldr	r3, [r7, #12]
 1031 003a DB78     		ldrb	r3, [r3, #3]
 1032 003c BB72     		strb	r3, [r7, #10]
 246:.\DisplayUtils.c ****     uint8 parscrid = pdisplay->_pcurrflow->_scrid;
 1033              		.loc 1 246 0 discriminator 8
 1034 003e FB68     		ldr	r3, [r7, #12]
 1035 0040 1B69     		ldr	r3, [r3, #16]
 1036 0042 1B78     		ldrb	r3, [r3]
 1037 0044 7B72     		strb	r3, [r7, #9]
 247:.\DisplayUtils.c ****     
 248:.\DisplayUtils.c ****     while(pdispflow->_scrid != DISPLAY_NULL)
 1038              		.loc 1 248 0 discriminator 8
 1039 0046 20E0     		b	.L56
 1040              	.L61:


 249:.\DisplayUtils.c ****     {
 250:.\DisplayUtils.c ****         //Retrieves the requested screen by matching the parent. If the screen has no parent define
 251:.\DisplayUtils.c ****         //means that the requested screen must be the root screen or has no parent rule applied
 252:.\DisplayUtils.c ****         if((scrid == pdispflow->_scrid) && 
 1041              		.loc 1 252 0
 1042 0048 3B69     		ldr	r3, [r7, #16]
 1043 004a 1B78     		ldrb	r3, [r3]	@ zero_extendqisi2
 1044 004c FA7A     		ldrb	r2, [r7, #11]	@ zero_extendqisi2
 1045 004e 9A42     		cmp	r2, r3
 1046 0050 18D1     		bne	.L57
 253:.\DisplayUtils.c ****             ((parscrid == pdispflow->_parentscrid) || (0xFF == pdispflow->_parentscrid)) && 
 1047              		.loc 1 253 0 discriminator 1
 1048 0052 3B69     		ldr	r3, [r7, #16]
 1049 0054 5B78     		ldrb	r3, [r3, #1]	@ zero_extendqisi2
 252:.\DisplayUtils.c ****             ((parscrid == pdispflow->_parentscrid) || (0xFF == pdispflow->_parentscrid)) && 
 1050              		.loc 1 252 0 discriminator 1
 1051 0056 7A7A     		ldrb	r2, [r7, #9]	@ zero_extendqisi2
 1052 0058 9A42     		cmp	r2, r3
 1053 005a 03D0     		beq	.L58
 1054              		.loc 1 253 0
 1055 005c 3B69     		ldr	r3, [r7, #16]
 1056 005e 5B78     		ldrb	r3, [r3, #1]	@ zero_extendqisi2
 1057 0060 FF2B     		cmp	r3, #255
 1058 0062 0FD1     		bne	.L57
 1059              	.L58:
 254:.\DisplayUtils.c ****             ((parcode == pdispflow->_parentcode) || (0xFF == pdispflow->_parentcode) || (0xFF == pd
 1060              		.loc 1 254 0 discriminator 1
 1061 0064 3B69     		ldr	r3, [r7, #16]
 1062 0066 9B78     		ldrb	r3, [r3, #2]	@ zero_extendqisi2
 253:.\DisplayUtils.c ****             ((parscrid == pdispflow->_parentscrid) || (0xFF == pdispflow->_parentscrid)) && 
 1063              		.loc 1 253 0 discriminator 1
 1064 0068 BA7A     		ldrb	r2, [r7, #10]	@ zero_extendqisi2
 1065 006a 9A42     		cmp	r2, r3
 1066 006c 07D0     		beq	.L59
 1067              		.loc 1 254 0
 1068 006e 3B69     		ldr	r3, [r7, #16]
 1069 0070 9B78     		ldrb	r3, [r3, #2]	@ zero_extendqisi2
 1070 0072 FF2B     		cmp	r3, #255
 1071 0074 03D0     		beq	.L59
 1072              		.loc 1 254 0 is_stmt 0 discriminator 1
 1073 0076 3B69     		ldr	r3, [r7, #16]
 1074 0078 5B78     		ldrb	r3, [r3, #1]	@ zero_extendqisi2
 1075 007a FF2B     		cmp	r3, #255
 1076 007c 02D1     		bne	.L57
 1077              	.L59:
 255:.\DisplayUtils.c ****         {
 256:.\DisplayUtils.c ****             retval = pdispflow;
 1078              		.loc 1 256 0 is_stmt 1
 1079 007e 3B69     		ldr	r3, [r7, #16]
 1080 0080 7B61     		str	r3, [r7, #20]
 257:.\DisplayUtils.c ****             break;
 1081              		.loc 1 257 0
 1082 0082 06E0     		b	.L60
 1083              	.L57:
 258:.\DisplayUtils.c ****         }
 259:.\DisplayUtils.c ****         pdispflow++;
 1084              		.loc 1 259 0


 1085 0084 3B69     		ldr	r3, [r7, #16]
 1086 0086 4433     		adds	r3, r3, #68
 1087 0088 3B61     		str	r3, [r7, #16]
 1088              	.L56:
 248:.\DisplayUtils.c ****     {
 1089              		.loc 1 248 0
 1090 008a 3B69     		ldr	r3, [r7, #16]
 1091 008c 1B78     		ldrb	r3, [r3]	@ zero_extendqisi2
 1092 008e FF2B     		cmp	r3, #255
 1093 0090 DAD1     		bne	.L61
 1094              	.L60:
 260:.\DisplayUtils.c ****     }
 261:.\DisplayUtils.c ****     return retval;
 1095              		.loc 1 261 0
 1096 0092 7B69     		ldr	r3, [r7, #20]
 262:.\DisplayUtils.c **** }
 1097              		.loc 1 262 0
 1098 0094 1846     		mov	r0, r3
 1099 0096 1C37     		adds	r7, r7, #28
 1100              		.cfi_def_cfa_offset 4
 1101 0098 BD46     		mov	sp, r7
 1102              		.cfi_def_cfa_register 13
 1103              		@ sp needed
 1104 009a 5DF8047B 		ldr	r7, [sp], #4
 1105              		.cfi_restore 7
 1106              		.cfi_def_cfa_offset 0
 1107 009e 7047     		bx	lr
 1108              		.cfi_endproc
 1109              	.LFE71:
 1110              		.size	GetDisplayFlowNode, .-GetDisplayFlowNode
 1111              		.section	.text.PrepareDisplayStructure,"ax",%progbits
 1112              		.align	2
 1113              		.global	PrepareDisplayStructure
 1114              		.thumb
 1115              		.thumb_func
 1116              		.type	PrepareDisplayStructure, %function
 1117              	PrepareDisplayStructure:
 1118              	.LFB72:
 263:.\DisplayUtils.c **** 
 264:.\DisplayUtils.c **** //@Created by: HIJH
 265:.\DisplayUtils.c **** //@Date: Septembre de 2016
 266:.\DisplayUtils.c **** //Further cleanup before initiation the display flow
 267:.\DisplayUtils.c **** void PrepareDisplayStructure(void *pparam)
 268:.\DisplayUtils.c **** {
 1119              		.loc 1 268 0
 1120              		.cfi_startproc
 1121              		@ args = 0, pretend = 0, frame = 16
 1122              		@ frame_needed = 1, uses_anonymous_args = 0
 1123 0000 80B5     		push	{r7, lr}
 1124              		.cfi_def_cfa_offset 8
 1125              		.cfi_offset 7, -8
 1126              		.cfi_offset 14, -4
 1127 0002 84B0     		sub	sp, sp, #16
 1128              		.cfi_def_cfa_offset 24
 1129 0004 00AF     		add	r7, sp, #0
 1130              		.cfi_def_cfa_register 7
 1131 0006 7860     		str	r0, [r7, #4]


 269:.\DisplayUtils.c ****     PDISPLAYLAYOUTPTR pdisplay = (PDISPLAYLAYOUTPTR)pparam;
 1132              		.loc 1 269 0
 1133 0008 7B68     		ldr	r3, [r7, #4]
 1134 000a FB60     		str	r3, [r7, #12]
 270:.\DisplayUtils.c ****     
 271:.\DisplayUtils.c ****     pdisplay->_pcurrflow = GetDisplayFlowNode(pdisplay);
 1135              		.loc 1 271 0
 1136 000c F868     		ldr	r0, [r7, #12]
 1137 000e FFF7FEFF 		bl	GetDisplayFlowNode
 1138 0012 0246     		mov	r2, r0
 1139 0014 FB68     		ldr	r3, [r7, #12]
 1140 0016 1A61     		str	r2, [r3, #16]
 272:.\DisplayUtils.c ****     pdisplay->_nextscrid = DISPLAY_NULL;
 1141              		.loc 1 272 0
 1142 0018 FB68     		ldr	r3, [r7, #12]
 1143 001a FF22     		movs	r2, #255
 1144 001c 9A70     		strb	r2, [r3, #2]
 273:.\DisplayUtils.c ****     pdisplay->_statechangescrid  = DISPLAY_NULL;
 1145              		.loc 1 273 0
 1146 001e FB68     		ldr	r3, [r7, #12]
 1147 0020 FF22     		movs	r2, #255
 1148 0022 5A71     		strb	r2, [r3, #5]
 274:.\DisplayUtils.c ****     pdisplay->_currentstate  = 0x00;
 1149              		.loc 1 274 0
 1150 0024 FB68     		ldr	r3, [r7, #12]
 1151 0026 0022     		movs	r2, #0
 1152 0028 1A71     		strb	r2, [r3, #4]
 275:.\DisplayUtils.c ****     pdisplay->_timeoutscrid = DISPLAY_NULL;
 1153              		.loc 1 275 0
 1154 002a FB68     		ldr	r3, [r7, #12]
 1155 002c FF22     		movs	r2, #255
 1156 002e 9A72     		strb	r2, [r3, #10]
 276:.\DisplayUtils.c ****     pdisplay->_currscrcode = 0x00;
 1157              		.loc 1 276 0
 1158 0030 FB68     		ldr	r3, [r7, #12]
 1159 0032 0022     		movs	r2, #0
 1160 0034 DA70     		strb	r2, [r3, #3]
 277:.\DisplayUtils.c ****     pdisplay->_timeoutmultiplier = 0;
 1161              		.loc 1 277 0
 1162 0036 FB68     		ldr	r3, [r7, #12]
 1163 0038 0022     		movs	r2, #0
 1164 003a 1A81     		strh	r2, [r3, #8]	@ movhi
 278:.\DisplayUtils.c ****     memset(pdisplay->_bufferinfo._buffer, 0x00, _DISPLAY_BUFFER_SIZE_);
 1165              		.loc 1 278 0
 1166 003c FB68     		ldr	r3, [r7, #12]
 1167 003e 1D33     		adds	r3, r3, #29
 1168 0040 1846     		mov	r0, r3
 1169 0042 0021     		movs	r1, #0
 1170 0044 1022     		movs	r2, #16
 1171 0046 FFF7FEFF 		bl	memset
 279:.\DisplayUtils.c ****     //This setting only applies if the DisplayFlow item has been defined to timeout
 280:.\DisplayUtils.c ****     pdisplay->_timeoutreftick = Timer_Tick_ReadCounter();
 1172              		.loc 1 280 0
 1173 004a FFF7FEFF 		bl	Timer_Tick_ReadCounter
 1174 004e 0346     		mov	r3, r0
 1175 0050 1A46     		mov	r2, r3
 1176 0052 FB68     		ldr	r3, [r7, #12]


 1177 0054 DA80     		strh	r2, [r3, #6]	@ movhi
 281:.\DisplayUtils.c ****     pdisplay->_bufferinfo._bufferindex = 0;
 1178              		.loc 1 281 0
 1179 0056 FB68     		ldr	r3, [r7, #12]
 1180 0058 0022     		movs	r2, #0
 1181 005a 1A77     		strb	r2, [r3, #28]
 282:.\DisplayUtils.c ****     memset(pdisplay->_bufferinfo._buffer, 0x00, _DISPLAY_BUFFER_SIZE_);
 1182              		.loc 1 282 0
 1183 005c FB68     		ldr	r3, [r7, #12]
 1184 005e 1D33     		adds	r3, r3, #29
 1185 0060 1846     		mov	r0, r3
 1186 0062 0021     		movs	r1, #0
 1187 0064 1022     		movs	r2, #16
 1188 0066 FFF7FEFF 		bl	memset
 283:.\DisplayUtils.c **** 
 284:.\DisplayUtils.c **** }
 1189              		.loc 1 284 0
 1190 006a 1037     		adds	r7, r7, #16
 1191              		.cfi_def_cfa_offset 8
 1192 006c BD46     		mov	sp, r7
 1193              		.cfi_def_cfa_register 13
 1194              		@ sp needed
 1195 006e 80BD     		pop	{r7, pc}
 1196              		.cfi_endproc
 1197              	.LFE72:
 1198              		.size	PrepareDisplayStructure, .-PrepareDisplayStructure
 1199              		.section	.text.NonEmptyDataValidator,"ax",%progbits
 1200              		.align	2
 1201              		.global	NonEmptyDataValidator
 1202              		.thumb
 1203              		.thumb_func
 1204              		.type	NonEmptyDataValidator, %function
 1205              	NonEmptyDataValidator:
 1206              	.LFB73:
 285:.\DisplayUtils.c **** 
 286:.\DisplayUtils.c **** //@Created by: HIJH
 287:.\DisplayUtils.c **** //@Date: Septembre de 2016
 288:.\DisplayUtils.c **** //This method validates that the capture buffer for the current display
 289:.\DisplayUtils.c **** //has received the required information and is not empty
 290:.\DisplayUtils.c **** bool NonEmptyDataValidator(void *pparam)
 291:.\DisplayUtils.c **** {
 1207              		.loc 1 291 0
 1208              		.cfi_startproc
 1209              		@ args = 0, pretend = 0, frame = 16
 1210              		@ frame_needed = 1, uses_anonymous_args = 0
 1211              		@ link register save eliminated.
 1212 0000 80B4     		push	{r7}
 1213              		.cfi_def_cfa_offset 4
 1214              		.cfi_offset 7, -4
 1215 0002 85B0     		sub	sp, sp, #20
 1216              		.cfi_def_cfa_offset 24
 1217 0004 00AF     		add	r7, sp, #0
 1218              		.cfi_def_cfa_register 7
 1219 0006 7860     		str	r0, [r7, #4]
 292:.\DisplayUtils.c ****     bool retval = false;
 1220              		.loc 1 292 0
 1221 0008 0023     		movs	r3, #0


 1222 000a FB73     		strb	r3, [r7, #15]
 293:.\DisplayUtils.c ****     DisplayLayout *pdisplay = (DisplayLayout*)pparam;
 1223              		.loc 1 293 0
 1224 000c 7B68     		ldr	r3, [r7, #4]
 1225 000e BB60     		str	r3, [r7, #8]
 294:.\DisplayUtils.c ****     if(pdisplay->_bufferinfo._bufferindex > 0)
 1226              		.loc 1 294 0
 1227 0010 BB68     		ldr	r3, [r7, #8]
 1228 0012 1B7F     		ldrb	r3, [r3, #28]	@ zero_extendqisi2
 1229 0014 002B     		cmp	r3, #0
 1230 0016 01D0     		beq	.L65
 295:.\DisplayUtils.c ****         retval = true;
 1231              		.loc 1 295 0
 1232 0018 0123     		movs	r3, #1
 1233 001a FB73     		strb	r3, [r7, #15]
 1234              	.L65:
 296:.\DisplayUtils.c ****     
 297:.\DisplayUtils.c ****     return retval;
 1235              		.loc 1 297 0
 1236 001c FB7B     		ldrb	r3, [r7, #15]	@ zero_extendqisi2
 298:.\DisplayUtils.c **** }
 1237              		.loc 1 298 0
 1238 001e 1846     		mov	r0, r3
 1239 0020 1437     		adds	r7, r7, #20
 1240              		.cfi_def_cfa_offset 4
 1241 0022 BD46     		mov	sp, r7
 1242              		.cfi_def_cfa_register 13
 1243              		@ sp needed
 1244 0024 5DF8047B 		ldr	r7, [sp], #4
 1245              		.cfi_restore 7
 1246              		.cfi_def_cfa_offset 0
 1247 0028 7047     		bx	lr
 1248              		.cfi_endproc
 1249              	.LFE73:
 1250              		.size	NonEmptyDataValidator, .-NonEmptyDataValidator
 1251 002a 00BF     		.section	.rodata
 1252              		.align	2
 1253              	.LC2:
 1254 000c 31323334 		.ascii	"1234\000"
 1254      00
 1255 0011 000000   		.section	.text.SecureConfigurationValidator,"ax",%progbits
 1256              		.align	2
 1257              		.global	SecureConfigurationValidator
 1258              		.thumb
 1259              		.thumb_func
 1260              		.type	SecureConfigurationValidator, %function
 1261              	SecureConfigurationValidator:
 1262              	.LFB74:
 299:.\DisplayUtils.c **** 
 300:.\DisplayUtils.c **** //@Created by: HIJH
 301:.\DisplayUtils.c **** //@Date: Septembre de 2016
 302:.\DisplayUtils.c **** //This method validates that the capture buffer for the current display
 303:.\DisplayUtils.c **** //has received the required information and is not empty
 304:.\DisplayUtils.c **** bool SecureConfigurationValidator(void *pparam)
 305:.\DisplayUtils.c **** {
 1263              		.loc 1 305 0
 1264              		.cfi_startproc


 1265              		@ args = 0, pretend = 0, frame = 24
 1266              		@ frame_needed = 1, uses_anonymous_args = 0
 1267 0000 80B5     		push	{r7, lr}
 1268              		.cfi_def_cfa_offset 8
 1269              		.cfi_offset 7, -8
 1270              		.cfi_offset 14, -4
 1271 0002 86B0     		sub	sp, sp, #24
 1272              		.cfi_def_cfa_offset 32
 1273 0004 00AF     		add	r7, sp, #0
 1274              		.cfi_def_cfa_register 7
 1275 0006 7860     		str	r0, [r7, #4]
 306:.\DisplayUtils.c ****     bool retval = false;
 1276              		.loc 1 306 0
 1277 0008 0023     		movs	r3, #0
 1278 000a FB75     		strb	r3, [r7, #23]
 307:.\DisplayUtils.c ****     DisplayLayout *pdisplay = (DisplayLayout*)pparam;
 1279              		.loc 1 307 0
 1280 000c 7B68     		ldr	r3, [r7, #4]
 1281 000e 3B61     		str	r3, [r7, #16]
 308:.\DisplayUtils.c ****     if(pdisplay->_bufferinfo._bufferindex > 0)
 1282              		.loc 1 308 0
 1283 0010 3B69     		ldr	r3, [r7, #16]
 1284 0012 1B7F     		ldrb	r3, [r3, #28]	@ zero_extendqisi2
 1285 0014 002B     		cmp	r3, #0
 1286 0016 25D0     		beq	.L68
 1287              	.LBB4:
 309:.\DisplayUtils.c ****     {
 310:.\DisplayUtils.c ****         retval = true;
 1288              		.loc 1 310 0
 1289 0018 0123     		movs	r3, #1
 1290 001a FB75     		strb	r3, [r7, #23]
 311:.\DisplayUtils.c ****         const char* StringPass = "1234";
 1291              		.loc 1 311 0
 1292 001c 144B     		ldr	r3, .L71
 1293 001e FB60     		str	r3, [r7, #12]
 312:.\DisplayUtils.c ****         ClearEepromBuffer();
 1294              		.loc 1 312 0
 1295 0020 FFF7FEFF 		bl	ClearEepromBuffer
 313:.\DisplayUtils.c ****         LoadEepromPage(EEPROM_CONFIGURATION_PAGE7);
 1296              		.loc 1 313 0
 1297 0024 4FF4E070 		mov	r0, #448
 1298 0028 FFF7FEFF 		bl	LoadEepromPage
 314:.\DisplayUtils.c ****         //This EEPROM's page location is used to store the four digit ASCII password
 1299              		.loc 1 315 0
 1300 002c 3B69     		ldr	r3, [r7, #16]
 1301 002e 1D33     		adds	r3, r3, #29
 1302 0030 1846     		mov	r0, r3
 1303 0032 F968     		ldr	r1, [r7, #12]
 1304 0034 0422     		movs	r2, #4
 1305 0036 FFF7FEFF 		bl	strncmp
 1306 003a 0346     		mov	r3, r0
 1307 003c 002B     		cmp	r3, #0
 316:.\DisplayUtils.c ****         {
 317:.\DisplayUtils.c ****             if(pdisplay->_bufferinfo._buffer[0x04] == 0x2C)
 1309              		.loc 1 317 0


 1310 0040 3B69     		ldr	r3, [r7, #16]
 1311 0042 93F82130 		ldrb	r3, [r3, #33]	@ zero_extendqisi2
 1312 0046 2C2B     		cmp	r3, #44
 1313 0048 06D1     		bne	.L69
 318:.\DisplayUtils.c ****             {
 319:.\DisplayUtils.c ****                 pdisplay->_currscrcode = 0x1E;
 1314              		.loc 1 319 0
 1315 004a 3B69     		ldr	r3, [r7, #16]
 1316 004c 1E22     		movs	r2, #30
 1317 004e DA70     		strb	r2, [r3, #3]
 320:.\DisplayUtils.c ****                 pdisplay->_nextscrid = DISPLAY_NUEVO_PASSWORD;
 1318              		.loc 1 320 0
 1319 0050 3B69     		ldr	r3, [r7, #16]
 1320 0052 2F22     		movs	r2, #47
 1321 0054 9A70     		strb	r2, [r3, #2]
 1322 0056 05E0     		b	.L68
 1323              	.L69:
 321:.\DisplayUtils.c ****             }
 322:.\DisplayUtils.c ****             else
 323:.\DisplayUtils.c ****             {
 324:.\DisplayUtils.c ****                 pdisplay->_currscrcode = 0x1D;
 1324              		.loc 1 324 0
 1325 0058 3B69     		ldr	r3, [r7, #16]
 1326 005a 1D22     		movs	r2, #29
 1327 005c DA70     		strb	r2, [r3, #3]
 325:.\DisplayUtils.c ****                 pdisplay->_nextscrid = DISPLAY_PASSWORD_VALIDO;
 1328              		.loc 1 325 0
 1329 005e 3B69     		ldr	r3, [r7, #16]
 1330 0060 2622     		movs	r2, #38
 1331 0062 9A70     		strb	r2, [r3, #2]
 1332              	.L68:
 1333              	.LBE4:
 326:.\DisplayUtils.c ****             }
 327:.\DisplayUtils.c ****         }
 328:.\DisplayUtils.c ****     }
 329:.\DisplayUtils.c ****     
 330:.\DisplayUtils.c ****     return retval;
 1334              		.loc 1 330 0
 1335 0064 FB7D     		ldrb	r3, [r7, #23]	@ zero_extendqisi2
 331:.\DisplayUtils.c **** }
 1336              		.loc 1 331 0
 1337 0066 1846     		mov	r0, r3
 1338 0068 1837     		adds	r7, r7, #24
 1339              		.cfi_def_cfa_offset 8
 1340 006a BD46     		mov	sp, r7
 1341              		.cfi_def_cfa_register 13
 1342              		@ sp needed
 1343 006c 80BD     		pop	{r7, pc}
 1344              	.L72:
 1345 006e 00BF     		.align	2
 1346              	.L71:
 1347 0070 0C000000 		.word	.LC2
 1348              		.cfi_endproc
 1349              	.LFE74:
 1350              		.size	SecureConfigurationValidator, .-SecureConfigurationValidator
 1351              		.section	.text.SaveNewPassword,"ax",%progbits
 1352              		.align	2


 1353              		.global	SaveNewPassword
 1354              		.thumb
 1355              		.thumb_func
 1356              		.type	SaveNewPassword, %function
 1357              	SaveNewPassword:
 1358              	.LFB75:
 332:.\DisplayUtils.c **** 
 333:.\DisplayUtils.c **** //@Created by: HIJH
 334:.\DisplayUtils.c **** //@Date: Septembre de 2016
 335:.\DisplayUtils.c **** void SaveNewPassword(void *pparam)
 336:.\DisplayUtils.c **** {
 1359              		.loc 1 336 0
 1360              		.cfi_startproc
 1361              		@ args = 0, pretend = 0, frame = 16
 1362              		@ frame_needed = 1, uses_anonymous_args = 0
 1363 0000 80B5     		push	{r7, lr}
 1364              		.cfi_def_cfa_offset 8
 1365              		.cfi_offset 7, -8
 1366              		.cfi_offset 14, -4
 1367 0002 84B0     		sub	sp, sp, #16
 1368              		.cfi_def_cfa_offset 24
 1369 0004 00AF     		add	r7, sp, #0
 1370              		.cfi_def_cfa_register 7
 1371 0006 7860     		str	r0, [r7, #4]
 337:.\DisplayUtils.c ****     DisplayLayout *pdisplay = (DisplayLayout*)pparam;
 1372              		.loc 1 337 0
 1373 0008 7B68     		ldr	r3, [r7, #4]
 1374 000a FB60     		str	r3, [r7, #12]
 338:.\DisplayUtils.c ****     if(pdisplay->_bufferinfo._bufferindex > 0)
 1375              		.loc 1 338 0
 1376 000c FB68     		ldr	r3, [r7, #12]
 1377 000e 1B7F     		ldrb	r3, [r3, #28]	@ zero_extendqisi2
 1378 0010 002B     		cmp	r3, #0
 1379 0012 15D0     		beq	.L73
 339:.\DisplayUtils.c ****     {
 340:.\DisplayUtils.c ****         ClearEepromBuffer();
 1380              		.loc 1 340 0
 1381 0014 FFF7FEFF 		bl	ClearEepromBuffer
 341:.\DisplayUtils.c ****         LoadEepromPage(EEPROM_CONFIGURATION_PAGE7);
 1382              		.loc 1 341 0
 1383 0018 4FF4E070 		mov	r0, #448
 1384 001c FFF7FEFF 		bl	LoadEepromPage
 342:.\DisplayUtils.c ****         memcpy(&GetEepromBuffer()[0x0D], pdisplay->_bufferinfo._buffer, 0x04);
 1385              		.loc 1 342 0
 1386 0020 FFF7FEFF 		bl	GetEepromBuffer
 1387 0024 0346     		mov	r3, r0
 1388 0026 03F10D02 		add	r2, r3, #13
 1389 002a FB68     		ldr	r3, [r7, #12]
 1390 002c 1D33     		adds	r3, r3, #29
 1391 002e 1046     		mov	r0, r2
 1392 0030 1946     		mov	r1, r3
 1393 0032 0422     		movs	r2, #4
 1394 0034 FFF7FEFF 		bl	memcpy
 343:.\DisplayUtils.c ****         StoreEepromPage(EEPROM_CONFIGURATION_PAGE7);
 1395              		.loc 1 343 0
 1396 0038 4FF4E070 		mov	r0, #448
 1397 003c FFF7FEFF 		bl	StoreEepromPage


 1398              	.L73:
 344:.\DisplayUtils.c ****     }
 345:.\DisplayUtils.c **** }
 1399              		.loc 1 345 0
 1400 0040 1037     		adds	r7, r7, #16
 1401              		.cfi_def_cfa_offset 8
 1402 0042 BD46     		mov	sp, r7
 1403              		.cfi_def_cfa_register 13
 1404              		@ sp needed
 1405 0044 80BD     		pop	{r7, pc}
 1406              		.cfi_endproc
 1407              	.LFE75:
 1408              		.size	SaveNewPassword, .-SaveNewPassword
 1409 0046 00BF     		.section	.text.NonEmptyMoneyValidator,"ax",%progbits
 1410              		.align	2
 1411              		.global	NonEmptyMoneyValidator
 1412              		.thumb
 1413              		.thumb_func
 1414              		.type	NonEmptyMoneyValidator, %function
 1415              	NonEmptyMoneyValidator:
 1416              	.LFB76:
 346:.\DisplayUtils.c **** 
 347:.\DisplayUtils.c **** //@Created by: HIJH
 348:.\DisplayUtils.c **** //@Date: Septembre de 2016
 349:.\DisplayUtils.c **** //This method validates that the capture buffer for the current display
 350:.\DisplayUtils.c **** //has received the required information and is not empty
 351:.\DisplayUtils.c **** bool NonEmptyMoneyValidator(void *pparam)
 352:.\DisplayUtils.c **** {
 1417              		.loc 1 352 0
 1418              		.cfi_startproc
 1419              		@ args = 0, pretend = 0, frame = 48
 1420              		@ frame_needed = 1, uses_anonymous_args = 0
 1421 0000 90B5     		push	{r4, r7, lr}
 1422              		.cfi_def_cfa_offset 12
 1423              		.cfi_offset 4, -12
 1424              		.cfi_offset 7, -8
 1425              		.cfi_offset 14, -4
 1426 0002 8DB0     		sub	sp, sp, #52
 1427              		.cfi_def_cfa_offset 64
 1428 0004 00AF     		add	r7, sp, #0
 1429              		.cfi_def_cfa_register 7
 1430 0006 7860     		str	r0, [r7, #4]
 353:.\DisplayUtils.c ****     bool retval = false;
 1431              		.loc 1 353 0
 1432 0008 0023     		movs	r3, #0
 1433 000a 87F82F30 		strb	r3, [r7, #47]
 354:.\DisplayUtils.c ****     char8 tempbuffer[_DISPLAY_BUFFER_SIZE_];
 355:.\DisplayUtils.c ****     DisplayLayout *pdisplay = (DisplayLayout*)pparam;
 1434              		.loc 1 355 0
 1435 000e 7B68     		ldr	r3, [r7, #4]
 1436 0010 BB62     		str	r3, [r7, #40]
 356:.\DisplayUtils.c ****     
 357:.\DisplayUtils.c ****     if(pdisplay->_bufferinfo._bufferindex > 0)
 1437              		.loc 1 357 0
 1438 0012 BB6A     		ldr	r3, [r7, #40]
 1439 0014 1B7F     		ldrb	r3, [r3, #28]	@ zero_extendqisi2
 1440 0016 002B     		cmp	r3, #0


 1441 0018 03D0     		beq	.L76
 358:.\DisplayUtils.c ****         retval = true;
 1442              		.loc 1 358 0
 1443 001a 0123     		movs	r3, #1
 1444 001c 87F82F30 		strb	r3, [r7, #47]
 1445 0020 02E0     		b	.L77
 1446              	.L76:
 359:.\DisplayUtils.c ****     else
 360:.\DisplayUtils.c ****         retval = false;    
 1447              		.loc 1 360 0
 1448 0022 0023     		movs	r3, #0
 1449 0024 87F82F30 		strb	r3, [r7, #47]
 1450              	.L77:
 361:.\DisplayUtils.c ****     
 362:.\DisplayUtils.c ****     if(retval)
 1451              		.loc 1 362 0
 1452 0028 97F82F30 		ldrb	r3, [r7, #47]	@ zero_extendqisi2
 1453 002c 002B     		cmp	r3, #0
 1454 002e 00F08280 		beq	.L78
 1455              	.LBB5:
 363:.\DisplayUtils.c ****     {
 364:.\DisplayUtils.c ****         uint8 remplaces = _DISPLAY_BUFFER_SIZE_ - pdisplay->_bufferinfo._bufferindex;
 1456              		.loc 1 364 0
 1457 0032 BB6A     		ldr	r3, [r7, #40]
 1458 0034 1B7F     		ldrb	r3, [r3, #28]	@ zero_extendqisi2
 1459 0036 C3F11003 		rsb	r3, r3, #16
 1460 003a 87F82730 		strb	r3, [r7, #39]
 365:.\DisplayUtils.c ****         memcpy(tempbuffer, pdisplay->_bufferinfo._buffer, _DISPLAY_BUFFER_SIZE_);
 1461              		.loc 1 365 0
 1462 003e BB6A     		ldr	r3, [r7, #40]
 1463 0040 07F10C04 		add	r4, r7, #12
 1464 0044 1D33     		adds	r3, r3, #29
 1465 0046 1868     		ldr	r0, [r3]	@ unaligned
 1466 0048 5968     		ldr	r1, [r3, #4]	@ unaligned
 1467 004a 9A68     		ldr	r2, [r3, #8]	@ unaligned
 1468 004c DB68     		ldr	r3, [r3, #12]	@ unaligned
 1469 004e 0FC4     		stmia	r4!, {r0, r1, r2, r3}
 366:.\DisplayUtils.c ****         FOR(int8 index = pdisplay->_bufferinfo._bufferindex, index < _DISPLAY_BUFFER_SIZE_, index++
 1470              		.loc 1 366 0
 1471 0050 BB6A     		ldr	r3, [r7, #40]
 1472 0052 1B7F     		ldrb	r3, [r3, #28]	@ zero_extendqisi2
 1473 0054 87F82E30 		strb	r3, [r7, #46]
 1474 0058 0EE0     		b	.L79
 1475              	.L80:
 367:.\DisplayUtils.c ****             tempbuffer[index] = 0x00;
 1476              		.loc 1 367 0 discriminator 3
 1477 005a 97F92E30 		ldrsb	r3, [r7, #46]
 1478 005e 07F13002 		add	r2, r7, #48
 1479 0062 1344     		add	r3, r3, r2
 1480 0064 0022     		movs	r2, #0
 1481 0066 03F8242C 		strb	r2, [r3, #-36]
 366:.\DisplayUtils.c ****         FOR(int8 index = pdisplay->_bufferinfo._bufferindex, index < _DISPLAY_BUFFER_SIZE_, index++
 1482              		.loc 1 366 0 discriminator 3
 1483 006a 97F82E30 		ldrb	r3, [r7, #46]	@ zero_extendqisi2
 1484 006e DBB2     		uxtb	r3, r3
 1485 0070 0133     		adds	r3, r3, #1
 1486 0072 DBB2     		uxtb	r3, r3


 1487 0074 87F82E30 		strb	r3, [r7, #46]
 1488              	.L79:
 366:.\DisplayUtils.c ****         FOR(int8 index = pdisplay->_bufferinfo._bufferindex, index < _DISPLAY_BUFFER_SIZE_, index++
 1489              		.loc 1 366 0 is_stmt 0 discriminator 1
 1490 0078 97F92E30 		ldrsb	r3, [r7, #46]
 1491 007c 0F2B     		cmp	r3, #15
 1492 007e ECDD     		ble	.L80
 368:.\DisplayUtils.c ****         
 369:.\DisplayUtils.c ****         FOR(index = (pdisplay->_bufferinfo._bufferindex - 1), index >= 0, index--)
 1493              		.loc 1 369 0 is_stmt 1
 1494 0080 BB6A     		ldr	r3, [r7, #40]
 1495 0082 1B7F     		ldrb	r3, [r3, #28]	@ zero_extendqisi2
 1496 0084 013B     		subs	r3, r3, #1
 1497 0086 DBB2     		uxtb	r3, r3
 1498 0088 87F82E30 		strb	r3, [r7, #46]
 1499 008c 22E0     		b	.L81
 1500              	.L82:
 370:.\DisplayUtils.c ****         {
 371:.\DisplayUtils.c ****             tempbuffer[index + remplaces] = tempbuffer[index] & 0x0F;
 1501              		.loc 1 371 0 discriminator 3
 1502 008e 97F92E20 		ldrsb	r2, [r7, #46]
 1503 0092 97F82730 		ldrb	r3, [r7, #39]	@ zero_extendqisi2
 1504 0096 1344     		add	r3, r3, r2
 1505 0098 97F92E20 		ldrsb	r2, [r7, #46]
 1506 009c 07F13001 		add	r1, r7, #48
 1507 00a0 0A44     		add	r2, r2, r1
 1508 00a2 12F8242C 		ldrb	r2, [r2, #-36]	@ zero_extendqisi2
 1509 00a6 02F00F02 		and	r2, r2, #15
 1510 00aa D2B2     		uxtb	r2, r2
 1511 00ac 07F13001 		add	r1, r7, #48
 1512 00b0 0B44     		add	r3, r3, r1
 1513 00b2 03F8242C 		strb	r2, [r3, #-36]
 372:.\DisplayUtils.c ****             tempbuffer[index] = 0x00;
 1514              		.loc 1 372 0 discriminator 3
 1515 00b6 97F92E30 		ldrsb	r3, [r7, #46]
 1516 00ba 07F13002 		add	r2, r7, #48
 1517 00be 1344     		add	r3, r3, r2
 1518 00c0 0022     		movs	r2, #0
 1519 00c2 03F8242C 		strb	r2, [r3, #-36]
 369:.\DisplayUtils.c ****         {
 1520              		.loc 1 369 0 discriminator 3
 1521 00c6 97F82E30 		ldrb	r3, [r7, #46]	@ zero_extendqisi2
 1522 00ca DBB2     		uxtb	r3, r3
 1523 00cc 013B     		subs	r3, r3, #1
 1524 00ce DBB2     		uxtb	r3, r3
 1525 00d0 87F82E30 		strb	r3, [r7, #46]
 1526              	.L81:
 369:.\DisplayUtils.c ****         {
 1527              		.loc 1 369 0 is_stmt 0 discriminator 1
 1528 00d4 97F92E30 		ldrsb	r3, [r7, #46]
 1529 00d8 002B     		cmp	r3, #0
 1530 00da D8DA     		bge	.L82
 373:.\DisplayUtils.c ****         }    
 374:.\DisplayUtils.c ****         CastMoneyValue(tempbuffer, _DISPLAY_BUFFER_SIZE_);
 1531              		.loc 1 374 0 is_stmt 1
 1532 00dc 07F10C03 		add	r3, r7, #12
 1533 00e0 1846     		mov	r0, r3


 1534 00e2 1021     		movs	r1, #16
 1535 00e4 FFF7FEFF 		bl	CastMoneyValue
 375:.\DisplayUtils.c ****         PSTRBUFFTOGG((PNEAR_BYTE_PTR)tempbuffer, _DISPLAY_BUFFER_SIZE_);
 1536              		.loc 1 375 0
 1537 00e8 07F10C03 		add	r3, r7, #12
 1538 00ec 1846     		mov	r0, r3
 1539 00ee 1021     		movs	r1, #16
 1540 00f0 FFF7FEFF 		bl	PSTRBUFFTOGG
 376:.\DisplayUtils.c ****         uint32 datavalue = LSDBCDBUFF2HEX((PNEAR_BYTE_PTR)tempbuffer, _DISPLAY_BUFFER_SIZE_);
 1541              		.loc 1 376 0
 1542 00f4 07F10C03 		add	r3, r7, #12
 1543 00f8 1846     		mov	r0, r3
 1544 00fa 1021     		movs	r1, #16
 1545 00fc FFF7FEFF 		bl	LSDBCDBUFF2HEX
 1546 0100 3862     		str	r0, [r7, #32]
 377:.\DisplayUtils.c ****         
 378:.\DisplayUtils.c ****         I2CBusLock();
 1547              		.loc 1 378 0
 1548 0102 FFF7FEFF 		bl	I2CBusLock
 379:.\DisplayUtils.c ****         ClearEepromBuffer();
 1549              		.loc 1 379 0
 1550 0106 FFF7FEFF 		bl	ClearEepromBuffer
 380:.\DisplayUtils.c ****         LoadEepromPage(EEPROM_CONFIGURATION_PAGE5);
 1551              		.loc 1 380 0
 1552 010a 4FF4A070 		mov	r0, #320
 1553 010e FFF7FEFF 		bl	LoadEepromPage
 381:.\DisplayUtils.c ****         uint32 refvalue = LSDBCDBUFF2HEX((PNEAR_BYTE_PTR)&GetEepromBuffer()[0x02], 0x10);          
 1554              		.loc 1 381 0
 1555 0112 FFF7FEFF 		bl	GetEepromBuffer
 1556 0116 0346     		mov	r3, r0
 1557 0118 0233     		adds	r3, r3, #2
 1558 011a 1846     		mov	r0, r3
 1559 011c 1021     		movs	r1, #16
 1560 011e FFF7FEFF 		bl	LSDBCDBUFF2HEX
 1561 0122 F861     		str	r0, [r7, #28]
 382:.\DisplayUtils.c ****         I2CBusUnlock();
 1562              		.loc 1 382 0
 1563 0124 FFF7FEFF 		bl	I2CBusUnlock
 383:.\DisplayUtils.c ****         
 384:.\DisplayUtils.c ****         if(datavalue < refvalue)
 1564              		.loc 1 384 0
 1565 0128 3A6A     		ldr	r2, [r7, #32]
 1566 012a FB69     		ldr	r3, [r7, #28]
 1567 012c 9A42     		cmp	r2, r3
 1568 012e 02D2     		bcs	.L78
 385:.\DisplayUtils.c ****             retval = false;
 1569              		.loc 1 385 0
 1570 0130 0023     		movs	r3, #0
 1571 0132 87F82F30 		strb	r3, [r7, #47]
 1572              	.L78:
 1573              	.LBE5:
 386:.\DisplayUtils.c ****     }
 387:.\DisplayUtils.c ****         
 388:.\DisplayUtils.c ****     return retval;
 1574              		.loc 1 388 0
 1575 0136 97F82F30 		ldrb	r3, [r7, #47]	@ zero_extendqisi2
 389:.\DisplayUtils.c **** }


 1576              		.loc 1 389 0
 1577 013a 1846     		mov	r0, r3
 1578 013c 3437     		adds	r7, r7, #52
 1579              		.cfi_def_cfa_offset 12
 1580 013e BD46     		mov	sp, r7
 1581              		.cfi_def_cfa_register 13
 1582              		@ sp needed
 1583 0140 90BD     		pop	{r4, r7, pc}
 1584              		.cfi_endproc
 1585              	.LFE76:
 1586              		.size	NonEmptyMoneyValidator, .-NonEmptyMoneyValidator
 1587 0142 00BF     		.section	.text.NonEmptyVolumeValidator,"ax",%progbits
 1588              		.align	2
 1589              		.global	NonEmptyVolumeValidator
 1590              		.thumb
 1591              		.thumb_func
 1592              		.type	NonEmptyVolumeValidator, %function
 1593              	NonEmptyVolumeValidator:
 1594              	.LFB77:
 390:.\DisplayUtils.c **** 
 391:.\DisplayUtils.c **** //@Created by: HIJH
 392:.\DisplayUtils.c **** //@Date: Septembre de 2016
 393:.\DisplayUtils.c **** //This method validates that the capture buffer for the current display
 394:.\DisplayUtils.c **** //has received the required information and is not empty
 395:.\DisplayUtils.c **** bool NonEmptyVolumeValidator(void *pparam)
 396:.\DisplayUtils.c **** {
 1595              		.loc 1 396 0
 1596              		.cfi_startproc
 1597              		@ args = 0, pretend = 0, frame = 48
 1598              		@ frame_needed = 1, uses_anonymous_args = 0
 1599 0000 90B5     		push	{r4, r7, lr}
 1600              		.cfi_def_cfa_offset 12
 1601              		.cfi_offset 4, -12
 1602              		.cfi_offset 7, -8
 1603              		.cfi_offset 14, -4
 1604 0002 8DB0     		sub	sp, sp, #52
 1605              		.cfi_def_cfa_offset 64
 1606 0004 00AF     		add	r7, sp, #0
 1607              		.cfi_def_cfa_register 7
 1608 0006 7860     		str	r0, [r7, #4]
 397:.\DisplayUtils.c ****     bool retval = false;
 1609              		.loc 1 397 0
 1610 0008 0023     		movs	r3, #0
 1611 000a 87F82F30 		strb	r3, [r7, #47]
 398:.\DisplayUtils.c ****     char8 tempbuffer[_DISPLAY_BUFFER_SIZE_];
 399:.\DisplayUtils.c ****     DisplayLayout *pdisplay = (DisplayLayout*)pparam;
 1612              		.loc 1 399 0
 1613 000e 7B68     		ldr	r3, [r7, #4]
 1614 0010 BB62     		str	r3, [r7, #40]
 400:.\DisplayUtils.c ****     
 401:.\DisplayUtils.c ****     if(pdisplay->_bufferinfo._bufferindex > 0)
 1615              		.loc 1 401 0
 1616 0012 BB6A     		ldr	r3, [r7, #40]
 1617 0014 1B7F     		ldrb	r3, [r3, #28]	@ zero_extendqisi2
 1618 0016 002B     		cmp	r3, #0
 1619 0018 03D0     		beq	.L85
 402:.\DisplayUtils.c ****         retval = true;


 1620              		.loc 1 402 0
 1621 001a 0123     		movs	r3, #1
 1622 001c 87F82F30 		strb	r3, [r7, #47]
 1623 0020 02E0     		b	.L86
 1624              	.L85:
 403:.\DisplayUtils.c ****     else
 404:.\DisplayUtils.c ****         retval = false;    
 1625              		.loc 1 404 0
 1626 0022 0023     		movs	r3, #0
 1627 0024 87F82F30 		strb	r3, [r7, #47]
 1628              	.L86:
 405:.\DisplayUtils.c ****     
 406:.\DisplayUtils.c ****     if(retval)
 1629              		.loc 1 406 0
 1630 0028 97F82F30 		ldrb	r3, [r7, #47]	@ zero_extendqisi2
 1631 002c 002B     		cmp	r3, #0
 1632 002e 00F08180 		beq	.L87
 1633              	.LBB6:
 407:.\DisplayUtils.c ****     {
 408:.\DisplayUtils.c ****         uint8 remplaces = _DISPLAY_BUFFER_SIZE_ - pdisplay->_bufferinfo._bufferindex;
 1634              		.loc 1 408 0
 1635 0032 BB6A     		ldr	r3, [r7, #40]
 1636 0034 1B7F     		ldrb	r3, [r3, #28]	@ zero_extendqisi2
 1637 0036 C3F11003 		rsb	r3, r3, #16
 1638 003a 87F82730 		strb	r3, [r7, #39]
 409:.\DisplayUtils.c ****         memcpy(tempbuffer, pdisplay->_bufferinfo._buffer, _DISPLAY_BUFFER_SIZE_);
 1639              		.loc 1 409 0
 1640 003e BB6A     		ldr	r3, [r7, #40]
 1641 0040 07F10C04 		add	r4, r7, #12
 1642 0044 1D33     		adds	r3, r3, #29
 1643 0046 1868     		ldr	r0, [r3]	@ unaligned
 1644 0048 5968     		ldr	r1, [r3, #4]	@ unaligned
 1645 004a 9A68     		ldr	r2, [r3, #8]	@ unaligned
 1646 004c DB68     		ldr	r3, [r3, #12]	@ unaligned
 1647 004e 0FC4     		stmia	r4!, {r0, r1, r2, r3}
 410:.\DisplayUtils.c ****         FOR(int8 index = pdisplay->_bufferinfo._bufferindex, index < _DISPLAY_BUFFER_SIZE_, index++
 1648              		.loc 1 410 0
 1649 0050 BB6A     		ldr	r3, [r7, #40]
 1650 0052 1B7F     		ldrb	r3, [r3, #28]	@ zero_extendqisi2
 1651 0054 87F82E30 		strb	r3, [r7, #46]
 1652 0058 0EE0     		b	.L88
 1653              	.L89:
 411:.\DisplayUtils.c ****             tempbuffer[index] = 0x00;
 1654              		.loc 1 411 0 discriminator 3
 1655 005a 97F92E30 		ldrsb	r3, [r7, #46]
 1656 005e 07F13002 		add	r2, r7, #48
 1657 0062 1344     		add	r3, r3, r2
 1658 0064 0022     		movs	r2, #0
 1659 0066 03F8242C 		strb	r2, [r3, #-36]
 410:.\DisplayUtils.c ****         FOR(int8 index = pdisplay->_bufferinfo._bufferindex, index < _DISPLAY_BUFFER_SIZE_, index++
 1660              		.loc 1 410 0 discriminator 3
 1661 006a 97F82E30 		ldrb	r3, [r7, #46]	@ zero_extendqisi2
 1662 006e DBB2     		uxtb	r3, r3
 1663 0070 0133     		adds	r3, r3, #1
 1664 0072 DBB2     		uxtb	r3, r3
 1665 0074 87F82E30 		strb	r3, [r7, #46]
 1666              	.L88:


 410:.\DisplayUtils.c ****         FOR(int8 index = pdisplay->_bufferinfo._bufferindex, index < _DISPLAY_BUFFER_SIZE_, index++
 1667              		.loc 1 410 0 is_stmt 0 discriminator 1
 1668 0078 97F92E30 		ldrsb	r3, [r7, #46]
 1669 007c 0F2B     		cmp	r3, #15
 1670 007e ECDD     		ble	.L89
 412:.\DisplayUtils.c ****         
 413:.\DisplayUtils.c ****         FOR(index = (pdisplay->_bufferinfo._bufferindex - 1), index >= 0, index--)
 1671              		.loc 1 413 0 is_stmt 1
 1672 0080 BB6A     		ldr	r3, [r7, #40]
 1673 0082 1B7F     		ldrb	r3, [r3, #28]	@ zero_extendqisi2
 1674 0084 013B     		subs	r3, r3, #1
 1675 0086 DBB2     		uxtb	r3, r3
 1676 0088 87F82E30 		strb	r3, [r7, #46]
 1677 008c 22E0     		b	.L90
 1678              	.L91:
 414:.\DisplayUtils.c ****         {
 415:.\DisplayUtils.c ****             tempbuffer[index + remplaces] = tempbuffer[index] & 0x0F;
 1679              		.loc 1 415 0 discriminator 3
 1680 008e 97F92E20 		ldrsb	r2, [r7, #46]
 1681 0092 97F82730 		ldrb	r3, [r7, #39]	@ zero_extendqisi2
 1682 0096 1344     		add	r3, r3, r2
 1683 0098 97F92E20 		ldrsb	r2, [r7, #46]
 1684 009c 07F13001 		add	r1, r7, #48
 1685 00a0 0A44     		add	r2, r2, r1
 1686 00a2 12F8242C 		ldrb	r2, [r2, #-36]	@ zero_extendqisi2
 1687 00a6 02F00F02 		and	r2, r2, #15
 1688 00aa D2B2     		uxtb	r2, r2
 1689 00ac 07F13001 		add	r1, r7, #48
 1690 00b0 0B44     		add	r3, r3, r1
 1691 00b2 03F8242C 		strb	r2, [r3, #-36]
 416:.\DisplayUtils.c ****             tempbuffer[index] = 0x00;
 1692              		.loc 1 416 0 discriminator 3
 1693 00b6 97F92E30 		ldrsb	r3, [r7, #46]
 1694 00ba 07F13002 		add	r2, r7, #48
 1695 00be 1344     		add	r3, r3, r2
 1696 00c0 0022     		movs	r2, #0
 1697 00c2 03F8242C 		strb	r2, [r3, #-36]
 413:.\DisplayUtils.c ****         {
 1698              		.loc 1 413 0 discriminator 3
 1699 00c6 97F82E30 		ldrb	r3, [r7, #46]	@ zero_extendqisi2
 1700 00ca DBB2     		uxtb	r3, r3
 1701 00cc 013B     		subs	r3, r3, #1
 1702 00ce DBB2     		uxtb	r3, r3
 1703 00d0 87F82E30 		strb	r3, [r7, #46]
 1704              	.L90:
 413:.\DisplayUtils.c ****         {
 1705              		.loc 1 413 0 is_stmt 0 discriminator 1
 1706 00d4 97F92E30 		ldrsb	r3, [r7, #46]
 1707 00d8 002B     		cmp	r3, #0
 1708 00da D8DA     		bge	.L91
 417:.\DisplayUtils.c ****         }    
 418:.\DisplayUtils.c ****         CastVolumeValue(tempbuffer, _DISPLAY_BUFFER_SIZE_);
 1709              		.loc 1 418 0 is_stmt 1
 1710 00dc 07F10C03 		add	r3, r7, #12
 1711 00e0 1846     		mov	r0, r3
 1712 00e2 1021     		movs	r1, #16
 1713 00e4 FFF7FEFF 		bl	CastVolumeValue


 419:.\DisplayUtils.c ****         PSTRBUFFTOGG((PNEAR_BYTE_PTR)tempbuffer, _DISPLAY_BUFFER_SIZE_);
 1714              		.loc 1 419 0
 1715 00e8 07F10C03 		add	r3, r7, #12
 1716 00ec 1846     		mov	r0, r3
 1717 00ee 1021     		movs	r1, #16
 1718 00f0 FFF7FEFF 		bl	PSTRBUFFTOGG
 420:.\DisplayUtils.c ****         uint32 datavalue = LSDBCDBUFF2HEX((PNEAR_BYTE_PTR)tempbuffer, _DISPLAY_BUFFER_SIZE_);
 1719              		.loc 1 420 0
 1720 00f4 07F10C03 		add	r3, r7, #12
 1721 00f8 1846     		mov	r0, r3
 1722 00fa 1021     		movs	r1, #16
 1723 00fc FFF7FEFF 		bl	LSDBCDBUFF2HEX
 1724 0100 3862     		str	r0, [r7, #32]
 421:.\DisplayUtils.c ****         
 422:.\DisplayUtils.c ****         I2CBusLock();
 1725              		.loc 1 422 0
 1726 0102 FFF7FEFF 		bl	I2CBusLock
 423:.\DisplayUtils.c ****         ClearEepromBuffer();
 1727              		.loc 1 423 0
 1728 0106 FFF7FEFF 		bl	ClearEepromBuffer
 424:.\DisplayUtils.c ****         LoadEepromPage(EEPROM_CONFIGURATION_PAGE6);
 1729              		.loc 1 424 0
 1730 010a 4FF4C070 		mov	r0, #384
 1731 010e FFF7FEFF 		bl	LoadEepromPage
 425:.\DisplayUtils.c ****         uint32 refvalue = LSDBCDBUFF2HEX((PNEAR_BYTE_PTR)&GetEepromBuffer()[0x00], 0x10);          
 1732              		.loc 1 425 0
 1733 0112 FFF7FEFF 		bl	GetEepromBuffer
 1734 0116 0346     		mov	r3, r0
 1735 0118 1846     		mov	r0, r3
 1736 011a 1021     		movs	r1, #16
 1737 011c FFF7FEFF 		bl	LSDBCDBUFF2HEX
 1738 0120 F861     		str	r0, [r7, #28]
 426:.\DisplayUtils.c ****         I2CBusUnlock();
 1739              		.loc 1 426 0
 1740 0122 FFF7FEFF 		bl	I2CBusUnlock
 427:.\DisplayUtils.c ****         
 428:.\DisplayUtils.c ****         if(datavalue < refvalue)
 1741              		.loc 1 428 0
 1742 0126 3A6A     		ldr	r2, [r7, #32]
 1743 0128 FB69     		ldr	r3, [r7, #28]
 1744 012a 9A42     		cmp	r2, r3
 1745 012c 02D2     		bcs	.L87
 429:.\DisplayUtils.c ****             retval = false;
 1746              		.loc 1 429 0
 1747 012e 0023     		movs	r3, #0
 1748 0130 87F82F30 		strb	r3, [r7, #47]
 1749              	.L87:
 1750              	.LBE6:
 430:.\DisplayUtils.c ****     }
 431:.\DisplayUtils.c ****     
 432:.\DisplayUtils.c ****     return retval;
 1751              		.loc 1 432 0
 1752 0134 97F82F30 		ldrb	r3, [r7, #47]	@ zero_extendqisi2
 433:.\DisplayUtils.c **** }
 1753              		.loc 1 433 0
 1754 0138 1846     		mov	r0, r3
 1755 013a 3437     		adds	r7, r7, #52


 1756              		.cfi_def_cfa_offset 12
 1757 013c BD46     		mov	sp, r7
 1758              		.cfi_def_cfa_register 13
 1759              		@ sp needed
 1760 013e 90BD     		pop	{r4, r7, pc}
 1761              		.cfi_endproc
 1762              	.LFE77:
 1763              		.size	NonEmptyVolumeValidator, .-NonEmptyVolumeValidator
 1764              		.section	.text.NonEmpty15ModuloValidator,"ax",%progbits
 1765              		.align	2
 1766              		.global	NonEmpty15ModuloValidator
 1767              		.thumb
 1768              		.thumb_func
 1769              		.type	NonEmpty15ModuloValidator, %function
 1770              	NonEmpty15ModuloValidator:
 1771              	.LFB78:
 434:.\DisplayUtils.c **** 
 435:.\DisplayUtils.c **** //@Created by: HIJH
 436:.\DisplayUtils.c **** //@Date: Septembre de 2016
 437:.\DisplayUtils.c **** //This method validates that the capture buffer for the current display
 438:.\DisplayUtils.c **** //has received a fifteen modulo value
 439:.\DisplayUtils.c **** bool NonEmpty15ModuloValidator(void *pparam)
 440:.\DisplayUtils.c **** {
 1772              		.loc 1 440 0
 1773              		.cfi_startproc
 1774              		@ args = 0, pretend = 0, frame = 40
 1775              		@ frame_needed = 1, uses_anonymous_args = 0
 1776 0000 90B5     		push	{r4, r7, lr}
 1777              		.cfi_def_cfa_offset 12
 1778              		.cfi_offset 4, -12
 1779              		.cfi_offset 7, -8
 1780              		.cfi_offset 14, -4
 1781 0002 8BB0     		sub	sp, sp, #44
 1782              		.cfi_def_cfa_offset 56
 1783 0004 00AF     		add	r7, sp, #0
 1784              		.cfi_def_cfa_register 7
 1785 0006 7860     		str	r0, [r7, #4]
 441:.\DisplayUtils.c ****     bool retval = false;
 1786              		.loc 1 441 0
 1787 0008 0023     		movs	r3, #0
 1788 000a 87F82730 		strb	r3, [r7, #39]
 442:.\DisplayUtils.c ****     char8 tempbuffer[_DISPLAY_BUFFER_SIZE_];
 443:.\DisplayUtils.c ****     DisplayLayout *pdisplay = (DisplayLayout*)pparam;
 1789              		.loc 1 443 0
 1790 000e 7B68     		ldr	r3, [r7, #4]
 1791 0010 3B62     		str	r3, [r7, #32]
 444:.\DisplayUtils.c ****     
 445:.\DisplayUtils.c ****     if(pdisplay->_bufferinfo._bufferindex > 0)
 1792              		.loc 1 445 0
 1793 0012 3B6A     		ldr	r3, [r7, #32]
 1794 0014 1B7F     		ldrb	r3, [r3, #28]	@ zero_extendqisi2
 1795 0016 002B     		cmp	r3, #0
 1796 0018 03D0     		beq	.L94
 446:.\DisplayUtils.c ****         retval = true;
 1797              		.loc 1 446 0
 1798 001a 0123     		movs	r3, #1
 1799 001c 87F82730 		strb	r3, [r7, #39]


 1800 0020 02E0     		b	.L95
 1801              	.L94:
 447:.\DisplayUtils.c ****     else
 448:.\DisplayUtils.c ****         retval = false;    
 1802              		.loc 1 448 0
 1803 0022 0023     		movs	r3, #0
 1804 0024 87F82730 		strb	r3, [r7, #39]
 1805              	.L95:
 449:.\DisplayUtils.c ****     
 450:.\DisplayUtils.c ****     if(retval)
 1806              		.loc 1 450 0
 1807 0028 97F82730 		ldrb	r3, [r7, #39]	@ zero_extendqisi2
 1808 002c 002B     		cmp	r3, #0
 1809 002e 6DD0     		beq	.L96
 1810              	.LBB7:
 451:.\DisplayUtils.c ****     {
 452:.\DisplayUtils.c ****         uint8 remplaces = _DISPLAY_BUFFER_SIZE_ - pdisplay->_bufferinfo._bufferindex;
 1811              		.loc 1 452 0
 1812 0030 3B6A     		ldr	r3, [r7, #32]
 1813 0032 1B7F     		ldrb	r3, [r3, #28]	@ zero_extendqisi2
 1814 0034 C3F11003 		rsb	r3, r3, #16
 1815 0038 FB77     		strb	r3, [r7, #31]
 453:.\DisplayUtils.c ****         memcpy(tempbuffer, pdisplay->_bufferinfo._buffer, _DISPLAY_BUFFER_SIZE_);
 1816              		.loc 1 453 0
 1817 003a 3B6A     		ldr	r3, [r7, #32]
 1818 003c 07F10804 		add	r4, r7, #8
 1819 0040 1D33     		adds	r3, r3, #29
 1820 0042 1868     		ldr	r0, [r3]	@ unaligned
 1821 0044 5968     		ldr	r1, [r3, #4]	@ unaligned
 1822 0046 9A68     		ldr	r2, [r3, #8]	@ unaligned
 1823 0048 DB68     		ldr	r3, [r3, #12]	@ unaligned
 1824 004a 0FC4     		stmia	r4!, {r0, r1, r2, r3}
 454:.\DisplayUtils.c ****         FOR(int8 index = pdisplay->_bufferinfo._bufferindex, index < _DISPLAY_BUFFER_SIZE_, index++
 1825              		.loc 1 454 0
 1826 004c 3B6A     		ldr	r3, [r7, #32]
 1827 004e 1B7F     		ldrb	r3, [r3, #28]	@ zero_extendqisi2
 1828 0050 87F82630 		strb	r3, [r7, #38]
 1829 0054 0EE0     		b	.L97
 1830              	.L98:
 455:.\DisplayUtils.c ****             tempbuffer[index] = 0x00;
 1831              		.loc 1 455 0 discriminator 3
 1832 0056 97F92630 		ldrsb	r3, [r7, #38]
 1833 005a 07F12802 		add	r2, r7, #40
 1834 005e 1344     		add	r3, r3, r2
 1835 0060 0022     		movs	r2, #0
 1836 0062 03F8202C 		strb	r2, [r3, #-32]
 454:.\DisplayUtils.c ****         FOR(int8 index = pdisplay->_bufferinfo._bufferindex, index < _DISPLAY_BUFFER_SIZE_, index++
 1837              		.loc 1 454 0 discriminator 3
 1838 0066 97F82630 		ldrb	r3, [r7, #38]	@ zero_extendqisi2
 1839 006a DBB2     		uxtb	r3, r3
 1840 006c 0133     		adds	r3, r3, #1
 1841 006e DBB2     		uxtb	r3, r3
 1842 0070 87F82630 		strb	r3, [r7, #38]
 1843              	.L97:
 454:.\DisplayUtils.c ****         FOR(int8 index = pdisplay->_bufferinfo._bufferindex, index < _DISPLAY_BUFFER_SIZE_, index++
 1844              		.loc 1 454 0 is_stmt 0 discriminator 1
 1845 0074 97F92630 		ldrsb	r3, [r7, #38]


 1846 0078 0F2B     		cmp	r3, #15
 1847 007a ECDD     		ble	.L98
 456:.\DisplayUtils.c ****         
 457:.\DisplayUtils.c ****         FOR(index = (pdisplay->_bufferinfo._bufferindex - 1), index >= 0, index--)
 1848              		.loc 1 457 0 is_stmt 1
 1849 007c 3B6A     		ldr	r3, [r7, #32]
 1850 007e 1B7F     		ldrb	r3, [r3, #28]	@ zero_extendqisi2
 1851 0080 013B     		subs	r3, r3, #1
 1852 0082 DBB2     		uxtb	r3, r3
 1853 0084 87F82630 		strb	r3, [r7, #38]
 1854 0088 21E0     		b	.L99
 1855              	.L100:
 458:.\DisplayUtils.c ****         {
 459:.\DisplayUtils.c ****             tempbuffer[index + remplaces] = tempbuffer[index] & 0x0F;
 1856              		.loc 1 459 0 discriminator 3
 1857 008a 97F92620 		ldrsb	r2, [r7, #38]
 1858 008e FB7F     		ldrb	r3, [r7, #31]	@ zero_extendqisi2
 1859 0090 1344     		add	r3, r3, r2
 1860 0092 97F92620 		ldrsb	r2, [r7, #38]
 1861 0096 07F12801 		add	r1, r7, #40
 1862 009a 0A44     		add	r2, r2, r1
 1863 009c 12F8202C 		ldrb	r2, [r2, #-32]	@ zero_extendqisi2
 1864 00a0 02F00F02 		and	r2, r2, #15
 1865 00a4 D2B2     		uxtb	r2, r2
 1866 00a6 07F12801 		add	r1, r7, #40
 1867 00aa 0B44     		add	r3, r3, r1
 1868 00ac 03F8202C 		strb	r2, [r3, #-32]
 460:.\DisplayUtils.c ****             tempbuffer[index] = 0x00;
 1869              		.loc 1 460 0 discriminator 3
 1870 00b0 97F92630 		ldrsb	r3, [r7, #38]
 1871 00b4 07F12802 		add	r2, r7, #40
 1872 00b8 1344     		add	r3, r3, r2
 1873 00ba 0022     		movs	r2, #0
 1874 00bc 03F8202C 		strb	r2, [r3, #-32]
 457:.\DisplayUtils.c ****         {
 1875              		.loc 1 457 0 discriminator 3
 1876 00c0 97F82630 		ldrb	r3, [r7, #38]	@ zero_extendqisi2
 1877 00c4 DBB2     		uxtb	r3, r3
 1878 00c6 013B     		subs	r3, r3, #1
 1879 00c8 DBB2     		uxtb	r3, r3
 1880 00ca 87F82630 		strb	r3, [r7, #38]
 1881              	.L99:
 457:.\DisplayUtils.c ****         {
 1882              		.loc 1 457 0 is_stmt 0 discriminator 1
 1883 00ce 97F92630 		ldrsb	r3, [r7, #38]
 1884 00d2 002B     		cmp	r3, #0
 1885 00d4 D9DA     		bge	.L100
 461:.\DisplayUtils.c ****         }    
 462:.\DisplayUtils.c ****         PSTRBUFFTOGG((PNEAR_BYTE_PTR)tempbuffer, _DISPLAY_BUFFER_SIZE_);
 1886              		.loc 1 462 0 is_stmt 1
 1887 00d6 07F10803 		add	r3, r7, #8
 1888 00da 1846     		mov	r0, r3
 1889 00dc 1021     		movs	r1, #16
 1890 00de FFF7FEFF 		bl	PSTRBUFFTOGG
 463:.\DisplayUtils.c ****         uint32 datavalue = LSDBCDBUFF2HEX((PNEAR_BYTE_PTR)tempbuffer, _DISPLAY_BUFFER_SIZE_);
 1891              		.loc 1 463 0
 1892 00e2 07F10803 		add	r3, r7, #8


 1893 00e6 1846     		mov	r0, r3
 1894 00e8 1021     		movs	r1, #16
 1895 00ea FFF7FEFF 		bl	LSDBCDBUFF2HEX
 1896 00ee B861     		str	r0, [r7, #24]
 464:.\DisplayUtils.c ****                 
 465:.\DisplayUtils.c ****         if((datavalue % 15) != 0)
 1897              		.loc 1 465 0
 1898 00f0 B969     		ldr	r1, [r7, #24]
 1899 00f2 094B     		ldr	r3, .L102
 1900 00f4 A3FB0123 		umull	r2, r3, r3, r1
 1901 00f8 DA08     		lsrs	r2, r3, #3
 1902 00fa 1346     		mov	r3, r2
 1903 00fc 1B01     		lsls	r3, r3, #4
 1904 00fe 9B1A     		subs	r3, r3, r2
 1905 0100 CA1A     		subs	r2, r1, r3
 1906 0102 002A     		cmp	r2, #0
 1907 0104 02D0     		beq	.L96
 466:.\DisplayUtils.c ****             retval = false;
 1908              		.loc 1 466 0
 1909 0106 0023     		movs	r3, #0
 1910 0108 87F82730 		strb	r3, [r7, #39]
 1911              	.L96:
 1912              	.LBE7:
 467:.\DisplayUtils.c ****     }
 468:.\DisplayUtils.c ****         
 469:.\DisplayUtils.c ****     return retval;
 1913              		.loc 1 469 0
 1914 010c 97F82730 		ldrb	r3, [r7, #39]	@ zero_extendqisi2
 470:.\DisplayUtils.c **** }
 1915              		.loc 1 470 0
 1916 0110 1846     		mov	r0, r3
 1917 0112 2C37     		adds	r7, r7, #44
 1918              		.cfi_def_cfa_offset 12
 1919 0114 BD46     		mov	sp, r7
 1920              		.cfi_def_cfa_register 13
 1921              		@ sp needed
 1922 0116 90BD     		pop	{r4, r7, pc}
 1923              	.L103:
 1924              		.align	2
 1925              	.L102:
 1926 0118 89888888 		.word	-2004318071
 1927              		.cfi_endproc
 1928              	.LFE78:
 1929              		.size	NonEmpty15ModuloValidator, .-NonEmpty15ModuloValidator
 1930              		.section	.text.ValidatePumpAvailability4Positions,"ax",%progbits
 1931              		.align	2
 1932              		.global	ValidatePumpAvailability4Positions
 1933              		.thumb
 1934              		.thumb_func
 1935              		.type	ValidatePumpAvailability4Positions, %function
 1936              	ValidatePumpAvailability4Positions:
 1937              	.LFB79:
 471:.\DisplayUtils.c **** 
 472:.\DisplayUtils.c **** bool ValidatePumpAvailability4Positions(void *pparam)
 473:.\DisplayUtils.c **** {
 1938              		.loc 1 473 0
 1939              		.cfi_startproc


 1940              		@ args = 0, pretend = 0, frame = 16
 1941              		@ frame_needed = 1, uses_anonymous_args = 0
 1942 0000 80B5     		push	{r7, lr}
 1943              		.cfi_def_cfa_offset 8
 1944              		.cfi_offset 7, -8
 1945              		.cfi_offset 14, -4
 1946 0002 84B0     		sub	sp, sp, #16
 1947              		.cfi_def_cfa_offset 24
 1948 0004 00AF     		add	r7, sp, #0
 1949              		.cfi_def_cfa_register 7
 1950 0006 7860     		str	r0, [r7, #4]
 474:.\DisplayUtils.c ****     bool retval = true;
 1951              		.loc 1 474 0
 1952 0008 0123     		movs	r3, #1
 1953 000a FB73     		strb	r3, [r7, #15]
 475:.\DisplayUtils.c ****     DisplayLayout *pdisplay = (DisplayLayout*)pparam;
 1954              		.loc 1 475 0
 1955 000c 7B68     		ldr	r3, [r7, #4]
 1956 000e BB60     		str	r3, [r7, #8]
 476:.\DisplayUtils.c ****     if(_g_dispenserlayoutinfo._numpositions == 0x04)
 1957              		.loc 1 476 0
 1958 0010 614B     		ldr	r3, .L126
 1959 0012 9B78     		ldrb	r3, [r3, #2]	@ zero_extendqisi2
 1960 0014 042B     		cmp	r3, #4
 1961 0016 40F0BA80 		bne	.L105
 477:.\DisplayUtils.c ****     {
 478:.\DisplayUtils.c ****         if(pdisplay->_dispid == DISPLAY1)
 1962              		.loc 1 478 0
 1963 001a BB68     		ldr	r3, [r7, #8]
 1964 001c 1B78     		ldrb	r3, [r3]	@ zero_extendqisi2
 1965 001e 002B     		cmp	r3, #0
 1966 0020 57D1     		bne	.L106
 479:.\DisplayUtils.c ****         {
 480:.\DisplayUtils.c ****             switch(pdisplay->_currscrcode)
 1967              		.loc 1 480 0
 1968 0022 BB68     		ldr	r3, [r7, #8]
 1969 0024 DB78     		ldrb	r3, [r3, #3]	@ zero_extendqisi2
 1970 0026 562B     		cmp	r3, #86
 1971 0028 02D0     		beq	.L108
 1972 002a 572B     		cmp	r3, #87
 1973 002c 1BD0     		beq	.L109
 1974 002e 3EE0     		b	.L107
 1975              	.L108:
 481:.\DisplayUtils.c ****             {
 482:.\DisplayUtils.c ****                 case POSITIONA://PUMP #1
 483:.\DisplayUtils.c ****                 retval = (((_g_pumps[0x00]._pumpstate == PUMP_IDLE) || (_g_pumps[0x00]._pumpstate =
 1976              		.loc 1 483 0
 1977 0030 5A4B     		ldr	r3, .L126+4
 1978 0032 9B78     		ldrb	r3, [r3, #2]
 1979 0034 DBB2     		uxtb	r3, r3
 1980 0036 062B     		cmp	r3, #6
 1981 0038 04D0     		beq	.L110
 1982              		.loc 1 483 0 is_stmt 0 discriminator 2
 1983 003a 584B     		ldr	r3, .L126+4
 1984 003c 9B78     		ldrb	r3, [r3, #2]
 1985 003e DBB2     		uxtb	r3, r3
 1986 0040 072B     		cmp	r3, #7


 1987 0042 09D1     		bne	.L111
 1988              	.L110:
 1989              		.loc 1 483 0 discriminator 3
 1990 0044 554B     		ldr	r3, .L126+4
 1991 0046 5B7A     		ldrb	r3, [r3, #9]
 1992 0048 DBB2     		uxtb	r3, r3
 1993 004a 83F00103 		eor	r3, r3, #1
 1994 004e DBB2     		uxtb	r3, r3
 1995 0050 002B     		cmp	r3, #0
 1996 0052 01D0     		beq	.L111
 1997              		.loc 1 483 0 discriminator 5
 1998 0054 0123     		movs	r3, #1
 1999 0056 00E0     		b	.L112
 2000              	.L111:
 2001              		.loc 1 483 0 discriminator 6
 2002 0058 0023     		movs	r3, #0
 2003              	.L112:
 2004              		.loc 1 483 0 discriminator 8
 2005 005a FB73     		strb	r3, [r7, #15]
 2006 005c FB7B     		ldrb	r3, [r7, #15]
 2007 005e 03F00103 		and	r3, r3, #1
 2008 0062 FB73     		strb	r3, [r7, #15]
 484:.\DisplayUtils.c ****                 break;
 2009              		.loc 1 484 0 is_stmt 1 discriminator 8
 2010 0064 23E0     		b	.L107
 2011              	.L109:
 485:.\DisplayUtils.c ****                 case POSITIONB://PUMP #3
 486:.\DisplayUtils.c ****                 retval = (((_g_pumps[0x02]._pumpstate == PUMP_IDLE) || (_g_pumps[0x02]._pumpstate =
 2012              		.loc 1 486 0
 2013 0066 4D4B     		ldr	r3, .L126+4
 2014 0068 03F59C53 		add	r3, r3, #4992
 2015 006c 0233     		adds	r3, r3, #2
 2016 006e 1B78     		ldrb	r3, [r3]
 2017 0070 DBB2     		uxtb	r3, r3
 2018 0072 062B     		cmp	r3, #6
 2019 0074 07D0     		beq	.L113
 2020              		.loc 1 486 0 is_stmt 0 discriminator 2
 2021 0076 494B     		ldr	r3, .L126+4
 2022 0078 03F59C53 		add	r3, r3, #4992
 2023 007c 0233     		adds	r3, r3, #2
 2024 007e 1B78     		ldrb	r3, [r3]
 2025 0080 DBB2     		uxtb	r3, r3
 2026 0082 072B     		cmp	r3, #7
 2027 0084 0CD1     		bne	.L114
 2028              	.L113:
 2029              		.loc 1 486 0 discriminator 3
 2030 0086 454B     		ldr	r3, .L126+4
 2031 0088 03F59C53 		add	r3, r3, #4992
 2032 008c 0933     		adds	r3, r3, #9
 2033 008e 1B78     		ldrb	r3, [r3]
 2034 0090 DBB2     		uxtb	r3, r3
 2035 0092 83F00103 		eor	r3, r3, #1
 2036 0096 DBB2     		uxtb	r3, r3
 2037 0098 002B     		cmp	r3, #0
 2038 009a 01D0     		beq	.L114
 2039              		.loc 1 486 0 discriminator 5
 2040 009c 0123     		movs	r3, #1


 2041 009e 00E0     		b	.L115
 2042              	.L114:
 2043              		.loc 1 486 0 discriminator 6
 2044 00a0 0023     		movs	r3, #0
 2045              	.L115:
 2046              		.loc 1 486 0 discriminator 8
 2047 00a2 FB73     		strb	r3, [r7, #15]
 2048 00a4 FB7B     		ldrb	r3, [r7, #15]
 2049 00a6 03F00103 		and	r3, r3, #1
 2050 00aa FB73     		strb	r3, [r7, #15]
 487:.\DisplayUtils.c ****                 break;
 2051              		.loc 1 487 0 is_stmt 1 discriminator 8
 2052 00ac 00BF     		nop
 2053              	.L107:
 488:.\DisplayUtils.c ****             }
 489:.\DisplayUtils.c ****             
 490:.\DisplayUtils.c ****             retval &= !FindSinkMessage(_g_printerlayout._printerportside1);
 2054              		.loc 1 490 0
 2055 00ae 3C4B     		ldr	r3, .L126+8
 2056 00b0 1B78     		ldrb	r3, [r3]	@ zero_extendqisi2
 2057 00b2 1846     		mov	r0, r3
 2058 00b4 FFF7FEFF 		bl	FindSinkMessage
 2059 00b8 0346     		mov	r3, r0
 2060 00ba 83F00103 		eor	r3, r3, #1
 2061 00be DBB2     		uxtb	r3, r3
 2062 00c0 1A46     		mov	r2, r3
 2063 00c2 FB7B     		ldrb	r3, [r7, #15]	@ zero_extendqisi2
 2064 00c4 1340     		ands	r3, r3, r2
 2065 00c6 002B     		cmp	r3, #0
 2066 00c8 14BF     		ite	ne
 2067 00ca 0123     		movne	r3, #1
 2068 00cc 0023     		moveq	r3, #0
 2069 00ce FB73     		strb	r3, [r7, #15]
 2070 00d0 5DE0     		b	.L105
 2071              	.L106:
 491:.\DisplayUtils.c ****         }
 492:.\DisplayUtils.c ****         else if(pdisplay->_dispid == DISPLAY2)
 2072              		.loc 1 492 0
 2073 00d2 BB68     		ldr	r3, [r7, #8]
 2074 00d4 1B78     		ldrb	r3, [r3]	@ zero_extendqisi2
 2075 00d6 012B     		cmp	r3, #1
 2076 00d8 59D1     		bne	.L105
 493:.\DisplayUtils.c ****         {
 494:.\DisplayUtils.c ****             switch(pdisplay->_currscrcode)
 2077              		.loc 1 494 0
 2078 00da BB68     		ldr	r3, [r7, #8]
 2079 00dc DB78     		ldrb	r3, [r3, #3]	@ zero_extendqisi2
 2080 00de 562B     		cmp	r3, #86
 2081 00e0 02D0     		beq	.L117
 2082 00e2 572B     		cmp	r3, #87
 2083 00e4 24D0     		beq	.L118
 2084 00e6 41E0     		b	.L116
 2085              	.L117:
 495:.\DisplayUtils.c ****             {
 496:.\DisplayUtils.c ****                 case POSITIONA://PUMP #4
 497:.\DisplayUtils.c ****                 retval = (((_g_pumps[0x03]._pumpstate == PUMP_IDLE) || (_g_pumps[0x03]._pumpstate =
 2086              		.loc 1 497 0


 2087 00e8 2C4B     		ldr	r3, .L126+4
 2088 00ea 03F5EA53 		add	r3, r3, #7488
 2089 00ee 0233     		adds	r3, r3, #2
 2090 00f0 1B78     		ldrb	r3, [r3]
 2091 00f2 DBB2     		uxtb	r3, r3
 2092 00f4 062B     		cmp	r3, #6
 2093 00f6 07D0     		beq	.L119
 2094              		.loc 1 497 0 is_stmt 0 discriminator 2
 2095 00f8 284B     		ldr	r3, .L126+4
 2096 00fa 03F5EA53 		add	r3, r3, #7488
 2097 00fe 0233     		adds	r3, r3, #2
 2098 0100 1B78     		ldrb	r3, [r3]
 2099 0102 DBB2     		uxtb	r3, r3
 2100 0104 072B     		cmp	r3, #7
 2101 0106 0CD1     		bne	.L120
 2102              	.L119:
 2103              		.loc 1 497 0 discriminator 3
 2104 0108 244B     		ldr	r3, .L126+4
 2105 010a 03F5EA53 		add	r3, r3, #7488
 2106 010e 0933     		adds	r3, r3, #9
 2107 0110 1B78     		ldrb	r3, [r3]
 2108 0112 DBB2     		uxtb	r3, r3
 2109 0114 83F00103 		eor	r3, r3, #1
 2110 0118 DBB2     		uxtb	r3, r3
 2111 011a 002B     		cmp	r3, #0
 2112 011c 01D0     		beq	.L120
 2113              		.loc 1 497 0 discriminator 5
 2114 011e 0123     		movs	r3, #1
 2115 0120 00E0     		b	.L121
 2116              	.L120:
 2117              		.loc 1 497 0 discriminator 6
 2118 0122 0023     		movs	r3, #0
 2119              	.L121:
 2120              		.loc 1 497 0 discriminator 8
 2121 0124 FB73     		strb	r3, [r7, #15]
 2122 0126 FB7B     		ldrb	r3, [r7, #15]
 2123 0128 03F00103 		and	r3, r3, #1
 2124 012c FB73     		strb	r3, [r7, #15]
 498:.\DisplayUtils.c ****                 break;
 2125              		.loc 1 498 0 is_stmt 1 discriminator 8
 2126 012e 1DE0     		b	.L116
 2127              	.L118:
 499:.\DisplayUtils.c ****                 case POSITIONB://PUMP #2
 500:.\DisplayUtils.c ****                 retval = (((_g_pumps[0x01]._pumpstate == PUMP_IDLE) || (_g_pumps[0x01]._pumpstate =
 2128              		.loc 1 500 0
 2129 0130 1A4B     		ldr	r3, .L126+4
 2130 0132 93F8C239 		ldrb	r3, [r3, #2498]
 2131 0136 DBB2     		uxtb	r3, r3
 2132 0138 062B     		cmp	r3, #6
 2133 013a 05D0     		beq	.L122
 2134              		.loc 1 500 0 is_stmt 0 discriminator 2
 2135 013c 174B     		ldr	r3, .L126+4
 2136 013e 93F8C239 		ldrb	r3, [r3, #2498]
 2137 0142 DBB2     		uxtb	r3, r3
 2138 0144 072B     		cmp	r3, #7
 2139 0146 0AD1     		bne	.L123
 2140              	.L122:


 2141              		.loc 1 500 0 discriminator 3
 2142 0148 144B     		ldr	r3, .L126+4
 2143 014a 93F8C939 		ldrb	r3, [r3, #2505]
 2144 014e DBB2     		uxtb	r3, r3
 2145 0150 83F00103 		eor	r3, r3, #1
 2146 0154 DBB2     		uxtb	r3, r3
 2147 0156 002B     		cmp	r3, #0
 2148 0158 01D0     		beq	.L123
 2149              		.loc 1 500 0 discriminator 5
 2150 015a 0123     		movs	r3, #1
 2151 015c 00E0     		b	.L124
 2152              	.L123:
 2153              		.loc 1 500 0 discriminator 6
 2154 015e 0023     		movs	r3, #0
 2155              	.L124:
 2156              		.loc 1 500 0 discriminator 8
 2157 0160 FB73     		strb	r3, [r7, #15]
 2158 0162 FB7B     		ldrb	r3, [r7, #15]
 2159 0164 03F00103 		and	r3, r3, #1
 2160 0168 FB73     		strb	r3, [r7, #15]
 501:.\DisplayUtils.c ****                 break;
 2161              		.loc 1 501 0 is_stmt 1 discriminator 8
 2162 016a 00BF     		nop
 2163              	.L116:
 502:.\DisplayUtils.c ****             }
 503:.\DisplayUtils.c ****             
 504:.\DisplayUtils.c ****             retval &= !FindSinkMessage(_g_printerlayout._printerportside2);
 2164              		.loc 1 504 0
 2165 016c 0C4B     		ldr	r3, .L126+8
 2166 016e 5B78     		ldrb	r3, [r3, #1]	@ zero_extendqisi2
 2167 0170 1846     		mov	r0, r3
 2168 0172 FFF7FEFF 		bl	FindSinkMessage
 2169 0176 0346     		mov	r3, r0
 2170 0178 83F00103 		eor	r3, r3, #1
 2171 017c DBB2     		uxtb	r3, r3
 2172 017e 1A46     		mov	r2, r3
 2173 0180 FB7B     		ldrb	r3, [r7, #15]	@ zero_extendqisi2
 2174 0182 1340     		ands	r3, r3, r2
 2175 0184 002B     		cmp	r3, #0
 2176 0186 14BF     		ite	ne
 2177 0188 0123     		movne	r3, #1
 2178 018a 0023     		moveq	r3, #0
 2179 018c FB73     		strb	r3, [r7, #15]
 2180              	.L105:
 505:.\DisplayUtils.c ****         }
 506:.\DisplayUtils.c ****     }
 507:.\DisplayUtils.c ****     
 508:.\DisplayUtils.c ****     return retval;
 2181              		.loc 1 508 0
 2182 018e FB7B     		ldrb	r3, [r7, #15]	@ zero_extendqisi2
 509:.\DisplayUtils.c **** }
 2183              		.loc 1 509 0
 2184 0190 1846     		mov	r0, r3
 2185 0192 1037     		adds	r7, r7, #16
 2186              		.cfi_def_cfa_offset 8
 2187 0194 BD46     		mov	sp, r7
 2188              		.cfi_def_cfa_register 13


 2189              		@ sp needed
 2190 0196 80BD     		pop	{r7, pc}
 2191              	.L127:
 2192              		.align	2
 2193              	.L126:
 2194 0198 00000000 		.word	_g_dispenserlayoutinfo
 2195 019c 00000000 		.word	_g_pumps
 2196 01a0 00000000 		.word	_g_printerlayout
 2197              		.cfi_endproc
 2198              	.LFE79:
 2199              		.size	ValidatePumpAvailability4Positions, .-ValidatePumpAvailability4Positions
 2200              		.section	.text.ValidatePumpAvailability21Positions,"ax",%progbits
 2201              		.align	2
 2202              		.global	ValidatePumpAvailability21Positions
 2203              		.thumb
 2204              		.thumb_func
 2205              		.type	ValidatePumpAvailability21Positions, %function
 2206              	ValidatePumpAvailability21Positions:
 2207              	.LFB80:
 510:.\DisplayUtils.c **** 
 511:.\DisplayUtils.c **** bool ValidatePumpAvailability21Positions(void *pparam)
 512:.\DisplayUtils.c **** {
 2208              		.loc 1 512 0
 2209              		.cfi_startproc
 2210              		@ args = 0, pretend = 0, frame = 16
 2211              		@ frame_needed = 1, uses_anonymous_args = 0
 2212 0000 80B5     		push	{r7, lr}
 2213              		.cfi_def_cfa_offset 8
 2214              		.cfi_offset 7, -8
 2215              		.cfi_offset 14, -4
 2216 0002 84B0     		sub	sp, sp, #16
 2217              		.cfi_def_cfa_offset 24
 2218 0004 00AF     		add	r7, sp, #0
 2219              		.cfi_def_cfa_register 7
 2220 0006 7860     		str	r0, [r7, #4]
 513:.\DisplayUtils.c ****     bool retval = true;
 2221              		.loc 1 513 0
 2222 0008 0123     		movs	r3, #1
 2223 000a FB73     		strb	r3, [r7, #15]
 514:.\DisplayUtils.c ****     DisplayLayout *pdisplay = (DisplayLayout*)pparam;
 2224              		.loc 1 514 0
 2225 000c 7B68     		ldr	r3, [r7, #4]
 2226 000e BB60     		str	r3, [r7, #8]
 515:.\DisplayUtils.c ****     if(_g_dispenserlayoutinfo._numpositions == 0x02)
 2227              		.loc 1 515 0
 2228 0010 4F4B     		ldr	r3, .L143
 2229 0012 9B78     		ldrb	r3, [r3, #2]	@ zero_extendqisi2
 2230 0014 022B     		cmp	r3, #2
 2231 0016 62D1     		bne	.L129
 516:.\DisplayUtils.c ****     {
 517:.\DisplayUtils.c ****         if(pdisplay->_dispid == DISPLAY1)
 2232              		.loc 1 517 0
 2233 0018 BB68     		ldr	r3, [r7, #8]
 2234 001a 1B78     		ldrb	r3, [r3]	@ zero_extendqisi2
 2235 001c 002B     		cmp	r3, #0
 2236 001e 2BD1     		bne	.L130
 518:.\DisplayUtils.c ****         {


 519:.\DisplayUtils.c ****             retval = (((_g_pumps[0x00]._pumpstate == PUMP_IDLE) || (_g_pumps[0x00]._pumpstate == PU
 2237              		.loc 1 519 0
 2238 0020 4C4B     		ldr	r3, .L143+4
 2239 0022 9B78     		ldrb	r3, [r3, #2]
 2240 0024 DBB2     		uxtb	r3, r3
 2241 0026 062B     		cmp	r3, #6
 2242 0028 04D0     		beq	.L131
 2243              		.loc 1 519 0 is_stmt 0 discriminator 2
 2244 002a 4A4B     		ldr	r3, .L143+4
 2245 002c 9B78     		ldrb	r3, [r3, #2]
 2246 002e DBB2     		uxtb	r3, r3
 2247 0030 072B     		cmp	r3, #7
 2248 0032 09D1     		bne	.L132
 2249              	.L131:
 2250              		.loc 1 519 0 discriminator 3
 2251 0034 474B     		ldr	r3, .L143+4
 2252 0036 5B7A     		ldrb	r3, [r3, #9]
 2253 0038 DBB2     		uxtb	r3, r3
 2254 003a 83F00103 		eor	r3, r3, #1
 2255 003e DBB2     		uxtb	r3, r3
 2256 0040 002B     		cmp	r3, #0
 2257 0042 01D0     		beq	.L132
 2258              		.loc 1 519 0 discriminator 5
 2259 0044 0123     		movs	r3, #1
 2260 0046 00E0     		b	.L133
 2261              	.L132:
 2262              		.loc 1 519 0 discriminator 6
 2263 0048 0023     		movs	r3, #0
 2264              	.L133:
 2265              		.loc 1 519 0 discriminator 8
 2266 004a FB73     		strb	r3, [r7, #15]
 2267 004c FB7B     		ldrb	r3, [r7, #15]
 2268 004e 03F00103 		and	r3, r3, #1
 2269 0052 FB73     		strb	r3, [r7, #15]
 520:.\DisplayUtils.c ****             retval &= !FindSinkMessage(_g_printerlayout._printerportside1);
 2270              		.loc 1 520 0 is_stmt 1 discriminator 8
 2271 0054 404B     		ldr	r3, .L143+8
 2272 0056 1B78     		ldrb	r3, [r3]	@ zero_extendqisi2
 2273 0058 1846     		mov	r0, r3
 2274 005a FFF7FEFF 		bl	FindSinkMessage
 2275 005e 0346     		mov	r3, r0
 2276 0060 83F00103 		eor	r3, r3, #1
 2277 0064 DBB2     		uxtb	r3, r3
 2278 0066 1A46     		mov	r2, r3
 2279 0068 FB7B     		ldrb	r3, [r7, #15]	@ zero_extendqisi2
 2280 006a 1340     		ands	r3, r3, r2
 2281 006c 002B     		cmp	r3, #0
 2282 006e 14BF     		ite	ne
 2283 0070 0123     		movne	r3, #1
 2284 0072 0023     		moveq	r3, #0
 2285 0074 FB73     		strb	r3, [r7, #15]
 2286 0076 65E0     		b	.L138
 2287              	.L130:
 521:.\DisplayUtils.c ****         }
 522:.\DisplayUtils.c ****         else if(pdisplay->_dispid == DISPLAY2)
 2288              		.loc 1 522 0
 2289 0078 BB68     		ldr	r3, [r7, #8]


 2290 007a 1B78     		ldrb	r3, [r3]	@ zero_extendqisi2
 2291 007c 012B     		cmp	r3, #1
 2292 007e 61D1     		bne	.L138
 523:.\DisplayUtils.c ****         {
 524:.\DisplayUtils.c ****             retval = (((_g_pumps[0x01]._pumpstate == PUMP_IDLE) || (_g_pumps[0x01]._pumpstate == PU
 2293              		.loc 1 524 0
 2294 0080 344B     		ldr	r3, .L143+4
 2295 0082 93F8C239 		ldrb	r3, [r3, #2498]
 2296 0086 DBB2     		uxtb	r3, r3
 2297 0088 062B     		cmp	r3, #6
 2298 008a 05D0     		beq	.L135
 2299              		.loc 1 524 0 is_stmt 0 discriminator 2
 2300 008c 314B     		ldr	r3, .L143+4
 2301 008e 93F8C239 		ldrb	r3, [r3, #2498]
 2302 0092 DBB2     		uxtb	r3, r3
 2303 0094 072B     		cmp	r3, #7
 2304 0096 0AD1     		bne	.L136
 2305              	.L135:
 2306              		.loc 1 524 0 discriminator 3
 2307 0098 2E4B     		ldr	r3, .L143+4
 2308 009a 93F8C939 		ldrb	r3, [r3, #2505]
 2309 009e DBB2     		uxtb	r3, r3
 2310 00a0 83F00103 		eor	r3, r3, #1
 2311 00a4 DBB2     		uxtb	r3, r3
 2312 00a6 002B     		cmp	r3, #0
 2313 00a8 01D0     		beq	.L136
 2314              		.loc 1 524 0 discriminator 5
 2315 00aa 0123     		movs	r3, #1
 2316 00ac 00E0     		b	.L137
 2317              	.L136:
 2318              		.loc 1 524 0 discriminator 6
 2319 00ae 0023     		movs	r3, #0
 2320              	.L137:
 2321              		.loc 1 524 0 discriminator 8
 2322 00b0 FB73     		strb	r3, [r7, #15]
 2323 00b2 FB7B     		ldrb	r3, [r7, #15]
 2324 00b4 03F00103 		and	r3, r3, #1
 2325 00b8 FB73     		strb	r3, [r7, #15]
 525:.\DisplayUtils.c ****             retval &= !FindSinkMessage(_g_printerlayout._printerportside2);
 2326              		.loc 1 525 0 is_stmt 1 discriminator 8
 2327 00ba 274B     		ldr	r3, .L143+8
 2328 00bc 5B78     		ldrb	r3, [r3, #1]	@ zero_extendqisi2
 2329 00be 1846     		mov	r0, r3
 2330 00c0 FFF7FEFF 		bl	FindSinkMessage
 2331 00c4 0346     		mov	r3, r0
 2332 00c6 83F00103 		eor	r3, r3, #1
 2333 00ca DBB2     		uxtb	r3, r3
 2334 00cc 1A46     		mov	r2, r3
 2335 00ce FB7B     		ldrb	r3, [r7, #15]	@ zero_extendqisi2
 2336 00d0 1340     		ands	r3, r3, r2
 2337 00d2 002B     		cmp	r3, #0
 2338 00d4 14BF     		ite	ne
 2339 00d6 0123     		movne	r3, #1
 2340 00d8 0023     		moveq	r3, #0
 2341 00da FB73     		strb	r3, [r7, #15]
 2342 00dc 32E0     		b	.L138
 2343              	.L129:


 526:.\DisplayUtils.c ****         }
 527:.\DisplayUtils.c ****     }
 528:.\DisplayUtils.c ****     else if(_g_dispenserlayoutinfo._numpositions == 0x01)
 2344              		.loc 1 528 0
 2345 00de 1C4B     		ldr	r3, .L143
 2346 00e0 9B78     		ldrb	r3, [r3, #2]	@ zero_extendqisi2
 2347 00e2 012B     		cmp	r3, #1
 2348 00e4 2ED1     		bne	.L138
 529:.\DisplayUtils.c ****     {
 530:.\DisplayUtils.c ****         if(pdisplay->_dispid == DISPLAY1)
 2349              		.loc 1 530 0
 2350 00e6 BB68     		ldr	r3, [r7, #8]
 2351 00e8 1B78     		ldrb	r3, [r3]	@ zero_extendqisi2
 2352 00ea 002B     		cmp	r3, #0
 2353 00ec 2AD1     		bne	.L138
 531:.\DisplayUtils.c ****         {
 532:.\DisplayUtils.c ****             retval = (((_g_pumps[0x00]._pumpstate == PUMP_IDLE) || (_g_pumps[0x00]._pumpstate == PU
 2354              		.loc 1 532 0
 2355 00ee 194B     		ldr	r3, .L143+4
 2356 00f0 9B78     		ldrb	r3, [r3, #2]
 2357 00f2 DBB2     		uxtb	r3, r3
 2358 00f4 062B     		cmp	r3, #6
 2359 00f6 04D0     		beq	.L139
 2360              		.loc 1 532 0 is_stmt 0 discriminator 2
 2361 00f8 164B     		ldr	r3, .L143+4
 2362 00fa 9B78     		ldrb	r3, [r3, #2]
 2363 00fc DBB2     		uxtb	r3, r3
 2364 00fe 072B     		cmp	r3, #7
 2365 0100 09D1     		bne	.L140
 2366              	.L139:
 2367              		.loc 1 532 0 discriminator 3
 2368 0102 144B     		ldr	r3, .L143+4
 2369 0104 5B7A     		ldrb	r3, [r3, #9]
 2370 0106 DBB2     		uxtb	r3, r3
 2371 0108 83F00103 		eor	r3, r3, #1
 2372 010c DBB2     		uxtb	r3, r3
 2373 010e 002B     		cmp	r3, #0
 2374 0110 01D0     		beq	.L140
 2375              		.loc 1 532 0 discriminator 5
 2376 0112 0123     		movs	r3, #1
 2377 0114 00E0     		b	.L141
 2378              	.L140:
 2379              		.loc 1 532 0 discriminator 6
 2380 0116 0023     		movs	r3, #0
 2381              	.L141:
 2382              		.loc 1 532 0 discriminator 8
 2383 0118 FB73     		strb	r3, [r7, #15]
 2384 011a FB7B     		ldrb	r3, [r7, #15]
 2385 011c 03F00103 		and	r3, r3, #1
 2386 0120 FB73     		strb	r3, [r7, #15]
 533:.\DisplayUtils.c ****             retval &= !FindSinkMessage(_g_printerlayout._printerportside1);
 2387              		.loc 1 533 0 is_stmt 1 discriminator 8
 2388 0122 0D4B     		ldr	r3, .L143+8
 2389 0124 1B78     		ldrb	r3, [r3]	@ zero_extendqisi2
 2390 0126 1846     		mov	r0, r3
 2391 0128 FFF7FEFF 		bl	FindSinkMessage
 2392 012c 0346     		mov	r3, r0


 2393 012e 83F00103 		eor	r3, r3, #1
 2394 0132 DBB2     		uxtb	r3, r3
 2395 0134 1A46     		mov	r2, r3
 2396 0136 FB7B     		ldrb	r3, [r7, #15]	@ zero_extendqisi2
 2397 0138 1340     		ands	r3, r3, r2
 2398 013a 002B     		cmp	r3, #0
 2399 013c 14BF     		ite	ne
 2400 013e 0123     		movne	r3, #1
 2401 0140 0023     		moveq	r3, #0
 2402 0142 FB73     		strb	r3, [r7, #15]
 2403              	.L138:
 534:.\DisplayUtils.c ****         }
 535:.\DisplayUtils.c ****     }
 536:.\DisplayUtils.c ****     
 537:.\DisplayUtils.c ****     return retval;
 2404              		.loc 1 537 0
 2405 0144 FB7B     		ldrb	r3, [r7, #15]	@ zero_extendqisi2
 538:.\DisplayUtils.c **** }
 2406              		.loc 1 538 0
 2407 0146 1846     		mov	r0, r3
 2408 0148 1037     		adds	r7, r7, #16
 2409              		.cfi_def_cfa_offset 8
 2410 014a BD46     		mov	sp, r7
 2411              		.cfi_def_cfa_register 13
 2412              		@ sp needed
 2413 014c 80BD     		pop	{r7, pc}
 2414              	.L144:
 2415 014e 00BF     		.align	2
 2416              	.L143:
 2417 0150 00000000 		.word	_g_dispenserlayoutinfo
 2418 0154 00000000 		.word	_g_pumps
 2419 0158 00000000 		.word	_g_printerlayout
 2420              		.cfi_endproc
 2421              	.LFE80:
 2422              		.size	ValidatePumpAvailability21Positions, .-ValidatePumpAvailability21Positions
 2423              		.section	.text.GetPumpsAvailability,"ax",%progbits
 2424              		.align	2
 2425              		.global	GetPumpsAvailability
 2426              		.thumb
 2427              		.thumb_func
 2428              		.type	GetPumpsAvailability, %function
 2429              	GetPumpsAvailability:
 2430              	.LFB81:
 539:.\DisplayUtils.c **** 
 540:.\DisplayUtils.c **** void GetPumpsAvailability(void *pparam, uint8 *pvalues)
 541:.\DisplayUtils.c **** {
 2431              		.loc 1 541 0
 2432              		.cfi_startproc
 2433              		@ args = 0, pretend = 0, frame = 16
 2434              		@ frame_needed = 1, uses_anonymous_args = 0
 2435              		@ link register save eliminated.
 2436 0000 80B4     		push	{r7}
 2437              		.cfi_def_cfa_offset 4
 2438              		.cfi_offset 7, -4
 2439 0002 85B0     		sub	sp, sp, #20
 2440              		.cfi_def_cfa_offset 24
 2441 0004 00AF     		add	r7, sp, #0


 2442              		.cfi_def_cfa_register 7
 2443 0006 7860     		str	r0, [r7, #4]
 2444 0008 3960     		str	r1, [r7]
 542:.\DisplayUtils.c ****     DisplayLayout *pdisplay = (DisplayLayout*)pparam;
 2445              		.loc 1 542 0
 2446 000a 7B68     		ldr	r3, [r7, #4]
 2447 000c FB60     		str	r3, [r7, #12]
 543:.\DisplayUtils.c ****     if(_g_dispenserlayoutinfo._numpositions == 0x04)
 2448              		.loc 1 543 0
 2449 000e 9D4B     		ldr	r3, .L183
 2450 0010 9B78     		ldrb	r3, [r3, #2]	@ zero_extendqisi2
 2451 0012 042B     		cmp	r3, #4
 2452 0014 40F08280 		bne	.L146
 544:.\DisplayUtils.c ****     {
 545:.\DisplayUtils.c ****         if(pdisplay->_dispid == DISPLAY1)
 2453              		.loc 1 545 0
 2454 0018 FB68     		ldr	r3, [r7, #12]
 2455 001a 1B78     		ldrb	r3, [r3]	@ zero_extendqisi2
 2456 001c 002B     		cmp	r3, #0
 2457 001e 3AD1     		bne	.L147
 546:.\DisplayUtils.c ****         {
 547:.\DisplayUtils.c ****             pvalues[0x00] = (((_g_pumps[0x00]._pumpstate == PUMP_IDLE) || (_g_pumps[0x00]._pumpstat
 2458              		.loc 1 547 0
 2459 0020 994B     		ldr	r3, .L183+4
 2460 0022 9B78     		ldrb	r3, [r3, #2]
 2461 0024 DBB2     		uxtb	r3, r3
 2462 0026 062B     		cmp	r3, #6
 2463 0028 04D0     		beq	.L148
 2464              		.loc 1 547 0 is_stmt 0 discriminator 2
 2465 002a 974B     		ldr	r3, .L183+4
 2466 002c 9B78     		ldrb	r3, [r3, #2]
 2467 002e DBB2     		uxtb	r3, r3
 2468 0030 072B     		cmp	r3, #7
 2469 0032 09D1     		bne	.L149
 2470              	.L148:
 2471              		.loc 1 547 0 discriminator 3
 2472 0034 944B     		ldr	r3, .L183+4
 2473 0036 5B7A     		ldrb	r3, [r3, #9]
 2474 0038 DBB2     		uxtb	r3, r3
 2475 003a 83F00103 		eor	r3, r3, #1
 2476 003e DBB2     		uxtb	r3, r3
 2477 0040 002B     		cmp	r3, #0
 2478 0042 01D0     		beq	.L149
 2479              		.loc 1 547 0 discriminator 5
 2480 0044 0123     		movs	r3, #1
 2481 0046 00E0     		b	.L150
 2482              	.L149:
 2483              		.loc 1 547 0 discriminator 6
 2484 0048 0023     		movs	r3, #0
 2485              	.L150:
 2486              		.loc 1 547 0 discriminator 8
 2487 004a DAB2     		uxtb	r2, r3
 2488 004c 3B68     		ldr	r3, [r7]
 2489 004e 1A70     		strb	r2, [r3]
 548:.\DisplayUtils.c ****             pvalues[0x01] = (((_g_pumps[0x02]._pumpstate == PUMP_IDLE) || (_g_pumps[0x02]._pumpstat
 2490              		.loc 1 548 0 is_stmt 1 discriminator 8
 2491 0050 3B68     		ldr	r3, [r7]


 2492 0052 5A1C     		adds	r2, r3, #1
 2493 0054 8C4B     		ldr	r3, .L183+4
 2494 0056 03F59C53 		add	r3, r3, #4992
 2495 005a 0233     		adds	r3, r3, #2
 2496 005c 1B78     		ldrb	r3, [r3]
 2497 005e DBB2     		uxtb	r3, r3
 2498 0060 062B     		cmp	r3, #6
 2499 0062 07D0     		beq	.L151
 2500              		.loc 1 548 0 is_stmt 0 discriminator 2
 2501 0064 884B     		ldr	r3, .L183+4
 2502 0066 03F59C53 		add	r3, r3, #4992
 2503 006a 0233     		adds	r3, r3, #2
 2504 006c 1B78     		ldrb	r3, [r3]
 2505 006e DBB2     		uxtb	r3, r3
 2506 0070 072B     		cmp	r3, #7
 2507 0072 0CD1     		bne	.L152
 2508              	.L151:
 2509              		.loc 1 548 0 discriminator 3
 2510 0074 844B     		ldr	r3, .L183+4
 2511 0076 03F59C53 		add	r3, r3, #4992
 2512 007a 0933     		adds	r3, r3, #9
 2513 007c 1B78     		ldrb	r3, [r3]
 2514 007e DBB2     		uxtb	r3, r3
 2515 0080 83F00103 		eor	r3, r3, #1
 2516 0084 DBB2     		uxtb	r3, r3
 2517 0086 002B     		cmp	r3, #0
 2518 0088 01D0     		beq	.L152
 2519              		.loc 1 548 0 discriminator 5
 2520 008a 0123     		movs	r3, #1
 2521 008c 00E0     		b	.L153
 2522              	.L152:
 2523              		.loc 1 548 0 discriminator 6
 2524 008e 0023     		movs	r3, #0
 2525              	.L153:
 2526              		.loc 1 548 0 discriminator 8
 2527 0090 DBB2     		uxtb	r3, r3
 2528 0092 1370     		strb	r3, [r2]
 2529 0094 F1E0     		b	.L145
 2530              	.L147:
 549:.\DisplayUtils.c ****             
 550:.\DisplayUtils.c ****         }
 551:.\DisplayUtils.c ****         else if(pdisplay->_dispid == DISPLAY2)
 2531              		.loc 1 551 0 is_stmt 1
 2532 0096 FB68     		ldr	r3, [r7, #12]
 2533 0098 1B78     		ldrb	r3, [r3]	@ zero_extendqisi2
 2534 009a 012B     		cmp	r3, #1
 2535 009c 40F0ED80 		bne	.L145
 552:.\DisplayUtils.c ****         {
 553:.\DisplayUtils.c ****             pvalues[0x00] = (((_g_pumps[0x03]._pumpstate == PUMP_IDLE) || (_g_pumps[0x03]._pumpstat
 2536              		.loc 1 553 0
 2537 00a0 794B     		ldr	r3, .L183+4
 2538 00a2 03F5EA53 		add	r3, r3, #7488
 2539 00a6 0233     		adds	r3, r3, #2
 2540 00a8 1B78     		ldrb	r3, [r3]
 2541 00aa DBB2     		uxtb	r3, r3
 2542 00ac 062B     		cmp	r3, #6
 2543 00ae 07D0     		beq	.L155


 2544              		.loc 1 553 0 is_stmt 0 discriminator 2
 2545 00b0 754B     		ldr	r3, .L183+4
 2546 00b2 03F5EA53 		add	r3, r3, #7488
 2547 00b6 0233     		adds	r3, r3, #2
 2548 00b8 1B78     		ldrb	r3, [r3]
 2549 00ba DBB2     		uxtb	r3, r3
 2550 00bc 072B     		cmp	r3, #7
 2551 00be 0CD1     		bne	.L156
 2552              	.L155:
 2553              		.loc 1 553 0 discriminator 3
 2554 00c0 714B     		ldr	r3, .L183+4
 2555 00c2 03F5EA53 		add	r3, r3, #7488
 2556 00c6 0933     		adds	r3, r3, #9
 2557 00c8 1B78     		ldrb	r3, [r3]
 2558 00ca DBB2     		uxtb	r3, r3
 2559 00cc 83F00103 		eor	r3, r3, #1
 2560 00d0 DBB2     		uxtb	r3, r3
 2561 00d2 002B     		cmp	r3, #0
 2562 00d4 01D0     		beq	.L156
 2563              		.loc 1 553 0 discriminator 5
 2564 00d6 0123     		movs	r3, #1
 2565 00d8 00E0     		b	.L157
 2566              	.L156:
 2567              		.loc 1 553 0 discriminator 6
 2568 00da 0023     		movs	r3, #0
 2569              	.L157:
 2570              		.loc 1 553 0 discriminator 8
 2571 00dc DAB2     		uxtb	r2, r3
 2572 00de 3B68     		ldr	r3, [r7]
 2573 00e0 1A70     		strb	r2, [r3]
 554:.\DisplayUtils.c ****             pvalues[0x01] = (((_g_pumps[0x01]._pumpstate == PUMP_IDLE) || (_g_pumps[0x01]._pumpstat
 2574              		.loc 1 554 0 is_stmt 1 discriminator 8
 2575 00e2 3B68     		ldr	r3, [r7]
 2576 00e4 0133     		adds	r3, r3, #1
 2577 00e6 684A     		ldr	r2, .L183+4
 2578 00e8 92F8C229 		ldrb	r2, [r2, #2498]
 2579 00ec D2B2     		uxtb	r2, r2
 2580 00ee 062A     		cmp	r2, #6
 2581 00f0 05D0     		beq	.L158
 2582              		.loc 1 554 0 is_stmt 0 discriminator 2
 2583 00f2 654A     		ldr	r2, .L183+4
 2584 00f4 92F8C229 		ldrb	r2, [r2, #2498]
 2585 00f8 D2B2     		uxtb	r2, r2
 2586 00fa 072A     		cmp	r2, #7
 2587 00fc 0AD1     		bne	.L159
 2588              	.L158:
 2589              		.loc 1 554 0 discriminator 3
 2590 00fe 624A     		ldr	r2, .L183+4
 2591 0100 92F8C929 		ldrb	r2, [r2, #2505]
 2592 0104 D2B2     		uxtb	r2, r2
 2593 0106 82F00102 		eor	r2, r2, #1
 2594 010a D2B2     		uxtb	r2, r2
 2595 010c 002A     		cmp	r2, #0
 2596 010e 01D0     		beq	.L159
 2597              		.loc 1 554 0 discriminator 5
 2598 0110 0122     		movs	r2, #1
 2599 0112 00E0     		b	.L160


 2600              	.L159:
 2601              		.loc 1 554 0 discriminator 6
 2602 0114 0022     		movs	r2, #0
 2603              	.L160:
 2604              		.loc 1 554 0 discriminator 8
 2605 0116 D2B2     		uxtb	r2, r2
 2606 0118 1A70     		strb	r2, [r3]
 2607 011a AEE0     		b	.L145
 2608              	.L146:
 555:.\DisplayUtils.c ****             
 556:.\DisplayUtils.c ****         }
 557:.\DisplayUtils.c ****     }
 558:.\DisplayUtils.c ****     else if(_g_dispenserlayoutinfo._numpositions == 0x02)
 2609              		.loc 1 558 0 is_stmt 1
 2610 011c 594B     		ldr	r3, .L183
 2611 011e 9B78     		ldrb	r3, [r3, #2]	@ zero_extendqisi2
 2612 0120 022B     		cmp	r3, #2
 2613 0122 71D1     		bne	.L162
 559:.\DisplayUtils.c ****     {
 560:.\DisplayUtils.c ****         if(pdisplay->_dispid == DISPLAY1)
 2614              		.loc 1 560 0
 2615 0124 FB68     		ldr	r3, [r7, #12]
 2616 0126 1B78     		ldrb	r3, [r3]	@ zero_extendqisi2
 2617 0128 002B     		cmp	r3, #0
 2618 012a 31D1     		bne	.L163
 561:.\DisplayUtils.c ****         {
 562:.\DisplayUtils.c ****             pvalues[0x00] = (((_g_pumps[0x00]._pumpstate == PUMP_IDLE) || (_g_pumps[0x00]._pumpstat
 2619              		.loc 1 562 0
 2620 012c 564B     		ldr	r3, .L183+4
 2621 012e 9B78     		ldrb	r3, [r3, #2]
 2622 0130 DBB2     		uxtb	r3, r3
 2623 0132 062B     		cmp	r3, #6
 2624 0134 04D0     		beq	.L164
 2625              		.loc 1 562 0 is_stmt 0 discriminator 2
 2626 0136 544B     		ldr	r3, .L183+4
 2627 0138 9B78     		ldrb	r3, [r3, #2]
 2628 013a DBB2     		uxtb	r3, r3
 2629 013c 072B     		cmp	r3, #7
 2630 013e 09D1     		bne	.L165
 2631              	.L164:
 2632              		.loc 1 562 0 discriminator 3
 2633 0140 514B     		ldr	r3, .L183+4
 2634 0142 5B7A     		ldrb	r3, [r3, #9]
 2635 0144 DBB2     		uxtb	r3, r3
 2636 0146 83F00103 		eor	r3, r3, #1
 2637 014a DBB2     		uxtb	r3, r3
 2638 014c 002B     		cmp	r3, #0
 2639 014e 01D0     		beq	.L165
 2640              		.loc 1 562 0 discriminator 5
 2641 0150 0123     		movs	r3, #1
 2642 0152 00E0     		b	.L166
 2643              	.L165:
 2644              		.loc 1 562 0 discriminator 6
 2645 0154 0023     		movs	r3, #0
 2646              	.L166:
 2647              		.loc 1 562 0 discriminator 8
 2648 0156 DAB2     		uxtb	r2, r3


 2649 0158 3B68     		ldr	r3, [r7]
 2650 015a 1A70     		strb	r2, [r3]
 563:.\DisplayUtils.c ****             pvalues[0x01] = (((_g_pumps[0x00]._pumpstate == PUMP_IDLE) || (_g_pumps[0x00]._pumpstat
 2651              		.loc 1 563 0 is_stmt 1 discriminator 8
 2652 015c 3B68     		ldr	r3, [r7]
 2653 015e 0133     		adds	r3, r3, #1
 2654 0160 494A     		ldr	r2, .L183+4
 2655 0162 9278     		ldrb	r2, [r2, #2]
 2656 0164 D2B2     		uxtb	r2, r2
 2657 0166 062A     		cmp	r2, #6
 2658 0168 04D0     		beq	.L167
 2659              		.loc 1 563 0 is_stmt 0 discriminator 2
 2660 016a 474A     		ldr	r2, .L183+4
 2661 016c 9278     		ldrb	r2, [r2, #2]
 2662 016e D2B2     		uxtb	r2, r2
 2663 0170 072A     		cmp	r2, #7
 2664 0172 09D1     		bne	.L168
 2665              	.L167:
 2666              		.loc 1 563 0 discriminator 3
 2667 0174 444A     		ldr	r2, .L183+4
 2668 0176 527A     		ldrb	r2, [r2, #9]
 2669 0178 D2B2     		uxtb	r2, r2
 2670 017a 82F00102 		eor	r2, r2, #1
 2671 017e D2B2     		uxtb	r2, r2
 2672 0180 002A     		cmp	r2, #0
 2673 0182 01D0     		beq	.L168
 2674              		.loc 1 563 0 discriminator 5
 2675 0184 0122     		movs	r2, #1
 2676 0186 00E0     		b	.L169
 2677              	.L168:
 2678              		.loc 1 563 0 discriminator 6
 2679 0188 0022     		movs	r2, #0
 2680              	.L169:
 2681              		.loc 1 563 0 discriminator 8
 2682 018a D2B2     		uxtb	r2, r2
 2683 018c 1A70     		strb	r2, [r3]
 2684 018e 74E0     		b	.L145
 2685              	.L163:
 564:.\DisplayUtils.c ****             
 565:.\DisplayUtils.c ****         }
 566:.\DisplayUtils.c ****         else if(pdisplay->_dispid == DISPLAY2)
 2686              		.loc 1 566 0 is_stmt 1
 2687 0190 FB68     		ldr	r3, [r7, #12]
 2688 0192 1B78     		ldrb	r3, [r3]	@ zero_extendqisi2
 2689 0194 012B     		cmp	r3, #1
 2690 0196 70D1     		bne	.L145
 567:.\DisplayUtils.c ****         {
 568:.\DisplayUtils.c ****             pvalues[0x00] = (((_g_pumps[0x01]._pumpstate == PUMP_IDLE) || (_g_pumps[0x01]._pumpstat
 2691              		.loc 1 568 0
 2692 0198 3B4B     		ldr	r3, .L183+4
 2693 019a 93F8C239 		ldrb	r3, [r3, #2498]
 2694 019e DBB2     		uxtb	r3, r3
 2695 01a0 062B     		cmp	r3, #6
 2696 01a2 05D0     		beq	.L171
 2697              		.loc 1 568 0 is_stmt 0 discriminator 2
 2698 01a4 384B     		ldr	r3, .L183+4
 2699 01a6 93F8C239 		ldrb	r3, [r3, #2498]


 2700 01aa DBB2     		uxtb	r3, r3
 2701 01ac 072B     		cmp	r3, #7
 2702 01ae 0AD1     		bne	.L172
 2703              	.L171:
 2704              		.loc 1 568 0 discriminator 3
 2705 01b0 354B     		ldr	r3, .L183+4
 2706 01b2 93F8C939 		ldrb	r3, [r3, #2505]
 2707 01b6 DBB2     		uxtb	r3, r3
 2708 01b8 83F00103 		eor	r3, r3, #1
 2709 01bc DBB2     		uxtb	r3, r3
 2710 01be 002B     		cmp	r3, #0
 2711 01c0 01D0     		beq	.L172
 2712              		.loc 1 568 0 discriminator 5
 2713 01c2 0123     		movs	r3, #1
 2714 01c4 00E0     		b	.L173
 2715              	.L172:
 2716              		.loc 1 568 0 discriminator 6
 2717 01c6 0023     		movs	r3, #0
 2718              	.L173:
 2719              		.loc 1 568 0 discriminator 8
 2720 01c8 DAB2     		uxtb	r2, r3
 2721 01ca 3B68     		ldr	r3, [r7]
 2722 01cc 1A70     		strb	r2, [r3]
 569:.\DisplayUtils.c ****             pvalues[0x01] = (((_g_pumps[0x01]._pumpstate == PUMP_IDLE) || (_g_pumps[0x01]._pumpstat
 2723              		.loc 1 569 0 is_stmt 1 discriminator 8
 2724 01ce 3B68     		ldr	r3, [r7]
 2725 01d0 0133     		adds	r3, r3, #1
 2726 01d2 2D4A     		ldr	r2, .L183+4
 2727 01d4 92F8C229 		ldrb	r2, [r2, #2498]
 2728 01d8 D2B2     		uxtb	r2, r2
 2729 01da 062A     		cmp	r2, #6
 2730 01dc 05D0     		beq	.L174
 2731              		.loc 1 569 0 is_stmt 0 discriminator 2
 2732 01de 2A4A     		ldr	r2, .L183+4
 2733 01e0 92F8C229 		ldrb	r2, [r2, #2498]
 2734 01e4 D2B2     		uxtb	r2, r2
 2735 01e6 072A     		cmp	r2, #7
 2736 01e8 0AD1     		bne	.L175
 2737              	.L174:
 2738              		.loc 1 569 0 discriminator 3
 2739 01ea 274A     		ldr	r2, .L183+4
 2740 01ec 92F8C929 		ldrb	r2, [r2, #2505]
 2741 01f0 D2B2     		uxtb	r2, r2
 2742 01f2 82F00102 		eor	r2, r2, #1
 2743 01f6 D2B2     		uxtb	r2, r2
 2744 01f8 002A     		cmp	r2, #0
 2745 01fa 01D0     		beq	.L175
 2746              		.loc 1 569 0 discriminator 5
 2747 01fc 0122     		movs	r2, #1
 2748 01fe 00E0     		b	.L176
 2749              	.L175:
 2750              		.loc 1 569 0 discriminator 6
 2751 0200 0022     		movs	r2, #0
 2752              	.L176:
 2753              		.loc 1 569 0 discriminator 8
 2754 0202 D2B2     		uxtb	r2, r2
 2755 0204 1A70     		strb	r2, [r3]


 2756 0206 38E0     		b	.L145
 2757              	.L162:
 570:.\DisplayUtils.c ****             
 571:.\DisplayUtils.c ****         }
 572:.\DisplayUtils.c ****     }
 573:.\DisplayUtils.c ****     else if(_g_dispenserlayoutinfo._numpositions == 0x01)
 2758              		.loc 1 573 0 is_stmt 1
 2759 0208 1E4B     		ldr	r3, .L183
 2760 020a 9B78     		ldrb	r3, [r3, #2]	@ zero_extendqisi2
 2761 020c 012B     		cmp	r3, #1
 2762 020e 34D1     		bne	.L145
 574:.\DisplayUtils.c ****     {
 575:.\DisplayUtils.c ****         if(pdisplay->_dispid == DISPLAY1)
 2763              		.loc 1 575 0
 2764 0210 FB68     		ldr	r3, [r7, #12]
 2765 0212 1B78     		ldrb	r3, [r3]	@ zero_extendqisi2
 2766 0214 002B     		cmp	r3, #0
 2767 0216 30D1     		bne	.L145
 576:.\DisplayUtils.c ****         {
 577:.\DisplayUtils.c ****             pvalues[0x00] = (((_g_pumps[0x00]._pumpstate == PUMP_IDLE) || (_g_pumps[0x00]._pumpstat
 2768              		.loc 1 577 0
 2769 0218 1B4B     		ldr	r3, .L183+4
 2770 021a 9B78     		ldrb	r3, [r3, #2]
 2771 021c DBB2     		uxtb	r3, r3
 2772 021e 062B     		cmp	r3, #6
 2773 0220 04D0     		beq	.L177
 2774              		.loc 1 577 0 is_stmt 0 discriminator 2
 2775 0222 194B     		ldr	r3, .L183+4
 2776 0224 9B78     		ldrb	r3, [r3, #2]
 2777 0226 DBB2     		uxtb	r3, r3
 2778 0228 072B     		cmp	r3, #7
 2779 022a 09D1     		bne	.L178
 2780              	.L177:
 2781              		.loc 1 577 0 discriminator 3
 2782 022c 164B     		ldr	r3, .L183+4
 2783 022e 5B7A     		ldrb	r3, [r3, #9]
 2784 0230 DBB2     		uxtb	r3, r3
 2785 0232 83F00103 		eor	r3, r3, #1
 2786 0236 DBB2     		uxtb	r3, r3
 2787 0238 002B     		cmp	r3, #0
 2788 023a 01D0     		beq	.L178
 2789              		.loc 1 577 0 discriminator 5
 2790 023c 0123     		movs	r3, #1
 2791 023e 00E0     		b	.L179
 2792              	.L178:
 2793              		.loc 1 577 0 discriminator 6
 2794 0240 0023     		movs	r3, #0
 2795              	.L179:
 2796              		.loc 1 577 0 discriminator 8
 2797 0242 DAB2     		uxtb	r2, r3
 2798 0244 3B68     		ldr	r3, [r7]
 2799 0246 1A70     		strb	r2, [r3]
 578:.\DisplayUtils.c ****             pvalues[0x01] = (((_g_pumps[0x00]._pumpstate == PUMP_IDLE) || (_g_pumps[0x00]._pumpstat
 2800              		.loc 1 578 0 is_stmt 1 discriminator 8
 2801 0248 3B68     		ldr	r3, [r7]
 2802 024a 0133     		adds	r3, r3, #1
 2803 024c 0E4A     		ldr	r2, .L183+4


 2804 024e 9278     		ldrb	r2, [r2, #2]
 2805 0250 D2B2     		uxtb	r2, r2
 2806 0252 062A     		cmp	r2, #6
 2807 0254 04D0     		beq	.L180
 2808              		.loc 1 578 0 is_stmt 0 discriminator 2
 2809 0256 0C4A     		ldr	r2, .L183+4
 2810 0258 9278     		ldrb	r2, [r2, #2]
 2811 025a D2B2     		uxtb	r2, r2
 2812 025c 072A     		cmp	r2, #7
 2813 025e 09D1     		bne	.L181
 2814              	.L180:
 2815              		.loc 1 578 0 discriminator 3
 2816 0260 094A     		ldr	r2, .L183+4
 2817 0262 527A     		ldrb	r2, [r2, #9]
 2818 0264 D2B2     		uxtb	r2, r2
 2819 0266 82F00102 		eor	r2, r2, #1
 2820 026a D2B2     		uxtb	r2, r2
 2821 026c 002A     		cmp	r2, #0
 2822 026e 01D0     		beq	.L181
 2823              		.loc 1 578 0 discriminator 5
 2824 0270 0122     		movs	r2, #1
 2825 0272 00E0     		b	.L182
 2826              	.L181:
 2827              		.loc 1 578 0 discriminator 6
 2828 0274 0022     		movs	r2, #0
 2829              	.L182:
 2830              		.loc 1 578 0 discriminator 8
 2831 0276 D2B2     		uxtb	r2, r2
 2832 0278 1A70     		strb	r2, [r3]
 2833              	.L145:
 579:.\DisplayUtils.c ****             
 580:.\DisplayUtils.c ****         }
 581:.\DisplayUtils.c ****     }
 582:.\DisplayUtils.c **** }
 2834              		.loc 1 582 0 is_stmt 1
 2835 027a 1437     		adds	r7, r7, #20
 2836              		.cfi_def_cfa_offset 4
 2837 027c BD46     		mov	sp, r7
 2838              		.cfi_def_cfa_register 13
 2839              		@ sp needed
 2840 027e 5DF8047B 		ldr	r7, [sp], #4
 2841              		.cfi_restore 7
 2842              		.cfi_def_cfa_offset 0
 2843 0282 7047     		bx	lr
 2844              	.L184:
 2845              		.align	2
 2846              	.L183:
 2847 0284 00000000 		.word	_g_dispenserlayoutinfo
 2848 0288 00000000 		.word	_g_pumps
 2849              		.cfi_endproc
 2850              	.LFE81:
 2851              		.size	GetPumpsAvailability, .-GetPumpsAvailability
 2852              		.section	.text.GetPumpsPrintState,"ax",%progbits
 2853              		.align	2
 2854              		.global	GetPumpsPrintState
 2855              		.thumb
 2856              		.thumb_func


 2857              		.type	GetPumpsPrintState, %function
 2858              	GetPumpsPrintState:
 2859              	.LFB82:
 583:.\DisplayUtils.c **** 
 584:.\DisplayUtils.c **** void GetPumpsPrintState(void *pparam, bool *pvalues)
 585:.\DisplayUtils.c **** {
 2860              		.loc 1 585 0
 2861              		.cfi_startproc
 2862              		@ args = 0, pretend = 0, frame = 16
 2863              		@ frame_needed = 1, uses_anonymous_args = 0
 2864              		@ link register save eliminated.
 2865 0000 80B4     		push	{r7}
 2866              		.cfi_def_cfa_offset 4
 2867              		.cfi_offset 7, -4
 2868 0002 85B0     		sub	sp, sp, #20
 2869              		.cfi_def_cfa_offset 24
 2870 0004 00AF     		add	r7, sp, #0
 2871              		.cfi_def_cfa_register 7
 2872 0006 7860     		str	r0, [r7, #4]
 2873 0008 3960     		str	r1, [r7]
 586:.\DisplayUtils.c ****     DisplayLayout *pdisplay = (DisplayLayout*)pparam;
 2874              		.loc 1 586 0
 2875 000a 7B68     		ldr	r3, [r7, #4]
 2876 000c FB60     		str	r3, [r7, #12]
 587:.\DisplayUtils.c ****     if(_g_dispenserlayoutinfo._numpositions == 0x04)
 2877              		.loc 1 587 0
 2878 000e 344B     		ldr	r3, .L193
 2879 0010 9B78     		ldrb	r3, [r3, #2]	@ zero_extendqisi2
 2880 0012 042B     		cmp	r3, #4
 2881 0014 26D1     		bne	.L186
 588:.\DisplayUtils.c ****     {
 589:.\DisplayUtils.c ****         if(pdisplay->_dispid == DISPLAY1)
 2882              		.loc 1 589 0
 2883 0016 FB68     		ldr	r3, [r7, #12]
 2884 0018 1B78     		ldrb	r3, [r3]	@ zero_extendqisi2
 2885 001a 002B     		cmp	r3, #0
 2886 001c 0ED1     		bne	.L187
 590:.\DisplayUtils.c ****         {
 591:.\DisplayUtils.c ****             pvalues[0x00] = _g_pumps[0x00]._print;
 2887              		.loc 1 591 0
 2888 001e 314B     		ldr	r3, .L193+4
 2889 0020 5B7B     		ldrb	r3, [r3, #13]
 2890 0022 DAB2     		uxtb	r2, r3
 2891 0024 3B68     		ldr	r3, [r7]
 2892 0026 1A70     		strb	r2, [r3]
 592:.\DisplayUtils.c ****             pvalues[0x01] = _g_pumps[0x02]._print;
 2893              		.loc 1 592 0
 2894 0028 3B68     		ldr	r3, [r7]
 2895 002a 5A1C     		adds	r2, r3, #1
 2896 002c 2D4B     		ldr	r3, .L193+4
 2897 002e 03F59C53 		add	r3, r3, #4992
 2898 0032 0D33     		adds	r3, r3, #13
 2899 0034 1B78     		ldrb	r3, [r3]
 2900 0036 DBB2     		uxtb	r3, r3
 2901 0038 1370     		strb	r3, [r2]
 2902 003a 4CE0     		b	.L185
 2903              	.L187:


 593:.\DisplayUtils.c ****             
 594:.\DisplayUtils.c ****         }
 595:.\DisplayUtils.c ****         else if(pdisplay->_dispid == DISPLAY2)
 2904              		.loc 1 595 0
 2905 003c FB68     		ldr	r3, [r7, #12]
 2906 003e 1B78     		ldrb	r3, [r3]	@ zero_extendqisi2
 2907 0040 012B     		cmp	r3, #1
 2908 0042 48D1     		bne	.L185
 596:.\DisplayUtils.c ****         {
 597:.\DisplayUtils.c ****             pvalues[0x00] = _g_pumps[0x03]._print;
 2909              		.loc 1 597 0
 2910 0044 274B     		ldr	r3, .L193+4
 2911 0046 03F5EA53 		add	r3, r3, #7488
 2912 004a 0D33     		adds	r3, r3, #13
 2913 004c 1B78     		ldrb	r3, [r3]
 2914 004e DAB2     		uxtb	r2, r3
 2915 0050 3B68     		ldr	r3, [r7]
 2916 0052 1A70     		strb	r2, [r3]
 598:.\DisplayUtils.c ****             pvalues[0x01] = _g_pumps[0x01]._print;
 2917              		.loc 1 598 0
 2918 0054 3B68     		ldr	r3, [r7]
 2919 0056 0133     		adds	r3, r3, #1
 2920 0058 224A     		ldr	r2, .L193+4
 2921 005a 92F8CD29 		ldrb	r2, [r2, #2509]
 2922 005e D2B2     		uxtb	r2, r2
 2923 0060 1A70     		strb	r2, [r3]
 2924 0062 38E0     		b	.L185
 2925              	.L186:
 599:.\DisplayUtils.c ****             
 600:.\DisplayUtils.c ****         }
 601:.\DisplayUtils.c ****     }
 602:.\DisplayUtils.c ****     else if(_g_dispenserlayoutinfo._numpositions == 0x02)
 2926              		.loc 1 602 0
 2927 0064 1E4B     		ldr	r3, .L193
 2928 0066 9B78     		ldrb	r3, [r3, #2]	@ zero_extendqisi2
 2929 0068 022B     		cmp	r3, #2
 2930 006a 21D1     		bne	.L190
 603:.\DisplayUtils.c ****     {
 604:.\DisplayUtils.c ****         if(pdisplay->_dispid == DISPLAY1)
 2931              		.loc 1 604 0
 2932 006c FB68     		ldr	r3, [r7, #12]
 2933 006e 1B78     		ldrb	r3, [r3]	@ zero_extendqisi2
 2934 0070 002B     		cmp	r3, #0
 2935 0072 0BD1     		bne	.L191
 605:.\DisplayUtils.c ****         {
 606:.\DisplayUtils.c ****             pvalues[0x00] = _g_pumps[0x00]._print;
 2936              		.loc 1 606 0
 2937 0074 1B4B     		ldr	r3, .L193+4
 2938 0076 5B7B     		ldrb	r3, [r3, #13]
 2939 0078 DAB2     		uxtb	r2, r3
 2940 007a 3B68     		ldr	r3, [r7]
 2941 007c 1A70     		strb	r2, [r3]
 607:.\DisplayUtils.c ****             pvalues[0x01] = _g_pumps[0x00]._print;
 2942              		.loc 1 607 0
 2943 007e 3B68     		ldr	r3, [r7]
 2944 0080 0133     		adds	r3, r3, #1
 2945 0082 184A     		ldr	r2, .L193+4


 2946 0084 527B     		ldrb	r2, [r2, #13]
 2947 0086 D2B2     		uxtb	r2, r2
 2948 0088 1A70     		strb	r2, [r3]
 2949 008a 24E0     		b	.L185
 2950              	.L191:
 608:.\DisplayUtils.c ****             
 609:.\DisplayUtils.c ****         }
 610:.\DisplayUtils.c ****         else if(pdisplay->_dispid == DISPLAY2)
 2951              		.loc 1 610 0
 2952 008c FB68     		ldr	r3, [r7, #12]
 2953 008e 1B78     		ldrb	r3, [r3]	@ zero_extendqisi2
 2954 0090 012B     		cmp	r3, #1
 2955 0092 20D1     		bne	.L185
 611:.\DisplayUtils.c ****         {
 612:.\DisplayUtils.c ****             pvalues[0x00] = _g_pumps[0x01]._print;
 2956              		.loc 1 612 0
 2957 0094 134B     		ldr	r3, .L193+4
 2958 0096 93F8CD39 		ldrb	r3, [r3, #2509]
 2959 009a DAB2     		uxtb	r2, r3
 2960 009c 3B68     		ldr	r3, [r7]
 2961 009e 1A70     		strb	r2, [r3]
 613:.\DisplayUtils.c ****             pvalues[0x01] = _g_pumps[0x01]._print;
 2962              		.loc 1 613 0
 2963 00a0 3B68     		ldr	r3, [r7]
 2964 00a2 0133     		adds	r3, r3, #1
 2965 00a4 0F4A     		ldr	r2, .L193+4
 2966 00a6 92F8CD29 		ldrb	r2, [r2, #2509]
 2967 00aa D2B2     		uxtb	r2, r2
 2968 00ac 1A70     		strb	r2, [r3]
 2969 00ae 12E0     		b	.L185
 2970              	.L190:
 614:.\DisplayUtils.c ****             
 615:.\DisplayUtils.c ****         }
 616:.\DisplayUtils.c ****     }
 617:.\DisplayUtils.c ****     else if(_g_dispenserlayoutinfo._numpositions == 0x01)
 2971              		.loc 1 617 0
 2972 00b0 0B4B     		ldr	r3, .L193
 2973 00b2 9B78     		ldrb	r3, [r3, #2]	@ zero_extendqisi2
 2974 00b4 012B     		cmp	r3, #1
 2975 00b6 0ED1     		bne	.L185
 618:.\DisplayUtils.c ****     {
 619:.\DisplayUtils.c ****         if(pdisplay->_dispid == DISPLAY1)
 2976              		.loc 1 619 0
 2977 00b8 FB68     		ldr	r3, [r7, #12]
 2978 00ba 1B78     		ldrb	r3, [r3]	@ zero_extendqisi2
 2979 00bc 002B     		cmp	r3, #0
 2980 00be 0AD1     		bne	.L185
 620:.\DisplayUtils.c ****         {
 621:.\DisplayUtils.c ****             pvalues[0x00] = _g_pumps[0x00]._print;
 2981              		.loc 1 621 0
 2982 00c0 084B     		ldr	r3, .L193+4
 2983 00c2 5B7B     		ldrb	r3, [r3, #13]
 2984 00c4 DAB2     		uxtb	r2, r3
 2985 00c6 3B68     		ldr	r3, [r7]
 2986 00c8 1A70     		strb	r2, [r3]
 622:.\DisplayUtils.c ****             pvalues[0x01] = _g_pumps[0x00]._print;
 2987              		.loc 1 622 0


 2988 00ca 3B68     		ldr	r3, [r7]
 2989 00cc 0133     		adds	r3, r3, #1
 2990 00ce 054A     		ldr	r2, .L193+4
 2991 00d0 527B     		ldrb	r2, [r2, #13]
 2992 00d2 D2B2     		uxtb	r2, r2
 2993 00d4 1A70     		strb	r2, [r3]
 2994              	.L185:
 623:.\DisplayUtils.c ****             
 624:.\DisplayUtils.c ****         }
 625:.\DisplayUtils.c ****     }
 626:.\DisplayUtils.c **** }
 2995              		.loc 1 626 0
 2996 00d6 1437     		adds	r7, r7, #20
 2997              		.cfi_def_cfa_offset 4
 2998 00d8 BD46     		mov	sp, r7
 2999              		.cfi_def_cfa_register 13
 3000              		@ sp needed
 3001 00da 5DF8047B 		ldr	r7, [sp], #4
 3002              		.cfi_restore 7
 3003              		.cfi_def_cfa_offset 0
 3004 00de 7047     		bx	lr
 3005              	.L194:
 3006              		.align	2
 3007              	.L193:
 3008 00e0 00000000 		.word	_g_dispenserlayoutinfo
 3009 00e4 00000000 		.word	_g_pumps
 3010              		.cfi_endproc
 3011              	.LFE82:
 3012              		.size	GetPumpsPrintState, .-GetPumpsPrintState
 3013              		.section	.text.DisplayProductSelectionInputHandler,"ax",%progbits
 3014              		.align	2
 3015              		.global	DisplayProductSelectionInputHandler
 3016              		.thumb
 3017              		.thumb_func
 3018              		.type	DisplayProductSelectionInputHandler, %function
 3019              	DisplayProductSelectionInputHandler:
 3020              	.LFB83:
 627:.\DisplayUtils.c **** 
 628:.\DisplayUtils.c **** //@Created by: HIJH
 629:.\DisplayUtils.c **** //@Date: Septembre de 2016
 630:.\DisplayUtils.c **** //This method handles the selected product on a credit sale
 631:.\DisplayUtils.c **** void DisplayProductSelectionInputHandler(void *pparam)
 632:.\DisplayUtils.c **** {
 3021              		.loc 1 632 0
 3022              		.cfi_startproc
 3023              		@ args = 0, pretend = 0, frame = 24
 3024              		@ frame_needed = 1, uses_anonymous_args = 0
 3025 0000 90B5     		push	{r4, r7, lr}
 3026              		.cfi_def_cfa_offset 12
 3027              		.cfi_offset 4, -12
 3028              		.cfi_offset 7, -8
 3029              		.cfi_offset 14, -4
 3030 0002 87B0     		sub	sp, sp, #28
 3031              		.cfi_def_cfa_offset 40
 3032 0004 00AF     		add	r7, sp, #0
 3033              		.cfi_def_cfa_register 7
 3034 0006 7860     		str	r0, [r7, #4]


 633:.\DisplayUtils.c ****     PDISPLAYLAYOUTPTR pdisplay = (PDISPLAYLAYOUTPTR)pparam;
 3035              		.loc 1 633 0
 3036 0008 7B68     		ldr	r3, [r7, #4]
 3037 000a FB60     		str	r3, [r7, #12]
 634:.\DisplayUtils.c ****     if(pdisplay)
 3038              		.loc 1 634 0
 3039 000c FB68     		ldr	r3, [r7, #12]
 3040 000e 002B     		cmp	r3, #0
 3041 0010 49D0     		beq	.L195
 3042              	.LBB8:
 635:.\DisplayUtils.c ****     {
 636:.\DisplayUtils.c ****         uint8  numhoses = 0x00;
 3043              		.loc 1 636 0
 3044 0012 0023     		movs	r3, #0
 3045 0014 FB75     		strb	r3, [r7, #23]
 637:.\DisplayUtils.c ****         PDISPLAYLAYOUTPTR pdisplay = (PDISPLAYLAYOUTPTR)pparam;
 3046              		.loc 1 637 0
 3047 0016 7B68     		ldr	r3, [r7, #4]
 3048 0018 BB60     		str	r3, [r7, #8]
 638:.\DisplayUtils.c ****         switch(GetPumpIndexFromDisplay(pdisplay))
 3049              		.loc 1 638 0
 3050 001a B868     		ldr	r0, [r7, #8]
 3051 001c FFF7FEFF 		bl	GetPumpIndexFromDisplay
 3052 0020 0346     		mov	r3, r0
 3053 0022 032B     		cmp	r3, #3
 3054 0024 1AD8     		bhi	.L197
 3055 0026 01A2     		adr	r2, .L199
 3056 0028 52F823F0 		ldr	pc, [r2, r3, lsl #2]
 3057              		.p2align 2
 3058              	.L199:
 3059 002c 3D000000 		.word	.L198+1
 3060 0030 45000000 		.word	.L200+1
 3061 0034 4D000000 		.word	.L201+1
 3062 0038 55000000 		.word	.L202+1
 3063              		.p2align 1
 3064              	.L198:
 639:.\DisplayUtils.c ****         {
 640:.\DisplayUtils.c ****             case 0x00:
 641:.\DisplayUtils.c ****                 numhoses = _g_dispenserlayoutinfo._hosesposition1;
 3065              		.loc 1 641 0
 3066 003c 1B4B     		ldr	r3, .L206
 3067 003e DB78     		ldrb	r3, [r3, #3]
 3068 0040 FB75     		strb	r3, [r7, #23]
 642:.\DisplayUtils.c ****                 break;
 3069              		.loc 1 642 0
 3070 0042 0BE0     		b	.L197
 3071              	.L200:
 643:.\DisplayUtils.c ****             case 0x01:
 644:.\DisplayUtils.c ****                 numhoses = _g_dispenserlayoutinfo._hosesposition2;
 3072              		.loc 1 644 0
 3073 0044 194B     		ldr	r3, .L206
 3074 0046 1B79     		ldrb	r3, [r3, #4]
 3075 0048 FB75     		strb	r3, [r7, #23]
 645:.\DisplayUtils.c ****                 break;
 3076              		.loc 1 645 0
 3077 004a 07E0     		b	.L197
 3078              	.L201:


 646:.\DisplayUtils.c ****             case 0x02:
 647:.\DisplayUtils.c ****                 numhoses = _g_dispenserlayoutinfo._hosesposition3;
 3079              		.loc 1 647 0
 3080 004c 174B     		ldr	r3, .L206
 3081 004e 5B79     		ldrb	r3, [r3, #5]
 3082 0050 FB75     		strb	r3, [r7, #23]
 648:.\DisplayUtils.c ****                 break;
 3083              		.loc 1 648 0
 3084 0052 03E0     		b	.L197
 3085              	.L202:
 649:.\DisplayUtils.c ****             case 0x03:
 650:.\DisplayUtils.c ****                 numhoses = _g_dispenserlayoutinfo._hosesposition4;
 3086              		.loc 1 650 0
 3087 0054 154B     		ldr	r3, .L206
 3088 0056 9B79     		ldrb	r3, [r3, #6]
 3089 0058 FB75     		strb	r3, [r7, #23]
 651:.\DisplayUtils.c ****                 break;
 3090              		.loc 1 651 0
 3091 005a 00BF     		nop
 3092              	.L197:
 652:.\DisplayUtils.c ****         }    
 653:.\DisplayUtils.c ****         DisplayCharacterMap *pdispcharmap = _g_productbuttonmap;
 3093              		.loc 1 653 0
 3094 005c 144B     		ldr	r3, .L206+4
 3095 005e 3B61     		str	r3, [r7, #16]
 654:.\DisplayUtils.c ****         while(pdispcharmap->_refchar != 0x00)
 3096              		.loc 1 654 0
 3097 0060 1DE0     		b	.L203
 3098              	.L205:
 655:.\DisplayUtils.c ****         {
 656:.\DisplayUtils.c ****             if((pdispcharmap->_refchar == pdisplay->_currscrcode) && ((pdispcharmap->_mappedto + 1)
 3099              		.loc 1 656 0
 3100 0062 3B69     		ldr	r3, [r7, #16]
 3101 0064 1A78     		ldrb	r2, [r3]	@ zero_extendqisi2
 3102 0066 BB68     		ldr	r3, [r7, #8]
 3103 0068 DB78     		ldrb	r3, [r3, #3]	@ zero_extendqisi2
 3104 006a 9A42     		cmp	r2, r3
 3105 006c 14D1     		bne	.L204
 3106              		.loc 1 656 0 is_stmt 0 discriminator 1
 3107 006e 3B69     		ldr	r3, [r7, #16]
 3108 0070 5B78     		ldrb	r3, [r3, #1]	@ zero_extendqisi2
 3109 0072 5A1C     		adds	r2, r3, #1
 3110 0074 FB7D     		ldrb	r3, [r7, #23]	@ zero_extendqisi2
 3111 0076 9A42     		cmp	r2, r3
 3112 0078 0EDC     		bgt	.L204
 657:.\DisplayUtils.c ****             {
 658:.\DisplayUtils.c ****                 ((PSINKMESSAGEPTR)pdisplay->_psequesteredmessagesink)->_buffer[GetBufferIndexFromDi
 3113              		.loc 1 658 0 is_stmt 1
 3114 007a BB68     		ldr	r3, [r7, #8]
 3115 007c 1C6B     		ldr	r4, [r3, #48]
 3116 007e 0720     		movs	r0, #7
 3117 0080 FFF7FEFF 		bl	GetBufferIndexFromDisplayID
 3118 0084 0346     		mov	r3, r0
 3119 0086 1946     		mov	r1, r3
 3120 0088 3B69     		ldr	r3, [r7, #16]
 3121 008a 5A78     		ldrb	r2, [r3, #1]	@ zero_extendqisi2
 3122 008c 6318     		adds	r3, r4, r1


 3123 008e 1A73     		strb	r2, [r3, #12]
 659:.\DisplayUtils.c ****                 pdisplay->_currentstate = DISPLAY_HOSE_ACTIVATED;
 3124              		.loc 1 659 0
 3125 0090 BB68     		ldr	r3, [r7, #8]
 3126 0092 A322     		movs	r2, #163
 3127 0094 1A71     		strb	r2, [r3, #4]
 660:.\DisplayUtils.c ****                 break;
 3128              		.loc 1 660 0
 3129 0096 06E0     		b	.L195
 3130              	.L204:
 661:.\DisplayUtils.c ****             }
 662:.\DisplayUtils.c ****             pdispcharmap++;
 3131              		.loc 1 662 0
 3132 0098 3B69     		ldr	r3, [r7, #16]
 3133 009a 0233     		adds	r3, r3, #2
 3134 009c 3B61     		str	r3, [r7, #16]
 3135              	.L203:
 654:.\DisplayUtils.c ****         {
 3136              		.loc 1 654 0
 3137 009e 3B69     		ldr	r3, [r7, #16]
 3138 00a0 1B78     		ldrb	r3, [r3]	@ zero_extendqisi2
 3139 00a2 002B     		cmp	r3, #0
 3140 00a4 DDD1     		bne	.L205
 3141              	.L195:
 3142              	.LBE8:
 663:.\DisplayUtils.c ****         }
 664:.\DisplayUtils.c ****     }
 665:.\DisplayUtils.c **** }
 3143              		.loc 1 665 0
 3144 00a6 1C37     		adds	r7, r7, #28
 3145              		.cfi_def_cfa_offset 12
 3146 00a8 BD46     		mov	sp, r7
 3147              		.cfi_def_cfa_register 13
 3148              		@ sp needed
 3149 00aa 90BD     		pop	{r4, r7, pc}
 3150              	.L207:
 3151              		.align	2
 3152              	.L206:
 3153 00ac 00000000 		.word	_g_dispenserlayoutinfo
 3154 00b0 00000000 		.word	_g_productbuttonmap
 3155              		.cfi_endproc
 3156              	.LFE83:
 3157              		.size	DisplayProductSelectionInputHandler, .-DisplayProductSelectionInputHandler
 3158              		.section	.text.DisplayInputHandler,"ax",%progbits
 3159              		.align	2
 3160              		.global	DisplayInputHandler
 3161              		.thumb
 3162              		.thumb_func
 3163              		.type	DisplayInputHandler, %function
 3164              	DisplayInputHandler:
 3165              	.LFB84:
 666:.\DisplayUtils.c **** 
 667:.\DisplayUtils.c **** //@Created by: HIJH
 668:.\DisplayUtils.c **** //@Date: Septembre de 2016
 669:.\DisplayUtils.c **** //This method handles the input data typed 
 670:.\DisplayUtils.c **** //in the screen
 671:.\DisplayUtils.c **** void DisplayInputHandler(void *pparam)


 672:.\DisplayUtils.c **** {
 3166              		.loc 1 672 0
 3167              		.cfi_startproc
 3168              		@ args = 0, pretend = 0, frame = 24
 3169              		@ frame_needed = 1, uses_anonymous_args = 0
 3170 0000 F0B5     		push	{r4, r5, r6, r7, lr}
 3171              		.cfi_def_cfa_offset 20
 3172              		.cfi_offset 4, -20
 3173              		.cfi_offset 5, -16
 3174              		.cfi_offset 6, -12
 3175              		.cfi_offset 7, -8
 3176              		.cfi_offset 14, -4
 3177 0002 8BB0     		sub	sp, sp, #44
 3178              		.cfi_def_cfa_offset 64
 3179 0004 04AF     		add	r7, sp, #16
 3180              		.cfi_def_cfa 7, 48
 3181 0006 7860     		str	r0, [r7, #4]
 673:.\DisplayUtils.c ****     DisplayLayout *pdisplay = (DisplayLayout*)pparam;
 3182              		.loc 1 673 0
 3183 0008 7B68     		ldr	r3, [r7, #4]
 3184 000a 3B61     		str	r3, [r7, #16]
 674:.\DisplayUtils.c ****     if(pdisplay)
 3185              		.loc 1 674 0
 3186 000c 3B69     		ldr	r3, [r7, #16]
 3187 000e 002B     		cmp	r3, #0
 3188 0010 00F09980 		beq	.L208
 3189              	.LBB9:
 675:.\DisplayUtils.c ****     {
 676:.\DisplayUtils.c ****         char8 mappedchar = 0x00;
 3190              		.loc 1 676 0
 3191 0014 0023     		movs	r3, #0
 3192 0016 FB75     		strb	r3, [r7, #23]
 677:.\DisplayUtils.c ****         //This is since 0x0B has been defined as "Cancel" in the keypad
 678:.\DisplayUtils.c ****         if(pdisplay->_currscrcode == 0x0B)
 3193              		.loc 1 678 0
 3194 0018 3B69     		ldr	r3, [r7, #16]
 3195 001a DB78     		ldrb	r3, [r3, #3]	@ zero_extendqisi2
 3196 001c 0B2B     		cmp	r3, #11
 3197 001e 03D1     		bne	.L210
 679:.\DisplayUtils.c ****             pdisplay->_bufferinfo._bufferindex = 0;
 3198              		.loc 1 679 0
 3199 0020 3B69     		ldr	r3, [r7, #16]
 3200 0022 0022     		movs	r2, #0
 3201 0024 1A77     		strb	r2, [r3, #28]
 3202 0026 06E0     		b	.L211
 3203              	.L210:
 680:.\DisplayUtils.c ****         else
 681:.\DisplayUtils.c ****             mappedchar = UnmapCode(pdisplay->_currscrcode);
 3204              		.loc 1 681 0
 3205 0028 3B69     		ldr	r3, [r7, #16]
 3206 002a DB78     		ldrb	r3, [r3, #3]	@ zero_extendqisi2
 3207 002c 1846     		mov	r0, r3
 3208 002e FFF7FEFF 		bl	UnmapCode
 3209 0032 0346     		mov	r3, r0
 3210 0034 FB75     		strb	r3, [r7, #23]
 3211              	.L211:
 682:.\DisplayUtils.c ****         


 683:.\DisplayUtils.c ****         if(pdisplay->_bufferinfo._bufferindex == 0)
 3212              		.loc 1 683 0
 3213 0036 3B69     		ldr	r3, [r7, #16]
 3214 0038 1B7F     		ldrb	r3, [r3, #28]	@ zero_extendqisi2
 3215 003a 002B     		cmp	r3, #0
 3216 003c 10D1     		bne	.L212
 684:.\DisplayUtils.c ****         {
 685:.\DisplayUtils.c ****             pdisplay->_bufferinfo._xpos = pdisplay->_pcurrflow->_inputboxinfo._xdefpos;
 3217              		.loc 1 685 0
 3218 003e 3B69     		ldr	r3, [r7, #16]
 3219 0040 1B69     		ldr	r3, [r3, #16]
 3220 0042 9A8D     		ldrh	r2, [r3, #44]
 3221 0044 3B69     		ldr	r3, [r7, #16]
 3222 0046 1A83     		strh	r2, [r3, #24]	@ movhi
 686:.\DisplayUtils.c ****             pdisplay->_bufferinfo._ypos = pdisplay->_pcurrflow->_inputboxinfo._ydefpos;
 3223              		.loc 1 686 0
 3224 0048 3B69     		ldr	r3, [r7, #16]
 3225 004a 1B69     		ldr	r3, [r3, #16]
 3226 004c DA8D     		ldrh	r2, [r3, #46]
 3227 004e 3B69     		ldr	r3, [r7, #16]
 3228 0050 5A83     		strh	r2, [r3, #26]	@ movhi
 687:.\DisplayUtils.c ****             memset(pdisplay->_bufferinfo._buffer, ' ', _DISPLAY_BUFFER_SIZE_);
 3229              		.loc 1 687 0
 3230 0052 3B69     		ldr	r3, [r7, #16]
 3231 0054 1D33     		adds	r3, r3, #29
 3232 0056 1846     		mov	r0, r3
 3233 0058 2021     		movs	r1, #32
 3234 005a 1022     		movs	r2, #16
 3235 005c FFF7FEFF 		bl	memset
 3236              	.L212:
 688:.\DisplayUtils.c ****         }
 689:.\DisplayUtils.c ****         //The InputBox is already filled up!
 690:.\DisplayUtils.c ****         if(pdisplay->_bufferinfo._bufferindex >= pdisplay->_pcurrflow->_inputboxinfo._maxchars)
 3237              		.loc 1 690 0
 3238 0060 3B69     		ldr	r3, [r7, #16]
 3239 0062 1A7F     		ldrb	r2, [r3, #28]	@ zero_extendqisi2
 3240 0064 3B69     		ldr	r3, [r7, #16]
 3241 0066 1B69     		ldr	r3, [r3, #16]
 3242 0068 93F83030 		ldrb	r3, [r3, #48]	@ zero_extendqisi2
 3243 006c 9A42     		cmp	r2, r3
 3244 006e 00D3     		bcc	.L213
 691:.\DisplayUtils.c ****             return;
 3245              		.loc 1 691 0
 3246 0070 69E0     		b	.L208
 3247              	.L213:
 692:.\DisplayUtils.c ****         
 693:.\DisplayUtils.c ****         //There's nothing new to show up since the unmapper didn't find anything to map to
 694:.\DisplayUtils.c ****         if(mappedchar != 0x00)
 3248              		.loc 1 694 0
 3249 0072 FB7D     		ldrb	r3, [r7, #23]	@ zero_extendqisi2
 3250 0074 002B     		cmp	r3, #0
 3251 0076 0AD0     		beq	.L214
 695:.\DisplayUtils.c ****             pdisplay->_bufferinfo._buffer[pdisplay->_bufferinfo._bufferindex++] = mappedchar;
 3252              		.loc 1 695 0
 3253 0078 3B69     		ldr	r3, [r7, #16]
 3254 007a 1B7F     		ldrb	r3, [r3, #28]	@ zero_extendqisi2
 3255 007c 5A1C     		adds	r2, r3, #1


 3256 007e D1B2     		uxtb	r1, r2
 3257 0080 3A69     		ldr	r2, [r7, #16]
 3258 0082 1177     		strb	r1, [r2, #28]
 3259 0084 1A46     		mov	r2, r3
 3260 0086 3B69     		ldr	r3, [r7, #16]
 3261 0088 1344     		add	r3, r3, r2
 3262 008a FA7D     		ldrb	r2, [r7, #23]
 3263 008c 5A77     		strb	r2, [r3, #29]
 3264              	.L214:
 696:.\DisplayUtils.c ****         
 697:.\DisplayUtils.c ****         if(pdisplay->_dispid == DISPLAY1)
 3265              		.loc 1 697 0
 3266 008e 3B69     		ldr	r3, [r7, #16]
 3267 0090 1B78     		ldrb	r3, [r3]	@ zero_extendqisi2
 3268 0092 002B     		cmp	r3, #0
 3269 0094 2CD1     		bne	.L215
 3270              	.LBB10:
 698:.\DisplayUtils.c ****         {
 699:.\DisplayUtils.c ****             UARTMessage *puartdisp = GetUARTMessageSlot(UART_DISPLAY1);
 3271              		.loc 1 699 0
 3272 0096 A320     		movs	r0, #163
 3273 0098 FFF7FEFF 		bl	GetUARTMessageSlot
 3274 009c F860     		str	r0, [r7, #12]
 700:.\DisplayUtils.c ****             if(puartdisp)
 3275              		.loc 1 700 0
 3276 009e FB68     		ldr	r3, [r7, #12]
 3277 00a0 002B     		cmp	r3, #0
 3278 00a2 24D0     		beq	.L216
 701:.\DisplayUtils.c ****             {
 702:.\DisplayUtils.c ****                 puartdisp->_messagelength = DisplayOutputString(pdisplay->_bufferinfo._xpos, pdispl
 3279              		.loc 1 702 0
 3280 00a4 3B69     		ldr	r3, [r7, #16]
 3281 00a6 B3F818E0 		ldrh	lr, [r3, #24]
 3282 00aa 3B69     		ldr	r3, [r7, #16]
 3283 00ac 5E8B     		ldrh	r6, [r3, #26]
 3284 00ae FB68     		ldr	r3, [r7, #12]
 3285 00b0 1D1D     		adds	r5, r3, #4
 3286 00b2 3B69     		ldr	r3, [r7, #16]
 3287 00b4 03F11D04 		add	r4, r3, #29
 3288 00b8 3B69     		ldr	r3, [r7, #16]
 3289 00ba 1B69     		ldr	r3, [r3, #16]
 3290 00bc 93F83030 		ldrb	r3, [r3, #48]	@ zero_extendqisi2
 3291 00c0 9BB2     		uxth	r3, r3
 3292 00c2 3A69     		ldr	r2, [r7, #16]
 3293 00c4 1269     		ldr	r2, [r2, #16]
 3294 00c6 0093     		str	r3, [sp]
 3295 00c8 01AB     		add	r3, sp, #4
 3296 00ca 3232     		adds	r2, r2, #50
 3297 00cc 1068     		ldr	r0, [r2]	@ unaligned
 3298 00ce 5168     		ldr	r1, [r2, #4]	@ unaligned
 3299 00d0 03C3     		stmia	r3!, {r0, r1}
 3300 00d2 7046     		mov	r0, lr
 3301 00d4 3146     		mov	r1, r6
 3302 00d6 2A46     		mov	r2, r5
 3303 00d8 2346     		mov	r3, r4
 3304 00da FFF7FEFF 		bl	DisplayOutputString
 3305 00de 0346     		mov	r3, r0


 3306 00e0 1A46     		mov	r2, r3
 3307 00e2 FB68     		ldr	r3, [r7, #12]
 3308 00e4 5A80     		strh	r2, [r3, #2]	@ movhi
 703:.\DisplayUtils.c ****                 puartdisp->_messagestate = PENDING;
 3309              		.loc 1 703 0
 3310 00e6 FB68     		ldr	r3, [r7, #12]
 3311 00e8 C222     		movs	r2, #194
 3312 00ea 1A70     		strb	r2, [r3]
 3313              	.LBE10:
 3314 00ec 2BE0     		b	.L208
 3315              	.L216:
 3316 00ee 2AE0     		b	.L208
 3317              	.L215:
 3318              	.LBB11:
 704:.\DisplayUtils.c ****             }
 705:.\DisplayUtils.c ****         }
 706:.\DisplayUtils.c ****         else
 707:.\DisplayUtils.c ****         {
 708:.\DisplayUtils.c ****             UARTMessage *puartdisp = GetUARTMessageSlot(UART_DISPLAY2);
 3319              		.loc 1 708 0
 3320 00f0 A420     		movs	r0, #164
 3321 00f2 FFF7FEFF 		bl	GetUARTMessageSlot
 3322 00f6 B860     		str	r0, [r7, #8]
 709:.\DisplayUtils.c ****             if(puartdisp)
 3323              		.loc 1 709 0
 3324 00f8 BB68     		ldr	r3, [r7, #8]
 3325 00fa 002B     		cmp	r3, #0
 3326 00fc 23D0     		beq	.L208
 710:.\DisplayUtils.c ****             {
 711:.\DisplayUtils.c ****                 puartdisp->_messagelength = DisplayOutputString(pdisplay->_bufferinfo._xpos, pdispl
 3327              		.loc 1 711 0
 3328 00fe 3B69     		ldr	r3, [r7, #16]
 3329 0100 B3F818E0 		ldrh	lr, [r3, #24]
 3330 0104 3B69     		ldr	r3, [r7, #16]
 3331 0106 5E8B     		ldrh	r6, [r3, #26]
 3332 0108 BB68     		ldr	r3, [r7, #8]
 3333 010a 1D1D     		adds	r5, r3, #4
 3334 010c 3B69     		ldr	r3, [r7, #16]
 3335 010e 03F11D04 		add	r4, r3, #29
 3336 0112 3B69     		ldr	r3, [r7, #16]
 3337 0114 1B69     		ldr	r3, [r3, #16]
 3338 0116 93F83030 		ldrb	r3, [r3, #48]	@ zero_extendqisi2
 3339 011a 9BB2     		uxth	r3, r3
 3340 011c 3A69     		ldr	r2, [r7, #16]
 3341 011e 1269     		ldr	r2, [r2, #16]
 3342 0120 0093     		str	r3, [sp]
 3343 0122 01AB     		add	r3, sp, #4
 3344 0124 3232     		adds	r2, r2, #50
 3345 0126 1068     		ldr	r0, [r2]	@ unaligned
 3346 0128 5168     		ldr	r1, [r2, #4]	@ unaligned
 3347 012a 03C3     		stmia	r3!, {r0, r1}
 3348 012c 7046     		mov	r0, lr
 3349 012e 3146     		mov	r1, r6
 3350 0130 2A46     		mov	r2, r5
 3351 0132 2346     		mov	r3, r4
 3352 0134 FFF7FEFF 		bl	DisplayOutputString
 3353 0138 0346     		mov	r3, r0


 3354 013a 1A46     		mov	r2, r3
 3355 013c BB68     		ldr	r3, [r7, #8]
 3356 013e 5A80     		strh	r2, [r3, #2]	@ movhi
 712:.\DisplayUtils.c ****                 puartdisp->_messagestate = PENDING;
 3357              		.loc 1 712 0
 3358 0140 BB68     		ldr	r3, [r7, #8]
 3359 0142 C222     		movs	r2, #194
 3360 0144 1A70     		strb	r2, [r3]
 3361              	.L208:
 3362              	.LBE11:
 3363              	.LBE9:
 713:.\DisplayUtils.c ****             }
 714:.\DisplayUtils.c ****         }
 715:.\DisplayUtils.c ****         
 716:.\DisplayUtils.c ****     }
 717:.\DisplayUtils.c **** }
 3364              		.loc 1 717 0
 3365 0146 1C37     		adds	r7, r7, #28
 3366              		.cfi_def_cfa_offset 20
 3367 0148 BD46     		mov	sp, r7
 3368              		.cfi_def_cfa_register 13
 3369              		@ sp needed
 3370 014a F0BD     		pop	{r4, r5, r6, r7, pc}
 3371              		.cfi_endproc
 3372              	.LFE84:
 3373              		.size	DisplayInputHandler, .-DisplayInputHandler
 3374              		.section	.text.DisplayIDInputHandler,"ax",%progbits
 3375              		.align	2
 3376              		.global	DisplayIDInputHandler
 3377              		.thumb
 3378              		.thumb_func
 3379              		.type	DisplayIDInputHandler, %function
 3380              	DisplayIDInputHandler:
 3381              	.LFB85:
 718:.\DisplayUtils.c **** 
 719:.\DisplayUtils.c **** void DisplayIDInputHandler(void *pparam)
 720:.\DisplayUtils.c **** {
 3382              		.loc 1 720 0
 3383              		.cfi_startproc
 3384              		@ args = 0, pretend = 0, frame = 24
 3385              		@ frame_needed = 1, uses_anonymous_args = 0
 3386 0000 F0B5     		push	{r4, r5, r6, r7, lr}
 3387              		.cfi_def_cfa_offset 20
 3388              		.cfi_offset 4, -20
 3389              		.cfi_offset 5, -16
 3390              		.cfi_offset 6, -12
 3391              		.cfi_offset 7, -8
 3392              		.cfi_offset 14, -4
 3393 0002 8BB0     		sub	sp, sp, #44
 3394              		.cfi_def_cfa_offset 64
 3395 0004 04AF     		add	r7, sp, #16
 3396              		.cfi_def_cfa 7, 48
 3397 0006 7860     		str	r0, [r7, #4]
 721:.\DisplayUtils.c ****     DisplayLayout *pdisplay = (DisplayLayout*)pparam;
 3398              		.loc 1 721 0
 3399 0008 7B68     		ldr	r3, [r7, #4]
 3400 000a 3B61     		str	r3, [r7, #16]


 722:.\DisplayUtils.c ****     if(pdisplay)
 3401              		.loc 1 722 0
 3402 000c 3B69     		ldr	r3, [r7, #16]
 3403 000e 002B     		cmp	r3, #0
 3404 0010 00F0A480 		beq	.L217
 3405              	.LBB12:
 723:.\DisplayUtils.c ****     {
 724:.\DisplayUtils.c ****         char8 mappedchar = 0x00;
 3406              		.loc 1 724 0
 3407 0014 0023     		movs	r3, #0
 3408 0016 FB75     		strb	r3, [r7, #23]
 725:.\DisplayUtils.c ****         //This is since 0x0B has been defined as "Cancel" in the keypad
 726:.\DisplayUtils.c ****         if(pdisplay->_currscrcode == 0x0B)
 3409              		.loc 1 726 0
 3410 0018 3B69     		ldr	r3, [r7, #16]
 3411 001a DB78     		ldrb	r3, [r3, #3]	@ zero_extendqisi2
 3412 001c 0B2B     		cmp	r3, #11
 3413 001e 03D1     		bne	.L219
 727:.\DisplayUtils.c ****             pdisplay->_bufferinfo._bufferindex = 0;
 3414              		.loc 1 727 0
 3415 0020 3B69     		ldr	r3, [r7, #16]
 3416 0022 0022     		movs	r2, #0
 3417 0024 1A77     		strb	r2, [r3, #28]
 3418 0026 11E0     		b	.L220
 3419              	.L219:
 728:.\DisplayUtils.c ****         else
 729:.\DisplayUtils.c ****         {
 730:.\DisplayUtils.c ****             mappedchar = UnmapCode(pdisplay->_currscrcode);
 3420              		.loc 1 730 0
 3421 0028 3B69     		ldr	r3, [r7, #16]
 3422 002a DB78     		ldrb	r3, [r3, #3]	@ zero_extendqisi2
 3423 002c 1846     		mov	r0, r3
 3424 002e FFF7FEFF 		bl	UnmapCode
 3425 0032 0346     		mov	r3, r0
 3426 0034 FB75     		strb	r3, [r7, #23]
 731:.\DisplayUtils.c ****             
 732:.\DisplayUtils.c ****             //No zeros allowed as left most significant digits
 733:.\DisplayUtils.c ****             if((mappedchar < 0x30 || mappedchar > 0x39) && (pdisplay->_bufferinfo._bufferindex == 0
 3427              		.loc 1 733 0
 3428 0036 FB7D     		ldrb	r3, [r7, #23]	@ zero_extendqisi2
 3429 0038 2F2B     		cmp	r3, #47
 3430 003a 02D9     		bls	.L221
 3431              		.loc 1 733 0 is_stmt 0 discriminator 2
 3432 003c FB7D     		ldrb	r3, [r7, #23]	@ zero_extendqisi2
 3433 003e 392B     		cmp	r3, #57
 3434 0040 04D9     		bls	.L220
 3435              	.L221:
 3436              		.loc 1 733 0 discriminator 3
 3437 0042 3B69     		ldr	r3, [r7, #16]
 3438 0044 1B7F     		ldrb	r3, [r3, #28]	@ zero_extendqisi2
 3439 0046 002B     		cmp	r3, #0
 3440 0048 00D1     		bne	.L220
 734:.\DisplayUtils.c ****                 return;
 3441              		.loc 1 734 0 is_stmt 1
 3442 004a 87E0     		b	.L217
 3443              	.L220:
 735:.\DisplayUtils.c ****         }


 736:.\DisplayUtils.c ****         
 737:.\DisplayUtils.c ****         if(pdisplay->_bufferinfo._bufferindex == 0)
 3444              		.loc 1 737 0
 3445 004c 3B69     		ldr	r3, [r7, #16]
 3446 004e 1B7F     		ldrb	r3, [r3, #28]	@ zero_extendqisi2
 3447 0050 002B     		cmp	r3, #0
 3448 0052 10D1     		bne	.L222
 738:.\DisplayUtils.c ****         {
 739:.\DisplayUtils.c ****             pdisplay->_bufferinfo._xpos = pdisplay->_pcurrflow->_inputboxinfo._xdefpos;
 3449              		.loc 1 739 0
 3450 0054 3B69     		ldr	r3, [r7, #16]
 3451 0056 1B69     		ldr	r3, [r3, #16]
 3452 0058 9A8D     		ldrh	r2, [r3, #44]
 3453 005a 3B69     		ldr	r3, [r7, #16]
 3454 005c 1A83     		strh	r2, [r3, #24]	@ movhi
 740:.\DisplayUtils.c ****             pdisplay->_bufferinfo._ypos = pdisplay->_pcurrflow->_inputboxinfo._ydefpos;
 3455              		.loc 1 740 0
 3456 005e 3B69     		ldr	r3, [r7, #16]
 3457 0060 1B69     		ldr	r3, [r3, #16]
 3458 0062 DA8D     		ldrh	r2, [r3, #46]
 3459 0064 3B69     		ldr	r3, [r7, #16]
 3460 0066 5A83     		strh	r2, [r3, #26]	@ movhi
 741:.\DisplayUtils.c ****             memset(pdisplay->_bufferinfo._buffer, ' ', _DISPLAY_BUFFER_SIZE_);
 3461              		.loc 1 741 0
 3462 0068 3B69     		ldr	r3, [r7, #16]
 3463 006a 1D33     		adds	r3, r3, #29
 3464 006c 1846     		mov	r0, r3
 3465 006e 2021     		movs	r1, #32
 3466 0070 1022     		movs	r2, #16
 3467 0072 FFF7FEFF 		bl	memset
 3468              	.L222:
 742:.\DisplayUtils.c ****         }
 743:.\DisplayUtils.c ****         //The InputBox is already filled up!
 744:.\DisplayUtils.c ****         if(pdisplay->_bufferinfo._bufferindex >= pdisplay->_pcurrflow->_inputboxinfo._maxchars)
 3469              		.loc 1 744 0
 3470 0076 3B69     		ldr	r3, [r7, #16]
 3471 0078 1A7F     		ldrb	r2, [r3, #28]	@ zero_extendqisi2
 3472 007a 3B69     		ldr	r3, [r7, #16]
 3473 007c 1B69     		ldr	r3, [r3, #16]
 3474 007e 93F83030 		ldrb	r3, [r3, #48]	@ zero_extendqisi2
 3475 0082 9A42     		cmp	r2, r3
 3476 0084 00D3     		bcc	.L223
 745:.\DisplayUtils.c ****             return;
 3477              		.loc 1 745 0 discriminator 2
 3478 0086 69E0     		b	.L217
 3479              	.L223:
 746:.\DisplayUtils.c ****         
 747:.\DisplayUtils.c ****         //There's nothing new to show up since the unmapper didn't find anything to map to
 748:.\DisplayUtils.c ****         if(mappedchar != 0x00)
 3480              		.loc 1 748 0
 3481 0088 FB7D     		ldrb	r3, [r7, #23]	@ zero_extendqisi2
 3482 008a 002B     		cmp	r3, #0
 3483 008c 0AD0     		beq	.L224
 749:.\DisplayUtils.c ****             pdisplay->_bufferinfo._buffer[pdisplay->_bufferinfo._bufferindex++] = mappedchar;
 3484              		.loc 1 749 0
 3485 008e 3B69     		ldr	r3, [r7, #16]
 3486 0090 1B7F     		ldrb	r3, [r3, #28]	@ zero_extendqisi2


 3487 0092 5A1C     		adds	r2, r3, #1
 3488 0094 D1B2     		uxtb	r1, r2
 3489 0096 3A69     		ldr	r2, [r7, #16]
 3490 0098 1177     		strb	r1, [r2, #28]
 3491 009a 1A46     		mov	r2, r3
 3492 009c 3B69     		ldr	r3, [r7, #16]
 3493 009e 1344     		add	r3, r3, r2
 3494 00a0 FA7D     		ldrb	r2, [r7, #23]
 3495 00a2 5A77     		strb	r2, [r3, #29]
 3496              	.L224:
 750:.\DisplayUtils.c ****         
 751:.\DisplayUtils.c ****         if(pdisplay->_dispid == DISPLAY1)
 3497              		.loc 1 751 0
 3498 00a4 3B69     		ldr	r3, [r7, #16]
 3499 00a6 1B78     		ldrb	r3, [r3]	@ zero_extendqisi2
 3500 00a8 002B     		cmp	r3, #0
 3501 00aa 2CD1     		bne	.L225
 3502              	.LBB13:
 752:.\DisplayUtils.c ****         {
 753:.\DisplayUtils.c ****             UARTMessage *puartdisp = GetUARTMessageSlot(UART_DISPLAY1);
 3503              		.loc 1 753 0
 3504 00ac A320     		movs	r0, #163
 3505 00ae FFF7FEFF 		bl	GetUARTMessageSlot
 3506 00b2 F860     		str	r0, [r7, #12]
 754:.\DisplayUtils.c ****             if(puartdisp)
 3507              		.loc 1 754 0
 3508 00b4 FB68     		ldr	r3, [r7, #12]
 3509 00b6 002B     		cmp	r3, #0
 3510 00b8 24D0     		beq	.L226
 755:.\DisplayUtils.c ****             {
 756:.\DisplayUtils.c ****                 puartdisp->_messagelength = DisplayOutputString(pdisplay->_bufferinfo._xpos, pdispl
 3511              		.loc 1 756 0
 3512 00ba 3B69     		ldr	r3, [r7, #16]
 3513 00bc B3F818E0 		ldrh	lr, [r3, #24]
 3514 00c0 3B69     		ldr	r3, [r7, #16]
 3515 00c2 5E8B     		ldrh	r6, [r3, #26]
 3516 00c4 FB68     		ldr	r3, [r7, #12]
 3517 00c6 1D1D     		adds	r5, r3, #4
 3518 00c8 3B69     		ldr	r3, [r7, #16]
 3519 00ca 03F11D04 		add	r4, r3, #29
 3520 00ce 3B69     		ldr	r3, [r7, #16]
 3521 00d0 1B69     		ldr	r3, [r3, #16]
 3522 00d2 93F83030 		ldrb	r3, [r3, #48]	@ zero_extendqisi2
 3523 00d6 9BB2     		uxth	r3, r3
 3524 00d8 3A69     		ldr	r2, [r7, #16]
 3525 00da 1269     		ldr	r2, [r2, #16]
 3526 00dc 0093     		str	r3, [sp]
 3527 00de 01AB     		add	r3, sp, #4
 3528 00e0 3232     		adds	r2, r2, #50
 3529 00e2 1068     		ldr	r0, [r2]	@ unaligned
 3530 00e4 5168     		ldr	r1, [r2, #4]	@ unaligned
 3531 00e6 03C3     		stmia	r3!, {r0, r1}
 3532 00e8 7046     		mov	r0, lr
 3533 00ea 3146     		mov	r1, r6
 3534 00ec 2A46     		mov	r2, r5
 3535 00ee 2346     		mov	r3, r4
 3536 00f0 FFF7FEFF 		bl	DisplayOutputString


 3537 00f4 0346     		mov	r3, r0
 3538 00f6 1A46     		mov	r2, r3
 3539 00f8 FB68     		ldr	r3, [r7, #12]
 3540 00fa 5A80     		strh	r2, [r3, #2]	@ movhi
 757:.\DisplayUtils.c ****                 puartdisp->_messagestate = PENDING;
 3541              		.loc 1 757 0
 3542 00fc FB68     		ldr	r3, [r7, #12]
 3543 00fe C222     		movs	r2, #194
 3544 0100 1A70     		strb	r2, [r3]
 3545              	.LBE13:
 3546 0102 2BE0     		b	.L217
 3547              	.L226:
 3548 0104 2AE0     		b	.L217
 3549              	.L225:
 3550              	.LBB14:
 758:.\DisplayUtils.c ****             }
 759:.\DisplayUtils.c ****         }
 760:.\DisplayUtils.c ****         else
 761:.\DisplayUtils.c ****         {
 762:.\DisplayUtils.c ****             UARTMessage *puartdisp = GetUARTMessageSlot(UART_DISPLAY2);
 3551              		.loc 1 762 0
 3552 0106 A420     		movs	r0, #164
 3553 0108 FFF7FEFF 		bl	GetUARTMessageSlot
 3554 010c B860     		str	r0, [r7, #8]
 763:.\DisplayUtils.c ****             if(puartdisp)
 3555              		.loc 1 763 0
 3556 010e BB68     		ldr	r3, [r7, #8]
 3557 0110 002B     		cmp	r3, #0
 3558 0112 23D0     		beq	.L217
 764:.\DisplayUtils.c ****             {
 765:.\DisplayUtils.c ****                 puartdisp->_messagelength = DisplayOutputString(pdisplay->_bufferinfo._xpos, pdispl
 3559              		.loc 1 765 0
 3560 0114 3B69     		ldr	r3, [r7, #16]
 3561 0116 B3F818E0 		ldrh	lr, [r3, #24]
 3562 011a 3B69     		ldr	r3, [r7, #16]
 3563 011c 5E8B     		ldrh	r6, [r3, #26]
 3564 011e BB68     		ldr	r3, [r7, #8]
 3565 0120 1D1D     		adds	r5, r3, #4
 3566 0122 3B69     		ldr	r3, [r7, #16]
 3567 0124 03F11D04 		add	r4, r3, #29
 3568 0128 3B69     		ldr	r3, [r7, #16]
 3569 012a 1B69     		ldr	r3, [r3, #16]
 3570 012c 93F83030 		ldrb	r3, [r3, #48]	@ zero_extendqisi2
 3571 0130 9BB2     		uxth	r3, r3
 3572 0132 3A69     		ldr	r2, [r7, #16]
 3573 0134 1269     		ldr	r2, [r2, #16]
 3574 0136 0093     		str	r3, [sp]
 3575 0138 01AB     		add	r3, sp, #4
 3576 013a 3232     		adds	r2, r2, #50
 3577 013c 1068     		ldr	r0, [r2]	@ unaligned
 3578 013e 5168     		ldr	r1, [r2, #4]	@ unaligned
 3579 0140 03C3     		stmia	r3!, {r0, r1}
 3580 0142 7046     		mov	r0, lr
 3581 0144 3146     		mov	r1, r6
 3582 0146 2A46     		mov	r2, r5
 3583 0148 2346     		mov	r3, r4
 3584 014a FFF7FEFF 		bl	DisplayOutputString


 3585 014e 0346     		mov	r3, r0
 3586 0150 1A46     		mov	r2, r3
 3587 0152 BB68     		ldr	r3, [r7, #8]
 3588 0154 5A80     		strh	r2, [r3, #2]	@ movhi
 766:.\DisplayUtils.c ****                 puartdisp->_messagestate = PENDING;
 3589              		.loc 1 766 0
 3590 0156 BB68     		ldr	r3, [r7, #8]
 3591 0158 C222     		movs	r2, #194
 3592 015a 1A70     		strb	r2, [r3]
 3593              	.L217:
 3594              	.LBE14:
 3595              	.LBE12:
 767:.\DisplayUtils.c ****             }
 768:.\DisplayUtils.c ****         }
 769:.\DisplayUtils.c ****         
 770:.\DisplayUtils.c ****     }
 771:.\DisplayUtils.c **** }
 3596              		.loc 1 771 0
 3597 015c 1C37     		adds	r7, r7, #28
 3598              		.cfi_def_cfa_offset 20
 3599 015e BD46     		mov	sp, r7
 3600              		.cfi_def_cfa_register 13
 3601              		@ sp needed
 3602 0160 F0BD     		pop	{r4, r5, r6, r7, pc}
 3603              		.cfi_endproc
 3604              	.LFE85:
 3605              		.size	DisplayIDInputHandler, .-DisplayIDInputHandler
 3606 0162 00BF     		.section	.text.DisplayNumericInputHandler,"ax",%progbits
 3607              		.align	2
 3608              		.global	DisplayNumericInputHandler
 3609              		.thumb
 3610              		.thumb_func
 3611              		.type	DisplayNumericInputHandler, %function
 3612              	DisplayNumericInputHandler:
 3613              	.LFB86:
 772:.\DisplayUtils.c **** 
 773:.\DisplayUtils.c **** //@Created by: HIJH
 774:.\DisplayUtils.c **** //@Date: Septembre de 2016
 775:.\DisplayUtils.c **** //This method handles numeric input data typed in a InputBox
 776:.\DisplayUtils.c **** void DisplayNumericInputHandler(void *pparam)
 777:.\DisplayUtils.c **** {
 3614              		.loc 1 777 0
 3615              		.cfi_startproc
 3616              		@ args = 0, pretend = 0, frame = 48
 3617              		@ frame_needed = 1, uses_anonymous_args = 0
 3618 0000 F0B5     		push	{r4, r5, r6, r7, lr}
 3619              		.cfi_def_cfa_offset 20
 3620              		.cfi_offset 4, -20
 3621              		.cfi_offset 5, -16
 3622              		.cfi_offset 6, -12
 3623              		.cfi_offset 7, -8
 3624              		.cfi_offset 14, -4
 3625 0002 91B0     		sub	sp, sp, #68
 3626              		.cfi_def_cfa_offset 88
 3627 0004 04AF     		add	r7, sp, #16
 3628              		.cfi_def_cfa 7, 72
 3629 0006 7860     		str	r0, [r7, #4]


 778:.\DisplayUtils.c ****     DisplayLayout *pdisplay = (DisplayLayout*)pparam;
 3630              		.loc 1 778 0
 3631 0008 7B68     		ldr	r3, [r7, #4]
 3632 000a BB62     		str	r3, [r7, #40]
 779:.\DisplayUtils.c ****     if(pdisplay)
 3633              		.loc 1 779 0
 3634 000c BB6A     		ldr	r3, [r7, #40]
 3635 000e 002B     		cmp	r3, #0
 3636 0010 00F0E580 		beq	.L227
 3637              	.LBB15:
 780:.\DisplayUtils.c ****     {
 781:.\DisplayUtils.c ****         char8 mappedchar = 0x00;
 3638              		.loc 1 781 0
 3639 0014 0023     		movs	r3, #0
 3640 0016 87F82F30 		strb	r3, [r7, #47]
 782:.\DisplayUtils.c ****         //This is since 0x0B has been defined as "Cancel" in the keypad
 783:.\DisplayUtils.c ****         if(pdisplay->_currscrcode == 0x0B)
 3641              		.loc 1 783 0
 3642 001a BB6A     		ldr	r3, [r7, #40]
 3643 001c DB78     		ldrb	r3, [r3, #3]	@ zero_extendqisi2
 3644 001e 0B2B     		cmp	r3, #11
 3645 0020 0AD1     		bne	.L229
 784:.\DisplayUtils.c ****         {
 785:.\DisplayUtils.c ****             pdisplay->_bufferinfo._bufferindex = 0;
 3646              		.loc 1 785 0
 3647 0022 BB6A     		ldr	r3, [r7, #40]
 3648 0024 0022     		movs	r2, #0
 3649 0026 1A77     		strb	r2, [r3, #28]
 786:.\DisplayUtils.c ****             memset(pdisplay->_bufferinfo._buffer, 0x00, _DISPLAY_BUFFER_SIZE_);
 3650              		.loc 1 786 0
 3651 0028 BB6A     		ldr	r3, [r7, #40]
 3652 002a 1D33     		adds	r3, r3, #29
 3653 002c 1846     		mov	r0, r3
 3654 002e 0021     		movs	r1, #0
 3655 0030 1022     		movs	r2, #16
 3656 0032 FFF7FEFF 		bl	memset
 3657 0036 48E0     		b	.L230
 3658              	.L229:
 3659              	.LBB16:
 787:.\DisplayUtils.c ****         }
 788:.\DisplayUtils.c ****         else
 789:.\DisplayUtils.c ****         {
 790:.\DisplayUtils.c ****             mappedchar = UnmapCode(pdisplay->_currscrcode);
 3660              		.loc 1 790 0
 3661 0038 BB6A     		ldr	r3, [r7, #40]
 3662 003a DB78     		ldrb	r3, [r3, #3]	@ zero_extendqisi2
 3663 003c 1846     		mov	r0, r3
 3664 003e FFF7FEFF 		bl	UnmapCode
 3665 0042 0346     		mov	r3, r0
 3666 0044 87F82F30 		strb	r3, [r7, #47]
 791:.\DisplayUtils.c ****             
 792:.\DisplayUtils.c ****             //No zeros allowed as left most significant digits
 793:.\DisplayUtils.c ****             if((mappedchar <= 0x30 || mappedchar > 0x39) && (pdisplay->_bufferinfo._bufferindex == 
 3667              		.loc 1 793 0
 3668 0048 97F82F30 		ldrb	r3, [r7, #47]	@ zero_extendqisi2
 3669 004c 302B     		cmp	r3, #48
 3670 004e 03D9     		bls	.L231


 3671              		.loc 1 793 0 is_stmt 0 discriminator 2
 3672 0050 97F82F30 		ldrb	r3, [r7, #47]	@ zero_extendqisi2
 3673 0054 392B     		cmp	r3, #57
 3674 0056 04D9     		bls	.L232
 3675              	.L231:
 3676              		.loc 1 793 0 discriminator 3
 3677 0058 BB6A     		ldr	r3, [r7, #40]
 3678 005a 1B7F     		ldrb	r3, [r3, #28]	@ zero_extendqisi2
 3679 005c 002B     		cmp	r3, #0
 3680 005e 00D1     		bne	.L232
 794:.\DisplayUtils.c ****                 return;
 3681              		.loc 1 794 0 is_stmt 1
 3682 0060 BDE0     		b	.L227
 3683              	.L232:
 795:.\DisplayUtils.c ****             
 796:.\DisplayUtils.c ****             //Just one decimal delimiter allowed
 797:.\DisplayUtils.c ****             if(strchr(pdisplay->_bufferinfo._buffer, (char8)',') && (mappedchar == (char8)','))
 3684              		.loc 1 797 0
 3685 0062 BB6A     		ldr	r3, [r7, #40]
 3686 0064 1D33     		adds	r3, r3, #29
 3687 0066 1846     		mov	r0, r3
 3688 0068 2C21     		movs	r1, #44
 3689 006a FFF7FEFF 		bl	strchr
 3690 006e 0346     		mov	r3, r0
 3691 0070 002B     		cmp	r3, #0
 3692 0072 04D0     		beq	.L234
 3693              		.loc 1 797 0 is_stmt 0 discriminator 1
 3694 0074 97F82F30 		ldrb	r3, [r7, #47]	@ zero_extendqisi2
 3695 0078 2C2B     		cmp	r3, #44
 3696 007a 00D1     		bne	.L234
 798:.\DisplayUtils.c ****                 return;
 3697              		.loc 1 798 0 is_stmt 1
 3698 007c AFE0     		b	.L227
 3699              	.L234:
 799:.\DisplayUtils.c **** 
 800:.\DisplayUtils.c ****             //Just _MAX_DECIMALS_ decimals allowed
 801:.\DisplayUtils.c ****             char tempbuffer[16];
 802:.\DisplayUtils.c ****             memset(tempbuffer, 0x00, 16);
 3700              		.loc 1 802 0
 3701 007e 07F10C03 		add	r3, r7, #12
 3702 0082 1846     		mov	r0, r3
 3703 0084 0021     		movs	r1, #0
 3704 0086 1022     		movs	r2, #16
 3705 0088 FFF7FEFF 		bl	memset
 803:.\DisplayUtils.c ****             memcpy(tempbuffer, pdisplay->_bufferinfo._buffer, pdisplay->_bufferinfo._bufferindex);
 3706              		.loc 1 803 0
 3707 008c BB6A     		ldr	r3, [r7, #40]
 3708 008e 03F11D02 		add	r2, r3, #29
 3709 0092 BB6A     		ldr	r3, [r7, #40]
 3710 0094 1B7F     		ldrb	r3, [r3, #28]	@ zero_extendqisi2
 3711 0096 1C46     		mov	r4, r3
 3712 0098 07F10C03 		add	r3, r7, #12
 3713 009c 1846     		mov	r0, r3
 3714 009e 1146     		mov	r1, r2
 3715 00a0 2246     		mov	r2, r4
 3716 00a2 FFF7FEFF 		bl	memcpy
 804:.\DisplayUtils.c ****             char *ptrpos = strchr(tempbuffer, (char8)',');


 3717              		.loc 1 804 0
 3718 00a6 07F10C03 		add	r3, r7, #12
 3719 00aa 1846     		mov	r0, r3
 3720 00ac 2C21     		movs	r1, #44
 3721 00ae FFF7FEFF 		bl	strchr
 3722 00b2 7862     		str	r0, [r7, #36]
 805:.\DisplayUtils.c ****             if(ptrpos)
 3723              		.loc 1 805 0
 3724 00b4 7B6A     		ldr	r3, [r7, #36]
 3725 00b6 002B     		cmp	r3, #0
 3726 00b8 07D0     		beq	.L230
 806:.\DisplayUtils.c ****                 if(strlen(ptrpos) > _MAX_DECIMALS_)
 3727              		.loc 1 806 0
 3728 00ba 786A     		ldr	r0, [r7, #36]
 3729 00bc FFF7FEFF 		bl	strlen
 3730 00c0 0346     		mov	r3, r0
 3731 00c2 012B     		cmp	r3, #1
 3732 00c4 01D9     		bls	.L230
 807:.\DisplayUtils.c ****                     return;
 3733              		.loc 1 807 0
 3734 00c6 00BF     		nop
 3735 00c8 89E0     		b	.L227
 3736              	.L230:
 3737              	.LBE16:
 808:.\DisplayUtils.c ****         }
 809:.\DisplayUtils.c ****         
 810:.\DisplayUtils.c ****         if(pdisplay->_bufferinfo._bufferindex == 0)
 3738              		.loc 1 810 0
 3739 00ca BB6A     		ldr	r3, [r7, #40]
 3740 00cc 1B7F     		ldrb	r3, [r3, #28]	@ zero_extendqisi2
 3741 00ce 002B     		cmp	r3, #0
 3742 00d0 10D1     		bne	.L236
 811:.\DisplayUtils.c ****         {
 812:.\DisplayUtils.c ****             pdisplay->_bufferinfo._xpos = pdisplay->_pcurrflow->_inputboxinfo._xdefpos;
 3743              		.loc 1 812 0
 3744 00d2 BB6A     		ldr	r3, [r7, #40]
 3745 00d4 1B69     		ldr	r3, [r3, #16]
 3746 00d6 9A8D     		ldrh	r2, [r3, #44]
 3747 00d8 BB6A     		ldr	r3, [r7, #40]
 3748 00da 1A83     		strh	r2, [r3, #24]	@ movhi
 813:.\DisplayUtils.c ****             pdisplay->_bufferinfo._ypos = pdisplay->_pcurrflow->_inputboxinfo._ydefpos;
 3749              		.loc 1 813 0
 3750 00dc BB6A     		ldr	r3, [r7, #40]
 3751 00de 1B69     		ldr	r3, [r3, #16]
 3752 00e0 DA8D     		ldrh	r2, [r3, #46]
 3753 00e2 BB6A     		ldr	r3, [r7, #40]
 3754 00e4 5A83     		strh	r2, [r3, #26]	@ movhi
 814:.\DisplayUtils.c ****             memset(pdisplay->_bufferinfo._buffer, ' ', _DISPLAY_BUFFER_SIZE_);
 3755              		.loc 1 814 0
 3756 00e6 BB6A     		ldr	r3, [r7, #40]
 3757 00e8 1D33     		adds	r3, r3, #29
 3758 00ea 1846     		mov	r0, r3
 3759 00ec 2021     		movs	r1, #32
 3760 00ee 1022     		movs	r2, #16
 3761 00f0 FFF7FEFF 		bl	memset
 3762              	.L236:
 815:.\DisplayUtils.c ****         }


 816:.\DisplayUtils.c ****         //The InputBox is already filled up!
 817:.\DisplayUtils.c ****         if(pdisplay->_bufferinfo._bufferindex >= pdisplay->_pcurrflow->_inputboxinfo._maxchars)
 3763              		.loc 1 817 0
 3764 00f4 BB6A     		ldr	r3, [r7, #40]
 3765 00f6 1A7F     		ldrb	r2, [r3, #28]	@ zero_extendqisi2
 3766 00f8 BB6A     		ldr	r3, [r7, #40]
 3767 00fa 1B69     		ldr	r3, [r3, #16]
 3768 00fc 93F83030 		ldrb	r3, [r3, #48]	@ zero_extendqisi2
 3769 0100 9A42     		cmp	r2, r3
 3770 0102 00D3     		bcc	.L237
 818:.\DisplayUtils.c ****             return;
 3771              		.loc 1 818 0
 3772 0104 6BE0     		b	.L227
 3773              	.L237:
 819:.\DisplayUtils.c ****         
 820:.\DisplayUtils.c ****         //There's nothing new to show up since the unmapper didn't find anything to map to
 821:.\DisplayUtils.c ****         if(mappedchar != 0x00)
 3774              		.loc 1 821 0
 3775 0106 97F82F30 		ldrb	r3, [r7, #47]	@ zero_extendqisi2
 3776 010a 002B     		cmp	r3, #0
 3777 010c 0BD0     		beq	.L238
 822:.\DisplayUtils.c ****             pdisplay->_bufferinfo._buffer[pdisplay->_bufferinfo._bufferindex++] = mappedchar;
 3778              		.loc 1 822 0
 3779 010e BB6A     		ldr	r3, [r7, #40]
 3780 0110 1B7F     		ldrb	r3, [r3, #28]	@ zero_extendqisi2
 3781 0112 5A1C     		adds	r2, r3, #1
 3782 0114 D1B2     		uxtb	r1, r2
 3783 0116 BA6A     		ldr	r2, [r7, #40]
 3784 0118 1177     		strb	r1, [r2, #28]
 3785 011a 1A46     		mov	r2, r3
 3786 011c BB6A     		ldr	r3, [r7, #40]
 3787 011e 1344     		add	r3, r3, r2
 3788 0120 97F82F20 		ldrb	r2, [r7, #47]
 3789 0124 5A77     		strb	r2, [r3, #29]
 3790              	.L238:
 823:.\DisplayUtils.c ****         
 824:.\DisplayUtils.c ****         if(pdisplay->_dispid == DISPLAY1)
 3791              		.loc 1 824 0
 3792 0126 BB6A     		ldr	r3, [r7, #40]
 3793 0128 1B78     		ldrb	r3, [r3]	@ zero_extendqisi2
 3794 012a 002B     		cmp	r3, #0
 3795 012c 2CD1     		bne	.L239
 3796              	.LBB17:
 825:.\DisplayUtils.c ****         {
 826:.\DisplayUtils.c ****             UARTMessage *puartdisp = GetUARTMessageSlot(UART_DISPLAY1);
 3797              		.loc 1 826 0
 3798 012e A320     		movs	r0, #163
 3799 0130 FFF7FEFF 		bl	GetUARTMessageSlot
 3800 0134 3862     		str	r0, [r7, #32]
 827:.\DisplayUtils.c ****             if(puartdisp)
 3801              		.loc 1 827 0
 3802 0136 3B6A     		ldr	r3, [r7, #32]
 3803 0138 002B     		cmp	r3, #0
 3804 013a 24D0     		beq	.L240
 828:.\DisplayUtils.c ****             {
 829:.\DisplayUtils.c ****                 puartdisp->_messagelength = DisplayOutputString(pdisplay->_bufferinfo._xpos, pdispl
 3805              		.loc 1 829 0


 3806 013c BB6A     		ldr	r3, [r7, #40]
 3807 013e B3F818E0 		ldrh	lr, [r3, #24]
 3808 0142 BB6A     		ldr	r3, [r7, #40]
 3809 0144 5E8B     		ldrh	r6, [r3, #26]
 3810 0146 3B6A     		ldr	r3, [r7, #32]
 3811 0148 1D1D     		adds	r5, r3, #4
 3812 014a BB6A     		ldr	r3, [r7, #40]
 3813 014c 03F11D04 		add	r4, r3, #29
 3814 0150 BB6A     		ldr	r3, [r7, #40]
 3815 0152 1B69     		ldr	r3, [r3, #16]
 3816 0154 93F83030 		ldrb	r3, [r3, #48]	@ zero_extendqisi2
 3817 0158 9BB2     		uxth	r3, r3
 3818 015a BA6A     		ldr	r2, [r7, #40]
 3819 015c 1269     		ldr	r2, [r2, #16]
 3820 015e 0093     		str	r3, [sp]
 3821 0160 01AB     		add	r3, sp, #4
 3822 0162 3232     		adds	r2, r2, #50
 3823 0164 1068     		ldr	r0, [r2]	@ unaligned
 3824 0166 5168     		ldr	r1, [r2, #4]	@ unaligned
 3825 0168 03C3     		stmia	r3!, {r0, r1}
 3826 016a 7046     		mov	r0, lr
 3827 016c 3146     		mov	r1, r6
 3828 016e 2A46     		mov	r2, r5
 3829 0170 2346     		mov	r3, r4
 3830 0172 FFF7FEFF 		bl	DisplayOutputString
 3831 0176 0346     		mov	r3, r0
 3832 0178 1A46     		mov	r2, r3
 3833 017a 3B6A     		ldr	r3, [r7, #32]
 3834 017c 5A80     		strh	r2, [r3, #2]	@ movhi
 830:.\DisplayUtils.c ****                 puartdisp->_messagestate = PENDING;
 3835              		.loc 1 830 0
 3836 017e 3B6A     		ldr	r3, [r7, #32]
 3837 0180 C222     		movs	r2, #194
 3838 0182 1A70     		strb	r2, [r3]
 3839              	.LBE17:
 3840 0184 2BE0     		b	.L227
 3841              	.L240:
 3842 0186 2AE0     		b	.L227
 3843              	.L239:
 3844              	.LBB18:
 831:.\DisplayUtils.c ****             }
 832:.\DisplayUtils.c ****         }
 833:.\DisplayUtils.c ****         else
 834:.\DisplayUtils.c ****         {
 835:.\DisplayUtils.c ****             UARTMessage *puartdisp = GetUARTMessageSlot(UART_DISPLAY2);
 3845              		.loc 1 835 0
 3846 0188 A420     		movs	r0, #164
 3847 018a FFF7FEFF 		bl	GetUARTMessageSlot
 3848 018e F861     		str	r0, [r7, #28]
 836:.\DisplayUtils.c ****             if(puartdisp)
 3849              		.loc 1 836 0
 3850 0190 FB69     		ldr	r3, [r7, #28]
 3851 0192 002B     		cmp	r3, #0
 3852 0194 23D0     		beq	.L227
 837:.\DisplayUtils.c ****             {
 838:.\DisplayUtils.c ****                 puartdisp->_messagelength = DisplayOutputString(pdisplay->_bufferinfo._xpos, pdispl
 3853              		.loc 1 838 0


 3854 0196 BB6A     		ldr	r3, [r7, #40]
 3855 0198 B3F818E0 		ldrh	lr, [r3, #24]
 3856 019c BB6A     		ldr	r3, [r7, #40]
 3857 019e 5E8B     		ldrh	r6, [r3, #26]
 3858 01a0 FB69     		ldr	r3, [r7, #28]
 3859 01a2 1D1D     		adds	r5, r3, #4
 3860 01a4 BB6A     		ldr	r3, [r7, #40]
 3861 01a6 03F11D04 		add	r4, r3, #29
 3862 01aa BB6A     		ldr	r3, [r7, #40]
 3863 01ac 1B69     		ldr	r3, [r3, #16]
 3864 01ae 93F83030 		ldrb	r3, [r3, #48]	@ zero_extendqisi2
 3865 01b2 9BB2     		uxth	r3, r3
 3866 01b4 BA6A     		ldr	r2, [r7, #40]
 3867 01b6 1269     		ldr	r2, [r2, #16]
 3868 01b8 0093     		str	r3, [sp]
 3869 01ba 01AB     		add	r3, sp, #4
 3870 01bc 3232     		adds	r2, r2, #50
 3871 01be 1068     		ldr	r0, [r2]	@ unaligned
 3872 01c0 5168     		ldr	r1, [r2, #4]	@ unaligned
 3873 01c2 03C3     		stmia	r3!, {r0, r1}
 3874 01c4 7046     		mov	r0, lr
 3875 01c6 3146     		mov	r1, r6
 3876 01c8 2A46     		mov	r2, r5
 3877 01ca 2346     		mov	r3, r4
 3878 01cc FFF7FEFF 		bl	DisplayOutputString
 3879 01d0 0346     		mov	r3, r0
 3880 01d2 1A46     		mov	r2, r3
 3881 01d4 FB69     		ldr	r3, [r7, #28]
 3882 01d6 5A80     		strh	r2, [r3, #2]	@ movhi
 839:.\DisplayUtils.c ****                 puartdisp->_messagestate = PENDING;
 3883              		.loc 1 839 0
 3884 01d8 FB69     		ldr	r3, [r7, #28]
 3885 01da C222     		movs	r2, #194
 3886 01dc 1A70     		strb	r2, [r3]
 3887              	.L227:
 3888              	.LBE18:
 3889              	.LBE15:
 840:.\DisplayUtils.c ****             }
 841:.\DisplayUtils.c ****         }
 842:.\DisplayUtils.c ****         
 843:.\DisplayUtils.c ****     }
 844:.\DisplayUtils.c **** }
 3890              		.loc 1 844 0
 3891 01de 3437     		adds	r7, r7, #52
 3892              		.cfi_def_cfa_offset 20
 3893 01e0 BD46     		mov	sp, r7
 3894              		.cfi_def_cfa_register 13
 3895              		@ sp needed
 3896 01e2 F0BD     		pop	{r4, r5, r6, r7, pc}
 3897              		.cfi_endproc
 3898              	.LFE86:
 3899              		.size	DisplayNumericInputHandler, .-DisplayNumericInputHandler
 3900              		.section	.text.DisplayIntegerInputHandler,"ax",%progbits
 3901              		.align	2
 3902              		.global	DisplayIntegerInputHandler
 3903              		.thumb
 3904              		.thumb_func


 3905              		.type	DisplayIntegerInputHandler, %function
 3906              	DisplayIntegerInputHandler:
 3907              	.LFB87:
 845:.\DisplayUtils.c **** 
 846:.\DisplayUtils.c **** //@Created by: HIJH
 847:.\DisplayUtils.c **** //@Date: Septembre de 2016
 848:.\DisplayUtils.c **** //This method handles numeric input data typed in a InputBox
 849:.\DisplayUtils.c **** void DisplayIntegerInputHandler(void *pparam)
 850:.\DisplayUtils.c **** {
 3908              		.loc 1 850 0
 3909              		.cfi_startproc
 3910              		@ args = 0, pretend = 0, frame = 24
 3911              		@ frame_needed = 1, uses_anonymous_args = 0
 3912 0000 F0B5     		push	{r4, r5, r6, r7, lr}
 3913              		.cfi_def_cfa_offset 20
 3914              		.cfi_offset 4, -20
 3915              		.cfi_offset 5, -16
 3916              		.cfi_offset 6, -12
 3917              		.cfi_offset 7, -8
 3918              		.cfi_offset 14, -4
 3919 0002 8BB0     		sub	sp, sp, #44
 3920              		.cfi_def_cfa_offset 64
 3921 0004 04AF     		add	r7, sp, #16
 3922              		.cfi_def_cfa 7, 48
 3923 0006 7860     		str	r0, [r7, #4]
 851:.\DisplayUtils.c ****     DisplayLayout *pdisplay = (DisplayLayout*)pparam;
 3924              		.loc 1 851 0
 3925 0008 7B68     		ldr	r3, [r7, #4]
 3926 000a 3B61     		str	r3, [r7, #16]
 852:.\DisplayUtils.c ****     if(pdisplay)
 3927              		.loc 1 852 0
 3928 000c 3B69     		ldr	r3, [r7, #16]
 3929 000e 002B     		cmp	r3, #0
 3930 0010 00F0A880 		beq	.L241
 3931              	.LBB19:
 853:.\DisplayUtils.c ****     {
 854:.\DisplayUtils.c ****         char8 mappedchar = 0x00;
 3932              		.loc 1 854 0
 3933 0014 0023     		movs	r3, #0
 3934 0016 FB75     		strb	r3, [r7, #23]
 855:.\DisplayUtils.c ****         //This is since 0x0B has been defined as "Cancel" in the keypad
 856:.\DisplayUtils.c ****         if(pdisplay->_currscrcode == 0x0B)
 3935              		.loc 1 856 0
 3936 0018 3B69     		ldr	r3, [r7, #16]
 3937 001a DB78     		ldrb	r3, [r3, #3]	@ zero_extendqisi2
 3938 001c 0B2B     		cmp	r3, #11
 3939 001e 03D1     		bne	.L243
 857:.\DisplayUtils.c ****             pdisplay->_bufferinfo._bufferindex = 0;
 3940              		.loc 1 857 0
 3941 0020 3B69     		ldr	r3, [r7, #16]
 3942 0022 0022     		movs	r2, #0
 3943 0024 1A77     		strb	r2, [r3, #28]
 3944 0026 15E0     		b	.L244
 3945              	.L243:
 858:.\DisplayUtils.c ****         else
 859:.\DisplayUtils.c ****         {
 860:.\DisplayUtils.c ****             mappedchar = UnmapCode(pdisplay->_currscrcode);


 3946              		.loc 1 860 0
 3947 0028 3B69     		ldr	r3, [r7, #16]
 3948 002a DB78     		ldrb	r3, [r3, #3]	@ zero_extendqisi2
 3949 002c 1846     		mov	r0, r3
 3950 002e FFF7FEFF 		bl	UnmapCode
 3951 0032 0346     		mov	r3, r0
 3952 0034 FB75     		strb	r3, [r7, #23]
 861:.\DisplayUtils.c ****             
 862:.\DisplayUtils.c ****             //No zeros allowed as left most significant digits
 863:.\DisplayUtils.c ****             if((mappedchar <= 0x30 || mappedchar > 0x39) && (pdisplay->_bufferinfo._bufferindex == 
 3953              		.loc 1 863 0
 3954 0036 FB7D     		ldrb	r3, [r7, #23]	@ zero_extendqisi2
 3955 0038 302B     		cmp	r3, #48
 3956 003a 02D9     		bls	.L245
 3957              		.loc 1 863 0 is_stmt 0 discriminator 2
 3958 003c FB7D     		ldrb	r3, [r7, #23]	@ zero_extendqisi2
 3959 003e 392B     		cmp	r3, #57
 3960 0040 04D9     		bls	.L246
 3961              	.L245:
 3962              		.loc 1 863 0 discriminator 3
 3963 0042 3B69     		ldr	r3, [r7, #16]
 3964 0044 1B7F     		ldrb	r3, [r3, #28]	@ zero_extendqisi2
 3965 0046 002B     		cmp	r3, #0
 3966 0048 00D1     		bne	.L246
 864:.\DisplayUtils.c ****                 return;
 3967              		.loc 1 864 0 is_stmt 1
 3968 004a 8BE0     		b	.L241
 3969              	.L246:
 865:.\DisplayUtils.c ****             
 866:.\DisplayUtils.c ****             //Just one decimal delimiter allowed
 867:.\DisplayUtils.c ****             if(mappedchar == (char8)',')
 3970              		.loc 1 867 0
 3971 004c FB7D     		ldrb	r3, [r7, #23]	@ zero_extendqisi2
 3972 004e 2C2B     		cmp	r3, #44
 3973 0050 00D1     		bne	.L244
 868:.\DisplayUtils.c ****                 return;
 3974              		.loc 1 868 0 discriminator 2
 3975 0052 87E0     		b	.L241
 3976              	.L244:
 869:.\DisplayUtils.c **** 
 870:.\DisplayUtils.c ****         }
 871:.\DisplayUtils.c ****         
 872:.\DisplayUtils.c ****         if(pdisplay->_bufferinfo._bufferindex == 0)
 3977              		.loc 1 872 0
 3978 0054 3B69     		ldr	r3, [r7, #16]
 3979 0056 1B7F     		ldrb	r3, [r3, #28]	@ zero_extendqisi2
 3980 0058 002B     		cmp	r3, #0
 3981 005a 10D1     		bne	.L247
 873:.\DisplayUtils.c ****         {
 874:.\DisplayUtils.c ****             pdisplay->_bufferinfo._xpos = pdisplay->_pcurrflow->_inputboxinfo._xdefpos;
 3982              		.loc 1 874 0
 3983 005c 3B69     		ldr	r3, [r7, #16]
 3984 005e 1B69     		ldr	r3, [r3, #16]
 3985 0060 9A8D     		ldrh	r2, [r3, #44]
 3986 0062 3B69     		ldr	r3, [r7, #16]
 3987 0064 1A83     		strh	r2, [r3, #24]	@ movhi
 875:.\DisplayUtils.c ****             pdisplay->_bufferinfo._ypos = pdisplay->_pcurrflow->_inputboxinfo._ydefpos;


 3988              		.loc 1 875 0
 3989 0066 3B69     		ldr	r3, [r7, #16]
 3990 0068 1B69     		ldr	r3, [r3, #16]
 3991 006a DA8D     		ldrh	r2, [r3, #46]
 3992 006c 3B69     		ldr	r3, [r7, #16]
 3993 006e 5A83     		strh	r2, [r3, #26]	@ movhi
 876:.\DisplayUtils.c ****             memset(pdisplay->_bufferinfo._buffer, ' ', _DISPLAY_BUFFER_SIZE_);
 3994              		.loc 1 876 0
 3995 0070 3B69     		ldr	r3, [r7, #16]
 3996 0072 1D33     		adds	r3, r3, #29
 3997 0074 1846     		mov	r0, r3
 3998 0076 2021     		movs	r1, #32
 3999 0078 1022     		movs	r2, #16
 4000 007a FFF7FEFF 		bl	memset
 4001              	.L247:
 877:.\DisplayUtils.c ****         }
 878:.\DisplayUtils.c ****         //The InputBox is already filled up!
 879:.\DisplayUtils.c ****         if(pdisplay->_bufferinfo._bufferindex >= pdisplay->_pcurrflow->_inputboxinfo._maxchars)
 4002              		.loc 1 879 0
 4003 007e 3B69     		ldr	r3, [r7, #16]
 4004 0080 1A7F     		ldrb	r2, [r3, #28]	@ zero_extendqisi2
 4005 0082 3B69     		ldr	r3, [r7, #16]
 4006 0084 1B69     		ldr	r3, [r3, #16]
 4007 0086 93F83030 		ldrb	r3, [r3, #48]	@ zero_extendqisi2
 4008 008a 9A42     		cmp	r2, r3
 4009 008c 00D3     		bcc	.L248
 880:.\DisplayUtils.c ****             return;
 4010              		.loc 1 880 0 discriminator 3
 4011 008e 69E0     		b	.L241
 4012              	.L248:
 881:.\DisplayUtils.c ****         
 882:.\DisplayUtils.c ****         //There's nothing new to show up since the unmapper didn't find anything to map to
 883:.\DisplayUtils.c ****         if(mappedchar != 0x00)
 4013              		.loc 1 883 0
 4014 0090 FB7D     		ldrb	r3, [r7, #23]	@ zero_extendqisi2
 4015 0092 002B     		cmp	r3, #0
 4016 0094 0AD0     		beq	.L249
 884:.\DisplayUtils.c ****             pdisplay->_bufferinfo._buffer[pdisplay->_bufferinfo._bufferindex++] = mappedchar;
 4017              		.loc 1 884 0
 4018 0096 3B69     		ldr	r3, [r7, #16]
 4019 0098 1B7F     		ldrb	r3, [r3, #28]	@ zero_extendqisi2
 4020 009a 5A1C     		adds	r2, r3, #1
 4021 009c D1B2     		uxtb	r1, r2
 4022 009e 3A69     		ldr	r2, [r7, #16]
 4023 00a0 1177     		strb	r1, [r2, #28]
 4024 00a2 1A46     		mov	r2, r3
 4025 00a4 3B69     		ldr	r3, [r7, #16]
 4026 00a6 1344     		add	r3, r3, r2
 4027 00a8 FA7D     		ldrb	r2, [r7, #23]
 4028 00aa 5A77     		strb	r2, [r3, #29]
 4029              	.L249:
 885:.\DisplayUtils.c ****         
 886:.\DisplayUtils.c ****         if(pdisplay->_dispid == DISPLAY1)
 4030              		.loc 1 886 0
 4031 00ac 3B69     		ldr	r3, [r7, #16]
 4032 00ae 1B78     		ldrb	r3, [r3]	@ zero_extendqisi2
 4033 00b0 002B     		cmp	r3, #0


 4034 00b2 2CD1     		bne	.L250
 4035              	.LBB20:
 887:.\DisplayUtils.c ****         {
 888:.\DisplayUtils.c ****             UARTMessage *puartdisp = GetUARTMessageSlot(UART_DISPLAY1);
 4036              		.loc 1 888 0
 4037 00b4 A320     		movs	r0, #163
 4038 00b6 FFF7FEFF 		bl	GetUARTMessageSlot
 4039 00ba F860     		str	r0, [r7, #12]
 889:.\DisplayUtils.c ****             if(puartdisp)
 4040              		.loc 1 889 0
 4041 00bc FB68     		ldr	r3, [r7, #12]
 4042 00be 002B     		cmp	r3, #0
 4043 00c0 24D0     		beq	.L251
 890:.\DisplayUtils.c ****             {
 891:.\DisplayUtils.c ****                 puartdisp->_messagelength = DisplayOutputString(pdisplay->_bufferinfo._xpos, pdispl
 4044              		.loc 1 891 0
 4045 00c2 3B69     		ldr	r3, [r7, #16]
 4046 00c4 B3F818E0 		ldrh	lr, [r3, #24]
 4047 00c8 3B69     		ldr	r3, [r7, #16]
 4048 00ca 5E8B     		ldrh	r6, [r3, #26]
 4049 00cc FB68     		ldr	r3, [r7, #12]
 4050 00ce 1D1D     		adds	r5, r3, #4
 4051 00d0 3B69     		ldr	r3, [r7, #16]
 4052 00d2 03F11D04 		add	r4, r3, #29
 4053 00d6 3B69     		ldr	r3, [r7, #16]
 4054 00d8 1B69     		ldr	r3, [r3, #16]
 4055 00da 93F83030 		ldrb	r3, [r3, #48]	@ zero_extendqisi2
 4056 00de 9BB2     		uxth	r3, r3
 4057 00e0 3A69     		ldr	r2, [r7, #16]
 4058 00e2 1269     		ldr	r2, [r2, #16]
 4059 00e4 0093     		str	r3, [sp]
 4060 00e6 01AB     		add	r3, sp, #4
 4061 00e8 3232     		adds	r2, r2, #50
 4062 00ea 1068     		ldr	r0, [r2]	@ unaligned
 4063 00ec 5168     		ldr	r1, [r2, #4]	@ unaligned
 4064 00ee 03C3     		stmia	r3!, {r0, r1}
 4065 00f0 7046     		mov	r0, lr
 4066 00f2 3146     		mov	r1, r6
 4067 00f4 2A46     		mov	r2, r5
 4068 00f6 2346     		mov	r3, r4
 4069 00f8 FFF7FEFF 		bl	DisplayOutputString
 4070 00fc 0346     		mov	r3, r0
 4071 00fe 1A46     		mov	r2, r3
 4072 0100 FB68     		ldr	r3, [r7, #12]
 4073 0102 5A80     		strh	r2, [r3, #2]	@ movhi
 892:.\DisplayUtils.c ****                 puartdisp->_messagestate = PENDING;
 4074              		.loc 1 892 0
 4075 0104 FB68     		ldr	r3, [r7, #12]
 4076 0106 C222     		movs	r2, #194
 4077 0108 1A70     		strb	r2, [r3]
 4078              	.LBE20:
 4079 010a 2BE0     		b	.L241
 4080              	.L251:
 4081 010c 2AE0     		b	.L241
 4082              	.L250:
 4083              	.LBB21:
 893:.\DisplayUtils.c ****             }


 894:.\DisplayUtils.c ****         }
 895:.\DisplayUtils.c ****         else
 896:.\DisplayUtils.c ****         {
 897:.\DisplayUtils.c ****             UARTMessage *puartdisp = GetUARTMessageSlot(UART_DISPLAY2);
 4084              		.loc 1 897 0
 4085 010e A420     		movs	r0, #164
 4086 0110 FFF7FEFF 		bl	GetUARTMessageSlot
 4087 0114 B860     		str	r0, [r7, #8]
 898:.\DisplayUtils.c ****             if(puartdisp)
 4088              		.loc 1 898 0
 4089 0116 BB68     		ldr	r3, [r7, #8]
 4090 0118 002B     		cmp	r3, #0
 4091 011a 23D0     		beq	.L241
 899:.\DisplayUtils.c ****             {
 900:.\DisplayUtils.c ****                 puartdisp->_messagelength = DisplayOutputString(pdisplay->_bufferinfo._xpos, pdispl
 4092              		.loc 1 900 0
 4093 011c 3B69     		ldr	r3, [r7, #16]
 4094 011e B3F818E0 		ldrh	lr, [r3, #24]
 4095 0122 3B69     		ldr	r3, [r7, #16]
 4096 0124 5E8B     		ldrh	r6, [r3, #26]
 4097 0126 BB68     		ldr	r3, [r7, #8]
 4098 0128 1D1D     		adds	r5, r3, #4
 4099 012a 3B69     		ldr	r3, [r7, #16]
 4100 012c 03F11D04 		add	r4, r3, #29
 4101 0130 3B69     		ldr	r3, [r7, #16]
 4102 0132 1B69     		ldr	r3, [r3, #16]
 4103 0134 93F83030 		ldrb	r3, [r3, #48]	@ zero_extendqisi2
 4104 0138 9BB2     		uxth	r3, r3
 4105 013a 3A69     		ldr	r2, [r7, #16]
 4106 013c 1269     		ldr	r2, [r2, #16]
 4107 013e 0093     		str	r3, [sp]
 4108 0140 01AB     		add	r3, sp, #4
 4109 0142 3232     		adds	r2, r2, #50
 4110 0144 1068     		ldr	r0, [r2]	@ unaligned
 4111 0146 5168     		ldr	r1, [r2, #4]	@ unaligned
 4112 0148 03C3     		stmia	r3!, {r0, r1}
 4113 014a 7046     		mov	r0, lr
 4114 014c 3146     		mov	r1, r6
 4115 014e 2A46     		mov	r2, r5
 4116 0150 2346     		mov	r3, r4
 4117 0152 FFF7FEFF 		bl	DisplayOutputString
 4118 0156 0346     		mov	r3, r0
 4119 0158 1A46     		mov	r2, r3
 4120 015a BB68     		ldr	r3, [r7, #8]
 4121 015c 5A80     		strh	r2, [r3, #2]	@ movhi
 901:.\DisplayUtils.c ****                 puartdisp->_messagestate = PENDING;
 4122              		.loc 1 901 0
 4123 015e BB68     		ldr	r3, [r7, #8]
 4124 0160 C222     		movs	r2, #194
 4125 0162 1A70     		strb	r2, [r3]
 4126              	.L241:
 4127              	.LBE21:
 4128              	.LBE19:
 902:.\DisplayUtils.c ****             }
 903:.\DisplayUtils.c ****         }
 904:.\DisplayUtils.c ****         
 905:.\DisplayUtils.c ****     }


 906:.\DisplayUtils.c **** }
 4129              		.loc 1 906 0
 4130 0164 1C37     		adds	r7, r7, #28
 4131              		.cfi_def_cfa_offset 20
 4132 0166 BD46     		mov	sp, r7
 4133              		.cfi_def_cfa_register 13
 4134              		@ sp needed
 4135 0168 F0BD     		pop	{r4, r5, r6, r7, pc}
 4136              		.cfi_endproc
 4137              	.LFE87:
 4138              		.size	DisplayIntegerInputHandler, .-DisplayIntegerInputHandler
 4139 016a 00BF     		.section	.text.DisplayMoneyInputHandler,"ax",%progbits
 4140              		.align	2
 4141              		.global	DisplayMoneyInputHandler
 4142              		.thumb
 4143              		.thumb_func
 4144              		.type	DisplayMoneyInputHandler, %function
 4145              	DisplayMoneyInputHandler:
 4146              	.LFB88:
 907:.\DisplayUtils.c **** 
 908:.\DisplayUtils.c **** //@Created by: HIJH
 909:.\DisplayUtils.c **** //@Date: Septembre de 2016
 910:.\DisplayUtils.c **** //This method handles numeric input data typed in a InputBox
 911:.\DisplayUtils.c **** void DisplayMoneyInputHandler(void *pparam)
 912:.\DisplayUtils.c **** {
 4147              		.loc 1 912 0
 4148              		.cfi_startproc
 4149              		@ args = 0, pretend = 0, frame = 48
 4150              		@ frame_needed = 1, uses_anonymous_args = 0
 4151 0000 F0B5     		push	{r4, r5, r6, r7, lr}
 4152              		.cfi_def_cfa_offset 20
 4153              		.cfi_offset 4, -20
 4154              		.cfi_offset 5, -16
 4155              		.cfi_offset 6, -12
 4156              		.cfi_offset 7, -8
 4157              		.cfi_offset 14, -4
 4158 0002 91B0     		sub	sp, sp, #68
 4159              		.cfi_def_cfa_offset 88
 4160 0004 04AF     		add	r7, sp, #16
 4161              		.cfi_def_cfa 7, 72
 4162 0006 7860     		str	r0, [r7, #4]
 913:.\DisplayUtils.c ****     DisplayLayout *pdisplay = (DisplayLayout*)pparam;
 4163              		.loc 1 913 0
 4164 0008 7B68     		ldr	r3, [r7, #4]
 4165 000a BB62     		str	r3, [r7, #40]
 914:.\DisplayUtils.c ****     if(pdisplay)
 4166              		.loc 1 914 0
 4167 000c BB6A     		ldr	r3, [r7, #40]
 4168 000e 002B     		cmp	r3, #0
 4169 0010 00F0F280 		beq	.L252
 4170              	.LBB22:
 915:.\DisplayUtils.c ****     {
 916:.\DisplayUtils.c ****         char8 mappedchar = 0x00;
 4171              		.loc 1 916 0
 4172 0014 0023     		movs	r3, #0
 4173 0016 87F82F30 		strb	r3, [r7, #47]
 917:.\DisplayUtils.c ****         //This is since 0x0B has been defined as "Cancel" in the keypad


 918:.\DisplayUtils.c ****         if(pdisplay->_currscrcode == 0x0B)
 4174              		.loc 1 918 0
 4175 001a BB6A     		ldr	r3, [r7, #40]
 4176 001c DB78     		ldrb	r3, [r3, #3]	@ zero_extendqisi2
 4177 001e 0B2B     		cmp	r3, #11
 4178 0020 0AD1     		bne	.L254
 919:.\DisplayUtils.c ****         {
 920:.\DisplayUtils.c ****             pdisplay->_bufferinfo._bufferindex = 0;
 4179              		.loc 1 920 0
 4180 0022 BB6A     		ldr	r3, [r7, #40]
 4181 0024 0022     		movs	r2, #0
 4182 0026 1A77     		strb	r2, [r3, #28]
 921:.\DisplayUtils.c ****             memset(pdisplay->_bufferinfo._buffer, 0x00, _DISPLAY_BUFFER_SIZE_);
 4183              		.loc 1 921 0
 4184 0028 BB6A     		ldr	r3, [r7, #40]
 4185 002a 1D33     		adds	r3, r3, #29
 4186 002c 1846     		mov	r0, r3
 4187 002e 0021     		movs	r1, #0
 4188 0030 1022     		movs	r2, #16
 4189 0032 FFF7FEFF 		bl	memset
 4190 0036 4FE0     		b	.L255
 4191              	.L254:
 4192              	.LBB23:
 922:.\DisplayUtils.c ****         }
 923:.\DisplayUtils.c ****         else
 924:.\DisplayUtils.c ****         {
 925:.\DisplayUtils.c ****             mappedchar = UnmapCode(pdisplay->_currscrcode);
 4193              		.loc 1 925 0
 4194 0038 BB6A     		ldr	r3, [r7, #40]
 4195 003a DB78     		ldrb	r3, [r3, #3]	@ zero_extendqisi2
 4196 003c 1846     		mov	r0, r3
 4197 003e FFF7FEFF 		bl	UnmapCode
 4198 0042 0346     		mov	r3, r0
 4199 0044 87F82F30 		strb	r3, [r7, #47]
 926:.\DisplayUtils.c ****             
 927:.\DisplayUtils.c ****             //No zeros allowed as left most significant digits
 928:.\DisplayUtils.c ****             if((mappedchar <= 0x30 || mappedchar > 0x39) && (pdisplay->_bufferinfo._bufferindex == 
 4200              		.loc 1 928 0
 4201 0048 97F82F30 		ldrb	r3, [r7, #47]	@ zero_extendqisi2
 4202 004c 302B     		cmp	r3, #48
 4203 004e 03D9     		bls	.L256
 4204              		.loc 1 928 0 is_stmt 0 discriminator 2
 4205 0050 97F82F30 		ldrb	r3, [r7, #47]	@ zero_extendqisi2
 4206 0054 392B     		cmp	r3, #57
 4207 0056 04D9     		bls	.L257
 4208              	.L256:
 4209              		.loc 1 928 0 discriminator 3
 4210 0058 BB6A     		ldr	r3, [r7, #40]
 4211 005a 1B7F     		ldrb	r3, [r3, #28]	@ zero_extendqisi2
 4212 005c 002B     		cmp	r3, #0
 4213 005e 00D1     		bne	.L257
 929:.\DisplayUtils.c ****                 return;
 4214              		.loc 1 929 0 is_stmt 1
 4215 0060 CAE0     		b	.L252
 4216              	.L257:
 930:.\DisplayUtils.c ****             
 931:.\DisplayUtils.c ****             //Just one decimal delimiter allowed


 932:.\DisplayUtils.c ****             if(strchr(pdisplay->_bufferinfo._buffer, (char8)',') && (mappedchar == (char8)','))
 4217              		.loc 1 932 0
 4218 0062 BB6A     		ldr	r3, [r7, #40]
 4219 0064 1D33     		adds	r3, r3, #29
 4220 0066 1846     		mov	r0, r3
 4221 0068 2C21     		movs	r1, #44
 4222 006a FFF7FEFF 		bl	strchr
 4223 006e 0346     		mov	r3, r0
 4224 0070 002B     		cmp	r3, #0
 4225 0072 04D0     		beq	.L259
 4226              		.loc 1 932 0 is_stmt 0 discriminator 1
 4227 0074 97F82F30 		ldrb	r3, [r7, #47]	@ zero_extendqisi2
 4228 0078 2C2B     		cmp	r3, #44
 4229 007a 00D1     		bne	.L259
 933:.\DisplayUtils.c ****                 return;
 4230              		.loc 1 933 0 is_stmt 1
 4231 007c BCE0     		b	.L252
 4232              	.L259:
 934:.\DisplayUtils.c **** 
 935:.\DisplayUtils.c ****             //If no decimals are allowed, just return
 936:.\DisplayUtils.c ****             if((_g_dispenserlayoutinfo._moneydecimals == 0) && (mappedchar == (char8)','))
 4233              		.loc 1 936 0
 4234 007e 604B     		ldr	r3, .L268
 4235 0080 DB79     		ldrb	r3, [r3, #7]	@ zero_extendqisi2
 4236 0082 002B     		cmp	r3, #0
 4237 0084 04D1     		bne	.L260
 4238              		.loc 1 936 0 is_stmt 0 discriminator 1
 4239 0086 97F82F30 		ldrb	r3, [r7, #47]	@ zero_extendqisi2
 4240 008a 2C2B     		cmp	r3, #44
 4241 008c 00D1     		bne	.L260
 937:.\DisplayUtils.c ****                 return;
 4242              		.loc 1 937 0 is_stmt 1
 4243 008e B3E0     		b	.L252
 4244              	.L260:
 938:.\DisplayUtils.c ****                         
 939:.\DisplayUtils.c ****             char tempbuffer[16];
 940:.\DisplayUtils.c ****             memset(tempbuffer, 0x00, 16);
 4245              		.loc 1 940 0
 4246 0090 07F10C03 		add	r3, r7, #12
 4247 0094 1846     		mov	r0, r3
 4248 0096 0021     		movs	r1, #0
 4249 0098 1022     		movs	r2, #16
 4250 009a FFF7FEFF 		bl	memset
 941:.\DisplayUtils.c ****             memcpy(tempbuffer, pdisplay->_bufferinfo._buffer, pdisplay->_bufferinfo._bufferindex);
 4251              		.loc 1 941 0
 4252 009e BB6A     		ldr	r3, [r7, #40]
 4253 00a0 03F11D02 		add	r2, r3, #29
 4254 00a4 BB6A     		ldr	r3, [r7, #40]
 4255 00a6 1B7F     		ldrb	r3, [r3, #28]	@ zero_extendqisi2
 4256 00a8 1C46     		mov	r4, r3
 4257 00aa 07F10C03 		add	r3, r7, #12
 4258 00ae 1846     		mov	r0, r3
 4259 00b0 1146     		mov	r1, r2
 4260 00b2 2246     		mov	r2, r4
 4261 00b4 FFF7FEFF 		bl	memcpy
 942:.\DisplayUtils.c ****             char *ptrpos = strchr(tempbuffer, (char8)',');
 4262              		.loc 1 942 0


 4263 00b8 07F10C03 		add	r3, r7, #12
 4264 00bc 1846     		mov	r0, r3
 4265 00be 2C21     		movs	r1, #44
 4266 00c0 FFF7FEFF 		bl	strchr
 4267 00c4 7862     		str	r0, [r7, #36]
 943:.\DisplayUtils.c ****             if(ptrpos)
 4268              		.loc 1 943 0
 4269 00c6 7B6A     		ldr	r3, [r7, #36]
 4270 00c8 002B     		cmp	r3, #0
 4271 00ca 05D0     		beq	.L255
 944:.\DisplayUtils.c ****                 if(strlen(ptrpos) > 0)//_g_dispenserlayoutinfo._moneydecimals)
 4272              		.loc 1 944 0
 4273 00cc 7B6A     		ldr	r3, [r7, #36]
 4274 00ce 1B78     		ldrb	r3, [r3]	@ zero_extendqisi2
 4275 00d0 002B     		cmp	r3, #0
 4276 00d2 01D0     		beq	.L255
 945:.\DisplayUtils.c ****                     return;
 4277              		.loc 1 945 0
 4278 00d4 00BF     		nop
 4279 00d6 8FE0     		b	.L252
 4280              	.L255:
 4281              	.LBE23:
 946:.\DisplayUtils.c ****         }
 947:.\DisplayUtils.c ****         
 948:.\DisplayUtils.c ****         if(pdisplay->_bufferinfo._bufferindex == 0)
 4282              		.loc 1 948 0
 4283 00d8 BB6A     		ldr	r3, [r7, #40]
 4284 00da 1B7F     		ldrb	r3, [r3, #28]	@ zero_extendqisi2
 4285 00dc 002B     		cmp	r3, #0
 4286 00de 10D1     		bne	.L262
 949:.\DisplayUtils.c ****         {
 950:.\DisplayUtils.c ****             pdisplay->_bufferinfo._xpos = pdisplay->_pcurrflow->_inputboxinfo._xdefpos;
 4287              		.loc 1 950 0
 4288 00e0 BB6A     		ldr	r3, [r7, #40]
 4289 00e2 1B69     		ldr	r3, [r3, #16]
 4290 00e4 9A8D     		ldrh	r2, [r3, #44]
 4291 00e6 BB6A     		ldr	r3, [r7, #40]
 4292 00e8 1A83     		strh	r2, [r3, #24]	@ movhi
 951:.\DisplayUtils.c ****             pdisplay->_bufferinfo._ypos = pdisplay->_pcurrflow->_inputboxinfo._ydefpos;
 4293              		.loc 1 951 0
 4294 00ea BB6A     		ldr	r3, [r7, #40]
 4295 00ec 1B69     		ldr	r3, [r3, #16]
 4296 00ee DA8D     		ldrh	r2, [r3, #46]
 4297 00f0 BB6A     		ldr	r3, [r7, #40]
 4298 00f2 5A83     		strh	r2, [r3, #26]	@ movhi
 952:.\DisplayUtils.c ****             memset(pdisplay->_bufferinfo._buffer, ' ', _DISPLAY_BUFFER_SIZE_);
 4299              		.loc 1 952 0
 4300 00f4 BB6A     		ldr	r3, [r7, #40]
 4301 00f6 1D33     		adds	r3, r3, #29
 4302 00f8 1846     		mov	r0, r3
 4303 00fa 2021     		movs	r1, #32
 4304 00fc 1022     		movs	r2, #16
 4305 00fe FFF7FEFF 		bl	memset
 4306              	.L262:
 953:.\DisplayUtils.c ****         }
 954:.\DisplayUtils.c ****         //The InputBox is already filled up!
 955:.\DisplayUtils.c ****         if(pdisplay->_bufferinfo._bufferindex >= pdisplay->_pcurrflow->_inputboxinfo._maxchars || p


 4307              		.loc 1 955 0
 4308 0102 BB6A     		ldr	r3, [r7, #40]
 4309 0104 1A7F     		ldrb	r2, [r3, #28]	@ zero_extendqisi2
 4310 0106 BB6A     		ldr	r3, [r7, #40]
 4311 0108 1B69     		ldr	r3, [r3, #16]
 4312 010a 93F83030 		ldrb	r3, [r3, #48]	@ zero_extendqisi2
 4313 010e 9A42     		cmp	r2, r3
 4314 0110 05D2     		bcs	.L263
 4315              		.loc 1 955 0 is_stmt 0 discriminator 1
 4316 0112 BB6A     		ldr	r3, [r7, #40]
 4317 0114 1A7F     		ldrb	r2, [r3, #28]	@ zero_extendqisi2
 4318 0116 3A4B     		ldr	r3, .L268
 4319 0118 1B7C     		ldrb	r3, [r3, #16]	@ zero_extendqisi2
 4320 011a 9A42     		cmp	r2, r3
 4321 011c 00D3     		bcc	.L264
 4322              	.L263:
 956:.\DisplayUtils.c ****             return;
 4323              		.loc 1 956 0 is_stmt 1
 4324 011e 6BE0     		b	.L252
 4325              	.L264:
 957:.\DisplayUtils.c ****         
 958:.\DisplayUtils.c ****         //There's nothing new to show up since the unmapper didn't find anything to map to
 959:.\DisplayUtils.c ****         if(mappedchar != 0x00)
 4326              		.loc 1 959 0
 4327 0120 97F82F30 		ldrb	r3, [r7, #47]	@ zero_extendqisi2
 4328 0124 002B     		cmp	r3, #0
 4329 0126 0BD0     		beq	.L265
 960:.\DisplayUtils.c ****             pdisplay->_bufferinfo._buffer[pdisplay->_bufferinfo._bufferindex++] = mappedchar;
 4330              		.loc 1 960 0
 4331 0128 BB6A     		ldr	r3, [r7, #40]
 4332 012a 1B7F     		ldrb	r3, [r3, #28]	@ zero_extendqisi2
 4333 012c 5A1C     		adds	r2, r3, #1
 4334 012e D1B2     		uxtb	r1, r2
 4335 0130 BA6A     		ldr	r2, [r7, #40]
 4336 0132 1177     		strb	r1, [r2, #28]
 4337 0134 1A46     		mov	r2, r3
 4338 0136 BB6A     		ldr	r3, [r7, #40]
 4339 0138 1344     		add	r3, r3, r2
 4340 013a 97F82F20 		ldrb	r2, [r7, #47]
 4341 013e 5A77     		strb	r2, [r3, #29]
 4342              	.L265:
 961:.\DisplayUtils.c ****         
 962:.\DisplayUtils.c ****         if(pdisplay->_dispid == DISPLAY1)
 4343              		.loc 1 962 0
 4344 0140 BB6A     		ldr	r3, [r7, #40]
 4345 0142 1B78     		ldrb	r3, [r3]	@ zero_extendqisi2
 4346 0144 002B     		cmp	r3, #0
 4347 0146 2CD1     		bne	.L266
 4348              	.LBB24:
 963:.\DisplayUtils.c ****         {
 964:.\DisplayUtils.c ****             UARTMessage *puartdisp = GetUARTMessageSlot(UART_DISPLAY1);
 4349              		.loc 1 964 0
 4350 0148 A320     		movs	r0, #163
 4351 014a FFF7FEFF 		bl	GetUARTMessageSlot
 4352 014e 3862     		str	r0, [r7, #32]
 965:.\DisplayUtils.c ****             if(puartdisp)
 4353              		.loc 1 965 0


 4354 0150 3B6A     		ldr	r3, [r7, #32]
 4355 0152 002B     		cmp	r3, #0
 4356 0154 24D0     		beq	.L267
 966:.\DisplayUtils.c ****             {
 967:.\DisplayUtils.c ****                 puartdisp->_messagelength = DisplayOutputString(pdisplay->_bufferinfo._xpos, pdispl
 4357              		.loc 1 967 0
 4358 0156 BB6A     		ldr	r3, [r7, #40]
 4359 0158 B3F818E0 		ldrh	lr, [r3, #24]
 4360 015c BB6A     		ldr	r3, [r7, #40]
 4361 015e 5E8B     		ldrh	r6, [r3, #26]
 4362 0160 3B6A     		ldr	r3, [r7, #32]
 4363 0162 1D1D     		adds	r5, r3, #4
 4364 0164 BB6A     		ldr	r3, [r7, #40]
 4365 0166 03F11D04 		add	r4, r3, #29
 4366 016a BB6A     		ldr	r3, [r7, #40]
 4367 016c 1B69     		ldr	r3, [r3, #16]
 4368 016e 93F83030 		ldrb	r3, [r3, #48]	@ zero_extendqisi2
 4369 0172 9BB2     		uxth	r3, r3
 4370 0174 BA6A     		ldr	r2, [r7, #40]
 4371 0176 1269     		ldr	r2, [r2, #16]
 4372 0178 0093     		str	r3, [sp]
 4373 017a 01AB     		add	r3, sp, #4
 4374 017c 3232     		adds	r2, r2, #50
 4375 017e 1068     		ldr	r0, [r2]	@ unaligned
 4376 0180 5168     		ldr	r1, [r2, #4]	@ unaligned
 4377 0182 03C3     		stmia	r3!, {r0, r1}
 4378 0184 7046     		mov	r0, lr
 4379 0186 3146     		mov	r1, r6
 4380 0188 2A46     		mov	r2, r5
 4381 018a 2346     		mov	r3, r4
 4382 018c FFF7FEFF 		bl	DisplayOutputString
 4383 0190 0346     		mov	r3, r0
 4384 0192 1A46     		mov	r2, r3
 4385 0194 3B6A     		ldr	r3, [r7, #32]
 4386 0196 5A80     		strh	r2, [r3, #2]	@ movhi
 968:.\DisplayUtils.c ****                 puartdisp->_messagestate = PENDING;
 4387              		.loc 1 968 0
 4388 0198 3B6A     		ldr	r3, [r7, #32]
 4389 019a C222     		movs	r2, #194
 4390 019c 1A70     		strb	r2, [r3]
 4391              	.LBE24:
 4392 019e 2BE0     		b	.L252
 4393              	.L267:
 4394 01a0 2AE0     		b	.L252
 4395              	.L266:
 4396              	.LBB25:
 969:.\DisplayUtils.c ****             }
 970:.\DisplayUtils.c ****         }
 971:.\DisplayUtils.c ****         else
 972:.\DisplayUtils.c ****         {
 973:.\DisplayUtils.c ****             UARTMessage *puartdisp = GetUARTMessageSlot(UART_DISPLAY2);
 4397              		.loc 1 973 0
 4398 01a2 A420     		movs	r0, #164
 4399 01a4 FFF7FEFF 		bl	GetUARTMessageSlot
 4400 01a8 F861     		str	r0, [r7, #28]
 974:.\DisplayUtils.c ****             if(puartdisp)
 4401              		.loc 1 974 0


 4402 01aa FB69     		ldr	r3, [r7, #28]
 4403 01ac 002B     		cmp	r3, #0
 4404 01ae 23D0     		beq	.L252
 975:.\DisplayUtils.c ****             {
 976:.\DisplayUtils.c ****                 puartdisp->_messagelength = DisplayOutputString(pdisplay->_bufferinfo._xpos, pdispl
 4405              		.loc 1 976 0
 4406 01b0 BB6A     		ldr	r3, [r7, #40]
 4407 01b2 B3F818E0 		ldrh	lr, [r3, #24]
 4408 01b6 BB6A     		ldr	r3, [r7, #40]
 4409 01b8 5E8B     		ldrh	r6, [r3, #26]
 4410 01ba FB69     		ldr	r3, [r7, #28]
 4411 01bc 1D1D     		adds	r5, r3, #4
 4412 01be BB6A     		ldr	r3, [r7, #40]
 4413 01c0 03F11D04 		add	r4, r3, #29
 4414 01c4 BB6A     		ldr	r3, [r7, #40]
 4415 01c6 1B69     		ldr	r3, [r3, #16]
 4416 01c8 93F83030 		ldrb	r3, [r3, #48]	@ zero_extendqisi2
 4417 01cc 9BB2     		uxth	r3, r3
 4418 01ce BA6A     		ldr	r2, [r7, #40]
 4419 01d0 1269     		ldr	r2, [r2, #16]
 4420 01d2 0093     		str	r3, [sp]
 4421 01d4 01AB     		add	r3, sp, #4
 4422 01d6 3232     		adds	r2, r2, #50
 4423 01d8 1068     		ldr	r0, [r2]	@ unaligned
 4424 01da 5168     		ldr	r1, [r2, #4]	@ unaligned
 4425 01dc 03C3     		stmia	r3!, {r0, r1}
 4426 01de 7046     		mov	r0, lr
 4427 01e0 3146     		mov	r1, r6
 4428 01e2 2A46     		mov	r2, r5
 4429 01e4 2346     		mov	r3, r4
 4430 01e6 FFF7FEFF 		bl	DisplayOutputString
 4431 01ea 0346     		mov	r3, r0
 4432 01ec 1A46     		mov	r2, r3
 4433 01ee FB69     		ldr	r3, [r7, #28]
 4434 01f0 5A80     		strh	r2, [r3, #2]	@ movhi
 977:.\DisplayUtils.c ****                 puartdisp->_messagestate = PENDING;
 4435              		.loc 1 977 0
 4436 01f2 FB69     		ldr	r3, [r7, #28]
 4437 01f4 C222     		movs	r2, #194
 4438 01f6 1A70     		strb	r2, [r3]
 4439              	.L252:
 4440              	.LBE25:
 4441              	.LBE22:
 978:.\DisplayUtils.c ****             }
 979:.\DisplayUtils.c ****         }
 980:.\DisplayUtils.c ****         
 981:.\DisplayUtils.c ****     }
 982:.\DisplayUtils.c **** }
 4442              		.loc 1 982 0
 4443 01f8 3437     		adds	r7, r7, #52
 4444              		.cfi_def_cfa_offset 20
 4445 01fa BD46     		mov	sp, r7
 4446              		.cfi_def_cfa_register 13
 4447              		@ sp needed
 4448 01fc F0BD     		pop	{r4, r5, r6, r7, pc}
 4449              	.L269:
 4450 01fe 00BF     		.align	2


 4451              	.L268:
 4452 0200 00000000 		.word	_g_dispenserlayoutinfo
 4453              		.cfi_endproc
 4454              	.LFE88:
 4455              		.size	DisplayMoneyInputHandler, .-DisplayMoneyInputHandler
 4456              		.section	.text.DisplayVolumeInputHandler,"ax",%progbits
 4457              		.align	2
 4458              		.global	DisplayVolumeInputHandler
 4459              		.thumb
 4460              		.thumb_func
 4461              		.type	DisplayVolumeInputHandler, %function
 4462              	DisplayVolumeInputHandler:
 4463              	.LFB89:
 983:.\DisplayUtils.c **** 
 984:.\DisplayUtils.c **** //@Created by: HIJH
 985:.\DisplayUtils.c **** //@Date: Septembre de 2016
 986:.\DisplayUtils.c **** //This method handles numeric input data typed in a InputBox
 987:.\DisplayUtils.c **** void DisplayVolumeInputHandler(void *pparam)
 988:.\DisplayUtils.c **** {
 4464              		.loc 1 988 0
 4465              		.cfi_startproc
 4466              		@ args = 0, pretend = 0, frame = 48
 4467              		@ frame_needed = 1, uses_anonymous_args = 0
 4468 0000 F0B5     		push	{r4, r5, r6, r7, lr}
 4469              		.cfi_def_cfa_offset 20
 4470              		.cfi_offset 4, -20
 4471              		.cfi_offset 5, -16
 4472              		.cfi_offset 6, -12
 4473              		.cfi_offset 7, -8
 4474              		.cfi_offset 14, -4
 4475 0002 91B0     		sub	sp, sp, #68
 4476              		.cfi_def_cfa_offset 88
 4477 0004 04AF     		add	r7, sp, #16
 4478              		.cfi_def_cfa 7, 72
 4479 0006 7860     		str	r0, [r7, #4]
 989:.\DisplayUtils.c ****     DisplayLayout *pdisplay = (DisplayLayout*)pparam;
 4480              		.loc 1 989 0
 4481 0008 7B68     		ldr	r3, [r7, #4]
 4482 000a BB62     		str	r3, [r7, #40]
 990:.\DisplayUtils.c ****     if(pdisplay)
 4483              		.loc 1 990 0
 4484 000c BB6A     		ldr	r3, [r7, #40]
 4485 000e 002B     		cmp	r3, #0
 4486 0010 00F00D81 		beq	.L270
 4487              	.LBB26:
 991:.\DisplayUtils.c ****     {
 992:.\DisplayUtils.c ****         char8 mappedchar = 0x00;
 4488              		.loc 1 992 0
 4489 0014 0023     		movs	r3, #0
 4490 0016 87F82F30 		strb	r3, [r7, #47]
 993:.\DisplayUtils.c ****         //This is since 0x0B has been defined as "Cancel" in the keypad
 994:.\DisplayUtils.c ****         if(pdisplay->_currscrcode == 0x0B)
 4491              		.loc 1 994 0
 4492 001a BB6A     		ldr	r3, [r7, #40]
 4493 001c DB78     		ldrb	r3, [r3, #3]	@ zero_extendqisi2
 4494 001e 0B2B     		cmp	r3, #11
 4495 0020 0AD1     		bne	.L272


 995:.\DisplayUtils.c ****         {
 996:.\DisplayUtils.c ****             pdisplay->_bufferinfo._bufferindex = 0;
 4496              		.loc 1 996 0
 4497 0022 BB6A     		ldr	r3, [r7, #40]
 4498 0024 0022     		movs	r2, #0
 4499 0026 1A77     		strb	r2, [r3, #28]
 997:.\DisplayUtils.c ****             memset(pdisplay->_bufferinfo._buffer, 0x00, _DISPLAY_BUFFER_SIZE_);
 4500              		.loc 1 997 0
 4501 0028 BB6A     		ldr	r3, [r7, #40]
 4502 002a 1D33     		adds	r3, r3, #29
 4503 002c 1846     		mov	r0, r3
 4504 002e 0021     		movs	r1, #0
 4505 0030 1022     		movs	r2, #16
 4506 0032 FFF7FEFF 		bl	memset
 4507 0036 68E0     		b	.L273
 4508              	.L272:
 4509              	.LBB27:
 998:.\DisplayUtils.c ****         }
 999:.\DisplayUtils.c ****         else
1000:.\DisplayUtils.c ****         {
1001:.\DisplayUtils.c ****             mappedchar = UnmapCode(pdisplay->_currscrcode);
 4510              		.loc 1 1001 0
 4511 0038 BB6A     		ldr	r3, [r7, #40]
 4512 003a DB78     		ldrb	r3, [r3, #3]	@ zero_extendqisi2
 4513 003c 1846     		mov	r0, r3
 4514 003e FFF7FEFF 		bl	UnmapCode
 4515 0042 0346     		mov	r3, r0
 4516 0044 87F82F30 		strb	r3, [r7, #47]
1002:.\DisplayUtils.c ****             
1003:.\DisplayUtils.c ****             //No zeros allowed as left most significant digits
1004:.\DisplayUtils.c ****             if((mappedchar < 0x30 || mappedchar > 0x39) && (pdisplay->_bufferinfo._bufferindex == 0
 4517              		.loc 1 1004 0
 4518 0048 97F82F30 		ldrb	r3, [r7, #47]	@ zero_extendqisi2
 4519 004c 2F2B     		cmp	r3, #47
 4520 004e 03D9     		bls	.L274
 4521              		.loc 1 1004 0 is_stmt 0 discriminator 2
 4522 0050 97F82F30 		ldrb	r3, [r7, #47]	@ zero_extendqisi2
 4523 0054 392B     		cmp	r3, #57
 4524 0056 04D9     		bls	.L275
 4525              	.L274:
 4526              		.loc 1 1004 0 discriminator 3
 4527 0058 BB6A     		ldr	r3, [r7, #40]
 4528 005a 1B7F     		ldrb	r3, [r3, #28]	@ zero_extendqisi2
 4529 005c 002B     		cmp	r3, #0
 4530 005e 00D1     		bne	.L275
1005:.\DisplayUtils.c ****                 return;
 4531              		.loc 1 1005 0 is_stmt 1
 4532 0060 E5E0     		b	.L270
 4533              	.L275:
1006:.\DisplayUtils.c ****             
1007:.\DisplayUtils.c ****             //Just one decimal delimiter allowed
1008:.\DisplayUtils.c ****             if(strchr(pdisplay->_bufferinfo._buffer, (char8)',') && (mappedchar == (char8)','))
 4534              		.loc 1 1008 0
 4535 0062 BB6A     		ldr	r3, [r7, #40]
 4536 0064 1D33     		adds	r3, r3, #29
 4537 0066 1846     		mov	r0, r3
 4538 0068 2C21     		movs	r1, #44


 4539 006a FFF7FEFF 		bl	strchr
 4540 006e 0346     		mov	r3, r0
 4541 0070 002B     		cmp	r3, #0
 4542 0072 04D0     		beq	.L277
 4543              		.loc 1 1008 0 is_stmt 0 discriminator 1
 4544 0074 97F82F30 		ldrb	r3, [r7, #47]	@ zero_extendqisi2
 4545 0078 2C2B     		cmp	r3, #44
 4546 007a 00D1     		bne	.L277
1009:.\DisplayUtils.c ****                 return;
 4547              		.loc 1 1009 0 is_stmt 1
 4548 007c D7E0     		b	.L270
 4549              	.L277:
1010:.\DisplayUtils.c **** 
1011:.\DisplayUtils.c ****             //Just one zero before the decimal delimiter allowed
1012:.\DisplayUtils.c ****             if(pdisplay->_bufferinfo._buffer[0] == 0x30 && (mappedchar == (char8)',' && pdisplay->_
 4550              		.loc 1 1012 0
 4551 007e BB6A     		ldr	r3, [r7, #40]
 4552 0080 5B7F     		ldrb	r3, [r3, #29]	@ zero_extendqisi2
 4553 0082 302B     		cmp	r3, #48
 4554 0084 08D1     		bne	.L278
 4555              		.loc 1 1012 0 is_stmt 0 discriminator 1
 4556 0086 97F82F30 		ldrb	r3, [r7, #47]	@ zero_extendqisi2
 4557 008a 2C2B     		cmp	r3, #44
 4558 008c 04D1     		bne	.L278
 4559              		.loc 1 1012 0 discriminator 2
 4560 008e BB6A     		ldr	r3, [r7, #40]
 4561 0090 9B7F     		ldrb	r3, [r3, #30]	@ zero_extendqisi2
 4562 0092 2C2B     		cmp	r3, #44
 4563 0094 00D1     		bne	.L278
1013:.\DisplayUtils.c ****                 return;
 4564              		.loc 1 1013 0 is_stmt 1
 4565 0096 CAE0     		b	.L270
 4566              	.L278:
1014:.\DisplayUtils.c ****             
1015:.\DisplayUtils.c ****             //If no decimals allowed just return
1016:.\DisplayUtils.c ****             if((_g_dispenserlayoutinfo._volumedecimals == 0) && (mappedchar == (char8)','))
 4567              		.loc 1 1016 0
 4568 0098 664B     		ldr	r3, .L289
 4569 009a 5B7A     		ldrb	r3, [r3, #9]	@ zero_extendqisi2
 4570 009c 002B     		cmp	r3, #0
 4571 009e 04D1     		bne	.L279
 4572              		.loc 1 1016 0 is_stmt 0 discriminator 1
 4573 00a0 97F82F30 		ldrb	r3, [r7, #47]	@ zero_extendqisi2
 4574 00a4 2C2B     		cmp	r3, #44
 4575 00a6 00D1     		bne	.L279
1017:.\DisplayUtils.c ****                 return;
 4576              		.loc 1 1017 0 is_stmt 1
 4577 00a8 C1E0     		b	.L270
 4578              	.L279:
1018:.\DisplayUtils.c ****             
1019:.\DisplayUtils.c ****             char tempbuffer[16];
1020:.\DisplayUtils.c ****             memset(tempbuffer, 0x00, 16);
 4579              		.loc 1 1020 0
 4580 00aa 07F10C03 		add	r3, r7, #12
 4581 00ae 1846     		mov	r0, r3
 4582 00b0 0021     		movs	r1, #0
 4583 00b2 1022     		movs	r2, #16


 4584 00b4 FFF7FEFF 		bl	memset
1021:.\DisplayUtils.c ****             memcpy(tempbuffer, pdisplay->_bufferinfo._buffer, pdisplay->_bufferinfo._bufferindex);
 4585              		.loc 1 1021 0
 4586 00b8 BB6A     		ldr	r3, [r7, #40]
 4587 00ba 03F11D02 		add	r2, r3, #29
 4588 00be BB6A     		ldr	r3, [r7, #40]
 4589 00c0 1B7F     		ldrb	r3, [r3, #28]	@ zero_extendqisi2
 4590 00c2 1C46     		mov	r4, r3
 4591 00c4 07F10C03 		add	r3, r7, #12
 4592 00c8 1846     		mov	r0, r3
 4593 00ca 1146     		mov	r1, r2
 4594 00cc 2246     		mov	r2, r4
 4595 00ce FFF7FEFF 		bl	memcpy
1022:.\DisplayUtils.c ****             char *ptrpos = strchr(tempbuffer, (char8)',');
 4596              		.loc 1 1022 0
 4597 00d2 07F10C03 		add	r3, r7, #12
 4598 00d6 1846     		mov	r0, r3
 4599 00d8 2C21     		movs	r1, #44
 4600 00da FFF7FEFF 		bl	strchr
 4601 00de 7862     		str	r0, [r7, #36]
1023:.\DisplayUtils.c ****             if(ptrpos)
 4602              		.loc 1 1023 0
 4603 00e0 7B6A     		ldr	r3, [r7, #36]
 4604 00e2 002B     		cmp	r3, #0
 4605 00e4 11D0     		beq	.L273
1024:.\DisplayUtils.c ****                 if(strlen(ptrpos) > ((_g_dispenserlayoutinfo._displaydigitsmode == 0x06)?_g_dispens
 4606              		.loc 1 1024 0
 4607 00e6 786A     		ldr	r0, [r7, #36]
 4608 00e8 FFF7FEFF 		bl	strlen
 4609 00ec 0246     		mov	r2, r0
 4610 00ee 514B     		ldr	r3, .L289
 4611 00f0 1B7C     		ldrb	r3, [r3, #16]	@ zero_extendqisi2
 4612 00f2 062B     		cmp	r3, #6
 4613 00f4 03D1     		bne	.L281
 4614              		.loc 1 1024 0 is_stmt 0 discriminator 1
 4615 00f6 4F4B     		ldr	r3, .L289
 4616 00f8 5B7A     		ldrb	r3, [r3, #9]	@ zero_extendqisi2
 4617 00fa 013B     		subs	r3, r3, #1
 4618 00fc 01E0     		b	.L282
 4619              	.L281:
 4620              		.loc 1 1024 0 discriminator 2
 4621 00fe 4D4B     		ldr	r3, .L289
 4622 0100 5B7A     		ldrb	r3, [r3, #9]	@ zero_extendqisi2
 4623              	.L282:
 4624              		.loc 1 1024 0 discriminator 4
 4625 0102 9A42     		cmp	r2, r3
 4626 0104 01D9     		bls	.L273
1025:.\DisplayUtils.c ****                     return;
 4627              		.loc 1 1025 0 is_stmt 1
 4628 0106 00BF     		nop
 4629 0108 91E0     		b	.L270
 4630              	.L273:
 4631              	.LBE27:
1026:.\DisplayUtils.c ****             
1027:.\DisplayUtils.c ****             
1028:.\DisplayUtils.c ****         }
1029:.\DisplayUtils.c ****         


1030:.\DisplayUtils.c ****         if(pdisplay->_bufferinfo._bufferindex == 0)
 4632              		.loc 1 1030 0
 4633 010a BB6A     		ldr	r3, [r7, #40]
 4634 010c 1B7F     		ldrb	r3, [r3, #28]	@ zero_extendqisi2
 4635 010e 002B     		cmp	r3, #0
 4636 0110 10D1     		bne	.L283
1031:.\DisplayUtils.c ****         {
1032:.\DisplayUtils.c ****             pdisplay->_bufferinfo._xpos = pdisplay->_pcurrflow->_inputboxinfo._xdefpos;
 4637              		.loc 1 1032 0
 4638 0112 BB6A     		ldr	r3, [r7, #40]
 4639 0114 1B69     		ldr	r3, [r3, #16]
 4640 0116 9A8D     		ldrh	r2, [r3, #44]
 4641 0118 BB6A     		ldr	r3, [r7, #40]
 4642 011a 1A83     		strh	r2, [r3, #24]	@ movhi
1033:.\DisplayUtils.c ****             pdisplay->_bufferinfo._ypos = pdisplay->_pcurrflow->_inputboxinfo._ydefpos;
 4643              		.loc 1 1033 0
 4644 011c BB6A     		ldr	r3, [r7, #40]
 4645 011e 1B69     		ldr	r3, [r3, #16]
 4646 0120 DA8D     		ldrh	r2, [r3, #46]
 4647 0122 BB6A     		ldr	r3, [r7, #40]
 4648 0124 5A83     		strh	r2, [r3, #26]	@ movhi
1034:.\DisplayUtils.c ****             memset(pdisplay->_bufferinfo._buffer, ' ', _DISPLAY_BUFFER_SIZE_);
 4649              		.loc 1 1034 0
 4650 0126 BB6A     		ldr	r3, [r7, #40]
 4651 0128 1D33     		adds	r3, r3, #29
 4652 012a 1846     		mov	r0, r3
 4653 012c 2021     		movs	r1, #32
 4654 012e 1022     		movs	r2, #16
 4655 0130 FFF7FEFF 		bl	memset
 4656              	.L283:
1035:.\DisplayUtils.c ****         }
1036:.\DisplayUtils.c ****         //The InputBox is already filled up!
1037:.\DisplayUtils.c ****         if(pdisplay->_bufferinfo._bufferindex >= pdisplay->_pcurrflow->_inputboxinfo._maxchars || p
 4657              		.loc 1 1037 0
 4658 0134 BB6A     		ldr	r3, [r7, #40]
 4659 0136 1A7F     		ldrb	r2, [r3, #28]	@ zero_extendqisi2
 4660 0138 BB6A     		ldr	r3, [r7, #40]
 4661 013a 1B69     		ldr	r3, [r3, #16]
 4662 013c 93F83030 		ldrb	r3, [r3, #48]	@ zero_extendqisi2
 4663 0140 9A42     		cmp	r2, r3
 4664 0142 07D2     		bcs	.L284
 4665              		.loc 1 1037 0 is_stmt 0 discriminator 1
 4666 0144 BB6A     		ldr	r3, [r7, #40]
 4667 0146 1B7F     		ldrb	r3, [r3, #28]	@ zero_extendqisi2
 4668 0148 1A46     		mov	r2, r3
 4669 014a 3A4B     		ldr	r3, .L289
 4670 014c 1B7C     		ldrb	r3, [r3, #16]	@ zero_extendqisi2
 4671 014e 013B     		subs	r3, r3, #1
 4672 0150 9A42     		cmp	r2, r3
 4673 0152 00DB     		blt	.L285
 4674              	.L284:
1038:.\DisplayUtils.c ****             return;
 4675              		.loc 1 1038 0 is_stmt 1
 4676 0154 6BE0     		b	.L270
 4677              	.L285:
1039:.\DisplayUtils.c ****         
1040:.\DisplayUtils.c ****         //There's nothing new to show up since the unmapper didn't find anything to map to


1041:.\DisplayUtils.c ****         if(mappedchar != 0x00)
 4678              		.loc 1 1041 0
 4679 0156 97F82F30 		ldrb	r3, [r7, #47]	@ zero_extendqisi2
 4680 015a 002B     		cmp	r3, #0
 4681 015c 0BD0     		beq	.L286
1042:.\DisplayUtils.c ****             pdisplay->_bufferinfo._buffer[pdisplay->_bufferinfo._bufferindex++] = mappedchar;
 4682              		.loc 1 1042 0
 4683 015e BB6A     		ldr	r3, [r7, #40]
 4684 0160 1B7F     		ldrb	r3, [r3, #28]	@ zero_extendqisi2
 4685 0162 5A1C     		adds	r2, r3, #1
 4686 0164 D1B2     		uxtb	r1, r2
 4687 0166 BA6A     		ldr	r2, [r7, #40]
 4688 0168 1177     		strb	r1, [r2, #28]
 4689 016a 1A46     		mov	r2, r3
 4690 016c BB6A     		ldr	r3, [r7, #40]
 4691 016e 1344     		add	r3, r3, r2
 4692 0170 97F82F20 		ldrb	r2, [r7, #47]
 4693 0174 5A77     		strb	r2, [r3, #29]
 4694              	.L286:
1043:.\DisplayUtils.c ****         
1044:.\DisplayUtils.c ****         if(pdisplay->_dispid == DISPLAY1)
 4695              		.loc 1 1044 0
 4696 0176 BB6A     		ldr	r3, [r7, #40]
 4697 0178 1B78     		ldrb	r3, [r3]	@ zero_extendqisi2
 4698 017a 002B     		cmp	r3, #0
 4699 017c 2CD1     		bne	.L287
 4700              	.LBB28:
1045:.\DisplayUtils.c ****         {
1046:.\DisplayUtils.c ****             UARTMessage *puartdisp = GetUARTMessageSlot(UART_DISPLAY1);
 4701              		.loc 1 1046 0
 4702 017e A320     		movs	r0, #163
 4703 0180 FFF7FEFF 		bl	GetUARTMessageSlot
 4704 0184 3862     		str	r0, [r7, #32]
1047:.\DisplayUtils.c ****             if(puartdisp)
 4705              		.loc 1 1047 0
 4706 0186 3B6A     		ldr	r3, [r7, #32]
 4707 0188 002B     		cmp	r3, #0
 4708 018a 24D0     		beq	.L288
1048:.\DisplayUtils.c ****             {
1049:.\DisplayUtils.c ****                 puartdisp->_messagelength = DisplayOutputString(pdisplay->_bufferinfo._xpos, pdispl
 4709              		.loc 1 1049 0
 4710 018c BB6A     		ldr	r3, [r7, #40]
 4711 018e B3F818E0 		ldrh	lr, [r3, #24]
 4712 0192 BB6A     		ldr	r3, [r7, #40]
 4713 0194 5E8B     		ldrh	r6, [r3, #26]
 4714 0196 3B6A     		ldr	r3, [r7, #32]
 4715 0198 1D1D     		adds	r5, r3, #4
 4716 019a BB6A     		ldr	r3, [r7, #40]
 4717 019c 03F11D04 		add	r4, r3, #29
 4718 01a0 BB6A     		ldr	r3, [r7, #40]
 4719 01a2 1B69     		ldr	r3, [r3, #16]
 4720 01a4 93F83030 		ldrb	r3, [r3, #48]	@ zero_extendqisi2
 4721 01a8 9BB2     		uxth	r3, r3
 4722 01aa BA6A     		ldr	r2, [r7, #40]
 4723 01ac 1269     		ldr	r2, [r2, #16]
 4724 01ae 0093     		str	r3, [sp]
 4725 01b0 01AB     		add	r3, sp, #4


 4726 01b2 3232     		adds	r2, r2, #50
 4727 01b4 1068     		ldr	r0, [r2]	@ unaligned
 4728 01b6 5168     		ldr	r1, [r2, #4]	@ unaligned
 4729 01b8 03C3     		stmia	r3!, {r0, r1}
 4730 01ba 7046     		mov	r0, lr
 4731 01bc 3146     		mov	r1, r6
 4732 01be 2A46     		mov	r2, r5
 4733 01c0 2346     		mov	r3, r4
 4734 01c2 FFF7FEFF 		bl	DisplayOutputString
 4735 01c6 0346     		mov	r3, r0
 4736 01c8 1A46     		mov	r2, r3
 4737 01ca 3B6A     		ldr	r3, [r7, #32]
 4738 01cc 5A80     		strh	r2, [r3, #2]	@ movhi
1050:.\DisplayUtils.c ****                 puartdisp->_messagestate = PENDING;
 4739              		.loc 1 1050 0
 4740 01ce 3B6A     		ldr	r3, [r7, #32]
 4741 01d0 C222     		movs	r2, #194
 4742 01d2 1A70     		strb	r2, [r3]
 4743              	.LBE28:
 4744 01d4 2BE0     		b	.L270
 4745              	.L288:
 4746 01d6 2AE0     		b	.L270
 4747              	.L287:
 4748              	.LBB29:
1051:.\DisplayUtils.c ****             }
1052:.\DisplayUtils.c ****         }
1053:.\DisplayUtils.c ****         else
1054:.\DisplayUtils.c ****         {
1055:.\DisplayUtils.c ****             UARTMessage *puartdisp = GetUARTMessageSlot(UART_DISPLAY2);
 4749              		.loc 1 1055 0
 4750 01d8 A420     		movs	r0, #164
 4751 01da FFF7FEFF 		bl	GetUARTMessageSlot
 4752 01de F861     		str	r0, [r7, #28]
1056:.\DisplayUtils.c ****             if(puartdisp)
 4753              		.loc 1 1056 0
 4754 01e0 FB69     		ldr	r3, [r7, #28]
 4755 01e2 002B     		cmp	r3, #0
 4756 01e4 23D0     		beq	.L270
1057:.\DisplayUtils.c ****             {
1058:.\DisplayUtils.c ****                 puartdisp->_messagelength = DisplayOutputString(pdisplay->_bufferinfo._xpos, pdispl
 4757              		.loc 1 1058 0
 4758 01e6 BB6A     		ldr	r3, [r7, #40]
 4759 01e8 B3F818E0 		ldrh	lr, [r3, #24]
 4760 01ec BB6A     		ldr	r3, [r7, #40]
 4761 01ee 5E8B     		ldrh	r6, [r3, #26]
 4762 01f0 FB69     		ldr	r3, [r7, #28]
 4763 01f2 1D1D     		adds	r5, r3, #4
 4764 01f4 BB6A     		ldr	r3, [r7, #40]
 4765 01f6 03F11D04 		add	r4, r3, #29
 4766 01fa BB6A     		ldr	r3, [r7, #40]
 4767 01fc 1B69     		ldr	r3, [r3, #16]
 4768 01fe 93F83030 		ldrb	r3, [r3, #48]	@ zero_extendqisi2
 4769 0202 9BB2     		uxth	r3, r3
 4770 0204 BA6A     		ldr	r2, [r7, #40]
 4771 0206 1269     		ldr	r2, [r2, #16]
 4772 0208 0093     		str	r3, [sp]
 4773 020a 01AB     		add	r3, sp, #4


 4774 020c 3232     		adds	r2, r2, #50
 4775 020e 1068     		ldr	r0, [r2]	@ unaligned
 4776 0210 5168     		ldr	r1, [r2, #4]	@ unaligned
 4777 0212 03C3     		stmia	r3!, {r0, r1}
 4778 0214 7046     		mov	r0, lr
 4779 0216 3146     		mov	r1, r6
 4780 0218 2A46     		mov	r2, r5
 4781 021a 2346     		mov	r3, r4
 4782 021c FFF7FEFF 		bl	DisplayOutputString
 4783 0220 0346     		mov	r3, r0
 4784 0222 1A46     		mov	r2, r3
 4785 0224 FB69     		ldr	r3, [r7, #28]
 4786 0226 5A80     		strh	r2, [r3, #2]	@ movhi
1059:.\DisplayUtils.c ****                 puartdisp->_messagestate = PENDING;
 4787              		.loc 1 1059 0
 4788 0228 FB69     		ldr	r3, [r7, #28]
 4789 022a C222     		movs	r2, #194
 4790 022c 1A70     		strb	r2, [r3]
 4791              	.L270:
 4792              	.LBE29:
 4793              	.LBE26:
1060:.\DisplayUtils.c ****             }
1061:.\DisplayUtils.c ****         }
1062:.\DisplayUtils.c ****         
1063:.\DisplayUtils.c ****     }
1064:.\DisplayUtils.c **** }
 4794              		.loc 1 1064 0
 4795 022e 3437     		adds	r7, r7, #52
 4796              		.cfi_def_cfa_offset 20
 4797 0230 BD46     		mov	sp, r7
 4798              		.cfi_def_cfa_register 13
 4799              		@ sp needed
 4800 0232 F0BD     		pop	{r4, r5, r6, r7, pc}
 4801              	.L290:
 4802              		.align	2
 4803              	.L289:
 4804 0234 00000000 		.word	_g_dispenserlayoutinfo
 4805              		.cfi_endproc
 4806              	.LFE89:
 4807              		.size	DisplayVolumeInputHandler, .-DisplayVolumeInputHandler
 4808              		.section	.text.DisplayInputPasswordHandler,"ax",%progbits
 4809              		.align	2
 4810              		.global	DisplayInputPasswordHandler
 4811              		.thumb
 4812              		.thumb_func
 4813              		.type	DisplayInputPasswordHandler, %function
 4814              	DisplayInputPasswordHandler:
 4815              	.LFB90:
1065:.\DisplayUtils.c **** 
1066:.\DisplayUtils.c **** //@Created by: HIJH
1067:.\DisplayUtils.c **** //@Date: Septembre de 2016
1068:.\DisplayUtils.c **** //This method handles the input data typed in the inputbox. 
1069:.\DisplayUtils.c **** //It masks the output so it allows for writting passwords.
1070:.\DisplayUtils.c **** void DisplayInputPasswordHandler(void *pparam)
1071:.\DisplayUtils.c **** {
 4816              		.loc 1 1071 0
 4817              		.cfi_startproc


 4818              		@ args = 0, pretend = 0, frame = 56
 4819              		@ frame_needed = 1, uses_anonymous_args = 0
 4820 0000 F0B5     		push	{r4, r5, r6, r7, lr}
 4821              		.cfi_def_cfa_offset 20
 4822              		.cfi_offset 4, -20
 4823              		.cfi_offset 5, -16
 4824              		.cfi_offset 6, -12
 4825              		.cfi_offset 7, -8
 4826              		.cfi_offset 14, -4
 4827 0002 93B0     		sub	sp, sp, #76
 4828              		.cfi_def_cfa_offset 96
 4829 0004 04AF     		add	r7, sp, #16
 4830              		.cfi_def_cfa 7, 80
 4831 0006 7860     		str	r0, [r7, #4]
1072:.\DisplayUtils.c ****     PDISPLAYLAYOUTPTR pdisplay = (PDISPLAYLAYOUTPTR)pparam;
 4832              		.loc 1 1072 0
 4833 0008 7B68     		ldr	r3, [r7, #4]
 4834 000a 3B63     		str	r3, [r7, #48]
1073:.\DisplayUtils.c ****     if(pdisplay)
 4835              		.loc 1 1073 0
 4836 000c 3B6B     		ldr	r3, [r7, #48]
 4837 000e 002B     		cmp	r3, #0
 4838 0010 00F0BB80 		beq	.L291
 4839              	.LBB30:
1074:.\DisplayUtils.c ****     {
1075:.\DisplayUtils.c ****         char8 mappedchar = 0x00;
 4840              		.loc 1 1075 0
 4841 0014 0023     		movs	r3, #0
 4842 0016 87F83730 		strb	r3, [r7, #55]
1076:.\DisplayUtils.c ****         //This is since 0x0B has been defined as "Cancel" in the keypad
1077:.\DisplayUtils.c ****         if(pdisplay->_currscrcode == 0x0B)
 4843              		.loc 1 1077 0
 4844 001a 3B6B     		ldr	r3, [r7, #48]
 4845 001c DB78     		ldrb	r3, [r3, #3]	@ zero_extendqisi2
 4846 001e 0B2B     		cmp	r3, #11
 4847 0020 03D1     		bne	.L293
1078:.\DisplayUtils.c ****             pdisplay->_bufferinfo._bufferindex = 0;
 4848              		.loc 1 1078 0
 4849 0022 3B6B     		ldr	r3, [r7, #48]
 4850 0024 0022     		movs	r2, #0
 4851 0026 1A77     		strb	r2, [r3, #28]
 4852 0028 07E0     		b	.L294
 4853              	.L293:
1079:.\DisplayUtils.c ****         else
1080:.\DisplayUtils.c ****             mappedchar = UnmapCode(pdisplay->_currscrcode);
 4854              		.loc 1 1080 0
 4855 002a 3B6B     		ldr	r3, [r7, #48]
 4856 002c DB78     		ldrb	r3, [r3, #3]	@ zero_extendqisi2
 4857 002e 1846     		mov	r0, r3
 4858 0030 FFF7FEFF 		bl	UnmapCode
 4859 0034 0346     		mov	r3, r0
 4860 0036 87F83730 		strb	r3, [r7, #55]
 4861              	.L294:
1081:.\DisplayUtils.c ****         
1082:.\DisplayUtils.c ****         if(pdisplay->_bufferinfo._bufferindex == 0)
 4862              		.loc 1 1082 0
 4863 003a 3B6B     		ldr	r3, [r7, #48]


 4864 003c 1B7F     		ldrb	r3, [r3, #28]	@ zero_extendqisi2
 4865 003e 002B     		cmp	r3, #0
 4866 0040 10D1     		bne	.L295
1083:.\DisplayUtils.c ****         {
1084:.\DisplayUtils.c ****             pdisplay->_bufferinfo._xpos = pdisplay->_pcurrflow->_inputboxinfo._xdefpos;
 4867              		.loc 1 1084 0
 4868 0042 3B6B     		ldr	r3, [r7, #48]
 4869 0044 1B69     		ldr	r3, [r3, #16]
 4870 0046 9A8D     		ldrh	r2, [r3, #44]
 4871 0048 3B6B     		ldr	r3, [r7, #48]
 4872 004a 1A83     		strh	r2, [r3, #24]	@ movhi
1085:.\DisplayUtils.c ****             pdisplay->_bufferinfo._ypos = pdisplay->_pcurrflow->_inputboxinfo._ydefpos;
 4873              		.loc 1 1085 0
 4874 004c 3B6B     		ldr	r3, [r7, #48]
 4875 004e 1B69     		ldr	r3, [r3, #16]
 4876 0050 DA8D     		ldrh	r2, [r3, #46]
 4877 0052 3B6B     		ldr	r3, [r7, #48]
 4878 0054 5A83     		strh	r2, [r3, #26]	@ movhi
1086:.\DisplayUtils.c ****             memset(pdisplay->_bufferinfo._buffer, ' ', _DISPLAY_BUFFER_SIZE_);
 4879              		.loc 1 1086 0
 4880 0056 3B6B     		ldr	r3, [r7, #48]
 4881 0058 1D33     		adds	r3, r3, #29
 4882 005a 1846     		mov	r0, r3
 4883 005c 2021     		movs	r1, #32
 4884 005e 1022     		movs	r2, #16
 4885 0060 FFF7FEFF 		bl	memset
 4886              	.L295:
1087:.\DisplayUtils.c ****         }
1088:.\DisplayUtils.c ****         //The InputBox is already filled up!
1089:.\DisplayUtils.c ****         if(pdisplay->_bufferinfo._bufferindex >= pdisplay->_pcurrflow->_inputboxinfo._maxchars)
 4887              		.loc 1 1089 0
 4888 0064 3B6B     		ldr	r3, [r7, #48]
 4889 0066 1A7F     		ldrb	r2, [r3, #28]	@ zero_extendqisi2
 4890 0068 3B6B     		ldr	r3, [r7, #48]
 4891 006a 1B69     		ldr	r3, [r3, #16]
 4892 006c 93F83030 		ldrb	r3, [r3, #48]	@ zero_extendqisi2
 4893 0070 9A42     		cmp	r2, r3
 4894 0072 00D3     		bcc	.L296
1090:.\DisplayUtils.c ****             return;
 4895              		.loc 1 1090 0
 4896 0074 89E0     		b	.L291
 4897              	.L296:
1091:.\DisplayUtils.c ****         
1092:.\DisplayUtils.c ****         //There's nothing new to show up since the unmapper didn't find anything to map to
1093:.\DisplayUtils.c ****         if(mappedchar != 0x00)
 4898              		.loc 1 1093 0
 4899 0076 97F83730 		ldrb	r3, [r7, #55]	@ zero_extendqisi2
 4900 007a 002B     		cmp	r3, #0
 4901 007c 0BD0     		beq	.L297
1094:.\DisplayUtils.c ****             pdisplay->_bufferinfo._buffer[pdisplay->_bufferinfo._bufferindex++] = mappedchar;
 4902              		.loc 1 1094 0
 4903 007e 3B6B     		ldr	r3, [r7, #48]
 4904 0080 1B7F     		ldrb	r3, [r3, #28]	@ zero_extendqisi2
 4905 0082 5A1C     		adds	r2, r3, #1
 4906 0084 D1B2     		uxtb	r1, r2
 4907 0086 3A6B     		ldr	r2, [r7, #48]
 4908 0088 1177     		strb	r1, [r2, #28]


 4909 008a 1A46     		mov	r2, r3
 4910 008c 3B6B     		ldr	r3, [r7, #48]
 4911 008e 1344     		add	r3, r3, r2
 4912 0090 97F83720 		ldrb	r2, [r7, #55]
 4913 0094 5A77     		strb	r2, [r3, #29]
 4914              	.L297:
1095:.\DisplayUtils.c ****         
1096:.\DisplayUtils.c ****         if(pdisplay->_dispid == DISPLAY1)
 4915              		.loc 1 1096 0
 4916 0096 3B6B     		ldr	r3, [r7, #48]
 4917 0098 1B78     		ldrb	r3, [r3]	@ zero_extendqisi2
 4918 009a 002B     		cmp	r3, #0
 4919 009c 3BD1     		bne	.L298
 4920              	.LBB31:
1097:.\DisplayUtils.c ****         {
1098:.\DisplayUtils.c ****             PUARTMESSAGEPTR puartdisp = GetUARTMessageSlot(UART_DISPLAY1);
 4921              		.loc 1 1098 0
 4922 009e A320     		movs	r0, #163
 4923 00a0 FFF7FEFF 		bl	GetUARTMessageSlot
 4924 00a4 F862     		str	r0, [r7, #44]
1099:.\DisplayUtils.c ****             if(puartdisp)
 4925              		.loc 1 1099 0
 4926 00a6 FB6A     		ldr	r3, [r7, #44]
 4927 00a8 002B     		cmp	r3, #0
 4928 00aa 33D0     		beq	.L299
 4929              	.LBB32:
1100:.\DisplayUtils.c ****             {
1101:.\DisplayUtils.c ****                 char8 maskedinput[16];
1102:.\DisplayUtils.c ****                 memset(maskedinput, 0x00, sizeof(maskedinput));
 4930              		.loc 1 1102 0
 4931 00ac 07F11803 		add	r3, r7, #24
 4932 00b0 1846     		mov	r0, r3
 4933 00b2 0021     		movs	r1, #0
 4934 00b4 1022     		movs	r2, #16
 4935 00b6 FFF7FEFF 		bl	memset
1103:.\DisplayUtils.c ****                 memset(maskedinput, '*', pdisplay->_bufferinfo._bufferindex);
 4936              		.loc 1 1103 0
 4937 00ba 3B6B     		ldr	r3, [r7, #48]
 4938 00bc 1B7F     		ldrb	r3, [r3, #28]	@ zero_extendqisi2
 4939 00be 1A46     		mov	r2, r3
 4940 00c0 07F11803 		add	r3, r7, #24
 4941 00c4 1846     		mov	r0, r3
 4942 00c6 2A21     		movs	r1, #42
 4943 00c8 FFF7FEFF 		bl	memset
1104:.\DisplayUtils.c ****                 puartdisp->_messagelength = DisplayOutputString(pdisplay->_bufferinfo._xpos, pdispl
 4944              		.loc 1 1104 0
 4945 00cc 3B6B     		ldr	r3, [r7, #48]
 4946 00ce B3F818E0 		ldrh	lr, [r3, #24]
 4947 00d2 3B6B     		ldr	r3, [r7, #48]
 4948 00d4 5E8B     		ldrh	r6, [r3, #26]
 4949 00d6 FB6A     		ldr	r3, [r7, #44]
 4950 00d8 1D1D     		adds	r5, r3, #4
 4951 00da 3B6B     		ldr	r3, [r7, #48]
 4952 00dc 1B69     		ldr	r3, [r3, #16]
 4953 00de 93F83030 		ldrb	r3, [r3, #48]	@ zero_extendqisi2
 4954 00e2 9BB2     		uxth	r3, r3
 4955 00e4 3A6B     		ldr	r2, [r7, #48]


 4956 00e6 1269     		ldr	r2, [r2, #16]
 4957 00e8 07F11804 		add	r4, r7, #24
 4958 00ec 0093     		str	r3, [sp]
 4959 00ee 01AB     		add	r3, sp, #4
 4960 00f0 3232     		adds	r2, r2, #50
 4961 00f2 1068     		ldr	r0, [r2]	@ unaligned
 4962 00f4 5168     		ldr	r1, [r2, #4]	@ unaligned
 4963 00f6 03C3     		stmia	r3!, {r0, r1}
 4964 00f8 7046     		mov	r0, lr
 4965 00fa 3146     		mov	r1, r6
 4966 00fc 2A46     		mov	r2, r5
 4967 00fe 2346     		mov	r3, r4
 4968 0100 FFF7FEFF 		bl	DisplayOutputString
 4969 0104 0346     		mov	r3, r0
 4970 0106 1A46     		mov	r2, r3
 4971 0108 FB6A     		ldr	r3, [r7, #44]
 4972 010a 5A80     		strh	r2, [r3, #2]	@ movhi
1105:.\DisplayUtils.c ****                 puartdisp->_messagestate = PENDING;
 4973              		.loc 1 1105 0
 4974 010c FB6A     		ldr	r3, [r7, #44]
 4975 010e C222     		movs	r2, #194
 4976 0110 1A70     		strb	r2, [r3]
 4977              	.LBE32:
 4978              	.LBE31:
 4979 0112 3AE0     		b	.L291
 4980              	.L299:
 4981 0114 39E0     		b	.L291
 4982              	.L298:
 4983              	.LBB33:
1106:.\DisplayUtils.c ****             }
1107:.\DisplayUtils.c ****         }
1108:.\DisplayUtils.c ****         else
1109:.\DisplayUtils.c ****         {
1110:.\DisplayUtils.c ****             PUARTMESSAGEPTR puartdisp = GetUARTMessageSlot(UART_DISPLAY2);
 4984              		.loc 1 1110 0
 4985 0116 A420     		movs	r0, #164
 4986 0118 FFF7FEFF 		bl	GetUARTMessageSlot
 4987 011c B862     		str	r0, [r7, #40]
1111:.\DisplayUtils.c ****             if(puartdisp)
 4988              		.loc 1 1111 0
 4989 011e BB6A     		ldr	r3, [r7, #40]
 4990 0120 002B     		cmp	r3, #0
 4991 0122 32D0     		beq	.L291
 4992              	.LBB34:
1112:.\DisplayUtils.c ****             {
1113:.\DisplayUtils.c ****                 char8 maskedinput[16];
1114:.\DisplayUtils.c ****                 memset(maskedinput, 0x00, sizeof(maskedinput));
 4993              		.loc 1 1114 0
 4994 0124 07F10803 		add	r3, r7, #8
 4995 0128 1846     		mov	r0, r3
 4996 012a 0021     		movs	r1, #0
 4997 012c 1022     		movs	r2, #16
 4998 012e FFF7FEFF 		bl	memset
1115:.\DisplayUtils.c ****                 memset(maskedinput, '*', pdisplay->_bufferinfo._bufferindex);
 4999              		.loc 1 1115 0
 5000 0132 3B6B     		ldr	r3, [r7, #48]
 5001 0134 1B7F     		ldrb	r3, [r3, #28]	@ zero_extendqisi2


 5002 0136 1A46     		mov	r2, r3
 5003 0138 07F10803 		add	r3, r7, #8
 5004 013c 1846     		mov	r0, r3
 5005 013e 2A21     		movs	r1, #42
 5006 0140 FFF7FEFF 		bl	memset
1116:.\DisplayUtils.c ****                 puartdisp->_messagelength = DisplayOutputString(pdisplay->_bufferinfo._xpos, pdispl
 5007              		.loc 1 1116 0
 5008 0144 3B6B     		ldr	r3, [r7, #48]
 5009 0146 B3F818E0 		ldrh	lr, [r3, #24]
 5010 014a 3B6B     		ldr	r3, [r7, #48]
 5011 014c 5E8B     		ldrh	r6, [r3, #26]
 5012 014e BB6A     		ldr	r3, [r7, #40]
 5013 0150 1D1D     		adds	r5, r3, #4
 5014 0152 3B6B     		ldr	r3, [r7, #48]
 5015 0154 1B69     		ldr	r3, [r3, #16]
 5016 0156 93F83030 		ldrb	r3, [r3, #48]	@ zero_extendqisi2
 5017 015a 9BB2     		uxth	r3, r3
 5018 015c 3A6B     		ldr	r2, [r7, #48]
 5019 015e 1269     		ldr	r2, [r2, #16]
 5020 0160 07F10804 		add	r4, r7, #8
 5021 0164 0093     		str	r3, [sp]
 5022 0166 01AB     		add	r3, sp, #4
 5023 0168 3232     		adds	r2, r2, #50
 5024 016a 1068     		ldr	r0, [r2]	@ unaligned
 5025 016c 5168     		ldr	r1, [r2, #4]	@ unaligned
 5026 016e 03C3     		stmia	r3!, {r0, r1}
 5027 0170 7046     		mov	r0, lr
 5028 0172 3146     		mov	r1, r6
 5029 0174 2A46     		mov	r2, r5
 5030 0176 2346     		mov	r3, r4
 5031 0178 FFF7FEFF 		bl	DisplayOutputString
 5032 017c 0346     		mov	r3, r0
 5033 017e 1A46     		mov	r2, r3
 5034 0180 BB6A     		ldr	r3, [r7, #40]
 5035 0182 5A80     		strh	r2, [r3, #2]	@ movhi
1117:.\DisplayUtils.c ****                 puartdisp->_messagestate = PENDING;
 5036              		.loc 1 1117 0
 5037 0184 BB6A     		ldr	r3, [r7, #40]
 5038 0186 C222     		movs	r2, #194
 5039 0188 1A70     		strb	r2, [r3]
 5040              	.L291:
 5041              	.LBE34:
 5042              	.LBE33:
 5043              	.LBE30:
1118:.\DisplayUtils.c ****             }
1119:.\DisplayUtils.c ****         }
1120:.\DisplayUtils.c ****     }
1121:.\DisplayUtils.c **** }
 5044              		.loc 1 1121 0
 5045 018a 3C37     		adds	r7, r7, #60
 5046              		.cfi_def_cfa_offset 20
 5047 018c BD46     		mov	sp, r7
 5048              		.cfi_def_cfa_register 13
 5049              		@ sp needed
 5050 018e F0BD     		pop	{r4, r5, r6, r7, pc}
 5051              		.cfi_endproc
 5052              	.LFE90:


 5053              		.size	DisplayInputPasswordHandler, .-DisplayInputPasswordHandler
 5054              		.section	.text.SequesterMessageSink,"ax",%progbits
 5055              		.align	2
 5056              		.global	SequesterMessageSink
 5057              		.thumb
 5058              		.thumb_func
 5059              		.type	SequesterMessageSink, %function
 5060              	SequesterMessageSink:
 5061              	.LFB91:
1122:.\DisplayUtils.c **** 
1123:.\DisplayUtils.c **** //@Created by: HIJH
1124:.\DisplayUtils.c **** //@Date: Septembre de 2016
1125:.\DisplayUtils.c **** //Allocates and stores a sink message to store the transacion data
1126:.\DisplayUtils.c **** void SequesterMessageSink(void *pparam)
1127:.\DisplayUtils.c **** {
 5062              		.loc 1 1127 0
 5063              		.cfi_startproc
 5064              		@ args = 0, pretend = 0, frame = 16
 5065              		@ frame_needed = 1, uses_anonymous_args = 0
 5066 0000 90B5     		push	{r4, r7, lr}
 5067              		.cfi_def_cfa_offset 12
 5068              		.cfi_offset 4, -12
 5069              		.cfi_offset 7, -8
 5070              		.cfi_offset 14, -4
 5071 0002 85B0     		sub	sp, sp, #20
 5072              		.cfi_def_cfa_offset 32
 5073 0004 00AF     		add	r7, sp, #0
 5074              		.cfi_def_cfa_register 7
 5075 0006 7860     		str	r0, [r7, #4]
1128:.\DisplayUtils.c ****     PDISPLAYLAYOUTPTR pdisplay = (PDISPLAYLAYOUTPTR)pparam;
 5076              		.loc 1 1128 0
 5077 0008 7B68     		ldr	r3, [r7, #4]
 5078 000a BB60     		str	r3, [r7, #8]
1129:.\DisplayUtils.c ****     if(pdisplay)
 5079              		.loc 1 1129 0
 5080 000c BB68     		ldr	r3, [r7, #8]
 5081 000e 002B     		cmp	r3, #0
 5082 0010 00F08E80 		beq	.L300
1130:.\DisplayUtils.c ****     {
1131:.\DisplayUtils.c ****         if(pdisplay->_psequesteredmessagesink)
 5083              		.loc 1 1131 0
 5084 0014 BB68     		ldr	r3, [r7, #8]
 5085 0016 1B6B     		ldr	r3, [r3, #48]
 5086 0018 002B     		cmp	r3, #0
 5087 001a 04D0     		beq	.L302
1132:.\DisplayUtils.c ****             ReleaseSinkMessage((PSINKMESSAGEPTR)pdisplay->_psequesteredmessagesink);
 5088              		.loc 1 1132 0
 5089 001c BB68     		ldr	r3, [r7, #8]
 5090 001e 1B6B     		ldr	r3, [r3, #48]
 5091 0020 1846     		mov	r0, r3
 5092 0022 FFF7FEFF 		bl	ReleaseSinkMessage
 5093              	.L302:
1133:.\DisplayUtils.c **** 
1134:.\DisplayUtils.c ****         pdisplay->_psequesteredmessagesink = AllocateMessageSlot();
 5094              		.loc 1 1134 0
 5095 0026 FFF7FEFF 		bl	AllocateMessageSlot
 5096 002a 0246     		mov	r2, r0


 5097 002c BB68     		ldr	r3, [r7, #8]
 5098 002e 1A63     		str	r2, [r3, #48]
1135:.\DisplayUtils.c ****         if(pdisplay->_dispid == DISPLAY1)
 5099              		.loc 1 1135 0
 5100 0030 BB68     		ldr	r3, [r7, #8]
 5101 0032 1B78     		ldrb	r3, [r3]	@ zero_extendqisi2
 5102 0034 002B     		cmp	r3, #0
 5103 0036 04D1     		bne	.L303
1136:.\DisplayUtils.c ****             ((PSINKMESSAGEPTR)pdisplay->_psequesteredmessagesink)->_messageid = DISPLAY1_MESSAGE;
 5104              		.loc 1 1136 0
 5105 0038 BB68     		ldr	r3, [r7, #8]
 5106 003a 1B6B     		ldr	r3, [r3, #48]
 5107 003c 1C22     		movs	r2, #28
 5108 003e 5A70     		strb	r2, [r3, #1]
 5109 0040 03E0     		b	.L304
 5110              	.L303:
1137:.\DisplayUtils.c ****         else
1138:.\DisplayUtils.c ****             ((PSINKMESSAGEPTR)pdisplay->_psequesteredmessagesink)->_messageid = DISPLAY2_MESSAGE;  
 5111              		.loc 1 1138 0
 5112 0042 BB68     		ldr	r3, [r7, #8]
 5113 0044 1B6B     		ldr	r3, [r3, #48]
 5114 0046 2022     		movs	r2, #32
 5115 0048 5A70     		strb	r2, [r3, #1]
 5116              	.L304:
1139:.\DisplayUtils.c ****             
1140:.\DisplayUtils.c ****         ((PSINKMESSAGEPTR)pdisplay->_psequesteredmessagesink)->_messagetype = FIRSTFOUND;
 5117              		.loc 1 1140 0
 5118 004a BB68     		ldr	r3, [r7, #8]
 5119 004c 1B6B     		ldr	r3, [r3, #48]
 5120 004e 0322     		movs	r2, #3
 5121 0050 9A70     		strb	r2, [r3, #2]
1141:.\DisplayUtils.c ****         
1142:.\DisplayUtils.c ****         memset(pdisplay->_bufferinfo._buffer, 0x00, _DISPLAY_BUFFER_SIZE_);
 5122              		.loc 1 1142 0
 5123 0052 BB68     		ldr	r3, [r7, #8]
 5124 0054 1D33     		adds	r3, r3, #29
 5125 0056 1846     		mov	r0, r3
 5126 0058 0021     		movs	r1, #0
 5127 005a 1022     		movs	r2, #16
 5128 005c FFF7FEFF 		bl	memset
1143:.\DisplayUtils.c ****         
1144:.\DisplayUtils.c ****         if(_g_dispenserlayoutinfo._numpositions < 0x04)
 5129              		.loc 1 1144 0
 5130 0060 354B     		ldr	r3, .L313
 5131 0062 9B78     		ldrb	r3, [r3, #2]	@ zero_extendqisi2
 5132 0064 032B     		cmp	r3, #3
 5133 0066 63D8     		bhi	.L300
 5134              	.LBB35:
1145:.\DisplayUtils.c ****         {
1146:.\DisplayUtils.c ****             DisplayScreenBufferMap *ptr = _g_buffscrlut;
 5135              		.loc 1 1146 0
 5136 0068 344B     		ldr	r3, .L313+4
 5137 006a FB60     		str	r3, [r7, #12]
1147:.\DisplayUtils.c ****             while(ptr->_refscrid != 0x00)
 5138              		.loc 1 1147 0
 5139 006c 59E0     		b	.L305
 5140              	.L312:


1148:.\DisplayUtils.c ****             {
1149:.\DisplayUtils.c ****                 if(pdisplay->_pcurrflow->_scrid == ptr->_refscrid)
 5141              		.loc 1 1149 0
 5142 006e BB68     		ldr	r3, [r7, #8]
 5143 0070 1B69     		ldr	r3, [r3, #16]
 5144 0072 1A78     		ldrb	r2, [r3]	@ zero_extendqisi2
 5145 0074 FB68     		ldr	r3, [r7, #12]
 5146 0076 1B78     		ldrb	r3, [r3]	@ zero_extendqisi2
 5147 0078 9A42     		cmp	r2, r3
 5148 007a 4FD1     		bne	.L306
1150:.\DisplayUtils.c ****                 {
1151:.\DisplayUtils.c ****                     switch(ptr->_refscrid)
 5149              		.loc 1 1151 0
 5150 007c FB68     		ldr	r3, [r7, #12]
 5151 007e 1B78     		ldrb	r3, [r3]	@ zero_extendqisi2
 5152 0080 2E2B     		cmp	r3, #46
 5153 0082 00D0     		beq	.L308
1152:.\DisplayUtils.c ****                     {
1153:.\DisplayUtils.c ****                         case DISPLAY_SELECCIONE_POSICION:
1154:.\DisplayUtils.c ****                         {
1155:.\DisplayUtils.c ****                             if(pdisplay->_dispid == DISPLAY1)
1156:.\DisplayUtils.c ****                             {
1157:.\DisplayUtils.c ****                                 memset(&((PSINKMESSAGEPTR)pdisplay->_psequesteredmessagesink)->_buf
1158:.\DisplayUtils.c ****                                 ((PSINKMESSAGEPTR)pdisplay->_psequesteredmessagesink)->_buffer[ptr-
1159:.\DisplayUtils.c ****                                 ((PSINKMESSAGEPTR)pdisplay->_psequesteredmessagesink)->_buffer[GetB
1160:.\DisplayUtils.c ****                             }
1161:.\DisplayUtils.c ****                             else if(pdisplay->_dispid == DISPLAY2)
1162:.\DisplayUtils.c ****                             {
1163:.\DisplayUtils.c ****                                 memset(&((PSINKMESSAGEPTR)pdisplay->_psequesteredmessagesink)->_buf
1164:.\DisplayUtils.c ****                                 ((PSINKMESSAGEPTR)pdisplay->_psequesteredmessagesink)->_buffer[ptr-
1165:.\DisplayUtils.c ****                                 ((PSINKMESSAGEPTR)pdisplay->_psequesteredmessagesink)->_buffer[GetB
1166:.\DisplayUtils.c ****                             }
1167:.\DisplayUtils.c ****                             break;
1168:.\DisplayUtils.c ****                         }
1169:.\DisplayUtils.c ****                     }
1170:.\DisplayUtils.c ****                     break;
 5154              		.loc 1 1170 0
 5155 0084 51E0     		b	.L311
 5156              	.L308:
1155:.\DisplayUtils.c ****                             {
 5157              		.loc 1 1155 0
 5158 0086 BB68     		ldr	r3, [r7, #8]
 5159 0088 1B78     		ldrb	r3, [r3]	@ zero_extendqisi2
 5160 008a 002B     		cmp	r3, #0
 5161 008c 20D1     		bne	.L309
1157:.\DisplayUtils.c ****                                 ((PSINKMESSAGEPTR)pdisplay->_psequesteredmessagesink)->_buffer[ptr-
 5162              		.loc 1 1157 0
 5163 008e BB68     		ldr	r3, [r7, #8]
 5164 0090 1A6B     		ldr	r2, [r3, #48]
 5165 0092 FB68     		ldr	r3, [r7, #12]
 5166 0094 5B88     		ldrh	r3, [r3, #2]
 5167 0096 0833     		adds	r3, r3, #8
 5168 0098 1344     		add	r3, r3, r2
 5169 009a 1A1D     		adds	r2, r3, #4
 5170 009c FB68     		ldr	r3, [r7, #12]
 5171 009e 1B79     		ldrb	r3, [r3, #4]	@ zero_extendqisi2
 5172 00a0 1046     		mov	r0, r2


 5173 00a2 0021     		movs	r1, #0
 5174 00a4 1A46     		mov	r2, r3
 5175 00a6 FFF7FEFF 		bl	memset
1158:.\DisplayUtils.c ****                                 ((PSINKMESSAGEPTR)pdisplay->_psequesteredmessagesink)->_buffer[GetB
 5176              		.loc 1 1158 0
 5177 00aa BB68     		ldr	r3, [r7, #8]
 5178 00ac 1B6B     		ldr	r3, [r3, #48]
 5179 00ae FA68     		ldr	r2, [r7, #12]
 5180 00b0 5288     		ldrh	r2, [r2, #2]
 5181 00b2 1344     		add	r3, r3, r2
 5182 00b4 5622     		movs	r2, #86
 5183 00b6 1A73     		strb	r2, [r3, #12]
1159:.\DisplayUtils.c ****                             }
 5184              		.loc 1 1159 0
 5185 00b8 BB68     		ldr	r3, [r7, #8]
 5186 00ba 1C6B     		ldr	r4, [r3, #48]
 5187 00bc FA20     		movs	r0, #250
 5188 00be FFF7FEFF 		bl	GetBufferIndexFromDisplayID
 5189 00c2 0346     		mov	r3, r0
 5190 00c4 1946     		mov	r1, r3
 5191 00c6 BB68     		ldr	r3, [r7, #8]
 5192 00c8 1A78     		ldrb	r2, [r3]	@ zero_extendqisi2
 5193 00ca 6318     		adds	r3, r4, r1
 5194 00cc 1A73     		strb	r2, [r3, #12]
 5195 00ce 23E0     		b	.L310
 5196              	.L309:
1161:.\DisplayUtils.c ****                             {
 5197              		.loc 1 1161 0
 5198 00d0 BB68     		ldr	r3, [r7, #8]
 5199 00d2 1B78     		ldrb	r3, [r3]	@ zero_extendqisi2
 5200 00d4 012B     		cmp	r3, #1
 5201 00d6 1FD1     		bne	.L310
1163:.\DisplayUtils.c ****                                 ((PSINKMESSAGEPTR)pdisplay->_psequesteredmessagesink)->_buffer[ptr-
 5202              		.loc 1 1163 0
 5203 00d8 BB68     		ldr	r3, [r7, #8]
 5204 00da 1A6B     		ldr	r2, [r3, #48]
 5205 00dc FB68     		ldr	r3, [r7, #12]
 5206 00de 5B88     		ldrh	r3, [r3, #2]
 5207 00e0 0833     		adds	r3, r3, #8
 5208 00e2 1344     		add	r3, r3, r2
 5209 00e4 1A1D     		adds	r2, r3, #4
 5210 00e6 FB68     		ldr	r3, [r7, #12]
 5211 00e8 1B79     		ldrb	r3, [r3, #4]	@ zero_extendqisi2
 5212 00ea 1046     		mov	r0, r2
 5213 00ec 0021     		movs	r1, #0
 5214 00ee 1A46     		mov	r2, r3
 5215 00f0 FFF7FEFF 		bl	memset
1164:.\DisplayUtils.c ****                                 ((PSINKMESSAGEPTR)pdisplay->_psequesteredmessagesink)->_buffer[GetB
 5216              		.loc 1 1164 0
 5217 00f4 BB68     		ldr	r3, [r7, #8]
 5218 00f6 1B6B     		ldr	r3, [r3, #48]
 5219 00f8 FA68     		ldr	r2, [r7, #12]
 5220 00fa 5288     		ldrh	r2, [r2, #2]
 5221 00fc 1344     		add	r3, r3, r2
 5222 00fe 5722     		movs	r2, #87
 5223 0100 1A73     		strb	r2, [r3, #12]
1165:.\DisplayUtils.c ****                             }


 5224              		.loc 1 1165 0
 5225 0102 BB68     		ldr	r3, [r7, #8]
 5226 0104 1C6B     		ldr	r4, [r3, #48]
 5227 0106 FA20     		movs	r0, #250
 5228 0108 FFF7FEFF 		bl	GetBufferIndexFromDisplayID
 5229 010c 0346     		mov	r3, r0
 5230 010e 1946     		mov	r1, r3
 5231 0110 BB68     		ldr	r3, [r7, #8]
 5232 0112 1A78     		ldrb	r2, [r3]	@ zero_extendqisi2
 5233 0114 6318     		adds	r3, r4, r1
 5234 0116 1A73     		strb	r2, [r3, #12]
 5235              	.L310:
1167:.\DisplayUtils.c ****                         }
 5236              		.loc 1 1167 0
 5237 0118 00BF     		nop
 5238              		.loc 1 1170 0
 5239 011a 06E0     		b	.L311
 5240              	.L306:
1171:.\DisplayUtils.c ****                 }
1172:.\DisplayUtils.c ****                 ptr++;
 5241              		.loc 1 1172 0
 5242 011c FB68     		ldr	r3, [r7, #12]
 5243 011e 0633     		adds	r3, r3, #6
 5244 0120 FB60     		str	r3, [r7, #12]
 5245              	.L305:
1147:.\DisplayUtils.c ****             {
 5246              		.loc 1 1147 0
 5247 0122 FB68     		ldr	r3, [r7, #12]
 5248 0124 1B78     		ldrb	r3, [r3]	@ zero_extendqisi2
 5249 0126 002B     		cmp	r3, #0
 5250 0128 A1D1     		bne	.L312
 5251              	.L311:
1173:.\DisplayUtils.c ****             }
1174:.\DisplayUtils.c ****             pdisplay->_currentstate = DISPLAY_LESS_THAN_FOUR_POSITIONS;
 5252              		.loc 1 1174 0
 5253 012a BB68     		ldr	r3, [r7, #8]
 5254 012c A422     		movs	r2, #164
 5255 012e 1A71     		strb	r2, [r3, #4]
 5256              	.L300:
 5257              	.LBE35:
1175:.\DisplayUtils.c ****         }
1176:.\DisplayUtils.c ****     }
1177:.\DisplayUtils.c **** }
 5258              		.loc 1 1177 0
 5259 0130 1437     		adds	r7, r7, #20
 5260              		.cfi_def_cfa_offset 12
 5261 0132 BD46     		mov	sp, r7
 5262              		.cfi_def_cfa_register 13
 5263              		@ sp needed
 5264 0134 90BD     		pop	{r4, r7, pc}
 5265              	.L314:
 5266 0136 00BF     		.align	2
 5267              	.L313:
 5268 0138 00000000 		.word	_g_dispenserlayoutinfo
 5269 013c 00000000 		.word	_g_buffscrlut
 5270              		.cfi_endproc
 5271              	.LFE91:


 5272              		.size	SequesterMessageSink, .-SequesterMessageSink
 5273              		.section	.text.CleanMessageSink,"ax",%progbits
 5274              		.align	2
 5275              		.global	CleanMessageSink
 5276              		.thumb
 5277              		.thumb_func
 5278              		.type	CleanMessageSink, %function
 5279              	CleanMessageSink:
 5280              	.LFB92:
1178:.\DisplayUtils.c **** 
1179:.\DisplayUtils.c **** //@Created by: HIJH
1180:.\DisplayUtils.c **** //@Date: Septembre de 2016
1181:.\DisplayUtils.c **** //Cleans the sink message that has been allocated to store the transacion data
1182:.\DisplayUtils.c **** void CleanMessageSink(void *pparam)
1183:.\DisplayUtils.c **** {
 5281              		.loc 1 1183 0
 5282              		.cfi_startproc
 5283              		@ args = 0, pretend = 0, frame = 16
 5284              		@ frame_needed = 1, uses_anonymous_args = 0
 5285 0000 80B5     		push	{r7, lr}
 5286              		.cfi_def_cfa_offset 8
 5287              		.cfi_offset 7, -8
 5288              		.cfi_offset 14, -4
 5289 0002 84B0     		sub	sp, sp, #16
 5290              		.cfi_def_cfa_offset 24
 5291 0004 00AF     		add	r7, sp, #0
 5292              		.cfi_def_cfa_register 7
 5293 0006 7860     		str	r0, [r7, #4]
1184:.\DisplayUtils.c ****     PDISPLAYLAYOUTPTR pdisplay = (PDISPLAYLAYOUTPTR)pparam;
 5294              		.loc 1 1184 0
 5295 0008 7B68     		ldr	r3, [r7, #4]
 5296 000a FB60     		str	r3, [r7, #12]
1185:.\DisplayUtils.c ****     if(pdisplay)
 5297              		.loc 1 1185 0
 5298 000c FB68     		ldr	r3, [r7, #12]
 5299 000e 002B     		cmp	r3, #0
 5300 0010 0FD0     		beq	.L315
1186:.\DisplayUtils.c ****     {
1187:.\DisplayUtils.c ****         if(pdisplay->_psequesteredmessagesink)
 5301              		.loc 1 1187 0
 5302 0012 FB68     		ldr	r3, [r7, #12]
 5303 0014 1B6B     		ldr	r3, [r3, #48]
 5304 0016 002B     		cmp	r3, #0
 5305 0018 04D0     		beq	.L317
1188:.\DisplayUtils.c ****             ReleaseSinkMessage((PSINKMESSAGEPTR)pdisplay->_psequesteredmessagesink);
 5306              		.loc 1 1188 0
 5307 001a FB68     		ldr	r3, [r7, #12]
 5308 001c 1B6B     		ldr	r3, [r3, #48]
 5309 001e 1846     		mov	r0, r3
 5310 0020 FFF7FEFF 		bl	ReleaseSinkMessage
 5311              	.L317:
1189:.\DisplayUtils.c ****         
1190:.\DisplayUtils.c ****         memset(pdisplay->_bufferinfo._buffer, 0x00, _DISPLAY_BUFFER_SIZE_);
 5312              		.loc 1 1190 0
 5313 0024 FB68     		ldr	r3, [r7, #12]
 5314 0026 1D33     		adds	r3, r3, #29
 5315 0028 1846     		mov	r0, r3


 5316 002a 0021     		movs	r1, #0
 5317 002c 1022     		movs	r2, #16
 5318 002e FFF7FEFF 		bl	memset
 5319              	.L315:
1191:.\DisplayUtils.c ****     }
1192:.\DisplayUtils.c **** }
 5320              		.loc 1 1192 0
 5321 0032 1037     		adds	r7, r7, #16
 5322              		.cfi_def_cfa_offset 8
 5323 0034 BD46     		mov	sp, r7
 5324              		.cfi_def_cfa_register 13
 5325              		@ sp needed
 5326 0036 80BD     		pop	{r7, pc}
 5327              		.cfi_endproc
 5328              	.LFE92:
 5329              		.size	CleanMessageSink, .-CleanMessageSink
 5330              		.section	.text.ReleaseMessageSink,"ax",%progbits
 5331              		.align	2
 5332              		.global	ReleaseMessageSink
 5333              		.thumb
 5334              		.thumb_func
 5335              		.type	ReleaseMessageSink, %function
 5336              	ReleaseMessageSink:
 5337              	.LFB93:
1193:.\DisplayUtils.c **** 
1194:.\DisplayUtils.c **** //@Created by: HIJH
1195:.\DisplayUtils.c **** //@Date: Septembre de 2016
1196:.\DisplayUtils.c **** //Sets the SinkMessage in "BUSY" state so the whole buffered data 
1197:.\DisplayUtils.c **** //from the display flow will be send to the pump transaction model
1198:.\DisplayUtils.c **** void ReleaseMessageSink(void *pparam)
1199:.\DisplayUtils.c **** {
 5338              		.loc 1 1199 0
 5339              		.cfi_startproc
 5340              		@ args = 0, pretend = 0, frame = 16
 5341              		@ frame_needed = 1, uses_anonymous_args = 0
 5342 0000 80B5     		push	{r7, lr}
 5343              		.cfi_def_cfa_offset 8
 5344              		.cfi_offset 7, -8
 5345              		.cfi_offset 14, -4
 5346 0002 84B0     		sub	sp, sp, #16
 5347              		.cfi_def_cfa_offset 24
 5348 0004 00AF     		add	r7, sp, #0
 5349              		.cfi_def_cfa_register 7
 5350 0006 7860     		str	r0, [r7, #4]
1200:.\DisplayUtils.c ****     PDISPLAYLAYOUTPTR pdisplay = (PDISPLAYLAYOUTPTR)pparam;
 5351              		.loc 1 1200 0
 5352 0008 7B68     		ldr	r3, [r7, #4]
 5353 000a FB60     		str	r3, [r7, #12]
1201:.\DisplayUtils.c ****     if(pdisplay)
 5354              		.loc 1 1201 0
 5355 000c FB68     		ldr	r3, [r7, #12]
 5356 000e 002B     		cmp	r3, #0
 5357 0010 00F0B280 		beq	.L318
 5358              	.LBB36:
1202:.\DisplayUtils.c ****     {
1203:.\DisplayUtils.c ****         PSINKMESSAGEPTR psinkmsg = (PSINKMESSAGEPTR)pdisplay->_psequesteredmessagesink;
 5359              		.loc 1 1203 0


 5360 0014 FB68     		ldr	r3, [r7, #12]
 5361 0016 1B6B     		ldr	r3, [r3, #48]
 5362 0018 BB60     		str	r3, [r7, #8]
1204:.\DisplayUtils.c ****         if(psinkmsg)
 5363              		.loc 1 1204 0
 5364 001a BB68     		ldr	r3, [r7, #8]
 5365 001c 002B     		cmp	r3, #0
 5366 001e 00F0AB80 		beq	.L318
1205:.\DisplayUtils.c ****         {
1206:.\DisplayUtils.c ****             //CAREFUL WITH RETURNS BETWEEN THE LOCK/UNLOCK CALLS
1207:.\DisplayUtils.c ****             //AND RECURSIVE CALLS THAT WOULD DEADLOCK!
1208:.\DisplayUtils.c ****             I2CBusLock();
 5367              		.loc 1 1208 0
 5368 0022 FFF7FEFF 		bl	I2CBusLock
1209:.\DisplayUtils.c ****             
1210:.\DisplayUtils.c ****             ClearEepromBuffer();
 5369              		.loc 1 1210 0
 5370 0026 FFF7FEFF 		bl	ClearEepromBuffer
1211:.\DisplayUtils.c ****             //Here we store into EEPROM, the whole captured data for the current transaction
1212:.\DisplayUtils.c ****             //on either display and position
1213:.\DisplayUtils.c ****             if(pdisplay->_dispid == DISPLAY1)
 5371              		.loc 1 1213 0
 5372 002a FB68     		ldr	r3, [r7, #12]
 5373 002c 1B78     		ldrb	r3, [r3]	@ zero_extendqisi2
 5374 002e 002B     		cmp	r3, #0
 5375 0030 4FD1     		bne	.L320
1214:.\DisplayUtils.c ****             {
1215:.\DisplayUtils.c ****                 switch(psinkmsg->_buffer[GetBufferIndexFromDisplayID(DISPLAY_SELECCIONE_POSICION)])
 5376              		.loc 1 1215 0
 5377 0032 2E20     		movs	r0, #46
 5378 0034 FFF7FEFF 		bl	GetBufferIndexFromDisplayID
 5379 0038 0346     		mov	r3, r0
 5380 003a 1A46     		mov	r2, r3
 5381 003c BB68     		ldr	r3, [r7, #8]
 5382 003e 1344     		add	r3, r3, r2
 5383 0040 1B7B     		ldrb	r3, [r3, #12]	@ zero_extendqisi2
 5384 0042 562B     		cmp	r3, #86
 5385 0044 02D0     		beq	.L322
 5386 0046 572B     		cmp	r3, #87
 5387 0048 21D0     		beq	.L323
 5388 004a 8DE0     		b	.L328
 5389              	.L322:
1216:.\DisplayUtils.c ****                 {
1217:.\DisplayUtils.c ****                     case POSITIONA:
1218:.\DisplayUtils.c ****                     {
1219:.\DisplayUtils.c ****                         ClearEepromBuffer();
 5390              		.loc 1 1219 0
 5391 004c FFF7FEFF 		bl	ClearEepromBuffer
1220:.\DisplayUtils.c ****                         memcpy(GetEepromBuffer(), ((PSINKMESSAGEPTR)pdisplay->_psequesteredmessages
 5392              		.loc 1 1220 0
 5393 0050 FFF7FEFF 		bl	GetEepromBuffer
 5394 0054 0246     		mov	r2, r0
 5395 0056 FB68     		ldr	r3, [r7, #12]
 5396 0058 1B6B     		ldr	r3, [r3, #48]
 5397 005a 0C33     		adds	r3, r3, #12
 5398 005c 1046     		mov	r0, r2
 5399 005e 1946     		mov	r1, r3


 5400 0060 4022     		movs	r2, #64
 5401 0062 FFF7FEFF 		bl	memcpy
1221:.\DisplayUtils.c ****                         if(psinkmsg->_buffer[GetBufferIndexFromDisplayID(DISPLAY_FORMA_PAGO_DESEADA
 5402              		.loc 1 1221 0
 5403 0066 0420     		movs	r0, #4
 5404 0068 FFF7FEFF 		bl	GetBufferIndexFromDisplayID
 5405 006c 0346     		mov	r3, r0
 5406 006e 1A46     		mov	r2, r3
 5407 0070 BB68     		ldr	r3, [r7, #8]
 5408 0072 1344     		add	r3, r3, r2
 5409 0074 1B7B     		ldrb	r3, [r3, #12]	@ zero_extendqisi2
 5410 0076 0D2B     		cmp	r3, #13
 5411 0078 04D1     		bne	.L324
1222:.\DisplayUtils.c ****                             StoreEepromPage(EEPROM_DISPENSER_PUMP11_TRANSACTION_PAGE);
 5412              		.loc 1 1222 0
 5413 007a 4FF4C060 		mov	r0, #1536
 5414 007e FFF7FEFF 		bl	StoreEepromPage
1223:.\DisplayUtils.c ****                         else
1224:.\DisplayUtils.c ****                             StoreEepromPage(EEPROM_DISPENSER_PUMP13_TRANSACTION_PAGE);
1225:.\DisplayUtils.c ****                             
1226:.\DisplayUtils.c ****                         break;
 5415              		.loc 1 1226 0
 5416 0082 25E0     		b	.L321
 5417              	.L324:
1224:.\DisplayUtils.c ****                             
 5418              		.loc 1 1224 0
 5419 0084 4FF4D060 		mov	r0, #1664
 5420 0088 FFF7FEFF 		bl	StoreEepromPage
 5421              		.loc 1 1226 0
 5422 008c 20E0     		b	.L321
 5423              	.L323:
1227:.\DisplayUtils.c ****                     }
1228:.\DisplayUtils.c ****                     case POSITIONB:
1229:.\DisplayUtils.c ****                     {
1230:.\DisplayUtils.c ****                         ClearEepromBuffer();
 5424              		.loc 1 1230 0
 5425 008e FFF7FEFF 		bl	ClearEepromBuffer
1231:.\DisplayUtils.c ****                         memcpy(GetEepromBuffer(), ((PSINKMESSAGEPTR)pdisplay->_psequesteredmessages
 5426              		.loc 1 1231 0
 5427 0092 FFF7FEFF 		bl	GetEepromBuffer
 5428 0096 0246     		mov	r2, r0
 5429 0098 FB68     		ldr	r3, [r7, #12]
 5430 009a 1B6B     		ldr	r3, [r3, #48]
 5431 009c 0C33     		adds	r3, r3, #12
 5432 009e 1046     		mov	r0, r2
 5433 00a0 1946     		mov	r1, r3
 5434 00a2 4022     		movs	r2, #64
 5435 00a4 FFF7FEFF 		bl	memcpy
1232:.\DisplayUtils.c ****                         if(psinkmsg->_buffer[GetBufferIndexFromDisplayID(DISPLAY_FORMA_PAGO_DESEADA
 5436              		.loc 1 1232 0
 5437 00a8 0420     		movs	r0, #4
 5438 00aa FFF7FEFF 		bl	GetBufferIndexFromDisplayID
 5439 00ae 0346     		mov	r3, r0
 5440 00b0 1A46     		mov	r2, r3
 5441 00b2 BB68     		ldr	r3, [r7, #8]
 5442 00b4 1344     		add	r3, r3, r2
 5443 00b6 1B7B     		ldrb	r3, [r3, #12]	@ zero_extendqisi2


 5444 00b8 0D2B     		cmp	r3, #13
 5445 00ba 04D1     		bne	.L326
1233:.\DisplayUtils.c ****                             StoreEepromPage(EEPROM_DISPENSER_PUMP31_TRANSACTION_PAGE);
 5446              		.loc 1 1233 0
 5447 00bc 4FF40060 		mov	r0, #2048
 5448 00c0 FFF7FEFF 		bl	StoreEepromPage
1234:.\DisplayUtils.c ****                         else
1235:.\DisplayUtils.c ****                             StoreEepromPage(EEPROM_DISPENSER_PUMP33_TRANSACTION_PAGE);
1236:.\DisplayUtils.c ****                             
1237:.\DisplayUtils.c ****                         break;
 5449              		.loc 1 1237 0
 5450 00c4 03E0     		b	.L335
 5451              	.L326:
1235:.\DisplayUtils.c ****                             
 5452              		.loc 1 1235 0
 5453 00c6 4FF40860 		mov	r0, #2176
 5454 00ca FFF7FEFF 		bl	StoreEepromPage
 5455              	.L335:
 5456              		.loc 1 1237 0
 5457 00ce 00BF     		nop
 5458              	.L321:
 5459 00d0 4AE0     		b	.L328
 5460              	.L320:
1238:.\DisplayUtils.c ****                     }
1239:.\DisplayUtils.c ****                 }
1240:.\DisplayUtils.c ****             }
1241:.\DisplayUtils.c ****             else
1242:.\DisplayUtils.c ****             {
1243:.\DisplayUtils.c ****                 switch(psinkmsg->_buffer[GetBufferIndexFromDisplayID(DISPLAY_SELECCIONE_POSICION)])
 5461              		.loc 1 1243 0
 5462 00d2 2E20     		movs	r0, #46
 5463 00d4 FFF7FEFF 		bl	GetBufferIndexFromDisplayID
 5464 00d8 0346     		mov	r3, r0
 5465 00da 1A46     		mov	r2, r3
 5466 00dc BB68     		ldr	r3, [r7, #8]
 5467 00de 1344     		add	r3, r3, r2
 5468 00e0 1B7B     		ldrb	r3, [r3, #12]	@ zero_extendqisi2
 5469 00e2 562B     		cmp	r3, #86
 5470 00e4 02D0     		beq	.L329
 5471 00e6 572B     		cmp	r3, #87
 5472 00e8 1FD0     		beq	.L330
 5473 00ea 3DE0     		b	.L328
 5474              	.L329:
1244:.\DisplayUtils.c ****                 {
1245:.\DisplayUtils.c ****                     case POSITIONA:
1246:.\DisplayUtils.c ****                         memcpy(GetEepromBuffer(), ((PSINKMESSAGEPTR)pdisplay->_psequesteredmessages
 5475              		.loc 1 1246 0
 5476 00ec FFF7FEFF 		bl	GetEepromBuffer
 5477 00f0 0246     		mov	r2, r0
 5478 00f2 FB68     		ldr	r3, [r7, #12]
 5479 00f4 1B6B     		ldr	r3, [r3, #48]
 5480 00f6 0C33     		adds	r3, r3, #12
 5481 00f8 1046     		mov	r0, r2
 5482 00fa 1946     		mov	r1, r3
 5483 00fc 4022     		movs	r2, #64
 5484 00fe FFF7FEFF 		bl	memcpy
1247:.\DisplayUtils.c ****                         if(psinkmsg->_buffer[GetBufferIndexFromDisplayID(DISPLAY_FORMA_PAGO_DESEADA


 5485              		.loc 1 1247 0
 5486 0102 0420     		movs	r0, #4
 5487 0104 FFF7FEFF 		bl	GetBufferIndexFromDisplayID
 5488 0108 0346     		mov	r3, r0
 5489 010a 1A46     		mov	r2, r3
 5490 010c BB68     		ldr	r3, [r7, #8]
 5491 010e 1344     		add	r3, r3, r2
 5492 0110 1B7B     		ldrb	r3, [r3, #12]	@ zero_extendqisi2
 5493 0112 0D2B     		cmp	r3, #13
 5494 0114 04D1     		bne	.L331
1248:.\DisplayUtils.c ****                             StoreEepromPage(EEPROM_DISPENSER_PUMP41_TRANSACTION_PAGE);
 5495              		.loc 1 1248 0
 5496 0116 4FF41060 		mov	r0, #2304
 5497 011a FFF7FEFF 		bl	StoreEepromPage
1249:.\DisplayUtils.c ****                         else
1250:.\DisplayUtils.c ****                             StoreEepromPage(EEPROM_DISPENSER_PUMP43_TRANSACTION_PAGE);
1251:.\DisplayUtils.c ****                             
1252:.\DisplayUtils.c ****                         break;
 5498              		.loc 1 1252 0
 5499 011e 23E0     		b	.L328
 5500              	.L331:
1250:.\DisplayUtils.c ****                             
 5501              		.loc 1 1250 0
 5502 0120 4FF41860 		mov	r0, #2432
 5503 0124 FFF7FEFF 		bl	StoreEepromPage
 5504              		.loc 1 1252 0
 5505 0128 1EE0     		b	.L328
 5506              	.L330:
1253:.\DisplayUtils.c ****                     case POSITIONB:
1254:.\DisplayUtils.c ****                         memcpy(GetEepromBuffer(), ((PSINKMESSAGEPTR)pdisplay->_psequesteredmessages
 5507              		.loc 1 1254 0
 5508 012a FFF7FEFF 		bl	GetEepromBuffer
 5509 012e 0246     		mov	r2, r0
 5510 0130 FB68     		ldr	r3, [r7, #12]
 5511 0132 1B6B     		ldr	r3, [r3, #48]
 5512 0134 0C33     		adds	r3, r3, #12
 5513 0136 1046     		mov	r0, r2
 5514 0138 1946     		mov	r1, r3
 5515 013a 4022     		movs	r2, #64
 5516 013c FFF7FEFF 		bl	memcpy
1255:.\DisplayUtils.c ****                         if(psinkmsg->_buffer[GetBufferIndexFromDisplayID(DISPLAY_FORMA_PAGO_DESEADA
 5517              		.loc 1 1255 0
 5518 0140 0420     		movs	r0, #4
 5519 0142 FFF7FEFF 		bl	GetBufferIndexFromDisplayID
 5520 0146 0346     		mov	r3, r0
 5521 0148 1A46     		mov	r2, r3
 5522 014a BB68     		ldr	r3, [r7, #8]
 5523 014c 1344     		add	r3, r3, r2
 5524 014e 1B7B     		ldrb	r3, [r3, #12]	@ zero_extendqisi2
 5525 0150 0D2B     		cmp	r3, #13
 5526 0152 04D1     		bne	.L333
1256:.\DisplayUtils.c ****                             StoreEepromPage(EEPROM_DISPENSER_PUMP21_TRANSACTION_PAGE);
 5527              		.loc 1 1256 0
 5528 0154 4FF4E060 		mov	r0, #1792
 5529 0158 FFF7FEFF 		bl	StoreEepromPage
1257:.\DisplayUtils.c ****                         else
1258:.\DisplayUtils.c ****                             StoreEepromPage(EEPROM_DISPENSER_PUMP23_TRANSACTION_PAGE);


1259:.\DisplayUtils.c ****                             
1260:.\DisplayUtils.c ****                         break;
 5530              		.loc 1 1260 0
 5531 015c 03E0     		b	.L336
 5532              	.L333:
1258:.\DisplayUtils.c ****                             
 5533              		.loc 1 1258 0
 5534 015e 4FF4F060 		mov	r0, #1920
 5535 0162 FFF7FEFF 		bl	StoreEepromPage
 5536              	.L336:
 5537              		.loc 1 1260 0
 5538 0166 00BF     		nop
 5539              	.L328:
1261:.\DisplayUtils.c ****                 }
1262:.\DisplayUtils.c ****             }
1263:.\DisplayUtils.c ****             I2CBusUnlock();
 5540              		.loc 1 1263 0
 5541 0168 FFF7FEFF 		bl	I2CBusUnlock
1264:.\DisplayUtils.c ****             
1265:.\DisplayUtils.c ****             //////////////////////////////////////////////////////////////////////////////////
1266:.\DisplayUtils.c ****             //THIS MUST BE SET TO "SINK_BUSY" TO ALLOW FOR ITS PROCESSING!!! KEEP THIS!!!
1267:.\DisplayUtils.c ****             psinkmsg->_messagestate = SINK_BUSY;
 5542              		.loc 1 1267 0
 5543 016c BB68     		ldr	r3, [r7, #8]
 5544 016e 0322     		movs	r2, #3
 5545 0170 DA70     		strb	r2, [r3, #3]
1268:.\DisplayUtils.c ****             //////////////////////////////////////////////////////////////////////////////////
1269:.\DisplayUtils.c ****             pdisplay->_psequesteredmessagesink = NULL;
 5546              		.loc 1 1269 0
 5547 0172 FB68     		ldr	r3, [r7, #12]
 5548 0174 0022     		movs	r2, #0
 5549 0176 1A63     		str	r2, [r3, #48]
 5550              	.L318:
 5551              	.LBE36:
1270:.\DisplayUtils.c ****         }
1271:.\DisplayUtils.c ****     }
1272:.\DisplayUtils.c **** }
 5552              		.loc 1 1272 0
 5553 0178 1037     		adds	r7, r7, #16
 5554              		.cfi_def_cfa_offset 8
 5555 017a BD46     		mov	sp, r7
 5556              		.cfi_def_cfa_register 13
 5557              		@ sp needed
 5558 017c 80BD     		pop	{r7, pc}
 5559              		.cfi_endproc
 5560              	.LFE93:
 5561              		.size	ReleaseMessageSink, .-ReleaseMessageSink
 5562 017e 00BF     		.section	.text.StoreTransactionData,"ax",%progbits
 5563              		.align	2
 5564              		.global	StoreTransactionData
 5565              		.thumb
 5566              		.thumb_func
 5567              		.type	StoreTransactionData, %function
 5568              	StoreTransactionData:
 5569              	.LFB94:
1273:.\DisplayUtils.c **** 
1274:.\DisplayUtils.c **** //@Created by: HIJH


1275:.\DisplayUtils.c **** //@Date: Septembre de 2016
1276:.\DisplayUtils.c **** //Buffers the captured data from the display flow and makes a predefined layout for the
1277:.\DisplayUtils.c **** //upcoming transaction on the selected pump.
1278:.\DisplayUtils.c **** void StoreTransactionData(void *pparam)
1279:.\DisplayUtils.c **** {
 5570              		.loc 1 1279 0
 5571              		.cfi_startproc
 5572              		@ args = 0, pretend = 0, frame = 16
 5573              		@ frame_needed = 1, uses_anonymous_args = 0
 5574 0000 90B5     		push	{r4, r7, lr}
 5575              		.cfi_def_cfa_offset 12
 5576              		.cfi_offset 4, -12
 5577              		.cfi_offset 7, -8
 5578              		.cfi_offset 14, -4
 5579 0002 85B0     		sub	sp, sp, #20
 5580              		.cfi_def_cfa_offset 32
 5581 0004 00AF     		add	r7, sp, #0
 5582              		.cfi_def_cfa_register 7
 5583 0006 7860     		str	r0, [r7, #4]
1280:.\DisplayUtils.c ****     PDISPLAYLAYOUTPTR pdisplay = (PDISPLAYLAYOUTPTR)pparam;
 5584              		.loc 1 1280 0
 5585 0008 7B68     		ldr	r3, [r7, #4]
 5586 000a BB60     		str	r3, [r7, #8]
1281:.\DisplayUtils.c ****     if(pdisplay)
 5587              		.loc 1 1281 0
 5588 000c BB68     		ldr	r3, [r7, #8]
 5589 000e 002B     		cmp	r3, #0
 5590 0010 00F0DB81 		beq	.L337
1282:.\DisplayUtils.c ****         if(pdisplay->_psequesteredmessagesink != NULL)
 5591              		.loc 1 1282 0
 5592 0014 BB68     		ldr	r3, [r7, #8]
 5593 0016 1B6B     		ldr	r3, [r3, #48]
 5594 0018 002B     		cmp	r3, #0
 5595 001a 00F0D681 		beq	.L337
 5596              	.LBB37:
1283:.\DisplayUtils.c ****         {
1284:.\DisplayUtils.c ****             DisplayScreenBufferMap *ptr = _g_buffscrlut;
 5597              		.loc 1 1284 0
 5598 001e B34B     		ldr	r3, .L357
 5599 0020 FB60     		str	r3, [r7, #12]
1285:.\DisplayUtils.c ****             while(ptr->_refscrid != 0x00)
 5600              		.loc 1 1285 0
 5601 0022 CBE1     		b	.L339
 5602              	.L355:
1286:.\DisplayUtils.c ****             {
1287:.\DisplayUtils.c ****                 if(pdisplay->_pcurrflow->_scrid == ptr->_refscrid)
 5603              		.loc 1 1287 0
 5604 0024 BB68     		ldr	r3, [r7, #8]
 5605 0026 1B69     		ldr	r3, [r3, #16]
 5606 0028 1A78     		ldrb	r2, [r3]	@ zero_extendqisi2
 5607 002a FB68     		ldr	r3, [r7, #12]
 5608 002c 1B78     		ldrb	r3, [r3]	@ zero_extendqisi2
 5609 002e 9A42     		cmp	r2, r3
 5610 0030 40F0C181 		bne	.L340
1288:.\DisplayUtils.c ****                 {
1289:.\DisplayUtils.c ****                     switch(ptr->_refscrid)
 5611              		.loc 1 1289 0


 5612 0034 FB68     		ldr	r3, [r7, #12]
 5613 0036 1B78     		ldrb	r3, [r3]	@ zero_extendqisi2
 5614 0038 043B     		subs	r3, r3, #4
 5615 003a 2A2B     		cmp	r3, #42
 5616 003c 00F2C481 		bhi	.L356
 5617 0040 01A2     		adr	r2, .L343
 5618 0042 52F823F0 		ldr	pc, [r2, r3, lsl #2]
 5619 0046 00BF     		.p2align 2
 5620              	.L343:
 5621 0048 F5000000 		.word	.L342+1
 5622 004c 75010000 		.word	.L344+1
 5623 0050 A5010000 		.word	.L345+1
 5624 0054 C9030000 		.word	.L356+1
 5625 0058 C9030000 		.word	.L356+1
 5626 005c C9030000 		.word	.L356+1
 5627 0060 3D020000 		.word	.L346+1
 5628 0064 7D020000 		.word	.L347+1
 5629 0068 C9030000 		.word	.L356+1
 5630 006c F1010000 		.word	.L348+1
 5631 0070 AD020000 		.word	.L349+1
 5632 0074 C9030000 		.word	.L356+1
 5633 0078 C9030000 		.word	.L356+1
 5634 007c C9030000 		.word	.L356+1
 5635 0080 75030000 		.word	.L350+1
 5636 0084 C9030000 		.word	.L356+1
 5637 0088 C9030000 		.word	.L356+1
 5638 008c C9030000 		.word	.L356+1
 5639 0090 C9030000 		.word	.L356+1
 5640 0094 C9030000 		.word	.L356+1
 5641 0098 C9030000 		.word	.L356+1
 5642 009c C9030000 		.word	.L356+1
 5643 00a0 C9030000 		.word	.L356+1
 5644 00a4 C9030000 		.word	.L356+1
 5645 00a8 C9030000 		.word	.L356+1
 5646 00ac C9030000 		.word	.L356+1
 5647 00b0 C9030000 		.word	.L356+1
 5648 00b4 C9030000 		.word	.L356+1
 5649 00b8 C9030000 		.word	.L356+1
 5650 00bc C9030000 		.word	.L356+1
 5651 00c0 C9030000 		.word	.L356+1
 5652 00c4 C9030000 		.word	.L356+1
 5653 00c8 F5020000 		.word	.L351+1
 5654 00cc 35030000 		.word	.L352+1
 5655 00d0 C9030000 		.word	.L356+1
 5656 00d4 C9030000 		.word	.L356+1
 5657 00d8 C9030000 		.word	.L356+1
 5658 00dc C9030000 		.word	.L356+1
 5659 00e0 C9030000 		.word	.L356+1
 5660 00e4 C9030000 		.word	.L356+1
 5661 00e8 C9030000 		.word	.L356+1
 5662 00ec C9030000 		.word	.L356+1
 5663 00f0 25010000 		.word	.L353+1
 5664              		.p2align 1
 5665              	.L342:
1290:.\DisplayUtils.c ****                     {
1291:.\DisplayUtils.c ****                         case DISPLAY_FORMA_PAGO_DESEADA:
1292:.\DisplayUtils.c ****                         {


1293:.\DisplayUtils.c ****                             memset(&((PSINKMESSAGEPTR)pdisplay->_psequesteredmessagesink)->_buffer[
 5666              		.loc 1 1293 0
 5667 00f4 BB68     		ldr	r3, [r7, #8]
 5668 00f6 1A6B     		ldr	r2, [r3, #48]
 5669 00f8 FB68     		ldr	r3, [r7, #12]
 5670 00fa 5B88     		ldrh	r3, [r3, #2]
 5671 00fc 0833     		adds	r3, r3, #8
 5672 00fe 1344     		add	r3, r3, r2
 5673 0100 1A1D     		adds	r2, r3, #4
 5674 0102 FB68     		ldr	r3, [r7, #12]
 5675 0104 1B79     		ldrb	r3, [r3, #4]	@ zero_extendqisi2
 5676 0106 1046     		mov	r0, r2
 5677 0108 0021     		movs	r1, #0
 5678 010a 1A46     		mov	r2, r3
 5679 010c FFF7FEFF 		bl	memset
1294:.\DisplayUtils.c ****                             ((PSINKMESSAGEPTR)pdisplay->_psequesteredmessagesink)->_buffer[ptr->_bu
 5680              		.loc 1 1294 0
 5681 0110 BB68     		ldr	r3, [r7, #8]
 5682 0112 1B6B     		ldr	r3, [r3, #48]
 5683 0114 FA68     		ldr	r2, [r7, #12]
 5684 0116 5288     		ldrh	r2, [r2, #2]
 5685 0118 1146     		mov	r1, r2
 5686 011a BA68     		ldr	r2, [r7, #8]
 5687 011c D278     		ldrb	r2, [r2, #3]	@ zero_extendqisi2
 5688 011e 0B44     		add	r3, r3, r1
 5689 0120 1A73     		strb	r2, [r3, #12]
1295:.\DisplayUtils.c ****                             break;
 5690              		.loc 1 1295 0
 5691 0122 47E1     		b	.L341
 5692              	.L353:
1296:.\DisplayUtils.c ****                         }
1297:.\DisplayUtils.c ****                         case DISPLAY_SELECCIONE_POSICION:
1298:.\DisplayUtils.c ****                         {
1299:.\DisplayUtils.c ****                             if(_g_dispenserlayoutinfo._numpositions == 0x04)
 5693              		.loc 1 1299 0
 5694 0124 724B     		ldr	r3, .L357+4
 5695 0126 9B78     		ldrb	r3, [r3, #2]	@ zero_extendqisi2
 5696 0128 042B     		cmp	r3, #4
 5697 012a 22D1     		bne	.L354
1300:.\DisplayUtils.c ****                             {
1301:.\DisplayUtils.c ****                                 memset(&((PSINKMESSAGEPTR)pdisplay->_psequesteredmessagesink)->_buf
 5698              		.loc 1 1301 0
 5699 012c BB68     		ldr	r3, [r7, #8]
 5700 012e 1A6B     		ldr	r2, [r3, #48]
 5701 0130 FB68     		ldr	r3, [r7, #12]
 5702 0132 5B88     		ldrh	r3, [r3, #2]
 5703 0134 0833     		adds	r3, r3, #8
 5704 0136 1344     		add	r3, r3, r2
 5705 0138 1A1D     		adds	r2, r3, #4
 5706 013a FB68     		ldr	r3, [r7, #12]
 5707 013c 1B79     		ldrb	r3, [r3, #4]	@ zero_extendqisi2
 5708 013e 1046     		mov	r0, r2
 5709 0140 0021     		movs	r1, #0
 5710 0142 1A46     		mov	r2, r3
 5711 0144 FFF7FEFF 		bl	memset
1302:.\DisplayUtils.c ****                                 ((PSINKMESSAGEPTR)pdisplay->_psequesteredmessagesink)->_buffer[ptr-
 5712              		.loc 1 1302 0


 5713 0148 BB68     		ldr	r3, [r7, #8]
 5714 014a 1B6B     		ldr	r3, [r3, #48]
 5715 014c FA68     		ldr	r2, [r7, #12]
 5716 014e 5288     		ldrh	r2, [r2, #2]
 5717 0150 1146     		mov	r1, r2
 5718 0152 BA68     		ldr	r2, [r7, #8]
 5719 0154 D278     		ldrb	r2, [r2, #3]	@ zero_extendqisi2
 5720 0156 0B44     		add	r3, r3, r1
 5721 0158 1A73     		strb	r2, [r3, #12]
1303:.\DisplayUtils.c ****                                 ((PSINKMESSAGEPTR)pdisplay->_psequesteredmessagesink)->_buffer[GetB
 5722              		.loc 1 1303 0
 5723 015a BB68     		ldr	r3, [r7, #8]
 5724 015c 1C6B     		ldr	r4, [r3, #48]
 5725 015e FA20     		movs	r0, #250
 5726 0160 FFF7FEFF 		bl	GetBufferIndexFromDisplayID
 5727 0164 0346     		mov	r3, r0
 5728 0166 1946     		mov	r1, r3
 5729 0168 BB68     		ldr	r3, [r7, #8]
 5730 016a 1A78     		ldrb	r2, [r3]	@ zero_extendqisi2
 5731 016c 6318     		adds	r3, r4, r1
 5732 016e 1A73     		strb	r2, [r3, #12]
1304:.\DisplayUtils.c ****                             }
1305:.\DisplayUtils.c ****                             break;
 5733              		.loc 1 1305 0
 5734 0170 20E1     		b	.L341
 5735              	.L354:
 5736 0172 1FE1     		b	.L341
 5737              	.L344:
1306:.\DisplayUtils.c ****                         }
1307:.\DisplayUtils.c ****                         case DISPLAY_FORMA_PROGRAMACION:
1308:.\DisplayUtils.c ****                         {
1309:.\DisplayUtils.c ****                             memset(&((PSINKMESSAGEPTR)pdisplay->_psequesteredmessagesink)->_buffer[
 5738              		.loc 1 1309 0
 5739 0174 BB68     		ldr	r3, [r7, #8]
 5740 0176 1A6B     		ldr	r2, [r3, #48]
 5741 0178 FB68     		ldr	r3, [r7, #12]
 5742 017a 5B88     		ldrh	r3, [r3, #2]
 5743 017c 0833     		adds	r3, r3, #8
 5744 017e 1344     		add	r3, r3, r2
 5745 0180 1A1D     		adds	r2, r3, #4
 5746 0182 FB68     		ldr	r3, [r7, #12]
 5747 0184 1B79     		ldrb	r3, [r3, #4]	@ zero_extendqisi2
 5748 0186 1046     		mov	r0, r2
 5749 0188 0021     		movs	r1, #0
 5750 018a 1A46     		mov	r2, r3
 5751 018c FFF7FEFF 		bl	memset
1310:.\DisplayUtils.c ****                             ((PSINKMESSAGEPTR)pdisplay->_psequesteredmessagesink)->_buffer[ptr->_bu
 5752              		.loc 1 1310 0
 5753 0190 BB68     		ldr	r3, [r7, #8]
 5754 0192 1B6B     		ldr	r3, [r3, #48]
 5755 0194 FA68     		ldr	r2, [r7, #12]
 5756 0196 5288     		ldrh	r2, [r2, #2]
 5757 0198 1146     		mov	r1, r2
 5758 019a BA68     		ldr	r2, [r7, #8]
 5759 019c D278     		ldrb	r2, [r2, #3]	@ zero_extendqisi2
 5760 019e 0B44     		add	r3, r3, r1
 5761 01a0 1A73     		strb	r2, [r3, #12]


1311:.\DisplayUtils.c ****                             break;
 5762              		.loc 1 1311 0
 5763 01a2 07E1     		b	.L341
 5764              	.L345:
1312:.\DisplayUtils.c ****                         }
1313:.\DisplayUtils.c ****                         case DISPLAY_INTRODUZCA_VALOR:
1314:.\DisplayUtils.c ****                         {
1315:.\DisplayUtils.c ****                             memset(&((PSINKMESSAGEPTR)pdisplay->_psequesteredmessagesink)->_buffer[
 5765              		.loc 1 1315 0
 5766 01a4 BB68     		ldr	r3, [r7, #8]
 5767 01a6 1A6B     		ldr	r2, [r3, #48]
 5768 01a8 FB68     		ldr	r3, [r7, #12]
 5769 01aa 5B88     		ldrh	r3, [r3, #2]
 5770 01ac 0833     		adds	r3, r3, #8
 5771 01ae 1344     		add	r3, r3, r2
 5772 01b0 1A1D     		adds	r2, r3, #4
 5773 01b2 FB68     		ldr	r3, [r7, #12]
 5774 01b4 1B79     		ldrb	r3, [r3, #4]	@ zero_extendqisi2
 5775 01b6 1046     		mov	r0, r2
 5776 01b8 0021     		movs	r1, #0
 5777 01ba 1A46     		mov	r2, r3
 5778 01bc FFF7FEFF 		bl	memset
1316:.\DisplayUtils.c ****                             //FOR NOW 8 DEFINED INTO THE BUFFER COPY SINCE THIS IS THE MAXIMUM NUMB
1317:.\DisplayUtils.c ****                             memcpy(&((PSINKMESSAGEPTR)pdisplay->_psequesteredmessagesink)->_buffer[
 5779              		.loc 1 1317 0
 5780 01c0 BB68     		ldr	r3, [r7, #8]
 5781 01c2 1A6B     		ldr	r2, [r3, #48]
 5782 01c4 FB68     		ldr	r3, [r7, #12]
 5783 01c6 5B88     		ldrh	r3, [r3, #2]
 5784 01c8 1946     		mov	r1, r3
 5785 01ca BB68     		ldr	r3, [r7, #8]
 5786 01cc 1B7F     		ldrb	r3, [r3, #28]	@ zero_extendqisi2
 5787 01ce C3F10803 		rsb	r3, r3, #8
 5788 01d2 0B44     		add	r3, r3, r1
 5789 01d4 0833     		adds	r3, r3, #8
 5790 01d6 1344     		add	r3, r3, r2
 5791 01d8 191D     		adds	r1, r3, #4
 5792 01da BB68     		ldr	r3, [r7, #8]
 5793 01dc 03F11D02 		add	r2, r3, #29
 5794 01e0 BB68     		ldr	r3, [r7, #8]
 5795 01e2 1B7F     		ldrb	r3, [r3, #28]	@ zero_extendqisi2
 5796 01e4 0846     		mov	r0, r1
 5797 01e6 1146     		mov	r1, r2
 5798 01e8 1A46     		mov	r2, r3
 5799 01ea FFF7FEFF 		bl	memcpy
1318:.\DisplayUtils.c ****                             break;
 5800              		.loc 1 1318 0
 5801 01ee E1E0     		b	.L341
 5802              	.L348:
1319:.\DisplayUtils.c ****                         }
1320:.\DisplayUtils.c ****                         case DISPLAY_INTRODUZCA_VOLUMEN:
1321:.\DisplayUtils.c ****                         {
1322:.\DisplayUtils.c ****                             memset(&((PSINKMESSAGEPTR)pdisplay->_psequesteredmessagesink)->_buffer[
 5803              		.loc 1 1322 0
 5804 01f0 BB68     		ldr	r3, [r7, #8]
 5805 01f2 1A6B     		ldr	r2, [r3, #48]
 5806 01f4 FB68     		ldr	r3, [r7, #12]


 5807 01f6 5B88     		ldrh	r3, [r3, #2]
 5808 01f8 0833     		adds	r3, r3, #8
 5809 01fa 1344     		add	r3, r3, r2
 5810 01fc 1A1D     		adds	r2, r3, #4
 5811 01fe FB68     		ldr	r3, [r7, #12]
 5812 0200 1B79     		ldrb	r3, [r3, #4]	@ zero_extendqisi2
 5813 0202 1046     		mov	r0, r2
 5814 0204 0021     		movs	r1, #0
 5815 0206 1A46     		mov	r2, r3
 5816 0208 FFF7FEFF 		bl	memset
1323:.\DisplayUtils.c ****                             //FOR NOW 8 DEFINED INTO THE BUFFER COPY SINCE THIS IS THE MAXIMUM NUMB
1324:.\DisplayUtils.c ****                             memcpy(&((PSINKMESSAGEPTR)pdisplay->_psequesteredmessagesink)->_buffer[
 5817              		.loc 1 1324 0
 5818 020c BB68     		ldr	r3, [r7, #8]
 5819 020e 1A6B     		ldr	r2, [r3, #48]
 5820 0210 FB68     		ldr	r3, [r7, #12]
 5821 0212 5B88     		ldrh	r3, [r3, #2]
 5822 0214 1946     		mov	r1, r3
 5823 0216 BB68     		ldr	r3, [r7, #8]
 5824 0218 1B7F     		ldrb	r3, [r3, #28]	@ zero_extendqisi2
 5825 021a C3F10803 		rsb	r3, r3, #8
 5826 021e 0B44     		add	r3, r3, r1
 5827 0220 0833     		adds	r3, r3, #8
 5828 0222 1344     		add	r3, r3, r2
 5829 0224 191D     		adds	r1, r3, #4
 5830 0226 BB68     		ldr	r3, [r7, #8]
 5831 0228 03F11D02 		add	r2, r3, #29
 5832 022c BB68     		ldr	r3, [r7, #8]
 5833 022e 1B7F     		ldrb	r3, [r3, #28]	@ zero_extendqisi2
 5834 0230 0846     		mov	r0, r1
 5835 0232 1146     		mov	r1, r2
 5836 0234 1A46     		mov	r2, r3
 5837 0236 FFF7FEFF 		bl	memcpy
1325:.\DisplayUtils.c ****                             break;
 5838              		.loc 1 1325 0
 5839 023a BBE0     		b	.L341
 5840              	.L346:
1326:.\DisplayUtils.c ****                         }
1327:.\DisplayUtils.c ****                         case DISPLAY_DIGITE_PLACA:
1328:.\DisplayUtils.c ****                         {
1329:.\DisplayUtils.c ****                             memset(&((PSINKMESSAGEPTR)pdisplay->_psequesteredmessagesink)->_buffer[
 5841              		.loc 1 1329 0
 5842 023c BB68     		ldr	r3, [r7, #8]
 5843 023e 1A6B     		ldr	r2, [r3, #48]
 5844 0240 FB68     		ldr	r3, [r7, #12]
 5845 0242 5B88     		ldrh	r3, [r3, #2]
 5846 0244 0833     		adds	r3, r3, #8
 5847 0246 1344     		add	r3, r3, r2
 5848 0248 1A1D     		adds	r2, r3, #4
 5849 024a FB68     		ldr	r3, [r7, #12]
 5850 024c 1B79     		ldrb	r3, [r3, #4]	@ zero_extendqisi2
 5851 024e 1046     		mov	r0, r2
 5852 0250 0021     		movs	r1, #0
 5853 0252 1A46     		mov	r2, r3
 5854 0254 FFF7FEFF 		bl	memset
1330:.\DisplayUtils.c ****                             memcpy(&((PSINKMESSAGEPTR)pdisplay->_psequesteredmessagesink)->_buffer[
 5855              		.loc 1 1330 0


 5856 0258 BB68     		ldr	r3, [r7, #8]
 5857 025a 1A6B     		ldr	r2, [r3, #48]
 5858 025c FB68     		ldr	r3, [r7, #12]
 5859 025e 5B88     		ldrh	r3, [r3, #2]
 5860 0260 0833     		adds	r3, r3, #8
 5861 0262 1344     		add	r3, r3, r2
 5862 0264 191D     		adds	r1, r3, #4
 5863 0266 BB68     		ldr	r3, [r7, #8]
 5864 0268 03F11D02 		add	r2, r3, #29
 5865 026c BB68     		ldr	r3, [r7, #8]
 5866 026e 1B7F     		ldrb	r3, [r3, #28]	@ zero_extendqisi2
 5867 0270 0846     		mov	r0, r1
 5868 0272 1146     		mov	r1, r2
 5869 0274 1A46     		mov	r2, r3
 5870 0276 FFF7FEFF 		bl	memcpy
1331:.\DisplayUtils.c ****                             break;
 5871              		.loc 1 1331 0
 5872 027a 9BE0     		b	.L341
 5873              	.L347:
1332:.\DisplayUtils.c ****                         }
1333:.\DisplayUtils.c ****                         case DISPLAY_DESEA_IMPRIMIR_RECIBO:
1334:.\DisplayUtils.c ****                         {
1335:.\DisplayUtils.c ****                             memset(&((PSINKMESSAGEPTR)pdisplay->_psequesteredmessagesink)->_buffer[
 5874              		.loc 1 1335 0
 5875 027c BB68     		ldr	r3, [r7, #8]
 5876 027e 1A6B     		ldr	r2, [r3, #48]
 5877 0280 FB68     		ldr	r3, [r7, #12]
 5878 0282 5B88     		ldrh	r3, [r3, #2]
 5879 0284 0833     		adds	r3, r3, #8
 5880 0286 1344     		add	r3, r3, r2
 5881 0288 1A1D     		adds	r2, r3, #4
 5882 028a FB68     		ldr	r3, [r7, #12]
 5883 028c 1B79     		ldrb	r3, [r3, #4]	@ zero_extendqisi2
 5884 028e 1046     		mov	r0, r2
 5885 0290 0021     		movs	r1, #0
 5886 0292 1A46     		mov	r2, r3
 5887 0294 FFF7FEFF 		bl	memset
1336:.\DisplayUtils.c ****                             ((PSINKMESSAGEPTR)pdisplay->_psequesteredmessagesink)->_buffer[ptr->_bu
 5888              		.loc 1 1336 0
 5889 0298 BB68     		ldr	r3, [r7, #8]
 5890 029a 1B6B     		ldr	r3, [r3, #48]
 5891 029c FA68     		ldr	r2, [r7, #12]
 5892 029e 5288     		ldrh	r2, [r2, #2]
 5893 02a0 1146     		mov	r1, r2
 5894 02a2 BA68     		ldr	r2, [r7, #8]
 5895 02a4 D278     		ldrb	r2, [r2, #3]	@ zero_extendqisi2
 5896 02a6 0B44     		add	r3, r3, r1
 5897 02a8 1A73     		strb	r2, [r3, #12]
1337:.\DisplayUtils.c ****                             break;
 5898              		.loc 1 1337 0
 5899 02aa 83E0     		b	.L341
 5900              	.L349:
1338:.\DisplayUtils.c ****                         }
1339:.\DisplayUtils.c ****                         case DISPLAY_INTRODUZCA_KILOMETRAJE:
1340:.\DisplayUtils.c ****                         {
1341:.\DisplayUtils.c ****                             memset(&((PSINKMESSAGEPTR)pdisplay->_psequesteredmessagesink)->_buffer[
 5901              		.loc 1 1341 0


 5902 02ac BB68     		ldr	r3, [r7, #8]
 5903 02ae 1A6B     		ldr	r2, [r3, #48]
 5904 02b0 FB68     		ldr	r3, [r7, #12]
 5905 02b2 5B88     		ldrh	r3, [r3, #2]
 5906 02b4 0833     		adds	r3, r3, #8
 5907 02b6 1344     		add	r3, r3, r2
 5908 02b8 1A1D     		adds	r2, r3, #4
 5909 02ba FB68     		ldr	r3, [r7, #12]
 5910 02bc 1B79     		ldrb	r3, [r3, #4]	@ zero_extendqisi2
 5911 02be 1046     		mov	r0, r2
 5912 02c0 0021     		movs	r1, #0
 5913 02c2 1A46     		mov	r2, r3
 5914 02c4 FFF7FEFF 		bl	memset
1342:.\DisplayUtils.c ****                             memcpy(&((PSINKMESSAGEPTR)pdisplay->_psequesteredmessagesink)->_buffer[
 5915              		.loc 1 1342 0
 5916 02c8 BB68     		ldr	r3, [r7, #8]
 5917 02ca 1A6B     		ldr	r2, [r3, #48]
 5918 02cc FB68     		ldr	r3, [r7, #12]
 5919 02ce 5B88     		ldrh	r3, [r3, #2]
 5920 02d0 0833     		adds	r3, r3, #8
 5921 02d2 1344     		add	r3, r3, r2
 5922 02d4 191D     		adds	r1, r3, #4
 5923 02d6 BB68     		ldr	r3, [r7, #8]
 5924 02d8 03F11D02 		add	r2, r3, #29
 5925 02dc BB68     		ldr	r3, [r7, #8]
 5926 02de 1B7F     		ldrb	r3, [r3, #28]	@ zero_extendqisi2
 5927 02e0 0846     		mov	r0, r1
 5928 02e2 1146     		mov	r1, r2
 5929 02e4 1A46     		mov	r2, r3
 5930 02e6 FFF7FEFF 		bl	memcpy
1343:.\DisplayUtils.c ****                             break;
 5931              		.loc 1 1343 0
 5932 02ea 63E0     		b	.L341
 5933              	.L358:
 5934              		.align	2
 5935              	.L357:
 5936 02ec 00000000 		.word	_g_buffscrlut
 5937 02f0 00000000 		.word	_g_dispenserlayoutinfo
 5938              	.L351:
1344:.\DisplayUtils.c ****                         }
1345:.\DisplayUtils.c ****                         case DISPLAY_INTRODUZCA_CEDULA:
1346:.\DisplayUtils.c ****                         {
1347:.\DisplayUtils.c ****                             memset(&((PSINKMESSAGEPTR)pdisplay->_psequesteredmessagesink)->_buffer[
 5939              		.loc 1 1347 0
 5940 02f4 BB68     		ldr	r3, [r7, #8]
 5941 02f6 1A6B     		ldr	r2, [r3, #48]
 5942 02f8 FB68     		ldr	r3, [r7, #12]
 5943 02fa 5B88     		ldrh	r3, [r3, #2]
 5944 02fc 0833     		adds	r3, r3, #8
 5945 02fe 1344     		add	r3, r3, r2
 5946 0300 1A1D     		adds	r2, r3, #4
 5947 0302 FB68     		ldr	r3, [r7, #12]
 5948 0304 1B79     		ldrb	r3, [r3, #4]	@ zero_extendqisi2
 5949 0306 1046     		mov	r0, r2
 5950 0308 0021     		movs	r1, #0
 5951 030a 1A46     		mov	r2, r3
 5952 030c FFF7FEFF 		bl	memset


1348:.\DisplayUtils.c ****                             memcpy(&((PSINKMESSAGEPTR)pdisplay->_psequesteredmessagesink)->_buffer[
 5953              		.loc 1 1348 0
 5954 0310 BB68     		ldr	r3, [r7, #8]
 5955 0312 1A6B     		ldr	r2, [r3, #48]
 5956 0314 FB68     		ldr	r3, [r7, #12]
 5957 0316 5B88     		ldrh	r3, [r3, #2]
 5958 0318 0833     		adds	r3, r3, #8
 5959 031a 1344     		add	r3, r3, r2
 5960 031c 191D     		adds	r1, r3, #4
 5961 031e BB68     		ldr	r3, [r7, #8]
 5962 0320 03F11D02 		add	r2, r3, #29
 5963 0324 BB68     		ldr	r3, [r7, #8]
 5964 0326 1B7F     		ldrb	r3, [r3, #28]	@ zero_extendqisi2
 5965 0328 0846     		mov	r0, r1
 5966 032a 1146     		mov	r1, r2
 5967 032c 1A46     		mov	r2, r3
 5968 032e FFF7FEFF 		bl	memcpy
1349:.\DisplayUtils.c ****                             break;
 5969              		.loc 1 1349 0
 5970 0332 3FE0     		b	.L341
 5971              	.L352:
1350:.\DisplayUtils.c ****                         }
1351:.\DisplayUtils.c ****                         case DISPLAY_INGRESE_PASSWORD:
1352:.\DisplayUtils.c ****                         {
1353:.\DisplayUtils.c ****                             memset(&((PSINKMESSAGEPTR)pdisplay->_psequesteredmessagesink)->_buffer[
 5972              		.loc 1 1353 0
 5973 0334 BB68     		ldr	r3, [r7, #8]
 5974 0336 1A6B     		ldr	r2, [r3, #48]
 5975 0338 FB68     		ldr	r3, [r7, #12]
 5976 033a 5B88     		ldrh	r3, [r3, #2]
 5977 033c 0833     		adds	r3, r3, #8
 5978 033e 1344     		add	r3, r3, r2
 5979 0340 1A1D     		adds	r2, r3, #4
 5980 0342 FB68     		ldr	r3, [r7, #12]
 5981 0344 1B79     		ldrb	r3, [r3, #4]	@ zero_extendqisi2
 5982 0346 1046     		mov	r0, r2
 5983 0348 0021     		movs	r1, #0
 5984 034a 1A46     		mov	r2, r3
 5985 034c FFF7FEFF 		bl	memset
1354:.\DisplayUtils.c ****                             memcpy(&((PSINKMESSAGEPTR)pdisplay->_psequesteredmessagesink)->_buffer[
 5986              		.loc 1 1354 0
 5987 0350 BB68     		ldr	r3, [r7, #8]
 5988 0352 1A6B     		ldr	r2, [r3, #48]
 5989 0354 FB68     		ldr	r3, [r7, #12]
 5990 0356 5B88     		ldrh	r3, [r3, #2]
 5991 0358 0833     		adds	r3, r3, #8
 5992 035a 1344     		add	r3, r3, r2
 5993 035c 191D     		adds	r1, r3, #4
 5994 035e BB68     		ldr	r3, [r7, #8]
 5995 0360 03F11D02 		add	r2, r3, #29
 5996 0364 BB68     		ldr	r3, [r7, #8]
 5997 0366 1B7F     		ldrb	r3, [r3, #28]	@ zero_extendqisi2
 5998 0368 0846     		mov	r0, r1
 5999 036a 1146     		mov	r1, r2
 6000 036c 1A46     		mov	r2, r3
 6001 036e FFF7FEFF 		bl	memcpy
1355:.\DisplayUtils.c ****                             break;


 6002              		.loc 1 1355 0
 6003 0372 1FE0     		b	.L341
 6004              	.L350:
1356:.\DisplayUtils.c ****                         }
1357:.\DisplayUtils.c ****                         case DISPLAY_ESPERANDO_ID:
1358:.\DisplayUtils.c ****                         {
1359:.\DisplayUtils.c ****                             memset(&((PSINKMESSAGEPTR)pdisplay->_psequesteredmessagesink)->_buffer[
 6005              		.loc 1 1359 0
 6006 0374 BB68     		ldr	r3, [r7, #8]
 6007 0376 1A6B     		ldr	r2, [r3, #48]
 6008 0378 FB68     		ldr	r3, [r7, #12]
 6009 037a 5B88     		ldrh	r3, [r3, #2]
 6010 037c 0833     		adds	r3, r3, #8
 6011 037e 1344     		add	r3, r3, r2
 6012 0380 1A1D     		adds	r2, r3, #4
 6013 0382 FB68     		ldr	r3, [r7, #12]
 6014 0384 1B79     		ldrb	r3, [r3, #4]	@ zero_extendqisi2
 6015 0386 1046     		mov	r0, r2
 6016 0388 0021     		movs	r1, #0
 6017 038a 1A46     		mov	r2, r3
 6018 038c FFF7FEFF 		bl	memset
1360:.\DisplayUtils.c ****                             memcpy(&((PSINKMESSAGEPTR)pdisplay->_psequesteredmessagesink)->_buffer[
 6019              		.loc 1 1360 0
 6020 0390 BB68     		ldr	r3, [r7, #8]
 6021 0392 1A6B     		ldr	r2, [r3, #48]
 6022 0394 FB68     		ldr	r3, [r7, #12]
 6023 0396 5B88     		ldrh	r3, [r3, #2]
 6024 0398 0833     		adds	r3, r3, #8
 6025 039a 1344     		add	r3, r3, r2
 6026 039c 191D     		adds	r1, r3, #4
 6027 039e BB68     		ldr	r3, [r7, #8]
 6028 03a0 03F11D02 		add	r2, r3, #29
 6029 03a4 BB68     		ldr	r3, [r7, #8]
 6030 03a6 1B7F     		ldrb	r3, [r3, #28]	@ zero_extendqisi2
 6031 03a8 0846     		mov	r0, r1
 6032 03aa 1146     		mov	r1, r2
 6033 03ac 1A46     		mov	r2, r3
 6034 03ae FFF7FEFF 		bl	memcpy
1361:.\DisplayUtils.c ****                             break;
 6035              		.loc 1 1361 0
 6036 03b2 00BF     		nop
 6037              	.L341:
1362:.\DisplayUtils.c ****                         }
1363:.\DisplayUtils.c ****                     }
1364:.\DisplayUtils.c ****                     break;
 6038              		.loc 1 1364 0 discriminator 1
 6039 03b4 08E0     		b	.L356
 6040              	.L340:
1365:.\DisplayUtils.c ****                 }
1366:.\DisplayUtils.c ****                 ptr++;
 6041              		.loc 1 1366 0
 6042 03b6 FB68     		ldr	r3, [r7, #12]
 6043 03b8 0633     		adds	r3, r3, #6
 6044 03ba FB60     		str	r3, [r7, #12]
 6045              	.L339:
1285:.\DisplayUtils.c ****             {
 6046              		.loc 1 1285 0


 6047 03bc FB68     		ldr	r3, [r7, #12]
 6048 03be 1B78     		ldrb	r3, [r3]	@ zero_extendqisi2
 6049 03c0 002B     		cmp	r3, #0
 6050 03c2 7FF42FAE 		bne	.L355
 6051 03c6 00E0     		b	.L337
 6052              	.L356:
1364:.\DisplayUtils.c ****                 }
 6053              		.loc 1 1364 0
 6054 03c8 00BF     		nop
 6055              	.L337:
 6056              	.LBE37:
1367:.\DisplayUtils.c ****             }
1368:.\DisplayUtils.c ****         }
1369:.\DisplayUtils.c **** 
1370:.\DisplayUtils.c **** }
 6057              		.loc 1 1370 0
 6058 03ca 1437     		adds	r7, r7, #20
 6059              		.cfi_def_cfa_offset 12
 6060 03cc BD46     		mov	sp, r7
 6061              		.cfi_def_cfa_register 13
 6062              		@ sp needed
 6063 03ce 90BD     		pop	{r4, r7, pc}
 6064              		.cfi_endproc
 6065              	.LFE94:
 6066              		.size	StoreTransactionData, .-StoreTransactionData
 6067              		.section	.text.GetDisplayFromPumpID,"ax",%progbits
 6068              		.align	2
 6069              		.global	GetDisplayFromPumpID
 6070              		.thumb
 6071              		.thumb_func
 6072              		.type	GetDisplayFromPumpID, %function
 6073              	GetDisplayFromPumpID:
 6074              	.LFB95:
1371:.\DisplayUtils.c **** 
1372:.\DisplayUtils.c **** //@Created by: HIJH
1373:.\DisplayUtils.c **** //@Date: Octobre de 2016
1374:.\DisplayUtils.c **** //Retrieves the right display depending on the pump identifier. This is done by taking into account
1375:.\DisplayUtils.c **** //dispenser layaou (NORMAL / QUATTRO)
1376:.\DisplayUtils.c **** PDISPLAYLAYOUTPTR GetDisplayFromPumpID(uint8 pumpid)
1377:.\DisplayUtils.c **** {
 6075              		.loc 1 1377 0
 6076              		.cfi_startproc
 6077              		@ args = 0, pretend = 0, frame = 16
 6078              		@ frame_needed = 1, uses_anonymous_args = 0
 6079              		@ link register save eliminated.
 6080 0000 80B4     		push	{r7}
 6081              		.cfi_def_cfa_offset 4
 6082              		.cfi_offset 7, -4
 6083 0002 85B0     		sub	sp, sp, #20
 6084              		.cfi_def_cfa_offset 24
 6085 0004 00AF     		add	r7, sp, #0
 6086              		.cfi_def_cfa_register 7
 6087 0006 0346     		mov	r3, r0
 6088 0008 FB71     		strb	r3, [r7, #7]
1378:.\DisplayUtils.c ****     PDISPLAYLAYOUTPTR retval = PNEAR_NULLPTR;
 6089              		.loc 1 1378 0
 6090 000a 0023     		movs	r3, #0


 6091 000c FB60     		str	r3, [r7, #12]
1379:.\DisplayUtils.c ****     switch(_g_dispenserlayoutinfo._numpositions)
 6092              		.loc 1 1379 0
 6093 000e 234B     		ldr	r3, .L371
 6094 0010 9B78     		ldrb	r3, [r3, #2]	@ zero_extendqisi2
 6095 0012 022B     		cmp	r3, #2
 6096 0014 02D0     		beq	.L361
 6097 0016 042B     		cmp	r3, #4
 6098 0018 12D0     		beq	.L362
 6099 001a 37E0     		b	.L360
 6100              	.L361:
1380:.\DisplayUtils.c ****     {
1381:.\DisplayUtils.c ****         case 0x02:
1382:.\DisplayUtils.c ****         {
1383:.\DisplayUtils.c ****             if(_g_pumps[0x00]._pumpid == pumpid)
 6101              		.loc 1 1383 0
 6102 001c 204B     		ldr	r3, .L371+4
 6103 001e 1B78     		ldrb	r3, [r3]	@ zero_extendqisi2
 6104 0020 FA79     		ldrb	r2, [r7, #7]	@ zero_extendqisi2
 6105 0022 9A42     		cmp	r2, r3
 6106 0024 02D1     		bne	.L363
1384:.\DisplayUtils.c ****                 retval = &_g_display1;
 6107              		.loc 1 1384 0
 6108 0026 1F4B     		ldr	r3, .L371+8
 6109 0028 FB60     		str	r3, [r7, #12]
 6110 002a 08E0     		b	.L364
 6111              	.L363:
1385:.\DisplayUtils.c ****             else if(_g_pumps[0x01]._pumpid == pumpid)
 6112              		.loc 1 1385 0
 6113 002c 1C4B     		ldr	r3, .L371+4
 6114 002e 93F8C039 		ldrb	r3, [r3, #2496]	@ zero_extendqisi2
 6115 0032 FA79     		ldrb	r2, [r7, #7]	@ zero_extendqisi2
 6116 0034 9A42     		cmp	r2, r3
 6117 0036 02D1     		bne	.L364
1386:.\DisplayUtils.c ****                 retval = &_g_display2;
 6118              		.loc 1 1386 0
 6119 0038 1B4B     		ldr	r3, .L371+12
 6120 003a FB60     		str	r3, [r7, #12]
1387:.\DisplayUtils.c ****             
1388:.\DisplayUtils.c ****             break;
 6121              		.loc 1 1388 0
 6122 003c 26E0     		b	.L360
 6123              	.L364:
 6124 003e 25E0     		b	.L360
 6125              	.L362:
1389:.\DisplayUtils.c ****         }
1390:.\DisplayUtils.c ****         case 0x04:
1391:.\DisplayUtils.c ****         {
1392:.\DisplayUtils.c ****             if(_g_pumps[0x00]._pumpid == pumpid)
 6126              		.loc 1 1392 0
 6127 0040 174B     		ldr	r3, .L371+4
 6128 0042 1B78     		ldrb	r3, [r3]	@ zero_extendqisi2
 6129 0044 FA79     		ldrb	r2, [r7, #7]	@ zero_extendqisi2
 6130 0046 9A42     		cmp	r2, r3
 6131 0048 02D1     		bne	.L365
1393:.\DisplayUtils.c ****                 retval = &_g_display1;
 6132              		.loc 1 1393 0


 6133 004a 164B     		ldr	r3, .L371+8
 6134 004c FB60     		str	r3, [r7, #12]
 6135 004e 1CE0     		b	.L366
 6136              	.L365:
1394:.\DisplayUtils.c ****             else if(_g_pumps[0x01]._pumpid == pumpid)
 6137              		.loc 1 1394 0
 6138 0050 134B     		ldr	r3, .L371+4
 6139 0052 93F8C039 		ldrb	r3, [r3, #2496]	@ zero_extendqisi2
 6140 0056 FA79     		ldrb	r2, [r7, #7]	@ zero_extendqisi2
 6141 0058 9A42     		cmp	r2, r3
 6142 005a 02D1     		bne	.L367
1395:.\DisplayUtils.c ****                 retval = &_g_display2;
 6143              		.loc 1 1395 0
 6144 005c 124B     		ldr	r3, .L371+12
 6145 005e FB60     		str	r3, [r7, #12]
 6146 0060 13E0     		b	.L366
 6147              	.L367:
1396:.\DisplayUtils.c ****             else if(_g_pumps[0x02]._pumpid == pumpid)
 6148              		.loc 1 1396 0
 6149 0062 0F4B     		ldr	r3, .L371+4
 6150 0064 03F59C53 		add	r3, r3, #4992
 6151 0068 1B78     		ldrb	r3, [r3]	@ zero_extendqisi2
 6152 006a FA79     		ldrb	r2, [r7, #7]	@ zero_extendqisi2
 6153 006c 9A42     		cmp	r2, r3
 6154 006e 02D1     		bne	.L368
1397:.\DisplayUtils.c ****                 retval = &_g_display1;
 6155              		.loc 1 1397 0
 6156 0070 0C4B     		ldr	r3, .L371+8
 6157 0072 FB60     		str	r3, [r7, #12]
 6158 0074 09E0     		b	.L366
 6159              	.L368:
1398:.\DisplayUtils.c ****             else if(_g_pumps[0x03]._pumpid == pumpid)
 6160              		.loc 1 1398 0
 6161 0076 0A4B     		ldr	r3, .L371+4
 6162 0078 03F5EA53 		add	r3, r3, #7488
 6163 007c 1B78     		ldrb	r3, [r3]	@ zero_extendqisi2
 6164 007e FA79     		ldrb	r2, [r7, #7]	@ zero_extendqisi2
 6165 0080 9A42     		cmp	r2, r3
 6166 0082 02D1     		bne	.L366
1399:.\DisplayUtils.c ****                 retval = &_g_display2;
 6167              		.loc 1 1399 0
 6168 0084 084B     		ldr	r3, .L371+12
 6169 0086 FB60     		str	r3, [r7, #12]
1400:.\DisplayUtils.c ****             
1401:.\DisplayUtils.c ****             break;
 6170              		.loc 1 1401 0
 6171 0088 FFE7     		b	.L370
 6172              	.L366:
 6173              	.L370:
 6174 008a 00BF     		nop
 6175              	.L360:
1402:.\DisplayUtils.c ****         }
1403:.\DisplayUtils.c ****     }
1404:.\DisplayUtils.c ****     return retval;
 6176              		.loc 1 1404 0
 6177 008c FB68     		ldr	r3, [r7, #12]
1405:.\DisplayUtils.c **** }


 6178              		.loc 1 1405 0
 6179 008e 1846     		mov	r0, r3
 6180 0090 1437     		adds	r7, r7, #20
 6181              		.cfi_def_cfa_offset 4
 6182 0092 BD46     		mov	sp, r7
 6183              		.cfi_def_cfa_register 13
 6184              		@ sp needed
 6185 0094 5DF8047B 		ldr	r7, [sp], #4
 6186              		.cfi_restore 7
 6187              		.cfi_def_cfa_offset 0
 6188 0098 7047     		bx	lr
 6189              	.L372:
 6190 009a 00BF     		.align	2
 6191              	.L371:
 6192 009c 00000000 		.word	_g_dispenserlayoutinfo
 6193 00a0 00000000 		.word	_g_pumps
 6194 00a4 00000000 		.word	_g_display1
 6195 00a8 00000000 		.word	_g_display2
 6196              		.cfi_endproc
 6197              	.LFE95:
 6198              		.size	GetDisplayFromPumpID, .-GetDisplayFromPumpID
 6199              		.text
 6200              	.Letext0:
 6201              		.file 2 "c:\\program files (x86)\\cypress\\psoc creator\\3.3\\psoc creator\\import\\gnu\\arm\\4.9.
 6202              		.file 3 "c:\\program files (x86)\\cypress\\psoc creator\\3.3\\psoc creator\\import\\gnu\\arm\\4.9.
 6203              		.file 4 "Generated_Source\\PSoC5/cytypes.h"
 6204              		.file 5 ".\\GlobalDefinitions.h"
 6205              		.file 6 ".\\Advantage.h"
 6206              		.file 7 ".\\UARTManager.h"
 6207              		.file 8 ".\\SinkManager.h"
 6208              		.file 9 ".\\SinkObservables.h"
 6209              		.file 10 ".\\Printer.h"
 6210              		.file 11 ".\\Display.h"
 6211              		.file 12 ".\\Eeprom.h"
 6212              		.file 13 "Generated_Source\\PSoC5/core_cm3.h"
 6213              		.section	.debug_info,"",%progbits
 6214              	.Ldebug_info0:
 6215 0000 64200000 		.4byte	0x2064
 6216 0004 0400     		.2byte	0x4
 6217 0006 00000000 		.4byte	.Ldebug_abbrev0
 6218 000a 04       		.byte	0x4
 6219 000b 01       		.uleb128 0x1
 6220 000c B81D0000 		.4byte	.LASF477
 6221 0010 01       		.byte	0x1
 6222 0011 590E0000 		.4byte	.LASF478
 6223 0015 4D130000 		.4byte	.LASF479
 6224 0019 00000000 		.4byte	.Ldebug_ranges0+0
 6225 001d 00000000 		.4byte	0
 6226 0021 00000000 		.4byte	.Ldebug_line0
 6227 0025 02       		.uleb128 0x2
 6228 0026 01       		.byte	0x1
 6229 0027 06       		.byte	0x6
 6230 0028 91070000 		.4byte	.LASF0
 6231 002c 02       		.uleb128 0x2
 6232 002d 01       		.byte	0x1
 6233 002e 08       		.byte	0x8
 6234 002f DD080000 		.4byte	.LASF1


 6235 0033 02       		.uleb128 0x2
 6236 0034 02       		.byte	0x2
 6237 0035 05       		.byte	0x5
 6238 0036 A91C0000 		.4byte	.LASF2
 6239 003a 02       		.uleb128 0x2
 6240 003b 02       		.byte	0x2
 6241 003c 07       		.byte	0x7
 6242 003d 5E200000 		.4byte	.LASF3
 6243 0041 03       		.uleb128 0x3
 6244 0042 D4200000 		.4byte	.LASF9
 6245 0046 02       		.byte	0x2
 6246 0047 3F       		.byte	0x3f
 6247 0048 4C000000 		.4byte	0x4c
 6248 004c 02       		.uleb128 0x2
 6249 004d 04       		.byte	0x4
 6250 004e 05       		.byte	0x5
 6251 004f D3050000 		.4byte	.LASF4
 6252 0053 02       		.uleb128 0x2
 6253 0054 04       		.byte	0x4
 6254 0055 07       		.byte	0x7
 6255 0056 DE0F0000 		.4byte	.LASF5
 6256 005a 02       		.uleb128 0x2
 6257 005b 08       		.byte	0x8
 6258 005c 05       		.byte	0x5
 6259 005d D6110000 		.4byte	.LASF6
 6260 0061 02       		.uleb128 0x2
 6261 0062 08       		.byte	0x8
 6262 0063 07       		.byte	0x7
 6263 0064 70190000 		.4byte	.LASF7
 6264 0068 04       		.uleb128 0x4
 6265 0069 04       		.byte	0x4
 6266 006a 05       		.byte	0x5
 6267 006b 696E7400 		.ascii	"int\000"
 6268 006f 02       		.uleb128 0x2
 6269 0070 04       		.byte	0x4
 6270 0071 07       		.byte	0x7
 6271 0072 F3140000 		.4byte	.LASF8
 6272 0076 03       		.uleb128 0x3
 6273 0077 F2010000 		.4byte	.LASF10
 6274 007b 03       		.byte	0x3
 6275 007c 2C       		.byte	0x2c
 6276 007d 41000000 		.4byte	0x41
 6277 0081 05       		.uleb128 0x5
 6278 0082 261C0000 		.4byte	.LASF11
 6279 0086 04       		.byte	0x4
 6280 0087 3801     		.2byte	0x138
 6281 0089 2C000000 		.4byte	0x2c
 6282 008d 05       		.uleb128 0x5
 6283 008e D7210000 		.4byte	.LASF12
 6284 0092 04       		.byte	0x4
 6285 0093 3901     		.2byte	0x139
 6286 0095 3A000000 		.4byte	0x3a
 6287 0099 05       		.uleb128 0x5
 6288 009a 5B020000 		.4byte	.LASF13
 6289 009e 04       		.byte	0x4
 6290 009f 3A01     		.2byte	0x13a
 6291 00a1 53000000 		.4byte	0x53


 6292 00a5 05       		.uleb128 0x5
 6293 00a6 57040000 		.4byte	.LASF14
 6294 00aa 04       		.byte	0x4
 6295 00ab 3B01     		.2byte	0x13b
 6296 00ad 25000000 		.4byte	0x25
 6297 00b1 02       		.uleb128 0x2
 6298 00b2 04       		.byte	0x4
 6299 00b3 04       		.byte	0x4
 6300 00b4 65140000 		.4byte	.LASF15
 6301 00b8 02       		.uleb128 0x2
 6302 00b9 08       		.byte	0x8
 6303 00ba 04       		.byte	0x4
 6304 00bb 05130000 		.4byte	.LASF16
 6305 00bf 05       		.uleb128 0x5
 6306 00c0 CC050000 		.4byte	.LASF17
 6307 00c4 04       		.byte	0x4
 6308 00c5 4401     		.2byte	0x144
 6309 00c7 61000000 		.4byte	0x61
 6310 00cb 05       		.uleb128 0x5
 6311 00cc 60030000 		.4byte	.LASF18
 6312 00d0 04       		.byte	0x4
 6313 00d1 4901     		.2byte	0x149
 6314 00d3 D7000000 		.4byte	0xd7
 6315 00d7 02       		.uleb128 0x2
 6316 00d8 01       		.byte	0x1
 6317 00d9 08       		.byte	0x8
 6318 00da 760A0000 		.4byte	.LASF19
 6319 00de 06       		.uleb128 0x6
 6320 00df 81000000 		.4byte	0x81
 6321 00e3 06       		.uleb128 0x6
 6322 00e4 8D000000 		.4byte	0x8d
 6323 00e8 06       		.uleb128 0x6
 6324 00e9 99000000 		.4byte	0x99
 6325 00ed 07       		.uleb128 0x7
 6326 00ee 04       		.byte	0x4
 6327 00ef F3000000 		.4byte	0xf3
 6328 00f3 08       		.uleb128 0x8
 6329 00f4 02       		.uleb128 0x2
 6330 00f5 04       		.byte	0x4
 6331 00f6 07       		.byte	0x7
 6332 00f7 92000000 		.4byte	.LASF20
 6333 00fb 09       		.uleb128 0x9
 6334 00fc 04       		.byte	0x4
 6335 00fd 07       		.uleb128 0x7
 6336 00fe 04       		.byte	0x4
 6337 00ff D7000000 		.4byte	0xd7
 6338 0103 07       		.uleb128 0x7
 6339 0104 04       		.byte	0x4
 6340 0105 09010000 		.4byte	0x109
 6341 0109 0A       		.uleb128 0xa
 6342 010a D7000000 		.4byte	0xd7
 6343 010e 02       		.uleb128 0x2
 6344 010f 08       		.byte	0x8
 6345 0110 04       		.byte	0x4
 6346 0111 8F170000 		.4byte	.LASF21
 6347 0115 07       		.uleb128 0x7
 6348 0116 04       		.byte	0x4


 6349 0117 CB000000 		.4byte	0xcb
 6350 011b 03       		.uleb128 0x3
 6351 011c 9D070000 		.4byte	.LASF22
 6352 0120 05       		.byte	0x5
 6353 0121 50       		.byte	0x50
 6354 0122 26010000 		.4byte	0x126
 6355 0126 07       		.uleb128 0x7
 6356 0127 04       		.byte	0x4
 6357 0128 81000000 		.4byte	0x81
 6358 012c 0B       		.uleb128 0xb
 6359 012d C6200000 		.4byte	.LASF134
 6360 0131 01       		.byte	0x1
 6361 0132 06       		.byte	0x6
 6362 0133 98       		.byte	0x98
 6363 0134 76010000 		.4byte	0x176
 6364 0138 0C       		.uleb128 0xc
 6365 0139 CA170000 		.4byte	.LASF23
 6366 013d 00       		.sleb128 0
 6367 013e 0C       		.uleb128 0xc
 6368 013f B91E0000 		.4byte	.LASF24
 6369 0143 06       		.sleb128 6
 6370 0144 0C       		.uleb128 0xc
 6371 0145 58140000 		.4byte	.LASF25
 6372 0149 07       		.sleb128 7
 6373 014a 0C       		.uleb128 0xc
 6374 014b 19020000 		.4byte	.LASF26
 6375 014f 08       		.sleb128 8
 6376 0150 0C       		.uleb128 0xc
 6377 0151 5A220000 		.4byte	.LASF27
 6378 0155 09       		.sleb128 9
 6379 0156 0C       		.uleb128 0xc
 6380 0157 F3190000 		.4byte	.LASF28
 6381 015b 0A       		.sleb128 10
 6382 015c 0C       		.uleb128 0xc
 6383 015d 3B180000 		.4byte	.LASF29
 6384 0161 0B       		.sleb128 11
 6385 0162 0C       		.uleb128 0xc
 6386 0163 5E210000 		.4byte	.LASF30
 6387 0167 0C       		.sleb128 12
 6388 0168 0C       		.uleb128 0xc
 6389 0169 371B0000 		.4byte	.LASF31
 6390 016d 0D       		.sleb128 13
 6391 016e 0C       		.uleb128 0xc
 6392 016f A6020000 		.4byte	.LASF32
 6393 0173 FF01     		.sleb128 255
 6394 0175 00       		.byte	0
 6395 0176 0D       		.uleb128 0xd
 6396 0177 0401     		.2byte	0x104
 6397 0179 06       		.byte	0x6
 6398 017a 1801     		.2byte	0x118
 6399 017c B6010000 		.4byte	0x1b6
 6400 0180 0E       		.uleb128 0xe
 6401 0181 62020000 		.4byte	.LASF33
 6402 0185 06       		.byte	0x6
 6403 0186 1A01     		.2byte	0x11a
 6404 0188 81000000 		.4byte	0x81
 6405 018c 00       		.byte	0


 6406 018d 0E       		.uleb128 0xe
 6407 018e BF170000 		.4byte	.LASF34
 6408 0192 06       		.byte	0x6
 6409 0193 1B01     		.2byte	0x11b
 6410 0195 81000000 		.4byte	0x81
 6411 0199 01       		.byte	0x1
 6412 019a 0E       		.uleb128 0xe
 6413 019b 61050000 		.4byte	.LASF35
 6414 019f 06       		.byte	0x6
 6415 01a0 1C01     		.2byte	0x11c
 6416 01a2 B6010000 		.4byte	0x1b6
 6417 01a6 02       		.byte	0x2
 6418 01a7 0F       		.uleb128 0xf
 6419 01a8 25220000 		.4byte	.LASF36
 6420 01ac 06       		.byte	0x6
 6421 01ad 1D01     		.2byte	0x11d
 6422 01af 8D000000 		.4byte	0x8d
 6423 01b3 0201     		.2byte	0x102
 6424 01b5 00       		.byte	0
 6425 01b6 10       		.uleb128 0x10
 6426 01b7 D7000000 		.4byte	0xd7
 6427 01bb C6010000 		.4byte	0x1c6
 6428 01bf 11       		.uleb128 0x11
 6429 01c0 F4000000 		.4byte	0xf4
 6430 01c4 FF       		.byte	0xff
 6431 01c5 00       		.byte	0
 6432 01c6 05       		.uleb128 0x5
 6433 01c7 1F210000 		.4byte	.LASF37
 6434 01cb 06       		.byte	0x6
 6435 01cc 1F01     		.2byte	0x11f
 6436 01ce 76010000 		.4byte	0x176
 6437 01d2 05       		.uleb128 0x5
 6438 01d3 BD0D0000 		.4byte	.LASF38
 6439 01d7 06       		.byte	0x6
 6440 01d8 1F01     		.2byte	0x11f
 6441 01da DE010000 		.4byte	0x1de
 6442 01de 07       		.uleb128 0x7
 6443 01df 04       		.byte	0x4
 6444 01e0 76010000 		.4byte	0x176
 6445 01e4 12       		.uleb128 0x12
 6446 01e5 40       		.byte	0x40
 6447 01e6 06       		.byte	0x6
 6448 01e7 2101     		.2byte	0x121
 6449 01e9 8A020000 		.4byte	0x28a
 6450 01ed 0E       		.uleb128 0xe
 6451 01ee 461B0000 		.4byte	.LASF39
 6452 01f2 06       		.byte	0x6
 6453 01f3 2301     		.2byte	0x123
 6454 01f5 DE000000 		.4byte	0xde
 6455 01f9 00       		.byte	0
 6456 01fa 0E       		.uleb128 0xe
 6457 01fb 4C1B0000 		.4byte	.LASF40
 6458 01ff 06       		.byte	0x6
 6459 0200 2401     		.2byte	0x124
 6460 0202 DE000000 		.4byte	0xde
 6461 0206 01       		.byte	0x1
 6462 0207 0E       		.uleb128 0xe


 6463 0208 521B0000 		.4byte	.LASF41
 6464 020c 06       		.byte	0x6
 6465 020d 2601     		.2byte	0x126
 6466 020f E3000000 		.4byte	0xe3
 6467 0213 02       		.byte	0x2
 6468 0214 0E       		.uleb128 0xe
 6469 0215 581B0000 		.4byte	.LASF42
 6470 0219 06       		.byte	0x6
 6471 021a 2701     		.2byte	0x127
 6472 021c E3000000 		.4byte	0xe3
 6473 0220 04       		.byte	0x4
 6474 0221 0E       		.uleb128 0xe
 6475 0222 5E1B0000 		.4byte	.LASF43
 6476 0226 06       		.byte	0x6
 6477 0227 2901     		.2byte	0x129
 6478 0229 E8000000 		.4byte	0xe8
 6479 022d 08       		.byte	0x8
 6480 022e 0E       		.uleb128 0xe
 6481 022f 641B0000 		.4byte	.LASF44
 6482 0233 06       		.byte	0x6
 6483 0234 2A01     		.2byte	0x12a
 6484 0236 E8000000 		.4byte	0xe8
 6485 023a 0C       		.byte	0xc
 6486 023b 0E       		.uleb128 0xe
 6487 023c 6A1B0000 		.4byte	.LASF45
 6488 0240 06       		.byte	0x6
 6489 0241 2F01     		.2byte	0x12f
 6490 0243 8A020000 		.4byte	0x28a
 6491 0247 10       		.byte	0x10
 6492 0248 0E       		.uleb128 0xe
 6493 0249 701B0000 		.4byte	.LASF46
 6494 024d 06       		.byte	0x6
 6495 024e 3001     		.2byte	0x130
 6496 0250 8A020000 		.4byte	0x28a
 6497 0254 18       		.byte	0x18
 6498 0255 0E       		.uleb128 0xe
 6499 0256 761B0000 		.4byte	.LASF47
 6500 025a 06       		.byte	0x6
 6501 025b 3101     		.2byte	0x131
 6502 025d 8A020000 		.4byte	0x28a
 6503 0261 20       		.byte	0x20
 6504 0262 0E       		.uleb128 0xe
 6505 0263 7C1B0000 		.4byte	.LASF48
 6506 0267 06       		.byte	0x6
 6507 0268 3201     		.2byte	0x132
 6508 026a 8A020000 		.4byte	0x28a
 6509 026e 28       		.byte	0x28
 6510 026f 0E       		.uleb128 0xe
 6511 0270 871B0000 		.4byte	.LASF49
 6512 0274 06       		.byte	0x6
 6513 0275 3401     		.2byte	0x134
 6514 0277 8F020000 		.4byte	0x28f
 6515 027b 30       		.byte	0x30
 6516 027c 0E       		.uleb128 0xe
 6517 027d 8D1B0000 		.4byte	.LASF50
 6518 0281 06       		.byte	0x6
 6519 0282 3501     		.2byte	0x135


 6520 0284 8F020000 		.4byte	0x28f
 6521 0288 38       		.byte	0x38
 6522 0289 00       		.byte	0
 6523 028a 06       		.uleb128 0x6
 6524 028b BF000000 		.4byte	0xbf
 6525 028f 06       		.uleb128 0x6
 6526 0290 B8000000 		.4byte	0xb8
 6527 0294 05       		.uleb128 0x5
 6528 0295 A8140000 		.4byte	.LASF51
 6529 0299 06       		.byte	0x6
 6530 029a 3701     		.2byte	0x137
 6531 029c E4010000 		.4byte	0x1e4
 6532 02a0 12       		.uleb128 0x12
 6533 02a1 18       		.byte	0x18
 6534 02a2 06       		.byte	0x6
 6535 02a3 3F01     		.2byte	0x13f
 6536 02a5 05030000 		.4byte	0x305
 6537 02a9 0E       		.uleb128 0xe
 6538 02aa 83170000 		.4byte	.LASF52
 6539 02ae 06       		.byte	0x6
 6540 02af 4201     		.2byte	0x142
 6541 02b1 05030000 		.4byte	0x305
 6542 02b5 00       		.byte	0
 6543 02b6 0E       		.uleb128 0xe
 6544 02b7 AB1F0000 		.4byte	.LASF53
 6545 02bb 06       		.byte	0x6
 6546 02bc 4301     		.2byte	0x143
 6547 02be DE000000 		.4byte	0xde
 6548 02c2 01       		.byte	0x1
 6549 02c3 0E       		.uleb128 0xe
 6550 02c4 661F0000 		.4byte	.LASF54
 6551 02c8 06       		.byte	0x6
 6552 02c9 4401     		.2byte	0x144
 6553 02cb DE000000 		.4byte	0xde
 6554 02cf 02       		.byte	0x2
 6555 02d0 0E       		.uleb128 0xe
 6556 02d1 EC140000 		.4byte	.LASF55
 6557 02d5 06       		.byte	0x6
 6558 02d6 4501     		.2byte	0x145
 6559 02d8 E3000000 		.4byte	0xe3
 6560 02dc 04       		.byte	0x4
 6561 02dd 0E       		.uleb128 0xe
 6562 02de 8D1A0000 		.4byte	.LASF56
 6563 02e2 06       		.byte	0x6
 6564 02e3 4601     		.2byte	0x146
 6565 02e5 E8000000 		.4byte	0xe8
 6566 02e9 08       		.byte	0x8
 6567 02ea 0E       		.uleb128 0xe
 6568 02eb F6090000 		.4byte	.LASF57
 6569 02ef 06       		.byte	0x6
 6570 02f0 4701     		.2byte	0x147
 6571 02f2 E8000000 		.4byte	0xe8
 6572 02f6 0C       		.byte	0xc
 6573 02f7 0E       		.uleb128 0xe
 6574 02f8 29090000 		.4byte	.LASF58
 6575 02fc 06       		.byte	0x6
 6576 02fd 4801     		.2byte	0x148


 6577 02ff 11030000 		.4byte	0x311
 6578 0303 10       		.byte	0x10
 6579 0304 00       		.byte	0
 6580 0305 06       		.uleb128 0x6
 6581 0306 0A030000 		.4byte	0x30a
 6582 030a 02       		.uleb128 0x2
 6583 030b 01       		.byte	0x1
 6584 030c 02       		.byte	0x2
 6585 030d D3090000 		.4byte	.LASF59
 6586 0311 10       		.uleb128 0x10
 6587 0312 CB000000 		.4byte	0xcb
 6588 0316 21030000 		.4byte	0x321
 6589 031a 11       		.uleb128 0x11
 6590 031b F4000000 		.4byte	0xf4
 6591 031f 07       		.byte	0x7
 6592 0320 00       		.byte	0
 6593 0321 05       		.uleb128 0x5
 6594 0322 BF0E0000 		.4byte	.LASF60
 6595 0326 06       		.byte	0x6
 6596 0327 4A01     		.2byte	0x14a
 6597 0329 A0020000 		.4byte	0x2a0
 6598 032d 13       		.uleb128 0x13
 6599 032e 85210000 		.4byte	.LASF112
 6600 0332 C009     		.2byte	0x9c0
 6601 0334 06       		.byte	0x6
 6602 0335 4D01     		.2byte	0x14d
 6603 0337 12050000 		.4byte	0x512
 6604 033b 0E       		.uleb128 0xe
 6605 033c 11020000 		.4byte	.LASF61
 6606 0340 06       		.byte	0x6
 6607 0341 4F01     		.2byte	0x14f
 6608 0343 81000000 		.4byte	0x81
 6609 0347 00       		.byte	0
 6610 0348 0E       		.uleb128 0xe
 6611 0349 DB1B0000 		.4byte	.LASF62
 6612 034d 06       		.byte	0x6
 6613 034e 5001     		.2byte	0x150
 6614 0350 81000000 		.4byte	0x81
 6615 0354 01       		.byte	0x1
 6616 0355 0E       		.uleb128 0xe
 6617 0356 F8050000 		.4byte	.LASF63
 6618 035a 06       		.byte	0x6
 6619 035b 5201     		.2byte	0x152
 6620 035d DE000000 		.4byte	0xde
 6621 0361 02       		.byte	0x2
 6622 0362 0E       		.uleb128 0xe
 6623 0363 D71E0000 		.4byte	.LASF64
 6624 0367 06       		.byte	0x6
 6625 0368 5301     		.2byte	0x153
 6626 036a DE000000 		.4byte	0xde
 6627 036e 03       		.byte	0x3
 6628 036f 0E       		.uleb128 0xe
 6629 0370 70180000 		.4byte	.LASF65
 6630 0374 06       		.byte	0x6
 6631 0375 5401     		.2byte	0x154
 6632 0377 DE000000 		.4byte	0xde
 6633 037b 04       		.byte	0x4


 6634 037c 0E       		.uleb128 0xe
 6635 037d 131B0000 		.4byte	.LASF66
 6636 0381 06       		.byte	0x6
 6637 0382 5501     		.2byte	0x155
 6638 0384 05030000 		.4byte	0x305
 6639 0388 05       		.byte	0x5
 6640 0389 0E       		.uleb128 0xe
 6641 038a 83170000 		.4byte	.LASF52
 6642 038e 06       		.byte	0x6
 6643 038f 5801     		.2byte	0x158
 6644 0391 05030000 		.4byte	0x305
 6645 0395 06       		.byte	0x6
 6646 0396 0E       		.uleb128 0xe
 6647 0397 58150000 		.4byte	.LASF67
 6648 039b 06       		.byte	0x6
 6649 039c 5901     		.2byte	0x159
 6650 039e 05030000 		.4byte	0x305
 6651 03a2 07       		.byte	0x7
 6652 03a3 0E       		.uleb128 0xe
 6653 03a4 F21A0000 		.4byte	.LASF68
 6654 03a8 06       		.byte	0x6
 6655 03a9 5A01     		.2byte	0x15a
 6656 03ab 05030000 		.4byte	0x305
 6657 03af 08       		.byte	0x8
 6658 03b0 0E       		.uleb128 0xe
 6659 03b1 051C0000 		.4byte	.LASF69
 6660 03b5 06       		.byte	0x6
 6661 03b6 5B01     		.2byte	0x15b
 6662 03b8 05030000 		.4byte	0x305
 6663 03bc 09       		.byte	0x9
 6664 03bd 0E       		.uleb128 0xe
 6665 03be DC050000 		.4byte	.LASF70
 6666 03c2 06       		.byte	0x6
 6667 03c3 5C01     		.2byte	0x15c
 6668 03c5 DE000000 		.4byte	0xde
 6669 03c9 0A       		.byte	0xa
 6670 03ca 0E       		.uleb128 0xe
 6671 03cb A70B0000 		.4byte	.LASF71
 6672 03cf 06       		.byte	0x6
 6673 03d0 5D01     		.2byte	0x15d
 6674 03d2 05030000 		.4byte	0x305
 6675 03d6 0B       		.byte	0xb
 6676 03d7 0E       		.uleb128 0xe
 6677 03d8 2A000000 		.4byte	.LASF72
 6678 03dc 06       		.byte	0x6
 6679 03dd 5E01     		.2byte	0x15e
 6680 03df DE000000 		.4byte	0xde
 6681 03e3 0C       		.byte	0xc
 6682 03e4 0E       		.uleb128 0xe
 6683 03e5 48200000 		.4byte	.LASF73
 6684 03e9 06       		.byte	0x6
 6685 03ea 6001     		.2byte	0x160
 6686 03ec 05030000 		.4byte	0x305
 6687 03f0 0D       		.byte	0xd
 6688 03f1 0E       		.uleb128 0xe
 6689 03f2 2C140000 		.4byte	.LASF74
 6690 03f6 06       		.byte	0x6


 6691 03f7 6201     		.2byte	0x162
 6692 03f9 E8000000 		.4byte	0xe8
 6693 03fd 10       		.byte	0x10
 6694 03fe 0E       		.uleb128 0xe
 6695 03ff 4D0F0000 		.4byte	.LASF75
 6696 0403 06       		.byte	0x6
 6697 0404 6301     		.2byte	0x163
 6698 0406 E8000000 		.4byte	0xe8
 6699 040a 14       		.byte	0x14
 6700 040b 0E       		.uleb128 0xe
 6701 040c 070B0000 		.4byte	.LASF76
 6702 0410 06       		.byte	0x6
 6703 0411 6601     		.2byte	0x166
 6704 0413 DE000000 		.4byte	0xde
 6705 0417 18       		.byte	0x18
 6706 0418 0E       		.uleb128 0xe
 6707 0419 BF170000 		.4byte	.LASF34
 6708 041d 06       		.byte	0x6
 6709 041e 6701     		.2byte	0x167
 6710 0420 DE000000 		.4byte	0xde
 6711 0424 19       		.byte	0x19
 6712 0425 0E       		.uleb128 0xe
 6713 0426 AA190000 		.4byte	.LASF77
 6714 042a 06       		.byte	0x6
 6715 042b 6901     		.2byte	0x169
 6716 042d FB000000 		.4byte	0xfb
 6717 0431 1C       		.byte	0x1c
 6718 0432 0E       		.uleb128 0xe
 6719 0433 470E0000 		.4byte	.LASF78
 6720 0437 06       		.byte	0x6
 6721 0438 6A01     		.2byte	0x16a
 6722 043a 12050000 		.4byte	0x512
 6723 043e 20       		.byte	0x20
 6724 043f 0F       		.uleb128 0xf
 6725 0440 960D0000 		.4byte	.LASF79
 6726 0444 06       		.byte	0x6
 6727 0445 6C01     		.2byte	0x16c
 6728 0447 12050000 		.4byte	0x512
 6729 044b A001     		.2byte	0x1a0
 6730 044d 0F       		.uleb128 0xf
 6731 044e 03020000 		.4byte	.LASF80
 6732 0452 06       		.byte	0x6
 6733 0453 6D01     		.2byte	0x16d
 6734 0455 8D000000 		.4byte	0x8d
 6735 0459 2003     		.2byte	0x320
 6736 045b 0F       		.uleb128 0xf
 6737 045c B0030000 		.4byte	.LASF81
 6738 0460 06       		.byte	0x6
 6739 0461 7101     		.2byte	0x171
 6740 0463 23050000 		.4byte	0x523
 6741 0467 2203     		.2byte	0x322
 6742 0469 0F       		.uleb128 0xf
 6743 046a 100C0000 		.4byte	.LASF82
 6744 046e 06       		.byte	0x6
 6745 046f 7301     		.2byte	0x173
 6746 0471 05030000 		.4byte	0x305
 6747 0475 3A09     		.2byte	0x93a


 6748 0477 0F       		.uleb128 0xf
 6749 0478 CD1C0000 		.4byte	.LASF83
 6750 047c 06       		.byte	0x6
 6751 047d 7501     		.2byte	0x175
 6752 047f 3E050000 		.4byte	0x53e
 6753 0483 3C09     		.2byte	0x93c
 6754 0485 0F       		.uleb128 0xf
 6755 0486 DE210000 		.4byte	.LASF84
 6756 048a 06       		.byte	0x6
 6757 048b 7601     		.2byte	0x176
 6758 048d 3E050000 		.4byte	0x53e
 6759 0491 4009     		.2byte	0x940
 6760 0493 0F       		.uleb128 0xf
 6761 0494 8D200000 		.4byte	.LASF85
 6762 0498 06       		.byte	0x6
 6763 0499 7701     		.2byte	0x177
 6764 049b 58050000 		.4byte	0x558
 6765 049f 4409     		.2byte	0x944
 6766 04a1 0F       		.uleb128 0xf
 6767 04a2 381D0000 		.4byte	.LASF86
 6768 04a6 06       		.byte	0x6
 6769 04a7 7801     		.2byte	0x178
 6770 04a9 6E050000 		.4byte	0x56e
 6771 04ad 4809     		.2byte	0x948
 6772 04af 0F       		.uleb128 0xf
 6773 04b0 99040000 		.4byte	.LASF87
 6774 04b4 06       		.byte	0x6
 6775 04b5 7901     		.2byte	0x179
 6776 04b7 6E050000 		.4byte	0x56e
 6777 04bb 4C09     		.2byte	0x94c
 6778 04bd 0F       		.uleb128 0xf
 6779 04be ED1C0000 		.4byte	.LASF88
 6780 04c2 06       		.byte	0x6
 6781 04c3 7A01     		.2byte	0x17a
 6782 04c5 83050000 		.4byte	0x583
 6783 04c9 5009     		.2byte	0x950
 6784 04cb 0F       		.uleb128 0xf
 6785 04cc 600A0000 		.4byte	.LASF89
 6786 04d0 06       		.byte	0x6
 6787 04d1 7B01     		.2byte	0x17b
 6788 04d3 83050000 		.4byte	0x583
 6789 04d7 5409     		.2byte	0x954
 6790 04d9 0F       		.uleb128 0xf
 6791 04da 2F1F0000 		.4byte	.LASF90
 6792 04de 06       		.byte	0x6
 6793 04df 7D01     		.2byte	0x17d
 6794 04e1 98050000 		.4byte	0x598
 6795 04e5 5809     		.2byte	0x958
 6796 04e7 0F       		.uleb128 0xf
 6797 04e8 4F210000 		.4byte	.LASF91
 6798 04ec 06       		.byte	0x6
 6799 04ed 7F01     		.2byte	0x17f
 6800 04ef 94020000 		.4byte	0x294
 6801 04f3 6009     		.2byte	0x960
 6802 04f5 0F       		.uleb128 0xf
 6803 04f6 3E1F0000 		.4byte	.LASF92
 6804 04fa 06       		.byte	0x6


 6805 04fb 8001     		.2byte	0x180
 6806 04fd 21030000 		.4byte	0x321
 6807 0501 A009     		.2byte	0x9a0
 6808 0503 0F       		.uleb128 0xf
 6809 0504 3D0A0000 		.4byte	.LASF93
 6810 0508 06       		.byte	0x6
 6811 0509 8201     		.2byte	0x182
 6812 050b 3E050000 		.4byte	0x53e
 6813 050f B809     		.2byte	0x9b8
 6814 0511 00       		.byte	0
 6815 0512 10       		.uleb128 0x10
 6816 0513 CB000000 		.4byte	0xcb
 6817 0517 23050000 		.4byte	0x523
 6818 051b 14       		.uleb128 0x14
 6819 051c F4000000 		.4byte	0xf4
 6820 0520 7F01     		.2byte	0x17f
 6821 0522 00       		.byte	0
 6822 0523 10       		.uleb128 0x10
 6823 0524 C6010000 		.4byte	0x1c6
 6824 0528 33050000 		.4byte	0x533
 6825 052c 11       		.uleb128 0x11
 6826 052d F4000000 		.4byte	0xf4
 6827 0531 05       		.byte	0x5
 6828 0532 00       		.byte	0
 6829 0533 15       		.uleb128 0x15
 6830 0534 3E050000 		.4byte	0x53e
 6831 0538 16       		.uleb128 0x16
 6832 0539 FB000000 		.4byte	0xfb
 6833 053d 00       		.byte	0
 6834 053e 07       		.uleb128 0x7
 6835 053f 04       		.byte	0x4
 6836 0540 33050000 		.4byte	0x533
 6837 0544 17       		.uleb128 0x17
 6838 0545 0A030000 		.4byte	0x30a
 6839 0549 58050000 		.4byte	0x558
 6840 054d 16       		.uleb128 0x16
 6841 054e FB000000 		.4byte	0xfb
 6842 0552 16       		.uleb128 0x16
 6843 0553 81000000 		.4byte	0x81
 6844 0557 00       		.byte	0
 6845 0558 07       		.uleb128 0x7
 6846 0559 04       		.byte	0x4
 6847 055a 44050000 		.4byte	0x544
 6848 055e 15       		.uleb128 0x15
 6849 055f 6E050000 		.4byte	0x56e
 6850 0563 16       		.uleb128 0x16
 6851 0564 FB000000 		.4byte	0xfb
 6852 0568 16       		.uleb128 0x16
 6853 0569 D2010000 		.4byte	0x1d2
 6854 056d 00       		.byte	0
 6855 056e 07       		.uleb128 0x7
 6856 056f 04       		.byte	0x4
 6857 0570 5E050000 		.4byte	0x55e
 6858 0574 17       		.uleb128 0x17
 6859 0575 D2010000 		.4byte	0x1d2
 6860 0579 83050000 		.4byte	0x583
 6861 057d 16       		.uleb128 0x16


 6862 057e FB000000 		.4byte	0xfb
 6863 0582 00       		.byte	0
 6864 0583 07       		.uleb128 0x7
 6865 0584 04       		.byte	0x4
 6866 0585 74050000 		.4byte	0x574
 6867 0589 17       		.uleb128 0x17
 6868 058a 0A030000 		.4byte	0x30a
 6869 058e 98050000 		.4byte	0x598
 6870 0592 16       		.uleb128 0x16
 6871 0593 FB000000 		.4byte	0xfb
 6872 0597 00       		.byte	0
 6873 0598 07       		.uleb128 0x7
 6874 0599 04       		.byte	0x4
 6875 059a 89050000 		.4byte	0x589
 6876 059e 05       		.uleb128 0x5
 6877 059f 38190000 		.4byte	.LASF94
 6878 05a3 06       		.byte	0x6
 6879 05a4 8401     		.2byte	0x184
 6880 05a6 2D030000 		.4byte	0x32d
 6881 05aa 12       		.uleb128 0x12
 6882 05ab 14       		.byte	0x14
 6883 05ac 06       		.byte	0x6
 6884 05ad E801     		.2byte	0x1e8
 6885 05af 94060000 		.4byte	0x694
 6886 05b3 0E       		.uleb128 0xe
 6887 05b4 AC0F0000 		.4byte	.LASF95
 6888 05b8 06       		.byte	0x6
 6889 05b9 EA01     		.2byte	0x1ea
 6890 05bb 05030000 		.4byte	0x305
 6891 05bf 00       		.byte	0
 6892 05c0 0E       		.uleb128 0xe
 6893 05c1 E2190000 		.4byte	.LASF96
 6894 05c5 06       		.byte	0x6
 6895 05c6 EB01     		.2byte	0x1eb
 6896 05c8 05030000 		.4byte	0x305
 6897 05cc 01       		.byte	0x1
 6898 05cd 0E       		.uleb128 0xe
 6899 05ce EB080000 		.4byte	.LASF97
 6900 05d2 06       		.byte	0x6
 6901 05d3 EF01     		.2byte	0x1ef
 6902 05d5 81000000 		.4byte	0x81
 6903 05d9 02       		.byte	0x2
 6904 05da 0E       		.uleb128 0xe
 6905 05db 60180000 		.4byte	.LASF98
 6906 05df 06       		.byte	0x6
 6907 05e0 FD01     		.2byte	0x1fd
 6908 05e2 81000000 		.4byte	0x81
 6909 05e6 03       		.byte	0x3
 6910 05e7 0E       		.uleb128 0xe
 6911 05e8 E6090000 		.4byte	.LASF99
 6912 05ec 06       		.byte	0x6
 6913 05ed FE01     		.2byte	0x1fe
 6914 05ef 81000000 		.4byte	0x81
 6915 05f3 04       		.byte	0x4
 6916 05f4 0E       		.uleb128 0xe
 6917 05f5 81180000 		.4byte	.LASF100
 6918 05f9 06       		.byte	0x6


 6919 05fa FF01     		.2byte	0x1ff
 6920 05fc 81000000 		.4byte	0x81
 6921 0600 05       		.byte	0x5
 6922 0601 0E       		.uleb128 0xe
 6923 0602 91180000 		.4byte	.LASF101
 6924 0606 06       		.byte	0x6
 6925 0607 0002     		.2byte	0x200
 6926 0609 81000000 		.4byte	0x81
 6927 060d 06       		.byte	0x6
 6928 060e 0E       		.uleb128 0xe
 6929 060f 660B0000 		.4byte	.LASF102
 6930 0613 06       		.byte	0x6
 6931 0614 0202     		.2byte	0x202
 6932 0616 81000000 		.4byte	0x81
 6933 061a 07       		.byte	0x7
 6934 061b 0E       		.uleb128 0xe
 6935 061c 440D0000 		.4byte	.LASF103
 6936 0620 06       		.byte	0x6
 6937 0621 0302     		.2byte	0x203
 6938 0623 81000000 		.4byte	0x81
 6939 0627 08       		.byte	0x8
 6940 0628 0E       		.uleb128 0xe
 6941 0629 C3090000 		.4byte	.LASF104
 6942 062d 06       		.byte	0x6
 6943 062e 0402     		.2byte	0x204
 6944 0630 81000000 		.4byte	0x81
 6945 0634 09       		.byte	0x9
 6946 0635 0E       		.uleb128 0xe
 6947 0636 3C000000 		.4byte	.LASF105
 6948 063a 06       		.byte	0x6
 6949 063b 0602     		.2byte	0x206
 6950 063d 81000000 		.4byte	0x81
 6951 0641 0A       		.byte	0xa
 6952 0642 0E       		.uleb128 0xe
 6953 0643 8C0B0000 		.4byte	.LASF106
 6954 0647 06       		.byte	0x6
 6955 0648 0802     		.2byte	0x208
 6956 064a 8D000000 		.4byte	0x8d
 6957 064e 0C       		.byte	0xc
 6958 064f 0E       		.uleb128 0xe
 6959 0650 C5180000 		.4byte	.LASF107
 6960 0654 06       		.byte	0x6
 6961 0655 0902     		.2byte	0x209
 6962 0657 8D000000 		.4byte	0x8d
 6963 065b 0E       		.byte	0xe
 6964 065c 0E       		.uleb128 0xe
 6965 065d C4210000 		.4byte	.LASF108
 6966 0661 06       		.byte	0x6
 6967 0662 0B02     		.2byte	0x20b
 6968 0664 81000000 		.4byte	0x81
 6969 0668 10       		.byte	0x10
 6970 0669 0E       		.uleb128 0xe
 6971 066a 66090000 		.4byte	.LASF109
 6972 066e 06       		.byte	0x6
 6973 066f 0D02     		.2byte	0x20d
 6974 0671 81000000 		.4byte	0x81
 6975 0675 11       		.byte	0x11


 6976 0676 0E       		.uleb128 0xe
 6977 0677 1A000000 		.4byte	.LASF110
 6978 067b 06       		.byte	0x6
 6979 067c 0F02     		.2byte	0x20f
 6980 067e 81000000 		.4byte	0x81
 6981 0682 12       		.byte	0x12
 6982 0683 18       		.uleb128 0x18
 6983 0684 9A150000 		.4byte	.LASF480
 6984 0688 06       		.byte	0x6
 6985 0689 1102     		.2byte	0x211
 6986 068b 81000000 		.4byte	0x81
 6987 068f 01       		.byte	0x1
 6988 0690 01       		.byte	0x1
 6989 0691 07       		.byte	0x7
 6990 0692 13       		.byte	0x13
 6991 0693 00       		.byte	0
 6992 0694 05       		.uleb128 0x5
 6993 0695 E31F0000 		.4byte	.LASF111
 6994 0699 06       		.byte	0x6
 6995 069a 1202     		.2byte	0x212
 6996 069c AA050000 		.4byte	0x5aa
 6997 06a0 19       		.uleb128 0x19
 6998 06a1 6C150000 		.4byte	.LASF113
 6999 06a5 4C       		.byte	0x4c
 7000 06a6 07       		.byte	0x7
 7001 06a7 2C       		.byte	0x2c
 7002 06a8 91070000 		.4byte	0x791
 7003 06ac 1A       		.uleb128 0x1a
 7004 06ad 9B1A0000 		.4byte	.LASF114
 7005 06b1 07       		.byte	0x7
 7006 06b2 2E       		.byte	0x2e
 7007 06b3 81000000 		.4byte	0x81
 7008 06b7 00       		.byte	0
 7009 06b8 1A       		.uleb128 0x1a
 7010 06b9 DB0C0000 		.4byte	.LASF115
 7011 06bd 07       		.byte	0x7
 7012 06be 31       		.byte	0x31
 7013 06bf 3E050000 		.4byte	0x53e
 7014 06c3 04       		.byte	0x4
 7015 06c4 1A       		.uleb128 0x1a
 7016 06c5 D4170000 		.4byte	.LASF116
 7017 06c9 07       		.byte	0x7
 7018 06ca 34       		.byte	0x34
 7019 06cb ED000000 		.4byte	0xed
 7020 06cf 08       		.byte	0x8
 7021 06d0 1A       		.uleb128 0x1a
 7022 06d1 DF020000 		.4byte	.LASF117
 7023 06d5 07       		.byte	0x7
 7024 06d6 35       		.byte	0x35
 7025 06d7 ED000000 		.4byte	0xed
 7026 06db 0C       		.byte	0xc
 7027 06dc 1A       		.uleb128 0x1a
 7028 06dd 121A0000 		.4byte	.LASF118
 7029 06e1 07       		.byte	0x7
 7030 06e2 36       		.byte	0x36
 7031 06e3 96070000 		.4byte	0x796
 7032 06e7 10       		.byte	0x10


 7033 06e8 1A       		.uleb128 0x1a
 7034 06e9 54160000 		.4byte	.LASF119
 7035 06ed 07       		.byte	0x7
 7036 06ee 37       		.byte	0x37
 7037 06ef A7070000 		.4byte	0x7a7
 7038 06f3 14       		.byte	0x14
 7039 06f4 1A       		.uleb128 0x1a
 7040 06f5 7E1D0000 		.4byte	.LASF120
 7041 06f9 07       		.byte	0x7
 7042 06fa 39       		.byte	0x39
 7043 06fb 96070000 		.4byte	0x796
 7044 06ff 18       		.byte	0x18
 7045 0700 1A       		.uleb128 0x1a
 7046 0701 7F0B0000 		.4byte	.LASF121
 7047 0705 07       		.byte	0x7
 7048 0706 3A       		.byte	0x3a
 7049 0707 96070000 		.4byte	0x796
 7050 070b 1C       		.byte	0x1c
 7051 070c 1A       		.uleb128 0x1a
 7052 070d 01080000 		.4byte	.LASF122
 7053 0711 07       		.byte	0x7
 7054 0712 3B       		.byte	0x3b
 7055 0713 96070000 		.4byte	0x796
 7056 0717 20       		.byte	0x20
 7057 0718 1A       		.uleb128 0x1a
 7058 0719 FE1A0000 		.4byte	.LASF123
 7059 071d 07       		.byte	0x7
 7060 071e 3C       		.byte	0x3c
 7061 071f B2070000 		.4byte	0x7b2
 7062 0723 24       		.byte	0x24
 7063 0724 1A       		.uleb128 0x1a
 7064 0725 23010000 		.4byte	.LASF124
 7065 0729 07       		.byte	0x7
 7066 072a 3D       		.byte	0x3d
 7067 072b B2070000 		.4byte	0x7b2
 7068 072f 28       		.byte	0x28
 7069 0730 1A       		.uleb128 0x1a
 7070 0731 D7070000 		.4byte	.LASF125
 7071 0735 07       		.byte	0x7
 7072 0736 3E       		.byte	0x3e
 7073 0737 ED000000 		.4byte	0xed
 7074 073b 2C       		.byte	0x2c
 7075 073c 1A       		.uleb128 0x1a
 7076 073d 0F0A0000 		.4byte	.LASF126
 7077 0741 07       		.byte	0x7
 7078 0742 40       		.byte	0x40
 7079 0743 A7070000 		.4byte	0x7a7
 7080 0747 30       		.byte	0x30
 7081 0748 1A       		.uleb128 0x1a
 7082 0749 09150000 		.4byte	.LASF127
 7083 074d 07       		.byte	0x7
 7084 074e 41       		.byte	0x41
 7085 074f 96070000 		.4byte	0x796
 7086 0753 34       		.byte	0x34
 7087 0754 1A       		.uleb128 0x1a
 7088 0755 9F100000 		.4byte	.LASF128
 7089 0759 07       		.byte	0x7


 7090 075a 42       		.byte	0x42
 7091 075b A7070000 		.4byte	0x7a7
 7092 075f 38       		.byte	0x38
 7093 0760 1A       		.uleb128 0x1a
 7094 0761 D10C0000 		.4byte	.LASF129
 7095 0765 07       		.byte	0x7
 7096 0766 43       		.byte	0x43
 7097 0767 CE070000 		.4byte	0x7ce
 7098 076b 3C       		.byte	0x3c
 7099 076c 1A       		.uleb128 0x1a
 7100 076d 95190000 		.4byte	.LASF130
 7101 0771 07       		.byte	0x7
 7102 0772 44       		.byte	0x44
 7103 0773 EF070000 		.4byte	0x7ef
 7104 0777 40       		.byte	0x40
 7105 0778 1A       		.uleb128 0x1a
 7106 0779 EB0B0000 		.4byte	.LASF131
 7107 077d 07       		.byte	0x7
 7108 077e 45       		.byte	0x45
 7109 077f A7070000 		.4byte	0x7a7
 7110 0783 44       		.byte	0x44
 7111 0784 1A       		.uleb128 0x1a
 7112 0785 85110000 		.4byte	.LASF132
 7113 0789 07       		.byte	0x7
 7114 078a 46       		.byte	0x46
 7115 078b ED000000 		.4byte	0xed
 7116 078f 48       		.byte	0x48
 7117 0790 00       		.byte	0
 7118 0791 1B       		.uleb128 0x1b
 7119 0792 81000000 		.4byte	0x81
 7120 0796 07       		.uleb128 0x7
 7121 0797 04       		.byte	0x4
 7122 0798 91070000 		.4byte	0x791
 7123 079c 15       		.uleb128 0x15
 7124 079d A7070000 		.4byte	0x7a7
 7125 07a1 16       		.uleb128 0x16
 7126 07a2 81000000 		.4byte	0x81
 7127 07a6 00       		.byte	0
 7128 07a7 07       		.uleb128 0x7
 7129 07a8 04       		.byte	0x4
 7130 07a9 9C070000 		.4byte	0x79c
 7131 07ad 1B       		.uleb128 0x1b
 7132 07ae 8D000000 		.4byte	0x8d
 7133 07b2 07       		.uleb128 0x7
 7134 07b3 04       		.byte	0x4
 7135 07b4 AD070000 		.4byte	0x7ad
 7136 07b8 15       		.uleb128 0x15
 7137 07b9 C3070000 		.4byte	0x7c3
 7138 07bd 16       		.uleb128 0x16
 7139 07be C3070000 		.4byte	0x7c3
 7140 07c2 00       		.byte	0
 7141 07c3 07       		.uleb128 0x7
 7142 07c4 04       		.byte	0x4
 7143 07c5 C9070000 		.4byte	0x7c9
 7144 07c9 0A       		.uleb128 0xa
 7145 07ca CB000000 		.4byte	0xcb
 7146 07ce 07       		.uleb128 0x7


 7147 07cf 04       		.byte	0x4
 7148 07d0 B8070000 		.4byte	0x7b8
 7149 07d4 15       		.uleb128 0x15
 7150 07d5 E4070000 		.4byte	0x7e4
 7151 07d9 16       		.uleb128 0x16
 7152 07da E4070000 		.4byte	0x7e4
 7153 07de 16       		.uleb128 0x16
 7154 07df 81000000 		.4byte	0x81
 7155 07e3 00       		.byte	0
 7156 07e4 07       		.uleb128 0x7
 7157 07e5 04       		.byte	0x4
 7158 07e6 EA070000 		.4byte	0x7ea
 7159 07ea 0A       		.uleb128 0xa
 7160 07eb 81000000 		.4byte	0x81
 7161 07ef 07       		.uleb128 0x7
 7162 07f0 04       		.byte	0x4
 7163 07f1 D4070000 		.4byte	0x7d4
 7164 07f5 03       		.uleb128 0x3
 7165 07f6 E4020000 		.4byte	.LASF133
 7166 07fa 07       		.byte	0x7
 7167 07fb 48       		.byte	0x48
 7168 07fc A0060000 		.4byte	0x6a0
 7169 0800 0B       		.uleb128 0xb
 7170 0801 C8040000 		.4byte	.LASF135
 7171 0805 01       		.byte	0x1
 7172 0806 07       		.byte	0x7
 7173 0807 51       		.byte	0x51
 7174 0808 22080000 		.4byte	0x822
 7175 080c 0C       		.uleb128 0xc
 7176 080d CC0C0000 		.4byte	.LASF136
 7177 0811 C001     		.sleb128 192
 7178 0813 0C       		.uleb128 0xc
 7179 0814 1C1C0000 		.4byte	.LASF137
 7180 0818 C101     		.sleb128 193
 7181 081a 0C       		.uleb128 0xc
 7182 081b BC080000 		.4byte	.LASF138
 7183 081f C201     		.sleb128 194
 7184 0821 00       		.byte	0
 7185 0822 1C       		.uleb128 0x1c
 7186 0823 DA170000 		.4byte	.LASF139
 7187 0827 0C01     		.2byte	0x10c
 7188 0829 07       		.byte	0x7
 7189 082a 59       		.byte	0x59
 7190 082b 6E080000 		.4byte	0x86e
 7191 082f 1A       		.uleb128 0x1a
 7192 0830 6E1F0000 		.4byte	.LASF140
 7193 0834 07       		.byte	0x7
 7194 0835 5B       		.byte	0x5b
 7195 0836 DE000000 		.4byte	0xde
 7196 083a 00       		.byte	0
 7197 083b 1A       		.uleb128 0x1a
 7198 083c B8000000 		.4byte	.LASF141
 7199 0840 07       		.byte	0x7
 7200 0841 5C       		.byte	0x5c
 7201 0842 E3000000 		.4byte	0xe3
 7202 0846 02       		.byte	0x2
 7203 0847 1A       		.uleb128 0x1a


 7204 0848 65060000 		.4byte	.LASF142
 7205 084c 07       		.byte	0x7
 7206 084d 5D       		.byte	0x5d
 7207 084e 6E080000 		.4byte	0x86e
 7208 0852 04       		.byte	0x4
 7209 0853 1D       		.uleb128 0x1d
 7210 0854 9E1F0000 		.4byte	.LASF143
 7211 0858 07       		.byte	0x7
 7212 0859 5E       		.byte	0x5e
 7213 085a 8E080000 		.4byte	0x88e
 7214 085e 0401     		.2byte	0x104
 7215 0860 1D       		.uleb128 0x1d
 7216 0861 F3210000 		.4byte	.LASF144
 7217 0865 07       		.byte	0x7
 7218 0866 60       		.byte	0x60
 7219 0867 94080000 		.4byte	0x894
 7220 086b 0801     		.2byte	0x108
 7221 086d 00       		.byte	0
 7222 086e 10       		.uleb128 0x10
 7223 086f CB000000 		.4byte	0xcb
 7224 0873 7E080000 		.4byte	0x87e
 7225 0877 11       		.uleb128 0x11
 7226 0878 F4000000 		.4byte	0xf4
 7227 087c FF       		.byte	0xff
 7228 087d 00       		.byte	0
 7229 087e 15       		.uleb128 0x15
 7230 087f 8E080000 		.4byte	0x88e
 7231 0883 16       		.uleb128 0x16
 7232 0884 81000000 		.4byte	0x81
 7233 0888 16       		.uleb128 0x16
 7234 0889 15010000 		.4byte	0x115
 7235 088d 00       		.byte	0
 7236 088e 07       		.uleb128 0x7
 7237 088f 04       		.byte	0x4
 7238 0890 7E080000 		.4byte	0x87e
 7239 0894 07       		.uleb128 0x7
 7240 0895 04       		.byte	0x4
 7241 0896 F5070000 		.4byte	0x7f5
 7242 089a 03       		.uleb128 0x3
 7243 089b D2000000 		.4byte	.LASF145
 7244 089f 07       		.byte	0x7
 7245 08a0 61       		.byte	0x61
 7246 08a1 22080000 		.4byte	0x822
 7247 08a5 03       		.uleb128 0x3
 7248 08a6 45180000 		.4byte	.LASF146
 7249 08aa 07       		.byte	0x7
 7250 08ab 61       		.byte	0x61
 7251 08ac B0080000 		.4byte	0x8b0
 7252 08b0 07       		.uleb128 0x7
 7253 08b1 04       		.byte	0x4
 7254 08b2 22080000 		.4byte	0x822
 7255 08b6 0B       		.uleb128 0xb
 7256 08b7 9E1D0000 		.4byte	.LASF147
 7257 08bb 01       		.byte	0x1
 7258 08bc 07       		.byte	0x7
 7259 08bd 6D       		.byte	0x6d
 7260 08be ED080000 		.4byte	0x8ed


 7261 08c2 0C       		.uleb128 0xc
 7262 08c3 EA010000 		.4byte	.LASF148
 7263 08c7 A001     		.sleb128 160
 7264 08c9 0C       		.uleb128 0xc
 7265 08ca 2F0B0000 		.4byte	.LASF149
 7266 08ce A101     		.sleb128 161
 7267 08d0 0C       		.uleb128 0xc
 7268 08d1 FE100000 		.4byte	.LASF150
 7269 08d5 A201     		.sleb128 162
 7270 08d7 0C       		.uleb128 0xc
 7271 08d8 B8060000 		.4byte	.LASF151
 7272 08dc A301     		.sleb128 163
 7273 08de 0C       		.uleb128 0xc
 7274 08df C6060000 		.4byte	.LASF152
 7275 08e3 A401     		.sleb128 164
 7276 08e5 0C       		.uleb128 0xc
 7277 08e6 DA150000 		.4byte	.LASF153
 7278 08ea A501     		.sleb128 165
 7279 08ec 00       		.byte	0
 7280 08ed 0B       		.uleb128 0xb
 7281 08ee F71F0000 		.4byte	.LASF154
 7282 08f2 01       		.byte	0x1
 7283 08f3 08       		.byte	0x8
 7284 08f4 3D       		.byte	0x3d
 7285 08f5 2A090000 		.4byte	0x92a
 7286 08f9 0C       		.uleb128 0xc
 7287 08fa C1200000 		.4byte	.LASF155
 7288 08fe 01       		.sleb128 1
 7289 08ff 0C       		.uleb128 0xc
 7290 0900 06200000 		.4byte	.LASF156
 7291 0904 02       		.sleb128 2
 7292 0905 0C       		.uleb128 0xc
 7293 0906 8C160000 		.4byte	.LASF157
 7294 090a 03       		.sleb128 3
 7295 090b 0C       		.uleb128 0xc
 7296 090c B61B0000 		.4byte	.LASF158
 7297 0910 04       		.sleb128 4
 7298 0911 0C       		.uleb128 0xc
 7299 0912 810D0000 		.4byte	.LASF159
 7300 0916 05       		.sleb128 5
 7301 0917 0C       		.uleb128 0xc
 7302 0918 A71E0000 		.4byte	.LASF160
 7303 091c 06       		.sleb128 6
 7304 091d 0C       		.uleb128 0xc
 7305 091e A50A0000 		.4byte	.LASF161
 7306 0922 07       		.sleb128 7
 7307 0923 0C       		.uleb128 0xc
 7308 0924 970F0000 		.4byte	.LASF162
 7309 0928 08       		.sleb128 8
 7310 0929 00       		.byte	0
 7311 092a 0B       		.uleb128 0xb
 7312 092b 6B210000 		.4byte	.LASF163
 7313 092f 01       		.byte	0x1
 7314 0930 08       		.byte	0x8
 7315 0931 4A       		.byte	0x4a
 7316 0932 49090000 		.4byte	0x949
 7317 0936 0C       		.uleb128 0xc


 7318 0937 7B210000 		.4byte	.LASF164
 7319 093b 01       		.sleb128 1
 7320 093c 0C       		.uleb128 0xc
 7321 093d 7A090000 		.4byte	.LASF165
 7322 0941 02       		.sleb128 2
 7323 0942 0C       		.uleb128 0xc
 7324 0943 B5170000 		.4byte	.LASF166
 7325 0947 03       		.sleb128 3
 7326 0948 00       		.byte	0
 7327 0949 1C       		.uleb128 0x1c
 7328 094a 5A000000 		.4byte	.LASF167
 7329 094e 9801     		.2byte	0x198
 7330 0950 08       		.byte	0x8
 7331 0951 51       		.byte	0x51
 7332 0952 EA090000 		.4byte	0x9ea
 7333 0956 1A       		.uleb128 0x1a
 7334 0957 B50E0000 		.4byte	.LASF168
 7335 095b 08       		.byte	0x8
 7336 095c 53       		.byte	0x53
 7337 095d 05030000 		.4byte	0x305
 7338 0961 00       		.byte	0
 7339 0962 1A       		.uleb128 0x1a
 7340 0963 111C0000 		.4byte	.LASF169
 7341 0967 08       		.byte	0x8
 7342 0968 54       		.byte	0x54
 7343 0969 DE000000 		.4byte	0xde
 7344 096d 01       		.byte	0x1
 7345 096e 1A       		.uleb128 0x1a
 7346 096f 851E0000 		.4byte	.LASF170
 7347 0973 08       		.byte	0x8
 7348 0974 55       		.byte	0x55
 7349 0975 DE000000 		.4byte	0xde
 7350 0979 02       		.byte	0x2
 7351 097a 1A       		.uleb128 0x1a
 7352 097b 6E1F0000 		.4byte	.LASF140
 7353 097f 08       		.byte	0x8
 7354 0980 56       		.byte	0x56
 7355 0981 DE000000 		.4byte	0xde
 7356 0985 03       		.byte	0x3
 7357 0986 1A       		.uleb128 0x1a
 7358 0987 B5090000 		.4byte	.LASF171
 7359 098b 08       		.byte	0x8
 7360 098c 58       		.byte	0x58
 7361 098d E3000000 		.4byte	0xe3
 7362 0991 04       		.byte	0x4
 7363 0992 1A       		.uleb128 0x1a
 7364 0993 A10C0000 		.4byte	.LASF172
 7365 0997 08       		.byte	0x8
 7366 0998 59       		.byte	0x59
 7367 0999 E3000000 		.4byte	0xe3
 7368 099d 06       		.byte	0x6
 7369 099e 1A       		.uleb128 0x1a
 7370 099f 31060000 		.4byte	.LASF173
 7371 09a3 08       		.byte	0x8
 7372 09a4 5A       		.byte	0x5a
 7373 09a5 E3000000 		.4byte	0xe3
 7374 09a9 08       		.byte	0x8


 7375 09aa 1A       		.uleb128 0x1a
 7376 09ab 891D0000 		.4byte	.LASF174
 7377 09af 08       		.byte	0x8
 7378 09b0 5B       		.byte	0x5b
 7379 09b1 E3000000 		.4byte	0xe3
 7380 09b5 0A       		.byte	0xa
 7381 09b6 1A       		.uleb128 0x1a
 7382 09b7 61050000 		.4byte	.LASF35
 7383 09bb 08       		.byte	0x8
 7384 09bc 5C       		.byte	0x5c
 7385 09bd 12050000 		.4byte	0x512
 7386 09c1 0C       		.byte	0xc
 7387 09c2 1D       		.uleb128 0x1d
 7388 09c3 25220000 		.4byte	.LASF36
 7389 09c7 08       		.byte	0x8
 7390 09c8 5D       		.byte	0x5d
 7391 09c9 E3000000 		.4byte	0xe3
 7392 09cd 8C01     		.2byte	0x18c
 7393 09cf 1D       		.uleb128 0x1d
 7394 09d0 5B100000 		.4byte	.LASF175
 7395 09d4 08       		.byte	0x8
 7396 09d5 60       		.byte	0x60
 7397 09d6 FB000000 		.4byte	0xfb
 7398 09da 9001     		.2byte	0x190
 7399 09dc 1D       		.uleb128 0x1d
 7400 09dd 4B1C0000 		.4byte	.LASF176
 7401 09e1 08       		.byte	0x8
 7402 09e2 61       		.byte	0x61
 7403 09e3 3E050000 		.4byte	0x53e
 7404 09e7 9401     		.2byte	0x194
 7405 09e9 00       		.byte	0
 7406 09ea 03       		.uleb128 0x3
 7407 09eb 28150000 		.4byte	.LASF177
 7408 09ef 08       		.byte	0x8
 7409 09f0 62       		.byte	0x62
 7410 09f1 F5090000 		.4byte	0x9f5
 7411 09f5 07       		.uleb128 0x7
 7412 09f6 04       		.byte	0x4
 7413 09f7 49090000 		.4byte	0x949
 7414 09fb 0B       		.uleb128 0xb
 7415 09fc 92050000 		.4byte	.LASF178
 7416 0a00 01       		.byte	0x1
 7417 0a01 09       		.byte	0x9
 7418 0a02 0F       		.byte	0xf
 7419 0a03 F20A0000 		.4byte	0xaf2
 7420 0a07 0C       		.uleb128 0xc
 7421 0a08 71170000 		.4byte	.LASF179
 7422 0a0c 01       		.sleb128 1
 7423 0a0d 0C       		.uleb128 0xc
 7424 0a0e 061B0000 		.4byte	.LASF180
 7425 0a12 02       		.sleb128 2
 7426 0a13 0C       		.uleb128 0xc
 7427 0a14 29020000 		.4byte	.LASF181
 7428 0a18 03       		.sleb128 3
 7429 0a19 0C       		.uleb128 0xc
 7430 0a1a FD190000 		.4byte	.LASF182
 7431 0a1e 04       		.sleb128 4


 7432 0a1f 0C       		.uleb128 0xc
 7433 0a20 D7010000 		.4byte	.LASF183
 7434 0a24 05       		.sleb128 5
 7435 0a25 0C       		.uleb128 0xc
 7436 0a26 9C030000 		.4byte	.LASF184
 7437 0a2a 06       		.sleb128 6
 7438 0a2b 0C       		.uleb128 0xc
 7439 0a2c 68120000 		.4byte	.LASF185
 7440 0a30 07       		.sleb128 7
 7441 0a31 0C       		.uleb128 0xc
 7442 0a32 6F100000 		.4byte	.LASF186
 7443 0a36 08       		.sleb128 8
 7444 0a37 0C       		.uleb128 0xc
 7445 0a38 87100000 		.4byte	.LASF187
 7446 0a3c 09       		.sleb128 9
 7447 0a3d 0C       		.uleb128 0xc
 7448 0a3e 9B000000 		.4byte	.LASF188
 7449 0a42 0A       		.sleb128 10
 7450 0a43 0C       		.uleb128 0xc
 7451 0a44 C4020000 		.4byte	.LASF189
 7452 0a48 0B       		.sleb128 11
 7453 0a49 0C       		.uleb128 0xc
 7454 0a4a 6E1A0000 		.4byte	.LASF190
 7455 0a4e 0C       		.sleb128 12
 7456 0a4f 0C       		.uleb128 0xc
 7457 0a50 5C1D0000 		.4byte	.LASF191
 7458 0a54 0D       		.sleb128 13
 7459 0a55 0C       		.uleb128 0xc
 7460 0a56 89090000 		.4byte	.LASF192
 7461 0a5a 0E       		.sleb128 14
 7462 0a5b 0C       		.uleb128 0xc
 7463 0a5c 450A0000 		.4byte	.LASF193
 7464 0a60 0F       		.sleb128 15
 7465 0a61 0C       		.uleb128 0xc
 7466 0a62 10200000 		.4byte	.LASF194
 7467 0a66 10       		.sleb128 16
 7468 0a67 0C       		.uleb128 0xc
 7469 0a68 041D0000 		.4byte	.LASF195
 7470 0a6c 11       		.sleb128 17
 7471 0a6d 0C       		.uleb128 0xc
 7472 0a6e 83030000 		.4byte	.LASF196
 7473 0a72 12       		.sleb128 18
 7474 0a73 0C       		.uleb128 0xc
 7475 0a74 AC160000 		.4byte	.LASF197
 7476 0a78 13       		.sleb128 19
 7477 0a79 0C       		.uleb128 0xc
 7478 0a7a B9120000 		.4byte	.LASF198
 7479 0a7e 14       		.sleb128 20
 7480 0a7f 0C       		.uleb128 0xc
 7481 0a80 700C0000 		.4byte	.LASF199
 7482 0a84 15       		.sleb128 21
 7483 0a85 0C       		.uleb128 0xc
 7484 0a86 20040000 		.4byte	.LASF200
 7485 0a8a 16       		.sleb128 22
 7486 0a8b 0C       		.uleb128 0xc
 7487 0a8c A0200000 		.4byte	.LASF201
 7488 0a90 17       		.sleb128 23


 7489 0a91 0C       		.uleb128 0xc
 7490 0a92 2D0C0000 		.4byte	.LASF202
 7491 0a96 18       		.sleb128 24
 7492 0a97 0C       		.uleb128 0xc
 7493 0a98 44070000 		.4byte	.LASF203
 7494 0a9c 19       		.sleb128 25
 7495 0a9d 0C       		.uleb128 0xc
 7496 0a9e F80C0000 		.4byte	.LASF204
 7497 0aa2 1A       		.sleb128 26
 7498 0aa3 0C       		.uleb128 0xc
 7499 0aa4 251D0000 		.4byte	.LASF205
 7500 0aa8 1B       		.sleb128 27
 7501 0aa9 0C       		.uleb128 0xc
 7502 0aaa B3020000 		.4byte	.LASF206
 7503 0aae 1C       		.sleb128 28
 7504 0aaf 0C       		.uleb128 0xc
 7505 0ab0 C4080000 		.4byte	.LASF207
 7506 0ab4 1D       		.sleb128 29
 7507 0ab5 0C       		.uleb128 0xc
 7508 0ab6 4B050000 		.4byte	.LASF208
 7509 0aba 1E       		.sleb128 30
 7510 0abb 0C       		.uleb128 0xc
 7511 0abc 2C1C0000 		.4byte	.LASF209
 7512 0ac0 1F       		.sleb128 31
 7513 0ac1 0C       		.uleb128 0xc
 7514 0ac2 F60A0000 		.4byte	.LASF210
 7515 0ac6 20       		.sleb128 32
 7516 0ac7 0C       		.uleb128 0xc
 7517 0ac8 19070000 		.4byte	.LASF211
 7518 0acc 21       		.sleb128 33
 7519 0acd 0C       		.uleb128 0xc
 7520 0ace BC190000 		.4byte	.LASF212
 7521 0ad2 22       		.sleb128 34
 7522 0ad3 0C       		.uleb128 0xc
 7523 0ad4 4D100000 		.4byte	.LASF213
 7524 0ad8 23       		.sleb128 35
 7525 0ad9 0C       		.uleb128 0xc
 7526 0ada AC210000 		.4byte	.LASF214
 7527 0ade 24       		.sleb128 36
 7528 0adf 0C       		.uleb128 0xc
 7529 0ae0 69160000 		.4byte	.LASF215
 7530 0ae4 25       		.sleb128 37
 7531 0ae5 0C       		.uleb128 0xc
 7532 0ae6 66030000 		.4byte	.LASF216
 7533 0aea 26       		.sleb128 38
 7534 0aeb 0C       		.uleb128 0xc
 7535 0aec 53110000 		.4byte	.LASF217
 7536 0af0 27       		.sleb128 39
 7537 0af1 00       		.byte	0
 7538 0af2 1E       		.uleb128 0x1e
 7539 0af3 02       		.byte	0x2
 7540 0af4 0A       		.byte	0xa
 7541 0af5 6D       		.byte	0x6d
 7542 0af6 130B0000 		.4byte	0xb13
 7543 0afa 1A       		.uleb128 0x1a
 7544 0afb 16150000 		.4byte	.LASF218
 7545 0aff 0A       		.byte	0xa


 7546 0b00 6F       		.byte	0x6f
 7547 0b01 81000000 		.4byte	0x81
 7548 0b05 00       		.byte	0
 7549 0b06 1A       		.uleb128 0x1a
 7550 0b07 08000000 		.4byte	.LASF219
 7551 0b0b 0A       		.byte	0xa
 7552 0b0c 70       		.byte	0x70
 7553 0b0d 81000000 		.4byte	0x81
 7554 0b11 01       		.byte	0x1
 7555 0b12 00       		.byte	0
 7556 0b13 03       		.uleb128 0x3
 7557 0b14 4E1D0000 		.4byte	.LASF220
 7558 0b18 0A       		.byte	0xa
 7559 0b19 72       		.byte	0x72
 7560 0b1a F20A0000 		.4byte	0xaf2
 7561 0b1e 0B       		.uleb128 0xb
 7562 0b1f 16060000 		.4byte	.LASF221
 7563 0b23 01       		.byte	0x1
 7564 0b24 0B       		.byte	0xb
 7565 0b25 21       		.byte	0x21
 7566 0b26 840C0000 		.4byte	0xc84
 7567 0b2a 0C       		.uleb128 0xc
 7568 0b2b 510D0000 		.4byte	.LASF222
 7569 0b2f 01       		.sleb128 1
 7570 0b30 0C       		.uleb128 0xc
 7571 0b31 610D0000 		.4byte	.LASF223
 7572 0b35 02       		.sleb128 2
 7573 0b36 0C       		.uleb128 0xc
 7574 0b37 710D0000 		.4byte	.LASF224
 7575 0b3b 03       		.sleb128 3
 7576 0b3c 0C       		.uleb128 0xc
 7577 0b3d 3D190000 		.4byte	.LASF225
 7578 0b41 04       		.sleb128 4
 7579 0b42 0C       		.uleb128 0xc
 7580 0b43 B10C0000 		.4byte	.LASF226
 7581 0b47 05       		.sleb128 5
 7582 0b48 0C       		.uleb128 0xc
 7583 0b49 F9080000 		.4byte	.LASF227
 7584 0b4d 06       		.sleb128 6
 7585 0b4e 0C       		.uleb128 0xc
 7586 0b4f 12050000 		.4byte	.LASF228
 7587 0b53 0F       		.sleb128 15
 7588 0b54 0C       		.uleb128 0xc
 7589 0b55 B3130000 		.4byte	.LASF229
 7590 0b59 FE00     		.sleb128 126
 7591 0b5b 0C       		.uleb128 0xc
 7592 0b5c D0130000 		.4byte	.LASF230
 7593 0b60 8601     		.sleb128 134
 7594 0b62 0C       		.uleb128 0xc
 7595 0b63 F4000000 		.4byte	.LASF231
 7596 0b67 07       		.sleb128 7
 7597 0b68 0C       		.uleb128 0xc
 7598 0b69 231B0000 		.4byte	.LASF232
 7599 0b6d 08       		.sleb128 8
 7600 0b6e 0C       		.uleb128 0xc
 7601 0b6f 560C0000 		.4byte	.LASF233
 7602 0b73 09       		.sleb128 9


 7603 0b74 0C       		.uleb128 0xc
 7604 0b75 43150000 		.4byte	.LASF234
 7605 0b79 0A       		.sleb128 10
 7606 0b7a 0C       		.uleb128 0xc
 7607 0b7b 2C120000 		.4byte	.LASF235
 7608 0b7f 0B       		.sleb128 11
 7609 0b80 0C       		.uleb128 0xc
 7610 0b81 AD110000 		.4byte	.LASF236
 7611 0b85 25       		.sleb128 37
 7612 0b86 0C       		.uleb128 0xc
 7613 0b87 35130000 		.4byte	.LASF237
 7614 0b8b 26       		.sleb128 38
 7615 0b8c 0C       		.uleb128 0xc
 7616 0b8d 12140000 		.4byte	.LASF238
 7617 0b91 27       		.sleb128 39
 7618 0b92 0C       		.uleb128 0xc
 7619 0b93 A1180000 		.4byte	.LASF239
 7620 0b97 2F       		.sleb128 47
 7621 0b98 0C       		.uleb128 0xc
 7622 0b99 BF070000 		.4byte	.LASF240
 7623 0b9d 2C       		.sleb128 44
 7624 0b9e 0C       		.uleb128 0xc
 7625 0b9f 4A120000 		.4byte	.LASF241
 7626 0ba3 0C       		.sleb128 12
 7627 0ba4 0C       		.uleb128 0xc
 7628 0ba5 AC070000 		.4byte	.LASF242
 7629 0ba9 8501     		.sleb128 133
 7630 0bab 0C       		.uleb128 0xc
 7631 0bac CA160000 		.4byte	.LASF243
 7632 0bb0 1C       		.sleb128 28
 7633 0bb1 0C       		.uleb128 0xc
 7634 0bb2 FE180000 		.4byte	.LASF244
 7635 0bb6 12       		.sleb128 18
 7636 0bb7 0C       		.uleb128 0xc
 7637 0bb8 0D110000 		.4byte	.LASF245
 7638 0bbc 13       		.sleb128 19
 7639 0bbd 0C       		.uleb128 0xc
 7640 0bbe 4D1E0000 		.4byte	.LASF246
 7641 0bc2 24       		.sleb128 36
 7642 0bc3 0C       		.uleb128 0xc
 7643 0bc4 9B1B0000 		.4byte	.LASF247
 7644 0bc8 0D       		.sleb128 13
 7645 0bc9 0C       		.uleb128 0xc
 7646 0bca D4060000 		.4byte	.LASF248
 7647 0bce 0E       		.sleb128 14
 7648 0bcf 0C       		.uleb128 0xc
 7649 0bd0 27180000 		.4byte	.LASF249
 7650 0bd4 22       		.sleb128 34
 7651 0bd5 0C       		.uleb128 0xc
 7652 0bd6 1F030000 		.4byte	.LASF250
 7653 0bda DA00     		.sleb128 90
 7654 0bdc 0C       		.uleb128 0xc
 7655 0bdd 90080000 		.4byte	.LASF251
 7656 0be1 2E       		.sleb128 46
 7657 0be2 0C       		.uleb128 0xc
 7658 0be3 0B180000 		.4byte	.LASF252
 7659 0be7 8C01     		.sleb128 140


 7660 0be9 0C       		.uleb128 0xc
 7661 0bea 31090000 		.4byte	.LASF253
 7662 0bee 9601     		.sleb128 150
 7663 0bf0 0C       		.uleb128 0xc
 7664 0bf1 59070000 		.4byte	.LASF254
 7665 0bf5 39       		.sleb128 57
 7666 0bf6 0C       		.uleb128 0xc
 7667 0bf7 E4110000 		.4byte	.LASF255
 7668 0bfb 9701     		.sleb128 151
 7669 0bfd 0C       		.uleb128 0xc
 7670 0bfe E61B0000 		.4byte	.LASF256
 7671 0c02 9801     		.sleb128 152
 7672 0c04 0C       		.uleb128 0xc
 7673 0c05 53170000 		.4byte	.LASF257
 7674 0c09 3E       		.sleb128 62
 7675 0c0a 0C       		.uleb128 0xc
 7676 0c0b 62100000 		.4byte	.LASF258
 7677 0c0f 3F       		.sleb128 63
 7678 0c10 0C       		.uleb128 0xc
 7679 0c11 72070000 		.4byte	.LASF259
 7680 0c15 C000     		.sleb128 64
 7681 0c17 0C       		.uleb128 0xc
 7682 0c18 511F0000 		.4byte	.LASF260
 7683 0c1c 8D01     		.sleb128 141
 7684 0c1e 0C       		.uleb128 0xc
 7685 0c1f F0020000 		.4byte	.LASF261
 7686 0c23 23       		.sleb128 35
 7687 0c24 0C       		.uleb128 0xc
 7688 0c25 68080000 		.4byte	.LASF262
 7689 0c29 2A       		.sleb128 42
 7690 0c2a 0C       		.uleb128 0xc
 7691 0c2b C41B0000 		.4byte	.LASF263
 7692 0c2f 2B       		.sleb128 43
 7693 0c30 0C       		.uleb128 0xc
 7694 0c31 43080000 		.4byte	.LASF264
 7695 0c35 3C       		.sleb128 60
 7696 0c36 0C       		.uleb128 0xc
 7697 0c37 EA0D0000 		.4byte	.LASF265
 7698 0c3b C100     		.sleb128 65
 7699 0c3d 0C       		.uleb128 0xc
 7700 0c3e 800A0000 		.4byte	.LASF266
 7701 0c42 EB00     		.sleb128 107
 7702 0c44 0C       		.uleb128 0xc
 7703 0c45 64110000 		.4byte	.LASF267
 7704 0c49 E700     		.sleb128 103
 7705 0c4b 0C       		.uleb128 0xc
 7706 0c4c 2C050000 		.4byte	.LASF268
 7707 0c50 E400     		.sleb128 100
 7708 0c52 0C       		.uleb128 0xc
 7709 0c53 B31C0000 		.4byte	.LASF269
 7710 0c57 E500     		.sleb128 101
 7711 0c59 0C       		.uleb128 0xc
 7712 0c5a 09100000 		.4byte	.LASF270
 7713 0c5e 9901     		.sleb128 153
 7714 0c60 0C       		.uleb128 0xc
 7715 0c61 18100000 		.4byte	.LASF271
 7716 0c65 9A01     		.sleb128 154


 7717 0c67 0C       		.uleb128 0xc
 7718 0c68 27100000 		.4byte	.LASF272
 7719 0c6c 9B01     		.sleb128 155
 7720 0c6e 0C       		.uleb128 0xc
 7721 0c6f 36100000 		.4byte	.LASF273
 7722 0c73 9C01     		.sleb128 156
 7723 0c75 0C       		.uleb128 0xc
 7724 0c76 38170000 		.4byte	.LASF274
 7725 0c7a FA01     		.sleb128 250
 7726 0c7c 0C       		.uleb128 0xc
 7727 0c7d E01C0000 		.4byte	.LASF275
 7728 0c81 FF01     		.sleb128 255
 7729 0c83 00       		.byte	0
 7730 0c84 0B       		.uleb128 0xb
 7731 0c85 80070000 		.4byte	.LASF276
 7732 0c89 01       		.byte	0x1
 7733 0c8a 0B       		.byte	0xb
 7734 0c8b 69       		.byte	0x69
 7735 0c8c EB0C0000 		.4byte	0xceb
 7736 0c90 0C       		.uleb128 0xc
 7737 0c91 421A0000 		.4byte	.LASF277
 7738 0c95 00       		.sleb128 0
 7739 0c96 0C       		.uleb128 0xc
 7740 0c97 F3060000 		.4byte	.LASF278
 7741 0c9b A001     		.sleb128 160
 7742 0c9d 0C       		.uleb128 0xc
 7743 0c9e A7100000 		.4byte	.LASF279
 7744 0ca2 A101     		.sleb128 161
 7745 0ca4 0C       		.uleb128 0xc
 7746 0ca5 671E0000 		.4byte	.LASF280
 7747 0ca9 A201     		.sleb128 162
 7748 0cab 0C       		.uleb128 0xc
 7749 0cac BA140000 		.4byte	.LASF281
 7750 0cb0 A301     		.sleb128 163
 7751 0cb2 0C       		.uleb128 0xc
 7752 0cb3 541C0000 		.4byte	.LASF282
 7753 0cb7 A401     		.sleb128 164
 7754 0cb9 0C       		.uleb128 0xc
 7755 0cba 58190000 		.4byte	.LASF283
 7756 0cbe A501     		.sleb128 165
 7757 0cc0 0C       		.uleb128 0xc
 7758 0cc1 E4150000 		.4byte	.LASF284
 7759 0cc5 A601     		.sleb128 166
 7760 0cc7 0C       		.uleb128 0xc
 7761 0cc8 900E0000 		.4byte	.LASF285
 7762 0ccc A701     		.sleb128 167
 7763 0cce 0C       		.uleb128 0xc
 7764 0ccf 120D0000 		.4byte	.LASF286
 7765 0cd3 A801     		.sleb128 168
 7766 0cd5 0C       		.uleb128 0xc
 7767 0cd6 F30B0000 		.4byte	.LASF287
 7768 0cda A901     		.sleb128 169
 7769 0cdc 0C       		.uleb128 0xc
 7770 0cdd 93210000 		.4byte	.LASF288
 7771 0ce1 AA01     		.sleb128 170
 7772 0ce3 0C       		.uleb128 0xc
 7773 0ce4 12090000 		.4byte	.LASF289


 7774 0ce8 AB01     		.sleb128 171
 7775 0cea 00       		.byte	0
 7776 0ceb 1F       		.uleb128 0x1f
 7777 0cec 01       		.byte	0x1
 7778 0ced 0B       		.byte	0xb
 7779 0cee 80       		.byte	0x80
 7780 0cef 000D0000 		.4byte	0xd00
 7781 0cf3 0C       		.uleb128 0xc
 7782 0cf4 48000000 		.4byte	.LASF290
 7783 0cf8 00       		.sleb128 0
 7784 0cf9 0C       		.uleb128 0xc
 7785 0cfa 51000000 		.4byte	.LASF291
 7786 0cfe 01       		.sleb128 1
 7787 0cff 00       		.byte	0
 7788 0d00 1F       		.uleb128 0x1f
 7789 0d01 01       		.byte	0x1
 7790 0d02 0B       		.byte	0xb
 7791 0d03 86       		.byte	0x86
 7792 0d04 170D0000 		.4byte	0xd17
 7793 0d08 0C       		.uleb128 0xc
 7794 0d09 92020000 		.4byte	.LASF292
 7795 0d0d D600     		.sleb128 86
 7796 0d0f 0C       		.uleb128 0xc
 7797 0d10 9C020000 		.4byte	.LASF293
 7798 0d14 D700     		.sleb128 87
 7799 0d16 00       		.byte	0
 7800 0d17 1E       		.uleb128 0x1e
 7801 0d18 08       		.byte	0x8
 7802 0d19 0B       		.byte	0xb
 7803 0d1a 91       		.byte	0x91
 7804 0d1b 5C0D0000 		.4byte	0xd5c
 7805 0d1f 1A       		.uleb128 0x1a
 7806 0d20 2B060000 		.4byte	.LASF294
 7807 0d24 0B       		.byte	0xb
 7808 0d25 93       		.byte	0x93
 7809 0d26 81000000 		.4byte	0x81
 7810 0d2a 00       		.byte	0
 7811 0d2b 1A       		.uleb128 0x1a
 7812 0d2c AC080000 		.4byte	.LASF295
 7813 0d30 0B       		.byte	0xb
 7814 0d31 94       		.byte	0x94
 7815 0d32 81000000 		.4byte	0x81
 7816 0d36 01       		.byte	0x1
 7817 0d37 1A       		.uleb128 0x1a
 7818 0d38 971C0000 		.4byte	.LASF296
 7819 0d3c 0B       		.byte	0xb
 7820 0d3d 95       		.byte	0x95
 7821 0d3e 81000000 		.4byte	0x81
 7822 0d42 02       		.byte	0x2
 7823 0d43 1A       		.uleb128 0x1a
 7824 0d44 71200000 		.4byte	.LASF297
 7825 0d48 0B       		.byte	0xb
 7826 0d49 96       		.byte	0x96
 7827 0d4a 8D000000 		.4byte	0x8d
 7828 0d4e 04       		.byte	0x4
 7829 0d4f 1A       		.uleb128 0x1a
 7830 0d50 220C0000 		.4byte	.LASF298


 7831 0d54 0B       		.byte	0xb
 7832 0d55 97       		.byte	0x97
 7833 0d56 8D000000 		.4byte	0x8d
 7834 0d5a 06       		.byte	0x6
 7835 0d5b 00       		.byte	0
 7836 0d5c 03       		.uleb128 0x3
 7837 0d5d EE030000 		.4byte	.LASF299
 7838 0d61 0B       		.byte	0xb
 7839 0d62 98       		.byte	0x98
 7840 0d63 170D0000 		.4byte	0xd17
 7841 0d67 03       		.uleb128 0x3
 7842 0d68 751C0000 		.4byte	.LASF300
 7843 0d6c 0B       		.byte	0xb
 7844 0d6d 9A       		.byte	0x9a
 7845 0d6e 3E050000 		.4byte	0x53e
 7846 0d72 03       		.uleb128 0x3
 7847 0d73 4F200000 		.4byte	.LASF301
 7848 0d77 0B       		.byte	0xb
 7849 0d78 9B       		.byte	0x9b
 7850 0d79 98050000 		.4byte	0x598
 7851 0d7d 03       		.uleb128 0x3
 7852 0d7e 370D0000 		.4byte	.LASF302
 7853 0d82 0B       		.byte	0xb
 7854 0d83 9C       		.byte	0x9c
 7855 0d84 3E050000 		.4byte	0x53e
 7856 0d88 03       		.uleb128 0x3
 7857 0d89 7B150000 		.4byte	.LASF303
 7858 0d8d 0B       		.byte	0xb
 7859 0d8e 9D       		.byte	0x9d
 7860 0d8f 3E050000 		.4byte	0x53e
 7861 0d93 03       		.uleb128 0x3
 7862 0d94 750B0000 		.4byte	.LASF304
 7863 0d98 0B       		.byte	0xb
 7864 0d99 9E       		.byte	0x9e
 7865 0d9a 3E050000 		.4byte	0x53e
 7866 0d9e 03       		.uleb128 0x3
 7867 0d9f EA0C0000 		.4byte	.LASF305
 7868 0da3 0B       		.byte	0xb
 7869 0da4 A0       		.byte	0xa0
 7870 0da5 670D0000 		.4byte	0xd67
 7871 0da9 03       		.uleb128 0x3
 7872 0daa E6120000 		.4byte	.LASF306
 7873 0dae 0B       		.byte	0xb
 7874 0daf A1       		.byte	0xa1
 7875 0db0 720D0000 		.4byte	0xd72
 7876 0db4 03       		.uleb128 0x3
 7877 0db5 1B0A0000 		.4byte	.LASF307
 7878 0db9 0B       		.byte	0xb
 7879 0dba A2       		.byte	0xa2
 7880 0dbb 7D0D0000 		.4byte	0xd7d
 7881 0dbf 03       		.uleb128 0x3
 7882 0dc0 BE1A0000 		.4byte	.LASF308
 7883 0dc4 0B       		.byte	0xb
 7884 0dc5 A3       		.byte	0xa3
 7885 0dc6 880D0000 		.4byte	0xd88
 7886 0dca 03       		.uleb128 0x3
 7887 0dcb F0100000 		.4byte	.LASF309


 7888 0dcf 0B       		.byte	0xb
 7889 0dd0 A4       		.byte	0xa4
 7890 0dd1 930D0000 		.4byte	0xd93
 7891 0dd5 1E       		.uleb128 0x1e
 7892 0dd6 02       		.byte	0x2
 7893 0dd7 0B       		.byte	0xb
 7894 0dd8 A6       		.byte	0xa6
 7895 0dd9 F60D0000 		.4byte	0xdf6
 7896 0ddd 1A       		.uleb128 0x1a
 7897 0dde 00150000 		.4byte	.LASF310
 7898 0de2 0B       		.byte	0xb
 7899 0de3 A8       		.byte	0xa8
 7900 0de4 81000000 		.4byte	0x81
 7901 0de8 00       		.byte	0
 7902 0de9 1A       		.uleb128 0x1a
 7903 0dea BA210000 		.4byte	.LASF311
 7904 0dee 0B       		.byte	0xb
 7905 0def A9       		.byte	0xa9
 7906 0df0 81000000 		.4byte	0x81
 7907 0df4 01       		.byte	0x1
 7908 0df5 00       		.byte	0
 7909 0df6 03       		.uleb128 0x3
 7910 0df7 C31E0000 		.4byte	.LASF312
 7911 0dfb 0B       		.byte	0xb
 7912 0dfc AA       		.byte	0xaa
 7913 0dfd D50D0000 		.4byte	0xdd5
 7914 0e01 1E       		.uleb128 0x1e
 7915 0e02 06       		.byte	0x6
 7916 0e03 0B       		.byte	0xb
 7917 0e04 AC       		.byte	0xac
 7918 0e05 2E0E0000 		.4byte	0xe2e
 7919 0e09 1A       		.uleb128 0x1a
 7920 0e0a 7D080000 		.4byte	.LASF313
 7921 0e0e 0B       		.byte	0xb
 7922 0e0f AE       		.byte	0xae
 7923 0e10 81000000 		.4byte	0x81
 7924 0e14 00       		.byte	0
 7925 0e15 1A       		.uleb128 0x1a
 7926 0e16 140B0000 		.4byte	.LASF314
 7927 0e1a 0B       		.byte	0xb
 7928 0e1b AF       		.byte	0xaf
 7929 0e1c 8D000000 		.4byte	0x8d
 7930 0e20 02       		.byte	0x2
 7931 0e21 1A       		.uleb128 0x1a
 7932 0e22 2F160000 		.4byte	.LASF315
 7933 0e26 0B       		.byte	0xb
 7934 0e27 B0       		.byte	0xb0
 7935 0e28 81000000 		.4byte	0x81
 7936 0e2c 04       		.byte	0x4
 7937 0e2d 00       		.byte	0
 7938 0e2e 03       		.uleb128 0x3
 7939 0e2f DE200000 		.4byte	.LASF316
 7940 0e33 0B       		.byte	0xb
 7941 0e34 B1       		.byte	0xb1
 7942 0e35 010E0000 		.4byte	0xe01
 7943 0e39 1E       		.uleb128 0x1e
 7944 0e3a 0E       		.byte	0xe


 7945 0e3b 0B       		.byte	0xb
 7946 0e3c B3       		.byte	0xb3
 7947 0e3d 720E0000 		.4byte	0xe72
 7948 0e41 1A       		.uleb128 0x1a
 7949 0e42 5C040000 		.4byte	.LASF317
 7950 0e46 0B       		.byte	0xb
 7951 0e47 B5       		.byte	0xb5
 7952 0e48 8D000000 		.4byte	0x8d
 7953 0e4c 00       		.byte	0
 7954 0e4d 1A       		.uleb128 0x1a
 7955 0e4e FA010000 		.4byte	.LASF318
 7956 0e52 0B       		.byte	0xb
 7957 0e53 B6       		.byte	0xb6
 7958 0e54 8D000000 		.4byte	0x8d
 7959 0e58 02       		.byte	0x2
 7960 0e59 1A       		.uleb128 0x1a
 7961 0e5a 90150000 		.4byte	.LASF319
 7962 0e5e 0B       		.byte	0xb
 7963 0e5f B7       		.byte	0xb7
 7964 0e60 81000000 		.4byte	0x81
 7965 0e64 04       		.byte	0x4
 7966 0e65 1A       		.uleb128 0x1a
 7967 0e66 D80F0000 		.4byte	.LASF320
 7968 0e6a 0B       		.byte	0xb
 7969 0e6b B9       		.byte	0xb9
 7970 0e6c 5C0D0000 		.4byte	0xd5c
 7971 0e70 06       		.byte	0x6
 7972 0e71 00       		.byte	0
 7973 0e72 03       		.uleb128 0x3
 7974 0e73 C6110000 		.4byte	.LASF321
 7975 0e77 0B       		.byte	0xb
 7976 0e78 BA       		.byte	0xba
 7977 0e79 390E0000 		.4byte	0xe39
 7978 0e7d 1E       		.uleb128 0x1e
 7979 0e7e 44       		.byte	0x44
 7980 0e7f 0B       		.byte	0xb
 7981 0e80 BE       		.byte	0xbe
 7982 0e81 3A0F0000 		.4byte	0xf3a
 7983 0e85 1A       		.uleb128 0x1a
 7984 0e86 AC130000 		.4byte	.LASF322
 7985 0e8a 0B       		.byte	0xb
 7986 0e8b C1       		.byte	0xc1
 7987 0e8c 81000000 		.4byte	0x81
 7988 0e90 00       		.byte	0
 7989 0e91 1A       		.uleb128 0x1a
 7990 0e92 D9090000 		.4byte	.LASF323
 7991 0e96 0B       		.byte	0xb
 7992 0e97 C3       		.byte	0xc3
 7993 0e98 81000000 		.4byte	0x81
 7994 0e9c 01       		.byte	0x1
 7995 0e9d 1A       		.uleb128 0x1a
 7996 0e9e 50090000 		.4byte	.LASF324
 7997 0ea2 0B       		.byte	0xb
 7998 0ea3 C5       		.byte	0xc5
 7999 0ea4 81000000 		.4byte	0x81
 8000 0ea8 02       		.byte	0x2
 8001 0ea9 1A       		.uleb128 0x1a


 8002 0eaa 32200000 		.4byte	.LASF325
 8003 0eae 0B       		.byte	0xb
 8004 0eaf C7       		.byte	0xc7
 8005 0eb0 8D000000 		.4byte	0x8d
 8006 0eb4 04       		.byte	0x4
 8007 0eb5 1A       		.uleb128 0x1a
 8008 0eb6 F00F0000 		.4byte	.LASF326
 8009 0eba 0B       		.byte	0xb
 8010 0ebb C9       		.byte	0xc9
 8011 0ebc 81000000 		.4byte	0x81
 8012 0ec0 06       		.byte	0x6
 8013 0ec1 1A       		.uleb128 0x1a
 8014 0ec2 E00B0000 		.4byte	.LASF327
 8015 0ec6 0B       		.byte	0xb
 8016 0ec7 CC       		.byte	0xcc
 8017 0ec8 3A0F0000 		.4byte	0xf3a
 8018 0ecc 07       		.byte	0x7
 8019 0ecd 1A       		.uleb128 0x1a
 8020 0ece 09160000 		.4byte	.LASF328
 8021 0ed2 0B       		.byte	0xb
 8022 0ed3 CD       		.byte	0xcd
 8023 0ed4 3A0F0000 		.4byte	0xf3a
 8024 0ed8 0D       		.byte	0xd
 8025 0ed9 1A       		.uleb128 0x1a
 8026 0eda F9120000 		.4byte	.LASF329
 8027 0ede 0B       		.byte	0xb
 8028 0edf D0       		.byte	0xd0
 8029 0ee0 3A0F0000 		.4byte	0xf3a
 8030 0ee4 13       		.byte	0x13
 8031 0ee5 1A       		.uleb128 0x1a
 8032 0ee6 3F1C0000 		.4byte	.LASF330
 8033 0eea 0B       		.byte	0xb
 8034 0eeb D1       		.byte	0xd1
 8035 0eec 3A0F0000 		.4byte	0xf3a
 8036 0ef0 19       		.byte	0x19
 8037 0ef1 1A       		.uleb128 0x1a
 8038 0ef2 E5100000 		.4byte	.LASF331
 8039 0ef6 0B       		.byte	0xb
 8040 0ef7 D3       		.byte	0xd3
 8041 0ef8 670D0000 		.4byte	0xd67
 8042 0efc 20       		.byte	0x20
 8043 0efd 1A       		.uleb128 0x1a
 8044 0efe 87190000 		.4byte	.LASF332
 8045 0f02 0B       		.byte	0xb
 8046 0f03 D6       		.byte	0xd6
 8047 0f04 7D0D0000 		.4byte	0xd7d
 8048 0f08 24       		.byte	0x24
 8049 0f09 1A       		.uleb128 0x1a
 8050 0f0a 84010000 		.4byte	.LASF333
 8051 0f0e 0B       		.byte	0xb
 8052 0f0f D8       		.byte	0xd8
 8053 0f10 720D0000 		.4byte	0xd72
 8054 0f14 28       		.byte	0x28
 8055 0f15 1A       		.uleb128 0x1a
 8056 0f16 261A0000 		.4byte	.LASF334
 8057 0f1a 0B       		.byte	0xb
 8058 0f1b DA       		.byte	0xda


 8059 0f1c 720E0000 		.4byte	0xe72
 8060 0f20 2C       		.byte	0x2c
 8061 0f21 1A       		.uleb128 0x1a
 8062 0f22 B8180000 		.4byte	.LASF335
 8063 0f26 0B       		.byte	0xb
 8064 0f27 DC       		.byte	0xdc
 8065 0f28 880D0000 		.4byte	0xd88
 8066 0f2c 3C       		.byte	0x3c
 8067 0f2d 1A       		.uleb128 0x1a
 8068 0f2e 040A0000 		.4byte	.LASF336
 8069 0f32 0B       		.byte	0xb
 8070 0f33 DE       		.byte	0xde
 8071 0f34 930D0000 		.4byte	0xd93
 8072 0f38 40       		.byte	0x40
 8073 0f39 00       		.byte	0
 8074 0f3a 10       		.uleb128 0x10
 8075 0f3b 81000000 		.4byte	0x81
 8076 0f3f 4A0F0000 		.4byte	0xf4a
 8077 0f43 11       		.uleb128 0x11
 8078 0f44 F4000000 		.4byte	0xf4
 8079 0f48 05       		.byte	0x5
 8080 0f49 00       		.byte	0
 8081 0f4a 03       		.uleb128 0x3
 8082 0f4b 231F0000 		.4byte	.LASF337
 8083 0f4f 0B       		.byte	0xb
 8084 0f50 DF       		.byte	0xdf
 8085 0f51 7D0E0000 		.4byte	0xe7d
 8086 0f55 03       		.uleb128 0x3
 8087 0f56 870F0000 		.4byte	.LASF338
 8088 0f5a 0B       		.byte	0xb
 8089 0f5b DF       		.byte	0xdf
 8090 0f5c 600F0000 		.4byte	0xf60
 8091 0f60 07       		.uleb128 0x7
 8092 0f61 04       		.byte	0x4
 8093 0f62 7D0E0000 		.4byte	0xe7d
 8094 0f66 1E       		.uleb128 0x1e
 8095 0f67 16       		.byte	0x16
 8096 0f68 0B       		.byte	0xb
 8097 0f69 E3       		.byte	0xe3
 8098 0f6a 9F0F0000 		.4byte	0xf9f
 8099 0f6e 1A       		.uleb128 0x1a
 8100 0f6f B81A0000 		.4byte	.LASF339
 8101 0f73 0B       		.byte	0xb
 8102 0f74 E5       		.byte	0xe5
 8103 0f75 8D000000 		.4byte	0x8d
 8104 0f79 00       		.byte	0
 8105 0f7a 1A       		.uleb128 0x1a
 8106 0f7b 74090000 		.4byte	.LASF340
 8107 0f7f 0B       		.byte	0xb
 8108 0f80 E6       		.byte	0xe6
 8109 0f81 8D000000 		.4byte	0x8d
 8110 0f85 02       		.byte	0x2
 8111 0f86 1A       		.uleb128 0x1a
 8112 0f87 CA010000 		.4byte	.LASF341
 8113 0f8b 0B       		.byte	0xb
 8114 0f8c E7       		.byte	0xe7
 8115 0f8d 81000000 		.4byte	0x81


 8116 0f91 04       		.byte	0x4
 8117 0f92 1A       		.uleb128 0x1a
 8118 0f93 61050000 		.4byte	.LASF35
 8119 0f97 0B       		.byte	0xb
 8120 0f98 E8       		.byte	0xe8
 8121 0f99 9F0F0000 		.4byte	0xf9f
 8122 0f9d 05       		.byte	0x5
 8123 0f9e 00       		.byte	0
 8124 0f9f 10       		.uleb128 0x10
 8125 0fa0 CB000000 		.4byte	0xcb
 8126 0fa4 AF0F0000 		.4byte	0xfaf
 8127 0fa8 11       		.uleb128 0x11
 8128 0fa9 F4000000 		.4byte	0xf4
 8129 0fad 0F       		.byte	0xf
 8130 0fae 00       		.byte	0
 8131 0faf 03       		.uleb128 0x3
 8132 0fb0 9A140000 		.4byte	.LASF342
 8133 0fb4 0B       		.byte	0xb
 8134 0fb5 EA       		.byte	0xea
 8135 0fb6 660F0000 		.4byte	0xf66
 8136 0fba 1E       		.uleb128 0x1e
 8137 0fbb 3C       		.byte	0x3c
 8138 0fbc 0B       		.byte	0xb
 8139 0fbd EC       		.byte	0xec
 8140 0fbe 9E100000 		.4byte	0x109e
 8141 0fc2 1A       		.uleb128 0x1a
 8142 0fc3 00000000 		.4byte	.LASF343
 8143 0fc7 0B       		.byte	0xb
 8144 0fc8 EE       		.byte	0xee
 8145 0fc9 81000000 		.4byte	0x81
 8146 0fcd 00       		.byte	0
 8147 0fce 1A       		.uleb128 0x1a
 8148 0fcf C7120000 		.4byte	.LASF344
 8149 0fd3 0B       		.byte	0xb
 8150 0fd4 EF       		.byte	0xef
 8151 0fd5 81000000 		.4byte	0x81
 8152 0fd9 01       		.byte	0x1
 8153 0fda 1A       		.uleb128 0x1a
 8154 0fdb C7000000 		.4byte	.LASF345
 8155 0fdf 0B       		.byte	0xb
 8156 0fe0 F0       		.byte	0xf0
 8157 0fe1 81000000 		.4byte	0x81
 8158 0fe5 02       		.byte	0x2
 8159 0fe6 1A       		.uleb128 0x1a
 8160 0fe7 DD0D0000 		.4byte	.LASF346
 8161 0feb 0B       		.byte	0xb
 8162 0fec F1       		.byte	0xf1
 8163 0fed 81000000 		.4byte	0x81
 8164 0ff1 03       		.byte	0x3
 8165 0ff2 1A       		.uleb128 0x1a
 8166 0ff3 6A0E0000 		.4byte	.LASF347
 8167 0ff7 0B       		.byte	0xb
 8168 0ff8 F2       		.byte	0xf2
 8169 0ff9 81000000 		.4byte	0x81
 8170 0ffd 04       		.byte	0x4
 8171 0ffe 1A       		.uleb128 0x1a
 8172 0fff BD0F0000 		.4byte	.LASF348


 8173 1003 0B       		.byte	0xb
 8174 1004 F3       		.byte	0xf3
 8175 1005 81000000 		.4byte	0x81
 8176 1009 05       		.byte	0x5
 8177 100a 1A       		.uleb128 0x1a
 8178 100b 48140000 		.4byte	.LASF349
 8179 100f 0B       		.byte	0xb
 8180 1010 F4       		.byte	0xf4
 8181 1011 8D000000 		.4byte	0x8d
 8182 1015 06       		.byte	0x6
 8183 1016 1A       		.uleb128 0x1a
 8184 1017 A5050000 		.4byte	.LASF350
 8185 101b 0B       		.byte	0xb
 8186 101c F5       		.byte	0xf5
 8187 101d 8D000000 		.4byte	0x8d
 8188 1021 08       		.byte	0x8
 8189 1022 1A       		.uleb128 0x1a
 8190 1023 F00F0000 		.4byte	.LASF326
 8191 1027 0B       		.byte	0xb
 8192 1028 F6       		.byte	0xf6
 8193 1029 81000000 		.4byte	0x81
 8194 102d 0A       		.byte	0xa
 8195 102e 1A       		.uleb128 0x1a
 8196 102f 6A0C0000 		.4byte	.LASF351
 8197 1033 0B       		.byte	0xb
 8198 1034 F8       		.byte	0xf8
 8199 1035 81000000 		.4byte	0x81
 8200 1039 0B       		.byte	0xb
 8201 103a 1A       		.uleb128 0x1a
 8202 103b 66150000 		.4byte	.LASF352
 8203 103f 0B       		.byte	0xb
 8204 1040 F9       		.byte	0xf9
 8205 1041 81000000 		.4byte	0x81
 8206 1045 0C       		.byte	0xc
 8207 1046 1A       		.uleb128 0x1a
 8208 1047 82160000 		.4byte	.LASF353
 8209 104b 0B       		.byte	0xb
 8210 104c FB       		.byte	0xfb
 8211 104d 0A030000 		.4byte	0x30a
 8212 1051 0D       		.byte	0xd
 8213 1052 1A       		.uleb128 0x1a
 8214 1053 ED050000 		.4byte	.LASF354
 8215 1057 0B       		.byte	0xb
 8216 1058 FD       		.byte	0xfd
 8217 1059 9E100000 		.4byte	0x109e
 8218 105d 10       		.byte	0x10
 8219 105e 1A       		.uleb128 0x1a
 8220 105f 1F0B0000 		.4byte	.LASF355
 8221 1063 0B       		.byte	0xb
 8222 1064 FE       		.byte	0xfe
 8223 1065 9E100000 		.4byte	0x109e
 8224 1069 14       		.byte	0x14
 8225 106a 1A       		.uleb128 0x1a
 8226 106b 9B0B0000 		.4byte	.LASF356
 8227 106f 0B       		.byte	0xb
 8228 1070 FF       		.byte	0xff
 8229 1071 AF0F0000 		.4byte	0xfaf


 8230 1075 18       		.byte	0x18
 8231 1076 0E       		.uleb128 0xe
 8232 1077 36210000 		.4byte	.LASF357
 8233 107b 0B       		.byte	0xb
 8234 107c 0101     		.2byte	0x101
 8235 107e FB000000 		.4byte	0xfb
 8236 1082 30       		.byte	0x30
 8237 1083 0E       		.uleb128 0xe
 8238 1084 5B100000 		.4byte	.LASF175
 8239 1088 0B       		.byte	0xb
 8240 1089 0201     		.2byte	0x102
 8241 108b FB000000 		.4byte	0xfb
 8242 108f 34       		.byte	0x34
 8243 1090 0E       		.uleb128 0xe
 8244 1091 1B120000 		.4byte	.LASF358
 8245 1095 0B       		.byte	0xb
 8246 1096 0401     		.2byte	0x104
 8247 1098 98050000 		.4byte	0x598
 8248 109c 38       		.byte	0x38
 8249 109d 00       		.byte	0
 8250 109e 07       		.uleb128 0x7
 8251 109f 04       		.byte	0x4
 8252 10a0 4A0F0000 		.4byte	0xf4a
 8253 10a4 05       		.uleb128 0x5
 8254 10a5 341A0000 		.4byte	.LASF359
 8255 10a9 0B       		.byte	0xb
 8256 10aa 0601     		.2byte	0x106
 8257 10ac BA0F0000 		.4byte	0xfba
 8258 10b0 05       		.uleb128 0x5
 8259 10b1 32070000 		.4byte	.LASF360
 8260 10b5 0B       		.byte	0xb
 8261 10b6 0601     		.2byte	0x106
 8262 10b8 BC100000 		.4byte	0x10bc
 8263 10bc 07       		.uleb128 0x7
 8264 10bd 04       		.byte	0x4
 8265 10be BA0F0000 		.4byte	0xfba
 8266 10c2 10       		.uleb128 0x10
 8267 10c3 CB000000 		.4byte	0xcb
 8268 10c7 D2100000 		.4byte	0x10d2
 8269 10cb 11       		.uleb128 0x11
 8270 10cc F4000000 		.4byte	0xf4
 8271 10d0 03       		.byte	0x3
 8272 10d1 00       		.byte	0
 8273 10d2 0B       		.uleb128 0xb
 8274 10d3 B8050000 		.4byte	.LASF361
 8275 10d7 02       		.byte	0x2
 8276 10d8 0C       		.byte	0xc
 8277 10d9 2A       		.byte	0x2a
 8278 10da F6110000 		.4byte	0x11f6
 8279 10de 0C       		.uleb128 0xc
 8280 10df 08010000 		.4byte	.LASF362
 8281 10e3 00       		.sleb128 0
 8282 10e4 0C       		.uleb128 0xc
 8283 10e5 04030000 		.4byte	.LASF363
 8284 10e9 C000     		.sleb128 64
 8285 10eb 0C       		.uleb128 0xc
 8286 10ec 33010000 		.4byte	.LASF364


 8287 10f0 8001     		.sleb128 128
 8288 10f2 0C       		.uleb128 0xc
 8289 10f3 4E010000 		.4byte	.LASF365
 8290 10f7 C001     		.sleb128 192
 8291 10f9 0C       		.uleb128 0xc
 8292 10fa 69010000 		.4byte	.LASF366
 8293 10fe 8002     		.sleb128 256
 8294 1100 0C       		.uleb128 0xc
 8295 1101 D1140000 		.4byte	.LASF367
 8296 1105 C002     		.sleb128 320
 8297 1107 0C       		.uleb128 0xc
 8298 1108 94010000 		.4byte	.LASF368
 8299 110c 8003     		.sleb128 384
 8300 110e 0C       		.uleb128 0xc
 8301 110f AF010000 		.4byte	.LASF369
 8302 1113 C003     		.sleb128 448
 8303 1115 0C       		.uleb128 0xc
 8304 1116 76040000 		.4byte	.LASF370
 8305 111a 8004     		.sleb128 512
 8306 111c 0C       		.uleb128 0xc
 8307 111d 70060000 		.4byte	.LASF371
 8308 1121 C004     		.sleb128 576
 8309 1123 0C       		.uleb128 0xc
 8310 1124 C01F0000 		.4byte	.LASF372
 8311 1128 8005     		.sleb128 640
 8312 112a 0C       		.uleb128 0xc
 8313 112b 7E0C0000 		.4byte	.LASF373
 8314 112f C005     		.sleb128 704
 8315 1131 0C       		.uleb128 0xc
 8316 1132 BC030000 		.4byte	.LASF374
 8317 1136 8006     		.sleb128 768
 8318 1138 0C       		.uleb128 0xc
 8319 1139 3C0B0000 		.4byte	.LASF375
 8320 113d C006     		.sleb128 832
 8321 113f 0C       		.uleb128 0xc
 8322 1140 F5200000 		.4byte	.LASF376
 8323 1144 8007     		.sleb128 896
 8324 1146 0C       		.uleb128 0xc
 8325 1147 5D0F0000 		.4byte	.LASF377
 8326 114b C007     		.sleb128 960
 8327 114d 0C       		.uleb128 0xc
 8328 114e 93060000 		.4byte	.LASF378
 8329 1152 8008     		.sleb128 1024
 8330 1154 0C       		.uleb128 0xc
 8331 1155 13190000 		.4byte	.LASF379
 8332 1159 C008     		.sleb128 1088
 8333 115b 0C       		.uleb128 0xc
 8334 115c FE1E0000 		.4byte	.LASF380
 8335 1160 8009     		.sleb128 1152
 8336 1162 0C       		.uleb128 0xc
 8337 1163 220E0000 		.4byte	.LASF381
 8338 1167 C009     		.sleb128 1216
 8339 1169 0C       		.uleb128 0xc
 8340 116a D50E0000 		.4byte	.LASF382
 8341 116e 800A     		.sleb128 1280
 8342 1170 0C       		.uleb128 0xc
 8343 1171 F30E0000 		.4byte	.LASF383


 8344 1175 C00A     		.sleb128 1344
 8345 1177 0C       		.uleb128 0xc
 8346 1178 110F0000 		.4byte	.LASF384
 8347 117c 800B     		.sleb128 1408
 8348 117e 0C       		.uleb128 0xc
 8349 117f 2F0F0000 		.4byte	.LASF385
 8350 1183 C00B     		.sleb128 1472
 8351 1185 0C       		.uleb128 0xc
 8352 1186 D5180000 		.4byte	.LASF386
 8353 118a 800C     		.sleb128 1536
 8354 118c 0C       		.uleb128 0xc
 8355 118d 2E040000 		.4byte	.LASF387
 8356 1191 C00C     		.sleb128 1600
 8357 1193 0C       		.uleb128 0xc
 8358 1194 09080000 		.4byte	.LASF388
 8359 1198 800D     		.sleb128 1664
 8360 119a 0C       		.uleb128 0xc
 8361 119b 69050000 		.4byte	.LASF389
 8362 119f C00D     		.sleb128 1728
 8363 11a1 0C       		.uleb128 0xc
 8364 11a2 0F170000 		.4byte	.LASF390
 8365 11a6 800E     		.sleb128 1792
 8366 11a8 0C       		.uleb128 0xc
 8367 11a9 31220000 		.4byte	.LASF391
 8368 11ad C00E     		.sleb128 1856
 8369 11af 0C       		.uleb128 0xc
 8370 11b0 B70B0000 		.4byte	.LASF392
 8371 11b4 800F     		.sleb128 1920
 8372 11b6 0C       		.uleb128 0xc
 8373 11b7 F7030000 		.4byte	.LASF393
 8374 11bb C00F     		.sleb128 1984
 8375 11bd 0C       		.uleb128 0xc
 8376 11be B1150000 		.4byte	.LASF394
 8377 11c2 8010     		.sleb128 2048
 8378 11c4 0C       		.uleb128 0xc
 8379 11c5 0C130000 		.4byte	.LASF395
 8380 11c9 C010     		.sleb128 2112
 8381 11cb 0C       		.uleb128 0xc
 8382 11cc E9040000 		.4byte	.LASF396
 8383 11d0 8011     		.sleb128 2176
 8384 11d2 0C       		.uleb128 0xc
 8385 11d3 69020000 		.4byte	.LASF397
 8386 11d7 C011     		.sleb128 2240
 8387 11d9 0C       		.uleb128 0xc
 8388 11da 6B140000 		.4byte	.LASF398
 8389 11de 8012     		.sleb128 2304
 8390 11e0 0C       		.uleb128 0xc
 8391 11e1 2A110000 		.4byte	.LASF399
 8392 11e5 C012     		.sleb128 2368
 8393 11e7 0C       		.uleb128 0xc
 8394 11e8 37030000 		.4byte	.LASF400
 8395 11ec 8013     		.sleb128 2432
 8396 11ee 0C       		.uleb128 0xc
 8397 11ef 69000000 		.4byte	.LASF401
 8398 11f3 C013     		.sleb128 2496
 8399 11f5 00       		.byte	0
 8400 11f6 20       		.uleb128 0x20


 8401 11f7 F7170000 		.4byte	.LASF415
 8402 11fb 01       		.byte	0x1
 8403 11fc 26       		.byte	0x26
 8404 11fd 8D000000 		.4byte	0x8d
 8405 1201 00000000 		.4byte	.LFB63
 8406 1205 38010000 		.4byte	.LFE63-.LFB63
 8407 1209 01       		.uleb128 0x1
 8408 120a 9C       		.byte	0x9c
 8409 120b 98120000 		.4byte	0x1298
 8410 120f 21       		.uleb128 0x21
 8411 1210 7B0A0000 		.4byte	.LASF402
 8412 1214 01       		.byte	0x1
 8413 1215 26       		.byte	0x26
 8414 1216 8D000000 		.4byte	0x8d
 8415 121a 02       		.uleb128 0x2
 8416 121b 91       		.byte	0x91
 8417 121c 66       		.sleb128 -26
 8418 121d 21       		.uleb128 0x21
 8419 121e 821B0000 		.4byte	.LASF403
 8420 1222 01       		.byte	0x1
 8421 1223 26       		.byte	0x26
 8422 1224 8D000000 		.4byte	0x8d
 8423 1228 02       		.uleb128 0x2
 8424 1229 91       		.byte	0x91
 8425 122a 64       		.sleb128 -28
 8426 122b 21       		.uleb128 0x21
 8427 122c 080C0000 		.4byte	.LASF404
 8428 1230 01       		.byte	0x1
 8429 1231 26       		.byte	0x26
 8430 1232 FD000000 		.4byte	0xfd
 8431 1236 02       		.uleb128 0x2
 8432 1237 91       		.byte	0x91
 8433 1238 60       		.sleb128 -32
 8434 1239 21       		.uleb128 0x21
 8435 123a 93120000 		.4byte	.LASF405
 8436 123e 01       		.byte	0x1
 8437 123f 26       		.byte	0x26
 8438 1240 15010000 		.4byte	0x115
 8439 1244 02       		.uleb128 0x2
 8440 1245 91       		.byte	0x91
 8441 1246 5C       		.sleb128 -36
 8442 1247 21       		.uleb128 0x21
 8443 1248 38150000 		.4byte	.LASF406
 8444 124c 01       		.byte	0x1
 8445 124d 26       		.byte	0x26
 8446 124e 8D000000 		.4byte	0x8d
 8447 1252 02       		.uleb128 0x2
 8448 1253 91       		.byte	0x91
 8449 1254 00       		.sleb128 0
 8450 1255 21       		.uleb128 0x21
 8451 1256 29200000 		.4byte	.LASF407
 8452 125a 01       		.byte	0x1
 8453 125b 26       		.byte	0x26
 8454 125c 5C0D0000 		.4byte	0xd5c
 8455 1260 02       		.uleb128 0x2
 8456 1261 91       		.byte	0x91
 8457 1262 04       		.sleb128 4


 8458 1263 22       		.uleb128 0x22
 8459 1264 23110000 		.4byte	.LASF408
 8460 1268 01       		.byte	0x1
 8461 1269 28       		.byte	0x28
 8462 126a 8D000000 		.4byte	0x8d
 8463 126e 02       		.uleb128 0x2
 8464 126f 91       		.byte	0x91
 8465 1270 76       		.sleb128 -10
 8466 1271 23       		.uleb128 0x23
 8467 1272 1E000000 		.4byte	.LBB2
 8468 1276 0C010000 		.4byte	.LBE2-.LBB2
 8469 127a 22       		.uleb128 0x22
 8470 127b 7C200000 		.4byte	.LASF409
 8471 127f 01       		.byte	0x1
 8472 1280 2B       		.byte	0x2b
 8473 1281 98120000 		.4byte	0x1298
 8474 1285 02       		.uleb128 0x2
 8475 1286 91       		.byte	0x91
 8476 1287 70       		.sleb128 -16
 8477 1288 22       		.uleb128 0x22
 8478 1289 F91E0000 		.4byte	.LASF410
 8479 128d 01       		.byte	0x1
 8480 128e 3B       		.byte	0x3b
 8481 128f A8120000 		.4byte	0x12a8
 8482 1293 02       		.uleb128 0x2
 8483 1294 91       		.byte	0x91
 8484 1295 68       		.sleb128 -24
 8485 1296 00       		.byte	0
 8486 1297 00       		.byte	0
 8487 1298 10       		.uleb128 0x10
 8488 1299 CB000000 		.4byte	0xcb
 8489 129d A8120000 		.4byte	0x12a8
 8490 12a1 11       		.uleb128 0x11
 8491 12a2 F4000000 		.4byte	0xf4
 8492 12a6 05       		.byte	0x5
 8493 12a7 00       		.byte	0
 8494 12a8 10       		.uleb128 0x10
 8495 12a9 CB000000 		.4byte	0xcb
 8496 12ad B8120000 		.4byte	0x12b8
 8497 12b1 11       		.uleb128 0x11
 8498 12b2 F4000000 		.4byte	0xf4
 8499 12b6 06       		.byte	0x6
 8500 12b7 00       		.byte	0
 8501 12b8 24       		.uleb128 0x24
 8502 12b9 32080000 		.4byte	.LASF429
 8503 12bd 01       		.byte	0x1
 8504 12be 50       		.byte	0x50
 8505 12bf 00000000 		.4byte	.LFB64
 8506 12c3 A6000000 		.4byte	.LFE64-.LFB64
 8507 12c7 01       		.uleb128 0x1
 8508 12c8 9C       		.byte	0x9c
 8509 12c9 10130000 		.4byte	0x1310
 8510 12cd 21       		.uleb128 0x21
 8511 12ce C3160000 		.4byte	.LASF411
 8512 12d2 01       		.byte	0x1
 8513 12d3 50       		.byte	0x50
 8514 12d4 FB000000 		.4byte	0xfb


 8515 12d8 02       		.uleb128 0x2
 8516 12d9 91       		.byte	0x91
 8517 12da 64       		.sleb128 -28
 8518 12db 22       		.uleb128 0x22
 8519 12dc 87080000 		.4byte	.LASF412
 8520 12e0 01       		.byte	0x1
 8521 12e1 52       		.byte	0x52
 8522 12e2 B0100000 		.4byte	0x10b0
 8523 12e6 02       		.uleb128 0x2
 8524 12e7 91       		.byte	0x91
 8525 12e8 6C       		.sleb128 -20
 8526 12e9 22       		.uleb128 0x22
 8527 12ea B2080000 		.4byte	.LASF413
 8528 12ee 01       		.byte	0x1
 8529 12ef 53       		.byte	0x53
 8530 12f0 550F0000 		.4byte	0xf55
 8531 12f4 02       		.uleb128 0x2
 8532 12f5 91       		.byte	0x91
 8533 12f6 74       		.sleb128 -12
 8534 12f7 23       		.uleb128 0x23
 8535 12f8 3E000000 		.4byte	.LBB3
 8536 12fc 50000000 		.4byte	.LBE3-.LBB3
 8537 1300 22       		.uleb128 0x22
 8538 1301 810E0000 		.4byte	.LASF414
 8539 1305 01       		.byte	0x1
 8540 1306 5A       		.byte	0x5a
 8541 1307 81000000 		.4byte	0x81
 8542 130b 02       		.uleb128 0x2
 8543 130c 91       		.byte	0x91
 8544 130d 73       		.sleb128 -13
 8545 130e 00       		.byte	0
 8546 130f 00       		.byte	0
 8547 1310 25       		.uleb128 0x25
 8548 1311 F8130000 		.4byte	.LASF416
 8549 1315 01       		.byte	0x1
 8550 1316 70       		.byte	0x70
 8551 1317 98050000 		.4byte	0x598
 8552 131b 00000000 		.4byte	.LFB65
 8553 131f 66000000 		.4byte	.LFE65-.LFB65
 8554 1323 01       		.uleb128 0x1
 8555 1324 9C       		.byte	0x9c
 8556 1325 62130000 		.4byte	0x1362
 8557 1329 21       		.uleb128 0x21
 8558 132a C3160000 		.4byte	.LASF411
 8559 132e 01       		.byte	0x1
 8560 132f 70       		.byte	0x70
 8561 1330 FB000000 		.4byte	0xfb
 8562 1334 02       		.uleb128 0x2
 8563 1335 91       		.byte	0x91
 8564 1336 64       		.sleb128 -28
 8565 1337 22       		.uleb128 0x22
 8566 1338 45100000 		.4byte	.LASF417
 8567 133c 01       		.byte	0x1
 8568 133d 72       		.byte	0x72
 8569 133e A90D0000 		.4byte	0xda9
 8570 1342 02       		.uleb128 0x2
 8571 1343 91       		.byte	0x91


 8572 1344 74       		.sleb128 -12
 8573 1345 22       		.uleb128 0x22
 8574 1346 87080000 		.4byte	.LASF412
 8575 134a 01       		.byte	0x1
 8576 134b 73       		.byte	0x73
 8577 134c B0100000 		.4byte	0x10b0
 8578 1350 02       		.uleb128 0x2
 8579 1351 91       		.byte	0x91
 8580 1352 6C       		.sleb128 -20
 8581 1353 22       		.uleb128 0x22
 8582 1354 B2080000 		.4byte	.LASF413
 8583 1358 01       		.byte	0x1
 8584 1359 74       		.byte	0x74
 8585 135a 550F0000 		.4byte	0xf55
 8586 135e 02       		.uleb128 0x2
 8587 135f 91       		.byte	0x91
 8588 1360 70       		.sleb128 -16
 8589 1361 00       		.byte	0
 8590 1362 25       		.uleb128 0x25
 8591 1363 E3160000 		.4byte	.LASF418
 8592 1367 01       		.byte	0x1
 8593 1368 87       		.byte	0x87
 8594 1369 3E050000 		.4byte	0x53e
 8595 136d 00000000 		.4byte	.LFB66
 8596 1371 66000000 		.4byte	.LFE66-.LFB66
 8597 1375 01       		.uleb128 0x1
 8598 1376 9C       		.byte	0x9c
 8599 1377 B4130000 		.4byte	0x13b4
 8600 137b 21       		.uleb128 0x21
 8601 137c C3160000 		.4byte	.LASF411
 8602 1380 01       		.byte	0x1
 8603 1381 87       		.byte	0x87
 8604 1382 FB000000 		.4byte	0xfb
 8605 1386 02       		.uleb128 0x2
 8606 1387 91       		.byte	0x91
 8607 1388 64       		.sleb128 -28
 8608 1389 22       		.uleb128 0x22
 8609 138a 45100000 		.4byte	.LASF417
 8610 138e 01       		.byte	0x1
 8611 138f 89       		.byte	0x89
 8612 1390 B40D0000 		.4byte	0xdb4
 8613 1394 02       		.uleb128 0x2
 8614 1395 91       		.byte	0x91
 8615 1396 74       		.sleb128 -12
 8616 1397 22       		.uleb128 0x22
 8617 1398 87080000 		.4byte	.LASF412
 8618 139c 01       		.byte	0x1
 8619 139d 8A       		.byte	0x8a
 8620 139e B0100000 		.4byte	0x10b0
 8621 13a2 02       		.uleb128 0x2
 8622 13a3 91       		.byte	0x91
 8623 13a4 6C       		.sleb128 -20
 8624 13a5 22       		.uleb128 0x22
 8625 13a6 B2080000 		.4byte	.LASF413
 8626 13aa 01       		.byte	0x1
 8627 13ab 8B       		.byte	0x8b
 8628 13ac 550F0000 		.4byte	0xf55


 8629 13b0 02       		.uleb128 0x2
 8630 13b1 91       		.byte	0x91
 8631 13b2 70       		.sleb128 -16
 8632 13b3 00       		.byte	0
 8633 13b4 25       		.uleb128 0x25
 8634 13b5 7C1F0000 		.4byte	.LASF419
 8635 13b9 01       		.byte	0x1
 8636 13ba 9D       		.byte	0x9d
 8637 13bb 3E050000 		.4byte	0x53e
 8638 13bf 00000000 		.4byte	.LFB67
 8639 13c3 66000000 		.4byte	.LFE67-.LFB67
 8640 13c7 01       		.uleb128 0x1
 8641 13c8 9C       		.byte	0x9c
 8642 13c9 06140000 		.4byte	0x1406
 8643 13cd 21       		.uleb128 0x21
 8644 13ce C3160000 		.4byte	.LASF411
 8645 13d2 01       		.byte	0x1
 8646 13d3 9D       		.byte	0x9d
 8647 13d4 FB000000 		.4byte	0xfb
 8648 13d8 02       		.uleb128 0x2
 8649 13d9 91       		.byte	0x91
 8650 13da 64       		.sleb128 -28
 8651 13db 22       		.uleb128 0x22
 8652 13dc 45100000 		.4byte	.LASF417
 8653 13e0 01       		.byte	0x1
 8654 13e1 9F       		.byte	0x9f
 8655 13e2 9E0D0000 		.4byte	0xd9e
 8656 13e6 02       		.uleb128 0x2
 8657 13e7 91       		.byte	0x91
 8658 13e8 74       		.sleb128 -12
 8659 13e9 22       		.uleb128 0x22
 8660 13ea 87080000 		.4byte	.LASF412
 8661 13ee 01       		.byte	0x1
 8662 13ef A0       		.byte	0xa0
 8663 13f0 B0100000 		.4byte	0x10b0
 8664 13f4 02       		.uleb128 0x2
 8665 13f5 91       		.byte	0x91
 8666 13f6 6C       		.sleb128 -20
 8667 13f7 22       		.uleb128 0x22
 8668 13f8 B2080000 		.4byte	.LASF413
 8669 13fc 01       		.byte	0x1
 8670 13fd A1       		.byte	0xa1
 8671 13fe 550F0000 		.4byte	0xf55
 8672 1402 02       		.uleb128 0x2
 8673 1403 91       		.byte	0x91
 8674 1404 70       		.sleb128 -16
 8675 1405 00       		.byte	0
 8676 1406 25       		.uleb128 0x25
 8677 1407 52060000 		.4byte	.LASF420
 8678 140b 01       		.byte	0x1
 8679 140c B3       		.byte	0xb3
 8680 140d 3E050000 		.4byte	0x53e
 8681 1411 00000000 		.4byte	.LFB68
 8682 1415 66000000 		.4byte	.LFE68-.LFB68
 8683 1419 01       		.uleb128 0x1
 8684 141a 9C       		.byte	0x9c
 8685 141b 58140000 		.4byte	0x1458


 8686 141f 21       		.uleb128 0x21
 8687 1420 C3160000 		.4byte	.LASF411
 8688 1424 01       		.byte	0x1
 8689 1425 B3       		.byte	0xb3
 8690 1426 FB000000 		.4byte	0xfb
 8691 142a 02       		.uleb128 0x2
 8692 142b 91       		.byte	0x91
 8693 142c 64       		.sleb128 -28
 8694 142d 22       		.uleb128 0x22
 8695 142e 45100000 		.4byte	.LASF417
 8696 1432 01       		.byte	0x1
 8697 1433 B5       		.byte	0xb5
 8698 1434 BF0D0000 		.4byte	0xdbf
 8699 1438 02       		.uleb128 0x2
 8700 1439 91       		.byte	0x91
 8701 143a 74       		.sleb128 -12
 8702 143b 22       		.uleb128 0x22
 8703 143c 87080000 		.4byte	.LASF412
 8704 1440 01       		.byte	0x1
 8705 1441 B6       		.byte	0xb6
 8706 1442 B0100000 		.4byte	0x10b0
 8707 1446 02       		.uleb128 0x2
 8708 1447 91       		.byte	0x91
 8709 1448 6C       		.sleb128 -20
 8710 1449 22       		.uleb128 0x22
 8711 144a B2080000 		.4byte	.LASF413
 8712 144e 01       		.byte	0x1
 8713 144f B7       		.byte	0xb7
 8714 1450 550F0000 		.4byte	0xf55
 8715 1454 02       		.uleb128 0x2
 8716 1455 91       		.byte	0x91
 8717 1456 70       		.sleb128 -16
 8718 1457 00       		.byte	0
 8719 1458 25       		.uleb128 0x25
 8720 1459 2C0A0000 		.4byte	.LASF421
 8721 145d 01       		.byte	0x1
 8722 145e C9       		.byte	0xc9
 8723 145f 3E050000 		.4byte	0x53e
 8724 1463 00000000 		.4byte	.LFB69
 8725 1467 66000000 		.4byte	.LFE69-.LFB69
 8726 146b 01       		.uleb128 0x1
 8727 146c 9C       		.byte	0x9c
 8728 146d AA140000 		.4byte	0x14aa
 8729 1471 21       		.uleb128 0x21
 8730 1472 C3160000 		.4byte	.LASF411
 8731 1476 01       		.byte	0x1
 8732 1477 C9       		.byte	0xc9
 8733 1478 FB000000 		.4byte	0xfb
 8734 147c 02       		.uleb128 0x2
 8735 147d 91       		.byte	0x91
 8736 147e 64       		.sleb128 -28
 8737 147f 22       		.uleb128 0x22
 8738 1480 45100000 		.4byte	.LASF417
 8739 1484 01       		.byte	0x1
 8740 1485 CB       		.byte	0xcb
 8741 1486 CA0D0000 		.4byte	0xdca
 8742 148a 02       		.uleb128 0x2


 8743 148b 91       		.byte	0x91
 8744 148c 74       		.sleb128 -12
 8745 148d 22       		.uleb128 0x22
 8746 148e 87080000 		.4byte	.LASF412
 8747 1492 01       		.byte	0x1
 8748 1493 CC       		.byte	0xcc
 8749 1494 B0100000 		.4byte	0x10b0
 8750 1498 02       		.uleb128 0x2
 8751 1499 91       		.byte	0x91
 8752 149a 6C       		.sleb128 -20
 8753 149b 22       		.uleb128 0x22
 8754 149c B2080000 		.4byte	.LASF413
 8755 14a0 01       		.byte	0x1
 8756 14a1 CD       		.byte	0xcd
 8757 14a2 550F0000 		.4byte	0xf55
 8758 14a6 02       		.uleb128 0x2
 8759 14a7 91       		.byte	0x91
 8760 14a8 70       		.sleb128 -16
 8761 14a9 00       		.byte	0
 8762 14aa 25       		.uleb128 0x25
 8763 14ab A6120000 		.4byte	.LASF422
 8764 14af 01       		.byte	0x1
 8765 14b0 DC       		.byte	0xdc
 8766 14b1 CB000000 		.4byte	0xcb
 8767 14b5 00000000 		.4byte	.LFB70
 8768 14b9 AC000000 		.4byte	.LFE70-.LFB70
 8769 14bd 01       		.uleb128 0x1
 8770 14be 9C       		.byte	0x9c
 8771 14bf 0A150000 		.4byte	0x150a
 8772 14c3 21       		.uleb128 0x21
 8773 14c4 080C0000 		.4byte	.LASF404
 8774 14c8 01       		.byte	0x1
 8775 14c9 DC       		.byte	0xdc
 8776 14ca FD000000 		.4byte	0xfd
 8777 14ce 02       		.uleb128 0x2
 8778 14cf 91       		.byte	0x91
 8779 14d0 6C       		.sleb128 -20
 8780 14d1 21       		.uleb128 0x21
 8781 14d2 38150000 		.4byte	.LASF406
 8782 14d6 01       		.byte	0x1
 8783 14d7 DC       		.byte	0xdc
 8784 14d8 81000000 		.4byte	0x81
 8785 14dc 02       		.uleb128 0x2
 8786 14dd 91       		.byte	0x91
 8787 14de 6B       		.sleb128 -21
 8788 14df 22       		.uleb128 0x22
 8789 14e0 23110000 		.4byte	.LASF408
 8790 14e4 01       		.byte	0x1
 8791 14e5 DE       		.byte	0xde
 8792 14e6 CB000000 		.4byte	0xcb
 8793 14ea 02       		.uleb128 0x2
 8794 14eb 91       		.byte	0x91
 8795 14ec 77       		.sleb128 -9
 8796 14ed 22       		.uleb128 0x22
 8797 14ee 55180000 		.4byte	.LASF423
 8798 14f2 01       		.byte	0x1
 8799 14f3 DF       		.byte	0xdf


 8800 14f4 C2100000 		.4byte	0x10c2
 8801 14f8 02       		.uleb128 0x2
 8802 14f9 91       		.byte	0x91
 8803 14fa 70       		.sleb128 -16
 8804 14fb 22       		.uleb128 0x22
 8805 14fc E9170000 		.4byte	.LASF424
 8806 1500 01       		.byte	0x1
 8807 1501 E0       		.byte	0xe0
 8808 1502 8D000000 		.4byte	0x8d
 8809 1506 02       		.uleb128 0x2
 8810 1507 91       		.byte	0x91
 8811 1508 74       		.sleb128 -12
 8812 1509 00       		.byte	0
 8813 150a 25       		.uleb128 0x25
 8814 150b AE200000 		.4byte	.LASF425
 8815 150f 01       		.byte	0x1
 8816 1510 EE       		.byte	0xee
 8817 1511 9E100000 		.4byte	0x109e
 8818 1515 00000000 		.4byte	.LFB71
 8819 1519 A0000000 		.4byte	.LFE71-.LFB71
 8820 151d 01       		.uleb128 0x1
 8821 151e 9C       		.byte	0x9c
 8822 151f 86150000 		.4byte	0x1586
 8823 1523 21       		.uleb128 0x21
 8824 1524 C3160000 		.4byte	.LASF411
 8825 1528 01       		.byte	0x1
 8826 1529 EE       		.byte	0xee
 8827 152a FB000000 		.4byte	0xfb
 8828 152e 02       		.uleb128 0x2
 8829 152f 91       		.byte	0x91
 8830 1530 64       		.sleb128 -28
 8831 1531 22       		.uleb128 0x22
 8832 1532 23110000 		.4byte	.LASF408
 8833 1536 01       		.byte	0x1
 8834 1537 F0       		.byte	0xf0
 8835 1538 550F0000 		.4byte	0xf55
 8836 153c 02       		.uleb128 0x2
 8837 153d 91       		.byte	0x91
 8838 153e 74       		.sleb128 -12
 8839 153f 22       		.uleb128 0x22
 8840 1540 87080000 		.4byte	.LASF412
 8841 1544 01       		.byte	0x1
 8842 1545 F1       		.byte	0xf1
 8843 1546 B0100000 		.4byte	0x10b0
 8844 154a 02       		.uleb128 0x2
 8845 154b 91       		.byte	0x91
 8846 154c 6C       		.sleb128 -20
 8847 154d 22       		.uleb128 0x22
 8848 154e B2080000 		.4byte	.LASF413
 8849 1552 01       		.byte	0x1
 8850 1553 F2       		.byte	0xf2
 8851 1554 550F0000 		.4byte	0xf55
 8852 1558 02       		.uleb128 0x2
 8853 1559 91       		.byte	0x91
 8854 155a 70       		.sleb128 -16
 8855 155b 22       		.uleb128 0x22
 8856 155c 94140000 		.4byte	.LASF426


 8857 1560 01       		.byte	0x1
 8858 1561 F4       		.byte	0xf4
 8859 1562 81000000 		.4byte	0x81
 8860 1566 02       		.uleb128 0x2
 8861 1567 91       		.byte	0x91
 8862 1568 6B       		.sleb128 -21
 8863 1569 22       		.uleb128 0x22
 8864 156a E6030000 		.4byte	.LASF427
 8865 156e 01       		.byte	0x1
 8866 156f F5       		.byte	0xf5
 8867 1570 81000000 		.4byte	0x81
 8868 1574 02       		.uleb128 0x2
 8869 1575 91       		.byte	0x91
 8870 1576 6A       		.sleb128 -22
 8871 1577 22       		.uleb128 0x22
 8872 1578 CF0F0000 		.4byte	.LASF428
 8873 157c 01       		.byte	0x1
 8874 157d F6       		.byte	0xf6
 8875 157e 81000000 		.4byte	0x81
 8876 1582 02       		.uleb128 0x2
 8877 1583 91       		.byte	0x91
 8878 1584 69       		.sleb128 -23
 8879 1585 00       		.byte	0
 8880 1586 26       		.uleb128 0x26
 8881 1587 7F1C0000 		.4byte	.LASF430
 8882 158b 01       		.byte	0x1
 8883 158c 0B01     		.2byte	0x10b
 8884 158e 00000000 		.4byte	.LFB72
 8885 1592 70000000 		.4byte	.LFE72-.LFB72
 8886 1596 01       		.uleb128 0x1
 8887 1597 9C       		.byte	0x9c
 8888 1598 BB150000 		.4byte	0x15bb
 8889 159c 27       		.uleb128 0x27
 8890 159d C3160000 		.4byte	.LASF411
 8891 15a1 01       		.byte	0x1
 8892 15a2 0B01     		.2byte	0x10b
 8893 15a4 FB000000 		.4byte	0xfb
 8894 15a8 02       		.uleb128 0x2
 8895 15a9 91       		.byte	0x91
 8896 15aa 6C       		.sleb128 -20
 8897 15ab 28       		.uleb128 0x28
 8898 15ac 87080000 		.4byte	.LASF412
 8899 15b0 01       		.byte	0x1
 8900 15b1 0D01     		.2byte	0x10d
 8901 15b3 B0100000 		.4byte	0x10b0
 8902 15b7 02       		.uleb128 0x2
 8903 15b8 91       		.byte	0x91
 8904 15b9 74       		.sleb128 -12
 8905 15ba 00       		.byte	0
 8906 15bb 29       		.uleb128 0x29
 8907 15bc DE000000 		.4byte	.LASF431
 8908 15c0 01       		.byte	0x1
 8909 15c1 2201     		.2byte	0x122
 8910 15c3 0A030000 		.4byte	0x30a
 8911 15c7 00000000 		.4byte	.LFB73
 8912 15cb 2A000000 		.4byte	.LFE73-.LFB73
 8913 15cf 01       		.uleb128 0x1


 8914 15d0 9C       		.byte	0x9c
 8915 15d1 03160000 		.4byte	0x1603
 8916 15d5 27       		.uleb128 0x27
 8917 15d6 C3160000 		.4byte	.LASF411
 8918 15da 01       		.byte	0x1
 8919 15db 2201     		.2byte	0x122
 8920 15dd FB000000 		.4byte	0xfb
 8921 15e1 02       		.uleb128 0x2
 8922 15e2 91       		.byte	0x91
 8923 15e3 6C       		.sleb128 -20
 8924 15e4 28       		.uleb128 0x28
 8925 15e5 23110000 		.4byte	.LASF408
 8926 15e9 01       		.byte	0x1
 8927 15ea 2401     		.2byte	0x124
 8928 15ec 0A030000 		.4byte	0x30a
 8929 15f0 02       		.uleb128 0x2
 8930 15f1 91       		.byte	0x91
 8931 15f2 77       		.sleb128 -9
 8932 15f3 28       		.uleb128 0x28
 8933 15f4 87080000 		.4byte	.LASF412
 8934 15f8 01       		.byte	0x1
 8935 15f9 2501     		.2byte	0x125
 8936 15fb 03160000 		.4byte	0x1603
 8937 15ff 02       		.uleb128 0x2
 8938 1600 91       		.byte	0x91
 8939 1601 70       		.sleb128 -16
 8940 1602 00       		.byte	0
 8941 1603 07       		.uleb128 0x7
 8942 1604 04       		.byte	0x4
 8943 1605 A4100000 		.4byte	0x10a4
 8944 1609 2A       		.uleb128 0x2a
 8945 160a A00D0000 		.4byte	.LASF432
 8946 160e 01       		.byte	0x1
 8947 160f 3001     		.2byte	0x130
 8948 1611 0A030000 		.4byte	0x30a
 8949 1615 00000000 		.4byte	.LFB74
 8950 1619 74000000 		.4byte	.LFE74-.LFB74
 8951 161d 01       		.uleb128 0x1
 8952 161e 9C       		.byte	0x9c
 8953 161f 6A160000 		.4byte	0x166a
 8954 1623 27       		.uleb128 0x27
 8955 1624 C3160000 		.4byte	.LASF411
 8956 1628 01       		.byte	0x1
 8957 1629 3001     		.2byte	0x130
 8958 162b FB000000 		.4byte	0xfb
 8959 162f 02       		.uleb128 0x2
 8960 1630 91       		.byte	0x91
 8961 1631 64       		.sleb128 -28
 8962 1632 28       		.uleb128 0x28
 8963 1633 23110000 		.4byte	.LASF408
 8964 1637 01       		.byte	0x1
 8965 1638 3201     		.2byte	0x132
 8966 163a 0A030000 		.4byte	0x30a
 8967 163e 02       		.uleb128 0x2
 8968 163f 91       		.byte	0x91
 8969 1640 77       		.sleb128 -9
 8970 1641 28       		.uleb128 0x28


 8971 1642 87080000 		.4byte	.LASF412
 8972 1646 01       		.byte	0x1
 8973 1647 3301     		.2byte	0x133
 8974 1649 03160000 		.4byte	0x1603
 8975 164d 02       		.uleb128 0x2
 8976 164e 91       		.byte	0x91
 8977 164f 70       		.sleb128 -16
 8978 1650 23       		.uleb128 0x23
 8979 1651 18000000 		.4byte	.LBB4
 8980 1655 4C000000 		.4byte	.LBE4-.LBB4
 8981 1659 28       		.uleb128 0x28
 8982 165a 9B120000 		.4byte	.LASF433
 8983 165e 01       		.byte	0x1
 8984 165f 3701     		.2byte	0x137
 8985 1661 03010000 		.4byte	0x103
 8986 1665 02       		.uleb128 0x2
 8987 1666 91       		.byte	0x91
 8988 1667 6C       		.sleb128 -20
 8989 1668 00       		.byte	0
 8990 1669 00       		.byte	0
 8991 166a 26       		.uleb128 0x26
 8992 166b D2190000 		.4byte	.LASF434
 8993 166f 01       		.byte	0x1
 8994 1670 4F01     		.2byte	0x14f
 8995 1672 00000000 		.4byte	.LFB75
 8996 1676 46000000 		.4byte	.LFE75-.LFB75
 8997 167a 01       		.uleb128 0x1
 8998 167b 9C       		.byte	0x9c
 8999 167c 9F160000 		.4byte	0x169f
 9000 1680 27       		.uleb128 0x27
 9001 1681 C3160000 		.4byte	.LASF411
 9002 1685 01       		.byte	0x1
 9003 1686 4F01     		.2byte	0x14f
 9004 1688 FB000000 		.4byte	0xfb
 9005 168c 02       		.uleb128 0x2
 9006 168d 91       		.byte	0x91
 9007 168e 6C       		.sleb128 -20
 9008 168f 28       		.uleb128 0x28
 9009 1690 87080000 		.4byte	.LASF412
 9010 1694 01       		.byte	0x1
 9011 1695 5101     		.2byte	0x151
 9012 1697 03160000 		.4byte	0x1603
 9013 169b 02       		.uleb128 0x2
 9014 169c 91       		.byte	0x91
 9015 169d 74       		.sleb128 -12
 9016 169e 00       		.byte	0
 9017 169f 2A       		.uleb128 0x2a
 9018 16a0 3D160000 		.4byte	.LASF435
 9019 16a4 01       		.byte	0x1
 9020 16a5 5F01     		.2byte	0x15f
 9021 16a7 0A030000 		.4byte	0x30a
 9022 16ab 00000000 		.4byte	.LFB76
 9023 16af 42010000 		.4byte	.LFE76-.LFB76
 9024 16b3 01       		.uleb128 0x1
 9025 16b4 9C       		.byte	0x9c
 9026 16b5 3C170000 		.4byte	0x173c
 9027 16b9 27       		.uleb128 0x27


 9028 16ba C3160000 		.4byte	.LASF411
 9029 16be 01       		.byte	0x1
 9030 16bf 5F01     		.2byte	0x15f
 9031 16c1 FB000000 		.4byte	0xfb
 9032 16c5 02       		.uleb128 0x2
 9033 16c6 91       		.byte	0x91
 9034 16c7 44       		.sleb128 -60
 9035 16c8 28       		.uleb128 0x28
 9036 16c9 23110000 		.4byte	.LASF408
 9037 16cd 01       		.byte	0x1
 9038 16ce 6101     		.2byte	0x161
 9039 16d0 0A030000 		.4byte	0x30a
 9040 16d4 02       		.uleb128 0x2
 9041 16d5 91       		.byte	0x91
 9042 16d6 6F       		.sleb128 -17
 9043 16d7 28       		.uleb128 0x28
 9044 16d8 ED130000 		.4byte	.LASF436
 9045 16dc 01       		.byte	0x1
 9046 16dd 6201     		.2byte	0x162
 9047 16df 9F0F0000 		.4byte	0xf9f
 9048 16e3 02       		.uleb128 0x2
 9049 16e4 91       		.byte	0x91
 9050 16e5 4C       		.sleb128 -52
 9051 16e6 28       		.uleb128 0x28
 9052 16e7 87080000 		.4byte	.LASF412
 9053 16eb 01       		.byte	0x1
 9054 16ec 6301     		.2byte	0x163
 9055 16ee 03160000 		.4byte	0x1603
 9056 16f2 02       		.uleb128 0x2
 9057 16f3 91       		.byte	0x91
 9058 16f4 68       		.sleb128 -24
 9059 16f5 23       		.uleb128 0x23
 9060 16f6 32000000 		.4byte	.LBB5
 9061 16fa 04010000 		.4byte	.LBE5-.LBB5
 9062 16fe 28       		.uleb128 0x28
 9063 16ff EC0A0000 		.4byte	.LASF437
 9064 1703 01       		.byte	0x1
 9065 1704 6C01     		.2byte	0x16c
 9066 1706 81000000 		.4byte	0x81
 9067 170a 02       		.uleb128 0x2
 9068 170b 91       		.byte	0x91
 9069 170c 67       		.sleb128 -25
 9070 170d 28       		.uleb128 0x28
 9071 170e 810E0000 		.4byte	.LASF414
 9072 1712 01       		.byte	0x1
 9073 1713 6E01     		.2byte	0x16e
 9074 1715 A5000000 		.4byte	0xa5
 9075 1719 02       		.uleb128 0x2
 9076 171a 91       		.byte	0x91
 9077 171b 6E       		.sleb128 -18
 9078 171c 28       		.uleb128 0x28
 9079 171d 180E0000 		.4byte	.LASF438
 9080 1721 01       		.byte	0x1
 9081 1722 7801     		.2byte	0x178
 9082 1724 99000000 		.4byte	0x99
 9083 1728 02       		.uleb128 0x2
 9084 1729 91       		.byte	0x91


 9085 172a 60       		.sleb128 -32
 9086 172b 28       		.uleb128 0x28
 9087 172c B71F0000 		.4byte	.LASF439
 9088 1730 01       		.byte	0x1
 9089 1731 7D01     		.2byte	0x17d
 9090 1733 99000000 		.4byte	0x99
 9091 1737 02       		.uleb128 0x2
 9092 1738 91       		.byte	0x91
 9093 1739 5C       		.sleb128 -36
 9094 173a 00       		.byte	0
 9095 173b 00       		.byte	0
 9096 173c 2A       		.uleb128 0x2a
 9097 173d CD100000 		.4byte	.LASF440
 9098 1741 01       		.byte	0x1
 9099 1742 8B01     		.2byte	0x18b
 9100 1744 0A030000 		.4byte	0x30a
 9101 1748 00000000 		.4byte	.LFB77
 9102 174c 40010000 		.4byte	.LFE77-.LFB77
 9103 1750 01       		.uleb128 0x1
 9104 1751 9C       		.byte	0x9c
 9105 1752 D9170000 		.4byte	0x17d9
 9106 1756 27       		.uleb128 0x27
 9107 1757 C3160000 		.4byte	.LASF411
 9108 175b 01       		.byte	0x1
 9109 175c 8B01     		.2byte	0x18b
 9110 175e FB000000 		.4byte	0xfb
 9111 1762 02       		.uleb128 0x2
 9112 1763 91       		.byte	0x91
 9113 1764 44       		.sleb128 -60
 9114 1765 28       		.uleb128 0x28
 9115 1766 23110000 		.4byte	.LASF408
 9116 176a 01       		.byte	0x1
 9117 176b 8D01     		.2byte	0x18d
 9118 176d 0A030000 		.4byte	0x30a
 9119 1771 02       		.uleb128 0x2
 9120 1772 91       		.byte	0x91
 9121 1773 6F       		.sleb128 -17
 9122 1774 28       		.uleb128 0x28
 9123 1775 ED130000 		.4byte	.LASF436
 9124 1779 01       		.byte	0x1
 9125 177a 8E01     		.2byte	0x18e
 9126 177c 9F0F0000 		.4byte	0xf9f
 9127 1780 02       		.uleb128 0x2
 9128 1781 91       		.byte	0x91
 9129 1782 4C       		.sleb128 -52
 9130 1783 28       		.uleb128 0x28
 9131 1784 87080000 		.4byte	.LASF412
 9132 1788 01       		.byte	0x1
 9133 1789 8F01     		.2byte	0x18f
 9134 178b 03160000 		.4byte	0x1603
 9135 178f 02       		.uleb128 0x2
 9136 1790 91       		.byte	0x91
 9137 1791 68       		.sleb128 -24
 9138 1792 23       		.uleb128 0x23
 9139 1793 32000000 		.4byte	.LBB6
 9140 1797 02010000 		.4byte	.LBE6-.LBB6
 9141 179b 28       		.uleb128 0x28


 9142 179c EC0A0000 		.4byte	.LASF437
 9143 17a0 01       		.byte	0x1
 9144 17a1 9801     		.2byte	0x198
 9145 17a3 81000000 		.4byte	0x81
 9146 17a7 02       		.uleb128 0x2
 9147 17a8 91       		.byte	0x91
 9148 17a9 67       		.sleb128 -25
 9149 17aa 28       		.uleb128 0x28
 9150 17ab 810E0000 		.4byte	.LASF414
 9151 17af 01       		.byte	0x1
 9152 17b0 9A01     		.2byte	0x19a
 9153 17b2 A5000000 		.4byte	0xa5
 9154 17b6 02       		.uleb128 0x2
 9155 17b7 91       		.byte	0x91
 9156 17b8 6E       		.sleb128 -18
 9157 17b9 28       		.uleb128 0x28
 9158 17ba 180E0000 		.4byte	.LASF438
 9159 17be 01       		.byte	0x1
 9160 17bf A401     		.2byte	0x1a4
 9161 17c1 99000000 		.4byte	0x99
 9162 17c5 02       		.uleb128 0x2
 9163 17c6 91       		.byte	0x91
 9164 17c7 60       		.sleb128 -32
 9165 17c8 28       		.uleb128 0x28
 9166 17c9 B71F0000 		.4byte	.LASF439
 9167 17cd 01       		.byte	0x1
 9168 17ce A901     		.2byte	0x1a9
 9169 17d0 99000000 		.4byte	0x99
 9170 17d4 02       		.uleb128 0x2
 9171 17d5 91       		.byte	0x91
 9172 17d6 5C       		.sleb128 -36
 9173 17d7 00       		.byte	0
 9174 17d8 00       		.byte	0
 9175 17d9 2A       		.uleb128 0x2a
 9176 17da 93110000 		.4byte	.LASF441
 9177 17de 01       		.byte	0x1
 9178 17df B701     		.2byte	0x1b7
 9179 17e1 0A030000 		.4byte	0x30a
 9180 17e5 00000000 		.4byte	.LFB78
 9181 17e9 1C010000 		.4byte	.LFE78-.LFB78
 9182 17ed 01       		.uleb128 0x1
 9183 17ee 9C       		.byte	0x9c
 9184 17ef 67180000 		.4byte	0x1867
 9185 17f3 27       		.uleb128 0x27
 9186 17f4 C3160000 		.4byte	.LASF411
 9187 17f8 01       		.byte	0x1
 9188 17f9 B701     		.2byte	0x1b7
 9189 17fb FB000000 		.4byte	0xfb
 9190 17ff 02       		.uleb128 0x2
 9191 1800 91       		.byte	0x91
 9192 1801 4C       		.sleb128 -52
 9193 1802 28       		.uleb128 0x28
 9194 1803 23110000 		.4byte	.LASF408
 9195 1807 01       		.byte	0x1
 9196 1808 B901     		.2byte	0x1b9
 9197 180a 0A030000 		.4byte	0x30a
 9198 180e 02       		.uleb128 0x2


 9199 180f 91       		.byte	0x91
 9200 1810 6F       		.sleb128 -17
 9201 1811 28       		.uleb128 0x28
 9202 1812 ED130000 		.4byte	.LASF436
 9203 1816 01       		.byte	0x1
 9204 1817 BA01     		.2byte	0x1ba
 9205 1819 9F0F0000 		.4byte	0xf9f
 9206 181d 02       		.uleb128 0x2
 9207 181e 91       		.byte	0x91
 9208 181f 50       		.sleb128 -48
 9209 1820 28       		.uleb128 0x28
 9210 1821 87080000 		.4byte	.LASF412
 9211 1825 01       		.byte	0x1
 9212 1826 BB01     		.2byte	0x1bb
 9213 1828 03160000 		.4byte	0x1603
 9214 182c 02       		.uleb128 0x2
 9215 182d 91       		.byte	0x91
 9216 182e 68       		.sleb128 -24
 9217 182f 23       		.uleb128 0x23
 9218 1830 30000000 		.4byte	.LBB7
 9219 1834 DC000000 		.4byte	.LBE7-.LBB7
 9220 1838 28       		.uleb128 0x28
 9221 1839 EC0A0000 		.4byte	.LASF437
 9222 183d 01       		.byte	0x1
 9223 183e C401     		.2byte	0x1c4
 9224 1840 81000000 		.4byte	0x81
 9225 1844 02       		.uleb128 0x2
 9226 1845 91       		.byte	0x91
 9227 1846 67       		.sleb128 -25
 9228 1847 28       		.uleb128 0x28
 9229 1848 810E0000 		.4byte	.LASF414
 9230 184c 01       		.byte	0x1
 9231 184d C601     		.2byte	0x1c6
 9232 184f A5000000 		.4byte	0xa5
 9233 1853 02       		.uleb128 0x2
 9234 1854 91       		.byte	0x91
 9235 1855 6E       		.sleb128 -18
 9236 1856 28       		.uleb128 0x28
 9237 1857 180E0000 		.4byte	.LASF438
 9238 185b 01       		.byte	0x1
 9239 185c CF01     		.2byte	0x1cf
 9240 185e 99000000 		.4byte	0x99
 9241 1862 02       		.uleb128 0x2
 9242 1863 91       		.byte	0x91
 9243 1864 60       		.sleb128 -32
 9244 1865 00       		.byte	0
 9245 1866 00       		.byte	0
 9246 1867 2A       		.uleb128 0x2a
 9247 1868 C90A0000 		.4byte	.LASF442
 9248 186c 01       		.byte	0x1
 9249 186d D801     		.2byte	0x1d8
 9250 186f 0A030000 		.4byte	0x30a
 9251 1873 00000000 		.4byte	.LFB79
 9252 1877 A4010000 		.4byte	.LFE79-.LFB79
 9253 187b 01       		.uleb128 0x1
 9254 187c 9C       		.byte	0x9c
 9255 187d AF180000 		.4byte	0x18af


 9256 1881 27       		.uleb128 0x27
 9257 1882 C3160000 		.4byte	.LASF411
 9258 1886 01       		.byte	0x1
 9259 1887 D801     		.2byte	0x1d8
 9260 1889 FB000000 		.4byte	0xfb
 9261 188d 02       		.uleb128 0x2
 9262 188e 91       		.byte	0x91
 9263 188f 6C       		.sleb128 -20
 9264 1890 28       		.uleb128 0x28
 9265 1891 23110000 		.4byte	.LASF408
 9266 1895 01       		.byte	0x1
 9267 1896 DA01     		.2byte	0x1da
 9268 1898 0A030000 		.4byte	0x30a
 9269 189c 02       		.uleb128 0x2
 9270 189d 91       		.byte	0x91
 9271 189e 77       		.sleb128 -9
 9272 189f 28       		.uleb128 0x28
 9273 18a0 87080000 		.4byte	.LASF412
 9274 18a4 01       		.byte	0x1
 9275 18a5 DB01     		.2byte	0x1db
 9276 18a7 03160000 		.4byte	0x1603
 9277 18ab 02       		.uleb128 0x2
 9278 18ac 91       		.byte	0x91
 9279 18ad 70       		.sleb128 -16
 9280 18ae 00       		.byte	0
 9281 18af 2A       		.uleb128 0x2a
 9282 18b0 01220000 		.4byte	.LASF443
 9283 18b4 01       		.byte	0x1
 9284 18b5 FF01     		.2byte	0x1ff
 9285 18b7 0A030000 		.4byte	0x30a
 9286 18bb 00000000 		.4byte	.LFB80
 9287 18bf 5C010000 		.4byte	.LFE80-.LFB80
 9288 18c3 01       		.uleb128 0x1
 9289 18c4 9C       		.byte	0x9c
 9290 18c5 F7180000 		.4byte	0x18f7
 9291 18c9 27       		.uleb128 0x27
 9292 18ca C3160000 		.4byte	.LASF411
 9293 18ce 01       		.byte	0x1
 9294 18cf FF01     		.2byte	0x1ff
 9295 18d1 FB000000 		.4byte	0xfb
 9296 18d5 02       		.uleb128 0x2
 9297 18d6 91       		.byte	0x91
 9298 18d7 6C       		.sleb128 -20
 9299 18d8 28       		.uleb128 0x28
 9300 18d9 23110000 		.4byte	.LASF408
 9301 18dd 01       		.byte	0x1
 9302 18de 0102     		.2byte	0x201
 9303 18e0 0A030000 		.4byte	0x30a
 9304 18e4 02       		.uleb128 0x2
 9305 18e5 91       		.byte	0x91
 9306 18e6 77       		.sleb128 -9
 9307 18e7 28       		.uleb128 0x28
 9308 18e8 87080000 		.4byte	.LASF412
 9309 18ec 01       		.byte	0x1
 9310 18ed 0202     		.2byte	0x202
 9311 18ef 03160000 		.4byte	0x1603
 9312 18f3 02       		.uleb128 0x2


 9313 18f4 91       		.byte	0x91
 9314 18f5 70       		.sleb128 -16
 9315 18f6 00       		.byte	0
 9316 18f7 2B       		.uleb128 0x2b
 9317 18f8 030E0000 		.4byte	.LASF444
 9318 18fc 01       		.byte	0x1
 9319 18fd 1C02     		.2byte	0x21c
 9320 18ff 00000000 		.4byte	.LFB81
 9321 1903 8C020000 		.4byte	.LFE81-.LFB81
 9322 1907 01       		.uleb128 0x1
 9323 1908 9C       		.byte	0x9c
 9324 1909 3B190000 		.4byte	0x193b
 9325 190d 27       		.uleb128 0x27
 9326 190e C3160000 		.4byte	.LASF411
 9327 1912 01       		.byte	0x1
 9328 1913 1C02     		.2byte	0x21c
 9329 1915 FB000000 		.4byte	0xfb
 9330 1919 02       		.uleb128 0x2
 9331 191a 91       		.byte	0x91
 9332 191b 6C       		.sleb128 -20
 9333 191c 27       		.uleb128 0x27
 9334 191d 931B0000 		.4byte	.LASF445
 9335 1921 01       		.byte	0x1
 9336 1922 1C02     		.2byte	0x21c
 9337 1924 26010000 		.4byte	0x126
 9338 1928 02       		.uleb128 0x2
 9339 1929 91       		.byte	0x91
 9340 192a 68       		.sleb128 -24
 9341 192b 28       		.uleb128 0x28
 9342 192c 87080000 		.4byte	.LASF412
 9343 1930 01       		.byte	0x1
 9344 1931 1E02     		.2byte	0x21e
 9345 1933 03160000 		.4byte	0x1603
 9346 1937 02       		.uleb128 0x2
 9347 1938 91       		.byte	0x91
 9348 1939 74       		.sleb128 -12
 9349 193a 00       		.byte	0
 9350 193b 2B       		.uleb128 0x2b
 9351 193c D3120000 		.4byte	.LASF446
 9352 1940 01       		.byte	0x1
 9353 1941 4802     		.2byte	0x248
 9354 1943 00000000 		.4byte	.LFB82
 9355 1947 E8000000 		.4byte	.LFE82-.LFB82
 9356 194b 01       		.uleb128 0x1
 9357 194c 9C       		.byte	0x9c
 9358 194d 7F190000 		.4byte	0x197f
 9359 1951 27       		.uleb128 0x27
 9360 1952 C3160000 		.4byte	.LASF411
 9361 1956 01       		.byte	0x1
 9362 1957 4802     		.2byte	0x248
 9363 1959 FB000000 		.4byte	0xfb
 9364 195d 02       		.uleb128 0x2
 9365 195e 91       		.byte	0x91
 9366 195f 6C       		.sleb128 -20
 9367 1960 27       		.uleb128 0x27
 9368 1961 931B0000 		.4byte	.LASF445
 9369 1965 01       		.byte	0x1


 9370 1966 4802     		.2byte	0x248
 9371 1968 7F190000 		.4byte	0x197f
 9372 196c 02       		.uleb128 0x2
 9373 196d 91       		.byte	0x91
 9374 196e 68       		.sleb128 -24
 9375 196f 28       		.uleb128 0x28
 9376 1970 87080000 		.4byte	.LASF412
 9377 1974 01       		.byte	0x1
 9378 1975 4A02     		.2byte	0x24a
 9379 1977 03160000 		.4byte	0x1603
 9380 197b 02       		.uleb128 0x2
 9381 197c 91       		.byte	0x91
 9382 197d 74       		.sleb128 -12
 9383 197e 00       		.byte	0
 9384 197f 07       		.uleb128 0x7
 9385 1980 04       		.byte	0x4
 9386 1981 0A030000 		.4byte	0x30a
 9387 1985 26       		.uleb128 0x26
 9388 1986 CE1A0000 		.4byte	.LASF447
 9389 198a 01       		.byte	0x1
 9390 198b 7702     		.2byte	0x277
 9391 198d 00000000 		.4byte	.LFB83
 9392 1991 B4000000 		.4byte	.LFE83-.LFB83
 9393 1995 01       		.uleb128 0x1
 9394 1996 9C       		.byte	0x9c
 9395 1997 F1190000 		.4byte	0x19f1
 9396 199b 27       		.uleb128 0x27
 9397 199c C3160000 		.4byte	.LASF411
 9398 19a0 01       		.byte	0x1
 9399 19a1 7702     		.2byte	0x277
 9400 19a3 FB000000 		.4byte	0xfb
 9401 19a7 02       		.uleb128 0x2
 9402 19a8 91       		.byte	0x91
 9403 19a9 5C       		.sleb128 -36
 9404 19aa 28       		.uleb128 0x28
 9405 19ab 87080000 		.4byte	.LASF412
 9406 19af 01       		.byte	0x1
 9407 19b0 7902     		.2byte	0x279
 9408 19b2 B0100000 		.4byte	0x10b0
 9409 19b6 02       		.uleb128 0x2
 9410 19b7 91       		.byte	0x91
 9411 19b8 64       		.sleb128 -28
 9412 19b9 23       		.uleb128 0x23
 9413 19ba 12000000 		.4byte	.LBB8
 9414 19be 94000000 		.4byte	.LBE8-.LBB8
 9415 19c2 28       		.uleb128 0x28
 9416 19c3 87150000 		.4byte	.LASF448
 9417 19c7 01       		.byte	0x1
 9418 19c8 7C02     		.2byte	0x27c
 9419 19ca 81000000 		.4byte	0x81
 9420 19ce 02       		.uleb128 0x2
 9421 19cf 91       		.byte	0x91
 9422 19d0 6F       		.sleb128 -17
 9423 19d1 28       		.uleb128 0x28
 9424 19d2 87080000 		.4byte	.LASF412
 9425 19d6 01       		.byte	0x1
 9426 19d7 7D02     		.2byte	0x27d


 9427 19d9 B0100000 		.4byte	0x10b0
 9428 19dd 02       		.uleb128 0x2
 9429 19de 91       		.byte	0x91
 9430 19df 60       		.sleb128 -32
 9431 19e0 28       		.uleb128 0x28
 9432 19e1 911F0000 		.4byte	.LASF449
 9433 19e5 01       		.byte	0x1
 9434 19e6 8D02     		.2byte	0x28d
 9435 19e8 F1190000 		.4byte	0x19f1
 9436 19ec 02       		.uleb128 0x2
 9437 19ed 91       		.byte	0x91
 9438 19ee 68       		.sleb128 -24
 9439 19ef 00       		.byte	0
 9440 19f0 00       		.byte	0
 9441 19f1 07       		.uleb128 0x7
 9442 19f2 04       		.byte	0x4
 9443 19f3 F60D0000 		.4byte	0xdf6
 9444 19f7 26       		.uleb128 0x26
 9445 19f8 420C0000 		.4byte	.LASF450
 9446 19fc 01       		.byte	0x1
 9447 19fd 9F02     		.2byte	0x29f
 9448 19ff 00000000 		.4byte	.LFB84
 9449 1a03 4C010000 		.4byte	.LFE84-.LFB84
 9450 1a07 01       		.uleb128 0x1
 9451 1a08 9C       		.byte	0x9c
 9452 1a09 7B1A0000 		.4byte	0x1a7b
 9453 1a0d 27       		.uleb128 0x27
 9454 1a0e C3160000 		.4byte	.LASF411
 9455 1a12 01       		.byte	0x1
 9456 1a13 9F02     		.2byte	0x29f
 9457 1a15 FB000000 		.4byte	0xfb
 9458 1a19 02       		.uleb128 0x2
 9459 1a1a 91       		.byte	0x91
 9460 1a1b 54       		.sleb128 -44
 9461 1a1c 28       		.uleb128 0x28
 9462 1a1d 87080000 		.4byte	.LASF412
 9463 1a21 01       		.byte	0x1
 9464 1a22 A102     		.2byte	0x2a1
 9465 1a24 03160000 		.4byte	0x1603
 9466 1a28 02       		.uleb128 0x2
 9467 1a29 91       		.byte	0x91
 9468 1a2a 60       		.sleb128 -32
 9469 1a2b 23       		.uleb128 0x23
 9470 1a2c 14000000 		.4byte	.LBB9
 9471 1a30 32010000 		.4byte	.LBE9-.LBB9
 9472 1a34 28       		.uleb128 0x28
 9473 1a35 FE0F0000 		.4byte	.LASF451
 9474 1a39 01       		.byte	0x1
 9475 1a3a A402     		.2byte	0x2a4
 9476 1a3c CB000000 		.4byte	0xcb
 9477 1a40 02       		.uleb128 0x2
 9478 1a41 91       		.byte	0x91
 9479 1a42 67       		.sleb128 -25
 9480 1a43 2C       		.uleb128 0x2c
 9481 1a44 96000000 		.4byte	.LBB10
 9482 1a48 56000000 		.4byte	.LBE10-.LBB10
 9483 1a4c 601A0000 		.4byte	0x1a60


 9484 1a50 28       		.uleb128 0x28
 9485 1a51 5C090000 		.4byte	.LASF452
 9486 1a55 01       		.byte	0x1
 9487 1a56 BB02     		.2byte	0x2bb
 9488 1a58 7B1A0000 		.4byte	0x1a7b
 9489 1a5c 02       		.uleb128 0x2
 9490 1a5d 91       		.byte	0x91
 9491 1a5e 5C       		.sleb128 -36
 9492 1a5f 00       		.byte	0
 9493 1a60 23       		.uleb128 0x23
 9494 1a61 F0000000 		.4byte	.LBB11
 9495 1a65 56000000 		.4byte	.LBE11-.LBB11
 9496 1a69 28       		.uleb128 0x28
 9497 1a6a 5C090000 		.4byte	.LASF452
 9498 1a6e 01       		.byte	0x1
 9499 1a6f C402     		.2byte	0x2c4
 9500 1a71 7B1A0000 		.4byte	0x1a7b
 9501 1a75 02       		.uleb128 0x2
 9502 1a76 91       		.byte	0x91
 9503 1a77 58       		.sleb128 -40
 9504 1a78 00       		.byte	0
 9505 1a79 00       		.byte	0
 9506 1a7a 00       		.byte	0
 9507 1a7b 07       		.uleb128 0x7
 9508 1a7c 04       		.byte	0x4
 9509 1a7d 9A080000 		.4byte	0x89a
 9510 1a81 26       		.uleb128 0x26
 9511 1a82 B2040000 		.4byte	.LASF453
 9512 1a86 01       		.byte	0x1
 9513 1a87 CF02     		.2byte	0x2cf
 9514 1a89 00000000 		.4byte	.LFB85
 9515 1a8d 62010000 		.4byte	.LFE85-.LFB85
 9516 1a91 01       		.uleb128 0x1
 9517 1a92 9C       		.byte	0x9c
 9518 1a93 051B0000 		.4byte	0x1b05
 9519 1a97 27       		.uleb128 0x27
 9520 1a98 C3160000 		.4byte	.LASF411
 9521 1a9c 01       		.byte	0x1
 9522 1a9d CF02     		.2byte	0x2cf
 9523 1a9f FB000000 		.4byte	0xfb
 9524 1aa3 02       		.uleb128 0x2
 9525 1aa4 91       		.byte	0x91
 9526 1aa5 54       		.sleb128 -44
 9527 1aa6 28       		.uleb128 0x28
 9528 1aa7 87080000 		.4byte	.LASF412
 9529 1aab 01       		.byte	0x1
 9530 1aac D102     		.2byte	0x2d1
 9531 1aae 03160000 		.4byte	0x1603
 9532 1ab2 02       		.uleb128 0x2
 9533 1ab3 91       		.byte	0x91
 9534 1ab4 60       		.sleb128 -32
 9535 1ab5 23       		.uleb128 0x23
 9536 1ab6 14000000 		.4byte	.LBB12
 9537 1aba 48010000 		.4byte	.LBE12-.LBB12
 9538 1abe 28       		.uleb128 0x28
 9539 1abf FE0F0000 		.4byte	.LASF451
 9540 1ac3 01       		.byte	0x1


 9541 1ac4 D402     		.2byte	0x2d4
 9542 1ac6 CB000000 		.4byte	0xcb
 9543 1aca 02       		.uleb128 0x2
 9544 1acb 91       		.byte	0x91
 9545 1acc 67       		.sleb128 -25
 9546 1acd 2C       		.uleb128 0x2c
 9547 1ace AC000000 		.4byte	.LBB13
 9548 1ad2 56000000 		.4byte	.LBE13-.LBB13
 9549 1ad6 EA1A0000 		.4byte	0x1aea
 9550 1ada 28       		.uleb128 0x28
 9551 1adb 5C090000 		.4byte	.LASF452
 9552 1adf 01       		.byte	0x1
 9553 1ae0 F102     		.2byte	0x2f1
 9554 1ae2 7B1A0000 		.4byte	0x1a7b
 9555 1ae6 02       		.uleb128 0x2
 9556 1ae7 91       		.byte	0x91
 9557 1ae8 5C       		.sleb128 -36
 9558 1ae9 00       		.byte	0
 9559 1aea 23       		.uleb128 0x23
 9560 1aeb 06010000 		.4byte	.LBB14
 9561 1aef 56000000 		.4byte	.LBE14-.LBB14
 9562 1af3 28       		.uleb128 0x28
 9563 1af4 5C090000 		.4byte	.LASF452
 9564 1af8 01       		.byte	0x1
 9565 1af9 FA02     		.2byte	0x2fa
 9566 1afb 7B1A0000 		.4byte	0x1a7b
 9567 1aff 02       		.uleb128 0x2
 9568 1b00 91       		.byte	0x91
 9569 1b01 58       		.sleb128 -40
 9570 1b02 00       		.byte	0
 9571 1b03 00       		.byte	0
 9572 1b04 00       		.byte	0
 9573 1b05 26       		.uleb128 0x26
 9574 1b06 531A0000 		.4byte	.LASF454
 9575 1b0a 01       		.byte	0x1
 9576 1b0b 0803     		.2byte	0x308
 9577 1b0d 00000000 		.4byte	.LFB86
 9578 1b11 E4010000 		.4byte	.LFE86-.LFB86
 9579 1b15 01       		.uleb128 0x1
 9580 1b16 9C       		.byte	0x9c
 9581 1b17 B61B0000 		.4byte	0x1bb6
 9582 1b1b 27       		.uleb128 0x27
 9583 1b1c C3160000 		.4byte	.LASF411
 9584 1b20 01       		.byte	0x1
 9585 1b21 0803     		.2byte	0x308
 9586 1b23 FB000000 		.4byte	0xfb
 9587 1b27 03       		.uleb128 0x3
 9588 1b28 91       		.byte	0x91
 9589 1b29 BC7F     		.sleb128 -68
 9590 1b2b 28       		.uleb128 0x28
 9591 1b2c 87080000 		.4byte	.LASF412
 9592 1b30 01       		.byte	0x1
 9593 1b31 0A03     		.2byte	0x30a
 9594 1b33 03160000 		.4byte	0x1603
 9595 1b37 02       		.uleb128 0x2
 9596 1b38 91       		.byte	0x91
 9597 1b39 60       		.sleb128 -32


 9598 1b3a 23       		.uleb128 0x23
 9599 1b3b 14000000 		.4byte	.LBB15
 9600 1b3f CA010000 		.4byte	.LBE15-.LBB15
 9601 1b43 28       		.uleb128 0x28
 9602 1b44 FE0F0000 		.4byte	.LASF451
 9603 1b48 01       		.byte	0x1
 9604 1b49 0D03     		.2byte	0x30d
 9605 1b4b CB000000 		.4byte	0xcb
 9606 1b4f 02       		.uleb128 0x2
 9607 1b50 91       		.byte	0x91
 9608 1b51 67       		.sleb128 -25
 9609 1b52 2C       		.uleb128 0x2c
 9610 1b53 38000000 		.4byte	.LBB16
 9611 1b57 92000000 		.4byte	.LBE16-.LBB16
 9612 1b5b 7E1B0000 		.4byte	0x1b7e
 9613 1b5f 28       		.uleb128 0x28
 9614 1b60 ED130000 		.4byte	.LASF436
 9615 1b64 01       		.byte	0x1
 9616 1b65 2103     		.2byte	0x321
 9617 1b67 B61B0000 		.4byte	0x1bb6
 9618 1b6b 02       		.uleb128 0x2
 9619 1b6c 91       		.byte	0x91
 9620 1b6d 44       		.sleb128 -60
 9621 1b6e 28       		.uleb128 0x28
 9622 1b6f 461E0000 		.4byte	.LASF455
 9623 1b73 01       		.byte	0x1
 9624 1b74 2403     		.2byte	0x324
 9625 1b76 FD000000 		.4byte	0xfd
 9626 1b7a 02       		.uleb128 0x2
 9627 1b7b 91       		.byte	0x91
 9628 1b7c 5C       		.sleb128 -36
 9629 1b7d 00       		.byte	0
 9630 1b7e 2C       		.uleb128 0x2c
 9631 1b7f 2E010000 		.4byte	.LBB17
 9632 1b83 56000000 		.4byte	.LBE17-.LBB17
 9633 1b87 9B1B0000 		.4byte	0x1b9b
 9634 1b8b 28       		.uleb128 0x28
 9635 1b8c 5C090000 		.4byte	.LASF452
 9636 1b90 01       		.byte	0x1
 9637 1b91 3A03     		.2byte	0x33a
 9638 1b93 7B1A0000 		.4byte	0x1a7b
 9639 1b97 02       		.uleb128 0x2
 9640 1b98 91       		.byte	0x91
 9641 1b99 58       		.sleb128 -40
 9642 1b9a 00       		.byte	0
 9643 1b9b 23       		.uleb128 0x23
 9644 1b9c 88010000 		.4byte	.LBB18
 9645 1ba0 56000000 		.4byte	.LBE18-.LBB18
 9646 1ba4 28       		.uleb128 0x28
 9647 1ba5 5C090000 		.4byte	.LASF452
 9648 1ba9 01       		.byte	0x1
 9649 1baa 4303     		.2byte	0x343
 9650 1bac 7B1A0000 		.4byte	0x1a7b
 9651 1bb0 02       		.uleb128 0x2
 9652 1bb1 91       		.byte	0x91
 9653 1bb2 54       		.sleb128 -44
 9654 1bb3 00       		.byte	0


 9655 1bb4 00       		.byte	0
 9656 1bb5 00       		.byte	0
 9657 1bb6 10       		.uleb128 0x10
 9658 1bb7 D7000000 		.4byte	0xd7
 9659 1bbb C61B0000 		.4byte	0x1bc6
 9660 1bbf 11       		.uleb128 0x11
 9661 1bc0 F4000000 		.4byte	0xf4
 9662 1bc4 0F       		.byte	0xf
 9663 1bc5 00       		.byte	0
 9664 1bc6 26       		.uleb128 0x26
 9665 1bc7 14160000 		.4byte	.LASF456
 9666 1bcb 01       		.byte	0x1
 9667 1bcc 5103     		.2byte	0x351
 9668 1bce 00000000 		.4byte	.LFB87
 9669 1bd2 6A010000 		.4byte	.LFE87-.LFB87
 9670 1bd6 01       		.uleb128 0x1
 9671 1bd7 9C       		.byte	0x9c
 9672 1bd8 4A1C0000 		.4byte	0x1c4a
 9673 1bdc 27       		.uleb128 0x27
 9674 1bdd C3160000 		.4byte	.LASF411
 9675 1be1 01       		.byte	0x1
 9676 1be2 5103     		.2byte	0x351
 9677 1be4 FB000000 		.4byte	0xfb
 9678 1be8 02       		.uleb128 0x2
 9679 1be9 91       		.byte	0x91
 9680 1bea 54       		.sleb128 -44
 9681 1beb 28       		.uleb128 0x28
 9682 1bec 87080000 		.4byte	.LASF412
 9683 1bf0 01       		.byte	0x1
 9684 1bf1 5303     		.2byte	0x353
 9685 1bf3 03160000 		.4byte	0x1603
 9686 1bf7 02       		.uleb128 0x2
 9687 1bf8 91       		.byte	0x91
 9688 1bf9 60       		.sleb128 -32
 9689 1bfa 23       		.uleb128 0x23
 9690 1bfb 14000000 		.4byte	.LBB19
 9691 1bff 50010000 		.4byte	.LBE19-.LBB19
 9692 1c03 28       		.uleb128 0x28
 9693 1c04 FE0F0000 		.4byte	.LASF451
 9694 1c08 01       		.byte	0x1
 9695 1c09 5603     		.2byte	0x356
 9696 1c0b CB000000 		.4byte	0xcb
 9697 1c0f 02       		.uleb128 0x2
 9698 1c10 91       		.byte	0x91
 9699 1c11 67       		.sleb128 -25
 9700 1c12 2C       		.uleb128 0x2c
 9701 1c13 B4000000 		.4byte	.LBB20
 9702 1c17 56000000 		.4byte	.LBE20-.LBB20
 9703 1c1b 2F1C0000 		.4byte	0x1c2f
 9704 1c1f 28       		.uleb128 0x28
 9705 1c20 5C090000 		.4byte	.LASF452
 9706 1c24 01       		.byte	0x1
 9707 1c25 7803     		.2byte	0x378
 9708 1c27 7B1A0000 		.4byte	0x1a7b
 9709 1c2b 02       		.uleb128 0x2
 9710 1c2c 91       		.byte	0x91
 9711 1c2d 5C       		.sleb128 -36


 9712 1c2e 00       		.byte	0
 9713 1c2f 23       		.uleb128 0x23
 9714 1c30 0E010000 		.4byte	.LBB21
 9715 1c34 56000000 		.4byte	.LBE21-.LBB21
 9716 1c38 28       		.uleb128 0x28
 9717 1c39 5C090000 		.4byte	.LASF452
 9718 1c3d 01       		.byte	0x1
 9719 1c3e 8103     		.2byte	0x381
 9720 1c40 7B1A0000 		.4byte	0x1a7b
 9721 1c44 02       		.uleb128 0x2
 9722 1c45 91       		.byte	0x91
 9723 1c46 58       		.sleb128 -40
 9724 1c47 00       		.byte	0
 9725 1c48 00       		.byte	0
 9726 1c49 00       		.byte	0
 9727 1c4a 26       		.uleb128 0x26
 9728 1c4b 02120000 		.4byte	.LASF457
 9729 1c4f 01       		.byte	0x1
 9730 1c50 8F03     		.2byte	0x38f
 9731 1c52 00000000 		.4byte	.LFB88
 9732 1c56 04020000 		.4byte	.LFE88-.LFB88
 9733 1c5a 01       		.uleb128 0x1
 9734 1c5b 9C       		.byte	0x9c
 9735 1c5c FB1C0000 		.4byte	0x1cfb
 9736 1c60 27       		.uleb128 0x27
 9737 1c61 C3160000 		.4byte	.LASF411
 9738 1c65 01       		.byte	0x1
 9739 1c66 8F03     		.2byte	0x38f
 9740 1c68 FB000000 		.4byte	0xfb
 9741 1c6c 03       		.uleb128 0x3
 9742 1c6d 91       		.byte	0x91
 9743 1c6e BC7F     		.sleb128 -68
 9744 1c70 28       		.uleb128 0x28
 9745 1c71 87080000 		.4byte	.LASF412
 9746 1c75 01       		.byte	0x1
 9747 1c76 9103     		.2byte	0x391
 9748 1c78 03160000 		.4byte	0x1603
 9749 1c7c 02       		.uleb128 0x2
 9750 1c7d 91       		.byte	0x91
 9751 1c7e 60       		.sleb128 -32
 9752 1c7f 23       		.uleb128 0x23
 9753 1c80 14000000 		.4byte	.LBB22
 9754 1c84 E4010000 		.4byte	.LBE22-.LBB22
 9755 1c88 28       		.uleb128 0x28
 9756 1c89 FE0F0000 		.4byte	.LASF451
 9757 1c8d 01       		.byte	0x1
 9758 1c8e 9403     		.2byte	0x394
 9759 1c90 CB000000 		.4byte	0xcb
 9760 1c94 02       		.uleb128 0x2
 9761 1c95 91       		.byte	0x91
 9762 1c96 67       		.sleb128 -25
 9763 1c97 2C       		.uleb128 0x2c
 9764 1c98 38000000 		.4byte	.LBB23
 9765 1c9c A0000000 		.4byte	.LBE23-.LBB23
 9766 1ca0 C31C0000 		.4byte	0x1cc3
 9767 1ca4 28       		.uleb128 0x28
 9768 1ca5 ED130000 		.4byte	.LASF436


 9769 1ca9 01       		.byte	0x1
 9770 1caa AB03     		.2byte	0x3ab
 9771 1cac B61B0000 		.4byte	0x1bb6
 9772 1cb0 02       		.uleb128 0x2
 9773 1cb1 91       		.byte	0x91
 9774 1cb2 44       		.sleb128 -60
 9775 1cb3 28       		.uleb128 0x28
 9776 1cb4 461E0000 		.4byte	.LASF455
 9777 1cb8 01       		.byte	0x1
 9778 1cb9 AE03     		.2byte	0x3ae
 9779 1cbb FD000000 		.4byte	0xfd
 9780 1cbf 02       		.uleb128 0x2
 9781 1cc0 91       		.byte	0x91
 9782 1cc1 5C       		.sleb128 -36
 9783 1cc2 00       		.byte	0
 9784 1cc3 2C       		.uleb128 0x2c
 9785 1cc4 48010000 		.4byte	.LBB24
 9786 1cc8 56000000 		.4byte	.LBE24-.LBB24
 9787 1ccc E01C0000 		.4byte	0x1ce0
 9788 1cd0 28       		.uleb128 0x28
 9789 1cd1 5C090000 		.4byte	.LASF452
 9790 1cd5 01       		.byte	0x1
 9791 1cd6 C403     		.2byte	0x3c4
 9792 1cd8 7B1A0000 		.4byte	0x1a7b
 9793 1cdc 02       		.uleb128 0x2
 9794 1cdd 91       		.byte	0x91
 9795 1cde 58       		.sleb128 -40
 9796 1cdf 00       		.byte	0
 9797 1ce0 23       		.uleb128 0x23
 9798 1ce1 A2010000 		.4byte	.LBB25
 9799 1ce5 56000000 		.4byte	.LBE25-.LBB25
 9800 1ce9 28       		.uleb128 0x28
 9801 1cea 5C090000 		.4byte	.LASF452
 9802 1cee 01       		.byte	0x1
 9803 1cef CD03     		.2byte	0x3cd
 9804 1cf1 7B1A0000 		.4byte	0x1a7b
 9805 1cf5 02       		.uleb128 0x2
 9806 1cf6 91       		.byte	0x91
 9807 1cf7 54       		.sleb128 -44
 9808 1cf8 00       		.byte	0
 9809 1cf9 00       		.byte	0
 9810 1cfa 00       		.byte	0
 9811 1cfb 26       		.uleb128 0x26
 9812 1cfc 9B170000 		.4byte	.LASF458
 9813 1d00 01       		.byte	0x1
 9814 1d01 DB03     		.2byte	0x3db
 9815 1d03 00000000 		.4byte	.LFB89
 9816 1d07 38020000 		.4byte	.LFE89-.LFB89
 9817 1d0b 01       		.uleb128 0x1
 9818 1d0c 9C       		.byte	0x9c
 9819 1d0d AC1D0000 		.4byte	0x1dac
 9820 1d11 27       		.uleb128 0x27
 9821 1d12 C3160000 		.4byte	.LASF411
 9822 1d16 01       		.byte	0x1
 9823 1d17 DB03     		.2byte	0x3db
 9824 1d19 FB000000 		.4byte	0xfb
 9825 1d1d 03       		.uleb128 0x3


 9826 1d1e 91       		.byte	0x91
 9827 1d1f BC7F     		.sleb128 -68
 9828 1d21 28       		.uleb128 0x28
 9829 1d22 87080000 		.4byte	.LASF412
 9830 1d26 01       		.byte	0x1
 9831 1d27 DD03     		.2byte	0x3dd
 9832 1d29 03160000 		.4byte	0x1603
 9833 1d2d 02       		.uleb128 0x2
 9834 1d2e 91       		.byte	0x91
 9835 1d2f 60       		.sleb128 -32
 9836 1d30 23       		.uleb128 0x23
 9837 1d31 14000000 		.4byte	.LBB26
 9838 1d35 1A020000 		.4byte	.LBE26-.LBB26
 9839 1d39 28       		.uleb128 0x28
 9840 1d3a FE0F0000 		.4byte	.LASF451
 9841 1d3e 01       		.byte	0x1
 9842 1d3f E003     		.2byte	0x3e0
 9843 1d41 CB000000 		.4byte	0xcb
 9844 1d45 02       		.uleb128 0x2
 9845 1d46 91       		.byte	0x91
 9846 1d47 67       		.sleb128 -25
 9847 1d48 2C       		.uleb128 0x2c
 9848 1d49 38000000 		.4byte	.LBB27
 9849 1d4d D2000000 		.4byte	.LBE27-.LBB27
 9850 1d51 741D0000 		.4byte	0x1d74
 9851 1d55 28       		.uleb128 0x28
 9852 1d56 ED130000 		.4byte	.LASF436
 9853 1d5a 01       		.byte	0x1
 9854 1d5b FB03     		.2byte	0x3fb
 9855 1d5d B61B0000 		.4byte	0x1bb6
 9856 1d61 02       		.uleb128 0x2
 9857 1d62 91       		.byte	0x91
 9858 1d63 44       		.sleb128 -60
 9859 1d64 28       		.uleb128 0x28
 9860 1d65 461E0000 		.4byte	.LASF455
 9861 1d69 01       		.byte	0x1
 9862 1d6a FE03     		.2byte	0x3fe
 9863 1d6c FD000000 		.4byte	0xfd
 9864 1d70 02       		.uleb128 0x2
 9865 1d71 91       		.byte	0x91
 9866 1d72 5C       		.sleb128 -36
 9867 1d73 00       		.byte	0
 9868 1d74 2C       		.uleb128 0x2c
 9869 1d75 7E010000 		.4byte	.LBB28
 9870 1d79 56000000 		.4byte	.LBE28-.LBB28
 9871 1d7d 911D0000 		.4byte	0x1d91
 9872 1d81 28       		.uleb128 0x28
 9873 1d82 5C090000 		.4byte	.LASF452
 9874 1d86 01       		.byte	0x1
 9875 1d87 1604     		.2byte	0x416
 9876 1d89 7B1A0000 		.4byte	0x1a7b
 9877 1d8d 02       		.uleb128 0x2
 9878 1d8e 91       		.byte	0x91
 9879 1d8f 58       		.sleb128 -40
 9880 1d90 00       		.byte	0
 9881 1d91 23       		.uleb128 0x23
 9882 1d92 D8010000 		.4byte	.LBB29


 9883 1d96 56000000 		.4byte	.LBE29-.LBB29
 9884 1d9a 28       		.uleb128 0x28
 9885 1d9b 5C090000 		.4byte	.LASF452
 9886 1d9f 01       		.byte	0x1
 9887 1da0 1F04     		.2byte	0x41f
 9888 1da2 7B1A0000 		.4byte	0x1a7b
 9889 1da6 02       		.uleb128 0x2
 9890 1da7 91       		.byte	0x91
 9891 1da8 54       		.sleb128 -44
 9892 1da9 00       		.byte	0
 9893 1daa 00       		.byte	0
 9894 1dab 00       		.byte	0
 9895 1dac 26       		.uleb128 0x26
 9896 1dad E5070000 		.4byte	.LASF459
 9897 1db1 01       		.byte	0x1
 9898 1db2 2E04     		.2byte	0x42e
 9899 1db4 00000000 		.4byte	.LFB90
 9900 1db8 90010000 		.4byte	.LFE90-.LFB90
 9901 1dbc 01       		.uleb128 0x1
 9902 1dbd 9C       		.byte	0x9c
 9903 1dbe 641E0000 		.4byte	0x1e64
 9904 1dc2 27       		.uleb128 0x27
 9905 1dc3 C3160000 		.4byte	.LASF411
 9906 1dc7 01       		.byte	0x1
 9907 1dc8 2E04     		.2byte	0x42e
 9908 1dca FB000000 		.4byte	0xfb
 9909 1dce 03       		.uleb128 0x3
 9910 1dcf 91       		.byte	0x91
 9911 1dd0 B47F     		.sleb128 -76
 9912 1dd2 28       		.uleb128 0x28
 9913 1dd3 87080000 		.4byte	.LASF412
 9914 1dd7 01       		.byte	0x1
 9915 1dd8 3004     		.2byte	0x430
 9916 1dda B0100000 		.4byte	0x10b0
 9917 1dde 02       		.uleb128 0x2
 9918 1ddf 91       		.byte	0x91
 9919 1de0 60       		.sleb128 -32
 9920 1de1 23       		.uleb128 0x23
 9921 1de2 14000000 		.4byte	.LBB30
 9922 1de6 76010000 		.4byte	.LBE30-.LBB30
 9923 1dea 28       		.uleb128 0x28
 9924 1deb FE0F0000 		.4byte	.LASF451
 9925 1def 01       		.byte	0x1
 9926 1df0 3304     		.2byte	0x433
 9927 1df2 CB000000 		.4byte	0xcb
 9928 1df6 02       		.uleb128 0x2
 9929 1df7 91       		.byte	0x91
 9930 1df8 67       		.sleb128 -25
 9931 1df9 2C       		.uleb128 0x2c
 9932 1dfa 9E000000 		.4byte	.LBB31
 9933 1dfe 74000000 		.4byte	.LBE31-.LBB31
 9934 1e02 2F1E0000 		.4byte	0x1e2f
 9935 1e06 28       		.uleb128 0x28
 9936 1e07 5C090000 		.4byte	.LASF452
 9937 1e0b 01       		.byte	0x1
 9938 1e0c 4A04     		.2byte	0x44a
 9939 1e0e A5080000 		.4byte	0x8a5


 9940 1e12 02       		.uleb128 0x2
 9941 1e13 91       		.byte	0x91
 9942 1e14 5C       		.sleb128 -36
 9943 1e15 23       		.uleb128 0x23
 9944 1e16 AC000000 		.4byte	.LBB32
 9945 1e1a 66000000 		.4byte	.LBE32-.LBB32
 9946 1e1e 28       		.uleb128 0x28
 9947 1e1f 9E190000 		.4byte	.LASF460
 9948 1e23 01       		.byte	0x1
 9949 1e24 4D04     		.2byte	0x44d
 9950 1e26 9F0F0000 		.4byte	0xf9f
 9951 1e2a 02       		.uleb128 0x2
 9952 1e2b 91       		.byte	0x91
 9953 1e2c 48       		.sleb128 -56
 9954 1e2d 00       		.byte	0
 9955 1e2e 00       		.byte	0
 9956 1e2f 23       		.uleb128 0x23
 9957 1e30 16010000 		.4byte	.LBB33
 9958 1e34 74000000 		.4byte	.LBE33-.LBB33
 9959 1e38 28       		.uleb128 0x28
 9960 1e39 5C090000 		.4byte	.LASF452
 9961 1e3d 01       		.byte	0x1
 9962 1e3e 5604     		.2byte	0x456
 9963 1e40 A5080000 		.4byte	0x8a5
 9964 1e44 02       		.uleb128 0x2
 9965 1e45 91       		.byte	0x91
 9966 1e46 58       		.sleb128 -40
 9967 1e47 23       		.uleb128 0x23
 9968 1e48 24010000 		.4byte	.LBB34
 9969 1e4c 66000000 		.4byte	.LBE34-.LBB34
 9970 1e50 28       		.uleb128 0x28
 9971 1e51 9E190000 		.4byte	.LASF460
 9972 1e55 01       		.byte	0x1
 9973 1e56 5904     		.2byte	0x459
 9974 1e58 9F0F0000 		.4byte	0xf9f
 9975 1e5c 03       		.uleb128 0x3
 9976 1e5d 91       		.byte	0x91
 9977 1e5e B87F     		.sleb128 -72
 9978 1e60 00       		.byte	0
 9979 1e61 00       		.byte	0
 9980 1e62 00       		.byte	0
 9981 1e63 00       		.byte	0
 9982 1e64 26       		.uleb128 0x26
 9983 1e65 921E0000 		.4byte	.LASF461
 9984 1e69 01       		.byte	0x1
 9985 1e6a 6604     		.2byte	0x466
 9986 1e6c 00000000 		.4byte	.LFB91
 9987 1e70 40010000 		.4byte	.LFE91-.LFB91
 9988 1e74 01       		.uleb128 0x1
 9989 1e75 9C       		.byte	0x9c
 9990 1e76 B21E0000 		.4byte	0x1eb2
 9991 1e7a 27       		.uleb128 0x27
 9992 1e7b C3160000 		.4byte	.LASF411
 9993 1e7f 01       		.byte	0x1
 9994 1e80 6604     		.2byte	0x466
 9995 1e82 FB000000 		.4byte	0xfb
 9996 1e86 02       		.uleb128 0x2


 9997 1e87 91       		.byte	0x91
 9998 1e88 64       		.sleb128 -28
 9999 1e89 28       		.uleb128 0x28
 10000 1e8a 87080000 		.4byte	.LASF412
 10001 1e8e 01       		.byte	0x1
 10002 1e8f 6804     		.2byte	0x468
 10003 1e91 B0100000 		.4byte	0x10b0
 10004 1e95 02       		.uleb128 0x2
 10005 1e96 91       		.byte	0x91
 10006 1e97 68       		.sleb128 -24
 10007 1e98 23       		.uleb128 0x23
 10008 1e99 68000000 		.4byte	.LBB35
 10009 1e9d C8000000 		.4byte	.LBE35-.LBB35
 10010 1ea1 2D       		.uleb128 0x2d
 10011 1ea2 70747200 		.ascii	"ptr\000"
 10012 1ea6 01       		.byte	0x1
 10013 1ea7 7A04     		.2byte	0x47a
 10014 1ea9 B21E0000 		.4byte	0x1eb2
 10015 1ead 02       		.uleb128 0x2
 10016 1eae 91       		.byte	0x91
 10017 1eaf 6C       		.sleb128 -20
 10018 1eb0 00       		.byte	0
 10019 1eb1 00       		.byte	0
 10020 1eb2 07       		.uleb128 0x7
 10021 1eb3 04       		.byte	0x4
 10022 1eb4 2E0E0000 		.4byte	0xe2e
 10023 1eb8 26       		.uleb128 0x26
 10024 1eb9 65040000 		.4byte	.LASF462
 10025 1ebd 01       		.byte	0x1
 10026 1ebe 9E04     		.2byte	0x49e
 10027 1ec0 00000000 		.4byte	.LFB92
 10028 1ec4 38000000 		.4byte	.LFE92-.LFB92
 10029 1ec8 01       		.uleb128 0x1
 10030 1ec9 9C       		.byte	0x9c
 10031 1eca ED1E0000 		.4byte	0x1eed
 10032 1ece 27       		.uleb128 0x27
 10033 1ecf C3160000 		.4byte	.LASF411
 10034 1ed3 01       		.byte	0x1
 10035 1ed4 9E04     		.2byte	0x49e
 10036 1ed6 FB000000 		.4byte	0xfb
 10037 1eda 02       		.uleb128 0x2
 10038 1edb 91       		.byte	0x91
 10039 1edc 6C       		.sleb128 -20
 10040 1edd 28       		.uleb128 0x28
 10041 1ede 87080000 		.4byte	.LASF412
 10042 1ee2 01       		.byte	0x1
 10043 1ee3 A004     		.2byte	0x4a0
 10044 1ee5 B0100000 		.4byte	0x10b0
 10045 1ee9 02       		.uleb128 0x2
 10046 1eea 91       		.byte	0x91
 10047 1eeb 74       		.sleb128 -12
 10048 1eec 00       		.byte	0
 10049 1eed 26       		.uleb128 0x26
 10050 1eee 03060000 		.4byte	.LASF463
 10051 1ef2 01       		.byte	0x1
 10052 1ef3 AE04     		.2byte	0x4ae
 10053 1ef5 00000000 		.4byte	.LFB93


 10054 1ef9 7E010000 		.4byte	.LFE93-.LFB93
 10055 1efd 01       		.uleb128 0x1
 10056 1efe 9C       		.byte	0x9c
 10057 1eff 3B1F0000 		.4byte	0x1f3b
 10058 1f03 27       		.uleb128 0x27
 10059 1f04 C3160000 		.4byte	.LASF411
 10060 1f08 01       		.byte	0x1
 10061 1f09 AE04     		.2byte	0x4ae
 10062 1f0b FB000000 		.4byte	0xfb
 10063 1f0f 02       		.uleb128 0x2
 10064 1f10 91       		.byte	0x91
 10065 1f11 6C       		.sleb128 -20
 10066 1f12 28       		.uleb128 0x28
 10067 1f13 87080000 		.4byte	.LASF412
 10068 1f17 01       		.byte	0x1
 10069 1f18 B004     		.2byte	0x4b0
 10070 1f1a B0100000 		.4byte	0x10b0
 10071 1f1e 02       		.uleb128 0x2
 10072 1f1f 91       		.byte	0x91
 10073 1f20 74       		.sleb128 -12
 10074 1f21 23       		.uleb128 0x23
 10075 1f22 14000000 		.4byte	.LBB36
 10076 1f26 64010000 		.4byte	.LBE36-.LBB36
 10077 1f2a 28       		.uleb128 0x28
 10078 1f2b 870E0000 		.4byte	.LASF464
 10079 1f2f 01       		.byte	0x1
 10080 1f30 B304     		.2byte	0x4b3
 10081 1f32 EA090000 		.4byte	0x9ea
 10082 1f36 02       		.uleb128 0x2
 10083 1f37 91       		.byte	0x91
 10084 1f38 70       		.sleb128 -16
 10085 1f39 00       		.byte	0
 10086 1f3a 00       		.byte	0
 10087 1f3b 26       		.uleb128 0x26
 10088 1f3c 97160000 		.4byte	.LASF465
 10089 1f40 01       		.byte	0x1
 10090 1f41 FE04     		.2byte	0x4fe
 10091 1f43 00000000 		.4byte	.LFB94
 10092 1f47 D0030000 		.4byte	.LFE94-.LFB94
 10093 1f4b 01       		.uleb128 0x1
 10094 1f4c 9C       		.byte	0x9c
 10095 1f4d 891F0000 		.4byte	0x1f89
 10096 1f51 27       		.uleb128 0x27
 10097 1f52 C3160000 		.4byte	.LASF411
 10098 1f56 01       		.byte	0x1
 10099 1f57 FE04     		.2byte	0x4fe
 10100 1f59 FB000000 		.4byte	0xfb
 10101 1f5d 02       		.uleb128 0x2
 10102 1f5e 91       		.byte	0x91
 10103 1f5f 64       		.sleb128 -28
 10104 1f60 28       		.uleb128 0x28
 10105 1f61 87080000 		.4byte	.LASF412
 10106 1f65 01       		.byte	0x1
 10107 1f66 0005     		.2byte	0x500
 10108 1f68 B0100000 		.4byte	0x10b0
 10109 1f6c 02       		.uleb128 0x2
 10110 1f6d 91       		.byte	0x91


 10111 1f6e 68       		.sleb128 -24
 10112 1f6f 23       		.uleb128 0x23
 10113 1f70 1E000000 		.4byte	.LBB37
 10114 1f74 AC030000 		.4byte	.LBE37-.LBB37
 10115 1f78 2D       		.uleb128 0x2d
 10116 1f79 70747200 		.ascii	"ptr\000"
 10117 1f7d 01       		.byte	0x1
 10118 1f7e 0405     		.2byte	0x504
 10119 1f80 B21E0000 		.4byte	0x1eb2
 10120 1f84 02       		.uleb128 0x2
 10121 1f85 91       		.byte	0x91
 10122 1f86 6C       		.sleb128 -20
 10123 1f87 00       		.byte	0
 10124 1f88 00       		.byte	0
 10125 1f89 29       		.uleb128 0x29
 10126 1f8a E41E0000 		.4byte	.LASF466
 10127 1f8e 01       		.byte	0x1
 10128 1f8f 6005     		.2byte	0x560
 10129 1f91 B0100000 		.4byte	0x10b0
 10130 1f95 00000000 		.4byte	.LFB95
 10131 1f99 AC000000 		.4byte	.LFE95-.LFB95
 10132 1f9d 01       		.uleb128 0x1
 10133 1f9e 9C       		.byte	0x9c
 10134 1f9f C21F0000 		.4byte	0x1fc2
 10135 1fa3 27       		.uleb128 0x27
 10136 1fa4 4B060000 		.4byte	.LASF467
 10137 1fa8 01       		.byte	0x1
 10138 1fa9 6005     		.2byte	0x560
 10139 1fab 81000000 		.4byte	0x81
 10140 1faf 02       		.uleb128 0x2
 10141 1fb0 91       		.byte	0x91
 10142 1fb1 6F       		.sleb128 -17
 10143 1fb2 28       		.uleb128 0x28
 10144 1fb3 23110000 		.4byte	.LASF408
 10145 1fb7 01       		.byte	0x1
 10146 1fb8 6205     		.2byte	0x562
 10147 1fba B0100000 		.4byte	0x10b0
 10148 1fbe 02       		.uleb128 0x2
 10149 1fbf 91       		.byte	0x91
 10150 1fc0 74       		.sleb128 -12
 10151 1fc1 00       		.byte	0
 10152 1fc2 2E       		.uleb128 0x2e
 10153 1fc3 3B140000 		.4byte	.LASF468
 10154 1fc7 0D       		.byte	0xd
 10155 1fc8 5506     		.2byte	0x655
 10156 1fca CE1F0000 		.4byte	0x1fce
 10157 1fce 06       		.uleb128 0x6
 10158 1fcf 76000000 		.4byte	0x76
 10159 1fd3 10       		.uleb128 0x10
 10160 1fd4 9E050000 		.4byte	0x59e
 10161 1fd8 E31F0000 		.4byte	0x1fe3
 10162 1fdc 11       		.uleb128 0x11
 10163 1fdd F4000000 		.4byte	0xf4
 10164 1fe1 03       		.byte	0x3
 10165 1fe2 00       		.byte	0
 10166 1fe3 2E       		.uleb128 0x2e
 10167 1fe4 780E0000 		.4byte	.LASF469


 10168 1fe8 06       		.byte	0x6
 10169 1fe9 4C02     		.2byte	0x24c
 10170 1feb D31F0000 		.4byte	0x1fd3
 10171 1fef 2E       		.uleb128 0x2e
 10172 1ff0 44020000 		.4byte	.LASF470
 10173 1ff4 06       		.byte	0x6
 10174 1ff5 4E02     		.2byte	0x24e
 10175 1ff7 94060000 		.4byte	0x694
 10176 1ffb 2F       		.uleb128 0x2f
 10177 1ffc A71A0000 		.4byte	.LASF471
 10178 2000 0A       		.byte	0xa
 10179 2001 74       		.byte	0x74
 10180 2002 130B0000 		.4byte	0xb13
 10181 2006 10       		.uleb128 0x10
 10182 2007 2E0E0000 		.4byte	0xe2e
 10183 200b 11200000 		.4byte	0x2011
 10184 200f 30       		.uleb128 0x30
 10185 2010 00       		.byte	0
 10186 2011 2E       		.uleb128 0x2e
 10187 2012 5A080000 		.4byte	.LASF472
 10188 2016 0B       		.byte	0xb
 10189 2017 1201     		.2byte	0x112
 10190 2019 06200000 		.4byte	0x2006
 10191 201d 2E       		.uleb128 0x2e
 10192 201e FD150000 		.4byte	.LASF473
 10193 2022 0B       		.byte	0xb
 10194 2023 1601     		.2byte	0x116
 10195 2025 A4100000 		.4byte	0x10a4
 10196 2029 2E       		.uleb128 0x2e
 10197 202a DD040000 		.4byte	.LASF474
 10198 202e 0B       		.byte	0xb
 10199 202f 1701     		.2byte	0x117
 10200 2031 A4100000 		.4byte	0x10a4
 10201 2035 31       		.uleb128 0x31
 10202 2036 B60A0000 		.4byte	.LASF475
 10203 203a 01       		.byte	0x1
 10204 203b 19       		.byte	0x19
 10205 203c 0A030000 		.4byte	0x30a
 10206 2040 05       		.uleb128 0x5
 10207 2041 03       		.byte	0x3
 10208 2042 00000000 		.4byte	_g_displaystarting
 10209 2046 10       		.uleb128 0x10
 10210 2047 F60D0000 		.4byte	0xdf6
 10211 204b 56200000 		.4byte	0x2056
 10212 204f 11       		.uleb128 0x11
 10213 2050 F4000000 		.4byte	0xf4
 10214 2054 04       		.byte	0x4
 10215 2055 00       		.byte	0
 10216 2056 31       		.uleb128 0x31
 10217 2057 FB160000 		.4byte	.LASF476
 10218 205b 01       		.byte	0x1
 10219 205c 1B       		.byte	0x1b
 10220 205d 46200000 		.4byte	0x2046
 10221 2061 05       		.uleb128 0x5
 10222 2062 03       		.byte	0x3
 10223 2063 00000000 		.4byte	_g_productbuttonmap
 10224 2067 00       		.byte	0


 10225              		.section	.debug_abbrev,"",%progbits
 10226              	.Ldebug_abbrev0:
 10227 0000 01       		.uleb128 0x1
 10228 0001 11       		.uleb128 0x11
 10229 0002 01       		.byte	0x1
 10230 0003 25       		.uleb128 0x25
 10231 0004 0E       		.uleb128 0xe
 10232 0005 13       		.uleb128 0x13
 10233 0006 0B       		.uleb128 0xb
 10234 0007 03       		.uleb128 0x3
 10235 0008 0E       		.uleb128 0xe
 10236 0009 1B       		.uleb128 0x1b
 10237 000a 0E       		.uleb128 0xe
 10238 000b 55       		.uleb128 0x55
 10239 000c 17       		.uleb128 0x17
 10240 000d 11       		.uleb128 0x11
 10241 000e 01       		.uleb128 0x1
 10242 000f 10       		.uleb128 0x10
 10243 0010 17       		.uleb128 0x17
 10244 0011 00       		.byte	0
 10245 0012 00       		.byte	0
 10246 0013 02       		.uleb128 0x2
 10247 0014 24       		.uleb128 0x24
 10248 0015 00       		.byte	0
 10249 0016 0B       		.uleb128 0xb
 10250 0017 0B       		.uleb128 0xb
 10251 0018 3E       		.uleb128 0x3e
 10252 0019 0B       		.uleb128 0xb
 10253 001a 03       		.uleb128 0x3
 10254 001b 0E       		.uleb128 0xe
 10255 001c 00       		.byte	0
 10256 001d 00       		.byte	0
 10257 001e 03       		.uleb128 0x3
 10258 001f 16       		.uleb128 0x16
 10259 0020 00       		.byte	0
 10260 0021 03       		.uleb128 0x3
 10261 0022 0E       		.uleb128 0xe
 10262 0023 3A       		.uleb128 0x3a
 10263 0024 0B       		.uleb128 0xb
 10264 0025 3B       		.uleb128 0x3b
 10265 0026 0B       		.uleb128 0xb
 10266 0027 49       		.uleb128 0x49
 10267 0028 13       		.uleb128 0x13
 10268 0029 00       		.byte	0
 10269 002a 00       		.byte	0
 10270 002b 04       		.uleb128 0x4
 10271 002c 24       		.uleb128 0x24
 10272 002d 00       		.byte	0
 10273 002e 0B       		.uleb128 0xb
 10274 002f 0B       		.uleb128 0xb
 10275 0030 3E       		.uleb128 0x3e
 10276 0031 0B       		.uleb128 0xb
 10277 0032 03       		.uleb128 0x3
 10278 0033 08       		.uleb128 0x8
 10279 0034 00       		.byte	0
 10280 0035 00       		.byte	0
 10281 0036 05       		.uleb128 0x5


 10282 0037 16       		.uleb128 0x16
 10283 0038 00       		.byte	0
 10284 0039 03       		.uleb128 0x3
 10285 003a 0E       		.uleb128 0xe
 10286 003b 3A       		.uleb128 0x3a
 10287 003c 0B       		.uleb128 0xb
 10288 003d 3B       		.uleb128 0x3b
 10289 003e 05       		.uleb128 0x5
 10290 003f 49       		.uleb128 0x49
 10291 0040 13       		.uleb128 0x13
 10292 0041 00       		.byte	0
 10293 0042 00       		.byte	0
 10294 0043 06       		.uleb128 0x6
 10295 0044 35       		.uleb128 0x35
 10296 0045 00       		.byte	0
 10297 0046 49       		.uleb128 0x49
 10298 0047 13       		.uleb128 0x13
 10299 0048 00       		.byte	0
 10300 0049 00       		.byte	0
 10301 004a 07       		.uleb128 0x7
 10302 004b 0F       		.uleb128 0xf
 10303 004c 00       		.byte	0
 10304 004d 0B       		.uleb128 0xb
 10305 004e 0B       		.uleb128 0xb
 10306 004f 49       		.uleb128 0x49
 10307 0050 13       		.uleb128 0x13
 10308 0051 00       		.byte	0
 10309 0052 00       		.byte	0
 10310 0053 08       		.uleb128 0x8
 10311 0054 15       		.uleb128 0x15
 10312 0055 00       		.byte	0
 10313 0056 27       		.uleb128 0x27
 10314 0057 19       		.uleb128 0x19
 10315 0058 00       		.byte	0
 10316 0059 00       		.byte	0
 10317 005a 09       		.uleb128 0x9
 10318 005b 0F       		.uleb128 0xf
 10319 005c 00       		.byte	0
 10320 005d 0B       		.uleb128 0xb
 10321 005e 0B       		.uleb128 0xb
 10322 005f 00       		.byte	0
 10323 0060 00       		.byte	0
 10324 0061 0A       		.uleb128 0xa
 10325 0062 26       		.uleb128 0x26
 10326 0063 00       		.byte	0
 10327 0064 49       		.uleb128 0x49
 10328 0065 13       		.uleb128 0x13
 10329 0066 00       		.byte	0
 10330 0067 00       		.byte	0
 10331 0068 0B       		.uleb128 0xb
 10332 0069 04       		.uleb128 0x4
 10333 006a 01       		.byte	0x1
 10334 006b 03       		.uleb128 0x3
 10335 006c 0E       		.uleb128 0xe
 10336 006d 0B       		.uleb128 0xb
 10337 006e 0B       		.uleb128 0xb
 10338 006f 3A       		.uleb128 0x3a


 10339 0070 0B       		.uleb128 0xb
 10340 0071 3B       		.uleb128 0x3b
 10341 0072 0B       		.uleb128 0xb
 10342 0073 01       		.uleb128 0x1
 10343 0074 13       		.uleb128 0x13
 10344 0075 00       		.byte	0
 10345 0076 00       		.byte	0
 10346 0077 0C       		.uleb128 0xc
 10347 0078 28       		.uleb128 0x28
 10348 0079 00       		.byte	0
 10349 007a 03       		.uleb128 0x3
 10350 007b 0E       		.uleb128 0xe
 10351 007c 1C       		.uleb128 0x1c
 10352 007d 0D       		.uleb128 0xd
 10353 007e 00       		.byte	0
 10354 007f 00       		.byte	0
 10355 0080 0D       		.uleb128 0xd
 10356 0081 13       		.uleb128 0x13
 10357 0082 01       		.byte	0x1
 10358 0083 0B       		.uleb128 0xb
 10359 0084 05       		.uleb128 0x5
 10360 0085 3A       		.uleb128 0x3a
 10361 0086 0B       		.uleb128 0xb
 10362 0087 3B       		.uleb128 0x3b
 10363 0088 05       		.uleb128 0x5
 10364 0089 01       		.uleb128 0x1
 10365 008a 13       		.uleb128 0x13
 10366 008b 00       		.byte	0
 10367 008c 00       		.byte	0
 10368 008d 0E       		.uleb128 0xe
 10369 008e 0D       		.uleb128 0xd
 10370 008f 00       		.byte	0
 10371 0090 03       		.uleb128 0x3
 10372 0091 0E       		.uleb128 0xe
 10373 0092 3A       		.uleb128 0x3a
 10374 0093 0B       		.uleb128 0xb
 10375 0094 3B       		.uleb128 0x3b
 10376 0095 05       		.uleb128 0x5
 10377 0096 49       		.uleb128 0x49
 10378 0097 13       		.uleb128 0x13
 10379 0098 38       		.uleb128 0x38
 10380 0099 0B       		.uleb128 0xb
 10381 009a 00       		.byte	0
 10382 009b 00       		.byte	0
 10383 009c 0F       		.uleb128 0xf
 10384 009d 0D       		.uleb128 0xd
 10385 009e 00       		.byte	0
 10386 009f 03       		.uleb128 0x3
 10387 00a0 0E       		.uleb128 0xe
 10388 00a1 3A       		.uleb128 0x3a
 10389 00a2 0B       		.uleb128 0xb
 10390 00a3 3B       		.uleb128 0x3b
 10391 00a4 05       		.uleb128 0x5
 10392 00a5 49       		.uleb128 0x49
 10393 00a6 13       		.uleb128 0x13
 10394 00a7 38       		.uleb128 0x38
 10395 00a8 05       		.uleb128 0x5


 10396 00a9 00       		.byte	0
 10397 00aa 00       		.byte	0
 10398 00ab 10       		.uleb128 0x10
 10399 00ac 01       		.uleb128 0x1
 10400 00ad 01       		.byte	0x1
 10401 00ae 49       		.uleb128 0x49
 10402 00af 13       		.uleb128 0x13
 10403 00b0 01       		.uleb128 0x1
 10404 00b1 13       		.uleb128 0x13
 10405 00b2 00       		.byte	0
 10406 00b3 00       		.byte	0
 10407 00b4 11       		.uleb128 0x11
 10408 00b5 21       		.uleb128 0x21
 10409 00b6 00       		.byte	0
 10410 00b7 49       		.uleb128 0x49
 10411 00b8 13       		.uleb128 0x13
 10412 00b9 2F       		.uleb128 0x2f
 10413 00ba 0B       		.uleb128 0xb
 10414 00bb 00       		.byte	0
 10415 00bc 00       		.byte	0
 10416 00bd 12       		.uleb128 0x12
 10417 00be 13       		.uleb128 0x13
 10418 00bf 01       		.byte	0x1
 10419 00c0 0B       		.uleb128 0xb
 10420 00c1 0B       		.uleb128 0xb
 10421 00c2 3A       		.uleb128 0x3a
 10422 00c3 0B       		.uleb128 0xb
 10423 00c4 3B       		.uleb128 0x3b
 10424 00c5 05       		.uleb128 0x5
 10425 00c6 01       		.uleb128 0x1
 10426 00c7 13       		.uleb128 0x13
 10427 00c8 00       		.byte	0
 10428 00c9 00       		.byte	0
 10429 00ca 13       		.uleb128 0x13
 10430 00cb 13       		.uleb128 0x13
 10431 00cc 01       		.byte	0x1
 10432 00cd 03       		.uleb128 0x3
 10433 00ce 0E       		.uleb128 0xe
 10434 00cf 0B       		.uleb128 0xb
 10435 00d0 05       		.uleb128 0x5
 10436 00d1 3A       		.uleb128 0x3a
 10437 00d2 0B       		.uleb128 0xb
 10438 00d3 3B       		.uleb128 0x3b
 10439 00d4 05       		.uleb128 0x5
 10440 00d5 01       		.uleb128 0x1
 10441 00d6 13       		.uleb128 0x13
 10442 00d7 00       		.byte	0
 10443 00d8 00       		.byte	0
 10444 00d9 14       		.uleb128 0x14
 10445 00da 21       		.uleb128 0x21
 10446 00db 00       		.byte	0
 10447 00dc 49       		.uleb128 0x49
 10448 00dd 13       		.uleb128 0x13
 10449 00de 2F       		.uleb128 0x2f
 10450 00df 05       		.uleb128 0x5
 10451 00e0 00       		.byte	0
 10452 00e1 00       		.byte	0


 10453 00e2 15       		.uleb128 0x15
 10454 00e3 15       		.uleb128 0x15
 10455 00e4 01       		.byte	0x1
 10456 00e5 27       		.uleb128 0x27
 10457 00e6 19       		.uleb128 0x19
 10458 00e7 01       		.uleb128 0x1
 10459 00e8 13       		.uleb128 0x13
 10460 00e9 00       		.byte	0
 10461 00ea 00       		.byte	0
 10462 00eb 16       		.uleb128 0x16
 10463 00ec 05       		.uleb128 0x5
 10464 00ed 00       		.byte	0
 10465 00ee 49       		.uleb128 0x49
 10466 00ef 13       		.uleb128 0x13
 10467 00f0 00       		.byte	0
 10468 00f1 00       		.byte	0
 10469 00f2 17       		.uleb128 0x17
 10470 00f3 15       		.uleb128 0x15
 10471 00f4 01       		.byte	0x1
 10472 00f5 27       		.uleb128 0x27
 10473 00f6 19       		.uleb128 0x19
 10474 00f7 49       		.uleb128 0x49
 10475 00f8 13       		.uleb128 0x13
 10476 00f9 01       		.uleb128 0x1
 10477 00fa 13       		.uleb128 0x13
 10478 00fb 00       		.byte	0
 10479 00fc 00       		.byte	0
 10480 00fd 18       		.uleb128 0x18
 10481 00fe 0D       		.uleb128 0xd
 10482 00ff 00       		.byte	0
 10483 0100 03       		.uleb128 0x3
 10484 0101 0E       		.uleb128 0xe
 10485 0102 3A       		.uleb128 0x3a
 10486 0103 0B       		.uleb128 0xb
 10487 0104 3B       		.uleb128 0x3b
 10488 0105 05       		.uleb128 0x5
 10489 0106 49       		.uleb128 0x49
 10490 0107 13       		.uleb128 0x13
 10491 0108 0B       		.uleb128 0xb
 10492 0109 0B       		.uleb128 0xb
 10493 010a 0D       		.uleb128 0xd
 10494 010b 0B       		.uleb128 0xb
 10495 010c 0C       		.uleb128 0xc
 10496 010d 0B       		.uleb128 0xb
 10497 010e 38       		.uleb128 0x38
 10498 010f 0B       		.uleb128 0xb
 10499 0110 00       		.byte	0
 10500 0111 00       		.byte	0
 10501 0112 19       		.uleb128 0x19
 10502 0113 13       		.uleb128 0x13
 10503 0114 01       		.byte	0x1
 10504 0115 03       		.uleb128 0x3
 10505 0116 0E       		.uleb128 0xe
 10506 0117 0B       		.uleb128 0xb
 10507 0118 0B       		.uleb128 0xb
 10508 0119 3A       		.uleb128 0x3a
 10509 011a 0B       		.uleb128 0xb


 10510 011b 3B       		.uleb128 0x3b
 10511 011c 0B       		.uleb128 0xb
 10512 011d 01       		.uleb128 0x1
 10513 011e 13       		.uleb128 0x13
 10514 011f 00       		.byte	0
 10515 0120 00       		.byte	0
 10516 0121 1A       		.uleb128 0x1a
 10517 0122 0D       		.uleb128 0xd
 10518 0123 00       		.byte	0
 10519 0124 03       		.uleb128 0x3
 10520 0125 0E       		.uleb128 0xe
 10521 0126 3A       		.uleb128 0x3a
 10522 0127 0B       		.uleb128 0xb
 10523 0128 3B       		.uleb128 0x3b
 10524 0129 0B       		.uleb128 0xb
 10525 012a 49       		.uleb128 0x49
 10526 012b 13       		.uleb128 0x13
 10527 012c 38       		.uleb128 0x38
 10528 012d 0B       		.uleb128 0xb
 10529 012e 00       		.byte	0
 10530 012f 00       		.byte	0
 10531 0130 1B       		.uleb128 0x1b
 10532 0131 15       		.uleb128 0x15
 10533 0132 00       		.byte	0
 10534 0133 27       		.uleb128 0x27
 10535 0134 19       		.uleb128 0x19
 10536 0135 49       		.uleb128 0x49
 10537 0136 13       		.uleb128 0x13
 10538 0137 00       		.byte	0
 10539 0138 00       		.byte	0
 10540 0139 1C       		.uleb128 0x1c
 10541 013a 13       		.uleb128 0x13
 10542 013b 01       		.byte	0x1
 10543 013c 03       		.uleb128 0x3
 10544 013d 0E       		.uleb128 0xe
 10545 013e 0B       		.uleb128 0xb
 10546 013f 05       		.uleb128 0x5
 10547 0140 3A       		.uleb128 0x3a
 10548 0141 0B       		.uleb128 0xb
 10549 0142 3B       		.uleb128 0x3b
 10550 0143 0B       		.uleb128 0xb
 10551 0144 01       		.uleb128 0x1
 10552 0145 13       		.uleb128 0x13
 10553 0146 00       		.byte	0
 10554 0147 00       		.byte	0
 10555 0148 1D       		.uleb128 0x1d
 10556 0149 0D       		.uleb128 0xd
 10557 014a 00       		.byte	0
 10558 014b 03       		.uleb128 0x3
 10559 014c 0E       		.uleb128 0xe
 10560 014d 3A       		.uleb128 0x3a
 10561 014e 0B       		.uleb128 0xb
 10562 014f 3B       		.uleb128 0x3b
 10563 0150 0B       		.uleb128 0xb
 10564 0151 49       		.uleb128 0x49
 10565 0152 13       		.uleb128 0x13
 10566 0153 38       		.uleb128 0x38


 10567 0154 05       		.uleb128 0x5
 10568 0155 00       		.byte	0
 10569 0156 00       		.byte	0
 10570 0157 1E       		.uleb128 0x1e
 10571 0158 13       		.uleb128 0x13
 10572 0159 01       		.byte	0x1
 10573 015a 0B       		.uleb128 0xb
 10574 015b 0B       		.uleb128 0xb
 10575 015c 3A       		.uleb128 0x3a
 10576 015d 0B       		.uleb128 0xb
 10577 015e 3B       		.uleb128 0x3b
 10578 015f 0B       		.uleb128 0xb
 10579 0160 01       		.uleb128 0x1
 10580 0161 13       		.uleb128 0x13
 10581 0162 00       		.byte	0
 10582 0163 00       		.byte	0
 10583 0164 1F       		.uleb128 0x1f
 10584 0165 04       		.uleb128 0x4
 10585 0166 01       		.byte	0x1
 10586 0167 0B       		.uleb128 0xb
 10587 0168 0B       		.uleb128 0xb
 10588 0169 3A       		.uleb128 0x3a
 10589 016a 0B       		.uleb128 0xb
 10590 016b 3B       		.uleb128 0x3b
 10591 016c 0B       		.uleb128 0xb
 10592 016d 01       		.uleb128 0x1
 10593 016e 13       		.uleb128 0x13
 10594 016f 00       		.byte	0
 10595 0170 00       		.byte	0
 10596 0171 20       		.uleb128 0x20
 10597 0172 2E       		.uleb128 0x2e
 10598 0173 01       		.byte	0x1
 10599 0174 3F       		.uleb128 0x3f
 10600 0175 19       		.uleb128 0x19
 10601 0176 03       		.uleb128 0x3
 10602 0177 0E       		.uleb128 0xe
 10603 0178 3A       		.uleb128 0x3a
 10604 0179 0B       		.uleb128 0xb
 10605 017a 3B       		.uleb128 0x3b
 10606 017b 0B       		.uleb128 0xb
 10607 017c 27       		.uleb128 0x27
 10608 017d 19       		.uleb128 0x19
 10609 017e 49       		.uleb128 0x49
 10610 017f 13       		.uleb128 0x13
 10611 0180 11       		.uleb128 0x11
 10612 0181 01       		.uleb128 0x1
 10613 0182 12       		.uleb128 0x12
 10614 0183 06       		.uleb128 0x6
 10615 0184 40       		.uleb128 0x40
 10616 0185 18       		.uleb128 0x18
 10617 0186 9642     		.uleb128 0x2116
 10618 0188 19       		.uleb128 0x19
 10619 0189 01       		.uleb128 0x1
 10620 018a 13       		.uleb128 0x13
 10621 018b 00       		.byte	0
 10622 018c 00       		.byte	0
 10623 018d 21       		.uleb128 0x21


 10624 018e 05       		.uleb128 0x5
 10625 018f 00       		.byte	0
 10626 0190 03       		.uleb128 0x3
 10627 0191 0E       		.uleb128 0xe
 10628 0192 3A       		.uleb128 0x3a
 10629 0193 0B       		.uleb128 0xb
 10630 0194 3B       		.uleb128 0x3b
 10631 0195 0B       		.uleb128 0xb
 10632 0196 49       		.uleb128 0x49
 10633 0197 13       		.uleb128 0x13
 10634 0198 02       		.uleb128 0x2
 10635 0199 18       		.uleb128 0x18
 10636 019a 00       		.byte	0
 10637 019b 00       		.byte	0
 10638 019c 22       		.uleb128 0x22
 10639 019d 34       		.uleb128 0x34
 10640 019e 00       		.byte	0
 10641 019f 03       		.uleb128 0x3
 10642 01a0 0E       		.uleb128 0xe
 10643 01a1 3A       		.uleb128 0x3a
 10644 01a2 0B       		.uleb128 0xb
 10645 01a3 3B       		.uleb128 0x3b
 10646 01a4 0B       		.uleb128 0xb
 10647 01a5 49       		.uleb128 0x49
 10648 01a6 13       		.uleb128 0x13
 10649 01a7 02       		.uleb128 0x2
 10650 01a8 18       		.uleb128 0x18
 10651 01a9 00       		.byte	0
 10652 01aa 00       		.byte	0
 10653 01ab 23       		.uleb128 0x23
 10654 01ac 0B       		.uleb128 0xb
 10655 01ad 01       		.byte	0x1
 10656 01ae 11       		.uleb128 0x11
 10657 01af 01       		.uleb128 0x1
 10658 01b0 12       		.uleb128 0x12
 10659 01b1 06       		.uleb128 0x6
 10660 01b2 00       		.byte	0
 10661 01b3 00       		.byte	0
 10662 01b4 24       		.uleb128 0x24
 10663 01b5 2E       		.uleb128 0x2e
 10664 01b6 01       		.byte	0x1
 10665 01b7 3F       		.uleb128 0x3f
 10666 01b8 19       		.uleb128 0x19
 10667 01b9 03       		.uleb128 0x3
 10668 01ba 0E       		.uleb128 0xe
 10669 01bb 3A       		.uleb128 0x3a
 10670 01bc 0B       		.uleb128 0xb
 10671 01bd 3B       		.uleb128 0x3b
 10672 01be 0B       		.uleb128 0xb
 10673 01bf 27       		.uleb128 0x27
 10674 01c0 19       		.uleb128 0x19
 10675 01c1 11       		.uleb128 0x11
 10676 01c2 01       		.uleb128 0x1
 10677 01c3 12       		.uleb128 0x12
 10678 01c4 06       		.uleb128 0x6
 10679 01c5 40       		.uleb128 0x40
 10680 01c6 18       		.uleb128 0x18


 10681 01c7 9742     		.uleb128 0x2117
 10682 01c9 19       		.uleb128 0x19
 10683 01ca 01       		.uleb128 0x1
 10684 01cb 13       		.uleb128 0x13
 10685 01cc 00       		.byte	0
 10686 01cd 00       		.byte	0
 10687 01ce 25       		.uleb128 0x25
 10688 01cf 2E       		.uleb128 0x2e
 10689 01d0 01       		.byte	0x1
 10690 01d1 3F       		.uleb128 0x3f
 10691 01d2 19       		.uleb128 0x19
 10692 01d3 03       		.uleb128 0x3
 10693 01d4 0E       		.uleb128 0xe
 10694 01d5 3A       		.uleb128 0x3a
 10695 01d6 0B       		.uleb128 0xb
 10696 01d7 3B       		.uleb128 0x3b
 10697 01d8 0B       		.uleb128 0xb
 10698 01d9 27       		.uleb128 0x27
 10699 01da 19       		.uleb128 0x19
 10700 01db 49       		.uleb128 0x49
 10701 01dc 13       		.uleb128 0x13
 10702 01dd 11       		.uleb128 0x11
 10703 01de 01       		.uleb128 0x1
 10704 01df 12       		.uleb128 0x12
 10705 01e0 06       		.uleb128 0x6
 10706 01e1 40       		.uleb128 0x40
 10707 01e2 18       		.uleb128 0x18
 10708 01e3 9742     		.uleb128 0x2117
 10709 01e5 19       		.uleb128 0x19
 10710 01e6 01       		.uleb128 0x1
 10711 01e7 13       		.uleb128 0x13
 10712 01e8 00       		.byte	0
 10713 01e9 00       		.byte	0
 10714 01ea 26       		.uleb128 0x26
 10715 01eb 2E       		.uleb128 0x2e
 10716 01ec 01       		.byte	0x1
 10717 01ed 3F       		.uleb128 0x3f
 10718 01ee 19       		.uleb128 0x19
 10719 01ef 03       		.uleb128 0x3
 10720 01f0 0E       		.uleb128 0xe
 10721 01f1 3A       		.uleb128 0x3a
 10722 01f2 0B       		.uleb128 0xb
 10723 01f3 3B       		.uleb128 0x3b
 10724 01f4 05       		.uleb128 0x5
 10725 01f5 27       		.uleb128 0x27
 10726 01f6 19       		.uleb128 0x19
 10727 01f7 11       		.uleb128 0x11
 10728 01f8 01       		.uleb128 0x1
 10729 01f9 12       		.uleb128 0x12
 10730 01fa 06       		.uleb128 0x6
 10731 01fb 40       		.uleb128 0x40
 10732 01fc 18       		.uleb128 0x18
 10733 01fd 9642     		.uleb128 0x2116
 10734 01ff 19       		.uleb128 0x19
 10735 0200 01       		.uleb128 0x1
 10736 0201 13       		.uleb128 0x13
 10737 0202 00       		.byte	0


 10738 0203 00       		.byte	0
 10739 0204 27       		.uleb128 0x27
 10740 0205 05       		.uleb128 0x5
 10741 0206 00       		.byte	0
 10742 0207 03       		.uleb128 0x3
 10743 0208 0E       		.uleb128 0xe
 10744 0209 3A       		.uleb128 0x3a
 10745 020a 0B       		.uleb128 0xb
 10746 020b 3B       		.uleb128 0x3b
 10747 020c 05       		.uleb128 0x5
 10748 020d 49       		.uleb128 0x49
 10749 020e 13       		.uleb128 0x13
 10750 020f 02       		.uleb128 0x2
 10751 0210 18       		.uleb128 0x18
 10752 0211 00       		.byte	0
 10753 0212 00       		.byte	0
 10754 0213 28       		.uleb128 0x28
 10755 0214 34       		.uleb128 0x34
 10756 0215 00       		.byte	0
 10757 0216 03       		.uleb128 0x3
 10758 0217 0E       		.uleb128 0xe
 10759 0218 3A       		.uleb128 0x3a
 10760 0219 0B       		.uleb128 0xb
 10761 021a 3B       		.uleb128 0x3b
 10762 021b 05       		.uleb128 0x5
 10763 021c 49       		.uleb128 0x49
 10764 021d 13       		.uleb128 0x13
 10765 021e 02       		.uleb128 0x2
 10766 021f 18       		.uleb128 0x18
 10767 0220 00       		.byte	0
 10768 0221 00       		.byte	0
 10769 0222 29       		.uleb128 0x29
 10770 0223 2E       		.uleb128 0x2e
 10771 0224 01       		.byte	0x1
 10772 0225 3F       		.uleb128 0x3f
 10773 0226 19       		.uleb128 0x19
 10774 0227 03       		.uleb128 0x3
 10775 0228 0E       		.uleb128 0xe
 10776 0229 3A       		.uleb128 0x3a
 10777 022a 0B       		.uleb128 0xb
 10778 022b 3B       		.uleb128 0x3b
 10779 022c 05       		.uleb128 0x5
 10780 022d 27       		.uleb128 0x27
 10781 022e 19       		.uleb128 0x19
 10782 022f 49       		.uleb128 0x49
 10783 0230 13       		.uleb128 0x13
 10784 0231 11       		.uleb128 0x11
 10785 0232 01       		.uleb128 0x1
 10786 0233 12       		.uleb128 0x12
 10787 0234 06       		.uleb128 0x6
 10788 0235 40       		.uleb128 0x40
 10789 0236 18       		.uleb128 0x18
 10790 0237 9742     		.uleb128 0x2117
 10791 0239 19       		.uleb128 0x19
 10792 023a 01       		.uleb128 0x1
 10793 023b 13       		.uleb128 0x13
 10794 023c 00       		.byte	0


 10795 023d 00       		.byte	0
 10796 023e 2A       		.uleb128 0x2a
 10797 023f 2E       		.uleb128 0x2e
 10798 0240 01       		.byte	0x1
 10799 0241 3F       		.uleb128 0x3f
 10800 0242 19       		.uleb128 0x19
 10801 0243 03       		.uleb128 0x3
 10802 0244 0E       		.uleb128 0xe
 10803 0245 3A       		.uleb128 0x3a
 10804 0246 0B       		.uleb128 0xb
 10805 0247 3B       		.uleb128 0x3b
 10806 0248 05       		.uleb128 0x5
 10807 0249 27       		.uleb128 0x27
 10808 024a 19       		.uleb128 0x19
 10809 024b 49       		.uleb128 0x49
 10810 024c 13       		.uleb128 0x13
 10811 024d 11       		.uleb128 0x11
 10812 024e 01       		.uleb128 0x1
 10813 024f 12       		.uleb128 0x12
 10814 0250 06       		.uleb128 0x6
 10815 0251 40       		.uleb128 0x40
 10816 0252 18       		.uleb128 0x18
 10817 0253 9642     		.uleb128 0x2116
 10818 0255 19       		.uleb128 0x19
 10819 0256 01       		.uleb128 0x1
 10820 0257 13       		.uleb128 0x13
 10821 0258 00       		.byte	0
 10822 0259 00       		.byte	0
 10823 025a 2B       		.uleb128 0x2b
 10824 025b 2E       		.uleb128 0x2e
 10825 025c 01       		.byte	0x1
 10826 025d 3F       		.uleb128 0x3f
 10827 025e 19       		.uleb128 0x19
 10828 025f 03       		.uleb128 0x3
 10829 0260 0E       		.uleb128 0xe
 10830 0261 3A       		.uleb128 0x3a
 10831 0262 0B       		.uleb128 0xb
 10832 0263 3B       		.uleb128 0x3b
 10833 0264 05       		.uleb128 0x5
 10834 0265 27       		.uleb128 0x27
 10835 0266 19       		.uleb128 0x19
 10836 0267 11       		.uleb128 0x11
 10837 0268 01       		.uleb128 0x1
 10838 0269 12       		.uleb128 0x12
 10839 026a 06       		.uleb128 0x6
 10840 026b 40       		.uleb128 0x40
 10841 026c 18       		.uleb128 0x18
 10842 026d 9742     		.uleb128 0x2117
 10843 026f 19       		.uleb128 0x19
 10844 0270 01       		.uleb128 0x1
 10845 0271 13       		.uleb128 0x13
 10846 0272 00       		.byte	0
 10847 0273 00       		.byte	0
 10848 0274 2C       		.uleb128 0x2c
 10849 0275 0B       		.uleb128 0xb
 10850 0276 01       		.byte	0x1
 10851 0277 11       		.uleb128 0x11


 10852 0278 01       		.uleb128 0x1
 10853 0279 12       		.uleb128 0x12
 10854 027a 06       		.uleb128 0x6
 10855 027b 01       		.uleb128 0x1
 10856 027c 13       		.uleb128 0x13
 10857 027d 00       		.byte	0
 10858 027e 00       		.byte	0
 10859 027f 2D       		.uleb128 0x2d
 10860 0280 34       		.uleb128 0x34
 10861 0281 00       		.byte	0
 10862 0282 03       		.uleb128 0x3
 10863 0283 08       		.uleb128 0x8
 10864 0284 3A       		.uleb128 0x3a
 10865 0285 0B       		.uleb128 0xb
 10866 0286 3B       		.uleb128 0x3b
 10867 0287 05       		.uleb128 0x5
 10868 0288 49       		.uleb128 0x49
 10869 0289 13       		.uleb128 0x13
 10870 028a 02       		.uleb128 0x2
 10871 028b 18       		.uleb128 0x18
 10872 028c 00       		.byte	0
 10873 028d 00       		.byte	0
 10874 028e 2E       		.uleb128 0x2e
 10875 028f 34       		.uleb128 0x34
 10876 0290 00       		.byte	0
 10877 0291 03       		.uleb128 0x3
 10878 0292 0E       		.uleb128 0xe
 10879 0293 3A       		.uleb128 0x3a
 10880 0294 0B       		.uleb128 0xb
 10881 0295 3B       		.uleb128 0x3b
 10882 0296 05       		.uleb128 0x5
 10883 0297 49       		.uleb128 0x49
 10884 0298 13       		.uleb128 0x13
 10885 0299 3F       		.uleb128 0x3f
 10886 029a 19       		.uleb128 0x19
 10887 029b 3C       		.uleb128 0x3c
 10888 029c 19       		.uleb128 0x19
 10889 029d 00       		.byte	0
 10890 029e 00       		.byte	0
 10891 029f 2F       		.uleb128 0x2f
 10892 02a0 34       		.uleb128 0x34
 10893 02a1 00       		.byte	0
 10894 02a2 03       		.uleb128 0x3
 10895 02a3 0E       		.uleb128 0xe
 10896 02a4 3A       		.uleb128 0x3a
 10897 02a5 0B       		.uleb128 0xb
 10898 02a6 3B       		.uleb128 0x3b
 10899 02a7 0B       		.uleb128 0xb
 10900 02a8 49       		.uleb128 0x49
 10901 02a9 13       		.uleb128 0x13
 10902 02aa 3F       		.uleb128 0x3f
 10903 02ab 19       		.uleb128 0x19
 10904 02ac 3C       		.uleb128 0x3c
 10905 02ad 19       		.uleb128 0x19
 10906 02ae 00       		.byte	0
 10907 02af 00       		.byte	0
 10908 02b0 30       		.uleb128 0x30


 10909 02b1 21       		.uleb128 0x21
 10910 02b2 00       		.byte	0
 10911 02b3 00       		.byte	0
 10912 02b4 00       		.byte	0
 10913 02b5 31       		.uleb128 0x31
 10914 02b6 34       		.uleb128 0x34
 10915 02b7 00       		.byte	0
 10916 02b8 03       		.uleb128 0x3
 10917 02b9 0E       		.uleb128 0xe
 10918 02ba 3A       		.uleb128 0x3a
 10919 02bb 0B       		.uleb128 0xb
 10920 02bc 3B       		.uleb128 0x3b
 10921 02bd 0B       		.uleb128 0xb
 10922 02be 49       		.uleb128 0x49
 10923 02bf 13       		.uleb128 0x13
 10924 02c0 3F       		.uleb128 0x3f
 10925 02c1 19       		.uleb128 0x19
 10926 02c2 02       		.uleb128 0x2
 10927 02c3 18       		.uleb128 0x18
 10928 02c4 00       		.byte	0
 10929 02c5 00       		.byte	0
 10930 02c6 00       		.byte	0
 10931              		.section	.debug_aranges,"",%progbits
 10932 0000 1C010000 		.4byte	0x11c
 10933 0004 0200     		.2byte	0x2
 10934 0006 00000000 		.4byte	.Ldebug_info0
 10935 000a 04       		.byte	0x4
 10936 000b 00       		.byte	0
 10937 000c 0000     		.2byte	0
 10938 000e 0000     		.2byte	0
 10939 0010 00000000 		.4byte	.LFB63
 10940 0014 38010000 		.4byte	.LFE63-.LFB63
 10941 0018 00000000 		.4byte	.LFB64
 10942 001c A6000000 		.4byte	.LFE64-.LFB64
 10943 0020 00000000 		.4byte	.LFB65
 10944 0024 66000000 		.4byte	.LFE65-.LFB65
 10945 0028 00000000 		.4byte	.LFB66
 10946 002c 66000000 		.4byte	.LFE66-.LFB66
 10947 0030 00000000 		.4byte	.LFB67
 10948 0034 66000000 		.4byte	.LFE67-.LFB67
 10949 0038 00000000 		.4byte	.LFB68
 10950 003c 66000000 		.4byte	.LFE68-.LFB68
 10951 0040 00000000 		.4byte	.LFB69
 10952 0044 66000000 		.4byte	.LFE69-.LFB69
 10953 0048 00000000 		.4byte	.LFB70
 10954 004c AC000000 		.4byte	.LFE70-.LFB70
 10955 0050 00000000 		.4byte	.LFB71
 10956 0054 A0000000 		.4byte	.LFE71-.LFB71
 10957 0058 00000000 		.4byte	.LFB72
 10958 005c 70000000 		.4byte	.LFE72-.LFB72
 10959 0060 00000000 		.4byte	.LFB73
 10960 0064 2A000000 		.4byte	.LFE73-.LFB73
 10961 0068 00000000 		.4byte	.LFB74
 10962 006c 74000000 		.4byte	.LFE74-.LFB74
 10963 0070 00000000 		.4byte	.LFB75
 10964 0074 46000000 		.4byte	.LFE75-.LFB75
 10965 0078 00000000 		.4byte	.LFB76


 10966 007c 42010000 		.4byte	.LFE76-.LFB76
 10967 0080 00000000 		.4byte	.LFB77
 10968 0084 40010000 		.4byte	.LFE77-.LFB77
 10969 0088 00000000 		.4byte	.LFB78
 10970 008c 1C010000 		.4byte	.LFE78-.LFB78
 10971 0090 00000000 		.4byte	.LFB79
 10972 0094 A4010000 		.4byte	.LFE79-.LFB79
 10973 0098 00000000 		.4byte	.LFB80
 10974 009c 5C010000 		.4byte	.LFE80-.LFB80
 10975 00a0 00000000 		.4byte	.LFB81
 10976 00a4 8C020000 		.4byte	.LFE81-.LFB81
 10977 00a8 00000000 		.4byte	.LFB82
 10978 00ac E8000000 		.4byte	.LFE82-.LFB82
 10979 00b0 00000000 		.4byte	.LFB83
 10980 00b4 B4000000 		.4byte	.LFE83-.LFB83
 10981 00b8 00000000 		.4byte	.LFB84
 10982 00bc 4C010000 		.4byte	.LFE84-.LFB84
 10983 00c0 00000000 		.4byte	.LFB85
 10984 00c4 62010000 		.4byte	.LFE85-.LFB85
 10985 00c8 00000000 		.4byte	.LFB86
 10986 00cc E4010000 		.4byte	.LFE86-.LFB86
 10987 00d0 00000000 		.4byte	.LFB87
 10988 00d4 6A010000 		.4byte	.LFE87-.LFB87
 10989 00d8 00000000 		.4byte	.LFB88
 10990 00dc 04020000 		.4byte	.LFE88-.LFB88
 10991 00e0 00000000 		.4byte	.LFB89
 10992 00e4 38020000 		.4byte	.LFE89-.LFB89
 10993 00e8 00000000 		.4byte	.LFB90
 10994 00ec 90010000 		.4byte	.LFE90-.LFB90
 10995 00f0 00000000 		.4byte	.LFB91
 10996 00f4 40010000 		.4byte	.LFE91-.LFB91
 10997 00f8 00000000 		.4byte	.LFB92
 10998 00fc 38000000 		.4byte	.LFE92-.LFB92
 10999 0100 00000000 		.4byte	.LFB93
 11000 0104 7E010000 		.4byte	.LFE93-.LFB93
 11001 0108 00000000 		.4byte	.LFB94
 11002 010c D0030000 		.4byte	.LFE94-.LFB94
 11003 0110 00000000 		.4byte	.LFB95
 11004 0114 AC000000 		.4byte	.LFE95-.LFB95
 11005 0118 00000000 		.4byte	0
 11006 011c 00000000 		.4byte	0
 11007              		.section	.debug_ranges,"",%progbits
 11008              	.Ldebug_ranges0:
 11009 0000 00000000 		.4byte	.LFB63
 11010 0004 38010000 		.4byte	.LFE63
 11011 0008 00000000 		.4byte	.LFB64
 11012 000c A6000000 		.4byte	.LFE64
 11013 0010 00000000 		.4byte	.LFB65
 11014 0014 66000000 		.4byte	.LFE65
 11015 0018 00000000 		.4byte	.LFB66
 11016 001c 66000000 		.4byte	.LFE66
 11017 0020 00000000 		.4byte	.LFB67
 11018 0024 66000000 		.4byte	.LFE67
 11019 0028 00000000 		.4byte	.LFB68
 11020 002c 66000000 		.4byte	.LFE68
 11021 0030 00000000 		.4byte	.LFB69
 11022 0034 66000000 		.4byte	.LFE69


 11023 0038 00000000 		.4byte	.LFB70
 11024 003c AC000000 		.4byte	.LFE70
 11025 0040 00000000 		.4byte	.LFB71
 11026 0044 A0000000 		.4byte	.LFE71
 11027 0048 00000000 		.4byte	.LFB72
 11028 004c 70000000 		.4byte	.LFE72
 11029 0050 00000000 		.4byte	.LFB73
 11030 0054 2A000000 		.4byte	.LFE73
 11031 0058 00000000 		.4byte	.LFB74
 11032 005c 74000000 		.4byte	.LFE74
 11033 0060 00000000 		.4byte	.LFB75
 11034 0064 46000000 		.4byte	.LFE75
 11035 0068 00000000 		.4byte	.LFB76
 11036 006c 42010000 		.4byte	.LFE76
 11037 0070 00000000 		.4byte	.LFB77
 11038 0074 40010000 		.4byte	.LFE77
 11039 0078 00000000 		.4byte	.LFB78
 11040 007c 1C010000 		.4byte	.LFE78
 11041 0080 00000000 		.4byte	.LFB79
 11042 0084 A4010000 		.4byte	.LFE79
 11043 0088 00000000 		.4byte	.LFB80
 11044 008c 5C010000 		.4byte	.LFE80
 11045 0090 00000000 		.4byte	.LFB81
 11046 0094 8C020000 		.4byte	.LFE81
 11047 0098 00000000 		.4byte	.LFB82
 11048 009c E8000000 		.4byte	.LFE82
 11049 00a0 00000000 		.4byte	.LFB83
 11050 00a4 B4000000 		.4byte	.LFE83
 11051 00a8 00000000 		.4byte	.LFB84
 11052 00ac 4C010000 		.4byte	.LFE84
 11053 00b0 00000000 		.4byte	.LFB85
 11054 00b4 62010000 		.4byte	.LFE85
 11055 00b8 00000000 		.4byte	.LFB86
 11056 00bc E4010000 		.4byte	.LFE86
 11057 00c0 00000000 		.4byte	.LFB87
 11058 00c4 6A010000 		.4byte	.LFE87
 11059 00c8 00000000 		.4byte	.LFB88
 11060 00cc 04020000 		.4byte	.LFE88
 11061 00d0 00000000 		.4byte	.LFB89
 11062 00d4 38020000 		.4byte	.LFE89
 11063 00d8 00000000 		.4byte	.LFB90
 11064 00dc 90010000 		.4byte	.LFE90
 11065 00e0 00000000 		.4byte	.LFB91
 11066 00e4 40010000 		.4byte	.LFE91
 11067 00e8 00000000 		.4byte	.LFB92
 11068 00ec 38000000 		.4byte	.LFE92
 11069 00f0 00000000 		.4byte	.LFB93
 11070 00f4 7E010000 		.4byte	.LFE93
 11071 00f8 00000000 		.4byte	.LFB94
 11072 00fc D0030000 		.4byte	.LFE94
 11073 0100 00000000 		.4byte	.LFB95
 11074 0104 AC000000 		.4byte	.LFE95
 11075 0108 00000000 		.4byte	0
 11076 010c 00000000 		.4byte	0
 11077              		.section	.debug_line,"",%progbits
 11078              	.Ldebug_line0:
 11079 0000 9A0A0000 		.section	.debug_str,"MS",%progbits,1


 11079      0200E401 
 11079      00000201 
 11079      FB0E0D00 
 11079      01010101 
 11080              	.LASF343:
 11081 0000 5F646973 		.ascii	"_dispid\000"
 11081      70696400 
 11082              	.LASF219:
 11083 0008 5F707269 		.ascii	"_printerportside2\000"
 11083      6E746572 
 11083      706F7274 
 11083      73696465 
 11083      3200
 11084              	.LASF110:
 11085 001a 5F706F73 		.ascii	"_positionoffset\000"
 11085      6974696F 
 11085      6E6F6666 
 11085      73657400 
 11086              	.LASF72:
 11087 002a 5F70756D 		.ascii	"_pumprftransstate\000"
 11087      70726674 
 11087      72616E73 
 11087      73746174 
 11087      6500
 11088              	.LASF105:
 11089 003c 5F766F6C 		.ascii	"_volumeunit\000"
 11089      756D6575 
 11089      6E697400 
 11090              	.LASF290:
 11091 0048 44495350 		.ascii	"DISPLAY1\000"
 11091      4C415931 
 11091      00
 11092              	.LASF291:
 11093 0051 44495350 		.ascii	"DISPLAY2\000"
 11093      4C415932 
 11093      00
 11094              	.LASF167:
 11095 005a 5F53494E 		.ascii	"_SINK_MESSAGE_\000"
 11095      4B5F4D45 
 11095      53534147 
 11095      455F00
 11096              	.LASF401:
 11097 0069 45455052 		.ascii	"EEPROM_DISPENSER_PUMP44_TRANSACTION_PAGE\000"
 11097      4F4D5F44 
 11097      49535045 
 11097      4E534552 
 11097      5F50554D 
 11098              	.LASF20:
 11099 0092 73697A65 		.ascii	"sizetype\000"
 11099      74797065 
 11099      00
 11100              	.LASF188:
 11101 009b 44495350 		.ascii	"DISPENSER_ACQUIRE_PUMP_STATE\000"
 11101      454E5345 
 11101      525F4143 
 11101      51554952 
 11101      455F5055 


 11102              	.LASF141:
 11103 00b8 5F6D6573 		.ascii	"_messagelength\000"
 11103      73616765 
 11103      6C656E67 
 11103      746800
 11104              	.LASF345:
 11105 00c7 5F6E6578 		.ascii	"_nextscrid\000"
 11105      74736372 
 11105      696400
 11106              	.LASF145:
 11107 00d2 55415254 		.ascii	"UARTMessage\000"
 11107      4D657373 
 11107      61676500 
 11108              	.LASF431:
 11109 00de 4E6F6E45 		.ascii	"NonEmptyDataValidator\000"
 11109      6D707479 
 11109      44617461 
 11109      56616C69 
 11109      6461746F 
 11110              	.LASF231:
 11111 00f4 44495350 		.ascii	"DISPLAY_SUBA_MANIJA\000"
 11111      4C41595F 
 11111      53554241 
 11111      5F4D414E 
 11111      494A4100 
 11112              	.LASF362:
 11113 0108 45455052 		.ascii	"EEPROM_CONFIGURATION_PAGE0\000"
 11113      4F4D5F43 
 11113      4F4E4649 
 11113      47555241 
 11113      54494F4E 
 11114              	.LASF124:
 11115 0123 47657452 		.ascii	"GetRxBufferSize\000"
 11115      78427566 
 11115      66657253 
 11115      697A6500 
 11116              	.LASF364:
 11117 0133 45455052 		.ascii	"EEPROM_CONFIGURATION_PAGE2\000"
 11117      4F4D5F43 
 11117      4F4E4649 
 11117      47555241 
 11117      54494F4E 
 11118              	.LASF365:
 11119 014e 45455052 		.ascii	"EEPROM_CONFIGURATION_PAGE3\000"
 11119      4F4D5F43 
 11119      4F4E4649 
 11119      47555241 
 11119      54494F4E 
 11120              	.LASF366:
 11121 0169 45455052 		.ascii	"EEPROM_CONFIGURATION_PAGE4\000"
 11121      4F4D5F43 
 11121      4F4E4649 
 11121      47555241 
 11121      54494F4E 
 11122              	.LASF333:
 11123 0184 5F696E70 		.ascii	"_inputvalidator\000"
 11123      75747661 


 11123      6C696461 
 11123      746F7200 
 11124              	.LASF368:
 11125 0194 45455052 		.ascii	"EEPROM_CONFIGURATION_PAGE6\000"
 11125      4F4D5F43 
 11125      4F4E4649 
 11125      47555241 
 11125      54494F4E 
 11126              	.LASF369:
 11127 01af 45455052 		.ascii	"EEPROM_CONFIGURATION_PAGE7\000"
 11127      4F4D5F43 
 11127      4F4E4649 
 11127      47555241 
 11127      54494F4E 
 11128              	.LASF341:
 11129 01ca 5F627566 		.ascii	"_bufferindex\000"
 11129      66657269 
 11129      6E646578 
 11129      00
 11130              	.LASF183:
 11131 01d7 53494E4B 		.ascii	"SINK_RELEASE_BY_ID\000"
 11131      5F52454C 
 11131      45415345 
 11131      5F42595F 
 11131      494400
 11132              	.LASF148:
 11133 01ea 55415254 		.ascii	"UART_RF\000"
 11133      5F524600 
 11134              	.LASF10:
 11135 01f2 696E7433 		.ascii	"int32_t\000"
 11135      325F7400 
 11136              	.LASF318:
 11137 01fa 5F796465 		.ascii	"_ydefpos\000"
 11137      66706F73 
 11137      00
 11138              	.LASF80:
 11139 0203 5F727862 		.ascii	"_rxbuffersize\000"
 11139      75666665 
 11139      7273697A 
 11139      6500
 11140              	.LASF61:
 11141 0211 5F70756D 		.ascii	"_pumpid\000"
 11141      70696400 
 11142              	.LASF26:
 11143 0219 50554D50 		.ascii	"PUMP_AUTHORIZED\000"
 11143      5F415554 
 11143      484F5249 
 11143      5A454400 
 11144              	.LASF181:
 11145 0229 55415254 		.ascii	"UART_RF_AUTONOMOUS_MONITOR\000"
 11145      5F52465F 
 11145      4155544F 
 11145      4E4F4D4F 
 11145      55535F4D 
 11146              	.LASF470:
 11147 0244 5F675F64 		.ascii	"_g_dispenserlayoutinfo\000"
 11147      69737065 


 11147      6E736572 
 11147      6C61796F 
 11147      7574696E 
 11148              	.LASF13:
 11149 025b 75696E74 		.ascii	"uint32\000"
 11149      333200
 11150              	.LASF33:
 11151 0262 5F737461 		.ascii	"_state\000"
 11151      746500
 11152              	.LASF397:
 11153 0269 45455052 		.ascii	"EEPROM_DISPENSER_PUMP34_TRANSACTION_PAGE\000"
 11153      4F4D5F44 
 11153      49535045 
 11153      4E534552 
 11153      5F50554D 
 11154              	.LASF292:
 11155 0292 504F5349 		.ascii	"POSITIONA\000"
 11155      54494F4E 
 11155      4100
 11156              	.LASF293:
 11157 029c 504F5349 		.ascii	"POSITIONB\000"
 11157      54494F4E 
 11157      4200
 11158              	.LASF32:
 11159 02a6 50554D50 		.ascii	"PUMP_UNKNOWN\000"
 11159      5F554E4B 
 11159      4E4F574E 
 11159      00
 11160              	.LASF206:
 11161 02b3 44495350 		.ascii	"DISPLAY1_MESSAGE\000"
 11161      4C415931 
 11161      5F4D4553 
 11161      53414745 
 11161      00
 11162              	.LASF189:
 11163 02c4 44495350 		.ascii	"DISPENSER_UNLOCK_EOT_PUMPS\000"
 11163      454E5345 
 11163      525F554E 
 11163      4C4F434B 
 11163      5F454F54 
 11164              	.LASF117:
 11165 02df 53746F70 		.ascii	"Stop\000"
 11165      00
 11166              	.LASF133:
 11167 02e4 55415254 		.ascii	"UARTManager\000"
 11167      4D616E61 
 11167      67657200 
 11168              	.LASF261:
 11169 02f0 44495350 		.ascii	"DISPLAY_ABRIR_TURNO\000"
 11169      4C41595F 
 11169      41425249 
 11169      525F5455 
 11169      524E4F00 
 11170              	.LASF363:
 11171 0304 45455052 		.ascii	"EEPROM_CONFIGURATION_PAGE1\000"
 11171      4F4D5F43 
 11171      4F4E4649 


 11171      47555241 
 11171      54494F4E 
 11172              	.LASF250:
 11173 031f 44495350 		.ascii	"DISPLAY_CONFIGURACIONES\000"
 11173      4C41595F 
 11173      434F4E46 
 11173      49475552 
 11173      4143494F 
 11174              	.LASF400:
 11175 0337 45455052 		.ascii	"EEPROM_DISPENSER_PUMP43_TRANSACTION_PAGE\000"
 11175      4F4D5F44 
 11175      49535045 
 11175      4E534552 
 11175      5F50554D 
 11176              	.LASF18:
 11177 0360 63686172 		.ascii	"char8\000"
 11177      3800
 11178              	.LASF216:
 11179 0366 544F4747 		.ascii	"TOGGLE_SCREEN_AND_WRITE_TEST\000"
 11179      4C455F53 
 11179      43524545 
 11179      4E5F414E 
 11179      445F5752 
 11180              	.LASF196:
 11181 0383 44495350 		.ascii	"DISPENSER_ACQUIRE_TOTALS\000"
 11181      454E5345 
 11181      525F4143 
 11181      51554952 
 11181      455F544F 
 11182              	.LASF184:
 11183 039c 53494E4B 		.ascii	"SINK_RELEASE_BY_PTR\000"
 11183      5F52454C 
 11183      45415345 
 11183      5F42595F 
 11183      50545200 
 11184              	.LASF81:
 11185 03b0 5F747261 		.ascii	"_transqueue\000"
 11185      6E737175 
 11185      65756500 
 11186              	.LASF374:
 11187 03bc 45455052 		.ascii	"EEPROM_DISPENSER_PUMP1_PRODUCT_NAMES_PAGE\000"
 11187      4F4D5F44 
 11187      49535045 
 11187      4E534552 
 11187      5F50554D 
 11188              	.LASF427:
 11189 03e6 70617263 		.ascii	"parcode\000"
 11189      6F646500 
 11190              	.LASF299:
 11191 03ee 466F6E74 		.ascii	"FontData\000"
 11191      44617461 
 11191      00
 11192              	.LASF393:
 11193 03f7 45455052 		.ascii	"EEPROM_DISPENSER_PUMP24_TRANSACTION_PAGE\000"
 11193      4F4D5F44 
 11193      49535045 
 11193      4E534552 


 11193      5F50554D 
 11194              	.LASF200:
 11195 0420 5052494E 		.ascii	"PRINTER21_JOB\000"
 11195      54455232 
 11195      315F4A4F 
 11195      4200
 11196              	.LASF387:
 11197 042e 45455052 		.ascii	"EEPROM_DISPENSER_PUMP12_TRANSACTION_PAGE\000"
 11197      4F4D5F44 
 11197      49535045 
 11197      4E534552 
 11197      5F50554D 
 11198              	.LASF14:
 11199 0457 696E7438 		.ascii	"int8\000"
 11199      00
 11200              	.LASF317:
 11201 045c 5F786465 		.ascii	"_xdefpos\000"
 11201      66706F73 
 11201      00
 11202              	.LASF462:
 11203 0465 436C6561 		.ascii	"CleanMessageSink\000"
 11203      6E4D6573 
 11203      73616765 
 11203      53696E6B 
 11203      00
 11204              	.LASF370:
 11205 0476 45455052 		.ascii	"EEPROM_DISPENSER_PUMP1_LAYOUT_PAGE\000"
 11205      4F4D5F44 
 11205      49535045 
 11205      4E534552 
 11205      5F50554D 
 11206              	.LASF87:
 11207 0499 50756D70 		.ascii	"PumpTransQueueDeallocate\000"
 11207      5472616E 
 11207      73517565 
 11207      75654465 
 11207      616C6C6F 
 11208              	.LASF453:
 11209 04b2 44697370 		.ascii	"DisplayIDInputHandler\000"
 11209      6C617949 
 11209      44496E70 
 11209      75744861 
 11209      6E646C65 
 11210              	.LASF135:
 11211 04c8 5F554152 		.ascii	"_UART_MESSAGE_STATE_\000"
 11211      545F4D45 
 11211      53534147 
 11211      455F5354 
 11211      4154455F 
 11212              	.LASF474:
 11213 04dd 5F675F64 		.ascii	"_g_display2\000"
 11213      6973706C 
 11213      61793200 
 11214              	.LASF396:
 11215 04e9 45455052 		.ascii	"EEPROM_DISPENSER_PUMP33_TRANSACTION_PAGE\000"
 11215      4F4D5F44 
 11215      49535045 


 11215      4E534552 
 11215      5F50554D 
 11216              	.LASF228:
 11217 0512 44495350 		.ascii	"DISPLAY_INTRODUZCA_VALOR2\000"
 11217      4C41595F 
 11217      494E5452 
 11217      4F44555A 
 11217      43415F56 
 11218              	.LASF268:
 11219 052c 44495350 		.ascii	"DISPLAY_IDENTIFICADOR_ESTACION\000"
 11219      4C41595F 
 11219      4944454E 
 11219      54494649 
 11219      4341444F 
 11220              	.LASF208:
 11221 054b 44495350 		.ascii	"DISPLAY1_ANIMATE_HOME\000"
 11221      4C415931 
 11221      5F414E49 
 11221      4D415445 
 11221      5F484F4D 
 11222              	.LASF35:
 11223 0561 5F627566 		.ascii	"_buffer\000"
 11223      66657200 
 11224              	.LASF389:
 11225 0569 45455052 		.ascii	"EEPROM_DISPENSER_PUMP14_TRANSACTION_PAGE\000"
 11225      4F4D5F44 
 11225      49535045 
 11225      4E534552 
 11225      5F50554D 
 11226              	.LASF178:
 11227 0592 5F53494E 		.ascii	"_SINK_OBSERVABLES_\000"
 11227      4B5F4F42 
 11227      53455256 
 11227      41424C45 
 11227      535F00
 11228              	.LASF350:
 11229 05a5 5F74696D 		.ascii	"_timeoutmultiplier\000"
 11229      656F7574 
 11229      6D756C74 
 11229      69706C69 
 11229      657200
 11230              	.LASF361:
 11231 05b8 5F454550 		.ascii	"_EEPROM_MEM_FORMAT_\000"
 11231      524F4D5F 
 11231      4D454D5F 
 11231      464F524D 
 11231      41545F00 
 11232              	.LASF17:
 11233 05cc 75696E74 		.ascii	"uint64\000"
 11233      363400
 11234              	.LASF4:
 11235 05d3 6C6F6E67 		.ascii	"long int\000"
 11235      20696E74 
 11235      00
 11236              	.LASF70:
 11237 05dc 5F726F75 		.ascii	"_roundrobinstate\000"
 11237      6E64726F 


 11237      62696E73 
 11237      74617465 
 11237      00
 11238              	.LASF354:
 11239 05ed 5F706375 		.ascii	"_pcurrflow\000"
 11239      7272666C 
 11239      6F7700
 11240              	.LASF63:
 11241 05f8 5F70756D 		.ascii	"_pumpstate\000"
 11241      70737461 
 11241      746500
 11242              	.LASF463:
 11243 0603 52656C65 		.ascii	"ReleaseMessageSink\000"
 11243      6173654D 
 11243      65737361 
 11243      67655369 
 11243      6E6B00
 11244              	.LASF221:
 11245 0616 5F415641 		.ascii	"_AVAILABLE_DISPLAYS_\000"
 11245      494C4142 
 11245      4C455F44 
 11245      4953504C 
 11245      4159535F 
 11246              	.LASF294:
 11247 062b 5F73697A 		.ascii	"_size\000"
 11247      6500
 11248              	.LASF173:
 11249 0631 5F6D6573 		.ascii	"_messagetimeoutmultiplier\000"
 11249      73616765 
 11249      74696D65 
 11249      6F75746D 
 11249      756C7469 
 11250              	.LASF467:
 11251 064b 70756D70 		.ascii	"pumpid\000"
 11251      696400
 11252              	.LASF420:
 11253 0652 44697370 		.ascii	"DisplayInitializer\000"
 11253      6C617949 
 11253      6E697469 
 11253      616C697A 
 11253      657200
 11254              	.LASF142:
 11255 0665 5F6D6573 		.ascii	"_messagetx\000"
 11255      73616765 
 11255      747800
 11256              	.LASF371:
 11257 0670 45455052 		.ascii	"EEPROM_DISPENSER_PUMP2_LAYOUT_PAGE\000"
 11257      4F4D5F44 
 11257      49535045 
 11257      4E534552 
 11257      5F50554D 
 11258              	.LASF378:
 11259 0693 45455052 		.ascii	"EEPROM_DISPENSER_PUMP1_PPU_INFO_PAGE\000"
 11259      4F4D5F44 
 11259      49535045 
 11259      4E534552 
 11259      5F50554D 


 11260              	.LASF151:
 11261 06b8 55415254 		.ascii	"UART_DISPLAY1\000"
 11261      5F444953 
 11261      504C4159 
 11261      3100
 11262              	.LASF152:
 11263 06c6 55415254 		.ascii	"UART_DISPLAY2\000"
 11263      5F444953 
 11263      504C4159 
 11263      3200
 11264              	.LASF248:
 11265 06d4 44495350 		.ascii	"DISPLAY_INTRODUZCA_KILOMETRAJE\000"
 11265      4C41595F 
 11265      494E5452 
 11265      4F44555A 
 11265      43415F4B 
 11266              	.LASF278:
 11267 06f3 44495350 		.ascii	"DISPLAY_CREDIT_AUTHORIZATION_ACCEPTED\000"
 11267      4C41595F 
 11267      43524544 
 11267      49545F41 
 11267      5554484F 
 11268              	.LASF211:
 11269 0719 44495350 		.ascii	"DISPLAY2_UPDATE_DATETIME\000"
 11269      4C415932 
 11269      5F555044 
 11269      4154455F 
 11269      44415445 
 11270              	.LASF360:
 11271 0732 50444953 		.ascii	"PDISPLAYLAYOUTPTR\000"
 11271      504C4159 
 11271      4C41594F 
 11271      55545054 
 11271      5200
 11272              	.LASF203:
 11273 0744 5052494E 		.ascii	"PRINTER2_GENERIC_JOB\000"
 11273      54455232 
 11273      5F47454E 
 11273      45524943 
 11273      5F4A4F42 
 11274              	.LASF254:
 11275 0759 44495350 		.ascii	"DISPLAY_POR_FAVOR_ESPERE\000"
 11275      4C41595F 
 11275      504F525F 
 11275      4641564F 
 11275      525F4553 
 11276              	.LASF259:
 11277 0772 44495350 		.ascii	"DISPLAY_FECHA\000"
 11277      4C41595F 
 11277      46454348 
 11277      4100
 11278              	.LASF276:
 11279 0780 5F444953 		.ascii	"_DISPLAY_STATES_\000"
 11279      504C4159 
 11279      5F535441 
 11279      5445535F 
 11279      00


 11280              	.LASF0:
 11281 0791 7369676E 		.ascii	"signed char\000"
 11281      65642063 
 11281      68617200 
 11282              	.LASF22:
 11283 079d 504E4541 		.ascii	"PNEAR_BYTE_PTR\000"
 11283      525F4259 
 11283      54455F50 
 11283      545200
 11284              	.LASF242:
 11285 07ac 44495350 		.ascii	"DISPLAY_ID_DIGITAL\000"
 11285      4C41595F 
 11285      49445F44 
 11285      49474954 
 11285      414C00
 11286              	.LASF240:
 11287 07bf 44495350 		.ascii	"DISPLAY_TIEMPO_EXPIRADO\000"
 11287      4C41595F 
 11287      5449454D 
 11287      504F5F45 
 11287      58504952 
 11288              	.LASF125:
 11289 07d7 436C6561 		.ascii	"ClearRxBuffer\000"
 11289      72527842 
 11289      75666665 
 11289      7200
 11290              	.LASF459:
 11291 07e5 44697370 		.ascii	"DisplayInputPasswordHandler\000"
 11291      6C617949 
 11291      6E707574 
 11291      50617373 
 11291      776F7264 
 11292              	.LASF122:
 11293 0801 47657443 		.ascii	"GetChar\000"
 11293      68617200 
 11294              	.LASF388:
 11295 0809 45455052 		.ascii	"EEPROM_DISPENSER_PUMP13_TRANSACTION_PAGE\000"
 11295      4F4D5F44 
 11295      49535045 
 11295      4E534552 
 11295      5F50554D 
 11296              	.LASF429:
 11297 0832 50617273 		.ascii	"ParseDisplayFlow\000"
 11297      65446973 
 11297      706C6179 
 11297      466C6F77 
 11297      00
 11298              	.LASF264:
 11299 0843 44495350 		.ascii	"DISPLAY_USUARIO_VALIDO\000"
 11299      4C41595F 
 11299      55535541 
 11299      52494F5F 
 11299      56414C49 
 11300              	.LASF472:
 11301 085a 5F675F62 		.ascii	"_g_buffscrlut\000"
 11301      75666673 
 11301      63726C75 


 11301      7400
 11302              	.LASF262:
 11303 0868 44495350 		.ascii	"DISPLAY_CERRAR_TURNO\000"
 11303      4C41595F 
 11303      43455252 
 11303      41525F54 
 11303      55524E4F 
 11304              	.LASF313:
 11305 087d 5F726566 		.ascii	"_refscrid\000"
 11305      73637269 
 11305      6400
 11306              	.LASF412:
 11307 0887 70646973 		.ascii	"pdisplay\000"
 11307      706C6179 
 11307      00
 11308              	.LASF251:
 11309 0890 44495350 		.ascii	"DISPLAY_SELECCIONE_POSICION\000"
 11309      4C41595F 
 11309      53454C45 
 11309      4343494F 
 11309      4E455F50 
 11310              	.LASF295:
 11311 08ac 5F666163 		.ascii	"_face\000"
 11311      6500
 11312              	.LASF413:
 11313 08b2 70646973 		.ascii	"pdispflow\000"
 11313      70666C6F 
 11313      7700
 11314              	.LASF138:
 11315 08bc 50454E44 		.ascii	"PENDING\000"
 11315      494E4700 
 11316              	.LASF207:
 11317 08c4 44495350 		.ascii	"DISPLAY1_UPDATE_DATETIME\000"
 11317      4C415931 
 11317      5F555044 
 11317      4154455F 
 11317      44415445 
 11318              	.LASF1:
 11319 08dd 756E7369 		.ascii	"unsigned char\000"
 11319      676E6564 
 11319      20636861 
 11319      7200
 11320              	.LASF97:
 11321 08eb 5F6E756D 		.ascii	"_numpositions\000"
 11321      706F7369 
 11321      74696F6E 
 11321      7300
 11322              	.LASF227:
 11323 08f9 44495350 		.ascii	"DISPLAY_INTRODUZCA_VALOR\000"
 11323      4C41595F 
 11323      494E5452 
 11323      4F44555A 
 11323      43415F56 
 11324              	.LASF289:
 11325 0912 44495350 		.ascii	"DISPLAY_VALID_PASSWORD\000"
 11325      4C41595F 
 11325      56414C49 


 11325      445F5041 
 11325      5353574F 
 11326              	.LASF58:
 11327 0929 5F736572 		.ascii	"_serial\000"
 11327      69616C00 
 11328              	.LASF253:
 11329 0931 44495350 		.ascii	"DISPLAY_ESPERANDO_AUTORIZACION\000"
 11329      4C41595F 
 11329      45535045 
 11329      52414E44 
 11329      4F5F4155 
 11330              	.LASF324:
 11331 0950 5F706172 		.ascii	"_parentcode\000"
 11331      656E7463 
 11331      6F646500 
 11332              	.LASF452:
 11333 095c 70756172 		.ascii	"puartdisp\000"
 11333      74646973 
 11333      7000
 11334              	.LASF109:
 11335 0966 5F707265 		.ascii	"_presetdigits\000"
 11335      73657464 
 11335      69676974 
 11335      7300
 11336              	.LASF340:
 11337 0974 5F79706F 		.ascii	"_ypos\000"
 11337      7300
 11338              	.LASF165:
 11339 097a 53494E4B 		.ascii	"SINK_ALLOCATED\000"
 11339      5F414C4C 
 11339      4F434154 
 11339      454400
 11340              	.LASF192:
 11341 0989 44495350 		.ascii	"DISPENSER_ACQUIRE_CONFIGURATION_INFORMATION\000"
 11341      454E5345 
 11341      525F4143 
 11341      51554952 
 11341      455F434F 
 11342              	.LASF171:
 11343 09b5 5F6D6573 		.ascii	"_messagedelay\000"
 11343      73616765 
 11343      64656C61 
 11343      7900
 11344              	.LASF104:
 11345 09c3 5F766F6C 		.ascii	"_volumedecimals\000"
 11345      756D6564 
 11345      6563696D 
 11345      616C7300 
 11346              	.LASF59:
 11347 09d3 5F426F6F 		.ascii	"_Bool\000"
 11347      6C00
 11348              	.LASF323:
 11349 09d9 5F706172 		.ascii	"_parentscrid\000"
 11349      656E7473 
 11349      63726964 
 11349      00
 11350              	.LASF99:


 11351 09e6 5F686F73 		.ascii	"_hosesposition2\000"
 11351      6573706F 
 11351      73697469 
 11351      6F6E3200 
 11352              	.LASF57:
 11353 09f6 5F766F6C 		.ascii	"_volumeamount\000"
 11353      756D6561 
 11353      6D6F756E 
 11353      7400
 11354              	.LASF336:
 11355 0a04 5F66696E 		.ascii	"_finalizer\000"
 11355      616C697A 
 11355      657200
 11356              	.LASF126:
 11357 0a0f 57726974 		.ascii	"WriteTxData\000"
 11357      65547844 
 11357      61746100 
 11358              	.LASF307:
 11359 0a1b 46505452 		.ascii	"FPTRINPUTHANDLER\000"
 11359      494E5055 
 11359      5448414E 
 11359      444C4552 
 11359      00
 11360              	.LASF421:
 11361 0a2c 44697370 		.ascii	"DisplayFinalizer\000"
 11361      6C617946 
 11361      696E616C 
 11361      697A6572 
 11361      00
 11362              	.LASF93:
 11363 0a3d 436C6561 		.ascii	"CleanUp\000"
 11363      6E557000 
 11364              	.LASF193:
 11365 0a45 44495350 		.ascii	"DISPENSER_CONFIGURE_PRICES\000"
 11365      454E5345 
 11365      525F434F 
 11365      4E464947 
 11365      5552455F 
 11366              	.LASF89:
 11367 0a60 50756D70 		.ascii	"PumpTransQueueDequeue\000"
 11367      5472616E 
 11367      73517565 
 11367      75654465 
 11367      71756575 
 11368              	.LASF19:
 11369 0a76 63686172 		.ascii	"char\000"
 11369      00
 11370              	.LASF402:
 11371 0a7b 78706F73 		.ascii	"xpos\000"
 11371      00
 11372              	.LASF266:
 11373 0a80 44495350 		.ascii	"DISPLAY_AMBAS_IMPRESORAS_FUNCIONANDO\000"
 11373      4C41595F 
 11373      414D4241 
 11373      535F494D 
 11373      50524553 
 11374              	.LASF161:


 11375 0aa5 42524F41 		.ascii	"BROADCASTFOREVER\000"
 11375      44434153 
 11375      54464F52 
 11375      45564552 
 11375      00
 11376              	.LASF475:
 11377 0ab6 5F675F64 		.ascii	"_g_displaystarting\000"
 11377      6973706C 
 11377      61797374 
 11377      61727469 
 11377      6E6700
 11378              	.LASF442:
 11379 0ac9 56616C69 		.ascii	"ValidatePumpAvailability4Positions\000"
 11379      64617465 
 11379      50756D70 
 11379      41766169 
 11379      6C616269 
 11380              	.LASF437:
 11381 0aec 72656D70 		.ascii	"remplaces\000"
 11381      6C616365 
 11381      7300
 11382              	.LASF210:
 11383 0af6 44495350 		.ascii	"DISPLAY2_MESSAGE\000"
 11383      4C415932 
 11383      5F4D4553 
 11383      53414745 
 11383      00
 11384              	.LASF76:
 11385 0b07 5F747261 		.ascii	"_transhealth\000"
 11385      6E736865 
 11385      616C7468 
 11385      00
 11386              	.LASF314:
 11387 0b14 5F627566 		.ascii	"_bufferpos\000"
 11387      66657270 
 11387      6F7300
 11388              	.LASF355:
 11389 0b1f 5F707265 		.ascii	"_preferenceflow\000"
 11389      66657265 
 11389      6E636566 
 11389      6C6F7700 
 11390              	.LASF149:
 11391 0b2f 55415254 		.ascii	"UART_PRINTER\000"
 11391      5F505249 
 11391      4E544552 
 11391      00
 11392              	.LASF375:
 11393 0b3c 45455052 		.ascii	"EEPROM_DISPENSER_PUMP2_PRODUCT_NAMES_PAGE\000"
 11393      4F4D5F44 
 11393      49535045 
 11393      4E534552 
 11393      5F50554D 
 11394              	.LASF102:
 11395 0b66 5F6D6F6E 		.ascii	"_moneydecimals\000"
 11395      65796465 
 11395      63696D61 
 11395      6C7300


 11396              	.LASF304:
 11397 0b75 46696E61 		.ascii	"Finalizer\000"
 11397      6C697A65 
 11397      7200
 11398              	.LASF121:
 11399 0b7f 52656164 		.ascii	"ReadRxStatus\000"
 11399      52785374 
 11399      61747573 
 11399      00
 11400              	.LASF106:
 11401 0b8c 5F6D696E 		.ascii	"_minmoneyvalue\000"
 11401      6D6F6E65 
 11401      7976616C 
 11401      756500
 11402              	.LASF356:
 11403 0b9b 5F627566 		.ascii	"_bufferinfo\000"
 11403      66657269 
 11403      6E666F00 
 11404              	.LASF71:
 11405 0ba7 5F706F73 		.ascii	"_positionlocked\000"
 11405      6974696F 
 11405      6E6C6F63 
 11405      6B656400 
 11406              	.LASF392:
 11407 0bb7 45455052 		.ascii	"EEPROM_DISPENSER_PUMP23_TRANSACTION_PAGE\000"
 11407      4F4D5F44 
 11407      49535045 
 11407      4E534552 
 11407      5F50554D 
 11408              	.LASF327:
 11409 0be0 5F706174 		.ascii	"_pathcodes\000"
 11409      68636F64 
 11409      657300
 11410              	.LASF131:
 11411 0beb 50757443 		.ascii	"PutCRLF\000"
 11411      524C4600 
 11412              	.LASF287:
 11413 0bf3 44495350 		.ascii	"DISPLAY_NEW_PASSWORD\000"
 11413      4C41595F 
 11413      4E45575F 
 11413      50415353 
 11413      574F5244 
 11414              	.LASF404:
 11415 0c08 70627566 		.ascii	"pbuffer\000"
 11415      66657200 
 11416              	.LASF82:
 11417 0c10 5F747261 		.ascii	"_transqueuelocked\000"
 11417      6E737175 
 11417      6575656C 
 11417      6F636B65 
 11417      6400
 11418              	.LASF298:
 11419 0c22 5F666F72 		.ascii	"_forecolor\000"
 11419      65636F6C 
 11419      6F7200
 11420              	.LASF202:
 11421 0c2d 5052494E 		.ascii	"PRINTER1_GENERIC_JOB\000"


 11421      54455231 
 11421      5F47454E 
 11421      45524943 
 11421      5F4A4F42 
 11422              	.LASF450:
 11423 0c42 44697370 		.ascii	"DisplayInputHandler\000"
 11423      6C617949 
 11423      6E707574 
 11423      48616E64 
 11423      6C657200 
 11424              	.LASF233:
 11425 0c56 44495350 		.ascii	"DISPLAY_BAJE_MANIJA\000"
 11425      4C41595F 
 11425      42414A45 
 11425      5F4D414E 
 11425      494A4100 
 11426              	.LASF351:
 11427 0c6a 5F76616C 		.ascii	"_val0\000"
 11427      3000
 11428              	.LASF199:
 11429 0c70 5052494E 		.ascii	"PRINTER12_JOB\000"
 11429      54455231 
 11429      325F4A4F 
 11429      4200
 11430              	.LASF373:
 11431 0c7e 45455052 		.ascii	"EEPROM_DISPENSER_PUMP4_LAYOUT_PAGE\000"
 11431      4F4D5F44 
 11431      49535045 
 11431      4E534552 
 11431      5F50554D 
 11432              	.LASF172:
 11433 0ca1 5F6D6573 		.ascii	"_messagetimeout\000"
 11433      73616765 
 11433      74696D65 
 11433      6F757400 
 11434              	.LASF226:
 11435 0cb1 44495350 		.ascii	"DISPLAY_FORMA_PROGRAMACION\000"
 11435      4C41595F 
 11435      464F524D 
 11435      415F5052 
 11435      4F475241 
 11436              	.LASF136:
 11437 0ccc 46524545 		.ascii	"FREE\000"
 11437      00
 11438              	.LASF129:
 11439 0cd1 50757453 		.ascii	"PutString\000"
 11439      7472696E 
 11439      6700
 11440              	.LASF115:
 11441 0cdb 43757374 		.ascii	"CustomUARTSend\000"
 11441      6F6D5541 
 11441      52545365 
 11441      6E6400
 11442              	.LASF305:
 11443 0cea 46505452 		.ascii	"FPTRDECORATOR\000"
 11443      4445434F 
 11443      5241544F 


 11443      5200
 11444              	.LASF204:
 11445 0cf8 44495350 		.ascii	"DISPLAY_UPDATE_PUMP_STATE\000"
 11445      4C41595F 
 11445      55504441 
 11445      54455F50 
 11445      554D505F 
 11446              	.LASF286:
 11447 0d12 44495350 		.ascii	"DISPLAY_WORK_SHIFT_OPERATOR_REJECTED\000"
 11447      4C41595F 
 11447      574F524B 
 11447      5F534849 
 11447      46545F4F 
 11448              	.LASF302:
 11449 0d37 496E7075 		.ascii	"InputHandler\000"
 11449      7448616E 
 11449      646C6572 
 11449      00
 11450              	.LASF103:
 11451 0d44 5F707075 		.ascii	"_ppudecimals\000"
 11451      64656369 
 11451      6D616C73 
 11451      00
 11452              	.LASF222:
 11453 0d51 44495350 		.ascii	"DISPLAY_INICIO0\000"
 11453      4C41595F 
 11453      494E4943 
 11453      494F3000 
 11454              	.LASF223:
 11455 0d61 44495350 		.ascii	"DISPLAY_INICIO1\000"
 11455      4C41595F 
 11455      494E4943 
 11455      494F3100 
 11456              	.LASF224:
 11457 0d71 44495350 		.ascii	"DISPLAY_INICIO2\000"
 11457      4C41595F 
 11457      494E4943 
 11457      494F3200 
 11458              	.LASF159:
 11459 0d81 44454C41 		.ascii	"DELAYEDALLINTERESTED\000"
 11459      59454441 
 11459      4C4C494E 
 11459      54455245 
 11459      53544544 
 11460              	.LASF79:
 11461 0d96 5F727862 		.ascii	"_rxbuffer\000"
 11461      75666665 
 11461      7200
 11462              	.LASF432:
 11463 0da0 53656375 		.ascii	"SecureConfigurationValidator\000"
 11463      7265436F 
 11463      6E666967 
 11463      75726174 
 11463      696F6E56 
 11464              	.LASF38:
 11465 0dbd 504E4541 		.ascii	"PNEAR_PUMPTRANSACTIONALSTATEPTR\000"
 11465      525F5055 


 11465      4D505452 
 11465      414E5341 
 11465      4354494F 
 11466              	.LASF346:
 11467 0ddd 5F637572 		.ascii	"_currscrcode\000"
 11467      72736372 
 11467      636F6465 
 11467      00
 11468              	.LASF265:
 11469 0dea 44495350 		.ascii	"DISPLAY_USUARIO_INVALIDO\000"
 11469      4C41595F 
 11469      55535541 
 11469      52494F5F 
 11469      494E5641 
 11470              	.LASF444:
 11471 0e03 47657450 		.ascii	"GetPumpsAvailability\000"
 11471      756D7073 
 11471      41766169 
 11471      6C616269 
 11471      6C697479 
 11472              	.LASF438:
 11473 0e18 64617461 		.ascii	"datavalue\000"
 11473      76616C75 
 11473      6500
 11474              	.LASF381:
 11475 0e22 45455052 		.ascii	"EEPROM_DISPENSER_PUMP4_PPU_INFO_PAGE\000"
 11475      4F4D5F44 
 11475      49535045 
 11475      4E534552 
 11475      5F50554D 
 11476              	.LASF78:
 11477 0e47 5F747261 		.ascii	"_trasactionbuffer\000"
 11477      73616374 
 11477      696F6E62 
 11477      75666665 
 11477      7200
 11478              	.LASF478:
 11479 0e59 2E5C4469 		.ascii	".\\DisplayUtils.c\000"
 11479      73706C61 
 11479      79557469 
 11479      6C732E63 
 11479      00
 11480              	.LASF347:
 11481 0e6a 5F637572 		.ascii	"_currentstate\000"
 11481      72656E74 
 11481      73746174 
 11481      6500
 11482              	.LASF469:
 11483 0e78 5F675F70 		.ascii	"_g_pumps\000"
 11483      756D7073 
 11483      00
 11484              	.LASF414:
 11485 0e81 696E6465 		.ascii	"index\000"
 11485      7800
 11486              	.LASF464:
 11487 0e87 7073696E 		.ascii	"psinkmsg\000"
 11487      6B6D7367 


 11487      00
 11488              	.LASF285:
 11489 0e90 44495350 		.ascii	"DISPLAY_WORK_SHIFT_OPERATOR_ACCEPTED\000"
 11489      4C41595F 
 11489      574F524B 
 11489      5F534849 
 11489      46545F4F 
 11490              	.LASF168:
 11491 0eb5 5F73656C 		.ascii	"_selfkill\000"
 11491      666B696C 
 11491      6C00
 11492              	.LASF60:
 11493 0ebf 50756D70 		.ascii	"PumpAuthorizationInfo\000"
 11493      41757468 
 11493      6F72697A 
 11493      6174696F 
 11493      6E496E66 
 11494              	.LASF382:
 11495 0ed5 45455052 		.ascii	"EEPROM_INSEPET_RESERVED_PAGE1\000"
 11495      4F4D5F49 
 11495      4E534550 
 11495      45545F52 
 11495      45534552 
 11496              	.LASF383:
 11497 0ef3 45455052 		.ascii	"EEPROM_INSEPET_RESERVED_PAGE2\000"
 11497      4F4D5F49 
 11497      4E534550 
 11497      45545F52 
 11497      45534552 
 11498              	.LASF384:
 11499 0f11 45455052 		.ascii	"EEPROM_INSEPET_RESERVED_PAGE3\000"
 11499      4F4D5F49 
 11499      4E534550 
 11499      45545F52 
 11499      45534552 
 11500              	.LASF385:
 11501 0f2f 45455052 		.ascii	"EEPROM_INSEPET_RESERVED_PAGE4\000"
 11501      4F4D5F49 
 11501      4E534550 
 11501      45545F52 
 11501      45534552 
 11502              	.LASF75:
 11503 0f4d 5F727476 		.ascii	"_rtvolumeamount\000"
 11503      6F6C756D 
 11503      65616D6F 
 11503      756E7400 
 11504              	.LASF377:
 11505 0f5d 45455052 		.ascii	"EEPROM_DISPENSER_PUMP4_PRODUCT_NAMES_PAGE\000"
 11505      4F4D5F44 
 11505      49535045 
 11505      4E534552 
 11505      5F50554D 
 11506              	.LASF338:
 11507 0f87 50444953 		.ascii	"PDISPLAYFLOWPTR\000"
 11507      504C4159 
 11507      464C4F57 
 11507      50545200 


 11508              	.LASF162:
 11509 0f97 414C4C49 		.ascii	"ALLINTERESTEDFOREVER\000"
 11509      4E544552 
 11509      45535445 
 11509      44464F52 
 11509      45564552 
 11510              	.LASF95:
 11511 0fac 5F696E63 		.ascii	"_inconfiguration\000"
 11511      6F6E6669 
 11511      67757261 
 11511      74696F6E 
 11511      00
 11512              	.LASF348:
 11513 0fbd 5F737461 		.ascii	"_statechangescrid\000"
 11513      74656368 
 11513      616E6765 
 11513      73637269 
 11513      6400
 11514              	.LASF428:
 11515 0fcf 70617273 		.ascii	"parscrid\000"
 11515      63726964 
 11515      00
 11516              	.LASF320:
 11517 0fd8 5F666F6E 		.ascii	"_font\000"
 11517      7400
 11518              	.LASF5:
 11519 0fde 6C6F6E67 		.ascii	"long unsigned int\000"
 11519      20756E73 
 11519      69676E65 
 11519      6420696E 
 11519      7400
 11520              	.LASF326:
 11521 0ff0 5F74696D 		.ascii	"_timeoutscrid\000"
 11521      656F7574 
 11521      73637269 
 11521      6400
 11522              	.LASF451:
 11523 0ffe 6D617070 		.ascii	"mappedchar\000"
 11523      65646368 
 11523      617200
 11524              	.LASF270:
 11525 1009 44495350 		.ascii	"DISPLAY_DUMMY0\000"
 11525      4C41595F 
 11525      44554D4D 
 11525      593000
 11526              	.LASF271:
 11527 1018 44495350 		.ascii	"DISPLAY_DUMMY1\000"
 11527      4C41595F 
 11527      44554D4D 
 11527      593100
 11528              	.LASF272:
 11529 1027 44495350 		.ascii	"DISPLAY_DUMMY2\000"
 11529      4C41595F 
 11529      44554D4D 
 11529      593200
 11530              	.LASF273:
 11531 1036 44495350 		.ascii	"DISPLAY_DUMMY3\000"


 11531      4C41595F 
 11531      44554D4D 
 11531      593300
 11532              	.LASF417:
 11533 1045 70726574 		.ascii	"pretval\000"
 11533      76616C00 
 11534              	.LASF213:
 11535 104d 49425554 		.ascii	"IBUTTON1_SCAN\000"
 11535      544F4E31 
 11535      5F534341 
 11535      4E00
 11536              	.LASF175:
 11537 105b 5F706461 		.ascii	"_pdata\000"
 11537      746100
 11538              	.LASF258:
 11539 1062 44495350 		.ascii	"DISPLAY_HORA\000"
 11539      4C41595F 
 11539      484F5241 
 11539      00
 11540              	.LASF186:
 11541 106f 44495350 		.ascii	"DISPENSER_UPDATE_STATE1\000"
 11541      454E5345 
 11541      525F5550 
 11541      44415445 
 11541      5F535441 
 11542              	.LASF187:
 11543 1087 44495350 		.ascii	"DISPENSER_UPDATE_STATE2\000"
 11543      454E5345 
 11543      525F5550 
 11543      44415445 
 11543      5F535441 
 11544              	.LASF128:
 11545 109f 50757443 		.ascii	"PutChar\000"
 11545      68617200 
 11546              	.LASF279:
 11547 10a7 44495350 		.ascii	"DISPLAY_CREDIT_AUTHORIZATION_REJECTED\000"
 11547      4C41595F 
 11547      43524544 
 11547      49545F41 
 11547      5554484F 
 11548              	.LASF440:
 11549 10cd 4E6F6E45 		.ascii	"NonEmptyVolumeValidator\000"
 11549      6D707479 
 11549      566F6C75 
 11549      6D655661 
 11549      6C696461 
 11550              	.LASF331:
 11551 10e5 5F646563 		.ascii	"_decorator\000"
 11551      6F726174 
 11551      6F7200
 11552              	.LASF309:
 11553 10f0 46505452 		.ascii	"FPTRFINALIZER\000"
 11553      46494E41 
 11553      4C495A45 
 11553      5200
 11554              	.LASF150:
 11555 10fe 55415254 		.ascii	"UART_DISPENSER\000"


 11555      5F444953 
 11555      50454E53 
 11555      455200
 11556              	.LASF245:
 11557 110d 44495350 		.ascii	"DISPLAY_ID_RECONOCIDO\000"
 11557      4C41595F 
 11557      49445F52 
 11557      45434F4E 
 11557      4F434944 
 11558              	.LASF408:
 11559 1123 72657476 		.ascii	"retval\000"
 11559      616C00
 11560              	.LASF399:
 11561 112a 45455052 		.ascii	"EEPROM_DISPENSER_PUMP42_TRANSACTION_PAGE\000"
 11561      4F4D5F44 
 11561      49535045 
 11561      4E534552 
 11561      5F50554D 
 11562              	.LASF217:
 11563 1153 57415443 		.ascii	"WATCHDOG_STARTUP\000"
 11563      48444F47 
 11563      5F535441 
 11563      52545550 
 11563      00
 11564              	.LASF267:
 11565 1164 44495350 		.ascii	"DISPLAY_IMPRESORA_NO_FUNCIONANDO\000"
 11565      4C41595F 
 11565      494D5052 
 11565      45534F52 
 11565      415F4E4F 
 11566              	.LASF132:
 11567 1185 436C6561 		.ascii	"ClearTxBuffer\000"
 11567      72547842 
 11567      75666665 
 11567      7200
 11568              	.LASF441:
 11569 1193 4E6F6E45 		.ascii	"NonEmpty15ModuloValidator\000"
 11569      6D707479 
 11569      31354D6F 
 11569      64756C6F 
 11569      56616C69 
 11570              	.LASF236:
 11571 11ad 44495350 		.ascii	"DISPLAY_INGRESE_PASSWORD\000"
 11571      4C41595F 
 11571      494E4752 
 11571      4553455F 
 11571      50415353 
 11572              	.LASF321:
 11573 11c6 44697370 		.ascii	"DisplayInputBox\000"
 11573      6C617949 
 11573      6E707574 
 11573      426F7800 
 11574              	.LASF6:
 11575 11d6 6C6F6E67 		.ascii	"long long int\000"
 11575      206C6F6E 
 11575      6720696E 
 11575      7400


 11576              	.LASF255:
 11577 11e4 44495350 		.ascii	"DISPLAY_AUTORIZACION_ACEPTADA\000"
 11577      4C41595F 
 11577      4155544F 
 11577      52495A41 
 11577      43494F4E 
 11578              	.LASF457:
 11579 1202 44697370 		.ascii	"DisplayMoneyInputHandler\000"
 11579      6C61794D 
 11579      6F6E6579 
 11579      496E7075 
 11579      7448616E 
 11580              	.LASF358:
 11581 121b 44697370 		.ascii	"DisplayValidator\000"
 11581      6C617956 
 11581      616C6964 
 11581      61746F72 
 11581      00
 11582              	.LASF235:
 11583 122c 44495350 		.ascii	"DISPLAY_DESEA_IMPRIMIR_RECIBO\000"
 11583      4C41595F 
 11583      44455345 
 11583      415F494D 
 11583      5052494D 
 11584              	.LASF241:
 11585 124a 44495350 		.ascii	"DISPLAY_GRACIAS_VUELVA_PRONTO\000"
 11585      4C41595F 
 11585      47524143 
 11585      4941535F 
 11585      5655454C 
 11586              	.LASF185:
 11587 1268 44495350 		.ascii	"DISPENSER_UPDATE_PUMP_TRANSACTION_TIMEOUTS\000"
 11587      454E5345 
 11587      525F5550 
 11587      44415445 
 11587      5F50554D 
 11588              	.LASF405:
 11589 1293 70737472 		.ascii	"pstring\000"
 11589      696E6700 
 11590              	.LASF433:
 11591 129b 53747269 		.ascii	"StringPass\000"
 11591      6E675061 
 11591      737300
 11592              	.LASF422:
 11593 12a6 50617273 		.ascii	"ParseDisplayStream\000"
 11593      65446973 
 11593      706C6179 
 11593      53747265 
 11593      616D00
 11594              	.LASF198:
 11595 12b9 5052494E 		.ascii	"PRINTER11_JOB\000"
 11595      54455231 
 11595      315F4A4F 
 11595      4200
 11596              	.LASF344:
 11597 12c7 5F73696E 		.ascii	"_sinktarget\000"
 11597      6B746172 


 11597      67657400 
 11598              	.LASF446:
 11599 12d3 47657450 		.ascii	"GetPumpsPrintState\000"
 11599      756D7073 
 11599      5072696E 
 11599      74537461 
 11599      746500
 11600              	.LASF306:
 11601 12e6 46505452 		.ascii	"FPTRINPUTVALIDATOR\000"
 11601      494E5055 
 11601      5456414C 
 11601      49444154 
 11601      4F5200
 11602              	.LASF329:
 11603 12f9 5F737461 		.ascii	"_statecodes\000"
 11603      7465636F 
 11603      64657300 
 11604              	.LASF16:
 11605 1305 646F7562 		.ascii	"double\000"
 11605      6C6500
 11606              	.LASF395:
 11607 130c 45455052 		.ascii	"EEPROM_DISPENSER_PUMP32_TRANSACTION_PAGE\000"
 11607      4F4D5F44 
 11607      49535045 
 11607      4E534552 
 11607      5F50554D 
 11608              	.LASF237:
 11609 1335 44495350 		.ascii	"DISPLAY_PASSWORD_VALIDO\000"
 11609      4C41595F 
 11609      50415353 
 11609      574F5244 
 11609      5F56414C 
 11610              	.LASF479:
 11611 134d 433A5C54 		.ascii	"C:\\TeamInsepet\\NSX-Prime\\Hardware\\CorEx-MUX-Ker"
 11611      65616D49 
 11611      6E736570 
 11611      65745C4E 
 11611      53582D50 
 11612 137c 6E656C2D 		.ascii	"nel-Enhanced\\Workspace01\\CorEx-Mux-Kernel.cydsn\000"
 11612      456E6861 
 11612      6E636564 
 11612      5C576F72 
 11612      6B737061 
 11613              	.LASF322:
 11614 13ac 5F736372 		.ascii	"_scrid\000"
 11614      696400
 11615              	.LASF229:
 11616 13b3 44495350 		.ascii	"DISPLAY_SELECCIONE_PRODUCTO3\000"
 11616      4C41595F 
 11616      53454C45 
 11616      4343494F 
 11616      4E455F50 
 11617              	.LASF230:
 11618 13d0 44495350 		.ascii	"DISPLAY_SELECCIONE_PRODUCTO4\000"
 11618      4C41595F 
 11618      53454C45 
 11618      4343494F 


 11618      4E455F50 
 11619              	.LASF436:
 11620 13ed 74656D70 		.ascii	"tempbuffer\000"
 11620      62756666 
 11620      657200
 11621              	.LASF416:
 11622 13f8 44697370 		.ascii	"DisplayFlowInputValidator\000"
 11622      6C617946 
 11622      6C6F7749 
 11622      6E707574 
 11622      56616C69 
 11623              	.LASF238:
 11624 1412 44495350 		.ascii	"DISPLAY_PASSWORD_INVALIDO\000"
 11624      4C41595F 
 11624      50415353 
 11624      574F5244 
 11624      5F494E56 
 11625              	.LASF74:
 11626 142c 5F72746D 		.ascii	"_rtmoneyamount\000"
 11626      6F6E6579 
 11626      616D6F75 
 11626      6E7400
 11627              	.LASF468:
 11628 143b 49544D5F 		.ascii	"ITM_RxBuffer\000"
 11628      52784275 
 11628      66666572 
 11628      00
 11629              	.LASF349:
 11630 1448 5F74696D 		.ascii	"_timeoutreftick\000"
 11630      656F7574 
 11630      72656674 
 11630      69636B00 
 11631              	.LASF25:
 11632 1458 50554D50 		.ascii	"PUMP_CALLING\000"
 11632      5F43414C 
 11632      4C494E47 
 11632      00
 11633              	.LASF15:
 11634 1465 666C6F61 		.ascii	"float\000"
 11634      7400
 11635              	.LASF398:
 11636 146b 45455052 		.ascii	"EEPROM_DISPENSER_PUMP41_TRANSACTION_PAGE\000"
 11636      4F4D5F44 
 11636      49535045 
 11636      4E534552 
 11636      5F50554D 
 11637              	.LASF426:
 11638 1494 73637269 		.ascii	"scrid\000"
 11638      6400
 11639              	.LASF342:
 11640 149a 44697370 		.ascii	"DisplayBuffer\000"
 11640      6C617942 
 11640      75666665 
 11640      7200
 11641              	.LASF51:
 11642 14a8 50756D70 		.ascii	"PumpDataContainer\000"
 11642      44617461 


 11642      436F6E74 
 11642      61696E65 
 11642      7200
 11643              	.LASF281:
 11644 14ba 44495350 		.ascii	"DISPLAY_HOSE_ACTIVATED\000"
 11644      4C41595F 
 11644      484F5345 
 11644      5F414354 
 11644      49564154 
 11645              	.LASF367:
 11646 14d1 45455052 		.ascii	"EEPROM_CONFIGURATION_PAGE5\000"
 11646      4F4D5F43 
 11646      4F4E4649 
 11646      47555241 
 11646      54494F4E 
 11647              	.LASF55:
 11648 14ec 5F707269 		.ascii	"_price\000"
 11648      636500
 11649              	.LASF8:
 11650 14f3 756E7369 		.ascii	"unsigned int\000"
 11650      676E6564 
 11650      20696E74 
 11650      00
 11651              	.LASF310:
 11652 1500 5F726566 		.ascii	"_refchar\000"
 11652      63686172 
 11652      00
 11653              	.LASF127:
 11654 1509 52656164 		.ascii	"ReadTxStatus\000"
 11654      54785374 
 11654      61747573 
 11654      00
 11655              	.LASF218:
 11656 1516 5F707269 		.ascii	"_printerportside1\000"
 11656      6E746572 
 11656      706F7274 
 11656      73696465 
 11656      3100
 11657              	.LASF177:
 11658 1528 5053494E 		.ascii	"PSINKMESSAGEPTR\000"
 11658      4B4D4553 
 11658      53414745 
 11658      50545200 
 11659              	.LASF406:
 11660 1538 62756666 		.ascii	"buffersize\000"
 11660      65727369 
 11660      7A6500
 11661              	.LASF234:
 11662 1543 44495350 		.ascii	"DISPLAY_DIGITE_PLACA\000"
 11662      4C41595F 
 11662      44494749 
 11662      54455F50 
 11662      4C414341 
 11663              	.LASF67:
 11664 1558 5F726573 		.ascii	"_restoreprice\000"
 11664      746F7265 
 11664      70726963 


 11664      6500
 11665              	.LASF352:
 11666 1566 5F76616C 		.ascii	"_val1\000"
 11666      3100
 11667              	.LASF113:
 11668 156c 5F554152 		.ascii	"_UART_MANAGER_\000"
 11668      545F4D41 
 11668      4E414745 
 11668      525F00
 11669              	.LASF303:
 11670 157b 496E6974 		.ascii	"Initializer\000"
 11670      69616C69 
 11670      7A657200 
 11671              	.LASF448:
 11672 1587 6E756D68 		.ascii	"numhoses\000"
 11672      6F736573 
 11672      00
 11673              	.LASF319:
 11674 1590 5F6D6178 		.ascii	"_maxchars\000"
 11674      63686172 
 11674      7300
 11675              	.LASF480:
 11676 159a 5F706F69 		.ascii	"_pointcommadecimalmode\000"
 11676      6E74636F 
 11676      6D6D6164 
 11676      6563696D 
 11676      616C6D6F 
 11677              	.LASF394:
 11678 15b1 45455052 		.ascii	"EEPROM_DISPENSER_PUMP31_TRANSACTION_PAGE\000"
 11678      4F4D5F44 
 11678      49535045 
 11678      4E534552 
 11678      5F50554D 
 11679              	.LASF153:
 11680 15da 55415254 		.ascii	"UART_NULL\000"
 11680      5F4E554C 
 11680      4C00
 11681              	.LASF284:
 11682 15e4 44495350 		.ascii	"DISPLAY_CLOSE_WORK_SHIFT\000"
 11682      4C41595F 
 11682      434C4F53 
 11682      455F574F 
 11682      524B5F53 
 11683              	.LASF473:
 11684 15fd 5F675F64 		.ascii	"_g_display1\000"
 11684      6973706C 
 11684      61793100 
 11685              	.LASF328:
 11686 1609 5F706174 		.ascii	"_pathnodes\000"
 11686      686E6F64 
 11686      657300
 11687              	.LASF456:
 11688 1614 44697370 		.ascii	"DisplayIntegerInputHandler\000"
 11688      6C617949 
 11688      6E746567 
 11688      6572496E 
 11688      70757448 


 11689              	.LASF315:
 11690 162f 5F627566 		.ascii	"_bufferlength\000"
 11690      6665726C 
 11690      656E6774 
 11690      6800
 11691              	.LASF435:
 11692 163d 4E6F6E45 		.ascii	"NonEmptyMoneyValidator\000"
 11692      6D707479 
 11692      4D6F6E65 
 11692      7956616C 
 11692      69646174 
 11693              	.LASF119:
 11694 1654 57726974 		.ascii	"WriteControlRegister\000"
 11694      65436F6E 
 11694      74726F6C 
 11694      52656769 
 11694      73746572 
 11695              	.LASF215:
 11696 1669 474C4F42 		.ascii	"GLOBAL_TICK_NOTIFICATION\000"
 11696      414C5F54 
 11696      49434B5F 
 11696      4E4F5449 
 11696      46494341 
 11697              	.LASF353:
 11698 1682 5F737461 		.ascii	"_starting\000"
 11698      7274696E 
 11698      6700
 11699              	.LASF157:
 11700 168c 46495253 		.ascii	"FIRSTFOUND\000"
 11700      54464F55 
 11700      4E4400
 11701              	.LASF465:
 11702 1697 53746F72 		.ascii	"StoreTransactionData\000"
 11702      65547261 
 11702      6E736163 
 11702      74696F6E 
 11702      44617461 
 11703              	.LASF197:
 11704 16ac 44495350 		.ascii	"DISPENSER_PUMP_HANDLER\000"
 11704      454E5345 
 11704      525F5055 
 11704      4D505F48 
 11704      414E444C 
 11705              	.LASF411:
 11706 16c3 70706172 		.ascii	"pparam\000"
 11706      616D00
 11707              	.LASF243:
 11708 16ca 44495350 		.ascii	"DISPLAY_ID_NO_RECONOCIDO\000"
 11708      4C41595F 
 11708      49445F4E 
 11708      4F5F5245 
 11708      434F4E4F 
 11709              	.LASF418:
 11710 16e3 44697370 		.ascii	"DisplayFlowInputHandler\000"
 11710      6C617946 
 11710      6C6F7749 
 11710      6E707574 


 11710      48616E64 
 11711              	.LASF476:
 11712 16fb 5F675F70 		.ascii	"_g_productbuttonmap\000"
 11712      726F6475 
 11712      63746275 
 11712      74746F6E 
 11712      6D617000 
 11713              	.LASF390:
 11714 170f 45455052 		.ascii	"EEPROM_DISPENSER_PUMP21_TRANSACTION_PAGE\000"
 11714      4F4D5F44 
 11714      49535045 
 11714      4E534552 
 11714      5F50554D 
 11715              	.LASF274:
 11716 1738 44495350 		.ascii	"DISPLAY_SIDE_DUMMY_DISPLAY\000"
 11716      4C41595F 
 11716      53494445 
 11716      5F44554D 
 11716      4D595F44 
 11717              	.LASF257:
 11718 1753 44495350 		.ascii	"DISPLAY_CONFIGURAR_FECHA_HORA\000"
 11718      4C41595F 
 11718      434F4E46 
 11718      49475552 
 11718      41525F46 
 11719              	.LASF179:
 11720 1771 55415254 		.ascii	"UART_RF_RECEPTION\000"
 11720      5F52465F 
 11720      52454345 
 11720      5054494F 
 11720      4E00
 11721              	.LASF52:
 11722 1783 5F617574 		.ascii	"_authorized\000"
 11722      686F7269 
 11722      7A656400 
 11723              	.LASF21:
 11724 178f 6C6F6E67 		.ascii	"long double\000"
 11724      20646F75 
 11724      626C6500 
 11725              	.LASF458:
 11726 179b 44697370 		.ascii	"DisplayVolumeInputHandler\000"
 11726      6C617956 
 11726      6F6C756D 
 11726      65496E70 
 11726      75744861 
 11727              	.LASF166:
 11728 17b5 53494E4B 		.ascii	"SINK_BUSY\000"
 11728      5F425553 
 11728      5900
 11729              	.LASF34:
 11730 17bf 5F747261 		.ascii	"_transtate\000"
 11730      6E737461 
 11730      746500
 11731              	.LASF23:
 11732 17ca 50554D50 		.ascii	"PUMP_FAIL\000"
 11732      5F464149 
 11732      4C00


 11733              	.LASF116:
 11734 17d4 53746172 		.ascii	"Start\000"
 11734      7400
 11735              	.LASF139:
 11736 17da 5F554152 		.ascii	"_UART_MESSAGE_\000"
 11736      545F4D45 
 11736      53534147 
 11736      455F00
 11737              	.LASF424:
 11738 17e9 64656C69 		.ascii	"delimitersize\000"
 11738      6D697465 
 11738      7273697A 
 11738      6500
 11739              	.LASF415:
 11740 17f7 44697370 		.ascii	"DisplayOutputString\000"
 11740      6C61794F 
 11740      75747075 
 11740      74537472 
 11740      696E6700 
 11741              	.LASF252:
 11742 180b 44495350 		.ascii	"DISPLAY_OPERACION_CANCELADA\000"
 11742      4C41595F 
 11742      4F504552 
 11742      4143494F 
 11742      4E5F4341 
 11743              	.LASF249:
 11744 1827 44495350 		.ascii	"DISPLAY_OPERACIONES\000"
 11744      4C41595F 
 11744      4F504552 
 11744      4143494F 
 11744      4E455300 
 11745              	.LASF29:
 11746 183b 50554D50 		.ascii	"PUMP_FEOT\000"
 11746      5F46454F 
 11746      5400
 11747              	.LASF146:
 11748 1845 50554152 		.ascii	"PUARTMESSAGEPTR\000"
 11748      544D4553 
 11748      53414745 
 11748      50545200 
 11749              	.LASF423:
 11750 1855 7064656C 		.ascii	"pdelimiter\000"
 11750      696D6974 
 11750      657200
 11751              	.LASF98:
 11752 1860 5F686F73 		.ascii	"_hosesposition1\000"
 11752      6573706F 
 11752      73697469 
 11752      6F6E3100 
 11753              	.LASF65:
 11754 1870 5F686F73 		.ascii	"_hoseactivestate\000"
 11754      65616374 
 11754      69766573 
 11754      74617465 
 11754      00
 11755              	.LASF100:
 11756 1881 5F686F73 		.ascii	"_hosesposition3\000"


 11756      6573706F 
 11756      73697469 
 11756      6F6E3300 
 11757              	.LASF101:
 11758 1891 5F686F73 		.ascii	"_hosesposition4\000"
 11758      6573706F 
 11758      73697469 
 11758      6F6E3400 
 11759              	.LASF239:
 11760 18a1 44495350 		.ascii	"DISPLAY_NUEVO_PASSWORD\000"
 11760      4C41595F 
 11760      4E554556 
 11760      4F5F5041 
 11760      5353574F 
 11761              	.LASF335:
 11762 18b8 5F696E69 		.ascii	"_initializer\000"
 11762      7469616C 
 11762      697A6572 
 11762      00
 11763              	.LASF107:
 11764 18c5 5F6D696E 		.ascii	"_minvolumevalue\000"
 11764      766F6C75 
 11764      6D657661 
 11764      6C756500 
 11765              	.LASF386:
 11766 18d5 45455052 		.ascii	"EEPROM_DISPENSER_PUMP11_TRANSACTION_PAGE\000"
 11766      4F4D5F44 
 11766      49535045 
 11766      4E534552 
 11766      5F50554D 
 11767              	.LASF244:
 11768 18fe 44495350 		.ascii	"DISPLAY_ESPERANDO_ID\000"
 11768      4C41595F 
 11768      45535045 
 11768      52414E44 
 11768      4F5F4944 
 11769              	.LASF379:
 11770 1913 45455052 		.ascii	"EEPROM_DISPENSER_PUMP2_PPU_INFO_PAGE\000"
 11770      4F4D5F44 
 11770      49535045 
 11770      4E534552 
 11770      5F50554D 
 11771              	.LASF94:
 11772 1938 50756D70 		.ascii	"Pump\000"
 11772      00
 11773              	.LASF225:
 11774 193d 44495350 		.ascii	"DISPLAY_FORMA_PAGO_DESEADA\000"
 11774      4C41595F 
 11774      464F524D 
 11774      415F5041 
 11774      474F5F44 
 11775              	.LASF283:
 11776 1958 44495350 		.ascii	"DISPLAY_OPEN_WORK_SHIFT\000"
 11776      4C41595F 
 11776      4F50454E 
 11776      5F574F52 
 11776      4B5F5348 


 11777              	.LASF7:
 11778 1970 6C6F6E67 		.ascii	"long long unsigned int\000"
 11778      206C6F6E 
 11778      6720756E 
 11778      7369676E 
 11778      65642069 
 11779              	.LASF332:
 11780 1987 5F696E70 		.ascii	"_inputhandler\000"
 11780      75746861 
 11780      6E646C65 
 11780      7200
 11781              	.LASF130:
 11782 1995 50757441 		.ascii	"PutArray\000"
 11782      72726179 
 11782      00
 11783              	.LASF460:
 11784 199e 6D61736B 		.ascii	"maskedinput\000"
 11784      6564696E 
 11784      70757400 
 11785              	.LASF77:
 11786 19aa 5F706375 		.ascii	"_pcurrtransaction\000"
 11786      72727472 
 11786      616E7361 
 11786      6374696F 
 11786      6E00
 11787              	.LASF212:
 11788 19bc 44495350 		.ascii	"DISPLAY2_ANIMATE_HOME\000"
 11788      4C415932 
 11788      5F414E49 
 11788      4D415445 
 11788      5F484F4D 
 11789              	.LASF434:
 11790 19d2 53617665 		.ascii	"SaveNewPassword\000"
 11790      4E657750 
 11790      61737377 
 11790      6F726400 
 11791              	.LASF96:
 11792 19e2 5F637572 		.ascii	"_currentloopopen\000"
 11792      72656E74 
 11792      6C6F6F70 
 11792      6F70656E 
 11792      00
 11793              	.LASF28:
 11794 19f3 50554D50 		.ascii	"PUMP_PEOT\000"
 11794      5F50454F 
 11794      5400
 11795              	.LASF182:
 11796 19fd 53494E4B 		.ascii	"SINK_UPDATE_COUNTERS\000"
 11796      5F555044 
 11796      4154455F 
 11796      434F554E 
 11796      54455253 
 11797              	.LASF118:
 11798 1a12 52656164 		.ascii	"ReadControlRegister\000"
 11798      436F6E74 
 11798      726F6C52 
 11798      65676973 


 11798      74657200 
 11799              	.LASF334:
 11800 1a26 5F696E70 		.ascii	"_inputboxinfo\000"
 11800      7574626F 
 11800      78696E66 
 11800      6F00
 11801              	.LASF359:
 11802 1a34 44697370 		.ascii	"DisplayLayout\000"
 11802      6C61794C 
 11802      61796F75 
 11802      7400
 11803              	.LASF277:
 11804 1a42 44495350 		.ascii	"DISPLAY_NO_STATE\000"
 11804      4C41595F 
 11804      4E4F5F53 
 11804      54415445 
 11804      00
 11805              	.LASF454:
 11806 1a53 44697370 		.ascii	"DisplayNumericInputHandler\000"
 11806      6C61794E 
 11806      756D6572 
 11806      6963496E 
 11806      70757448 
 11807              	.LASF190:
 11808 1a6e 44495350 		.ascii	"DISPENSER_LOAD_EEPROM_SETTINGS\000"
 11808      454E5345 
 11808      525F4C4F 
 11808      41445F45 
 11808      4550524F 
 11809              	.LASF56:
 11810 1a8d 5F707265 		.ascii	"_presetamount\000"
 11810      73657461 
 11810      6D6F756E 
 11810      7400
 11811              	.LASF114:
 11812 1a9b 5F696465 		.ascii	"_identifier\000"
 11812      6E746966 
 11812      69657200 
 11813              	.LASF471:
 11814 1aa7 5F675F70 		.ascii	"_g_printerlayout\000"
 11814      72696E74 
 11814      65726C61 
 11814      796F7574 
 11814      00
 11815              	.LASF339:
 11816 1ab8 5F78706F 		.ascii	"_xpos\000"
 11816      7300
 11817              	.LASF308:
 11818 1abe 46505452 		.ascii	"FPTRINITIALIZER\000"
 11818      494E4954 
 11818      49414C49 
 11818      5A455200 
 11819              	.LASF447:
 11820 1ace 44697370 		.ascii	"DisplayProductSelectionInputHandler\000"
 11820      6C617950 
 11820      726F6475 
 11820      63745365 


 11820      6C656374 
 11821              	.LASF68:
 11822 1af2 5F707265 		.ascii	"_presetdone\000"
 11822      73657464 
 11822      6F6E6500 
 11823              	.LASF123:
 11824 1afe 47657442 		.ascii	"GetByte\000"
 11824      79746500 
 11825              	.LASF180:
 11826 1b06 55415254 		.ascii	"UART_RF_TEST\000"
 11826      5F52465F 
 11826      54455354 
 11826      00
 11827              	.LASF66:
 11828 1b13 5F616371 		.ascii	"_acquiringstate\000"
 11828      75697269 
 11828      6E677374 
 11828      61746500 
 11829              	.LASF232:
 11830 1b23 44495350 		.ascii	"DISPLAY_DESPACHANDO\000"
 11830      4C41595F 
 11830      44455350 
 11830      41434841 
 11830      4E444F00 
 11831              	.LASF31:
 11832 1b37 50554D50 		.ascii	"PUMP_SEND_DATA\000"
 11832      5F53454E 
 11832      445F4441 
 11832      544100
 11833              	.LASF39:
 11834 1b46 5F766172 		.ascii	"_var0\000"
 11834      3000
 11835              	.LASF40:
 11836 1b4c 5F766172 		.ascii	"_var1\000"
 11836      3100
 11837              	.LASF41:
 11838 1b52 5F766172 		.ascii	"_var2\000"
 11838      3200
 11839              	.LASF42:
 11840 1b58 5F766172 		.ascii	"_var3\000"
 11840      3300
 11841              	.LASF43:
 11842 1b5e 5F766172 		.ascii	"_var4\000"
 11842      3400
 11843              	.LASF44:
 11844 1b64 5F766172 		.ascii	"_var5\000"
 11844      3500
 11845              	.LASF45:
 11846 1b6a 5F766172 		.ascii	"_var6\000"
 11846      3600
 11847              	.LASF46:
 11848 1b70 5F766172 		.ascii	"_var7\000"
 11848      3700
 11849              	.LASF47:
 11850 1b76 5F766172 		.ascii	"_var8\000"
 11850      3800
 11851              	.LASF48:


 11852 1b7c 5F766172 		.ascii	"_var9\000"
 11852      3900
 11853              	.LASF403:
 11854 1b82 79706F73 		.ascii	"ypos\000"
 11854      00
 11855              	.LASF49:
 11856 1b87 5F766172 		.ascii	"_varA\000"
 11856      4100
 11857              	.LASF50:
 11858 1b8d 5F766172 		.ascii	"_varB\000"
 11858      4200
 11859              	.LASF445:
 11860 1b93 7076616C 		.ascii	"pvalues\000"
 11860      75657300 
 11861              	.LASF247:
 11862 1b9b 44495350 		.ascii	"DISPLAY_INTRODUZCA_VOLUMEN\000"
 11862      4C41595F 
 11862      494E5452 
 11862      4F44555A 
 11862      43415F56 
 11863              	.LASF158:
 11864 1bb6 414C4C49 		.ascii	"ALLINTERESTED\000"
 11864      4E544552 
 11864      45535445 
 11864      4400
 11865              	.LASF263:
 11866 1bc4 44495350 		.ascii	"DISPLAY_CANCELADO_X_PC\000"
 11866      4C41595F 
 11866      43414E43 
 11866      454C4144 
 11866      4F5F585F 
 11867              	.LASF62:
 11868 1bdb 5F70756D 		.ascii	"_pumpindex\000"
 11868      70696E64 
 11868      657800
 11869              	.LASF256:
 11870 1be6 44495350 		.ascii	"DISPLAY_AUTORIZACION_RECHAZADA\000"
 11870      4C41595F 
 11870      4155544F 
 11870      52495A41 
 11870      43494F4E 
 11871              	.LASF69:
 11872 1c05 5F70756D 		.ascii	"_pumplocked\000"
 11872      706C6F63 
 11872      6B656400 
 11873              	.LASF169:
 11874 1c11 5F6D6573 		.ascii	"_messageid\000"
 11874      73616765 
 11874      696400
 11875              	.LASF137:
 11876 1c1c 414C4C4F 		.ascii	"ALLOCATED\000"
 11876      43415445 
 11876      4400
 11877              	.LASF11:
 11878 1c26 75696E74 		.ascii	"uint8\000"
 11878      3800
 11879              	.LASF209:


 11880 1c2c 44495350 		.ascii	"DISPLAY2_RECEPTION\000"
 11880      4C415932 
 11880      5F524543 
 11880      45505449 
 11880      4F4E00
 11881              	.LASF330:
 11882 1c3f 5F737461 		.ascii	"_statenodes\000"
 11882      74656E6F 
 11882      64657300 
 11883              	.LASF176:
 11884 1c4b 43616C6C 		.ascii	"Callback\000"
 11884      6261636B 
 11884      00
 11885              	.LASF282:
 11886 1c54 44495350 		.ascii	"DISPLAY_LESS_THAN_FOUR_POSITIONS\000"
 11886      4C41595F 
 11886      4C455353 
 11886      5F544841 
 11886      4E5F464F 
 11887              	.LASF300:
 11888 1c75 4465636F 		.ascii	"Decorator\000"
 11888      7261746F 
 11888      7200
 11889              	.LASF430:
 11890 1c7f 50726570 		.ascii	"PrepareDisplayStructure\000"
 11890      61726544 
 11890      6973706C 
 11890      61795374 
 11890      72756374 
 11891              	.LASF296:
 11892 1c97 5F6F7061 		.ascii	"_opaquebackground\000"
 11892      71756562 
 11892      61636B67 
 11892      726F756E 
 11892      6400
 11893              	.LASF2:
 11894 1ca9 73686F72 		.ascii	"short int\000"
 11894      7420696E 
 11894      7400
 11895              	.LASF269:
 11896 1cb3 44495350 		.ascii	"DISPLAY_PRECIO_POR_UNIDAD\000"
 11896      4C41595F 
 11896      50524543 
 11896      494F5F50 
 11896      4F525F55 
 11897              	.LASF83:
 11898 1ccd 50756D70 		.ascii	"PumpTransQueueLock\000"
 11898      5472616E 
 11898      73517565 
 11898      75654C6F 
 11898      636B00
 11899              	.LASF275:
 11900 1ce0 44495350 		.ascii	"DISPLAY_NULL\000"
 11900      4C41595F 
 11900      4E554C4C 
 11900      00
 11901              	.LASF88:


 11902 1ced 50756D70 		.ascii	"PumpTransQueueAllocate\000"
 11902      5472616E 
 11902      73517565 
 11902      7565416C 
 11902      6C6F6361 
 11903              	.LASF195:
 11904 1d04 44495350 		.ascii	"DISPENSER_CONFIGURE_SINGLE_PRICE\000"
 11904      454E5345 
 11904      525F434F 
 11904      4E464947 
 11904      5552455F 
 11905              	.LASF205:
 11906 1d25 44495350 		.ascii	"DISPLAY1_RECEPTION\000"
 11906      4C415931 
 11906      5F524543 
 11906      45505449 
 11906      4F4E00
 11907              	.LASF86:
 11908 1d38 50756D70 		.ascii	"PumpTransQueueEnqueue\000"
 11908      5472616E 
 11908      73517565 
 11908      7565456E 
 11908      71756575 
 11909              	.LASF220:
 11910 1d4e 5072696E 		.ascii	"PrinterLayout\000"
 11910      7465724C 
 11910      61796F75 
 11910      7400
 11911              	.LASF191:
 11912 1d5c 44495350 		.ascii	"DISPENSER_ENUMERATE_VISIBLE_PUMPS\000"
 11912      454E5345 
 11912      525F454E 
 11912      554D4552 
 11912      4154455F 
 11913              	.LASF120:
 11914 1d7e 52656164 		.ascii	"ReadRxData\000"
 11914      52784461 
 11914      746100
 11915              	.LASF174:
 11916 1d89 5F6D6573 		.ascii	"_messagetimeoutlimit\000"
 11916      73616765 
 11916      74696D65 
 11916      6F75746C 
 11916      696D6974 
 11917              	.LASF147:
 11918 1d9e 5F554152 		.ascii	"_UART_MANAGERS_AVAILABLE_\000"
 11918      545F4D41 
 11918      4E414745 
 11918      52535F41 
 11918      5641494C 
 11919              	.LASF477:
 11920 1db8 474E5520 		.ascii	"GNU C 4.9.3 20150303 (release) [ARM/embedded-4_9-br"
 11920      4320342E 
 11920      392E3320 
 11920      32303135 
 11920      30333033 
 11921 1deb 616E6368 		.ascii	"anch revision 221220] -mcpu=cortex-m3 -mthumb -g -O"


 11921      20726576 
 11921      6973696F 
 11921      6E203232 
 11921      31323230 
 11922 1e1e 30202D66 		.ascii	"0 -ffunction-sections -ffat-lto-objects\000"
 11922      66756E63 
 11922      74696F6E 
 11922      2D736563 
 11922      74696F6E 
 11923              	.LASF455:
 11924 1e46 70747270 		.ascii	"ptrpos\000"
 11924      6F7300
 11925              	.LASF246:
 11926 1e4d 44495350 		.ascii	"DISPLAY_INTRODUZCA_CEDULA\000"
 11926      4C41595F 
 11926      494E5452 
 11926      4F44555A 
 11926      43415F43 
 11927              	.LASF280:
 11928 1e67 44495350 		.ascii	"DISPLAY_IBUTTON_READ_ACCEPTED\000"
 11928      4C41595F 
 11928      49425554 
 11928      544F4E5F 
 11928      52454144 
 11929              	.LASF170:
 11930 1e85 5F6D6573 		.ascii	"_messagetype\000"
 11930      73616765 
 11930      74797065 
 11930      00
 11931              	.LASF461:
 11932 1e92 53657175 		.ascii	"SequesterMessageSink\000"
 11932      65737465 
 11932      724D6573 
 11932      73616765 
 11932      53696E6B 
 11933              	.LASF160:
 11934 1ea7 46495253 		.ascii	"FIRSTFOUNDFOREVER\000"
 11934      54464F55 
 11934      4E44464F 
 11934      52455645 
 11934      5200
 11935              	.LASF24:
 11936 1eb9 50554D50 		.ascii	"PUMP_IDLE\000"
 11936      5F49444C 
 11936      4500
 11937              	.LASF312:
 11938 1ec3 44697370 		.ascii	"DisplayCharacterMap\000"
 11938      6C617943 
 11938      68617261 
 11938      63746572 
 11938      4D617000 
 11939              	.LASF64:
 11940 1ed7 5F637572 		.ascii	"_currenthose\000"
 11940      72656E74 
 11940      686F7365 
 11940      00
 11941              	.LASF466:


 11942 1ee4 47657444 		.ascii	"GetDisplayFromPumpID\000"
 11942      6973706C 
 11942      61794672 
 11942      6F6D5075 
 11942      6D704944 
 11943              	.LASF410:
 11944 1ef9 70756E6B 		.ascii	"punk\000"
 11944      00
 11945              	.LASF380:
 11946 1efe 45455052 		.ascii	"EEPROM_DISPENSER_PUMP3_PPU_INFO_PAGE\000"
 11946      4F4D5F44 
 11946      49535045 
 11946      4E534552 
 11946      5F50554D 
 11947              	.LASF337:
 11948 1f23 44697370 		.ascii	"DisplayFlow\000"
 11948      6C617946 
 11948      6C6F7700 
 11949              	.LASF90:
 11950 1f2f 50756D70 		.ascii	"PumpValidState\000"
 11950      56616C69 
 11950      64537461 
 11950      746500
 11951              	.LASF92:
 11952 1f3e 5F617574 		.ascii	"_authorizationinfo\000"
 11952      686F7269 
 11952      7A617469 
 11952      6F6E696E 
 11952      666F00
 11953              	.LASF260:
 11954 1f51 44495350 		.ascii	"DISPLAY_OPCION_TURNO\000"
 11954      4C41595F 
 11954      4F504349 
 11954      4F4E5F54 
 11954      55524E4F 
 11955              	.LASF54:
 11956 1f66 5F686F73 		.ascii	"_hoseid\000"
 11956      65696400 
 11957              	.LASF140:
 11958 1f6e 5F6D6573 		.ascii	"_messagestate\000"
 11958      73616765 
 11958      73746174 
 11958      6500
 11959              	.LASF419:
 11960 1f7c 44697370 		.ascii	"DisplayFlowDecorator\000"
 11960      6C617946 
 11960      6C6F7744 
 11960      65636F72 
 11960      61746F72 
 11961              	.LASF449:
 11962 1f91 70646973 		.ascii	"pdispcharmap\000"
 11962      70636861 
 11962      726D6170 
 11962      00
 11963              	.LASF143:
 11964 1f9e 4572726F 		.ascii	"ErrorHandler\000"
 11964      7248616E 


 11964      646C6572 
 11964      00
 11965              	.LASF53:
 11966 1fab 5F707265 		.ascii	"_presettype\000"
 11966      73657474 
 11966      79706500 
 11967              	.LASF439:
 11968 1fb7 72656676 		.ascii	"refvalue\000"
 11968      616C7565 
 11968      00
 11969              	.LASF372:
 11970 1fc0 45455052 		.ascii	"EEPROM_DISPENSER_PUMP3_LAYOUT_PAGE\000"
 11970      4F4D5F44 
 11970      49535045 
 11970      4E534552 
 11970      5F50554D 
 11971              	.LASF111:
 11972 1fe3 44697370 		.ascii	"DispenserLayoutInfo\000"
 11972      656E7365 
 11972      724C6179 
 11972      6F757449 
 11972      6E666F00 
 11973              	.LASF154:
 11974 1ff7 5F4D4553 		.ascii	"_MESSAGE_TYPE_\000"
 11974      53414745 
 11974      5F545950 
 11974      455F00
 11975              	.LASF156:
 11976 2006 42524F41 		.ascii	"BROADCAST\000"
 11976      44434153 
 11976      5400
 11977              	.LASF194:
 11978 2010 44495350 		.ascii	"DISPENSER_RESTORE_PRICES\000"
 11978      454E5345 
 11978      525F5245 
 11978      53544F52 
 11978      455F5052 
 11979              	.LASF407:
 11980 2029 666F6E74 		.ascii	"fontdata\000"
 11980      64617461 
 11980      00
 11981              	.LASF325:
 11982 2032 5F726573 		.ascii	"_responsetimeoutlimit\000"
 11982      706F6E73 
 11982      6574696D 
 11982      656F7574 
 11982      6C696D69 
 11983              	.LASF73:
 11984 2048 5F707269 		.ascii	"_print\000"
 11984      6E7400
 11985              	.LASF301:
 11986 204f 496E7075 		.ascii	"InputValidator\000"
 11986      7456616C 
 11986      69646174 
 11986      6F7200
 11987              	.LASF3:
 11988 205e 73686F72 		.ascii	"short unsigned int\000"


 11988      7420756E 
 11988      7369676E 
 11988      65642069 
 11988      6E7400
 11989              	.LASF297:
 11990 2071 5F626163 		.ascii	"_backcolor\000"
 11990      6B636F6C 
 11990      6F7200
 11991              	.LASF409:
 11992 207c 70667261 		.ascii	"pframedelimiters\000"
 11992      6D656465 
 11992      6C696D69 
 11992      74657273 
 11992      00
 11993              	.LASF85:
 11994 208d 50756D70 		.ascii	"PumpTransQueueFind\000"
 11994      5472616E 
 11994      73517565 
 11994      75654669 
 11994      6E6400
 11995              	.LASF201:
 11996 20a0 5052494E 		.ascii	"PRINTER22_JOB\000"
 11996      54455232 
 11996      325F4A4F 
 11996      4200
 11997              	.LASF425:
 11998 20ae 47657444 		.ascii	"GetDisplayFlowNode\000"
 11998      6973706C 
 11998      6179466C 
 11998      6F774E6F 
 11998      646500
 11999              	.LASF155:
 12000 20c1 4E4F4E45 		.ascii	"NONE\000"
 12000      00
 12001              	.LASF134:
 12002 20c6 5F50554D 		.ascii	"_PUMP_STATES_\000"
 12002      505F5354 
 12002      41544553 
 12002      5F00
 12003              	.LASF9:
 12004 20d4 5F5F696E 		.ascii	"__int32_t\000"
 12004      7433325F 
 12004      7400
 12005              	.LASF316:
 12006 20de 44697370 		.ascii	"DisplayScreenBufferMap\000"
 12006      6C617953 
 12006      63726565 
 12006      6E427566 
 12006      6665724D 
 12007              	.LASF376:
 12008 20f5 45455052 		.ascii	"EEPROM_DISPENSER_PUMP3_PRODUCT_NAMES_PAGE\000"
 12008      4F4D5F44 
 12008      49535045 
 12008      4E534552 
 12008      5F50554D 
 12009              	.LASF37:
 12010 211f 50756D70 		.ascii	"PumpTransactionalState\000"


 12010      5472616E 
 12010      73616374 
 12010      696F6E61 
 12010      6C537461 
 12011              	.LASF357:
 12012 2136 5F707365 		.ascii	"_psequesteredmessagesink\000"
 12012      71756573 
 12012      74657265 
 12012      646D6573 
 12012      73616765 
 12013              	.LASF91:
 12014 214f 5F646174 		.ascii	"_datacontainer\000"
 12014      61636F6E 
 12014      7461696E 
 12014      657200
 12015              	.LASF30:
 12016 215e 50554D50 		.ascii	"PUMP_STOPPED\000"
 12016      5F53544F 
 12016      50504544 
 12016      00
 12017              	.LASF163:
 12018 216b 5F4D4553 		.ascii	"_MESSAGE_STATE_\000"
 12018      53414745 
 12018      5F535441 
 12018      54455F00 
 12019              	.LASF164:
 12020 217b 53494E4B 		.ascii	"SINK_FREE\000"
 12020      5F465245 
 12020      4500
 12021              	.LASF112:
 12022 2185 5F50554D 		.ascii	"_PUMP_LAYOUT_\000"
 12022      505F4C41 
 12022      594F5554 
 12022      5F00
 12023              	.LASF288:
 12024 2193 44495350 		.ascii	"DISPLAY_INVALID_PASSWORD\000"
 12024      4C41595F 
 12024      494E5641 
 12024      4C49445F 
 12024      50415353 
 12025              	.LASF214:
 12026 21ac 49425554 		.ascii	"IBUTTON2_SCAN\000"
 12026      544F4E32 
 12026      5F534341 
 12026      4E00
 12027              	.LASF311:
 12028 21ba 5F6D6170 		.ascii	"_mappedto\000"
 12028      70656474 
 12028      6F00
 12029              	.LASF108:
 12030 21c4 5F646973 		.ascii	"_displaydigitsmode\000"
 12030      706C6179 
 12030      64696769 
 12030      74736D6F 
 12030      646500
 12031              	.LASF12:
 12032 21d7 75696E74 		.ascii	"uint16\000"


 12032      313600
 12033              	.LASF84:
 12034 21de 50756D70 		.ascii	"PumpTransQueueUnlock\000"
 12034      5472616E 
 12034      73517565 
 12034      7565556E 
 12034      6C6F636B 
 12035              	.LASF144:
 12036 21f3 5F707561 		.ascii	"_puartmanager\000"
 12036      72746D61 
 12036      6E616765 
 12036      7200
 12037              	.LASF443:
 12038 2201 56616C69 		.ascii	"ValidatePumpAvailability21Positions\000"
 12038      64617465 
 12038      50756D70 
 12038      41766169 
 12038      6C616269 
 12039              	.LASF36:
 12040 2225 5F627566 		.ascii	"_buffersize\000"
 12040      66657273 
 12040      697A6500 
 12041              	.LASF391:
 12042 2231 45455052 		.ascii	"EEPROM_DISPENSER_PUMP22_TRANSACTION_PAGE\000"
 12042      4F4D5F44 
 12042      49535045 
 12042      4E534552 
 12042      5F50554D 
 12043              	.LASF27:
 12044 225a 50554D50 		.ascii	"PUMP_BUSY\000"
 12044      5F425553 
 12044      5900
 12045              		.ident	"GCC: (GNU Tools for ARM Embedded Processors) 4.9.3 20150303 (release) [ARM/embedded-4_9-br
