ARM GAS  C:\Users\RECEPC~1\AppData\Local\Temp\ccxS8OWg.s 			page 1


   1              		.syntax unified
   2              		.cpu cortex-m3
   3              		.fpu softvfp
   4              		.eabi_attribute 20, 1
   5              		.eabi_attribute 21, 1
   6              		.eabi_attribute 23, 3
   7              		.eabi_attribute 24, 1
   8              		.eabi_attribute 25, 1
   9              		.eabi_attribute 26, 1
  10              		.eabi_attribute 30, 6
  11              		.eabi_attribute 34, 1
  12              		.eabi_attribute 18, 4
  13              		.thumb
  14              		.file	"DispenserBLL.c"
  15              		.text
  16              	.Ltext0:
  17              		.cfi_sections	.debug_frame
  18              		.global	_g_pumpcodemap
  19              		.data
  20              		.align	2
  21              		.type	_g_pumpcodemap, %object
  22              		.size	_g_pumpcodemap, 40
  23              	_g_pumpcodemap:
  24 0000 01       		.byte	1
  25 0001 56       		.byte	86
  26 0002 0000     		.space	2
  27 0004 00000000 		.word	_g_pumps
  28 0008 01       		.byte	1
  29 0009 57       		.byte	87
  30 000a 0000     		.space	2
  31 000c 80130000 		.word	_g_pumps+4992
  32 0010 02       		.byte	2
  33 0011 56       		.byte	86
  34 0012 0000     		.space	2
  35 0014 401D0000 		.word	_g_pumps+7488
  36 0018 02       		.byte	2
  37 0019 57       		.byte	87
  38 001a 0000     		.space	2
  39 001c C0090000 		.word	_g_pumps+2496
  40 0020 FF       		.byte	-1
  41 0021 FF       		.byte	-1
  42 0022 0000     		.space	2
  43 0024 00000000 		.word	0
  44              		.global	_g_ptractprogramming
  45              		.bss
  46              		.align	2
  47              		.type	_g_ptractprogramming, %object
  48              		.size	_g_ptractprogramming, 4
  49              	_g_ptractprogramming:
  50 0000 00000000 		.space	4
  51              		.section	.text.DispenserSide1Listener,"ax",%progbits
  52              		.align	2
  53              		.global	DispenserSide1Listener
  54              		.thumb
  55              		.thumb_func
  56              		.type	DispenserSide1Listener, %function
  57              	DispenserSide1Listener:
ARM GAS  C:\Users\RECEPC~1\AppData\Local\Temp\ccxS8OWg.s 			page 2


  58              	.LFB0:
  59              		.file 1 ".\\DispenserBLL.c"
   1:.\DispenserBLL.c **** /* ========================================
   2:.\DispenserBLL.c ****  *
   3:.\DispenserBLL.c ****  * Copyright INSEPET SISTEMAS, 2016
   4:.\DispenserBLL.c ****  * All Rights Reserved
   5:.\DispenserBLL.c ****  * UNPUBLISHED, LICENSED SOFTWARE.
   6:.\DispenserBLL.c ****  *
   7:.\DispenserBLL.c ****  * CONFIDENTIAL AND PROPRIETARY INFORMATION
   8:.\DispenserBLL.c ****  * WHICH IS THE PROPERTY OF your company.
   9:.\DispenserBLL.c ****  *
  10:.\DispenserBLL.c ****  * ========================================
  11:.\DispenserBLL.c **** @Created By: HIJH
  12:.\DispenserBLL.c **** @Date: Septembre de 2016
  13:.\DispenserBLL.c **** */
  14:.\DispenserBLL.c **** #include "Configuration.h"
  15:.\DispenserBLL.c **** #include "GlobalDefinitions.h"
  16:.\DispenserBLL.c **** #include "SinkManager.h"
  17:.\DispenserBLL.c **** #include "SinkObservables.h"
  18:.\DispenserBLL.c **** #include "Dispenser.h"
  19:.\DispenserBLL.c **** #include "Display.h"
  20:.\DispenserBLL.c **** #include "Printer.h"
  21:.\DispenserBLL.c **** #include "Eeprom.h"
  22:.\DispenserBLL.c **** #include "RFLink.h"
  23:.\DispenserBLL.c **** #include "Rtc.h"
  24:.\DispenserBLL.c **** 
  25:.\DispenserBLL.c **** void DispenserRestorePrices(LPVOID pparam);
  26:.\DispenserBLL.c **** void DispenserUnlockPumpsOnEOT(LPVOID pparam);
  27:.\DispenserBLL.c **** void DispenserLoadEEPROMSettings(LPVOID pparam);
  28:.\DispenserBLL.c **** PumpTransaction *GetTransactionByName(uint8 codename);
  29:.\DispenserBLL.c **** 
  30:.\DispenserBLL.c **** PumpCodeMapping _g_pumpcodemap[] = 
  31:.\DispenserBLL.c **** {
  32:.\DispenserBLL.c ****     { SIDE1, POSITIONA, &_g_pumps[0] },//This code comes from the screen code when selecting the pu
  33:.\DispenserBLL.c ****     { SIDE1, POSITIONB, &_g_pumps[2] },//This code comes from the screen code when selecting the pu
  34:.\DispenserBLL.c ****     { SIDE2, POSITIONA, &_g_pumps[3] },//This code comes from the screen code when selecting the pu
  35:.\DispenserBLL.c ****     { SIDE2, POSITIONB, &_g_pumps[1] },//This code comes from the screen code when selecting the pu
  36:.\DispenserBLL.c ****     { 0xFF,  0xFF, NULL }
  37:.\DispenserBLL.c **** };
  38:.\DispenserBLL.c **** 
  39:.\DispenserBLL.c **** PNEARDISPENSERACTIVATEPROGRAMMING _g_ptractprogramming = PNEAR_NULLPTR;
  40:.\DispenserBLL.c **** 
  41:.\DispenserBLL.c **** //@Create by: HIJH
  42:.\DispenserBLL.c **** //@Date: Septembre de 2016
  43:.\DispenserBLL.c **** //This method handles all of the incoming data that has been capture on the Display.
  44:.\DispenserBLL.c **** //All codes come from the assigned button event codes. By convention the first byte
  45:.\DispenserBLL.c **** //For more information to grasph the mapping convention, see the file "DisplayBufferScreenMap"
  46:.\DispenserBLL.c **** //THIS MODEL IS NOT FLEXIBLE ENOUGHT SINCE THERE ARE OTHER TRANSACTIONS NOT RELATED WITH
  47:.\DispenserBLL.c **** //PRESET THAT MUST BE MET!!! REQUIRES FIXING!!
  48:.\DispenserBLL.c **** void DispenserSide1Listener(void *pparam)
  49:.\DispenserBLL.c **** {
  60              		.loc 1 49 0
  61              		.cfi_startproc
  62              		@ args = 0, pretend = 0, frame = 32
  63              		@ frame_needed = 1, uses_anonymous_args = 0
  64 0000 80B5     		push	{r7, lr}
  65              		.cfi_def_cfa_offset 8
ARM GAS  C:\Users\RECEPC~1\AppData\Local\Temp\ccxS8OWg.s 			page 3


  66              		.cfi_offset 7, -8
  67              		.cfi_offset 14, -4
  68 0002 88B0     		sub	sp, sp, #32
  69              		.cfi_def_cfa_offset 40
  70 0004 00AF     		add	r7, sp, #0
  71              		.cfi_def_cfa_register 7
  72 0006 7860     		str	r0, [r7, #4]
  50:.\DispenserBLL.c ****     PSINKMESSAGEPTR pmsg = (PSINKMESSAGEPTR)pparam;
  73              		.loc 1 50 0
  74 0008 7B68     		ldr	r3, [r7, #4]
  75 000a 3B61     		str	r3, [r7, #16]
  51:.\DispenserBLL.c ****     //PUMP TRANSACTION CREATION HERE!!!    
  52:.\DispenserBLL.c ****     Pump *ppump = NULL;
  76              		.loc 1 52 0
  77 000c 0023     		movs	r3, #0
  78 000e FB61     		str	r3, [r7, #28]
  53:.\DispenserBLL.c ****     //Selecting the PUMP (Position)
  54:.\DispenserBLL.c ****     PumpCodeMapping *ptr = _g_pumpcodemap;
  79              		.loc 1 54 0
  80 0010 4C4B     		ldr	r3, .L12
  81 0012 BB61     		str	r3, [r7, #24]
  55:.\DispenserBLL.c ****     uint8 pumpposcode = pmsg->_buffer[GetBufferIndexFromDisplayID(DISPLAY_SELECCIONE_POSICION)];
  82              		.loc 1 55 0
  83 0014 2E20     		movs	r0, #46
  84 0016 FFF7FEFF 		bl	GetBufferIndexFromDisplayID
  85 001a 0346     		mov	r3, r0
  86 001c 1A46     		mov	r2, r3
  87 001e 3B69     		ldr	r3, [r7, #16]
  88 0020 1344     		add	r3, r3, r2
  89 0022 1B7B     		ldrb	r3, [r3, #12]
  90 0024 FB73     		strb	r3, [r7, #15]
  56:.\DispenserBLL.c ****     while(ptr->_side != 0xFF)
  91              		.loc 1 56 0
  92 0026 0FE0     		b	.L2
  93              	.L5:
  57:.\DispenserBLL.c ****     {
  58:.\DispenserBLL.c ****         if(ptr->_side == SIDE1 && ptr->_refcode == pumpposcode)
  94              		.loc 1 58 0
  95 0028 BB69     		ldr	r3, [r7, #24]
  96 002a 1B78     		ldrb	r3, [r3]	@ zero_extendqisi2
  97 002c 012B     		cmp	r3, #1
  98 002e 08D1     		bne	.L3
  99              		.loc 1 58 0 is_stmt 0 discriminator 1
 100 0030 BB69     		ldr	r3, [r7, #24]
 101 0032 5B78     		ldrb	r3, [r3, #1]	@ zero_extendqisi2
 102 0034 FA7B     		ldrb	r2, [r7, #15]	@ zero_extendqisi2
 103 0036 9A42     		cmp	r2, r3
 104 0038 03D1     		bne	.L3
  59:.\DispenserBLL.c ****         {
  60:.\DispenserBLL.c ****             ppump = ptr->_ppump;
 105              		.loc 1 60 0 is_stmt 1
 106 003a BB69     		ldr	r3, [r7, #24]
 107 003c 5B68     		ldr	r3, [r3, #4]
 108 003e FB61     		str	r3, [r7, #28]
  61:.\DispenserBLL.c ****             break;
 109              		.loc 1 61 0
 110 0040 06E0     		b	.L4
ARM GAS  C:\Users\RECEPC~1\AppData\Local\Temp\ccxS8OWg.s 			page 4


 111              	.L3:
  62:.\DispenserBLL.c ****         }            
  63:.\DispenserBLL.c ****         ptr++;
 112              		.loc 1 63 0
 113 0042 BB69     		ldr	r3, [r7, #24]
 114 0044 0833     		adds	r3, r3, #8
 115 0046 BB61     		str	r3, [r7, #24]
 116              	.L2:
  56:.\DispenserBLL.c ****     {
 117              		.loc 1 56 0
 118 0048 BB69     		ldr	r3, [r7, #24]
 119 004a 1B78     		ldrb	r3, [r3]	@ zero_extendqisi2
 120 004c FF2B     		cmp	r3, #255
 121 004e EBD1     		bne	.L5
 122              	.L4:
  64:.\DispenserBLL.c ****     }
  65:.\DispenserBLL.c ****     if(ppump)
 123              		.loc 1 65 0
 124 0050 FB69     		ldr	r3, [r7, #28]
 125 0052 002B     		cmp	r3, #0
 126 0054 72D0     		beq	.L1
 127              	.LBB2:
  66:.\DispenserBLL.c ****     {        
  67:.\DispenserBLL.c ****         memcpy(ppump->_trasactionbuffer, pmsg->_buffer, _MESSAGE_LENGTH_);
 128              		.loc 1 67 0
 129 0056 FB69     		ldr	r3, [r7, #28]
 130 0058 03F12002 		add	r2, r3, #32
 131 005c 3B69     		ldr	r3, [r7, #16]
 132 005e 0C33     		adds	r3, r3, #12
 133 0060 1046     		mov	r0, r2
 134 0062 1946     		mov	r1, r3
 135 0064 4FF4C072 		mov	r2, #384
 136 0068 FFF7FEFF 		bl	memcpy
  68:.\DispenserBLL.c ****         ppump->_print = (ppump->_trasactionbuffer[GetBufferIndexFromDisplayID(DISPLAY_DESEA_IMPRIMI
 137              		.loc 1 68 0
 138 006c 0B20     		movs	r0, #11
 139 006e FFF7FEFF 		bl	GetBufferIndexFromDisplayID
 140 0072 0346     		mov	r3, r0
 141 0074 1A46     		mov	r2, r3
 142 0076 FB69     		ldr	r3, [r7, #28]
 143 0078 1344     		add	r3, r3, r2
 144 007a 93F82030 		ldrb	r3, [r3, #32]	@ zero_extendqisi2
 145 007e 392B     		cmp	r3, #57
 146 0080 0CBF     		ite	eq
 147 0082 0123     		moveq	r3, #1
 148 0084 0023     		movne	r3, #0
 149 0086 DAB2     		uxtb	r2, r3
 150 0088 FB69     		ldr	r3, [r7, #28]
 151 008a 5A73     		strb	r2, [r3, #13]
  69:.\DispenserBLL.c ****         uint8 paymentmethod = pmsg->_buffer[GetBufferIndexFromDisplayID(DISPLAY_FORMA_PAGO_DESEADA)
 152              		.loc 1 69 0
 153 008c 0420     		movs	r0, #4
 154 008e FFF7FEFF 		bl	GetBufferIndexFromDisplayID
 155 0092 0346     		mov	r3, r0
 156 0094 1A46     		mov	r2, r3
 157 0096 3B69     		ldr	r3, [r7, #16]
 158 0098 1344     		add	r3, r3, r2
ARM GAS  C:\Users\RECEPC~1\AppData\Local\Temp\ccxS8OWg.s 			page 5


 159 009a 1B7B     		ldrb	r3, [r3, #12]
 160 009c BB73     		strb	r3, [r7, #14]
  70:.\DispenserBLL.c ****         if(paymentmethod == 0x0D)
 161              		.loc 1 70 0
 162 009e BB7B     		ldrb	r3, [r7, #14]	@ zero_extendqisi2
 163 00a0 0D2B     		cmp	r3, #13
 164 00a2 10D1     		bne	.L7
 165              	.LBB3:
  71:.\DispenserBLL.c ****         {        
  72:.\DispenserBLL.c ****             uint8 transactionname = pmsg->_buffer[GetBufferIndexFromDisplayID(DISPLAY_FORMA_PROGRAM
 166              		.loc 1 72 0
 167 00a4 0520     		movs	r0, #5
 168 00a6 FFF7FEFF 		bl	GetBufferIndexFromDisplayID
 169 00aa 0346     		mov	r3, r0
 170 00ac 1A46     		mov	r2, r3
 171 00ae 3B69     		ldr	r3, [r7, #16]
 172 00b0 1344     		add	r3, r3, r2
 173 00b2 1B7B     		ldrb	r3, [r3, #12]
 174 00b4 7B73     		strb	r3, [r7, #13]
  73:.\DispenserBLL.c ****             ppump->_pcurrtransaction = GetTransactionByName(transactionname);
 175              		.loc 1 73 0
 176 00b6 7B7B     		ldrb	r3, [r7, #13]	@ zero_extendqisi2
 177 00b8 1846     		mov	r0, r3
 178 00ba FFF7FEFF 		bl	GetTransactionByName
 179 00be 0246     		mov	r2, r0
 180 00c0 FB69     		ldr	r3, [r7, #28]
 181 00c2 DA61     		str	r2, [r3, #28]
 182              	.LBE3:
 183 00c4 08E0     		b	.L8
 184              	.L7:
  74:.\DispenserBLL.c ****         }
  75:.\DispenserBLL.c ****         else if(paymentmethod == 0x0E)
 185              		.loc 1 75 0
 186 00c6 BB7B     		ldrb	r3, [r7, #14]	@ zero_extendqisi2
 187 00c8 0E2B     		cmp	r3, #14
 188 00ca 05D1     		bne	.L8
  76:.\DispenserBLL.c ****         {
  77:.\DispenserBLL.c ****             ppump->_pcurrtransaction = GetTransactionByName(_PUMP_FILL_CREDIT_);
 189              		.loc 1 77 0
 190 00cc 4420     		movs	r0, #68
 191 00ce FFF7FEFF 		bl	GetTransactionByName
 192 00d2 0246     		mov	r2, r0
 193 00d4 FB69     		ldr	r3, [r7, #28]
 194 00d6 DA61     		str	r2, [r3, #28]
 195              	.L8:
  78:.\DispenserBLL.c ****         }
  79:.\DispenserBLL.c ****         
  80:.\DispenserBLL.c ****         ppump->_presetdone = false;
 196              		.loc 1 80 0
 197 00d8 FB69     		ldr	r3, [r7, #28]
 198 00da 0022     		movs	r2, #0
 199 00dc 1A72     		strb	r2, [r3, #8]
  81:.\DispenserBLL.c ****         PNEAR_PUMPTRANSACTIONJOBPTR ptrjob = &((PNEAR_PUMPTRANSACTIONPTR)ppump->_pcurrtransaction)-
 200              		.loc 1 81 0
 201 00de FB69     		ldr	r3, [r7, #28]
 202 00e0 DB69     		ldr	r3, [r3, #28]
 203 00e2 0433     		adds	r3, r3, #4
ARM GAS  C:\Users\RECEPC~1\AppData\Local\Temp\ccxS8OWg.s 			page 6


 204 00e4 7B61     		str	r3, [r7, #20]
  82:.\DispenserBLL.c ****         if(ptrjob)
 205              		.loc 1 82 0
 206 00e6 7B69     		ldr	r3, [r7, #20]
 207 00e8 002B     		cmp	r3, #0
 208 00ea 27D0     		beq	.L1
  83:.\DispenserBLL.c ****         {
  84:.\DispenserBLL.c ****             while(ptrjob->Request != NULL)
 209              		.loc 1 84 0
 210 00ec 22E0     		b	.L9
 211              	.L11:
 212              	.LBB4:
  85:.\DispenserBLL.c ****             {
  86:.\DispenserBLL.c ****                 PPUMPTRANSACTIONJOBCONTEXTPTR pjobcntr = _g_pumpjobqueue.Allocate(&_g_pumpjobqueue)
 213              		.loc 1 86 0
 214 00ee 164B     		ldr	r3, .L12+4
 215 00f0 D3F84838 		ldr	r3, [r3, #2120]
 216 00f4 1448     		ldr	r0, .L12+4
 217 00f6 9847     		blx	r3
 218 00f8 B860     		str	r0, [r7, #8]
  87:.\DispenserBLL.c ****                 if(pjobcntr)
 219              		.loc 1 87 0
 220 00fa BB68     		ldr	r3, [r7, #8]
 221 00fc 002B     		cmp	r3, #0
 222 00fe 16D0     		beq	.L10
  88:.\DispenserBLL.c ****                 {
  89:.\DispenserBLL.c ****                     pjobcntr->_prequest = ptrjob;
 223              		.loc 1 89 0
 224 0100 BB68     		ldr	r3, [r7, #8]
 225 0102 7A69     		ldr	r2, [r7, #20]
 226 0104 5A61     		str	r2, [r3, #20]
  90:.\DispenserBLL.c ****                     pjobcntr->_presponse = NULL;
 227              		.loc 1 90 0
 228 0106 BB68     		ldr	r3, [r7, #8]
 229 0108 0022     		movs	r2, #0
 230 010a 9A61     		str	r2, [r3, #24]
  91:.\DispenserBLL.c ****                     pjobcntr->_ppump = ppump;
 231              		.loc 1 91 0
 232 010c BB68     		ldr	r3, [r7, #8]
 233 010e FA69     		ldr	r2, [r7, #28]
 234 0110 DA61     		str	r2, [r3, #28]
  92:.\DispenserBLL.c ****                     pjobcntr->_ppump->CleanUp(pjobcntr->_ppump);
 235              		.loc 1 92 0
 236 0112 BB68     		ldr	r3, [r7, #8]
 237 0114 DB69     		ldr	r3, [r3, #28]
 238 0116 D3F8B839 		ldr	r3, [r3, #2488]
 239 011a BA68     		ldr	r2, [r7, #8]
 240 011c D269     		ldr	r2, [r2, #28]
 241 011e 1046     		mov	r0, r2
 242 0120 9847     		blx	r3
  93:.\DispenserBLL.c ****                     _g_pumpjobqueue.Enqueue(&_g_pumpjobqueue, pjobcntr);
 243              		.loc 1 93 0
 244 0122 094B     		ldr	r3, .L12+4
 245 0124 D3F84C38 		ldr	r3, [r3, #2124]
 246 0128 0748     		ldr	r0, .L12+4
 247 012a B968     		ldr	r1, [r7, #8]
 248 012c 9847     		blx	r3
ARM GAS  C:\Users\RECEPC~1\AppData\Local\Temp\ccxS8OWg.s 			page 7


 249              	.L10:
  94:.\DispenserBLL.c ****                 }
  95:.\DispenserBLL.c ****                 ptrjob++;
 250              		.loc 1 95 0
 251 012e 7B69     		ldr	r3, [r7, #20]
 252 0130 3433     		adds	r3, r3, #52
 253 0132 7B61     		str	r3, [r7, #20]
 254              	.L9:
 255              	.LBE4:
  84:.\DispenserBLL.c ****             {
 256              		.loc 1 84 0
 257 0134 7B69     		ldr	r3, [r7, #20]
 258 0136 1B68     		ldr	r3, [r3]
 259 0138 002B     		cmp	r3, #0
 260 013a D8D1     		bne	.L11
 261              	.L1:
 262              	.LBE2:
  96:.\DispenserBLL.c ****             }
  97:.\DispenserBLL.c ****         }
  98:.\DispenserBLL.c ****     }
  99:.\DispenserBLL.c **** }
 263              		.loc 1 99 0
 264 013c 2037     		adds	r7, r7, #32
 265              		.cfi_def_cfa_offset 8
 266 013e BD46     		mov	sp, r7
 267              		.cfi_def_cfa_register 13
 268              		@ sp needed
 269 0140 80BD     		pop	{r7, pc}
 270              	.L13:
 271 0142 00BF     		.align	2
 272              	.L12:
 273 0144 00000000 		.word	_g_pumpcodemap
 274 0148 00000000 		.word	_g_pumpjobqueue
 275              		.cfi_endproc
 276              	.LFE0:
 277              		.size	DispenserSide1Listener, .-DispenserSide1Listener
 278              		.section	.text.DispenserSide2Listener,"ax",%progbits
 279              		.align	2
 280              		.global	DispenserSide2Listener
 281              		.thumb
 282              		.thumb_func
 283              		.type	DispenserSide2Listener, %function
 284              	DispenserSide2Listener:
 285              	.LFB1:
 100:.\DispenserBLL.c **** 
 101:.\DispenserBLL.c **** //@Create by: HIJH
 102:.\DispenserBLL.c **** //@Date: Septembre de 2016
 103:.\DispenserBLL.c **** //This method handles all of the incoming data that has been capture on the Display.
 104:.\DispenserBLL.c **** //All codes come from the assigned button event codes. By convention the first byte
 105:.\DispenserBLL.c **** //For more information to grasph the mapping convention, see the file "DisplayBufferScreenMap"
 106:.\DispenserBLL.c **** //THIS MODEL IS NOT FLEXIBLE ENOUGHT SINCE THERE ARE OTHER TRANSACTIONS NOT RELATED WITH
 107:.\DispenserBLL.c **** //PRESET THAT MUST BE MET!!! REQUIRES FIXING!!
 108:.\DispenserBLL.c **** void DispenserSide2Listener(void *pparam)
 109:.\DispenserBLL.c **** {
 286              		.loc 1 109 0
 287              		.cfi_startproc
 288              		@ args = 0, pretend = 0, frame = 32
ARM GAS  C:\Users\RECEPC~1\AppData\Local\Temp\ccxS8OWg.s 			page 8


 289              		@ frame_needed = 1, uses_anonymous_args = 0
 290 0000 80B5     		push	{r7, lr}
 291              		.cfi_def_cfa_offset 8
 292              		.cfi_offset 7, -8
 293              		.cfi_offset 14, -4
 294 0002 88B0     		sub	sp, sp, #32
 295              		.cfi_def_cfa_offset 40
 296 0004 00AF     		add	r7, sp, #0
 297              		.cfi_def_cfa_register 7
 298 0006 7860     		str	r0, [r7, #4]
 110:.\DispenserBLL.c ****     PSINKMESSAGEPTR pmsg = (PSINKMESSAGEPTR)pparam;
 299              		.loc 1 110 0
 300 0008 7B68     		ldr	r3, [r7, #4]
 301 000a 3B61     		str	r3, [r7, #16]
 111:.\DispenserBLL.c ****     //PUMP TRANSACTION CREATION HERE!!!    
 112:.\DispenserBLL.c ****     Pump *ppump = NULL;
 302              		.loc 1 112 0
 303 000c 0023     		movs	r3, #0
 304 000e FB61     		str	r3, [r7, #28]
 113:.\DispenserBLL.c ****     //Selecting the PUMP (Position)
 114:.\DispenserBLL.c ****     PumpCodeMapping *ptr = _g_pumpcodemap;
 305              		.loc 1 114 0
 306 0010 4C4B     		ldr	r3, .L25
 307 0012 BB61     		str	r3, [r7, #24]
 115:.\DispenserBLL.c ****     uint8 pumpposcode = pmsg->_buffer[GetBufferIndexFromDisplayID(DISPLAY_SELECCIONE_POSICION)];
 308              		.loc 1 115 0
 309 0014 2E20     		movs	r0, #46
 310 0016 FFF7FEFF 		bl	GetBufferIndexFromDisplayID
 311 001a 0346     		mov	r3, r0
 312 001c 1A46     		mov	r2, r3
 313 001e 3B69     		ldr	r3, [r7, #16]
 314 0020 1344     		add	r3, r3, r2
 315 0022 1B7B     		ldrb	r3, [r3, #12]
 316 0024 FB73     		strb	r3, [r7, #15]
 116:.\DispenserBLL.c ****     while(ptr->_side != 0xFF)
 317              		.loc 1 116 0
 318 0026 0FE0     		b	.L15
 319              	.L18:
 117:.\DispenserBLL.c ****     {
 118:.\DispenserBLL.c ****         if(ptr->_side == SIDE2 && ptr->_refcode == pumpposcode)
 320              		.loc 1 118 0
 321 0028 BB69     		ldr	r3, [r7, #24]
 322 002a 1B78     		ldrb	r3, [r3]	@ zero_extendqisi2
 323 002c 022B     		cmp	r3, #2
 324 002e 08D1     		bne	.L16
 325              		.loc 1 118 0 is_stmt 0 discriminator 1
 326 0030 BB69     		ldr	r3, [r7, #24]
 327 0032 5B78     		ldrb	r3, [r3, #1]	@ zero_extendqisi2
 328 0034 FA7B     		ldrb	r2, [r7, #15]	@ zero_extendqisi2
 329 0036 9A42     		cmp	r2, r3
 330 0038 03D1     		bne	.L16
 119:.\DispenserBLL.c ****         {
 120:.\DispenserBLL.c ****             ppump = ptr->_ppump;
 331              		.loc 1 120 0 is_stmt 1
 332 003a BB69     		ldr	r3, [r7, #24]
 333 003c 5B68     		ldr	r3, [r3, #4]
 334 003e FB61     		str	r3, [r7, #28]
ARM GAS  C:\Users\RECEPC~1\AppData\Local\Temp\ccxS8OWg.s 			page 9


 121:.\DispenserBLL.c ****             break;
 335              		.loc 1 121 0
 336 0040 06E0     		b	.L17
 337              	.L16:
 122:.\DispenserBLL.c ****         }            
 123:.\DispenserBLL.c ****         ptr++;
 338              		.loc 1 123 0
 339 0042 BB69     		ldr	r3, [r7, #24]
 340 0044 0833     		adds	r3, r3, #8
 341 0046 BB61     		str	r3, [r7, #24]
 342              	.L15:
 116:.\DispenserBLL.c ****     {
 343              		.loc 1 116 0
 344 0048 BB69     		ldr	r3, [r7, #24]
 345 004a 1B78     		ldrb	r3, [r3]	@ zero_extendqisi2
 346 004c FF2B     		cmp	r3, #255
 347 004e EBD1     		bne	.L18
 348              	.L17:
 124:.\DispenserBLL.c ****     }
 125:.\DispenserBLL.c ****     if(ppump)
 349              		.loc 1 125 0
 350 0050 FB69     		ldr	r3, [r7, #28]
 351 0052 002B     		cmp	r3, #0
 352 0054 72D0     		beq	.L14
 353              	.LBB5:
 126:.\DispenserBLL.c ****     {
 127:.\DispenserBLL.c ****         
 128:.\DispenserBLL.c ****         memcpy(ppump->_trasactionbuffer, pmsg->_buffer, _MESSAGE_LENGTH_);
 354              		.loc 1 128 0
 355 0056 FB69     		ldr	r3, [r7, #28]
 356 0058 03F12002 		add	r2, r3, #32
 357 005c 3B69     		ldr	r3, [r7, #16]
 358 005e 0C33     		adds	r3, r3, #12
 359 0060 1046     		mov	r0, r2
 360 0062 1946     		mov	r1, r3
 361 0064 4FF4C072 		mov	r2, #384
 362 0068 FFF7FEFF 		bl	memcpy
 129:.\DispenserBLL.c ****         ppump->_print = (ppump->_trasactionbuffer[GetBufferIndexFromDisplayID(DISPLAY_DESEA_IMPRIMI
 363              		.loc 1 129 0
 364 006c 0B20     		movs	r0, #11
 365 006e FFF7FEFF 		bl	GetBufferIndexFromDisplayID
 366 0072 0346     		mov	r3, r0
 367 0074 1A46     		mov	r2, r3
 368 0076 FB69     		ldr	r3, [r7, #28]
 369 0078 1344     		add	r3, r3, r2
 370 007a 93F82030 		ldrb	r3, [r3, #32]	@ zero_extendqisi2
 371 007e 392B     		cmp	r3, #57
 372 0080 0CBF     		ite	eq
 373 0082 0123     		moveq	r3, #1
 374 0084 0023     		movne	r3, #0
 375 0086 DAB2     		uxtb	r2, r3
 376 0088 FB69     		ldr	r3, [r7, #28]
 377 008a 5A73     		strb	r2, [r3, #13]
 130:.\DispenserBLL.c ****         uint8 paymentmethod = pmsg->_buffer[GetBufferIndexFromDisplayID(DISPLAY_FORMA_PAGO_DESEADA)
 378              		.loc 1 130 0
 379 008c 0420     		movs	r0, #4
 380 008e FFF7FEFF 		bl	GetBufferIndexFromDisplayID
ARM GAS  C:\Users\RECEPC~1\AppData\Local\Temp\ccxS8OWg.s 			page 10


 381 0092 0346     		mov	r3, r0
 382 0094 1A46     		mov	r2, r3
 383 0096 3B69     		ldr	r3, [r7, #16]
 384 0098 1344     		add	r3, r3, r2
 385 009a 1B7B     		ldrb	r3, [r3, #12]
 386 009c BB73     		strb	r3, [r7, #14]
 131:.\DispenserBLL.c ****         if(paymentmethod == 0x0D)
 387              		.loc 1 131 0
 388 009e BB7B     		ldrb	r3, [r7, #14]	@ zero_extendqisi2
 389 00a0 0D2B     		cmp	r3, #13
 390 00a2 10D1     		bne	.L20
 391              	.LBB6:
 132:.\DispenserBLL.c ****         {        
 133:.\DispenserBLL.c ****             uint8 transactionname = pmsg->_buffer[GetBufferIndexFromDisplayID(DISPLAY_FORMA_PROGRAM
 392              		.loc 1 133 0
 393 00a4 0520     		movs	r0, #5
 394 00a6 FFF7FEFF 		bl	GetBufferIndexFromDisplayID
 395 00aa 0346     		mov	r3, r0
 396 00ac 1A46     		mov	r2, r3
 397 00ae 3B69     		ldr	r3, [r7, #16]
 398 00b0 1344     		add	r3, r3, r2
 399 00b2 1B7B     		ldrb	r3, [r3, #12]
 400 00b4 7B73     		strb	r3, [r7, #13]
 134:.\DispenserBLL.c ****             ppump->_pcurrtransaction = GetTransactionByName(transactionname);
 401              		.loc 1 134 0
 402 00b6 7B7B     		ldrb	r3, [r7, #13]	@ zero_extendqisi2
 403 00b8 1846     		mov	r0, r3
 404 00ba FFF7FEFF 		bl	GetTransactionByName
 405 00be 0246     		mov	r2, r0
 406 00c0 FB69     		ldr	r3, [r7, #28]
 407 00c2 DA61     		str	r2, [r3, #28]
 408              	.LBE6:
 409 00c4 08E0     		b	.L21
 410              	.L20:
 135:.\DispenserBLL.c ****         }
 136:.\DispenserBLL.c ****         else if(paymentmethod == 0x0E)
 411              		.loc 1 136 0
 412 00c6 BB7B     		ldrb	r3, [r7, #14]	@ zero_extendqisi2
 413 00c8 0E2B     		cmp	r3, #14
 414 00ca 05D1     		bne	.L21
 137:.\DispenserBLL.c ****         {
 138:.\DispenserBLL.c ****             ppump->_pcurrtransaction = GetTransactionByName(_PUMP_FILL_CREDIT_);
 415              		.loc 1 138 0
 416 00cc 4420     		movs	r0, #68
 417 00ce FFF7FEFF 		bl	GetTransactionByName
 418 00d2 0246     		mov	r2, r0
 419 00d4 FB69     		ldr	r3, [r7, #28]
 420 00d6 DA61     		str	r2, [r3, #28]
 421              	.L21:
 139:.\DispenserBLL.c ****         }
 140:.\DispenserBLL.c ****         
 141:.\DispenserBLL.c ****         ppump->_presetdone = false;
 422              		.loc 1 141 0
 423 00d8 FB69     		ldr	r3, [r7, #28]
 424 00da 0022     		movs	r2, #0
 425 00dc 1A72     		strb	r2, [r3, #8]
 142:.\DispenserBLL.c ****         PNEAR_PUMPTRANSACTIONJOBPTR ptrjob = ((PNEAR_PUMPTRANSACTIONPTR)ppump->_pcurrtransaction)->
ARM GAS  C:\Users\RECEPC~1\AppData\Local\Temp\ccxS8OWg.s 			page 11


 426              		.loc 1 142 0
 427 00de FB69     		ldr	r3, [r7, #28]
 428 00e0 DB69     		ldr	r3, [r3, #28]
 429 00e2 0433     		adds	r3, r3, #4
 430 00e4 7B61     		str	r3, [r7, #20]
 143:.\DispenserBLL.c ****         if(ptrjob)
 431              		.loc 1 143 0
 432 00e6 7B69     		ldr	r3, [r7, #20]
 433 00e8 002B     		cmp	r3, #0
 434 00ea 27D0     		beq	.L14
 144:.\DispenserBLL.c ****         {
 145:.\DispenserBLL.c ****             while(ptrjob->Request != NULL)
 435              		.loc 1 145 0
 436 00ec 22E0     		b	.L22
 437              	.L24:
 438              	.LBB7:
 146:.\DispenserBLL.c ****             {
 147:.\DispenserBLL.c ****                 PPUMPTRANSACTIONJOBCONTEXTPTR pjobcntr = _g_pumpjobqueue.Allocate(&_g_pumpjobqueue)
 439              		.loc 1 147 0
 440 00ee 164B     		ldr	r3, .L25+4
 441 00f0 D3F84838 		ldr	r3, [r3, #2120]
 442 00f4 1448     		ldr	r0, .L25+4
 443 00f6 9847     		blx	r3
 444 00f8 B860     		str	r0, [r7, #8]
 148:.\DispenserBLL.c ****                 if(pjobcntr)
 445              		.loc 1 148 0
 446 00fa BB68     		ldr	r3, [r7, #8]
 447 00fc 002B     		cmp	r3, #0
 448 00fe 16D0     		beq	.L23
 149:.\DispenserBLL.c ****                 {
 150:.\DispenserBLL.c ****                     pjobcntr->_prequest = ptrjob;
 449              		.loc 1 150 0
 450 0100 BB68     		ldr	r3, [r7, #8]
 451 0102 7A69     		ldr	r2, [r7, #20]
 452 0104 5A61     		str	r2, [r3, #20]
 151:.\DispenserBLL.c ****                     pjobcntr->_presponse = NULL;
 453              		.loc 1 151 0
 454 0106 BB68     		ldr	r3, [r7, #8]
 455 0108 0022     		movs	r2, #0
 456 010a 9A61     		str	r2, [r3, #24]
 152:.\DispenserBLL.c ****                     pjobcntr->_ppump = ppump;
 457              		.loc 1 152 0
 458 010c BB68     		ldr	r3, [r7, #8]
 459 010e FA69     		ldr	r2, [r7, #28]
 460 0110 DA61     		str	r2, [r3, #28]
 153:.\DispenserBLL.c ****                     pjobcntr->_ppump->CleanUp(pjobcntr->_ppump);
 461              		.loc 1 153 0
 462 0112 BB68     		ldr	r3, [r7, #8]
 463 0114 DB69     		ldr	r3, [r3, #28]
 464 0116 D3F8B839 		ldr	r3, [r3, #2488]
 465 011a BA68     		ldr	r2, [r7, #8]
 466 011c D269     		ldr	r2, [r2, #28]
 467 011e 1046     		mov	r0, r2
 468 0120 9847     		blx	r3
 154:.\DispenserBLL.c ****                     _g_pumpjobqueue.Enqueue(&_g_pumpjobqueue, pjobcntr);
 469              		.loc 1 154 0
 470 0122 094B     		ldr	r3, .L25+4
ARM GAS  C:\Users\RECEPC~1\AppData\Local\Temp\ccxS8OWg.s 			page 12


 471 0124 D3F84C38 		ldr	r3, [r3, #2124]
 472 0128 0748     		ldr	r0, .L25+4
 473 012a B968     		ldr	r1, [r7, #8]
 474 012c 9847     		blx	r3
 475              	.L23:
 155:.\DispenserBLL.c ****                 }
 156:.\DispenserBLL.c ****                 ptrjob++;
 476              		.loc 1 156 0
 477 012e 7B69     		ldr	r3, [r7, #20]
 478 0130 3433     		adds	r3, r3, #52
 479 0132 7B61     		str	r3, [r7, #20]
 480              	.L22:
 481              	.LBE7:
 145:.\DispenserBLL.c ****             {
 482              		.loc 1 145 0
 483 0134 7B69     		ldr	r3, [r7, #20]
 484 0136 1B68     		ldr	r3, [r3]
 485 0138 002B     		cmp	r3, #0
 486 013a D8D1     		bne	.L24
 487              	.L14:
 488              	.LBE5:
 157:.\DispenserBLL.c ****             }
 158:.\DispenserBLL.c ****         }
 159:.\DispenserBLL.c ****     }
 160:.\DispenserBLL.c **** }
 489              		.loc 1 160 0
 490 013c 2037     		adds	r7, r7, #32
 491              		.cfi_def_cfa_offset 8
 492 013e BD46     		mov	sp, r7
 493              		.cfi_def_cfa_register 13
 494              		@ sp needed
 495 0140 80BD     		pop	{r7, pc}
 496              	.L26:
 497 0142 00BF     		.align	2
 498              	.L25:
 499 0144 00000000 		.word	_g_pumpcodemap
 500 0148 00000000 		.word	_g_pumpjobqueue
 501              		.cfi_endproc
 502              	.LFE1:
 503              		.size	DispenserSide2Listener, .-DispenserSide2Listener
 504              		.section	.text.DispenserUpdatePumpState,"ax",%progbits
 505              		.align	2
 506              		.global	DispenserUpdatePumpState
 507              		.thumb
 508              		.thumb_func
 509              		.type	DispenserUpdatePumpState, %function
 510              	DispenserUpdatePumpState:
 511              	.LFB2:
 161:.\DispenserBLL.c **** 
 162:.\DispenserBLL.c **** //@Created By: HIJH
 163:.\DispenserBLL.c **** //@Date: Septembre de 2016
 164:.\DispenserBLL.c **** //Acquires the current pump/hose state
 165:.\DispenserBLL.c **** void DispenserUpdatePumpState(void *pparam)
 166:.\DispenserBLL.c **** {
 512              		.loc 1 166 0
 513              		.cfi_startproc
 514              		@ args = 0, pretend = 0, frame = 32
ARM GAS  C:\Users\RECEPC~1\AppData\Local\Temp\ccxS8OWg.s 			page 13


 515              		@ frame_needed = 1, uses_anonymous_args = 0
 516 0000 80B5     		push	{r7, lr}
 517              		.cfi_def_cfa_offset 8
 518              		.cfi_offset 7, -8
 519              		.cfi_offset 14, -4
 520 0002 88B0     		sub	sp, sp, #32
 521              		.cfi_def_cfa_offset 40
 522 0004 00AF     		add	r7, sp, #0
 523              		.cfi_def_cfa_register 7
 524 0006 7860     		str	r0, [r7, #4]
 167:.\DispenserBLL.c ****     PNEAR_PUMPPTR ppump = PNEAR_NULLPTR;
 525              		.loc 1 167 0
 526 0008 0023     		movs	r3, #0
 527 000a FB61     		str	r3, [r7, #28]
 168:.\DispenserBLL.c ****     PSINKMESSAGEPTR pmsg = (PSINKMESSAGEPTR)pparam;
 528              		.loc 1 168 0
 529 000c 7B68     		ldr	r3, [r7, #4]
 530 000e 3B61     		str	r3, [r7, #16]
 169:.\DispenserBLL.c ****     FOR(uint8 index = 0, index < _g_dispenserlayoutinfo._numpositions, index++)
 531              		.loc 1 169 0
 532 0010 0023     		movs	r3, #0
 533 0012 FB76     		strb	r3, [r7, #27]
 534 0014 36E0     		b	.L28
 535              	.L33:
 170:.\DispenserBLL.c ****     {
 171:.\DispenserBLL.c ****         if(_g_pumps[index]._roundrobinstate == _PUMP_RR_ACTIVE_)
 536              		.loc 1 171 0
 537 0016 FB7E     		ldrb	r3, [r7, #27]	@ zero_extendqisi2
 538 0018 444A     		ldr	r2, .L39
 539 001a 4FF41C61 		mov	r1, #2496
 540 001e 01FB03F3 		mul	r3, r1, r3
 541 0022 1344     		add	r3, r3, r2
 542 0024 0833     		adds	r3, r3, #8
 543 0026 9B78     		ldrb	r3, [r3, #2]
 544 0028 DBB2     		uxtb	r3, r3
 545 002a 012B     		cmp	r3, #1
 546 002c 27D1     		bne	.L29
 172:.\DispenserBLL.c ****         {
 173:.\DispenserBLL.c ****             ppump = &_g_pumps[index];
 547              		.loc 1 173 0
 548 002e FB7E     		ldrb	r3, [r7, #27]	@ zero_extendqisi2
 549 0030 4FF41C62 		mov	r2, #2496
 550 0034 02FB03F3 		mul	r3, r2, r3
 551 0038 3C4A     		ldr	r2, .L39
 552 003a 1344     		add	r3, r3, r2
 553 003c FB61     		str	r3, [r7, #28]
 174:.\DispenserBLL.c ****             _g_pumps[index]._roundrobinstate = _PUMP_RR_INACTIVE_;
 554              		.loc 1 174 0
 555 003e FB7E     		ldrb	r3, [r7, #27]	@ zero_extendqisi2
 556 0040 3A4A     		ldr	r2, .L39
 557 0042 4FF41C61 		mov	r1, #2496
 558 0046 01FB03F3 		mul	r3, r1, r3
 559 004a 1344     		add	r3, r3, r2
 560 004c 0833     		adds	r3, r3, #8
 561 004e 0222     		movs	r2, #2
 562 0050 9A70     		strb	r2, [r3, #2]
 175:.\DispenserBLL.c ****             if((index + 1) >= _g_dispenserlayoutinfo._numpositions)
ARM GAS  C:\Users\RECEPC~1\AppData\Local\Temp\ccxS8OWg.s 			page 14


 563              		.loc 1 175 0
 564 0052 FB7E     		ldrb	r3, [r7, #27]	@ zero_extendqisi2
 565 0054 0133     		adds	r3, r3, #1
 566 0056 364A     		ldr	r2, .L39+4
 567 0058 9278     		ldrb	r2, [r2, #2]	@ zero_extendqisi2
 568 005a 9342     		cmp	r3, r2
 569 005c 03DB     		blt	.L30
 176:.\DispenserBLL.c ****                 _g_pumps[0x00]._roundrobinstate = _PUMP_RR_ACTIVE_;
 570              		.loc 1 176 0
 571 005e 334B     		ldr	r3, .L39
 572 0060 0122     		movs	r2, #1
 573 0062 9A72     		strb	r2, [r3, #10]
 177:.\DispenserBLL.c ****             else
 178:.\DispenserBLL.c ****                 _g_pumps[(index + 1)]._roundrobinstate = _PUMP_RR_ACTIVE_;
 179:.\DispenserBLL.c ****             
 180:.\DispenserBLL.c ****             break;
 574              		.loc 1 180 0
 575 0064 13E0     		b	.L32
 576              	.L30:
 178:.\DispenserBLL.c ****             
 577              		.loc 1 178 0
 578 0066 FB7E     		ldrb	r3, [r7, #27]	@ zero_extendqisi2
 579 0068 0133     		adds	r3, r3, #1
 580 006a 304A     		ldr	r2, .L39
 581 006c 4FF41C61 		mov	r1, #2496
 582 0070 01FB03F3 		mul	r3, r1, r3
 583 0074 1344     		add	r3, r3, r2
 584 0076 0833     		adds	r3, r3, #8
 585 0078 0122     		movs	r2, #1
 586 007a 9A70     		strb	r2, [r3, #2]
 587              		.loc 1 180 0
 588 007c 07E0     		b	.L32
 589              	.L29:
 169:.\DispenserBLL.c ****     {
 590              		.loc 1 169 0 discriminator 2
 591 007e FB7E     		ldrb	r3, [r7, #27]	@ zero_extendqisi2
 592 0080 0133     		adds	r3, r3, #1
 593 0082 FB76     		strb	r3, [r7, #27]
 594              	.L28:
 169:.\DispenserBLL.c ****     {
 595              		.loc 1 169 0 is_stmt 0 discriminator 1
 596 0084 2A4B     		ldr	r3, .L39+4
 597 0086 9B78     		ldrb	r3, [r3, #2]	@ zero_extendqisi2
 598 0088 FA7E     		ldrb	r2, [r7, #27]	@ zero_extendqisi2
 599 008a 9A42     		cmp	r2, r3
 600 008c C3D3     		bcc	.L33
 601              	.L32:
 181:.\DispenserBLL.c ****         }
 182:.\DispenserBLL.c ****     }
 183:.\DispenserBLL.c **** 
 184:.\DispenserBLL.c ****     if(ppump)
 602              		.loc 1 184 0 is_stmt 1
 603 008e FB69     		ldr	r3, [r7, #28]
 604 0090 002B     		cmp	r3, #0
 605 0092 48D0     		beq	.L27
 606              	.LBB8:
 185:.\DispenserBLL.c ****     {
ARM GAS  C:\Users\RECEPC~1\AppData\Local\Temp\ccxS8OWg.s 			page 15


 186:.\DispenserBLL.c ****         ppump->_acquiringstate = true;
 607              		.loc 1 186 0
 608 0094 FB69     		ldr	r3, [r7, #28]
 609 0096 0122     		movs	r2, #1
 610 0098 5A71     		strb	r2, [r3, #5]
 187:.\DispenserBLL.c ****         ppump->_pcurrtransaction = GetTransactionByName(_PUMP_STATE_);
 611              		.loc 1 187 0
 612 009a 4820     		movs	r0, #72
 613 009c FFF7FEFF 		bl	GetTransactionByName
 614 00a0 0246     		mov	r2, r0
 615 00a2 FB69     		ldr	r3, [r7, #28]
 616 00a4 DA61     		str	r2, [r3, #28]
 188:.\DispenserBLL.c ****         PumpTransactionJob *ptrjob = &((PumpTransaction*)ppump->_pcurrtransaction)->_jobs[0];
 617              		.loc 1 188 0
 618 00a6 FB69     		ldr	r3, [r7, #28]
 619 00a8 DB69     		ldr	r3, [r3, #28]
 620 00aa 0433     		adds	r3, r3, #4
 621 00ac 7B61     		str	r3, [r7, #20]
 189:.\DispenserBLL.c ****         if(ptrjob)
 622              		.loc 1 189 0
 623 00ae 7B69     		ldr	r3, [r7, #20]
 624 00b0 002B     		cmp	r3, #0
 625 00b2 32D0     		beq	.L35
 190:.\DispenserBLL.c ****         {
 191:.\DispenserBLL.c ****             while(ptrjob->Request != NULL)
 626              		.loc 1 191 0
 627 00b4 2DE0     		b	.L36
 628              	.L38:
 629              	.LBB9:
 192:.\DispenserBLL.c ****             {
 193:.\DispenserBLL.c ****                 PPUMPTRANSACTIONJOBCONTEXTPTR pjobcntr = _g_pumpjobqueue.Allocate(&_g_pumpjobqueue)
 630              		.loc 1 193 0
 631 00b6 1F4B     		ldr	r3, .L39+8
 632 00b8 D3F84838 		ldr	r3, [r3, #2120]
 633 00bc 1D48     		ldr	r0, .L39+8
 634 00be 9847     		blx	r3
 635 00c0 F860     		str	r0, [r7, #12]
 194:.\DispenserBLL.c ****                 if(pjobcntr)
 636              		.loc 1 194 0
 637 00c2 FB68     		ldr	r3, [r7, #12]
 638 00c4 002B     		cmp	r3, #0
 639 00c6 21D0     		beq	.L37
 195:.\DispenserBLL.c ****                 {
 196:.\DispenserBLL.c ****                     pjobcntr->_reenqueue = false;
 640              		.loc 1 196 0
 641 00c8 FB68     		ldr	r3, [r7, #12]
 642 00ca 0022     		movs	r2, #0
 643 00cc 1A70     		strb	r2, [r3]
 197:.\DispenserBLL.c ****                     pjobcntr->_prequest = ptrjob;
 644              		.loc 1 197 0
 645 00ce FB68     		ldr	r3, [r7, #12]
 646 00d0 7A69     		ldr	r2, [r7, #20]
 647 00d2 5A61     		str	r2, [r3, #20]
 198:.\DispenserBLL.c ****                     pjobcntr->_presponse = NULL;
 648              		.loc 1 198 0
 649 00d4 FB68     		ldr	r3, [r7, #12]
 650 00d6 0022     		movs	r2, #0
ARM GAS  C:\Users\RECEPC~1\AppData\Local\Temp\ccxS8OWg.s 			page 16


 651 00d8 9A61     		str	r2, [r3, #24]
 199:.\DispenserBLL.c ****                     pjobcntr->_ppump = ppump;
 652              		.loc 1 199 0
 653 00da FB68     		ldr	r3, [r7, #12]
 654 00dc FA69     		ldr	r2, [r7, #28]
 655 00de DA61     		str	r2, [r3, #28]
 200:.\DispenserBLL.c ****                     pjobcntr->_ppump->CleanUp(pjobcntr->_ppump);
 656              		.loc 1 200 0
 657 00e0 FB68     		ldr	r3, [r7, #12]
 658 00e2 DB69     		ldr	r3, [r3, #28]
 659 00e4 D3F8B839 		ldr	r3, [r3, #2488]
 660 00e8 FA68     		ldr	r2, [r7, #12]
 661 00ea D269     		ldr	r2, [r2, #28]
 662 00ec 1046     		mov	r0, r2
 663 00ee 9847     		blx	r3
 201:.\DispenserBLL.c ****                     //This callback will be invoked upon response (if exists)
 202:.\DispenserBLL.c ****                     pjobcntr->Callback = pmsg->Callback;
 664              		.loc 1 202 0
 665 00f0 3B69     		ldr	r3, [r7, #16]
 666 00f2 D3F89421 		ldr	r2, [r3, #404]
 667 00f6 FB68     		ldr	r3, [r7, #12]
 668 00f8 1A62     		str	r2, [r3, #32]
 203:.\DispenserBLL.c ****                     pjobcntr->_pdata = pmsg;
 669              		.loc 1 203 0
 670 00fa FB68     		ldr	r3, [r7, #12]
 671 00fc 3A69     		ldr	r2, [r7, #16]
 672 00fe 5A62     		str	r2, [r3, #36]
 204:.\DispenserBLL.c ****                     
 205:.\DispenserBLL.c ****                     _g_pumpjobqueue.Enqueue(&_g_pumpjobqueue, pjobcntr);
 673              		.loc 1 205 0
 674 0100 0C4B     		ldr	r3, .L39+8
 675 0102 D3F84C38 		ldr	r3, [r3, #2124]
 676 0106 0B48     		ldr	r0, .L39+8
 677 0108 F968     		ldr	r1, [r7, #12]
 678 010a 9847     		blx	r3
 679              	.L37:
 206:.\DispenserBLL.c ****                 }
 207:.\DispenserBLL.c ****                 ptrjob++;
 680              		.loc 1 207 0
 681 010c 7B69     		ldr	r3, [r7, #20]
 682 010e 3433     		adds	r3, r3, #52
 683 0110 7B61     		str	r3, [r7, #20]
 684              	.L36:
 685              	.LBE9:
 191:.\DispenserBLL.c ****             {
 686              		.loc 1 191 0
 687 0112 7B69     		ldr	r3, [r7, #20]
 688 0114 1B68     		ldr	r3, [r3]
 689 0116 002B     		cmp	r3, #0
 690 0118 CDD1     		bne	.L38
 691              	.L35:
 208:.\DispenserBLL.c ****             }
 209:.\DispenserBLL.c ****         }
 210:.\DispenserBLL.c ****         //Pump Unlock by pushing the pump/position out from the EOT condition
 211:.\DispenserBLL.c ****         DispenserUnlockPumpsOnEOT(ppump);
 692              		.loc 1 211 0
 693 011a F869     		ldr	r0, [r7, #28]
ARM GAS  C:\Users\RECEPC~1\AppData\Local\Temp\ccxS8OWg.s 			page 17


 694 011c FFF7FEFF 		bl	DispenserUnlockPumpsOnEOT
 212:.\DispenserBLL.c ****         //Conditional price restoration after a credit sale
 213:.\DispenserBLL.c ****         DispenserRestorePrices(ppump);
 695              		.loc 1 213 0
 696 0120 F869     		ldr	r0, [r7, #28]
 697 0122 FFF7FEFF 		bl	DispenserRestorePrices
 698              	.L27:
 699              	.LBE8:
 214:.\DispenserBLL.c ****     }
 215:.\DispenserBLL.c **** }
 700              		.loc 1 215 0
 701 0126 2037     		adds	r7, r7, #32
 702              		.cfi_def_cfa_offset 8
 703 0128 BD46     		mov	sp, r7
 704              		.cfi_def_cfa_register 13
 705              		@ sp needed
 706 012a 80BD     		pop	{r7, pc}
 707              	.L40:
 708              		.align	2
 709              	.L39:
 710 012c 00000000 		.word	_g_pumps
 711 0130 00000000 		.word	_g_dispenserlayoutinfo
 712 0134 00000000 		.word	_g_pumpjobqueue
 713              		.cfi_endproc
 714              	.LFE2:
 715              		.size	DispenserUpdatePumpState, .-DispenserUpdatePumpState
 716              		.section	.text.DispenserUnlockPumpsOnEOT,"ax",%progbits
 717              		.align	2
 718              		.global	DispenserUnlockPumpsOnEOT
 719              		.thumb
 720              		.thumb_func
 721              		.type	DispenserUnlockPumpsOnEOT, %function
 722              	DispenserUnlockPumpsOnEOT:
 723              	.LFB3:
 216:.\DispenserBLL.c **** 
 217:.\DispenserBLL.c **** //@Created By: HIJH
 218:.\DispenserBLL.c **** //@Date: Septembre de 2016
 219:.\DispenserBLL.c **** //Unlocks pumps on EOT condition
 220:.\DispenserBLL.c **** void DispenserUnlockPumpsOnEOT(LPVOID pparam)
 221:.\DispenserBLL.c **** {
 724              		.loc 1 221 0
 725              		.cfi_startproc
 726              		@ args = 0, pretend = 0, frame = 24
 727              		@ frame_needed = 1, uses_anonymous_args = 0
 728 0000 80B5     		push	{r7, lr}
 729              		.cfi_def_cfa_offset 8
 730              		.cfi_offset 7, -8
 731              		.cfi_offset 14, -4
 732 0002 86B0     		sub	sp, sp, #24
 733              		.cfi_def_cfa_offset 32
 734 0004 00AF     		add	r7, sp, #0
 735              		.cfi_def_cfa_register 7
 736 0006 7860     		str	r0, [r7, #4]
 222:.\DispenserBLL.c ****     PNEAR_PUMPPTR ppump = (PNEAR_PUMPPTR)pparam;
 737              		.loc 1 222 0
 738 0008 7B68     		ldr	r3, [r7, #4]
 739 000a 3B61     		str	r3, [r7, #16]
ARM GAS  C:\Users\RECEPC~1\AppData\Local\Temp\ccxS8OWg.s 			page 18


 223:.\DispenserBLL.c ****     //The PUMP must be locked by EOT and without any current transaction
 224:.\DispenserBLL.c ****     if(((ppump->_pumpstate == PUMP_FEOT) || (ppump->_pumpstate == PUMP_PEOT)) && ppump->_authorized
 740              		.loc 1 224 0
 741 000c 3B69     		ldr	r3, [r7, #16]
 742 000e 9B78     		ldrb	r3, [r3, #2]
 743 0010 DBB2     		uxtb	r3, r3
 744 0012 0B2B     		cmp	r3, #11
 745 0014 04D0     		beq	.L42
 746              		.loc 1 224 0 is_stmt 0 discriminator 2
 747 0016 3B69     		ldr	r3, [r7, #16]
 748 0018 9B78     		ldrb	r3, [r3, #2]
 749 001a DBB2     		uxtb	r3, r3
 750 001c 0A2B     		cmp	r3, #10
 751 001e 54D1     		bne	.L41
 752              	.L42:
 753              		.loc 1 224 0 discriminator 3
 754 0020 3B69     		ldr	r3, [r7, #16]
 755 0022 9B79     		ldrb	r3, [r3, #6]
 756 0024 DBB2     		uxtb	r3, r3
 757 0026 002B     		cmp	r3, #0
 758 0028 4FD0     		beq	.L41
 759              	.LBB10:
 225:.\DispenserBLL.c ****     {
 226:.\DispenserBLL.c ****         ppump->_pcurrtransaction = GetTransactionByName(_PUMP_EOT_);
 760              		.loc 1 226 0 is_stmt 1
 761 002a 4920     		movs	r0, #73
 762 002c FFF7FEFF 		bl	GetTransactionByName
 763 0030 0246     		mov	r2, r0
 764 0032 3B69     		ldr	r3, [r7, #16]
 765 0034 DA61     		str	r2, [r3, #28]
 227:.\DispenserBLL.c ****         PumpTransactionJob *ptrjob = &((PumpTransaction*)ppump->_pcurrtransaction)->_jobs[0];
 766              		.loc 1 227 0
 767 0036 3B69     		ldr	r3, [r7, #16]
 768 0038 DB69     		ldr	r3, [r3, #28]
 769 003a 0433     		adds	r3, r3, #4
 770 003c 7B61     		str	r3, [r7, #20]
 228:.\DispenserBLL.c ****         if(ptrjob)
 771              		.loc 1 228 0
 772 003e 7B69     		ldr	r3, [r7, #20]
 773 0040 002B     		cmp	r3, #0
 774 0042 2AD0     		beq	.L44
 229:.\DispenserBLL.c ****         {
 230:.\DispenserBLL.c ****             while(ptrjob->Request != NULL)
 775              		.loc 1 230 0
 776 0044 25E0     		b	.L45
 777              	.L47:
 778              	.LBB11:
 231:.\DispenserBLL.c ****             {
 232:.\DispenserBLL.c ****                 PPUMPTRANSACTIONJOBCONTEXTPTR pjobcntr = _g_pumpjobqueue.Allocate(&_g_pumpjobqueue)
 779              		.loc 1 232 0
 780 0046 224B     		ldr	r3, .L48
 781 0048 D3F84838 		ldr	r3, [r3, #2120]
 782 004c 2048     		ldr	r0, .L48
 783 004e 9847     		blx	r3
 784 0050 F860     		str	r0, [r7, #12]
 233:.\DispenserBLL.c ****                 if(pjobcntr)
 785              		.loc 1 233 0
ARM GAS  C:\Users\RECEPC~1\AppData\Local\Temp\ccxS8OWg.s 			page 19


 786 0052 FB68     		ldr	r3, [r7, #12]
 787 0054 002B     		cmp	r3, #0
 788 0056 19D0     		beq	.L46
 234:.\DispenserBLL.c ****                 {
 235:.\DispenserBLL.c ****                     pjobcntr->_reenqueue = false;
 789              		.loc 1 235 0
 790 0058 FB68     		ldr	r3, [r7, #12]
 791 005a 0022     		movs	r2, #0
 792 005c 1A70     		strb	r2, [r3]
 236:.\DispenserBLL.c ****                     pjobcntr->_prequest = ptrjob;
 793              		.loc 1 236 0
 794 005e FB68     		ldr	r3, [r7, #12]
 795 0060 7A69     		ldr	r2, [r7, #20]
 796 0062 5A61     		str	r2, [r3, #20]
 237:.\DispenserBLL.c ****                     pjobcntr->_presponse = NULL;
 797              		.loc 1 237 0
 798 0064 FB68     		ldr	r3, [r7, #12]
 799 0066 0022     		movs	r2, #0
 800 0068 9A61     		str	r2, [r3, #24]
 238:.\DispenserBLL.c ****                     pjobcntr->_ppump = ppump;
 801              		.loc 1 238 0
 802 006a FB68     		ldr	r3, [r7, #12]
 803 006c 3A69     		ldr	r2, [r7, #16]
 804 006e DA61     		str	r2, [r3, #28]
 239:.\DispenserBLL.c ****                     pjobcntr->_ppump->CleanUp(pjobcntr->_ppump);
 805              		.loc 1 239 0
 806 0070 FB68     		ldr	r3, [r7, #12]
 807 0072 DB69     		ldr	r3, [r3, #28]
 808 0074 D3F8B839 		ldr	r3, [r3, #2488]
 809 0078 FA68     		ldr	r2, [r7, #12]
 810 007a D269     		ldr	r2, [r2, #28]
 811 007c 1046     		mov	r0, r2
 812 007e 9847     		blx	r3
 240:.\DispenserBLL.c ****                     //This callback will be invoked upon response (if exists)
 241:.\DispenserBLL.c ****                     //pjobcntr->Callback = pmsg->Callback;
 242:.\DispenserBLL.c ****                     //pjobcntr->_pdata = pmsg;
 243:.\DispenserBLL.c ****                     
 244:.\DispenserBLL.c ****                     _g_pumpjobqueue.Enqueue(&_g_pumpjobqueue, pjobcntr);
 813              		.loc 1 244 0
 814 0080 134B     		ldr	r3, .L48
 815 0082 D3F84C38 		ldr	r3, [r3, #2124]
 816 0086 1248     		ldr	r0, .L48
 817 0088 F968     		ldr	r1, [r7, #12]
 818 008a 9847     		blx	r3
 819              	.L46:
 245:.\DispenserBLL.c ****                 }
 246:.\DispenserBLL.c ****                 ptrjob++;
 820              		.loc 1 246 0
 821 008c 7B69     		ldr	r3, [r7, #20]
 822 008e 3433     		adds	r3, r3, #52
 823 0090 7B61     		str	r3, [r7, #20]
 824              	.L45:
 825              	.LBE11:
 230:.\DispenserBLL.c ****             {
 826              		.loc 1 230 0
 827 0092 7B69     		ldr	r3, [r7, #20]
 828 0094 1B68     		ldr	r3, [r3]
ARM GAS  C:\Users\RECEPC~1\AppData\Local\Temp\ccxS8OWg.s 			page 20


 829 0096 002B     		cmp	r3, #0
 830 0098 D5D1     		bne	.L47
 831              	.L44:
 247:.\DispenserBLL.c ****             }
 248:.\DispenserBLL.c ****         }
 249:.\DispenserBLL.c ****         PSINKMESSAGEPTR psinkmsg = AllocateMessageSlot(DISPENSER_ACQUIRE_TOTALS);
 832              		.loc 1 249 0
 833 009a 1220     		movs	r0, #18
 834 009c FFF7FEFF 		bl	AllocateMessageSlot
 835 00a0 B860     		str	r0, [r7, #8]
 250:.\DispenserBLL.c ****         psinkmsg->_messageid = DISPENSER_ACQUIRE_TOTALS;
 836              		.loc 1 250 0
 837 00a2 BB68     		ldr	r3, [r7, #8]
 838 00a4 1222     		movs	r2, #18
 839 00a6 5A70     		strb	r2, [r3, #1]
 251:.\DispenserBLL.c ****         psinkmsg->_messagetype = FIRSTFOUND;
 840              		.loc 1 251 0
 841 00a8 BB68     		ldr	r3, [r7, #8]
 842 00aa 0322     		movs	r2, #3
 843 00ac 9A70     		strb	r2, [r3, #2]
 252:.\DispenserBLL.c ****         memcpy(psinkmsg->_buffer, (const void*)NULL, 0x00);
 253:.\DispenserBLL.c ****         psinkmsg->_buffer[0x00] = ppump->_pumpid;
 844              		.loc 1 253 0
 845 00ae 3B69     		ldr	r3, [r7, #16]
 846 00b0 1A78     		ldrb	r2, [r3]	@ zero_extendqisi2
 847 00b2 BB68     		ldr	r3, [r7, #8]
 848 00b4 1A73     		strb	r2, [r3, #12]
 254:.\DispenserBLL.c ****         psinkmsg->_buffersize = 0x01;
 849              		.loc 1 254 0
 850 00b6 BB68     		ldr	r3, [r7, #8]
 851 00b8 0122     		movs	r2, #1
 852 00ba A3F88C21 		strh	r2, [r3, #396]	@ movhi
 255:.\DispenserBLL.c ****         
 256:.\DispenserBLL.c ****         psinkmsg->_messagestate = SINK_BUSY;
 853              		.loc 1 256 0
 854 00be BB68     		ldr	r3, [r7, #8]
 855 00c0 0322     		movs	r2, #3
 856 00c2 DA70     		strb	r2, [r3, #3]
 257:.\DispenserBLL.c ****         
 258:.\DispenserBLL.c ****         ppump->_authorized = false;
 857              		.loc 1 258 0
 858 00c4 3B69     		ldr	r3, [r7, #16]
 859 00c6 0022     		movs	r2, #0
 860 00c8 9A71     		strb	r2, [r3, #6]
 861              	.L41:
 862              	.LBE10:
 259:.\DispenserBLL.c ****     }
 260:.\DispenserBLL.c **** }
 863              		.loc 1 260 0
 864 00ca 1837     		adds	r7, r7, #24
 865              		.cfi_def_cfa_offset 8
 866 00cc BD46     		mov	sp, r7
 867              		.cfi_def_cfa_register 13
 868              		@ sp needed
 869 00ce 80BD     		pop	{r7, pc}
 870              	.L49:
 871              		.align	2
ARM GAS  C:\Users\RECEPC~1\AppData\Local\Temp\ccxS8OWg.s 			page 21


 872              	.L48:
 873 00d0 00000000 		.word	_g_pumpjobqueue
 874              		.cfi_endproc
 875              	.LFE3:
 876              		.size	DispenserUnlockPumpsOnEOT, .-DispenserUnlockPumpsOnEOT
 877              		.section	.text.DispenserRestorePrices,"ax",%progbits
 878              		.align	2
 879              		.global	DispenserRestorePrices
 880              		.thumb
 881              		.thumb_func
 882              		.type	DispenserRestorePrices, %function
 883              	DispenserRestorePrices:
 884              	.LFB4:
 261:.\DispenserBLL.c **** 
 262:.\DispenserBLL.c **** void DispenserRestorePrices(LPVOID pparam)
 263:.\DispenserBLL.c **** {
 885              		.loc 1 263 0
 886              		.cfi_startproc
 887              		@ args = 0, pretend = 0, frame = 24
 888              		@ frame_needed = 1, uses_anonymous_args = 0
 889 0000 80B5     		push	{r7, lr}
 890              		.cfi_def_cfa_offset 8
 891              		.cfi_offset 7, -8
 892              		.cfi_offset 14, -4
 893 0002 86B0     		sub	sp, sp, #24
 894              		.cfi_def_cfa_offset 32
 895 0004 00AF     		add	r7, sp, #0
 896              		.cfi_def_cfa_register 7
 897 0006 7860     		str	r0, [r7, #4]
 264:.\DispenserBLL.c ****     PNEAR_PUMPPTR ppump = (PNEAR_PUMPPTR)pparam;
 898              		.loc 1 264 0
 899 0008 7B68     		ldr	r3, [r7, #4]
 900 000a 3B61     		str	r3, [r7, #16]
 265:.\DispenserBLL.c ****     //The PUMP must be locked by EOT and without any current transaction
 266:.\DispenserBLL.c ****     if((ppump->_pumpstate == PUMP_IDLE || ppump->_pumpstate == PUMP_CALLING) && ppump->_restorepric
 901              		.loc 1 266 0
 902 000c 3B69     		ldr	r3, [r7, #16]
 903 000e 9B78     		ldrb	r3, [r3, #2]
 904 0010 DBB2     		uxtb	r3, r3
 905 0012 062B     		cmp	r3, #6
 906 0014 04D0     		beq	.L51
 907              		.loc 1 266 0 is_stmt 0 discriminator 2
 908 0016 3B69     		ldr	r3, [r7, #16]
 909 0018 9B78     		ldrb	r3, [r3, #2]
 910 001a DBB2     		uxtb	r3, r3
 911 001c 072B     		cmp	r3, #7
 912 001e 3CD1     		bne	.L50
 913              	.L51:
 914              		.loc 1 266 0 discriminator 3
 915 0020 3B69     		ldr	r3, [r7, #16]
 916 0022 DB79     		ldrb	r3, [r3, #7]
 917 0024 DBB2     		uxtb	r3, r3
 918 0026 002B     		cmp	r3, #0
 919 0028 37D0     		beq	.L50
 920              	.LBB12:
 267:.\DispenserBLL.c ****     {
 268:.\DispenserBLL.c ****         ppump->_pcurrtransaction = GetTransactionByName(_PUMP_RESTORE_PRICE_);
ARM GAS  C:\Users\RECEPC~1\AppData\Local\Temp\ccxS8OWg.s 			page 22


 921              		.loc 1 268 0 is_stmt 1
 922 002a 4620     		movs	r0, #70
 923 002c FFF7FEFF 		bl	GetTransactionByName
 924 0030 0246     		mov	r2, r0
 925 0032 3B69     		ldr	r3, [r7, #16]
 926 0034 DA61     		str	r2, [r3, #28]
 269:.\DispenserBLL.c ****         PumpTransactionJob *ptrjob = &((PumpTransaction*)ppump->_pcurrtransaction)->_jobs[0];
 927              		.loc 1 269 0
 928 0036 3B69     		ldr	r3, [r7, #16]
 929 0038 DB69     		ldr	r3, [r3, #28]
 930 003a 0433     		adds	r3, r3, #4
 931 003c 7B61     		str	r3, [r7, #20]
 270:.\DispenserBLL.c ****         if(ptrjob)
 932              		.loc 1 270 0
 933 003e 7B69     		ldr	r3, [r7, #20]
 934 0040 002B     		cmp	r3, #0
 935 0042 2AD0     		beq	.L50
 271:.\DispenserBLL.c ****         {
 272:.\DispenserBLL.c ****             while(ptrjob->Request != NULL)
 936              		.loc 1 272 0
 937 0044 25E0     		b	.L53
 938              	.L55:
 939              	.LBB13:
 273:.\DispenserBLL.c ****             {
 274:.\DispenserBLL.c ****                 PPUMPTRANSACTIONJOBCONTEXTPTR pjobcntr = _g_pumpjobqueue.Allocate(&_g_pumpjobqueue)
 940              		.loc 1 274 0
 941 0046 164B     		ldr	r3, .L56
 942 0048 D3F84838 		ldr	r3, [r3, #2120]
 943 004c 1448     		ldr	r0, .L56
 944 004e 9847     		blx	r3
 945 0050 F860     		str	r0, [r7, #12]
 275:.\DispenserBLL.c ****                 if(pjobcntr)
 946              		.loc 1 275 0
 947 0052 FB68     		ldr	r3, [r7, #12]
 948 0054 002B     		cmp	r3, #0
 949 0056 19D0     		beq	.L54
 276:.\DispenserBLL.c ****                 {
 277:.\DispenserBLL.c ****                     pjobcntr->_reenqueue = false;
 950              		.loc 1 277 0
 951 0058 FB68     		ldr	r3, [r7, #12]
 952 005a 0022     		movs	r2, #0
 953 005c 1A70     		strb	r2, [r3]
 278:.\DispenserBLL.c ****                     pjobcntr->_prequest = ptrjob;
 954              		.loc 1 278 0
 955 005e FB68     		ldr	r3, [r7, #12]
 956 0060 7A69     		ldr	r2, [r7, #20]
 957 0062 5A61     		str	r2, [r3, #20]
 279:.\DispenserBLL.c ****                     pjobcntr->_presponse = NULL;
 958              		.loc 1 279 0
 959 0064 FB68     		ldr	r3, [r7, #12]
 960 0066 0022     		movs	r2, #0
 961 0068 9A61     		str	r2, [r3, #24]
 280:.\DispenserBLL.c ****                     pjobcntr->_ppump = ppump;
 962              		.loc 1 280 0
 963 006a FB68     		ldr	r3, [r7, #12]
 964 006c 3A69     		ldr	r2, [r7, #16]
 965 006e DA61     		str	r2, [r3, #28]
ARM GAS  C:\Users\RECEPC~1\AppData\Local\Temp\ccxS8OWg.s 			page 23


 281:.\DispenserBLL.c ****                     pjobcntr->_ppump->CleanUp(pjobcntr->_ppump);
 966              		.loc 1 281 0
 967 0070 FB68     		ldr	r3, [r7, #12]
 968 0072 DB69     		ldr	r3, [r3, #28]
 969 0074 D3F8B839 		ldr	r3, [r3, #2488]
 970 0078 FA68     		ldr	r2, [r7, #12]
 971 007a D269     		ldr	r2, [r2, #28]
 972 007c 1046     		mov	r0, r2
 973 007e 9847     		blx	r3
 282:.\DispenserBLL.c ****                     //This callback will be invoked upon response (if exists)
 283:.\DispenserBLL.c ****                     //pjobcntr->Callback = pmsg->Callback;
 284:.\DispenserBLL.c ****                     //pjobcntr->_pdata = pmsg;
 285:.\DispenserBLL.c ****                     
 286:.\DispenserBLL.c ****                     _g_pumpjobqueue.Enqueue(&_g_pumpjobqueue, pjobcntr);
 974              		.loc 1 286 0
 975 0080 074B     		ldr	r3, .L56
 976 0082 D3F84C38 		ldr	r3, [r3, #2124]
 977 0086 0648     		ldr	r0, .L56
 978 0088 F968     		ldr	r1, [r7, #12]
 979 008a 9847     		blx	r3
 980              	.L54:
 287:.\DispenserBLL.c ****                 }
 288:.\DispenserBLL.c ****                 ptrjob++;
 981              		.loc 1 288 0
 982 008c 7B69     		ldr	r3, [r7, #20]
 983 008e 3433     		adds	r3, r3, #52
 984 0090 7B61     		str	r3, [r7, #20]
 985              	.L53:
 986              	.LBE13:
 272:.\DispenserBLL.c ****             {
 987              		.loc 1 272 0
 988 0092 7B69     		ldr	r3, [r7, #20]
 989 0094 1B68     		ldr	r3, [r3]
 990 0096 002B     		cmp	r3, #0
 991 0098 D5D1     		bne	.L55
 992              	.L50:
 993              	.LBE12:
 289:.\DispenserBLL.c ****             }
 290:.\DispenserBLL.c ****         }
 291:.\DispenserBLL.c ****     }
 292:.\DispenserBLL.c **** }
 994              		.loc 1 292 0
 995 009a 1837     		adds	r7, r7, #24
 996              		.cfi_def_cfa_offset 8
 997 009c BD46     		mov	sp, r7
 998              		.cfi_def_cfa_register 13
 999              		@ sp needed
 1000 009e 80BD     		pop	{r7, pc}
 1001              	.L57:
 1002              		.align	2
 1003              	.L56:
 1004 00a0 00000000 		.word	_g_pumpjobqueue
 1005              		.cfi_endproc
 1006              	.LFE4:
 1007              		.size	DispenserRestorePrices, .-DispenserRestorePrices
 1008              		.section	.text.DispenserAcquireConfiguration,"ax",%progbits
 1009              		.align	2
ARM GAS  C:\Users\RECEPC~1\AppData\Local\Temp\ccxS8OWg.s 			page 24


 1010              		.global	DispenserAcquireConfiguration
 1011              		.thumb
 1012              		.thumb_func
 1013              		.type	DispenserAcquireConfiguration, %function
 1014              	DispenserAcquireConfiguration:
 1015              	.LFB5:
 293:.\DispenserBLL.c **** 
 294:.\DispenserBLL.c **** //@Created by: HIJH
 295:.\DispenserBLL.c **** //@Septembre de 2016
 296:.\DispenserBLL.c **** //Acquires the dispenser configuration information per pump, through the Special Function commands
 297:.\DispenserBLL.c **** void DispenserAcquireConfiguration(LPVOID pparam)
 298:.\DispenserBLL.c **** {
 1016              		.loc 1 298 0
 1017              		.cfi_startproc
 1018              		@ args = 0, pretend = 0, frame = 32
 1019              		@ frame_needed = 1, uses_anonymous_args = 0
 1020 0000 80B5     		push	{r7, lr}
 1021              		.cfi_def_cfa_offset 8
 1022              		.cfi_offset 7, -8
 1023              		.cfi_offset 14, -4
 1024 0002 88B0     		sub	sp, sp, #32
 1025              		.cfi_def_cfa_offset 40
 1026 0004 00AF     		add	r7, sp, #0
 1027              		.cfi_def_cfa_register 7
 1028 0006 7860     		str	r0, [r7, #4]
 299:.\DispenserBLL.c ****     PSINKMESSAGEPTR pmsg = (PSINKMESSAGEPTR)pparam;
 1029              		.loc 1 299 0
 1030 0008 7B68     		ldr	r3, [r7, #4]
 1031 000a BB61     		str	r3, [r7, #24]
 300:.\DispenserBLL.c ****     
 301:.\DispenserBLL.c ****     //Invoke the Dispenser's transactional model to acquire the configuration information
 302:.\DispenserBLL.c ****     //and then store it in the File System
 303:.\DispenserBLL.c ****     if(_g_dispenserlayoutinfo._numpositions == 0x00)
 1032              		.loc 1 303 0
 1033 000c 3A4B     		ldr	r3, .L68
 1034 000e 9B78     		ldrb	r3, [r3, #2]	@ zero_extendqisi2
 1035 0010 002B     		cmp	r3, #0
 1036 0012 02D1     		bne	.L59
 304:.\DispenserBLL.c ****         _g_dispenserlayoutinfo._currentloopopen = true;
 1037              		.loc 1 304 0
 1038 0014 384B     		ldr	r3, .L68
 1039 0016 0122     		movs	r2, #1
 1040 0018 5A70     		strb	r2, [r3, #1]
 1041              	.L59:
 305:.\DispenserBLL.c **** 
 306:.\DispenserBLL.c ****     FOR(uint8 index = 0, index < _g_dispenserlayoutinfo._numpositions, index++)
 1042              		.loc 1 306 0
 1043 001a 0023     		movs	r3, #0
 1044 001c FB75     		strb	r3, [r7, #23]
 1045 001e 00BF     		nop
 1046 0020 354B     		ldr	r3, .L68
 1047 0022 9B78     		ldrb	r3, [r3, #2]	@ zero_extendqisi2
 1048 0024 FA7D     		ldrb	r2, [r7, #23]	@ zero_extendqisi2
 1049 0026 9A42     		cmp	r2, r3
 1050 0028 57D2     		bcs	.L65
 1051              	.LBB14:
 307:.\DispenserBLL.c ****     {
ARM GAS  C:\Users\RECEPC~1\AppData\Local\Temp\ccxS8OWg.s 			page 25


 308:.\DispenserBLL.c ****         Pump *ppump = &_g_pumps[index];
 1052              		.loc 1 308 0
 1053 002a FB7D     		ldrb	r3, [r7, #23]	@ zero_extendqisi2
 1054 002c 4FF41C62 		mov	r2, #2496
 1055 0030 02FB03F3 		mul	r3, r2, r3
 1056 0034 314A     		ldr	r2, .L68+4
 1057 0036 1344     		add	r3, r3, r2
 1058 0038 3B61     		str	r3, [r7, #16]
 309:.\DispenserBLL.c ****         //Pass the buffered data to the pump structure
 310:.\DispenserBLL.c ****         if(ppump)
 1059              		.loc 1 310 0
 1060 003a 3B69     		ldr	r3, [r7, #16]
 1061 003c 002B     		cmp	r3, #0
 1062 003e 4BD0     		beq	.L61
 1063              	.LBB15:
 311:.\DispenserBLL.c ****         {
 312:.\DispenserBLL.c ****             ppump->_authorized = true;
 1064              		.loc 1 312 0
 1065 0040 3B69     		ldr	r3, [r7, #16]
 1066 0042 0122     		movs	r2, #1
 1067 0044 9A71     		strb	r2, [r3, #6]
 313:.\DispenserBLL.c ****             DispenserUnlockPumpsOnEOT(ppump);
 1068              		.loc 1 313 0
 1069 0046 3869     		ldr	r0, [r7, #16]
 1070 0048 FFF7FEFF 		bl	DispenserUnlockPumpsOnEOT
 314:.\DispenserBLL.c ****             ppump->_authorized = false;
 1071              		.loc 1 314 0
 1072 004c 3B69     		ldr	r3, [r7, #16]
 1073 004e 0022     		movs	r2, #0
 1074 0050 9A71     		strb	r2, [r3, #6]
 315:.\DispenserBLL.c **** 
 316:.\DispenserBLL.c ****             memcpy(ppump->_trasactionbuffer, pmsg->_buffer, _MESSAGE_LENGTH_);
 1075              		.loc 1 316 0
 1076 0052 3B69     		ldr	r3, [r7, #16]
 1077 0054 03F12002 		add	r2, r3, #32
 1078 0058 BB69     		ldr	r3, [r7, #24]
 1079 005a 0C33     		adds	r3, r3, #12
 1080 005c 1046     		mov	r0, r2
 1081 005e 1946     		mov	r1, r3
 1082 0060 4FF4C072 		mov	r2, #384
 1083 0064 FFF7FEFF 		bl	memcpy
 317:.\DispenserBLL.c ****             ppump->_pcurrtransaction = GetTransactionByName(_PUMP_COMPLETE_CONFIGURATION_);
 1084              		.loc 1 317 0
 1085 0068 4D20     		movs	r0, #77
 1086 006a FFF7FEFF 		bl	GetTransactionByName
 1087 006e 0246     		mov	r2, r0
 1088 0070 3B69     		ldr	r3, [r7, #16]
 1089 0072 DA61     		str	r2, [r3, #28]
 318:.\DispenserBLL.c ****             
 319:.\DispenserBLL.c ****             PumpTransactionJob *ptrjob = &((PumpTransaction*)ppump->_pcurrtransaction)->_jobs[0];
 1090              		.loc 1 319 0
 1091 0074 3B69     		ldr	r3, [r7, #16]
 1092 0076 DB69     		ldr	r3, [r3, #28]
 1093 0078 0433     		adds	r3, r3, #4
 1094 007a FB61     		str	r3, [r7, #28]
 320:.\DispenserBLL.c ****             if(ptrjob)
 1095              		.loc 1 320 0
ARM GAS  C:\Users\RECEPC~1\AppData\Local\Temp\ccxS8OWg.s 			page 26


 1096 007c FB69     		ldr	r3, [r7, #28]
 1097 007e 002B     		cmp	r3, #0
 1098 0080 2AD0     		beq	.L61
 321:.\DispenserBLL.c ****             {
 322:.\DispenserBLL.c ****                 while(ptrjob->Request != NULL)
 1099              		.loc 1 322 0
 1100 0082 25E0     		b	.L62
 1101              	.L64:
 1102              	.LBB16:
 323:.\DispenserBLL.c ****                 {
 324:.\DispenserBLL.c ****                     PPUMPTRANSACTIONJOBCONTEXTPTR pjobcntr = _g_pumpjobqueue.Allocate(&_g_pumpjobqu
 1103              		.loc 1 324 0
 1104 0084 1E4B     		ldr	r3, .L68+8
 1105 0086 D3F84838 		ldr	r3, [r3, #2120]
 1106 008a 1D48     		ldr	r0, .L68+8
 1107 008c 9847     		blx	r3
 1108 008e F860     		str	r0, [r7, #12]
 325:.\DispenserBLL.c ****                     if(pjobcntr)
 1109              		.loc 1 325 0
 1110 0090 FB68     		ldr	r3, [r7, #12]
 1111 0092 002B     		cmp	r3, #0
 1112 0094 19D0     		beq	.L63
 326:.\DispenserBLL.c ****                     {
 327:.\DispenserBLL.c ****                         pjobcntr->_reenqueue = false;
 1113              		.loc 1 327 0
 1114 0096 FB68     		ldr	r3, [r7, #12]
 1115 0098 0022     		movs	r2, #0
 1116 009a 1A70     		strb	r2, [r3]
 328:.\DispenserBLL.c ****                         pjobcntr->_prequest = ptrjob;
 1117              		.loc 1 328 0
 1118 009c FB68     		ldr	r3, [r7, #12]
 1119 009e FA69     		ldr	r2, [r7, #28]
 1120 00a0 5A61     		str	r2, [r3, #20]
 329:.\DispenserBLL.c ****                         pjobcntr->_presponse = NULL;
 1121              		.loc 1 329 0
 1122 00a2 FB68     		ldr	r3, [r7, #12]
 1123 00a4 0022     		movs	r2, #0
 1124 00a6 9A61     		str	r2, [r3, #24]
 330:.\DispenserBLL.c ****                         pjobcntr->_ppump = ppump;
 1125              		.loc 1 330 0
 1126 00a8 FB68     		ldr	r3, [r7, #12]
 1127 00aa 3A69     		ldr	r2, [r7, #16]
 1128 00ac DA61     		str	r2, [r3, #28]
 331:.\DispenserBLL.c ****                         pjobcntr->_ppump->CleanUp(pjobcntr->_ppump);
 1129              		.loc 1 331 0
 1130 00ae FB68     		ldr	r3, [r7, #12]
 1131 00b0 DB69     		ldr	r3, [r3, #28]
 1132 00b2 D3F8B839 		ldr	r3, [r3, #2488]
 1133 00b6 FA68     		ldr	r2, [r7, #12]
 1134 00b8 D269     		ldr	r2, [r2, #28]
 1135 00ba 1046     		mov	r0, r2
 1136 00bc 9847     		blx	r3
 332:.\DispenserBLL.c ****                         _g_pumpjobqueue.Enqueue(&_g_pumpjobqueue, pjobcntr);
 1137              		.loc 1 332 0
 1138 00be 104B     		ldr	r3, .L68+8
 1139 00c0 D3F84C38 		ldr	r3, [r3, #2124]
 1140 00c4 0E48     		ldr	r0, .L68+8
ARM GAS  C:\Users\RECEPC~1\AppData\Local\Temp\ccxS8OWg.s 			page 27


 1141 00c6 F968     		ldr	r1, [r7, #12]
 1142 00c8 9847     		blx	r3
 1143              	.L63:
 333:.\DispenserBLL.c ****                     }
 334:.\DispenserBLL.c ****                     ptrjob++;
 1144              		.loc 1 334 0
 1145 00ca FB69     		ldr	r3, [r7, #28]
 1146 00cc 3433     		adds	r3, r3, #52
 1147 00ce FB61     		str	r3, [r7, #28]
 1148              	.L62:
 1149              	.LBE16:
 322:.\DispenserBLL.c ****                 {
 1150              		.loc 1 322 0
 1151 00d0 FB69     		ldr	r3, [r7, #28]
 1152 00d2 1B68     		ldr	r3, [r3]
 1153 00d4 002B     		cmp	r3, #0
 1154 00d6 D5D1     		bne	.L64
 1155              	.L61:
 1156              	.LBE15:
 335:.\DispenserBLL.c ****                 }
 336:.\DispenserBLL.c ****             }
 337:.\DispenserBLL.c ****         }
 338:.\DispenserBLL.c ****         break;
 1157              		.loc 1 338 0
 1158 00d8 00BF     		nop
 1159              	.L65:
 1160              	.LBE14:
 339:.\DispenserBLL.c ****     }
 340:.\DispenserBLL.c ****     
 341:.\DispenserBLL.c ****     if(_g_ptractprogramming)
 1161              		.loc 1 341 0
 1162 00da 0A4B     		ldr	r3, .L68+12
 1163 00dc 1B68     		ldr	r3, [r3]
 1164 00de 002B     		cmp	r3, #0
 1165 00e0 03D0     		beq	.L67
 342:.\DispenserBLL.c ****         _g_ptractprogramming(pmsg);
 1166              		.loc 1 342 0
 1167 00e2 084B     		ldr	r3, .L68+12
 1168 00e4 1B68     		ldr	r3, [r3]
 1169 00e6 B869     		ldr	r0, [r7, #24]
 1170 00e8 9847     		blx	r3
 1171              	.L67:
 343:.\DispenserBLL.c ****     
 344:.\DispenserBLL.c ****     pmsg->_selfkill = true;
 1172              		.loc 1 344 0
 1173 00ea BB69     		ldr	r3, [r7, #24]
 1174 00ec 0122     		movs	r2, #1
 1175 00ee 1A70     		strb	r2, [r3]
 345:.\DispenserBLL.c **** }
 1176              		.loc 1 345 0
 1177 00f0 2037     		adds	r7, r7, #32
 1178              		.cfi_def_cfa_offset 8
 1179 00f2 BD46     		mov	sp, r7
 1180              		.cfi_def_cfa_register 13
 1181              		@ sp needed
 1182 00f4 80BD     		pop	{r7, pc}
 1183              	.L69:
ARM GAS  C:\Users\RECEPC~1\AppData\Local\Temp\ccxS8OWg.s 			page 28


 1184 00f6 00BF     		.align	2
 1185              	.L68:
 1186 00f8 00000000 		.word	_g_dispenserlayoutinfo
 1187 00fc 00000000 		.word	_g_pumps
 1188 0100 00000000 		.word	_g_pumpjobqueue
 1189 0104 00000000 		.word	_g_ptractprogramming
 1190              		.cfi_endproc
 1191              	.LFE5:
 1192              		.size	DispenserAcquireConfiguration, .-DispenserAcquireConfiguration
 1193              		.section	.text.DispenserConfigurePrices,"ax",%progbits
 1194              		.align	2
 1195              		.global	DispenserConfigurePrices
 1196              		.thumb
 1197              		.thumb_func
 1198              		.type	DispenserConfigurePrices, %function
 1199              	DispenserConfigurePrices:
 1200              	.LFB6:
 346:.\DispenserBLL.c **** 
 347:.\DispenserBLL.c **** //@Created by: HIJH
 348:.\DispenserBLL.c **** //@Septembre de 2016
 349:.\DispenserBLL.c **** //Configures prices per pump/hose
 350:.\DispenserBLL.c **** void DispenserConfigurePrices(LPVOID pparam)
 351:.\DispenserBLL.c **** {
 1201              		.loc 1 351 0
 1202              		.cfi_startproc
 1203              		@ args = 0, pretend = 0, frame = 32
 1204              		@ frame_needed = 1, uses_anonymous_args = 0
 1205 0000 80B5     		push	{r7, lr}
 1206              		.cfi_def_cfa_offset 8
 1207              		.cfi_offset 7, -8
 1208              		.cfi_offset 14, -4
 1209 0002 88B0     		sub	sp, sp, #32
 1210              		.cfi_def_cfa_offset 40
 1211 0004 00AF     		add	r7, sp, #0
 1212              		.cfi_def_cfa_register 7
 1213 0006 7860     		str	r0, [r7, #4]
 352:.\DispenserBLL.c ****     PSINKMESSAGEPTR pmsg = (PSINKMESSAGEPTR)pparam;
 1214              		.loc 1 352 0
 1215 0008 7B68     		ldr	r3, [r7, #4]
 1216 000a 7B61     		str	r3, [r7, #20]
 353:.\DispenserBLL.c ****     
 354:.\DispenserBLL.c ****     //Invoke the Dispenser's transactional model to acquire the configuration information
 355:.\DispenserBLL.c ****     //and then store it in the File System
 356:.\DispenserBLL.c ****     FOR(uint8 index = 0, index < _g_dispenserlayoutinfo._numpositions, index++)
 1217              		.loc 1 356 0
 1218 000c 0023     		movs	r3, #0
 1219 000e FB77     		strb	r3, [r7, #31]
 1220 0010 7AE0     		b	.L71
 1221              	.L85:
 1222              	.LBB17:
 357:.\DispenserBLL.c ****     {
 358:.\DispenserBLL.c ****         Pump *ppump = &_g_pumps[index];
 1223              		.loc 1 358 0
 1224 0012 FB7F     		ldrb	r3, [r7, #31]	@ zero_extendqisi2
 1225 0014 4FF41C62 		mov	r2, #2496
 1226 0018 02FB03F3 		mul	r3, r2, r3
 1227 001c 404A     		ldr	r2, .L86
ARM GAS  C:\Users\RECEPC~1\AppData\Local\Temp\ccxS8OWg.s 			page 29


 1228 001e 1344     		add	r3, r3, r2
 1229 0020 3B61     		str	r3, [r7, #16]
 359:.\DispenserBLL.c ****         //Pass the buffered data to the pump structure
 360:.\DispenserBLL.c ****         if(ppump)
 1230              		.loc 1 360 0
 1231 0022 3B69     		ldr	r3, [r7, #16]
 1232 0024 002B     		cmp	r3, #0
 1233 0026 6CD0     		beq	.L72
 1234              	.LBB18:
 361:.\DispenserBLL.c ****         {
 362:.\DispenserBLL.c ****             uint8 numhoses = 0x00;
 1235              		.loc 1 362 0
 1236 0028 0023     		movs	r3, #0
 1237 002a BB77     		strb	r3, [r7, #30]
 363:.\DispenserBLL.c ****             switch(index)
 1238              		.loc 1 363 0
 1239 002c FB7F     		ldrb	r3, [r7, #31]	@ zero_extendqisi2
 1240 002e 032B     		cmp	r3, #3
 1241 0030 1AD8     		bhi	.L73
 1242 0032 01A2     		adr	r2, .L75
 1243 0034 52F823F0 		ldr	pc, [r2, r3, lsl #2]
 1244              		.p2align 2
 1245              	.L75:
 1246 0038 49000000 		.word	.L74+1
 1247 003c 51000000 		.word	.L76+1
 1248 0040 59000000 		.word	.L77+1
 1249 0044 61000000 		.word	.L78+1
 1250              		.p2align 1
 1251              	.L74:
 364:.\DispenserBLL.c ****             {
 365:.\DispenserBLL.c ****                 case 0x00:
 366:.\DispenserBLL.c ****                     numhoses = _g_dispenserlayoutinfo._hosesposition1;
 1252              		.loc 1 366 0
 1253 0048 364B     		ldr	r3, .L86+4
 1254 004a DB78     		ldrb	r3, [r3, #3]
 1255 004c BB77     		strb	r3, [r7, #30]
 367:.\DispenserBLL.c ****                     break;
 1256              		.loc 1 367 0
 1257 004e 0BE0     		b	.L73
 1258              	.L76:
 368:.\DispenserBLL.c ****                 case 0x01:
 369:.\DispenserBLL.c ****                     numhoses = _g_dispenserlayoutinfo._hosesposition2;
 1259              		.loc 1 369 0
 1260 0050 344B     		ldr	r3, .L86+4
 1261 0052 1B79     		ldrb	r3, [r3, #4]
 1262 0054 BB77     		strb	r3, [r7, #30]
 370:.\DispenserBLL.c ****                     break;
 1263              		.loc 1 370 0
 1264 0056 07E0     		b	.L73
 1265              	.L77:
 371:.\DispenserBLL.c ****                 case 0x02:
 372:.\DispenserBLL.c ****                     numhoses = _g_dispenserlayoutinfo._hosesposition3;
 1266              		.loc 1 372 0
 1267 0058 324B     		ldr	r3, .L86+4
 1268 005a 5B79     		ldrb	r3, [r3, #5]
 1269 005c BB77     		strb	r3, [r7, #30]
 373:.\DispenserBLL.c ****                     break;
ARM GAS  C:\Users\RECEPC~1\AppData\Local\Temp\ccxS8OWg.s 			page 30


 1270              		.loc 1 373 0
 1271 005e 03E0     		b	.L73
 1272              	.L78:
 374:.\DispenserBLL.c ****                 case 0x03:
 375:.\DispenserBLL.c ****                     numhoses = _g_dispenserlayoutinfo._hosesposition4;
 1273              		.loc 1 375 0
 1274 0060 304B     		ldr	r3, .L86+4
 1275 0062 9B79     		ldrb	r3, [r3, #6]
 1276 0064 BB77     		strb	r3, [r7, #30]
 376:.\DispenserBLL.c ****                     break;
 1277              		.loc 1 376 0
 1278 0066 00BF     		nop
 1279              	.L73:
 377:.\DispenserBLL.c ****             }
 378:.\DispenserBLL.c ****             
 379:.\DispenserBLL.c ****             ppump->_currenthose = 0x00;
 1280              		.loc 1 379 0
 1281 0068 3B69     		ldr	r3, [r7, #16]
 1282 006a 0022     		movs	r2, #0
 1283 006c DA70     		strb	r2, [r3, #3]
 380:.\DispenserBLL.c ****             FOR(uint8 hosendx = 0, hosendx < numhoses, hosendx++)
 1284              		.loc 1 380 0
 1285 006e 0023     		movs	r3, #0
 1286 0070 7B77     		strb	r3, [r7, #29]
 1287 0072 42E0     		b	.L79
 1288              	.L84:
 1289              	.LBB19:
 381:.\DispenserBLL.c ****             {
 382:.\DispenserBLL.c ****                 memset(ppump->_trasactionbuffer, 0x00, _MESSAGE_LENGTH_);
 1290              		.loc 1 382 0
 1291 0074 3B69     		ldr	r3, [r7, #16]
 1292 0076 2033     		adds	r3, r3, #32
 1293 0078 1846     		mov	r0, r3
 1294 007a 0021     		movs	r1, #0
 1295 007c 4FF4C072 		mov	r2, #384
 1296 0080 FFF7FEFF 		bl	memset
 383:.\DispenserBLL.c ****                 ppump->_pcurrtransaction = GetTransactionByName(_PUMP_PPU_CHANGE_);
 1297              		.loc 1 383 0
 1298 0084 4520     		movs	r0, #69
 1299 0086 FFF7FEFF 		bl	GetTransactionByName
 1300 008a 0246     		mov	r2, r0
 1301 008c 3B69     		ldr	r3, [r7, #16]
 1302 008e DA61     		str	r2, [r3, #28]
 384:.\DispenserBLL.c ****                 
 385:.\DispenserBLL.c ****                 PumpTransactionJob *ptrjob = &((PumpTransaction*)ppump->_pcurrtransaction)->_jobs[0
 1303              		.loc 1 385 0
 1304 0090 3B69     		ldr	r3, [r7, #16]
 1305 0092 DB69     		ldr	r3, [r3, #28]
 1306 0094 0433     		adds	r3, r3, #4
 1307 0096 BB61     		str	r3, [r7, #24]
 386:.\DispenserBLL.c ****                 if(ptrjob)
 1308              		.loc 1 386 0
 1309 0098 BB69     		ldr	r3, [r7, #24]
 1310 009a 002B     		cmp	r3, #0
 1311 009c 2AD0     		beq	.L80
 387:.\DispenserBLL.c ****                 {
 388:.\DispenserBLL.c ****                     while(ptrjob->Request != NULL)
ARM GAS  C:\Users\RECEPC~1\AppData\Local\Temp\ccxS8OWg.s 			page 31


 1312              		.loc 1 388 0
 1313 009e 25E0     		b	.L81
 1314              	.L83:
 1315              	.LBB20:
 389:.\DispenserBLL.c ****                     {
 390:.\DispenserBLL.c ****                         PPUMPTRANSACTIONJOBCONTEXTPTR pjobcntr = _g_pumpjobqueue.Allocate(&_g_pumpj
 1316              		.loc 1 390 0
 1317 00a0 214B     		ldr	r3, .L86+8
 1318 00a2 D3F84838 		ldr	r3, [r3, #2120]
 1319 00a6 2048     		ldr	r0, .L86+8
 1320 00a8 9847     		blx	r3
 1321 00aa F860     		str	r0, [r7, #12]
 391:.\DispenserBLL.c ****                         if(pjobcntr)
 1322              		.loc 1 391 0
 1323 00ac FB68     		ldr	r3, [r7, #12]
 1324 00ae 002B     		cmp	r3, #0
 1325 00b0 19D0     		beq	.L82
 392:.\DispenserBLL.c ****                         {
 393:.\DispenserBLL.c ****                             pjobcntr->_reenqueue = false;
 1326              		.loc 1 393 0
 1327 00b2 FB68     		ldr	r3, [r7, #12]
 1328 00b4 0022     		movs	r2, #0
 1329 00b6 1A70     		strb	r2, [r3]
 394:.\DispenserBLL.c ****                             pjobcntr->_prequest = ptrjob;
 1330              		.loc 1 394 0
 1331 00b8 FB68     		ldr	r3, [r7, #12]
 1332 00ba BA69     		ldr	r2, [r7, #24]
 1333 00bc 5A61     		str	r2, [r3, #20]
 395:.\DispenserBLL.c ****                             pjobcntr->_presponse = NULL;
 1334              		.loc 1 395 0
 1335 00be FB68     		ldr	r3, [r7, #12]
 1336 00c0 0022     		movs	r2, #0
 1337 00c2 9A61     		str	r2, [r3, #24]
 396:.\DispenserBLL.c ****                             pjobcntr->_ppump = ppump;
 1338              		.loc 1 396 0
 1339 00c4 FB68     		ldr	r3, [r7, #12]
 1340 00c6 3A69     		ldr	r2, [r7, #16]
 1341 00c8 DA61     		str	r2, [r3, #28]
 397:.\DispenserBLL.c ****                             pjobcntr->_ppump->CleanUp(pjobcntr->_ppump);
 1342              		.loc 1 397 0
 1343 00ca FB68     		ldr	r3, [r7, #12]
 1344 00cc DB69     		ldr	r3, [r3, #28]
 1345 00ce D3F8B839 		ldr	r3, [r3, #2488]
 1346 00d2 FA68     		ldr	r2, [r7, #12]
 1347 00d4 D269     		ldr	r2, [r2, #28]
 1348 00d6 1046     		mov	r0, r2
 1349 00d8 9847     		blx	r3
 398:.\DispenserBLL.c ****                             _g_pumpjobqueue.Enqueue(&_g_pumpjobqueue, pjobcntr);
 1350              		.loc 1 398 0
 1351 00da 134B     		ldr	r3, .L86+8
 1352 00dc D3F84C38 		ldr	r3, [r3, #2124]
 1353 00e0 1148     		ldr	r0, .L86+8
 1354 00e2 F968     		ldr	r1, [r7, #12]
 1355 00e4 9847     		blx	r3
 1356              	.L82:
 399:.\DispenserBLL.c ****                         }
 400:.\DispenserBLL.c ****                         ptrjob++;
ARM GAS  C:\Users\RECEPC~1\AppData\Local\Temp\ccxS8OWg.s 			page 32


 1357              		.loc 1 400 0
 1358 00e6 BB69     		ldr	r3, [r7, #24]
 1359 00e8 3433     		adds	r3, r3, #52
 1360 00ea BB61     		str	r3, [r7, #24]
 1361              	.L81:
 1362              	.LBE20:
 388:.\DispenserBLL.c ****                     {
 1363              		.loc 1 388 0
 1364 00ec BB69     		ldr	r3, [r7, #24]
 1365 00ee 1B68     		ldr	r3, [r3]
 1366 00f0 002B     		cmp	r3, #0
 1367 00f2 D5D1     		bne	.L83
 1368              	.L80:
 1369              	.LBE19:
 380:.\DispenserBLL.c ****             {
 1370              		.loc 1 380 0 discriminator 2
 1371 00f4 7B7F     		ldrb	r3, [r7, #29]	@ zero_extendqisi2
 1372 00f6 0133     		adds	r3, r3, #1
 1373 00f8 7B77     		strb	r3, [r7, #29]
 1374              	.L79:
 380:.\DispenserBLL.c ****             {
 1375              		.loc 1 380 0 is_stmt 0 discriminator 1
 1376 00fa 7A7F     		ldrb	r2, [r7, #29]	@ zero_extendqisi2
 1377 00fc BB7F     		ldrb	r3, [r7, #30]	@ zero_extendqisi2
 1378 00fe 9A42     		cmp	r2, r3
 1379 0100 B8D3     		bcc	.L84
 1380              	.L72:
 1381              	.LBE18:
 1382              	.LBE17:
 356:.\DispenserBLL.c ****     {
 1383              		.loc 1 356 0 is_stmt 1 discriminator 2
 1384 0102 FB7F     		ldrb	r3, [r7, #31]	@ zero_extendqisi2
 1385 0104 0133     		adds	r3, r3, #1
 1386 0106 FB77     		strb	r3, [r7, #31]
 1387              	.L71:
 356:.\DispenserBLL.c ****     {
 1388              		.loc 1 356 0 is_stmt 0 discriminator 1
 1389 0108 064B     		ldr	r3, .L86+4
 1390 010a 9B78     		ldrb	r3, [r3, #2]	@ zero_extendqisi2
 1391 010c FA7F     		ldrb	r2, [r7, #31]	@ zero_extendqisi2
 1392 010e 9A42     		cmp	r2, r3
 1393 0110 FFF47FAF 		bcc	.L85
 401:.\DispenserBLL.c ****                     }
 402:.\DispenserBLL.c ****                 }
 403:.\DispenserBLL.c ****             }
 404:.\DispenserBLL.c ****         }
 405:.\DispenserBLL.c ****     }
 406:.\DispenserBLL.c ****     
 407:.\DispenserBLL.c ****     pmsg->_selfkill = true;
 1394              		.loc 1 407 0 is_stmt 1
 1395 0114 7B69     		ldr	r3, [r7, #20]
 1396 0116 0122     		movs	r2, #1
 1397 0118 1A70     		strb	r2, [r3]
 408:.\DispenserBLL.c **** }
 1398              		.loc 1 408 0
 1399 011a 2037     		adds	r7, r7, #32
 1400              		.cfi_def_cfa_offset 8
ARM GAS  C:\Users\RECEPC~1\AppData\Local\Temp\ccxS8OWg.s 			page 33


 1401 011c BD46     		mov	sp, r7
 1402              		.cfi_def_cfa_register 13
 1403              		@ sp needed
 1404 011e 80BD     		pop	{r7, pc}
 1405              	.L87:
 1406              		.align	2
 1407              	.L86:
 1408 0120 00000000 		.word	_g_pumps
 1409 0124 00000000 		.word	_g_dispenserlayoutinfo
 1410 0128 00000000 		.word	_g_pumpjobqueue
 1411              		.cfi_endproc
 1412              	.LFE6:
 1413              		.size	DispenserConfigurePrices, .-DispenserConfigurePrices
 1414              		.global	__aeabi_ui2d
 1415              		.global	__aeabi_d2uiz
 1416              		.section	.text.DispenserConfigureSinglePrice,"ax",%progbits
 1417              		.align	2
 1418              		.global	DispenserConfigureSinglePrice
 1419              		.thumb
 1420              		.thumb_func
 1421              		.type	DispenserConfigureSinglePrice, %function
 1422              	DispenserConfigureSinglePrice:
 1423              	.LFB7:
 409:.\DispenserBLL.c **** 
 410:.\DispenserBLL.c **** //@Created by: HIJH
 411:.\DispenserBLL.c **** //@Septembre de 2016
 412:.\DispenserBLL.c **** //Configures the price for the requested pump/hose
 413:.\DispenserBLL.c **** void DispenserConfigureSinglePrice(LPVOID pparam)
 414:.\DispenserBLL.c **** {
 1424              		.loc 1 414 0
 1425              		.cfi_startproc
 1426              		@ args = 0, pretend = 0, frame = 48
 1427              		@ frame_needed = 1, uses_anonymous_args = 0
 1428 0000 90B5     		push	{r4, r7, lr}
 1429              		.cfi_def_cfa_offset 12
 1430              		.cfi_offset 4, -12
 1431              		.cfi_offset 7, -8
 1432              		.cfi_offset 14, -4
 1433 0002 8DB0     		sub	sp, sp, #52
 1434              		.cfi_def_cfa_offset 64
 1435 0004 00AF     		add	r7, sp, #0
 1436              		.cfi_def_cfa_register 7
 1437 0006 7860     		str	r0, [r7, #4]
 415:.\DispenserBLL.c ****     PSINKMESSAGEPTR pmsg = (PSINKMESSAGEPTR)pparam;
 1438              		.loc 1 415 0
 1439 0008 7B68     		ldr	r3, [r7, #4]
 1440 000a BB62     		str	r3, [r7, #40]
 416:.\DispenserBLL.c ****     //Invoke the Dispenser's transactional model to acquire the configuration information
 417:.\DispenserBLL.c ****     //and then store it in the File System
 418:.\DispenserBLL.c ****     PNEAR_PUMPPTR ppump =  GetPumpFromRemotePositionID(pmsg->_buffer[0x00]);
 1441              		.loc 1 418 0
 1442 000c BB6A     		ldr	r3, [r7, #40]
 1443 000e 1B7B     		ldrb	r3, [r3, #12]	@ zero_extendqisi2
 1444 0010 1846     		mov	r0, r3
 1445 0012 FFF7FEFF 		bl	GetPumpFromRemotePositionID
 1446 0016 7862     		str	r0, [r7, #36]
 419:.\DispenserBLL.c ****     if(ppump)
ARM GAS  C:\Users\RECEPC~1\AppData\Local\Temp\ccxS8OWg.s 			page 34


 1447              		.loc 1 419 0
 1448 0018 7B6A     		ldr	r3, [r7, #36]
 1449 001a 002B     		cmp	r3, #0
 1450 001c 00F0A081 		beq	.L89
 1451              	.LBB21:
 420:.\DispenserBLL.c ****     {
 421:.\DispenserBLL.c ****         ppump->_currenthose = pmsg->_buffer[0x01];
 1452              		.loc 1 421 0
 1453 0020 BB6A     		ldr	r3, [r7, #40]
 1454 0022 5A7B     		ldrb	r2, [r3, #13]	@ zero_extendqisi2
 1455 0024 7B6A     		ldr	r3, [r7, #36]
 1456 0026 DA70     		strb	r2, [r3, #3]
 422:.\DispenserBLL.c ****         
 423:.\DispenserBLL.c ****         I2CBusLock();
 1457              		.loc 1 423 0
 1458 0028 FFF7FEFF 		bl	I2CBusLock
 424:.\DispenserBLL.c ****         ClearEepromBuffer();
 1459              		.loc 1 424 0
 1460 002c FFF7FEFF 		bl	ClearEepromBuffer
 425:.\DispenserBLL.c ****         uint16 eeprompage = DispenserGetEepromPPUPageFromPumpID(ppump->_pumpid);
 1461              		.loc 1 425 0
 1462 0030 7B6A     		ldr	r3, [r7, #36]
 1463 0032 1B78     		ldrb	r3, [r3]	@ zero_extendqisi2
 1464 0034 1846     		mov	r0, r3
 1465 0036 FFF7FEFF 		bl	DispenserGetEepromPPUPageFromPumpID
 1466 003a 0346     		mov	r3, r0
 1467 003c 7B84     		strh	r3, [r7, #34]	@ movhi
 426:.\DispenserBLL.c ****         LoadEepromPage(eeprompage);
 1468              		.loc 1 426 0
 1469 003e 7B8C     		ldrh	r3, [r7, #34]
 1470 0040 1846     		mov	r0, r3
 1471 0042 FFF7FEFF 		bl	LoadEepromPage
 427:.\DispenserBLL.c ****         switch(ppump->_currenthose)
 1472              		.loc 1 427 0
 1473 0046 7B6A     		ldr	r3, [r7, #36]
 1474 0048 DB78     		ldrb	r3, [r3, #3]
 1475 004a DBB2     		uxtb	r3, r3
 1476 004c 032B     		cmp	r3, #3
 1477 004e 00F24581 		bhi	.L90
 1478 0052 01A2     		adr	r2, .L92
 1479 0054 52F823F0 		ldr	pc, [r2, r3, lsl #2]
 1480              		.p2align 2
 1481              	.L92:
 1482 0058 69000000 		.word	.L91+1
 1483 005c 03010000 		.word	.L93+1
 1484 0060 A1010000 		.word	.L94+1
 1485 0064 3F020000 		.word	.L95+1
 1486              		.p2align 1
 1487              	.L91:
 428:.\DispenserBLL.c ****         {
 429:.\DispenserBLL.c ****             case 0x00:
 430:.\DispenserBLL.c ****             {
 431:.\DispenserBLL.c ****                 if(_g_dispenserlayoutinfo._moneydecimals == 0x03 && _g_dispenserlayoutinfo._ppudeci
 1488              		.loc 1 431 0
 1489 0068 A64B     		ldr	r3, .L103
 1490 006a DB79     		ldrb	r3, [r3, #7]	@ zero_extendqisi2
 1491 006c 032B     		cmp	r3, #3
ARM GAS  C:\Users\RECEPC~1\AppData\Local\Temp\ccxS8OWg.s 			page 35


 1492 006e 3AD1     		bne	.L96
 1493              		.loc 1 431 0 is_stmt 0 discriminator 1
 1494 0070 A44B     		ldr	r3, .L103
 1495 0072 1B7A     		ldrb	r3, [r3, #8]	@ zero_extendqisi2
 1496 0074 022B     		cmp	r3, #2
 1497 0076 36D1     		bne	.L96
 1498              	.LBB22:
 432:.\DispenserBLL.c ****                 {
 433:.\DispenserBLL.c ****                     uint32 value = LSDBCDBUFF2HEX((PNEAR_BYTE_PTR)&pmsg->_buffer[0x02], pmsg->_buff
 1499              		.loc 1 433 0 is_stmt 1
 1500 0078 BB6A     		ldr	r3, [r7, #40]
 1501 007a 03F10E02 		add	r2, r3, #14
 1502 007e BB6A     		ldr	r3, [r7, #40]
 1503 0080 1B7D     		ldrb	r3, [r3, #20]	@ zero_extendqisi2
 1504 0082 9BB2     		uxth	r3, r3
 1505 0084 1046     		mov	r0, r2
 1506 0086 1946     		mov	r1, r3
 1507 0088 FFF7FEFF 		bl	LSDBCDBUFF2HEX
 1508 008c F861     		str	r0, [r7, #28]
 434:.\DispenserBLL.c ****                     value = (uint32)round(value / 10);
 1509              		.loc 1 434 0
 1510 008e FB69     		ldr	r3, [r7, #28]
 1511 0090 9D4A     		ldr	r2, .L103+4
 1512 0092 A2FB0323 		umull	r2, r3, r2, r3
 1513 0096 DB08     		lsrs	r3, r3, #3
 1514 0098 1846     		mov	r0, r3
 1515 009a FFF7FEFF 		bl	__aeabi_ui2d
 1516 009e 0246     		mov	r2, r0
 1517 00a0 0B46     		mov	r3, r1
 1518 00a2 1046     		mov	r0, r2
 1519 00a4 1946     		mov	r1, r3
 1520 00a6 FFF7FEFF 		bl	round
 1521 00aa 0246     		mov	r2, r0
 1522 00ac 0B46     		mov	r3, r1
 1523 00ae 1046     		mov	r0, r2
 1524 00b0 1946     		mov	r1, r3
 1525 00b2 FFF7FEFF 		bl	__aeabi_d2uiz
 1526 00b6 0346     		mov	r3, r0
 1527 00b8 FB61     		str	r3, [r7, #28]
 435:.\DispenserBLL.c ****                     memset(&pmsg->_buffer[0x02], 0x00, pmsg->_buffer[0x08]);
 1528              		.loc 1 435 0
 1529 00ba BB6A     		ldr	r3, [r7, #40]
 1530 00bc 03F10E02 		add	r2, r3, #14
 1531 00c0 BB6A     		ldr	r3, [r7, #40]
 1532 00c2 1B7D     		ldrb	r3, [r3, #20]	@ zero_extendqisi2
 1533 00c4 1046     		mov	r0, r2
 1534 00c6 0021     		movs	r1, #0
 1535 00c8 1A46     		mov	r2, r3
 1536 00ca FFF7FEFF 		bl	memset
 436:.\DispenserBLL.c ****                     B78AD90CF552D9B30A(value, (PNEAR_BYTE_PTR)&pmsg->_buffer[0x02]);
 1537              		.loc 1 436 0
 1538 00ce FB69     		ldr	r3, [r7, #28]
 1539 00d0 1A46     		mov	r2, r3
 1540 00d2 4FF00003 		mov	r3, #0
 1541 00d6 B96A     		ldr	r1, [r7, #40]
 1542 00d8 01F10E04 		add	r4, r1, #14
 1543 00dc 1046     		mov	r0, r2
ARM GAS  C:\Users\RECEPC~1\AppData\Local\Temp\ccxS8OWg.s 			page 36


 1544 00de 1946     		mov	r1, r3
 1545 00e0 2246     		mov	r2, r4
 1546 00e2 FFF7FEFF 		bl	B78AD90CF552D9B30A
 1547              	.L96:
 1548              	.LBE22:
 437:.\DispenserBLL.c ****                 }
 438:.\DispenserBLL.c ****                 //Six bytes only since the PPU is constrained to this length
 439:.\DispenserBLL.c ****                 memcpy(&GetEepromBuffer()[_EEPROM_PAGE_FIRST16START_], &pmsg->_buffer[0x02], pmsg->
 1549              		.loc 1 439 0
 1550 00e6 FFF7FEFF 		bl	GetEepromBuffer
 1551 00ea 0146     		mov	r1, r0
 1552 00ec BB6A     		ldr	r3, [r7, #40]
 1553 00ee 03F10E02 		add	r2, r3, #14
 1554 00f2 BB6A     		ldr	r3, [r7, #40]
 1555 00f4 1B7D     		ldrb	r3, [r3, #20]	@ zero_extendqisi2
 1556 00f6 0846     		mov	r0, r1
 1557 00f8 1146     		mov	r1, r2
 1558 00fa 1A46     		mov	r2, r3
 1559 00fc FFF7FEFF 		bl	memcpy
 440:.\DispenserBLL.c ****                 break;
 1560              		.loc 1 440 0
 1561 0100 ECE0     		b	.L90
 1562              	.L93:
 441:.\DispenserBLL.c ****             }
 442:.\DispenserBLL.c ****             case 0x01:
 443:.\DispenserBLL.c ****             {
 444:.\DispenserBLL.c ****                 if(_g_dispenserlayoutinfo._moneydecimals == 0x03 && _g_dispenserlayoutinfo._ppudeci
 1563              		.loc 1 444 0
 1564 0102 804B     		ldr	r3, .L103
 1565 0104 DB79     		ldrb	r3, [r3, #7]	@ zero_extendqisi2
 1566 0106 032B     		cmp	r3, #3
 1567 0108 3AD1     		bne	.L97
 1568              		.loc 1 444 0 is_stmt 0 discriminator 1
 1569 010a 7E4B     		ldr	r3, .L103
 1570 010c 1B7A     		ldrb	r3, [r3, #8]	@ zero_extendqisi2
 1571 010e 022B     		cmp	r3, #2
 1572 0110 36D1     		bne	.L97
 1573              	.LBB23:
 445:.\DispenserBLL.c ****                 {
 446:.\DispenserBLL.c ****                     uint32 value = LSDBCDBUFF2HEX((PNEAR_BYTE_PTR)&pmsg->_buffer[0x02], pmsg->_buff
 1574              		.loc 1 446 0 is_stmt 1
 1575 0112 BB6A     		ldr	r3, [r7, #40]
 1576 0114 03F10E02 		add	r2, r3, #14
 1577 0118 BB6A     		ldr	r3, [r7, #40]
 1578 011a 1B7D     		ldrb	r3, [r3, #20]	@ zero_extendqisi2
 1579 011c 9BB2     		uxth	r3, r3
 1580 011e 1046     		mov	r0, r2
 1581 0120 1946     		mov	r1, r3
 1582 0122 FFF7FEFF 		bl	LSDBCDBUFF2HEX
 1583 0126 B861     		str	r0, [r7, #24]
 447:.\DispenserBLL.c ****                     value = (uint32)round(value / 10);
 1584              		.loc 1 447 0
 1585 0128 BB69     		ldr	r3, [r7, #24]
 1586 012a 774A     		ldr	r2, .L103+4
 1587 012c A2FB0323 		umull	r2, r3, r2, r3
 1588 0130 DB08     		lsrs	r3, r3, #3
 1589 0132 1846     		mov	r0, r3
ARM GAS  C:\Users\RECEPC~1\AppData\Local\Temp\ccxS8OWg.s 			page 37


 1590 0134 FFF7FEFF 		bl	__aeabi_ui2d
 1591 0138 0246     		mov	r2, r0
 1592 013a 0B46     		mov	r3, r1
 1593 013c 1046     		mov	r0, r2
 1594 013e 1946     		mov	r1, r3
 1595 0140 FFF7FEFF 		bl	round
 1596 0144 0246     		mov	r2, r0
 1597 0146 0B46     		mov	r3, r1
 1598 0148 1046     		mov	r0, r2
 1599 014a 1946     		mov	r1, r3
 1600 014c FFF7FEFF 		bl	__aeabi_d2uiz
 1601 0150 0346     		mov	r3, r0
 1602 0152 BB61     		str	r3, [r7, #24]
 448:.\DispenserBLL.c ****                     memset(&pmsg->_buffer[0x02], 0x00, pmsg->_buffer[0x08]);
 1603              		.loc 1 448 0
 1604 0154 BB6A     		ldr	r3, [r7, #40]
 1605 0156 03F10E02 		add	r2, r3, #14
 1606 015a BB6A     		ldr	r3, [r7, #40]
 1607 015c 1B7D     		ldrb	r3, [r3, #20]	@ zero_extendqisi2
 1608 015e 1046     		mov	r0, r2
 1609 0160 0021     		movs	r1, #0
 1610 0162 1A46     		mov	r2, r3
 1611 0164 FFF7FEFF 		bl	memset
 449:.\DispenserBLL.c ****                     B78AD90CF552D9B30A(value, (PNEAR_BYTE_PTR)&pmsg->_buffer[0x02]);
 1612              		.loc 1 449 0
 1613 0168 BB69     		ldr	r3, [r7, #24]
 1614 016a 1A46     		mov	r2, r3
 1615 016c 4FF00003 		mov	r3, #0
 1616 0170 B96A     		ldr	r1, [r7, #40]
 1617 0172 01F10E04 		add	r4, r1, #14
 1618 0176 1046     		mov	r0, r2
 1619 0178 1946     		mov	r1, r3
 1620 017a 2246     		mov	r2, r4
 1621 017c FFF7FEFF 		bl	B78AD90CF552D9B30A
 1622              	.L97:
 1623              	.LBE23:
 450:.\DispenserBLL.c ****                 }
 451:.\DispenserBLL.c ****                 //Six bytes only since the PPU is constrained to this length
 452:.\DispenserBLL.c ****                 memcpy(&GetEepromBuffer()[_EEPROM_PAGE_SECOND16START_], &pmsg->_buffer[0x02], pmsg-
 1624              		.loc 1 452 0
 1625 0180 FFF7FEFF 		bl	GetEepromBuffer
 1626 0184 0346     		mov	r3, r0
 1627 0186 03F11001 		add	r1, r3, #16
 1628 018a BB6A     		ldr	r3, [r7, #40]
 1629 018c 03F10E02 		add	r2, r3, #14
 1630 0190 BB6A     		ldr	r3, [r7, #40]
 1631 0192 1B7D     		ldrb	r3, [r3, #20]	@ zero_extendqisi2
 1632 0194 0846     		mov	r0, r1
 1633 0196 1146     		mov	r1, r2
 1634 0198 1A46     		mov	r2, r3
 1635 019a FFF7FEFF 		bl	memcpy
 453:.\DispenserBLL.c ****                 break;
 1636              		.loc 1 453 0
 1637 019e 9DE0     		b	.L90
 1638              	.L94:
 454:.\DispenserBLL.c ****             }
 455:.\DispenserBLL.c ****             case 0x02:
ARM GAS  C:\Users\RECEPC~1\AppData\Local\Temp\ccxS8OWg.s 			page 38


 456:.\DispenserBLL.c ****             {
 457:.\DispenserBLL.c ****                 if(_g_dispenserlayoutinfo._moneydecimals == 0x03 && _g_dispenserlayoutinfo._ppudeci
 1639              		.loc 1 457 0
 1640 01a0 584B     		ldr	r3, .L103
 1641 01a2 DB79     		ldrb	r3, [r3, #7]	@ zero_extendqisi2
 1642 01a4 032B     		cmp	r3, #3
 1643 01a6 3AD1     		bne	.L98
 1644              		.loc 1 457 0 is_stmt 0 discriminator 1
 1645 01a8 564B     		ldr	r3, .L103
 1646 01aa 1B7A     		ldrb	r3, [r3, #8]	@ zero_extendqisi2
 1647 01ac 022B     		cmp	r3, #2
 1648 01ae 36D1     		bne	.L98
 1649              	.LBB24:
 458:.\DispenserBLL.c ****                 {
 459:.\DispenserBLL.c ****                     uint32 value = LSDBCDBUFF2HEX((PNEAR_BYTE_PTR)&pmsg->_buffer[0x02], pmsg->_buff
 1650              		.loc 1 459 0 is_stmt 1
 1651 01b0 BB6A     		ldr	r3, [r7, #40]
 1652 01b2 03F10E02 		add	r2, r3, #14
 1653 01b6 BB6A     		ldr	r3, [r7, #40]
 1654 01b8 1B7D     		ldrb	r3, [r3, #20]	@ zero_extendqisi2
 1655 01ba 9BB2     		uxth	r3, r3
 1656 01bc 1046     		mov	r0, r2
 1657 01be 1946     		mov	r1, r3
 1658 01c0 FFF7FEFF 		bl	LSDBCDBUFF2HEX
 1659 01c4 7861     		str	r0, [r7, #20]
 460:.\DispenserBLL.c ****                     value = (uint32)round(value / 10);
 1660              		.loc 1 460 0
 1661 01c6 7B69     		ldr	r3, [r7, #20]
 1662 01c8 4F4A     		ldr	r2, .L103+4
 1663 01ca A2FB0323 		umull	r2, r3, r2, r3
 1664 01ce DB08     		lsrs	r3, r3, #3
 1665 01d0 1846     		mov	r0, r3
 1666 01d2 FFF7FEFF 		bl	__aeabi_ui2d
 1667 01d6 0246     		mov	r2, r0
 1668 01d8 0B46     		mov	r3, r1
 1669 01da 1046     		mov	r0, r2
 1670 01dc 1946     		mov	r1, r3
 1671 01de FFF7FEFF 		bl	round
 1672 01e2 0246     		mov	r2, r0
 1673 01e4 0B46     		mov	r3, r1
 1674 01e6 1046     		mov	r0, r2
 1675 01e8 1946     		mov	r1, r3
 1676 01ea FFF7FEFF 		bl	__aeabi_d2uiz
 1677 01ee 0346     		mov	r3, r0
 1678 01f0 7B61     		str	r3, [r7, #20]
 461:.\DispenserBLL.c ****                     memset(&pmsg->_buffer[0x02], 0x00, pmsg->_buffer[0x08]);
 1679              		.loc 1 461 0
 1680 01f2 BB6A     		ldr	r3, [r7, #40]
 1681 01f4 03F10E02 		add	r2, r3, #14
 1682 01f8 BB6A     		ldr	r3, [r7, #40]
 1683 01fa 1B7D     		ldrb	r3, [r3, #20]	@ zero_extendqisi2
 1684 01fc 1046     		mov	r0, r2
 1685 01fe 0021     		movs	r1, #0
 1686 0200 1A46     		mov	r2, r3
 1687 0202 FFF7FEFF 		bl	memset
 462:.\DispenserBLL.c ****                     B78AD90CF552D9B30A(value, (PNEAR_BYTE_PTR)&pmsg->_buffer[0x02]);
 1688              		.loc 1 462 0
ARM GAS  C:\Users\RECEPC~1\AppData\Local\Temp\ccxS8OWg.s 			page 39


 1689 0206 7B69     		ldr	r3, [r7, #20]
 1690 0208 1A46     		mov	r2, r3
 1691 020a 4FF00003 		mov	r3, #0
 1692 020e B96A     		ldr	r1, [r7, #40]
 1693 0210 01F10E04 		add	r4, r1, #14
 1694 0214 1046     		mov	r0, r2
 1695 0216 1946     		mov	r1, r3
 1696 0218 2246     		mov	r2, r4
 1697 021a FFF7FEFF 		bl	B78AD90CF552D9B30A
 1698              	.L98:
 1699              	.LBE24:
 463:.\DispenserBLL.c ****                 }
 464:.\DispenserBLL.c ****                 //Six bytes only since the PPU is constrained to this length
 465:.\DispenserBLL.c ****                 memcpy(&GetEepromBuffer()[_EEPROM_PAGE_THIRD16START_], &pmsg->_buffer[0x02], pmsg->
 1700              		.loc 1 465 0
 1701 021e FFF7FEFF 		bl	GetEepromBuffer
 1702 0222 0346     		mov	r3, r0
 1703 0224 03F12001 		add	r1, r3, #32
 1704 0228 BB6A     		ldr	r3, [r7, #40]
 1705 022a 03F10E02 		add	r2, r3, #14
 1706 022e BB6A     		ldr	r3, [r7, #40]
 1707 0230 1B7D     		ldrb	r3, [r3, #20]	@ zero_extendqisi2
 1708 0232 0846     		mov	r0, r1
 1709 0234 1146     		mov	r1, r2
 1710 0236 1A46     		mov	r2, r3
 1711 0238 FFF7FEFF 		bl	memcpy
 466:.\DispenserBLL.c ****                 break;
 1712              		.loc 1 466 0
 1713 023c 4EE0     		b	.L90
 1714              	.L95:
 467:.\DispenserBLL.c ****             }
 468:.\DispenserBLL.c ****             case 0x03:
 469:.\DispenserBLL.c ****             {
 470:.\DispenserBLL.c ****                 if(_g_dispenserlayoutinfo._moneydecimals == 0x03 && _g_dispenserlayoutinfo._ppudeci
 1715              		.loc 1 470 0
 1716 023e 314B     		ldr	r3, .L103
 1717 0240 DB79     		ldrb	r3, [r3, #7]	@ zero_extendqisi2
 1718 0242 032B     		cmp	r3, #3
 1719 0244 3AD1     		bne	.L99
 1720              		.loc 1 470 0 is_stmt 0 discriminator 1
 1721 0246 2F4B     		ldr	r3, .L103
 1722 0248 1B7A     		ldrb	r3, [r3, #8]	@ zero_extendqisi2
 1723 024a 022B     		cmp	r3, #2
 1724 024c 36D1     		bne	.L99
 1725              	.LBB25:
 471:.\DispenserBLL.c ****                 {
 472:.\DispenserBLL.c ****                     uint32 value = LSDBCDBUFF2HEX((PNEAR_BYTE_PTR)&pmsg->_buffer[0x02], pmsg->_buff
 1726              		.loc 1 472 0 is_stmt 1
 1727 024e BB6A     		ldr	r3, [r7, #40]
 1728 0250 03F10E02 		add	r2, r3, #14
 1729 0254 BB6A     		ldr	r3, [r7, #40]
 1730 0256 1B7D     		ldrb	r3, [r3, #20]	@ zero_extendqisi2
 1731 0258 9BB2     		uxth	r3, r3
 1732 025a 1046     		mov	r0, r2
 1733 025c 1946     		mov	r1, r3
 1734 025e FFF7FEFF 		bl	LSDBCDBUFF2HEX
 1735 0262 3861     		str	r0, [r7, #16]
ARM GAS  C:\Users\RECEPC~1\AppData\Local\Temp\ccxS8OWg.s 			page 40


 473:.\DispenserBLL.c ****                     value = (uint32)round(value / 10);
 1736              		.loc 1 473 0
 1737 0264 3B69     		ldr	r3, [r7, #16]
 1738 0266 284A     		ldr	r2, .L103+4
 1739 0268 A2FB0323 		umull	r2, r3, r2, r3
 1740 026c DB08     		lsrs	r3, r3, #3
 1741 026e 1846     		mov	r0, r3
 1742 0270 FFF7FEFF 		bl	__aeabi_ui2d
 1743 0274 0246     		mov	r2, r0
 1744 0276 0B46     		mov	r3, r1
 1745 0278 1046     		mov	r0, r2
 1746 027a 1946     		mov	r1, r3
 1747 027c FFF7FEFF 		bl	round
 1748 0280 0246     		mov	r2, r0
 1749 0282 0B46     		mov	r3, r1
 1750 0284 1046     		mov	r0, r2
 1751 0286 1946     		mov	r1, r3
 1752 0288 FFF7FEFF 		bl	__aeabi_d2uiz
 1753 028c 0346     		mov	r3, r0
 1754 028e 3B61     		str	r3, [r7, #16]
 474:.\DispenserBLL.c ****                     memset(&pmsg->_buffer[0x02], 0x00, pmsg->_buffer[0x08]);
 1755              		.loc 1 474 0
 1756 0290 BB6A     		ldr	r3, [r7, #40]
 1757 0292 03F10E02 		add	r2, r3, #14
 1758 0296 BB6A     		ldr	r3, [r7, #40]
 1759 0298 1B7D     		ldrb	r3, [r3, #20]	@ zero_extendqisi2
 1760 029a 1046     		mov	r0, r2
 1761 029c 0021     		movs	r1, #0
 1762 029e 1A46     		mov	r2, r3
 1763 02a0 FFF7FEFF 		bl	memset
 475:.\DispenserBLL.c ****                     B78AD90CF552D9B30A(value, (PNEAR_BYTE_PTR)&pmsg->_buffer[0x02]);
 1764              		.loc 1 475 0
 1765 02a4 3B69     		ldr	r3, [r7, #16]
 1766 02a6 1A46     		mov	r2, r3
 1767 02a8 4FF00003 		mov	r3, #0
 1768 02ac B96A     		ldr	r1, [r7, #40]
 1769 02ae 01F10E04 		add	r4, r1, #14
 1770 02b2 1046     		mov	r0, r2
 1771 02b4 1946     		mov	r1, r3
 1772 02b6 2246     		mov	r2, r4
 1773 02b8 FFF7FEFF 		bl	B78AD90CF552D9B30A
 1774              	.L99:
 1775              	.LBE25:
 476:.\DispenserBLL.c ****                 }
 477:.\DispenserBLL.c ****                 //Six bytes only since the PPU is constrained to this length
 478:.\DispenserBLL.c ****                 memcpy(&GetEepromBuffer()[_EEPROM_PAGE_FOURTH16START_], &pmsg->_buffer[0x02], pmsg-
 1776              		.loc 1 478 0
 1777 02bc FFF7FEFF 		bl	GetEepromBuffer
 1778 02c0 0346     		mov	r3, r0
 1779 02c2 03F13001 		add	r1, r3, #48
 1780 02c6 BB6A     		ldr	r3, [r7, #40]
 1781 02c8 03F10E02 		add	r2, r3, #14
 1782 02cc BB6A     		ldr	r3, [r7, #40]
 1783 02ce 1B7D     		ldrb	r3, [r3, #20]	@ zero_extendqisi2
 1784 02d0 0846     		mov	r0, r1
 1785 02d2 1146     		mov	r1, r2
 1786 02d4 1A46     		mov	r2, r3
ARM GAS  C:\Users\RECEPC~1\AppData\Local\Temp\ccxS8OWg.s 			page 41


 1787 02d6 FFF7FEFF 		bl	memcpy
 479:.\DispenserBLL.c ****                 break;
 1788              		.loc 1 479 0
 1789 02da 00BF     		nop
 1790              	.L90:
 480:.\DispenserBLL.c ****             }
 481:.\DispenserBLL.c ****         }
 482:.\DispenserBLL.c ****         StoreEepromPage(eeprompage);        
 1791              		.loc 1 482 0
 1792 02dc 7B8C     		ldrh	r3, [r7, #34]
 1793 02de 1846     		mov	r0, r3
 1794 02e0 FFF7FEFF 		bl	StoreEepromPage
 483:.\DispenserBLL.c ****         I2CBusUnlock();
 1795              		.loc 1 483 0
 1796 02e4 FFF7FEFF 		bl	I2CBusUnlock
 484:.\DispenserBLL.c ****     
 485:.\DispenserBLL.c ****         ppump->_pcurrtransaction = GetTransactionByName(_PUMP_PPU_CHANGE_);
 1797              		.loc 1 485 0
 1798 02e8 4520     		movs	r0, #69
 1799 02ea FFF7FEFF 		bl	GetTransactionByName
 1800 02ee 0246     		mov	r2, r0
 1801 02f0 7B6A     		ldr	r3, [r7, #36]
 1802 02f2 DA61     		str	r2, [r3, #28]
 486:.\DispenserBLL.c ****         PumpTransactionJob *ptrjob = &((PumpTransaction*)ppump->_pcurrtransaction)->_jobs[0];
 1803              		.loc 1 486 0
 1804 02f4 7B6A     		ldr	r3, [r7, #36]
 1805 02f6 DB69     		ldr	r3, [r3, #28]
 1806 02f8 0433     		adds	r3, r3, #4
 1807 02fa FB62     		str	r3, [r7, #44]
 487:.\DispenserBLL.c ****         if(ptrjob)
 1808              		.loc 1 487 0
 1809 02fc FB6A     		ldr	r3, [r7, #44]
 1810 02fe 002B     		cmp	r3, #0
 1811 0300 2ED0     		beq	.L89
 488:.\DispenserBLL.c ****         {
 489:.\DispenserBLL.c ****             while(ptrjob->Request != NULL)
 1812              		.loc 1 489 0
 1813 0302 29E0     		b	.L100
 1814              	.L104:
 1815              		.align	2
 1816              	.L103:
 1817 0304 00000000 		.word	_g_dispenserlayoutinfo
 1818 0308 CDCCCCCC 		.word	-858993459
 1819              	.L102:
 1820              	.LBB26:
 490:.\DispenserBLL.c ****             {
 491:.\DispenserBLL.c ****                 PPUMPTRANSACTIONJOBCONTEXTPTR pjobcntr = _g_pumpjobqueue.Allocate(&_g_pumpjobqueue)
 1821              		.loc 1 491 0
 1822 030c 174B     		ldr	r3, .L105
 1823 030e D3F84838 		ldr	r3, [r3, #2120]
 1824 0312 1648     		ldr	r0, .L105
 1825 0314 9847     		blx	r3
 1826 0316 F860     		str	r0, [r7, #12]
 492:.\DispenserBLL.c ****                 if(pjobcntr)
 1827              		.loc 1 492 0
 1828 0318 FB68     		ldr	r3, [r7, #12]
 1829 031a 002B     		cmp	r3, #0
ARM GAS  C:\Users\RECEPC~1\AppData\Local\Temp\ccxS8OWg.s 			page 42


 1830 031c 19D0     		beq	.L101
 493:.\DispenserBLL.c ****                 {
 494:.\DispenserBLL.c ****                     pjobcntr->_reenqueue = false;
 1831              		.loc 1 494 0
 1832 031e FB68     		ldr	r3, [r7, #12]
 1833 0320 0022     		movs	r2, #0
 1834 0322 1A70     		strb	r2, [r3]
 495:.\DispenserBLL.c ****                     pjobcntr->_prequest = ptrjob;
 1835              		.loc 1 495 0
 1836 0324 FB68     		ldr	r3, [r7, #12]
 1837 0326 FA6A     		ldr	r2, [r7, #44]
 1838 0328 5A61     		str	r2, [r3, #20]
 496:.\DispenserBLL.c ****                     pjobcntr->_presponse = NULL;
 1839              		.loc 1 496 0
 1840 032a FB68     		ldr	r3, [r7, #12]
 1841 032c 0022     		movs	r2, #0
 1842 032e 9A61     		str	r2, [r3, #24]
 497:.\DispenserBLL.c ****                     pjobcntr->_ppump = ppump;
 1843              		.loc 1 497 0
 1844 0330 FB68     		ldr	r3, [r7, #12]
 1845 0332 7A6A     		ldr	r2, [r7, #36]
 1846 0334 DA61     		str	r2, [r3, #28]
 498:.\DispenserBLL.c ****                     pjobcntr->_ppump->CleanUp(pjobcntr->_ppump);
 1847              		.loc 1 498 0
 1848 0336 FB68     		ldr	r3, [r7, #12]
 1849 0338 DB69     		ldr	r3, [r3, #28]
 1850 033a D3F8B839 		ldr	r3, [r3, #2488]
 1851 033e FA68     		ldr	r2, [r7, #12]
 1852 0340 D269     		ldr	r2, [r2, #28]
 1853 0342 1046     		mov	r0, r2
 1854 0344 9847     		blx	r3
 499:.\DispenserBLL.c ****                     _g_pumpjobqueue.Enqueue(&_g_pumpjobqueue, pjobcntr);
 1855              		.loc 1 499 0
 1856 0346 094B     		ldr	r3, .L105
 1857 0348 D3F84C38 		ldr	r3, [r3, #2124]
 1858 034c 0748     		ldr	r0, .L105
 1859 034e F968     		ldr	r1, [r7, #12]
 1860 0350 9847     		blx	r3
 1861              	.L101:
 500:.\DispenserBLL.c ****                 }
 501:.\DispenserBLL.c ****                 ptrjob++;
 1862              		.loc 1 501 0
 1863 0352 FB6A     		ldr	r3, [r7, #44]
 1864 0354 3433     		adds	r3, r3, #52
 1865 0356 FB62     		str	r3, [r7, #44]
 1866              	.L100:
 1867              	.LBE26:
 489:.\DispenserBLL.c ****             {
 1868              		.loc 1 489 0
 1869 0358 FB6A     		ldr	r3, [r7, #44]
 1870 035a 1B68     		ldr	r3, [r3]
 1871 035c 002B     		cmp	r3, #0
 1872 035e D5D1     		bne	.L102
 1873              	.L89:
 1874              	.LBE21:
 502:.\DispenserBLL.c ****             }
 503:.\DispenserBLL.c ****         }
ARM GAS  C:\Users\RECEPC~1\AppData\Local\Temp\ccxS8OWg.s 			page 43


 504:.\DispenserBLL.c **** 
 505:.\DispenserBLL.c ****     }  
 506:.\DispenserBLL.c ****     pmsg->_selfkill = true;
 1875              		.loc 1 506 0
 1876 0360 BB6A     		ldr	r3, [r7, #40]
 1877 0362 0122     		movs	r2, #1
 1878 0364 1A70     		strb	r2, [r3]
 507:.\DispenserBLL.c **** }
 1879              		.loc 1 507 0
 1880 0366 3437     		adds	r7, r7, #52
 1881              		.cfi_def_cfa_offset 12
 1882 0368 BD46     		mov	sp, r7
 1883              		.cfi_def_cfa_register 13
 1884              		@ sp needed
 1885 036a 90BD     		pop	{r4, r7, pc}
 1886              	.L106:
 1887              		.align	2
 1888              	.L105:
 1889 036c 00000000 		.word	_g_pumpjobqueue
 1890              		.cfi_endproc
 1891              	.LFE7:
 1892              		.size	DispenserConfigureSinglePrice, .-DispenserConfigureSinglePrice
 1893              		.section	.text.DispenserAcquireTotals,"ax",%progbits
 1894              		.align	2
 1895              		.global	DispenserAcquireTotals
 1896              		.thumb
 1897              		.thumb_func
 1898              		.type	DispenserAcquireTotals, %function
 1899              	DispenserAcquireTotals:
 1900              	.LFB8:
 508:.\DispenserBLL.c **** 
 509:.\DispenserBLL.c **** //@Created by: HIJH
 510:.\DispenserBLL.c **** //@Septembre de 2016
 511:.\DispenserBLL.c **** //Acquires pump totals for the specified hose
 512:.\DispenserBLL.c **** void DispenserAcquireTotals(LPVOID pparam)
 513:.\DispenserBLL.c **** {
 1901              		.loc 1 513 0
 1902              		.cfi_startproc
 1903              		@ args = 0, pretend = 0, frame = 24
 1904              		@ frame_needed = 1, uses_anonymous_args = 0
 1905 0000 80B5     		push	{r7, lr}
 1906              		.cfi_def_cfa_offset 8
 1907              		.cfi_offset 7, -8
 1908              		.cfi_offset 14, -4
 1909 0002 86B0     		sub	sp, sp, #24
 1910              		.cfi_def_cfa_offset 32
 1911 0004 00AF     		add	r7, sp, #0
 1912              		.cfi_def_cfa_register 7
 1913 0006 7860     		str	r0, [r7, #4]
 514:.\DispenserBLL.c ****     PSINKMESSAGEPTR pmsg = (PSINKMESSAGEPTR)pparam;
 1914              		.loc 1 514 0
 1915 0008 7B68     		ldr	r3, [r7, #4]
 1916 000a 3B61     		str	r3, [r7, #16]
 515:.\DispenserBLL.c ****     //Invoke the Dispenser's transactional model to acquire the configuration information
 516:.\DispenserBLL.c ****     //and then store it in the File System
 517:.\DispenserBLL.c ****     PNEAR_PUMPPTR ppump =  GetPumpFromRemotePositionID(pmsg->_buffer[0x00]);
 1917              		.loc 1 517 0
ARM GAS  C:\Users\RECEPC~1\AppData\Local\Temp\ccxS8OWg.s 			page 44


 1918 000c 3B69     		ldr	r3, [r7, #16]
 1919 000e 1B7B     		ldrb	r3, [r3, #12]	@ zero_extendqisi2
 1920 0010 1846     		mov	r0, r3
 1921 0012 FFF7FEFF 		bl	GetPumpFromRemotePositionID
 1922 0016 F860     		str	r0, [r7, #12]
 518:.\DispenserBLL.c ****     if(ppump)
 1923              		.loc 1 518 0
 1924 0018 FB68     		ldr	r3, [r7, #12]
 1925 001a 002B     		cmp	r3, #0
 1926 001c 37D0     		beq	.L108
 1927              	.LBB27:
 519:.\DispenserBLL.c ****     {
 520:.\DispenserBLL.c ****         ppump->_pcurrtransaction = GetTransactionByName(_PUMP_TOTALS_);
 1928              		.loc 1 520 0
 1929 001e 4720     		movs	r0, #71
 1930 0020 FFF7FEFF 		bl	GetTransactionByName
 1931 0024 0246     		mov	r2, r0
 1932 0026 FB68     		ldr	r3, [r7, #12]
 1933 0028 DA61     		str	r2, [r3, #28]
 521:.\DispenserBLL.c ****         PumpTransactionJob *ptrjob = &((PumpTransaction*)ppump->_pcurrtransaction)->_jobs[0];
 1934              		.loc 1 521 0
 1935 002a FB68     		ldr	r3, [r7, #12]
 1936 002c DB69     		ldr	r3, [r3, #28]
 1937 002e 0433     		adds	r3, r3, #4
 1938 0030 7B61     		str	r3, [r7, #20]
 522:.\DispenserBLL.c ****         if(ptrjob)
 1939              		.loc 1 522 0
 1940 0032 7B69     		ldr	r3, [r7, #20]
 1941 0034 002B     		cmp	r3, #0
 1942 0036 2AD0     		beq	.L108
 523:.\DispenserBLL.c ****         {
 524:.\DispenserBLL.c ****             while(ptrjob->Request != NULL)
 1943              		.loc 1 524 0
 1944 0038 25E0     		b	.L109
 1945              	.L111:
 1946              	.LBB28:
 525:.\DispenserBLL.c ****             {
 526:.\DispenserBLL.c ****                 PPUMPTRANSACTIONJOBCONTEXTPTR pjobcntr = _g_pumpjobqueue.Allocate(&_g_pumpjobqueue)
 1947              		.loc 1 526 0
 1948 003a 184B     		ldr	r3, .L112
 1949 003c D3F84838 		ldr	r3, [r3, #2120]
 1950 0040 1648     		ldr	r0, .L112
 1951 0042 9847     		blx	r3
 1952 0044 B860     		str	r0, [r7, #8]
 527:.\DispenserBLL.c ****                 if(pjobcntr)
 1953              		.loc 1 527 0
 1954 0046 BB68     		ldr	r3, [r7, #8]
 1955 0048 002B     		cmp	r3, #0
 1956 004a 19D0     		beq	.L110
 528:.\DispenserBLL.c ****                 {
 529:.\DispenserBLL.c ****                     pjobcntr->_reenqueue = false;
 1957              		.loc 1 529 0
 1958 004c BB68     		ldr	r3, [r7, #8]
 1959 004e 0022     		movs	r2, #0
 1960 0050 1A70     		strb	r2, [r3]
 530:.\DispenserBLL.c ****                     pjobcntr->_prequest = ptrjob;
 1961              		.loc 1 530 0
ARM GAS  C:\Users\RECEPC~1\AppData\Local\Temp\ccxS8OWg.s 			page 45


 1962 0052 BB68     		ldr	r3, [r7, #8]
 1963 0054 7A69     		ldr	r2, [r7, #20]
 1964 0056 5A61     		str	r2, [r3, #20]
 531:.\DispenserBLL.c ****                     pjobcntr->_presponse = NULL;
 1965              		.loc 1 531 0
 1966 0058 BB68     		ldr	r3, [r7, #8]
 1967 005a 0022     		movs	r2, #0
 1968 005c 9A61     		str	r2, [r3, #24]
 532:.\DispenserBLL.c ****                     pjobcntr->_ppump = ppump;
 1969              		.loc 1 532 0
 1970 005e BB68     		ldr	r3, [r7, #8]
 1971 0060 FA68     		ldr	r2, [r7, #12]
 1972 0062 DA61     		str	r2, [r3, #28]
 533:.\DispenserBLL.c ****                     pjobcntr->_ppump->CleanUp(pjobcntr->_ppump);
 1973              		.loc 1 533 0
 1974 0064 BB68     		ldr	r3, [r7, #8]
 1975 0066 DB69     		ldr	r3, [r3, #28]
 1976 0068 D3F8B839 		ldr	r3, [r3, #2488]
 1977 006c BA68     		ldr	r2, [r7, #8]
 1978 006e D269     		ldr	r2, [r2, #28]
 1979 0070 1046     		mov	r0, r2
 1980 0072 9847     		blx	r3
 534:.\DispenserBLL.c ****                     _g_pumpjobqueue.Enqueue(&_g_pumpjobqueue, pjobcntr);
 1981              		.loc 1 534 0
 1982 0074 094B     		ldr	r3, .L112
 1983 0076 D3F84C38 		ldr	r3, [r3, #2124]
 1984 007a 0848     		ldr	r0, .L112
 1985 007c B968     		ldr	r1, [r7, #8]
 1986 007e 9847     		blx	r3
 1987              	.L110:
 535:.\DispenserBLL.c ****                 }
 536:.\DispenserBLL.c ****                 ptrjob++;
 1988              		.loc 1 536 0
 1989 0080 7B69     		ldr	r3, [r7, #20]
 1990 0082 3433     		adds	r3, r3, #52
 1991 0084 7B61     		str	r3, [r7, #20]
 1992              	.L109:
 1993              	.LBE28:
 524:.\DispenserBLL.c ****             {
 1994              		.loc 1 524 0
 1995 0086 7B69     		ldr	r3, [r7, #20]
 1996 0088 1B68     		ldr	r3, [r3]
 1997 008a 002B     		cmp	r3, #0
 1998 008c D5D1     		bne	.L111
 1999              	.L108:
 2000              	.LBE27:
 537:.\DispenserBLL.c ****             }
 538:.\DispenserBLL.c ****         }
 539:.\DispenserBLL.c **** 
 540:.\DispenserBLL.c ****     }  
 541:.\DispenserBLL.c ****     pmsg->_selfkill = true;
 2001              		.loc 1 541 0
 2002 008e 3B69     		ldr	r3, [r7, #16]
 2003 0090 0122     		movs	r2, #1
 2004 0092 1A70     		strb	r2, [r3]
 542:.\DispenserBLL.c **** }
 2005              		.loc 1 542 0
ARM GAS  C:\Users\RECEPC~1\AppData\Local\Temp\ccxS8OWg.s 			page 46


 2006 0094 1837     		adds	r7, r7, #24
 2007              		.cfi_def_cfa_offset 8
 2008 0096 BD46     		mov	sp, r7
 2009              		.cfi_def_cfa_register 13
 2010              		@ sp needed
 2011 0098 80BD     		pop	{r7, pc}
 2012              	.L113:
 2013 009a 00BF     		.align	2
 2014              	.L112:
 2015 009c 00000000 		.word	_g_pumpjobqueue
 2016              		.cfi_endproc
 2017              	.LFE8:
 2018              		.size	DispenserAcquireTotals, .-DispenserAcquireTotals
 2019              		.section	.text.DispenserEnumeratePumps,"ax",%progbits
 2020              		.align	2
 2021              		.global	DispenserEnumeratePumps
 2022              		.thumb
 2023              		.thumb_func
 2024              		.type	DispenserEnumeratePumps, %function
 2025              	DispenserEnumeratePumps:
 2026              	.LFB9:
 543:.\DispenserBLL.c **** 
 544:.\DispenserBLL.c **** //@Created by: HIJH
 545:.\DispenserBLL.c **** //@Septembre de 2016
 546:.\DispenserBLL.c **** //Loads the local configuration information
 547:.\DispenserBLL.c **** void DispenserEnumeratePumps(LPVOID pparam)
 548:.\DispenserBLL.c **** {
 2027              		.loc 1 548 0
 2028              		.cfi_startproc
 2029              		@ args = 0, pretend = 0, frame = 24
 2030              		@ frame_needed = 1, uses_anonymous_args = 0
 2031 0000 80B5     		push	{r7, lr}
 2032              		.cfi_def_cfa_offset 8
 2033              		.cfi_offset 7, -8
 2034              		.cfi_offset 14, -4
 2035 0002 86B0     		sub	sp, sp, #24
 2036              		.cfi_def_cfa_offset 32
 2037 0004 00AF     		add	r7, sp, #0
 2038              		.cfi_def_cfa_register 7
 2039 0006 7860     		str	r0, [r7, #4]
 549:.\DispenserBLL.c ****     
 550:.\DispenserBLL.c ****     ClearEepromBuffer();
 2040              		.loc 1 550 0
 2041 0008 FFF7FEFF 		bl	ClearEepromBuffer
 551:.\DispenserBLL.c ****     //Cleanup of the pump identifier in order to start the enumeration procedure
 552:.\DispenserBLL.c ****     LoadEepromPage(EEPROM_DISPENSER_PUMP1_LAYOUT_PAGE);
 2042              		.loc 1 552 0
 2043 000c 4FF40070 		mov	r0, #512
 2044 0010 FFF7FEFF 		bl	LoadEepromPage
 553:.\DispenserBLL.c ****     GetEepromBuffer()[0] = 0x00;
 2045              		.loc 1 553 0
 2046 0014 FFF7FEFF 		bl	GetEepromBuffer
 2047 0018 0346     		mov	r3, r0
 2048 001a 0022     		movs	r2, #0
 2049 001c 1A70     		strb	r2, [r3]
 554:.\DispenserBLL.c ****     StoreEepromPage(EEPROM_DISPENSER_PUMP1_LAYOUT_PAGE);
 2050              		.loc 1 554 0
ARM GAS  C:\Users\RECEPC~1\AppData\Local\Temp\ccxS8OWg.s 			page 47


 2051 001e 4FF40070 		mov	r0, #512
 2052 0022 FFF7FEFF 		bl	StoreEepromPage
 555:.\DispenserBLL.c **** 
 556:.\DispenserBLL.c ****     ClearEepromBuffer();
 2053              		.loc 1 556 0
 2054 0026 FFF7FEFF 		bl	ClearEepromBuffer
 557:.\DispenserBLL.c ****     //Cleanup of the pump identifier in order to start the enumeration procedure
 558:.\DispenserBLL.c ****     LoadEepromPage(EEPROM_DISPENSER_PUMP2_LAYOUT_PAGE);
 2055              		.loc 1 558 0
 2056 002a 4FF41070 		mov	r0, #576
 2057 002e FFF7FEFF 		bl	LoadEepromPage
 559:.\DispenserBLL.c ****     GetEepromBuffer()[0] = 0x00;
 2058              		.loc 1 559 0
 2059 0032 FFF7FEFF 		bl	GetEepromBuffer
 2060 0036 0346     		mov	r3, r0
 2061 0038 0022     		movs	r2, #0
 2062 003a 1A70     		strb	r2, [r3]
 560:.\DispenserBLL.c ****     StoreEepromPage(EEPROM_DISPENSER_PUMP2_LAYOUT_PAGE);
 2063              		.loc 1 560 0
 2064 003c 4FF41070 		mov	r0, #576
 2065 0040 FFF7FEFF 		bl	StoreEepromPage
 561:.\DispenserBLL.c ****     
 562:.\DispenserBLL.c ****     ClearEepromBuffer();
 2066              		.loc 1 562 0
 2067 0044 FFF7FEFF 		bl	ClearEepromBuffer
 563:.\DispenserBLL.c ****     //Cleanup of the pump identifier in order to start the enumeration procedure
 564:.\DispenserBLL.c ****     LoadEepromPage(EEPROM_DISPENSER_PUMP3_LAYOUT_PAGE);
 2068              		.loc 1 564 0
 2069 0048 4FF42070 		mov	r0, #640
 2070 004c FFF7FEFF 		bl	LoadEepromPage
 565:.\DispenserBLL.c ****     GetEepromBuffer()[0] = 0x00;
 2071              		.loc 1 565 0
 2072 0050 FFF7FEFF 		bl	GetEepromBuffer
 2073 0054 0346     		mov	r3, r0
 2074 0056 0022     		movs	r2, #0
 2075 0058 1A70     		strb	r2, [r3]
 566:.\DispenserBLL.c ****     StoreEepromPage(EEPROM_DISPENSER_PUMP3_LAYOUT_PAGE);
 2076              		.loc 1 566 0
 2077 005a 4FF42070 		mov	r0, #640
 2078 005e FFF7FEFF 		bl	StoreEepromPage
 567:.\DispenserBLL.c **** 
 568:.\DispenserBLL.c ****     ClearEepromBuffer();
 2079              		.loc 1 568 0
 2080 0062 FFF7FEFF 		bl	ClearEepromBuffer
 569:.\DispenserBLL.c ****     //Cleanup of the pump identifier in order to start the enumeration procedure
 570:.\DispenserBLL.c ****     LoadEepromPage(EEPROM_DISPENSER_PUMP4_LAYOUT_PAGE);
 2081              		.loc 1 570 0
 2082 0066 4FF43070 		mov	r0, #704
 2083 006a FFF7FEFF 		bl	LoadEepromPage
 571:.\DispenserBLL.c ****     GetEepromBuffer()[0] = 0x00;
 2084              		.loc 1 571 0
 2085 006e FFF7FEFF 		bl	GetEepromBuffer
 2086 0072 0346     		mov	r3, r0
 2087 0074 0022     		movs	r2, #0
 2088 0076 1A70     		strb	r2, [r3]
 572:.\DispenserBLL.c ****     StoreEepromPage(EEPROM_DISPENSER_PUMP4_LAYOUT_PAGE);
 2089              		.loc 1 572 0
ARM GAS  C:\Users\RECEPC~1\AppData\Local\Temp\ccxS8OWg.s 			page 48


 2090 0078 4FF43070 		mov	r0, #704
 2091 007c FFF7FEFF 		bl	StoreEepromPage
 573:.\DispenserBLL.c ****     
 574:.\DispenserBLL.c ****     _g_dispenserlayoutinfo._numpositions = 0;
 2092              		.loc 1 574 0
 2093 0080 2E4B     		ldr	r3, .L119
 2094 0082 0022     		movs	r2, #0
 2095 0084 9A70     		strb	r2, [r3, #2]
 575:.\DispenserBLL.c ****     
 576:.\DispenserBLL.c ****     Pump *ppump = &_g_pumps[0];
 2096              		.loc 1 576 0
 2097 0086 2E4B     		ldr	r3, .L119+4
 2098 0088 3B61     		str	r3, [r7, #16]
 577:.\DispenserBLL.c ****     //Pass the buffered data to the pump structure
 578:.\DispenserBLL.c ****     if(ppump)
 2099              		.loc 1 578 0
 2100 008a 3B69     		ldr	r3, [r7, #16]
 2101 008c 002B     		cmp	r3, #0
 2102 008e 51D0     		beq	.L114
 2103              	.LBB29:
 579:.\DispenserBLL.c ****     {
 580:.\DispenserBLL.c ****         
 581:.\DispenserBLL.c ****         memset(ppump->_trasactionbuffer, 0x00, _PUMP_TRANSACTION_BUFFER_SIZE_);
 2104              		.loc 1 581 0
 2105 0090 3B69     		ldr	r3, [r7, #16]
 2106 0092 2033     		adds	r3, r3, #32
 2107 0094 1846     		mov	r0, r3
 2108 0096 0021     		movs	r1, #0
 2109 0098 4FF4C072 		mov	r2, #384
 2110 009c FFF7FEFF 		bl	memset
 582:.\DispenserBLL.c ****         ppump->_pcurrtransaction = GetTransactionByName(_PUMP_NETWORK_ENUMERATOR_);
 2111              		.loc 1 582 0
 2112 00a0 4A20     		movs	r0, #74
 2113 00a2 FFF7FEFF 		bl	GetTransactionByName
 2114 00a6 0246     		mov	r2, r0
 2115 00a8 3B69     		ldr	r3, [r7, #16]
 2116 00aa DA61     		str	r2, [r3, #28]
 583:.\DispenserBLL.c ****         
 584:.\DispenserBLL.c ****         PumpTransactionJob *ptrjob = &((PumpTransaction*)ppump->_pcurrtransaction)->_jobs[0];
 2117              		.loc 1 584 0
 2118 00ac 3B69     		ldr	r3, [r7, #16]
 2119 00ae DB69     		ldr	r3, [r3, #28]
 2120 00b0 0433     		adds	r3, r3, #4
 2121 00b2 7B61     		str	r3, [r7, #20]
 585:.\DispenserBLL.c ****         if(ptrjob)
 2122              		.loc 1 585 0
 2123 00b4 7B69     		ldr	r3, [r7, #20]
 2124 00b6 002B     		cmp	r3, #0
 2125 00b8 3CD0     		beq	.L114
 586:.\DispenserBLL.c ****         {
 587:.\DispenserBLL.c ****             while(ptrjob->Request != NULL)
 2126              		.loc 1 587 0
 2127 00ba 37E0     		b	.L116
 2128              	.L118:
 2129              	.LBB30:
 588:.\DispenserBLL.c ****             {
 589:.\DispenserBLL.c ****                 PPUMPTRANSACTIONJOBCONTEXTPTR pjobcntr = _g_pumpjobqueue.Allocate(&_g_pumpjobqueue)
ARM GAS  C:\Users\RECEPC~1\AppData\Local\Temp\ccxS8OWg.s 			page 49


 2130              		.loc 1 589 0
 2131 00bc 214B     		ldr	r3, .L119+8
 2132 00be D3F84838 		ldr	r3, [r3, #2120]
 2133 00c2 2048     		ldr	r0, .L119+8
 2134 00c4 9847     		blx	r3
 2135 00c6 F860     		str	r0, [r7, #12]
 590:.\DispenserBLL.c ****                 if(pjobcntr)
 2136              		.loc 1 590 0
 2137 00c8 FB68     		ldr	r3, [r7, #12]
 2138 00ca 002B     		cmp	r3, #0
 2139 00cc 2BD0     		beq	.L117
 591:.\DispenserBLL.c ****                 {
 592:.\DispenserBLL.c ****                     pjobcntr->_reenqueue = true;
 2140              		.loc 1 592 0
 2141 00ce FB68     		ldr	r3, [r7, #12]
 2142 00d0 0122     		movs	r2, #1
 2143 00d2 1A70     		strb	r2, [r3]
 593:.\DispenserBLL.c ****                     pjobcntr->_prequest = ptrjob;
 2144              		.loc 1 593 0
 2145 00d4 FB68     		ldr	r3, [r7, #12]
 2146 00d6 7A69     		ldr	r2, [r7, #20]
 2147 00d8 5A61     		str	r2, [r3, #20]
 594:.\DispenserBLL.c ****                     pjobcntr->_presponse = NULL;
 2148              		.loc 1 594 0
 2149 00da FB68     		ldr	r3, [r7, #12]
 2150 00dc 0022     		movs	r2, #0
 2151 00de 9A61     		str	r2, [r3, #24]
 595:.\DispenserBLL.c ****                     pjobcntr->_ppump = ppump;
 2152              		.loc 1 595 0
 2153 00e0 FB68     		ldr	r3, [r7, #12]
 2154 00e2 3A69     		ldr	r2, [r7, #16]
 2155 00e4 DA61     		str	r2, [r3, #28]
 596:.\DispenserBLL.c ****                     pjobcntr->_ppump->CleanUp(pjobcntr->_ppump);
 2156              		.loc 1 596 0
 2157 00e6 FB68     		ldr	r3, [r7, #12]
 2158 00e8 DB69     		ldr	r3, [r3, #28]
 2159 00ea D3F8B839 		ldr	r3, [r3, #2488]
 2160 00ee FA68     		ldr	r2, [r7, #12]
 2161 00f0 D269     		ldr	r2, [r2, #28]
 2162 00f2 1046     		mov	r0, r2
 2163 00f4 9847     		blx	r3
 597:.\DispenserBLL.c ****                     pjobcntr->_ppump->_datacontainer._var0 = 0x1;
 2164              		.loc 1 597 0
 2165 00f6 FB68     		ldr	r3, [r7, #12]
 2166 00f8 DB69     		ldr	r3, [r3, #28]
 2167 00fa 0122     		movs	r2, #1
 2168 00fc 83F86029 		strb	r2, [r3, #2400]
 598:.\DispenserBLL.c ****                     pjobcntr->_ppump->_datacontainer._var1 = 0x0;
 2169              		.loc 1 598 0
 2170 0100 FB68     		ldr	r3, [r7, #12]
 2171 0102 DB69     		ldr	r3, [r3, #28]
 2172 0104 0022     		movs	r2, #0
 2173 0106 83F86129 		strb	r2, [r3, #2401]
 599:.\DispenserBLL.c ****                     pjobcntr->_ppump->_pumpid = pjobcntr->_ppump->_datacontainer._var0;
 2174              		.loc 1 599 0
 2175 010a FB68     		ldr	r3, [r7, #12]
 2176 010c DB69     		ldr	r3, [r3, #28]
ARM GAS  C:\Users\RECEPC~1\AppData\Local\Temp\ccxS8OWg.s 			page 50


 2177 010e FA68     		ldr	r2, [r7, #12]
 2178 0110 D269     		ldr	r2, [r2, #28]
 2179 0112 92F86029 		ldrb	r2, [r2, #2400]
 2180 0116 D2B2     		uxtb	r2, r2
 2181 0118 1A70     		strb	r2, [r3]
 600:.\DispenserBLL.c ****                     _g_pumpjobqueue.Enqueue(&_g_pumpjobqueue, pjobcntr);
 2182              		.loc 1 600 0
 2183 011a 0A4B     		ldr	r3, .L119+8
 2184 011c D3F84C38 		ldr	r3, [r3, #2124]
 2185 0120 0848     		ldr	r0, .L119+8
 2186 0122 F968     		ldr	r1, [r7, #12]
 2187 0124 9847     		blx	r3
 2188              	.L117:
 601:.\DispenserBLL.c ****                 }
 602:.\DispenserBLL.c ****                 ptrjob++;
 2189              		.loc 1 602 0
 2190 0126 7B69     		ldr	r3, [r7, #20]
 2191 0128 3433     		adds	r3, r3, #52
 2192 012a 7B61     		str	r3, [r7, #20]
 2193              	.L116:
 2194              	.LBE30:
 587:.\DispenserBLL.c ****             {
 2195              		.loc 1 587 0
 2196 012c 7B69     		ldr	r3, [r7, #20]
 2197 012e 1B68     		ldr	r3, [r3]
 2198 0130 002B     		cmp	r3, #0
 2199 0132 C3D1     		bne	.L118
 2200              	.L114:
 2201              	.LBE29:
 603:.\DispenserBLL.c ****             }
 604:.\DispenserBLL.c ****         }
 605:.\DispenserBLL.c ****     }    
 606:.\DispenserBLL.c **** }
 2202              		.loc 1 606 0
 2203 0134 1837     		adds	r7, r7, #24
 2204              		.cfi_def_cfa_offset 8
 2205 0136 BD46     		mov	sp, r7
 2206              		.cfi_def_cfa_register 13
 2207              		@ sp needed
 2208 0138 80BD     		pop	{r7, pc}
 2209              	.L120:
 2210 013a 00BF     		.align	2
 2211              	.L119:
 2212 013c 00000000 		.word	_g_dispenserlayoutinfo
 2213 0140 00000000 		.word	_g_pumps
 2214 0144 00000000 		.word	_g_pumpjobqueue
 2215              		.cfi_endproc
 2216              	.LFE9:
 2217              		.size	DispenserEnumeratePumps, .-DispenserEnumeratePumps
 2218              		.section	.text.DispenserLoadEEPROMSettings,"ax",%progbits
 2219              		.align	2
 2220              		.global	DispenserLoadEEPROMSettings
 2221              		.thumb
 2222              		.thumb_func
 2223              		.type	DispenserLoadEEPROMSettings, %function
 2224              	DispenserLoadEEPROMSettings:
 2225              	.LFB10:
ARM GAS  C:\Users\RECEPC~1\AppData\Local\Temp\ccxS8OWg.s 			page 51


 607:.\DispenserBLL.c **** 
 608:.\DispenserBLL.c **** //@Created by: HIJH
 609:.\DispenserBLL.c **** //@Date: Octobre de 2016
 610:.\DispenserBLL.c **** //Load the initial configuration information currently stored in the NVM
 611:.\DispenserBLL.c **** void DispenserLoadEEPROMSettings(LPVOID pparam)
 612:.\DispenserBLL.c **** {
 2226              		.loc 1 612 0
 2227              		.cfi_startproc
 2228              		@ args = 0, pretend = 0, frame = 8
 2229              		@ frame_needed = 1, uses_anonymous_args = 0
 2230 0000 90B5     		push	{r4, r7, lr}
 2231              		.cfi_def_cfa_offset 12
 2232              		.cfi_offset 4, -12
 2233              		.cfi_offset 7, -8
 2234              		.cfi_offset 14, -4
 2235 0002 83B0     		sub	sp, sp, #12
 2236              		.cfi_def_cfa_offset 24
 2237 0004 00AF     		add	r7, sp, #0
 2238              		.cfi_def_cfa_register 7
 2239 0006 7860     		str	r0, [r7, #4]
 613:.\DispenserBLL.c ****     
 614:.\DispenserBLL.c ****     ClearEepromBuffer();
 2240              		.loc 1 614 0
 2241 0008 FFF7FEFF 		bl	ClearEepromBuffer
 615:.\DispenserBLL.c ****     LoadEepromPage(EEPROM_CONFIGURATION_PAGE7);
 2242              		.loc 1 615 0
 2243 000c 4FF4E070 		mov	r0, #448
 2244 0010 FFF7FEFF 		bl	LoadEepromPage
 616:.\DispenserBLL.c ****     //Dispenser Pumps Offset is stored at position 0x09 in this memory area (see Eeprom.h)
 617:.\DispenserBLL.c ****     _g_dispenserlayoutinfo._positionoffset = GetEepromBuffer()[0x09];
 2245              		.loc 1 617 0
 2246 0014 FFF7FEFF 		bl	GetEepromBuffer
 2247 0018 0346     		mov	r3, r0
 2248 001a 5A7A     		ldrb	r2, [r3, #9]	@ zero_extendqisi2
 2249 001c 6C4B     		ldr	r3, .L126
 2250 001e 9A74     		strb	r2, [r3, #18]
 618:.\DispenserBLL.c **** 
 619:.\DispenserBLL.c ****     //Saving Timeout to Autonomous Mode
 620:.\DispenserBLL.c ****     _g_rfautorun._timeouttoautonomous = GetEepromBuffer()[0x0A];
 2251              		.loc 1 620 0
 2252 0020 FFF7FEFF 		bl	GetEepromBuffer
 2253 0024 0346     		mov	r3, r0
 2254 0026 9A7A     		ldrb	r2, [r3, #10]	@ zero_extendqisi2
 2255 0028 6A4B     		ldr	r3, .L126+4
 2256 002a 1A71     		strb	r2, [r3, #4]
 621:.\DispenserBLL.c ****     
 622:.\DispenserBLL.c ****     //This is the default printer port allocation
 623:.\DispenserBLL.c ****     _g_printerlayout._printerportside1 = (GetEepromBuffer()[0x0B] != 0x00)?GetEepromBuffer()[0x0B]:
 2257              		.loc 1 623 0
 2258 002c FFF7FEFF 		bl	GetEepromBuffer
 2259 0030 0346     		mov	r3, r0
 2260 0032 0B33     		adds	r3, r3, #11
 2261 0034 1B78     		ldrb	r3, [r3]	@ zero_extendqisi2
 2262 0036 002B     		cmp	r3, #0
 2263 0038 04D0     		beq	.L122
 2264              		.loc 1 623 0 is_stmt 0 discriminator 1
 2265 003a FFF7FEFF 		bl	GetEepromBuffer
ARM GAS  C:\Users\RECEPC~1\AppData\Local\Temp\ccxS8OWg.s 			page 52


 2266 003e 0346     		mov	r3, r0
 2267 0040 DB7A     		ldrb	r3, [r3, #11]	@ zero_extendqisi2
 2268 0042 00E0     		b	.L123
 2269              	.L122:
 2270              		.loc 1 623 0 discriminator 2
 2271 0044 1423     		movs	r3, #20
 2272              	.L123:
 2273              		.loc 1 623 0 discriminator 4
 2274 0046 644A     		ldr	r2, .L126+8
 2275 0048 1370     		strb	r3, [r2]
 624:.\DispenserBLL.c ****     _g_printerlayout._printerportside2 = (GetEepromBuffer()[0x0C] != 0x00)?GetEepromBuffer()[0x0C]:
 2276              		.loc 1 624 0 is_stmt 1 discriminator 4
 2277 004a FFF7FEFF 		bl	GetEepromBuffer
 2278 004e 0346     		mov	r3, r0
 2279 0050 0C33     		adds	r3, r3, #12
 2280 0052 1B78     		ldrb	r3, [r3]	@ zero_extendqisi2
 2281 0054 002B     		cmp	r3, #0
 2282 0056 04D0     		beq	.L124
 2283              		.loc 1 624 0 is_stmt 0 discriminator 1
 2284 0058 FFF7FEFF 		bl	GetEepromBuffer
 2285 005c 0346     		mov	r3, r0
 2286 005e 1B7B     		ldrb	r3, [r3, #12]	@ zero_extendqisi2
 2287 0060 00E0     		b	.L125
 2288              	.L124:
 2289              		.loc 1 624 0 discriminator 2
 2290 0062 1623     		movs	r3, #22
 2291              	.L125:
 2292              		.loc 1 624 0 discriminator 4
 2293 0064 5C4A     		ldr	r2, .L126+8
 2294 0066 5370     		strb	r3, [r2, #1]
 625:.\DispenserBLL.c ****     
 626:.\DispenserBLL.c ****     //////////////////////////////////////////////////////////////////////////////////
 627:.\DispenserBLL.c ****     //ONLY FOR TESTING PURPOSES
 628:.\DispenserBLL.c **** //    GetEepromBuffer()[0x0D] = 0x30;
 629:.\DispenserBLL.c **** //    GetEepromBuffer()[0x0E] = 0x32;
 630:.\DispenserBLL.c **** //    GetEepromBuffer()[0x0F] = 0x30;
 631:.\DispenserBLL.c **** //    GetEepromBuffer()[0x10] = 0x34;    
 632:.\DispenserBLL.c **** //    StoreEepromPage(EEPROM_CONFIGURATION_PAGE7);
 633:.\DispenserBLL.c ****     //////////////////////////////////////////////////////////////////////////////////
 634:.\DispenserBLL.c ****     
 635:.\DispenserBLL.c ****     ClearEepromBuffer();
 2295              		.loc 1 635 0 is_stmt 1 discriminator 4
 2296 0068 FFF7FEFF 		bl	ClearEepromBuffer
 636:.\DispenserBLL.c ****     LoadEepromPage(EEPROM_CONFIGURATION_PAGE5);
 2297              		.loc 1 636 0 discriminator 4
 2298 006c 4FF4A070 		mov	r0, #320
 2299 0070 FFF7FEFF 		bl	LoadEepromPage
 637:.\DispenserBLL.c ****     //Station Unique Identifier start at 0x00 and spans 2 bytes in this memory area (see Eeprom.h)
 638:.\DispenserBLL.c ****     _g_stationidentifier = (((uint16)GetEepromBuffer()[0x01] << 8) & 0xFF00) | ((uint16)GetEepromBu
 2300              		.loc 1 638 0 discriminator 4
 2301 0074 FFF7FEFF 		bl	GetEepromBuffer
 2302 0078 0346     		mov	r3, r0
 2303 007a 0133     		adds	r3, r3, #1
 2304 007c 1B78     		ldrb	r3, [r3]	@ zero_extendqisi2
 2305 007e 1B02     		lsls	r3, r3, #8
 2306 0080 9CB2     		uxth	r4, r3
 2307 0082 FFF7FEFF 		bl	GetEepromBuffer
ARM GAS  C:\Users\RECEPC~1\AppData\Local\Temp\ccxS8OWg.s 			page 53


 2308 0086 0346     		mov	r3, r0
 2309 0088 1B78     		ldrb	r3, [r3]	@ zero_extendqisi2
 2310 008a 9BB2     		uxth	r3, r3
 2311 008c 2246     		mov	r2, r4	@ movhi
 2312 008e 1343     		orrs	r3, r3, r2
 2313 0090 9BB2     		uxth	r3, r3
 2314 0092 9AB2     		uxth	r2, r3
 2315 0094 514B     		ldr	r3, .L126+12
 2316 0096 1A80     		strh	r2, [r3]	@ movhi
 639:.\DispenserBLL.c **** 
 640:.\DispenserBLL.c ****     //////////////////////////////////////////////////////////////////////////////////
 641:.\DispenserBLL.c ****     //HERE WE ARE FORCING A MINIMUM MONEY PRESET VALUE SINCE THERE IS NO 
 642:.\DispenserBLL.c ****     //CONFIGURATION STREAM FOR THIS OPTION
 643:.\DispenserBLL.c ****     ClearEepromBuffer();
 2317              		.loc 1 643 0 discriminator 4
 2318 0098 FFF7FEFF 		bl	ClearEepromBuffer
 644:.\DispenserBLL.c ****     //Min Money Preset
 645:.\DispenserBLL.c ****     LoadEepromPage(EEPROM_CONFIGURATION_PAGE5);
 2319              		.loc 1 645 0 discriminator 4
 2320 009c 4FF4A070 		mov	r0, #320
 2321 00a0 FFF7FEFF 		bl	LoadEepromPage
 646:.\DispenserBLL.c ****     memset((PNEAR_BYTE_PTR)&GetEepromBuffer()[0x02], 0x00, 0x10);
 2322              		.loc 1 646 0 discriminator 4
 2323 00a4 FFF7FEFF 		bl	GetEepromBuffer
 2324 00a8 0346     		mov	r3, r0
 2325 00aa 0233     		adds	r3, r3, #2
 2326 00ac 1846     		mov	r0, r3
 2327 00ae 0021     		movs	r1, #0
 2328 00b0 1022     		movs	r2, #16
 2329 00b2 FFF7FEFF 		bl	memset
 647:.\DispenserBLL.c ****     (&GetEepromBuffer()[0x02])[0x00] = 0x00;
 2330              		.loc 1 647 0 discriminator 4
 2331 00b6 FFF7FEFF 		bl	GetEepromBuffer
 2332 00ba 0346     		mov	r3, r0
 2333 00bc 0233     		adds	r3, r3, #2
 2334 00be 0022     		movs	r2, #0
 2335 00c0 1A70     		strb	r2, [r3]
 648:.\DispenserBLL.c ****     (&GetEepromBuffer()[0x02])[0x01] = 0x00;
 2336              		.loc 1 648 0 discriminator 4
 2337 00c2 FFF7FEFF 		bl	GetEepromBuffer
 2338 00c6 0346     		mov	r3, r0
 2339 00c8 0333     		adds	r3, r3, #3
 2340 00ca 0022     		movs	r2, #0
 2341 00cc 1A70     		strb	r2, [r3]
 649:.\DispenserBLL.c ****     (&GetEepromBuffer()[0x02])[0x02] = 0x05;
 2342              		.loc 1 649 0 discriminator 4
 2343 00ce FFF7FEFF 		bl	GetEepromBuffer
 2344 00d2 0346     		mov	r3, r0
 2345 00d4 0433     		adds	r3, r3, #4
 2346 00d6 0522     		movs	r2, #5
 2347 00d8 1A70     		strb	r2, [r3]
 650:.\DispenserBLL.c ****     (&GetEepromBuffer()[0x02])[0x03] = 0x00;
 2348              		.loc 1 650 0 discriminator 4
 2349 00da FFF7FEFF 		bl	GetEepromBuffer
 2350 00de 0346     		mov	r3, r0
 2351 00e0 0533     		adds	r3, r3, #5
 2352 00e2 0022     		movs	r2, #0
ARM GAS  C:\Users\RECEPC~1\AppData\Local\Temp\ccxS8OWg.s 			page 54


 2353 00e4 1A70     		strb	r2, [r3]
 651:.\DispenserBLL.c ****     StoreEepromPage(EEPROM_CONFIGURATION_PAGE5);
 2354              		.loc 1 651 0 discriminator 4
 2355 00e6 4FF4A070 		mov	r0, #320
 2356 00ea FFF7FEFF 		bl	StoreEepromPage
 652:.\DispenserBLL.c ****     //////////////////////////////////////////////////////////////////////////////////
 653:.\DispenserBLL.c ****     
 654:.\DispenserBLL.c ****     //Min PRESET Money index 2 / 16 bytes (see Eeprom.h) Just using 8 bytes meanwhile
 655:.\DispenserBLL.c ****     _g_dispenserlayoutinfo._minmoneyvalue = LSDBCDBUFF2HEX(&GetEepromBuffer()[0x02], 0x08);
 2357              		.loc 1 655 0 discriminator 4
 2358 00ee FFF7FEFF 		bl	GetEepromBuffer
 2359 00f2 0346     		mov	r3, r0
 2360 00f4 0233     		adds	r3, r3, #2
 2361 00f6 1846     		mov	r0, r3
 2362 00f8 0821     		movs	r1, #8
 2363 00fa FFF7FEFF 		bl	LSDBCDBUFF2HEX
 2364 00fe 0346     		mov	r3, r0
 2365 0100 9AB2     		uxth	r2, r3
 2366 0102 334B     		ldr	r3, .L126
 2367 0104 9A81     		strh	r2, [r3, #12]	@ movhi
 656:.\DispenserBLL.c **** 
 657:.\DispenserBLL.c ****     ClearEepromBuffer();
 2368              		.loc 1 657 0 discriminator 4
 2369 0106 FFF7FEFF 		bl	ClearEepromBuffer
 658:.\DispenserBLL.c ****     LoadEepromPage(EEPROM_CONFIGURATION_PAGE6);
 2370              		.loc 1 658 0 discriminator 4
 2371 010a 4FF4C070 		mov	r0, #384
 2372 010e FFF7FEFF 		bl	LoadEepromPage
 659:.\DispenserBLL.c ****     //Min PRESET Volumen index 0 / 16 bytes (see Eeprom.h) => Just using 8 bytes meanwhile
 660:.\DispenserBLL.c ****     _g_dispenserlayoutinfo._minvolumevalue = LSDBCDBUFF2HEX(&GetEepromBuffer()[0x00], 0x08);
 2373              		.loc 1 660 0 discriminator 4
 2374 0112 FFF7FEFF 		bl	GetEepromBuffer
 2375 0116 0346     		mov	r3, r0
 2376 0118 1846     		mov	r0, r3
 2377 011a 0821     		movs	r1, #8
 2378 011c FFF7FEFF 		bl	LSDBCDBUFF2HEX
 2379 0120 0346     		mov	r3, r0
 2380 0122 9AB2     		uxth	r2, r3
 2381 0124 2A4B     		ldr	r3, .L126
 2382 0126 DA81     		strh	r2, [r3, #14]	@ movhi
 661:.\DispenserBLL.c ****     
 662:.\DispenserBLL.c ****     ClearEepromBuffer();
 2383              		.loc 1 662 0 discriminator 4
 2384 0128 FFF7FEFF 		bl	ClearEepromBuffer
 663:.\DispenserBLL.c ****     LoadEepromPage(EEPROM_DISPENSER_PUMP1_LAYOUT_PAGE);
 2385              		.loc 1 663 0 discriminator 4
 2386 012c 4FF40070 		mov	r0, #512
 2387 0130 FFF7FEFF 		bl	LoadEepromPage
 664:.\DispenserBLL.c ****     //Island Operator's Shift Work State [0x00:Closed, 0x01:Open] (5:1)
 665:.\DispenserBLL.c ****     #ifdef PUMPS_UNLOCKED
 666:.\DispenserBLL.c ****     _g_pumps[0x00]._positionlocked = (GetEepromBuffer()[0x05] == 0x00) && false;
 667:.\DispenserBLL.c ****     #endif
 668:.\DispenserBLL.c ****     #ifndef PUMPS_UNLOCKED
 669:.\DispenserBLL.c ****     _g_pumps[0x00]._positionlocked = (GetEepromBuffer()[0x05] == 0x00);
 2388              		.loc 1 669 0 discriminator 4
 2389 0134 FFF7FEFF 		bl	GetEepromBuffer
 2390 0138 0346     		mov	r3, r0
ARM GAS  C:\Users\RECEPC~1\AppData\Local\Temp\ccxS8OWg.s 			page 55


 2391 013a 0533     		adds	r3, r3, #5
 2392 013c 1B78     		ldrb	r3, [r3]	@ zero_extendqisi2
 2393 013e 002B     		cmp	r3, #0
 2394 0140 0CBF     		ite	eq
 2395 0142 0123     		moveq	r3, #1
 2396 0144 0023     		movne	r3, #0
 2397 0146 DAB2     		uxtb	r2, r3
 2398 0148 254B     		ldr	r3, .L126+16
 2399 014a DA72     		strb	r2, [r3, #11]
 670:.\DispenserBLL.c ****     #endif
 671:.\DispenserBLL.c **** 
 672:.\DispenserBLL.c ****     ClearEepromBuffer();
 2400              		.loc 1 672 0 discriminator 4
 2401 014c FFF7FEFF 		bl	ClearEepromBuffer
 673:.\DispenserBLL.c ****     LoadEepromPage(EEPROM_DISPENSER_PUMP2_LAYOUT_PAGE);
 2402              		.loc 1 673 0 discriminator 4
 2403 0150 4FF41070 		mov	r0, #576
 2404 0154 FFF7FEFF 		bl	LoadEepromPage
 674:.\DispenserBLL.c ****     //Island Operator's Shift Work State [0x00:Closed, 0x01:Open] (5:1)
 675:.\DispenserBLL.c ****     #ifdef PUMPS_UNLOCKED
 676:.\DispenserBLL.c ****     _g_pumps[0x01]._positionlocked = (GetEepromBuffer()[0x05] == 0x00) && false;
 677:.\DispenserBLL.c ****     #endif
 678:.\DispenserBLL.c ****     #ifndef PUMPS_UNLOCKED
 679:.\DispenserBLL.c ****     _g_pumps[0x01]._positionlocked = (GetEepromBuffer()[0x05] == 0x00);
 2405              		.loc 1 679 0 discriminator 4
 2406 0158 FFF7FEFF 		bl	GetEepromBuffer
 2407 015c 0346     		mov	r3, r0
 2408 015e 0533     		adds	r3, r3, #5
 2409 0160 1B78     		ldrb	r3, [r3]	@ zero_extendqisi2
 2410 0162 002B     		cmp	r3, #0
 2411 0164 0CBF     		ite	eq
 2412 0166 0123     		moveq	r3, #1
 2413 0168 0023     		movne	r3, #0
 2414 016a DAB2     		uxtb	r2, r3
 2415 016c 1C4B     		ldr	r3, .L126+16
 2416 016e 83F8CB29 		strb	r2, [r3, #2507]
 680:.\DispenserBLL.c ****     #endif
 681:.\DispenserBLL.c **** 
 682:.\DispenserBLL.c ****     ClearEepromBuffer();
 2417              		.loc 1 682 0 discriminator 4
 2418 0172 FFF7FEFF 		bl	ClearEepromBuffer
 683:.\DispenserBLL.c ****     LoadEepromPage(EEPROM_DISPENSER_PUMP3_LAYOUT_PAGE);
 2419              		.loc 1 683 0 discriminator 4
 2420 0176 4FF42070 		mov	r0, #640
 2421 017a FFF7FEFF 		bl	LoadEepromPage
 684:.\DispenserBLL.c ****     //Island Operator's Shift Work State [0x00:Closed, 0x01:Open] (5:1)
 685:.\DispenserBLL.c ****     #ifdef PUMPS_UNLOCKED
 686:.\DispenserBLL.c ****     _g_pumps[0x02]._positionlocked = (GetEepromBuffer()[0x05] == 0x00) && false;
 687:.\DispenserBLL.c ****     #endif
 688:.\DispenserBLL.c ****     #ifndef PUMPS_UNLOCKED
 689:.\DispenserBLL.c ****     _g_pumps[0x02]._positionlocked = (GetEepromBuffer()[0x05] == 0x00);
 2422              		.loc 1 689 0 discriminator 4
 2423 017e FFF7FEFF 		bl	GetEepromBuffer
 2424 0182 0346     		mov	r3, r0
 2425 0184 0533     		adds	r3, r3, #5
 2426 0186 1B78     		ldrb	r3, [r3]	@ zero_extendqisi2
 2427 0188 002B     		cmp	r3, #0
ARM GAS  C:\Users\RECEPC~1\AppData\Local\Temp\ccxS8OWg.s 			page 56


 2428 018a 0CBF     		ite	eq
 2429 018c 0123     		moveq	r3, #1
 2430 018e 0023     		movne	r3, #0
 2431 0190 DAB2     		uxtb	r2, r3
 2432 0192 134B     		ldr	r3, .L126+16
 2433 0194 03F59C53 		add	r3, r3, #4992
 2434 0198 0B33     		adds	r3, r3, #11
 2435 019a 1A70     		strb	r2, [r3]
 690:.\DispenserBLL.c ****     #endif
 691:.\DispenserBLL.c **** 
 692:.\DispenserBLL.c ****     ClearEepromBuffer();
 2436              		.loc 1 692 0 discriminator 4
 2437 019c FFF7FEFF 		bl	ClearEepromBuffer
 693:.\DispenserBLL.c ****     LoadEepromPage(EEPROM_DISPENSER_PUMP4_LAYOUT_PAGE);
 2438              		.loc 1 693 0 discriminator 4
 2439 01a0 4FF43070 		mov	r0, #704
 2440 01a4 FFF7FEFF 		bl	LoadEepromPage
 694:.\DispenserBLL.c ****     //Island Operator's Shift Work State [0x00:Closed, 0x01:Open] (5:1)
 695:.\DispenserBLL.c ****     #ifdef PUMPS_UNLOCKED
 696:.\DispenserBLL.c ****     _g_pumps[0x03]._positionlocked = (GetEepromBuffer()[0x05] == 0x00) && false;
 697:.\DispenserBLL.c ****     #endif
 698:.\DispenserBLL.c ****     #ifndef PUMPS_UNLOCKED
 699:.\DispenserBLL.c ****     _g_pumps[0x03]._positionlocked = (GetEepromBuffer()[0x05] == 0x00);
 2441              		.loc 1 699 0 discriminator 4
 2442 01a8 FFF7FEFF 		bl	GetEepromBuffer
 2443 01ac 0346     		mov	r3, r0
 2444 01ae 0533     		adds	r3, r3, #5
 2445 01b0 1B78     		ldrb	r3, [r3]	@ zero_extendqisi2
 2446 01b2 002B     		cmp	r3, #0
 2447 01b4 0CBF     		ite	eq
 2448 01b6 0123     		moveq	r3, #1
 2449 01b8 0023     		movne	r3, #0
 2450 01ba DAB2     		uxtb	r2, r3
 2451 01bc 084B     		ldr	r3, .L126+16
 2452 01be 03F5EA53 		add	r3, r3, #7488
 2453 01c2 0B33     		adds	r3, r3, #11
 2454 01c4 1A70     		strb	r2, [r3]
 700:.\DispenserBLL.c ****     #endif
 701:.\DispenserBLL.c ****     
 702:.\DispenserBLL.c ****     //FOR TESTING PURPOSES ONLY!!!
 703:.\DispenserBLL.c ****     #ifdef FORCE_DATETIME
 704:.\DispenserBLL.c ****     ClearRtcBuffer();
 705:.\DispenserBLL.c ****     GetRtcBuffer()[0x00] = 0x00;
 706:.\DispenserBLL.c ****     GetRtcBuffer()[0x01] = 0x44;
 707:.\DispenserBLL.c ****     GetRtcBuffer()[0x02] = 0b00010010;
 708:.\DispenserBLL.c ****     GetRtcBuffer()[0x03] = 0x05;
 709:.\DispenserBLL.c ****     GetRtcBuffer()[0x04] = 0x07;
 710:.\DispenserBLL.c ****     GetRtcBuffer()[0x05] = 0x10;
 711:.\DispenserBLL.c ****     GetRtcBuffer()[0x06] = 0x16;
 712:.\DispenserBLL.c ****     UpdateRTC();
 713:.\DispenserBLL.c ****     #endif
 714:.\DispenserBLL.c **** 
 715:.\DispenserBLL.c ****     #ifdef FORCE_PRICES
 716:.\DispenserBLL.c ****     uint8 index = 0x00;
 717:.\DispenserBLL.c ****     
 718:.\DispenserBLL.c ****     ClearEepromBuffer();
 719:.\DispenserBLL.c ****     GetEepromBuffer()[_EEPROM_PAGE_FIRST16START_ + index++] = 0x00;
ARM GAS  C:\Users\RECEPC~1\AppData\Local\Temp\ccxS8OWg.s 			page 57


 720:.\DispenserBLL.c ****     GetEepromBuffer()[_EEPROM_PAGE_FIRST16START_ + index++] = 0x05;
 721:.\DispenserBLL.c ****     GetEepromBuffer()[_EEPROM_PAGE_FIRST16START_ + index++] = 0x08;
 722:.\DispenserBLL.c ****     GetEepromBuffer()[_EEPROM_PAGE_FIRST16START_ + index++] = 0x09;
 723:.\DispenserBLL.c **** 
 724:.\DispenserBLL.c ****     index = 0x00;
 725:.\DispenserBLL.c ****     GetEepromBuffer()[_EEPROM_PAGE_SECOND16START_ + index++] = 0x00;
 726:.\DispenserBLL.c ****     GetEepromBuffer()[_EEPROM_PAGE_SECOND16START_ + index++] = 0x00;
 727:.\DispenserBLL.c ****     GetEepromBuffer()[_EEPROM_PAGE_SECOND16START_ + index++] = 0x02;
 728:.\DispenserBLL.c ****     GetEepromBuffer()[_EEPROM_PAGE_SECOND16START_ + index++] = 0x00;
 729:.\DispenserBLL.c ****     GetEepromBuffer()[_EEPROM_PAGE_SECOND16START_ + index++] = 0x01;
 730:.\DispenserBLL.c **** 
 731:.\DispenserBLL.c ****     index = 0x00;
 732:.\DispenserBLL.c ****     GetEepromBuffer()[_EEPROM_PAGE_THIRD16START_ + index++] = 0x00;
 733:.\DispenserBLL.c ****     GetEepromBuffer()[_EEPROM_PAGE_THIRD16START_ + index++] = 0x05;
 734:.\DispenserBLL.c ****     GetEepromBuffer()[_EEPROM_PAGE_THIRD16START_ + index++] = 0x08;
 735:.\DispenserBLL.c ****     GetEepromBuffer()[_EEPROM_PAGE_THIRD16START_ + index++] = 0x07;
 736:.\DispenserBLL.c **** 
 737:.\DispenserBLL.c ****     index = 0x00;
 738:.\DispenserBLL.c ****     GetEepromBuffer()[_EEPROM_PAGE_SECOND16START_ + index++] = 0x00;
 739:.\DispenserBLL.c ****     GetEepromBuffer()[_EEPROM_PAGE_SECOND16START_ + index++] = 0x00;
 740:.\DispenserBLL.c ****     GetEepromBuffer()[_EEPROM_PAGE_SECOND16START_ + index++] = 0x02;
 741:.\DispenserBLL.c ****     GetEepromBuffer()[_EEPROM_PAGE_SECOND16START_ + index++] = 0x00;
 742:.\DispenserBLL.c ****     GetEepromBuffer()[_EEPROM_PAGE_SECOND16START_ + index++] = 0x01;
 743:.\DispenserBLL.c ****     
 744:.\DispenserBLL.c ****     StoreEepromPage(EEPROM_DISPENSER_PUMP1_PPU_INFO_PAGE);
 745:.\DispenserBLL.c **** 
 746:.\DispenserBLL.c ****     index = 0x00;
 747:.\DispenserBLL.c ****     ClearEepromBuffer();
 748:.\DispenserBLL.c ****     GetEepromBuffer()[_EEPROM_PAGE_FIRST16START_ + index++] = 0x00;
 749:.\DispenserBLL.c ****     GetEepromBuffer()[_EEPROM_PAGE_FIRST16START_ + index++] = 0x05;
 750:.\DispenserBLL.c ****     GetEepromBuffer()[_EEPROM_PAGE_FIRST16START_ + index++] = 0x08;
 751:.\DispenserBLL.c ****     GetEepromBuffer()[_EEPROM_PAGE_FIRST16START_ + index++] = 0x08;
 752:.\DispenserBLL.c **** 
 753:.\DispenserBLL.c ****     index = 0x00;
 754:.\DispenserBLL.c ****     GetEepromBuffer()[_EEPROM_PAGE_SECOND16START_ + index++] = 0x00;
 755:.\DispenserBLL.c ****     GetEepromBuffer()[_EEPROM_PAGE_SECOND16START_ + index++] = 0x05;
 756:.\DispenserBLL.c ****     GetEepromBuffer()[_EEPROM_PAGE_SECOND16START_ + index++] = 0x08;
 757:.\DispenserBLL.c ****     GetEepromBuffer()[_EEPROM_PAGE_SECOND16START_ + index++] = 0x06;
 758:.\DispenserBLL.c **** 
 759:.\DispenserBLL.c ****     index = 0x00;
 760:.\DispenserBLL.c ****     GetEepromBuffer()[_EEPROM_PAGE_THIRD16START_ + index++] = 0x00;
 761:.\DispenserBLL.c ****     GetEepromBuffer()[_EEPROM_PAGE_THIRD16START_ + index++] = 0x05;
 762:.\DispenserBLL.c ****     GetEepromBuffer()[_EEPROM_PAGE_THIRD16START_ + index++] = 0x08;
 763:.\DispenserBLL.c ****     GetEepromBuffer()[_EEPROM_PAGE_THIRD16START_ + index++] = 0x08;
 764:.\DispenserBLL.c **** 
 765:.\DispenserBLL.c ****     index = 0x00;
 766:.\DispenserBLL.c ****     GetEepromBuffer()[_EEPROM_PAGE_FOURTH16START_ + index++] = 0x00;
 767:.\DispenserBLL.c ****     GetEepromBuffer()[_EEPROM_PAGE_FOURTH16START_ + index++] = 0x05;
 768:.\DispenserBLL.c ****     GetEepromBuffer()[_EEPROM_PAGE_FOURTH16START_ + index++] = 0x08;
 769:.\DispenserBLL.c ****     GetEepromBuffer()[_EEPROM_PAGE_FOURTH16START_ + index++] = 0x06;
 770:.\DispenserBLL.c ****     
 771:.\DispenserBLL.c ****     StoreEepromPage(EEPROM_DISPENSER_PUMP2_PPU_INFO_PAGE);
 772:.\DispenserBLL.c ****     
 773:.\DispenserBLL.c ****     index = 0x00;
 774:.\DispenserBLL.c ****     ClearEepromBuffer();
 775:.\DispenserBLL.c ****     GetEepromBuffer()[_EEPROM_PAGE_FIRST16START_ + index++] = 0x00;
 776:.\DispenserBLL.c ****     GetEepromBuffer()[_EEPROM_PAGE_FIRST16START_ + index++] = 0x05;
ARM GAS  C:\Users\RECEPC~1\AppData\Local\Temp\ccxS8OWg.s 			page 58


 777:.\DispenserBLL.c ****     GetEepromBuffer()[_EEPROM_PAGE_FIRST16START_ + index++] = 0x08;
 778:.\DispenserBLL.c ****     GetEepromBuffer()[_EEPROM_PAGE_FIRST16START_ + index++] = 0x08;
 779:.\DispenserBLL.c **** 
 780:.\DispenserBLL.c ****     index = 0x00;
 781:.\DispenserBLL.c ****     GetEepromBuffer()[_EEPROM_PAGE_SECOND16START_ + index++] = 0x00;
 782:.\DispenserBLL.c ****     GetEepromBuffer()[_EEPROM_PAGE_SECOND16START_ + index++] = 0x05;
 783:.\DispenserBLL.c ****     GetEepromBuffer()[_EEPROM_PAGE_SECOND16START_ + index++] = 0x08;
 784:.\DispenserBLL.c ****     GetEepromBuffer()[_EEPROM_PAGE_SECOND16START_ + index++] = 0x06;
 785:.\DispenserBLL.c **** 
 786:.\DispenserBLL.c ****     index = 0x00;
 787:.\DispenserBLL.c ****     GetEepromBuffer()[_EEPROM_PAGE_THIRD16START_ + index++] = 0x00;
 788:.\DispenserBLL.c ****     GetEepromBuffer()[_EEPROM_PAGE_THIRD16START_ + index++] = 0x05;
 789:.\DispenserBLL.c ****     GetEepromBuffer()[_EEPROM_PAGE_THIRD16START_ + index++] = 0x08;
 790:.\DispenserBLL.c ****     GetEepromBuffer()[_EEPROM_PAGE_THIRD16START_ + index++] = 0x08;
 791:.\DispenserBLL.c **** 
 792:.\DispenserBLL.c ****     index = 0x00;
 793:.\DispenserBLL.c ****     GetEepromBuffer()[_EEPROM_PAGE_FOURTH16START_ + index++] = 0x00;
 794:.\DispenserBLL.c ****     GetEepromBuffer()[_EEPROM_PAGE_FOURTH16START_ + index++] = 0x05;
 795:.\DispenserBLL.c ****     GetEepromBuffer()[_EEPROM_PAGE_FOURTH16START_ + index++] = 0x08;
 796:.\DispenserBLL.c ****     GetEepromBuffer()[_EEPROM_PAGE_FOURTH16START_ + index++] = 0x06;
 797:.\DispenserBLL.c ****     
 798:.\DispenserBLL.c ****     StoreEepromPage(EEPROM_DISPENSER_PUMP3_PPU_INFO_PAGE);
 799:.\DispenserBLL.c **** 
 800:.\DispenserBLL.c ****     index = 0x00;
 801:.\DispenserBLL.c ****     ClearEepromBuffer();
 802:.\DispenserBLL.c ****     GetEepromBuffer()[_EEPROM_PAGE_FIRST16START_ + index++] = 0x00;
 803:.\DispenserBLL.c ****     GetEepromBuffer()[_EEPROM_PAGE_FIRST16START_ + index++] = 0x05;
 804:.\DispenserBLL.c ****     GetEepromBuffer()[_EEPROM_PAGE_FIRST16START_ + index++] = 0x08;
 805:.\DispenserBLL.c ****     GetEepromBuffer()[_EEPROM_PAGE_FIRST16START_ + index++] = 0x08;
 806:.\DispenserBLL.c **** 
 807:.\DispenserBLL.c ****     index = 0x00;
 808:.\DispenserBLL.c ****     GetEepromBuffer()[_EEPROM_PAGE_SECOND16START_ + index++] = 0x00;
 809:.\DispenserBLL.c ****     GetEepromBuffer()[_EEPROM_PAGE_SECOND16START_ + index++] = 0x05;
 810:.\DispenserBLL.c ****     GetEepromBuffer()[_EEPROM_PAGE_SECOND16START_ + index++] = 0x08;
 811:.\DispenserBLL.c ****     GetEepromBuffer()[_EEPROM_PAGE_SECOND16START_ + index++] = 0x06;
 812:.\DispenserBLL.c **** 
 813:.\DispenserBLL.c ****     index = 0x00;
 814:.\DispenserBLL.c ****     GetEepromBuffer()[_EEPROM_PAGE_THIRD16START_ + index++] = 0x00;
 815:.\DispenserBLL.c ****     GetEepromBuffer()[_EEPROM_PAGE_THIRD16START_ + index++] = 0x05;
 816:.\DispenserBLL.c ****     GetEepromBuffer()[_EEPROM_PAGE_THIRD16START_ + index++] = 0x08;
 817:.\DispenserBLL.c ****     GetEepromBuffer()[_EEPROM_PAGE_THIRD16START_ + index++] = 0x08;
 818:.\DispenserBLL.c **** 
 819:.\DispenserBLL.c ****     index = 0x00;
 820:.\DispenserBLL.c ****     GetEepromBuffer()[_EEPROM_PAGE_FOURTH16START_ + index++] = 0x00;
 821:.\DispenserBLL.c ****     GetEepromBuffer()[_EEPROM_PAGE_FOURTH16START_ + index++] = 0x05;
 822:.\DispenserBLL.c ****     GetEepromBuffer()[_EEPROM_PAGE_FOURTH16START_ + index++] = 0x08;
 823:.\DispenserBLL.c ****     GetEepromBuffer()[_EEPROM_PAGE_FOURTH16START_ + index++] = 0x06;
 824:.\DispenserBLL.c ****     
 825:.\DispenserBLL.c ****     StoreEepromPage(EEPROM_DISPENSER_PUMP4_PPU_INFO_PAGE);
 826:.\DispenserBLL.c ****     #endif
 827:.\DispenserBLL.c ****     
 828:.\DispenserBLL.c ****     StartRtc();
 2455              		.loc 1 828 0 discriminator 4
 2456 01c6 FFF7FEFF 		bl	StartRtc
 829:.\DispenserBLL.c **** }
 2457              		.loc 1 829 0 discriminator 4
 2458 01ca 0C37     		adds	r7, r7, #12
ARM GAS  C:\Users\RECEPC~1\AppData\Local\Temp\ccxS8OWg.s 			page 59


 2459              		.cfi_def_cfa_offset 12
 2460 01cc BD46     		mov	sp, r7
 2461              		.cfi_def_cfa_register 13
 2462              		@ sp needed
 2463 01ce 90BD     		pop	{r4, r7, pc}
 2464              	.L127:
 2465              		.align	2
 2466              	.L126:
 2467 01d0 00000000 		.word	_g_dispenserlayoutinfo
 2468 01d4 00000000 		.word	_g_rfautorun
 2469 01d8 00000000 		.word	_g_printerlayout
 2470 01dc 00000000 		.word	_g_stationidentifier
 2471 01e0 00000000 		.word	_g_pumps
 2472              		.cfi_endproc
 2473              	.LFE10:
 2474              		.size	DispenserLoadEEPROMSettings, .-DispenserLoadEEPROMSettings
 2475              		.section	.text.DispenserGetEepromPPUPageFromPumpID,"ax",%progbits
 2476              		.align	2
 2477              		.global	DispenserGetEepromPPUPageFromPumpID
 2478              		.thumb
 2479              		.thumb_func
 2480              		.type	DispenserGetEepromPPUPageFromPumpID, %function
 2481              	DispenserGetEepromPPUPageFromPumpID:
 2482              	.LFB11:
 830:.\DispenserBLL.c **** 
 831:.\DispenserBLL.c **** uint16 DispenserGetEepromPPUPageFromPumpID(uint8 pumpid)
 832:.\DispenserBLL.c **** {
 2483              		.loc 1 832 0
 2484              		.cfi_startproc
 2485              		@ args = 0, pretend = 0, frame = 16
 2486              		@ frame_needed = 1, uses_anonymous_args = 0
 2487              		@ link register save eliminated.
 2488 0000 80B4     		push	{r7}
 2489              		.cfi_def_cfa_offset 4
 2490              		.cfi_offset 7, -4
 2491 0002 85B0     		sub	sp, sp, #20
 2492              		.cfi_def_cfa_offset 24
 2493 0004 00AF     		add	r7, sp, #0
 2494              		.cfi_def_cfa_register 7
 2495 0006 0346     		mov	r3, r0
 2496 0008 FB71     		strb	r3, [r7, #7]
 833:.\DispenserBLL.c ****     uint16 retval = 0x00;
 2497              		.loc 1 833 0
 2498 000a 0023     		movs	r3, #0
 2499 000c FB81     		strh	r3, [r7, #14]	@ movhi
 834:.\DispenserBLL.c ****     switch(_g_dispenserlayoutinfo._numpositions)
 2500              		.loc 1 834 0
 2501 000e 264B     		ldr	r3, .L140
 2502 0010 9B78     		ldrb	r3, [r3, #2]	@ zero_extendqisi2
 2503 0012 022B     		cmp	r3, #2
 2504 0014 02D0     		beq	.L130
 2505 0016 042B     		cmp	r3, #4
 2506 0018 14D0     		beq	.L131
 2507 001a 3DE0     		b	.L129
 2508              	.L130:
 835:.\DispenserBLL.c ****     {
 836:.\DispenserBLL.c ****         case 0x02:
ARM GAS  C:\Users\RECEPC~1\AppData\Local\Temp\ccxS8OWg.s 			page 60


 837:.\DispenserBLL.c ****         {
 838:.\DispenserBLL.c ****             if(_g_pumps[0x00]._pumpid == pumpid)
 2509              		.loc 1 838 0
 2510 001c 234B     		ldr	r3, .L140+4
 2511 001e 1B78     		ldrb	r3, [r3]	@ zero_extendqisi2
 2512 0020 FA79     		ldrb	r2, [r7, #7]	@ zero_extendqisi2
 2513 0022 9A42     		cmp	r2, r3
 2514 0024 03D1     		bne	.L132
 839:.\DispenserBLL.c ****                 retval = EEPROM_DISPENSER_PUMP1_PPU_INFO_PAGE;
 2515              		.loc 1 839 0
 2516 0026 4FF48063 		mov	r3, #1024
 2517 002a FB81     		strh	r3, [r7, #14]	@ movhi
 2518 002c 09E0     		b	.L133
 2519              	.L132:
 840:.\DispenserBLL.c ****             else if(_g_pumps[0x01]._pumpid == pumpid)
 2520              		.loc 1 840 0
 2521 002e 1F4B     		ldr	r3, .L140+4
 2522 0030 93F8C039 		ldrb	r3, [r3, #2496]	@ zero_extendqisi2
 2523 0034 FA79     		ldrb	r2, [r7, #7]	@ zero_extendqisi2
 2524 0036 9A42     		cmp	r2, r3
 2525 0038 03D1     		bne	.L133
 841:.\DispenserBLL.c ****                 retval = EEPROM_DISPENSER_PUMP2_PPU_INFO_PAGE;
 2526              		.loc 1 841 0
 2527 003a 4FF48863 		mov	r3, #1088
 2528 003e FB81     		strh	r3, [r7, #14]	@ movhi
 842:.\DispenserBLL.c ****             
 843:.\DispenserBLL.c ****             break;
 2529              		.loc 1 843 0
 2530 0040 2AE0     		b	.L129
 2531              	.L133:
 2532 0042 29E0     		b	.L129
 2533              	.L131:
 844:.\DispenserBLL.c ****         }
 845:.\DispenserBLL.c ****         case 0x04:
 846:.\DispenserBLL.c ****         {
 847:.\DispenserBLL.c ****             if(_g_pumps[0x00]._pumpid == pumpid)
 2534              		.loc 1 847 0
 2535 0044 194B     		ldr	r3, .L140+4
 2536 0046 1B78     		ldrb	r3, [r3]	@ zero_extendqisi2
 2537 0048 FA79     		ldrb	r2, [r7, #7]	@ zero_extendqisi2
 2538 004a 9A42     		cmp	r2, r3
 2539 004c 03D1     		bne	.L134
 848:.\DispenserBLL.c ****                 retval = EEPROM_DISPENSER_PUMP1_PPU_INFO_PAGE;
 2540              		.loc 1 848 0
 2541 004e 4FF48063 		mov	r3, #1024
 2542 0052 FB81     		strh	r3, [r7, #14]	@ movhi
 2543 0054 1FE0     		b	.L135
 2544              	.L134:
 849:.\DispenserBLL.c ****             else if(_g_pumps[0x01]._pumpid == pumpid)
 2545              		.loc 1 849 0
 2546 0056 154B     		ldr	r3, .L140+4
 2547 0058 93F8C039 		ldrb	r3, [r3, #2496]	@ zero_extendqisi2
 2548 005c FA79     		ldrb	r2, [r7, #7]	@ zero_extendqisi2
 2549 005e 9A42     		cmp	r2, r3
 2550 0060 03D1     		bne	.L136
 850:.\DispenserBLL.c ****                 retval = EEPROM_DISPENSER_PUMP2_PPU_INFO_PAGE;
 2551              		.loc 1 850 0
ARM GAS  C:\Users\RECEPC~1\AppData\Local\Temp\ccxS8OWg.s 			page 61


 2552 0062 4FF48863 		mov	r3, #1088
 2553 0066 FB81     		strh	r3, [r7, #14]	@ movhi
 2554 0068 15E0     		b	.L135
 2555              	.L136:
 851:.\DispenserBLL.c ****             else if(_g_pumps[0x02]._pumpid == pumpid)
 2556              		.loc 1 851 0
 2557 006a 104B     		ldr	r3, .L140+4
 2558 006c 03F59C53 		add	r3, r3, #4992
 2559 0070 1B78     		ldrb	r3, [r3]	@ zero_extendqisi2
 2560 0072 FA79     		ldrb	r2, [r7, #7]	@ zero_extendqisi2
 2561 0074 9A42     		cmp	r2, r3
 2562 0076 03D1     		bne	.L137
 852:.\DispenserBLL.c ****                 retval = EEPROM_DISPENSER_PUMP3_PPU_INFO_PAGE;
 2563              		.loc 1 852 0
 2564 0078 4FF49063 		mov	r3, #1152
 2565 007c FB81     		strh	r3, [r7, #14]	@ movhi
 2566 007e 0AE0     		b	.L135
 2567              	.L137:
 853:.\DispenserBLL.c ****             else if(_g_pumps[0x03]._pumpid == pumpid)
 2568              		.loc 1 853 0
 2569 0080 0A4B     		ldr	r3, .L140+4
 2570 0082 03F5EA53 		add	r3, r3, #7488
 2571 0086 1B78     		ldrb	r3, [r3]	@ zero_extendqisi2
 2572 0088 FA79     		ldrb	r2, [r7, #7]	@ zero_extendqisi2
 2573 008a 9A42     		cmp	r2, r3
 2574 008c 03D1     		bne	.L135
 854:.\DispenserBLL.c ****                 retval = EEPROM_DISPENSER_PUMP4_PPU_INFO_PAGE;
 2575              		.loc 1 854 0
 2576 008e 4FF49863 		mov	r3, #1216
 2577 0092 FB81     		strh	r3, [r7, #14]	@ movhi
 855:.\DispenserBLL.c ****             
 856:.\DispenserBLL.c ****             break;
 2578              		.loc 1 856 0
 2579 0094 FFE7     		b	.L139
 2580              	.L135:
 2581              	.L139:
 2582 0096 00BF     		nop
 2583              	.L129:
 857:.\DispenserBLL.c ****         }
 858:.\DispenserBLL.c ****     }
 859:.\DispenserBLL.c ****     return retval;
 2584              		.loc 1 859 0
 2585 0098 FB89     		ldrh	r3, [r7, #14]
 860:.\DispenserBLL.c **** }
 2586              		.loc 1 860 0
 2587 009a 1846     		mov	r0, r3
 2588 009c 1437     		adds	r7, r7, #20
 2589              		.cfi_def_cfa_offset 4
 2590 009e BD46     		mov	sp, r7
 2591              		.cfi_def_cfa_register 13
 2592              		@ sp needed
 2593 00a0 5DF8047B 		ldr	r7, [sp], #4
 2594              		.cfi_restore 7
 2595              		.cfi_def_cfa_offset 0
 2596 00a4 7047     		bx	lr
 2597              	.L141:
 2598 00a6 00BF     		.align	2
ARM GAS  C:\Users\RECEPC~1\AppData\Local\Temp\ccxS8OWg.s 			page 62


 2599              	.L140:
 2600 00a8 00000000 		.word	_g_dispenserlayoutinfo
 2601 00ac 00000000 		.word	_g_pumps
 2602              		.cfi_endproc
 2603              	.LFE11:
 2604              		.size	DispenserGetEepromPPUPageFromPumpID, .-DispenserGetEepromPPUPageFromPumpID
 2605              		.section	.text.GetPumpFromRemotePositionID,"ax",%progbits
 2606              		.align	2
 2607              		.global	GetPumpFromRemotePositionID
 2608              		.thumb
 2609              		.thumb_func
 2610              		.type	GetPumpFromRemotePositionID, %function
 2611              	GetPumpFromRemotePositionID:
 2612              	.LFB12:
 861:.\DispenserBLL.c **** 
 862:.\DispenserBLL.c **** //@Created by: HIJH
 863:.\DispenserBLL.c **** //@Date: Octobre de 2016
 864:.\DispenserBLL.c **** //Gets a pump pointer to the requested positon identifier
 865:.\DispenserBLL.c **** PNEAR_PUMPPTR GetPumpFromRemotePositionID(uint8 positionid)
 866:.\DispenserBLL.c **** {
 2613              		.loc 1 866 0
 2614              		.cfi_startproc
 2615              		@ args = 0, pretend = 0, frame = 16
 2616              		@ frame_needed = 1, uses_anonymous_args = 0
 2617              		@ link register save eliminated.
 2618 0000 80B4     		push	{r7}
 2619              		.cfi_def_cfa_offset 4
 2620              		.cfi_offset 7, -4
 2621 0002 85B0     		sub	sp, sp, #20
 2622              		.cfi_def_cfa_offset 24
 2623 0004 00AF     		add	r7, sp, #0
 2624              		.cfi_def_cfa_register 7
 2625 0006 0346     		mov	r3, r0
 2626 0008 FB71     		strb	r3, [r7, #7]
 867:.\DispenserBLL.c ****     PNEAR_PUMPPTR retval = PNEAR_NULLPTR;
 2627              		.loc 1 867 0
 2628 000a 0023     		movs	r3, #0
 2629 000c FB60     		str	r3, [r7, #12]
 868:.\DispenserBLL.c ****     FOR(uint8 index = 0, index < _g_dispenserlayoutinfo._numpositions, index++)
 2630              		.loc 1 868 0
 2631 000e 0023     		movs	r3, #0
 2632 0010 FB72     		strb	r3, [r7, #11]
 2633 0012 16E0     		b	.L143
 2634              	.L146:
 869:.\DispenserBLL.c ****     {
 870:.\DispenserBLL.c ****         if(positionid == _g_pumps[index]._pumpid)
 2635              		.loc 1 870 0
 2636 0014 FB7A     		ldrb	r3, [r7, #11]	@ zero_extendqisi2
 2637 0016 114A     		ldr	r2, .L148
 2638 0018 4FF41C61 		mov	r1, #2496
 2639 001c 01FB03F3 		mul	r3, r1, r3
 2640 0020 1344     		add	r3, r3, r2
 2641 0022 1B78     		ldrb	r3, [r3]	@ zero_extendqisi2
 2642 0024 FA79     		ldrb	r2, [r7, #7]	@ zero_extendqisi2
 2643 0026 9A42     		cmp	r2, r3
 2644 0028 08D1     		bne	.L144
 871:.\DispenserBLL.c ****         {
ARM GAS  C:\Users\RECEPC~1\AppData\Local\Temp\ccxS8OWg.s 			page 63


 872:.\DispenserBLL.c ****             retval = &_g_pumps[index];
 2645              		.loc 1 872 0
 2646 002a FB7A     		ldrb	r3, [r7, #11]	@ zero_extendqisi2
 2647 002c 4FF41C62 		mov	r2, #2496
 2648 0030 02FB03F3 		mul	r3, r2, r3
 2649 0034 094A     		ldr	r2, .L148
 2650 0036 1344     		add	r3, r3, r2
 2651 0038 FB60     		str	r3, [r7, #12]
 873:.\DispenserBLL.c ****             break;
 2652              		.loc 1 873 0
 2653 003a 07E0     		b	.L145
 2654              	.L144:
 868:.\DispenserBLL.c ****     {
 2655              		.loc 1 868 0 discriminator 2
 2656 003c FB7A     		ldrb	r3, [r7, #11]	@ zero_extendqisi2
 2657 003e 0133     		adds	r3, r3, #1
 2658 0040 FB72     		strb	r3, [r7, #11]
 2659              	.L143:
 868:.\DispenserBLL.c ****     {
 2660              		.loc 1 868 0 is_stmt 0 discriminator 1
 2661 0042 074B     		ldr	r3, .L148+4
 2662 0044 9B78     		ldrb	r3, [r3, #2]	@ zero_extendqisi2
 2663 0046 FA7A     		ldrb	r2, [r7, #11]	@ zero_extendqisi2
 2664 0048 9A42     		cmp	r2, r3
 2665 004a E3D3     		bcc	.L146
 2666              	.L145:
 874:.\DispenserBLL.c ****         }
 875:.\DispenserBLL.c ****     }
 876:.\DispenserBLL.c ****     return retval;
 2667              		.loc 1 876 0 is_stmt 1
 2668 004c FB68     		ldr	r3, [r7, #12]
 877:.\DispenserBLL.c **** }
 2669              		.loc 1 877 0
 2670 004e 1846     		mov	r0, r3
 2671 0050 1437     		adds	r7, r7, #20
 2672              		.cfi_def_cfa_offset 4
 2673 0052 BD46     		mov	sp, r7
 2674              		.cfi_def_cfa_register 13
 2675              		@ sp needed
 2676 0054 5DF8047B 		ldr	r7, [sp], #4
 2677              		.cfi_restore 7
 2678              		.cfi_def_cfa_offset 0
 2679 0058 7047     		bx	lr
 2680              	.L149:
 2681 005a 00BF     		.align	2
 2682              	.L148:
 2683 005c 00000000 		.word	_g_pumps
 2684 0060 00000000 		.word	_g_dispenserlayoutinfo
 2685              		.cfi_endproc
 2686              	.LFE12:
 2687              		.size	GetPumpFromRemotePositionID, .-GetPumpFromRemotePositionID
 2688              		.text
 2689              	.Letext0:
 2690              		.file 2 "c:\\program files (x86)\\cypress\\psoc creator\\3.3\\psoc creator\\import\\gnu\\arm\\4.9.
 2691              		.file 3 "c:\\program files (x86)\\cypress\\psoc creator\\3.3\\psoc creator\\import\\gnu\\arm\\4.9.
 2692              		.file 4 "Generated_Source\\PSoC5/cytypes.h"
 2693              		.file 5 ".\\GlobalDefinitions.h"
ARM GAS  C:\Users\RECEPC~1\AppData\Local\Temp\ccxS8OWg.s 			page 64


 2694              		.file 6 ".\\SinkManager.h"
 2695              		.file 7 ".\\SinkObservables.h"
 2696              		.file 8 ".\\Advantage.h"
 2697              		.file 9 ".\\Dispenser.h"
 2698              		.file 10 ".\\Display.h"
 2699              		.file 11 ".\\Printer.h"
 2700              		.file 12 ".\\Eeprom.h"
 2701              		.file 13 ".\\RFLink.h"
 2702              		.file 14 ".\\Configuration.h"