ARM GAS  C:\Users\RECEPC~1\AppData\Local\Temp\ccxS8OWg.s 			page 1


   1              		.syntax unified
   2              		.cpu cortex-m3
   3              		.fpu softvfp
   4              		.eabi_attribute 20, 1
   5              		.eabi_attribute 21, 1
   6              		.eabi_attribute 23, 3
   7              		.eabi_attribute 24, 1
   8              		.eabi_attribute 25, 1
   9              		.eabi_attribute 26, 1
  10              		.eabi_attribute 30, 6
  11              		.eabi_attribute 34, 1
  12              		.eabi_attribute 18, 4
  13              		.thumb
  14              		.file	"DispenserBLL.c"
  15              		.text
  16              	.Ltext0:
  17              		.cfi_sections	.debug_frame
  18              		.global	_g_pumpcodemap
  19              		.data
  20              		.align	2
  21              		.type	_g_pumpcodemap, %object
  22              		.size	_g_pumpcodemap, 40
  23              	_g_pumpcodemap:
  24 0000 01       		.byte	1
  25 0001 56       		.byte	86
  26 0002 0000     		.space	2
  27 0004 00000000 		.word	_g_pumps
  28 0008 01       		.byte	1
  29 0009 57       		.byte	87
  30 000a 0000     		.space	2
  31 000c 80130000 		.word	_g_pumps+4992
  32 0010 02       		.byte	2
  33 0011 56       		.byte	86
  34 0012 0000     		.space	2
  35 0014 401D0000 		.word	_g_pumps+7488
  36 0018 02       		.byte	2
  37 0019 57       		.byte	87
  38 001a 0000     		.space	2
  39 001c C0090000 		.word	_g_pumps+2496
  40 0020 FF       		.byte	-1
  41 0021 FF       		.byte	-1
  42 0022 0000     		.space	2
  43 0024 00000000 		.word	0
  44              		.global	_g_ptractprogramming
  45              		.bss
  46              		.align	2
  47              		.type	_g_ptractprogramming, %object
  48              		.size	_g_ptractprogramming, 4
  49              	_g_ptractprogramming:
  50 0000 00000000 		.space	4
  51              		.section	.text.DispenserSide1Listener,"ax",%progbits
  52              		.align	2
  53              		.global	DispenserSide1Listener
  54              		.thumb
  55              		.thumb_func
  56              		.type	DispenserSide1Listener, %function
  57              	DispenserSide1Listener:
ARM GAS  C:\Users\RECEPC~1\AppData\Local\Temp\ccxS8OWg.s 			page 2


  58              	.LFB0:
  59              		.file 1 ".\\DispenserBLL.c"
   1:.\DispenserBLL.c **** /* ========================================
   2:.\DispenserBLL.c ****  *
   3:.\DispenserBLL.c ****  * Copyright INSEPET SISTEMAS, 2016
   4:.\DispenserBLL.c ****  * All Rights Reserved
   5:.\DispenserBLL.c ****  * UNPUBLISHED, LICENSED SOFTWARE.
   6:.\DispenserBLL.c ****  *
   7:.\DispenserBLL.c ****  * CONFIDENTIAL AND PROPRIETARY INFORMATION
   8:.\DispenserBLL.c ****  * WHICH IS THE PROPERTY OF your company.
   9:.\DispenserBLL.c ****  *
  10:.\DispenserBLL.c ****  * ========================================
  11:.\DispenserBLL.c **** @Created By: HIJH
  12:.\DispenserBLL.c **** @Date: Septembre de 2016
  13:.\DispenserBLL.c **** */
  14:.\DispenserBLL.c **** #include "Configuration.h"
  15:.\DispenserBLL.c **** #include "GlobalDefinitions.h"
  16:.\DispenserBLL.c **** #include "SinkManager.h"
  17:.\DispenserBLL.c **** #include "SinkObservables.h"
  18:.\DispenserBLL.c **** #include "Dispenser.h"
  19:.\DispenserBLL.c **** #include "Display.h"
  20:.\DispenserBLL.c **** #include "Printer.h"
  21:.\DispenserBLL.c **** #include "Eeprom.h"
  22:.\DispenserBLL.c **** #include "RFLink.h"
  23:.\DispenserBLL.c **** #include "Rtc.h"
  24:.\DispenserBLL.c **** 
  25:.\DispenserBLL.c **** void DispenserRestorePrices(LPVOID pparam);
  26:.\DispenserBLL.c **** void DispenserUnlockPumpsOnEOT(LPVOID pparam);
  27:.\DispenserBLL.c **** void DispenserLoadEEPROMSettings(LPVOID pparam);
  28:.\DispenserBLL.c **** PumpTransaction *GetTransactionByName(uint8 codename);
  29:.\DispenserBLL.c **** 
  30:.\DispenserBLL.c **** PumpCodeMapping _g_pumpcodemap[] = 
  31:.\DispenserBLL.c **** {
  32:.\DispenserBLL.c ****     { SIDE1, POSITIONA, &_g_pumps[0] },//This code comes from the screen code when selecting the pu
  33:.\DispenserBLL.c ****     { SIDE1, POSITIONB, &_g_pumps[2] },//This code comes from the screen code when selecting the pu
  34:.\DispenserBLL.c ****     { SIDE2, POSITIONA, &_g_pumps[3] },//This code comes from the screen code when selecting the pu
  35:.\DispenserBLL.c ****     { SIDE2, POSITIONB, &_g_pumps[1] },//This code comes from the screen code when selecting the pu
  36:.\DispenserBLL.c ****     { 0xFF,  0xFF, NULL }
  37:.\DispenserBLL.c **** };
  38:.\DispenserBLL.c **** 
  39:.\DispenserBLL.c **** PNEARDISPENSERACTIVATEPROGRAMMING _g_ptractprogramming = PNEAR_NULLPTR;
  40:.\DispenserBLL.c **** 
  41:.\DispenserBLL.c **** //@Create by: HIJH
  42:.\DispenserBLL.c **** //@Date: Septembre de 2016
  43:.\DispenserBLL.c **** //This method handles all of the incoming data that has been capture on the Display.
  44:.\DispenserBLL.c **** //All codes come from the assigned button event codes. By convention the first byte
  45:.\DispenserBLL.c **** //For more information to grasph the mapping convention, see the file "DisplayBufferScreenMap"
  46:.\DispenserBLL.c **** //THIS MODEL IS NOT FLEXIBLE ENOUGHT SINCE THERE ARE OTHER TRANSACTIONS NOT RELATED WITH
  47:.\DispenserBLL.c **** //PRESET THAT MUST BE MET!!! REQUIRES FIXING!!
  48:.\DispenserBLL.c **** void DispenserSide1Listener(void *pparam)
  49:.\DispenserBLL.c **** {
  60              		.loc 1 49 0
  61              		.cfi_startproc
  62              		@ args = 0, pretend = 0, frame = 32
  63              		@ frame_needed = 1, uses_anonymous_args = 0
  64 0000 80B5     		push	{r7, lr}
  65              		.cfi_def_cfa_offset 8
ARM GAS  C:\Users\RECEPC~1\AppData\Local\Temp\ccxS8OWg.s 			page 3


  66              		.cfi_offset 7, -8
  67              		.cfi_offset 14, -4
  68 0002 88B0     		sub	sp, sp, #32
  69              		.cfi_def_cfa_offset 40
  70 0004 00AF     		add	r7, sp, #0
  71              		.cfi_def_cfa_register 7
  72 0006 7860     		str	r0, [r7, #4]
  50:.\DispenserBLL.c ****     PSINKMESSAGEPTR pmsg = (PSINKMESSAGEPTR)pparam;
  73              		.loc 1 50 0
  74 0008 7B68     		ldr	r3, [r7, #4]
  75 000a 3B61     		str	r3, [r7, #16]
  51:.\DispenserBLL.c ****     //PUMP TRANSACTION CREATION HERE!!!    
  52:.\DispenserBLL.c ****     Pump *ppump = NULL;
  76              		.loc 1 52 0
  77 000c 0023     		movs	r3, #0
  78 000e FB61     		str	r3, [r7, #28]
  53:.\DispenserBLL.c ****     //Selecting the PUMP (Position)
  54:.\DispenserBLL.c ****     PumpCodeMapping *ptr = _g_pumpcodemap;
  79              		.loc 1 54 0
  80 0010 4C4B     		ldr	r3, .L12
  81 0012 BB61     		str	r3, [r7, #24]
  55:.\DispenserBLL.c ****     uint8 pumpposcode = pmsg->_buffer[GetBufferIndexFromDisplayID(DISPLAY_SELECCIONE_POSICION)];
  82              		.loc 1 55 0
  83 0014 2E20     		movs	r0, #46
  84 0016 FFF7FEFF 		bl	GetBufferIndexFromDisplayID
  85 001a 0346     		mov	r3, r0
  86 001c 1A46     		mov	r2, r3
  87 001e 3B69     		ldr	r3, [r7, #16]
  88 0020 1344     		add	r3, r3, r2
  89 0022 1B7B     		ldrb	r3, [r3, #12]
  90 0024 FB73     		strb	r3, [r7, #15]
  56:.\DispenserBLL.c ****     while(ptr->_side != 0xFF)
  91              		.loc 1 56 0
  92 0026 0FE0     		b	.L2
  93              	.L5:
  57:.\DispenserBLL.c ****     {
  58:.\DispenserBLL.c ****         if(ptr->_side == SIDE1 && ptr->_refcode == pumpposcode)
  94              		.loc 1 58 0
  95 0028 BB69     		ldr	r3, [r7, #24]
  96 002a 1B78     		ldrb	r3, [r3]	@ zero_extendqisi2
  97 002c 012B     		cmp	r3, #1
  98 002e 08D1     		bne	.L3
  99              		.loc 1 58 0 is_stmt 0 discriminator 1
 100 0030 BB69     		ldr	r3, [r7, #24]
 101 0032 5B78     		ldrb	r3, [r3, #1]	@ zero_extendqisi2
 102 0034 FA7B     		ldrb	r2, [r7, #15]	@ zero_extendqisi2
 103 0036 9A42     		cmp	r2, r3
 104 0038 03D1     		bne	.L3
  59:.\DispenserBLL.c ****         {
  60:.\DispenserBLL.c ****             ppump = ptr->_ppump;
 105              		.loc 1 60 0 is_stmt 1
 106 003a BB69     		ldr	r3, [r7, #24]
 107 003c 5B68     		ldr	r3, [r3, #4]
 108 003e FB61     		str	r3, [r7, #28]
  61:.\DispenserBLL.c ****             break;
 109              		.loc 1 61 0
 110 0040 06E0     		b	.L4
ARM GAS  C:\Users\RECEPC~1\AppData\Local\Temp\ccxS8OWg.s 			page 4


 111              	.L3:
  62:.\DispenserBLL.c ****         }            
  63:.\DispenserBLL.c ****         ptr++;
 112              		.loc 1 63 0
 113 0042 BB69     		ldr	r3, [r7, #24]
 114 0044 0833     		adds	r3, r3, #8
 115 0046 BB61     		str	r3, [r7, #24]
 116              	.L2:
  56:.\DispenserBLL.c ****     {
 117              		.loc 1 56 0
 118 0048 BB69     		ldr	r3, [r7, #24]
 119 004a 1B78     		ldrb	r3, [r3]	@ zero_extendqisi2
 120 004c FF2B     		cmp	r3, #255
 121 004e EBD1     		bne	.L5
 122              	.L4:
  64:.\DispenserBLL.c ****     }
  65:.\DispenserBLL.c ****     if(ppump)
 123              		.loc 1 65 0
 124 0050 FB69     		ldr	r3, [r7, #28]
 125 0052 002B     		cmp	r3, #0
 126 0054 72D0     		beq	.L1
 127              	.LBB2:
  66:.\DispenserBLL.c ****     {        
  67:.\DispenserBLL.c ****         memcpy(ppump->_trasactionbuffer, pmsg->_buffer, _MESSAGE_LENGTH_);
 128              		.loc 1 67 0
 129 0056 FB69     		ldr	r3, [r7, #28]
 130 0058 03F12002 		add	r2, r3, #32
 131 005c 3B69     		ldr	r3, [r7, #16]
 132 005e 0C33     		adds	r3, r3, #12
 133 0060 1046     		mov	r0, r2
 134 0062 1946     		mov	r1, r3
 135 0064 4FF4C072 		mov	r2, #384
 136 0068 FFF7FEFF 		bl	memcpy
  68:.\DispenserBLL.c ****         ppump->_print = (ppump->_trasactionbuffer[GetBufferIndexFromDisplayID(DISPLAY_DESEA_IMPRIMI
 137              		.loc 1 68 0
 138 006c 0B20     		movs	r0, #11
 139 006e FFF7FEFF 		bl	GetBufferIndexFromDisplayID
 140 0072 0346     		mov	r3, r0
 141 0074 1A46     		mov	r2, r3
 142 0076 FB69     		ldr	r3, [r7, #28]
 143 0078 1344     		add	r3, r3, r2
 144 007a 93F82030 		ldrb	r3, [r3, #32]	@ zero_extendqisi2
 145 007e 392B     		cmp	r3, #57
 146 0080 0CBF     		ite	eq
 147 0082 0123     		moveq	r3, #1
 148 0084 0023     		movne	r3, #0
 149 0086 DAB2     		uxtb	r2, r3
 150 0088 FB69     		ldr	r3, [r7, #28]
 151 008a 5A73     		strb	r2, [r3, #13]
  69:.\DispenserBLL.c ****         uint8 paymentmethod = pmsg->_buffer[GetBufferIndexFromDisplayID(DISPLAY_FORMA_PAGO_DESEADA)
 152              		.loc 1 69 0
 153 008c 0420     		movs	r0, #4
 154 008e FFF7FEFF 		bl	GetBufferIndexFromDisplayID
 155 0092 0346     		mov	r3, r0
 156 0094 1A46     		mov	r2, r3
 157 0096 3B69     		ldr	r3, [r7, #16]
 158 0098 1344     		add	r3, r3, r2
ARM GAS  C:\Users\RECEPC~1\AppData\Local\Temp\ccxS8OWg.s 			page 5


 159 009a 1B7B     		ldrb	r3, [r3, #12]
 160 009c BB73     		strb	r3, [r7, #14]
  70:.\DispenserBLL.c ****         if(paymentmethod == 0x0D)
 161              		.loc 1 70 0
 162 009e BB7B     		ldrb	r3, [r7, #14]	@ zero_extendqisi2
 163 00a0 0D2B     		cmp	r3, #13
 164 00a2 10D1     		bne	.L7
 165              	.LBB3:
  71:.\DispenserBLL.c ****         {        
  72:.\DispenserBLL.c ****             uint8 transactionname = pmsg->_buffer[GetBufferIndexFromDisplayID(DISPLAY_FORMA_PROGRAM
 166              		.loc 1 72 0
 167 00a4 0520     		movs	r0, #5
 168 00a6 FFF7FEFF 		bl	GetBufferIndexFromDisplayID
 169 00aa 0346     		mov	r3, r0
 170 00ac 1A46     		mov	r2, r3
 171 00ae 3B69     		ldr	r3, [r7, #16]
 172 00b0 1344     		add	r3, r3, r2
 173 00b2 1B7B     		ldrb	r3, [r3, #12]
 174 00b4 7B73     		strb	r3, [r7, #13]
  73:.\DispenserBLL.c ****             ppump->_pcurrtransaction = GetTransactionByName(transactionname);
 175              		.loc 1 73 0
 176 00b6 7B7B     		ldrb	r3, [r7, #13]	@ zero_extendqisi2
 177 00b8 1846     		mov	r0, r3
 178 00ba FFF7FEFF 		bl	GetTransactionByName
 179 00be 0246     		mov	r2, r0
 180 00c0 FB69     		ldr	r3, [r7, #28]
 181 00c2 DA61     		str	r2, [r3, #28]
 182              	.LBE3:
 183 00c4 08E0     		b	.L8
 184              	.L7:
  74:.\DispenserBLL.c ****         }
  75:.\DispenserBLL.c ****         else if(paymentmethod == 0x0E)
 185              		.loc 1 75 0
 186 00c6 BB7B     		ldrb	r3, [r7, #14]	@ zero_extendqisi2
 187 00c8 0E2B     		cmp	r3, #14
 188 00ca 05D1     		bne	.L8
  76:.\DispenserBLL.c ****         {
  77:.\DispenserBLL.c ****             ppump->_pcurrtransaction = GetTransactionByName(_PUMP_FILL_CREDIT_);
 189              		.loc 1 77 0
 190 00cc 4420     		movs	r0, #68
 191 00ce FFF7FEFF 		bl	GetTransactionByName
 192 00d2 0246     		mov	r2, r0
 193 00d4 FB69     		ldr	r3, [r7, #28]
 194 00d6 DA61     		str	r2, [r3, #28]
 195              	.L8:
  78:.\DispenserBLL.c ****         }
  79:.\DispenserBLL.c ****         
  80:.\DispenserBLL.c ****         ppump->_presetdone = false;
 196              		.loc 1 80 0
 197 00d8 FB69     		ldr	r3, [r7, #28]
 198 00da 0022     		movs	r2, #0
 199 00dc 1A72     		strb	r2, [r3, #8]
  81:.\DispenserBLL.c ****         PNEAR_PUMPTRANSACTIONJOBPTR ptrjob = &((PNEAR_PUMPTRANSACTIONPTR)ppump->_pcurrtransaction)-
 200              		.loc 1 81 0
 201 00de FB69     		ldr	r3, [r7, #28]
 202 00e0 DB69     		ldr	r3, [r3, #28]
 203 00e2 0433     		adds	r3, r3, #4
ARM GAS  C:\Users\RECEPC~1\AppData\Local\Temp\ccxS8OWg.s 			page 6


 204 00e4 7B61     		str	r3, [r7, #20]
  82:.\DispenserBLL.c ****         if(ptrjob)
 205              		.loc 1 82 0
 206 00e6 7B69     		ldr	r3, [r7, #20]
 207 00e8 002B     		cmp	r3, #0
 208 00ea 27D0     		beq	.L1
  83:.\DispenserBLL.c ****         {
  84:.\DispenserBLL.c ****             while(ptrjob->Request != NULL)
 209              		.loc 1 84 0
 210 00ec 22E0     		b	.L9
 211              	.L11:
 212              	.LBB4:
  85:.\DispenserBLL.c ****             {
  86:.\DispenserBLL.c ****                 PPUMPTRANSACTIONJOBCONTEXTPTR pjobcntr = _g_pumpjobqueue.Allocate(&_g_pumpjobqueue)
 213              		.loc 1 86 0
 214 00ee 164B     		ldr	r3, .L12+4
 215 00f0 D3F84838 		ldr	r3, [r3, #2120]
 216 00f4 1448     		ldr	r0, .L12+4
 217 00f6 9847     		blx	r3
 218 00f8 B860     		str	r0, [r7, #8]
  87:.\DispenserBLL.c ****                 if(pjobcntr)
 219              		.loc 1 87 0
 220 00fa BB68     		ldr	r3, [r7, #8]
 221 00fc 002B     		cmp	r3, #0
 222 00fe 16D0     		beq	.L10
  88:.\DispenserBLL.c ****                 {
  89:.\DispenserBLL.c ****                     pjobcntr->_prequest = ptrjob;
 223              		.loc 1 89 0
 224 0100 BB68     		ldr	r3, [r7, #8]
 225 0102 7A69     		ldr	r2, [r7, #20]
 226 0104 5A61     		str	r2, [r3, #20]
  90:.\DispenserBLL.c ****                     pjobcntr->_presponse = NULL;
 227              		.loc 1 90 0
 228 0106 BB68     		ldr	r3, [r7, #8]
 229 0108 0022     		movs	r2, #0
 230 010a 9A61     		str	r2, [r3, #24]
  91:.\DispenserBLL.c ****                     pjobcntr->_ppump = ppump;
 231              		.loc 1 91 0
 232 010c BB68     		ldr	r3, [r7, #8]
 233 010e FA69     		ldr	r2, [r7, #28]
 234 0110 DA61     		str	r2, [r3, #28]
  92:.\DispenserBLL.c ****                     pjobcntr->_ppump->CleanUp(pjobcntr->_ppump);
 235              		.loc 1 92 0
 236 0112 BB68     		ldr	r3, [r7, #8]
 237 0114 DB69     		ldr	r3, [r3, #28]
 238 0116 D3F8B839 		ldr	r3, [r3, #2488]
 239 011a BA68     		ldr	r2, [r7, #8]
 240 011c D269     		ldr	r2, [r2, #28]
 241 011e 1046     		mov	r0, r2
 242 0120 9847     		blx	r3
  93:.\DispenserBLL.c ****                     _g_pumpjobqueue.Enqueue(&_g_pumpjobqueue, pjobcntr);
 243              		.loc 1 93 0
 244 0122 094B     		ldr	r3, .L12+4
 245 0124 D3F84C38 		ldr	r3, [r3, #2124]
 246 0128 0748     		ldr	r0, .L12+4
 247 012a B968     		ldr	r1, [r7, #8]
 248 012c 9847     		blx	r3
ARM GAS  C:\Users\RECEPC~1\AppData\Local\Temp\ccxS8OWg.s 			page 7


 249              	.L10:
  94:.\DispenserBLL.c ****                 }
  95:.\DispenserBLL.c ****                 ptrjob++;
 250              		.loc 1 95 0
 251 012e 7B69     		ldr	r3, [r7, #20]
 252 0130 3433     		adds	r3, r3, #52
 253 0132 7B61     		str	r3, [r7, #20]
 254              	.L9:
 255              	.LBE4:
  84:.\DispenserBLL.c ****             {
 256              		.loc 1 84 0
 257 0134 7B69     		ldr	r3, [r7, #20]
 258 0136 1B68     		ldr	r3, [r3]
 259 0138 002B     		cmp	r3, #0
 260 013a D8D1     		bne	.L11
 261              	.L1:
 262              	.LBE2:
  96:.\DispenserBLL.c ****             }
  97:.\DispenserBLL.c ****         }
  98:.\DispenserBLL.c ****     }
  99:.\DispenserBLL.c **** }
 263              		.loc 1 99 0
 264 013c 2037     		adds	r7, r7, #32
 265              		.cfi_def_cfa_offset 8
 266 013e BD46     		mov	sp, r7
 267              		.cfi_def_cfa_register 13
 268              		@ sp needed
 269 0140 80BD     		pop	{r7, pc}
 270              	.L13:
 271 0142 00BF     		.align	2
 272              	.L12:
 273 0144 00000000 		.word	_g_pumpcodemap
 274 0148 00000000 		.word	_g_pumpjobqueue
 275              		.cfi_endproc
 276              	.LFE0:
 277              		.size	DispenserSide1Listener, .-DispenserSide1Listener
 278              		.section	.text.DispenserSide2Listener,"ax",%progbits
 279              		.align	2
 280              		.global	DispenserSide2Listener
 281              		.thumb
 282              		.thumb_func
 283              		.type	DispenserSide2Listener, %function
 284              	DispenserSide2Listener:
 285              	.LFB1:
 100:.\DispenserBLL.c **** 
 101:.\DispenserBLL.c **** //@Create by: HIJH
 102:.\DispenserBLL.c **** //@Date: Septembre de 2016
 103:.\DispenserBLL.c **** //This method handles all of the incoming data that has been capture on the Display.
 104:.\DispenserBLL.c **** //All codes come from the assigned button event codes. By convention the first byte
 105:.\DispenserBLL.c **** //For more information to grasph the mapping convention, see the file "DisplayBufferScreenMap"
 106:.\DispenserBLL.c **** //THIS MODEL IS NOT FLEXIBLE ENOUGHT SINCE THERE ARE OTHER TRANSACTIONS NOT RELATED WITH
 107:.\DispenserBLL.c **** //PRESET THAT MUST BE MET!!! REQUIRES FIXING!!
 108:.\DispenserBLL.c **** void DispenserSide2Listener(void *pparam)
 109:.\DispenserBLL.c **** {
 286              		.loc 1 109 0
 287              		.cfi_startproc
 288              		@ args = 0, pretend = 0, frame = 32
ARM GAS  C:\Users\RECEPC~1\AppData\Local\Temp\ccxS8OWg.s 			page 8


 289              		@ frame_needed = 1, uses_anonymous_args = 0
 290 0000 80B5     		push	{r7, lr}
 291              		.cfi_def_cfa_offset 8
 292              		.cfi_offset 7, -8
 293              		.cfi_offset 14, -4
 294 0002 88B0     		sub	sp, sp, #32
 295              		.cfi_def_cfa_offset 40
 296 0004 00AF     		add	r7, sp, #0
 297              		.cfi_def_cfa_register 7
 298 0006 7860     		str	r0, [r7, #4]
 110:.\DispenserBLL.c ****     PSINKMESSAGEPTR pmsg = (PSINKMESSAGEPTR)pparam;
 299              		.loc 1 110 0
 300 0008 7B68     		ldr	r3, [r7, #4]
 301 000a 3B61     		str	r3, [r7, #16]
 111:.\DispenserBLL.c ****     //PUMP TRANSACTION CREATION HERE!!!    
 112:.\DispenserBLL.c ****     Pump *ppump = NULL;
 302              		.loc 1 112 0
 303 000c 0023     		movs	r3, #0
 304 000e FB61     		str	r3, [r7, #28]
 113:.\DispenserBLL.c ****     //Selecting the PUMP (Position)
 114:.\DispenserBLL.c ****     PumpCodeMapping *ptr = _g_pumpcodemap;
 305              		.loc 1 114 0
 306 0010 4C4B     		ldr	r3, .L25
 307 0012 BB61     		str	r3, [r7, #24]
 115:.\DispenserBLL.c ****     uint8 pumpposcode = pmsg->_buffer[GetBufferIndexFromDisplayID(DISPLAY_SELECCIONE_POSICION)];
 308              		.loc 1 115 0
 309 0014 2E20     		movs	r0, #46
 310 0016 FFF7FEFF 		bl	GetBufferIndexFromDisplayID
 311 001a 0346     		mov	r3, r0
 312 001c 1A46     		mov	r2, r3
 313 001e 3B69     		ldr	r3, [r7, #16]
 314 0020 1344     		add	r3, r3, r2
 315 0022 1B7B     		ldrb	r3, [r3, #12]
 316 0024 FB73     		strb	r3, [r7, #15]
 116:.\DispenserBLL.c ****     while(ptr->_side != 0xFF)
 317              		.loc 1 116 0
 318 0026 0FE0     		b	.L15
 319              	.L18:
 117:.\DispenserBLL.c ****     {
 118:.\DispenserBLL.c ****         if(ptr->_side == SIDE2 && ptr->_refcode == pumpposcode)
 320              		.loc 1 118 0
 321 0028 BB69     		ldr	r3, [r7, #24]
 322 002a 1B78     		ldrb	r3, [r3]	@ zero_extendqisi2
 323 002c 022B     		cmp	r3, #2
 324 002e 08D1     		bne	.L16
 325              		.loc 1 118 0 is_stmt 0 discriminator 1
 326 0030 BB69     		ldr	r3, [r7, #24]
 327 0032 5B78     		ldrb	r3, [r3, #1]	@ zero_extendqisi2
 328 0034 FA7B     		ldrb	r2, [r7, #15]	@ zero_extendqisi2
 329 0036 9A42     		cmp	r2, r3
 330 0038 03D1     		bne	.L16
 119:.\DispenserBLL.c ****         {
 120:.\DispenserBLL.c ****             ppump = ptr->_ppump;
 331              		.loc 1 120 0 is_stmt 1
 332 003a BB69     		ldr	r3, [r7, #24]
 333 003c 5B68     		ldr	r3, [r3, #4]
 334 003e FB61     		str	r3, [r7, #28]
ARM GAS  C:\Users\RECEPC~1\AppData\Local\Temp\ccxS8OWg.s 			page 9


 121:.\DispenserBLL.c ****             break;
 335              		.loc 1 121 0
 336 0040 06E0     		b	.L17
 337              	.L16:
 122:.\DispenserBLL.c ****         }            
 123:.\DispenserBLL.c ****         ptr++;
 338              		.loc 1 123 0
 339 0042 BB69     		ldr	r3, [r7, #24]
 340 0044 0833     		adds	r3, r3, #8
 341 0046 BB61     		str	r3, [r7, #24]
 342              	.L15:
 116:.\DispenserBLL.c ****     {
 343              		.loc 1 116 0
 344 0048 BB69     		ldr	r3, [r7, #24]
 345 004a 1B78     		ldrb	r3, [r3]	@ zero_extendqisi2
 346 004c FF2B     		cmp	r3, #255
 347 004e EBD1     		bne	.L18
 348              	.L17:
 124:.\DispenserBLL.c ****     }
 125:.\DispenserBLL.c ****     if(ppump)
 349              		.loc 1 125 0
 350 0050 FB69     		ldr	r3, [r7, #28]
 351 0052 002B     		cmp	r3, #0
 352 0054 72D0     		beq	.L14
 353              	.LBB5:
 126:.\DispenserBLL.c ****     {
 127:.\DispenserBLL.c ****         
 128:.\DispenserBLL.c ****         memcpy(ppump->_trasactionbuffer, pmsg->_buffer, _MESSAGE_LENGTH_);
 354              		.loc 1 128 0
 355 0056 FB69     		ldr	r3, [r7, #28]
 356 0058 03F12002 		add	r2, r3, #32
 357 005c 3B69     		ldr	r3, [r7, #16]
 358 005e 0C33     		adds	r3, r3, #12
 359 0060 1046     		mov	r0, r2
 360 0062 1946     		mov	r1, r3
 361 0064 4FF4C072 		mov	r2, #384
 362 0068 FFF7FEFF 		bl	memcpy
 129:.\DispenserBLL.c ****         ppump->_print = (ppump->_trasactionbuffer[GetBufferIndexFromDisplayID(DISPLAY_DESEA_IMPRIMI
 363              		.loc 1 129 0
 364 006c 0B20     		movs	r0, #11
 365 006e FFF7FEFF 		bl	GetBufferIndexFromDisplayID
 366 0072 0346     		mov	r3, r0
 367 0074 1A46     		mov	r2, r3
 368 0076 FB69     		ldr	r3, [r7, #28]
 369 0078 1344     		add	r3, r3, r2
 370 007a 93F82030 		ldrb	r3, [r3, #32]	@ zero_extendqisi2
 371 007e 392B     		cmp	r3, #57
 372 0080 0CBF     		ite	eq
 373 0082 0123     		moveq	r3, #1
 374 0084 0023     		movne	r3, #0
 375 0086 DAB2     		uxtb	r2, r3
 376 0088 FB69     		ldr	r3, [r7, #28]
 377 008a 5A73     		strb	r2, [r3, #13]
 130:.\DispenserBLL.c ****         uint8 paymentmethod = pmsg->_buffer[GetBufferIndexFromDisplayID(DISPLAY_FORMA_PAGO_DESEADA)
 378              		.loc 1 130 0
 379 008c 0420     		movs	r0, #4
 380 008e FFF7FEFF 		bl	GetBufferIndexFromDisplayID
ARM GAS  C:\Users\RECEPC~1\AppData\Local\Temp\ccxS8OWg.s 			page 10


 381 0092 0346     		mov	r3, r0
 382 0094 1A46     		mov	r2, r3
 383 0096 3B69     		ldr	r3, [r7, #16]
 384 0098 1344     		add	r3, r3, r2
 385 009a 1B7B     		ldrb	r3, [r3, #12]
 386 009c BB73     		strb	r3, [r7, #14]
 131:.\DispenserBLL.c ****         if(paymentmethod == 0x0D)
 387              		.loc 1 131 0
 388 009e BB7B     		ldrb	r3, [r7, #14]	@ zero_extendqisi2
 389 00a0 0D2B     		cmp	r3, #13
 390 00a2 10D1     		bne	.L20
 391              	.LBB6:
 132:.\DispenserBLL.c ****         {        
 133:.\DispenserBLL.c ****             uint8 transactionname = pmsg->_buffer[GetBufferIndexFromDisplayID(DISPLAY_FORMA_PROGRAM
 392              		.loc 1 133 0
 393 00a4 0520     		movs	r0, #5
 394 00a6 FFF7FEFF 		bl	GetBufferIndexFromDisplayID
 395 00aa 0346     		mov	r3, r0
 396 00ac 1A46     		mov	r2, r3
 397 00ae 3B69     		ldr	r3, [r7, #16]
 398 00b0 1344     		add	r3, r3, r2
 399 00b2 1B7B     		ldrb	r3, [r3, #12]
 400 00b4 7B73     		strb	r3, [r7, #13]
 134:.\DispenserBLL.c ****             ppump->_pcurrtransaction = GetTransactionByName(transactionname);
 401              		.loc 1 134 0
 402 00b6 7B7B     		ldrb	r3, [r7, #13]	@ zero_extendqisi2
 403 00b8 1846     		mov	r0, r3
 404 00ba FFF7FEFF 		bl	GetTransactionByName
 405 00be 0246     		mov	r2, r0
 406 00c0 FB69     		ldr	r3, [r7, #28]
 407 00c2 DA61     		str	r2, [r3, #28]
 408              	.LBE6:
 409 00c4 08E0     		b	.L21
 410              	.L20:
 135:.\DispenserBLL.c ****         }
 136:.\DispenserBLL.c ****         else if(paymentmethod == 0x0E)
 411              		.loc 1 136 0
 412 00c6 BB7B     		ldrb	r3, [r7, #14]	@ zero_extendqisi2
 413 00c8 0E2B     		cmp	r3, #14
 414 00ca 05D1     		bne	.L21
 137:.\DispenserBLL.c ****         {
 138:.\DispenserBLL.c ****             ppump->_pcurrtransaction = GetTransactionByName(_PUMP_FILL_CREDIT_);
 415              		.loc 1 138 0
 416 00cc 4420     		movs	r0, #68
 417 00ce FFF7FEFF 		bl	GetTransactionByName
 418 00d2 0246     		mov	r2, r0
 419 00d4 FB69     		ldr	r3, [r7, #28]
 420 00d6 DA61     		str	r2, [r3, #28]
 421              	.L21:
 139:.\DispenserBLL.c ****         }
 140:.\DispenserBLL.c ****         
 141:.\DispenserBLL.c ****         ppump->_presetdone = false;
 422              		.loc 1 141 0
 423 00d8 FB69     		ldr	r3, [r7, #28]
 424 00da 0022     		movs	r2, #0
 425 00dc 1A72     		strb	r2, [r3, #8]
 142:.\DispenserBLL.c ****         PNEAR_PUMPTRANSACTIONJOBPTR ptrjob = ((PNEAR_PUMPTRANSACTIONPTR)ppump->_pcurrtransaction)->
ARM GAS  C:\Users\RECEPC~1\AppData\Local\Temp\ccxS8OWg.s 			page 11


 426              		.loc 1 142 0
 427 00de FB69     		ldr	r3, [r7, #28]
 428 00e0 DB69     		ldr	r3, [r3, #28]
 429 00e2 0433     		adds	r3, r3, #4
 430 00e4 7B61     		str	r3, [r7, #20]
 143:.\DispenserBLL.c ****         if(ptrjob)
 431              		.loc 1 143 0
 432 00e6 7B69     		ldr	r3, [r7, #20]
 433 00e8 002B     		cmp	r3, #0
 434 00ea 27D0     		beq	.L14
 144:.\DispenserBLL.c ****         {
 145:.\DispenserBLL.c ****             while(ptrjob->Request != NULL)
 435              		.loc 1 145 0
 436 00ec 22E0     		b	.L22
 437              	.L24:
 438              	.LBB7:
 146:.\DispenserBLL.c ****             {
 147:.\DispenserBLL.c ****                 PPUMPTRANSACTIONJOBCONTEXTPTR pjobcntr = _g_pumpjobqueue.Allocate(&_g_pumpjobqueue)
 439              		.loc 1 147 0
 440 00ee 164B     		ldr	r3, .L25+4
 441 00f0 D3F84838 		ldr	r3, [r3, #2120]
 442 00f4 1448     		ldr	r0, .L25+4
 443 00f6 9847     		blx	r3
 444 00f8 B860     		str	r0, [r7, #8]
 148:.\DispenserBLL.c ****                 if(pjobcntr)
 445              		.loc 1 148 0
 446 00fa BB68     		ldr	r3, [r7, #8]
 447 00fc 002B     		cmp	r3, #0
 448 00fe 16D0     		beq	.L23
 149:.\DispenserBLL.c ****                 {
 150:.\DispenserBLL.c ****                     pjobcntr->_prequest = ptrjob;
 449              		.loc 1 150 0
 450 0100 BB68     		ldr	r3, [r7, #8]
 451 0102 7A69     		ldr	r2, [r7, #20]
 452 0104 5A61     		str	r2, [r3, #20]
 151:.\DispenserBLL.c ****                     pjobcntr->_presponse = NULL;
 453              		.loc 1 151 0
 454 0106 BB68     		ldr	r3, [r7, #8]
 455 0108 0022     		movs	r2, #0
 456 010a 9A61     		str	r2, [r3, #24]
 152:.\DispenserBLL.c ****                     pjobcntr->_ppump = ppump;
 457              		.loc 1 152 0
 458 010c BB68     		ldr	r3, [r7, #8]
 459 010e FA69     		ldr	r2, [r7, #28]
 460 0110 DA61     		str	r2, [r3, #28]
 153:.\DispenserBLL.c ****                     pjobcntr->_ppump->CleanUp(pjobcntr->_ppump);
 461              		.loc 1 153 0
 462 0112 BB68     		ldr	r3, [r7, #8]
 463 0114 DB69     		ldr	r3, [r3, #28]
 464 0116 D3F8B839 		ldr	r3, [r3, #2488]
 465 011a BA68     		ldr	r2, [r7, #8]
 466 011c D269     		ldr	r2, [r2, #28]
 467 011e 1046     		mov	r0, r2
 468 0120 9847     		blx	r3
 154:.\DispenserBLL.c ****                     _g_pumpjobqueue.Enqueue(&_g_pumpjobqueue, pjobcntr);
 469              		.loc 1 154 0
 470 0122 094B     		ldr	r3, .L25+4
ARM GAS  C:\Users\RECEPC~1\AppData\Local\Temp\ccxS8OWg.s 			page 12


 471 0124 D3F84C38 		ldr	r3, [r3, #2124]
 472 0128 0748     		ldr	r0, .L25+4
 473 012a B968     		ldr	r1, [r7, #8]
 474 012c 9847     		blx	r3
 475              	.L23:
 155:.\DispenserBLL.c ****                 }
 156:.\DispenserBLL.c ****                 ptrjob++;
 476              		.loc 1 156 0
 477 012e 7B69     		ldr	r3, [r7, #20]
 478 0130 3433     		adds	r3, r3, #52
 479 0132 7B61     		str	r3, [r7, #20]
 480              	.L22:
 481              	.LBE7:
 145:.\DispenserBLL.c ****             {
 482              		.loc 1 145 0
 483 0134 7B69     		ldr	r3, [r7, #20]
 484 0136 1B68     		ldr	r3, [r3]
 485 0138 002B     		cmp	r3, #0
 486 013a D8D1     		bne	.L24
 487              	.L14:
 488              	.LBE5:
 157:.\DispenserBLL.c ****             }
 158:.\DispenserBLL.c ****         }
 159:.\DispenserBLL.c ****     }
 160:.\DispenserBLL.c **** }
 489              		.loc 1 160 0
 490 013c 2037     		adds	r7, r7, #32
 491              		.cfi_def_cfa_offset 8
 492 013e BD46     		mov	sp, r7
 493              		.cfi_def_cfa_register 13
 494              		@ sp needed
 495 0140 80BD     		pop	{r7, pc}
 496              	.L26:
 497 0142 00BF     		.align	2
 498              	.L25:
 499 0144 00000000 		.word	_g_pumpcodemap
 500 0148 00000000 		.word	_g_pumpjobqueue
 501              		.cfi_endproc
 502              	.LFE1:
 503              		.size	DispenserSide2Listener, .-DispenserSide2Listener
 504              		.section	.text.DispenserUpdatePumpState,"ax",%progbits
 505              		.align	2
 506              		.global	DispenserUpdatePumpState
 507              		.thumb
 508              		.thumb_func
 509              		.type	DispenserUpdatePumpState, %function
 510              	DispenserUpdatePumpState:
 511              	.LFB2:
 161:.\DispenserBLL.c **** 
 162:.\DispenserBLL.c **** //@Created By: HIJH
 163:.\DispenserBLL.c **** //@Date: Septembre de 2016
 164:.\DispenserBLL.c **** //Acquires the current pump/hose state
 165:.\DispenserBLL.c **** void DispenserUpdatePumpState(void *pparam)
 166:.\DispenserBLL.c **** {
 512              		.loc 1 166 0
 513              		.cfi_startproc
 514              		@ args = 0, pretend = 0, frame = 32
ARM GAS  C:\Users\RECEPC~1\AppData\Local\Temp\ccxS8OWg.s 			page 13


 515              		@ frame_needed = 1, uses_anonymous_args = 0
 516 0000 80B5     		push	{r7, lr}
 517              		.cfi_def_cfa_offset 8
 518              		.cfi_offset 7, -8
 519              		.cfi_offset 14, -4
 520 0002 88B0     		sub	sp, sp, #32
 521              		.cfi_def_cfa_offset 40
 522 0004 00AF     		add	r7, sp, #0
 523              		.cfi_def_cfa_register 7
 524 0006 7860     		str	r0, [r7, #4]
 167:.\DispenserBLL.c ****     PNEAR_PUMPPTR ppump = PNEAR_NULLPTR;
 525              		.loc 1 167 0
 526 0008 0023     		movs	r3, #0
 527 000a FB61     		str	r3, [r7, #28]
 168:.\DispenserBLL.c ****     PSINKMESSAGEPTR pmsg = (PSINKMESSAGEPTR)pparam;
 528              		.loc 1 168 0
 529 000c 7B68     		ldr	r3, [r7, #4]
 530 000e 3B61     		str	r3, [r7, #16]
 169:.\DispenserBLL.c ****     FOR(uint8 index = 0, index < _g_dispenserlayoutinfo._numpositions, index++)
 531              		.loc 1 169 0
 532 0010 0023     		movs	r3, #0
 533 0012 FB76     		strb	r3, [r7, #27]
 534 0014 36E0     		b	.L28
 535              	.L33:
 170:.\DispenserBLL.c ****     {
 171:.\DispenserBLL.c ****         if(_g_pumps[index]._roundrobinstate == _PUMP_RR_ACTIVE_)
 536              		.loc 1 171 0
 537 0016 FB7E     		ldrb	r3, [r7, #27]	@ zero_extendqisi2
 538 0018 444A     		ldr	r2, .L39
 539 001a 4FF41C61 		mov	r1, #2496
 540 001e 01FB03F3 		mul	r3, r1, r3
 541 0022 1344     		add	r3, r3, r2
 542 0024 0833     		adds	r3, r3, #8
 543 0026 9B78     		ldrb	r3, [r3, #2]
 544 0028 DBB2     		uxtb	r3, r3
 545 002a 012B     		cmp	r3, #1
 546 002c 27D1     		bne	.L29
 172:.\DispenserBLL.c ****         {
 173:.\DispenserBLL.c ****             ppump = &_g_pumps[index];
 547              		.loc 1 173 0
 548 002e FB7E     		ldrb	r3, [r7, #27]	@ zero_extendqisi2
 549 0030 4FF41C62 		mov	r2, #2496
 550 0034 02FB03F3 		mul	r3, r2, r3
 551 0038 3C4A     		ldr	r2, .L39
 552 003a 1344     		add	r3, r3, r2
 553 003c FB61     		str	r3, [r7, #28]
 174:.\DispenserBLL.c ****             _g_pumps[index]._roundrobinstate = _PUMP_RR_INACTIVE_;
 554              		.loc 1 174 0
 555 003e FB7E     		ldrb	r3, [r7, #27]	@ zero_extendqisi2
 556 0040 3A4A     		ldr	r2, .L39
 557 0042 4FF41C61 		mov	r1, #2496
 558 0046 01FB03F3 		mul	r3, r1, r3
 559 004a 1344     		add	r3, r3, r2
 560 004c 0833     		adds	r3, r3, #8
 561 004e 0222     		movs	r2, #2
 562 0050 9A70     		strb	r2, [r3, #2]
 175:.\DispenserBLL.c ****             if((index + 1) >= _g_dispenserlayoutinfo._numpositions)
ARM GAS  C:\Users\RECEPC~1\AppData\Local\Temp\ccxS8OWg.s 			page 14


 563              		.loc 1 175 0
 564 0052 FB7E     		ldrb	r3, [r7, #27]	@ zero_extendqisi2
 565 0054 0133     		adds	r3, r3, #1
 566 0056 364A     		ldr	r2, .L39+4
 567 0058 9278     		ldrb	r2, [r2, #2]	@ zero_extendqisi2
 568 005a 9342     		cmp	r3, r2
 569 005c 03DB     		blt	.L30
 176:.\DispenserBLL.c ****                 _g_pumps[0x00]._roundrobinstate = _PUMP_RR_ACTIVE_;
 570              		.loc 1 176 0
 571 005e 334B     		ldr	r3, .L39
 572 0060 0122     		movs	r2, #1
 573 0062 9A72     		strb	r2, [r3, #10]
 177:.\DispenserBLL.c ****             else
 178:.\DispenserBLL.c ****                 _g_pumps[(index + 1)]._roundrobinstate = _PUMP_RR_ACTIVE_;
 179:.\DispenserBLL.c ****             
 180:.\DispenserBLL.c ****             break;
 574              		.loc 1 180 0
 575 0064 13E0     		b	.L32
 576              	.L30:
 178:.\DispenserBLL.c ****             
 577              		.loc 1 178 0
 578 0066 FB7E     		ldrb	r3, [r7, #27]	@ zero_extendqisi2
 579 0068 0133     		adds	r3, r3, #1
 580 006a 304A     		ldr	r2, .L39
 581 006c 4FF41C61 		mov	r1, #2496
 582 0070 01FB03F3 		mul	r3, r1, r3
 583 0074 1344     		add	r3, r3, r2
 584 0076 0833     		adds	r3, r3, #8
 585 0078 0122     		movs	r2, #1
 586 007a 9A70     		strb	r2, [r3, #2]
 587              		.loc 1 180 0
 588 007c 07E0     		b	.L32
 589              	.L29:
 169:.\DispenserBLL.c ****     {
 590              		.loc 1 169 0 discriminator 2
 591 007e FB7E     		ldrb	r3, [r7, #27]	@ zero_extendqisi2
 592 0080 0133     		adds	r3, r3, #1
 593 0082 FB76     		strb	r3, [r7, #27]
 594              	.L28:
 169:.\DispenserBLL.c ****     {
 595              		.loc 1 169 0 is_stmt 0 discriminator 1
 596 0084 2A4B     		ldr	r3, .L39+4
 597 0086 9B78     		ldrb	r3, [r3, #2]	@ zero_extendqisi2
 598 0088 FA7E     		ldrb	r2, [r7, #27]	@ zero_extendqisi2
 599 008a 9A42     		cmp	r2, r3
 600 008c C3D3     		bcc	.L33
 601              	.L32:
 181:.\DispenserBLL.c ****         }
 182:.\DispenserBLL.c ****     }
 183:.\DispenserBLL.c **** 
 184:.\DispenserBLL.c ****     if(ppump)
 602              		.loc 1 184 0 is_stmt 1
 603 008e FB69     		ldr	r3, [r7, #28]
 604 0090 002B     		cmp	r3, #0
 605 0092 48D0     		beq	.L27
 606              	.LBB8:
 185:.\DispenserBLL.c ****     {
ARM GAS  C:\Users\RECEPC~1\AppData\Local\Temp\ccxS8OWg.s 			page 15


 186:.\DispenserBLL.c ****         ppump->_acquiringstate = true;
 607              		.loc 1 186 0
 608 0094 FB69     		ldr	r3, [r7, #28]
 609 0096 0122     		movs	r2, #1
 610 0098 5A71     		strb	r2, [r3, #5]
 187:.\DispenserBLL.c ****         ppump->_pcurrtransaction = GetTransactionByName(_PUMP_STATE_);
 611              		.loc 1 187 0
 612 009a 4820     		movs	r0, #72
 613 009c FFF7FEFF 		bl	GetTransactionByName
 614 00a0 0246     		mov	r2, r0
 615 00a2 FB69     		ldr	r3, [r7, #28]
 616 00a4 DA61     		str	r2, [r3, #28]
 188:.\DispenserBLL.c ****         PumpTransactionJob *ptrjob = &((PumpTransaction*)ppump->_pcurrtransaction)->_jobs[0];
 617              		.loc 1 188 0
 618 00a6 FB69     		ldr	r3, [r7, #28]
 619 00a8 DB69     		ldr	r3, [r3, #28]
 620 00aa 0433     		adds	r3, r3, #4
 621 00ac 7B61     		str	r3, [r7, #20]
 189:.\DispenserBLL.c ****         if(ptrjob)
 622              		.loc 1 189 0
 623 00ae 7B69     		ldr	r3, [r7, #20]
 624 00b0 002B     		cmp	r3, #0
 625 00b2 32D0     		beq	.L35
 190:.\DispenserBLL.c ****         {
 191:.\DispenserBLL.c ****             while(ptrjob->Request != NULL)
 626              		.loc 1 191 0
 627 00b4 2DE0     		b	.L36
 628              	.L38:
 629              	.LBB9:
 192:.\DispenserBLL.c ****             {
 193:.\DispenserBLL.c ****                 PPUMPTRANSACTIONJOBCONTEXTPTR pjobcntr = _g_pumpjobqueue.Allocate(&_g_pumpjobqueue)
 630              		.loc 1 193 0
 631 00b6 1F4B     		ldr	r3, .L39+8
 632 00b8 D3F84838 		ldr	r3, [r3, #2120]
 633 00bc 1D48     		ldr	r0, .L39+8
 634 00be 9847     		blx	r3
 635 00c0 F860     		str	r0, [r7, #12]
 194:.\DispenserBLL.c ****                 if(pjobcntr)
 636              		.loc 1 194 0
 637 00c2 FB68     		ldr	r3, [r7, #12]
 638 00c4 002B     		cmp	r3, #0
 639 00c6 21D0     		beq	.L37
 195:.\DispenserBLL.c ****                 {
 196:.\DispenserBLL.c ****                     pjobcntr->_reenqueue = false;
 640              		.loc 1 196 0
 641 00c8 FB68     		ldr	r3, [r7, #12]
 642 00ca 0022     		movs	r2, #0
 643 00cc 1A70     		strb	r2, [r3]
 197:.\DispenserBLL.c ****                     pjobcntr->_prequest = ptrjob;
 644              		.loc 1 197 0
 645 00ce FB68     		ldr	r3, [r7, #12]
 646 00d0 7A69     		ldr	r2, [r7, #20]
 647 00d2 5A61     		str	r2, [r3, #20]
 198:.\DispenserBLL.c ****                     pjobcntr->_presponse = NULL;
 648              		.loc 1 198 0
 649 00d4 FB68     		ldr	r3, [r7, #12]
 650 00d6 0022     		movs	r2, #0
ARM GAS  C:\Users\RECEPC~1\AppData\Local\Temp\ccxS8OWg.s 			page 16


 651 00d8 9A61     		str	r2, [r3, #24]
 199:.\DispenserBLL.c ****                     pjobcntr->_ppump = ppump;
 652              		.loc 1 199 0
 653 00da FB68     		ldr	r3, [r7, #12]
 654 00dc FA69     		ldr	r2, [r7, #28]
 655 00de DA61     		str	r2, [r3, #28]
 200:.\DispenserBLL.c ****                     pjobcntr->_ppump->CleanUp(pjobcntr->_ppump);
 656              		.loc 1 200 0
 657 00e0 FB68     		ldr	r3, [r7, #12]
 658 00e2 DB69     		ldr	r3, [r3, #28]
 659 00e4 D3F8B839 		ldr	r3, [r3, #2488]
 660 00e8 FA68     		ldr	r2, [r7, #12]
 661 00ea D269     		ldr	r2, [r2, #28]
 662 00ec 1046     		mov	r0, r2
 663 00ee 9847     		blx	r3
 201:.\DispenserBLL.c ****                     //This callback will be invoked upon response (if exists)
 202:.\DispenserBLL.c ****                     pjobcntr->Callback = pmsg->Callback;
 664              		.loc 1 202 0
 665 00f0 3B69     		ldr	r3, [r7, #16]
 666 00f2 D3F89421 		ldr	r2, [r3, #404]
 667 00f6 FB68     		ldr	r3, [r7, #12]
 668 00f8 1A62     		str	r2, [r3, #32]
 203:.\DispenserBLL.c ****                     pjobcntr->_pdata = pmsg;
 669              		.loc 1 203 0
 670 00fa FB68     		ldr	r3, [r7, #12]
 671 00fc 3A69     		ldr	r2, [r7, #16]
 672 00fe 5A62     		str	r2, [r3, #36]
 204:.\DispenserBLL.c ****                     
 205:.\DispenserBLL.c ****                     _g_pumpjobqueue.Enqueue(&_g_pumpjobqueue, pjobcntr);
 673              		.loc 1 205 0
 674 0100 0C4B     		ldr	r3, .L39+8
 675 0102 D3F84C38 		ldr	r3, [r3, #2124]
 676 0106 0B48     		ldr	r0, .L39+8
 677 0108 F968     		ldr	r1, [r7, #12]
 678 010a 9847     		blx	r3
 679              	.L37:
 206:.\DispenserBLL.c ****                 }
 207:.\DispenserBLL.c ****                 ptrjob++;
 680              		.loc 1 207 0
 681 010c 7B69     		ldr	r3, [r7, #20]
 682 010e 3433     		adds	r3, r3, #52
 683 0110 7B61     		str	r3, [r7, #20]
 684              	.L36:
 685              	.LBE9:
 191:.\DispenserBLL.c ****             {
 686              		.loc 1 191 0
 687 0112 7B69     		ldr	r3, [r7, #20]
 688 0114 1B68     		ldr	r3, [r3]
 689 0116 002B     		cmp	r3, #0
 690 0118 CDD1     		bne	.L38
 691              	.L35:
 208:.\DispenserBLL.c ****             }
 209:.\DispenserBLL.c ****         }
 210:.\DispenserBLL.c ****         //Pump Unlock by pushing the pump/position out from the EOT condition
 211:.\DispenserBLL.c ****         DispenserUnlockPumpsOnEOT(ppump);
 692              		.loc 1 211 0
 693 011a F869     		ldr	r0, [r7, #28]
ARM GAS  C:\Users\RECEPC~1\AppData\Local\Temp\ccxS8OWg.s 			page 17


 694 011c FFF7FEFF 		bl	DispenserUnlockPumpsOnEOT
 212:.\DispenserBLL.c ****         //Conditional price restoration after a credit sale
 213:.\DispenserBLL.c ****         DispenserRestorePrices(ppump);
 695              		.loc 1 213 0
 696 0120 F869     		ldr	r0, [r7, #28]
 697 0122 FFF7FEFF 		bl	DispenserRestorePrices
 698              	.L27:
 699              	.LBE8:
 214:.\DispenserBLL.c ****     }
 215:.\DispenserBLL.c **** }
 700              		.loc 1 215 0
 701 0126 2037     		adds	r7, r7, #32
 702              		.cfi_def_cfa_offset 8
 703 0128 BD46     		mov	sp, r7
 704              		.cfi_def_cfa_register 13
 705              		@ sp needed
 706 012a 80BD     		pop	{r7, pc}
 707              	.L40:
 708              		.align	2
 709              	.L39:
 710 012c 00000000 		.word	_g_pumps
 711 0130 00000000 		.word	_g_dispenserlayoutinfo
 712 0134 00000000 		.word	_g_pumpjobqueue
 713              		.cfi_endproc
 714              	.LFE2:
 715              		.size	DispenserUpdatePumpState, .-DispenserUpdatePumpState
 716              		.section	.text.DispenserUnlockPumpsOnEOT,"ax",%progbits
 717              		.align	2
 718              		.global	DispenserUnlockPumpsOnEOT
 719              		.thumb
 720              		.thumb_func
 721              		.type	DispenserUnlockPumpsOnEOT, %function
 722              	DispenserUnlockPumpsOnEOT:
 723              	.LFB3:
 216:.\DispenserBLL.c **** 
 217:.\DispenserBLL.c **** //@Created By: HIJH
 218:.\DispenserBLL.c **** //@Date: Septembre de 2016
 219:.\DispenserBLL.c **** //Unlocks pumps on EOT condition
 220:.\DispenserBLL.c **** void DispenserUnlockPumpsOnEOT(LPVOID pparam)
 221:.\DispenserBLL.c **** {
 724              		.loc 1 221 0
 725              		.cfi_startproc
 726              		@ args = 0, pretend = 0, frame = 24
 727              		@ frame_needed = 1, uses_anonymous_args = 0
 728 0000 80B5     		push	{r7, lr}
 729              		.cfi_def_cfa_offset 8
 730              		.cfi_offset 7, -8
 731              		.cfi_offset 14, -4
 732 0002 86B0     		sub	sp, sp, #24
 733              		.cfi_def_cfa_offset 32
 734 0004 00AF     		add	r7, sp, #0
 735              		.cfi_def_cfa_register 7
 736 0006 7860     		str	r0, [r7, #4]
 222:.\DispenserBLL.c ****     PNEAR_PUMPPTR ppump = (PNEAR_PUMPPTR)pparam;
 737              		.loc 1 222 0
 738 0008 7B68     		ldr	r3, [r7, #4]
 739 000a 3B61     		str	r3, [r7, #16]
ARM GAS  C:\Users\RECEPC~1\AppData\Local\Temp\ccxS8OWg.s 			page 18


 223:.\DispenserBLL.c ****     //The PUMP must be locked by EOT and without any current transaction
 224:.\DispenserBLL.c ****     if(((ppump->_pumpstate == PUMP_FEOT) || (ppump->_pumpstate == PUMP_PEOT)) && ppump->_authorized
 740              		.loc 1 224 0
 741 000c 3B69     		ldr	r3, [r7, #16]
 742 000e 9B78     		ldrb	r3, [r3, #2]
 743 0010 DBB2     		uxtb	r3, r3
 744 0012 0B2B     		cmp	r3, #11
 745 0014 04D0     		beq	.L42
 746              		.loc 1 224 0 is_stmt 0 discriminator 2
 747 0016 3B69     		ldr	r3, [r7, #16]
 748 0018 9B78     		ldrb	r3, [r3, #2]
 749 001a DBB2     		uxtb	r3, r3
 750 001c 0A2B     		cmp	r3, #10
 751 001e 54D1     		bne	.L41
 752              	.L42:
 753              		.loc 1 224 0 discriminator 3
 754 0020 3B69     		ldr	r3, [r7, #16]
 755 0022 9B79     		ldrb	r3, [r3, #6]
 756 0024 DBB2     		uxtb	r3, r3
 757 0026 002B     		cmp	r3, #0
 758 0028 4FD0     		beq	.L41
 759              	.LBB10:
 225:.\DispenserBLL.c ****     {
 226:.\DispenserBLL.c ****         ppump->_pcurrtransaction = GetTransactionByName(_PUMP_EOT_);
 760              		.loc 1 226 0 is_stmt 1
 761 002a 4920     		movs	r0, #73
 762 002c FFF7FEFF 		bl	GetTransactionByName
 763 0030 0246     		mov	r2, r0
 764 0032 3B69     		ldr	r3, [r7, #16]
 765 0034 DA61     		str	r2, [r3, #28]
 227:.\DispenserBLL.c ****         PumpTransactionJob *ptrjob = &((PumpTransaction*)ppump->_pcurrtransaction)->_jobs[0];
 766              		.loc 1 227 0
 767 0036 3B69     		ldr	r3, [r7, #16]
 768 0038 DB69     		ldr	r3, [r3, #28]
 769 003a 0433     		adds	r3, r3, #4
 770 003c 7B61     		str	r3, [r7, #20]
 228:.\DispenserBLL.c ****         if(ptrjob)
 771              		.loc 1 228 0
 772 003e 7B69     		ldr	r3, [r7, #20]
 773 0040 002B     		cmp	r3, #0
 774 0042 2AD0     		beq	.L44
 229:.\DispenserBLL.c ****         {
 230:.\DispenserBLL.c ****             while(ptrjob->Request != NULL)
 775              		.loc 1 230 0
 776 0044 25E0     		b	.L45
 777              	.L47:
 778              	.LBB11:
 231:.\DispenserBLL.c ****             {
 232:.\DispenserBLL.c ****                 PPUMPTRANSACTIONJOBCONTEXTPTR pjobcntr = _g_pumpjobqueue.Allocate(&_g_pumpjobqueue)
 779              		.loc 1 232 0
 780 0046 224B     		ldr	r3, .L48
 781 0048 D3F84838 		ldr	r3, [r3, #2120]
 782 004c 2048     		ldr	r0, .L48
 783 004e 9847     		blx	r3
 784 0050 F860     		str	r0, [r7, #12]
 233:.\DispenserBLL.c ****                 if(pjobcntr)
 785              		.loc 1 233 0
ARM GAS  C:\Users\RECEPC~1\AppData\Local\Temp\ccxS8OWg.s 			page 19


 786 0052 FB68     		ldr	r3, [r7, #12]
 787 0054 002B     		cmp	r3, #0
 788 0056 19D0     		beq	.L46
 234:.\DispenserBLL.c ****                 {
 235:.\DispenserBLL.c ****                     pjobcntr->_reenqueue = false;
 789              		.loc 1 235 0
 790 0058 FB68     		ldr	r3, [r7, #12]
 791 005a 0022     		movs	r2, #0
 792 005c 1A70     		strb	r2, [r3]
 236:.\DispenserBLL.c ****                     pjobcntr->_prequest = ptrjob;
 793              		.loc 1 236 0
 794 005e FB68     		ldr	r3, [r7, #12]
 795 0060 7A69     		ldr	r2, [r7, #20]
 796 0062 5A61     		str	r2, [r3, #20]
 237:.\DispenserBLL.c ****                     pjobcntr->_presponse = NULL;
 797              		.loc 1 237 0
 798 0064 FB68     		ldr	r3, [r7, #12]
 799 0066 0022     		movs	r2, #0
 800 0068 9A61     		str	r2, [r3, #24]
 238:.\DispenserBLL.c ****                     pjobcntr->_ppump = ppump;
 801              		.loc 1 238 0
 802 006a FB68     		ldr	r3, [r7, #12]
 803 006c 3A69     		ldr	r2, [r7, #16]
 804 006e DA61     		str	r2, [r3, #28]
 239:.\DispenserBLL.c ****                     pjobcntr->_ppump->CleanUp(pjobcntr->_ppump);
 805              		.loc 1 239 0
 806 0070 FB68     		ldr	r3, [r7, #12]
 807 0072 DB69     		ldr	r3, [r3, #28]
 808 0074 D3F8B839 		ldr	r3, [r3, #2488]
 809 0078 FA68     		ldr	r2, [r7, #12]
 810 007a D269     		ldr	r2, [r2, #28]
 811 007c 1046     		mov	r0, r2
 812 007e 9847     		blx	r3
 240:.\DispenserBLL.c ****                     //This callback will be invoked upon response (if exists)
 241:.\DispenserBLL.c ****                     //pjobcntr->Callback = pmsg->Callback;
 242:.\DispenserBLL.c ****                     //pjobcntr->_pdata = pmsg;
 243:.\DispenserBLL.c ****                     
 244:.\DispenserBLL.c ****                     _g_pumpjobqueue.Enqueue(&_g_pumpjobqueue, pjobcntr);
 813              		.loc 1 244 0
 814 0080 134B     		ldr	r3, .L48
 815 0082 D3F84C38 		ldr	r3, [r3, #2124]
 816 0086 1248     		ldr	r0, .L48
 817 0088 F968     		ldr	r1, [r7, #12]
 818 008a 9847     		blx	r3
 819              	.L46:
 245:.\DispenserBLL.c ****                 }
 246:.\DispenserBLL.c ****                 ptrjob++;
 820              		.loc 1 246 0
 821 008c 7B69     		ldr	r3, [r7, #20]
 822 008e 3433     		adds	r3, r3, #52
 823 0090 7B61     		str	r3, [r7, #20]
 824              	.L45:
 825              	.LBE11:
 230:.\DispenserBLL.c ****             {
 826              		.loc 1 230 0
 827 0092 7B69     		ldr	r3, [r7, #20]
 828 0094 1B68     		ldr	r3, [r3]
ARM GAS  C:\Users\RECEPC~1\AppData\Local\Temp\ccxS8OWg.s 			page 20


 829 0096 002B     		cmp	r3, #0
 830 0098 D5D1     		bne	.L47
 831              	.L44:
 247:.\DispenserBLL.c ****             }
 248:.\DispenserBLL.c ****         }
 249:.\DispenserBLL.c ****         PSINKMESSAGEPTR psinkmsg = AllocateMessageSlot(DISPENSER_ACQUIRE_TOTALS);
 832              		.loc 1 249 0
 833 009a 1220     		movs	r0, #18
 834 009c FFF7FEFF 		bl	AllocateMessageSlot
 835 00a0 B860     		str	r0, [r7, #8]
 250:.\DispenserBLL.c ****         psinkmsg->_messageid = DISPENSER_ACQUIRE_TOTALS;
 836              		.loc 1 250 0
 837 00a2 BB68     		ldr	r3, [r7, #8]
 838 00a4 1222     		movs	r2, #18
 839 00a6 5A70     		strb	r2, [r3, #1]
 251:.\DispenserBLL.c ****         psinkmsg->_messagetype = FIRSTFOUND;
 840              		.loc 1 251 0
 841 00a8 BB68     		ldr	r3, [r7, #8]
 842 00aa 0322     		movs	r2, #3
 843 00ac 9A70     		strb	r2, [r3, #2]
 252:.\DispenserBLL.c ****         memcpy(psinkmsg->_buffer, (const void*)NULL, 0x00);
 253:.\DispenserBLL.c ****         psinkmsg->_buffer[0x00] = ppump->_pumpid;
 844              		.loc 1 253 0
 845 00ae 3B69     		ldr	r3, [r7, #16]
 846 00b0 1A78     		ldrb	r2, [r3]	@ zero_extendqisi2
 847 00b2 BB68     		ldr	r3, [r7, #8]
 848 00b4 1A73     		strb	r2, [r3, #12]
 254:.\DispenserBLL.c ****         psinkmsg->_buffersize = 0x01;
 849              		.loc 1 254 0
 850 00b6 BB68     		ldr	r3, [r7, #8]
 851 00b8 0122     		movs	r2, #1
 852 00ba A3F88C21 		strh	r2, [r3, #396]	@ movhi
 255:.\DispenserBLL.c ****         
 256:.\DispenserBLL.c ****         psinkmsg->_messagestate = SINK_BUSY;
 853              		.loc 1 256 0
 854 00be BB68     		ldr	r3, [r7, #8]
 855 00c0 0322     		movs	r2, #3
 856 00c2 DA70     		strb	r2, [r3, #3]
 257:.\DispenserBLL.c ****         
 258:.\DispenserBLL.c ****         ppump->_authorized = false;
 857              		.loc 1 258 0
 858 00c4 3B69     		ldr	r3, [r7, #16]
 859 00c6 0022     		movs	r2, #0
 860 00c8 9A71     		strb	r2, [r3, #6]
 861              	.L41:
 862              	.LBE10:
 259:.\DispenserBLL.c ****     }
 260:.\DispenserBLL.c **** }
 863              		.loc 1 260 0
 864 00ca 1837     		adds	r7, r7, #24
 865              		.cfi_def_cfa_offset 8
 866 00cc BD46     		mov	sp, r7
 867              		.cfi_def_cfa_register 13
 868              		@ sp needed
 869 00ce 80BD     		pop	{r7, pc}
 870              	.L49:
 871              		.align	2
ARM GAS  C:\Users\RECEPC~1\AppData\Local\Temp\ccxS8OWg.s 			page 21


 872              	.L48:
 873 00d0 00000000 		.word	_g_pumpjobqueue
 874              		.cfi_endproc
 875              	.LFE3:
 876              		.size	DispenserUnlockPumpsOnEOT, .-DispenserUnlockPumpsOnEOT
 877              		.section	.text.DispenserRestorePrices,"ax",%progbits
 878              		.align	2
 879              		.global	DispenserRestorePrices
 880              		.thumb
 881              		.thumb_func
 882              		.type	DispenserRestorePrices, %function
 883              	DispenserRestorePrices:
 884              	.LFB4:
 261:.\DispenserBLL.c **** 
 262:.\DispenserBLL.c **** void DispenserRestorePrices(LPVOID pparam)
 263:.\DispenserBLL.c **** {
 885              		.loc 1 263 0
 886              		.cfi_startproc
 887              		@ args = 0, pretend = 0, frame = 24
 888              		@ frame_needed = 1, uses_anonymous_args = 0
 889 0000 80B5     		push	{r7, lr}
 890              		.cfi_def_cfa_offset 8
 891              		.cfi_offset 7, -8
 892              		.cfi_offset 14, -4
 893 0002 86B0     		sub	sp, sp, #24
 894              		.cfi_def_cfa_offset 32
 895 0004 00AF     		add	r7, sp, #0
 896              		.cfi_def_cfa_register 7
 897 0006 7860     		str	r0, [r7, #4]
 264:.\DispenserBLL.c ****     PNEAR_PUMPPTR ppump = (PNEAR_PUMPPTR)pparam;
 898              		.loc 1 264 0
 899 0008 7B68     		ldr	r3, [r7, #4]
 900 000a 3B61     		str	r3, [r7, #16]
 265:.\DispenserBLL.c ****     //The PUMP must be locked by EOT and without any current transaction
 266:.\DispenserBLL.c ****     if((ppump->_pumpstate == PUMP_IDLE || ppump->_pumpstate == PUMP_CALLING) && ppump->_restorepric
 901              		.loc 1 266 0
 902 000c 3B69     		ldr	r3, [r7, #16]
 903 000e 9B78     		ldrb	r3, [r3, #2]
 904 0010 DBB2     		uxtb	r3, r3
 905 0012 062B     		cmp	r3, #6
 906 0014 04D0     		beq	.L51
 907              		.loc 1 266 0 is_stmt 0 discriminator 2
 908 0016 3B69     		ldr	r3, [r7, #16]
 909 0018 9B78     		ldrb	r3, [r3, #2]
 910 001a DBB2     		uxtb	r3, r3
 911 001c 072B     		cmp	r3, #7
 912 001e 3CD1     		bne	.L50
 913              	.L51:
 914              		.loc 1 266 0 discriminator 3
 915 0020 3B69     		ldr	r3, [r7, #16]
 916 0022 DB79     		ldrb	r3, [r3, #7]
 917 0024 DBB2     		uxtb	r3, r3
 918 0026 002B     		cmp	r3, #0
 919 0028 37D0     		beq	.L50
 920              	.LBB12:
 267:.\DispenserBLL.c ****     {
 268:.\DispenserBLL.c ****         ppump->_pcurrtransaction = GetTransactionByName(_PUMP_RESTORE_PRICE_);
ARM GAS  C:\Users\RECEPC~1\AppData\Local\Temp\ccxS8OWg.s 			page 22


 921              		.loc 1 268 0 is_stmt 1
 922 002a 4620     		movs	r0, #70
 923 002c FFF7FEFF 		bl	GetTransactionByName
 924 0030 0246     		mov	r2, r0
 925 0032 3B69     		ldr	r3, [r7, #16]
 926 0034 DA61     		str	r2, [r3, #28]
 269:.\DispenserBLL.c ****         PumpTransactionJob *ptrjob = &((PumpTransaction*)ppump->_pcurrtransaction)->_jobs[0];
 927              		.loc 1 269 0
 928 0036 3B69     		ldr	r3, [r7, #16]
 929 0038 DB69     		ldr	r3, [r3, #28]
 930 003a 0433     		adds	r3, r3, #4
 931 003c 7B61     		str	r3, [r7, #20]
 270:.\DispenserBLL.c ****         if(ptrjob)
 932              		.loc 1 270 0
 933 003e 7B69     		ldr	r3, [r7, #20]
 934 0040 002B     		cmp	r3, #0
 935 0042 2AD0     		beq	.L50
 271:.\DispenserBLL.c ****         {
 272:.\DispenserBLL.c ****             while(ptrjob->Request != NULL)
 936              		.loc 1 272 0
 937 0044 25E0     		b	.L53
 938              	.L55:
 939              	.LBB13:
 273:.\DispenserBLL.c ****             {
 274:.\DispenserBLL.c ****                 PPUMPTRANSACTIONJOBCONTEXTPTR pjobcntr = _g_pumpjobqueue.Allocate(&_g_pumpjobqueue)
 940              		.loc 1 274 0
 941 0046 164B     		ldr	r3, .L56
 942 0048 D3F84838 		ldr	r3, [r3, #2120]
 943 004c 1448     		ldr	r0, .L56
 944 004e 9847     		blx	r3
 945 0050 F860     		str	r0, [r7, #12]
 275:.\DispenserBLL.c ****                 if(pjobcntr)
 946              		.loc 1 275 0
 947 0052 FB68     		ldr	r3, [r7, #12]
 948 0054 002B     		cmp	r3, #0
 949 0056 19D0     		beq	.L54
 276:.\DispenserBLL.c ****                 {
 277:.\DispenserBLL.c ****                     pjobcntr->_reenqueue = false;
 950              		.loc 1 277 0
 951 0058 FB68     		ldr	r3, [r7, #12]
 952 005a 0022     		movs	r2, #0
 953 005c 1A70     		strb	r2, [r3]
 278:.\DispenserBLL.c ****                     pjobcntr->_prequest = ptrjob;
 954              		.loc 1 278 0
 955 005e FB68     		ldr	r3, [r7, #12]
 956 0060 7A69     		ldr	r2, [r7, #20]
 957 0062 5A61     		str	r2, [r3, #20]
 279:.\DispenserBLL.c ****                     pjobcntr->_presponse = NULL;
 958              		.loc 1 279 0
 959 0064 FB68     		ldr	r3, [r7, #12]
 960 0066 0022     		movs	r2, #0
 961 0068 9A61     		str	r2, [r3, #24]
 280:.\DispenserBLL.c ****                     pjobcntr->_ppump = ppump;
 962              		.loc 1 280 0
 963 006a FB68     		ldr	r3, [r7, #12]
 964 006c 3A69     		ldr	r2, [r7, #16]
 965 006e DA61     		str	r2, [r3, #28]
ARM GAS  C:\Users\RECEPC~1\AppData\Local\Temp\ccxS8OWg.s 			page 23


 281:.\DispenserBLL.c ****                     pjobcntr->_ppump->CleanUp(pjobcntr->_ppump);
 966              		.loc 1 281 0
 967 0070 FB68     		ldr	r3, [r7, #12]
 968 0072 DB69     		ldr	r3, [r3, #28]
 969 0074 D3F8B839 		ldr	r3, [r3, #2488]
 970 0078 FA68     		ldr	r2, [r7, #12]
 971 007a D269     		ldr	r2, [r2, #28]
 972 007c 1046     		mov	r0, r2
 973 007e 9847     		blx	r3
 282:.\DispenserBLL.c ****                     //This callback will be invoked upon response (if exists)
 283:.\DispenserBLL.c ****                     //pjobcntr->Callback = pmsg->Callback;
 284:.\DispenserBLL.c ****                     //pjobcntr->_pdata = pmsg;
 285:.\DispenserBLL.c ****                     
 286:.\DispenserBLL.c ****                     _g_pumpjobqueue.Enqueue(&_g_pumpjobqueue, pjobcntr);
 974              		.loc 1 286 0
 975 0080 074B     		ldr	r3, .L56
 976 0082 D3F84C38 		ldr	r3, [r3, #2124]
 977 0086 0648     		ldr	r0, .L56
 978 0088 F968     		ldr	r1, [r7, #12]
 979 008a 9847     		blx	r3
 980              	.L54:
 287:.\DispenserBLL.c ****                 }
 288:.\DispenserBLL.c ****                 ptrjob++;
 981              		.loc 1 288 0
 982 008c 7B69     		ldr	r3, [r7, #20]
 983 008e 3433     		adds	r3, r3, #52
 984 0090 7B61     		str	r3, [r7, #20]
 985              	.L53:
 986              	.LBE13:
 272:.\DispenserBLL.c ****             {
 987              		.loc 1 272 0
 988 0092 7B69     		ldr	r3, [r7, #20]
 989 0094 1B68     		ldr	r3, [r3]
 990 0096 002B     		cmp	r3, #0
 991 0098 D5D1     		bne	.L55
 992              	.L50:
 993              	.LBE12:
 289:.\DispenserBLL.c ****             }
 290:.\DispenserBLL.c ****         }
 291:.\DispenserBLL.c ****     }
 292:.\DispenserBLL.c **** }
 994              		.loc 1 292 0
 995 009a 1837     		adds	r7, r7, #24
 996              		.cfi_def_cfa_offset 8
 997 009c BD46     		mov	sp, r7
 998              		.cfi_def_cfa_register 13
 999              		@ sp needed
 1000 009e 80BD     		pop	{r7, pc}
 1001              	.L57:
 1002              		.align	2
 1003              	.L56:
 1004 00a0 00000000 		.word	_g_pumpjobqueue
 1005              		.cfi_endproc
 1006              	.LFE4:
 1007              		.size	DispenserRestorePrices, .-DispenserRestorePrices
 1008              		.section	.text.DispenserAcquireConfiguration,"ax",%progbits
 1009              		.align	2
ARM GAS  C:\Users\RECEPC~1\AppData\Local\Temp\ccxS8OWg.s 			page 24


 1010              		.global	DispenserAcquireConfiguration
 1011              		.thumb
 1012              		.thumb_func
 1013              		.type	DispenserAcquireConfiguration, %function
 1014              	DispenserAcquireConfiguration:
 1015              	.LFB5:
 293:.\DispenserBLL.c **** 
 294:.\DispenserBLL.c **** //@Created by: HIJH
 295:.\DispenserBLL.c **** //@Septembre de 2016
 296:.\DispenserBLL.c **** //Acquires the dispenser configuration information per pump, through the Special Function commands
 297:.\DispenserBLL.c **** void DispenserAcquireConfiguration(LPVOID pparam)
 298:.\DispenserBLL.c **** {
 1016              		.loc 1 298 0
 1017              		.cfi_startproc
 1018              		@ args = 0, pretend = 0, frame = 32
 1019              		@ frame_needed = 1, uses_anonymous_args = 0
 1020 0000 80B5     		push	{r7, lr}
 1021              		.cfi_def_cfa_offset 8
 1022              		.cfi_offset 7, -8
 1023              		.cfi_offset 14, -4
 1024 0002 88B0     		sub	sp, sp, #32
 1025              		.cfi_def_cfa_offset 40
 1026 0004 00AF     		add	r7, sp, #0
 1027              		.cfi_def_cfa_register 7
 1028 0006 7860     		str	r0, [r7, #4]
 299:.\DispenserBLL.c ****     PSINKMESSAGEPTR pmsg = (PSINKMESSAGEPTR)pparam;
 1029              		.loc 1 299 0
 1030 0008 7B68     		ldr	r3, [r7, #4]
 1031 000a BB61     		str	r3, [r7, #24]
 300:.\DispenserBLL.c ****     
 301:.\DispenserBLL.c ****     //Invoke the Dispenser's transactional model to acquire the configuration information
 302:.\DispenserBLL.c ****     //and then store it in the File System
 303:.\DispenserBLL.c ****     if(_g_dispenserlayoutinfo._numpositions == 0x00)
 1032              		.loc 1 303 0
 1033 000c 3A4B     		ldr	r3, .L68
 1034 000e 9B78     		ldrb	r3, [r3, #2]	@ zero_extendqisi2
 1035 0010 002B     		cmp	r3, #0
 1036 0012 02D1     		bne	.L59
 304:.\DispenserBLL.c ****         _g_dispenserlayoutinfo._currentloopopen = true;
 1037              		.loc 1 304 0
 1038 0014 384B     		ldr	r3, .L68
 1039 0016 0122     		movs	r2, #1
 1040 0018 5A70     		strb	r2, [r3, #1]
 1041              	.L59:
 305:.\DispenserBLL.c **** 
 306:.\DispenserBLL.c ****     FOR(uint8 index = 0, index < _g_dispenserlayoutinfo._numpositions, index++)
 1042              		.loc 1 306 0
 1043 001a 0023     		movs	r3, #0
 1044 001c FB75     		strb	r3, [r7, #23]
 1045 001e 00BF     		nop
 1046 0020 354B     		ldr	r3, .L68
 1047 0022 9B78     		ldrb	r3, [r3, #2]	@ zero_extendqisi2
 1048 0024 FA7D     		ldrb	r2, [r7, #23]	@ zero_extendqisi2
 1049 0026 9A42     		cmp	r2, r3
 1050 0028 57D2     		bcs	.L65
 1051              	.LBB14:
 307:.\DispenserBLL.c ****     {
ARM GAS  C:\Users\RECEPC~1\AppData\Local\Temp\ccxS8OWg.s 			page 25


 308:.\DispenserBLL.c ****         Pump *ppump = &_g_pumps[index];
 1052              		.loc 1 308 0
 1053 002a FB7D     		ldrb	r3, [r7, #23]	@ zero_extendqisi2
 1054 002c 4FF41C62 		mov	r2, #2496
 1055 0030 02FB03F3 		mul	r3, r2, r3
 1056 0034 314A     		ldr	r2, .L68+4
 1057 0036 1344     		add	r3, r3, r2
 1058 0038 3B61     		str	r3, [r7, #16]
 309:.\DispenserBLL.c ****         //Pass the buffered data to the pump structure
 310:.\DispenserBLL.c ****         if(ppump)
 1059              		.loc 1 310 0
 1060 003a 3B69     		ldr	r3, [r7, #16]
 1061 003c 002B     		cmp	r3, #0
 1062 003e 4BD0     		beq	.L61
 1063              	.LBB15:
 311:.\DispenserBLL.c ****         {
 312:.\DispenserBLL.c ****             ppump->_authorized = true;
 1064              		.loc 1 312 0
 1065 0040 3B69     		ldr	r3, [r7, #16]
 1066 0042 0122     		movs	r2, #1
 1067 0044 9A71     		strb	r2, [r3, #6]
 313:.\DispenserBLL.c ****             DispenserUnlockPumpsOnEOT(ppump);
 1068              		.loc 1 313 0
 1069 0046 3869     		ldr	r0, [r7, #16]
 1070 0048 FFF7FEFF 		bl	DispenserUnlockPumpsOnEOT
 314:.\DispenserBLL.c ****             ppump->_authorized = false;
 1071              		.loc 1 314 0
 1072 004c 3B69     		ldr	r3, [r7, #16]
 1073 004e 0022     		movs	r2, #0
 1074 0050 9A71     		strb	r2, [r3, #6]
 315:.\DispenserBLL.c **** 
 316:.\DispenserBLL.c ****             memcpy(ppump->_trasactionbuffer, pmsg->_buffer, _MESSAGE_LENGTH_);
 1075              		.loc 1 316 0
 1076 0052 3B69     		ldr	r3, [r7, #16]
 1077 0054 03F12002 		add	r2, r3, #32
 1078 0058 BB69     		ldr	r3, [r7, #24]
 1079 005a 0C33     		adds	r3, r3, #12
 1080 005c 1046     		mov	r0, r2
 1081 005e 1946     		mov	r1, r3
 1082 0060 4FF4C072 		mov	r2, #384
 1083 0064 FFF7FEFF 		bl	memcpy
 317:.\DispenserBLL.c ****             ppump->_pcurrtransaction = GetTransactionByName(_PUMP_COMPLETE_CONFIGURATION_);
 1084              		.loc 1 317 0
 1085 0068 4D20     		movs	r0, #77
 1086 006a FFF7FEFF 		bl	GetTransactionByName
 1087 006e 0246     		mov	r2, r0
 1088 0070 3B69     		ldr	r3, [r7, #16]
 1089 0072 DA61     		str	r2, [r3, #28]
 318:.\DispenserBLL.c ****             
 319:.\DispenserBLL.c ****             PumpTransactionJob *ptrjob = &((PumpTransaction*)ppump->_pcurrtransaction)->_jobs[0];
 1090              		.loc 1 319 0
 1091 0074 3B69     		ldr	r3, [r7, #16]
 1092 0076 DB69     		ldr	r3, [r3, #28]
 1093 0078 0433     		adds	r3, r3, #4
 1094 007a FB61     		str	r3, [r7, #28]
 320:.\DispenserBLL.c ****             if(ptrjob)
 1095              		.loc 1 320 0
ARM GAS  C:\Users\RECEPC~1\AppData\Local\Temp\ccxS8OWg.s 			page 26


 1096 007c FB69     		ldr	r3, [r7, #28]
 1097 007e 002B     		cmp	r3, #0
 1098 0080 2AD0     		beq	.L61
 321:.\DispenserBLL.c ****             {
 322:.\DispenserBLL.c ****                 while(ptrjob->Request != NULL)
 1099              		.loc 1 322 0
 1100 0082 25E0     		b	.L62
 1101              	.L64:
 1102              	.LBB16:
 323:.\DispenserBLL.c ****                 {
 324:.\DispenserBLL.c ****                     PPUMPTRANSACTIONJOBCONTEXTPTR pjobcntr = _g_pumpjobqueue.Allocate(&_g_pumpjobqu
 1103              		.loc 1 324 0
 1104 0084 1E4B     		ldr	r3, .L68+8
 1105 0086 D3F84838 		ldr	r3, [r3, #2120]
 1106 008a 1D48     		ldr	r0, .L68+8
 1107 008c 9847     		blx	r3
 1108 008e F860     		str	r0, [r7, #12]
 325:.\DispenserBLL.c ****                     if(pjobcntr)
 1109              		.loc 1 325 0
 1110 0090 FB68     		ldr	r3, [r7, #12]
 1111 0092 002B     		cmp	r3, #0
 1112 0094 19D0     		beq	.L63
 326:.\DispenserBLL.c ****                     {
 327:.\DispenserBLL.c ****                         pjobcntr->_reenqueue = false;
 1113              		.loc 1 327 0
 1114 0096 FB68     		ldr	r3, [r7, #12]
 1115 0098 0022     		movs	r2, #0
 1116 009a 1A70     		strb	r2, [r3]
 328:.\DispenserBLL.c ****                         pjobcntr->_prequest = ptrjob;
 1117              		.loc 1 328 0
 1118 009c FB68     		ldr	r3, [r7, #12]
 1119 009e FA69     		ldr	r2, [r7, #28]
 1120 00a0 5A61     		str	r2, [r3, #20]
 329:.\DispenserBLL.c ****                         pjobcntr->_presponse = NULL;
 1121              		.loc 1 329 0
 1122 00a2 FB68     		ldr	r3, [r7, #12]
 1123 00a4 0022     		movs	r2, #0
 1124 00a6 9A61     		str	r2, [r3, #24]
 330:.\DispenserBLL.c ****                         pjobcntr->_ppump = ppump;
 1125              		.loc 1 330 0
 1126 00a8 FB68     		ldr	r3, [r7, #12]
 1127 00aa 3A69     		ldr	r2, [r7, #16]
 1128 00ac DA61     		str	r2, [r3, #28]
 331:.\DispenserBLL.c ****                         pjobcntr->_ppump->CleanUp(pjobcntr->_ppump);
 1129              		.loc 1 331 0
 1130 00ae FB68     		ldr	r3, [r7, #12]
 1131 00b0 DB69     		ldr	r3, [r3, #28]
 1132 00b2 D3F8B839 		ldr	r3, [r3, #2488]
 1133 00b6 FA68     		ldr	r2, [r7, #12]
 1134 00b8 D269     		ldr	r2, [r2, #28]
 1135 00ba 1046     		mov	r0, r2
 1136 00bc 9847     		blx	r3
 332:.\DispenserBLL.c ****                         _g_pumpjobqueue.Enqueue(&_g_pumpjobqueue, pjobcntr);
 1137              		.loc 1 332 0
 1138 00be 104B     		ldr	r3, .L68+8
 1139 00c0 D3F84C38 		ldr	r3, [r3, #2124]
 1140 00c4 0E48     		ldr	r0, .L68+8
ARM GAS  C:\Users\RECEPC~1\AppData\Local\Temp\ccxS8OWg.s 			page 27


 1141 00c6 F968     		ldr	r1, [r7, #12]
 1142 00c8 9847     		blx	r3
 1143              	.L63:
 333:.\DispenserBLL.c ****                     }
 334:.\DispenserBLL.c ****                     ptrjob++;
 1144              		.loc 1 334 0
 1145 00ca FB69     		ldr	r3, [r7, #28]
 1146 00cc 3433     		adds	r3, r3, #52
 1147 00ce FB61     		str	r3, [r7, #28]
 1148              	.L62:
 1149              	.LBE16:
 322:.\DispenserBLL.c ****                 {
 1150              		.loc 1 322 0
 1151 00d0 FB69     		ldr	r3, [r7, #28]
 1152 00d2 1B68     		ldr	r3, [r3]
 1153 00d4 002B     		cmp	r3, #0
 1154 00d6 D5D1     		bne	.L64
 1155              	.L61:
 1156              	.LBE15:
 335:.\DispenserBLL.c ****                 }
 336:.\DispenserBLL.c ****             }
 337:.\DispenserBLL.c ****         }
 338:.\DispenserBLL.c ****         break;
 1157              		.loc 1 338 0
 1158 00d8 00BF     		nop
 1159              	.L65:
 1160              	.LBE14:
 339:.\DispenserBLL.c ****     }
 340:.\DispenserBLL.c ****     
 341:.\DispenserBLL.c ****     if(_g_ptractprogramming)
 1161              		.loc 1 341 0
 1162 00da 0A4B     		ldr	r3, .L68+12
 1163 00dc 1B68     		ldr	r3, [r3]
 1164 00de 002B     		cmp	r3, #0
 1165 00e0 03D0     		beq	.L67
 342:.\DispenserBLL.c ****         _g_ptractprogramming(pmsg);
 1166              		.loc 1 342 0
 1167 00e2 084B     		ldr	r3, .L68+12
 1168 00e4 1B68     		ldr	r3, [r3]
 1169 00e6 B869     		ldr	r0, [r7, #24]
 1170 00e8 9847     		blx	r3
 1171              	.L67:
 343:.\DispenserBLL.c ****     
 344:.\DispenserBLL.c ****     pmsg->_selfkill = true;
 1172              		.loc 1 344 0
 1173 00ea BB69     		ldr	r3, [r7, #24]
 1174 00ec 0122     		movs	r2, #1
 1175 00ee 1A70     		strb	r2, [r3]
 345:.\DispenserBLL.c **** }
 1176              		.loc 1 345 0
 1177 00f0 2037     		adds	r7, r7, #32
 1178              		.cfi_def_cfa_offset 8
 1179 00f2 BD46     		mov	sp, r7
 1180              		.cfi_def_cfa_register 13
 1181              		@ sp needed
 1182 00f4 80BD     		pop	{r7, pc}
 1183              	.L69:
ARM GAS  C:\Users\RECEPC~1\AppData\Local\Temp\ccxS8OWg.s 			page 28


 1184 00f6 00BF     		.align	2
 1185              	.L68:
 1186 00f8 00000000 		.word	_g_dispenserlayoutinfo
 1187 00fc 00000000 		.word	_g_pumps
 1188 0100 00000000 		.word	_g_pumpjobqueue
 1189 0104 00000000 		.word	_g_ptractprogramming
 1190              		.cfi_endproc
 1191              	.LFE5:
 1192              		.size	DispenserAcquireConfiguration, .-DispenserAcquireConfiguration
 1193              		.section	.text.DispenserConfigurePrices,"ax",%progbits
 1194              		.align	2
 1195              		.global	DispenserConfigurePrices
 1196              		.thumb
 1197              		.thumb_func
 1198              		.type	DispenserConfigurePrices, %function
 1199              	DispenserConfigurePrices:
 1200              	.LFB6:
 346:.\DispenserBLL.c **** 
 347:.\DispenserBLL.c **** //@Created by: HIJH
 348:.\DispenserBLL.c **** //@Septembre de 2016
 349:.\DispenserBLL.c **** //Configures prices per pump/hose
 350:.\DispenserBLL.c **** void DispenserConfigurePrices(LPVOID pparam)
 351:.\DispenserBLL.c **** {
 1201              		.loc 1 351 0
 1202              		.cfi_startproc
 1203              		@ args = 0, pretend = 0, frame = 32
 1204              		@ frame_needed = 1, uses_anonymous_args = 0
 1205 0000 80B5     		push	{r7, lr}
 1206              		.cfi_def_cfa_offset 8
 1207              		.cfi_offset 7, -8
 1208              		.cfi_offset 14, -4
 1209 0002 88B0     		sub	sp, sp, #32
 1210              		.cfi_def_cfa_offset 40
 1211 0004 00AF     		add	r7, sp, #0
 1212              		.cfi_def_cfa_register 7
 1213 0006 7860     		str	r0, [r7, #4]
 352:.\DispenserBLL.c ****     PSINKMESSAGEPTR pmsg = (PSINKMESSAGEPTR)pparam;
 1214              		.loc 1 352 0
 1215 0008 7B68     		ldr	r3, [r7, #4]
 1216 000a 7B61     		str	r3, [r7, #20]
 353:.\DispenserBLL.c ****     
 354:.\DispenserBLL.c ****     //Invoke the Dispenser's transactional model to acquire the configuration information
 355:.\DispenserBLL.c ****     //and then store it in the File System
 356:.\DispenserBLL.c ****     FOR(uint8 index = 0, index < _g_dispenserlayoutinfo._numpositions, index++)
 1217              		.loc 1 356 0
 1218 000c 0023     		movs	r3, #0
 1219 000e FB77     		strb	r3, [r7, #31]
 1220 0010 7AE0     		b	.L71
 1221              	.L85:
 1222              	.LBB17:
 357:.\DispenserBLL.c ****     {
 358:.\DispenserBLL.c ****         Pump *ppump = &_g_pumps[index];
 1223              		.loc 1 358 0
 1224 0012 FB7F     		ldrb	r3, [r7, #31]	@ zero_extendqisi2
 1225 0014 4FF41C62 		mov	r2, #2496
 1226 0018 02FB03F3 		mul	r3, r2, r3
 1227 001c 404A     		ldr	r2, .L86
ARM GAS  C:\Users\RECEPC~1\AppData\Local\Temp\ccxS8OWg.s 			page 29


 1228 001e 1344     		add	r3, r3, r2
 1229 0020 3B61     		str	r3, [r7, #16]
 359:.\DispenserBLL.c ****         //Pass the buffered data to the pump structure
 360:.\DispenserBLL.c ****         if(ppump)
 1230              		.loc 1 360 0
 1231 0022 3B69     		ldr	r3, [r7, #16]
 1232 0024 002B     		cmp	r3, #0
 1233 0026 6CD0     		beq	.L72
 1234              	.LBB18:
 361:.\DispenserBLL.c ****         {
 362:.\DispenserBLL.c ****             uint8 numhoses = 0x00;
 1235              		.loc 1 362 0
 1236 0028 0023     		movs	r3, #0
 1237 002a BB77     		strb	r3, [r7, #30]
 363:.\DispenserBLL.c ****             switch(index)
 1238              		.loc 1 363 0
 1239 002c FB7F     		ldrb	r3, [r7, #31]	@ zero_extendqisi2
 1240 002e 032B     		cmp	r3, #3
 1241 0030 1AD8     		bhi	.L73
 1242 0032 01A2     		adr	r2, .L75
 1243 0034 52F823F0 		ldr	pc, [r2, r3, lsl #2]
 1244              		.p2align 2
 1245              	.L75:
 1246 0038 49000000 		.word	.L74+1
 1247 003c 51000000 		.word	.L76+1
 1248 0040 59000000 		.word	.L77+1
 1249 0044 61000000 		.word	.L78+1
 1250              		.p2align 1
 1251              	.L74:
 364:.\DispenserBLL.c ****             {
 365:.\DispenserBLL.c ****                 case 0x00:
 366:.\DispenserBLL.c ****                     numhoses = _g_dispenserlayoutinfo._hosesposition1;
 1252              		.loc 1 366 0
 1253 0048 364B     		ldr	r3, .L86+4
 1254 004a DB78     		ldrb	r3, [r3, #3]
 1255 004c BB77     		strb	r3, [r7, #30]
 367:.\DispenserBLL.c ****                     break;
 1256              		.loc 1 367 0
 1257 004e 0BE0     		b	.L73
 1258              	.L76:
 368:.\DispenserBLL.c ****                 case 0x01:
 369:.\DispenserBLL.c ****                     numhoses = _g_dispenserlayoutinfo._hosesposition2;
 1259              		.loc 1 369 0
 1260 0050 344B     		ldr	r3, .L86+4
 1261 0052 1B79     		ldrb	r3, [r3, #4]
 1262 0054 BB77     		strb	r3, [r7, #30]
 370:.\DispenserBLL.c ****                     break;
 1263              		.loc 1 370 0
 1264 0056 07E0     		b	.L73
 1265              	.L77:
 371:.\DispenserBLL.c ****                 case 0x02:
 372:.\DispenserBLL.c ****                     numhoses = _g_dispenserlayoutinfo._hosesposition3;
 1266              		.loc 1 372 0
 1267 0058 324B     		ldr	r3, .L86+4
 1268 005a 5B79     		ldrb	r3, [r3, #5]
 1269 005c BB77     		strb	r3, [r7, #30]
 373:.\DispenserBLL.c ****                     break;
ARM GAS  C:\Users\RECEPC~1\AppData\Local\Temp\ccxS8OWg.s 			page 30


 1270              		.loc 1 373 0
 1271 005e 03E0     		b	.L73
 1272              	.L78:
 374:.\DispenserBLL.c ****                 case 0x03:
 375:.\DispenserBLL.c ****                     numhoses = _g_dispenserlayoutinfo._hosesposition4;
 1273              		.loc 1 375 0
 1274 0060 304B     		ldr	r3, .L86+4
 1275 0062 9B79     		ldrb	r3, [r3, #6]
 1276 0064 BB77     		strb	r3, [r7, #30]
 376:.\DispenserBLL.c ****                     break;
 1277              		.loc 1 376 0
 1278 0066 00BF     		nop
 1279              	.L73:
 377:.\DispenserBLL.c ****             }
 378:.\DispenserBLL.c ****             
 379:.\DispenserBLL.c ****             ppump->_currenthose = 0x00;
 1280              		.loc 1 379 0
 1281 0068 3B69     		ldr	r3, [r7, #16]
 1282 006a 0022     		movs	r2, #0
 1283 006c DA70     		strb	r2, [r3, #3]
 380:.\DispenserBLL.c ****             FOR(uint8 hosendx = 0, hosendx < numhoses, hosendx++)
 1284              		.loc 1 380 0
 1285 006e 0023     		movs	r3, #0
 1286 0070 7B77     		strb	r3, [r7, #29]
 1287 0072 42E0     		b	.L79
 1288              	.L84:
 1289              	.LBB19:
 381:.\DispenserBLL.c ****             {
 382:.\DispenserBLL.c ****                 memset(ppump->_trasactionbuffer, 0x00, _MESSAGE_LENGTH_);
 1290              		.loc 1 382 0
 1291 0074 3B69     		ldr	r3, [r7, #16]
 1292 0076 2033     		adds	r3, r3, #32
 1293 0078 1846     		mov	r0, r3
 1294 007a 0021     		movs	r1, #0
 1295 007c 4FF4C072 		mov	r2, #384
 1296 0080 FFF7FEFF 		bl	memset
 383:.\DispenserBLL.c ****                 ppump->_pcurrtransaction = GetTransactionByName(_PUMP_PPU_CHANGE_);
 1297              		.loc 1 383 0
 1298 0084 4520     		movs	r0, #69
 1299 0086 FFF7FEFF 		bl	GetTransactionByName
 1300 008a 0246     		mov	r2, r0
 1301 008c 3B69     		ldr	r3, [r7, #16]
 1302 008e DA61     		str	r2, [r3, #28]
 384:.\DispenserBLL.c ****                 
 385:.\DispenserBLL.c ****                 PumpTransactionJob *ptrjob = &((PumpTransaction*)ppump->_pcurrtransaction)->_jobs[0
 1303              		.loc 1 385 0
 1304 0090 3B69     		ldr	r3, [r7, #16]
 1305 0092 DB69     		ldr	r3, [r3, #28]
 1306 0094 0433     		adds	r3, r3, #4
 1307 0096 BB61     		str	r3, [r7, #24]
 386:.\DispenserBLL.c ****                 if(ptrjob)
 1308              		.loc 1 386 0
 1309 0098 BB69     		ldr	r3, [r7, #24]
 1310 009a 002B     		cmp	r3, #0
 1311 009c 2AD0     		beq	.L80
 387:.\DispenserBLL.c ****                 {
 388:.\DispenserBLL.c ****                     while(ptrjob->Request != NULL)
ARM GAS  C:\Users\RECEPC~1\AppData\Local\Temp\ccxS8OWg.s 			page 31


 1312              		.loc 1 388 0
 1313 009e 25E0     		b	.L81
 1314              	.L83:
 1315              	.LBB20:
 389:.\DispenserBLL.c ****                     {
 390:.\DispenserBLL.c ****                         PPUMPTRANSACTIONJOBCONTEXTPTR pjobcntr = _g_pumpjobqueue.Allocate(&_g_pumpj
 1316              		.loc 1 390 0
 1317 00a0 214B     		ldr	r3, .L86+8
 1318 00a2 D3F84838 		ldr	r3, [r3, #2120]
 1319 00a6 2048     		ldr	r0, .L86+8
 1320 00a8 9847     		blx	r3
 1321 00aa F860     		str	r0, [r7, #12]
 391:.\DispenserBLL.c ****                         if(pjobcntr)
 1322              		.loc 1 391 0
 1323 00ac FB68     		ldr	r3, [r7, #12]
 1324 00ae 002B     		cmp	r3, #0
 1325 00b0 19D0     		beq	.L82
 392:.\DispenserBLL.c ****                         {
 393:.\DispenserBLL.c ****                             pjobcntr->_reenqueue = false;
 1326              		.loc 1 393 0
 1327 00b2 FB68     		ldr	r3, [r7, #12]
 1328 00b4 0022     		movs	r2, #0
 1329 00b6 1A70     		strb	r2, [r3]
 394:.\DispenserBLL.c ****                             pjobcntr->_prequest = ptrjob;
 1330              		.loc 1 394 0
 1331 00b8 FB68     		ldr	r3, [r7, #12]
 1332 00ba BA69     		ldr	r2, [r7, #24]
 1333 00bc 5A61     		str	r2, [r3, #20]
 395:.\DispenserBLL.c ****                             pjobcntr->_presponse = NULL;
 1334              		.loc 1 395 0
 1335 00be FB68     		ldr	r3, [r7, #12]
 1336 00c0 0022     		movs	r2, #0
 1337 00c2 9A61     		str	r2, [r3, #24]
 396:.\DispenserBLL.c ****                             pjobcntr->_ppump = ppump;
 1338              		.loc 1 396 0
 1339 00c4 FB68     		ldr	r3, [r7, #12]
 1340 00c6 3A69     		ldr	r2, [r7, #16]
 1341 00c8 DA61     		str	r2, [r3, #28]
 397:.\DispenserBLL.c ****                             pjobcntr->_ppump->CleanUp(pjobcntr->_ppump);
 1342              		.loc 1 397 0
 1343 00ca FB68     		ldr	r3, [r7, #12]
 1344 00cc DB69     		ldr	r3, [r3, #28]
 1345 00ce D3F8B839 		ldr	r3, [r3, #2488]
 1346 00d2 FA68     		ldr	r2, [r7, #12]
 1347 00d4 D269     		ldr	r2, [r2, #28]
 1348 00d6 1046     		mov	r0, r2
 1349 00d8 9847     		blx	r3
 398:.\DispenserBLL.c ****                             _g_pumpjobqueue.Enqueue(&_g_pumpjobqueue, pjobcntr);
 1350              		.loc 1 398 0
 1351 00da 134B     		ldr	r3, .L86+8
 1352 00dc D3F84C38 		ldr	r3, [r3, #2124]
 1353 00e0 1148     		ldr	r0, .L86+8
 1354 00e2 F968     		ldr	r1, [r7, #12]
 1355 00e4 9847     		blx	r3
 1356              	.L82:
 399:.\DispenserBLL.c ****                         }
 400:.\DispenserBLL.c ****                         ptrjob++;
ARM GAS  C:\Users\RECEPC~1\AppData\Local\Temp\ccxS8OWg.s 			page 32


 1357              		.loc 1 400 0
 1358 00e6 BB69     		ldr	r3, [r7, #24]
 1359 00e8 3433     		adds	r3, r3, #52
 1360 00ea BB61     		str	r3, [r7, #24]
 1361              	.L81:
 1362              	.LBE20:
 388:.\DispenserBLL.c ****                     {
 1363              		.loc 1 388 0
 1364 00ec BB69     		ldr	r3, [r7, #24]
 1365 00ee 1B68     		ldr	r3, [r3]
 1366 00f0 002B     		cmp	r3, #0
 1367 00f2 D5D1     		bne	.L83
 1368              	.L80:
 1369              	.LBE19:
 380:.\DispenserBLL.c ****             {
 1370              		.loc 1 380 0 discriminator 2
 1371 00f4 7B7F     		ldrb	r3, [r7, #29]	@ zero_extendqisi2
 1372 00f6 0133     		adds	r3, r3, #1
 1373 00f8 7B77     		strb	r3, [r7, #29]
 1374              	.L79:
 380:.\DispenserBLL.c ****             {
 1375              		.loc 1 380 0 is_stmt 0 discriminator 1
 1376 00fa 7A7F     		ldrb	r2, [r7, #29]	@ zero_extendqisi2
 1377 00fc BB7F     		ldrb	r3, [r7, #30]	@ zero_extendqisi2
 1378 00fe 9A42     		cmp	r2, r3
 1379 0100 B8D3     		bcc	.L84
 1380              	.L72:
 1381              	.LBE18:
 1382              	.LBE17:
 356:.\DispenserBLL.c ****     {
 1383              		.loc 1 356 0 is_stmt 1 discriminator 2
 1384 0102 FB7F     		ldrb	r3, [r7, #31]	@ zero_extendqisi2
 1385 0104 0133     		adds	r3, r3, #1
 1386 0106 FB77     		strb	r3, [r7, #31]
 1387              	.L71:
 356:.\DispenserBLL.c ****     {
 1388              		.loc 1 356 0 is_stmt 0 discriminator 1
 1389 0108 064B     		ldr	r3, .L86+4
 1390 010a 9B78     		ldrb	r3, [r3, #2]	@ zero_extendqisi2
 1391 010c FA7F     		ldrb	r2, [r7, #31]	@ zero_extendqisi2
 1392 010e 9A42     		cmp	r2, r3
 1393 0110 FFF47FAF 		bcc	.L85
 401:.\DispenserBLL.c ****                     }
 402:.\DispenserBLL.c ****                 }
 403:.\DispenserBLL.c ****             }
 404:.\DispenserBLL.c ****         }
 405:.\DispenserBLL.c ****     }
 406:.\DispenserBLL.c ****     
 407:.\DispenserBLL.c ****     pmsg->_selfkill = true;
 1394              		.loc 1 407 0 is_stmt 1
 1395 0114 7B69     		ldr	r3, [r7, #20]
 1396 0116 0122     		movs	r2, #1
 1397 0118 1A70     		strb	r2, [r3]
 408:.\DispenserBLL.c **** }
 1398              		.loc 1 408 0
 1399 011a 2037     		adds	r7, r7, #32
 1400              		.cfi_def_cfa_offset 8
ARM GAS  C:\Users\RECEPC~1\AppData\Local\Temp\ccxS8OWg.s 			page 33


 1401 011c BD46     		mov	sp, r7
 1402              		.cfi_def_cfa_register 13
 1403              		@ sp needed
 1404 011e 80BD     		pop	{r7, pc}
 1405              	.L87:
 1406              		.align	2
 1407              	.L86:
 1408 0120 00000000 		.word	_g_pumps
 1409 0124 00000000 		.word	_g_dispenserlayoutinfo
 1410 0128 00000000 		.word	_g_pumpjobqueue
 1411              		.cfi_endproc
 1412              	.LFE6:
 1413              		.size	DispenserConfigurePrices, .-DispenserConfigurePrices
 1414              		.global	__aeabi_ui2d
 1415              		.global	__aeabi_d2uiz
 1416              		.section	.text.DispenserConfigureSinglePrice,"ax",%progbits
 1417              		.align	2
 1418              		.global	DispenserConfigureSinglePrice
 1419              		.thumb
 1420              		.thumb_func
 1421              		.type	DispenserConfigureSinglePrice, %function
 1422              	DispenserConfigureSinglePrice:
 1423              	.LFB7:
 409:.\DispenserBLL.c **** 
 410:.\DispenserBLL.c **** //@Created by: HIJH
 411:.\DispenserBLL.c **** //@Septembre de 2016
 412:.\DispenserBLL.c **** //Configures the price for the requested pump/hose
 413:.\DispenserBLL.c **** void DispenserConfigureSinglePrice(LPVOID pparam)
 414:.\DispenserBLL.c **** {
 1424              		.loc 1 414 0
 1425              		.cfi_startproc
 1426              		@ args = 0, pretend = 0, frame = 48
 1427              		@ frame_needed = 1, uses_anonymous_args = 0
 1428 0000 90B5     		push	{r4, r7, lr}
 1429              		.cfi_def_cfa_offset 12
 1430              		.cfi_offset 4, -12
 1431              		.cfi_offset 7, -8
 1432              		.cfi_offset 14, -4
 1433 0002 8DB0     		sub	sp, sp, #52
 1434              		.cfi_def_cfa_offset 64
 1435 0004 00AF     		add	r7, sp, #0
 1436              		.cfi_def_cfa_register 7
 1437 0006 7860     		str	r0, [r7, #4]
 415:.\DispenserBLL.c ****     PSINKMESSAGEPTR pmsg = (PSINKMESSAGEPTR)pparam;
 1438              		.loc 1 415 0
 1439 0008 7B68     		ldr	r3, [r7, #4]
 1440 000a BB62     		str	r3, [r7, #40]
 416:.\DispenserBLL.c ****     //Invoke the Dispenser's transactional model to acquire the configuration information
 417:.\DispenserBLL.c ****     //and then store it in the File System
 418:.\DispenserBLL.c ****     PNEAR_PUMPPTR ppump =  GetPumpFromRemotePositionID(pmsg->_buffer[0x00]);
 1441              		.loc 1 418 0
 1442 000c BB6A     		ldr	r3, [r7, #40]
 1443 000e 1B7B     		ldrb	r3, [r3, #12]	@ zero_extendqisi2
 1444 0010 1846     		mov	r0, r3
 1445 0012 FFF7FEFF 		bl	GetPumpFromRemotePositionID
 1446 0016 7862     		str	r0, [r7, #36]
 419:.\DispenserBLL.c ****     if(ppump)
ARM GAS  C:\Users\RECEPC~1\AppData\Local\Temp\ccxS8OWg.s 			page 34


 1447              		.loc 1 419 0
 1448 0018 7B6A     		ldr	r3, [r7, #36]
 1449 001a 002B     		cmp	r3, #0
 1450 001c 00F0A081 		beq	.L89
 1451              	.LBB21:
 420:.\DispenserBLL.c ****     {
 421:.\DispenserBLL.c ****         ppump->_currenthose = pmsg->_buffer[0x01];
 1452              		.loc 1 421 0
 1453 0020 BB6A     		ldr	r3, [r7, #40]
 1454 0022 5A7B     		ldrb	r2, [r3, #13]	@ zero_extendqisi2
 1455 0024 7B6A     		ldr	r3, [r7, #36]
 1456 0026 DA70     		strb	r2, [r3, #3]
 422:.\DispenserBLL.c ****         
 423:.\DispenserBLL.c ****         I2CBusLock();
 1457              		.loc 1 423 0
 1458 0028 FFF7FEFF 		bl	I2CBusLock
 424:.\DispenserBLL.c ****         ClearEepromBuffer();
 1459              		.loc 1 424 0
 1460 002c FFF7FEFF 		bl	ClearEepromBuffer
 425:.\DispenserBLL.c ****         uint16 eeprompage = DispenserGetEepromPPUPageFromPumpID(ppump->_pumpid);
 1461              		.loc 1 425 0
 1462 0030 7B6A     		ldr	r3, [r7, #36]
 1463 0032 1B78     		ldrb	r3, [r3]	@ zero_extendqisi2
 1464 0034 1846     		mov	r0, r3
 1465 0036 FFF7FEFF 		bl	DispenserGetEepromPPUPageFromPumpID
 1466 003a 0346     		mov	r3, r0
 1467 003c 7B84     		strh	r3, [r7, #34]	@ movhi
 426:.\DispenserBLL.c ****         LoadEepromPage(eeprompage);
 1468              		.loc 1 426 0
 1469 003e 7B8C     		ldrh	r3, [r7, #34]
 1470 0040 1846     		mov	r0, r3
 1471 0042 FFF7FEFF 		bl	LoadEepromPage
 427:.\DispenserBLL.c ****         switch(ppump->_currenthose)
 1472              		.loc 1 427 0
 1473 0046 7B6A     		ldr	r3, [r7, #36]
 1474 0048 DB78     		ldrb	r3, [r3, #3]
 1475 004a DBB2     		uxtb	r3, r3
 1476 004c 032B     		cmp	r3, #3
 1477 004e 00F24581 		bhi	.L90
 1478 0052 01A2     		adr	r2, .L92
 1479 0054 52F823F0 		ldr	pc, [r2, r3, lsl #2]
 1480              		.p2align 2
 1481              	.L92:
 1482 0058 69000000 		.word	.L91+1
 1483 005c 03010000 		.word	.L93+1
 1484 0060 A1010000 		.word	.L94+1
 1485 0064 3F020000 		.word	.L95+1
 1486              		.p2align 1
 1487              	.L91:
 428:.\DispenserBLL.c ****         {
 429:.\DispenserBLL.c ****             case 0x00:
 430:.\DispenserBLL.c ****             {
 431:.\DispenserBLL.c ****                 if(_g_dispenserlayoutinfo._moneydecimals == 0x03 && _g_dispenserlayoutinfo._ppudeci
 1488              		.loc 1 431 0
 1489 0068 A64B     		ldr	r3, .L103
 1490 006a DB79     		ldrb	r3, [r3, #7]	@ zero_extendqisi2
 1491 006c 032B     		cmp	r3, #3
ARM GAS  C:\Users\RECEPC~1\AppData\Local\Temp\ccxS8OWg.s 			page 35


 1492 006e 3AD1     		bne	.L96
 1493              		.loc 1 431 0 is_stmt 0 discriminator 1
 1494 0070 A44B     		ldr	r3, .L103
 1495 0072 1B7A     		ldrb	r3, [r3, #8]	@ zero_extendqisi2
 1496 0074 022B     		cmp	r3, #2
 1497 0076 36D1     		bne	.L96
 1498              	.LBB22:
 432:.\DispenserBLL.c ****                 {
 433:.\DispenserBLL.c ****                     uint32 value = LSDBCDBUFF2HEX((PNEAR_BYTE_PTR)&pmsg->_buffer[0x02], pmsg->_buff
 1499              		.loc 1 433 0 is_stmt 1
 1500 0078 BB6A     		ldr	r3, [r7, #40]
 1501 007a 03F10E02 		add	r2, r3, #14
 1502 007e BB6A     		ldr	r3, [r7, #40]
 1503 0080 1B7D     		ldrb	r3, [r3, #20]	@ zero_extendqisi2
 1504 0082 9BB2     		uxth	r3, r3
 1505 0084 1046     		mov	r0, r2
 1506 0086 1946     		mov	r1, r3
 1507 0088 FFF7FEFF 		bl	LSDBCDBUFF2HEX
 1508 008c F861     		str	r0, [r7, #28]
 434:.\DispenserBLL.c ****                     value = (uint32)round(value / 10);
 1509              		.loc 1 434 0
 1510 008e FB69     		ldr	r3, [r7, #28]
 1511 0090 9D4A     		ldr	r2, .L103+4
 1512 0092 A2FB0323 		umull	r2, r3, r2, r3
 1513 0096 DB08     		lsrs	r3, r3, #3
 1514 0098 1846     		mov	r0, r3
 1515 009a FFF7FEFF 		bl	__aeabi_ui2d
 1516 009e 0246     		mov	r2, r0
 1517 00a0 0B46     		mov	r3, r1
 1518 00a2 1046     		mov	r0, r2
 1519 00a4 1946     		mov	r1, r3
 1520 00a6 FFF7FEFF 		bl	round
 1521 00aa 0246     		mov	r2, r0
 1522 00ac 0B46     		mov	r3, r1
 1523 00ae 1046     		mov	r0, r2
 1524 00b0 1946     		mov	r1, r3
 1525 00b2 FFF7FEFF 		bl	__aeabi_d2uiz
 1526 00b6 0346     		mov	r3, r0
 1527 00b8 FB61     		str	r3, [r7, #28]
 435:.\DispenserBLL.c ****                     memset(&pmsg->_buffer[0x02], 0x00, pmsg->_buffer[0x08]);
 1528              		.loc 1 435 0
 1529 00ba BB6A     		ldr	r3, [r7, #40]
 1530 00bc 03F10E02 		add	r2, r3, #14
 1531 00c0 BB6A     		ldr	r3, [r7, #40]
 1532 00c2 1B7D     		ldrb	r3, [r3, #20]	@ zero_extendqisi2
 1533 00c4 1046     		mov	r0, r2
 1534 00c6 0021     		movs	r1, #0
 1535 00c8 1A46     		mov	r2, r3
 1536 00ca FFF7FEFF 		bl	memset
 436:.\DispenserBLL.c ****                     B78AD90CF552D9B30A(value, (PNEAR_BYTE_PTR)&pmsg->_buffer[0x02]);
 1537              		.loc 1 436 0
 1538 00ce FB69     		ldr	r3, [r7, #28]
 1539 00d0 1A46     		mov	r2, r3
 1540 00d2 4FF00003 		mov	r3, #0
 1541 00d6 B96A     		ldr	r1, [r7, #40]
 1542 00d8 01F10E04 		add	r4, r1, #14
 1543 00dc 1046     		mov	r0, r2
ARM GAS  C:\Users\RECEPC~1\AppData\Local\Temp\ccxS8OWg.s 			page 36


 1544 00de 1946     		mov	r1, r3
 1545 00e0 2246     		mov	r2, r4
 1546 00e2 FFF7FEFF 		bl	B78AD90CF552D9B30A
 1547              	.L96:
 1548              	.LBE22:
 437:.\DispenserBLL.c ****                 }
 438:.\DispenserBLL.c ****                 //Six bytes only since the PPU is constrained to this length
 439:.\DispenserBLL.c ****                 memcpy(&GetEepromBuffer()[_EEPROM_PAGE_FIRST16START_], &pmsg->_buffer[0x02], pmsg->
 1549              		.loc 1 439 0
 1550 00e6 FFF7FEFF 		bl	GetEepromBuffer
 1551 00ea 0146     		mov	r1, r0
 1552 00ec BB6A     		ldr	r3, [r7, #40]
 1553 00ee 03F10E02 		add	r2, r3, #14
 1554 00f2 BB6A     		ldr	r3, [r7, #40]
 1555 00f4 1B7D     		ldrb	r3, [r3, #20]	@ zero_extendqisi2
 1556 00f6 0846     		mov	r0, r1
 1557 00f8 1146     		mov	r1, r2
 1558 00fa 1A46     		mov	r2, r3
 1559 00fc FFF7FEFF 		bl	memcpy
 440:.\DispenserBLL.c ****                 break;
 1560              		.loc 1 440 0
 1561 0100 ECE0     		b	.L90
 1562              	.L93:
 441:.\DispenserBLL.c ****             }
 442:.\DispenserBLL.c ****             case 0x01:
 443:.\DispenserBLL.c ****             {
 444:.\DispenserBLL.c ****                 if(_g_dispenserlayoutinfo._moneydecimals == 0x03 && _g_dispenserlayoutinfo._ppudeci
 1563              		.loc 1 444 0
 1564 0102 804B     		ldr	r3, .L103
 1565 0104 DB79     		ldrb	r3, [r3, #7]	@ zero_extendqisi2
 1566 0106 032B     		cmp	r3, #3
 1567 0108 3AD1     		bne	.L97
 1568              		.loc 1 444 0 is_stmt 0 discriminator 1
 1569 010a 7E4B     		ldr	r3, .L103
 1570 010c 1B7A     		ldrb	r3, [r3, #8]	@ zero_extendqisi2
 1571 010e 022B     		cmp	r3, #2
 1572 0110 36D1     		bne	.L97
 1573              	.LBB23:
 445:.\DispenserBLL.c ****                 {
 446:.\DispenserBLL.c ****                     uint32 value = LSDBCDBUFF2HEX((PNEAR_BYTE_PTR)&pmsg->_buffer[0x02], pmsg->_buff
 1574              		.loc 1 446 0 is_stmt 1
 1575 0112 BB6A     		ldr	r3, [r7, #40]
 1576 0114 03F10E02 		add	r2, r3, #14
 1577 0118 BB6A     		ldr	r3, [r7, #40]
 1578 011a 1B7D     		ldrb	r3, [r3, #20]	@ zero_extendqisi2
 1579 011c 9BB2     		uxth	r3, r3
 1580 011e 1046     		mov	r0, r2
 1581 0120 1946     		mov	r1, r3
 1582 0122 FFF7FEFF 		bl	LSDBCDBUFF2HEX
 1583 0126 B861     		str	r0, [r7, #24]
 447:.\DispenserBLL.c ****                     value = (uint32)round(value / 10);
 1584              		.loc 1 447 0
 1585 0128 BB69     		ldr	r3, [r7, #24]
 1586 012a 774A     		ldr	r2, .L103+4
 1587 012c A2FB0323 		umull	r2, r3, r2, r3
 1588 0130 DB08     		lsrs	r3, r3, #3
 1589 0132 1846     		mov	r0, r3
ARM GAS  C:\Users\RECEPC~1\AppData\Local\Temp\ccxS8OWg.s 			page 37


 1590 0134 FFF7FEFF 		bl	__aeabi_ui2d
 1591 0138 0246     		mov	r2, r0
 1592 013a 0B46     		mov	r3, r1
 1593 013c 1046     		mov	r0, r2
 1594 013e 1946     		mov	r1, r3
 1595 0140 FFF7FEFF 		bl	round
 1596 0144 0246     		mov	r2, r0
 1597 0146 0B46     		mov	r3, r1
 1598 0148 1046     		mov	r0, r2
 1599 014a 1946     		mov	r1, r3
 1600 014c FFF7FEFF 		bl	__aeabi_d2uiz
 1601 0150 0346     		mov	r3, r0
 1602 0152 BB61     		str	r3, [r7, #24]
 448:.\DispenserBLL.c ****                     memset(&pmsg->_buffer[0x02], 0x00, pmsg->_buffer[0x08]);
 1603              		.loc 1 448 0
 1604 0154 BB6A     		ldr	r3, [r7, #40]
 1605 0156 03F10E02 		add	r2, r3, #14
 1606 015a BB6A     		ldr	r3, [r7, #40]
 1607 015c 1B7D     		ldrb	r3, [r3, #20]	@ zero_extendqisi2
 1608 015e 1046     		mov	r0, r2
 1609 0160 0021     		movs	r1, #0
 1610 0162 1A46     		mov	r2, r3
 1611 0164 FFF7FEFF 		bl	memset
 449:.\DispenserBLL.c ****                     B78AD90CF552D9B30A(value, (PNEAR_BYTE_PTR)&pmsg->_buffer[0x02]);
 1612              		.loc 1 449 0
 1613 0168 BB69     		ldr	r3, [r7, #24]
 1614 016a 1A46     		mov	r2, r3
 1615 016c 4FF00003 		mov	r3, #0
 1616 0170 B96A     		ldr	r1, [r7, #40]
 1617 0172 01F10E04 		add	r4, r1, #14
 1618 0176 1046     		mov	r0, r2
 1619 0178 1946     		mov	r1, r3
 1620 017a 2246     		mov	r2, r4
 1621 017c FFF7FEFF 		bl	B78AD90CF552D9B30A
 1622              	.L97:
 1623              	.LBE23:
 450:.\DispenserBLL.c ****                 }
 451:.\DispenserBLL.c ****                 //Six bytes only since the PPU is constrained to this length
 452:.\DispenserBLL.c ****                 memcpy(&GetEepromBuffer()[_EEPROM_PAGE_SECOND16START_], &pmsg->_buffer[0x02], pmsg-
 1624              		.loc 1 452 0
 1625 0180 FFF7FEFF 		bl	GetEepromBuffer
 1626 0184 0346     		mov	r3, r0
 1627 0186 03F11001 		add	r1, r3, #16
 1628 018a BB6A     		ldr	r3, [r7, #40]
 1629 018c 03F10E02 		add	r2, r3, #14
 1630 0190 BB6A     		ldr	r3, [r7, #40]
 1631 0192 1B7D     		ldrb	r3, [r3, #20]	@ zero_extendqisi2
 1632 0194 0846     		mov	r0, r1
 1633 0196 1146     		mov	r1, r2
 1634 0198 1A46     		mov	r2, r3
 1635 019a FFF7FEFF 		bl	memcpy
 453:.\DispenserBLL.c ****                 break;
 1636              		.loc 1 453 0
 1637 019e 9DE0     		b	.L90
 1638              	.L94:
 454:.\DispenserBLL.c ****             }
 455:.\DispenserBLL.c ****             case 0x02:
ARM GAS  C:\Users\RECEPC~1\AppData\Local\Temp\ccxS8OWg.s 			page 38


 456:.\DispenserBLL.c ****             {
 457:.\DispenserBLL.c ****                 if(_g_dispenserlayoutinfo._moneydecimals == 0x03 && _g_dispenserlayoutinfo._ppudeci
 1639              		.loc 1 457 0
 1640 01a0 584B     		ldr	r3, .L103
 1641 01a2 DB79     		ldrb	r3, [r3, #7]	@ zero_extendqisi2
 1642 01a4 032B     		cmp	r3, #3
 1643 01a6 3AD1     		bne	.L98
 1644              		.loc 1 457 0 is_stmt 0 discriminator 1
 1645 01a8 564B     		ldr	r3, .L103
 1646 01aa 1B7A     		ldrb	r3, [r3, #8]	@ zero_extendqisi2
 1647 01ac 022B     		cmp	r3, #2
 1648 01ae 36D1     		bne	.L98
 1649              	.LBB24:
 458:.\DispenserBLL.c ****                 {
 459:.\DispenserBLL.c ****                     uint32 value = LSDBCDBUFF2HEX((PNEAR_BYTE_PTR)&pmsg->_buffer[0x02], pmsg->_buff
 1650              		.loc 1 459 0 is_stmt 1
 1651 01b0 BB6A     		ldr	r3, [r7, #40]
 1652 01b2 03F10E02 		add	r2, r3, #14
 1653 01b6 BB6A     		ldr	r3, [r7, #40]
 1654 01b8 1B7D     		ldrb	r3, [r3, #20]	@ zero_extendqisi2
 1655 01ba 9BB2     		uxth	r3, r3
 1656 01bc 1046     		mov	r0, r2
 1657 01be 1946     		mov	r1, r3
 1658 01c0 FFF7FEFF 		bl	LSDBCDBUFF2HEX
 1659 01c4 7861     		str	r0, [r7, #20]
 460:.\DispenserBLL.c ****                     value = (uint32)round(value / 10);
 1660              		.loc 1 460 0
 1661 01c6 7B69     		ldr	r3, [r7, #20]
 1662 01c8 4F4A     		ldr	r2, .L103+4
 1663 01ca A2FB0323 		umull	r2, r3, r2, r3
 1664 01ce DB08     		lsrs	r3, r3, #3
 1665 01d0 1846     		mov	r0, r3
 1666 01d2 FFF7FEFF 		bl	__aeabi_ui2d
 1667 01d6 0246     		mov	r2, r0
 1668 01d8 0B46     		mov	r3, r1
 1669 01da 1046     		mov	r0, r2
 1670 01dc 1946     		mov	r1, r3
 1671 01de FFF7FEFF 		bl	round
 1672 01e2 0246     		mov	r2, r0
 1673 01e4 0B46     		mov	r3, r1
 1674 01e6 1046     		mov	r0, r2
 1675 01e8 1946     		mov	r1, r3
 1676 01ea FFF7FEFF 		bl	__aeabi_d2uiz
 1677 01ee 0346     		mov	r3, r0
 1678 01f0 7B61     		str	r3, [r7, #20]
 461:.\DispenserBLL.c ****                     memset(&pmsg->_buffer[0x02], 0x00, pmsg->_buffer[0x08]);
 1679              		.loc 1 461 0
 1680 01f2 BB6A     		ldr	r3, [r7, #40]
 1681 01f4 03F10E02 		add	r2, r3, #14
 1682 01f8 BB6A     		ldr	r3, [r7, #40]
 1683 01fa 1B7D     		ldrb	r3, [r3, #20]	@ zero_extendqisi2
 1684 01fc 1046     		mov	r0, r2
 1685 01fe 0021     		movs	r1, #0
 1686 0200 1A46     		mov	r2, r3
 1687 0202 FFF7FEFF 		bl	memset
 462:.\DispenserBLL.c ****                     B78AD90CF552D9B30A(value, (PNEAR_BYTE_PTR)&pmsg->_buffer[0x02]);
 1688              		.loc 1 462 0
ARM GAS  C:\Users\RECEPC~1\AppData\Local\Temp\ccxS8OWg.s 			page 39


 1689 0206 7B69     		ldr	r3, [r7, #20]
 1690 0208 1A46     		mov	r2, r3
 1691 020a 4FF00003 		mov	r3, #0
 1692 020e B96A     		ldr	r1, [r7, #40]
 1693 0210 01F10E04 		add	r4, r1, #14
 1694 0214 1046     		mov	r0, r2
 1695 0216 1946     		mov	r1, r3
 1696 0218 2246     		mov	r2, r4
 1697 021a FFF7FEFF 		bl	B78AD90CF552D9B30A
 1698              	.L98:
 1699              	.LBE24:
 463:.\DispenserBLL.c ****                 }
 464:.\DispenserBLL.c ****                 //Six bytes only since the PPU is constrained to this length
 465:.\DispenserBLL.c ****                 memcpy(&GetEepromBuffer()[_EEPROM_PAGE_THIRD16START_], &pmsg->_buffer[0x02], pmsg->
 1700              		.loc 1 465 0
 1701 021e FFF7FEFF 		bl	GetEepromBuffer
 1702 0222 0346     		mov	r3, r0
 1703 0224 03F12001 		add	r1, r3, #32
 1704 0228 BB6A     		ldr	r3, [r7, #40]
 1705 022a 03F10E02 		add	r2, r3, #14
 1706 022e BB6A     		ldr	r3, [r7, #40]
 1707 0230 1B7D     		ldrb	r3, [r3, #20]	@ zero_extendqisi2
 1708 0232 0846     		mov	r0, r1
 1709 0234 1146     		mov	r1, r2
 1710 0236 1A46     		mov	r2, r3
 1711 0238 FFF7FEFF 		bl	memcpy
 466:.\DispenserBLL.c ****                 break;
 1712              		.loc 1 466 0
 1713 023c 4EE0     		b	.L90
 1714              	.L95:
 467:.\DispenserBLL.c ****             }
 468:.\DispenserBLL.c ****             case 0x03:
 469:.\DispenserBLL.c ****             {
 470:.\DispenserBLL.c ****                 if(_g_dispenserlayoutinfo._moneydecimals == 0x03 && _g_dispenserlayoutinfo._ppudeci
 1715              		.loc 1 470 0
 1716 023e 314B     		ldr	r3, .L103
 1717 0240 DB79     		ldrb	r3, [r3, #7]	@ zero_extendqisi2
 1718 0242 032B     		cmp	r3, #3
 1719 0244 3AD1     		bne	.L99
 1720              		.loc 1 470 0 is_stmt 0 discriminator 1
 1721 0246 2F4B     		ldr	r3, .L103
 1722 0248 1B7A     		ldrb	r3, [r3, #8]	@ zero_extendqisi2
 1723 024a 022B     		cmp	r3, #2
 1724 024c 36D1     		bne	.L99
 1725              	.LBB25:
 471:.\DispenserBLL.c ****                 {
 472:.\DispenserBLL.c ****                     uint32 value = LSDBCDBUFF2HEX((PNEAR_BYTE_PTR)&pmsg->_buffer[0x02], pmsg->_buff
 1726              		.loc 1 472 0 is_stmt 1
 1727 024e BB6A     		ldr	r3, [r7, #40]
 1728 0250 03F10E02 		add	r2, r3, #14
 1729 0254 BB6A     		ldr	r3, [r7, #40]
 1730 0256 1B7D     		ldrb	r3, [r3, #20]	@ zero_extendqisi2
 1731 0258 9BB2     		uxth	r3, r3
 1732 025a 1046     		mov	r0, r2
 1733 025c 1946     		mov	r1, r3
 1734 025e FFF7FEFF 		bl	LSDBCDBUFF2HEX
 1735 0262 3861     		str	r0, [r7, #16]
ARM GAS  C:\Users\RECEPC~1\AppData\Local\Temp\ccxS8OWg.s 			page 40


 473:.\DispenserBLL.c ****                     value = (uint32)round(value / 10);
 1736              		.loc 1 473 0
 1737 0264 3B69     		ldr	r3, [r7, #16]
 1738 0266 284A     		ldr	r2, .L103+4
 1739 0268 A2FB0323 		umull	r2, r3, r2, r3
 1740 026c DB08     		lsrs	r3, r3, #3
 1741 026e 1846     		mov	r0, r3
 1742 0270 FFF7FEFF 		bl	__aeabi_ui2d
 1743 0274 0246     		mov	r2, r0
 1744 0276 0B46     		mov	r3, r1
 1745 0278 1046     		mov	r0, r2
 1746 027a 1946     		mov	r1, r3
 1747 027c FFF7FEFF 		bl	round
 1748 0280 0246     		mov	r2, r0
 1749 0282 0B46     		mov	r3, r1
 1750 0284 1046     		mov	r0, r2
 1751 0286 1946     		mov	r1, r3
 1752 0288 FFF7FEFF 		bl	__aeabi_d2uiz
 1753 028c 0346     		mov	r3, r0
 1754 028e 3B61     		str	r3, [r7, #16]
 474:.\DispenserBLL.c ****                     memset(&pmsg->_buffer[0x02], 0x00, pmsg->_buffer[0x08]);
 1755              		.loc 1 474 0
 1756 0290 BB6A     		ldr	r3, [r7, #40]
 1757 0292 03F10E02 		add	r2, r3, #14
 1758 0296 BB6A     		ldr	r3, [r7, #40]
 1759 0298 1B7D     		ldrb	r3, [r3, #20]	@ zero_extendqisi2
 1760 029a 1046     		mov	r0, r2
 1761 029c 0021     		movs	r1, #0
 1762 029e 1A46     		mov	r2, r3
 1763 02a0 FFF7FEFF 		bl	memset
 475:.\DispenserBLL.c ****                     B78AD90CF552D9B30A(value, (PNEAR_BYTE_PTR)&pmsg->_buffer[0x02]);
 1764              		.loc 1 475 0
 1765 02a4 3B69     		ldr	r3, [r7, #16]
 1766 02a6 1A46     		mov	r2, r3
 1767 02a8 4FF00003 		mov	r3, #0
 1768 02ac B96A     		ldr	r1, [r7, #40]
 1769 02ae 01F10E04 		add	r4, r1, #14
 1770 02b2 1046     		mov	r0, r2
 1771 02b4 1946     		mov	r1, r3
 1772 02b6 2246     		mov	r2, r4
 1773 02b8 FFF7FEFF 		bl	B78AD90CF552D9B30A
 1774              	.L99:
 1775              	.LBE25:
 476:.\DispenserBLL.c ****                 }
 477:.\DispenserBLL.c ****                 //Six bytes only since the PPU is constrained to this length
 478:.\DispenserBLL.c ****                 memcpy(&GetEepromBuffer()[_EEPROM_PAGE_FOURTH16START_], &pmsg->_buffer[0x02], pmsg-
 1776              		.loc 1 478 0
 1777 02bc FFF7FEFF 		bl	GetEepromBuffer
 1778 02c0 0346     		mov	r3, r0
 1779 02c2 03F13001 		add	r1, r3, #48
 1780 02c6 BB6A     		ldr	r3, [r7, #40]
 1781 02c8 03F10E02 		add	r2, r3, #14
 1782 02cc BB6A     		ldr	r3, [r7, #40]
 1783 02ce 1B7D     		ldrb	r3, [r3, #20]	@ zero_extendqisi2
 1784 02d0 0846     		mov	r0, r1
 1785 02d2 1146     		mov	r1, r2
 1786 02d4 1A46     		mov	r2, r3
ARM GAS  C:\Users\RECEPC~1\AppData\Local\Temp\ccxS8OWg.s 			page 41


 1787 02d6 FFF7FEFF 		bl	memcpy
 479:.\DispenserBLL.c ****                 break;
 1788              		.loc 1 479 0
 1789 02da 00BF     		nop
 1790              	.L90:
 480:.\DispenserBLL.c ****             }
 481:.\DispenserBLL.c ****         }
 482:.\DispenserBLL.c ****         StoreEepromPage(eeprompage);        
 1791              		.loc 1 482 0
 1792 02dc 7B8C     		ldrh	r3, [r7, #34]
 1793 02de 1846     		mov	r0, r3
 1794 02e0 FFF7FEFF 		bl	StoreEepromPage
 483:.\DispenserBLL.c ****         I2CBusUnlock();
 1795              		.loc 1 483 0
 1796 02e4 FFF7FEFF 		bl	I2CBusUnlock
 484:.\DispenserBLL.c ****     
 485:.\DispenserBLL.c ****         ppump->_pcurrtransaction = GetTransactionByName(_PUMP_PPU_CHANGE_);
 1797              		.loc 1 485 0
 1798 02e8 4520     		movs	r0, #69
 1799 02ea FFF7FEFF 		bl	GetTransactionByName
 1800 02ee 0246     		mov	r2, r0
 1801 02f0 7B6A     		ldr	r3, [r7, #36]
 1802 02f2 DA61     		str	r2, [r3, #28]
 486:.\DispenserBLL.c ****         PumpTransactionJob *ptrjob = &((PumpTransaction*)ppump->_pcurrtransaction)->_jobs[0];
 1803              		.loc 1 486 0
 1804 02f4 7B6A     		ldr	r3, [r7, #36]
 1805 02f6 DB69     		ldr	r3, [r3, #28]
 1806 02f8 0433     		adds	r3, r3, #4
 1807 02fa FB62     		str	r3, [r7, #44]
 487:.\DispenserBLL.c ****         if(ptrjob)
 1808              		.loc 1 487 0
 1809 02fc FB6A     		ldr	r3, [r7, #44]
 1810 02fe 002B     		cmp	r3, #0
 1811 0300 2ED0     		beq	.L89
 488:.\DispenserBLL.c ****         {
 489:.\DispenserBLL.c ****             while(ptrjob->Request != NULL)
 1812              		.loc 1 489 0
 1813 0302 29E0     		b	.L100
 1814              	.L104:
 1815              		.align	2
 1816              	.L103:
 1817 0304 00000000 		.word	_g_dispenserlayoutinfo
 1818 0308 CDCCCCCC 		.word	-858993459
 1819              	.L102:
 1820              	.LBB26:
 490:.\DispenserBLL.c ****             {
 491:.\DispenserBLL.c ****                 PPUMPTRANSACTIONJOBCONTEXTPTR pjobcntr = _g_pumpjobqueue.Allocate(&_g_pumpjobqueue)
 1821              		.loc 1 491 0
 1822 030c 174B     		ldr	r3, .L105
 1823 030e D3F84838 		ldr	r3, [r3, #2120]
 1824 0312 1648     		ldr	r0, .L105
 1825 0314 9847     		blx	r3
 1826 0316 F860     		str	r0, [r7, #12]
 492:.\DispenserBLL.c ****                 if(pjobcntr)
 1827              		.loc 1 492 0
 1828 0318 FB68     		ldr	r3, [r7, #12]
 1829 031a 002B     		cmp	r3, #0
ARM GAS  C:\Users\RECEPC~1\AppData\Local\Temp\ccxS8OWg.s 			page 42


 1830 031c 19D0     		beq	.L101
 493:.\DispenserBLL.c ****                 {
 494:.\DispenserBLL.c ****                     pjobcntr->_reenqueue = false;
 1831              		.loc 1 494 0
 1832 031e FB68     		ldr	r3, [r7, #12]
 1833 0320 0022     		movs	r2, #0
 1834 0322 1A70     		strb	r2, [r3]
 495:.\DispenserBLL.c ****                     pjobcntr->_prequest = ptrjob;
 1835              		.loc 1 495 0
 1836 0324 FB68     		ldr	r3, [r7, #12]
 1837 0326 FA6A     		ldr	r2, [r7, #44]
 1838 0328 5A61     		str	r2, [r3, #20]
 496:.\DispenserBLL.c ****                     pjobcntr->_presponse = NULL;
 1839              		.loc 1 496 0
 1840 032a FB68     		ldr	r3, [r7, #12]
 1841 032c 0022     		movs	r2, #0
 1842 032e 9A61     		str	r2, [r3, #24]
 497:.\DispenserBLL.c ****                     pjobcntr->_ppump = ppump;
 1843              		.loc 1 497 0
 1844 0330 FB68     		ldr	r3, [r7, #12]
 1845 0332 7A6A     		ldr	r2, [r7, #36]
 1846 0334 DA61     		str	r2, [r3, #28]
 498:.\DispenserBLL.c ****                     pjobcntr->_ppump->CleanUp(pjobcntr->_ppump);
 1847              		.loc 1 498 0
 1848 0336 FB68     		ldr	r3, [r7, #12]
 1849 0338 DB69     		ldr	r3, [r3, #28]
 1850 033a D3F8B839 		ldr	r3, [r3, #2488]
 1851 033e FA68     		ldr	r2, [r7, #12]
 1852 0340 D269     		ldr	r2, [r2, #28]
 1853 0342 1046     		mov	r0, r2
 1854 0344 9847     		blx	r3
 499:.\DispenserBLL.c ****                     _g_pumpjobqueue.Enqueue(&_g_pumpjobqueue, pjobcntr);
 1855              		.loc 1 499 0
 1856 0346 094B     		ldr	r3, .L105
 1857 0348 D3F84C38 		ldr	r3, [r3, #2124]
 1858 034c 0748     		ldr	r0, .L105
 1859 034e F968     		ldr	r1, [r7, #12]
 1860 0350 9847     		blx	r3
 1861              	.L101:
 500:.\DispenserBLL.c ****                 }
 501:.\DispenserBLL.c ****                 ptrjob++;
 1862              		.loc 1 501 0
 1863 0352 FB6A     		ldr	r3, [r7, #44]
 1864 0354 3433     		adds	r3, r3, #52
 1865 0356 FB62     		str	r3, [r7, #44]
 1866              	.L100:
 1867              	.LBE26:
 489:.\DispenserBLL.c ****             {
 1868              		.loc 1 489 0
 1869 0358 FB6A     		ldr	r3, [r7, #44]
 1870 035a 1B68     		ldr	r3, [r3]
 1871 035c 002B     		cmp	r3, #0
 1872 035e D5D1     		bne	.L102
 1873              	.L89:
 1874              	.LBE21:
 502:.\DispenserBLL.c ****             }
 503:.\DispenserBLL.c ****         }
ARM GAS  C:\Users\RECEPC~1\AppData\Local\Temp\ccxS8OWg.s 			page 43


 504:.\DispenserBLL.c **** 
 505:.\DispenserBLL.c ****     }  
 506:.\DispenserBLL.c ****     pmsg->_selfkill = true;
 1875              		.loc 1 506 0
 1876 0360 BB6A     		ldr	r3, [r7, #40]
 1877 0362 0122     		movs	r2, #1
 1878 0364 1A70     		strb	r2, [r3]
 507:.\DispenserBLL.c **** }
 1879              		.loc 1 507 0
 1880 0366 3437     		adds	r7, r7, #52
 1881              		.cfi_def_cfa_offset 12
 1882 0368 BD46     		mov	sp, r7
 1883              		.cfi_def_cfa_register 13
 1884              		@ sp needed
 1885 036a 90BD     		pop	{r4, r7, pc}
 1886              	.L106:
 1887              		.align	2
 1888              	.L105:
 1889 036c 00000000 		.word	_g_pumpjobqueue
 1890              		.cfi_endproc
 1891              	.LFE7:
 1892              		.size	DispenserConfigureSinglePrice, .-DispenserConfigureSinglePrice
 1893              		.section	.text.DispenserAcquireTotals,"ax",%progbits
 1894              		.align	2
 1895              		.global	DispenserAcquireTotals
 1896              		.thumb
 1897              		.thumb_func
 1898              		.type	DispenserAcquireTotals, %function
 1899              	DispenserAcquireTotals:
 1900              	.LFB8:
 508:.\DispenserBLL.c **** 
 509:.\DispenserBLL.c **** //@Created by: HIJH
 510:.\DispenserBLL.c **** //@Septembre de 2016
 511:.\DispenserBLL.c **** //Acquires pump totals for the specified hose
 512:.\DispenserBLL.c **** void DispenserAcquireTotals(LPVOID pparam)
 513:.\DispenserBLL.c **** {
 1901              		.loc 1 513 0
 1902              		.cfi_startproc
 1903              		@ args = 0, pretend = 0, frame = 24
 1904              		@ frame_needed = 1, uses_anonymous_args = 0
 1905 0000 80B5     		push	{r7, lr}
 1906              		.cfi_def_cfa_offset 8
 1907              		.cfi_offset 7, -8
 1908              		.cfi_offset 14, -4
 1909 0002 86B0     		sub	sp, sp, #24
 1910              		.cfi_def_cfa_offset 32
 1911 0004 00AF     		add	r7, sp, #0
 1912              		.cfi_def_cfa_register 7
 1913 0006 7860     		str	r0, [r7, #4]
 514:.\DispenserBLL.c ****     PSINKMESSAGEPTR pmsg = (PSINKMESSAGEPTR)pparam;
 1914              		.loc 1 514 0
 1915 0008 7B68     		ldr	r3, [r7, #4]
 1916 000a 3B61     		str	r3, [r7, #16]
 515:.\DispenserBLL.c ****     //Invoke the Dispenser's transactional model to acquire the configuration information
 516:.\DispenserBLL.c ****     //and then store it in the File System
 517:.\DispenserBLL.c ****     PNEAR_PUMPPTR ppump =  GetPumpFromRemotePositionID(pmsg->_buffer[0x00]);
 1917              		.loc 1 517 0
ARM GAS  C:\Users\RECEPC~1\AppData\Local\Temp\ccxS8OWg.s 			page 44


 1918 000c 3B69     		ldr	r3, [r7, #16]
 1919 000e 1B7B     		ldrb	r3, [r3, #12]	@ zero_extendqisi2
 1920 0010 1846     		mov	r0, r3
 1921 0012 FFF7FEFF 		bl	GetPumpFromRemotePositionID
 1922 0016 F860     		str	r0, [r7, #12]
 518:.\DispenserBLL.c ****     if(ppump)
 1923              		.loc 1 518 0
 1924 0018 FB68     		ldr	r3, [r7, #12]
 1925 001a 002B     		cmp	r3, #0
 1926 001c 37D0     		beq	.L108
 1927              	.LBB27:
 519:.\DispenserBLL.c ****     {
 520:.\DispenserBLL.c ****         ppump->_pcurrtransaction = GetTransactionByName(_PUMP_TOTALS_);
 1928              		.loc 1 520 0
 1929 001e 4720     		movs	r0, #71
 1930 0020 FFF7FEFF 		bl	GetTransactionByName
 1931 0024 0246     		mov	r2, r0
 1932 0026 FB68     		ldr	r3, [r7, #12]
 1933 0028 DA61     		str	r2, [r3, #28]
 521:.\DispenserBLL.c ****         PumpTransactionJob *ptrjob = &((PumpTransaction*)ppump->_pcurrtransaction)->_jobs[0];
 1934              		.loc 1 521 0
 1935 002a FB68     		ldr	r3, [r7, #12]
 1936 002c DB69     		ldr	r3, [r3, #28]
 1937 002e 0433     		adds	r3, r3, #4
 1938 0030 7B61     		str	r3, [r7, #20]
 522:.\DispenserBLL.c ****         if(ptrjob)
 1939              		.loc 1 522 0
 1940 0032 7B69     		ldr	r3, [r7, #20]
 1941 0034 002B     		cmp	r3, #0
 1942 0036 2AD0     		beq	.L108
 523:.\DispenserBLL.c ****         {
 524:.\DispenserBLL.c ****             while(ptrjob->Request != NULL)
 1943              		.loc 1 524 0
 1944 0038 25E0     		b	.L109
 1945              	.L111:
 1946              	.LBB28:
 525:.\DispenserBLL.c ****             {
 526:.\DispenserBLL.c ****                 PPUMPTRANSACTIONJOBCONTEXTPTR pjobcntr = _g_pumpjobqueue.Allocate(&_g_pumpjobqueue)
 1947              		.loc 1 526 0
 1948 003a 184B     		ldr	r3, .L112
 1949 003c D3F84838 		ldr	r3, [r3, #2120]
 1950 0040 1648     		ldr	r0, .L112
 1951 0042 9847     		blx	r3
 1952 0044 B860     		str	r0, [r7, #8]
 527:.\DispenserBLL.c ****                 if(pjobcntr)
 1953              		.loc 1 527 0
 1954 0046 BB68     		ldr	r3, [r7, #8]
 1955 0048 002B     		cmp	r3, #0
 1956 004a 19D0     		beq	.L110
 528:.\DispenserBLL.c ****                 {
 529:.\DispenserBLL.c ****                     pjobcntr->_reenqueue = false;
 1957              		.loc 1 529 0
 1958 004c BB68     		ldr	r3, [r7, #8]
 1959 004e 0022     		movs	r2, #0
 1960 0050 1A70     		strb	r2, [r3]
 530:.\DispenserBLL.c ****                     pjobcntr->_prequest = ptrjob;
 1961              		.loc 1 530 0
ARM GAS  C:\Users\RECEPC~1\AppData\Local\Temp\ccxS8OWg.s 			page 45


 1962 0052 BB68     		ldr	r3, [r7, #8]
 1963 0054 7A69     		ldr	r2, [r7, #20]
 1964 0056 5A61     		str	r2, [r3, #20]
 531:.\DispenserBLL.c ****                     pjobcntr->_presponse = NULL;
 1965              		.loc 1 531 0
 1966 0058 BB68     		ldr	r3, [r7, #8]
 1967 005a 0022     		movs	r2, #0
 1968 005c 9A61     		str	r2, [r3, #24]
 532:.\DispenserBLL.c ****                     pjobcntr->_ppump = ppump;
 1969              		.loc 1 532 0
 1970 005e BB68     		ldr	r3, [r7, #8]
 1971 0060 FA68     		ldr	r2, [r7, #12]
 1972 0062 DA61     		str	r2, [r3, #28]
 533:.\DispenserBLL.c ****                     pjobcntr->_ppump->CleanUp(pjobcntr->_ppump);
 1973              		.loc 1 533 0
 1974 0064 BB68     		ldr	r3, [r7, #8]
 1975 0066 DB69     		ldr	r3, [r3, #28]
 1976 0068 D3F8B839 		ldr	r3, [r3, #2488]
 1977 006c BA68     		ldr	r2, [r7, #8]
 1978 006e D269     		ldr	r2, [r2, #28]
 1979 0070 1046     		mov	r0, r2
 1980 0072 9847     		blx	r3
 534:.\DispenserBLL.c ****                     _g_pumpjobqueue.Enqueue(&_g_pumpjobqueue, pjobcntr);
 1981              		.loc 1 534 0
 1982 0074 094B     		ldr	r3, .L112
 1983 0076 D3F84C38 		ldr	r3, [r3, #2124]
 1984 007a 0848     		ldr	r0, .L112
 1985 007c B968     		ldr	r1, [r7, #8]
 1986 007e 9847     		blx	r3
 1987              	.L110:
 535:.\DispenserBLL.c ****                 }
 536:.\DispenserBLL.c ****                 ptrjob++;
 1988              		.loc 1 536 0
 1989 0080 7B69     		ldr	r3, [r7, #20]
 1990 0082 3433     		adds	r3, r3, #52
 1991 0084 7B61     		str	r3, [r7, #20]
 1992              	.L109:
 1993              	.LBE28:
 524:.\DispenserBLL.c ****             {
 1994              		.loc 1 524 0
 1995 0086 7B69     		ldr	r3, [r7, #20]
 1996 0088 1B68     		ldr	r3, [r3]
 1997 008a 002B     		cmp	r3, #0
 1998 008c D5D1     		bne	.L111
 1999              	.L108:
 2000              	.LBE27:
 537:.\DispenserBLL.c ****             }
 538:.\DispenserBLL.c ****         }
 539:.\DispenserBLL.c **** 
 540:.\DispenserBLL.c ****     }  
 541:.\DispenserBLL.c ****     pmsg->_selfkill = true;
 2001              		.loc 1 541 0
 2002 008e 3B69     		ldr	r3, [r7, #16]
 2003 0090 0122     		movs	r2, #1
 2004 0092 1A70     		strb	r2, [r3]
 542:.\DispenserBLL.c **** }
 2005              		.loc 1 542 0
ARM GAS  C:\Users\RECEPC~1\AppData\Local\Temp\ccxS8OWg.s 			page 46


 2006 0094 1837     		adds	r7, r7, #24
 2007              		.cfi_def_cfa_offset 8
 2008 0096 BD46     		mov	sp, r7
 2009              		.cfi_def_cfa_register 13
 2010              		@ sp needed
 2011 0098 80BD     		pop	{r7, pc}
 2012              	.L113:
 2013 009a 00BF     		.align	2
 2014              	.L112:
 2015 009c 00000000 		.word	_g_pumpjobqueue
 2016              		.cfi_endproc
 2017              	.LFE8:
 2018              		.size	DispenserAcquireTotals, .-DispenserAcquireTotals
 2019              		.section	.text.DispenserEnumeratePumps,"ax",%progbits
 2020              		.align	2
 2021              		.global	DispenserEnumeratePumps
 2022              		.thumb
 2023              		.thumb_func
 2024              		.type	DispenserEnumeratePumps, %function
 2025              	DispenserEnumeratePumps:
 2026              	.LFB9:
 543:.\DispenserBLL.c **** 
 544:.\DispenserBLL.c **** //@Created by: HIJH
 545:.\DispenserBLL.c **** //@Septembre de 2016
 546:.\DispenserBLL.c **** //Loads the local configuration information
 547:.\DispenserBLL.c **** void DispenserEnumeratePumps(LPVOID pparam)
 548:.\DispenserBLL.c **** {
 2027              		.loc 1 548 0
 2028              		.cfi_startproc
 2029              		@ args = 0, pretend = 0, frame = 24
 2030              		@ frame_needed = 1, uses_anonymous_args = 0
 2031 0000 80B5     		push	{r7, lr}
 2032              		.cfi_def_cfa_offset 8
 2033              		.cfi_offset 7, -8
 2034              		.cfi_offset 14, -4
 2035 0002 86B0     		sub	sp, sp, #24
 2036              		.cfi_def_cfa_offset 32
 2037 0004 00AF     		add	r7, sp, #0
 2038              		.cfi_def_cfa_register 7
 2039 0006 7860     		str	r0, [r7, #4]
 549:.\DispenserBLL.c ****     
 550:.\DispenserBLL.c ****     ClearEepromBuffer();
 2040              		.loc 1 550 0
 2041 0008 FFF7FEFF 		bl	ClearEepromBuffer
 551:.\DispenserBLL.c ****     //Cleanup of the pump identifier in order to start the enumeration procedure
 552:.\DispenserBLL.c ****     LoadEepromPage(EEPROM_DISPENSER_PUMP1_LAYOUT_PAGE);
 2042              		.loc 1 552 0
 2043 000c 4FF40070 		mov	r0, #512
 2044 0010 FFF7FEFF 		bl	LoadEepromPage
 553:.\DispenserBLL.c ****     GetEepromBuffer()[0] = 0x00;
 2045              		.loc 1 553 0
 2046 0014 FFF7FEFF 		bl	GetEepromBuffer
 2047 0018 0346     		mov	r3, r0
 2048 001a 0022     		movs	r2, #0
 2049 001c 1A70     		strb	r2, [r3]
 554:.\DispenserBLL.c ****     StoreEepromPage(EEPROM_DISPENSER_PUMP1_LAYOUT_PAGE);
 2050              		.loc 1 554 0
ARM GAS  C:\Users\RECEPC~1\AppData\Local\Temp\ccxS8OWg.s 			page 47


 2051 001e 4FF40070 		mov	r0, #512
 2052 0022 FFF7FEFF 		bl	StoreEepromPage
 555:.\DispenserBLL.c **** 
 556:.\DispenserBLL.c ****     ClearEepromBuffer();
 2053              		.loc 1 556 0
 2054 0026 FFF7FEFF 		bl	ClearEepromBuffer
 557:.\DispenserBLL.c ****     //Cleanup of the pump identifier in order to start the enumeration procedure
 558:.\DispenserBLL.c ****     LoadEepromPage(EEPROM_DISPENSER_PUMP2_LAYOUT_PAGE);
 2055              		.loc 1 558 0
 2056 002a 4FF41070 		mov	r0, #576
 2057 002e FFF7FEFF 		bl	LoadEepromPage
 559:.\DispenserBLL.c ****     GetEepromBuffer()[0] = 0x00;
 2058              		.loc 1 559 0
 2059 0032 FFF7FEFF 		bl	GetEepromBuffer
 2060 0036 0346     		mov	r3, r0
 2061 0038 0022     		movs	r2, #0
 2062 003a 1A70     		strb	r2, [r3]
 560:.\DispenserBLL.c ****     StoreEepromPage(EEPROM_DISPENSER_PUMP2_LAYOUT_PAGE);
 2063              		.loc 1 560 0
 2064 003c 4FF41070 		mov	r0, #576
 2065 0040 FFF7FEFF 		bl	StoreEepromPage
 561:.\DispenserBLL.c ****     
 562:.\DispenserBLL.c ****     ClearEepromBuffer();
 2066              		.loc 1 562 0
 2067 0044 FFF7FEFF 		bl	ClearEepromBuffer
 563:.\DispenserBLL.c ****     //Cleanup of the pump identifier in order to start the enumeration procedure
 564:.\DispenserBLL.c ****     LoadEepromPage(EEPROM_DISPENSER_PUMP3_LAYOUT_PAGE);
 2068              		.loc 1 564 0
 2069 0048 4FF42070 		mov	r0, #640
 2070 004c FFF7FEFF 		bl	LoadEepromPage
 565:.\DispenserBLL.c ****     GetEepromBuffer()[0] = 0x00;
 2071              		.loc 1 565 0
 2072 0050 FFF7FEFF 		bl	GetEepromBuffer
 2073 0054 0346     		mov	r3, r0
 2074 0056 0022     		movs	r2, #0
 2075 0058 1A70     		strb	r2, [r3]
 566:.\DispenserBLL.c ****     StoreEepromPage(EEPROM_DISPENSER_PUMP3_LAYOUT_PAGE);
 2076              		.loc 1 566 0
 2077 005a 4FF42070 		mov	r0, #640
 2078 005e FFF7FEFF 		bl	StoreEepromPage
 567:.\DispenserBLL.c **** 
 568:.\DispenserBLL.c ****     ClearEepromBuffer();
 2079              		.loc 1 568 0
 2080 0062 FFF7FEFF 		bl	ClearEepromBuffer
 569:.\DispenserBLL.c ****     //Cleanup of the pump identifier in order to start the enumeration procedure
 570:.\DispenserBLL.c ****     LoadEepromPage(EEPROM_DISPENSER_PUMP4_LAYOUT_PAGE);
 2081              		.loc 1 570 0
 2082 0066 4FF43070 		mov	r0, #704
 2083 006a FFF7FEFF 		bl	LoadEepromPage
 571:.\DispenserBLL.c ****     GetEepromBuffer()[0] = 0x00;
 2084              		.loc 1 571 0
 2085 006e FFF7FEFF 		bl	GetEepromBuffer
 2086 0072 0346     		mov	r3, r0
 2087 0074 0022     		movs	r2, #0
 2088 0076 1A70     		strb	r2, [r3]
 572:.\DispenserBLL.c ****     StoreEepromPage(EEPROM_DISPENSER_PUMP4_LAYOUT_PAGE);
 2089              		.loc 1 572 0
ARM GAS  C:\Users\RECEPC~1\AppData\Local\Temp\ccxS8OWg.s 			page 48


 2090 0078 4FF43070 		mov	r0, #704
 2091 007c FFF7FEFF 		bl	StoreEepromPage
 573:.\DispenserBLL.c ****     
 574:.\DispenserBLL.c ****     _g_dispenserlayoutinfo._numpositions = 0;
 2092              		.loc 1 574 0
 2093 0080 2E4B     		ldr	r3, .L119
 2094 0082 0022     		movs	r2, #0
 2095 0084 9A70     		strb	r2, [r3, #2]
 575:.\DispenserBLL.c ****     
 576:.\DispenserBLL.c ****     Pump *ppump = &_g_pumps[0];
 2096              		.loc 1 576 0
 2097 0086 2E4B     		ldr	r3, .L119+4
 2098 0088 3B61     		str	r3, [r7, #16]
 577:.\DispenserBLL.c ****     //Pass the buffered data to the pump structure
 578:.\DispenserBLL.c ****     if(ppump)
 2099              		.loc 1 578 0
 2100 008a 3B69     		ldr	r3, [r7, #16]
 2101 008c 002B     		cmp	r3, #0
 2102 008e 51D0     		beq	.L114
 2103              	.LBB29:
 579:.\DispenserBLL.c ****     {
 580:.\DispenserBLL.c ****         
 581:.\DispenserBLL.c ****         memset(ppump->_trasactionbuffer, 0x00, _PUMP_TRANSACTION_BUFFER_SIZE_);
 2104              		.loc 1 581 0
 2105 0090 3B69     		ldr	r3, [r7, #16]
 2106 0092 2033     		adds	r3, r3, #32
 2107 0094 1846     		mov	r0, r3
 2108 0096 0021     		movs	r1, #0
 2109 0098 4FF4C072 		mov	r2, #384
 2110 009c FFF7FEFF 		bl	memset
 582:.\DispenserBLL.c ****         ppump->_pcurrtransaction = GetTransactionByName(_PUMP_NETWORK_ENUMERATOR_);
 2111              		.loc 1 582 0
 2112 00a0 4A20     		movs	r0, #74
 2113 00a2 FFF7FEFF 		bl	GetTransactionByName
 2114 00a6 0246     		mov	r2, r0
 2115 00a8 3B69     		ldr	r3, [r7, #16]
 2116 00aa DA61     		str	r2, [r3, #28]
 583:.\DispenserBLL.c ****         
 584:.\DispenserBLL.c ****         PumpTransactionJob *ptrjob = &((PumpTransaction*)ppump->_pcurrtransaction)->_jobs[0];
 2117              		.loc 1 584 0
 2118 00ac 3B69     		ldr	r3, [r7, #16]
 2119 00ae DB69     		ldr	r3, [r3, #28]
 2120 00b0 0433     		adds	r3, r3, #4
 2121 00b2 7B61     		str	r3, [r7, #20]
 585:.\DispenserBLL.c ****         if(ptrjob)
 2122              		.loc 1 585 0
 2123 00b4 7B69     		ldr	r3, [r7, #20]
 2124 00b6 002B     		cmp	r3, #0
 2125 00b8 3CD0     		beq	.L114
 586:.\DispenserBLL.c ****         {
 587:.\DispenserBLL.c ****             while(ptrjob->Request != NULL)
 2126              		.loc 1 587 0
 2127 00ba 37E0     		b	.L116
 2128              	.L118:
 2129              	.LBB30:
 588:.\DispenserBLL.c ****             {
 589:.\DispenserBLL.c ****                 PPUMPTRANSACTIONJOBCONTEXTPTR pjobcntr = _g_pumpjobqueue.Allocate(&_g_pumpjobqueue)
ARM GAS  C:\Users\RECEPC~1\AppData\Local\Temp\ccxS8OWg.s 			page 49


 2130              		.loc 1 589 0
 2131 00bc 214B     		ldr	r3, .L119+8
 2132 00be D3F84838 		ldr	r3, [r3, #2120]
 2133 00c2 2048     		ldr	r0, .L119+8
 2134 00c4 9847     		blx	r3
 2135 00c6 F860     		str	r0, [r7, #12]
 590:.\DispenserBLL.c ****                 if(pjobcntr)
 2136              		.loc 1 590 0
 2137 00c8 FB68     		ldr	r3, [r7, #12]
 2138 00ca 002B     		cmp	r3, #0
 2139 00cc 2BD0     		beq	.L117
 591:.\DispenserBLL.c ****                 {
 592:.\DispenserBLL.c ****                     pjobcntr->_reenqueue = true;
 2140              		.loc 1 592 0
 2141 00ce FB68     		ldr	r3, [r7, #12]
 2142 00d0 0122     		movs	r2, #1
 2143 00d2 1A70     		strb	r2, [r3]
 593:.\DispenserBLL.c ****                     pjobcntr->_prequest = ptrjob;
 2144              		.loc 1 593 0
 2145 00d4 FB68     		ldr	r3, [r7, #12]
 2146 00d6 7A69     		ldr	r2, [r7, #20]
 2147 00d8 5A61     		str	r2, [r3, #20]
 594:.\DispenserBLL.c ****                     pjobcntr->_presponse = NULL;
 2148              		.loc 1 594 0
 2149 00da FB68     		ldr	r3, [r7, #12]
 2150 00dc 0022     		movs	r2, #0
 2151 00de 9A61     		str	r2, [r3, #24]
 595:.\DispenserBLL.c ****                     pjobcntr->_ppump = ppump;
 2152              		.loc 1 595 0
 2153 00e0 FB68     		ldr	r3, [r7, #12]
 2154 00e2 3A69     		ldr	r2, [r7, #16]
 2155 00e4 DA61     		str	r2, [r3, #28]
 596:.\DispenserBLL.c ****                     pjobcntr->_ppump->CleanUp(pjobcntr->_ppump);
 2156              		.loc 1 596 0
 2157 00e6 FB68     		ldr	r3, [r7, #12]
 2158 00e8 DB69     		ldr	r3, [r3, #28]
 2159 00ea D3F8B839 		ldr	r3, [r3, #2488]
 2160 00ee FA68     		ldr	r2, [r7, #12]
 2161 00f0 D269     		ldr	r2, [r2, #28]
 2162 00f2 1046     		mov	r0, r2
 2163 00f4 9847     		blx	r3
 597:.\DispenserBLL.c ****                     pjobcntr->_ppump->_datacontainer._var0 = 0x1;
 2164              		.loc 1 597 0
 2165 00f6 FB68     		ldr	r3, [r7, #12]
 2166 00f8 DB69     		ldr	r3, [r3, #28]
 2167 00fa 0122     		movs	r2, #1
 2168 00fc 83F86029 		strb	r2, [r3, #2400]
 598:.\DispenserBLL.c ****                     pjobcntr->_ppump->_datacontainer._var1 = 0x0;
 2169              		.loc 1 598 0
 2170 0100 FB68     		ldr	r3, [r7, #12]
 2171 0102 DB69     		ldr	r3, [r3, #28]
 2172 0104 0022     		movs	r2, #0
 2173 0106 83F86129 		strb	r2, [r3, #2401]
 599:.\DispenserBLL.c ****                     pjobcntr->_ppump->_pumpid = pjobcntr->_ppump->_datacontainer._var0;
 2174              		.loc 1 599 0
 2175 010a FB68     		ldr	r3, [r7, #12]
 2176 010c DB69     		ldr	r3, [r3, #28]
ARM GAS  C:\Users\RECEPC~1\AppData\Local\Temp\ccxS8OWg.s 			page 50


 2177 010e FA68     		ldr	r2, [r7, #12]
 2178 0110 D269     		ldr	r2, [r2, #28]
 2179 0112 92F86029 		ldrb	r2, [r2, #2400]
 2180 0116 D2B2     		uxtb	r2, r2
 2181 0118 1A70     		strb	r2, [r3]
 600:.\DispenserBLL.c ****                     _g_pumpjobqueue.Enqueue(&_g_pumpjobqueue, pjobcntr);
 2182              		.loc 1 600 0
 2183 011a 0A4B     		ldr	r3, .L119+8
 2184 011c D3F84C38 		ldr	r3, [r3, #2124]
 2185 0120 0848     		ldr	r0, .L119+8
 2186 0122 F968     		ldr	r1, [r7, #12]
 2187 0124 9847     		blx	r3
 2188              	.L117:
 601:.\DispenserBLL.c ****                 }
 602:.\DispenserBLL.c ****                 ptrjob++;
 2189              		.loc 1 602 0
 2190 0126 7B69     		ldr	r3, [r7, #20]
 2191 0128 3433     		adds	r3, r3, #52
 2192 012a 7B61     		str	r3, [r7, #20]
 2193              	.L116:
 2194              	.LBE30:
 587:.\DispenserBLL.c ****             {
 2195              		.loc 1 587 0
 2196 012c 7B69     		ldr	r3, [r7, #20]
 2197 012e 1B68     		ldr	r3, [r3]
 2198 0130 002B     		cmp	r3, #0
 2199 0132 C3D1     		bne	.L118
 2200              	.L114:
 2201              	.LBE29:
 603:.\DispenserBLL.c ****             }
 604:.\DispenserBLL.c ****         }
 605:.\DispenserBLL.c ****     }    
 606:.\DispenserBLL.c **** }
 2202              		.loc 1 606 0
 2203 0134 1837     		adds	r7, r7, #24
 2204              		.cfi_def_cfa_offset 8
 2205 0136 BD46     		mov	sp, r7
 2206              		.cfi_def_cfa_register 13
 2207              		@ sp needed
 2208 0138 80BD     		pop	{r7, pc}
 2209              	.L120:
 2210 013a 00BF     		.align	2
 2211              	.L119:
 2212 013c 00000000 		.word	_g_dispenserlayoutinfo
 2213 0140 00000000 		.word	_g_pumps
 2214 0144 00000000 		.word	_g_pumpjobqueue
 2215              		.cfi_endproc
 2216              	.LFE9:
 2217              		.size	DispenserEnumeratePumps, .-DispenserEnumeratePumps
 2218              		.section	.text.DispenserLoadEEPROMSettings,"ax",%progbits
 2219              		.align	2
 2220              		.global	DispenserLoadEEPROMSettings
 2221              		.thumb
 2222              		.thumb_func
 2223              		.type	DispenserLoadEEPROMSettings, %function
 2224              	DispenserLoadEEPROMSettings:
 2225              	.LFB10:
ARM GAS  C:\Users\RECEPC~1\AppData\Local\Temp\ccxS8OWg.s 			page 51


 607:.\DispenserBLL.c **** 
 608:.\DispenserBLL.c **** //@Created by: HIJH
 609:.\DispenserBLL.c **** //@Date: Octobre de 2016
 610:.\DispenserBLL.c **** //Load the initial configuration information currently stored in the NVM
 611:.\DispenserBLL.c **** void DispenserLoadEEPROMSettings(LPVOID pparam)
 612:.\DispenserBLL.c **** {
 2226              		.loc 1 612 0
 2227              		.cfi_startproc
 2228              		@ args = 0, pretend = 0, frame = 8
 2229              		@ frame_needed = 1, uses_anonymous_args = 0
 2230 0000 90B5     		push	{r4, r7, lr}
 2231              		.cfi_def_cfa_offset 12
 2232              		.cfi_offset 4, -12
 2233              		.cfi_offset 7, -8
 2234              		.cfi_offset 14, -4
 2235 0002 83B0     		sub	sp, sp, #12
 2236              		.cfi_def_cfa_offset 24
 2237 0004 00AF     		add	r7, sp, #0
 2238              		.cfi_def_cfa_register 7
 2239 0006 7860     		str	r0, [r7, #4]
 613:.\DispenserBLL.c ****     
 614:.\DispenserBLL.c ****     ClearEepromBuffer();
 2240              		.loc 1 614 0
 2241 0008 FFF7FEFF 		bl	ClearEepromBuffer
 615:.\DispenserBLL.c ****     LoadEepromPage(EEPROM_CONFIGURATION_PAGE7);
 2242              		.loc 1 615 0
 2243 000c 4FF4E070 		mov	r0, #448
 2244 0010 FFF7FEFF 		bl	LoadEepromPage
 616:.\DispenserBLL.c ****     //Dispenser Pumps Offset is stored at position 0x09 in this memory area (see Eeprom.h)
 617:.\DispenserBLL.c ****     _g_dispenserlayoutinfo._positionoffset = GetEepromBuffer()[0x09];
 2245              		.loc 1 617 0
 2246 0014 FFF7FEFF 		bl	GetEepromBuffer
 2247 0018 0346     		mov	r3, r0
 2248 001a 5A7A     		ldrb	r2, [r3, #9]	@ zero_extendqisi2
 2249 001c 6C4B     		ldr	r3, .L126
 2250 001e 9A74     		strb	r2, [r3, #18]
 618:.\DispenserBLL.c **** 
 619:.\DispenserBLL.c ****     //Saving Timeout to Autonomous Mode
 620:.\DispenserBLL.c ****     _g_rfautorun._timeouttoautonomous = GetEepromBuffer()[0x0A];
 2251              		.loc 1 620 0
 2252 0020 FFF7FEFF 		bl	GetEepromBuffer
 2253 0024 0346     		mov	r3, r0
 2254 0026 9A7A     		ldrb	r2, [r3, #10]	@ zero_extendqisi2
 2255 0028 6A4B     		ldr	r3, .L126+4
 2256 002a 1A71     		strb	r2, [r3, #4]
 621:.\DispenserBLL.c ****     
 622:.\DispenserBLL.c ****     //This is the default printer port allocation
 623:.\DispenserBLL.c ****     _g_printerlayout._printerportside1 = (GetEepromBuffer()[0x0B] != 0x00)?GetEepromBuffer()[0x0B]:
 2257              		.loc 1 623 0
 2258 002c FFF7FEFF 		bl	GetEepromBuffer
 2259 0030 0346     		mov	r3, r0
 2260 0032 0B33     		adds	r3, r3, #11
 2261 0034 1B78     		ldrb	r3, [r3]	@ zero_extendqisi2
 2262 0036 002B     		cmp	r3, #0
 2263 0038 04D0     		beq	.L122
 2264              		.loc 1 623 0 is_stmt 0 discriminator 1
 2265 003a FFF7FEFF 		bl	GetEepromBuffer
ARM GAS  C:\Users\RECEPC~1\AppData\Local\Temp\ccxS8OWg.s 			page 52


 2266 003e 0346     		mov	r3, r0
 2267 0040 DB7A     		ldrb	r3, [r3, #11]	@ zero_extendqisi2
 2268 0042 00E0     		b	.L123
 2269              	.L122:
 2270              		.loc 1 623 0 discriminator 2
 2271 0044 1423     		movs	r3, #20
 2272              	.L123:
 2273              		.loc 1 623 0 discriminator 4
 2274 0046 644A     		ldr	r2, .L126+8
 2275 0048 1370     		strb	r3, [r2]
 624:.\DispenserBLL.c ****     _g_printerlayout._printerportside2 = (GetEepromBuffer()[0x0C] != 0x00)?GetEepromBuffer()[0x0C]:
 2276              		.loc 1 624 0 is_stmt 1 discriminator 4
 2277 004a FFF7FEFF 		bl	GetEepromBuffer
 2278 004e 0346     		mov	r3, r0
 2279 0050 0C33     		adds	r3, r3, #12
 2280 0052 1B78     		ldrb	r3, [r3]	@ zero_extendqisi2
 2281 0054 002B     		cmp	r3, #0
 2282 0056 04D0     		beq	.L124
 2283              		.loc 1 624 0 is_stmt 0 discriminator 1
 2284 0058 FFF7FEFF 		bl	GetEepromBuffer
 2285 005c 0346     		mov	r3, r0
 2286 005e 1B7B     		ldrb	r3, [r3, #12]	@ zero_extendqisi2
 2287 0060 00E0     		b	.L125
 2288              	.L124:
 2289              		.loc 1 624 0 discriminator 2
 2290 0062 1623     		movs	r3, #22
 2291              	.L125:
 2292              		.loc 1 624 0 discriminator 4
 2293 0064 5C4A     		ldr	r2, .L126+8
 2294 0066 5370     		strb	r3, [r2, #1]
 625:.\DispenserBLL.c ****     
 626:.\DispenserBLL.c ****     //////////////////////////////////////////////////////////////////////////////////
 627:.\DispenserBLL.c ****     //ONLY FOR TESTING PURPOSES
 628:.\DispenserBLL.c **** //    GetEepromBuffer()[0x0D] = 0x30;
 629:.\DispenserBLL.c **** //    GetEepromBuffer()[0x0E] = 0x32;
 630:.\DispenserBLL.c **** //    GetEepromBuffer()[0x0F] = 0x30;
 631:.\DispenserBLL.c **** //    GetEepromBuffer()[0x10] = 0x34;    
 632:.\DispenserBLL.c **** //    StoreEepromPage(EEPROM_CONFIGURATION_PAGE7);
 633:.\DispenserBLL.c ****     //////////////////////////////////////////////////////////////////////////////////
 634:.\DispenserBLL.c ****     
 635:.\DispenserBLL.c ****     ClearEepromBuffer();
 2295              		.loc 1 635 0 is_stmt 1 discriminator 4
 2296 0068 FFF7FEFF 		bl	ClearEepromBuffer
 636:.\DispenserBLL.c ****     LoadEepromPage(EEPROM_CONFIGURATION_PAGE5);
 2297              		.loc 1 636 0 discriminator 4
 2298 006c 4FF4A070 		mov	r0, #320
 2299 0070 FFF7FEFF 		bl	LoadEepromPage
 637:.\DispenserBLL.c ****     //Station Unique Identifier start at 0x00 and spans 2 bytes in this memory area (see Eeprom.h)
 638:.\DispenserBLL.c ****     _g_stationidentifier = (((uint16)GetEepromBuffer()[0x01] << 8) & 0xFF00) | ((uint16)GetEepromBu
 2300              		.loc 1 638 0 discriminator 4
 2301 0074 FFF7FEFF 		bl	GetEepromBuffer
 2302 0078 0346     		mov	r3, r0
 2303 007a 0133     		adds	r3, r3, #1
 2304 007c 1B78     		ldrb	r3, [r3]	@ zero_extendqisi2
 2305 007e 1B02     		lsls	r3, r3, #8
 2306 0080 9CB2     		uxth	r4, r3
 2307 0082 FFF7FEFF 		bl	GetEepromBuffer
ARM GAS  C:\Users\RECEPC~1\AppData\Local\Temp\ccxS8OWg.s 			page 53


 2308 0086 0346     		mov	r3, r0
 2309 0088 1B78     		ldrb	r3, [r3]	@ zero_extendqisi2
 2310 008a 9BB2     		uxth	r3, r3
 2311 008c 2246     		mov	r2, r4	@ movhi
 2312 008e 1343     		orrs	r3, r3, r2
 2313 0090 9BB2     		uxth	r3, r3
 2314 0092 9AB2     		uxth	r2, r3
 2315 0094 514B     		ldr	r3, .L126+12
 2316 0096 1A80     		strh	r2, [r3]	@ movhi
 639:.\DispenserBLL.c **** 
 640:.\DispenserBLL.c ****     //////////////////////////////////////////////////////////////////////////////////
 641:.\DispenserBLL.c ****     //HERE WE ARE FORCING A MINIMUM MONEY PRESET VALUE SINCE THERE IS NO 
 642:.\DispenserBLL.c ****     //CONFIGURATION STREAM FOR THIS OPTION
 643:.\DispenserBLL.c ****     ClearEepromBuffer();
 2317              		.loc 1 643 0 discriminator 4
 2318 0098 FFF7FEFF 		bl	ClearEepromBuffer
 644:.\DispenserBLL.c ****     //Min Money Preset
 645:.\DispenserBLL.c ****     LoadEepromPage(EEPROM_CONFIGURATION_PAGE5);
 2319              		.loc 1 645 0 discriminator 4
 2320 009c 4FF4A070 		mov	r0, #320
 2321 00a0 FFF7FEFF 		bl	LoadEepromPage
 646:.\DispenserBLL.c ****     memset((PNEAR_BYTE_PTR)&GetEepromBuffer()[0x02], 0x00, 0x10);
 2322              		.loc 1 646 0 discriminator 4
 2323 00a4 FFF7FEFF 		bl	GetEepromBuffer
 2324 00a8 0346     		mov	r3, r0
 2325 00aa 0233     		adds	r3, r3, #2
 2326 00ac 1846     		mov	r0, r3
 2327 00ae 0021     		movs	r1, #0
 2328 00b0 1022     		movs	r2, #16
 2329 00b2 FFF7FEFF 		bl	memset
 647:.\DispenserBLL.c ****     (&GetEepromBuffer()[0x02])[0x00] = 0x00;
 2330              		.loc 1 647 0 discriminator 4
 2331 00b6 FFF7FEFF 		bl	GetEepromBuffer
 2332 00ba 0346     		mov	r3, r0
 2333 00bc 0233     		adds	r3, r3, #2
 2334 00be 0022     		movs	r2, #0
 2335 00c0 1A70     		strb	r2, [r3]
 648:.\DispenserBLL.c ****     (&GetEepromBuffer()[0x02])[0x01] = 0x00;
 2336              		.loc 1 648 0 discriminator 4
 2337 00c2 FFF7FEFF 		bl	GetEepromBuffer
 2338 00c6 0346     		mov	r3, r0
 2339 00c8 0333     		adds	r3, r3, #3
 2340 00ca 0022     		movs	r2, #0
 2341 00cc 1A70     		strb	r2, [r3]
 649:.\DispenserBLL.c ****     (&GetEepromBuffer()[0x02])[0x02] = 0x05;
 2342              		.loc 1 649 0 discriminator 4
 2343 00ce FFF7FEFF 		bl	GetEepromBuffer
 2344 00d2 0346     		mov	r3, r0
 2345 00d4 0433     		adds	r3, r3, #4
 2346 00d6 0522     		movs	r2, #5
 2347 00d8 1A70     		strb	r2, [r3]
 650:.\DispenserBLL.c ****     (&GetEepromBuffer()[0x02])[0x03] = 0x00;
 2348              		.loc 1 650 0 discriminator 4
 2349 00da FFF7FEFF 		bl	GetEepromBuffer
 2350 00de 0346     		mov	r3, r0
 2351 00e0 0533     		adds	r3, r3, #5
 2352 00e2 0022     		movs	r2, #0
ARM GAS  C:\Users\RECEPC~1\AppData\Local\Temp\ccxS8OWg.s 			page 54


 2353 00e4 1A70     		strb	r2, [r3]
 651:.\DispenserBLL.c ****     StoreEepromPage(EEPROM_CONFIGURATION_PAGE5);
 2354              		.loc 1 651 0 discriminator 4
 2355 00e6 4FF4A070 		mov	r0, #320
 2356 00ea FFF7FEFF 		bl	StoreEepromPage
 652:.\DispenserBLL.c ****     //////////////////////////////////////////////////////////////////////////////////
 653:.\DispenserBLL.c ****     
 654:.\DispenserBLL.c ****     //Min PRESET Money index 2 / 16 bytes (see Eeprom.h) Just using 8 bytes meanwhile
 655:.\DispenserBLL.c ****     _g_dispenserlayoutinfo._minmoneyvalue = LSDBCDBUFF2HEX(&GetEepromBuffer()[0x02], 0x08);
 2357              		.loc 1 655 0 discriminator 4
 2358 00ee FFF7FEFF 		bl	GetEepromBuffer
 2359 00f2 0346     		mov	r3, r0
 2360 00f4 0233     		adds	r3, r3, #2
 2361 00f6 1846     		mov	r0, r3
 2362 00f8 0821     		movs	r1, #8
 2363 00fa FFF7FEFF 		bl	LSDBCDBUFF2HEX
 2364 00fe 0346     		mov	r3, r0
 2365 0100 9AB2     		uxth	r2, r3
 2366 0102 334B     		ldr	r3, .L126
 2367 0104 9A81     		strh	r2, [r3, #12]	@ movhi
 656:.\DispenserBLL.c **** 
 657:.\DispenserBLL.c ****     ClearEepromBuffer();
 2368              		.loc 1 657 0 discriminator 4
 2369 0106 FFF7FEFF 		bl	ClearEepromBuffer
 658:.\DispenserBLL.c ****     LoadEepromPage(EEPROM_CONFIGURATION_PAGE6);
 2370              		.loc 1 658 0 discriminator 4
 2371 010a 4FF4C070 		mov	r0, #384
 2372 010e FFF7FEFF 		bl	LoadEepromPage
 659:.\DispenserBLL.c ****     //Min PRESET Volumen index 0 / 16 bytes (see Eeprom.h) => Just using 8 bytes meanwhile
 660:.\DispenserBLL.c ****     _g_dispenserlayoutinfo._minvolumevalue = LSDBCDBUFF2HEX(&GetEepromBuffer()[0x00], 0x08);
 2373              		.loc 1 660 0 discriminator 4
 2374 0112 FFF7FEFF 		bl	GetEepromBuffer
 2375 0116 0346     		mov	r3, r0
 2376 0118 1846     		mov	r0, r3
 2377 011a 0821     		movs	r1, #8
 2378 011c FFF7FEFF 		bl	LSDBCDBUFF2HEX
 2379 0120 0346     		mov	r3, r0
 2380 0122 9AB2     		uxth	r2, r3
 2381 0124 2A4B     		ldr	r3, .L126
 2382 0126 DA81     		strh	r2, [r3, #14]	@ movhi
 661:.\DispenserBLL.c ****     
 662:.\DispenserBLL.c ****     ClearEepromBuffer();
 2383              		.loc 1 662 0 discriminator 4
 2384 0128 FFF7FEFF 		bl	ClearEepromBuffer
 663:.\DispenserBLL.c ****     LoadEepromPage(EEPROM_DISPENSER_PUMP1_LAYOUT_PAGE);
 2385              		.loc 1 663 0 discriminator 4
 2386 012c 4FF40070 		mov	r0, #512
 2387 0130 FFF7FEFF 		bl	LoadEepromPage
 664:.\DispenserBLL.c ****     //Island Operator's Shift Work State [0x00:Closed, 0x01:Open] (5:1)
 665:.\DispenserBLL.c ****     #ifdef PUMPS_UNLOCKED
 666:.\DispenserBLL.c ****     _g_pumps[0x00]._positionlocked = (GetEepromBuffer()[0x05] == 0x00) && false;
 667:.\DispenserBLL.c ****     #endif
 668:.\DispenserBLL.c ****     #ifndef PUMPS_UNLOCKED
 669:.\DispenserBLL.c ****     _g_pumps[0x00]._positionlocked = (GetEepromBuffer()[0x05] == 0x00);
 2388              		.loc 1 669 0 discriminator 4
 2389 0134 FFF7FEFF 		bl	GetEepromBuffer
 2390 0138 0346     		mov	r3, r0
ARM GAS  C:\Users\RECEPC~1\AppData\Local\Temp\ccxS8OWg.s 			page 55


 2391 013a 0533     		adds	r3, r3, #5
 2392 013c 1B78     		ldrb	r3, [r3]	@ zero_extendqisi2
 2393 013e 002B     		cmp	r3, #0
 2394 0140 0CBF     		ite	eq
 2395 0142 0123     		moveq	r3, #1
 2396 0144 0023     		movne	r3, #0
 2397 0146 DAB2     		uxtb	r2, r3
 2398 0148 254B     		ldr	r3, .L126+16
 2399 014a DA72     		strb	r2, [r3, #11]
 670:.\DispenserBLL.c ****     #endif
 671:.\DispenserBLL.c **** 
 672:.\DispenserBLL.c ****     ClearEepromBuffer();
 2400              		.loc 1 672 0 discriminator 4
 2401 014c FFF7FEFF 		bl	ClearEepromBuffer
 673:.\DispenserBLL.c ****     LoadEepromPage(EEPROM_DISPENSER_PUMP2_LAYOUT_PAGE);
 2402              		.loc 1 673 0 discriminator 4
 2403 0150 4FF41070 		mov	r0, #576
 2404 0154 FFF7FEFF 		bl	LoadEepromPage
 674:.\DispenserBLL.c ****     //Island Operator's Shift Work State [0x00:Closed, 0x01:Open] (5:1)
 675:.\DispenserBLL.c ****     #ifdef PUMPS_UNLOCKED
 676:.\DispenserBLL.c ****     _g_pumps[0x01]._positionlocked = (GetEepromBuffer()[0x05] == 0x00) && false;
 677:.\DispenserBLL.c ****     #endif
 678:.\DispenserBLL.c ****     #ifndef PUMPS_UNLOCKED
 679:.\DispenserBLL.c ****     _g_pumps[0x01]._positionlocked = (GetEepromBuffer()[0x05] == 0x00);
 2405              		.loc 1 679 0 discriminator 4
 2406 0158 FFF7FEFF 		bl	GetEepromBuffer
 2407 015c 0346     		mov	r3, r0
 2408 015e 0533     		adds	r3, r3, #5
 2409 0160 1B78     		ldrb	r3, [r3]	@ zero_extendqisi2
 2410 0162 002B     		cmp	r3, #0
 2411 0164 0CBF     		ite	eq
 2412 0166 0123     		moveq	r3, #1
 2413 0168 0023     		movne	r3, #0
 2414 016a DAB2     		uxtb	r2, r3
 2415 016c 1C4B     		ldr	r3, .L126+16
 2416 016e 83F8CB29 		strb	r2, [r3, #2507]
 680:.\DispenserBLL.c ****     #endif
 681:.\DispenserBLL.c **** 
 682:.\DispenserBLL.c ****     ClearEepromBuffer();
 2417              		.loc 1 682 0 discriminator 4
 2418 0172 FFF7FEFF 		bl	ClearEepromBuffer
 683:.\DispenserBLL.c ****     LoadEepromPage(EEPROM_DISPENSER_PUMP3_LAYOUT_PAGE);
 2419              		.loc 1 683 0 discriminator 4
 2420 0176 4FF42070 		mov	r0, #640
 2421 017a FFF7FEFF 		bl	LoadEepromPage
 684:.\DispenserBLL.c ****     //Island Operator's Shift Work State [0x00:Closed, 0x01:Open] (5:1)
 685:.\DispenserBLL.c ****     #ifdef PUMPS_UNLOCKED
 686:.\DispenserBLL.c ****     _g_pumps[0x02]._positionlocked = (GetEepromBuffer()[0x05] == 0x00) && false;
 687:.\DispenserBLL.c ****     #endif
 688:.\DispenserBLL.c ****     #ifndef PUMPS_UNLOCKED
 689:.\DispenserBLL.c ****     _g_pumps[0x02]._positionlocked = (GetEepromBuffer()[0x05] == 0x00);
 2422              		.loc 1 689 0 discriminator 4
 2423 017e FFF7FEFF 		bl	GetEepromBuffer
 2424 0182 0346     		mov	r3, r0
 2425 0184 0533     		adds	r3, r3, #5
 2426 0186 1B78     		ldrb	r3, [r3]	@ zero_extendqisi2
 2427 0188 002B     		cmp	r3, #0
ARM GAS  C:\Users\RECEPC~1\AppData\Local\Temp\ccxS8OWg.s 			page 56


 2428 018a 0CBF     		ite	eq
 2429 018c 0123     		moveq	r3, #1
 2430 018e 0023     		movne	r3, #0
 2431 0190 DAB2     		uxtb	r2, r3
 2432 0192 134B     		ldr	r3, .L126+16
 2433 0194 03F59C53 		add	r3, r3, #4992
 2434 0198 0B33     		adds	r3, r3, #11
 2435 019a 1A70     		strb	r2, [r3]
 690:.\DispenserBLL.c ****     #endif
 691:.\DispenserBLL.c **** 
 692:.\DispenserBLL.c ****     ClearEepromBuffer();
 2436              		.loc 1 692 0 discriminator 4
 2437 019c FFF7FEFF 		bl	ClearEepromBuffer
 693:.\DispenserBLL.c ****     LoadEepromPage(EEPROM_DISPENSER_PUMP4_LAYOUT_PAGE);
 2438              		.loc 1 693 0 discriminator 4
 2439 01a0 4FF43070 		mov	r0, #704
 2440 01a4 FFF7FEFF 		bl	LoadEepromPage
 694:.\DispenserBLL.c ****     //Island Operator's Shift Work State [0x00:Closed, 0x01:Open] (5:1)
 695:.\DispenserBLL.c ****     #ifdef PUMPS_UNLOCKED
 696:.\DispenserBLL.c ****     _g_pumps[0x03]._positionlocked = (GetEepromBuffer()[0x05] == 0x00) && false;
 697:.\DispenserBLL.c ****     #endif
 698:.\DispenserBLL.c ****     #ifndef PUMPS_UNLOCKED
 699:.\DispenserBLL.c ****     _g_pumps[0x03]._positionlocked = (GetEepromBuffer()[0x05] == 0x00);
 2441              		.loc 1 699 0 discriminator 4
 2442 01a8 FFF7FEFF 		bl	GetEepromBuffer
 2443 01ac 0346     		mov	r3, r0
 2444 01ae 0533     		adds	r3, r3, #5
 2445 01b0 1B78     		ldrb	r3, [r3]	@ zero_extendqisi2
 2446 01b2 002B     		cmp	r3, #0
 2447 01b4 0CBF     		ite	eq
 2448 01b6 0123     		moveq	r3, #1
 2449 01b8 0023     		movne	r3, #0
 2450 01ba DAB2     		uxtb	r2, r3
 2451 01bc 084B     		ldr	r3, .L126+16
 2452 01be 03F5EA53 		add	r3, r3, #7488
 2453 01c2 0B33     		adds	r3, r3, #11
 2454 01c4 1A70     		strb	r2, [r3]
 700:.\DispenserBLL.c ****     #endif
 701:.\DispenserBLL.c ****     
 702:.\DispenserBLL.c ****     //FOR TESTING PURPOSES ONLY!!!
 703:.\DispenserBLL.c ****     #ifdef FORCE_DATETIME
 704:.\DispenserBLL.c ****     ClearRtcBuffer();
 705:.\DispenserBLL.c ****     GetRtcBuffer()[0x00] = 0x00;
 706:.\DispenserBLL.c ****     GetRtcBuffer()[0x01] = 0x44;
 707:.\DispenserBLL.c ****     GetRtcBuffer()[0x02] = 0b00010010;
 708:.\DispenserBLL.c ****     GetRtcBuffer()[0x03] = 0x05;
 709:.\DispenserBLL.c ****     GetRtcBuffer()[0x04] = 0x07;
 710:.\DispenserBLL.c ****     GetRtcBuffer()[0x05] = 0x10;
 711:.\DispenserBLL.c ****     GetRtcBuffer()[0x06] = 0x16;
 712:.\DispenserBLL.c ****     UpdateRTC();
 713:.\DispenserBLL.c ****     #endif
 714:.\DispenserBLL.c **** 
 715:.\DispenserBLL.c ****     #ifdef FORCE_PRICES
 716:.\DispenserBLL.c ****     uint8 index = 0x00;
 717:.\DispenserBLL.c ****     
 718:.\DispenserBLL.c ****     ClearEepromBuffer();
 719:.\DispenserBLL.c ****     GetEepromBuffer()[_EEPROM_PAGE_FIRST16START_ + index++] = 0x00;
ARM GAS  C:\Users\RECEPC~1\AppData\Local\Temp\ccxS8OWg.s 			page 57


 720:.\DispenserBLL.c ****     GetEepromBuffer()[_EEPROM_PAGE_FIRST16START_ + index++] = 0x05;
 721:.\DispenserBLL.c ****     GetEepromBuffer()[_EEPROM_PAGE_FIRST16START_ + index++] = 0x08;
 722:.\DispenserBLL.c ****     GetEepromBuffer()[_EEPROM_PAGE_FIRST16START_ + index++] = 0x09;
 723:.\DispenserBLL.c **** 
 724:.\DispenserBLL.c ****     index = 0x00;
 725:.\DispenserBLL.c ****     GetEepromBuffer()[_EEPROM_PAGE_SECOND16START_ + index++] = 0x00;
 726:.\DispenserBLL.c ****     GetEepromBuffer()[_EEPROM_PAGE_SECOND16START_ + index++] = 0x00;
 727:.\DispenserBLL.c ****     GetEepromBuffer()[_EEPROM_PAGE_SECOND16START_ + index++] = 0x02;
 728:.\DispenserBLL.c ****     GetEepromBuffer()[_EEPROM_PAGE_SECOND16START_ + index++] = 0x00;
 729:.\DispenserBLL.c ****     GetEepromBuffer()[_EEPROM_PAGE_SECOND16START_ + index++] = 0x01;
 730:.\DispenserBLL.c **** 
 731:.\DispenserBLL.c ****     index = 0x00;
 732:.\DispenserBLL.c ****     GetEepromBuffer()[_EEPROM_PAGE_THIRD16START_ + index++] = 0x00;
 733:.\DispenserBLL.c ****     GetEepromBuffer()[_EEPROM_PAGE_THIRD16START_ + index++] = 0x05;
 734:.\DispenserBLL.c ****     GetEepromBuffer()[_EEPROM_PAGE_THIRD16START_ + index++] = 0x08;
 735:.\DispenserBLL.c ****     GetEepromBuffer()[_EEPROM_PAGE_THIRD16START_ + index++] = 0x07;
 736:.\DispenserBLL.c **** 
 737:.\DispenserBLL.c ****     index = 0x00;
 738:.\DispenserBLL.c ****     GetEepromBuffer()[_EEPROM_PAGE_SECOND16START_ + index++] = 0x00;
 739:.\DispenserBLL.c ****     GetEepromBuffer()[_EEPROM_PAGE_SECOND16START_ + index++] = 0x00;
 740:.\DispenserBLL.c ****     GetEepromBuffer()[_EEPROM_PAGE_SECOND16START_ + index++] = 0x02;
 741:.\DispenserBLL.c ****     GetEepromBuffer()[_EEPROM_PAGE_SECOND16START_ + index++] = 0x00;
 742:.\DispenserBLL.c ****     GetEepromBuffer()[_EEPROM_PAGE_SECOND16START_ + index++] = 0x01;
 743:.\DispenserBLL.c ****     
 744:.\DispenserBLL.c ****     StoreEepromPage(EEPROM_DISPENSER_PUMP1_PPU_INFO_PAGE);
 745:.\DispenserBLL.c **** 
 746:.\DispenserBLL.c ****     index = 0x00;
 747:.\DispenserBLL.c ****     ClearEepromBuffer();
 748:.\DispenserBLL.c ****     GetEepromBuffer()[_EEPROM_PAGE_FIRST16START_ + index++] = 0x00;
 749:.\DispenserBLL.c ****     GetEepromBuffer()[_EEPROM_PAGE_FIRST16START_ + index++] = 0x05;
 750:.\DispenserBLL.c ****     GetEepromBuffer()[_EEPROM_PAGE_FIRST16START_ + index++] = 0x08;
 751:.\DispenserBLL.c ****     GetEepromBuffer()[_EEPROM_PAGE_FIRST16START_ + index++] = 0x08;
 752:.\DispenserBLL.c **** 
 753:.\DispenserBLL.c ****     index = 0x00;
 754:.\DispenserBLL.c ****     GetEepromBuffer()[_EEPROM_PAGE_SECOND16START_ + index++] = 0x00;
 755:.\DispenserBLL.c ****     GetEepromBuffer()[_EEPROM_PAGE_SECOND16START_ + index++] = 0x05;
 756:.\DispenserBLL.c ****     GetEepromBuffer()[_EEPROM_PAGE_SECOND16START_ + index++] = 0x08;
 757:.\DispenserBLL.c ****     GetEepromBuffer()[_EEPROM_PAGE_SECOND16START_ + index++] = 0x06;
 758:.\DispenserBLL.c **** 
 759:.\DispenserBLL.c ****     index = 0x00;
 760:.\DispenserBLL.c ****     GetEepromBuffer()[_EEPROM_PAGE_THIRD16START_ + index++] = 0x00;
 761:.\DispenserBLL.c ****     GetEepromBuffer()[_EEPROM_PAGE_THIRD16START_ + index++] = 0x05;
 762:.\DispenserBLL.c ****     GetEepromBuffer()[_EEPROM_PAGE_THIRD16START_ + index++] = 0x08;
 763:.\DispenserBLL.c ****     GetEepromBuffer()[_EEPROM_PAGE_THIRD16START_ + index++] = 0x08;
 764:.\DispenserBLL.c **** 
 765:.\DispenserBLL.c ****     index = 0x00;
 766:.\DispenserBLL.c ****     GetEepromBuffer()[_EEPROM_PAGE_FOURTH16START_ + index++] = 0x00;
 767:.\DispenserBLL.c ****     GetEepromBuffer()[_EEPROM_PAGE_FOURTH16START_ + index++] = 0x05;
 768:.\DispenserBLL.c ****     GetEepromBuffer()[_EEPROM_PAGE_FOURTH16START_ + index++] = 0x08;
 769:.\DispenserBLL.c ****     GetEepromBuffer()[_EEPROM_PAGE_FOURTH16START_ + index++] = 0x06;
 770:.\DispenserBLL.c ****     
 771:.\DispenserBLL.c ****     StoreEepromPage(EEPROM_DISPENSER_PUMP2_PPU_INFO_PAGE);
 772:.\DispenserBLL.c ****     
 773:.\DispenserBLL.c ****     index = 0x00;
 774:.\DispenserBLL.c ****     ClearEepromBuffer();
 775:.\DispenserBLL.c ****     GetEepromBuffer()[_EEPROM_PAGE_FIRST16START_ + index++] = 0x00;
 776:.\DispenserBLL.c ****     GetEepromBuffer()[_EEPROM_PAGE_FIRST16START_ + index++] = 0x05;
ARM GAS  C:\Users\RECEPC~1\AppData\Local\Temp\ccxS8OWg.s 			page 58


 777:.\DispenserBLL.c ****     GetEepromBuffer()[_EEPROM_PAGE_FIRST16START_ + index++] = 0x08;
 778:.\DispenserBLL.c ****     GetEepromBuffer()[_EEPROM_PAGE_FIRST16START_ + index++] = 0x08;
 779:.\DispenserBLL.c **** 
 780:.\DispenserBLL.c ****     index = 0x00;
 781:.\DispenserBLL.c ****     GetEepromBuffer()[_EEPROM_PAGE_SECOND16START_ + index++] = 0x00;
 782:.\DispenserBLL.c ****     GetEepromBuffer()[_EEPROM_PAGE_SECOND16START_ + index++] = 0x05;
 783:.\DispenserBLL.c ****     GetEepromBuffer()[_EEPROM_PAGE_SECOND16START_ + index++] = 0x08;
 784:.\DispenserBLL.c ****     GetEepromBuffer()[_EEPROM_PAGE_SECOND16START_ + index++] = 0x06;
 785:.\DispenserBLL.c **** 
 786:.\DispenserBLL.c ****     index = 0x00;
 787:.\DispenserBLL.c ****     GetEepromBuffer()[_EEPROM_PAGE_THIRD16START_ + index++] = 0x00;
 788:.\DispenserBLL.c ****     GetEepromBuffer()[_EEPROM_PAGE_THIRD16START_ + index++] = 0x05;
 789:.\DispenserBLL.c ****     GetEepromBuffer()[_EEPROM_PAGE_THIRD16START_ + index++] = 0x08;
 790:.\DispenserBLL.c ****     GetEepromBuffer()[_EEPROM_PAGE_THIRD16START_ + index++] = 0x08;
 791:.\DispenserBLL.c **** 
 792:.\DispenserBLL.c ****     index = 0x00;
 793:.\DispenserBLL.c ****     GetEepromBuffer()[_EEPROM_PAGE_FOURTH16START_ + index++] = 0x00;
 794:.\DispenserBLL.c ****     GetEepromBuffer()[_EEPROM_PAGE_FOURTH16START_ + index++] = 0x05;
 795:.\DispenserBLL.c ****     GetEepromBuffer()[_EEPROM_PAGE_FOURTH16START_ + index++] = 0x08;
 796:.\DispenserBLL.c ****     GetEepromBuffer()[_EEPROM_PAGE_FOURTH16START_ + index++] = 0x06;
 797:.\DispenserBLL.c ****     
 798:.\DispenserBLL.c ****     StoreEepromPage(EEPROM_DISPENSER_PUMP3_PPU_INFO_PAGE);
 799:.\DispenserBLL.c **** 
 800:.\DispenserBLL.c ****     index = 0x00;
 801:.\DispenserBLL.c ****     ClearEepromBuffer();
 802:.\DispenserBLL.c ****     GetEepromBuffer()[_EEPROM_PAGE_FIRST16START_ + index++] = 0x00;
 803:.\DispenserBLL.c ****     GetEepromBuffer()[_EEPROM_PAGE_FIRST16START_ + index++] = 0x05;
 804:.\DispenserBLL.c ****     GetEepromBuffer()[_EEPROM_PAGE_FIRST16START_ + index++] = 0x08;
 805:.\DispenserBLL.c ****     GetEepromBuffer()[_EEPROM_PAGE_FIRST16START_ + index++] = 0x08;
 806:.\DispenserBLL.c **** 
 807:.\DispenserBLL.c ****     index = 0x00;
 808:.\DispenserBLL.c ****     GetEepromBuffer()[_EEPROM_PAGE_SECOND16START_ + index++] = 0x00;
 809:.\DispenserBLL.c ****     GetEepromBuffer()[_EEPROM_PAGE_SECOND16START_ + index++] = 0x05;
 810:.\DispenserBLL.c ****     GetEepromBuffer()[_EEPROM_PAGE_SECOND16START_ + index++] = 0x08;
 811:.\DispenserBLL.c ****     GetEepromBuffer()[_EEPROM_PAGE_SECOND16START_ + index++] = 0x06;
 812:.\DispenserBLL.c **** 
 813:.\DispenserBLL.c ****     index = 0x00;
 814:.\DispenserBLL.c ****     GetEepromBuffer()[_EEPROM_PAGE_THIRD16START_ + index++] = 0x00;
 815:.\DispenserBLL.c ****     GetEepromBuffer()[_EEPROM_PAGE_THIRD16START_ + index++] = 0x05;
 816:.\DispenserBLL.c ****     GetEepromBuffer()[_EEPROM_PAGE_THIRD16START_ + index++] = 0x08;
 817:.\DispenserBLL.c ****     GetEepromBuffer()[_EEPROM_PAGE_THIRD16START_ + index++] = 0x08;
 818:.\DispenserBLL.c **** 
 819:.\DispenserBLL.c ****     index = 0x00;
 820:.\DispenserBLL.c ****     GetEepromBuffer()[_EEPROM_PAGE_FOURTH16START_ + index++] = 0x00;
 821:.\DispenserBLL.c ****     GetEepromBuffer()[_EEPROM_PAGE_FOURTH16START_ + index++] = 0x05;
 822:.\DispenserBLL.c ****     GetEepromBuffer()[_EEPROM_PAGE_FOURTH16START_ + index++] = 0x08;
 823:.\DispenserBLL.c ****     GetEepromBuffer()[_EEPROM_PAGE_FOURTH16START_ + index++] = 0x06;
 824:.\DispenserBLL.c ****     
 825:.\DispenserBLL.c ****     StoreEepromPage(EEPROM_DISPENSER_PUMP4_PPU_INFO_PAGE);
 826:.\DispenserBLL.c ****     #endif
 827:.\DispenserBLL.c ****     
 828:.\DispenserBLL.c ****     StartRtc();
 2455              		.loc 1 828 0 discriminator 4
 2456 01c6 FFF7FEFF 		bl	StartRtc
 829:.\DispenserBLL.c **** }
 2457              		.loc 1 829 0 discriminator 4
 2458 01ca 0C37     		adds	r7, r7, #12
ARM GAS  C:\Users\RECEPC~1\AppData\Local\Temp\ccxS8OWg.s 			page 59


 2459              		.cfi_def_cfa_offset 12
 2460 01cc BD46     		mov	sp, r7
 2461              		.cfi_def_cfa_register 13
 2462              		@ sp needed
 2463 01ce 90BD     		pop	{r4, r7, pc}
 2464              	.L127:
 2465              		.align	2
 2466              	.L126:
 2467 01d0 00000000 		.word	_g_dispenserlayoutinfo
 2468 01d4 00000000 		.word	_g_rfautorun
 2469 01d8 00000000 		.word	_g_printerlayout
 2470 01dc 00000000 		.word	_g_stationidentifier
 2471 01e0 00000000 		.word	_g_pumps
 2472              		.cfi_endproc
 2473              	.LFE10:
 2474              		.size	DispenserLoadEEPROMSettings, .-DispenserLoadEEPROMSettings
 2475              		.section	.text.DispenserGetEepromPPUPageFromPumpID,"ax",%progbits
 2476              		.align	2
 2477              		.global	DispenserGetEepromPPUPageFromPumpID
 2478              		.thumb
 2479              		.thumb_func
 2480              		.type	DispenserGetEepromPPUPageFromPumpID, %function
 2481              	DispenserGetEepromPPUPageFromPumpID:
 2482              	.LFB11:
 830:.\DispenserBLL.c **** 
 831:.\DispenserBLL.c **** uint16 DispenserGetEepromPPUPageFromPumpID(uint8 pumpid)
 832:.\DispenserBLL.c **** {
 2483              		.loc 1 832 0
 2484              		.cfi_startproc
 2485              		@ args = 0, pretend = 0, frame = 16
 2486              		@ frame_needed = 1, uses_anonymous_args = 0
 2487              		@ link register save eliminated.
 2488 0000 80B4     		push	{r7}
 2489              		.cfi_def_cfa_offset 4
 2490              		.cfi_offset 7, -4
 2491 0002 85B0     		sub	sp, sp, #20
 2492              		.cfi_def_cfa_offset 24
 2493 0004 00AF     		add	r7, sp, #0
 2494              		.cfi_def_cfa_register 7
 2495 0006 0346     		mov	r3, r0
 2496 0008 FB71     		strb	r3, [r7, #7]
 833:.\DispenserBLL.c ****     uint16 retval = 0x00;
 2497              		.loc 1 833 0
 2498 000a 0023     		movs	r3, #0
 2499 000c FB81     		strh	r3, [r7, #14]	@ movhi
 834:.\DispenserBLL.c ****     switch(_g_dispenserlayoutinfo._numpositions)
 2500              		.loc 1 834 0
 2501 000e 264B     		ldr	r3, .L140
 2502 0010 9B78     		ldrb	r3, [r3, #2]	@ zero_extendqisi2
 2503 0012 022B     		cmp	r3, #2
 2504 0014 02D0     		beq	.L130
 2505 0016 042B     		cmp	r3, #4
 2506 0018 14D0     		beq	.L131
 2507 001a 3DE0     		b	.L129
 2508              	.L130:
 835:.\DispenserBLL.c ****     {
 836:.\DispenserBLL.c ****         case 0x02:
ARM GAS  C:\Users\RECEPC~1\AppData\Local\Temp\ccxS8OWg.s 			page 60


 837:.\DispenserBLL.c ****         {
 838:.\DispenserBLL.c ****             if(_g_pumps[0x00]._pumpid == pumpid)
 2509              		.loc 1 838 0
 2510 001c 234B     		ldr	r3, .L140+4
 2511 001e 1B78     		ldrb	r3, [r3]	@ zero_extendqisi2
 2512 0020 FA79     		ldrb	r2, [r7, #7]	@ zero_extendqisi2
 2513 0022 9A42     		cmp	r2, r3
 2514 0024 03D1     		bne	.L132
 839:.\DispenserBLL.c ****                 retval = EEPROM_DISPENSER_PUMP1_PPU_INFO_PAGE;
 2515              		.loc 1 839 0
 2516 0026 4FF48063 		mov	r3, #1024
 2517 002a FB81     		strh	r3, [r7, #14]	@ movhi
 2518 002c 09E0     		b	.L133
 2519              	.L132:
 840:.\DispenserBLL.c ****             else if(_g_pumps[0x01]._pumpid == pumpid)
 2520              		.loc 1 840 0
 2521 002e 1F4B     		ldr	r3, .L140+4
 2522 0030 93F8C039 		ldrb	r3, [r3, #2496]	@ zero_extendqisi2
 2523 0034 FA79     		ldrb	r2, [r7, #7]	@ zero_extendqisi2
 2524 0036 9A42     		cmp	r2, r3
 2525 0038 03D1     		bne	.L133
 841:.\DispenserBLL.c ****                 retval = EEPROM_DISPENSER_PUMP2_PPU_INFO_PAGE;
 2526              		.loc 1 841 0
 2527 003a 4FF48863 		mov	r3, #1088
 2528 003e FB81     		strh	r3, [r7, #14]	@ movhi
 842:.\DispenserBLL.c ****             
 843:.\DispenserBLL.c ****             break;
 2529              		.loc 1 843 0
 2530 0040 2AE0     		b	.L129
 2531              	.L133:
 2532 0042 29E0     		b	.L129
 2533              	.L131:
 844:.\DispenserBLL.c ****         }
 845:.\DispenserBLL.c ****         case 0x04:
 846:.\DispenserBLL.c ****         {
 847:.\DispenserBLL.c ****             if(_g_pumps[0x00]._pumpid == pumpid)
 2534              		.loc 1 847 0
 2535 0044 194B     		ldr	r3, .L140+4
 2536 0046 1B78     		ldrb	r3, [r3]	@ zero_extendqisi2
 2537 0048 FA79     		ldrb	r2, [r7, #7]	@ zero_extendqisi2
 2538 004a 9A42     		cmp	r2, r3
 2539 004c 03D1     		bne	.L134
 848:.\DispenserBLL.c ****                 retval = EEPROM_DISPENSER_PUMP1_PPU_INFO_PAGE;
 2540              		.loc 1 848 0
 2541 004e 4FF48063 		mov	r3, #1024
 2542 0052 FB81     		strh	r3, [r7, #14]	@ movhi
 2543 0054 1FE0     		b	.L135
 2544              	.L134:
 849:.\DispenserBLL.c ****             else if(_g_pumps[0x01]._pumpid == pumpid)
 2545              		.loc 1 849 0
 2546 0056 154B     		ldr	r3, .L140+4
 2547 0058 93F8C039 		ldrb	r3, [r3, #2496]	@ zero_extendqisi2
 2548 005c FA79     		ldrb	r2, [r7, #7]	@ zero_extendqisi2
 2549 005e 9A42     		cmp	r2, r3
 2550 0060 03D1     		bne	.L136
 850:.\DispenserBLL.c ****                 retval = EEPROM_DISPENSER_PUMP2_PPU_INFO_PAGE;
 2551              		.loc 1 850 0
ARM GAS  C:\Users\RECEPC~1\AppData\Local\Temp\ccxS8OWg.s 			page 61


 2552 0062 4FF48863 		mov	r3, #1088
 2553 0066 FB81     		strh	r3, [r7, #14]	@ movhi
 2554 0068 15E0     		b	.L135
 2555              	.L136:
 851:.\DispenserBLL.c ****             else if(_g_pumps[0x02]._pumpid == pumpid)
 2556              		.loc 1 851 0
 2557 006a 104B     		ldr	r3, .L140+4
 2558 006c 03F59C53 		add	r3, r3, #4992
 2559 0070 1B78     		ldrb	r3, [r3]	@ zero_extendqisi2
 2560 0072 FA79     		ldrb	r2, [r7, #7]	@ zero_extendqisi2
 2561 0074 9A42     		cmp	r2, r3
 2562 0076 03D1     		bne	.L137
 852:.\DispenserBLL.c ****                 retval = EEPROM_DISPENSER_PUMP3_PPU_INFO_PAGE;
 2563              		.loc 1 852 0
 2564 0078 4FF49063 		mov	r3, #1152
 2565 007c FB81     		strh	r3, [r7, #14]	@ movhi
 2566 007e 0AE0     		b	.L135
 2567              	.L137:
 853:.\DispenserBLL.c ****             else if(_g_pumps[0x03]._pumpid == pumpid)
 2568              		.loc 1 853 0
 2569 0080 0A4B     		ldr	r3, .L140+4
 2570 0082 03F5EA53 		add	r3, r3, #7488
 2571 0086 1B78     		ldrb	r3, [r3]	@ zero_extendqisi2
 2572 0088 FA79     		ldrb	r2, [r7, #7]	@ zero_extendqisi2
 2573 008a 9A42     		cmp	r2, r3
 2574 008c 03D1     		bne	.L135
 854:.\DispenserBLL.c ****                 retval = EEPROM_DISPENSER_PUMP4_PPU_INFO_PAGE;
 2575              		.loc 1 854 0
 2576 008e 4FF49863 		mov	r3, #1216
 2577 0092 FB81     		strh	r3, [r7, #14]	@ movhi
 855:.\DispenserBLL.c ****             
 856:.\DispenserBLL.c ****             break;
 2578              		.loc 1 856 0
 2579 0094 FFE7     		b	.L139
 2580              	.L135:
 2581              	.L139:
 2582 0096 00BF     		nop
 2583              	.L129:
 857:.\DispenserBLL.c ****         }
 858:.\DispenserBLL.c ****     }
 859:.\DispenserBLL.c ****     return retval;
 2584              		.loc 1 859 0
 2585 0098 FB89     		ldrh	r3, [r7, #14]
 860:.\DispenserBLL.c **** }
 2586              		.loc 1 860 0
 2587 009a 1846     		mov	r0, r3
 2588 009c 1437     		adds	r7, r7, #20
 2589              		.cfi_def_cfa_offset 4
 2590 009e BD46     		mov	sp, r7
 2591              		.cfi_def_cfa_register 13
 2592              		@ sp needed
 2593 00a0 5DF8047B 		ldr	r7, [sp], #4
 2594              		.cfi_restore 7
 2595              		.cfi_def_cfa_offset 0
 2596 00a4 7047     		bx	lr
 2597              	.L141:
 2598 00a6 00BF     		.align	2
ARM GAS  C:\Users\RECEPC~1\AppData\Local\Temp\ccxS8OWg.s 			page 62


 2599              	.L140:
 2600 00a8 00000000 		.word	_g_dispenserlayoutinfo
 2601 00ac 00000000 		.word	_g_pumps
 2602              		.cfi_endproc
 2603              	.LFE11:
 2604              		.size	DispenserGetEepromPPUPageFromPumpID, .-DispenserGetEepromPPUPageFromPumpID
 2605              		.section	.text.GetPumpFromRemotePositionID,"ax",%progbits
 2606              		.align	2
 2607              		.global	GetPumpFromRemotePositionID
 2608              		.thumb
 2609              		.thumb_func
 2610              		.type	GetPumpFromRemotePositionID, %function
 2611              	GetPumpFromRemotePositionID:
 2612              	.LFB12:
 861:.\DispenserBLL.c **** 
 862:.\DispenserBLL.c **** //@Created by: HIJH
 863:.\DispenserBLL.c **** //@Date: Octobre de 2016
 864:.\DispenserBLL.c **** //Gets a pump pointer to the requested positon identifier
 865:.\DispenserBLL.c **** PNEAR_PUMPPTR GetPumpFromRemotePositionID(uint8 positionid)
 866:.\DispenserBLL.c **** {
 2613              		.loc 1 866 0
 2614              		.cfi_startproc
 2615              		@ args = 0, pretend = 0, frame = 16
 2616              		@ frame_needed = 1, uses_anonymous_args = 0
 2617              		@ link register save eliminated.
 2618 0000 80B4     		push	{r7}
 2619              		.cfi_def_cfa_offset 4
 2620              		.cfi_offset 7, -4
 2621 0002 85B0     		sub	sp, sp, #20
 2622              		.cfi_def_cfa_offset 24
 2623 0004 00AF     		add	r7, sp, #0
 2624              		.cfi_def_cfa_register 7
 2625 0006 0346     		mov	r3, r0
 2626 0008 FB71     		strb	r3, [r7, #7]
 867:.\DispenserBLL.c ****     PNEAR_PUMPPTR retval = PNEAR_NULLPTR;
 2627              		.loc 1 867 0
 2628 000a 0023     		movs	r3, #0
 2629 000c FB60     		str	r3, [r7, #12]
 868:.\DispenserBLL.c ****     FOR(uint8 index = 0, index < _g_dispenserlayoutinfo._numpositions, index++)
 2630              		.loc 1 868 0
 2631 000e 0023     		movs	r3, #0
 2632 0010 FB72     		strb	r3, [r7, #11]
 2633 0012 16E0     		b	.L143
 2634              	.L146:
 869:.\DispenserBLL.c ****     {
 870:.\DispenserBLL.c ****         if(positionid == _g_pumps[index]._pumpid)
 2635              		.loc 1 870 0
 2636 0014 FB7A     		ldrb	r3, [r7, #11]	@ zero_extendqisi2
 2637 0016 114A     		ldr	r2, .L148
 2638 0018 4FF41C61 		mov	r1, #2496
 2639 001c 01FB03F3 		mul	r3, r1, r3
 2640 0020 1344     		add	r3, r3, r2
 2641 0022 1B78     		ldrb	r3, [r3]	@ zero_extendqisi2
 2642 0024 FA79     		ldrb	r2, [r7, #7]	@ zero_extendqisi2
 2643 0026 9A42     		cmp	r2, r3
 2644 0028 08D1     		bne	.L144
 871:.\DispenserBLL.c ****         {
ARM GAS  C:\Users\RECEPC~1\AppData\Local\Temp\ccxS8OWg.s 			page 63


 872:.\DispenserBLL.c ****             retval = &_g_pumps[index];
 2645              		.loc 1 872 0
 2646 002a FB7A     		ldrb	r3, [r7, #11]	@ zero_extendqisi2
 2647 002c 4FF41C62 		mov	r2, #2496
 2648 0030 02FB03F3 		mul	r3, r2, r3
 2649 0034 094A     		ldr	r2, .L148
 2650 0036 1344     		add	r3, r3, r2
 2651 0038 FB60     		str	r3, [r7, #12]
 873:.\DispenserBLL.c ****             break;
 2652              		.loc 1 873 0
 2653 003a 07E0     		b	.L145
 2654              	.L144:
 868:.\DispenserBLL.c ****     {
 2655              		.loc 1 868 0 discriminator 2
 2656 003c FB7A     		ldrb	r3, [r7, #11]	@ zero_extendqisi2
 2657 003e 0133     		adds	r3, r3, #1
 2658 0040 FB72     		strb	r3, [r7, #11]
 2659              	.L143:
 868:.\DispenserBLL.c ****     {
 2660              		.loc 1 868 0 is_stmt 0 discriminator 1
 2661 0042 074B     		ldr	r3, .L148+4
 2662 0044 9B78     		ldrb	r3, [r3, #2]	@ zero_extendqisi2
 2663 0046 FA7A     		ldrb	r2, [r7, #11]	@ zero_extendqisi2
 2664 0048 9A42     		cmp	r2, r3
 2665 004a E3D3     		bcc	.L146
 2666              	.L145:
 874:.\DispenserBLL.c ****         }
 875:.\DispenserBLL.c ****     }
 876:.\DispenserBLL.c ****     return retval;
 2667              		.loc 1 876 0 is_stmt 1
 2668 004c FB68     		ldr	r3, [r7, #12]
 877:.\DispenserBLL.c **** }
 2669              		.loc 1 877 0
 2670 004e 1846     		mov	r0, r3
 2671 0050 1437     		adds	r7, r7, #20
 2672              		.cfi_def_cfa_offset 4
 2673 0052 BD46     		mov	sp, r7
 2674              		.cfi_def_cfa_register 13
 2675              		@ sp needed
 2676 0054 5DF8047B 		ldr	r7, [sp], #4
 2677              		.cfi_restore 7
 2678              		.cfi_def_cfa_offset 0
 2679 0058 7047     		bx	lr
 2680              	.L149:
 2681 005a 00BF     		.align	2
 2682              	.L148:
 2683 005c 00000000 		.word	_g_pumps
 2684 0060 00000000 		.word	_g_dispenserlayoutinfo
 2685              		.cfi_endproc
 2686              	.LFE12:
 2687              		.size	GetPumpFromRemotePositionID, .-GetPumpFromRemotePositionID
 2688              		.text
 2689              	.Letext0:
 2690              		.file 2 "c:\\program files (x86)\\cypress\\psoc creator\\3.3\\psoc creator\\import\\gnu\\arm\\4.9.
 2691              		.file 3 "c:\\program files (x86)\\cypress\\psoc creator\\3.3\\psoc creator\\import\\gnu\\arm\\4.9.
 2692              		.file 4 "Generated_Source\\PSoC5/cytypes.h"
 2693              		.file 5 ".\\GlobalDefinitions.h"
ARM GAS  C:\Users\RECEPC~1\AppData\Local\Temp\ccxS8OWg.s 			page 64


 2694              		.file 6 ".\\SinkManager.h"
 2695              		.file 7 ".\\SinkObservables.h"
 2696              		.file 8 ".\\Advantage.h"
 2697              		.file 9 ".\\Dispenser.h"
 2698              		.file 10 ".\\Display.h"
 2699              		.file 11 ".\\Printer.h"
 2700              		.file 12 ".\\Eeprom.h"
 2701              		.file 13 ".\\RFLink.h"
 2702              		.file 14 ".\\Configuration.h"
 2703              		.section	.debug_info,"",%progbits
 2704              	.Ldebug_info0:
 2705 0000 FE160000 		.4byte	0x16fe
 2706 0004 0400     		.2byte	0x4
 2707 0006 00000000 		.4byte	.Ldebug_abbrev0
 2708 000a 04       		.byte	0x4
 2709 000b 01       		.uleb128 0x1
 2710 000c 741A0000 		.4byte	.LASF396
 2711 0010 01       		.byte	0x1
 2712 0011 920A0000 		.4byte	.LASF397
 2713 0015 1A110000 		.4byte	.LASF398
 2714 0019 00000000 		.4byte	.Ldebug_ranges0+0
 2715 001d 00000000 		.4byte	0
 2716 0021 00000000 		.4byte	.Ldebug_line0
 2717 0025 02       		.uleb128 0x2
 2718 0026 01       		.byte	0x1
 2719 0027 06       		.byte	0x6
 2720 0028 7E070000 		.4byte	.LASF0
 2721 002c 03       		.uleb128 0x3
 2722 002d D9040000 		.4byte	.LASF9
 2723 0031 02       		.byte	0x2
 2724 0032 1D       		.byte	0x1d
 2725 0033 37000000 		.4byte	0x37
 2726 0037 02       		.uleb128 0x2
 2727 0038 01       		.byte	0x1
 2728 0039 08       		.byte	0x8
 2729 003a 83080000 		.4byte	.LASF1
 2730 003e 02       		.uleb128 0x2
 2731 003f 02       		.byte	0x2
 2732 0040 05       		.byte	0x5
 2733 0041 82190000 		.4byte	.LASF2
 2734 0045 02       		.uleb128 0x2
 2735 0046 02       		.byte	0x2
 2736 0047 07       		.byte	0x7
 2737 0048 FA1C0000 		.4byte	.LASF3
 2738 004c 02       		.uleb128 0x2
 2739 004d 04       		.byte	0x4
 2740 004e 05       		.byte	0x5
 2741 004f 01060000 		.4byte	.LASF4
 2742 0053 02       		.uleb128 0x2
 2743 0054 04       		.byte	0x4
 2744 0055 07       		.byte	0x7
 2745 0056 120E0000 		.4byte	.LASF5
 2746 005a 02       		.uleb128 0x2
 2747 005b 08       		.byte	0x8
 2748 005c 05       		.byte	0x5
 2749 005d 2E100000 		.4byte	.LASF6
 2750 0061 02       		.uleb128 0x2
ARM GAS  C:\Users\RECEPC~1\AppData\Local\Temp\ccxS8OWg.s 			page 65


 2751 0062 08       		.byte	0x8
 2752 0063 07       		.byte	0x7
 2753 0064 5C160000 		.4byte	.LASF7
 2754 0068 04       		.uleb128 0x4
 2755 0069 04       		.byte	0x4
 2756 006a 05       		.byte	0x5
 2757 006b 696E7400 		.ascii	"int\000"
 2758 006f 02       		.uleb128 0x2
 2759 0070 04       		.byte	0x4
 2760 0071 07       		.byte	0x7
 2761 0072 56120000 		.4byte	.LASF8
 2762 0076 03       		.uleb128 0x3
 2763 0077 99070000 		.4byte	.LASF10
 2764 007b 03       		.byte	0x3
 2765 007c 15       		.byte	0x15
 2766 007d 2C000000 		.4byte	0x2c
 2767 0081 05       		.uleb128 0x5
 2768 0082 3D190000 		.4byte	.LASF11
 2769 0086 04       		.byte	0x4
 2770 0087 3801     		.2byte	0x138
 2771 0089 37000000 		.4byte	0x37
 2772 008d 05       		.uleb128 0x5
 2773 008e 1D1E0000 		.4byte	.LASF12
 2774 0092 04       		.byte	0x4
 2775 0093 3901     		.2byte	0x139
 2776 0095 45000000 		.4byte	0x45
 2777 0099 05       		.uleb128 0x5
 2778 009a 41020000 		.4byte	.LASF13
 2779 009e 04       		.byte	0x4
 2780 009f 3A01     		.2byte	0x13a
 2781 00a1 53000000 		.4byte	0x53
 2782 00a5 02       		.uleb128 0x2
 2783 00a6 04       		.byte	0x4
 2784 00a7 04       		.byte	0x4
 2785 00a8 E6110000 		.4byte	.LASF14
 2786 00ac 02       		.uleb128 0x2
 2787 00ad 08       		.byte	0x8
 2788 00ae 04       		.byte	0x4
 2789 00af D2100000 		.4byte	.LASF15
 2790 00b3 05       		.uleb128 0x5
 2791 00b4 FA050000 		.4byte	.LASF16
 2792 00b8 04       		.byte	0x4
 2793 00b9 4401     		.2byte	0x144
 2794 00bb 61000000 		.4byte	0x61
 2795 00bf 05       		.uleb128 0x5
 2796 00c0 80030000 		.4byte	.LASF17
 2797 00c4 04       		.byte	0x4
 2798 00c5 4901     		.2byte	0x149
 2799 00c7 CB000000 		.4byte	0xcb
 2800 00cb 02       		.uleb128 0x2
 2801 00cc 01       		.byte	0x1
 2802 00cd 08       		.byte	0x8
 2803 00ce D3090000 		.4byte	.LASF18
 2804 00d2 06       		.uleb128 0x6
 2805 00d3 81000000 		.4byte	0x81
 2806 00d7 06       		.uleb128 0x6
 2807 00d8 8D000000 		.4byte	0x8d
ARM GAS  C:\Users\RECEPC~1\AppData\Local\Temp\ccxS8OWg.s 			page 66


 2808 00dc 06       		.uleb128 0x6
 2809 00dd 99000000 		.4byte	0x99
 2810 00e1 02       		.uleb128 0x2
 2811 00e2 04       		.byte	0x4
 2812 00e3 07       		.byte	0x7
 2813 00e4 A5000000 		.4byte	.LASF19
 2814 00e8 07       		.uleb128 0x7
 2815 00e9 04       		.byte	0x4
 2816 00ea 02       		.uleb128 0x2
 2817 00eb 08       		.byte	0x8
 2818 00ec 04       		.byte	0x4
 2819 00ed D0140000 		.4byte	.LASF20
 2820 00f1 03       		.uleb128 0x3
 2821 00f2 CB130000 		.4byte	.LASF21
 2822 00f6 05       		.byte	0x5
 2823 00f7 29       		.byte	0x29
 2824 00f8 E8000000 		.4byte	0xe8
 2825 00fc 03       		.uleb128 0x3
 2826 00fd 8A070000 		.4byte	.LASF22
 2827 0101 05       		.byte	0x5
 2828 0102 50       		.byte	0x50
 2829 0103 07010000 		.4byte	0x107
 2830 0107 08       		.uleb128 0x8
 2831 0108 04       		.byte	0x4
 2832 0109 81000000 		.4byte	0x81
 2833 010d 09       		.uleb128 0x9
 2834 010e 921C0000 		.4byte	.LASF31
 2835 0112 01       		.byte	0x1
 2836 0113 06       		.byte	0x6
 2837 0114 3D       		.byte	0x3d
 2838 0115 4A010000 		.4byte	0x14a
 2839 0119 0A       		.uleb128 0xa
 2840 011a F71D0000 		.4byte	.LASF23
 2841 011e 01       		.sleb128 1
 2842 011f 0A       		.uleb128 0xa
 2843 0120 CC120000 		.4byte	.LASF24
 2844 0124 02       		.sleb128 2
 2845 0125 0A       		.uleb128 0xa
 2846 0126 C0130000 		.4byte	.LASF25
 2847 012a 03       		.sleb128 3
 2848 012b 0A       		.uleb128 0xa
 2849 012c A5180000 		.4byte	.LASF26
 2850 0130 04       		.sleb128 4
 2851 0131 0A       		.uleb128 0xa
 2852 0132 330C0000 		.4byte	.LASF27
 2853 0136 05       		.sleb128 5
 2854 0137 0A       		.uleb128 0xa
 2855 0138 5E1B0000 		.4byte	.LASF28
 2856 013c 06       		.sleb128 6
 2857 013d 0A       		.uleb128 0xa
 2858 013e FD090000 		.4byte	.LASF29
 2859 0142 07       		.sleb128 7
 2860 0143 0A       		.uleb128 0xa
 2861 0144 DF0D0000 		.4byte	.LASF30
 2862 0148 08       		.sleb128 8
 2863 0149 00       		.byte	0
 2864 014a 09       		.uleb128 0x9
ARM GAS  C:\Users\RECEPC~1\AppData\Local\Temp\ccxS8OWg.s 			page 67


 2865 014b DD1D0000 		.4byte	.LASF32
 2866 014f 01       		.byte	0x1
 2867 0150 06       		.byte	0x6
 2868 0151 4A       		.byte	0x4a
 2869 0152 69010000 		.4byte	0x169
 2870 0156 0A       		.uleb128 0xa
 2871 0157 ED1D0000 		.4byte	.LASF33
 2872 015b 01       		.sleb128 1
 2873 015c 0A       		.uleb128 0xa
 2874 015d AE090000 		.4byte	.LASF34
 2875 0161 02       		.sleb128 2
 2876 0162 0A       		.uleb128 0xa
 2877 0163 0D010000 		.4byte	.LASF35
 2878 0167 03       		.sleb128 3
 2879 0168 00       		.byte	0
 2880 0169 0B       		.uleb128 0xb
 2881 016a 46000000 		.4byte	.LASF144
 2882 016e 9801     		.2byte	0x198
 2883 0170 06       		.byte	0x6
 2884 0171 51       		.byte	0x51
 2885 0172 0A020000 		.4byte	0x20a
 2886 0176 0C       		.uleb128 0xc
 2887 0177 DC110000 		.4byte	.LASF36
 2888 017b 06       		.byte	0x6
 2889 017c 53       		.byte	0x53
 2890 017d 0A020000 		.4byte	0x20a
 2891 0181 00       		.byte	0
 2892 0182 0C       		.uleb128 0xc
 2893 0183 1D190000 		.4byte	.LASF37
 2894 0187 06       		.byte	0x6
 2895 0188 54       		.byte	0x54
 2896 0189 D2000000 		.4byte	0xd2
 2897 018d 01       		.byte	0x1
 2898 018e 0C       		.uleb128 0xc
 2899 018f 381B0000 		.4byte	.LASF38
 2900 0193 06       		.byte	0x6
 2901 0194 55       		.byte	0x55
 2902 0195 D2000000 		.4byte	0xd2
 2903 0199 02       		.byte	0x2
 2904 019a 0C       		.uleb128 0xc
 2905 019b 161C0000 		.4byte	.LASF39
 2906 019f 06       		.byte	0x6
 2907 01a0 56       		.byte	0x56
 2908 01a1 D2000000 		.4byte	0xd2
 2909 01a5 03       		.byte	0x3
 2910 01a6 0C       		.uleb128 0xc
 2911 01a7 4D090000 		.4byte	.LASF40
 2912 01ab 06       		.byte	0x6
 2913 01ac 58       		.byte	0x58
 2914 01ad D7000000 		.4byte	0xd7
 2915 01b1 04       		.byte	0x4
 2916 01b2 0C       		.uleb128 0xc
 2917 01b3 900B0000 		.4byte	.LASF41
 2918 01b7 06       		.byte	0x6
 2919 01b8 59       		.byte	0x59
 2920 01b9 D7000000 		.4byte	0xd7
 2921 01bd 06       		.byte	0x6
ARM GAS  C:\Users\RECEPC~1\AppData\Local\Temp\ccxS8OWg.s 			page 68


 2922 01be 0C       		.uleb128 0xc
 2923 01bf 50060000 		.4byte	.LASF42
 2924 01c3 06       		.byte	0x6
 2925 01c4 5A       		.byte	0x5a
 2926 01c5 D7000000 		.4byte	0xd7
 2927 01c9 08       		.byte	0x8
 2928 01ca 0C       		.uleb128 0xc
 2929 01cb 5F1A0000 		.4byte	.LASF43
 2930 01cf 06       		.byte	0x6
 2931 01d0 5B       		.byte	0x5b
 2932 01d1 D7000000 		.4byte	0xd7
 2933 01d5 0A       		.byte	0xa
 2934 01d6 0C       		.uleb128 0xc
 2935 01d7 81050000 		.4byte	.LASF44
 2936 01db 06       		.byte	0x6
 2937 01dc 5C       		.byte	0x5c
 2938 01dd 16020000 		.4byte	0x216
 2939 01e1 0C       		.byte	0xc
 2940 01e2 0D       		.uleb128 0xd
 2941 01e3 431E0000 		.4byte	.LASF45
 2942 01e7 06       		.byte	0x6
 2943 01e8 5D       		.byte	0x5d
 2944 01e9 D7000000 		.4byte	0xd7
 2945 01ed 8C01     		.2byte	0x18c
 2946 01ef 0D       		.uleb128 0xd
 2947 01f0 A40E0000 		.4byte	.LASF46
 2948 01f4 06       		.byte	0x6
 2949 01f5 60       		.byte	0x60
 2950 01f6 E8000000 		.4byte	0xe8
 2951 01fa 9001     		.2byte	0x190
 2952 01fc 0D       		.uleb128 0xd
 2953 01fd FB0E0000 		.4byte	.LASF47
 2954 0201 06       		.byte	0x6
 2955 0202 61       		.byte	0x61
 2956 0203 32020000 		.4byte	0x232
 2957 0207 9401     		.2byte	0x194
 2958 0209 00       		.byte	0
 2959 020a 06       		.uleb128 0x6
 2960 020b 0F020000 		.4byte	0x20f
 2961 020f 02       		.uleb128 0x2
 2962 0210 01       		.byte	0x1
 2963 0211 02       		.byte	0x2
 2964 0212 74090000 		.4byte	.LASF48
 2965 0216 0E       		.uleb128 0xe
 2966 0217 BF000000 		.4byte	0xbf
 2967 021b 27020000 		.4byte	0x227
 2968 021f 0F       		.uleb128 0xf
 2969 0220 E1000000 		.4byte	0xe1
 2970 0224 7F01     		.2byte	0x17f
 2971 0226 00       		.byte	0
 2972 0227 10       		.uleb128 0x10
 2973 0228 32020000 		.4byte	0x232
 2974 022c 11       		.uleb128 0x11
 2975 022d E8000000 		.4byte	0xe8
 2976 0231 00       		.byte	0
 2977 0232 08       		.uleb128 0x8
 2978 0233 04       		.byte	0x4
ARM GAS  C:\Users\RECEPC~1\AppData\Local\Temp\ccxS8OWg.s 			page 69


 2979 0234 27020000 		.4byte	0x227
 2980 0238 03       		.uleb128 0x3
 2981 0239 A5120000 		.4byte	.LASF49
 2982 023d 06       		.byte	0x6
 2983 023e 62       		.byte	0x62
 2984 023f 43020000 		.4byte	0x243
 2985 0243 08       		.uleb128 0x8
 2986 0244 04       		.byte	0x4
 2987 0245 69010000 		.4byte	0x169
 2988 0249 09       		.uleb128 0x9
 2989 024a B2050000 		.4byte	.LASF50
 2990 024e 01       		.byte	0x1
 2991 024f 07       		.byte	0x7
 2992 0250 0F       		.byte	0xf
 2993 0251 40030000 		.4byte	0x340
 2994 0255 0A       		.uleb128 0xa
 2995 0256 7F140000 		.4byte	.LASF51
 2996 025a 01       		.sleb128 1
 2997 025b 0A       		.uleb128 0xa
 2998 025c A0170000 		.4byte	.LASF52
 2999 0260 02       		.sleb128 2
 3000 0261 0A       		.uleb128 0xa
 3001 0262 0F020000 		.4byte	.LASF53
 3002 0266 03       		.sleb128 3
 3003 0267 0A       		.uleb128 0xa
 3004 0268 CC160000 		.4byte	.LASF54
 3005 026c 04       		.sleb128 4
 3006 026d 0A       		.uleb128 0xa
 3007 026e B9010000 		.4byte	.LASF55
 3008 0272 05       		.sleb128 5
 3009 0273 0A       		.uleb128 0xa
 3010 0274 BC030000 		.4byte	.LASF56
 3011 0278 06       		.sleb128 6
 3012 0279 0A       		.uleb128 0xa
 3013 027a A7100000 		.4byte	.LASF57
 3014 027e 07       		.sleb128 7
 3015 027f 0A       		.uleb128 0xa
 3016 0280 BE0E0000 		.4byte	.LASF58
 3017 0284 08       		.sleb128 8
 3018 0285 0A       		.uleb128 0xa
 3019 0286 D60E0000 		.4byte	.LASF59
 3020 028a 09       		.sleb128 9
 3021 028b 0A       		.uleb128 0xa
 3022 028c AE000000 		.4byte	.LASF60
 3023 0290 0A       		.sleb128 10
 3024 0291 0A       		.uleb128 0xa
 3025 0292 B7020000 		.4byte	.LASF61
 3026 0296 0B       		.sleb128 11
 3027 0297 0A       		.uleb128 0xa
 3028 0298 12170000 		.4byte	.LASF62
 3029 029c 0C       		.sleb128 12
 3030 029d 0A       		.uleb128 0xa
 3031 029e 3D1A0000 		.4byte	.LASF63
 3032 02a2 0D       		.sleb128 13
 3033 02a3 0A       		.uleb128 0xa
 3034 02a4 21090000 		.4byte	.LASF64
 3035 02a8 0E       		.sleb128 14
ARM GAS  C:\Users\RECEPC~1\AppData\Local\Temp\ccxS8OWg.s 			page 70


 3036 02a9 0A       		.uleb128 0xa
 3037 02aa 6A060000 		.4byte	.LASF65
 3038 02ae 0F       		.sleb128 15
 3039 02af 0A       		.uleb128 0xa
 3040 02b0 A11C0000 		.4byte	.LASF66
 3041 02b4 10       		.sleb128 16
 3042 02b5 0A       		.uleb128 0xa
 3043 02b6 DD190000 		.4byte	.LASF67
 3044 02ba 11       		.sleb128 17
 3045 02bb 0A       		.uleb128 0xa
 3046 02bc A3030000 		.4byte	.LASF68
 3047 02c0 12       		.sleb128 18
 3048 02c1 0A       		.uleb128 0xa
 3049 02c2 D2130000 		.4byte	.LASF69
 3050 02c6 13       		.sleb128 19
 3051 02c7 0A       		.uleb128 0xa
 3052 02c8 20100000 		.4byte	.LASF70
 3053 02cc 14       		.sleb128 20
 3054 02cd 0A       		.uleb128 0xa
 3055 02ce 4B0B0000 		.4byte	.LASF71
 3056 02d2 15       		.sleb128 21
 3057 02d3 0A       		.uleb128 0xa
 3058 02d4 6C040000 		.4byte	.LASF72
 3059 02d8 16       		.sleb128 22
 3060 02d9 0A       		.uleb128 0xa
 3061 02da 4B1D0000 		.4byte	.LASF73
 3062 02de 17       		.sleb128 23
 3063 02df 0A       		.uleb128 0xa
 3064 02e0 21180000 		.4byte	.LASF74
 3065 02e4 18       		.sleb128 24
 3066 02e5 0A       		.uleb128 0xa
 3067 02e6 43070000 		.4byte	.LASF75
 3068 02ea 19       		.sleb128 25
 3069 02eb 0A       		.uleb128 0xa
 3070 02ec 781C0000 		.4byte	.LASF76
 3071 02f0 1A       		.sleb128 26
 3072 02f1 0A       		.uleb128 0xa
 3073 02f2 FE190000 		.4byte	.LASF77
 3074 02f6 1B       		.sleb128 27
 3075 02f7 0A       		.uleb128 0xa
 3076 02f8 A6020000 		.4byte	.LASF78
 3077 02fc 1C       		.sleb128 28
 3078 02fd 0A       		.uleb128 0xa
 3079 02fe 6A080000 		.4byte	.LASF79
 3080 0302 1D       		.sleb128 29
 3081 0303 0A       		.uleb128 0xa
 3082 0304 6B050000 		.4byte	.LASF80
 3083 0308 1E       		.sleb128 30
 3084 0309 0A       		.uleb128 0xa
 3085 030a 43190000 		.4byte	.LASF81
 3086 030e 1F       		.sleb128 31
 3087 030f 0A       		.uleb128 0xa
 3088 0310 160A0000 		.4byte	.LASF82
 3089 0314 20       		.sleb128 32
 3090 0315 0A       		.uleb128 0xa
 3091 0316 1A070000 		.4byte	.LASF83
 3092 031a 21       		.sleb128 33
ARM GAS  C:\Users\RECEPC~1\AppData\Local\Temp\ccxS8OWg.s 			page 71


 3093 031b 0A       		.uleb128 0xa
 3094 031c 4B1C0000 		.4byte	.LASF84
 3095 0320 22       		.sleb128 34
 3096 0321 0A       		.uleb128 0xa
 3097 0322 F1010000 		.4byte	.LASF85
 3098 0326 23       		.sleb128 35
 3099 0327 0A       		.uleb128 0xa
 3100 0328 FC1D0000 		.4byte	.LASF86
 3101 032c 24       		.sleb128 36
 3102 032d 0A       		.uleb128 0xa
 3103 032e A7130000 		.4byte	.LASF87
 3104 0332 25       		.sleb128 37
 3105 0333 0A       		.uleb128 0xa
 3106 0334 86030000 		.4byte	.LASF88
 3107 0338 26       		.sleb128 38
 3108 0339 0A       		.uleb128 0xa
 3109 033a EE0F0000 		.4byte	.LASF89
 3110 033e 27       		.sleb128 39
 3111 033f 00       		.byte	0
 3112 0340 09       		.uleb128 0x9
 3113 0341 601D0000 		.4byte	.LASF90
 3114 0345 01       		.byte	0x1
 3115 0346 08       		.byte	0x8
 3116 0347 98       		.byte	0x98
 3117 0348 8A030000 		.4byte	0x38a
 3118 034c 0A       		.uleb128 0xa
 3119 034d F0140000 		.4byte	.LASF91
 3120 0351 00       		.sleb128 0
 3121 0352 0A       		.uleb128 0xa
 3122 0353 701B0000 		.4byte	.LASF92
 3123 0357 06       		.sleb128 6
 3124 0358 0A       		.uleb128 0xa
 3125 0359 3A030000 		.4byte	.LASF93
 3126 035d 07       		.sleb128 7
 3127 035e 0A       		.uleb128 0xa
 3128 035f FF010000 		.4byte	.LASF94
 3129 0363 08       		.sleb128 8
 3130 0364 0A       		.uleb128 0xa
 3131 0365 4F1E0000 		.4byte	.LASF95
 3132 0369 09       		.sleb128 9
 3133 036a 0A       		.uleb128 0xa
 3134 036b C2160000 		.4byte	.LASF96
 3135 036f 0A       		.sleb128 10
 3136 0370 0A       		.uleb128 0xa
 3137 0371 2A150000 		.4byte	.LASF97
 3138 0375 0B       		.sleb128 11
 3139 0376 0A       		.uleb128 0xa
 3140 0377 D01D0000 		.4byte	.LASF98
 3141 037b 0C       		.sleb128 12
 3142 037c 0A       		.uleb128 0xa
 3143 037d FA170000 		.4byte	.LASF99
 3144 0381 0D       		.sleb128 13
 3145 0382 0A       		.uleb128 0xa
 3146 0383 99020000 		.4byte	.LASF100
 3147 0387 FF01     		.sleb128 255
 3148 0389 00       		.byte	0
 3149 038a 09       		.uleb128 0x9
ARM GAS  C:\Users\RECEPC~1\AppData\Local\Temp\ccxS8OWg.s 			page 72


 3150 038b 7C0B0000 		.4byte	.LASF101
 3151 038f 01       		.byte	0x1
 3152 0390 08       		.byte	0x8
 3153 0391 EC       		.byte	0xec
 3154 0392 F7030000 		.4byte	0x3f7
 3155 0396 0A       		.uleb128 0xa
 3156 0397 28190000 		.4byte	.LASF102
 3157 039b 0F       		.sleb128 15
 3158 039c 0A       		.uleb128 0xa
 3159 039d D6120000 		.4byte	.LASF103
 3160 03a1 10       		.sleb128 16
 3161 03a2 0A       		.uleb128 0xa
 3162 03a3 3A1C0000 		.4byte	.LASF104
 3163 03a7 C300     		.sleb128 67
 3164 03a9 0A       		.uleb128 0xa
 3165 03aa 7A040000 		.4byte	.LASF105
 3166 03ae C400     		.sleb128 68
 3167 03b0 0A       		.uleb128 0xa
 3168 03b1 73160000 		.4byte	.LASF106
 3169 03b5 C500     		.sleb128 69
 3170 03b7 0A       		.uleb128 0xa
 3171 03b8 54180000 		.4byte	.LASF107
 3172 03bc C600     		.sleb128 70
 3173 03be 0A       		.uleb128 0xa
 3174 03bf D8050000 		.4byte	.LASF108
 3175 03c3 C700     		.sleb128 71
 3176 03c5 0A       		.uleb128 0xa
 3177 03c6 050E0000 		.4byte	.LASF109
 3178 03ca C800     		.sleb128 72
 3179 03cc 0A       		.uleb128 0xa
 3180 03cd 6D1C0000 		.4byte	.LASF110
 3181 03d1 C900     		.sleb128 73
 3182 03d3 0A       		.uleb128 0xa
 3183 03d4 CD060000 		.4byte	.LASF111
 3184 03d8 CA00     		.sleb128 74
 3185 03da 0A       		.uleb128 0xa
 3186 03db 35160000 		.4byte	.LASF112
 3187 03df CB00     		.sleb128 75
 3188 03e1 0A       		.uleb128 0xa
 3189 03e2 D71B0000 		.4byte	.LASF113
 3190 03e6 CC00     		.sleb128 76
 3191 03e8 0A       		.uleb128 0xa
 3192 03e9 BB0B0000 		.4byte	.LASF114
 3193 03ed CD00     		.sleb128 77
 3194 03ef 0A       		.uleb128 0xa
 3195 03f0 240E0000 		.4byte	.LASF115
 3196 03f4 CE00     		.sleb128 78
 3197 03f6 00       		.byte	0
 3198 03f7 12       		.uleb128 0x12
 3199 03f8 A00C0000 		.4byte	.LASF116
 3200 03fc 01       		.byte	0x1
 3201 03fd 08       		.byte	0x8
 3202 03fe 0501     		.2byte	0x105
 3203 0400 11040000 		.4byte	0x411
 3204 0404 0A       		.uleb128 0xa
 3205 0405 591E0000 		.4byte	.LASF117
 3206 0409 01       		.sleb128 1
ARM GAS  C:\Users\RECEPC~1\AppData\Local\Temp\ccxS8OWg.s 			page 73


 3207 040a 0A       		.uleb128 0xa
 3208 040b 4D130000 		.4byte	.LASF118
 3209 040f 02       		.sleb128 2
 3210 0410 00       		.byte	0
 3211 0411 13       		.uleb128 0x13
 3212 0412 0401     		.2byte	0x104
 3213 0414 08       		.byte	0x8
 3214 0415 1801     		.2byte	0x118
 3215 0417 51040000 		.4byte	0x451
 3216 041b 14       		.uleb128 0x14
 3217 041c 48020000 		.4byte	.LASF119
 3218 0420 08       		.byte	0x8
 3219 0421 1A01     		.2byte	0x11a
 3220 0423 81000000 		.4byte	0x81
 3221 0427 00       		.byte	0
 3222 0428 14       		.uleb128 0x14
 3223 0429 E5140000 		.4byte	.LASF120
 3224 042d 08       		.byte	0x8
 3225 042e 1B01     		.2byte	0x11b
 3226 0430 81000000 		.4byte	0x81
 3227 0434 01       		.byte	0x1
 3228 0435 14       		.uleb128 0x14
 3229 0436 81050000 		.4byte	.LASF44
 3230 043a 08       		.byte	0x8
 3231 043b 1C01     		.2byte	0x11c
 3232 043d 51040000 		.4byte	0x451
 3233 0441 02       		.byte	0x2
 3234 0442 15       		.uleb128 0x15
 3235 0443 431E0000 		.4byte	.LASF45
 3236 0447 08       		.byte	0x8
 3237 0448 1D01     		.2byte	0x11d
 3238 044a 8D000000 		.4byte	0x8d
 3239 044e 0201     		.2byte	0x102
 3240 0450 00       		.byte	0
 3241 0451 0E       		.uleb128 0xe
 3242 0452 CB000000 		.4byte	0xcb
 3243 0456 61040000 		.4byte	0x461
 3244 045a 16       		.uleb128 0x16
 3245 045b E1000000 		.4byte	0xe1
 3246 045f FF       		.byte	0xff
 3247 0460 00       		.byte	0
 3248 0461 05       		.uleb128 0x5
 3249 0462 981D0000 		.4byte	.LASF121
 3250 0466 08       		.byte	0x8
 3251 0467 1F01     		.2byte	0x11f
 3252 0469 11040000 		.4byte	0x411
 3253 046d 05       		.uleb128 0x5
 3254 046e 670C0000 		.4byte	.LASF122
 3255 0472 08       		.byte	0x8
 3256 0473 1F01     		.2byte	0x11f
 3257 0475 79040000 		.4byte	0x479
 3258 0479 08       		.uleb128 0x8
 3259 047a 04       		.byte	0x4
 3260 047b 11040000 		.4byte	0x411
 3261 047f 17       		.uleb128 0x17
 3262 0480 40       		.byte	0x40
 3263 0481 08       		.byte	0x8
ARM GAS  C:\Users\RECEPC~1\AppData\Local\Temp\ccxS8OWg.s 			page 74


 3264 0482 2101     		.2byte	0x121
 3265 0484 25050000 		.4byte	0x525
 3266 0488 14       		.uleb128 0x14
 3267 0489 09180000 		.4byte	.LASF123
 3268 048d 08       		.byte	0x8
 3269 048e 2301     		.2byte	0x123
 3270 0490 D2000000 		.4byte	0xd2
 3271 0494 00       		.byte	0
 3272 0495 14       		.uleb128 0x14
 3273 0496 0F180000 		.4byte	.LASF124
 3274 049a 08       		.byte	0x8
 3275 049b 2401     		.2byte	0x124
 3276 049d D2000000 		.4byte	0xd2
 3277 04a1 01       		.byte	0x1
 3278 04a2 14       		.uleb128 0x14
 3279 04a3 15180000 		.4byte	.LASF125
 3280 04a7 08       		.byte	0x8
 3281 04a8 2601     		.2byte	0x126
 3282 04aa D7000000 		.4byte	0xd7
 3283 04ae 02       		.byte	0x2
 3284 04af 14       		.uleb128 0x14
 3285 04b0 1B180000 		.4byte	.LASF126
 3286 04b4 08       		.byte	0x8
 3287 04b5 2701     		.2byte	0x127
 3288 04b7 D7000000 		.4byte	0xd7
 3289 04bb 04       		.byte	0x4
 3290 04bc 14       		.uleb128 0x14
 3291 04bd F8160000 		.4byte	.LASF127
 3292 04c1 08       		.byte	0x8
 3293 04c2 2901     		.2byte	0x129
 3294 04c4 DC000000 		.4byte	0xdc
 3295 04c8 08       		.byte	0x8
 3296 04c9 14       		.uleb128 0x14
 3297 04ca 36180000 		.4byte	.LASF128
 3298 04ce 08       		.byte	0x8
 3299 04cf 2A01     		.2byte	0x12a
 3300 04d1 DC000000 		.4byte	0xdc
 3301 04d5 0C       		.byte	0xc
 3302 04d6 14       		.uleb128 0x14
 3303 04d7 3C180000 		.4byte	.LASF129
 3304 04db 08       		.byte	0x8
 3305 04dc 2F01     		.2byte	0x12f
 3306 04de 25050000 		.4byte	0x525
 3307 04e2 10       		.byte	0x10
 3308 04e3 14       		.uleb128 0x14
 3309 04e4 42180000 		.4byte	.LASF130
 3310 04e8 08       		.byte	0x8
 3311 04e9 3001     		.2byte	0x130
 3312 04eb 25050000 		.4byte	0x525
 3313 04ef 18       		.byte	0x18
 3314 04f0 14       		.uleb128 0x14
 3315 04f1 48180000 		.4byte	.LASF131
 3316 04f5 08       		.byte	0x8
 3317 04f6 3101     		.2byte	0x131
 3318 04f8 25050000 		.4byte	0x525
 3319 04fc 20       		.byte	0x20
 3320 04fd 14       		.uleb128 0x14
ARM GAS  C:\Users\RECEPC~1\AppData\Local\Temp\ccxS8OWg.s 			page 75


 3321 04fe 4E180000 		.4byte	.LASF132
 3322 0502 08       		.byte	0x8
 3323 0503 3201     		.2byte	0x132
 3324 0505 25050000 		.4byte	0x525
 3325 0509 28       		.byte	0x28
 3326 050a 14       		.uleb128 0x14
 3327 050b 69180000 		.4byte	.LASF133
 3328 050f 08       		.byte	0x8
 3329 0510 3401     		.2byte	0x134
 3330 0512 2A050000 		.4byte	0x52a
 3331 0516 30       		.byte	0x30
 3332 0517 14       		.uleb128 0x14
 3333 0518 6F180000 		.4byte	.LASF134
 3334 051c 08       		.byte	0x8
 3335 051d 3501     		.2byte	0x135
 3336 051f 2A050000 		.4byte	0x52a
 3337 0523 38       		.byte	0x38
 3338 0524 00       		.byte	0
 3339 0525 06       		.uleb128 0x6
 3340 0526 B3000000 		.4byte	0xb3
 3341 052a 06       		.uleb128 0x6
 3342 052b AC000000 		.4byte	0xac
 3343 052f 05       		.uleb128 0x5
 3344 0530 2C120000 		.4byte	.LASF135
 3345 0534 08       		.byte	0x8
 3346 0535 3701     		.2byte	0x137
 3347 0537 7F040000 		.4byte	0x47f
 3348 053b 17       		.uleb128 0x17
 3349 053c 18       		.byte	0x18
 3350 053d 08       		.byte	0x8
 3351 053e 3F01     		.2byte	0x13f
 3352 0540 A0050000 		.4byte	0x5a0
 3353 0544 14       		.uleb128 0x14
 3354 0545 C4140000 		.4byte	.LASF136
 3355 0549 08       		.byte	0x8
 3356 054a 4201     		.2byte	0x142
 3357 054c 0A020000 		.4byte	0x20a
 3358 0550 00       		.byte	0
 3359 0551 14       		.uleb128 0x14
 3360 0552 611C0000 		.4byte	.LASF137
 3361 0556 08       		.byte	0x8
 3362 0557 4301     		.2byte	0x143
 3363 0559 D2000000 		.4byte	0xd2
 3364 055d 01       		.byte	0x1
 3365 055e 14       		.uleb128 0x14
 3366 055f 0E1C0000 		.4byte	.LASF138
 3367 0563 08       		.byte	0x8
 3368 0564 4401     		.2byte	0x144
 3369 0566 D2000000 		.4byte	0xd2
 3370 056a 02       		.byte	0x2
 3371 056b 14       		.uleb128 0x14
 3372 056c 4F120000 		.4byte	.LASF139
 3373 0570 08       		.byte	0x8
 3374 0571 4501     		.2byte	0x145
 3375 0573 D7000000 		.4byte	0xd7
 3376 0577 04       		.byte	0x4
 3377 0578 14       		.uleb128 0x14
ARM GAS  C:\Users\RECEPC~1\AppData\Local\Temp\ccxS8OWg.s 			page 76


 3378 0579 31170000 		.4byte	.LASF140
 3379 057d 08       		.byte	0x8
 3380 057e 4601     		.2byte	0x146
 3381 0580 DC000000 		.4byte	0xdc
 3382 0584 08       		.byte	0x8
 3383 0585 14       		.uleb128 0x14
 3384 0586 8A090000 		.4byte	.LASF141
 3385 058a 08       		.byte	0x8
 3386 058b 4701     		.2byte	0x147
 3387 058d DC000000 		.4byte	0xdc
 3388 0591 0C       		.byte	0xc
 3389 0592 14       		.uleb128 0x14
 3390 0593 D1080000 		.4byte	.LASF142
 3391 0597 08       		.byte	0x8
 3392 0598 4801     		.2byte	0x148
 3393 059a A0050000 		.4byte	0x5a0
 3394 059e 10       		.byte	0x10
 3395 059f 00       		.byte	0
 3396 05a0 0E       		.uleb128 0xe
 3397 05a1 BF000000 		.4byte	0xbf
 3398 05a5 B0050000 		.4byte	0x5b0
 3399 05a9 16       		.uleb128 0x16
 3400 05aa E1000000 		.4byte	0xe1
 3401 05ae 07       		.byte	0x7
 3402 05af 00       		.byte	0
 3403 05b0 05       		.uleb128 0x5
 3404 05b1 100D0000 		.4byte	.LASF143
 3405 05b5 08       		.byte	0x8
 3406 05b6 4A01     		.2byte	0x14a
 3407 05b8 3B050000 		.4byte	0x53b
 3408 05bc 18       		.uleb128 0x18
 3409 05bd CB0F0000 		.4byte	.LASF145
 3410 05c1 C009     		.2byte	0x9c0
 3411 05c3 08       		.byte	0x8
 3412 05c4 4D01     		.2byte	0x14d
 3413 05c6 A1070000 		.4byte	0x7a1
 3414 05ca 14       		.uleb128 0x14
 3415 05cb FB0B0000 		.4byte	.LASF146
 3416 05cf 08       		.byte	0x8
 3417 05d0 4F01     		.2byte	0x14f
 3418 05d2 81000000 		.4byte	0x81
 3419 05d6 00       		.byte	0
 3420 05d7 14       		.uleb128 0x14
 3421 05d8 DF180000 		.4byte	.LASF147
 3422 05dc 08       		.byte	0x8
 3423 05dd 5001     		.2byte	0x150
 3424 05df 81000000 		.4byte	0x81
 3425 05e3 01       		.byte	0x1
 3426 05e4 14       		.uleb128 0x14
 3427 05e5 1B060000 		.4byte	.LASF148
 3428 05e9 08       		.byte	0x8
 3429 05ea 5201     		.2byte	0x152
 3430 05ec D2000000 		.4byte	0xd2
 3431 05f0 02       		.byte	0x2
 3432 05f1 14       		.uleb128 0x14
 3433 05f2 9F1B0000 		.4byte	.LASF149
 3434 05f6 08       		.byte	0x8
ARM GAS  C:\Users\RECEPC~1\AppData\Local\Temp\ccxS8OWg.s 			page 77


 3435 05f7 5301     		.2byte	0x153
 3436 05f9 D2000000 		.4byte	0xd2
 3437 05fd 03       		.byte	0x3
 3438 05fe 14       		.uleb128 0x14
 3439 05ff 61150000 		.4byte	.LASF150
 3440 0603 08       		.byte	0x8
 3441 0604 5401     		.2byte	0x154
 3442 0606 D2000000 		.4byte	0xd2
 3443 060a 04       		.byte	0x4
 3444 060b 14       		.uleb128 0x14
 3445 060c D6170000 		.4byte	.LASF151
 3446 0610 08       		.byte	0x8
 3447 0611 5501     		.2byte	0x155
 3448 0613 0A020000 		.4byte	0x20a
 3449 0617 05       		.byte	0x5
 3450 0618 14       		.uleb128 0x14
 3451 0619 C4140000 		.4byte	.LASF136
 3452 061d 08       		.byte	0x8
 3453 061e 5801     		.2byte	0x158
 3454 0620 0A020000 		.4byte	0x20a
 3455 0624 06       		.byte	0x6
 3456 0625 14       		.uleb128 0x14
 3457 0626 26060000 		.4byte	.LASF152
 3458 062a 08       		.byte	0x8
 3459 062b 5901     		.2byte	0x159
 3460 062d 0A020000 		.4byte	0x20a
 3461 0631 07       		.byte	0x7
 3462 0632 14       		.uleb128 0x14
 3463 0633 5D170000 		.4byte	.LASF153
 3464 0637 08       		.byte	0x8
 3465 0638 5A01     		.2byte	0x15a
 3466 063a 0A020000 		.4byte	0x20a
 3467 063e 08       		.byte	0x8
 3468 063f 14       		.uleb128 0x14
 3469 0640 11190000 		.4byte	.LASF154
 3470 0644 08       		.byte	0x8
 3471 0645 5B01     		.2byte	0x15b
 3472 0647 0A020000 		.4byte	0x20a
 3473 064b 09       		.byte	0x9
 3474 064c 14       		.uleb128 0x14
 3475 064d 0A060000 		.4byte	.LASF155
 3476 0651 08       		.byte	0x8
 3477 0652 5C01     		.2byte	0x15c
 3478 0654 D2000000 		.4byte	0xd2
 3479 0658 0A       		.byte	0xa
 3480 0659 14       		.uleb128 0x14
 3481 065a A30A0000 		.4byte	.LASF156
 3482 065e 08       		.byte	0x8
 3483 065f 5D01     		.2byte	0x15d
 3484 0661 0A020000 		.4byte	0x20a
 3485 0665 0B       		.byte	0xb
 3486 0666 14       		.uleb128 0x14
 3487 0667 22000000 		.4byte	.LASF157
 3488 066b 08       		.byte	0x8
 3489 066c 5E01     		.2byte	0x15e
 3490 066e D2000000 		.4byte	0xd2
 3491 0672 0C       		.byte	0xc
ARM GAS  C:\Users\RECEPC~1\AppData\Local\Temp\ccxS8OWg.s 			page 78


 3492 0673 14       		.uleb128 0x14
 3493 0674 D01C0000 		.4byte	.LASF158
 3494 0678 08       		.byte	0x8
 3495 0679 6001     		.2byte	0x160
 3496 067b 0A020000 		.4byte	0x20a
 3497 067f 0D       		.byte	0xd
 3498 0680 14       		.uleb128 0x14
 3499 0681 CD110000 		.4byte	.LASF159
 3500 0685 08       		.byte	0x8
 3501 0686 6201     		.2byte	0x162
 3502 0688 DC000000 		.4byte	0xdc
 3503 068c 10       		.byte	0x10
 3504 068d 14       		.uleb128 0x14
 3505 068e 9E0D0000 		.4byte	.LASF160
 3506 0692 08       		.byte	0x8
 3507 0693 6301     		.2byte	0x163
 3508 0695 DC000000 		.4byte	0xdc
 3509 0699 14       		.byte	0x14
 3510 069a 14       		.uleb128 0x14
 3511 069b 270A0000 		.4byte	.LASF161
 3512 069f 08       		.byte	0x8
 3513 06a0 6601     		.2byte	0x166
 3514 06a2 D2000000 		.4byte	0xd2
 3515 06a6 18       		.byte	0x18
 3516 06a7 14       		.uleb128 0x14
 3517 06a8 E5140000 		.4byte	.LASF120
 3518 06ac 08       		.byte	0x8
 3519 06ad 6701     		.2byte	0x167
 3520 06af D2000000 		.4byte	0xd2
 3521 06b3 19       		.byte	0x19
 3522 06b4 14       		.uleb128 0x14
 3523 06b5 85160000 		.4byte	.LASF162
 3524 06b9 08       		.byte	0x8
 3525 06ba 6901     		.2byte	0x169
 3526 06bc E8000000 		.4byte	0xe8
 3527 06c0 1C       		.byte	0x1c
 3528 06c1 14       		.uleb128 0x14
 3529 06c2 E40C0000 		.4byte	.LASF163
 3530 06c6 08       		.byte	0x8
 3531 06c7 6A01     		.2byte	0x16a
 3532 06c9 16020000 		.4byte	0x216
 3533 06cd 20       		.byte	0x20
 3534 06ce 15       		.uleb128 0x15
 3535 06cf 480C0000 		.4byte	.LASF164
 3536 06d3 08       		.byte	0x8
 3537 06d4 6C01     		.2byte	0x16c
 3538 06d6 16020000 		.4byte	0x216
 3539 06da A001     		.2byte	0x1a0
 3540 06dc 15       		.uleb128 0x15
 3541 06dd E3010000 		.4byte	.LASF165
 3542 06e1 08       		.byte	0x8
 3543 06e2 6D01     		.2byte	0x16d
 3544 06e4 8D000000 		.4byte	0x8d
 3545 06e8 2003     		.2byte	0x320
 3546 06ea 15       		.uleb128 0x15
 3547 06eb D0030000 		.4byte	.LASF166
 3548 06ef 08       		.byte	0x8
ARM GAS  C:\Users\RECEPC~1\AppData\Local\Temp\ccxS8OWg.s 			page 79


 3549 06f0 7101     		.2byte	0x171
 3550 06f2 A1070000 		.4byte	0x7a1
 3551 06f6 2203     		.2byte	0x322
 3552 06f8 15       		.uleb128 0x15
 3553 06f9 250B0000 		.4byte	.LASF167
 3554 06fd 08       		.byte	0x8
 3555 06fe 7301     		.2byte	0x173
 3556 0700 0A020000 		.4byte	0x20a
 3557 0704 3A09     		.2byte	0x93a
 3558 0706 15       		.uleb128 0x15
 3559 0707 A6190000 		.4byte	.LASF168
 3560 070b 08       		.byte	0x8
 3561 070c 7501     		.2byte	0x175
 3562 070e 32020000 		.4byte	0x232
 3563 0712 3C09     		.2byte	0x93c
 3564 0714 15       		.uleb128 0x15
 3565 0715 241E0000 		.4byte	.LASF169
 3566 0719 08       		.byte	0x8
 3567 071a 7601     		.2byte	0x176
 3568 071c 32020000 		.4byte	0x232
 3569 0720 4009     		.2byte	0x940
 3570 0722 15       		.uleb128 0x15
 3571 0723 0D1D0000 		.4byte	.LASF170
 3572 0727 08       		.byte	0x8
 3573 0728 7701     		.2byte	0x177
 3574 072a C5070000 		.4byte	0x7c5
 3575 072e 4409     		.2byte	0x944
 3576 0730 15       		.uleb128 0x15
 3577 0731 111A0000 		.4byte	.LASF171
 3578 0735 08       		.byte	0x8
 3579 0736 7801     		.2byte	0x178
 3580 0738 DB070000 		.4byte	0x7db
 3581 073c 4809     		.2byte	0x948
 3582 073e 15       		.uleb128 0x15
 3583 073f A4040000 		.4byte	.LASF172
 3584 0743 08       		.byte	0x8
 3585 0744 7901     		.2byte	0x179
 3586 0746 DB070000 		.4byte	0x7db
 3587 074a 4C09     		.2byte	0x94c
 3588 074c 15       		.uleb128 0x15
 3589 074d C6190000 		.4byte	.LASF173
 3590 0751 08       		.byte	0x8
 3591 0752 7A01     		.2byte	0x17a
 3592 0754 F0070000 		.4byte	0x7f0
 3593 0758 5009     		.2byte	0x950
 3594 075a 15       		.uleb128 0x15
 3595 075b BD090000 		.4byte	.LASF174
 3596 075f 08       		.byte	0x8
 3597 0760 7B01     		.2byte	0x17b
 3598 0762 F0070000 		.4byte	0x7f0
 3599 0766 5409     		.2byte	0x954
 3600 0768 15       		.uleb128 0x15
 3601 0769 B51B0000 		.4byte	.LASF175
 3602 076d 08       		.byte	0x8
 3603 076e 7D01     		.2byte	0x17d
 3604 0770 05080000 		.4byte	0x805
 3605 0774 5809     		.2byte	0x958
ARM GAS  C:\Users\RECEPC~1\AppData\Local\Temp\ccxS8OWg.s 			page 80


 3606 0776 15       		.uleb128 0x15
 3607 0777 AF1D0000 		.4byte	.LASF176
 3608 077b 08       		.byte	0x8
 3609 077c 7F01     		.2byte	0x17f
 3610 077e 2F050000 		.4byte	0x52f
 3611 0782 6009     		.2byte	0x960
 3612 0784 15       		.uleb128 0x15
 3613 0785 C41B0000 		.4byte	.LASF177
 3614 0789 08       		.byte	0x8
 3615 078a 8001     		.2byte	0x180
 3616 078c B0050000 		.4byte	0x5b0
 3617 0790 A009     		.2byte	0x9a0
 3618 0792 15       		.uleb128 0x15
 3619 0793 C9150000 		.4byte	.LASF178
 3620 0797 08       		.byte	0x8
 3621 0798 8201     		.2byte	0x182
 3622 079a 32020000 		.4byte	0x232
 3623 079e B809     		.2byte	0x9b8
 3624 07a0 00       		.byte	0
 3625 07a1 0E       		.uleb128 0xe
 3626 07a2 61040000 		.4byte	0x461
 3627 07a6 B1070000 		.4byte	0x7b1
 3628 07aa 16       		.uleb128 0x16
 3629 07ab E1000000 		.4byte	0xe1
 3630 07af 05       		.byte	0x5
 3631 07b0 00       		.byte	0
 3632 07b1 19       		.uleb128 0x19
 3633 07b2 0F020000 		.4byte	0x20f
 3634 07b6 C5070000 		.4byte	0x7c5
 3635 07ba 11       		.uleb128 0x11
 3636 07bb E8000000 		.4byte	0xe8
 3637 07bf 11       		.uleb128 0x11
 3638 07c0 81000000 		.4byte	0x81
 3639 07c4 00       		.byte	0
 3640 07c5 08       		.uleb128 0x8
 3641 07c6 04       		.byte	0x4
 3642 07c7 B1070000 		.4byte	0x7b1
 3643 07cb 10       		.uleb128 0x10
 3644 07cc DB070000 		.4byte	0x7db
 3645 07d0 11       		.uleb128 0x11
 3646 07d1 E8000000 		.4byte	0xe8
 3647 07d5 11       		.uleb128 0x11
 3648 07d6 6D040000 		.4byte	0x46d
 3649 07da 00       		.byte	0
 3650 07db 08       		.uleb128 0x8
 3651 07dc 04       		.byte	0x4
 3652 07dd CB070000 		.4byte	0x7cb
 3653 07e1 19       		.uleb128 0x19
 3654 07e2 6D040000 		.4byte	0x46d
 3655 07e6 F0070000 		.4byte	0x7f0
 3656 07ea 11       		.uleb128 0x11
 3657 07eb E8000000 		.4byte	0xe8
 3658 07ef 00       		.byte	0
 3659 07f0 08       		.uleb128 0x8
 3660 07f1 04       		.byte	0x4
 3661 07f2 E1070000 		.4byte	0x7e1
 3662 07f6 19       		.uleb128 0x19
ARM GAS  C:\Users\RECEPC~1\AppData\Local\Temp\ccxS8OWg.s 			page 81


 3663 07f7 0F020000 		.4byte	0x20f
 3664 07fb 05080000 		.4byte	0x805
 3665 07ff 11       		.uleb128 0x11
 3666 0800 E8000000 		.4byte	0xe8
 3667 0804 00       		.byte	0
 3668 0805 08       		.uleb128 0x8
 3669 0806 04       		.byte	0x4
 3670 0807 F6070000 		.4byte	0x7f6
 3671 080b 05       		.uleb128 0x5
 3672 080c 19160000 		.4byte	.LASF179
 3673 0810 08       		.byte	0x8
 3674 0811 8401     		.2byte	0x184
 3675 0813 BC050000 		.4byte	0x5bc
 3676 0817 05       		.uleb128 0x5
 3677 0818 43150000 		.4byte	.LASF180
 3678 081c 08       		.byte	0x8
 3679 081d 8401     		.2byte	0x184
 3680 081f 23080000 		.4byte	0x823
 3681 0823 08       		.uleb128 0x8
 3682 0824 04       		.byte	0x4
 3683 0825 BC050000 		.4byte	0x5bc
 3684 0829 1A       		.uleb128 0x1a
 3685 082a 91140000 		.4byte	.LASF181
 3686 082e 34       		.byte	0x34
 3687 082f 08       		.byte	0x8
 3688 0830 8901     		.2byte	0x189
 3689 0832 ED080000 		.4byte	0x8ed
 3690 0836 14       		.uleb128 0x14
 3691 0837 EA180000 		.4byte	.LASF182
 3692 083b 08       		.byte	0x8
 3693 083c 8B01     		.2byte	0x18b
 3694 083e 32020000 		.4byte	0x232
 3695 0842 00       		.byte	0
 3696 0843 14       		.uleb128 0x14
 3697 0844 E5070000 		.4byte	.LASF183
 3698 0848 08       		.byte	0x8
 3699 0849 8C01     		.2byte	0x18c
 3700 084b 32020000 		.4byte	0x232
 3701 084f 04       		.byte	0x4
 3702 0850 14       		.uleb128 0x14
 3703 0851 B9150000 		.4byte	.LASF184
 3704 0855 08       		.byte	0x8
 3705 0856 8D01     		.2byte	0x18d
 3706 0858 32020000 		.4byte	0x232
 3707 085c 08       		.byte	0x8
 3708 085d 14       		.uleb128 0x14
 3709 085e 77000000 		.4byte	.LASF185
 3710 0862 08       		.byte	0x8
 3711 0863 8E01     		.2byte	0x18e
 3712 0865 06090000 		.4byte	0x906
 3713 0869 0C       		.byte	0xc
 3714 086a 14       		.uleb128 0x14
 3715 086b BA1C0000 		.4byte	.LASF186
 3716 086f 08       		.byte	0x8
 3717 0870 8F01     		.2byte	0x18f
 3718 0872 8D000000 		.4byte	0x8d
 3719 0876 10       		.byte	0x10
ARM GAS  C:\Users\RECEPC~1\AppData\Local\Temp\ccxS8OWg.s 			page 82


 3720 0877 14       		.uleb128 0x14
 3721 0878 FE160000 		.4byte	.LASF187
 3722 087c 08       		.byte	0x8
 3723 087d 9001     		.2byte	0x190
 3724 087f 99000000 		.4byte	0x99
 3725 0883 14       		.byte	0x14
 3726 0884 14       		.uleb128 0x14
 3727 0885 520C0000 		.4byte	.LASF188
 3728 0889 08       		.byte	0x8
 3729 088a 9101     		.2byte	0x191
 3730 088c 81000000 		.4byte	0x81
 3731 0890 18       		.byte	0x18
 3732 0891 14       		.uleb128 0x14
 3733 0892 241C0000 		.4byte	.LASF189
 3734 0896 08       		.byte	0x8
 3735 0897 9301     		.2byte	0x193
 3736 0899 0F020000 		.4byte	0x20f
 3737 089d 19       		.byte	0x19
 3738 089e 14       		.uleb128 0x14
 3739 089f 340A0000 		.4byte	.LASF190
 3740 08a3 08       		.byte	0x8
 3741 08a4 9701     		.2byte	0x197
 3742 08a6 0C090000 		.4byte	0x90c
 3743 08aa 1A       		.byte	0x1a
 3744 08ab 14       		.uleb128 0x14
 3745 08ac 34150000 		.4byte	.LASF191
 3746 08b0 08       		.byte	0x8
 3747 08b1 9901     		.2byte	0x199
 3748 08b3 1C090000 		.4byte	0x91c
 3749 08b7 1E       		.byte	0x1e
 3750 08b8 14       		.uleb128 0x14
 3751 08b9 B5120000 		.4byte	.LASF192
 3752 08bd 08       		.byte	0x8
 3753 08be 9D01     		.2byte	0x19d
 3754 08c0 0C090000 		.4byte	0x90c
 3755 08c4 22       		.byte	0x22
 3756 08c5 14       		.uleb128 0x14
 3757 08c6 47030000 		.4byte	.LASF193
 3758 08ca 08       		.byte	0x8
 3759 08cb 9F01     		.2byte	0x19f
 3760 08cd 1C090000 		.4byte	0x91c
 3761 08d1 26       		.byte	0x26
 3762 08d2 14       		.uleb128 0x14
 3763 08d3 24040000 		.4byte	.LASF194
 3764 08d7 08       		.byte	0x8
 3765 08d8 A101     		.2byte	0x1a1
 3766 08da 32020000 		.4byte	0x232
 3767 08de 2C       		.byte	0x2c
 3768 08df 14       		.uleb128 0x14
 3769 08e0 EE0E0000 		.4byte	.LASF195
 3770 08e4 08       		.byte	0x8
 3771 08e5 A201     		.2byte	0x1a2
 3772 08e7 32020000 		.4byte	0x232
 3773 08eb 30       		.byte	0x30
 3774 08ec 00       		.byte	0
 3775 08ed 19       		.uleb128 0x19
 3776 08ee 0F020000 		.4byte	0x20f
ARM GAS  C:\Users\RECEPC~1\AppData\Local\Temp\ccxS8OWg.s 			page 83


 3777 08f2 06090000 		.4byte	0x906
 3778 08f6 11       		.uleb128 0x11
 3779 08f7 E8000000 		.4byte	0xe8
 3780 08fb 11       		.uleb128 0x11
 3781 08fc E8000000 		.4byte	0xe8
 3782 0900 11       		.uleb128 0x11
 3783 0901 8D000000 		.4byte	0x8d
 3784 0905 00       		.byte	0
 3785 0906 08       		.uleb128 0x8
 3786 0907 04       		.byte	0x4
 3787 0908 ED080000 		.4byte	0x8ed
 3788 090c 0E       		.uleb128 0xe
 3789 090d 0F020000 		.4byte	0x20f
 3790 0911 1C090000 		.4byte	0x91c
 3791 0915 16       		.uleb128 0x16
 3792 0916 E1000000 		.4byte	0xe1
 3793 091a 03       		.byte	0x3
 3794 091b 00       		.byte	0
 3795 091c 0E       		.uleb128 0xe
 3796 091d 81000000 		.4byte	0x81
 3797 0921 2C090000 		.4byte	0x92c
 3798 0925 16       		.uleb128 0x16
 3799 0926 E1000000 		.4byte	0xe1
 3800 092a 03       		.byte	0x3
 3801 092b 00       		.byte	0
 3802 092c 05       		.uleb128 0x5
 3803 092d 6B070000 		.4byte	.LASF196
 3804 0931 08       		.byte	0x8
 3805 0932 A301     		.2byte	0x1a3
 3806 0934 29080000 		.4byte	0x829
 3807 0938 05       		.uleb128 0x5
 3808 0939 BD040000 		.4byte	.LASF197
 3809 093d 08       		.byte	0x8
 3810 093e A301     		.2byte	0x1a3
 3811 0940 44090000 		.4byte	0x944
 3812 0944 08       		.uleb128 0x8
 3813 0945 04       		.byte	0x4
 3814 0946 29080000 		.4byte	0x829
 3815 094a 18       		.uleb128 0x18
 3816 094b CB000000 		.4byte	.LASF198
 3817 094f AC03     		.2byte	0x3ac
 3818 0951 08       		.byte	0x8
 3819 0952 A501     		.2byte	0x1a5
 3820 0954 73090000 		.4byte	0x973
 3821 0958 14       		.uleb128 0x14
 3822 0959 3C100000 		.4byte	.LASF199
 3823 095d 08       		.byte	0x8
 3824 095e A701     		.2byte	0x1a7
 3825 0960 76000000 		.4byte	0x76
 3826 0964 00       		.byte	0
 3827 0965 14       		.uleb128 0x14
 3828 0966 DD010000 		.4byte	.LASF200
 3829 096a 08       		.byte	0x8
 3830 096b A801     		.2byte	0x1a8
 3831 096d 73090000 		.4byte	0x973
 3832 0971 04       		.byte	0x4
 3833 0972 00       		.byte	0
ARM GAS  C:\Users\RECEPC~1\AppData\Local\Temp\ccxS8OWg.s 			page 84


 3834 0973 0E       		.uleb128 0xe
 3835 0974 2C090000 		.4byte	0x92c
 3836 0978 83090000 		.4byte	0x983
 3837 097c 16       		.uleb128 0x16
 3838 097d E1000000 		.4byte	0xe1
 3839 0981 11       		.byte	0x11
 3840 0982 00       		.byte	0
 3841 0983 05       		.uleb128 0x5
 3842 0984 06090000 		.4byte	.LASF201
 3843 0988 08       		.byte	0x8
 3844 0989 A901     		.2byte	0x1a9
 3845 098b 4A090000 		.4byte	0x94a
 3846 098f 05       		.uleb128 0x5
 3847 0990 CC070000 		.4byte	.LASF202
 3848 0994 08       		.byte	0x8
 3849 0995 A901     		.2byte	0x1a9
 3850 0997 9B090000 		.4byte	0x99b
 3851 099b 08       		.uleb128 0x8
 3852 099c 04       		.byte	0x4
 3853 099d 4A090000 		.4byte	0x94a
 3854 09a1 17       		.uleb128 0x17
 3855 09a2 28       		.byte	0x28
 3856 09a3 08       		.byte	0x8
 3857 09a4 B201     		.2byte	0x1b2
 3858 09a6 7B0A0000 		.4byte	0xa7b
 3859 09aa 14       		.uleb128 0x14
 3860 09ab 490F0000 		.4byte	.LASF203
 3861 09af 08       		.byte	0x8
 3862 09b0 B401     		.2byte	0x1b4
 3863 09b2 0A020000 		.4byte	0x20a
 3864 09b6 00       		.byte	0
 3865 09b7 14       		.uleb128 0x14
 3866 09b8 BE1D0000 		.4byte	.LASF204
 3867 09bc 08       		.byte	0x8
 3868 09bd B501     		.2byte	0x1b5
 3869 09bf D2000000 		.4byte	0xd2
 3870 09c3 01       		.byte	0x1
 3871 09c4 14       		.uleb128 0x14
 3872 09c5 48020000 		.4byte	.LASF119
 3873 09c9 08       		.byte	0x8
 3874 09ca B801     		.2byte	0x1b8
 3875 09cc D2000000 		.4byte	0xd2
 3876 09d0 02       		.byte	0x2
 3877 09d1 14       		.uleb128 0x14
 3878 09d2 AE0D0000 		.4byte	.LASF205
 3879 09d6 08       		.byte	0x8
 3880 09d7 BA01     		.2byte	0x1ba
 3881 09d9 D7000000 		.4byte	0xd7
 3882 09dd 04       		.byte	0x4
 3883 09de 14       		.uleb128 0x14
 3884 09df 3E120000 		.4byte	.LASF206
 3885 09e3 08       		.byte	0x8
 3886 09e4 BB01     		.2byte	0x1bb
 3887 09e6 D7000000 		.4byte	0xd7
 3888 09ea 06       		.byte	0x6
 3889 09eb 14       		.uleb128 0x14
 3890 09ec 221B0000 		.4byte	.LASF207
ARM GAS  C:\Users\RECEPC~1\AppData\Local\Temp\ccxS8OWg.s 			page 85


 3891 09f0 08       		.byte	0x8
 3892 09f1 BD01     		.2byte	0x1bd
 3893 09f3 D7000000 		.4byte	0xd7
 3894 09f7 08       		.byte	0x8
 3895 09f8 14       		.uleb128 0x14
 3896 09f9 FB1B0000 		.4byte	.LASF208
 3897 09fd 08       		.byte	0x8
 3898 09fe BE01     		.2byte	0x1be
 3899 0a00 D7000000 		.4byte	0xd7
 3900 0a04 0A       		.byte	0xa
 3901 0a05 14       		.uleb128 0x14
 3902 0a06 8C000000 		.4byte	.LASF209
 3903 0a0a 08       		.byte	0x8
 3904 0a0b BF01     		.2byte	0x1bf
 3905 0a0d D7000000 		.4byte	0xd7
 3906 0a11 0C       		.byte	0xc
 3907 0a12 14       		.uleb128 0x14
 3908 0a13 E9130000 		.4byte	.LASF210
 3909 0a17 08       		.byte	0x8
 3910 0a18 C101     		.2byte	0x1c1
 3911 0a1a D7000000 		.4byte	0xd7
 3912 0a1e 0E       		.byte	0xe
 3913 0a1f 14       		.uleb128 0x14
 3914 0a20 8E0F0000 		.4byte	.LASF211
 3915 0a24 08       		.byte	0x8
 3916 0a25 C201     		.2byte	0x1c2
 3917 0a27 D7000000 		.4byte	0xd7
 3918 0a2b 10       		.byte	0x10
 3919 0a2c 14       		.uleb128 0x14
 3920 0a2d C5050000 		.4byte	.LASF212
 3921 0a31 08       		.byte	0x8
 3922 0a32 C301     		.2byte	0x1c3
 3923 0a34 D7000000 		.4byte	0xd7
 3924 0a38 12       		.byte	0x12
 3925 0a39 14       		.uleb128 0x14
 3926 0a3a 470E0000 		.4byte	.LASF213
 3927 0a3e 08       		.byte	0x8
 3928 0a3f C501     		.2byte	0x1c5
 3929 0a41 7B0A0000 		.4byte	0xa7b
 3930 0a45 14       		.byte	0x14
 3931 0a46 14       		.uleb128 0x14
 3932 0a47 43080000 		.4byte	.LASF214
 3933 0a4b 08       		.byte	0x8
 3934 0a4c C601     		.2byte	0x1c6
 3935 0a4e 7B0A0000 		.4byte	0xa7b
 3936 0a52 18       		.byte	0x18
 3937 0a53 14       		.uleb128 0x14
 3938 0a54 B30A0000 		.4byte	.LASF215
 3939 0a58 08       		.byte	0x8
 3940 0a59 C701     		.2byte	0x1c7
 3941 0a5b 810A0000 		.4byte	0xa81
 3942 0a5f 1C       		.byte	0x1c
 3943 0a60 14       		.uleb128 0x14
 3944 0a61 FB0E0000 		.4byte	.LASF47
 3945 0a65 08       		.byte	0x8
 3946 0a66 C901     		.2byte	0x1c9
 3947 0a68 32020000 		.4byte	0x232
ARM GAS  C:\Users\RECEPC~1\AppData\Local\Temp\ccxS8OWg.s 			page 86


 3948 0a6c 20       		.byte	0x20
 3949 0a6d 14       		.uleb128 0x14
 3950 0a6e A40E0000 		.4byte	.LASF46
 3951 0a72 08       		.byte	0x8
 3952 0a73 CA01     		.2byte	0x1ca
 3953 0a75 E8000000 		.4byte	0xe8
 3954 0a79 24       		.byte	0x24
 3955 0a7a 00       		.byte	0
 3956 0a7b 08       		.uleb128 0x8
 3957 0a7c 04       		.byte	0x4
 3958 0a7d 2C090000 		.4byte	0x92c
 3959 0a81 08       		.uleb128 0x8
 3960 0a82 04       		.byte	0x4
 3961 0a83 0B080000 		.4byte	0x80b
 3962 0a87 05       		.uleb128 0x5
 3963 0a88 97160000 		.4byte	.LASF216
 3964 0a8c 08       		.byte	0x8
 3965 0a8d CC01     		.2byte	0x1cc
 3966 0a8f A1090000 		.4byte	0x9a1
 3967 0a93 05       		.uleb128 0x5
 3968 0a94 60130000 		.4byte	.LASF217
 3969 0a98 08       		.byte	0x8
 3970 0a99 CC01     		.2byte	0x1cc
 3971 0a9b 9F0A0000 		.4byte	0xa9f
 3972 0a9f 08       		.uleb128 0x8
 3973 0aa0 04       		.byte	0x4
 3974 0aa1 A1090000 		.4byte	0x9a1
 3975 0aa5 18       		.uleb128 0x18
 3976 0aa6 CC010000 		.4byte	.LASF218
 3977 0aaa 5C08     		.2byte	0x85c
 3978 0aac 08       		.byte	0x8
 3979 0aad CE01     		.2byte	0x1ce
 3980 0aaf 300B0000 		.4byte	0xb30
 3981 0ab3 14       		.uleb128 0x14
 3982 0ab4 EC120000 		.4byte	.LASF219
 3983 0ab8 08       		.byte	0x8
 3984 0ab9 D001     		.2byte	0x1d0
 3985 0abb D7000000 		.4byte	0xd7
 3986 0abf 00       		.byte	0
 3987 0ac0 14       		.uleb128 0x14
 3988 0ac1 E6150000 		.4byte	.LASF220
 3989 0ac5 08       		.byte	0x8
 3990 0ac6 D201     		.2byte	0x1d2
 3991 0ac8 300B0000 		.4byte	0xb30
 3992 0acc 04       		.byte	0x4
 3993 0acd 15       		.uleb128 0x15
 3994 0ace E7060000 		.4byte	.LASF221
 3995 0ad2 08       		.byte	0x8
 3996 0ad3 D301     		.2byte	0x1d3
 3997 0ad5 400B0000 		.4byte	0xb40
 3998 0ad9 8407     		.2byte	0x784
 3999 0adb 15       		.uleb128 0x15
 4000 0adc 600C0000 		.4byte	.LASF222
 4001 0ae0 08       		.byte	0x8
 4002 0ae1 D501     		.2byte	0x1d5
 4003 0ae3 32020000 		.4byte	0x232
 4004 0ae7 4408     		.2byte	0x844
ARM GAS  C:\Users\RECEPC~1\AppData\Local\Temp\ccxS8OWg.s 			page 87


 4005 0ae9 15       		.uleb128 0x15
 4006 0aea DC140000 		.4byte	.LASF223
 4007 0aee 08       		.byte	0x8
 4008 0aef D601     		.2byte	0x1d6
 4009 0af1 650B0000 		.4byte	0xb65
 4010 0af5 4808     		.2byte	0x848
 4011 0af7 15       		.uleb128 0x15
 4012 0af8 FF0C0000 		.4byte	.LASF224
 4013 0afc 08       		.byte	0x8
 4014 0afd D701     		.2byte	0x1d7
 4015 0aff 7B0B0000 		.4byte	0xb7b
 4016 0b03 4C08     		.2byte	0x84c
 4017 0b05 15       		.uleb128 0x15
 4018 0b06 58070000 		.4byte	.LASF225
 4019 0b0a 08       		.byte	0x8
 4020 0b0b D801     		.2byte	0x1d8
 4021 0b0d 650B0000 		.4byte	0xb65
 4022 0b11 5008     		.2byte	0x850
 4023 0b13 15       		.uleb128 0x15
 4024 0b14 351A0000 		.4byte	.LASF226
 4025 0b18 08       		.byte	0x8
 4026 0b19 D901     		.2byte	0x1d9
 4027 0b1b 32020000 		.4byte	0x232
 4028 0b1f 5408     		.2byte	0x854
 4029 0b21 15       		.uleb128 0x15
 4030 0b22 D90B0000 		.4byte	.LASF227
 4031 0b26 08       		.byte	0x8
 4032 0b27 DA01     		.2byte	0x1da
 4033 0b29 32020000 		.4byte	0x232
 4034 0b2d 5808     		.2byte	0x858
 4035 0b2f 00       		.byte	0
 4036 0b30 0E       		.uleb128 0xe
 4037 0b31 870A0000 		.4byte	0xa87
 4038 0b35 400B0000 		.4byte	0xb40
 4039 0b39 16       		.uleb128 0x16
 4040 0b3a E1000000 		.4byte	0xe1
 4041 0b3e 2F       		.byte	0x2f
 4042 0b3f 00       		.byte	0
 4043 0b40 0E       		.uleb128 0xe
 4044 0b41 500B0000 		.4byte	0xb50
 4045 0b45 500B0000 		.4byte	0xb50
 4046 0b49 16       		.uleb128 0x16
 4047 0b4a E1000000 		.4byte	0xe1
 4048 0b4e 2F       		.byte	0x2f
 4049 0b4f 00       		.byte	0
 4050 0b50 08       		.uleb128 0x8
 4051 0b51 04       		.byte	0x4
 4052 0b52 870A0000 		.4byte	0xa87
 4053 0b56 19       		.uleb128 0x19
 4054 0b57 500B0000 		.4byte	0xb50
 4055 0b5b 650B0000 		.4byte	0xb65
 4056 0b5f 11       		.uleb128 0x11
 4057 0b60 E8000000 		.4byte	0xe8
 4058 0b64 00       		.byte	0
 4059 0b65 08       		.uleb128 0x8
 4060 0b66 04       		.byte	0x4
 4061 0b67 560B0000 		.4byte	0xb56
ARM GAS  C:\Users\RECEPC~1\AppData\Local\Temp\ccxS8OWg.s 			page 88


 4062 0b6b 10       		.uleb128 0x10
 4063 0b6c 7B0B0000 		.4byte	0xb7b
 4064 0b70 11       		.uleb128 0x11
 4065 0b71 E8000000 		.4byte	0xe8
 4066 0b75 11       		.uleb128 0x11
 4067 0b76 500B0000 		.4byte	0xb50
 4068 0b7a 00       		.byte	0
 4069 0b7b 08       		.uleb128 0x8
 4070 0b7c 04       		.byte	0x4
 4071 0b7d 6B0B0000 		.4byte	0xb6b
 4072 0b81 05       		.uleb128 0x5
 4073 0b82 4F020000 		.4byte	.LASF228
 4074 0b86 08       		.byte	0x8
 4075 0b87 DC01     		.2byte	0x1dc
 4076 0b89 A50A0000 		.4byte	0xaa5
 4077 0b8d 17       		.uleb128 0x17
 4078 0b8e 14       		.byte	0x14
 4079 0b8f 08       		.byte	0x8
 4080 0b90 E801     		.2byte	0x1e8
 4081 0b92 770C0000 		.4byte	0xc77
 4082 0b96 14       		.uleb128 0x14
 4083 0b97 F40D0000 		.4byte	.LASF229
 4084 0b9b 08       		.byte	0x8
 4085 0b9c EA01     		.2byte	0x1ea
 4086 0b9e 0A020000 		.4byte	0x20a
 4087 0ba2 00       		.byte	0
 4088 0ba3 14       		.uleb128 0x14
 4089 0ba4 B1160000 		.4byte	.LASF230
 4090 0ba8 08       		.byte	0x8
 4091 0ba9 EB01     		.2byte	0x1eb
 4092 0bab 0A020000 		.4byte	0x20a
 4093 0baf 01       		.byte	0x1
 4094 0bb0 14       		.uleb128 0x14
 4095 0bb1 91080000 		.4byte	.LASF231
 4096 0bb5 08       		.byte	0x8
 4097 0bb6 EF01     		.2byte	0x1ef
 4098 0bb8 81000000 		.4byte	0x81
 4099 0bbc 02       		.byte	0x2
 4100 0bbd 14       		.uleb128 0x14
 4101 0bbe 51150000 		.4byte	.LASF232
 4102 0bc2 08       		.byte	0x8
 4103 0bc3 FD01     		.2byte	0x1fd
 4104 0bc5 81000000 		.4byte	0x81
 4105 0bc9 03       		.byte	0x3
 4106 0bca 14       		.uleb128 0x14
 4107 0bcb 7A090000 		.4byte	.LASF233
 4108 0bcf 08       		.byte	0x8
 4109 0bd0 FE01     		.2byte	0x1fe
 4110 0bd2 81000000 		.4byte	0x81
 4111 0bd6 04       		.byte	0x4
 4112 0bd7 14       		.uleb128 0x14
 4113 0bd8 72150000 		.4byte	.LASF234
 4114 0bdc 08       		.byte	0x8
 4115 0bdd FF01     		.2byte	0x1ff
 4116 0bdf 81000000 		.4byte	0x81
 4117 0be3 05       		.byte	0x5
 4118 0be4 14       		.uleb128 0x14
ARM GAS  C:\Users\RECEPC~1\AppData\Local\Temp\ccxS8OWg.s 			page 89


 4119 0be5 82150000 		.4byte	.LASF235
 4120 0be9 08       		.byte	0x8
 4121 0bea 0002     		.2byte	0x200
 4122 0bec 81000000 		.4byte	0x81
 4123 0bf0 06       		.byte	0x6
 4124 0bf1 14       		.uleb128 0x14
 4125 0bf2 740A0000 		.4byte	.LASF236
 4126 0bf6 08       		.byte	0x8
 4127 0bf7 0202     		.2byte	0x202
 4128 0bf9 81000000 		.4byte	0x81
 4129 0bfd 07       		.byte	0x7
 4130 0bfe 14       		.uleb128 0x14
 4131 0bff EE0B0000 		.4byte	.LASF237
 4132 0c03 08       		.byte	0x8
 4133 0c04 0302     		.2byte	0x203
 4134 0c06 81000000 		.4byte	0x81
 4135 0c0a 08       		.byte	0x8
 4136 0c0b 14       		.uleb128 0x14
 4137 0c0c 5B090000 		.4byte	.LASF238
 4138 0c10 08       		.byte	0x8
 4139 0c11 0402     		.2byte	0x204
 4140 0c13 81000000 		.4byte	0x81
 4141 0c17 09       		.byte	0x9
 4142 0c18 14       		.uleb128 0x14
 4143 0c19 3A000000 		.4byte	.LASF239
 4144 0c1d 08       		.byte	0x8
 4145 0c1e 0602     		.2byte	0x206
 4146 0c20 81000000 		.4byte	0x81
 4147 0c24 0A       		.byte	0xa
 4148 0c25 14       		.uleb128 0x14
 4149 0c26 830A0000 		.4byte	.LASF240
 4150 0c2a 08       		.byte	0x8
 4151 0c2b 0802     		.2byte	0x208
 4152 0c2d 8D000000 		.4byte	0x8d
 4153 0c31 0C       		.byte	0xc
 4154 0c32 14       		.uleb128 0x14
 4155 0c33 A9150000 		.4byte	.LASF241
 4156 0c37 08       		.byte	0x8
 4157 0c38 0902     		.2byte	0x209
 4158 0c3a 8D000000 		.4byte	0x8d
 4159 0c3e 0E       		.byte	0xe
 4160 0c3f 14       		.uleb128 0x14
 4161 0c40 0A1E0000 		.4byte	.LASF242
 4162 0c44 08       		.byte	0x8
 4163 0c45 0B02     		.2byte	0x20b
 4164 0c47 81000000 		.4byte	0x81
 4165 0c4b 10       		.byte	0x10
 4166 0c4c 14       		.uleb128 0x14
 4167 0c4d F8080000 		.4byte	.LASF243
 4168 0c51 08       		.byte	0x8
 4169 0c52 0D02     		.2byte	0x20d
 4170 0c54 81000000 		.4byte	0x81
 4171 0c58 11       		.byte	0x11
 4172 0c59 14       		.uleb128 0x14
 4173 0c5a 12000000 		.4byte	.LASF244
 4174 0c5e 08       		.byte	0x8
 4175 0c5f 0F02     		.2byte	0x20f
ARM GAS  C:\Users\RECEPC~1\AppData\Local\Temp\ccxS8OWg.s 			page 90


 4176 0c61 81000000 		.4byte	0x81
 4177 0c65 12       		.byte	0x12
 4178 0c66 1B       		.uleb128 0x1b
 4179 0c67 F8120000 		.4byte	.LASF399
 4180 0c6b 08       		.byte	0x8
 4181 0c6c 1102     		.2byte	0x211
 4182 0c6e 81000000 		.4byte	0x81
 4183 0c72 01       		.byte	0x1
 4184 0c73 01       		.byte	0x1
 4185 0c74 07       		.byte	0x7
 4186 0c75 13       		.byte	0x13
 4187 0c76 00       		.byte	0
 4188 0c77 05       		.uleb128 0x5
 4189 0c78 8C170000 		.4byte	.LASF245
 4190 0c7c 08       		.byte	0x8
 4191 0c7d 1202     		.2byte	0x212
 4192 0c7f 8D0B0000 		.4byte	0xb8d
 4193 0c83 1C       		.uleb128 0x1c
 4194 0c84 08       		.byte	0x8
 4195 0c85 09       		.byte	0x9
 4196 0c86 6A       		.byte	0x6a
 4197 0c87 B00C0000 		.4byte	0xcb0
 4198 0c8b 0C       		.uleb128 0xc
 4199 0c8c B80E0000 		.4byte	.LASF246
 4200 0c90 09       		.byte	0x9
 4201 0c91 6C       		.byte	0x6c
 4202 0c92 81000000 		.4byte	0x81
 4203 0c96 00       		.byte	0
 4204 0c97 0C       		.uleb128 0xc
 4205 0c98 D2020000 		.4byte	.LASF247
 4206 0c9c 09       		.byte	0x9
 4207 0c9d 6D       		.byte	0x6d
 4208 0c9e 81000000 		.4byte	0x81
 4209 0ca2 01       		.byte	0x1
 4210 0ca3 0C       		.uleb128 0xc
 4211 0ca4 B30A0000 		.4byte	.LASF215
 4212 0ca8 09       		.byte	0x9
 4213 0ca9 6E       		.byte	0x6e
 4214 0caa 17080000 		.4byte	0x817
 4215 0cae 04       		.byte	0x4
 4216 0caf 00       		.byte	0
 4217 0cb0 03       		.uleb128 0x3
 4218 0cb1 33070000 		.4byte	.LASF248
 4219 0cb5 09       		.byte	0x9
 4220 0cb6 6F       		.byte	0x6f
 4221 0cb7 830C0000 		.4byte	0xc83
 4222 0cbb 03       		.uleb128 0x3
 4223 0cbc 55000000 		.4byte	.LASF249
 4224 0cc0 09       		.byte	0x9
 4225 0cc1 8C       		.byte	0x8c
 4226 0cc2 32020000 		.4byte	0x232
 4227 0cc6 09       		.uleb128 0x9
 4228 0cc7 8A0E0000 		.4byte	.LASF250
 4229 0ccb 01       		.byte	0x1
 4230 0ccc 0A       		.byte	0xa
 4231 0ccd 21       		.byte	0x21
 4232 0cce 390E0000 		.4byte	0xe39
ARM GAS  C:\Users\RECEPC~1\AppData\Local\Temp\ccxS8OWg.s 			page 91


 4233 0cd2 0A       		.uleb128 0xa
 4234 0cd3 030C0000 		.4byte	.LASF251
 4235 0cd7 01       		.sleb128 1
 4236 0cd8 0A       		.uleb128 0xa
 4237 0cd9 130C0000 		.4byte	.LASF252
 4238 0cdd 02       		.sleb128 2
 4239 0cde 0A       		.uleb128 0xa
 4240 0cdf 230C0000 		.4byte	.LASF253
 4241 0ce3 03       		.sleb128 3
 4242 0ce4 0A       		.uleb128 0xa
 4243 0ce5 41160000 		.4byte	.LASF254
 4244 0ce9 04       		.sleb128 4
 4245 0cea 0A       		.uleb128 0xa
 4246 0ceb A00B0000 		.4byte	.LASF255
 4247 0cef 05       		.sleb128 5
 4248 0cf0 0A       		.uleb128 0xa
 4249 0cf1 9F080000 		.4byte	.LASF256
 4250 0cf5 06       		.sleb128 6
 4251 0cf6 0A       		.uleb128 0xa
 4252 0cf7 24050000 		.4byte	.LASF257
 4253 0cfb 0F       		.sleb128 15
 4254 0cfc 0A       		.uleb128 0xa
 4255 0cfd 79110000 		.4byte	.LASF258
 4256 0d01 FE00     		.sleb128 126
 4257 0d03 0A       		.uleb128 0xa
 4258 0d04 96110000 		.4byte	.LASF259
 4259 0d08 8601     		.sleb128 134
 4260 0d0a 0A       		.uleb128 0xa
 4261 0d0b DE000000 		.4byte	.LASF260
 4262 0d0f 07       		.sleb128 7
 4263 0d10 0A       		.uleb128 0xa
 4264 0d11 E6170000 		.4byte	.LASF261
 4265 0d15 08       		.sleb128 8
 4266 0d16 0A       		.uleb128 0xa
 4267 0d17 370B0000 		.4byte	.LASF262
 4268 0d1b 09       		.sleb128 9
 4269 0d1c 0A       		.uleb128 0xa
 4270 0d1d 75180000 		.4byte	.LASF263
 4271 0d21 0A       		.sleb128 10
 4272 0d22 0A       		.uleb128 0xa
 4273 0d23 6B100000 		.4byte	.LASF264
 4274 0d27 0B       		.sleb128 11
 4275 0d28 0A       		.uleb128 0xa
 4276 0d29 0C0B0000 		.4byte	.LASF265
 4277 0d2d 25       		.sleb128 37
 4278 0d2e 0A       		.uleb128 0xa
 4279 0d2f 02110000 		.4byte	.LASF266
 4280 0d33 26       		.sleb128 38
 4281 0d34 0A       		.uleb128 0xa
 4282 0d35 B3110000 		.4byte	.LASF267
 4283 0d39 27       		.sleb128 39
 4284 0d3a 0A       		.uleb128 0xa
 4285 0d3b 92150000 		.4byte	.LASF268
 4286 0d3f 2F       		.sleb128 47
 4287 0d40 0A       		.uleb128 0xa
 4288 0d41 B4070000 		.4byte	.LASF269
 4289 0d45 2C       		.sleb128 44
ARM GAS  C:\Users\RECEPC~1\AppData\Local\Temp\ccxS8OWg.s 			page 92


 4290 0d46 0A       		.uleb128 0xa
 4291 0d47 89100000 		.4byte	.LASF270
 4292 0d4b 0C       		.sleb128 12
 4293 0d4c 0A       		.uleb128 0xa
 4294 0d4d A1070000 		.4byte	.LASF271
 4295 0d51 8501     		.sleb128 133
 4296 0d53 0A       		.uleb128 0xa
 4297 0d54 8C120000 		.4byte	.LASF272
 4298 0d58 1C       		.sleb128 28
 4299 0d59 0A       		.uleb128 0xa
 4300 0d5a D1150000 		.4byte	.LASF273
 4301 0d5e 12       		.sleb128 18
 4302 0d5f 0A       		.uleb128 0xa
 4303 0d60 780F0000 		.4byte	.LASF274
 4304 0d64 13       		.sleb128 19
 4305 0d65 0A       		.uleb128 0xa
 4306 0d66 081B0000 		.4byte	.LASF275
 4307 0d6a 24       		.sleb128 36
 4308 0d6b 0A       		.uleb128 0xa
 4309 0d6c 8A180000 		.4byte	.LASF276
 4310 0d70 0D       		.sleb128 13
 4311 0d71 0A       		.uleb128 0xa
 4312 0d72 FB060000 		.4byte	.LASF277
 4313 0d76 0E       		.sleb128 14
 4314 0d77 0A       		.uleb128 0xa
 4315 0d78 16150000 		.4byte	.LASF278
 4316 0d7c 8301     		.sleb128 131
 4317 0d7e 0A       		.uleb128 0xa
 4318 0d7f 0C050000 		.4byte	.LASF279
 4319 0d83 DA00     		.sleb128 90
 4320 0d85 0A       		.uleb128 0xa
 4321 0d86 B3180000 		.4byte	.LASF280
 4322 0d8a 31       		.sleb128 49
 4323 0d8b 0A       		.uleb128 0xa
 4324 0d8c 6F0E0000 		.4byte	.LASF281
 4325 0d90 35       		.sleb128 53
 4326 0d91 0A       		.uleb128 0xa
 4327 0d92 4E080000 		.4byte	.LASF282
 4328 0d96 2E       		.sleb128 46
 4329 0d97 0A       		.uleb128 0xa
 4330 0d98 FA140000 		.4byte	.LASF283
 4331 0d9c 8C01     		.sleb128 140
 4332 0d9e 0A       		.uleb128 0xa
 4333 0d9f D9080000 		.4byte	.LASF284
 4334 0da3 9601     		.sleb128 150
 4335 0da5 0A       		.uleb128 0xa
 4336 0da6 B8080000 		.4byte	.LASF285
 4337 0daa 39       		.sleb128 57
 4338 0dab 0A       		.uleb128 0xa
 4339 0dac 4D100000 		.4byte	.LASF286
 4340 0db0 9701     		.sleb128 151
 4341 0db2 0A       		.uleb128 0xa
 4342 0db3 F2180000 		.4byte	.LASF287
 4343 0db7 9801     		.sleb128 152
 4344 0db9 0A       		.uleb128 0xa
 4345 0dba 61140000 		.4byte	.LASF288
 4346 0dbe 3E       		.sleb128 62
ARM GAS  C:\Users\RECEPC~1\AppData\Local\Temp\ccxS8OWg.s 			page 93


 4347 0dbf 0A       		.uleb128 0xa
 4348 0dc0 AB0E0000 		.4byte	.LASF289
 4349 0dc4 3F       		.sleb128 63
 4350 0dc5 0A       		.uleb128 0xa
 4351 0dc6 5D070000 		.4byte	.LASF290
 4352 0dca C000     		.sleb128 64
 4353 0dcc 0A       		.uleb128 0xa
 4354 0dcd E61B0000 		.4byte	.LASF291
 4355 0dd1 8D01     		.sleb128 141
 4356 0dd3 0A       		.uleb128 0xa
 4357 0dd4 0B030000 		.4byte	.LASF292
 4358 0dd8 23       		.sleb128 35
 4359 0dd9 0A       		.uleb128 0xa
 4360 0dda 2E080000 		.4byte	.LASF293
 4361 0dde 2A       		.sleb128 42
 4362 0ddf 0A       		.uleb128 0xa
 4363 0de0 C8180000 		.4byte	.LASF294
 4364 0de4 2B       		.sleb128 43
 4365 0de5 0A       		.uleb128 0xa
 4366 0de6 17080000 		.4byte	.LASF295
 4367 0dea 3C       		.sleb128 60
 4368 0deb 0A       		.uleb128 0xa
 4369 0dec 870C0000 		.4byte	.LASF296
 4370 0df0 C100     		.sleb128 65
 4371 0df2 0A       		.uleb128 0xa
 4372 0df3 D8090000 		.4byte	.LASF297
 4373 0df7 EB00     		.sleb128 107
 4374 0df9 0A       		.uleb128 0xa
 4375 0dfa FF0F0000 		.4byte	.LASF298
 4376 0dfe E700     		.sleb128 103
 4377 0e00 0A       		.uleb128 0xa
 4378 0e01 3E050000 		.4byte	.LASF299
 4379 0e05 E400     		.sleb128 100
 4380 0e07 0A       		.uleb128 0xa
 4381 0e08 8C190000 		.4byte	.LASF300
 4382 0e0c E500     		.sleb128 101
 4383 0e0e 0A       		.uleb128 0xa
 4384 0e0f 380E0000 		.4byte	.LASF301
 4385 0e13 9901     		.sleb128 153
 4386 0e15 0A       		.uleb128 0xa
 4387 0e16 DF0B0000 		.4byte	.LASF302
 4388 0e1a 9A01     		.sleb128 154
 4389 0e1c 0A       		.uleb128 0xa
 4390 0e1d 510E0000 		.4byte	.LASF303
 4391 0e21 9B01     		.sleb128 155
 4392 0e23 0A       		.uleb128 0xa
 4393 0e24 600E0000 		.4byte	.LASF304
 4394 0e28 9C01     		.sleb128 156
 4395 0e2a 0A       		.uleb128 0xa
 4396 0e2b 46140000 		.4byte	.LASF305
 4397 0e2f FA01     		.sleb128 250
 4398 0e31 0A       		.uleb128 0xa
 4399 0e32 B9190000 		.4byte	.LASF306
 4400 0e36 FF01     		.sleb128 255
 4401 0e38 00       		.byte	0
 4402 0e39 1D       		.uleb128 0x1d
 4403 0e3a 01       		.byte	0x1
ARM GAS  C:\Users\RECEPC~1\AppData\Local\Temp\ccxS8OWg.s 			page 94


 4404 0e3b 0A       		.byte	0xa
 4405 0e3c 88       		.byte	0x88
 4406 0e3d 500E0000 		.4byte	0xe50
 4407 0e41 0A       		.uleb128 0xa
 4408 0e42 85020000 		.4byte	.LASF307
 4409 0e46 D600     		.sleb128 86
 4410 0e48 0A       		.uleb128 0xa
 4411 0e49 8F020000 		.4byte	.LASF308
 4412 0e4d D700     		.sleb128 87
 4413 0e4f 00       		.byte	0
 4414 0e50 1C       		.uleb128 0x1c
 4415 0e51 02       		.byte	0x2
 4416 0e52 0B       		.byte	0xb
 4417 0e53 6D       		.byte	0x6d
 4418 0e54 710E0000 		.4byte	0xe71
 4419 0e58 0C       		.uleb128 0xc
 4420 0e59 6A1E0000 		.4byte	.LASF309
 4421 0e5d 0B       		.byte	0xb
 4422 0e5e 6F       		.byte	0x6f
 4423 0e5f 81000000 		.4byte	0x81
 4424 0e63 00       		.byte	0
 4425 0e64 0C       		.uleb128 0xc
 4426 0e65 00000000 		.4byte	.LASF310
 4427 0e69 0B       		.byte	0xb
 4428 0e6a 70       		.byte	0x70
 4429 0e6b 81000000 		.4byte	0x81
 4430 0e6f 01       		.byte	0x1
 4431 0e70 00       		.byte	0
 4432 0e71 03       		.uleb128 0x3
 4433 0e72 271A0000 		.4byte	.LASF311
 4434 0e76 0B       		.byte	0xb
 4435 0e77 72       		.byte	0x72
 4436 0e78 500E0000 		.4byte	0xe50
 4437 0e7c 09       		.uleb128 0x9
 4438 0e7d E6050000 		.4byte	.LASF312
 4439 0e81 02       		.byte	0x2
 4440 0e82 0C       		.byte	0xc
 4441 0e83 2A       		.byte	0x2a
 4442 0e84 A00F0000 		.4byte	0xfa0
 4443 0e88 0A       		.uleb128 0xa
 4444 0e89 F2000000 		.4byte	.LASF313
 4445 0e8d 00       		.sleb128 0
 4446 0e8e 0A       		.uleb128 0xa
 4447 0e8f 1F030000 		.4byte	.LASF314
 4448 0e93 C000     		.sleb128 64
 4449 0e95 0A       		.uleb128 0xa
 4450 0e96 17010000 		.4byte	.LASF315
 4451 0e9a 8001     		.sleb128 128
 4452 0e9c 0A       		.uleb128 0xa
 4453 0e9d 32010000 		.4byte	.LASF316
 4454 0ea1 C001     		.sleb128 192
 4455 0ea3 0A       		.uleb128 0xa
 4456 0ea4 4D010000 		.4byte	.LASF317
 4457 0ea8 8002     		.sleb128 256
 4458 0eaa 0A       		.uleb128 0xa
 4459 0eab 68010000 		.4byte	.LASF318
 4460 0eaf C002     		.sleb128 320
ARM GAS  C:\Users\RECEPC~1\AppData\Local\Temp\ccxS8OWg.s 			page 95


 4461 0eb1 0A       		.uleb128 0xa
 4462 0eb2 83010000 		.4byte	.LASF319
 4463 0eb6 8003     		.sleb128 384
 4464 0eb8 0A       		.uleb128 0xa
 4465 0eb9 9E010000 		.4byte	.LASF320
 4466 0ebd C003     		.sleb128 448
 4467 0ebf 0A       		.uleb128 0xa
 4468 0ec0 69170000 		.4byte	.LASF321
 4469 0ec4 8004     		.sleb128 512
 4470 0ec6 0A       		.uleb128 0xa
 4471 0ec7 85060000 		.4byte	.LASF322
 4472 0ecb C004     		.sleb128 576
 4473 0ecd 0A       		.uleb128 0xa
 4474 0ece D71C0000 		.4byte	.LASF323
 4475 0ed2 8005     		.sleb128 640
 4476 0ed4 0A       		.uleb128 0xa
 4477 0ed5 590B0000 		.4byte	.LASF324
 4478 0ed9 C005     		.sleb128 704
 4479 0edb 0A       		.uleb128 0xa
 4480 0edc FA030000 		.4byte	.LASF325
 4481 0ee0 8006     		.sleb128 768
 4482 0ee2 0A       		.uleb128 0xa
 4483 0ee3 4A0A0000 		.4byte	.LASF326
 4484 0ee7 C006     		.sleb128 832
 4485 0ee9 0A       		.uleb128 0xa
 4486 0eea 6E1D0000 		.4byte	.LASF327
 4487 0eee 8007     		.sleb128 896
 4488 0ef0 0A       		.uleb128 0xa
 4489 0ef1 B50D0000 		.4byte	.LASF328
 4490 0ef5 C007     		.sleb128 960
 4491 0ef7 0A       		.uleb128 0xa
 4492 0ef8 A8060000 		.4byte	.LASF329
 4493 0efc 8008     		.sleb128 1024
 4494 0efe 0A       		.uleb128 0xa
 4495 0eff F4150000 		.4byte	.LASF330
 4496 0f03 C008     		.sleb128 1088
 4497 0f05 0A       		.uleb128 0xa
 4498 0f06 7A1B0000 		.4byte	.LASF331
 4499 0f0a 8009     		.sleb128 1152
 4500 0f0c 0A       		.uleb128 0xa
 4501 0f0d BF0C0000 		.4byte	.LASF332
 4502 0f11 C009     		.sleb128 1216
 4503 0f13 0A       		.uleb128 0xa
 4504 0f14 260D0000 		.4byte	.LASF333
 4505 0f18 800A     		.sleb128 1280
 4506 0f1a 0A       		.uleb128 0xa
 4507 0f1b 440D0000 		.4byte	.LASF334
 4508 0f1f C00A     		.sleb128 1344
 4509 0f21 0A       		.uleb128 0xa
 4510 0f22 620D0000 		.4byte	.LASF335
 4511 0f26 800B     		.sleb128 1408
 4512 0f28 0A       		.uleb128 0xa
 4513 0f29 800D0000 		.4byte	.LASF336
 4514 0f2d C00B     		.sleb128 1472
 4515 0f2f 0A       		.uleb128 0xa
 4516 0f30 BA0A0000 		.4byte	.LASF337
 4517 0f34 800C     		.sleb128 1536
ARM GAS  C:\Users\RECEPC~1\AppData\Local\Temp\ccxS8OWg.s 			page 96


 4518 0f36 0A       		.uleb128 0xa
 4519 0f37 7E130000 		.4byte	.LASF338
 4520 0f3b C00C     		.sleb128 1600
 4521 0f3d 0A       		.uleb128 0xa
 4522 0f3e EE070000 		.4byte	.LASF339
 4523 0f42 800D     		.sleb128 1664
 4524 0f44 0A       		.uleb128 0xa
 4525 0f45 89050000 		.4byte	.LASF340
 4526 0f49 C00D     		.sleb128 1728
 4527 0f4b 0A       		.uleb128 0xa
 4528 0f4c 1D140000 		.4byte	.LASF341
 4529 0f50 800E     		.sleb128 1792
 4530 0f52 0A       		.uleb128 0xa
 4531 0f53 63120000 		.4byte	.LASF342
 4532 0f57 C00E     		.sleb128 1856
 4533 0f59 0A       		.uleb128 0xa
 4534 0f5a E30A0000 		.4byte	.LASF343
 4535 0f5e 800F     		.sleb128 1920
 4536 0f60 0A       		.uleb128 0xa
 4537 0f61 43040000 		.4byte	.LASF344
 4538 0f65 C00F     		.sleb128 1984
 4539 0f67 0A       		.uleb128 0xa
 4540 0f68 0F130000 		.4byte	.LASF345
 4541 0f6c 8010     		.sleb128 2048
 4542 0f6e 0A       		.uleb128 0xa
 4543 0f6f D9100000 		.4byte	.LASF346
 4544 0f73 C010     		.sleb128 2112
 4545 0f75 0A       		.uleb128 0xa
 4546 0f76 E3040000 		.4byte	.LASF347
 4547 0f7a 8011     		.sleb128 2176
 4548 0f7c 0A       		.uleb128 0xa
 4549 0f7d 5C020000 		.4byte	.LASF348
 4550 0f81 C011     		.sleb128 2240
 4551 0f83 0A       		.uleb128 0xa
 4552 0f84 EC110000 		.4byte	.LASF349
 4553 0f88 8012     		.sleb128 2304
 4554 0f8a 0A       		.uleb128 0xa
 4555 0f8b A20F0000 		.4byte	.LASF350
 4556 0f8f C012     		.sleb128 2368
 4557 0f91 0A       		.uleb128 0xa
 4558 0f92 57030000 		.4byte	.LASF351
 4559 0f96 8013     		.sleb128 2432
 4560 0f98 0A       		.uleb128 0xa
 4561 0f99 AD170000 		.4byte	.LASF352
 4562 0f9d C013     		.sleb128 2496
 4563 0f9f 00       		.byte	0
 4564 0fa0 1C       		.uleb128 0x1c
 4565 0fa1 0A       		.byte	0xa
 4566 0fa2 0D       		.byte	0xd
 4567 0fa3 B1       		.byte	0xb1
 4568 0fa4 E50F0000 		.4byte	0xfe5
 4569 0fa8 0C       		.uleb128 0xc
 4570 0fa9 48020000 		.4byte	.LASF119
 4571 0fad 0D       		.byte	0xd
 4572 0fae B3       		.byte	0xb3
 4573 0faf D2000000 		.4byte	0xd2
 4574 0fb3 00       		.byte	0
ARM GAS  C:\Users\RECEPC~1\AppData\Local\Temp\ccxS8OWg.s 			page 97


 4575 0fb4 0C       		.uleb128 0xc
 4576 0fb5 8D040000 		.4byte	.LASF353
 4577 0fb9 0D       		.byte	0xd
 4578 0fba B4       		.byte	0xb4
 4579 0fbb D7000000 		.4byte	0xd7
 4580 0fbf 02       		.byte	0x2
 4581 0fc0 0C       		.uleb128 0xc
 4582 0fc1 040F0000 		.4byte	.LASF354
 4583 0fc5 0D       		.byte	0xd
 4584 0fc6 B5       		.byte	0xb5
 4585 0fc7 D2000000 		.4byte	0xd2
 4586 0fcb 04       		.byte	0x4
 4587 0fcc 0C       		.uleb128 0xc
 4588 0fcd F9020000 		.4byte	.LASF355
 4589 0fd1 0D       		.byte	0xd
 4590 0fd2 B7       		.byte	0xb7
 4591 0fd3 D7000000 		.4byte	0xd7
 4592 0fd7 06       		.byte	0x6
 4593 0fd8 0C       		.uleb128 0xc
 4594 0fd9 201D0000 		.4byte	.LASF356
 4595 0fdd 0D       		.byte	0xd
 4596 0fde B8       		.byte	0xb8
 4597 0fdf D7000000 		.4byte	0xd7
 4598 0fe3 08       		.byte	0x8
 4599 0fe4 00       		.byte	0
 4600 0fe5 03       		.uleb128 0x3
 4601 0fe6 391E0000 		.4byte	.LASF357
 4602 0fea 0D       		.byte	0xd
 4603 0feb B9       		.byte	0xb9
 4604 0fec A00F0000 		.4byte	0xfa0
 4605 0ff0 1E       		.uleb128 0x1e
 4606 0ff1 1E160000 		.4byte	.LASF365
 4607 0ff5 01       		.byte	0x1
 4608 0ff6 30       		.byte	0x30
 4609 0ff7 00000000 		.4byte	.LFB0
 4610 0ffb 4C010000 		.4byte	.LFE0-.LFB0
 4611 0fff 01       		.uleb128 0x1
 4612 1000 9C       		.byte	0x9c
 4613 1001 A6100000 		.4byte	0x10a6
 4614 1005 1F       		.uleb128 0x1f
 4615 1006 56190000 		.4byte	.LASF367
 4616 100a 01       		.byte	0x1
 4617 100b 30       		.byte	0x30
 4618 100c E8000000 		.4byte	0xe8
 4619 1010 02       		.uleb128 0x2
 4620 1011 91       		.byte	0x91
 4621 1012 5C       		.sleb128 -36
 4622 1013 20       		.uleb128 0x20
 4623 1014 9F0E0000 		.4byte	.LASF358
 4624 1018 01       		.byte	0x1
 4625 1019 32       		.byte	0x32
 4626 101a 38020000 		.4byte	0x238
 4627 101e 02       		.uleb128 0x2
 4628 101f 91       		.byte	0x91
 4629 1020 68       		.sleb128 -24
 4630 1021 20       		.uleb128 0x20
 4631 1022 34000000 		.4byte	.LASF359
ARM GAS  C:\Users\RECEPC~1\AppData\Local\Temp\ccxS8OWg.s 			page 98


 4632 1026 01       		.byte	0x1
 4633 1027 34       		.byte	0x34
 4634 1028 810A0000 		.4byte	0xa81
 4635 102c 02       		.uleb128 0x2
 4636 102d 91       		.byte	0x91
 4637 102e 74       		.sleb128 -12
 4638 102f 21       		.uleb128 0x21
 4639 1030 70747200 		.ascii	"ptr\000"
 4640 1034 01       		.byte	0x1
 4641 1035 36       		.byte	0x36
 4642 1036 A6100000 		.4byte	0x10a6
 4643 103a 02       		.uleb128 0x2
 4644 103b 91       		.byte	0x91
 4645 103c 70       		.sleb128 -16
 4646 103d 20       		.uleb128 0x20
 4647 103e 11140000 		.4byte	.LASF360
 4648 1042 01       		.byte	0x1
 4649 1043 37       		.byte	0x37
 4650 1044 81000000 		.4byte	0x81
 4651 1048 02       		.uleb128 0x2
 4652 1049 91       		.byte	0x91
 4653 104a 67       		.sleb128 -25
 4654 104b 22       		.uleb128 0x22
 4655 104c 56000000 		.4byte	.LBB2
 4656 1050 E6000000 		.4byte	.LBE2-.LBB2
 4657 1054 20       		.uleb128 0x20
 4658 1055 5D050000 		.4byte	.LASF361
 4659 1059 01       		.byte	0x1
 4660 105a 45       		.byte	0x45
 4661 105b 81000000 		.4byte	0x81
 4662 105f 02       		.uleb128 0x2
 4663 1060 91       		.byte	0x91
 4664 1061 66       		.sleb128 -26
 4665 1062 20       		.uleb128 0x20
 4666 1063 B80C0000 		.4byte	.LASF362
 4667 1067 01       		.byte	0x1
 4668 1068 51       		.byte	0x51
 4669 1069 38090000 		.4byte	0x938
 4670 106d 02       		.uleb128 0x2
 4671 106e 91       		.byte	0x91
 4672 106f 6C       		.sleb128 -20
 4673 1070 23       		.uleb128 0x23
 4674 1071 A4000000 		.4byte	.LBB3
 4675 1075 20000000 		.4byte	.LBE3-.LBB3
 4676 1079 8C100000 		.4byte	0x108c
 4677 107d 20       		.uleb128 0x20
 4678 107e 98090000 		.4byte	.LASF363
 4679 1082 01       		.byte	0x1
 4680 1083 48       		.byte	0x48
 4681 1084 81000000 		.4byte	0x81
 4682 1088 02       		.uleb128 0x2
 4683 1089 91       		.byte	0x91
 4684 108a 65       		.sleb128 -27
 4685 108b 00       		.byte	0
 4686 108c 22       		.uleb128 0x22
 4687 108d EE000000 		.4byte	.LBB4
 4688 1091 46000000 		.4byte	.LBE4-.LBB4
ARM GAS  C:\Users\RECEPC~1\AppData\Local\Temp\ccxS8OWg.s 			page 99


 4689 1095 20       		.uleb128 0x20
 4690 1096 AC1B0000 		.4byte	.LASF364
 4691 109a 01       		.byte	0x1
 4692 109b 56       		.byte	0x56
 4693 109c 930A0000 		.4byte	0xa93
 4694 10a0 02       		.uleb128 0x2
 4695 10a1 91       		.byte	0x91
 4696 10a2 60       		.sleb128 -32
 4697 10a3 00       		.byte	0
 4698 10a4 00       		.byte	0
 4699 10a5 00       		.byte	0
 4700 10a6 08       		.uleb128 0x8
 4701 10a7 04       		.byte	0x4
 4702 10a8 B00C0000 		.4byte	0xcb0
 4703 10ac 1E       		.uleb128 0x1e
 4704 10ad 15120000 		.4byte	.LASF366
 4705 10b1 01       		.byte	0x1
 4706 10b2 6C       		.byte	0x6c
 4707 10b3 00000000 		.4byte	.LFB1
 4708 10b7 4C010000 		.4byte	.LFE1-.LFB1
 4709 10bb 01       		.uleb128 0x1
 4710 10bc 9C       		.byte	0x9c
 4711 10bd 62110000 		.4byte	0x1162
 4712 10c1 1F       		.uleb128 0x1f
 4713 10c2 56190000 		.4byte	.LASF367
 4714 10c6 01       		.byte	0x1
 4715 10c7 6C       		.byte	0x6c
 4716 10c8 E8000000 		.4byte	0xe8
 4717 10cc 02       		.uleb128 0x2
 4718 10cd 91       		.byte	0x91
 4719 10ce 5C       		.sleb128 -36
 4720 10cf 20       		.uleb128 0x20
 4721 10d0 9F0E0000 		.4byte	.LASF358
 4722 10d4 01       		.byte	0x1
 4723 10d5 6E       		.byte	0x6e
 4724 10d6 38020000 		.4byte	0x238
 4725 10da 02       		.uleb128 0x2
 4726 10db 91       		.byte	0x91
 4727 10dc 68       		.sleb128 -24
 4728 10dd 20       		.uleb128 0x20
 4729 10de 34000000 		.4byte	.LASF359
 4730 10e2 01       		.byte	0x1
 4731 10e3 70       		.byte	0x70
 4732 10e4 810A0000 		.4byte	0xa81
 4733 10e8 02       		.uleb128 0x2
 4734 10e9 91       		.byte	0x91
 4735 10ea 74       		.sleb128 -12
 4736 10eb 21       		.uleb128 0x21
 4737 10ec 70747200 		.ascii	"ptr\000"
 4738 10f0 01       		.byte	0x1
 4739 10f1 72       		.byte	0x72
 4740 10f2 A6100000 		.4byte	0x10a6
 4741 10f6 02       		.uleb128 0x2
 4742 10f7 91       		.byte	0x91
 4743 10f8 70       		.sleb128 -16
 4744 10f9 20       		.uleb128 0x20
 4745 10fa 11140000 		.4byte	.LASF360
ARM GAS  C:\Users\RECEPC~1\AppData\Local\Temp\ccxS8OWg.s 			page 100


 4746 10fe 01       		.byte	0x1
 4747 10ff 73       		.byte	0x73
 4748 1100 81000000 		.4byte	0x81
 4749 1104 02       		.uleb128 0x2
 4750 1105 91       		.byte	0x91
 4751 1106 67       		.sleb128 -25
 4752 1107 22       		.uleb128 0x22
 4753 1108 56000000 		.4byte	.LBB5
 4754 110c E6000000 		.4byte	.LBE5-.LBB5
 4755 1110 20       		.uleb128 0x20
 4756 1111 5D050000 		.4byte	.LASF361
 4757 1115 01       		.byte	0x1
 4758 1116 82       		.byte	0x82
 4759 1117 81000000 		.4byte	0x81
 4760 111b 02       		.uleb128 0x2
 4761 111c 91       		.byte	0x91
 4762 111d 66       		.sleb128 -26
 4763 111e 20       		.uleb128 0x20
 4764 111f B80C0000 		.4byte	.LASF362
 4765 1123 01       		.byte	0x1
 4766 1124 8E       		.byte	0x8e
 4767 1125 38090000 		.4byte	0x938
 4768 1129 02       		.uleb128 0x2
 4769 112a 91       		.byte	0x91
 4770 112b 6C       		.sleb128 -20
 4771 112c 23       		.uleb128 0x23
 4772 112d A4000000 		.4byte	.LBB6
 4773 1131 20000000 		.4byte	.LBE6-.LBB6
 4774 1135 48110000 		.4byte	0x1148
 4775 1139 20       		.uleb128 0x20
 4776 113a 98090000 		.4byte	.LASF363
 4777 113e 01       		.byte	0x1
 4778 113f 85       		.byte	0x85
 4779 1140 81000000 		.4byte	0x81
 4780 1144 02       		.uleb128 0x2
 4781 1145 91       		.byte	0x91
 4782 1146 65       		.sleb128 -27
 4783 1147 00       		.byte	0
 4784 1148 22       		.uleb128 0x22
 4785 1149 EE000000 		.4byte	.LBB7
 4786 114d 46000000 		.4byte	.LBE7-.LBB7
 4787 1151 20       		.uleb128 0x20
 4788 1152 AC1B0000 		.4byte	.LASF364
 4789 1156 01       		.byte	0x1
 4790 1157 93       		.byte	0x93
 4791 1158 930A0000 		.4byte	0xa93
 4792 115c 02       		.uleb128 0x2
 4793 115d 91       		.byte	0x91
 4794 115e 60       		.sleb128 -32
 4795 115f 00       		.byte	0
 4796 1160 00       		.byte	0
 4797 1161 00       		.byte	0
 4798 1162 1E       		.uleb128 0x1e
 4799 1163 451B0000 		.4byte	.LASF368
 4800 1167 01       		.byte	0x1
 4801 1168 A5       		.byte	0xa5
 4802 1169 00000000 		.4byte	.LFB2
ARM GAS  C:\Users\RECEPC~1\AppData\Local\Temp\ccxS8OWg.s 			page 101


 4803 116d 38010000 		.4byte	.LFE2-.LFB2
 4804 1171 01       		.uleb128 0x1
 4805 1172 9C       		.byte	0x9c
 4806 1173 E0110000 		.4byte	0x11e0
 4807 1177 1F       		.uleb128 0x1f
 4808 1178 56190000 		.4byte	.LASF367
 4809 117c 01       		.byte	0x1
 4810 117d A5       		.byte	0xa5
 4811 117e E8000000 		.4byte	0xe8
 4812 1182 02       		.uleb128 0x2
 4813 1183 91       		.byte	0x91
 4814 1184 5C       		.sleb128 -36
 4815 1185 20       		.uleb128 0x20
 4816 1186 34000000 		.4byte	.LASF359
 4817 118a 01       		.byte	0x1
 4818 118b A7       		.byte	0xa7
 4819 118c 17080000 		.4byte	0x817
 4820 1190 02       		.uleb128 0x2
 4821 1191 91       		.byte	0x91
 4822 1192 74       		.sleb128 -12
 4823 1193 20       		.uleb128 0x20
 4824 1194 9F0E0000 		.4byte	.LASF358
 4825 1198 01       		.byte	0x1
 4826 1199 A8       		.byte	0xa8
 4827 119a 38020000 		.4byte	0x238
 4828 119e 02       		.uleb128 0x2
 4829 119f 91       		.byte	0x91
 4830 11a0 68       		.sleb128 -24
 4831 11a1 20       		.uleb128 0x20
 4832 11a2 021B0000 		.4byte	.LASF369
 4833 11a6 01       		.byte	0x1
 4834 11a7 A9       		.byte	0xa9
 4835 11a8 81000000 		.4byte	0x81
 4836 11ac 02       		.uleb128 0x2
 4837 11ad 91       		.byte	0x91
 4838 11ae 73       		.sleb128 -13
 4839 11af 22       		.uleb128 0x22
 4840 11b0 94000000 		.4byte	.LBB8
 4841 11b4 92000000 		.4byte	.LBE8-.LBB8
 4842 11b8 20       		.uleb128 0x20
 4843 11b9 B80C0000 		.4byte	.LASF362
 4844 11bd 01       		.byte	0x1
 4845 11be BC       		.byte	0xbc
 4846 11bf 7B0A0000 		.4byte	0xa7b
 4847 11c3 02       		.uleb128 0x2
 4848 11c4 91       		.byte	0x91
 4849 11c5 6C       		.sleb128 -20
 4850 11c6 22       		.uleb128 0x22
 4851 11c7 B6000000 		.4byte	.LBB9
 4852 11cb 5C000000 		.4byte	.LBE9-.LBB9
 4853 11cf 20       		.uleb128 0x20
 4854 11d0 AC1B0000 		.4byte	.LASF364
 4855 11d4 01       		.byte	0x1
 4856 11d5 C1       		.byte	0xc1
 4857 11d6 930A0000 		.4byte	0xa93
 4858 11da 02       		.uleb128 0x2
 4859 11db 91       		.byte	0x91
ARM GAS  C:\Users\RECEPC~1\AppData\Local\Temp\ccxS8OWg.s 			page 102


 4860 11dc 64       		.sleb128 -28
 4861 11dd 00       		.byte	0
 4862 11de 00       		.byte	0
 4863 11df 00       		.byte	0
 4864 11e0 1E       		.uleb128 0x1e
 4865 11e1 5D190000 		.4byte	.LASF370
 4866 11e5 01       		.byte	0x1
 4867 11e6 DC       		.byte	0xdc
 4868 11e7 00000000 		.4byte	.LFB3
 4869 11eb D4000000 		.4byte	.LFE3-.LFB3
 4870 11ef 01       		.uleb128 0x1
 4871 11f0 9C       		.byte	0x9c
 4872 11f1 50120000 		.4byte	0x1250
 4873 11f5 1F       		.uleb128 0x1f
 4874 11f6 56190000 		.4byte	.LASF367
 4875 11fa 01       		.byte	0x1
 4876 11fb DC       		.byte	0xdc
 4877 11fc F1000000 		.4byte	0xf1
 4878 1200 02       		.uleb128 0x2
 4879 1201 91       		.byte	0x91
 4880 1202 64       		.sleb128 -28
 4881 1203 20       		.uleb128 0x20
 4882 1204 34000000 		.4byte	.LASF359
 4883 1208 01       		.byte	0x1
 4884 1209 DE       		.byte	0xde
 4885 120a 17080000 		.4byte	0x817
 4886 120e 02       		.uleb128 0x2
 4887 120f 91       		.byte	0x91
 4888 1210 70       		.sleb128 -16
 4889 1211 22       		.uleb128 0x22
 4890 1212 2A000000 		.4byte	.LBB10
 4891 1216 A0000000 		.4byte	.LBE10-.LBB10
 4892 121a 20       		.uleb128 0x20
 4893 121b B80C0000 		.4byte	.LASF362
 4894 121f 01       		.byte	0x1
 4895 1220 E3       		.byte	0xe3
 4896 1221 7B0A0000 		.4byte	0xa7b
 4897 1225 02       		.uleb128 0x2
 4898 1226 91       		.byte	0x91
 4899 1227 74       		.sleb128 -12
 4900 1228 20       		.uleb128 0x20
 4901 1229 070D0000 		.4byte	.LASF371
 4902 122d 01       		.byte	0x1
 4903 122e F9       		.byte	0xf9
 4904 122f 38020000 		.4byte	0x238
 4905 1233 02       		.uleb128 0x2
 4906 1234 91       		.byte	0x91
 4907 1235 68       		.sleb128 -24
 4908 1236 22       		.uleb128 0x22
 4909 1237 46000000 		.4byte	.LBB11
 4910 123b 4C000000 		.4byte	.LBE11-.LBB11
 4911 123f 20       		.uleb128 0x20
 4912 1240 AC1B0000 		.4byte	.LASF364
 4913 1244 01       		.byte	0x1
 4914 1245 E8       		.byte	0xe8
 4915 1246 930A0000 		.4byte	0xa93
 4916 124a 02       		.uleb128 0x2
ARM GAS  C:\Users\RECEPC~1\AppData\Local\Temp\ccxS8OWg.s 			page 103


 4917 124b 91       		.byte	0x91
 4918 124c 6C       		.sleb128 -20
 4919 124d 00       		.byte	0
 4920 124e 00       		.byte	0
 4921 124f 00       		.byte	0
 4922 1250 24       		.uleb128 0x24
 4923 1251 190F0000 		.4byte	.LASF372
 4924 1255 01       		.byte	0x1
 4925 1256 0601     		.2byte	0x106
 4926 1258 00000000 		.4byte	.LFB4
 4927 125c A4000000 		.4byte	.LFE4-.LFB4
 4928 1260 01       		.uleb128 0x1
 4929 1261 9C       		.byte	0x9c
 4930 1262 B7120000 		.4byte	0x12b7
 4931 1266 25       		.uleb128 0x25
 4932 1267 56190000 		.4byte	.LASF367
 4933 126b 01       		.byte	0x1
 4934 126c 0601     		.2byte	0x106
 4935 126e F1000000 		.4byte	0xf1
 4936 1272 02       		.uleb128 0x2
 4937 1273 91       		.byte	0x91
 4938 1274 64       		.sleb128 -28
 4939 1275 26       		.uleb128 0x26
 4940 1276 34000000 		.4byte	.LASF359
 4941 127a 01       		.byte	0x1
 4942 127b 0801     		.2byte	0x108
 4943 127d 17080000 		.4byte	0x817
 4944 1281 02       		.uleb128 0x2
 4945 1282 91       		.byte	0x91
 4946 1283 70       		.sleb128 -16
 4947 1284 22       		.uleb128 0x22
 4948 1285 2A000000 		.4byte	.LBB12
 4949 1289 70000000 		.4byte	.LBE12-.LBB12
 4950 128d 26       		.uleb128 0x26
 4951 128e B80C0000 		.4byte	.LASF362
 4952 1292 01       		.byte	0x1
 4953 1293 0D01     		.2byte	0x10d
 4954 1295 7B0A0000 		.4byte	0xa7b
 4955 1299 02       		.uleb128 0x2
 4956 129a 91       		.byte	0x91
 4957 129b 74       		.sleb128 -12
 4958 129c 22       		.uleb128 0x22
 4959 129d 46000000 		.4byte	.LBB13
 4960 12a1 4C000000 		.4byte	.LBE13-.LBB13
 4961 12a5 26       		.uleb128 0x26
 4962 12a6 AC1B0000 		.4byte	.LASF364
 4963 12aa 01       		.byte	0x1
 4964 12ab 1201     		.2byte	0x112
 4965 12ad 930A0000 		.4byte	0xa93
 4966 12b1 02       		.uleb128 0x2
 4967 12b2 91       		.byte	0x91
 4968 12b3 6C       		.sleb128 -20
 4969 12b4 00       		.byte	0
 4970 12b5 00       		.byte	0
 4971 12b6 00       		.byte	0
 4972 12b7 24       		.uleb128 0x24
 4973 12b8 DB020000 		.4byte	.LASF373
ARM GAS  C:\Users\RECEPC~1\AppData\Local\Temp\ccxS8OWg.s 			page 104


 4974 12bc 01       		.byte	0x1
 4975 12bd 2901     		.2byte	0x129
 4976 12bf 00000000 		.4byte	.LFB5
 4977 12c3 08010000 		.4byte	.LFE5-.LFB5
 4978 12c7 01       		.uleb128 0x1
 4979 12c8 9C       		.byte	0x9c
 4980 12c9 46130000 		.4byte	0x1346
 4981 12cd 25       		.uleb128 0x25
 4982 12ce 56190000 		.4byte	.LASF367
 4983 12d2 01       		.byte	0x1
 4984 12d3 2901     		.2byte	0x129
 4985 12d5 F1000000 		.4byte	0xf1
 4986 12d9 02       		.uleb128 0x2
 4987 12da 91       		.byte	0x91
 4988 12db 5C       		.sleb128 -36
 4989 12dc 26       		.uleb128 0x26
 4990 12dd 9F0E0000 		.4byte	.LASF358
 4991 12e1 01       		.byte	0x1
 4992 12e2 2B01     		.2byte	0x12b
 4993 12e4 38020000 		.4byte	0x238
 4994 12e8 02       		.uleb128 0x2
 4995 12e9 91       		.byte	0x91
 4996 12ea 70       		.sleb128 -16
 4997 12eb 26       		.uleb128 0x26
 4998 12ec 021B0000 		.4byte	.LASF369
 4999 12f0 01       		.byte	0x1
 5000 12f1 3201     		.2byte	0x132
 5001 12f3 81000000 		.4byte	0x81
 5002 12f7 02       		.uleb128 0x2
 5003 12f8 91       		.byte	0x91
 5004 12f9 6F       		.sleb128 -17
 5005 12fa 22       		.uleb128 0x22
 5006 12fb 2A000000 		.4byte	.LBB14
 5007 12ff B0000000 		.4byte	.LBE14-.LBB14
 5008 1303 26       		.uleb128 0x26
 5009 1304 34000000 		.4byte	.LASF359
 5010 1308 01       		.byte	0x1
 5011 1309 3401     		.2byte	0x134
 5012 130b 810A0000 		.4byte	0xa81
 5013 130f 02       		.uleb128 0x2
 5014 1310 91       		.byte	0x91
 5015 1311 68       		.sleb128 -24
 5016 1312 22       		.uleb128 0x22
 5017 1313 40000000 		.4byte	.LBB15
 5018 1317 98000000 		.4byte	.LBE15-.LBB15
 5019 131b 26       		.uleb128 0x26
 5020 131c B80C0000 		.4byte	.LASF362
 5021 1320 01       		.byte	0x1
 5022 1321 3F01     		.2byte	0x13f
 5023 1323 7B0A0000 		.4byte	0xa7b
 5024 1327 02       		.uleb128 0x2
 5025 1328 91       		.byte	0x91
 5026 1329 74       		.sleb128 -12
 5027 132a 22       		.uleb128 0x22
 5028 132b 84000000 		.4byte	.LBB16
 5029 132f 4C000000 		.4byte	.LBE16-.LBB16
 5030 1333 26       		.uleb128 0x26
ARM GAS  C:\Users\RECEPC~1\AppData\Local\Temp\ccxS8OWg.s 			page 105


 5031 1334 AC1B0000 		.4byte	.LASF364
 5032 1338 01       		.byte	0x1
 5033 1339 4401     		.2byte	0x144
 5034 133b 930A0000 		.4byte	0xa93
 5035 133f 02       		.uleb128 0x2
 5036 1340 91       		.byte	0x91
 5037 1341 64       		.sleb128 -28
 5038 1342 00       		.byte	0
 5039 1343 00       		.byte	0
 5040 1344 00       		.byte	0
 5041 1345 00       		.byte	0
 5042 1346 24       		.uleb128 0x24
 5043 1347 300F0000 		.4byte	.LASF374
 5044 134b 01       		.byte	0x1
 5045 134c 5E01     		.2byte	0x15e
 5046 134e 00000000 		.4byte	.LFB6
 5047 1352 2C010000 		.4byte	.LFE6-.LFB6
 5048 1356 01       		.uleb128 0x1
 5049 1357 9C       		.byte	0x9c
 5050 1358 FD130000 		.4byte	0x13fd
 5051 135c 25       		.uleb128 0x25
 5052 135d 56190000 		.4byte	.LASF367
 5053 1361 01       		.byte	0x1
 5054 1362 5E01     		.2byte	0x15e
 5055 1364 F1000000 		.4byte	0xf1
 5056 1368 02       		.uleb128 0x2
 5057 1369 91       		.byte	0x91
 5058 136a 5C       		.sleb128 -36
 5059 136b 26       		.uleb128 0x26
 5060 136c 9F0E0000 		.4byte	.LASF358
 5061 1370 01       		.byte	0x1
 5062 1371 6001     		.2byte	0x160
 5063 1373 38020000 		.4byte	0x238
 5064 1377 02       		.uleb128 0x2
 5065 1378 91       		.byte	0x91
 5066 1379 6C       		.sleb128 -20
 5067 137a 26       		.uleb128 0x26
 5068 137b 021B0000 		.4byte	.LASF369
 5069 137f 01       		.byte	0x1
 5070 1380 6401     		.2byte	0x164
 5071 1382 81000000 		.4byte	0x81
 5072 1386 02       		.uleb128 0x2
 5073 1387 91       		.byte	0x91
 5074 1388 77       		.sleb128 -9
 5075 1389 22       		.uleb128 0x22
 5076 138a 12000000 		.4byte	.LBB17
 5077 138e F0000000 		.4byte	.LBE17-.LBB17
 5078 1392 26       		.uleb128 0x26
 5079 1393 34000000 		.4byte	.LASF359
 5080 1397 01       		.byte	0x1
 5081 1398 6601     		.2byte	0x166
 5082 139a 810A0000 		.4byte	0xa81
 5083 139e 02       		.uleb128 0x2
 5084 139f 91       		.byte	0x91
 5085 13a0 68       		.sleb128 -24
 5086 13a1 22       		.uleb128 0x22
 5087 13a2 28000000 		.4byte	.LBB18
ARM GAS  C:\Users\RECEPC~1\AppData\Local\Temp\ccxS8OWg.s 			page 106


 5088 13a6 DA000000 		.4byte	.LBE18-.LBB18
 5089 13aa 26       		.uleb128 0x26
 5090 13ab 6B090000 		.4byte	.LASF375
 5091 13af 01       		.byte	0x1
 5092 13b0 6A01     		.2byte	0x16a
 5093 13b2 81000000 		.4byte	0x81
 5094 13b6 02       		.uleb128 0x2
 5095 13b7 91       		.byte	0x91
 5096 13b8 76       		.sleb128 -10
 5097 13b9 26       		.uleb128 0x26
 5098 13ba 0E0A0000 		.4byte	.LASF376
 5099 13be 01       		.byte	0x1
 5100 13bf 7C01     		.2byte	0x17c
 5101 13c1 81000000 		.4byte	0x81
 5102 13c5 02       		.uleb128 0x2
 5103 13c6 91       		.byte	0x91
 5104 13c7 75       		.sleb128 -11
 5105 13c8 22       		.uleb128 0x22
 5106 13c9 74000000 		.4byte	.LBB19
 5107 13cd 80000000 		.4byte	.LBE19-.LBB19
 5108 13d1 26       		.uleb128 0x26
 5109 13d2 B80C0000 		.4byte	.LASF362
 5110 13d6 01       		.byte	0x1
 5111 13d7 8101     		.2byte	0x181
 5112 13d9 7B0A0000 		.4byte	0xa7b
 5113 13dd 02       		.uleb128 0x2
 5114 13de 91       		.byte	0x91
 5115 13df 70       		.sleb128 -16
 5116 13e0 22       		.uleb128 0x22
 5117 13e1 A0000000 		.4byte	.LBB20
 5118 13e5 4C000000 		.4byte	.LBE20-.LBB20
 5119 13e9 26       		.uleb128 0x26
 5120 13ea AC1B0000 		.4byte	.LASF364
 5121 13ee 01       		.byte	0x1
 5122 13ef 8601     		.2byte	0x186
 5123 13f1 930A0000 		.4byte	0xa93
 5124 13f5 02       		.uleb128 0x2
 5125 13f6 91       		.byte	0x91
 5126 13f7 64       		.sleb128 -28
 5127 13f8 00       		.byte	0
 5128 13f9 00       		.byte	0
 5129 13fa 00       		.byte	0
 5130 13fb 00       		.byte	0
 5131 13fc 00       		.byte	0
 5132 13fd 24       		.uleb128 0x24
 5133 13fe DC030000 		.4byte	.LASF377
 5134 1402 01       		.byte	0x1
 5135 1403 9D01     		.2byte	0x19d
 5136 1405 00000000 		.4byte	.LFB7
 5137 1409 70030000 		.4byte	.LFE7-.LFB7
 5138 140d 01       		.uleb128 0x1
 5139 140e 9C       		.byte	0x9c
 5140 140f F6140000 		.4byte	0x14f6
 5141 1413 25       		.uleb128 0x25
 5142 1414 56190000 		.4byte	.LASF367
 5143 1418 01       		.byte	0x1
 5144 1419 9D01     		.2byte	0x19d
ARM GAS  C:\Users\RECEPC~1\AppData\Local\Temp\ccxS8OWg.s 			page 107


 5145 141b F1000000 		.4byte	0xf1
 5146 141f 02       		.uleb128 0x2
 5147 1420 91       		.byte	0x91
 5148 1421 44       		.sleb128 -60
 5149 1422 26       		.uleb128 0x26
 5150 1423 9F0E0000 		.4byte	.LASF358
 5151 1427 01       		.byte	0x1
 5152 1428 9F01     		.2byte	0x19f
 5153 142a 38020000 		.4byte	0x238
 5154 142e 02       		.uleb128 0x2
 5155 142f 91       		.byte	0x91
 5156 1430 68       		.sleb128 -24
 5157 1431 26       		.uleb128 0x26
 5158 1432 34000000 		.4byte	.LASF359
 5159 1436 01       		.byte	0x1
 5160 1437 A201     		.2byte	0x1a2
 5161 1439 17080000 		.4byte	0x817
 5162 143d 02       		.uleb128 0x2
 5163 143e 91       		.byte	0x91
 5164 143f 64       		.sleb128 -28
 5165 1440 22       		.uleb128 0x22
 5166 1441 20000000 		.4byte	.LBB21
 5167 1445 40030000 		.4byte	.LBE21-.LBB21
 5168 1449 26       		.uleb128 0x26
 5169 144a 16090000 		.4byte	.LASF378
 5170 144e 01       		.byte	0x1
 5171 144f A901     		.2byte	0x1a9
 5172 1451 8D000000 		.4byte	0x8d
 5173 1455 02       		.uleb128 0x2
 5174 1456 91       		.byte	0x91
 5175 1457 62       		.sleb128 -30
 5176 1458 26       		.uleb128 0x26
 5177 1459 B80C0000 		.4byte	.LASF362
 5178 145d 01       		.byte	0x1
 5179 145e E601     		.2byte	0x1e6
 5180 1460 7B0A0000 		.4byte	0xa7b
 5181 1464 02       		.uleb128 0x2
 5182 1465 91       		.byte	0x91
 5183 1466 6C       		.sleb128 -20
 5184 1467 23       		.uleb128 0x23
 5185 1468 78000000 		.4byte	.LBB22
 5186 146c 6E000000 		.4byte	.LBE22-.LBB22
 5187 1470 84140000 		.4byte	0x1484
 5188 1474 26       		.uleb128 0x26
 5189 1475 A8090000 		.4byte	.LASF379
 5190 1479 01       		.byte	0x1
 5191 147a B101     		.2byte	0x1b1
 5192 147c 99000000 		.4byte	0x99
 5193 1480 02       		.uleb128 0x2
 5194 1481 91       		.byte	0x91
 5195 1482 5C       		.sleb128 -36
 5196 1483 00       		.byte	0
 5197 1484 23       		.uleb128 0x23
 5198 1485 12010000 		.4byte	.LBB23
 5199 1489 6E000000 		.4byte	.LBE23-.LBB23
 5200 148d A1140000 		.4byte	0x14a1
 5201 1491 26       		.uleb128 0x26
ARM GAS  C:\Users\RECEPC~1\AppData\Local\Temp\ccxS8OWg.s 			page 108


 5202 1492 A8090000 		.4byte	.LASF379
 5203 1496 01       		.byte	0x1
 5204 1497 BE01     		.2byte	0x1be
 5205 1499 99000000 		.4byte	0x99
 5206 149d 02       		.uleb128 0x2
 5207 149e 91       		.byte	0x91
 5208 149f 58       		.sleb128 -40
 5209 14a0 00       		.byte	0
 5210 14a1 23       		.uleb128 0x23
 5211 14a2 B0010000 		.4byte	.LBB24
 5212 14a6 6E000000 		.4byte	.LBE24-.LBB24
 5213 14aa BE140000 		.4byte	0x14be
 5214 14ae 26       		.uleb128 0x26
 5215 14af A8090000 		.4byte	.LASF379
 5216 14b3 01       		.byte	0x1
 5217 14b4 CB01     		.2byte	0x1cb
 5218 14b6 99000000 		.4byte	0x99
 5219 14ba 02       		.uleb128 0x2
 5220 14bb 91       		.byte	0x91
 5221 14bc 54       		.sleb128 -44
 5222 14bd 00       		.byte	0
 5223 14be 23       		.uleb128 0x23
 5224 14bf 4E020000 		.4byte	.LBB25
 5225 14c3 6E000000 		.4byte	.LBE25-.LBB25
 5226 14c7 DB140000 		.4byte	0x14db
 5227 14cb 26       		.uleb128 0x26
 5228 14cc A8090000 		.4byte	.LASF379
 5229 14d0 01       		.byte	0x1
 5230 14d1 D801     		.2byte	0x1d8
 5231 14d3 99000000 		.4byte	0x99
 5232 14d7 02       		.uleb128 0x2
 5233 14d8 91       		.byte	0x91
 5234 14d9 50       		.sleb128 -48
 5235 14da 00       		.byte	0
 5236 14db 22       		.uleb128 0x22
 5237 14dc 0C030000 		.4byte	.LBB26
 5238 14e0 4C000000 		.4byte	.LBE26-.LBB26
 5239 14e4 26       		.uleb128 0x26
 5240 14e5 AC1B0000 		.4byte	.LASF364
 5241 14e9 01       		.byte	0x1
 5242 14ea EB01     		.2byte	0x1eb
 5243 14ec 930A0000 		.4byte	0xa93
 5244 14f0 02       		.uleb128 0x2
 5245 14f1 91       		.byte	0x91
 5246 14f2 4C       		.sleb128 -52
 5247 14f3 00       		.byte	0
 5248 14f4 00       		.byte	0
 5249 14f5 00       		.byte	0
 5250 14f6 24       		.uleb128 0x24
 5251 14f7 E1160000 		.4byte	.LASF380
 5252 14fb 01       		.byte	0x1
 5253 14fc 0002     		.2byte	0x200
 5254 14fe 00000000 		.4byte	.LFB8
 5255 1502 A0000000 		.4byte	.LFE8-.LFB8
 5256 1506 01       		.uleb128 0x1
 5257 1507 9C       		.byte	0x9c
 5258 1508 6C150000 		.4byte	0x156c
ARM GAS  C:\Users\RECEPC~1\AppData\Local\Temp\ccxS8OWg.s 			page 109


 5259 150c 25       		.uleb128 0x25
 5260 150d 56190000 		.4byte	.LASF367
 5261 1511 01       		.byte	0x1
 5262 1512 0002     		.2byte	0x200
 5263 1514 F1000000 		.4byte	0xf1
 5264 1518 02       		.uleb128 0x2
 5265 1519 91       		.byte	0x91
 5266 151a 64       		.sleb128 -28
 5267 151b 26       		.uleb128 0x26
 5268 151c 9F0E0000 		.4byte	.LASF358
 5269 1520 01       		.byte	0x1
 5270 1521 0202     		.2byte	0x202
 5271 1523 38020000 		.4byte	0x238
 5272 1527 02       		.uleb128 0x2
 5273 1528 91       		.byte	0x91
 5274 1529 70       		.sleb128 -16
 5275 152a 26       		.uleb128 0x26
 5276 152b 34000000 		.4byte	.LASF359
 5277 152f 01       		.byte	0x1
 5278 1530 0502     		.2byte	0x205
 5279 1532 17080000 		.4byte	0x817
 5280 1536 02       		.uleb128 0x2
 5281 1537 91       		.byte	0x91
 5282 1538 6C       		.sleb128 -20
 5283 1539 22       		.uleb128 0x22
 5284 153a 1E000000 		.4byte	.LBB27
 5285 153e 70000000 		.4byte	.LBE27-.LBB27
 5286 1542 26       		.uleb128 0x26
 5287 1543 B80C0000 		.4byte	.LASF362
 5288 1547 01       		.byte	0x1
 5289 1548 0902     		.2byte	0x209
 5290 154a 7B0A0000 		.4byte	0xa7b
 5291 154e 02       		.uleb128 0x2
 5292 154f 91       		.byte	0x91
 5293 1550 74       		.sleb128 -12
 5294 1551 22       		.uleb128 0x22
 5295 1552 3A000000 		.4byte	.LBB28
 5296 1556 4C000000 		.4byte	.LBE28-.LBB28
 5297 155a 26       		.uleb128 0x26
 5298 155b AC1B0000 		.4byte	.LASF364
 5299 155f 01       		.byte	0x1
 5300 1560 0E02     		.2byte	0x20e
 5301 1562 930A0000 		.4byte	0xa93
 5302 1566 02       		.uleb128 0x2
 5303 1567 91       		.byte	0x91
 5304 1568 68       		.sleb128 -24
 5305 1569 00       		.byte	0
 5306 156a 00       		.byte	0
 5307 156b 00       		.byte	0
 5308 156c 24       		.uleb128 0x24
 5309 156d F9130000 		.4byte	.LASF381
 5310 1571 01       		.byte	0x1
 5311 1572 2302     		.2byte	0x223
 5312 1574 00000000 		.4byte	.LFB9
 5313 1578 48010000 		.4byte	.LFE9-.LFB9
 5314 157c 01       		.uleb128 0x1
 5315 157d 9C       		.byte	0x9c
ARM GAS  C:\Users\RECEPC~1\AppData\Local\Temp\ccxS8OWg.s 			page 110


 5316 157e D3150000 		.4byte	0x15d3
 5317 1582 25       		.uleb128 0x25
 5318 1583 56190000 		.4byte	.LASF367
 5319 1587 01       		.byte	0x1
 5320 1588 2302     		.2byte	0x223
 5321 158a F1000000 		.4byte	0xf1
 5322 158e 02       		.uleb128 0x2
 5323 158f 91       		.byte	0x91
 5324 1590 64       		.sleb128 -28
 5325 1591 26       		.uleb128 0x26
 5326 1592 34000000 		.4byte	.LASF359
 5327 1596 01       		.byte	0x1
 5328 1597 4002     		.2byte	0x240
 5329 1599 810A0000 		.4byte	0xa81
 5330 159d 02       		.uleb128 0x2
 5331 159e 91       		.byte	0x91
 5332 159f 70       		.sleb128 -16
 5333 15a0 22       		.uleb128 0x22
 5334 15a1 90000000 		.4byte	.LBB29
 5335 15a5 A4000000 		.4byte	.LBE29-.LBB29
 5336 15a9 26       		.uleb128 0x26
 5337 15aa B80C0000 		.4byte	.LASF362
 5338 15ae 01       		.byte	0x1
 5339 15af 4802     		.2byte	0x248
 5340 15b1 7B0A0000 		.4byte	0xa7b
 5341 15b5 02       		.uleb128 0x2
 5342 15b6 91       		.byte	0x91
 5343 15b7 74       		.sleb128 -12
 5344 15b8 22       		.uleb128 0x22
 5345 15b9 BC000000 		.4byte	.LBB30
 5346 15bd 70000000 		.4byte	.LBE30-.LBB30
 5347 15c1 26       		.uleb128 0x26
 5348 15c2 AC1B0000 		.4byte	.LASF364
 5349 15c6 01       		.byte	0x1
 5350 15c7 4D02     		.2byte	0x24d
 5351 15c9 930A0000 		.4byte	0xa93
 5352 15cd 02       		.uleb128 0x2
 5353 15ce 91       		.byte	0x91
 5354 15cf 6C       		.sleb128 -20
 5355 15d0 00       		.byte	0
 5356 15d1 00       		.byte	0
 5357 15d2 00       		.byte	0
 5358 15d3 24       		.uleb128 0x24
 5359 15d4 34060000 		.4byte	.LASF382
 5360 15d8 01       		.byte	0x1
 5361 15d9 6302     		.2byte	0x263
 5362 15db 00000000 		.4byte	.LFB10
 5363 15df E4010000 		.4byte	.LFE10-.LFB10
 5364 15e3 01       		.uleb128 0x1
 5365 15e4 9C       		.byte	0x9c
 5366 15e5 F9150000 		.4byte	0x15f9
 5367 15e9 25       		.uleb128 0x25
 5368 15ea 56190000 		.4byte	.LASF367
 5369 15ee 01       		.byte	0x1
 5370 15ef 6302     		.2byte	0x263
 5371 15f1 F1000000 		.4byte	0xf1
 5372 15f5 02       		.uleb128 0x2
ARM GAS  C:\Users\RECEPC~1\AppData\Local\Temp\ccxS8OWg.s 			page 111


 5373 15f6 91       		.byte	0x91
 5374 15f7 6C       		.sleb128 -20
 5375 15f8 00       		.byte	0
 5376 15f9 27       		.uleb128 0x27
 5377 15fa 540F0000 		.4byte	.LASF385
 5378 15fe 01       		.byte	0x1
 5379 15ff 3F03     		.2byte	0x33f
 5380 1601 8D000000 		.4byte	0x8d
 5381 1605 00000000 		.4byte	.LFB11
 5382 1609 B0000000 		.4byte	.LFE11-.LFB11
 5383 160d 01       		.uleb128 0x1
 5384 160e 9C       		.byte	0x9c
 5385 160f 32160000 		.4byte	0x1632
 5386 1613 25       		.uleb128 0x25
 5387 1614 591D0000 		.4byte	.LASF383
 5388 1618 01       		.byte	0x1
 5389 1619 3F03     		.2byte	0x33f
 5390 161b 81000000 		.4byte	0x81
 5391 161f 02       		.uleb128 0x2
 5392 1620 91       		.byte	0x91
 5393 1621 6F       		.sleb128 -17
 5394 1622 26       		.uleb128 0x26
 5395 1623 9B0F0000 		.4byte	.LASF384
 5396 1627 01       		.byte	0x1
 5397 1628 4103     		.2byte	0x341
 5398 162a 8D000000 		.4byte	0x8d
 5399 162e 02       		.uleb128 0x2
 5400 162f 91       		.byte	0x91
 5401 1630 76       		.sleb128 -10
 5402 1631 00       		.byte	0
 5403 1632 27       		.uleb128 0x27
 5404 1633 A8140000 		.4byte	.LASF386
 5405 1637 01       		.byte	0x1
 5406 1638 6103     		.2byte	0x361
 5407 163a 17080000 		.4byte	0x817
 5408 163e 00000000 		.4byte	.LFB12
 5409 1642 64000000 		.4byte	.LFE12-.LFB12
 5410 1646 01       		.uleb128 0x1
 5411 1647 9C       		.byte	0x9c
 5412 1648 7A160000 		.4byte	0x167a
 5413 164c 25       		.uleb128 0x25
 5414 164d 77190000 		.4byte	.LASF387
 5415 1651 01       		.byte	0x1
 5416 1652 6103     		.2byte	0x361
 5417 1654 81000000 		.4byte	0x81
 5418 1658 02       		.uleb128 0x2
 5419 1659 91       		.byte	0x91
 5420 165a 6F       		.sleb128 -17
 5421 165b 26       		.uleb128 0x26
 5422 165c 9B0F0000 		.4byte	.LASF384
 5423 1660 01       		.byte	0x1
 5424 1661 6303     		.2byte	0x363
 5425 1663 17080000 		.4byte	0x817
 5426 1667 02       		.uleb128 0x2
 5427 1668 91       		.byte	0x91
 5428 1669 74       		.sleb128 -12
 5429 166a 26       		.uleb128 0x26
ARM GAS  C:\Users\RECEPC~1\AppData\Local\Temp\ccxS8OWg.s 			page 112


 5430 166b 021B0000 		.4byte	.LASF369
 5431 166f 01       		.byte	0x1
 5432 1670 6403     		.2byte	0x364
 5433 1672 81000000 		.4byte	0x81
 5434 1676 02       		.uleb128 0x2
 5435 1677 91       		.byte	0x91
 5436 1678 73       		.sleb128 -13
 5437 1679 00       		.byte	0
 5438 167a 28       		.uleb128 0x28
 5439 167b D90F0000 		.4byte	.LASF388
 5440 167f 0E       		.byte	0xe
 5441 1680 49       		.byte	0x49
 5442 1681 8D000000 		.4byte	0x8d
 5443 1685 29       		.uleb128 0x29
 5444 1686 33040000 		.4byte	.LASF389
 5445 168a 08       		.byte	0x8
 5446 168b 4B02     		.2byte	0x24b
 5447 168d 810B0000 		.4byte	0xb81
 5448 1691 0E       		.uleb128 0xe
 5449 1692 0B080000 		.4byte	0x80b
 5450 1696 A1160000 		.4byte	0x16a1
 5451 169a 16       		.uleb128 0x16
 5452 169b E1000000 		.4byte	0xe1
 5453 169f 03       		.byte	0x3
 5454 16a0 00       		.byte	0
 5455 16a1 29       		.uleb128 0x29
 5456 16a2 F60C0000 		.4byte	.LASF390
 5457 16a6 08       		.byte	0x8
 5458 16a7 4C02     		.2byte	0x24c
 5459 16a9 91160000 		.4byte	0x1691
 5460 16ad 29       		.uleb128 0x29
 5461 16ae 2A020000 		.4byte	.LASF391
 5462 16b2 08       		.byte	0x8
 5463 16b3 4E02     		.2byte	0x24e
 5464 16b5 770C0000 		.4byte	0xc77
 5465 16b9 28       		.uleb128 0x28
 5466 16ba 3F170000 		.4byte	.LASF392
 5467 16be 0B       		.byte	0xb
 5468 16bf 74       		.byte	0x74
 5469 16c0 710E0000 		.4byte	0xe71
 5470 16c4 28       		.uleb128 0x28
 5471 16c5 50170000 		.4byte	.LASF393
 5472 16c9 0D       		.byte	0xd
 5473 16ca C2       		.byte	0xc2
 5474 16cb E50F0000 		.4byte	0xfe5
 5475 16cf 0E       		.uleb128 0xe
 5476 16d0 B00C0000 		.4byte	0xcb0
 5477 16d4 DF160000 		.4byte	0x16df
 5478 16d8 16       		.uleb128 0x16
 5479 16d9 E1000000 		.4byte	0xe1
 5480 16dd 04       		.byte	0x4
 5481 16de 00       		.byte	0
 5482 16df 2A       		.uleb128 0x2a
 5483 16e0 3C1D0000 		.4byte	.LASF394
 5484 16e4 01       		.byte	0x1
 5485 16e5 1E       		.byte	0x1e
 5486 16e6 CF160000 		.4byte	0x16cf
ARM GAS  C:\Users\RECEPC~1\AppData\Local\Temp\ccxS8OWg.s 			page 113


 5487 16ea 05       		.uleb128 0x5
 5488 16eb 03       		.byte	0x3
 5489 16ec 00000000 		.4byte	_g_pumpcodemap
 5490 16f0 2A       		.uleb128 0x2a
 5491 16f1 38130000 		.4byte	.LASF395
 5492 16f5 01       		.byte	0x1
 5493 16f6 27       		.byte	0x27
 5494 16f7 BB0C0000 		.4byte	0xcbb
 5495 16fb 05       		.uleb128 0x5
 5496 16fc 03       		.byte	0x3
 5497 16fd 00000000 		.4byte	_g_ptractprogramming
 5498 1701 00       		.byte	0
 5499              		.section	.debug_abbrev,"",%progbits
 5500              	.Ldebug_abbrev0:
 5501 0000 01       		.uleb128 0x1
 5502 0001 11       		.uleb128 0x11
 5503 0002 01       		.byte	0x1
 5504 0003 25       		.uleb128 0x25
 5505 0004 0E       		.uleb128 0xe
 5506 0005 13       		.uleb128 0x13
 5507 0006 0B       		.uleb128 0xb
 5508 0007 03       		.uleb128 0x3
 5509 0008 0E       		.uleb128 0xe
 5510 0009 1B       		.uleb128 0x1b
 5511 000a 0E       		.uleb128 0xe
 5512 000b 55       		.uleb128 0x55
 5513 000c 17       		.uleb128 0x17
 5514 000d 11       		.uleb128 0x11
 5515 000e 01       		.uleb128 0x1
 5516 000f 10       		.uleb128 0x10
 5517 0010 17       		.uleb128 0x17
 5518 0011 00       		.byte	0
 5519 0012 00       		.byte	0
 5520 0013 02       		.uleb128 0x2
 5521 0014 24       		.uleb128 0x24
 5522 0015 00       		.byte	0
 5523 0016 0B       		.uleb128 0xb
 5524 0017 0B       		.uleb128 0xb
 5525 0018 3E       		.uleb128 0x3e
 5526 0019 0B       		.uleb128 0xb
 5527 001a 03       		.uleb128 0x3
 5528 001b 0E       		.uleb128 0xe
 5529 001c 00       		.byte	0
 5530 001d 00       		.byte	0
 5531 001e 03       		.uleb128 0x3
 5532 001f 16       		.uleb128 0x16
 5533 0020 00       		.byte	0
 5534 0021 03       		.uleb128 0x3
 5535 0022 0E       		.uleb128 0xe
 5536 0023 3A       		.uleb128 0x3a
 5537 0024 0B       		.uleb128 0xb
 5538 0025 3B       		.uleb128 0x3b
 5539 0026 0B       		.uleb128 0xb
 5540 0027 49       		.uleb128 0x49
 5541 0028 13       		.uleb128 0x13
 5542 0029 00       		.byte	0
 5543 002a 00       		.byte	0
ARM GAS  C:\Users\RECEPC~1\AppData\Local\Temp\ccxS8OWg.s 			page 114


 5544 002b 04       		.uleb128 0x4
 5545 002c 24       		.uleb128 0x24
 5546 002d 00       		.byte	0
 5547 002e 0B       		.uleb128 0xb
 5548 002f 0B       		.uleb128 0xb
 5549 0030 3E       		.uleb128 0x3e
 5550 0031 0B       		.uleb128 0xb
 5551 0032 03       		.uleb128 0x3
 5552 0033 08       		.uleb128 0x8
 5553 0034 00       		.byte	0
 5554 0035 00       		.byte	0
 5555 0036 05       		.uleb128 0x5
 5556 0037 16       		.uleb128 0x16
 5557 0038 00       		.byte	0
 5558 0039 03       		.uleb128 0x3
 5559 003a 0E       		.uleb128 0xe
 5560 003b 3A       		.uleb128 0x3a
 5561 003c 0B       		.uleb128 0xb
 5562 003d 3B       		.uleb128 0x3b
 5563 003e 05       		.uleb128 0x5
 5564 003f 49       		.uleb128 0x49
 5565 0040 13       		.uleb128 0x13
 5566 0041 00       		.byte	0
 5567 0042 00       		.byte	0
 5568 0043 06       		.uleb128 0x6
 5569 0044 35       		.uleb128 0x35
 5570 0045 00       		.byte	0
 5571 0046 49       		.uleb128 0x49
 5572 0047 13       		.uleb128 0x13
 5573 0048 00       		.byte	0
 5574 0049 00       		.byte	0
 5575 004a 07       		.uleb128 0x7
 5576 004b 0F       		.uleb128 0xf
 5577 004c 00       		.byte	0
 5578 004d 0B       		.uleb128 0xb
 5579 004e 0B       		.uleb128 0xb
 5580 004f 00       		.byte	0
 5581 0050 00       		.byte	0
 5582 0051 08       		.uleb128 0x8
 5583 0052 0F       		.uleb128 0xf
 5584 0053 00       		.byte	0
 5585 0054 0B       		.uleb128 0xb
 5586 0055 0B       		.uleb128 0xb
 5587 0056 49       		.uleb128 0x49
 5588 0057 13       		.uleb128 0x13
 5589 0058 00       		.byte	0
 5590 0059 00       		.byte	0
 5591 005a 09       		.uleb128 0x9
 5592 005b 04       		.uleb128 0x4
 5593 005c 01       		.byte	0x1
 5594 005d 03       		.uleb128 0x3
 5595 005e 0E       		.uleb128 0xe
 5596 005f 0B       		.uleb128 0xb
 5597 0060 0B       		.uleb128 0xb
 5598 0061 3A       		.uleb128 0x3a
 5599 0062 0B       		.uleb128 0xb
 5600 0063 3B       		.uleb128 0x3b
ARM GAS  C:\Users\RECEPC~1\AppData\Local\Temp\ccxS8OWg.s 			page 115


 5601 0064 0B       		.uleb128 0xb
 5602 0065 01       		.uleb128 0x1
 5603 0066 13       		.uleb128 0x13
 5604 0067 00       		.byte	0
 5605 0068 00       		.byte	0
 5606 0069 0A       		.uleb128 0xa
 5607 006a 28       		.uleb128 0x28
 5608 006b 00       		.byte	0
 5609 006c 03       		.uleb128 0x3
 5610 006d 0E       		.uleb128 0xe
 5611 006e 1C       		.uleb128 0x1c
 5612 006f 0D       		.uleb128 0xd
 5613 0070 00       		.byte	0
 5614 0071 00       		.byte	0
 5615 0072 0B       		.uleb128 0xb
 5616 0073 13       		.uleb128 0x13
 5617 0074 01       		.byte	0x1
 5618 0075 03       		.uleb128 0x3
 5619 0076 0E       		.uleb128 0xe
 5620 0077 0B       		.uleb128 0xb
 5621 0078 05       		.uleb128 0x5
 5622 0079 3A       		.uleb128 0x3a
 5623 007a 0B       		.uleb128 0xb
 5624 007b 3B       		.uleb128 0x3b
 5625 007c 0B       		.uleb128 0xb
 5626 007d 01       		.uleb128 0x1
 5627 007e 13       		.uleb128 0x13
 5628 007f 00       		.byte	0
 5629 0080 00       		.byte	0
 5630 0081 0C       		.uleb128 0xc
 5631 0082 0D       		.uleb128 0xd
 5632 0083 00       		.byte	0
 5633 0084 03       		.uleb128 0x3
 5634 0085 0E       		.uleb128 0xe
 5635 0086 3A       		.uleb128 0x3a
 5636 0087 0B       		.uleb128 0xb
 5637 0088 3B       		.uleb128 0x3b
 5638 0089 0B       		.uleb128 0xb
 5639 008a 49       		.uleb128 0x49
 5640 008b 13       		.uleb128 0x13
 5641 008c 38       		.uleb128 0x38
 5642 008d 0B       		.uleb128 0xb
 5643 008e 00       		.byte	0
 5644 008f 00       		.byte	0
 5645 0090 0D       		.uleb128 0xd
 5646 0091 0D       		.uleb128 0xd
 5647 0092 00       		.byte	0
 5648 0093 03       		.uleb128 0x3
 5649 0094 0E       		.uleb128 0xe
 5650 0095 3A       		.uleb128 0x3a
 5651 0096 0B       		.uleb128 0xb
 5652 0097 3B       		.uleb128 0x3b
 5653 0098 0B       		.uleb128 0xb
 5654 0099 49       		.uleb128 0x49
 5655 009a 13       		.uleb128 0x13
 5656 009b 38       		.uleb128 0x38
 5657 009c 05       		.uleb128 0x5
ARM GAS  C:\Users\RECEPC~1\AppData\Local\Temp\ccxS8OWg.s 			page 116


 5658 009d 00       		.byte	0
 5659 009e 00       		.byte	0
 5660 009f 0E       		.uleb128 0xe
 5661 00a0 01       		.uleb128 0x1
 5662 00a1 01       		.byte	0x1
 5663 00a2 49       		.uleb128 0x49
 5664 00a3 13       		.uleb128 0x13
 5665 00a4 01       		.uleb128 0x1
 5666 00a5 13       		.uleb128 0x13
 5667 00a6 00       		.byte	0
 5668 00a7 00       		.byte	0
 5669 00a8 0F       		.uleb128 0xf
 5670 00a9 21       		.uleb128 0x21
 5671 00aa 00       		.byte	0
 5672 00ab 49       		.uleb128 0x49
 5673 00ac 13       		.uleb128 0x13
 5674 00ad 2F       		.uleb128 0x2f
 5675 00ae 05       		.uleb128 0x5
 5676 00af 00       		.byte	0
 5677 00b0 00       		.byte	0
 5678 00b1 10       		.uleb128 0x10
 5679 00b2 15       		.uleb128 0x15
 5680 00b3 01       		.byte	0x1
 5681 00b4 27       		.uleb128 0x27
 5682 00b5 19       		.uleb128 0x19
 5683 00b6 01       		.uleb128 0x1
 5684 00b7 13       		.uleb128 0x13
 5685 00b8 00       		.byte	0
 5686 00b9 00       		.byte	0
 5687 00ba 11       		.uleb128 0x11
 5688 00bb 05       		.uleb128 0x5
 5689 00bc 00       		.byte	0
 5690 00bd 49       		.uleb128 0x49
 5691 00be 13       		.uleb128 0x13
 5692 00bf 00       		.byte	0
 5693 00c0 00       		.byte	0
 5694 00c1 12       		.uleb128 0x12
 5695 00c2 04       		.uleb128 0x4
 5696 00c3 01       		.byte	0x1
 5697 00c4 03       		.uleb128 0x3
 5698 00c5 0E       		.uleb128 0xe
 5699 00c6 0B       		.uleb128 0xb
 5700 00c7 0B       		.uleb128 0xb
 5701 00c8 3A       		.uleb128 0x3a
 5702 00c9 0B       		.uleb128 0xb
 5703 00ca 3B       		.uleb128 0x3b
 5704 00cb 05       		.uleb128 0x5
 5705 00cc 01       		.uleb128 0x1
 5706 00cd 13       		.uleb128 0x13
 5707 00ce 00       		.byte	0
 5708 00cf 00       		.byte	0
 5709 00d0 13       		.uleb128 0x13
 5710 00d1 13       		.uleb128 0x13
 5711 00d2 01       		.byte	0x1
 5712 00d3 0B       		.uleb128 0xb
 5713 00d4 05       		.uleb128 0x5
 5714 00d5 3A       		.uleb128 0x3a
ARM GAS  C:\Users\RECEPC~1\AppData\Local\Temp\ccxS8OWg.s 			page 117


 5715 00d6 0B       		.uleb128 0xb
 5716 00d7 3B       		.uleb128 0x3b
 5717 00d8 05       		.uleb128 0x5
 5718 00d9 01       		.uleb128 0x1
 5719 00da 13       		.uleb128 0x13
 5720 00db 00       		.byte	0
 5721 00dc 00       		.byte	0
 5722 00dd 14       		.uleb128 0x14
 5723 00de 0D       		.uleb128 0xd
 5724 00df 00       		.byte	0
 5725 00e0 03       		.uleb128 0x3
 5726 00e1 0E       		.uleb128 0xe
 5727 00e2 3A       		.uleb128 0x3a
 5728 00e3 0B       		.uleb128 0xb
 5729 00e4 3B       		.uleb128 0x3b
 5730 00e5 05       		.uleb128 0x5
 5731 00e6 49       		.uleb128 0x49
 5732 00e7 13       		.uleb128 0x13
 5733 00e8 38       		.uleb128 0x38
 5734 00e9 0B       		.uleb128 0xb
 5735 00ea 00       		.byte	0
 5736 00eb 00       		.byte	0
 5737 00ec 15       		.uleb128 0x15
 5738 00ed 0D       		.uleb128 0xd
 5739 00ee 00       		.byte	0
 5740 00ef 03       		.uleb128 0x3
 5741 00f0 0E       		.uleb128 0xe
 5742 00f1 3A       		.uleb128 0x3a
 5743 00f2 0B       		.uleb128 0xb
 5744 00f3 3B       		.uleb128 0x3b
 5745 00f4 05       		.uleb128 0x5
 5746 00f5 49       		.uleb128 0x49
 5747 00f6 13       		.uleb128 0x13
 5748 00f7 38       		.uleb128 0x38
 5749 00f8 05       		.uleb128 0x5
 5750 00f9 00       		.byte	0
 5751 00fa 00       		.byte	0
 5752 00fb 16       		.uleb128 0x16
 5753 00fc 21       		.uleb128 0x21
 5754 00fd 00       		.byte	0
 5755 00fe 49       		.uleb128 0x49
 5756 00ff 13       		.uleb128 0x13
 5757 0100 2F       		.uleb128 0x2f
 5758 0101 0B       		.uleb128 0xb
 5759 0102 00       		.byte	0
 5760 0103 00       		.byte	0
 5761 0104 17       		.uleb128 0x17
 5762 0105 13       		.uleb128 0x13
 5763 0106 01       		.byte	0x1
 5764 0107 0B       		.uleb128 0xb
 5765 0108 0B       		.uleb128 0xb
 5766 0109 3A       		.uleb128 0x3a
 5767 010a 0B       		.uleb128 0xb
 5768 010b 3B       		.uleb128 0x3b
 5769 010c 05       		.uleb128 0x5
 5770 010d 01       		.uleb128 0x1
 5771 010e 13       		.uleb128 0x13
ARM GAS  C:\Users\RECEPC~1\AppData\Local\Temp\ccxS8OWg.s 			page 118


 5772 010f 00       		.byte	0
 5773 0110 00       		.byte	0
 5774 0111 18       		.uleb128 0x18
 5775 0112 13       		.uleb128 0x13
 5776 0113 01       		.byte	0x1
 5777 0114 03       		.uleb128 0x3
 5778 0115 0E       		.uleb128 0xe
 5779 0116 0B       		.uleb128 0xb
 5780 0117 05       		.uleb128 0x5
 5781 0118 3A       		.uleb128 0x3a
 5782 0119 0B       		.uleb128 0xb
 5783 011a 3B       		.uleb128 0x3b
 5784 011b 05       		.uleb128 0x5
 5785 011c 01       		.uleb128 0x1
 5786 011d 13       		.uleb128 0x13
 5787 011e 00       		.byte	0
 5788 011f 00       		.byte	0
 5789 0120 19       		.uleb128 0x19
 5790 0121 15       		.uleb128 0x15
 5791 0122 01       		.byte	0x1
 5792 0123 27       		.uleb128 0x27
 5793 0124 19       		.uleb128 0x19
 5794 0125 49       		.uleb128 0x49
 5795 0126 13       		.uleb128 0x13
 5796 0127 01       		.uleb128 0x1
 5797 0128 13       		.uleb128 0x13
 5798 0129 00       		.byte	0
 5799 012a 00       		.byte	0
 5800 012b 1A       		.uleb128 0x1a
 5801 012c 13       		.uleb128 0x13
 5802 012d 01       		.byte	0x1
 5803 012e 03       		.uleb128 0x3
 5804 012f 0E       		.uleb128 0xe
 5805 0130 0B       		.uleb128 0xb
 5806 0131 0B       		.uleb128 0xb
 5807 0132 3A       		.uleb128 0x3a
 5808 0133 0B       		.uleb128 0xb
 5809 0134 3B       		.uleb128 0x3b
 5810 0135 05       		.uleb128 0x5
 5811 0136 01       		.uleb128 0x1
 5812 0137 13       		.uleb128 0x13
 5813 0138 00       		.byte	0
 5814 0139 00       		.byte	0
 5815 013a 1B       		.uleb128 0x1b
 5816 013b 0D       		.uleb128 0xd
 5817 013c 00       		.byte	0
 5818 013d 03       		.uleb128 0x3
 5819 013e 0E       		.uleb128 0xe
 5820 013f 3A       		.uleb128 0x3a
 5821 0140 0B       		.uleb128 0xb
 5822 0141 3B       		.uleb128 0x3b
 5823 0142 05       		.uleb128 0x5
 5824 0143 49       		.uleb128 0x49
 5825 0144 13       		.uleb128 0x13
 5826 0145 0B       		.uleb128 0xb
 5827 0146 0B       		.uleb128 0xb
 5828 0147 0D       		.uleb128 0xd
ARM GAS  C:\Users\RECEPC~1\AppData\Local\Temp\ccxS8OWg.s 			page 119


 5829 0148 0B       		.uleb128 0xb
 5830 0149 0C       		.uleb128 0xc
 5831 014a 0B       		.uleb128 0xb
 5832 014b 38       		.uleb128 0x38
 5833 014c 0B       		.uleb128 0xb
 5834 014d 00       		.byte	0
 5835 014e 00       		.byte	0
 5836 014f 1C       		.uleb128 0x1c
 5837 0150 13       		.uleb128 0x13
 5838 0151 01       		.byte	0x1
 5839 0152 0B       		.uleb128 0xb
 5840 0153 0B       		.uleb128 0xb
 5841 0154 3A       		.uleb128 0x3a
 5842 0155 0B       		.uleb128 0xb
 5843 0156 3B       		.uleb128 0x3b
 5844 0157 0B       		.uleb128 0xb
 5845 0158 01       		.uleb128 0x1
 5846 0159 13       		.uleb128 0x13
 5847 015a 00       		.byte	0
 5848 015b 00       		.byte	0
 5849 015c 1D       		.uleb128 0x1d
 5850 015d 04       		.uleb128 0x4
 5851 015e 01       		.byte	0x1
 5852 015f 0B       		.uleb128 0xb
 5853 0160 0B       		.uleb128 0xb
 5854 0161 3A       		.uleb128 0x3a
 5855 0162 0B       		.uleb128 0xb
 5856 0163 3B       		.uleb128 0x3b
 5857 0164 0B       		.uleb128 0xb
 5858 0165 01       		.uleb128 0x1
 5859 0166 13       		.uleb128 0x13
 5860 0167 00       		.byte	0
 5861 0168 00       		.byte	0
 5862 0169 1E       		.uleb128 0x1e
 5863 016a 2E       		.uleb128 0x2e
 5864 016b 01       		.byte	0x1
 5865 016c 3F       		.uleb128 0x3f
 5866 016d 19       		.uleb128 0x19
 5867 016e 03       		.uleb128 0x3
 5868 016f 0E       		.uleb128 0xe
 5869 0170 3A       		.uleb128 0x3a
 5870 0171 0B       		.uleb128 0xb
 5871 0172 3B       		.uleb128 0x3b
 5872 0173 0B       		.uleb128 0xb
 5873 0174 27       		.uleb128 0x27
 5874 0175 19       		.uleb128 0x19
 5875 0176 11       		.uleb128 0x11
 5876 0177 01       		.uleb128 0x1
 5877 0178 12       		.uleb128 0x12
 5878 0179 06       		.uleb128 0x6
 5879 017a 40       		.uleb128 0x40
 5880 017b 18       		.uleb128 0x18
 5881 017c 9642     		.uleb128 0x2116
 5882 017e 19       		.uleb128 0x19
 5883 017f 01       		.uleb128 0x1
 5884 0180 13       		.uleb128 0x13
 5885 0181 00       		.byte	0
ARM GAS  C:\Users\RECEPC~1\AppData\Local\Temp\ccxS8OWg.s 			page 120


 5886 0182 00       		.byte	0
 5887 0183 1F       		.uleb128 0x1f
 5888 0184 05       		.uleb128 0x5
 5889 0185 00       		.byte	0
 5890 0186 03       		.uleb128 0x3
 5891 0187 0E       		.uleb128 0xe
 5892 0188 3A       		.uleb128 0x3a
 5893 0189 0B       		.uleb128 0xb
 5894 018a 3B       		.uleb128 0x3b
 5895 018b 0B       		.uleb128 0xb
 5896 018c 49       		.uleb128 0x49
 5897 018d 13       		.uleb128 0x13
 5898 018e 02       		.uleb128 0x2
 5899 018f 18       		.uleb128 0x18
 5900 0190 00       		.byte	0
 5901 0191 00       		.byte	0
 5902 0192 20       		.uleb128 0x20
 5903 0193 34       		.uleb128 0x34
 5904 0194 00       		.byte	0
 5905 0195 03       		.uleb128 0x3
 5906 0196 0E       		.uleb128 0xe
 5907 0197 3A       		.uleb128 0x3a
 5908 0198 0B       		.uleb128 0xb
 5909 0199 3B       		.uleb128 0x3b
 5910 019a 0B       		.uleb128 0xb
 5911 019b 49       		.uleb128 0x49
 5912 019c 13       		.uleb128 0x13
 5913 019d 02       		.uleb128 0x2
 5914 019e 18       		.uleb128 0x18
 5915 019f 00       		.byte	0
 5916 01a0 00       		.byte	0
 5917 01a1 21       		.uleb128 0x21
 5918 01a2 34       		.uleb128 0x34
 5919 01a3 00       		.byte	0
 5920 01a4 03       		.uleb128 0x3
 5921 01a5 08       		.uleb128 0x8
 5922 01a6 3A       		.uleb128 0x3a
 5923 01a7 0B       		.uleb128 0xb
 5924 01a8 3B       		.uleb128 0x3b
 5925 01a9 0B       		.uleb128 0xb
 5926 01aa 49       		.uleb128 0x49
 5927 01ab 13       		.uleb128 0x13
 5928 01ac 02       		.uleb128 0x2
 5929 01ad 18       		.uleb128 0x18
 5930 01ae 00       		.byte	0
 5931 01af 00       		.byte	0
 5932 01b0 22       		.uleb128 0x22
 5933 01b1 0B       		.uleb128 0xb
 5934 01b2 01       		.byte	0x1
 5935 01b3 11       		.uleb128 0x11
 5936 01b4 01       		.uleb128 0x1
 5937 01b5 12       		.uleb128 0x12
 5938 01b6 06       		.uleb128 0x6
 5939 01b7 00       		.byte	0
 5940 01b8 00       		.byte	0
 5941 01b9 23       		.uleb128 0x23
 5942 01ba 0B       		.uleb128 0xb
ARM GAS  C:\Users\RECEPC~1\AppData\Local\Temp\ccxS8OWg.s 			page 121


 5943 01bb 01       		.byte	0x1
 5944 01bc 11       		.uleb128 0x11
 5945 01bd 01       		.uleb128 0x1
 5946 01be 12       		.uleb128 0x12
 5947 01bf 06       		.uleb128 0x6
 5948 01c0 01       		.uleb128 0x1
 5949 01c1 13       		.uleb128 0x13
 5950 01c2 00       		.byte	0
 5951 01c3 00       		.byte	0
 5952 01c4 24       		.uleb128 0x24
 5953 01c5 2E       		.uleb128 0x2e
 5954 01c6 01       		.byte	0x1
 5955 01c7 3F       		.uleb128 0x3f
 5956 01c8 19       		.uleb128 0x19
 5957 01c9 03       		.uleb128 0x3
 5958 01ca 0E       		.uleb128 0xe
 5959 01cb 3A       		.uleb128 0x3a
 5960 01cc 0B       		.uleb128 0xb
 5961 01cd 3B       		.uleb128 0x3b
 5962 01ce 05       		.uleb128 0x5
 5963 01cf 27       		.uleb128 0x27
 5964 01d0 19       		.uleb128 0x19
 5965 01d1 11       		.uleb128 0x11
 5966 01d2 01       		.uleb128 0x1
 5967 01d3 12       		.uleb128 0x12
 5968 01d4 06       		.uleb128 0x6
 5969 01d5 40       		.uleb128 0x40
 5970 01d6 18       		.uleb128 0x18
 5971 01d7 9642     		.uleb128 0x2116
 5972 01d9 19       		.uleb128 0x19
 5973 01da 01       		.uleb128 0x1
 5974 01db 13       		.uleb128 0x13
 5975 01dc 00       		.byte	0
 5976 01dd 00       		.byte	0
 5977 01de 25       		.uleb128 0x25
 5978 01df 05       		.uleb128 0x5
 5979 01e0 00       		.byte	0
 5980 01e1 03       		.uleb128 0x3
 5981 01e2 0E       		.uleb128 0xe
 5982 01e3 3A       		.uleb128 0x3a
 5983 01e4 0B       		.uleb128 0xb
 5984 01e5 3B       		.uleb128 0x3b
 5985 01e6 05       		.uleb128 0x5
 5986 01e7 49       		.uleb128 0x49
 5987 01e8 13       		.uleb128 0x13
 5988 01e9 02       		.uleb128 0x2
 5989 01ea 18       		.uleb128 0x18
 5990 01eb 00       		.byte	0
 5991 01ec 00       		.byte	0
 5992 01ed 26       		.uleb128 0x26
 5993 01ee 34       		.uleb128 0x34
 5994 01ef 00       		.byte	0
 5995 01f0 03       		.uleb128 0x3
 5996 01f1 0E       		.uleb128 0xe
 5997 01f2 3A       		.uleb128 0x3a
 5998 01f3 0B       		.uleb128 0xb
 5999 01f4 3B       		.uleb128 0x3b
ARM GAS  C:\Users\RECEPC~1\AppData\Local\Temp\ccxS8OWg.s 			page 122


 6000 01f5 05       		.uleb128 0x5
 6001 01f6 49       		.uleb128 0x49
 6002 01f7 13       		.uleb128 0x13
 6003 01f8 02       		.uleb128 0x2
 6004 01f9 18       		.uleb128 0x18
 6005 01fa 00       		.byte	0
 6006 01fb 00       		.byte	0
 6007 01fc 27       		.uleb128 0x27
 6008 01fd 2E       		.uleb128 0x2e
 6009 01fe 01       		.byte	0x1
 6010 01ff 3F       		.uleb128 0x3f
 6011 0200 19       		.uleb128 0x19
 6012 0201 03       		.uleb128 0x3
 6013 0202 0E       		.uleb128 0xe
 6014 0203 3A       		.uleb128 0x3a
 6015 0204 0B       		.uleb128 0xb
 6016 0205 3B       		.uleb128 0x3b
 6017 0206 05       		.uleb128 0x5
 6018 0207 27       		.uleb128 0x27
 6019 0208 19       		.uleb128 0x19
 6020 0209 49       		.uleb128 0x49
 6021 020a 13       		.uleb128 0x13
 6022 020b 11       		.uleb128 0x11
 6023 020c 01       		.uleb128 0x1
 6024 020d 12       		.uleb128 0x12
 6025 020e 06       		.uleb128 0x6
 6026 020f 40       		.uleb128 0x40
 6027 0210 18       		.uleb128 0x18
 6028 0211 9742     		.uleb128 0x2117
 6029 0213 19       		.uleb128 0x19
 6030 0214 01       		.uleb128 0x1
 6031 0215 13       		.uleb128 0x13
 6032 0216 00       		.byte	0
 6033 0217 00       		.byte	0
 6034 0218 28       		.uleb128 0x28
 6035 0219 34       		.uleb128 0x34
 6036 021a 00       		.byte	0
 6037 021b 03       		.uleb128 0x3
 6038 021c 0E       		.uleb128 0xe
 6039 021d 3A       		.uleb128 0x3a
 6040 021e 0B       		.uleb128 0xb
 6041 021f 3B       		.uleb128 0x3b
 6042 0220 0B       		.uleb128 0xb
 6043 0221 49       		.uleb128 0x49
 6044 0222 13       		.uleb128 0x13
 6045 0223 3F       		.uleb128 0x3f
 6046 0224 19       		.uleb128 0x19
 6047 0225 3C       		.uleb128 0x3c
 6048 0226 19       		.uleb128 0x19
 6049 0227 00       		.byte	0
 6050 0228 00       		.byte	0
 6051 0229 29       		.uleb128 0x29
 6052 022a 34       		.uleb128 0x34
 6053 022b 00       		.byte	0
 6054 022c 03       		.uleb128 0x3
 6055 022d 0E       		.uleb128 0xe
 6056 022e 3A       		.uleb128 0x3a
ARM GAS  C:\Users\RECEPC~1\AppData\Local\Temp\ccxS8OWg.s 			page 123


 6057 022f 0B       		.uleb128 0xb
 6058 0230 3B       		.uleb128 0x3b
 6059 0231 05       		.uleb128 0x5
 6060 0232 49       		.uleb128 0x49
 6061 0233 13       		.uleb128 0x13
 6062 0234 3F       		.uleb128 0x3f
 6063 0235 19       		.uleb128 0x19
 6064 0236 3C       		.uleb128 0x3c
 6065 0237 19       		.uleb128 0x19
 6066 0238 00       		.byte	0
 6067 0239 00       		.byte	0
 6068 023a 2A       		.uleb128 0x2a
 6069 023b 34       		.uleb128 0x34
 6070 023c 00       		.byte	0
 6071 023d 03       		.uleb128 0x3
 6072 023e 0E       		.uleb128 0xe
 6073 023f 3A       		.uleb128 0x3a
 6074 0240 0B       		.uleb128 0xb
 6075 0241 3B       		.uleb128 0x3b
 6076 0242 0B       		.uleb128 0xb
 6077 0243 49       		.uleb128 0x49
 6078 0244 13       		.uleb128 0x13
 6079 0245 3F       		.uleb128 0x3f
 6080 0246 19       		.uleb128 0x19
 6081 0247 02       		.uleb128 0x2
 6082 0248 18       		.uleb128 0x18
 6083 0249 00       		.byte	0
 6084 024a 00       		.byte	0
 6085 024b 00       		.byte	0
 6086              		.section	.debug_aranges,"",%progbits
 6087 0000 7C000000 		.4byte	0x7c
 6088 0004 0200     		.2byte	0x2
 6089 0006 00000000 		.4byte	.Ldebug_info0
 6090 000a 04       		.byte	0x4
 6091 000b 00       		.byte	0
 6092 000c 0000     		.2byte	0
 6093 000e 0000     		.2byte	0
 6094 0010 00000000 		.4byte	.LFB0
 6095 0014 4C010000 		.4byte	.LFE0-.LFB0
 6096 0018 00000000 		.4byte	.LFB1
 6097 001c 4C010000 		.4byte	.LFE1-.LFB1
 6098 0020 00000000 		.4byte	.LFB2
 6099 0024 38010000 		.4byte	.LFE2-.LFB2
 6100 0028 00000000 		.4byte	.LFB3
 6101 002c D4000000 		.4byte	.LFE3-.LFB3
 6102 0030 00000000 		.4byte	.LFB4
 6103 0034 A4000000 		.4byte	.LFE4-.LFB4
 6104 0038 00000000 		.4byte	.LFB5
 6105 003c 08010000 		.4byte	.LFE5-.LFB5
 6106 0040 00000000 		.4byte	.LFB6
 6107 0044 2C010000 		.4byte	.LFE6-.LFB6
 6108 0048 00000000 		.4byte	.LFB7
 6109 004c 70030000 		.4byte	.LFE7-.LFB7
 6110 0050 00000000 		.4byte	.LFB8
 6111 0054 A0000000 		.4byte	.LFE8-.LFB8
 6112 0058 00000000 		.4byte	.LFB9
 6113 005c 48010000 		.4byte	.LFE9-.LFB9
ARM GAS  C:\Users\RECEPC~1\AppData\Local\Temp\ccxS8OWg.s 			page 124


 6114 0060 00000000 		.4byte	.LFB10
 6115 0064 E4010000 		.4byte	.LFE10-.LFB10
 6116 0068 00000000 		.4byte	.LFB11
 6117 006c B0000000 		.4byte	.LFE11-.LFB11
 6118 0070 00000000 		.4byte	.LFB12
 6119 0074 64000000 		.4byte	.LFE12-.LFB12
 6120 0078 00000000 		.4byte	0
 6121 007c 00000000 		.4byte	0
 6122              		.section	.debug_ranges,"",%progbits
 6123              	.Ldebug_ranges0:
 6124 0000 00000000 		.4byte	.LFB0
 6125 0004 4C010000 		.4byte	.LFE0
 6126 0008 00000000 		.4byte	.LFB1
 6127 000c 4C010000 		.4byte	.LFE1
 6128 0010 00000000 		.4byte	.LFB2
 6129 0014 38010000 		.4byte	.LFE2
 6130 0018 00000000 		.4byte	.LFB3
 6131 001c D4000000 		.4byte	.LFE3
 6132 0020 00000000 		.4byte	.LFB4
 6133 0024 A4000000 		.4byte	.LFE4
 6134 0028 00000000 		.4byte	.LFB5
 6135 002c 08010000 		.4byte	.LFE5
 6136 0030 00000000 		.4byte	.LFB6
 6137 0034 2C010000 		.4byte	.LFE6
 6138 0038 00000000 		.4byte	.LFB7
 6139 003c 70030000 		.4byte	.LFE7
 6140 0040 00000000 		.4byte	.LFB8
 6141 0044 A0000000 		.4byte	.LFE8
 6142 0048 00000000 		.4byte	.LFB9
 6143 004c 48010000 		.4byte	.LFE9
 6144 0050 00000000 		.4byte	.LFB10
 6145 0054 E4010000 		.4byte	.LFE10
 6146 0058 00000000 		.4byte	.LFB11
 6147 005c B0000000 		.4byte	.LFE11
 6148 0060 00000000 		.4byte	.LFB12
 6149 0064 64000000 		.4byte	.LFE12
 6150 0068 00000000 		.4byte	0
 6151 006c 00000000 		.4byte	0
 6152              		.section	.debug_line,"",%progbits
 6153              	.Ldebug_line0:
 6154 0000 90050000 		.section	.debug_str,"MS",%progbits,1
 6154      0200F701 
 6154      00000201 
 6154      FB0E0D00 
 6154      01010101 
 6155              	.LASF310:
 6156 0000 5F707269 		.ascii	"_printerportside2\000"
 6156      6E746572 
 6156      706F7274 
 6156      73696465 
 6156      3200
 6157              	.LASF244:
 6158 0012 5F706F73 		.ascii	"_positionoffset\000"
 6158      6974696F 
 6158      6E6F6666 
 6158      73657400 
 6159              	.LASF157:
ARM GAS  C:\Users\RECEPC~1\AppData\Local\Temp\ccxS8OWg.s 			page 125


 6160 0022 5F70756D 		.ascii	"_pumprftransstate\000"
 6160      70726674 
 6160      72616E73 
 6160      73746174 
 6160      6500
 6161              	.LASF359:
 6162 0034 7070756D 		.ascii	"ppump\000"
 6162      7000
 6163              	.LASF239:
 6164 003a 5F766F6C 		.ascii	"_volumeunit\000"
 6164      756D6575 
 6164      6E697400 
 6165              	.LASF144:
 6166 0046 5F53494E 		.ascii	"_SINK_MESSAGE_\000"
 6166      4B5F4D45 
 6166      53534147 
 6166      455F00
 6167              	.LASF249:
 6168 0055 504E4541 		.ascii	"PNEARDISPENSERACTIVATEPROGRAMMING\000"
 6168      52444953 
 6168      50454E53 
 6168      45524143 
 6168      54495641 
 6169              	.LASF185:
 6170 0077 52657370 		.ascii	"ResponseSizeResolver\000"
 6170      6F6E7365 
 6170      53697A65 
 6170      5265736F 
 6170      6C766572 
 6171              	.LASF209:
 6172 008c 5F726570 		.ascii	"_repushtimeoutmultiplier\000"
 6172      75736874 
 6172      696D656F 
 6172      75746D75 
 6172      6C746970 
 6173              	.LASF19:
 6174 00a5 73697A65 		.ascii	"sizetype\000"
 6174      74797065 
 6174      00
 6175              	.LASF60:
 6176 00ae 44495350 		.ascii	"DISPENSER_ACQUIRE_PUMP_STATE\000"
 6176      454E5345 
 6176      525F4143 
 6176      51554952 
 6176      455F5055 
 6177              	.LASF198:
 6178 00cb 5F50554D 		.ascii	"_PUMP_TRANSACTION_\000"
 6178      505F5452 
 6178      414E5341 
 6178      4354494F 
 6178      4E5F00
 6179              	.LASF260:
 6180 00de 44495350 		.ascii	"DISPLAY_SUBA_MANIJA\000"
 6180      4C41595F 
 6180      53554241 
 6180      5F4D414E 
 6180      494A4100 
ARM GAS  C:\Users\RECEPC~1\AppData\Local\Temp\ccxS8OWg.s 			page 126


 6181              	.LASF313:
 6182 00f2 45455052 		.ascii	"EEPROM_CONFIGURATION_PAGE0\000"
 6182      4F4D5F43 
 6182      4F4E4649 
 6182      47555241 
 6182      54494F4E 
 6183              	.LASF35:
 6184 010d 53494E4B 		.ascii	"SINK_BUSY\000"
 6184      5F425553 
 6184      5900
 6185              	.LASF315:
 6186 0117 45455052 		.ascii	"EEPROM_CONFIGURATION_PAGE2\000"
 6186      4F4D5F43 
 6186      4F4E4649 
 6186      47555241 
 6186      54494F4E 
 6187              	.LASF316:
 6188 0132 45455052 		.ascii	"EEPROM_CONFIGURATION_PAGE3\000"
 6188      4F4D5F43 
 6188      4F4E4649 
 6188      47555241 
 6188      54494F4E 
 6189              	.LASF317:
 6190 014d 45455052 		.ascii	"EEPROM_CONFIGURATION_PAGE4\000"
 6190      4F4D5F43 
 6190      4F4E4649 
 6190      47555241 
 6190      54494F4E 
 6191              	.LASF318:
 6192 0168 45455052 		.ascii	"EEPROM_CONFIGURATION_PAGE5\000"
 6192      4F4D5F43 
 6192      4F4E4649 
 6192      47555241 
 6192      54494F4E 
 6193              	.LASF319:
 6194 0183 45455052 		.ascii	"EEPROM_CONFIGURATION_PAGE6\000"
 6194      4F4D5F43 
 6194      4F4E4649 
 6194      47555241 
 6194      54494F4E 
 6195              	.LASF320:
 6196 019e 45455052 		.ascii	"EEPROM_CONFIGURATION_PAGE7\000"
 6196      4F4D5F43 
 6196      4F4E4649 
 6196      47555241 
 6196      54494F4E 
 6197              	.LASF55:
 6198 01b9 53494E4B 		.ascii	"SINK_RELEASE_BY_ID\000"
 6198      5F52454C 
 6198      45415345 
 6198      5F42595F 
 6198      494400
 6199              	.LASF218:
 6200 01cc 5F50554D 		.ascii	"_PUMP_JOB_QUEUE_\000"
 6200      505F4A4F 
 6200      425F5155 
 6200      4555455F 
ARM GAS  C:\Users\RECEPC~1\AppData\Local\Temp\ccxS8OWg.s 			page 127


 6200      00
 6201              	.LASF200:
 6202 01dd 5F6A6F62 		.ascii	"_jobs\000"
 6202      7300
 6203              	.LASF165:
 6204 01e3 5F727862 		.ascii	"_rxbuffersize\000"
 6204      75666665 
 6204      7273697A 
 6204      6500
 6205              	.LASF85:
 6206 01f1 49425554 		.ascii	"IBUTTON1_SCAN\000"
 6206      544F4E31 
 6206      5F534341 
 6206      4E00
 6207              	.LASF94:
 6208 01ff 50554D50 		.ascii	"PUMP_AUTHORIZED\000"
 6208      5F415554 
 6208      484F5249 
 6208      5A454400 
 6209              	.LASF53:
 6210 020f 55415254 		.ascii	"UART_RF_AUTONOMOUS_MONITOR\000"
 6210      5F52465F 
 6210      4155544F 
 6210      4E4F4D4F 
 6210      55535F4D 
 6211              	.LASF391:
 6212 022a 5F675F64 		.ascii	"_g_dispenserlayoutinfo\000"
 6212      69737065 
 6212      6E736572 
 6212      6C61796F 
 6212      7574696E 
 6213              	.LASF13:
 6214 0241 75696E74 		.ascii	"uint32\000"
 6214      333200
 6215              	.LASF119:
 6216 0248 5F737461 		.ascii	"_state\000"
 6216      746500
 6217              	.LASF228:
 6218 024f 50756D70 		.ascii	"PumpJobQueue\000"
 6218      4A6F6251 
 6218      75657565 
 6218      00
 6219              	.LASF348:
 6220 025c 45455052 		.ascii	"EEPROM_DISPENSER_PUMP34_TRANSACTION_PAGE\000"
 6220      4F4D5F44 
 6220      49535045 
 6220      4E534552 
 6220      5F50554D 
 6221              	.LASF307:
 6222 0285 504F5349 		.ascii	"POSITIONA\000"
 6222      54494F4E 
 6222      4100
 6223              	.LASF308:
 6224 028f 504F5349 		.ascii	"POSITIONB\000"
 6224      54494F4E 
 6224      4200
 6225              	.LASF100:
ARM GAS  C:\Users\RECEPC~1\AppData\Local\Temp\ccxS8OWg.s 			page 128


 6226 0299 50554D50 		.ascii	"PUMP_UNKNOWN\000"
 6226      5F554E4B 
 6226      4E4F574E 
 6226      00
 6227              	.LASF78:
 6228 02a6 44495350 		.ascii	"DISPLAY1_MESSAGE\000"
 6228      4C415931 
 6228      5F4D4553 
 6228      53414745 
 6228      00
 6229              	.LASF61:
 6230 02b7 44495350 		.ascii	"DISPENSER_UNLOCK_EOT_PUMPS\000"
 6230      454E5345 
 6230      525F554E 
 6230      4C4F434B 
 6230      5F454F54 
 6231              	.LASF247:
 6232 02d2 5F726566 		.ascii	"_refcode\000"
 6232      636F6465 
 6232      00
 6233              	.LASF373:
 6234 02db 44697370 		.ascii	"DispenserAcquireConfiguration\000"
 6234      656E7365 
 6234      72416371 
 6234      75697265 
 6234      436F6E66 
 6235              	.LASF355:
 6236 02f9 5F74696D 		.ascii	"_timeouttoreceive\000"
 6236      656F7574 
 6236      746F7265 
 6236      63656976 
 6236      6500
 6237              	.LASF292:
 6238 030b 44495350 		.ascii	"DISPLAY_ABRIR_TURNO\000"
 6238      4C41595F 
 6238      41425249 
 6238      525F5455 
 6238      524E4F00 
 6239              	.LASF314:
 6240 031f 45455052 		.ascii	"EEPROM_CONFIGURATION_PAGE1\000"
 6240      4F4D5F43 
 6240      4F4E4649 
 6240      47555241 
 6240      54494F4E 
 6241              	.LASF93:
 6242 033a 50554D50 		.ascii	"PUMP_CALLING\000"
 6242      5F43414C 
 6242      4C494E47 
 6242      00
 6243              	.LASF193:
 6244 0347 5F706F73 		.ascii	"_postconditions\000"
 6244      74636F6E 
 6244      64697469 
 6244      6F6E7300 
 6245              	.LASF351:
 6246 0357 45455052 		.ascii	"EEPROM_DISPENSER_PUMP43_TRANSACTION_PAGE\000"
 6246      4F4D5F44 
ARM GAS  C:\Users\RECEPC~1\AppData\Local\Temp\ccxS8OWg.s 			page 129


 6246      49535045 
 6246      4E534552 
 6246      5F50554D 
 6247              	.LASF17:
 6248 0380 63686172 		.ascii	"char8\000"
 6248      3800
 6249              	.LASF88:
 6250 0386 544F4747 		.ascii	"TOGGLE_SCREEN_AND_WRITE_TEST\000"
 6250      4C455F53 
 6250      43524545 
 6250      4E5F414E 
 6250      445F5752 
 6251              	.LASF68:
 6252 03a3 44495350 		.ascii	"DISPENSER_ACQUIRE_TOTALS\000"
 6252      454E5345 
 6252      525F4143 
 6252      51554952 
 6252      455F544F 
 6253              	.LASF56:
 6254 03bc 53494E4B 		.ascii	"SINK_RELEASE_BY_PTR\000"
 6254      5F52454C 
 6254      45415345 
 6254      5F42595F 
 6254      50545200 
 6255              	.LASF166:
 6256 03d0 5F747261 		.ascii	"_transqueue\000"
 6256      6E737175 
 6256      65756500 
 6257              	.LASF377:
 6258 03dc 44697370 		.ascii	"DispenserConfigureSinglePrice\000"
 6258      656E7365 
 6258      72436F6E 
 6258      66696775 
 6258      72655369 
 6259              	.LASF325:
 6260 03fa 45455052 		.ascii	"EEPROM_DISPENSER_PUMP1_PRODUCT_NAMES_PAGE\000"
 6260      4F4D5F44 
 6260      49535045 
 6260      4E534552 
 6260      5F50554D 
 6261              	.LASF194:
 6262 0424 496E6974 		.ascii	"Initialization\000"
 6262      69616C69 
 6262      7A617469 
 6262      6F6E00
 6263              	.LASF389:
 6264 0433 5F675F70 		.ascii	"_g_pumpjobqueue\000"
 6264      756D706A 
 6264      6F627175 
 6264      65756500 
 6265              	.LASF344:
 6266 0443 45455052 		.ascii	"EEPROM_DISPENSER_PUMP24_TRANSACTION_PAGE\000"
 6266      4F4D5F44 
 6266      49535045 
 6266      4E534552 
 6266      5F50554D 
 6267              	.LASF72:
ARM GAS  C:\Users\RECEPC~1\AppData\Local\Temp\ccxS8OWg.s 			page 130


 6268 046c 5052494E 		.ascii	"PRINTER21_JOB\000"
 6268      54455232 
 6268      315F4A4F 
 6268      4200
 6269              	.LASF105:
 6270 047a 5F50554D 		.ascii	"_PUMP_FILL_CREDIT_\000"
 6270      505F4649 
 6270      4C4C5F43 
 6270      52454449 
 6270      545F00
 6271              	.LASF353:
 6272 048d 5F746F61 		.ascii	"_toautonomoustimetoken\000"
 6272      75746F6E 
 6272      6F6D6F75 
 6272      7374696D 
 6272      65746F6B 
 6273              	.LASF172:
 6274 04a4 50756D70 		.ascii	"PumpTransQueueDeallocate\000"
 6274      5472616E 
 6274      73517565 
 6274      75654465 
 6274      616C6C6F 
 6275              	.LASF197:
 6276 04bd 504E4541 		.ascii	"PNEAR_PUMPTRANSACTIONJOBPTR\000"
 6276      525F5055 
 6276      4D505452 
 6276      414E5341 
 6276      4354494F 
 6277              	.LASF9:
 6278 04d9 5F5F7569 		.ascii	"__uint8_t\000"
 6278      6E74385F 
 6278      7400
 6279              	.LASF347:
 6280 04e3 45455052 		.ascii	"EEPROM_DISPENSER_PUMP33_TRANSACTION_PAGE\000"
 6280      4F4D5F44 
 6280      49535045 
 6280      4E534552 
 6280      5F50554D 
 6281              	.LASF279:
 6282 050c 44495350 		.ascii	"DISPLAY_CONFIGURACIONES\000"
 6282      4C41595F 
 6282      434F4E46 
 6282      49475552 
 6282      4143494F 
 6283              	.LASF257:
 6284 0524 44495350 		.ascii	"DISPLAY_INTRODUZCA_VALOR2\000"
 6284      4C41595F 
 6284      494E5452 
 6284      4F44555A 
 6284      43415F56 
 6285              	.LASF299:
 6286 053e 44495350 		.ascii	"DISPLAY_IDENTIFICADOR_ESTACION\000"
 6286      4C41595F 
 6286      4944454E 
 6286      54494649 
 6286      4341444F 
 6287              	.LASF361:
ARM GAS  C:\Users\RECEPC~1\AppData\Local\Temp\ccxS8OWg.s 			page 131


 6288 055d 7061796D 		.ascii	"paymentmethod\000"
 6288      656E746D 
 6288      6574686F 
 6288      6400
 6289              	.LASF80:
 6290 056b 44495350 		.ascii	"DISPLAY1_ANIMATE_HOME\000"
 6290      4C415931 
 6290      5F414E49 
 6290      4D415445 
 6290      5F484F4D 
 6291              	.LASF44:
 6292 0581 5F627566 		.ascii	"_buffer\000"
 6292      66657200 
 6293              	.LASF340:
 6294 0589 45455052 		.ascii	"EEPROM_DISPENSER_PUMP14_TRANSACTION_PAGE\000"
 6294      4F4D5F44 
 6294      49535045 
 6294      4E534552 
 6294      5F50554D 
 6295              	.LASF50:
 6296 05b2 5F53494E 		.ascii	"_SINK_OBSERVABLES_\000"
 6296      4B5F4F42 
 6296      53455256 
 6296      41424C45 
 6296      535F00
 6297              	.LASF212:
 6298 05c5 5F74696D 		.ascii	"_timeoutmultiplier\000"
 6298      656F7574 
 6298      6D756C74 
 6298      69706C69 
 6298      657200
 6299              	.LASF108:
 6300 05d8 5F50554D 		.ascii	"_PUMP_TOTALS_\000"
 6300      505F544F 
 6300      54414C53 
 6300      5F00
 6301              	.LASF312:
 6302 05e6 5F454550 		.ascii	"_EEPROM_MEM_FORMAT_\000"
 6302      524F4D5F 
 6302      4D454D5F 
 6302      464F524D 
 6302      41545F00 
 6303              	.LASF16:
 6304 05fa 75696E74 		.ascii	"uint64\000"
 6304      363400
 6305              	.LASF4:
 6306 0601 6C6F6E67 		.ascii	"long int\000"
 6306      20696E74 
 6306      00
 6307              	.LASF155:
 6308 060a 5F726F75 		.ascii	"_roundrobinstate\000"
 6308      6E64726F 
 6308      62696E73 
 6308      74617465 
 6308      00
 6309              	.LASF148:
 6310 061b 5F70756D 		.ascii	"_pumpstate\000"
ARM GAS  C:\Users\RECEPC~1\AppData\Local\Temp\ccxS8OWg.s 			page 132


 6310      70737461 
 6310      746500
 6311              	.LASF152:
 6312 0626 5F726573 		.ascii	"_restoreprice\000"
 6312      746F7265 
 6312      70726963 
 6312      6500
 6313              	.LASF382:
 6314 0634 44697370 		.ascii	"DispenserLoadEEPROMSettings\000"
 6314      656E7365 
 6314      724C6F61 
 6314      64454550 
 6314      524F4D53 
 6315              	.LASF42:
 6316 0650 5F6D6573 		.ascii	"_messagetimeoutmultiplier\000"
 6316      73616765 
 6316      74696D65 
 6316      6F75746D 
 6316      756C7469 
 6317              	.LASF65:
 6318 066a 44495350 		.ascii	"DISPENSER_CONFIGURE_PRICES\000"
 6318      454E5345 
 6318      525F434F 
 6318      4E464947 
 6318      5552455F 
 6319              	.LASF322:
 6320 0685 45455052 		.ascii	"EEPROM_DISPENSER_PUMP2_LAYOUT_PAGE\000"
 6320      4F4D5F44 
 6320      49535045 
 6320      4E534552 
 6320      5F50554D 
 6321              	.LASF329:
 6322 06a8 45455052 		.ascii	"EEPROM_DISPENSER_PUMP1_PPU_INFO_PAGE\000"
 6322      4F4D5F44 
 6322      49535045 
 6322      4E534552 
 6322      5F50554D 
 6323              	.LASF111:
 6324 06cd 5F50554D 		.ascii	"_PUMP_NETWORK_ENUMERATOR_\000"
 6324      505F4E45 
 6324      54574F52 
 6324      4B5F454E 
 6324      554D4552 
 6325              	.LASF221:
 6326 06e7 5F706A6F 		.ascii	"_pjobqueueallocated\000"
 6326      62717565 
 6326      7565616C 
 6326      6C6F6361 
 6326      74656400 
 6327              	.LASF277:
 6328 06fb 44495350 		.ascii	"DISPLAY_INTRODUZCA_KILOMETRAJE\000"
 6328      4C41595F 
 6328      494E5452 
 6328      4F44555A 
 6328      43415F4B 
 6329              	.LASF83:
 6330 071a 44495350 		.ascii	"DISPLAY2_UPDATE_DATETIME\000"
ARM GAS  C:\Users\RECEPC~1\AppData\Local\Temp\ccxS8OWg.s 			page 133


 6330      4C415932 
 6330      5F555044 
 6330      4154455F 
 6330      44415445 
 6331              	.LASF248:
 6332 0733 50756D70 		.ascii	"PumpCodeMapping\000"
 6332      436F6465 
 6332      4D617070 
 6332      696E6700 
 6333              	.LASF75:
 6334 0743 5052494E 		.ascii	"PRINTER2_GENERIC_JOB\000"
 6334      54455232 
 6334      5F47454E 
 6334      45524943 
 6334      5F4A4F42 
 6335              	.LASF225:
 6336 0758 5065656B 		.ascii	"Peek\000"
 6336      00
 6337              	.LASF290:
 6338 075d 44495350 		.ascii	"DISPLAY_FECHA\000"
 6338      4C41595F 
 6338      46454348 
 6338      4100
 6339              	.LASF196:
 6340 076b 50756D70 		.ascii	"PumpTransactionJob\000"
 6340      5472616E 
 6340      73616374 
 6340      696F6E4A 
 6340      6F6200
 6341              	.LASF0:
 6342 077e 7369676E 		.ascii	"signed char\000"
 6342      65642063 
 6342      68617200 
 6343              	.LASF22:
 6344 078a 504E4541 		.ascii	"PNEAR_BYTE_PTR\000"
 6344      525F4259 
 6344      54455F50 
 6344      545200
 6345              	.LASF10:
 6346 0799 75696E74 		.ascii	"uint8_t\000"
 6346      385F7400 
 6347              	.LASF271:
 6348 07a1 44495350 		.ascii	"DISPLAY_ID_DIGITAL\000"
 6348      4C41595F 
 6348      49445F44 
 6348      49474954 
 6348      414C00
 6349              	.LASF269:
 6350 07b4 44495350 		.ascii	"DISPLAY_TIEMPO_EXPIRADO\000"
 6350      4C41595F 
 6350      5449454D 
 6350      504F5F45 
 6350      58504952 
 6351              	.LASF202:
 6352 07cc 504E4541 		.ascii	"PNEAR_PUMPTRANSACTIONPTR\000"
 6352      525F5055 
 6352      4D505452 
ARM GAS  C:\Users\RECEPC~1\AppData\Local\Temp\ccxS8OWg.s 			page 134


 6352      414E5341 
 6352      4354494F 
 6353              	.LASF183:
 6354 07e5 52657370 		.ascii	"Response\000"
 6354      6F6E7365 
 6354      00
 6355              	.LASF339:
 6356 07ee 45455052 		.ascii	"EEPROM_DISPENSER_PUMP13_TRANSACTION_PAGE\000"
 6356      4F4D5F44 
 6356      49535045 
 6356      4E534552 
 6356      5F50554D 
 6357              	.LASF295:
 6358 0817 44495350 		.ascii	"DISPLAY_USUARIO_VALIDO\000"
 6358      4C41595F 
 6358      55535541 
 6358      52494F5F 
 6358      56414C49 
 6359              	.LASF293:
 6360 082e 44495350 		.ascii	"DISPLAY_CERRAR_TURNO\000"
 6360      4C41595F 
 6360      43455252 
 6360      41525F54 
 6360      55524E4F 
 6361              	.LASF214:
 6362 0843 5F707265 		.ascii	"_presponse\000"
 6362      73706F6E 
 6362      736500
 6363              	.LASF282:
 6364 084e 44495350 		.ascii	"DISPLAY_SELECCIONE_POSICION\000"
 6364      4C41595F 
 6364      53454C45 
 6364      4343494F 
 6364      4E455F50 
 6365              	.LASF79:
 6366 086a 44495350 		.ascii	"DISPLAY1_UPDATE_DATETIME\000"
 6366      4C415931 
 6366      5F555044 
 6366      4154455F 
 6366      44415445 
 6367              	.LASF1:
 6368 0883 756E7369 		.ascii	"unsigned char\000"
 6368      676E6564 
 6368      20636861 
 6368      7200
 6369              	.LASF231:
 6370 0891 5F6E756D 		.ascii	"_numpositions\000"
 6370      706F7369 
 6370      74696F6E 
 6370      7300
 6371              	.LASF256:
 6372 089f 44495350 		.ascii	"DISPLAY_INTRODUZCA_VALOR\000"
 6372      4C41595F 
 6372      494E5452 
 6372      4F44555A 
 6372      43415F56 
 6373              	.LASF285:
ARM GAS  C:\Users\RECEPC~1\AppData\Local\Temp\ccxS8OWg.s 			page 135


 6374 08b8 44495350 		.ascii	"DISPLAY_POR_FAVOR_ESPERE\000"
 6374      4C41595F 
 6374      504F525F 
 6374      4641564F 
 6374      525F4553 
 6375              	.LASF142:
 6376 08d1 5F736572 		.ascii	"_serial\000"
 6376      69616C00 
 6377              	.LASF284:
 6378 08d9 44495350 		.ascii	"DISPLAY_ESPERANDO_AUTORIZACION\000"
 6378      4C41595F 
 6378      45535045 
 6378      52414E44 
 6378      4F5F4155 
 6379              	.LASF243:
 6380 08f8 5F707265 		.ascii	"_presetdigits\000"
 6380      73657464 
 6380      69676974 
 6380      7300
 6381              	.LASF201:
 6382 0906 50756D70 		.ascii	"PumpTransaction\000"
 6382      5472616E 
 6382      73616374 
 6382      696F6E00 
 6383              	.LASF378:
 6384 0916 65657072 		.ascii	"eeprompage\000"
 6384      6F6D7061 
 6384      676500
 6385              	.LASF64:
 6386 0921 44495350 		.ascii	"DISPENSER_ACQUIRE_CONFIGURATION_INFORMATION\000"
 6386      454E5345 
 6386      525F4143 
 6386      51554952 
 6386      455F434F 
 6387              	.LASF40:
 6388 094d 5F6D6573 		.ascii	"_messagedelay\000"
 6388      73616765 
 6388      64656C61 
 6388      7900
 6389              	.LASF238:
 6390 095b 5F766F6C 		.ascii	"_volumedecimals\000"
 6390      756D6564 
 6390      6563696D 
 6390      616C7300 
 6391              	.LASF375:
 6392 096b 6E756D68 		.ascii	"numhoses\000"
 6392      6F736573 
 6392      00
 6393              	.LASF48:
 6394 0974 5F426F6F 		.ascii	"_Bool\000"
 6394      6C00
 6395              	.LASF233:
 6396 097a 5F686F73 		.ascii	"_hosesposition2\000"
 6396      6573706F 
 6396      73697469 
 6396      6F6E3200 
 6397              	.LASF141:
ARM GAS  C:\Users\RECEPC~1\AppData\Local\Temp\ccxS8OWg.s 			page 136


 6398 098a 5F766F6C 		.ascii	"_volumeamount\000"
 6398      756D6561 
 6398      6D6F756E 
 6398      7400
 6399              	.LASF363:
 6400 0998 7472616E 		.ascii	"transactionname\000"
 6400      73616374 
 6400      696F6E6E 
 6400      616D6500 
 6401              	.LASF379:
 6402 09a8 76616C75 		.ascii	"value\000"
 6402      6500
 6403              	.LASF34:
 6404 09ae 53494E4B 		.ascii	"SINK_ALLOCATED\000"
 6404      5F414C4C 
 6404      4F434154 
 6404      454400
 6405              	.LASF174:
 6406 09bd 50756D70 		.ascii	"PumpTransQueueDequeue\000"
 6406      5472616E 
 6406      73517565 
 6406      75654465 
 6406      71756575 
 6407              	.LASF18:
 6408 09d3 63686172 		.ascii	"char\000"
 6408      00
 6409              	.LASF297:
 6410 09d8 44495350 		.ascii	"DISPLAY_AMBAS_IMPRESORAS_FUNCIONANDO\000"
 6410      4C41595F 
 6410      414D4241 
 6410      535F494D 
 6410      50524553 
 6411              	.LASF29:
 6412 09fd 42524F41 		.ascii	"BROADCASTFOREVER\000"
 6412      44434153 
 6412      54464F52 
 6412      45564552 
 6412      00
 6413              	.LASF376:
 6414 0a0e 686F7365 		.ascii	"hosendx\000"
 6414      6E647800 
 6415              	.LASF82:
 6416 0a16 44495350 		.ascii	"DISPLAY2_MESSAGE\000"
 6416      4C415932 
 6416      5F4D4553 
 6416      53414745 
 6416      00
 6417              	.LASF161:
 6418 0a27 5F747261 		.ascii	"_transhealth\000"
 6418      6E736865 
 6418      616C7468 
 6418      00
 6419              	.LASF190:
 6420 0a34 5F6F6E65 		.ascii	"_oneshotpreconditions\000"
 6420      73686F74 
 6420      70726563 
 6420      6F6E6469 
ARM GAS  C:\Users\RECEPC~1\AppData\Local\Temp\ccxS8OWg.s 			page 137


 6420      74696F6E 
 6421              	.LASF326:
 6422 0a4a 45455052 		.ascii	"EEPROM_DISPENSER_PUMP2_PRODUCT_NAMES_PAGE\000"
 6422      4F4D5F44 
 6422      49535045 
 6422      4E534552 
 6422      5F50554D 
 6423              	.LASF236:
 6424 0a74 5F6D6F6E 		.ascii	"_moneydecimals\000"
 6424      65796465 
 6424      63696D61 
 6424      6C7300
 6425              	.LASF240:
 6426 0a83 5F6D696E 		.ascii	"_minmoneyvalue\000"
 6426      6D6F6E65 
 6426      7976616C 
 6426      756500
 6427              	.LASF397:
 6428 0a92 2E5C4469 		.ascii	".\\DispenserBLL.c\000"
 6428      7370656E 
 6428      73657242 
 6428      4C4C2E63 
 6428      00
 6429              	.LASF156:
 6430 0aa3 5F706F73 		.ascii	"_positionlocked\000"
 6430      6974696F 
 6430      6E6C6F63 
 6430      6B656400 
 6431              	.LASF215:
 6432 0ab3 5F707075 		.ascii	"_ppump\000"
 6432      6D7000
 6433              	.LASF337:
 6434 0aba 45455052 		.ascii	"EEPROM_DISPENSER_PUMP11_TRANSACTION_PAGE\000"
 6434      4F4D5F44 
 6434      49535045 
 6434      4E534552 
 6434      5F50554D 
 6435              	.LASF343:
 6436 0ae3 45455052 		.ascii	"EEPROM_DISPENSER_PUMP23_TRANSACTION_PAGE\000"
 6436      4F4D5F44 
 6436      49535045 
 6436      4E534552 
 6436      5F50554D 
 6437              	.LASF265:
 6438 0b0c 44495350 		.ascii	"DISPLAY_INGRESE_PASSWORD\000"
 6438      4C41595F 
 6438      494E4752 
 6438      4553455F 
 6438      50415353 
 6439              	.LASF167:
 6440 0b25 5F747261 		.ascii	"_transqueuelocked\000"
 6440      6E737175 
 6440      6575656C 
 6440      6F636B65 
 6440      6400
 6441              	.LASF262:
 6442 0b37 44495350 		.ascii	"DISPLAY_BAJE_MANIJA\000"
ARM GAS  C:\Users\RECEPC~1\AppData\Local\Temp\ccxS8OWg.s 			page 138


 6442      4C41595F 
 6442      42414A45 
 6442      5F4D414E 
 6442      494A4100 
 6443              	.LASF71:
 6444 0b4b 5052494E 		.ascii	"PRINTER12_JOB\000"
 6444      54455231 
 6444      325F4A4F 
 6444      4200
 6445              	.LASF324:
 6446 0b59 45455052 		.ascii	"EEPROM_DISPENSER_PUMP4_LAYOUT_PAGE\000"
 6446      4F4D5F44 
 6446      49535045 
 6446      4E534552 
 6446      5F50554D 
 6447              	.LASF101:
 6448 0b7c 5F545241 		.ascii	"_TRANSACTION_NAMES_\000"
 6448      4E534143 
 6448      54494F4E 
 6448      5F4E414D 
 6448      45535F00 
 6449              	.LASF41:
 6450 0b90 5F6D6573 		.ascii	"_messagetimeout\000"
 6450      73616765 
 6450      74696D65 
 6450      6F757400 
 6451              	.LASF255:
 6452 0ba0 44495350 		.ascii	"DISPLAY_FORMA_PROGRAMACION\000"
 6452      4C41595F 
 6452      464F524D 
 6452      415F5052 
 6452      4F475241 
 6453              	.LASF114:
 6454 0bbb 5F50554D 		.ascii	"_PUMP_COMPLETE_CONFIGURATION_\000"
 6454      505F434F 
 6454      4D504C45 
 6454      54455F43 
 6454      4F4E4649 
 6455              	.LASF227:
 6456 0bd9 436C6561 		.ascii	"Clear\000"
 6456      7200
 6457              	.LASF302:
 6458 0bdf 44495350 		.ascii	"DISPLAY_DUMMY1\000"
 6458      4C41595F 
 6458      44554D4D 
 6458      593100
 6459              	.LASF237:
 6460 0bee 5F707075 		.ascii	"_ppudecimals\000"
 6460      64656369 
 6460      6D616C73 
 6460      00
 6461              	.LASF146:
 6462 0bfb 5F70756D 		.ascii	"_pumpid\000"
 6462      70696400 
 6463              	.LASF251:
 6464 0c03 44495350 		.ascii	"DISPLAY_INICIO0\000"
 6464      4C41595F 
ARM GAS  C:\Users\RECEPC~1\AppData\Local\Temp\ccxS8OWg.s 			page 139


 6464      494E4943 
 6464      494F3000 
 6465              	.LASF252:
 6466 0c13 44495350 		.ascii	"DISPLAY_INICIO1\000"
 6466      4C41595F 
 6466      494E4943 
 6466      494F3100 
 6467              	.LASF253:
 6468 0c23 44495350 		.ascii	"DISPLAY_INICIO2\000"
 6468      4C41595F 
 6468      494E4943 
 6468      494F3200 
 6469              	.LASF27:
 6470 0c33 44454C41 		.ascii	"DELAYEDALLINTERESTED\000"
 6470      59454441 
 6470      4C4C494E 
 6470      54455245 
 6470      53544544 
 6471              	.LASF164:
 6472 0c48 5F727862 		.ascii	"_rxbuffer\000"
 6472      75666665 
 6472      7200
 6473              	.LASF188:
 6474 0c52 5F726573 		.ascii	"_responsesize\000"
 6474      706F6E73 
 6474      6573697A 
 6474      6500
 6475              	.LASF222:
 6476 0c60 526F7461 		.ascii	"Rotate\000"
 6476      746500
 6477              	.LASF122:
 6478 0c67 504E4541 		.ascii	"PNEAR_PUMPTRANSACTIONALSTATEPTR\000"
 6478      525F5055 
 6478      4D505452 
 6478      414E5341 
 6478      4354494F 
 6479              	.LASF296:
 6480 0c87 44495350 		.ascii	"DISPLAY_USUARIO_INVALIDO\000"
 6480      4C41595F 
 6480      55535541 
 6480      52494F5F 
 6480      494E5641 
 6481              	.LASF116:
 6482 0ca0 5F50554D 		.ascii	"_PUMP_ROUNDROBIN_STATE_\000"
 6482      505F524F 
 6482      554E4452 
 6482      4F42494E 
 6482      5F535441 
 6483              	.LASF362:
 6484 0cb8 7074726A 		.ascii	"ptrjob\000"
 6484      6F6200
 6485              	.LASF332:
 6486 0cbf 45455052 		.ascii	"EEPROM_DISPENSER_PUMP4_PPU_INFO_PAGE\000"
 6486      4F4D5F44 
 6486      49535045 
 6486      4E534552 
 6486      5F50554D 
ARM GAS  C:\Users\RECEPC~1\AppData\Local\Temp\ccxS8OWg.s 			page 140


 6487              	.LASF163:
 6488 0ce4 5F747261 		.ascii	"_trasactionbuffer\000"
 6488      73616374 
 6488      696F6E62 
 6488      75666665 
 6488      7200
 6489              	.LASF390:
 6490 0cf6 5F675F70 		.ascii	"_g_pumps\000"
 6490      756D7073 
 6490      00
 6491              	.LASF224:
 6492 0cff 456E7175 		.ascii	"Enqueue\000"
 6492      65756500 
 6493              	.LASF371:
 6494 0d07 7073696E 		.ascii	"psinkmsg\000"
 6494      6B6D7367 
 6494      00
 6495              	.LASF143:
 6496 0d10 50756D70 		.ascii	"PumpAuthorizationInfo\000"
 6496      41757468 
 6496      6F72697A 
 6496      6174696F 
 6496      6E496E66 
 6497              	.LASF333:
 6498 0d26 45455052 		.ascii	"EEPROM_INSEPET_RESERVED_PAGE1\000"
 6498      4F4D5F49 
 6498      4E534550 
 6498      45545F52 
 6498      45534552 
 6499              	.LASF334:
 6500 0d44 45455052 		.ascii	"EEPROM_INSEPET_RESERVED_PAGE2\000"
 6500      4F4D5F49 
 6500      4E534550 
 6500      45545F52 
 6500      45534552 
 6501              	.LASF335:
 6502 0d62 45455052 		.ascii	"EEPROM_INSEPET_RESERVED_PAGE3\000"
 6502      4F4D5F49 
 6502      4E534550 
 6502      45545F52 
 6502      45534552 
 6503              	.LASF336:
 6504 0d80 45455052 		.ascii	"EEPROM_INSEPET_RESERVED_PAGE4\000"
 6504      4F4D5F49 
 6504      4E534550 
 6504      45545F52 
 6504      45534552 
 6505              	.LASF160:
 6506 0d9e 5F727476 		.ascii	"_rtvolumeamount\000"
 6506      6F6C756D 
 6506      65616D6F 
 6506      756E7400 
 6507              	.LASF205:
 6508 0dae 5F64656C 		.ascii	"_delay\000"
 6508      617900
 6509              	.LASF328:
 6510 0db5 45455052 		.ascii	"EEPROM_DISPENSER_PUMP4_PRODUCT_NAMES_PAGE\000"
ARM GAS  C:\Users\RECEPC~1\AppData\Local\Temp\ccxS8OWg.s 			page 141


 6510      4F4D5F44 
 6510      49535045 
 6510      4E534552 
 6510      5F50554D 
 6511              	.LASF30:
 6512 0ddf 414C4C49 		.ascii	"ALLINTERESTEDFOREVER\000"
 6512      4E544552 
 6512      45535445 
 6512      44464F52 
 6512      45564552 
 6513              	.LASF229:
 6514 0df4 5F696E63 		.ascii	"_inconfiguration\000"
 6514      6F6E6669 
 6514      67757261 
 6514      74696F6E 
 6514      00
 6515              	.LASF109:
 6516 0e05 5F50554D 		.ascii	"_PUMP_STATE_\000"
 6516      505F5354 
 6516      4154455F 
 6516      00
 6517              	.LASF5:
 6518 0e12 6C6F6E67 		.ascii	"long unsigned int\000"
 6518      20756E73 
 6518      69676E65 
 6518      6420696E 
 6518      7400
 6519              	.LASF115:
 6520 0e24 5F50554D 		.ascii	"_PUMP_PROGRAM_MODE_\000"
 6520      505F5052 
 6520      4F475241 
 6520      4D5F4D4F 
 6520      44455F00 
 6521              	.LASF301:
 6522 0e38 44495350 		.ascii	"DISPLAY_DUMMY0\000"
 6522      4C41595F 
 6522      44554D4D 
 6522      593000
 6523              	.LASF213:
 6524 0e47 5F707265 		.ascii	"_prequest\000"
 6524      71756573 
 6524      7400
 6525              	.LASF303:
 6526 0e51 44495350 		.ascii	"DISPLAY_DUMMY2\000"
 6526      4C41595F 
 6526      44554D4D 
 6526      593200
 6527              	.LASF304:
 6528 0e60 44495350 		.ascii	"DISPLAY_DUMMY3\000"
 6528      4C41595F 
 6528      44554D4D 
 6528      593300
 6529              	.LASF281:
 6530 0e6f 44495350 		.ascii	"DISPLAY_IMPRIMIENDO_RECIBO\000"
 6530      4C41595F 
 6530      494D5052 
 6530      494D4945 
ARM GAS  C:\Users\RECEPC~1\AppData\Local\Temp\ccxS8OWg.s 			page 142


 6530      4E444F5F 
 6531              	.LASF250:
 6532 0e8a 5F415641 		.ascii	"_AVAILABLE_DISPLAYS_\000"
 6532      494C4142 
 6532      4C455F44 
 6532      4953504C 
 6532      4159535F 
 6533              	.LASF358:
 6534 0e9f 706D7367 		.ascii	"pmsg\000"
 6534      00
 6535              	.LASF46:
 6536 0ea4 5F706461 		.ascii	"_pdata\000"
 6536      746100
 6537              	.LASF289:
 6538 0eab 44495350 		.ascii	"DISPLAY_HORA\000"
 6538      4C41595F 
 6538      484F5241 
 6538      00
 6539              	.LASF246:
 6540 0eb8 5F736964 		.ascii	"_side\000"
 6540      6500
 6541              	.LASF58:
 6542 0ebe 44495350 		.ascii	"DISPENSER_UPDATE_STATE1\000"
 6542      454E5345 
 6542      525F5550 
 6542      44415445 
 6542      5F535441 
 6543              	.LASF59:
 6544 0ed6 44495350 		.ascii	"DISPENSER_UPDATE_STATE2\000"
 6544      454E5345 
 6544      525F5550 
 6544      44415445 
 6544      5F535441 
 6545              	.LASF195:
 6546 0eee 46696E61 		.ascii	"Finalization\000"
 6546      6C697A61 
 6546      74696F6E 
 6546      00
 6547              	.LASF47:
 6548 0efb 43616C6C 		.ascii	"Callback\000"
 6548      6261636B 
 6548      00
 6549              	.LASF354:
 6550 0f04 5F74696D 		.ascii	"_timeouttoautonomous\000"
 6550      656F7574 
 6550      746F6175 
 6550      746F6E6F 
 6550      6D6F7573 
 6551              	.LASF372:
 6552 0f19 44697370 		.ascii	"DispenserRestorePrices\000"
 6552      656E7365 
 6552      72526573 
 6552      746F7265 
 6552      50726963 
 6553              	.LASF374:
 6554 0f30 44697370 		.ascii	"DispenserConfigurePrices\000"
 6554      656E7365 
ARM GAS  C:\Users\RECEPC~1\AppData\Local\Temp\ccxS8OWg.s 			page 143


 6554      72436F6E 
 6554      66696775 
 6554      72655072 
 6555              	.LASF203:
 6556 0f49 5F726565 		.ascii	"_reenqueue\000"
 6556      6E717565 
 6556      756500
 6557              	.LASF385:
 6558 0f54 44697370 		.ascii	"DispenserGetEepromPPUPageFromPumpID\000"
 6558      656E7365 
 6558      72476574 
 6558      45657072 
 6558      6F6D5050 
 6559              	.LASF274:
 6560 0f78 44495350 		.ascii	"DISPLAY_ID_RECONOCIDO\000"
 6560      4C41595F 
 6560      49445F52 
 6560      45434F4E 
 6560      4F434944 
 6561              	.LASF211:
 6562 0f8e 5F74696D 		.ascii	"_timeoutseed\000"
 6562      656F7574 
 6562      73656564 
 6562      00
 6563              	.LASF384:
 6564 0f9b 72657476 		.ascii	"retval\000"
 6564      616C00
 6565              	.LASF350:
 6566 0fa2 45455052 		.ascii	"EEPROM_DISPENSER_PUMP42_TRANSACTION_PAGE\000"
 6566      4F4D5F44 
 6566      49535045 
 6566      4E534552 
 6566      5F50554D 
 6567              	.LASF145:
 6568 0fcb 5F50554D 		.ascii	"_PUMP_LAYOUT_\000"
 6568      505F4C41 
 6568      594F5554 
 6568      5F00
 6569              	.LASF388:
 6570 0fd9 5F675F73 		.ascii	"_g_stationidentifier\000"
 6570      74617469 
 6570      6F6E6964 
 6570      656E7469 
 6570      66696572 
 6571              	.LASF89:
 6572 0fee 57415443 		.ascii	"WATCHDOG_STARTUP\000"
 6572      48444F47 
 6572      5F535441 
 6572      52545550 
 6572      00
 6573              	.LASF298:
 6574 0fff 44495350 		.ascii	"DISPLAY_IMPRESORA_NO_FUNCIONANDO\000"
 6574      4C41595F 
 6574      494D5052 
 6574      45534F52 
 6574      415F4E4F 
 6575              	.LASF70:
ARM GAS  C:\Users\RECEPC~1\AppData\Local\Temp\ccxS8OWg.s 			page 144


 6576 1020 5052494E 		.ascii	"PRINTER11_JOB\000"
 6576      54455231 
 6576      315F4A4F 
 6576      4200
 6577              	.LASF6:
 6578 102e 6C6F6E67 		.ascii	"long long int\000"
 6578      206C6F6E 
 6578      6720696E 
 6578      7400
 6579              	.LASF199:
 6580 103c 5F747261 		.ascii	"_transactionname\000"
 6580      6E736163 
 6580      74696F6E 
 6580      6E616D65 
 6580      00
 6581              	.LASF286:
 6582 104d 44495350 		.ascii	"DISPLAY_AUTORIZACION_ACEPTADA\000"
 6582      4C41595F 
 6582      4155544F 
 6582      52495A41 
 6582      43494F4E 
 6583              	.LASF264:
 6584 106b 44495350 		.ascii	"DISPLAY_DESEA_IMPRIMIR_RECIBO\000"
 6584      4C41595F 
 6584      44455345 
 6584      415F494D 
 6584      5052494D 
 6585              	.LASF270:
 6586 1089 44495350 		.ascii	"DISPLAY_GRACIAS_VUELVA_PRONTO\000"
 6586      4C41595F 
 6586      47524143 
 6586      4941535F 
 6586      5655454C 
 6587              	.LASF57:
 6588 10a7 44495350 		.ascii	"DISPENSER_UPDATE_PUMP_TRANSACTION_TIMEOUTS\000"
 6588      454E5345 
 6588      525F5550 
 6588      44415445 
 6588      5F50554D 
 6589              	.LASF15:
 6590 10d2 646F7562 		.ascii	"double\000"
 6590      6C6500
 6591              	.LASF346:
 6592 10d9 45455052 		.ascii	"EEPROM_DISPENSER_PUMP32_TRANSACTION_PAGE\000"
 6592      4F4D5F44 
 6592      49535045 
 6592      4E534552 
 6592      5F50554D 
 6593              	.LASF266:
 6594 1102 44495350 		.ascii	"DISPLAY_PASSWORD_VALIDO\000"
 6594      4C41595F 
 6594      50415353 
 6594      574F5244 
 6594      5F56414C 
 6595              	.LASF398:
 6596 111a 433A5C54 		.ascii	"C:\\TeamInsepet\\NSX-Prime\\Hardware\\CorEx-MUX-Ker"
 6596      65616D49 
ARM GAS  C:\Users\RECEPC~1\AppData\Local\Temp\ccxS8OWg.s 			page 145


 6596      6E736570 
 6596      65745C4E 
 6596      53582D50 
 6597 1149 6E656C2D 		.ascii	"nel-Enhanced\\Workspace01\\CorEx-Mux-Kernel.cydsn\000"
 6597      456E6861 
 6597      6E636564 
 6597      5C576F72 
 6597      6B737061 
 6598              	.LASF258:
 6599 1179 44495350 		.ascii	"DISPLAY_SELECCIONE_PRODUCTO3\000"
 6599      4C41595F 
 6599      53454C45 
 6599      4343494F 
 6599      4E455F50 
 6600              	.LASF259:
 6601 1196 44495350 		.ascii	"DISPLAY_SELECCIONE_PRODUCTO4\000"
 6601      4C41595F 
 6601      53454C45 
 6601      4343494F 
 6601      4E455F50 
 6602              	.LASF267:
 6603 11b3 44495350 		.ascii	"DISPLAY_PASSWORD_INVALIDO\000"
 6603      4C41595F 
 6603      50415353 
 6603      574F5244 
 6603      5F494E56 
 6604              	.LASF159:
 6605 11cd 5F72746D 		.ascii	"_rtmoneyamount\000"
 6605      6F6E6579 
 6605      616D6F75 
 6605      6E7400
 6606              	.LASF36:
 6607 11dc 5F73656C 		.ascii	"_selfkill\000"
 6607      666B696C 
 6607      6C00
 6608              	.LASF14:
 6609 11e6 666C6F61 		.ascii	"float\000"
 6609      7400
 6610              	.LASF349:
 6611 11ec 45455052 		.ascii	"EEPROM_DISPENSER_PUMP41_TRANSACTION_PAGE\000"
 6611      4F4D5F44 
 6611      49535045 
 6611      4E534552 
 6611      5F50554D 
 6612              	.LASF366:
 6613 1215 44697370 		.ascii	"DispenserSide2Listener\000"
 6613      656E7365 
 6613      72536964 
 6613      65324C69 
 6613      7374656E 
 6614              	.LASF135:
 6615 122c 50756D70 		.ascii	"PumpDataContainer\000"
 6615      44617461 
 6615      436F6E74 
 6615      61696E65 
 6615      7200
 6616              	.LASF206:
ARM GAS  C:\Users\RECEPC~1\AppData\Local\Temp\ccxS8OWg.s 			page 146


 6617 123e 5F64656C 		.ascii	"_delaymultiplier\000"
 6617      61796D75 
 6617      6C746970 
 6617      6C696572 
 6617      00
 6618              	.LASF139:
 6619 124f 5F707269 		.ascii	"_price\000"
 6619      636500
 6620              	.LASF8:
 6621 1256 756E7369 		.ascii	"unsigned int\000"
 6621      676E6564 
 6621      20696E74 
 6621      00
 6622              	.LASF342:
 6623 1263 45455052 		.ascii	"EEPROM_DISPENSER_PUMP22_TRANSACTION_PAGE\000"
 6623      4F4D5F44 
 6623      49535045 
 6623      4E534552 
 6623      5F50554D 
 6624              	.LASF272:
 6625 128c 44495350 		.ascii	"DISPLAY_ID_NO_RECONOCIDO\000"
 6625      4C41595F 
 6625      49445F4E 
 6625      4F5F5245 
 6625      434F4E4F 
 6626              	.LASF49:
 6627 12a5 5053494E 		.ascii	"PSINKMESSAGEPTR\000"
 6627      4B4D4553 
 6627      53414745 
 6627      50545200 
 6628              	.LASF192:
 6629 12b5 5F6F6E65 		.ascii	"_oneshotpostconditions\000"
 6629      73686F74 
 6629      706F7374 
 6629      636F6E64 
 6629      6974696F 
 6630              	.LASF24:
 6631 12cc 42524F41 		.ascii	"BROADCAST\000"
 6631      44434153 
 6631      5400
 6632              	.LASF103:
 6633 12d6 5F50554D 		.ascii	"_PUMP_FILL_BY_VOLUME_\000"
 6633      505F4649 
 6633      4C4C5F42 
 6633      595F564F 
 6633      4C554D45 
 6634              	.LASF219:
 6635 12ec 5F717565 		.ascii	"_queueindex\000"
 6635      7565696E 
 6635      64657800 
 6636              	.LASF399:
 6637 12f8 5F706F69 		.ascii	"_pointcommadecimalmode\000"
 6637      6E74636F 
 6637      6D6D6164 
 6637      6563696D 
 6637      616C6D6F 
 6638              	.LASF345:
ARM GAS  C:\Users\RECEPC~1\AppData\Local\Temp\ccxS8OWg.s 			page 147


 6639 130f 45455052 		.ascii	"EEPROM_DISPENSER_PUMP31_TRANSACTION_PAGE\000"
 6639      4F4D5F44 
 6639      49535045 
 6639      4E534552 
 6639      5F50554D 
 6640              	.LASF395:
 6641 1338 5F675F70 		.ascii	"_g_ptractprogramming\000"
 6641      74726163 
 6641      7470726F 
 6641      6772616D 
 6641      6D696E67 
 6642              	.LASF118:
 6643 134d 5F50554D 		.ascii	"_PUMP_RR_INACTIVE_\000"
 6643      505F5252 
 6643      5F494E41 
 6643      43544956 
 6643      455F00
 6644              	.LASF217:
 6645 1360 5050554D 		.ascii	"PPUMPTRANSACTIONJOBCONTEXTPTR\000"
 6645      50545241 
 6645      4E534143 
 6645      54494F4E 
 6645      4A4F4243 
 6646              	.LASF338:
 6647 137e 45455052 		.ascii	"EEPROM_DISPENSER_PUMP12_TRANSACTION_PAGE\000"
 6647      4F4D5F44 
 6647      49535045 
 6647      4E534552 
 6647      5F50554D 
 6648              	.LASF87:
 6649 13a7 474C4F42 		.ascii	"GLOBAL_TICK_NOTIFICATION\000"
 6649      414C5F54 
 6649      49434B5F 
 6649      4E4F5449 
 6649      46494341 
 6650              	.LASF25:
 6651 13c0 46495253 		.ascii	"FIRSTFOUND\000"
 6651      54464F55 
 6651      4E4400
 6652              	.LASF21:
 6653 13cb 4C50564F 		.ascii	"LPVOID\000"
 6653      494400
 6654              	.LASF69:
 6655 13d2 44495350 		.ascii	"DISPENSER_PUMP_HANDLER\000"
 6655      454E5345 
 6655      525F5055 
 6655      4D505F48 
 6655      414E444C 
 6656              	.LASF210:
 6657 13e9 5F726574 		.ascii	"_retriescounter\000"
 6657      72696573 
 6657      636F756E 
 6657      74657200 
 6658              	.LASF381:
 6659 13f9 44697370 		.ascii	"DispenserEnumeratePumps\000"
 6659      656E7365 
 6659      72456E75 
ARM GAS  C:\Users\RECEPC~1\AppData\Local\Temp\ccxS8OWg.s 			page 148


 6659      6D657261 
 6659      74655075 
 6660              	.LASF360:
 6661 1411 70756D70 		.ascii	"pumpposcode\000"
 6661      706F7363 
 6661      6F646500 
 6662              	.LASF341:
 6663 141d 45455052 		.ascii	"EEPROM_DISPENSER_PUMP21_TRANSACTION_PAGE\000"
 6663      4F4D5F44 
 6663      49535045 
 6663      4E534552 
 6663      5F50554D 
 6664              	.LASF305:
 6665 1446 44495350 		.ascii	"DISPLAY_SIDE_DUMMY_DISPLAY\000"
 6665      4C41595F 
 6665      53494445 
 6665      5F44554D 
 6665      4D595F44 
 6666              	.LASF288:
 6667 1461 44495350 		.ascii	"DISPLAY_CONFIGURAR_FECHA_HORA\000"
 6667      4C41595F 
 6667      434F4E46 
 6667      49475552 
 6667      41525F46 
 6668              	.LASF51:
 6669 147f 55415254 		.ascii	"UART_RF_RECEPTION\000"
 6669      5F52465F 
 6669      52454345 
 6669      5054494F 
 6669      4E00
 6670              	.LASF181:
 6671 1491 5F50554D 		.ascii	"_PUMP_TRANSACTION_JOB_\000"
 6671      505F5452 
 6671      414E5341 
 6671      4354494F 
 6671      4E5F4A4F 
 6672              	.LASF386:
 6673 14a8 47657450 		.ascii	"GetPumpFromRemotePositionID\000"
 6673      756D7046 
 6673      726F6D52 
 6673      656D6F74 
 6673      65506F73 
 6674              	.LASF136:
 6675 14c4 5F617574 		.ascii	"_authorized\000"
 6675      686F7269 
 6675      7A656400 
 6676              	.LASF20:
 6677 14d0 6C6F6E67 		.ascii	"long double\000"
 6677      20646F75 
 6677      626C6500 
 6678              	.LASF223:
 6679 14dc 416C6C6F 		.ascii	"Allocate\000"
 6679      63617465 
 6679      00
 6680              	.LASF120:
 6681 14e5 5F747261 		.ascii	"_transtate\000"
 6681      6E737461 
ARM GAS  C:\Users\RECEPC~1\AppData\Local\Temp\ccxS8OWg.s 			page 149


 6681      746500
 6682              	.LASF91:
 6683 14f0 50554D50 		.ascii	"PUMP_FAIL\000"
 6683      5F464149 
 6683      4C00
 6684              	.LASF283:
 6685 14fa 44495350 		.ascii	"DISPLAY_OPERACION_CANCELADA\000"
 6685      4C41595F 
 6685      4F504552 
 6685      4143494F 
 6685      4E5F4341 
 6686              	.LASF278:
 6687 1516 44495350 		.ascii	"DISPLAY_OPERACIONES\000"
 6687      4C41595F 
 6687      4F504552 
 6687      4143494F 
 6687      4E455300 
 6688              	.LASF97:
 6689 152a 50554D50 		.ascii	"PUMP_FEOT\000"
 6689      5F46454F 
 6689      5400
 6690              	.LASF191:
 6691 1534 5F707265 		.ascii	"_preconditions\000"
 6691      636F6E64 
 6691      6974696F 
 6691      6E7300
 6692              	.LASF180:
 6693 1543 504E4541 		.ascii	"PNEAR_PUMPPTR\000"
 6693      525F5055 
 6693      4D505054 
 6693      5200
 6694              	.LASF232:
 6695 1551 5F686F73 		.ascii	"_hosesposition1\000"
 6695      6573706F 
 6695      73697469 
 6695      6F6E3100 
 6696              	.LASF150:
 6697 1561 5F686F73 		.ascii	"_hoseactivestate\000"
 6697      65616374 
 6697      69766573 
 6697      74617465 
 6697      00
 6698              	.LASF234:
 6699 1572 5F686F73 		.ascii	"_hosesposition3\000"
 6699      6573706F 
 6699      73697469 
 6699      6F6E3300 
 6700              	.LASF235:
 6701 1582 5F686F73 		.ascii	"_hosesposition4\000"
 6701      6573706F 
 6701      73697469 
 6701      6F6E3400 
 6702              	.LASF268:
 6703 1592 44495350 		.ascii	"DISPLAY_NUEVO_PASSWORD\000"
 6703      4C41595F 
 6703      4E554556 
 6703      4F5F5041 
ARM GAS  C:\Users\RECEPC~1\AppData\Local\Temp\ccxS8OWg.s 			page 150


 6703      5353574F 
 6704              	.LASF241:
 6705 15a9 5F6D696E 		.ascii	"_minvolumevalue\000"
 6705      766F6C75 
 6705      6D657661 
 6705      6C756500 
 6706              	.LASF184:
 6707 15b9 54696D65 		.ascii	"TimeoutCallback\000"
 6707      6F757443 
 6707      616C6C62 
 6707      61636B00 
 6708              	.LASF178:
 6709 15c9 436C6561 		.ascii	"CleanUp\000"
 6709      6E557000 
 6710              	.LASF273:
 6711 15d1 44495350 		.ascii	"DISPLAY_ESPERANDO_ID\000"
 6711      4C41595F 
 6711      45535045 
 6711      52414E44 
 6711      4F5F4944 
 6712              	.LASF220:
 6713 15e6 5F6A6F62 		.ascii	"_jobqueueheap\000"
 6713      71756575 
 6713      65686561 
 6713      7000
 6714              	.LASF330:
 6715 15f4 45455052 		.ascii	"EEPROM_DISPENSER_PUMP2_PPU_INFO_PAGE\000"
 6715      4F4D5F44 
 6715      49535045 
 6715      4E534552 
 6715      5F50554D 
 6716              	.LASF179:
 6717 1619 50756D70 		.ascii	"Pump\000"
 6717      00
 6718              	.LASF365:
 6719 161e 44697370 		.ascii	"DispenserSide1Listener\000"
 6719      656E7365 
 6719      72536964 
 6719      65314C69 
 6719      7374656E 
 6720              	.LASF112:
 6721 1635 5F50554D 		.ascii	"_PUMP_STOP_\000"
 6721      505F5354 
 6721      4F505F00 
 6722              	.LASF254:
 6723 1641 44495350 		.ascii	"DISPLAY_FORMA_PAGO_DESEADA\000"
 6723      4C41595F 
 6723      464F524D 
 6723      415F5041 
 6723      474F5F44 
 6724              	.LASF7:
 6725 165c 6C6F6E67 		.ascii	"long long unsigned int\000"
 6725      206C6F6E 
 6725      6720756E 
 6725      7369676E 
 6725      65642069 
 6726              	.LASF106:
ARM GAS  C:\Users\RECEPC~1\AppData\Local\Temp\ccxS8OWg.s 			page 151


 6727 1673 5F50554D 		.ascii	"_PUMP_PPU_CHANGE_\000"
 6727      505F5050 
 6727      555F4348 
 6727      414E4745 
 6727      5F00
 6728              	.LASF162:
 6729 1685 5F706375 		.ascii	"_pcurrtransaction\000"
 6729      72727472 
 6729      616E7361 
 6729      6374696F 
 6729      6E00
 6730              	.LASF216:
 6731 1697 50756D70 		.ascii	"PumpTransactionJobContext\000"
 6731      5472616E 
 6731      73616374 
 6731      696F6E4A 
 6731      6F62436F 
 6732              	.LASF230:
 6733 16b1 5F637572 		.ascii	"_currentloopopen\000"
 6733      72656E74 
 6733      6C6F6F70 
 6733      6F70656E 
 6733      00
 6734              	.LASF96:
 6735 16c2 50554D50 		.ascii	"PUMP_PEOT\000"
 6735      5F50454F 
 6735      5400
 6736              	.LASF54:
 6737 16cc 53494E4B 		.ascii	"SINK_UPDATE_COUNTERS\000"
 6737      5F555044 
 6737      4154455F 
 6737      434F554E 
 6737      54455253 
 6738              	.LASF380:
 6739 16e1 44697370 		.ascii	"DispenserAcquireTotals\000"
 6739      656E7365 
 6739      72416371 
 6739      75697265 
 6739      546F7461 
 6740              	.LASF127:
 6741 16f8 5F766172 		.ascii	"_var4\000"
 6741      3400
 6742              	.LASF187:
 6743 16fe 5F726570 		.ascii	"_repushtimeoutlimit\000"
 6743      75736874 
 6743      696D656F 
 6743      75746C69 
 6743      6D697400 
 6744              	.LASF62:
 6745 1712 44495350 		.ascii	"DISPENSER_LOAD_EEPROM_SETTINGS\000"
 6745      454E5345 
 6745      525F4C4F 
 6745      41445F45 
 6745      4550524F 
 6746              	.LASF140:
 6747 1731 5F707265 		.ascii	"_presetamount\000"
 6747      73657461 
ARM GAS  C:\Users\RECEPC~1\AppData\Local\Temp\ccxS8OWg.s 			page 152


 6747      6D6F756E 
 6747      7400
 6748              	.LASF392:
 6749 173f 5F675F70 		.ascii	"_g_printerlayout\000"
 6749      72696E74 
 6749      65726C61 
 6749      796F7574 
 6749      00
 6750              	.LASF393:
 6751 1750 5F675F72 		.ascii	"_g_rfautorun\000"
 6751      66617574 
 6751      6F72756E 
 6751      00
 6752              	.LASF153:
 6753 175d 5F707265 		.ascii	"_presetdone\000"
 6753      73657464 
 6753      6F6E6500 
 6754              	.LASF321:
 6755 1769 45455052 		.ascii	"EEPROM_DISPENSER_PUMP1_LAYOUT_PAGE\000"
 6755      4F4D5F44 
 6755      49535045 
 6755      4E534552 
 6755      5F50554D 
 6756              	.LASF245:
 6757 178c 44697370 		.ascii	"DispenserLayoutInfo\000"
 6757      656E7365 
 6757      724C6179 
 6757      6F757449 
 6757      6E666F00 
 6758              	.LASF52:
 6759 17a0 55415254 		.ascii	"UART_RF_TEST\000"
 6759      5F52465F 
 6759      54455354 
 6759      00
 6760              	.LASF352:
 6761 17ad 45455052 		.ascii	"EEPROM_DISPENSER_PUMP44_TRANSACTION_PAGE\000"
 6761      4F4D5F44 
 6761      49535045 
 6761      4E534552 
 6761      5F50554D 
 6762              	.LASF151:
 6763 17d6 5F616371 		.ascii	"_acquiringstate\000"
 6763      75697269 
 6763      6E677374 
 6763      61746500 
 6764              	.LASF261:
 6765 17e6 44495350 		.ascii	"DISPLAY_DESPACHANDO\000"
 6765      4C41595F 
 6765      44455350 
 6765      41434841 
 6765      4E444F00 
 6766              	.LASF99:
 6767 17fa 50554D50 		.ascii	"PUMP_SEND_DATA\000"
 6767      5F53454E 
 6767      445F4441 
 6767      544100
 6768              	.LASF123:
ARM GAS  C:\Users\RECEPC~1\AppData\Local\Temp\ccxS8OWg.s 			page 153


 6769 1809 5F766172 		.ascii	"_var0\000"
 6769      3000
 6770              	.LASF124:
 6771 180f 5F766172 		.ascii	"_var1\000"
 6771      3100
 6772              	.LASF125:
 6773 1815 5F766172 		.ascii	"_var2\000"
 6773      3200
 6774              	.LASF126:
 6775 181b 5F766172 		.ascii	"_var3\000"
 6775      3300
 6776              	.LASF74:
 6777 1821 5052494E 		.ascii	"PRINTER1_GENERIC_JOB\000"
 6777      54455231 
 6777      5F47454E 
 6777      45524943 
 6777      5F4A4F42 
 6778              	.LASF128:
 6779 1836 5F766172 		.ascii	"_var5\000"
 6779      3500
 6780              	.LASF129:
 6781 183c 5F766172 		.ascii	"_var6\000"
 6781      3600
 6782              	.LASF130:
 6783 1842 5F766172 		.ascii	"_var7\000"
 6783      3700
 6784              	.LASF131:
 6785 1848 5F766172 		.ascii	"_var8\000"
 6785      3800
 6786              	.LASF132:
 6787 184e 5F766172 		.ascii	"_var9\000"
 6787      3900
 6788              	.LASF107:
 6789 1854 5F50554D 		.ascii	"_PUMP_RESTORE_PRICE_\000"
 6789      505F5245 
 6789      53544F52 
 6789      455F5052 
 6789      4943455F 
 6790              	.LASF133:
 6791 1869 5F766172 		.ascii	"_varA\000"
 6791      4100
 6792              	.LASF134:
 6793 186f 5F766172 		.ascii	"_varB\000"
 6793      4200
 6794              	.LASF263:
 6795 1875 44495350 		.ascii	"DISPLAY_DIGITE_PLACA\000"
 6795      4C41595F 
 6795      44494749 
 6795      54455F50 
 6795      4C414341 
 6796              	.LASF276:
 6797 188a 44495350 		.ascii	"DISPLAY_INTRODUZCA_VOLUMEN\000"
 6797      4C41595F 
 6797      494E5452 
 6797      4F44555A 
 6797      43415F56 
 6798              	.LASF26:
ARM GAS  C:\Users\RECEPC~1\AppData\Local\Temp\ccxS8OWg.s 			page 154


 6799 18a5 414C4C49 		.ascii	"ALLINTERESTED\000"
 6799      4E544552 
 6799      45535445 
 6799      4400
 6800              	.LASF280:
 6801 18b3 44495350 		.ascii	"DISPLAY_COPIA_RECIBO\000"
 6801      4C41595F 
 6801      434F5049 
 6801      415F5245 
 6801      4349424F 
 6802              	.LASF294:
 6803 18c8 44495350 		.ascii	"DISPLAY_CANCELADO_X_PC\000"
 6803      4C41595F 
 6803      43414E43 
 6803      454C4144 
 6803      4F5F585F 
 6804              	.LASF147:
 6805 18df 5F70756D 		.ascii	"_pumpindex\000"
 6805      70696E64 
 6805      657800
 6806              	.LASF182:
 6807 18ea 52657175 		.ascii	"Request\000"
 6807      65737400 
 6808              	.LASF287:
 6809 18f2 44495350 		.ascii	"DISPLAY_AUTORIZACION_RECHAZADA\000"
 6809      4C41595F 
 6809      4155544F 
 6809      52495A41 
 6809      43494F4E 
 6810              	.LASF154:
 6811 1911 5F70756D 		.ascii	"_pumplocked\000"
 6811      706C6F63 
 6811      6B656400 
 6812              	.LASF37:
 6813 191d 5F6D6573 		.ascii	"_messageid\000"
 6813      73616765 
 6813      696400
 6814              	.LASF102:
 6815 1928 5F50554D 		.ascii	"_PUMP_FILL_BY_MONEY_\000"
 6815      505F4649 
 6815      4C4C5F42 
 6815      595F4D4F 
 6815      4E45595F 
 6816              	.LASF11:
 6817 193d 75696E74 		.ascii	"uint8\000"
 6817      3800
 6818              	.LASF81:
 6819 1943 44495350 		.ascii	"DISPLAY2_RECEPTION\000"
 6819      4C415932 
 6819      5F524543 
 6819      45505449 
 6819      4F4E00
 6820              	.LASF367:
 6821 1956 70706172 		.ascii	"pparam\000"
 6821      616D00
 6822              	.LASF370:
 6823 195d 44697370 		.ascii	"DispenserUnlockPumpsOnEOT\000"
ARM GAS  C:\Users\RECEPC~1\AppData\Local\Temp\ccxS8OWg.s 			page 155


 6823      656E7365 
 6823      72556E6C 
 6823      6F636B50 
 6823      756D7073 
 6824              	.LASF387:
 6825 1977 706F7369 		.ascii	"positionid\000"
 6825      74696F6E 
 6825      696400
 6826              	.LASF2:
 6827 1982 73686F72 		.ascii	"short int\000"
 6827      7420696E 
 6827      7400
 6828              	.LASF300:
 6829 198c 44495350 		.ascii	"DISPLAY_PRECIO_POR_UNIDAD\000"
 6829      4C41595F 
 6829      50524543 
 6829      494F5F50 
 6829      4F525F55 
 6830              	.LASF168:
 6831 19a6 50756D70 		.ascii	"PumpTransQueueLock\000"
 6831      5472616E 
 6831      73517565 
 6831      75654C6F 
 6831      636B00
 6832              	.LASF306:
 6833 19b9 44495350 		.ascii	"DISPLAY_NULL\000"
 6833      4C41595F 
 6833      4E554C4C 
 6833      00
 6834              	.LASF173:
 6835 19c6 50756D70 		.ascii	"PumpTransQueueAllocate\000"
 6835      5472616E 
 6835      73517565 
 6835      7565416C 
 6835      6C6F6361 
 6836              	.LASF67:
 6837 19dd 44495350 		.ascii	"DISPENSER_CONFIGURE_SINGLE_PRICE\000"
 6837      454E5345 
 6837      525F434F 
 6837      4E464947 
 6837      5552455F 
 6838              	.LASF77:
 6839 19fe 44495350 		.ascii	"DISPLAY1_RECEPTION\000"
 6839      4C415931 
 6839      5F524543 
 6839      45505449 
 6839      4F4E00
 6840              	.LASF171:
 6841 1a11 50756D70 		.ascii	"PumpTransQueueEnqueue\000"
 6841      5472616E 
 6841      73517565 
 6841      7565456E 
 6841      71756575 
 6842              	.LASF311:
 6843 1a27 5072696E 		.ascii	"PrinterLayout\000"
 6843      7465724C 
 6843      61796F75 
ARM GAS  C:\Users\RECEPC~1\AppData\Local\Temp\ccxS8OWg.s 			page 156


 6843      7400
 6844              	.LASF226:
 6845 1a35 44657175 		.ascii	"Dequeue\000"
 6845      65756500 
 6846              	.LASF63:
 6847 1a3d 44495350 		.ascii	"DISPENSER_ENUMERATE_VISIBLE_PUMPS\000"
 6847      454E5345 
 6847      525F454E 
 6847      554D4552 
 6847      4154455F 
 6848              	.LASF43:
 6849 1a5f 5F6D6573 		.ascii	"_messagetimeoutlimit\000"
 6849      73616765 
 6849      74696D65 
 6849      6F75746C 
 6849      696D6974 
 6850              	.LASF396:
 6851 1a74 474E5520 		.ascii	"GNU C 4.9.3 20150303 (release) [ARM/embedded-4_9-br"
 6851      4320342E 
 6851      392E3320 
 6851      32303135 
 6851      30333033 
 6852 1aa7 616E6368 		.ascii	"anch revision 221220] -mcpu=cortex-m3 -mthumb -g -O"
 6852      20726576 
 6852      6973696F 
 6852      6E203232 
 6852      31323230 
 6853 1ada 30202D66 		.ascii	"0 -ffunction-sections -ffat-lto-objects\000"
 6853      66756E63 
 6853      74696F6E 
 6853      2D736563 
 6853      74696F6E 
 6854              	.LASF369:
 6855 1b02 696E6465 		.ascii	"index\000"
 6855      7800
 6856              	.LASF275:
 6857 1b08 44495350 		.ascii	"DISPLAY_INTRODUZCA_CEDULA\000"
 6857      4C41595F 
 6857      494E5452 
 6857      4F44555A 
 6857      43415F43 
 6858              	.LASF207:
 6859 1b22 5F726570 		.ascii	"_repushretriescounter\000"
 6859      75736872 
 6859      65747269 
 6859      6573636F 
 6859      756E7465 
 6860              	.LASF38:
 6861 1b38 5F6D6573 		.ascii	"_messagetype\000"
 6861      73616765 
 6861      74797065 
 6861      00
 6862              	.LASF368:
 6863 1b45 44697370 		.ascii	"DispenserUpdatePumpState\000"
 6863      656E7365 
 6863      72557064 
 6863      61746550 
ARM GAS  C:\Users\RECEPC~1\AppData\Local\Temp\ccxS8OWg.s 			page 157


 6863      756D7053 
 6864              	.LASF28:
 6865 1b5e 46495253 		.ascii	"FIRSTFOUNDFOREVER\000"
 6865      54464F55 
 6865      4E44464F 
 6865      52455645 
 6865      5200
 6866              	.LASF92:
 6867 1b70 50554D50 		.ascii	"PUMP_IDLE\000"
 6867      5F49444C 
 6867      4500
 6868              	.LASF331:
 6869 1b7a 45455052 		.ascii	"EEPROM_DISPENSER_PUMP3_PPU_INFO_PAGE\000"
 6869      4F4D5F44 
 6869      49535045 
 6869      4E534552 
 6869      5F50554D 
 6870              	.LASF149:
 6871 1b9f 5F637572 		.ascii	"_currenthose\000"
 6871      72656E74 
 6871      686F7365 
 6871      00
 6872              	.LASF364:
 6873 1bac 706A6F62 		.ascii	"pjobcntr\000"
 6873      636E7472 
 6873      00
 6874              	.LASF175:
 6875 1bb5 50756D70 		.ascii	"PumpValidState\000"
 6875      56616C69 
 6875      64537461 
 6875      746500
 6876              	.LASF177:
 6877 1bc4 5F617574 		.ascii	"_authorizationinfo\000"
 6877      686F7269 
 6877      7A617469 
 6877      6F6E696E 
 6877      666F00
 6878              	.LASF113:
 6879 1bd7 5F50554D 		.ascii	"_PUMP_STOPALL_\000"
 6879      505F5354 
 6879      4F50414C 
 6879      4C5F00
 6880              	.LASF291:
 6881 1be6 44495350 		.ascii	"DISPLAY_OPCION_TURNO\000"
 6881      4C41595F 
 6881      4F504349 
 6881      4F4E5F54 
 6881      55524E4F 
 6882              	.LASF208:
 6883 1bfb 5F726570 		.ascii	"_repushtimeoutseed\000"
 6883      75736874 
 6883      696D656F 
 6883      75747365 
 6883      656400
 6884              	.LASF138:
 6885 1c0e 5F686F73 		.ascii	"_hoseid\000"
 6885      65696400 
ARM GAS  C:\Users\RECEPC~1\AppData\Local\Temp\ccxS8OWg.s 			page 158


 6886              	.LASF39:
 6887 1c16 5F6D6573 		.ascii	"_messagestate\000"
 6887      73616765 
 6887      73746174 
 6887      6500
 6888              	.LASF189:
 6889 1c24 5F726574 		.ascii	"_retryinsteadofrepush\000"
 6889      7279696E 
 6889      73746561 
 6889      646F6672 
 6889      65707573 
 6890              	.LASF104:
 6891 1c3a 5F50554D 		.ascii	"_PUMP_FILL_FULL_\000"
 6891      505F4649 
 6891      4C4C5F46 
 6891      554C4C5F 
 6891      00
 6892              	.LASF84:
 6893 1c4b 44495350 		.ascii	"DISPLAY2_ANIMATE_HOME\000"
 6893      4C415932 
 6893      5F414E49 
 6893      4D415445 
 6893      5F484F4D 
 6894              	.LASF137:
 6895 1c61 5F707265 		.ascii	"_presettype\000"
 6895      73657474 
 6895      79706500 
 6896              	.LASF110:
 6897 1c6d 5F50554D 		.ascii	"_PUMP_EOT_\000"
 6897      505F454F 
 6897      545F00
 6898              	.LASF76:
 6899 1c78 44495350 		.ascii	"DISPLAY_UPDATE_PUMP_STATE\000"
 6899      4C41595F 
 6899      55504441 
 6899      54455F50 
 6899      554D505F 
 6900              	.LASF31:
 6901 1c92 5F4D4553 		.ascii	"_MESSAGE_TYPE_\000"
 6901      53414745 
 6901      5F545950 
 6901      455F00
 6902              	.LASF66:
 6903 1ca1 44495350 		.ascii	"DISPENSER_RESTORE_PRICES\000"
 6903      454E5345 
 6903      525F5245 
 6903      53544F52 
 6903      455F5052 
 6904              	.LASF186:
 6905 1cba 5F726573 		.ascii	"_responsetimeoutlimit\000"
 6905      706F6E73 
 6905      6574696D 
 6905      656F7574 
 6905      6C696D69 
 6906              	.LASF158:
 6907 1cd0 5F707269 		.ascii	"_print\000"
 6907      6E7400
ARM GAS  C:\Users\RECEPC~1\AppData\Local\Temp\ccxS8OWg.s 			page 159


 6908              	.LASF323:
 6909 1cd7 45455052 		.ascii	"EEPROM_DISPENSER_PUMP3_LAYOUT_PAGE\000"
 6909      4F4D5F44 
 6909      49535045 
 6909      4E534552 
 6909      5F50554D 
 6910              	.LASF3:
 6911 1cfa 73686F72 		.ascii	"short unsigned int\000"
 6911      7420756E 
 6911      7369676E 
 6911      65642069 
 6911      6E7400
 6912              	.LASF170:
 6913 1d0d 50756D70 		.ascii	"PumpTransQueueFind\000"
 6913      5472616E 
 6913      73517565 
 6913      75654669 
 6913      6E6400
 6914              	.LASF356:
 6915 1d20 5F74696D 		.ascii	"_timeouttoreceivemultiplier\000"
 6915      656F7574 
 6915      746F7265 
 6915      63656976 
 6915      656D756C 
 6916              	.LASF394:
 6917 1d3c 5F675F70 		.ascii	"_g_pumpcodemap\000"
 6917      756D7063 
 6917      6F64656D 
 6917      617000
 6918              	.LASF73:
 6919 1d4b 5052494E 		.ascii	"PRINTER22_JOB\000"
 6919      54455232 
 6919      325F4A4F 
 6919      4200
 6920              	.LASF383:
 6921 1d59 70756D70 		.ascii	"pumpid\000"
 6921      696400
 6922              	.LASF90:
 6923 1d60 5F50554D 		.ascii	"_PUMP_STATES_\000"
 6923      505F5354 
 6923      41544553 
 6923      5F00
 6924              	.LASF327:
 6925 1d6e 45455052 		.ascii	"EEPROM_DISPENSER_PUMP3_PRODUCT_NAMES_PAGE\000"
 6925      4F4D5F44 
 6925      49535045 
 6925      4E534552 
 6925      5F50554D 
 6926              	.LASF121:
 6927 1d98 50756D70 		.ascii	"PumpTransactionalState\000"
 6927      5472616E 
 6927      73616374 
 6927      696F6E61 
 6927      6C537461 
 6928              	.LASF176:
 6929 1daf 5F646174 		.ascii	"_datacontainer\000"
 6929      61636F6E 
ARM GAS  C:\Users\RECEPC~1\AppData\Local\Temp\ccxS8OWg.s 			page 160


 6929      7461696E 
 6929      657200
 6930              	.LASF204:
 6931 1dbe 5F726565 		.ascii	"_reenqueuecounter\000"
 6931      6E717565 
 6931      7565636F 
 6931      756E7465 
 6931      7200
 6932              	.LASF98:
 6933 1dd0 50554D50 		.ascii	"PUMP_STOPPED\000"
 6933      5F53544F 
 6933      50504544 
 6933      00
 6934              	.LASF32:
 6935 1ddd 5F4D4553 		.ascii	"_MESSAGE_STATE_\000"
 6935      53414745 
 6935      5F535441 
 6935      54455F00 
 6936              	.LASF33:
 6937 1ded 53494E4B 		.ascii	"SINK_FREE\000"
 6937      5F465245 
 6937      4500
 6938              	.LASF23:
 6939 1df7 4E4F4E45 		.ascii	"NONE\000"
 6939      00
 6940              	.LASF86:
 6941 1dfc 49425554 		.ascii	"IBUTTON2_SCAN\000"
 6941      544F4E32 
 6941      5F534341 
 6941      4E00
 6942              	.LASF242:
 6943 1e0a 5F646973 		.ascii	"_displaydigitsmode\000"
 6943      706C6179 
 6943      64696769 
 6943      74736D6F 
 6943      646500
 6944              	.LASF12:
 6945 1e1d 75696E74 		.ascii	"uint16\000"
 6945      313600
 6946              	.LASF169:
 6947 1e24 50756D70 		.ascii	"PumpTransQueueUnlock\000"
 6947      5472616E 
 6947      73517565 
 6947      7565556E 
 6947      6C6F636B 
 6948              	.LASF357:
 6949 1e39 52464175 		.ascii	"RFAutoRun\000"
 6949      746F5275 
 6949      6E00
 6950              	.LASF45:
 6951 1e43 5F627566 		.ascii	"_buffersize\000"
 6951      66657273 
 6951      697A6500 
 6952              	.LASF95:
 6953 1e4f 50554D50 		.ascii	"PUMP_BUSY\000"
 6953      5F425553 
 6953      5900
ARM GAS  C:\Users\RECEPC~1\AppData\Local\Temp\ccxS8OWg.s 			page 161


 6954              	.LASF117:
 6955 1e59 5F50554D 		.ascii	"_PUMP_RR_ACTIVE_\000"
 6955      505F5252 
 6955      5F414354 
 6955      4956455F 
 6955      00
 6956              	.LASF309:
 6957 1e6a 5F707269 		.ascii	"_printerportside1\000"
 6957      6E746572 
 6957      706F7274 
 6957      73696465 
 6957      3100
 6958              		.ident	"GCC: (GNU Tools for ARM Embedded Processors) 4.9.3 20150303 (release) [ARM/embedded-4_9-br
