ARM GAS  C:\Users\RECEPC~1\AppData\Local\Temp\ccUYVmA0.s 			page 1


   1              		.syntax unified
   2              		.cpu cortex-m3
   3              		.fpu softvfp
   4              		.eabi_attribute 20, 1
   5              		.eabi_attribute 21, 1
   6              		.eabi_attribute 23, 3
   7              		.eabi_attribute 24, 1
   8              		.eabi_attribute 25, 1
   9              		.eabi_attribute 26, 1
  10              		.eabi_attribute 30, 6
  11              		.eabi_attribute 34, 1
  12              		.eabi_attribute 18, 4
  13              		.thumb
  14              		.file	"DispenserSink.c"
  15              		.text
  16              	.Ltext0:
  17              		.cfi_sections	.debug_frame
  18              		.global	_g_dispenserupdatetimeout
  19              		.bss
  20              		.align	1
  21              		.type	_g_dispenserupdatetimeout, %object
  22              		.size	_g_dispenserupdatetimeout, 2
  23              	_g_dispenserupdatetimeout:
  24 0000 0000     		.space	2
  25              		.global	_g_dispenserupdatetimeoutmultiplier
  26              		.align	1
  27              		.type	_g_dispenserupdatetimeoutmultiplier, %object
  28              		.size	_g_dispenserupdatetimeoutmultiplier, 2
  29              	_g_dispenserupdatetimeoutmultiplier:
  30 0002 0000     		.space	2
  31              		.section	.text.DispenserSinkRegistration,"ax",%progbits
  32              		.align	2
  33              		.global	DispenserSinkRegistration
  34              		.thumb
  35              		.thumb_func
  36              		.type	DispenserSinkRegistration, %function
  37              	DispenserSinkRegistration:
  38              	.LFB63:
  39              		.file 1 ".\\DispenserSink.c"
   1:.\DispenserSink.c **** /* ========================================
   2:.\DispenserSink.c ****  *
   3:.\DispenserSink.c ****  * Copyright INSEPET SISTEMAS, 2016
   4:.\DispenserSink.c ****  * All Rights Reserved
   5:.\DispenserSink.c ****  * UNPUBLISHED, LICENSED SOFTWARE.
   6:.\DispenserSink.c ****  *
   7:.\DispenserSink.c ****  * CONFIDENTIAL AND PROPRIETARY INFORMATION
   8:.\DispenserSink.c ****  * WHICH IS THE PROPERTY OF your company.
   9:.\DispenserSink.c ****  *
  10:.\DispenserSink.c ****  * ========================================
  11:.\DispenserSink.c **** @Created By: HIJH
  12:.\DispenserSink.c **** @Date: Septembre de 2016
  13:.\DispenserSink.c **** */
  14:.\DispenserSink.c **** #include <project.h>
  15:.\DispenserSink.c **** #include "SinkManager.h"
  16:.\DispenserSink.c **** #include "SinkObservables.h"
  17:.\DispenserSink.c **** #include "GlobalDefinitions.h"
  18:.\DispenserSink.c **** 
ARM GAS  C:\Users\RECEPC~1\AppData\Local\Temp\ccUYVmA0.s 			page 2


  19:.\DispenserSink.c **** #include "Dispenser.h"
  20:.\DispenserSink.c **** 
  21:.\DispenserSink.c **** extern PumpResponseContext _g_respctxt;
  22:.\DispenserSink.c **** 
  23:.\DispenserSink.c **** uint16 _g_dispenserupdatetimeout = 0x0000;
  24:.\DispenserSink.c **** uint16 _g_dispenserupdatetimeoutmultiplier = 0x0000;
  25:.\DispenserSink.c **** 
  26:.\DispenserSink.c **** void InitProtocol();
  27:.\DispenserSink.c **** void DispenserHandler();
  28:.\DispenserSink.c **** void DispenserTimeoutHandler();
  29:.\DispenserSink.c **** void DispenserUpdateTimeouts(void *pparam);
  30:.\DispenserSink.c **** void DispenserDataReceptionHandler();
  31:.\DispenserSink.c **** 
  32:.\DispenserSink.c **** //Messages coming from the Displays
  33:.\DispenserSink.c **** void DispenserSide1Listener(void *pparam);
  34:.\DispenserSink.c **** void DispenserSide2Listener(void *pparam);
  35:.\DispenserSink.c **** //Invoked once on MUX startup. This call is delayed a few seconds to allow for the general initiali
  36:.\DispenserSink.c **** void DispenserEnumeratePumps(LPVOID pparam);
  37:.\DispenserSink.c **** void DispenserLoadEEPROMSettings(LPVOID pparam);
  38:.\DispenserSink.c **** void DispenserPriceRestore(LPVOID pparam);
  39:.\DispenserSink.c **** void DispenserRestorePrices(LPVOID pparam);
  40:.\DispenserSink.c **** void DispenserUnlockPumpsOnEOT(LPVOID pparam);
  41:.\DispenserSink.c **** void DispenserAcquireConfiguration(LPVOID pparam);
  42:.\DispenserSink.c **** void DispenserConfigurePrices(LPVOID pparam);
  43:.\DispenserSink.c **** void DispenserConfigureSinglePrice(LPVOID pparam);
  44:.\DispenserSink.c **** void DispenserAcquireTotals(LPVOID pparam);
  45:.\DispenserSink.c **** void DispenserDaylyRestart(LPVOID pparam);
  46:.\DispenserSink.c **** 
  47:.\DispenserSink.c **** void DispenserSinkRegistration()
  48:.\DispenserSink.c **** {
  40              		.loc 1 48 0
  41              		.cfi_startproc
  42              		@ args = 0, pretend = 0, frame = 16
  43              		@ frame_needed = 1, uses_anonymous_args = 0
  44 0000 80B5     		push	{r7, lr}
  45              		.cfi_def_cfa_offset 8
  46              		.cfi_offset 7, -8
  47              		.cfi_offset 14, -4
  48 0002 84B0     		sub	sp, sp, #16
  49              		.cfi_def_cfa_offset 24
  50 0004 00AF     		add	r7, sp, #0
  51              		.cfi_def_cfa_register 7
  49:.\DispenserSink.c ****     InitProtocol();
  52              		.loc 1 49 0
  53 0006 FFF7FEFF 		bl	InitProtocol
  50:.\DispenserSink.c ****     
  51:.\DispenserSink.c ****     PSINKSUBSCRIBERPTR psubscriber = AllocateSubscriberSlot();
  54              		.loc 1 51 0
  55 000a FFF7FEFF 		bl	AllocateSubscriberSlot
  56 000e F860     		str	r0, [r7, #12]
  52:.\DispenserSink.c ****     if(psubscriber)
  57              		.loc 1 52 0
  58 0010 FB68     		ldr	r3, [r7, #12]
  59 0012 002B     		cmp	r3, #0
  60 0014 47D0     		beq	.L2
  61              	.LBB2:
  53:.\DispenserSink.c ****     {
ARM GAS  C:\Users\RECEPC~1\AppData\Local\Temp\ccUYVmA0.s 			page 3


  54:.\DispenserSink.c ****         uint8 index = 0;
  62              		.loc 1 54 0
  63 0016 0023     		movs	r3, #0
  64 0018 FB72     		strb	r3, [r7, #11]
  55:.\DispenserSink.c ****         //The maximum number of observable identifiers is _OBSERVED_IDENTIFIERS_
  56:.\DispenserSink.c ****         //located in the header file "SinkManager.h"
  57:.\DispenserSink.c ****         //Every identifier is paired with its respective Callback method pointer
  58:.\DispenserSink.c ****         
  59:.\DispenserSink.c ****         psubscriber->_arrmsgid[index] = DISPLAY1_MESSAGE;
  65              		.loc 1 59 0
  66 001a FB7A     		ldrb	r3, [r7, #11]	@ zero_extendqisi2
  67 001c FA68     		ldr	r2, [r7, #12]
  68 001e 1344     		add	r3, r3, r2
  69 0020 1C22     		movs	r2, #28
  70 0022 5A70     		strb	r2, [r3, #1]
  60:.\DispenserSink.c ****         psubscriber->Callback[index++] = DispenserSide1Listener;
  71              		.loc 1 60 0
  72 0024 FB7A     		ldrb	r3, [r7, #11]	@ zero_extendqisi2
  73 0026 5A1C     		adds	r2, r3, #1
  74 0028 FA72     		strb	r2, [r7, #11]
  75 002a FA68     		ldr	r2, [r7, #12]
  76 002c 0233     		adds	r3, r3, #2
  77 002e 9B00     		lsls	r3, r3, #2
  78 0030 1344     		add	r3, r3, r2
  79 0032 8C4A     		ldr	r2, .L9
  80 0034 5A60     		str	r2, [r3, #4]
  61:.\DispenserSink.c **** 
  62:.\DispenserSink.c ****         psubscriber->_arrmsgid[index] = DISPLAY2_MESSAGE;
  81              		.loc 1 62 0
  82 0036 FB7A     		ldrb	r3, [r7, #11]	@ zero_extendqisi2
  83 0038 FA68     		ldr	r2, [r7, #12]
  84 003a 1344     		add	r3, r3, r2
  85 003c 2022     		movs	r2, #32
  86 003e 5A70     		strb	r2, [r3, #1]
  63:.\DispenserSink.c ****         psubscriber->Callback[index++] = DispenserSide2Listener;
  87              		.loc 1 63 0
  88 0040 FB7A     		ldrb	r3, [r7, #11]	@ zero_extendqisi2
  89 0042 5A1C     		adds	r2, r3, #1
  90 0044 FA72     		strb	r2, [r7, #11]
  91 0046 FA68     		ldr	r2, [r7, #12]
  92 0048 0233     		adds	r3, r3, #2
  93 004a 9B00     		lsls	r3, r3, #2
  94 004c 1344     		add	r3, r3, r2
  95 004e 864A     		ldr	r2, .L9+4
  96 0050 5A60     		str	r2, [r3, #4]
  64:.\DispenserSink.c **** 
  65:.\DispenserSink.c ****         psubscriber->_arrmsgid[index] = DISPENSER_UPDATE_PUMP_TRANSACTION_TIMEOUTS;
  97              		.loc 1 65 0
  98 0052 FB7A     		ldrb	r3, [r7, #11]	@ zero_extendqisi2
  99 0054 FA68     		ldr	r2, [r7, #12]
 100 0056 1344     		add	r3, r3, r2
 101 0058 0722     		movs	r2, #7
 102 005a 5A70     		strb	r2, [r3, #1]
  66:.\DispenserSink.c ****         psubscriber->Callback[index++] = DispenserUpdateTimeouts;
 103              		.loc 1 66 0
 104 005c FB7A     		ldrb	r3, [r7, #11]	@ zero_extendqisi2
 105 005e 5A1C     		adds	r2, r3, #1
ARM GAS  C:\Users\RECEPC~1\AppData\Local\Temp\ccUYVmA0.s 			page 4


 106 0060 FA72     		strb	r2, [r7, #11]
 107 0062 FA68     		ldr	r2, [r7, #12]
 108 0064 0233     		adds	r3, r3, #2
 109 0066 9B00     		lsls	r3, r3, #2
 110 0068 1344     		add	r3, r3, r2
 111 006a 804A     		ldr	r2, .L9+8
 112 006c 5A60     		str	r2, [r3, #4]
  67:.\DispenserSink.c **** 
  68:.\DispenserSink.c ****         psubscriber->_arrmsgid[index] = DISPENSER_ACQUIRE_PUMP_STATE;
 113              		.loc 1 68 0
 114 006e FB7A     		ldrb	r3, [r7, #11]	@ zero_extendqisi2
 115 0070 FA68     		ldr	r2, [r7, #12]
 116 0072 1344     		add	r3, r3, r2
 117 0074 0A22     		movs	r2, #10
 118 0076 5A70     		strb	r2, [r3, #1]
  69:.\DispenserSink.c ****         psubscriber->Callback[index++] = DispenserUpdatePumpState;
 119              		.loc 1 69 0
 120 0078 FB7A     		ldrb	r3, [r7, #11]	@ zero_extendqisi2
 121 007a 5A1C     		adds	r2, r3, #1
 122 007c FA72     		strb	r2, [r7, #11]
 123 007e FA68     		ldr	r2, [r7, #12]
 124 0080 0233     		adds	r3, r3, #2
 125 0082 9B00     		lsls	r3, r3, #2
 126 0084 1344     		add	r3, r3, r2
 127 0086 7A4A     		ldr	r2, .L9+12
 128 0088 5A60     		str	r2, [r3, #4]
  70:.\DispenserSink.c **** 
  71:.\DispenserSink.c ****         psubscriber->_arrmsgid[index] = DISPENSER_LOAD_EEPROM_SETTINGS;
 129              		.loc 1 71 0
 130 008a FB7A     		ldrb	r3, [r7, #11]	@ zero_extendqisi2
 131 008c FA68     		ldr	r2, [r7, #12]
 132 008e 1344     		add	r3, r3, r2
 133 0090 0C22     		movs	r2, #12
 134 0092 5A70     		strb	r2, [r3, #1]
  72:.\DispenserSink.c ****         psubscriber->Callback[index++] = DispenserLoadEEPROMSettings;
 135              		.loc 1 72 0
 136 0094 FB7A     		ldrb	r3, [r7, #11]	@ zero_extendqisi2
 137 0096 5A1C     		adds	r2, r3, #1
 138 0098 FA72     		strb	r2, [r7, #11]
 139 009a FA68     		ldr	r2, [r7, #12]
 140 009c 0233     		adds	r3, r3, #2
 141 009e 9B00     		lsls	r3, r3, #2
 142 00a0 1344     		add	r3, r3, r2
 143 00a2 744A     		ldr	r2, .L9+16
 144 00a4 5A60     		str	r2, [r3, #4]
 145              	.L2:
 146              	.LBE2:
  73:.\DispenserSink.c **** 
  74:.\DispenserSink.c ****     }
  75:.\DispenserSink.c **** 
  76:.\DispenserSink.c ****     psubscriber = AllocateSubscriberSlot();
 147              		.loc 1 76 0
 148 00a6 FFF7FEFF 		bl	AllocateSubscriberSlot
 149 00aa F860     		str	r0, [r7, #12]
  77:.\DispenserSink.c ****     if(psubscriber)
 150              		.loc 1 77 0
 151 00ac FB68     		ldr	r3, [r7, #12]
ARM GAS  C:\Users\RECEPC~1\AppData\Local\Temp\ccUYVmA0.s 			page 5


 152 00ae 002B     		cmp	r3, #0
 153 00b0 63D0     		beq	.L3
 154              	.LBB3:
  78:.\DispenserSink.c ****     {
  79:.\DispenserSink.c ****         uint8 index = 0;
 155              		.loc 1 79 0
 156 00b2 0023     		movs	r3, #0
 157 00b4 BB72     		strb	r3, [r7, #10]
  80:.\DispenserSink.c ****         
  81:.\DispenserSink.c ****         psubscriber->_arrmsgid[index] = DISPENSER_ENUMERATE_VISIBLE_PUMPS;
 158              		.loc 1 81 0
 159 00b6 BB7A     		ldrb	r3, [r7, #10]	@ zero_extendqisi2
 160 00b8 FA68     		ldr	r2, [r7, #12]
 161 00ba 1344     		add	r3, r3, r2
 162 00bc 0D22     		movs	r2, #13
 163 00be 5A70     		strb	r2, [r3, #1]
  82:.\DispenserSink.c ****         psubscriber->Callback[index++] = DispenserEnumeratePumps;
 164              		.loc 1 82 0
 165 00c0 BB7A     		ldrb	r3, [r7, #10]	@ zero_extendqisi2
 166 00c2 5A1C     		adds	r2, r3, #1
 167 00c4 BA72     		strb	r2, [r7, #10]
 168 00c6 FA68     		ldr	r2, [r7, #12]
 169 00c8 0233     		adds	r3, r3, #2
 170 00ca 9B00     		lsls	r3, r3, #2
 171 00cc 1344     		add	r3, r3, r2
 172 00ce 6A4A     		ldr	r2, .L9+20
 173 00d0 5A60     		str	r2, [r3, #4]
  83:.\DispenserSink.c ****         
  84:.\DispenserSink.c ****         psubscriber->_arrmsgid[index] = DISPENSER_ACQUIRE_CONFIGURATION_INFORMATION;
 174              		.loc 1 84 0
 175 00d2 BB7A     		ldrb	r3, [r7, #10]	@ zero_extendqisi2
 176 00d4 FA68     		ldr	r2, [r7, #12]
 177 00d6 1344     		add	r3, r3, r2
 178 00d8 0E22     		movs	r2, #14
 179 00da 5A70     		strb	r2, [r3, #1]
  85:.\DispenserSink.c ****         psubscriber->Callback[index++] = DispenserAcquireConfiguration;
 180              		.loc 1 85 0
 181 00dc BB7A     		ldrb	r3, [r7, #10]	@ zero_extendqisi2
 182 00de 5A1C     		adds	r2, r3, #1
 183 00e0 BA72     		strb	r2, [r7, #10]
 184 00e2 FA68     		ldr	r2, [r7, #12]
 185 00e4 0233     		adds	r3, r3, #2
 186 00e6 9B00     		lsls	r3, r3, #2
 187 00e8 1344     		add	r3, r3, r2
 188 00ea 644A     		ldr	r2, .L9+24
 189 00ec 5A60     		str	r2, [r3, #4]
  86:.\DispenserSink.c ****         
  87:.\DispenserSink.c ****         psubscriber->_arrmsgid[index] = DISPENSER_CONFIGURE_PRICES;
 190              		.loc 1 87 0
 191 00ee BB7A     		ldrb	r3, [r7, #10]	@ zero_extendqisi2
 192 00f0 FA68     		ldr	r2, [r7, #12]
 193 00f2 1344     		add	r3, r3, r2
 194 00f4 0F22     		movs	r2, #15
 195 00f6 5A70     		strb	r2, [r3, #1]
  88:.\DispenserSink.c ****         psubscriber->Callback[index++] = DispenserConfigurePrices;
 196              		.loc 1 88 0
 197 00f8 BB7A     		ldrb	r3, [r7, #10]	@ zero_extendqisi2
ARM GAS  C:\Users\RECEPC~1\AppData\Local\Temp\ccUYVmA0.s 			page 6


 198 00fa 5A1C     		adds	r2, r3, #1
 199 00fc BA72     		strb	r2, [r7, #10]
 200 00fe FA68     		ldr	r2, [r7, #12]
 201 0100 0233     		adds	r3, r3, #2
 202 0102 9B00     		lsls	r3, r3, #2
 203 0104 1344     		add	r3, r3, r2
 204 0106 5E4A     		ldr	r2, .L9+28
 205 0108 5A60     		str	r2, [r3, #4]
  89:.\DispenserSink.c ****         
  90:.\DispenserSink.c ****         psubscriber->_arrmsgid[index] = DISPENSER_CONFIGURE_SINGLE_PRICE;
 206              		.loc 1 90 0
 207 010a BB7A     		ldrb	r3, [r7, #10]	@ zero_extendqisi2
 208 010c FA68     		ldr	r2, [r7, #12]
 209 010e 1344     		add	r3, r3, r2
 210 0110 1122     		movs	r2, #17
 211 0112 5A70     		strb	r2, [r3, #1]
  91:.\DispenserSink.c ****         psubscriber->Callback[index++] = DispenserConfigureSinglePrice;
 212              		.loc 1 91 0
 213 0114 BB7A     		ldrb	r3, [r7, #10]	@ zero_extendqisi2
 214 0116 5A1C     		adds	r2, r3, #1
 215 0118 BA72     		strb	r2, [r7, #10]
 216 011a FA68     		ldr	r2, [r7, #12]
 217 011c 0233     		adds	r3, r3, #2
 218 011e 9B00     		lsls	r3, r3, #2
 219 0120 1344     		add	r3, r3, r2
 220 0122 584A     		ldr	r2, .L9+32
 221 0124 5A60     		str	r2, [r3, #4]
  92:.\DispenserSink.c ****         
  93:.\DispenserSink.c ****         psubscriber->_arrmsgid[index] = DISPENSER_ACQUIRE_TOTALS;
 222              		.loc 1 93 0
 223 0126 BB7A     		ldrb	r3, [r7, #10]	@ zero_extendqisi2
 224 0128 FA68     		ldr	r2, [r7, #12]
 225 012a 1344     		add	r3, r3, r2
 226 012c 1222     		movs	r2, #18
 227 012e 5A70     		strb	r2, [r3, #1]
  94:.\DispenserSink.c ****         psubscriber->Callback[index++] = DispenserAcquireTotals;
 228              		.loc 1 94 0
 229 0130 BB7A     		ldrb	r3, [r7, #10]	@ zero_extendqisi2
 230 0132 5A1C     		adds	r2, r3, #1
 231 0134 BA72     		strb	r2, [r7, #10]
 232 0136 FA68     		ldr	r2, [r7, #12]
 233 0138 0233     		adds	r3, r3, #2
 234 013a 9B00     		lsls	r3, r3, #2
 235 013c 1344     		add	r3, r3, r2
 236 013e 524A     		ldr	r2, .L9+36
 237 0140 5A60     		str	r2, [r3, #4]
  95:.\DispenserSink.c **** 
  96:.\DispenserSink.c ****         psubscriber->_arrmsgid[index] = DISPENSER_RESTORE_PRICES;
 238              		.loc 1 96 0
 239 0142 BB7A     		ldrb	r3, [r7, #10]	@ zero_extendqisi2
 240 0144 FA68     		ldr	r2, [r7, #12]
 241 0146 1344     		add	r3, r3, r2
 242 0148 1022     		movs	r2, #16
 243 014a 5A70     		strb	r2, [r3, #1]
  97:.\DispenserSink.c ****         psubscriber->Callback[index++] = DispenserRestorePrices;
 244              		.loc 1 97 0
 245 014c BB7A     		ldrb	r3, [r7, #10]	@ zero_extendqisi2
ARM GAS  C:\Users\RECEPC~1\AppData\Local\Temp\ccUYVmA0.s 			page 7


 246 014e 5A1C     		adds	r2, r3, #1
 247 0150 BA72     		strb	r2, [r7, #10]
 248 0152 FA68     		ldr	r2, [r7, #12]
 249 0154 0233     		adds	r3, r3, #2
 250 0156 9B00     		lsls	r3, r3, #2
 251 0158 1344     		add	r3, r3, r2
 252 015a 4C4A     		ldr	r2, .L9+40
 253 015c 5A60     		str	r2, [r3, #4]
  98:.\DispenserSink.c ****         
  99:.\DispenserSink.c ****         psubscriber->_arrmsgid[index] = DISPENSER_PUMP_HANDLER;
 254              		.loc 1 99 0
 255 015e BB7A     		ldrb	r3, [r7, #10]	@ zero_extendqisi2
 256 0160 FA68     		ldr	r2, [r7, #12]
 257 0162 1344     		add	r3, r3, r2
 258 0164 1322     		movs	r2, #19
 259 0166 5A70     		strb	r2, [r3, #1]
 100:.\DispenserSink.c ****         psubscriber->Callback[index++] = DispenserHandler;
 260              		.loc 1 100 0
 261 0168 BB7A     		ldrb	r3, [r7, #10]	@ zero_extendqisi2
 262 016a 5A1C     		adds	r2, r3, #1
 263 016c BA72     		strb	r2, [r7, #10]
 264 016e FA68     		ldr	r2, [r7, #12]
 265 0170 0233     		adds	r3, r3, #2
 266 0172 9B00     		lsls	r3, r3, #2
 267 0174 1344     		add	r3, r3, r2
 268 0176 464A     		ldr	r2, .L9+44
 269 0178 5A60     		str	r2, [r3, #4]
 270              	.L3:
 271              	.LBE3:
 101:.\DispenserSink.c ****     }    
 102:.\DispenserSink.c ****     //This perpetual call is in charge of updating the global pump state array
 103:.\DispenserSink.c ****     //so the different modules could inquiry on those states
 104:.\DispenserSink.c ****     //This one-shot call is in charge of loading the current dispenser configuration regarding
 105:.\DispenserSink.c ****     //money, volume and ppu decimal formats, pump layout, pump model, display type, volume unit etc
 106:.\DispenserSink.c **** 
 107:.\DispenserSink.c ****     #ifdef FAST_STARTUP
 108:.\DispenserSink.c ****     _ALLOCATE_SINKMESSAGE_SLOT(psinkmsg);
 272              		.loc 1 108 0
 273 017a FFF7FEFF 		bl	AllocateMessageSlot
 274 017e 7860     		str	r0, [r7, #4]
 109:.\DispenserSink.c ****     if(psinkmsg)
 275              		.loc 1 109 0
 276 0180 7B68     		ldr	r3, [r7, #4]
 277 0182 002B     		cmp	r3, #0
 278 0184 0CD0     		beq	.L4
 110:.\DispenserSink.c ****     {
 111:.\DispenserSink.c ****         psinkmsg->_messageid = DISPENSER_ENUMERATE_VISIBLE_PUMPS;
 279              		.loc 1 111 0
 280 0186 7B68     		ldr	r3, [r7, #4]
 281 0188 0D22     		movs	r2, #13
 282 018a 5A70     		strb	r2, [r3, #1]
 112:.\DispenserSink.c ****         psinkmsg->_messagedelay = _SINK_TIMEOUT_10S_;
 283              		.loc 1 112 0
 284 018c 7B68     		ldr	r3, [r7, #4]
 285 018e 42F21072 		movw	r2, #10000
 286 0192 9A80     		strh	r2, [r3, #4]	@ movhi
 113:.\DispenserSink.c ****         psinkmsg->_messagetype = DELAYEDALLINTERESTED;
ARM GAS  C:\Users\RECEPC~1\AppData\Local\Temp\ccUYVmA0.s 			page 8


 287              		.loc 1 113 0
 288 0194 7B68     		ldr	r3, [r7, #4]
 289 0196 0522     		movs	r2, #5
 290 0198 9A70     		strb	r2, [r3, #2]
 114:.\DispenserSink.c ****         psinkmsg->_messagestate = SINK_BUSY;
 291              		.loc 1 114 0
 292 019a 7B68     		ldr	r3, [r7, #4]
 293 019c 0322     		movs	r2, #3
 294 019e DA70     		strb	r2, [r3, #3]
 295              	.L4:
 115:.\DispenserSink.c ****     }    
 116:.\DispenserSink.c ****     _REALLOCATE_SINKMESSAGE_SLOT(psinkmsg);
 296              		.loc 1 116 0
 297 01a0 FFF7FEFF 		bl	AllocateMessageSlot
 298 01a4 7860     		str	r0, [r7, #4]
 117:.\DispenserSink.c ****     if(psinkmsg)
 299              		.loc 1 117 0
 300 01a6 7B68     		ldr	r3, [r7, #4]
 301 01a8 002B     		cmp	r3, #0
 302 01aa 0CD0     		beq	.L5
 118:.\DispenserSink.c ****     {
 119:.\DispenserSink.c ****         psinkmsg->_messageid = DISPENSER_ACQUIRE_CONFIGURATION_INFORMATION;
 303              		.loc 1 119 0
 304 01ac 7B68     		ldr	r3, [r7, #4]
 305 01ae 0E22     		movs	r2, #14
 306 01b0 5A70     		strb	r2, [r3, #1]
 120:.\DispenserSink.c ****         psinkmsg->_messagedelay = _SINK_TIMEOUT_15S_;
 307              		.loc 1 120 0
 308 01b2 7B68     		ldr	r3, [r7, #4]
 309 01b4 43F69822 		movw	r2, #15000
 310 01b8 9A80     		strh	r2, [r3, #4]	@ movhi
 121:.\DispenserSink.c ****         psinkmsg->_messagetype = DELAYEDALLINTERESTED;
 311              		.loc 1 121 0
 312 01ba 7B68     		ldr	r3, [r7, #4]
 313 01bc 0522     		movs	r2, #5
 314 01be 9A70     		strb	r2, [r3, #2]
 122:.\DispenserSink.c ****         psinkmsg->_messagestate = SINK_BUSY;
 315              		.loc 1 122 0
 316 01c0 7B68     		ldr	r3, [r7, #4]
 317 01c2 0322     		movs	r2, #3
 318 01c4 DA70     		strb	r2, [r3, #3]
 319              	.L5:
 123:.\DispenserSink.c ****     }
 124:.\DispenserSink.c ****     _REALLOCATE_SINKMESSAGE_SLOT(psinkmsg);
 320              		.loc 1 124 0
 321 01c6 FFF7FEFF 		bl	AllocateMessageSlot
 322 01ca 7860     		str	r0, [r7, #4]
 125:.\DispenserSink.c ****     if(psinkmsg)
 323              		.loc 1 125 0
 324 01cc 7B68     		ldr	r3, [r7, #4]
 325 01ce 002B     		cmp	r3, #0
 326 01d0 0CD0     		beq	.L6
 126:.\DispenserSink.c ****     {
 127:.\DispenserSink.c ****         psinkmsg->_messageid = WATCHDOG_STARTUP;
 327              		.loc 1 127 0
 328 01d2 7B68     		ldr	r3, [r7, #4]
 329 01d4 2722     		movs	r2, #39
ARM GAS  C:\Users\RECEPC~1\AppData\Local\Temp\ccUYVmA0.s 			page 9


 330 01d6 5A70     		strb	r2, [r3, #1]
 128:.\DispenserSink.c ****         psinkmsg->_messagedelay = _SINK_TIMEOUT_20S_;
 331              		.loc 1 128 0
 332 01d8 7B68     		ldr	r3, [r7, #4]
 333 01da 44F62062 		movw	r2, #20000
 334 01de 9A80     		strh	r2, [r3, #4]	@ movhi
 129:.\DispenserSink.c ****         psinkmsg->_messagetype = DELAYEDALLINTERESTED;
 335              		.loc 1 129 0
 336 01e0 7B68     		ldr	r3, [r7, #4]
 337 01e2 0522     		movs	r2, #5
 338 01e4 9A70     		strb	r2, [r3, #2]
 130:.\DispenserSink.c ****         psinkmsg->_messagestate = SINK_BUSY;
 339              		.loc 1 130 0
 340 01e6 7B68     		ldr	r3, [r7, #4]
 341 01e8 0322     		movs	r2, #3
 342 01ea DA70     		strb	r2, [r3, #3]
 343              	.L6:
 131:.\DispenserSink.c ****     }
 132:.\DispenserSink.c ****     _REALLOCATE_SINKMESSAGE_SLOT(psinkmsg);
 344              		.loc 1 132 0
 345 01ec FFF7FEFF 		bl	AllocateMessageSlot
 346 01f0 7860     		str	r0, [r7, #4]
 133:.\DispenserSink.c ****     if(psinkmsg)
 347              		.loc 1 133 0
 348 01f2 7B68     		ldr	r3, [r7, #4]
 349 01f4 002B     		cmp	r3, #0
 350 01f6 10D0     		beq	.L7
 134:.\DispenserSink.c ****     {
 135:.\DispenserSink.c ****         psinkmsg->_messageid = DISPENSER_ACQUIRE_PUMP_STATE;
 351              		.loc 1 135 0
 352 01f8 7B68     		ldr	r3, [r7, #4]
 353 01fa 0A22     		movs	r2, #10
 354 01fc 5A70     		strb	r2, [r3, #1]
 136:.\DispenserSink.c ****         psinkmsg->_messagedelay = _SINK_TIMEOUT_20S_;
 355              		.loc 1 136 0
 356 01fe 7B68     		ldr	r3, [r7, #4]
 357 0200 44F62062 		movw	r2, #20000
 358 0204 9A80     		strh	r2, [r3, #4]	@ movhi
 137:.\DispenserSink.c ****         #ifndef ADVANTAGE_PROTOCOL
 138:.\DispenserSink.c ****         psinkmsg->_messagetimeoutlimit = _SINK_TIMEOUT_250MS_;
 139:.\DispenserSink.c ****         #endif
 140:.\DispenserSink.c ****         #ifdef ADVANTAGE_PROTOCOL
 141:.\DispenserSink.c ****         psinkmsg->_messagetimeoutlimit = _SINK_TIMEOUT_500MS_;
 359              		.loc 1 141 0
 360 0206 7B68     		ldr	r3, [r7, #4]
 361 0208 4FF4FA72 		mov	r2, #500
 362 020c 5A81     		strh	r2, [r3, #10]	@ movhi
 142:.\DispenserSink.c ****         #endif
 143:.\DispenserSink.c ****         psinkmsg->_messagetype = FIRSTFOUNDFOREVER;
 363              		.loc 1 143 0
 364 020e 7B68     		ldr	r3, [r7, #4]
 365 0210 0622     		movs	r2, #6
 366 0212 9A70     		strb	r2, [r3, #2]
 144:.\DispenserSink.c ****         psinkmsg->_messagestate = SINK_BUSY;
 367              		.loc 1 144 0
 368 0214 7B68     		ldr	r3, [r7, #4]
 369 0216 0322     		movs	r2, #3
ARM GAS  C:\Users\RECEPC~1\AppData\Local\Temp\ccUYVmA0.s 			page 10


 370 0218 DA70     		strb	r2, [r3, #3]
 371              	.L7:
 145:.\DispenserSink.c ****     }
 146:.\DispenserSink.c ****     #endif
 147:.\DispenserSink.c ****     #ifdef SLOW_STARTUP
 148:.\DispenserSink.c ****     _ALLOCATE_SINKMESSAGE_SLOT(psinkmsg);
 149:.\DispenserSink.c ****     if(psinkmsg)
 150:.\DispenserSink.c ****     {
 151:.\DispenserSink.c ****         psinkmsg->_messageid = DISPENSER_ENUMERATE_VISIBLE_PUMPS;
 152:.\DispenserSink.c ****         psinkmsg->_messagedelay = _SINK_TIMEOUT_40S_;
 153:.\DispenserSink.c ****         psinkmsg->_messagetype = DELAYEDALLINTERESTED;
 154:.\DispenserSink.c ****         psinkmsg->_messagestate = SINK_BUSY;
 155:.\DispenserSink.c ****     }
 156:.\DispenserSink.c ****     
 157:.\DispenserSink.c ****     _REALLOCATE_SINKMESSAGE_SLOT(psinkmsg);
 158:.\DispenserSink.c ****     if(psinkmsg)
 159:.\DispenserSink.c ****     {
 160:.\DispenserSink.c ****         psinkmsg->_messageid = DISPENSER_ACQUIRE_CONFIGURATION_INFORMATION;
 161:.\DispenserSink.c ****         psinkmsg->_messagedelay = _SINK_TIMEOUT_45S_;
 162:.\DispenserSink.c ****         psinkmsg->_messagetype = DELAYEDALLINTERESTED;
 163:.\DispenserSink.c ****         psinkmsg->_messagestate = SINK_BUSY;
 164:.\DispenserSink.c ****     }
 165:.\DispenserSink.c ****     _REALLOCATE_SINKMESSAGE_SLOT(psinkmsg);
 166:.\DispenserSink.c ****     if(psinkmsg)
 167:.\DispenserSink.c ****     {
 168:.\DispenserSink.c ****         psinkmsg->_messageid = WATCHDOG_STARTUP;
 169:.\DispenserSink.c ****         psinkmsg->_messagedelay = _SINK_TIMEOUT_50S_;
 170:.\DispenserSink.c ****         psinkmsg->_messagetype = DELAYEDALLINTERESTED;
 171:.\DispenserSink.c ****         psinkmsg->_messagestate = SINK_BUSY;
 172:.\DispenserSink.c ****     }
 173:.\DispenserSink.c ****     _REALLOCATE_SINKMESSAGE_SLOT(psinkmsg);
 174:.\DispenserSink.c ****     if(psinkmsg)
 175:.\DispenserSink.c ****     {
 176:.\DispenserSink.c ****         psinkmsg->_messageid = DISPENSER_ACQUIRE_PUMP_STATE;
 177:.\DispenserSink.c ****         psinkmsg->_messagedelay = _SINK_TIMEOUT_50S_;
 178:.\DispenserSink.c ****         psinkmsg->_messagetimeoutlimit = _SINK_TIMEOUT_250MS_;
 179:.\DispenserSink.c ****         psinkmsg->_messagetype = FIRSTFOUNDFOREVER;
 180:.\DispenserSink.c ****         psinkmsg->_messagestate = SINK_BUSY;
 181:.\DispenserSink.c ****     }
 182:.\DispenserSink.c ****     #endif
 183:.\DispenserSink.c **** 
 184:.\DispenserSink.c ****     _REALLOCATE_SINKMESSAGE_SLOT(psinkmsg);
 372              		.loc 1 184 0
 373 021a FFF7FEFF 		bl	AllocateMessageSlot
 374 021e 7860     		str	r0, [r7, #4]
 185:.\DispenserSink.c ****     if(psinkmsg)
 375              		.loc 1 185 0
 376 0220 7B68     		ldr	r3, [r7, #4]
 377 0222 002B     		cmp	r3, #0
 378 0224 0ED0     		beq	.L8
 186:.\DispenserSink.c ****     {
 187:.\DispenserSink.c ****         psinkmsg->_messageid = DISPENSER_PUMP_HANDLER;
 379              		.loc 1 187 0
 380 0226 7B68     		ldr	r3, [r7, #4]
 381 0228 1322     		movs	r2, #19
 382 022a 5A70     		strb	r2, [r3, #1]
 188:.\DispenserSink.c ****         psinkmsg->_messagedelay = 0x0000;
ARM GAS  C:\Users\RECEPC~1\AppData\Local\Temp\ccUYVmA0.s 			page 11


 383              		.loc 1 188 0
 384 022c 7B68     		ldr	r3, [r7, #4]
 385 022e 0022     		movs	r2, #0
 386 0230 9A80     		strh	r2, [r3, #4]	@ movhi
 189:.\DispenserSink.c ****         #ifndef ADVANTAGE_PROTOCOL
 190:.\DispenserSink.c ****         psinkmsg->_messagetimeoutlimit = _SINK_TIMEOUT_20MS_;
 191:.\DispenserSink.c ****         #endif
 192:.\DispenserSink.c ****         #ifdef ADVANTAGE_PROTOCOL
 193:.\DispenserSink.c ****         psinkmsg->_messagetimeoutlimit = _SINK_TIMEOUT_30MS_;
 387              		.loc 1 193 0
 388 0232 7B68     		ldr	r3, [r7, #4]
 389 0234 1E22     		movs	r2, #30
 390 0236 5A81     		strh	r2, [r3, #10]	@ movhi
 194:.\DispenserSink.c ****         #endif
 195:.\DispenserSink.c ****         psinkmsg->_messagetype = FIRSTFOUNDFOREVER;
 391              		.loc 1 195 0
 392 0238 7B68     		ldr	r3, [r7, #4]
 393 023a 0622     		movs	r2, #6
 394 023c 9A70     		strb	r2, [r3, #2]
 196:.\DispenserSink.c ****         psinkmsg->_messagestate = SINK_BUSY;
 395              		.loc 1 196 0
 396 023e 7B68     		ldr	r3, [r7, #4]
 397 0240 0322     		movs	r2, #3
 398 0242 DA70     		strb	r2, [r3, #3]
 399              	.L8:
 197:.\DispenserSink.c ****     }
 198:.\DispenserSink.c ****             
 199:.\DispenserSink.c ****     _g_dispenserupdatetimeout = Timer_DispenserState_ReadCounter();
 400              		.loc 1 199 0
 401 0244 FFF7FEFF 		bl	Timer_DispenserState_ReadCounter
 402 0248 0346     		mov	r3, r0
 403 024a 1A46     		mov	r2, r3
 404 024c 114B     		ldr	r3, .L9+48
 405 024e 1A80     		strh	r2, [r3]	@ movhi
 200:.\DispenserSink.c ****     
 201:.\DispenserSink.c ****     GLOBAL_LOOP_PUSH(DispenserTimeoutHandler);
 406              		.loc 1 201 0
 407 0250 1148     		ldr	r0, .L9+52
 408 0252 FFF7FEFF 		bl	loop_push
 202:.\DispenserSink.c ****     GLOBAL_LOOP_PUSH(DispenserDataReceptionHandler);
 409              		.loc 1 202 0
 410 0256 1148     		ldr	r0, .L9+56
 411 0258 FFF7FEFF 		bl	loop_push
 203:.\DispenserSink.c **** }
 412              		.loc 1 203 0
 413 025c 1037     		adds	r7, r7, #16
 414              		.cfi_def_cfa_offset 8
 415 025e BD46     		mov	sp, r7
 416              		.cfi_def_cfa_register 13
 417              		@ sp needed
 418 0260 80BD     		pop	{r7, pc}
 419              	.L10:
 420 0262 00BF     		.align	2
 421              	.L9:
 422 0264 00000000 		.word	DispenserSide1Listener
 423 0268 00000000 		.word	DispenserSide2Listener
 424 026c 00000000 		.word	DispenserUpdateTimeouts
ARM GAS  C:\Users\RECEPC~1\AppData\Local\Temp\ccUYVmA0.s 			page 12


 425 0270 00000000 		.word	DispenserUpdatePumpState
 426 0274 00000000 		.word	DispenserLoadEEPROMSettings
 427 0278 00000000 		.word	DispenserEnumeratePumps
 428 027c 00000000 		.word	DispenserAcquireConfiguration
 429 0280 00000000 		.word	DispenserConfigurePrices
 430 0284 00000000 		.word	DispenserConfigureSinglePrice
 431 0288 00000000 		.word	DispenserAcquireTotals
 432 028c 00000000 		.word	DispenserRestorePrices
 433 0290 00000000 		.word	DispenserHandler
 434 0294 00000000 		.word	_g_dispenserupdatetimeout
 435 0298 00000000 		.word	DispenserTimeoutHandler
 436 029c 00000000 		.word	DispenserDataReceptionHandler
 437              		.cfi_endproc
 438              	.LFE63:
 439              		.size	DispenserSinkRegistration, .-DispenserSinkRegistration
 440              		.section	.text.DispenserHandler,"ax",%progbits
 441              		.align	2
 442              		.global	DispenserHandler
 443              		.thumb
 444              		.thumb_func
 445              		.type	DispenserHandler, %function
 446              	DispenserHandler:
 447              	.LFB64:
 204:.\DispenserSink.c **** 
 205:.\DispenserSink.c **** //@Create by: HIJH
 206:.\DispenserSink.c **** //@Date: Septembre de 2016
 207:.\DispenserSink.c **** //This handler checks the transactional queue for pending job requests to execute.
 208:.\DispenserSink.c **** //Once a job is executed, the response is awaited (if required) and monitored for 
 209:.\DispenserSink.c **** //timeouts and retries. It also validates a set of pre-conditions before
 210:.\DispenserSink.c **** //executing the job.
 211:.\DispenserSink.c **** void DispenserHandler()
 212:.\DispenserSink.c **** {
 448              		.loc 1 212 0
 449              		.cfi_startproc
 450              		@ args = 0, pretend = 0, frame = 8
 451              		@ frame_needed = 1, uses_anonymous_args = 0
 452 0000 80B5     		push	{r7, lr}
 453              		.cfi_def_cfa_offset 8
 454              		.cfi_offset 7, -8
 455              		.cfi_offset 14, -4
 456 0002 82B0     		sub	sp, sp, #8
 457              		.cfi_def_cfa_offset 16
 458 0004 00AF     		add	r7, sp, #0
 459              		.cfi_def_cfa_register 7
 213:.\DispenserSink.c ****     PPUMPTRANSACTIONJOBCONTEXTPTR pjob = _g_pumpjobqueue.Peek(&_g_pumpjobqueue);
 460              		.loc 1 213 0
 461 0006 8F4B     		ldr	r3, .L33
 462 0008 D3F85038 		ldr	r3, [r3, #2128]
 463 000c 8D48     		ldr	r0, .L33
 464 000e 9847     		blx	r3
 465 0010 7860     		str	r0, [r7, #4]
 214:.\DispenserSink.c ****     if(pjob && pjob->_prequest)
 466              		.loc 1 214 0
 467 0012 7B68     		ldr	r3, [r7, #4]
 468 0014 002B     		cmp	r3, #0
 469 0016 00F01181 		beq	.L11
 470              		.loc 1 214 0 is_stmt 0 discriminator 1
ARM GAS  C:\Users\RECEPC~1\AppData\Local\Temp\ccUYVmA0.s 			page 13


 471 001a 7B68     		ldr	r3, [r7, #4]
 472 001c 5B69     		ldr	r3, [r3, #20]
 473 001e 002B     		cmp	r3, #0
 474 0020 00F00C81 		beq	.L11
 475              	.LBB4:
 215:.\DispenserSink.c ****     {
 216:.\DispenserSink.c ****         bool oneshot = false;
 476              		.loc 1 216 0 is_stmt 1
 477 0024 0023     		movs	r3, #0
 478 0026 FB70     		strb	r3, [r7, #3]
 217:.\DispenserSink.c ****         bool preconditions = false;
 479              		.loc 1 217 0
 480 0028 0023     		movs	r3, #0
 481 002a BB70     		strb	r3, [r7, #2]
 218:.\DispenserSink.c ****         bool precondexecuted = false;
 482              		.loc 1 218 0
 483 002c 0023     		movs	r3, #0
 484 002e 7B70     		strb	r3, [r7, #1]
 219:.\DispenserSink.c ****         
 220:.\DispenserSink.c ****         _g_respctxt._bufferready = false;
 485              		.loc 1 220 0
 486 0030 854B     		ldr	r3, .L33+4
 487 0032 0022     		movs	r2, #0
 488 0034 1A71     		strb	r2, [r3, #4]
 221:.\DispenserSink.c ****         _g_respctxt._responsesize = 0x00;
 489              		.loc 1 221 0
 490 0036 844B     		ldr	r3, .L33+4
 491 0038 0022     		movs	r2, #0
 492 003a DA80     		strh	r2, [r3, #6]	@ movhi
 222:.\DispenserSink.c ****         memset(_g_respctxt._rxbuffer, 0x00, 512);
 493              		.loc 1 222 0
 494 003c 8348     		ldr	r0, .L33+8
 495 003e 0021     		movs	r1, #0
 496 0040 4FF40072 		mov	r2, #512
 497 0044 FFF7FEFF 		bl	memset
 223:.\DispenserSink.c ****         memset(pjob->_ppump->_rxbuffer, 0x00, _PUMP_RX_BUFFER_SIZE_);
 498              		.loc 1 223 0
 499 0048 7B68     		ldr	r3, [r7, #4]
 500 004a DB69     		ldr	r3, [r3, #28]
 501 004c 03F5D073 		add	r3, r3, #416
 502 0050 1846     		mov	r0, r3
 503 0052 0021     		movs	r1, #0
 504 0054 4FF4C072 		mov	r2, #384
 505 0058 FFF7FEFF 		bl	memset
 224:.\DispenserSink.c ****         
 225:.\DispenserSink.c ****         FOR(uint8 index = 0, index < _MAX_CONDITION_CODES_, index++)
 506              		.loc 1 225 0
 507 005c 0023     		movs	r3, #0
 508 005e 3B70     		strb	r3, [r7]
 509 0060 79E0     		b	.L13
 510              	.L24:
 226:.\DispenserSink.c ****         {
 227:.\DispenserSink.c ****             if(pjob->_prequest->_preconditions[index] != 0xFF)
 511              		.loc 1 227 0
 512 0062 7B68     		ldr	r3, [r7, #4]
 513 0064 5A69     		ldr	r2, [r3, #20]
 514 0066 3B78     		ldrb	r3, [r7]	@ zero_extendqisi2
ARM GAS  C:\Users\RECEPC~1\AppData\Local\Temp\ccUYVmA0.s 			page 14


 515 0068 1344     		add	r3, r3, r2
 516 006a 9B7F     		ldrb	r3, [r3, #30]	@ zero_extendqisi2
 517 006c FF2B     		cmp	r3, #255
 518 006e 6ED0     		beq	.L14
 228:.\DispenserSink.c ****             {
 229:.\DispenserSink.c ****                 //If the precondition is marked as "One Shot", it will be evaluated only once
 230:.\DispenserSink.c ****                 preconditions = true;
 519              		.loc 1 230 0
 520 0070 0123     		movs	r3, #1
 521 0072 BB70     		strb	r3, [r7, #2]
 231:.\DispenserSink.c ****                 if(!oneshot)
 522              		.loc 1 231 0
 523 0074 FB78     		ldrb	r3, [r7, #3]
 524 0076 83F00103 		eor	r3, r3, #1
 525 007a DBB2     		uxtb	r3, r3
 526 007c 002B     		cmp	r3, #0
 527 007e 05D0     		beq	.L15
 232:.\DispenserSink.c ****                     oneshot = pjob->_prequest->_oneshotpreconditions[index];
 528              		.loc 1 232 0
 529 0080 7B68     		ldr	r3, [r7, #4]
 530 0082 5A69     		ldr	r2, [r3, #20]
 531 0084 3B78     		ldrb	r3, [r7]	@ zero_extendqisi2
 532 0086 1344     		add	r3, r3, r2
 533 0088 9B7E     		ldrb	r3, [r3, #26]
 534 008a FB70     		strb	r3, [r7, #3]
 535              	.L15:
 233:.\DispenserSink.c ****                     
 234:.\DispenserSink.c ****                 //If the condition is met then execute the Request
 235:.\DispenserSink.c ****                 if(pjob->_ppump->_pumpstate == pjob->_prequest->_preconditions[index])             
 536              		.loc 1 235 0
 537 008c 7B68     		ldr	r3, [r7, #4]
 538 008e DB69     		ldr	r3, [r3, #28]
 539 0090 9B78     		ldrb	r3, [r3, #2]
 540 0092 DAB2     		uxtb	r2, r3
 541 0094 7B68     		ldr	r3, [r7, #4]
 542 0096 5969     		ldr	r1, [r3, #20]
 543 0098 3B78     		ldrb	r3, [r7]	@ zero_extendqisi2
 544 009a 0B44     		add	r3, r3, r1
 545 009c 9B7F     		ldrb	r3, [r3, #30]	@ zero_extendqisi2
 546 009e 9A42     		cmp	r2, r3
 547 00a0 56D1     		bne	.L16
 236:.\DispenserSink.c ****                 {
 237:.\DispenserSink.c ****                     if(pjob->_prequest->Initialization)
 548              		.loc 1 237 0
 549 00a2 7B68     		ldr	r3, [r7, #4]
 550 00a4 5B69     		ldr	r3, [r3, #20]
 551 00a6 DB6A     		ldr	r3, [r3, #44]
 552 00a8 002B     		cmp	r3, #0
 553 00aa 06D0     		beq	.L17
 238:.\DispenserSink.c ****                         pjob->_prequest->Initialization(pjob->_ppump);                    
 554              		.loc 1 238 0
 555 00ac 7B68     		ldr	r3, [r7, #4]
 556 00ae 5B69     		ldr	r3, [r3, #20]
 557 00b0 DB6A     		ldr	r3, [r3, #44]
 558 00b2 7A68     		ldr	r2, [r7, #4]
 559 00b4 D269     		ldr	r2, [r2, #28]
 560 00b6 1046     		mov	r0, r2
ARM GAS  C:\Users\RECEPC~1\AppData\Local\Temp\ccUYVmA0.s 			page 15


 561 00b8 9847     		blx	r3
 562              	.L17:
 239:.\DispenserSink.c ****                     
 240:.\DispenserSink.c ****                     if(pjob->_prequest->Response)
 563              		.loc 1 240 0
 564 00ba 7B68     		ldr	r3, [r7, #4]
 565 00bc 5B69     		ldr	r3, [r3, #20]
 566 00be 5B68     		ldr	r3, [r3, #4]
 567 00c0 002B     		cmp	r3, #0
 568 00c2 29D0     		beq	.L18
 241:.\DispenserSink.c ****                     {
 242:.\DispenserSink.c ****                         _g_respctxt._pparam = pjob->_ppump;
 569              		.loc 1 242 0
 570 00c4 7B68     		ldr	r3, [r7, #4]
 571 00c6 DB69     		ldr	r3, [r3, #28]
 572 00c8 5F4A     		ldr	r2, .L33+4
 573 00ca 1360     		str	r3, [r2]
 243:.\DispenserSink.c ****                         ///////////////////////////////////////////////////////////////////
 244:.\DispenserSink.c ****                         //This variable holds the expected buffer size for the response
 245:.\DispenserSink.c ****                         if(pjob->_prequest->_responsesize > 0)
 574              		.loc 1 245 0
 575 00cc 7B68     		ldr	r3, [r7, #4]
 576 00ce 5B69     		ldr	r3, [r3, #20]
 577 00d0 1B7E     		ldrb	r3, [r3, #24]	@ zero_extendqisi2
 578 00d2 002B     		cmp	r3, #0
 579 00d4 06D0     		beq	.L19
 246:.\DispenserSink.c ****                             _g_respctxt._responsesize = pjob->_prequest->_responsesize;
 580              		.loc 1 246 0
 581 00d6 7B68     		ldr	r3, [r7, #4]
 582 00d8 5B69     		ldr	r3, [r3, #20]
 583 00da 1B7E     		ldrb	r3, [r3, #24]	@ zero_extendqisi2
 584 00dc 9AB2     		uxth	r2, r3
 585 00de 5A4B     		ldr	r3, .L33+4
 586 00e0 DA80     		strh	r2, [r3, #6]	@ movhi
 587 00e2 04E0     		b	.L20
 588              	.L19:
 247:.\DispenserSink.c ****                         else
 248:.\DispenserSink.c ****                             _g_respctxt.ResponseSizeResolver = pjob->_prequest->ResponseSizeResolve
 589              		.loc 1 248 0
 590 00e4 7B68     		ldr	r3, [r7, #4]
 591 00e6 5B69     		ldr	r3, [r3, #20]
 592 00e8 DB68     		ldr	r3, [r3, #12]
 593 00ea 574A     		ldr	r2, .L33+4
 594 00ec 9360     		str	r3, [r2, #8]
 595              	.L20:
 249:.\DispenserSink.c ****                         ///////////////////////////////////////////////////////////////////
 250:.\DispenserSink.c ****                         pjob->_prequest->Request(pjob->_ppump);
 596              		.loc 1 250 0
 597 00ee 7B68     		ldr	r3, [r7, #4]
 598 00f0 5B69     		ldr	r3, [r3, #20]
 599 00f2 1B68     		ldr	r3, [r3]
 600 00f4 7A68     		ldr	r2, [r7, #4]
 601 00f6 D269     		ldr	r2, [r2, #28]
 602 00f8 1046     		mov	r0, r2
 603 00fa 9847     		blx	r3
 251:.\DispenserSink.c ****                         pjob->_presponse = pjob->_prequest;
 604              		.loc 1 251 0
ARM GAS  C:\Users\RECEPC~1\AppData\Local\Temp\ccUYVmA0.s 			page 16


 605 00fc 7B68     		ldr	r3, [r7, #4]
 606 00fe 5A69     		ldr	r2, [r3, #20]
 607 0100 7B68     		ldr	r3, [r7, #4]
 608 0102 9A61     		str	r2, [r3, #24]
 252:.\DispenserSink.c ****                         pjob->_prequest = NULL;
 609              		.loc 1 252 0
 610 0104 7B68     		ldr	r3, [r7, #4]
 611 0106 0022     		movs	r2, #0
 612 0108 5A61     		str	r2, [r3, #20]
 253:.\DispenserSink.c ****                         
 254:.\DispenserSink.c ****                         //Initialize the reference tick if it has not yet been initialized
 255:.\DispenserSink.c ****                         pjob->_timeoutseed = Timer_DispenserState_ReadCounter();
 613              		.loc 1 255 0
 614 010a FFF7FEFF 		bl	Timer_DispenserState_ReadCounter
 615 010e 0346     		mov	r3, r0
 616 0110 1A46     		mov	r2, r3
 617 0112 7B68     		ldr	r3, [r7, #4]
 618 0114 1A82     		strh	r2, [r3, #16]	@ movhi
 619 0116 17E0     		b	.L21
 620              	.L18:
 256:.\DispenserSink.c ****                         
 257:.\DispenserSink.c ****                     }else{//Dequeue since no response is required for this request
 258:.\DispenserSink.c ****                         pjob->_prequest->Request(pjob->_ppump);
 621              		.loc 1 258 0
 622 0118 7B68     		ldr	r3, [r7, #4]
 623 011a 5B69     		ldr	r3, [r3, #20]
 624 011c 1B68     		ldr	r3, [r3]
 625 011e 7A68     		ldr	r2, [r7, #4]
 626 0120 D269     		ldr	r2, [r2, #28]
 627 0122 1046     		mov	r0, r2
 628 0124 9847     		blx	r3
 259:.\DispenserSink.c ****                         if(pjob->Callback)
 629              		.loc 1 259 0
 630 0126 7B68     		ldr	r3, [r7, #4]
 631 0128 1B6A     		ldr	r3, [r3, #32]
 632 012a 002B     		cmp	r3, #0
 633 012c 05D0     		beq	.L22
 260:.\DispenserSink.c ****                             pjob->Callback(pjob->_pdata);
 634              		.loc 1 260 0
 635 012e 7B68     		ldr	r3, [r7, #4]
 636 0130 1B6A     		ldr	r3, [r3, #32]
 637 0132 7A68     		ldr	r2, [r7, #4]
 638 0134 526A     		ldr	r2, [r2, #36]
 639 0136 1046     		mov	r0, r2
 640 0138 9847     		blx	r3
 641              	.L22:
 261:.\DispenserSink.c ****                         
 262:.\DispenserSink.c ****                         _g_pumpjobqueue.Dequeue(&_g_pumpjobqueue);
 642              		.loc 1 262 0
 643 013a 424B     		ldr	r3, .L33
 644 013c D3F85438 		ldr	r3, [r3, #2132]
 645 0140 4048     		ldr	r0, .L33
 646 0142 9847     		blx	r3
 263:.\DispenserSink.c ****                         pjob = NULL;
 647              		.loc 1 263 0
 648 0144 0023     		movs	r3, #0
 649 0146 7B60     		str	r3, [r7, #4]
ARM GAS  C:\Users\RECEPC~1\AppData\Local\Temp\ccUYVmA0.s 			page 17


 650              	.L21:
 264:.\DispenserSink.c ****                     }
 265:.\DispenserSink.c ****                     precondexecuted = true;
 651              		.loc 1 265 0
 652 0148 0123     		movs	r3, #1
 653 014a 7B70     		strb	r3, [r7, #1]
 266:.\DispenserSink.c ****                     break;
 654              		.loc 1 266 0
 655 014c 06E0     		b	.L23
 656              	.L14:
 267:.\DispenserSink.c ****                 }
 268:.\DispenserSink.c ****             }else
 269:.\DispenserSink.c ****                 break;
 657              		.loc 1 269 0
 658 014e 05E0     		b	.L23
 659              	.L16:
 225:.\DispenserSink.c ****         {
 660              		.loc 1 225 0 discriminator 2
 661 0150 3B78     		ldrb	r3, [r7]	@ zero_extendqisi2
 662 0152 0133     		adds	r3, r3, #1
 663 0154 3B70     		strb	r3, [r7]
 664              	.L13:
 225:.\DispenserSink.c ****         {
 665              		.loc 1 225 0 is_stmt 0 discriminator 1
 666 0156 3B78     		ldrb	r3, [r7]	@ zero_extendqisi2
 667 0158 032B     		cmp	r3, #3
 668 015a 82D9     		bls	.L24
 669              	.L23:
 270:.\DispenserSink.c ****         }
 271:.\DispenserSink.c ****         if(!preconditions)
 670              		.loc 1 271 0 is_stmt 1
 671 015c BB78     		ldrb	r3, [r7, #2]
 672 015e 83F00103 		eor	r3, r3, #1
 673 0162 DBB2     		uxtb	r3, r3
 674 0164 002B     		cmp	r3, #0
 675 0166 53D0     		beq	.L25
 272:.\DispenserSink.c ****         {
 273:.\DispenserSink.c ****             if(pjob->_prequest->Initialization)
 676              		.loc 1 273 0
 677 0168 7B68     		ldr	r3, [r7, #4]
 678 016a 5B69     		ldr	r3, [r3, #20]
 679 016c DB6A     		ldr	r3, [r3, #44]
 680 016e 002B     		cmp	r3, #0
 681 0170 06D0     		beq	.L26
 274:.\DispenserSink.c ****                 pjob->_prequest->Initialization(pjob->_ppump);                    
 682              		.loc 1 274 0
 683 0172 7B68     		ldr	r3, [r7, #4]
 684 0174 5B69     		ldr	r3, [r3, #20]
 685 0176 DB6A     		ldr	r3, [r3, #44]
 686 0178 7A68     		ldr	r2, [r7, #4]
 687 017a D269     		ldr	r2, [r2, #28]
 688 017c 1046     		mov	r0, r2
 689 017e 9847     		blx	r3
 690              	.L26:
 275:.\DispenserSink.c ****             
 276:.\DispenserSink.c ****             if(pjob->_prequest->Response)
 691              		.loc 1 276 0
ARM GAS  C:\Users\RECEPC~1\AppData\Local\Temp\ccUYVmA0.s 			page 18


 692 0180 7B68     		ldr	r3, [r7, #4]
 693 0182 5B69     		ldr	r3, [r3, #20]
 694 0184 5B68     		ldr	r3, [r3, #4]
 695 0186 002B     		cmp	r3, #0
 696 0188 29D0     		beq	.L27
 277:.\DispenserSink.c ****             {
 278:.\DispenserSink.c ****                 _g_respctxt._pparam = pjob->_ppump;
 697              		.loc 1 278 0
 698 018a 7B68     		ldr	r3, [r7, #4]
 699 018c DB69     		ldr	r3, [r3, #28]
 700 018e 2E4A     		ldr	r2, .L33+4
 701 0190 1360     		str	r3, [r2]
 279:.\DispenserSink.c ****                 ///////////////////////////////////////////////////////////////////
 280:.\DispenserSink.c ****                 //This variable holds the expected buffer size for the response
 281:.\DispenserSink.c ****                 if(pjob->_prequest->_responsesize > 0)
 702              		.loc 1 281 0
 703 0192 7B68     		ldr	r3, [r7, #4]
 704 0194 5B69     		ldr	r3, [r3, #20]
 705 0196 1B7E     		ldrb	r3, [r3, #24]	@ zero_extendqisi2
 706 0198 002B     		cmp	r3, #0
 707 019a 06D0     		beq	.L28
 282:.\DispenserSink.c ****                     _g_respctxt._responsesize = pjob->_prequest->_responsesize;
 708              		.loc 1 282 0
 709 019c 7B68     		ldr	r3, [r7, #4]
 710 019e 5B69     		ldr	r3, [r3, #20]
 711 01a0 1B7E     		ldrb	r3, [r3, #24]	@ zero_extendqisi2
 712 01a2 9AB2     		uxth	r2, r3
 713 01a4 284B     		ldr	r3, .L33+4
 714 01a6 DA80     		strh	r2, [r3, #6]	@ movhi
 715 01a8 04E0     		b	.L29
 716              	.L28:
 283:.\DispenserSink.c ****                 else
 284:.\DispenserSink.c ****                     _g_respctxt.ResponseSizeResolver = pjob->_prequest->ResponseSizeResolver;
 717              		.loc 1 284 0
 718 01aa 7B68     		ldr	r3, [r7, #4]
 719 01ac 5B69     		ldr	r3, [r3, #20]
 720 01ae DB68     		ldr	r3, [r3, #12]
 721 01b0 254A     		ldr	r2, .L33+4
 722 01b2 9360     		str	r3, [r2, #8]
 723              	.L29:
 285:.\DispenserSink.c ****                 ///////////////////////////////////////////////////////////////////
 286:.\DispenserSink.c ****                 pjob->_prequest->Request(pjob->_ppump);
 724              		.loc 1 286 0
 725 01b4 7B68     		ldr	r3, [r7, #4]
 726 01b6 5B69     		ldr	r3, [r3, #20]
 727 01b8 1B68     		ldr	r3, [r3]
 728 01ba 7A68     		ldr	r2, [r7, #4]
 729 01bc D269     		ldr	r2, [r2, #28]
 730 01be 1046     		mov	r0, r2
 731 01c0 9847     		blx	r3
 287:.\DispenserSink.c ****                 pjob->_presponse = pjob->_prequest;
 732              		.loc 1 287 0
 733 01c2 7B68     		ldr	r3, [r7, #4]
 734 01c4 5A69     		ldr	r2, [r3, #20]
 735 01c6 7B68     		ldr	r3, [r7, #4]
 736 01c8 9A61     		str	r2, [r3, #24]
 288:.\DispenserSink.c ****                 pjob->_prequest = NULL;
ARM GAS  C:\Users\RECEPC~1\AppData\Local\Temp\ccUYVmA0.s 			page 19


 737              		.loc 1 288 0
 738 01ca 7B68     		ldr	r3, [r7, #4]
 739 01cc 0022     		movs	r2, #0
 740 01ce 5A61     		str	r2, [r3, #20]
 289:.\DispenserSink.c **** 
 290:.\DispenserSink.c ****                 //Initialize the reference tick if it has not yet been initialized
 291:.\DispenserSink.c ****                 pjob->_timeoutseed = Timer_DispenserState_ReadCounter();
 741              		.loc 1 291 0
 742 01d0 FFF7FEFF 		bl	Timer_DispenserState_ReadCounter
 743 01d4 0346     		mov	r3, r0
 744 01d6 1A46     		mov	r2, r3
 745 01d8 7B68     		ldr	r3, [r7, #4]
 746 01da 1A82     		strh	r2, [r3, #16]	@ movhi
 747 01dc 2EE0     		b	.L11
 748              	.L27:
 292:.\DispenserSink.c ****                 
 293:.\DispenserSink.c ****             }else{//Since no response is required for this request!!
 294:.\DispenserSink.c ****                 pjob->_prequest->Request(pjob->_ppump);
 749              		.loc 1 294 0
 750 01de 7B68     		ldr	r3, [r7, #4]
 751 01e0 5B69     		ldr	r3, [r3, #20]
 752 01e2 1B68     		ldr	r3, [r3]
 753 01e4 7A68     		ldr	r2, [r7, #4]
 754 01e6 D269     		ldr	r2, [r2, #28]
 755 01e8 1046     		mov	r0, r2
 756 01ea 9847     		blx	r3
 295:.\DispenserSink.c ****                 if(pjob->Callback)
 757              		.loc 1 295 0
 758 01ec 7B68     		ldr	r3, [r7, #4]
 759 01ee 1B6A     		ldr	r3, [r3, #32]
 760 01f0 002B     		cmp	r3, #0
 761 01f2 05D0     		beq	.L31
 296:.\DispenserSink.c ****                     pjob->Callback(pjob->_pdata);
 762              		.loc 1 296 0
 763 01f4 7B68     		ldr	r3, [r7, #4]
 764 01f6 1B6A     		ldr	r3, [r3, #32]
 765 01f8 7A68     		ldr	r2, [r7, #4]
 766 01fa 526A     		ldr	r2, [r2, #36]
 767 01fc 1046     		mov	r0, r2
 768 01fe 9847     		blx	r3
 769              	.L31:
 297:.\DispenserSink.c ****                     
 298:.\DispenserSink.c ****                 _g_pumpjobqueue.Dequeue(&_g_pumpjobqueue);
 770              		.loc 1 298 0
 771 0200 104B     		ldr	r3, .L33
 772 0202 D3F85438 		ldr	r3, [r3, #2132]
 773 0206 0F48     		ldr	r0, .L33
 774 0208 9847     		blx	r3
 299:.\DispenserSink.c ****                 pjob = NULL;
 775              		.loc 1 299 0
 776 020a 0023     		movs	r3, #0
 777 020c 7B60     		str	r3, [r7, #4]
 778 020e 15E0     		b	.L11
 779              	.L25:
 300:.\DispenserSink.c ****             }
 301:.\DispenserSink.c ****         }
 302:.\DispenserSink.c ****         else if(!precondexecuted)
ARM GAS  C:\Users\RECEPC~1\AppData\Local\Temp\ccUYVmA0.s 			page 20


 780              		.loc 1 302 0
 781 0210 7B78     		ldrb	r3, [r7, #1]
 782 0212 83F00103 		eor	r3, r3, #1
 783 0216 DBB2     		uxtb	r3, r3
 784 0218 002B     		cmp	r3, #0
 785 021a 0FD0     		beq	.L11
 303:.\DispenserSink.c ****         {
 304:.\DispenserSink.c ****             //If the precondition is marked as "One Shot", it will be evaluated only once
 305:.\DispenserSink.c ****             if(oneshot)
 786              		.loc 1 305 0
 787 021c FB78     		ldrb	r3, [r7, #3]	@ zero_extendqisi2
 788 021e 002B     		cmp	r3, #0
 789 0220 07D0     		beq	.L32
 306:.\DispenserSink.c ****             {
 307:.\DispenserSink.c ****                 _g_pumpjobqueue.Dequeue(&_g_pumpjobqueue);
 790              		.loc 1 307 0
 791 0222 084B     		ldr	r3, .L33
 792 0224 D3F85438 		ldr	r3, [r3, #2132]
 793 0228 0648     		ldr	r0, .L33
 794 022a 9847     		blx	r3
 308:.\DispenserSink.c ****                 pjob = NULL;
 795              		.loc 1 308 0
 796 022c 0023     		movs	r3, #0
 797 022e 7B60     		str	r3, [r7, #4]
 798 0230 04E0     		b	.L11
 799              	.L32:
 309:.\DispenserSink.c ****             }
 310:.\DispenserSink.c ****             else
 311:.\DispenserSink.c ****             {
 312:.\DispenserSink.c ****                 //If none of the preconditions are met, then "Re-push" until there is a match
 313:.\DispenserSink.c ****                 //This is pretty useful for the "EOT" state since once the delivery starts, 
 314:.\DispenserSink.c ****                 //the transaction needs to wait for the "EOT" or "IDLE" condition on the pump.
 315:.\DispenserSink.c ****                 _g_pumpjobqueue.Rotate(&_g_pumpjobqueue);
 800              		.loc 1 315 0
 801 0232 044B     		ldr	r3, .L33
 802 0234 D3F84438 		ldr	r3, [r3, #2116]
 803 0238 0248     		ldr	r0, .L33
 804 023a 9847     		blx	r3
 805              	.L11:
 806              	.LBE4:
 316:.\DispenserSink.c ****             }
 317:.\DispenserSink.c ****         }
 318:.\DispenserSink.c ****     }
 319:.\DispenserSink.c **** }
 807              		.loc 1 319 0
 808 023c 0837     		adds	r7, r7, #8
 809              		.cfi_def_cfa_offset 8
 810 023e BD46     		mov	sp, r7
 811              		.cfi_def_cfa_register 13
 812              		@ sp needed
 813 0240 80BD     		pop	{r7, pc}
 814              	.L34:
 815 0242 00BF     		.align	2
 816              	.L33:
 817 0244 00000000 		.word	_g_pumpjobqueue
 818 0248 00000000 		.word	_g_respctxt
 819 024c 0C000000 		.word	_g_respctxt+12
ARM GAS  C:\Users\RECEPC~1\AppData\Local\Temp\ccUYVmA0.s 			page 21


 820              		.cfi_endproc
 821              	.LFE64:
 822              		.size	DispenserHandler, .-DispenserHandler
 823              		.global	__aeabi_i2d
 824              		.global	__aeabi_ddiv
 825              		.global	__aeabi_dcmpgt
 826              		.section	.text.DispenserTimeoutHandler,"ax",%progbits
 827              		.align	2
 828              		.global	DispenserTimeoutHandler
 829              		.thumb
 830              		.thumb_func
 831              		.type	DispenserTimeoutHandler, %function
 832              	DispenserTimeoutHandler:
 833              	.LFB65:
 320:.\DispenserSink.c **** 
 321:.\DispenserSink.c **** //@Create by: HIJH
 322:.\DispenserSink.c **** //@Date: Septembre de 2016
 323:.\DispenserSink.c **** //This handler checks the transactional queue for pending job requests to execute.
 324:.\DispenserSink.c **** //Once a job is executed, the response is awaited (if required) and monitored for 
 325:.\DispenserSink.c **** //timeouts and retries. The handler also validates a set of pre conditions to 
 326:.\DispenserSink.c **** //execute the job.
 327:.\DispenserSink.c **** void DispenserTimeoutHandler()
 328:.\DispenserSink.c **** {
 834              		.loc 1 328 0
 835              		.cfi_startproc
 836              		@ args = 0, pretend = 0, frame = 8
 837              		@ frame_needed = 1, uses_anonymous_args = 0
 838 0000 B0B5     		push	{r4, r5, r7, lr}
 839              		.cfi_def_cfa_offset 16
 840              		.cfi_offset 4, -16
 841              		.cfi_offset 5, -12
 842              		.cfi_offset 7, -8
 843              		.cfi_offset 14, -4
 844 0002 82B0     		sub	sp, sp, #8
 845              		.cfi_def_cfa_offset 24
 846 0004 00AF     		add	r7, sp, #0
 847              		.cfi_def_cfa_register 7
 329:.\DispenserSink.c ****     PPUMPTRANSACTIONJOBCONTEXTPTR pjob = _g_pumpjobqueue.Peek(&_g_pumpjobqueue);
 848              		.loc 1 329 0
 849 0006 3A4B     		ldr	r3, .L42
 850 0008 D3F85038 		ldr	r3, [r3, #2128]
 851 000c 3848     		ldr	r0, .L42
 852 000e 9847     		blx	r3
 853 0010 7860     		str	r0, [r7, #4]
 330:.\DispenserSink.c ****     //Timeout handling
 331:.\DispenserSink.c ****     if(pjob && pjob->_presponse)
 854              		.loc 1 331 0
 855 0012 7B68     		ldr	r3, [r7, #4]
 856 0014 002B     		cmp	r3, #0
 857 0016 68D0     		beq	.L35
 858              		.loc 1 331 0 is_stmt 0 discriminator 1
 859 0018 7B68     		ldr	r3, [r7, #4]
 860 001a 9B69     		ldr	r3, [r3, #24]
 861 001c 002B     		cmp	r3, #0
 862 001e 64D0     		beq	.L35
 332:.\DispenserSink.c ****     {
 333:.\DispenserSink.c ****         if(pjob->_presponse->_responsetimeoutlimit != _NO_TIMEOUT_)
ARM GAS  C:\Users\RECEPC~1\AppData\Local\Temp\ccUYVmA0.s 			page 22


 863              		.loc 1 333 0 is_stmt 1
 864 0020 7B68     		ldr	r3, [r7, #4]
 865 0022 9B69     		ldr	r3, [r3, #24]
 866 0024 1B8A     		ldrh	r3, [r3, #16]
 867 0026 002B     		cmp	r3, #0
 868 0028 5FD0     		beq	.L35
 869              	.LBB5:
 334:.\DispenserSink.c ****         {
 335:.\DispenserSink.c ****             int32 timespan = ((Timer_DispenserState_ReadCounter() + _TIMEOUT_BASE_TIME_*pjob->_time
 870              		.loc 1 335 0
 871 002a FFF7FEFF 		bl	Timer_DispenserState_ReadCounter
 872 002e 0346     		mov	r3, r0
 873 0030 1A46     		mov	r2, r3
 874 0032 7B68     		ldr	r3, [r7, #4]
 875 0034 5B8A     		ldrh	r3, [r3, #18]	@ movhi
 876 0036 9BB2     		uxth	r3, r3
 877 0038 1946     		mov	r1, r3
 878 003a 4FF47A73 		mov	r3, #1000
 879 003e 03FB01F3 		mul	r3, r3, r1
 880 0042 1344     		add	r3, r3, r2
 881 0044 7A68     		ldr	r2, [r7, #4]
 882 0046 128A     		ldrh	r2, [r2, #16]	@ movhi
 883 0048 92B2     		uxth	r2, r2
 884 004a 9B1A     		subs	r3, r3, r2
 885 004c 3B60     		str	r3, [r7]
 336:.\DispenserSink.c ****             if(((double)timespan / (double)_TIMEOUT_BASE_TIME_) > pjob->_presponse->_responsetimeou
 886              		.loc 1 336 0
 887 004e 3868     		ldr	r0, [r7]
 888 0050 FFF7FEFF 		bl	__aeabi_i2d
 889 0054 0246     		mov	r2, r0
 890 0056 0B46     		mov	r3, r1
 891 0058 1046     		mov	r0, r2
 892 005a 1946     		mov	r1, r3
 893 005c 4FF00002 		mov	r2, #0
 894 0060 244B     		ldr	r3, .L42+4
 895 0062 FFF7FEFF 		bl	__aeabi_ddiv
 896 0066 0246     		mov	r2, r0
 897 0068 0B46     		mov	r3, r1
 898 006a 1446     		mov	r4, r2
 899 006c 1D46     		mov	r5, r3
 900 006e 7B68     		ldr	r3, [r7, #4]
 901 0070 9B69     		ldr	r3, [r3, #24]
 902 0072 1B8A     		ldrh	r3, [r3, #16]
 903 0074 1846     		mov	r0, r3
 904 0076 FFF7FEFF 		bl	__aeabi_i2d
 905 007a 0246     		mov	r2, r0
 906 007c 0B46     		mov	r3, r1
 907 007e 2046     		mov	r0, r4
 908 0080 2946     		mov	r1, r5
 909 0082 FFF7FEFF 		bl	__aeabi_dcmpgt
 910 0086 0346     		mov	r3, r0
 911 0088 002B     		cmp	r3, #0
 912 008a 2ED0     		beq	.L35
 337:.\DispenserSink.c ****             {
 338:.\DispenserSink.c ****                 ///TURNING IT INTO A REQUEST AGAIN FOR A LIMITED NUMBER OF RETRIES!
 339:.\DispenserSink.c ****                 pjob->_timeoutmultiplier = 0x0000;
 913              		.loc 1 339 0
ARM GAS  C:\Users\RECEPC~1\AppData\Local\Temp\ccUYVmA0.s 			page 23


 914 008c 7B68     		ldr	r3, [r7, #4]
 915 008e 0022     		movs	r2, #0
 916 0090 5A82     		strh	r2, [r3, #18]	@ movhi
 340:.\DispenserSink.c ****                 pjob->_timeoutseed = 0x0000;
 917              		.loc 1 340 0
 918 0092 7B68     		ldr	r3, [r7, #4]
 919 0094 0022     		movs	r2, #0
 920 0096 1A82     		strh	r2, [r3, #16]	@ movhi
 341:.\DispenserSink.c ****                 
 342:.\DispenserSink.c ****                 pjob->_retriescounter++;
 921              		.loc 1 342 0
 922 0098 7B68     		ldr	r3, [r7, #4]
 923 009a DB89     		ldrh	r3, [r3, #14]	@ movhi
 924 009c 9BB2     		uxth	r3, r3
 925 009e 0133     		adds	r3, r3, #1
 926 00a0 9AB2     		uxth	r2, r3
 927 00a2 7B68     		ldr	r3, [r7, #4]
 928 00a4 DA81     		strh	r2, [r3, #14]	@ movhi
 343:.\DispenserSink.c ****                 //We invoke the timeout Callback if it has been defined
 344:.\DispenserSink.c ****                 if(pjob->_presponse->TimeoutCallback)
 929              		.loc 1 344 0
 930 00a6 7B68     		ldr	r3, [r7, #4]
 931 00a8 9B69     		ldr	r3, [r3, #24]
 932 00aa 9B68     		ldr	r3, [r3, #8]
 933 00ac 002B     		cmp	r3, #0
 934 00ae 04D0     		beq	.L38
 345:.\DispenserSink.c ****                     pjob->_presponse->TimeoutCallback(pjob);
 935              		.loc 1 345 0
 936 00b0 7B68     		ldr	r3, [r7, #4]
 937 00b2 9B69     		ldr	r3, [r3, #24]
 938 00b4 9B68     		ldr	r3, [r3, #8]
 939 00b6 7868     		ldr	r0, [r7, #4]
 940 00b8 9847     		blx	r3
 941              	.L38:
 346:.\DispenserSink.c **** 
 347:.\DispenserSink.c ****                 if(pjob->_retriescounter > _MAX_RETRIES_){
 942              		.loc 1 347 0
 943 00ba 7B68     		ldr	r3, [r7, #4]
 944 00bc DB89     		ldrh	r3, [r3, #14]	@ movhi
 945 00be 9BB2     		uxth	r3, r3
 946 00c0 142B     		cmp	r3, #20
 947 00c2 07D9     		bls	.L39
 348:.\DispenserSink.c ****                     _g_pumpjobqueue.Dequeue(&_g_pumpjobqueue);
 948              		.loc 1 348 0
 949 00c4 0A4B     		ldr	r3, .L42
 950 00c6 D3F85438 		ldr	r3, [r3, #2132]
 951 00ca 0948     		ldr	r0, .L42
 952 00cc 9847     		blx	r3
 349:.\DispenserSink.c ****                     pjob = NULL;
 953              		.loc 1 349 0
 954 00ce 0023     		movs	r3, #0
 955 00d0 7B60     		str	r3, [r7, #4]
 956 00d2 06E0     		b	.L40
 957              	.L39:
 350:.\DispenserSink.c ****                 }else{
 351:.\DispenserSink.c ****                     pjob->_prequest = pjob->_presponse;
 958              		.loc 1 351 0
ARM GAS  C:\Users\RECEPC~1\AppData\Local\Temp\ccUYVmA0.s 			page 24


 959 00d4 7B68     		ldr	r3, [r7, #4]
 960 00d6 9A69     		ldr	r2, [r3, #24]
 961 00d8 7B68     		ldr	r3, [r7, #4]
 962 00da 5A61     		str	r2, [r3, #20]
 352:.\DispenserSink.c ****                     pjob->_presponse = NULL;
 963              		.loc 1 352 0
 964 00dc 7B68     		ldr	r3, [r7, #4]
 965 00de 0022     		movs	r2, #0
 966 00e0 9A61     		str	r2, [r3, #24]
 967              	.L40:
 353:.\DispenserSink.c ****                 }
 354:.\DispenserSink.c ****                 
 355:.\DispenserSink.c ****                 Dispenser_ClearRxBuffer();
 968              		.loc 1 355 0
 969 00e2 FFF7FEFF 		bl	Dispenser_ClearRxBuffer
 356:.\DispenserSink.c ****                 Dispenser_Enable();
 970              		.loc 1 356 0
 971 00e6 FFF7FEFF 		bl	Dispenser_Enable
 972              	.L35:
 973              	.LBE5:
 357:.\DispenserSink.c ****             }
 358:.\DispenserSink.c ****         }
 359:.\DispenserSink.c ****     }
 360:.\DispenserSink.c **** }
 974              		.loc 1 360 0
 975 00ea 0837     		adds	r7, r7, #8
 976              		.cfi_def_cfa_offset 16
 977 00ec BD46     		mov	sp, r7
 978              		.cfi_def_cfa_register 13
 979              		@ sp needed
 980 00ee B0BD     		pop	{r4, r5, r7, pc}
 981              	.L43:
 982              		.align	2
 983              	.L42:
 984 00f0 00000000 		.word	_g_pumpjobqueue
 985 00f4 00408F40 		.word	1083129856
 986              		.cfi_endproc
 987              	.LFE65:
 988              		.size	DispenserTimeoutHandler, .-DispenserTimeoutHandler
 989              		.section	.text.DispenserDataReceptionHandler,"ax",%progbits
 990              		.align	2
 991              		.global	DispenserDataReceptionHandler
 992              		.thumb
 993              		.thumb_func
 994              		.type	DispenserDataReceptionHandler, %function
 995              	DispenserDataReceptionHandler:
 996              	.LFB66:
 361:.\DispenserSink.c **** 
 362:.\DispenserSink.c **** //@Create by: HIJH
 363:.\DispenserSink.c **** //@Date: Septembre de 2016
 364:.\DispenserSink.c **** //This handler receives the responses from the pump to job requests on top of the queue.
 365:.\DispenserSink.c **** //Once a job is executed, the response is awaited (if required) and monitored for 
 366:.\DispenserSink.c **** //timeouts and retries. The handler also validates a set of post conditions to 
 367:.\DispenserSink.c **** //answer the job.
 368:.\DispenserSink.c **** //void DispenserDataReceptionHandler(void *pparam)
 369:.\DispenserSink.c **** void DispenserDataReceptionHandler()
 370:.\DispenserSink.c **** {
ARM GAS  C:\Users\RECEPC~1\AppData\Local\Temp\ccUYVmA0.s 			page 25


 997              		.loc 1 370 0
 998              		.cfi_startproc
 999              		@ args = 0, pretend = 0, frame = 8
 1000              		@ frame_needed = 1, uses_anonymous_args = 0
 1001 0000 80B5     		push	{r7, lr}
 1002              		.cfi_def_cfa_offset 8
 1003              		.cfi_offset 7, -8
 1004              		.cfi_offset 14, -4
 1005 0002 82B0     		sub	sp, sp, #8
 1006              		.cfi_def_cfa_offset 16
 1007 0004 00AF     		add	r7, sp, #0
 1008              		.cfi_def_cfa_register 7
 371:.\DispenserSink.c ****     if(!_g_respctxt._bufferready)
 1009              		.loc 1 371 0
 1010 0006 884B     		ldr	r3, .L68
 1011 0008 1B79     		ldrb	r3, [r3, #4]
 1012 000a DBB2     		uxtb	r3, r3
 1013 000c 83F00103 		eor	r3, r3, #1
 1014 0010 DBB2     		uxtb	r3, r3
 1015 0012 002B     		cmp	r3, #0
 1016 0014 00D0     		beq	.L45
 372:.\DispenserSink.c ****         return;
 1017              		.loc 1 372 0
 1018 0016 3EE1     		b	.L44
 1019              	.L45:
 373:.\DispenserSink.c **** 
 374:.\DispenserSink.c ****     //SinkMessage *psinkmsg = (SinkMessage*)pparam;
 375:.\DispenserSink.c ****     /////////////////////////////////////////////////////////////////////////////////////////
 376:.\DispenserSink.c ****     //TODO: PLACE HERE ALL THE NECESSARY CODE TO RESOLVE THE COMPLETENESS OF THE ARRIVED STREAM
 377:.\DispenserSink.c ****     /////////////////////////////////////////////////////////////////////////////////////////
 378:.\DispenserSink.c ****     PPUMPTRANSACTIONJOBCONTEXTPTR pjob = _g_pumpjobqueue.Peek(&_g_pumpjobqueue);
 1020              		.loc 1 378 0
 1021 0018 844B     		ldr	r3, .L68+4
 1022 001a D3F85038 		ldr	r3, [r3, #2128]
 1023 001e 8348     		ldr	r0, .L68+4
 1024 0020 9847     		blx	r3
 1025 0022 7860     		str	r0, [r7, #4]
 379:.\DispenserSink.c ****     if(pjob && pjob->_presponse)
 1026              		.loc 1 379 0
 1027 0024 7B68     		ldr	r3, [r7, #4]
 1028 0026 002B     		cmp	r3, #0
 1029 0028 00F01B81 		beq	.L47
 1030              		.loc 1 379 0 is_stmt 0 discriminator 1
 1031 002c 7B68     		ldr	r3, [r7, #4]
 1032 002e 9B69     		ldr	r3, [r3, #24]
 1033 0030 002B     		cmp	r3, #0
 1034 0032 00F01681 		beq	.L47
 1035              	.LBB6:
 380:.\DispenserSink.c ****     {
 381:.\DispenserSink.c ****         pjob->_timeoutmultiplier = 0x0000;
 1036              		.loc 1 381 0 is_stmt 1
 1037 0036 7B68     		ldr	r3, [r7, #4]
 1038 0038 0022     		movs	r2, #0
 1039 003a 5A82     		strh	r2, [r3, #18]	@ movhi
 382:.\DispenserSink.c ****         pjob->_timeoutseed = 0x0000;
 1040              		.loc 1 382 0
 1041 003c 7B68     		ldr	r3, [r7, #4]
ARM GAS  C:\Users\RECEPC~1\AppData\Local\Temp\ccUYVmA0.s 			page 26


 1042 003e 0022     		movs	r2, #0
 1043 0040 1A82     		strh	r2, [r3, #16]	@ movhi
 383:.\DispenserSink.c ****         memcpy(pjob->_ppump->_rxbuffer, _g_respctxt._rxbuffer, _g_respctxt._responsesize);
 1044              		.loc 1 383 0
 1045 0042 7B68     		ldr	r3, [r7, #4]
 1046 0044 DB69     		ldr	r3, [r3, #28]
 1047 0046 03F5D072 		add	r2, r3, #416
 1048 004a 774B     		ldr	r3, .L68
 1049 004c DB88     		ldrh	r3, [r3, #6]	@ movhi
 1050 004e 9BB2     		uxth	r3, r3
 1051 0050 1046     		mov	r0, r2
 1052 0052 7749     		ldr	r1, .L68+8
 1053 0054 1A46     		mov	r2, r3
 1054 0056 FFF7FEFF 		bl	memcpy
 384:.\DispenserSink.c ****         pjob->_ppump->_rxbuffersize = _g_respctxt._responsesize;
 1055              		.loc 1 384 0
 1056 005a 7B68     		ldr	r3, [r7, #4]
 1057 005c DB69     		ldr	r3, [r3, #28]
 1058 005e 724A     		ldr	r2, .L68
 1059 0060 D288     		ldrh	r2, [r2, #6]	@ movhi
 1060 0062 92B2     		uxth	r2, r2
 1061 0064 A3F82023 		strh	r2, [r3, #800]	@ movhi
 385:.\DispenserSink.c ****         
 386:.\DispenserSink.c ****         bool oneshot = false;
 1062              		.loc 1 386 0
 1063 0068 0023     		movs	r3, #0
 1064 006a FB70     		strb	r3, [r7, #3]
 387:.\DispenserSink.c ****         bool postconditions = false;
 1065              		.loc 1 387 0
 1066 006c 0023     		movs	r3, #0
 1067 006e BB70     		strb	r3, [r7, #2]
 388:.\DispenserSink.c ****         bool postcondexecuted = false;
 1068              		.loc 1 388 0
 1069 0070 0023     		movs	r3, #0
 1070 0072 7B70     		strb	r3, [r7, #1]
 389:.\DispenserSink.c ****         FOR(uint8 index = 0, index < _MAX_CONDITION_CODES_, index++)
 1071              		.loc 1 389 0
 1072 0074 0023     		movs	r3, #0
 1073 0076 3B70     		strb	r3, [r7]
 1074 0078 61E0     		b	.L48
 1075              	.L57:
 390:.\DispenserSink.c ****         {
 391:.\DispenserSink.c ****             //If none the post conditions are met, then this job item MUST timeout
 392:.\DispenserSink.c ****             //so it will be launched again for a predefined number of retries (see the code in the 
 393:.\DispenserSink.c ****             if(pjob->_presponse->_postconditions[index] != 0xFF)
 1076              		.loc 1 393 0
 1077 007a 7B68     		ldr	r3, [r7, #4]
 1078 007c 9A69     		ldr	r2, [r3, #24]
 1079 007e 3B78     		ldrb	r3, [r7]	@ zero_extendqisi2
 1080 0080 1344     		add	r3, r3, r2
 1081 0082 93F82630 		ldrb	r3, [r3, #38]	@ zero_extendqisi2
 1082 0086 FF2B     		cmp	r3, #255
 1083 0088 55D0     		beq	.L49
 394:.\DispenserSink.c ****             {
 395:.\DispenserSink.c ****                 postconditions = true;
 1084              		.loc 1 395 0
 1085 008a 0123     		movs	r3, #1
ARM GAS  C:\Users\RECEPC~1\AppData\Local\Temp\ccUYVmA0.s 			page 27


 1086 008c BB70     		strb	r3, [r7, #2]
 396:.\DispenserSink.c ****                 if(!oneshot)
 1087              		.loc 1 396 0
 1088 008e FB78     		ldrb	r3, [r7, #3]
 1089 0090 83F00103 		eor	r3, r3, #1
 1090 0094 DBB2     		uxtb	r3, r3
 1091 0096 002B     		cmp	r3, #0
 1092 0098 06D0     		beq	.L50
 397:.\DispenserSink.c ****                     oneshot = pjob->_presponse->_oneshotpostconditions[index];
 1093              		.loc 1 397 0
 1094 009a 7B68     		ldr	r3, [r7, #4]
 1095 009c 9A69     		ldr	r2, [r3, #24]
 1096 009e 3B78     		ldrb	r3, [r7]	@ zero_extendqisi2
 1097 00a0 1344     		add	r3, r3, r2
 1098 00a2 93F82230 		ldrb	r3, [r3, #34]
 1099 00a6 FB70     		strb	r3, [r7, #3]
 1100              	.L50:
 398:.\DispenserSink.c ****                  
 399:.\DispenserSink.c ****                 pjob->_presponse->Response(pjob);
 1101              		.loc 1 399 0
 1102 00a8 7B68     		ldr	r3, [r7, #4]
 1103 00aa 9B69     		ldr	r3, [r3, #24]
 1104 00ac 5B68     		ldr	r3, [r3, #4]
 1105 00ae 7868     		ldr	r0, [r7, #4]
 1106 00b0 9847     		blx	r3
 400:.\DispenserSink.c ****                 //If the condition is met then execute the response Callback
 401:.\DispenserSink.c ****                 if(pjob->_ppump->_pumpstate == pjob->_presponse->_postconditions[index])
 1107              		.loc 1 401 0
 1108 00b2 7B68     		ldr	r3, [r7, #4]
 1109 00b4 DB69     		ldr	r3, [r3, #28]
 1110 00b6 9B78     		ldrb	r3, [r3, #2]
 1111 00b8 DAB2     		uxtb	r2, r3
 1112 00ba 7B68     		ldr	r3, [r7, #4]
 1113 00bc 9969     		ldr	r1, [r3, #24]
 1114 00be 3B78     		ldrb	r3, [r7]	@ zero_extendqisi2
 1115 00c0 0B44     		add	r3, r3, r1
 1116 00c2 93F82630 		ldrb	r3, [r3, #38]	@ zero_extendqisi2
 1117 00c6 9A42     		cmp	r2, r3
 1118 00c8 36D1     		bne	.L51
 402:.\DispenserSink.c ****                 {
 403:.\DispenserSink.c ****                     if(!pjob->_reenqueue)
 1119              		.loc 1 403 0
 1120 00ca 7B68     		ldr	r3, [r7, #4]
 1121 00cc 1B78     		ldrb	r3, [r3]
 1122 00ce DBB2     		uxtb	r3, r3
 1123 00d0 83F00103 		eor	r3, r3, #1
 1124 00d4 DBB2     		uxtb	r3, r3
 1125 00d6 002B     		cmp	r3, #0
 1126 00d8 13D0     		beq	.L52
 404:.\DispenserSink.c ****                     {
 405:.\DispenserSink.c ****                         if(pjob->_presponse->Finalization)
 1127              		.loc 1 405 0
 1128 00da 7B68     		ldr	r3, [r7, #4]
 1129 00dc 9B69     		ldr	r3, [r3, #24]
 1130 00de 1B6B     		ldr	r3, [r3, #48]
 1131 00e0 002B     		cmp	r3, #0
 1132 00e2 04D0     		beq	.L53
ARM GAS  C:\Users\RECEPC~1\AppData\Local\Temp\ccUYVmA0.s 			page 28


 406:.\DispenserSink.c ****                             pjob->_presponse->Finalization(pjob);
 1133              		.loc 1 406 0
 1134 00e4 7B68     		ldr	r3, [r7, #4]
 1135 00e6 9B69     		ldr	r3, [r3, #24]
 1136 00e8 1B6B     		ldr	r3, [r3, #48]
 1137 00ea 7868     		ldr	r0, [r7, #4]
 1138 00ec 9847     		blx	r3
 1139              	.L53:
 407:.\DispenserSink.c ****                             
 408:.\DispenserSink.c ****                         if(pjob->Callback)
 1140              		.loc 1 408 0
 1141 00ee 7B68     		ldr	r3, [r7, #4]
 1142 00f0 1B6A     		ldr	r3, [r3, #32]
 1143 00f2 002B     		cmp	r3, #0
 1144 00f4 05D0     		beq	.L52
 409:.\DispenserSink.c ****                             pjob->Callback(pjob->_pdata);
 1145              		.loc 1 409 0
 1146 00f6 7B68     		ldr	r3, [r7, #4]
 1147 00f8 1B6A     		ldr	r3, [r3, #32]
 1148 00fa 7A68     		ldr	r2, [r7, #4]
 1149 00fc 526A     		ldr	r2, [r2, #36]
 1150 00fe 1046     		mov	r0, r2
 1151 0100 9847     		blx	r3
 1152              	.L52:
 410:.\DispenserSink.c ****                     }
 411:.\DispenserSink.c ****                     
 412:.\DispenserSink.c ****                     if(!pjob->_reenqueue)
 1153              		.loc 1 412 0
 1154 0102 7B68     		ldr	r3, [r7, #4]
 1155 0104 1B78     		ldrb	r3, [r3]
 1156 0106 DBB2     		uxtb	r3, r3
 1157 0108 83F00103 		eor	r3, r3, #1
 1158 010c DBB2     		uxtb	r3, r3
 1159 010e 002B     		cmp	r3, #0
 1160 0110 07D0     		beq	.L54
 413:.\DispenserSink.c ****                     {
 414:.\DispenserSink.c ****                         _g_pumpjobqueue.Dequeue(&_g_pumpjobqueue);
 1161              		.loc 1 414 0
 1162 0112 464B     		ldr	r3, .L68+4
 1163 0114 D3F85438 		ldr	r3, [r3, #2132]
 1164 0118 4448     		ldr	r0, .L68+4
 1165 011a 9847     		blx	r3
 415:.\DispenserSink.c ****                         pjob = NULL;
 1166              		.loc 1 415 0
 1167 011c 0023     		movs	r3, #0
 1168 011e 7B60     		str	r3, [r7, #4]
 1169 0120 06E0     		b	.L55
 1170              	.L54:
 416:.\DispenserSink.c ****                     }else{
 417:.\DispenserSink.c ****                         pjob->_prequest = pjob->_presponse;
 1171              		.loc 1 417 0
 1172 0122 7B68     		ldr	r3, [r7, #4]
 1173 0124 9A69     		ldr	r2, [r3, #24]
 1174 0126 7B68     		ldr	r3, [r7, #4]
 1175 0128 5A61     		str	r2, [r3, #20]
 418:.\DispenserSink.c ****                         pjob->_presponse = NULL;
 1176              		.loc 1 418 0
ARM GAS  C:\Users\RECEPC~1\AppData\Local\Temp\ccUYVmA0.s 			page 29


 1177 012a 7B68     		ldr	r3, [r7, #4]
 1178 012c 0022     		movs	r2, #0
 1179 012e 9A61     		str	r2, [r3, #24]
 1180              	.L55:
 419:.\DispenserSink.c ****                     }
 420:.\DispenserSink.c ****                     postcondexecuted = true;
 1181              		.loc 1 420 0
 1182 0130 0123     		movs	r3, #1
 1183 0132 7B70     		strb	r3, [r7, #1]
 421:.\DispenserSink.c ****                     break;
 1184              		.loc 1 421 0
 1185 0134 06E0     		b	.L56
 1186              	.L49:
 422:.\DispenserSink.c ****                 }
 423:.\DispenserSink.c ****             }else
 424:.\DispenserSink.c ****                 break;
 1187              		.loc 1 424 0
 1188 0136 05E0     		b	.L56
 1189              	.L51:
 389:.\DispenserSink.c ****         {
 1190              		.loc 1 389 0 discriminator 2
 1191 0138 3B78     		ldrb	r3, [r7]	@ zero_extendqisi2
 1192 013a 0133     		adds	r3, r3, #1
 1193 013c 3B70     		strb	r3, [r7]
 1194              	.L48:
 389:.\DispenserSink.c ****         {
 1195              		.loc 1 389 0 is_stmt 0 discriminator 1
 1196 013e 3B78     		ldrb	r3, [r7]	@ zero_extendqisi2
 1197 0140 032B     		cmp	r3, #3
 1198 0142 9AD9     		bls	.L57
 1199              	.L56:
 425:.\DispenserSink.c ****         }
 426:.\DispenserSink.c ****         if(!postconditions)
 1200              		.loc 1 426 0 is_stmt 1
 1201 0144 BB78     		ldrb	r3, [r7, #2]
 1202 0146 83F00103 		eor	r3, r3, #1
 1203 014a DBB2     		uxtb	r3, r3
 1204 014c 002B     		cmp	r3, #0
 1205 014e 38D0     		beq	.L58
 427:.\DispenserSink.c ****         {                
 428:.\DispenserSink.c ****             pjob->_presponse->Response(pjob);
 1206              		.loc 1 428 0
 1207 0150 7B68     		ldr	r3, [r7, #4]
 1208 0152 9B69     		ldr	r3, [r3, #24]
 1209 0154 5B68     		ldr	r3, [r3, #4]
 1210 0156 7868     		ldr	r0, [r7, #4]
 1211 0158 9847     		blx	r3
 429:.\DispenserSink.c ****             
 430:.\DispenserSink.c ****             if(!pjob->_reenqueue)
 1212              		.loc 1 430 0
 1213 015a 7B68     		ldr	r3, [r7, #4]
 1214 015c 1B78     		ldrb	r3, [r3]
 1215 015e DBB2     		uxtb	r3, r3
 1216 0160 83F00103 		eor	r3, r3, #1
 1217 0164 DBB2     		uxtb	r3, r3
 1218 0166 002B     		cmp	r3, #0
 1219 0168 13D0     		beq	.L59
ARM GAS  C:\Users\RECEPC~1\AppData\Local\Temp\ccUYVmA0.s 			page 30


 431:.\DispenserSink.c ****             {
 432:.\DispenserSink.c ****                 if(pjob->_presponse->Finalization)
 1220              		.loc 1 432 0
 1221 016a 7B68     		ldr	r3, [r7, #4]
 1222 016c 9B69     		ldr	r3, [r3, #24]
 1223 016e 1B6B     		ldr	r3, [r3, #48]
 1224 0170 002B     		cmp	r3, #0
 1225 0172 04D0     		beq	.L60
 433:.\DispenserSink.c ****                     pjob->_presponse->Finalization(pjob);
 1226              		.loc 1 433 0
 1227 0174 7B68     		ldr	r3, [r7, #4]
 1228 0176 9B69     		ldr	r3, [r3, #24]
 1229 0178 1B6B     		ldr	r3, [r3, #48]
 1230 017a 7868     		ldr	r0, [r7, #4]
 1231 017c 9847     		blx	r3
 1232              	.L60:
 434:.\DispenserSink.c ****                 
 435:.\DispenserSink.c ****                 if(pjob->Callback)
 1233              		.loc 1 435 0
 1234 017e 7B68     		ldr	r3, [r7, #4]
 1235 0180 1B6A     		ldr	r3, [r3, #32]
 1236 0182 002B     		cmp	r3, #0
 1237 0184 05D0     		beq	.L59
 436:.\DispenserSink.c ****                     pjob->Callback(pjob->_pdata);
 1238              		.loc 1 436 0
 1239 0186 7B68     		ldr	r3, [r7, #4]
 1240 0188 1B6A     		ldr	r3, [r3, #32]
 1241 018a 7A68     		ldr	r2, [r7, #4]
 1242 018c 526A     		ldr	r2, [r2, #36]
 1243 018e 1046     		mov	r0, r2
 1244 0190 9847     		blx	r3
 1245              	.L59:
 437:.\DispenserSink.c ****             }
 438:.\DispenserSink.c ****             
 439:.\DispenserSink.c ****             //This is required for the enumeration model
 440:.\DispenserSink.c ****             if(!pjob->_reenqueue)
 1246              		.loc 1 440 0
 1247 0192 7B68     		ldr	r3, [r7, #4]
 1248 0194 1B78     		ldrb	r3, [r3]
 1249 0196 DBB2     		uxtb	r3, r3
 1250 0198 83F00103 		eor	r3, r3, #1
 1251 019c DBB2     		uxtb	r3, r3
 1252 019e 002B     		cmp	r3, #0
 1253 01a0 07D0     		beq	.L61
 441:.\DispenserSink.c ****             {
 442:.\DispenserSink.c ****                 _g_pumpjobqueue.Dequeue(&_g_pumpjobqueue);
 1254              		.loc 1 442 0
 1255 01a2 224B     		ldr	r3, .L68+4
 1256 01a4 D3F85438 		ldr	r3, [r3, #2132]
 1257 01a8 2048     		ldr	r0, .L68+4
 1258 01aa 9847     		blx	r3
 443:.\DispenserSink.c ****                 pjob = NULL;
 1259              		.loc 1 443 0
 1260 01ac 0023     		movs	r3, #0
 1261 01ae 7B60     		str	r3, [r7, #4]
 1262 01b0 57E0     		b	.L47
 1263              	.L61:
ARM GAS  C:\Users\RECEPC~1\AppData\Local\Temp\ccUYVmA0.s 			page 31


 444:.\DispenserSink.c ****             }else{
 445:.\DispenserSink.c ****                 pjob->_prequest = pjob->_presponse;
 1264              		.loc 1 445 0
 1265 01b2 7B68     		ldr	r3, [r7, #4]
 1266 01b4 9A69     		ldr	r2, [r3, #24]
 1267 01b6 7B68     		ldr	r3, [r7, #4]
 1268 01b8 5A61     		str	r2, [r3, #20]
 446:.\DispenserSink.c ****                 pjob->_presponse = PNEAR_NULLPTR;
 1269              		.loc 1 446 0
 1270 01ba 7B68     		ldr	r3, [r7, #4]
 1271 01bc 0022     		movs	r2, #0
 1272 01be 9A61     		str	r2, [r3, #24]
 1273 01c0 4FE0     		b	.L47
 1274              	.L58:
 447:.\DispenserSink.c ****             }
 448:.\DispenserSink.c ****         }
 449:.\DispenserSink.c ****         else if(!postcondexecuted)
 1275              		.loc 1 449 0
 1276 01c2 7B78     		ldrb	r3, [r7, #1]
 1277 01c4 83F00103 		eor	r3, r3, #1
 1278 01c8 DBB2     		uxtb	r3, r3
 1279 01ca 002B     		cmp	r3, #0
 1280 01cc 49D0     		beq	.L47
 450:.\DispenserSink.c ****         {
 451:.\DispenserSink.c ****             if(oneshot)
 1281              		.loc 1 451 0
 1282 01ce FB78     		ldrb	r3, [r7, #3]	@ zero_extendqisi2
 1283 01d0 002B     		cmp	r3, #0
 1284 01d2 07D0     		beq	.L63
 452:.\DispenserSink.c ****             {
 453:.\DispenserSink.c ****                 _g_pumpjobqueue.Dequeue(&_g_pumpjobqueue);
 1285              		.loc 1 453 0
 1286 01d4 154B     		ldr	r3, .L68+4
 1287 01d6 D3F85438 		ldr	r3, [r3, #2132]
 1288 01da 1448     		ldr	r0, .L68+4
 1289 01dc 9847     		blx	r3
 454:.\DispenserSink.c ****                 pjob = NULL;
 1290              		.loc 1 454 0
 1291 01de 0023     		movs	r3, #0
 1292 01e0 7B60     		str	r3, [r7, #4]
 1293 01e2 3EE0     		b	.L47
 1294              	.L63:
 455:.\DispenserSink.c ****             }
 456:.\DispenserSink.c ****             else
 457:.\DispenserSink.c ****             {
 458:.\DispenserSink.c ****                 if(pjob->_presponse->_retryinsteadofrepush)
 1295              		.loc 1 458 0
 1296 01e4 7B68     		ldr	r3, [r7, #4]
 1297 01e6 9B69     		ldr	r3, [r3, #24]
 1298 01e8 5B7E     		ldrb	r3, [r3, #25]	@ zero_extendqisi2
 1299 01ea 002B     		cmp	r3, #0
 1300 01ec 22D0     		beq	.L64
 459:.\DispenserSink.c ****                 {
 460:.\DispenserSink.c ****                     if(pjob->_repushretriescounter >= _MAX_RETRIES_)
 1301              		.loc 1 460 0
 1302 01ee 7B68     		ldr	r3, [r7, #4]
 1303 01f0 1B89     		ldrh	r3, [r3, #8]	@ movhi
ARM GAS  C:\Users\RECEPC~1\AppData\Local\Temp\ccUYVmA0.s 			page 32


 1304 01f2 9BB2     		uxth	r3, r3
 1305 01f4 132B     		cmp	r3, #19
 1306 01f6 07D9     		bls	.L65
 461:.\DispenserSink.c ****                     {
 462:.\DispenserSink.c ****                         _g_pumpjobqueue.Dequeue(&_g_pumpjobqueue);
 1307              		.loc 1 462 0
 1308 01f8 0C4B     		ldr	r3, .L68+4
 1309 01fa D3F85438 		ldr	r3, [r3, #2132]
 1310 01fe 0B48     		ldr	r0, .L68+4
 1311 0200 9847     		blx	r3
 463:.\DispenserSink.c ****                         pjob = NULL;
 1312              		.loc 1 463 0
 1313 0202 0023     		movs	r3, #0
 1314 0204 7B60     		str	r3, [r7, #4]
 1315 0206 2CE0     		b	.L47
 1316              	.L65:
 464:.\DispenserSink.c ****                     }
 465:.\DispenserSink.c ****                     else
 466:.\DispenserSink.c ****                     {
 467:.\DispenserSink.c ****                         pjob->_repushretriescounter++;
 1317              		.loc 1 467 0
 1318 0208 7B68     		ldr	r3, [r7, #4]
 1319 020a 1B89     		ldrh	r3, [r3, #8]	@ movhi
 1320 020c 9BB2     		uxth	r3, r3
 1321 020e 0133     		adds	r3, r3, #1
 1322 0210 9AB2     		uxth	r2, r3
 1323 0212 7B68     		ldr	r3, [r7, #4]
 1324 0214 1A81     		strh	r2, [r3, #8]	@ movhi
 468:.\DispenserSink.c ****                         pjob->_prequest = pjob->_presponse;
 1325              		.loc 1 468 0
 1326 0216 7B68     		ldr	r3, [r7, #4]
 1327 0218 9A69     		ldr	r2, [r3, #24]
 1328 021a 7B68     		ldr	r3, [r7, #4]
 1329 021c 5A61     		str	r2, [r3, #20]
 469:.\DispenserSink.c ****                         pjob->_presponse = NULL;
 1330              		.loc 1 469 0
 1331 021e 7B68     		ldr	r3, [r7, #4]
 1332 0220 0022     		movs	r2, #0
 1333 0222 9A61     		str	r2, [r3, #24]
 1334 0224 1DE0     		b	.L47
 1335              	.L69:
 1336 0226 00BF     		.align	2
 1337              	.L68:
 1338 0228 00000000 		.word	_g_respctxt
 1339 022c 00000000 		.word	_g_pumpjobqueue
 1340 0230 0C000000 		.word	_g_respctxt+12
 1341              	.L64:
 470:.\DispenserSink.c ****                     }
 471:.\DispenserSink.c ****                 }
 472:.\DispenserSink.c ****                 else
 473:.\DispenserSink.c ****                 {
 474:.\DispenserSink.c ****                     //If none of the postconditions are met, then "Re-push" until there is a match
 475:.\DispenserSink.c ****                     //This is pretty useful for the "EOT" state since once the delivery starts, 
 476:.\DispenserSink.c ****                     //the transaction needs to wait for the "EOT" or "IDLE" condition on the pump.
 477:.\DispenserSink.c ****                     if(pjob->_repushtimeoutseed == 0x0000)
 1342              		.loc 1 477 0
 1343 0234 7B68     		ldr	r3, [r7, #4]
ARM GAS  C:\Users\RECEPC~1\AppData\Local\Temp\ccUYVmA0.s 			page 33


 1344 0236 5B89     		ldrh	r3, [r3, #10]	@ movhi
 1345 0238 9BB2     		uxth	r3, r3
 1346 023a 002B     		cmp	r3, #0
 1347 023c 05D1     		bne	.L67
 478:.\DispenserSink.c ****                         pjob->_repushtimeoutseed = Timer_DispenserState_ReadCounter();
 1348              		.loc 1 478 0
 1349 023e FFF7FEFF 		bl	Timer_DispenserState_ReadCounter
 1350 0242 0346     		mov	r3, r0
 1351 0244 1A46     		mov	r2, r3
 1352 0246 7B68     		ldr	r3, [r7, #4]
 1353 0248 5A81     		strh	r2, [r3, #10]	@ movhi
 1354              	.L67:
 479:.\DispenserSink.c **** 
 480:.\DispenserSink.c ****                     //This pointer is NULL but just for the sake of clarity
 481:.\DispenserSink.c ****                     pjob->_prequest = pjob->_presponse;
 1355              		.loc 1 481 0
 1356 024a 7B68     		ldr	r3, [r7, #4]
 1357 024c 9A69     		ldr	r2, [r3, #24]
 1358 024e 7B68     		ldr	r3, [r7, #4]
 1359 0250 5A61     		str	r2, [r3, #20]
 482:.\DispenserSink.c ****                     pjob->_presponse = PNEAR_NULLPTR;
 1360              		.loc 1 482 0
 1361 0252 7B68     		ldr	r3, [r7, #4]
 1362 0254 0022     		movs	r2, #0
 1363 0256 9A61     		str	r2, [r3, #24]
 483:.\DispenserSink.c ****                     _g_pumpjobqueue.Rotate(&_g_pumpjobqueue);
 1364              		.loc 1 483 0
 1365 0258 104B     		ldr	r3, .L70
 1366 025a D3F84438 		ldr	r3, [r3, #2116]
 1367 025e 0F48     		ldr	r0, .L70
 1368 0260 9847     		blx	r3
 1369              	.L47:
 1370              	.LBE6:
 484:.\DispenserSink.c **** 
 485:.\DispenserSink.c ****                 }
 486:.\DispenserSink.c ****             }
 487:.\DispenserSink.c ****         }
 488:.\DispenserSink.c ****     }
 489:.\DispenserSink.c ****     //CHANGE BY HIJH
 490:.\DispenserSink.c ****     //NOV 18 2016
 491:.\DispenserSink.c ****     //PLACEMENT OF THIS BLOCK OUT OF THE MAIN IF
 492:.\DispenserSink.c ****     _g_respctxt._bufferready = false;
 1371              		.loc 1 492 0
 1372 0262 0F4B     		ldr	r3, .L70+4
 1373 0264 0022     		movs	r2, #0
 1374 0266 1A71     		strb	r2, [r3, #4]
 493:.\DispenserSink.c ****     _g_respctxt._responsesize = 0x00;
 1375              		.loc 1 493 0
 1376 0268 0D4B     		ldr	r3, .L70+4
 1377 026a 0022     		movs	r2, #0
 1378 026c DA80     		strh	r2, [r3, #6]	@ movhi
 494:.\DispenserSink.c ****     memset(_g_respctxt._rxbuffer, 0x00, 512);
 1379              		.loc 1 494 0
 1380 026e 0D48     		ldr	r0, .L70+8
 1381 0270 0021     		movs	r1, #0
 1382 0272 4FF40072 		mov	r2, #512
 1383 0276 FFF7FEFF 		bl	memset
ARM GAS  C:\Users\RECEPC~1\AppData\Local\Temp\ccUYVmA0.s 			page 34


 495:.\DispenserSink.c ****     memset(pjob->_ppump->_rxbuffer, 0x00, _PUMP_RX_BUFFER_SIZE_);
 1384              		.loc 1 495 0
 1385 027a 7B68     		ldr	r3, [r7, #4]
 1386 027c DB69     		ldr	r3, [r3, #28]
 1387 027e 03F5D073 		add	r3, r3, #416
 1388 0282 1846     		mov	r0, r3
 1389 0284 0021     		movs	r1, #0
 1390 0286 4FF4C072 		mov	r2, #384
 1391 028a FFF7FEFF 		bl	memset
 496:.\DispenserSink.c ****     
 497:.\DispenserSink.c ****     Dispenser_ClearRxBuffer();
 1392              		.loc 1 497 0
 1393 028e FFF7FEFF 		bl	Dispenser_ClearRxBuffer
 498:.\DispenserSink.c ****     Dispenser_Enable();
 1394              		.loc 1 498 0
 1395 0292 FFF7FEFF 		bl	Dispenser_Enable
 1396              	.L44:
 499:.\DispenserSink.c **** }
 1397              		.loc 1 499 0
 1398 0296 0837     		adds	r7, r7, #8
 1399              		.cfi_def_cfa_offset 8
 1400 0298 BD46     		mov	sp, r7
 1401              		.cfi_def_cfa_register 13
 1402              		@ sp needed
 1403 029a 80BD     		pop	{r7, pc}
 1404              	.L71:
 1405              		.align	2
 1406              	.L70:
 1407 029c 00000000 		.word	_g_pumpjobqueue
 1408 02a0 00000000 		.word	_g_respctxt
 1409 02a4 0C000000 		.word	_g_respctxt+12
 1410              		.cfi_endproc
 1411              	.LFE66:
 1412              		.size	DispenserDataReceptionHandler, .-DispenserDataReceptionHandler
 1413              		.section	.text.DispenserUpdateTimeouts,"ax",%progbits
 1414              		.align	2
 1415              		.global	DispenserUpdateTimeouts
 1416              		.thumb
 1417              		.thumb_func
 1418              		.type	DispenserUpdateTimeouts, %function
 1419              	DispenserUpdateTimeouts:
 1420              	.LFB67:
 500:.\DispenserSink.c **** 
 501:.\DispenserSink.c **** //This updater is invoked every millisecond, so the multiplier counts per elapsed millisecond
 502:.\DispenserSink.c **** void DispenserUpdateTimeouts(void *pparam)
 503:.\DispenserSink.c **** {
 1421              		.loc 1 503 0
 1422              		.cfi_startproc
 1423              		@ args = 0, pretend = 0, frame = 16
 1424              		@ frame_needed = 1, uses_anonymous_args = 0
 1425 0000 80B5     		push	{r7, lr}
 1426              		.cfi_def_cfa_offset 8
 1427              		.cfi_offset 7, -8
 1428              		.cfi_offset 14, -4
 1429 0002 84B0     		sub	sp, sp, #16
 1430              		.cfi_def_cfa_offset 24
 1431 0004 00AF     		add	r7, sp, #0
ARM GAS  C:\Users\RECEPC~1\AppData\Local\Temp\ccUYVmA0.s 			page 35


 1432              		.cfi_def_cfa_register 7
 1433 0006 7860     		str	r0, [r7, #4]
 504:.\DispenserSink.c ****     _g_dispenserupdatetimeoutmultiplier++;
 1434              		.loc 1 504 0
 1435 0008 1B4B     		ldr	r3, .L75
 1436 000a 1B88     		ldrh	r3, [r3]
 1437 000c 0133     		adds	r3, r3, #1
 1438 000e 9AB2     		uxth	r2, r3
 1439 0010 194B     		ldr	r3, .L75
 1440 0012 1A80     		strh	r2, [r3]	@ movhi
 505:.\DispenserSink.c ****     //Update of the transaction timeouts every 10 milliseconds
 506:.\DispenserSink.c ****         
 507:.\DispenserSink.c ****     PPUMPTRANSACTIONJOBCONTEXTPTR pjob = _g_pumpjobqueue.Peek(&_g_pumpjobqueue);
 1441              		.loc 1 507 0
 1442 0014 194B     		ldr	r3, .L75+4
 1443 0016 D3F85038 		ldr	r3, [r3, #2128]
 1444 001a 1848     		ldr	r0, .L75+4
 1445 001c 9847     		blx	r3
 1446 001e F860     		str	r0, [r7, #12]
 508:.\DispenserSink.c ****     if(pjob && pjob->_presponse)
 1447              		.loc 1 508 0
 1448 0020 FB68     		ldr	r3, [r7, #12]
 1449 0022 002B     		cmp	r3, #0
 1450 0024 1BD0     		beq	.L73
 1451              		.loc 1 508 0 is_stmt 0 discriminator 1
 1452 0026 FB68     		ldr	r3, [r7, #12]
 1453 0028 9B69     		ldr	r3, [r3, #24]
 1454 002a 002B     		cmp	r3, #0
 1455 002c 17D0     		beq	.L73
 509:.\DispenserSink.c ****     {
 510:.\DispenserSink.c ****         if(pjob->_presponse->_responsetimeoutlimit != _NO_TIMEOUT_)
 1456              		.loc 1 510 0 is_stmt 1
 1457 002e FB68     		ldr	r3, [r7, #12]
 1458 0030 9B69     		ldr	r3, [r3, #24]
 1459 0032 1B8A     		ldrh	r3, [r3, #16]
 1460 0034 002B     		cmp	r3, #0
 1461 0036 06D0     		beq	.L74
 511:.\DispenserSink.c ****             pjob->_timeoutmultiplier++;
 1462              		.loc 1 511 0
 1463 0038 FB68     		ldr	r3, [r7, #12]
 1464 003a 5B8A     		ldrh	r3, [r3, #18]	@ movhi
 1465 003c 9BB2     		uxth	r3, r3
 1466 003e 0133     		adds	r3, r3, #1
 1467 0040 9AB2     		uxth	r2, r3
 1468 0042 FB68     		ldr	r3, [r7, #12]
 1469 0044 5A82     		strh	r2, [r3, #18]	@ movhi
 1470              	.L74:
 512:.\DispenserSink.c ****             
 513:.\DispenserSink.c ****         if(pjob->_presponse->_repushtimeoutlimit != _NO_TIMEOUT_)
 1471              		.loc 1 513 0
 1472 0046 FB68     		ldr	r3, [r7, #12]
 1473 0048 9B69     		ldr	r3, [r3, #24]
 1474 004a 5B69     		ldr	r3, [r3, #20]
 1475 004c 002B     		cmp	r3, #0
 1476 004e 06D0     		beq	.L73
 514:.\DispenserSink.c ****             pjob->_repushtimeoutmultiplier++;
 1477              		.loc 1 514 0
ARM GAS  C:\Users\RECEPC~1\AppData\Local\Temp\ccUYVmA0.s 			page 36


 1478 0050 FB68     		ldr	r3, [r7, #12]
 1479 0052 9B89     		ldrh	r3, [r3, #12]	@ movhi
 1480 0054 9BB2     		uxth	r3, r3
 1481 0056 0133     		adds	r3, r3, #1
 1482 0058 9AB2     		uxth	r2, r3
 1483 005a FB68     		ldr	r3, [r7, #12]
 1484 005c 9A81     		strh	r2, [r3, #12]	@ movhi
 1485              	.L73:
 515:.\DispenserSink.c ****     }
 516:.\DispenserSink.c ****         
 517:.\DispenserSink.c ****     _g_dispenserupdatetimeout = Timer_DispenserState_ReadCounter();
 1486              		.loc 1 517 0
 1487 005e FFF7FEFF 		bl	Timer_DispenserState_ReadCounter
 1488 0062 0346     		mov	r3, r0
 1489 0064 1A46     		mov	r2, r3
 1490 0066 064B     		ldr	r3, .L75+8
 1491 0068 1A80     		strh	r2, [r3]	@ movhi
 518:.\DispenserSink.c ****     _g_dispenserupdatetimeoutmultiplier = 0x0000;   
 1492              		.loc 1 518 0
 1493 006a 034B     		ldr	r3, .L75
 1494 006c 0022     		movs	r2, #0
 1495 006e 1A80     		strh	r2, [r3]	@ movhi
 519:.\DispenserSink.c **** }
 1496              		.loc 1 519 0
 1497 0070 1037     		adds	r7, r7, #16
 1498              		.cfi_def_cfa_offset 8
 1499 0072 BD46     		mov	sp, r7
 1500              		.cfi_def_cfa_register 13
 1501              		@ sp needed
 1502 0074 80BD     		pop	{r7, pc}
 1503              	.L76:
 1504 0076 00BF     		.align	2
 1505              	.L75:
 1506 0078 00000000 		.word	_g_dispenserupdatetimeoutmultiplier
 1507 007c 00000000 		.word	_g_pumpjobqueue
 1508 0080 00000000 		.word	_g_dispenserupdatetimeout
 1509              		.cfi_endproc
 1510              	.LFE67:
 1511              		.size	DispenserUpdateTimeouts, .-DispenserUpdateTimeouts
 1512              		.text
 1513              	.Letext0:
 1514              		.file 2 "c:\\program files (x86)\\cypress\\psoc creator\\3.3\\psoc creator\\import\\gnu\\arm\\4.9.
 1515              		.file 3 "c:\\program files (x86)\\cypress\\psoc creator\\3.3\\psoc creator\\import\\gnu\\arm\\4.9.
 1516              		.file 4 "Generated_Source\\PSoC5/cytypes.h"
 1517              		.file 5 ".\\SinkManager.h"
 1518              		.file 6 ".\\SinkObservables.h"
 1519              		.file 7 ".\\Advantage.h"
 1520              		.file 8 "Generated_Source\\PSoC5/core_cm3.h"
 1521              		.section	.debug_info,"",%progbits
 1522              	.Ldebug_info0:
 1523 0000 EF0C0000 		.4byte	0xcef
 1524 0004 0400     		.2byte	0x4
 1525 0006 00000000 		.4byte	.Ldebug_abbrev0
 1526 000a 04       		.byte	0x4
 1527 000b 01       		.uleb128 0x1
 1528 000c 83070000 		.4byte	.LASF217
 1529 0010 01       		.byte	0x1
ARM GAS  C:\Users\RECEPC~1\AppData\Local\Temp\ccUYVmA0.s 			page 37


 1530 0011 11060000 		.4byte	.LASF218
 1531 0015 1C090000 		.4byte	.LASF219
 1532 0019 00000000 		.4byte	.Ldebug_ranges0+0
 1533 001d 00000000 		.4byte	0
 1534 0021 00000000 		.4byte	.Ldebug_line0
 1535 0025 02       		.uleb128 0x2
 1536 0026 01       		.byte	0x1
 1537 0027 06       		.byte	0x6
 1538 0028 12020000 		.4byte	.LASF0
 1539 002c 02       		.uleb128 0x2
 1540 002d 01       		.byte	0x1
 1541 002e 08       		.byte	0x8
 1542 002f 89090000 		.4byte	.LASF1
 1543 0033 02       		.uleb128 0x2
 1544 0034 02       		.byte	0x2
 1545 0035 05       		.byte	0x5
 1546 0036 DD050000 		.4byte	.LASF2
 1547 003a 02       		.uleb128 0x2
 1548 003b 02       		.byte	0x2
 1549 003c 07       		.byte	0x7
 1550 003d 16050000 		.4byte	.LASF3
 1551 0041 03       		.uleb128 0x3
 1552 0042 210C0000 		.4byte	.LASF9
 1553 0046 02       		.byte	0x2
 1554 0047 3F       		.byte	0x3f
 1555 0048 4C000000 		.4byte	0x4c
 1556 004c 02       		.uleb128 0x2
 1557 004d 04       		.byte	0x4
 1558 004e 05       		.byte	0x5
 1559 004f AD020000 		.4byte	.LASF4
 1560 0053 02       		.uleb128 0x2
 1561 0054 04       		.byte	0x4
 1562 0055 07       		.byte	0x7
 1563 0056 AC0B0000 		.4byte	.LASF5
 1564 005a 02       		.uleb128 0x2
 1565 005b 08       		.byte	0x8
 1566 005c 05       		.byte	0x5
 1567 005d 04020000 		.4byte	.LASF6
 1568 0061 02       		.uleb128 0x2
 1569 0062 08       		.byte	0x8
 1570 0063 07       		.byte	0x7
 1571 0064 01010000 		.4byte	.LASF7
 1572 0068 04       		.uleb128 0x4
 1573 0069 04       		.byte	0x4
 1574 006a 05       		.byte	0x5
 1575 006b 696E7400 		.ascii	"int\000"
 1576 006f 02       		.uleb128 0x2
 1577 0070 04       		.byte	0x4
 1578 0071 07       		.byte	0x7
 1579 0072 0C040000 		.4byte	.LASF8
 1580 0076 03       		.uleb128 0x3
 1581 0077 81090000 		.4byte	.LASF10
 1582 007b 03       		.byte	0x3
 1583 007c 2C       		.byte	0x2c
 1584 007d 41000000 		.4byte	0x41
 1585 0081 05       		.uleb128 0x5
 1586 0082 F0040000 		.4byte	.LASF11
ARM GAS  C:\Users\RECEPC~1\AppData\Local\Temp\ccUYVmA0.s 			page 38


 1587 0086 04       		.byte	0x4
 1588 0087 3801     		.2byte	0x138
 1589 0089 2C000000 		.4byte	0x2c
 1590 008d 05       		.uleb128 0x5
 1591 008e E10D0000 		.4byte	.LASF12
 1592 0092 04       		.byte	0x4
 1593 0093 3901     		.2byte	0x139
 1594 0095 3A000000 		.4byte	0x3a
 1595 0099 05       		.uleb128 0x5
 1596 009a 38030000 		.4byte	.LASF13
 1597 009e 04       		.byte	0x4
 1598 009f 3A01     		.2byte	0x13a
 1599 00a1 53000000 		.4byte	0x53
 1600 00a5 05       		.uleb128 0x5
 1601 00a6 84020000 		.4byte	.LASF14
 1602 00aa 04       		.byte	0x4
 1603 00ab 3D01     		.2byte	0x13d
 1604 00ad 4C000000 		.4byte	0x4c
 1605 00b1 02       		.uleb128 0x2
 1606 00b2 04       		.byte	0x4
 1607 00b3 04       		.byte	0x4
 1608 00b4 DB0D0000 		.4byte	.LASF15
 1609 00b8 02       		.uleb128 0x2
 1610 00b9 08       		.byte	0x8
 1611 00ba 04       		.byte	0x4
 1612 00bb 04030000 		.4byte	.LASF16
 1613 00bf 05       		.uleb128 0x5
 1614 00c0 EA090000 		.4byte	.LASF17
 1615 00c4 04       		.byte	0x4
 1616 00c5 4401     		.2byte	0x144
 1617 00c7 61000000 		.4byte	0x61
 1618 00cb 05       		.uleb128 0x5
 1619 00cc 2B0C0000 		.4byte	.LASF18
 1620 00d0 04       		.byte	0x4
 1621 00d1 4901     		.2byte	0x149
 1622 00d3 D7000000 		.4byte	0xd7
 1623 00d7 02       		.uleb128 0x2
 1624 00d8 01       		.byte	0x1
 1625 00d9 08       		.byte	0x8
 1626 00da CA0B0000 		.4byte	.LASF19
 1627 00de 06       		.uleb128 0x6
 1628 00df 81000000 		.4byte	0x81
 1629 00e3 06       		.uleb128 0x6
 1630 00e4 8D000000 		.4byte	0x8d
 1631 00e8 06       		.uleb128 0x6
 1632 00e9 99000000 		.4byte	0x99
 1633 00ed 02       		.uleb128 0x2
 1634 00ee 04       		.byte	0x4
 1635 00ef 07       		.byte	0x7
 1636 00f0 7C060000 		.4byte	.LASF20
 1637 00f4 07       		.uleb128 0x7
 1638 00f5 04       		.byte	0x4
 1639 00f6 08       		.uleb128 0x8
 1640 00f7 81000000 		.4byte	0x81
 1641 00fb 06010000 		.4byte	0x106
 1642 00ff 09       		.uleb128 0x9
 1643 0100 ED000000 		.4byte	0xed
ARM GAS  C:\Users\RECEPC~1\AppData\Local\Temp\ccUYVmA0.s 			page 39


 1644 0104 03       		.byte	0x3
 1645 0105 00       		.byte	0
 1646 0106 02       		.uleb128 0x2
 1647 0107 08       		.byte	0x8
 1648 0108 04       		.byte	0x4
 1649 0109 91060000 		.4byte	.LASF21
 1650 010d 0A       		.uleb128 0xa
 1651 010e F7080000 		.4byte	.LASF30
 1652 0112 01       		.byte	0x1
 1653 0113 05       		.byte	0x5
 1654 0114 3D       		.byte	0x3d
 1655 0115 4A010000 		.4byte	0x14a
 1656 0119 0B       		.uleb128 0xb
 1657 011a 00000000 		.4byte	.LASF22
 1658 011e 01       		.sleb128 1
 1659 011f 0B       		.uleb128 0xb
 1660 0120 AD0D0000 		.4byte	.LASF23
 1661 0124 02       		.sleb128 2
 1662 0125 0B       		.uleb128 0xb
 1663 0126 49080000 		.4byte	.LASF24
 1664 012a 03       		.sleb128 3
 1665 012b 0B       		.uleb128 0xb
 1666 012c D00A0000 		.4byte	.LASF25
 1667 0130 04       		.sleb128 4
 1668 0131 0B       		.uleb128 0xb
 1669 0132 DE0A0000 		.4byte	.LASF26
 1670 0136 05       		.sleb128 5
 1671 0137 0B       		.uleb128 0xb
 1672 0138 5E040000 		.4byte	.LASF27
 1673 013c 06       		.sleb128 6
 1674 013d 0B       		.uleb128 0xb
 1675 013e 8A0C0000 		.4byte	.LASF28
 1676 0142 07       		.sleb128 7
 1677 0143 0B       		.uleb128 0xb
 1678 0144 46010000 		.4byte	.LASF29
 1679 0148 08       		.sleb128 8
 1680 0149 00       		.byte	0
 1681 014a 0A       		.uleb128 0xa
 1682 014b C4030000 		.4byte	.LASF31
 1683 014f 01       		.byte	0x1
 1684 0150 05       		.byte	0x5
 1685 0151 4A       		.byte	0x4a
 1686 0152 69010000 		.4byte	0x169
 1687 0156 0B       		.uleb128 0xb
 1688 0157 A6040000 		.4byte	.LASF32
 1689 015b 01       		.sleb128 1
 1690 015c 0B       		.uleb128 0xb
 1691 015d A9080000 		.4byte	.LASF33
 1692 0161 02       		.sleb128 2
 1693 0162 0B       		.uleb128 0xb
 1694 0163 31020000 		.4byte	.LASF34
 1695 0167 03       		.sleb128 3
 1696 0168 00       		.byte	0
 1697 0169 0C       		.uleb128 0xc
 1698 016a F90A0000 		.4byte	.LASF49
 1699 016e 9801     		.2byte	0x198
 1700 0170 05       		.byte	0x5
ARM GAS  C:\Users\RECEPC~1\AppData\Local\Temp\ccUYVmA0.s 			page 40


 1701 0171 51       		.byte	0x51
 1702 0172 0A020000 		.4byte	0x20a
 1703 0176 0D       		.uleb128 0xd
 1704 0177 1F070000 		.4byte	.LASF35
 1705 017b 05       		.byte	0x5
 1706 017c 53       		.byte	0x53
 1707 017d 0A020000 		.4byte	0x20a
 1708 0181 00       		.byte	0
 1709 0182 0D       		.uleb128 0xd
 1710 0183 9B040000 		.4byte	.LASF36
 1711 0187 05       		.byte	0x5
 1712 0188 54       		.byte	0x54
 1713 0189 DE000000 		.4byte	0xde
 1714 018d 01       		.byte	0x1
 1715 018e 0D       		.uleb128 0xd
 1716 018f AF000000 		.4byte	.LASF37
 1717 0193 05       		.byte	0x5
 1718 0194 55       		.byte	0x55
 1719 0195 DE000000 		.4byte	0xde
 1720 0199 02       		.byte	0x2
 1721 019a 0D       		.uleb128 0xd
 1722 019b 9B080000 		.4byte	.LASF38
 1723 019f 05       		.byte	0x5
 1724 01a0 56       		.byte	0x56
 1725 01a1 DE000000 		.4byte	0xde
 1726 01a5 03       		.byte	0x3
 1727 01a6 0D       		.uleb128 0xd
 1728 01a7 8D040000 		.4byte	.LASF39
 1729 01ab 05       		.byte	0x5
 1730 01ac 58       		.byte	0x58
 1731 01ad E3000000 		.4byte	0xe3
 1732 01b1 04       		.byte	0x4
 1733 01b2 0D       		.uleb128 0xd
 1734 01b3 A5050000 		.4byte	.LASF40
 1735 01b7 05       		.byte	0x5
 1736 01b8 59       		.byte	0x59
 1737 01b9 E3000000 		.4byte	0xe3
 1738 01bd 06       		.byte	0x6
 1739 01be 0D       		.uleb128 0xd
 1740 01bf AE060000 		.4byte	.LASF41
 1741 01c3 05       		.byte	0x5
 1742 01c4 5A       		.byte	0x5a
 1743 01c5 E3000000 		.4byte	0xe3
 1744 01c9 08       		.byte	0x8
 1745 01ca 0D       		.uleb128 0xd
 1746 01cb 160A0000 		.4byte	.LASF42
 1747 01cf 05       		.byte	0x5
 1748 01d0 5B       		.byte	0x5b
 1749 01d1 E3000000 		.4byte	0xe3
 1750 01d5 0A       		.byte	0xa
 1751 01d6 0D       		.uleb128 0xd
 1752 01d7 E2020000 		.4byte	.LASF43
 1753 01db 05       		.byte	0x5
 1754 01dc 5C       		.byte	0x5c
 1755 01dd 16020000 		.4byte	0x216
 1756 01e1 0C       		.byte	0xc
 1757 01e2 0E       		.uleb128 0xe
ARM GAS  C:\Users\RECEPC~1\AppData\Local\Temp\ccUYVmA0.s 			page 41


 1758 01e3 78020000 		.4byte	.LASF44
 1759 01e7 05       		.byte	0x5
 1760 01e8 5D       		.byte	0x5d
 1761 01e9 E3000000 		.4byte	0xe3
 1762 01ed 8C01     		.2byte	0x18c
 1763 01ef 0E       		.uleb128 0xe
 1764 01f0 BC000000 		.4byte	.LASF45
 1765 01f4 05       		.byte	0x5
 1766 01f5 60       		.byte	0x60
 1767 01f6 F4000000 		.4byte	0xf4
 1768 01fa 9001     		.2byte	0x190
 1769 01fc 0E       		.uleb128 0xe
 1770 01fd 910D0000 		.4byte	.LASF46
 1771 0201 05       		.byte	0x5
 1772 0202 61       		.byte	0x61
 1773 0203 32020000 		.4byte	0x232
 1774 0207 9401     		.2byte	0x194
 1775 0209 00       		.byte	0
 1776 020a 06       		.uleb128 0x6
 1777 020b 0F020000 		.4byte	0x20f
 1778 020f 02       		.uleb128 0x2
 1779 0210 01       		.byte	0x1
 1780 0211 02       		.byte	0x2
 1781 0212 7B090000 		.4byte	.LASF47
 1782 0216 08       		.uleb128 0x8
 1783 0217 CB000000 		.4byte	0xcb
 1784 021b 27020000 		.4byte	0x227
 1785 021f 0F       		.uleb128 0xf
 1786 0220 ED000000 		.4byte	0xed
 1787 0224 7F01     		.2byte	0x17f
 1788 0226 00       		.byte	0
 1789 0227 10       		.uleb128 0x10
 1790 0228 32020000 		.4byte	0x232
 1791 022c 11       		.uleb128 0x11
 1792 022d F4000000 		.4byte	0xf4
 1793 0231 00       		.byte	0
 1794 0232 12       		.uleb128 0x12
 1795 0233 04       		.byte	0x4
 1796 0234 27020000 		.4byte	0x227
 1797 0238 03       		.uleb128 0x3
 1798 0239 DD0B0000 		.4byte	.LASF48
 1799 023d 05       		.byte	0x5
 1800 023e 62       		.byte	0x62
 1801 023f 43020000 		.4byte	0x243
 1802 0243 12       		.uleb128 0x12
 1803 0244 04       		.byte	0x4
 1804 0245 69010000 		.4byte	0x169
 1805 0249 13       		.uleb128 0x13
 1806 024a 040A0000 		.4byte	.LASF50
 1807 024e 2C       		.byte	0x2c
 1808 024f 05       		.byte	0x5
 1809 0250 64       		.byte	0x64
 1810 0251 7A020000 		.4byte	0x27a
 1811 0255 0D       		.uleb128 0xd
 1812 0256 94020000 		.4byte	.LASF51
 1813 025a 05       		.byte	0x5
 1814 025b 66       		.byte	0x66
ARM GAS  C:\Users\RECEPC~1\AppData\Local\Temp\ccUYVmA0.s 			page 42


 1815 025c DE000000 		.4byte	0xde
 1816 0260 00       		.byte	0
 1817 0261 0D       		.uleb128 0xd
 1818 0262 8A020000 		.4byte	.LASF52
 1819 0266 05       		.byte	0x5
 1820 0267 68       		.byte	0x68
 1821 0268 7A020000 		.4byte	0x27a
 1822 026c 01       		.byte	0x1
 1823 026d 0D       		.uleb128 0xd
 1824 026e 910D0000 		.4byte	.LASF46
 1825 0272 05       		.byte	0x5
 1826 0273 69       		.byte	0x69
 1827 0274 8A020000 		.4byte	0x28a
 1828 0278 0C       		.byte	0xc
 1829 0279 00       		.byte	0
 1830 027a 08       		.uleb128 0x8
 1831 027b 81000000 		.4byte	0x81
 1832 027f 8A020000 		.4byte	0x28a
 1833 0283 09       		.uleb128 0x9
 1834 0284 ED000000 		.4byte	0xed
 1835 0288 07       		.byte	0x7
 1836 0289 00       		.byte	0
 1837 028a 08       		.uleb128 0x8
 1838 028b 32020000 		.4byte	0x232
 1839 028f 9A020000 		.4byte	0x29a
 1840 0293 09       		.uleb128 0x9
 1841 0294 ED000000 		.4byte	0xed
 1842 0298 07       		.byte	0x7
 1843 0299 00       		.byte	0
 1844 029a 03       		.uleb128 0x3
 1845 029b F0060000 		.4byte	.LASF53
 1846 029f 05       		.byte	0x5
 1847 02a0 6A       		.byte	0x6a
 1848 02a1 A5020000 		.4byte	0x2a5
 1849 02a5 12       		.uleb128 0x12
 1850 02a6 04       		.byte	0x4
 1851 02a7 49020000 		.4byte	0x249
 1852 02ab 0A       		.uleb128 0xa
 1853 02ac 1E020000 		.4byte	.LASF54
 1854 02b0 01       		.byte	0x1
 1855 02b1 06       		.byte	0x6
 1856 02b2 0F       		.byte	0xf
 1857 02b3 A2030000 		.4byte	0x3a2
 1858 02b7 0B       		.uleb128 0xb
 1859 02b8 F90C0000 		.4byte	.LASF55
 1860 02bc 01       		.sleb128 1
 1861 02bd 0B       		.uleb128 0xb
 1862 02be FF030000 		.4byte	.LASF56
 1863 02c2 02       		.sleb128 2
 1864 02c3 0B       		.uleb128 0xb
 1865 02c4 18010000 		.4byte	.LASF57
 1866 02c8 03       		.sleb128 3
 1867 02c9 0B       		.uleb128 0xb
 1868 02ca EC000000 		.4byte	.LASF58
 1869 02ce 04       		.sleb128 4
 1870 02cf 0B       		.uleb128 0xb
 1871 02d0 B70D0000 		.4byte	.LASF59
ARM GAS  C:\Users\RECEPC~1\AppData\Local\Temp\ccUYVmA0.s 			page 43


 1872 02d4 05       		.sleb128 5
 1873 02d5 0B       		.uleb128 0xb
 1874 02d6 FD050000 		.4byte	.LASF60
 1875 02da 06       		.sleb128 6
 1876 02db 0B       		.uleb128 0xb
 1877 02dc 5C0A0000 		.4byte	.LASF61
 1878 02e0 07       		.sleb128 7
 1879 02e1 0B       		.uleb128 0xb
 1880 02e2 B80A0000 		.4byte	.LASF62
 1881 02e6 08       		.sleb128 8
 1882 02e7 0B       		.uleb128 0xb
 1883 02e8 C0080000 		.4byte	.LASF63
 1884 02ec 09       		.sleb128 9
 1885 02ed 0B       		.uleb128 0xb
 1886 02ee B00C0000 		.4byte	.LASF64
 1887 02f2 0A       		.sleb128 10
 1888 02f3 0B       		.uleb128 0xb
 1889 02f4 67050000 		.4byte	.LASF65
 1890 02f8 0B       		.sleb128 11
 1891 02f9 0B       		.uleb128 0xb
 1892 02fa DD010000 		.4byte	.LASF66
 1893 02fe 0C       		.sleb128 12
 1894 02ff 0B       		.uleb128 0xb
 1895 0300 080B0000 		.4byte	.LASF67
 1896 0304 0D       		.sleb128 13
 1897 0305 0B       		.uleb128 0xb
 1898 0306 1E0D0000 		.4byte	.LASF68
 1899 030a 0E       		.sleb128 14
 1900 030b 0B       		.uleb128 0xb
 1901 030c 68070000 		.4byte	.LASF69
 1902 0310 0F       		.sleb128 15
 1903 0311 0B       		.uleb128 0xb
 1904 0312 600C0000 		.4byte	.LASF70
 1905 0316 10       		.sleb128 16
 1906 0317 0B       		.uleb128 0xb
 1907 0318 3F030000 		.4byte	.LASF71
 1908 031c 11       		.sleb128 17
 1909 031d 0B       		.uleb128 0xb
 1910 031e 870A0000 		.4byte	.LASF72
 1911 0322 12       		.sleb128 18
 1912 0323 0B       		.uleb128 0xb
 1913 0324 B5050000 		.4byte	.LASF73
 1914 0328 13       		.sleb128 19
 1915 0329 0B       		.uleb128 0xb
 1916 032a 92030000 		.4byte	.LASF74
 1917 032e 14       		.sleb128 20
 1918 032f 0B       		.uleb128 0xb
 1919 0330 E2060000 		.4byte	.LASF75
 1920 0334 15       		.sleb128 21
 1921 0335 0B       		.uleb128 0xb
 1922 0336 2D000000 		.4byte	.LASF76
 1923 033a 16       		.sleb128 22
 1924 033b 0B       		.uleb128 0xb
 1925 033c 19040000 		.4byte	.LASF77
 1926 0340 17       		.sleb128 23
 1927 0341 0B       		.uleb128 0xb
 1928 0342 8D010000 		.4byte	.LASF78
ARM GAS  C:\Users\RECEPC~1\AppData\Local\Temp\ccUYVmA0.s 			page 44


 1929 0346 18       		.sleb128 24
 1930 0347 0B       		.uleb128 0xb
 1931 0348 82050000 		.4byte	.LASF79
 1932 034c 19       		.sleb128 25
 1933 034d 0B       		.uleb128 0xb
 1934 034e A2010000 		.4byte	.LASF80
 1935 0352 1A       		.sleb128 26
 1936 0353 0B       		.uleb128 0xb
 1937 0354 030C0000 		.4byte	.LASF81
 1938 0358 1B       		.sleb128 27
 1939 0359 0B       		.uleb128 0xb
 1940 035a CC050000 		.4byte	.LASF82
 1941 035e 1C       		.sleb128 28
 1942 035f 0B       		.uleb128 0xb
 1943 0360 27040000 		.4byte	.LASF83
 1944 0364 1D       		.sleb128 29
 1945 0365 0B       		.uleb128 0xb
 1946 0366 66060000 		.4byte	.LASF84
 1947 036a 1E       		.sleb128 30
 1948 036b 0B       		.uleb128 0xb
 1949 036c 45060000 		.4byte	.LASF85
 1950 0370 1F       		.sleb128 31
 1951 0371 0B       		.uleb128 0xb
 1952 0372 7A080000 		.4byte	.LASF86
 1953 0376 20       		.sleb128 32
 1954 0377 0B       		.uleb128 0xb
 1955 0378 780D0000 		.4byte	.LASF87
 1956 037c 21       		.sleb128 33
 1957 037d 0B       		.uleb128 0xb
 1958 037e 40040000 		.4byte	.LASF88
 1959 0382 22       		.sleb128 34
 1960 0383 0B       		.uleb128 0xb
 1961 0384 9B0C0000 		.4byte	.LASF89
 1962 0388 23       		.sleb128 35
 1963 0389 0B       		.uleb128 0xb
 1964 038a 19030000 		.4byte	.LASF90
 1965 038e 24       		.sleb128 36
 1966 038f 0B       		.uleb128 0xb
 1967 0390 2B0A0000 		.4byte	.LASF91
 1968 0394 25       		.sleb128 37
 1969 0395 0B       		.uleb128 0xb
 1970 0396 70040000 		.4byte	.LASF92
 1971 039a 26       		.sleb128 38
 1972 039b 0B       		.uleb128 0xb
 1973 039c 7C0B0000 		.4byte	.LASF93
 1974 03a0 27       		.sleb128 39
 1975 03a1 00       		.byte	0
 1976 03a2 14       		.uleb128 0x14
 1977 03a3 0401     		.2byte	0x104
 1978 03a5 07       		.byte	0x7
 1979 03a6 1801     		.2byte	0x118
 1980 03a8 E2030000 		.4byte	0x3e2
 1981 03ac 15       		.uleb128 0x15
 1982 03ad 94020000 		.4byte	.LASF51
 1983 03b1 07       		.byte	0x7
 1984 03b2 1A01     		.2byte	0x11a
 1985 03b4 81000000 		.4byte	0x81
ARM GAS  C:\Users\RECEPC~1\AppData\Local\Temp\ccUYVmA0.s 			page 45


 1986 03b8 00       		.byte	0
 1987 03b9 15       		.uleb128 0x15
 1988 03ba 7A030000 		.4byte	.LASF94
 1989 03be 07       		.byte	0x7
 1990 03bf 1B01     		.2byte	0x11b
 1991 03c1 81000000 		.4byte	0x81
 1992 03c5 01       		.byte	0x1
 1993 03c6 15       		.uleb128 0x15
 1994 03c7 E2020000 		.4byte	.LASF43
 1995 03cb 07       		.byte	0x7
 1996 03cc 1C01     		.2byte	0x11c
 1997 03ce E2030000 		.4byte	0x3e2
 1998 03d2 02       		.byte	0x2
 1999 03d3 16       		.uleb128 0x16
 2000 03d4 78020000 		.4byte	.LASF44
 2001 03d8 07       		.byte	0x7
 2002 03d9 1D01     		.2byte	0x11d
 2003 03db 8D000000 		.4byte	0x8d
 2004 03df 0201     		.2byte	0x102
 2005 03e1 00       		.byte	0
 2006 03e2 08       		.uleb128 0x8
 2007 03e3 D7000000 		.4byte	0xd7
 2008 03e7 F2030000 		.4byte	0x3f2
 2009 03eb 09       		.uleb128 0x9
 2010 03ec ED000000 		.4byte	0xed
 2011 03f0 FF       		.byte	0xff
 2012 03f1 00       		.byte	0
 2013 03f2 05       		.uleb128 0x5
 2014 03f3 11080000 		.4byte	.LASF95
 2015 03f7 07       		.byte	0x7
 2016 03f8 1F01     		.2byte	0x11f
 2017 03fa A2030000 		.4byte	0x3a2
 2018 03fe 05       		.uleb128 0x5
 2019 03ff 310C0000 		.4byte	.LASF96
 2020 0403 07       		.byte	0x7
 2021 0404 1F01     		.2byte	0x11f
 2022 0406 0A040000 		.4byte	0x40a
 2023 040a 12       		.uleb128 0x12
 2024 040b 04       		.byte	0x4
 2025 040c A2030000 		.4byte	0x3a2
 2026 0410 17       		.uleb128 0x17
 2027 0411 40       		.byte	0x40
 2028 0412 07       		.byte	0x7
 2029 0413 2101     		.2byte	0x121
 2030 0415 B6040000 		.4byte	0x4b6
 2031 0419 15       		.uleb128 0x15
 2032 041a 4C0B0000 		.4byte	.LASF97
 2033 041e 07       		.byte	0x7
 2034 041f 2301     		.2byte	0x123
 2035 0421 DE000000 		.4byte	0xde
 2036 0425 00       		.byte	0
 2037 0426 15       		.uleb128 0x15
 2038 0427 520B0000 		.4byte	.LASF98
 2039 042b 07       		.byte	0x7
 2040 042c 2401     		.2byte	0x124
 2041 042e DE000000 		.4byte	0xde
 2042 0432 01       		.byte	0x1
ARM GAS  C:\Users\RECEPC~1\AppData\Local\Temp\ccUYVmA0.s 			page 46


 2043 0433 15       		.uleb128 0x15
 2044 0434 580B0000 		.4byte	.LASF99
 2045 0438 07       		.byte	0x7
 2046 0439 2601     		.2byte	0x126
 2047 043b E3000000 		.4byte	0xe3
 2048 043f 02       		.byte	0x2
 2049 0440 15       		.uleb128 0x15
 2050 0441 5E0B0000 		.4byte	.LASF100
 2051 0445 07       		.byte	0x7
 2052 0446 2701     		.2byte	0x127
 2053 0448 E3000000 		.4byte	0xe3
 2054 044c 04       		.byte	0x4
 2055 044d 15       		.uleb128 0x15
 2056 044e 640B0000 		.4byte	.LASF101
 2057 0452 07       		.byte	0x7
 2058 0453 2901     		.2byte	0x129
 2059 0455 E8000000 		.4byte	0xe8
 2060 0459 08       		.byte	0x8
 2061 045a 15       		.uleb128 0x15
 2062 045b F1090000 		.4byte	.LASF102
 2063 045f 07       		.byte	0x7
 2064 0460 2A01     		.2byte	0x12a
 2065 0462 E8000000 		.4byte	0xe8
 2066 0466 0C       		.byte	0xc
 2067 0467 15       		.uleb128 0x15
 2068 0468 760B0000 		.4byte	.LASF103
 2069 046c 07       		.byte	0x7
 2070 046d 2F01     		.2byte	0x12f
 2071 046f B6040000 		.4byte	0x4b6
 2072 0473 10       		.byte	0x10
 2073 0474 15       		.uleb128 0x15
 2074 0475 19070000 		.4byte	.LASF104
 2075 0479 07       		.byte	0x7
 2076 047a 3001     		.2byte	0x130
 2077 047c B6040000 		.4byte	0x4b6
 2078 0480 18       		.byte	0x18
 2079 0481 15       		.uleb128 0x15
 2080 0482 8D0B0000 		.4byte	.LASF105
 2081 0486 07       		.byte	0x7
 2082 0487 3101     		.2byte	0x131
 2083 0489 B6040000 		.4byte	0x4b6
 2084 048d 20       		.byte	0x20
 2085 048e 15       		.uleb128 0x15
 2086 048f 930B0000 		.4byte	.LASF106
 2087 0493 07       		.byte	0x7
 2088 0494 3201     		.2byte	0x132
 2089 0496 B6040000 		.4byte	0x4b6
 2090 049a 28       		.byte	0x28
 2091 049b 15       		.uleb128 0x15
 2092 049c F30A0000 		.4byte	.LASF107
 2093 04a0 07       		.byte	0x7
 2094 04a1 3401     		.2byte	0x134
 2095 04a3 BB040000 		.4byte	0x4bb
 2096 04a7 30       		.byte	0x30
 2097 04a8 15       		.uleb128 0x15
 2098 04a9 CF0B0000 		.4byte	.LASF108
 2099 04ad 07       		.byte	0x7
ARM GAS  C:\Users\RECEPC~1\AppData\Local\Temp\ccUYVmA0.s 			page 47


 2100 04ae 3501     		.2byte	0x135
 2101 04b0 BB040000 		.4byte	0x4bb
 2102 04b4 38       		.byte	0x38
 2103 04b5 00       		.byte	0
 2104 04b6 06       		.uleb128 0x6
 2105 04b7 BF000000 		.4byte	0xbf
 2106 04bb 06       		.uleb128 0x6
 2107 04bc B8000000 		.4byte	0xb8
 2108 04c0 05       		.uleb128 0x5
 2109 04c1 28080000 		.4byte	.LASF109
 2110 04c5 07       		.byte	0x7
 2111 04c6 3701     		.2byte	0x137
 2112 04c8 10040000 		.4byte	0x410
 2113 04cc 17       		.uleb128 0x17
 2114 04cd 18       		.byte	0x18
 2115 04ce 07       		.byte	0x7
 2116 04cf 3F01     		.2byte	0x13f
 2117 04d1 31050000 		.4byte	0x531
 2118 04d5 15       		.uleb128 0x15
 2119 04d6 4A0D0000 		.4byte	.LASF110
 2120 04da 07       		.byte	0x7
 2121 04db 4201     		.2byte	0x142
 2122 04dd 0A020000 		.4byte	0x20a
 2123 04e1 00       		.byte	0
 2124 04e2 15       		.uleb128 0x15
 2125 04e3 CF0D0000 		.4byte	.LASF111
 2126 04e7 07       		.byte	0x7
 2127 04e8 4301     		.2byte	0x143
 2128 04ea DE000000 		.4byte	0xde
 2129 04ee 01       		.byte	0x1
 2130 04ef 15       		.uleb128 0x15
 2131 04f0 FC010000 		.4byte	.LASF112
 2132 04f4 07       		.byte	0x7
 2133 04f5 4401     		.2byte	0x144
 2134 04f7 DE000000 		.4byte	0xde
 2135 04fb 02       		.byte	0x2
 2136 04fc 15       		.uleb128 0x15
 2137 04fd A90C0000 		.4byte	.LASF113
 2138 0501 07       		.byte	0x7
 2139 0502 4501     		.2byte	0x145
 2140 0504 E3000000 		.4byte	0xe3
 2141 0508 04       		.byte	0x4
 2142 0509 15       		.uleb128 0x15
 2143 050a CB000000 		.4byte	.LASF114
 2144 050e 07       		.byte	0x7
 2145 050f 4601     		.2byte	0x146
 2146 0511 E8000000 		.4byte	0xe8
 2147 0515 08       		.byte	0x8
 2148 0516 15       		.uleb128 0x15
 2149 0517 58060000 		.4byte	.LASF115
 2150 051b 07       		.byte	0x7
 2151 051c 4701     		.2byte	0x147
 2152 051e E8000000 		.4byte	0xe8
 2153 0522 0C       		.byte	0xc
 2154 0523 15       		.uleb128 0x15
 2155 0524 56040000 		.4byte	.LASF116
 2156 0528 07       		.byte	0x7
ARM GAS  C:\Users\RECEPC~1\AppData\Local\Temp\ccUYVmA0.s 			page 48


 2157 0529 4801     		.2byte	0x148
 2158 052b 31050000 		.4byte	0x531
 2159 052f 10       		.byte	0x10
 2160 0530 00       		.byte	0
 2161 0531 08       		.uleb128 0x8
 2162 0532 CB000000 		.4byte	0xcb
 2163 0536 41050000 		.4byte	0x541
 2164 053a 09       		.uleb128 0x9
 2165 053b ED000000 		.4byte	0xed
 2166 053f 07       		.byte	0x7
 2167 0540 00       		.byte	0
 2168 0541 05       		.uleb128 0x5
 2169 0542 03070000 		.4byte	.LASF117
 2170 0546 07       		.byte	0x7
 2171 0547 4A01     		.2byte	0x14a
 2172 0549 CC040000 		.4byte	0x4cc
 2173 054d 18       		.uleb128 0x18
 2174 054e 3E0B0000 		.4byte	.LASF118
 2175 0552 C009     		.2byte	0x9c0
 2176 0554 07       		.byte	0x7
 2177 0555 4D01     		.2byte	0x14d
 2178 0557 32070000 		.4byte	0x732
 2179 055b 15       		.uleb128 0x15
 2180 055c C3000000 		.4byte	.LASF119
 2181 0560 07       		.byte	0x7
 2182 0561 4F01     		.2byte	0x14f
 2183 0563 81000000 		.4byte	0x81
 2184 0567 00       		.byte	0
 2185 0568 15       		.uleb128 0x15
 2186 0569 ED0B0000 		.4byte	.LASF120
 2187 056d 07       		.byte	0x7
 2188 056e 5001     		.2byte	0x150
 2189 0570 81000000 		.4byte	0x81
 2190 0574 01       		.byte	0x1
 2191 0575 15       		.uleb128 0x15
 2192 0576 6D0D0000 		.4byte	.LASF121
 2193 057a 07       		.byte	0x7
 2194 057b 5201     		.2byte	0x152
 2195 057d DE000000 		.4byte	0xde
 2196 0581 02       		.byte	0x2
 2197 0582 15       		.uleb128 0x15
 2198 0583 F2030000 		.4byte	.LASF122
 2199 0587 07       		.byte	0x7
 2200 0588 5301     		.2byte	0x153
 2201 058a DE000000 		.4byte	0xde
 2202 058e 03       		.byte	0x3
 2203 058f 15       		.uleb128 0x15
 2204 0590 27030000 		.4byte	.LASF123
 2205 0594 07       		.byte	0x7
 2206 0595 5401     		.2byte	0x154
 2207 0597 DE000000 		.4byte	0xde
 2208 059b 04       		.byte	0x4
 2209 059c 15       		.uleb128 0x15
 2210 059d 68020000 		.4byte	.LASF124
 2211 05a1 07       		.byte	0x7
 2212 05a2 5501     		.2byte	0x155
 2213 05a4 0A020000 		.4byte	0x20a
ARM GAS  C:\Users\RECEPC~1\AppData\Local\Temp\ccUYVmA0.s 			page 49


 2214 05a8 05       		.byte	0x5
 2215 05a9 15       		.uleb128 0x15
 2216 05aa 4A0D0000 		.4byte	.LASF110
 2217 05ae 07       		.byte	0x7
 2218 05af 5801     		.2byte	0x158
 2219 05b1 0A020000 		.4byte	0x20a
 2220 05b5 06       		.byte	0x6
 2221 05b6 15       		.uleb128 0x15
 2222 05b7 E80D0000 		.4byte	.LASF125
 2223 05bb 07       		.byte	0x7
 2224 05bc 5901     		.2byte	0x159
 2225 05be 0A020000 		.4byte	0x20a
 2226 05c2 07       		.byte	0x7
 2227 05c3 15       		.uleb128 0x15
 2228 05c4 C4020000 		.4byte	.LASF126
 2229 05c8 07       		.byte	0x7
 2230 05c9 5A01     		.2byte	0x15a
 2231 05cb 0A020000 		.4byte	0x20a
 2232 05cf 08       		.byte	0x8
 2233 05d0 15       		.uleb128 0x15
 2234 05d1 85060000 		.4byte	.LASF127
 2235 05d5 07       		.byte	0x7
 2236 05d6 5B01     		.2byte	0x15b
 2237 05d8 0A020000 		.4byte	0x20a
 2238 05dc 09       		.byte	0x9
 2239 05dd 15       		.uleb128 0x15
 2240 05de 45050000 		.4byte	.LASF128
 2241 05e2 07       		.byte	0x7
 2242 05e3 5C01     		.2byte	0x15c
 2243 05e5 DE000000 		.4byte	0xde
 2244 05e9 0A       		.byte	0xa
 2245 05ea 15       		.uleb128 0x15
 2246 05eb C7090000 		.4byte	.LASF129
 2247 05ef 07       		.byte	0x7
 2248 05f0 5D01     		.2byte	0x15d
 2249 05f2 0A020000 		.4byte	0x20a
 2250 05f6 0B       		.byte	0xb
 2251 05f7 15       		.uleb128 0x15
 2252 05f8 B5090000 		.4byte	.LASF130
 2253 05fc 07       		.byte	0x7
 2254 05fd 5E01     		.2byte	0x15e
 2255 05ff DE000000 		.4byte	0xde
 2256 0603 0C       		.byte	0xc
 2257 0604 15       		.uleb128 0x15
 2258 0605 D4030000 		.4byte	.LASF131
 2259 0609 07       		.byte	0x7
 2260 060a 6001     		.2byte	0x160
 2261 060c 0A020000 		.4byte	0x20a
 2262 0610 0D       		.byte	0xd
 2263 0611 15       		.uleb128 0x15
 2264 0612 6C000000 		.4byte	.LASF132
 2265 0616 07       		.byte	0x7
 2266 0617 6201     		.2byte	0x162
 2267 0619 E8000000 		.4byte	0xe8
 2268 061d 10       		.byte	0x10
 2269 061e 15       		.uleb128 0x15
 2270 061f 8B080000 		.4byte	.LASF133
ARM GAS  C:\Users\RECEPC~1\AppData\Local\Temp\ccUYVmA0.s 			page 50


 2271 0623 07       		.byte	0x7
 2272 0624 6301     		.2byte	0x163
 2273 0626 E8000000 		.4byte	0xe8
 2274 062a 14       		.byte	0x14
 2275 062b 15       		.uleb128 0x15
 2276 062c 5F000000 		.4byte	.LASF134
 2277 0630 07       		.byte	0x7
 2278 0631 6601     		.2byte	0x166
 2279 0633 DE000000 		.4byte	0xde
 2280 0637 18       		.byte	0x18
 2281 0638 15       		.uleb128 0x15
 2282 0639 7A030000 		.4byte	.LASF94
 2283 063d 07       		.byte	0x7
 2284 063e 6701     		.2byte	0x167
 2285 0640 DE000000 		.4byte	0xde
 2286 0644 19       		.byte	0x19
 2287 0645 15       		.uleb128 0x15
 2288 0646 54080000 		.4byte	.LASF135
 2289 064a 07       		.byte	0x7
 2290 064b 6901     		.2byte	0x169
 2291 064d F4000000 		.4byte	0xf4
 2292 0651 1C       		.byte	0x1c
 2293 0652 15       		.uleb128 0x15
 2294 0653 68030000 		.4byte	.LASF136
 2295 0657 07       		.byte	0x7
 2296 0658 6A01     		.2byte	0x16a
 2297 065a 16020000 		.4byte	0x216
 2298 065e 20       		.byte	0x20
 2299 065f 16       		.uleb128 0x16
 2300 0660 56050000 		.4byte	.LASF137
 2301 0664 07       		.byte	0x7
 2302 0665 6C01     		.2byte	0x16c
 2303 0667 16020000 		.4byte	0x216
 2304 066b A001     		.2byte	0x1a0
 2305 066d 16       		.uleb128 0x16
 2306 066e DE000000 		.4byte	.LASF138
 2307 0672 07       		.byte	0x7
 2308 0673 6D01     		.2byte	0x16d
 2309 0675 8D000000 		.4byte	0x8d
 2310 0679 2003     		.2byte	0x320
 2311 067b 16       		.uleb128 0x16
 2312 067c E7050000 		.4byte	.LASF139
 2313 0680 07       		.byte	0x7
 2314 0681 7101     		.2byte	0x171
 2315 0683 32070000 		.4byte	0x732
 2316 0687 2203     		.2byte	0x322
 2317 0689 16       		.uleb128 0x16
 2318 068a B2030000 		.4byte	.LASF140
 2319 068e 07       		.byte	0x7
 2320 068f 7301     		.2byte	0x173
 2321 0691 0A020000 		.4byte	0x20a
 2322 0695 3A09     		.2byte	0x93a
 2323 0697 16       		.uleb128 0x16
 2324 0698 9A0D0000 		.4byte	.LASF141
 2325 069c 07       		.byte	0x7
 2326 069d 7501     		.2byte	0x175
 2327 069f 32020000 		.4byte	0x232
ARM GAS  C:\Users\RECEPC~1\AppData\Local\Temp\ccUYVmA0.s 			page 51


 2328 06a3 3C09     		.2byte	0x93c
 2329 06a5 16       		.uleb128 0x16
 2330 06a6 53070000 		.4byte	.LASF142
 2331 06aa 07       		.byte	0x7
 2332 06ab 7601     		.2byte	0x176
 2333 06ad 32020000 		.4byte	0x232
 2334 06b1 4009     		.2byte	0x940
 2335 06b3 16       		.uleb128 0x16
 2336 06b4 D7090000 		.4byte	.LASF143
 2337 06b8 07       		.byte	0x7
 2338 06b9 7701     		.2byte	0x177
 2339 06bb 56070000 		.4byte	0x756
 2340 06bf 4409     		.2byte	0x944
 2341 06c1 16       		.uleb128 0x16
 2342 06c2 B0040000 		.4byte	.LASF144
 2343 06c6 07       		.byte	0x7
 2344 06c7 7801     		.2byte	0x178
 2345 06c9 6C070000 		.4byte	0x76c
 2346 06cd 4809     		.2byte	0x948
 2347 06cf 16       		.uleb128 0x16
 2348 06d0 5B010000 		.4byte	.LASF145
 2349 06d4 07       		.byte	0x7
 2350 06d5 7901     		.2byte	0x179
 2351 06d7 6C070000 		.4byte	0x76c
 2352 06db 4C09     		.2byte	0x94c
 2353 06dd 16       		.uleb128 0x16
 2354 06de 3B000000 		.4byte	.LASF146
 2355 06e2 07       		.byte	0x7
 2356 06e3 7A01     		.2byte	0x17a
 2357 06e5 81070000 		.4byte	0x781
 2358 06e9 5009     		.2byte	0x950
 2359 06eb 16       		.uleb128 0x16
 2360 06ec 1D0E0000 		.4byte	.LASF147
 2361 06f0 07       		.byte	0x7
 2362 06f1 7B01     		.2byte	0x17b
 2363 06f3 81070000 		.4byte	0x781
 2364 06f7 5409     		.2byte	0x954
 2365 06f9 16       		.uleb128 0x16
 2366 06fa 7B000000 		.4byte	.LASF148
 2367 06fe 07       		.byte	0x7
 2368 06ff 7D01     		.2byte	0x17d
 2369 0701 96070000 		.4byte	0x796
 2370 0705 5809     		.2byte	0x958
 2371 0707 16       		.uleb128 0x16
 2372 0708 3A080000 		.4byte	.LASF149
 2373 070c 07       		.byte	0x7
 2374 070d 7F01     		.2byte	0x17f
 2375 070f C0040000 		.4byte	0x4c0
 2376 0713 6009     		.2byte	0x960
 2377 0715 16       		.uleb128 0x16
 2378 0716 1A000000 		.4byte	.LASF150
 2379 071a 07       		.byte	0x7
 2380 071b 8001     		.2byte	0x180
 2381 071d 41050000 		.4byte	0x541
 2382 0721 A009     		.2byte	0x9a0
 2383 0723 16       		.uleb128 0x16
 2384 0724 60030000 		.4byte	.LASF151
ARM GAS  C:\Users\RECEPC~1\AppData\Local\Temp\ccUYVmA0.s 			page 52


 2385 0728 07       		.byte	0x7
 2386 0729 8201     		.2byte	0x182
 2387 072b 32020000 		.4byte	0x232
 2388 072f B809     		.2byte	0x9b8
 2389 0731 00       		.byte	0
 2390 0732 08       		.uleb128 0x8
 2391 0733 F2030000 		.4byte	0x3f2
 2392 0737 42070000 		.4byte	0x742
 2393 073b 09       		.uleb128 0x9
 2394 073c ED000000 		.4byte	0xed
 2395 0740 05       		.byte	0x5
 2396 0741 00       		.byte	0
 2397 0742 19       		.uleb128 0x19
 2398 0743 0F020000 		.4byte	0x20f
 2399 0747 56070000 		.4byte	0x756
 2400 074b 11       		.uleb128 0x11
 2401 074c F4000000 		.4byte	0xf4
 2402 0750 11       		.uleb128 0x11
 2403 0751 81000000 		.4byte	0x81
 2404 0755 00       		.byte	0
 2405 0756 12       		.uleb128 0x12
 2406 0757 04       		.byte	0x4
 2407 0758 42070000 		.4byte	0x742
 2408 075c 10       		.uleb128 0x10
 2409 075d 6C070000 		.4byte	0x76c
 2410 0761 11       		.uleb128 0x11
 2411 0762 F4000000 		.4byte	0xf4
 2412 0766 11       		.uleb128 0x11
 2413 0767 FE030000 		.4byte	0x3fe
 2414 076b 00       		.byte	0
 2415 076c 12       		.uleb128 0x12
 2416 076d 04       		.byte	0x4
 2417 076e 5C070000 		.4byte	0x75c
 2418 0772 19       		.uleb128 0x19
 2419 0773 FE030000 		.4byte	0x3fe
 2420 0777 81070000 		.4byte	0x781
 2421 077b 11       		.uleb128 0x11
 2422 077c F4000000 		.4byte	0xf4
 2423 0780 00       		.byte	0
 2424 0781 12       		.uleb128 0x12
 2425 0782 04       		.byte	0x4
 2426 0783 72070000 		.4byte	0x772
 2427 0787 19       		.uleb128 0x19
 2428 0788 0F020000 		.4byte	0x20f
 2429 078c 96070000 		.4byte	0x796
 2430 0790 11       		.uleb128 0x11
 2431 0791 F4000000 		.4byte	0xf4
 2432 0795 00       		.byte	0
 2433 0796 12       		.uleb128 0x12
 2434 0797 04       		.byte	0x4
 2435 0798 87070000 		.4byte	0x787
 2436 079c 05       		.uleb128 0x5
 2437 079d D9000000 		.4byte	.LASF152
 2438 07a1 07       		.byte	0x7
 2439 07a2 8401     		.2byte	0x184
 2440 07a4 4D050000 		.4byte	0x54d
 2441 07a8 1A       		.uleb128 0x1a
ARM GAS  C:\Users\RECEPC~1\AppData\Local\Temp\ccUYVmA0.s 			page 53


 2442 07a9 DB030000 		.4byte	.LASF153
 2443 07ad 34       		.byte	0x34
 2444 07ae 07       		.byte	0x7
 2445 07af 8901     		.2byte	0x189
 2446 07b1 6C080000 		.4byte	0x86c
 2447 07b5 15       		.uleb128 0x15
 2448 07b6 D50B0000 		.4byte	.LASF154
 2449 07ba 07       		.byte	0x7
 2450 07bb 8B01     		.2byte	0x18b
 2451 07bd 32020000 		.4byte	0x232
 2452 07c1 00       		.byte	0
 2453 07c2 15       		.uleb128 0x15
 2454 07c3 D8080000 		.4byte	.LASF155
 2455 07c7 07       		.byte	0x7
 2456 07c8 8C01     		.2byte	0x18c
 2457 07ca 32020000 		.4byte	0x232
 2458 07ce 04       		.byte	0x4
 2459 07cf 15       		.uleb128 0x15
 2460 07d0 560D0000 		.4byte	.LASF156
 2461 07d4 07       		.byte	0x7
 2462 07d5 8D01     		.2byte	0x18d
 2463 07d7 32020000 		.4byte	0x232
 2464 07db 08       		.byte	0x8
 2465 07dc 15       		.uleb128 0x15
 2466 07dd 8A000000 		.4byte	.LASF157
 2467 07e1 07       		.byte	0x7
 2468 07e2 8E01     		.2byte	0x18e
 2469 07e4 85080000 		.4byte	0x885
 2470 07e8 0C       		.byte	0xc
 2471 07e9 15       		.uleb128 0x15
 2472 07ea 2F050000 		.4byte	.LASF158
 2473 07ee 07       		.byte	0x7
 2474 07ef 8F01     		.2byte	0x18f
 2475 07f1 8D000000 		.4byte	0x8d
 2476 07f5 10       		.byte	0x10
 2477 07f6 15       		.uleb128 0x15
 2478 07f7 2A0B0000 		.4byte	.LASF159
 2479 07fb 07       		.byte	0x7
 2480 07fc 9001     		.2byte	0x190
 2481 07fe 99000000 		.4byte	0x99
 2482 0802 14       		.byte	0x14
 2483 0803 15       		.uleb128 0x15
 2484 0804 B6020000 		.4byte	.LASF160
 2485 0808 07       		.byte	0x7
 2486 0809 9101     		.2byte	0x191
 2487 080b 81000000 		.4byte	0x81
 2488 080f 18       		.byte	0x18
 2489 0810 15       		.uleb128 0x15
 2490 0811 E1080000 		.4byte	.LASF161
 2491 0815 07       		.byte	0x7
 2492 0816 9301     		.2byte	0x193
 2493 0818 0F020000 		.4byte	0x20f
 2494 081c 19       		.byte	0x19
 2495 081d 15       		.uleb128 0x15
 2496 081e 06090000 		.4byte	.LASF162
 2497 0822 07       		.byte	0x7
 2498 0823 9701     		.2byte	0x197
ARM GAS  C:\Users\RECEPC~1\AppData\Local\Temp\ccUYVmA0.s 			page 54


 2499 0825 8B080000 		.4byte	0x88b
 2500 0829 1A       		.byte	0x1a
 2501 082a 15       		.uleb128 0x15
 2502 082b 510C0000 		.4byte	.LASF163
 2503 082f 07       		.byte	0x7
 2504 0830 9901     		.2byte	0x199
 2505 0832 F6000000 		.4byte	0xf6
 2506 0836 1E       		.byte	0x1e
 2507 0837 15       		.uleb128 0x15
 2508 0838 3B020000 		.4byte	.LASF164
 2509 083c 07       		.byte	0x7
 2510 083d 9D01     		.2byte	0x19d
 2511 083f 8B080000 		.4byte	0x88b
 2512 0843 22       		.byte	0x22
 2513 0844 15       		.uleb128 0x15
 2514 0845 F6040000 		.4byte	.LASF165
 2515 0849 07       		.byte	0x7
 2516 084a 9F01     		.2byte	0x19f
 2517 084c F6000000 		.4byte	0xf6
 2518 0850 26       		.byte	0x26
 2519 0851 15       		.uleb128 0x15
 2520 0852 330E0000 		.4byte	.LASF166
 2521 0856 07       		.byte	0x7
 2522 0857 A101     		.2byte	0x1a1
 2523 0859 32020000 		.4byte	0x232
 2524 085d 2C       		.byte	0x2c
 2525 085e 15       		.uleb128 0x15
 2526 085f 05000000 		.4byte	.LASF167
 2527 0863 07       		.byte	0x7
 2528 0864 A201     		.2byte	0x1a2
 2529 0866 32020000 		.4byte	0x232
 2530 086a 30       		.byte	0x30
 2531 086b 00       		.byte	0
 2532 086c 19       		.uleb128 0x19
 2533 086d 0F020000 		.4byte	0x20f
 2534 0871 85080000 		.4byte	0x885
 2535 0875 11       		.uleb128 0x11
 2536 0876 F4000000 		.4byte	0xf4
 2537 087a 11       		.uleb128 0x11
 2538 087b F4000000 		.4byte	0xf4
 2539 087f 11       		.uleb128 0x11
 2540 0880 8D000000 		.4byte	0x8d
 2541 0884 00       		.byte	0
 2542 0885 12       		.uleb128 0x12
 2543 0886 04       		.byte	0x4
 2544 0887 6C080000 		.4byte	0x86c
 2545 088b 08       		.uleb128 0x8
 2546 088c 0F020000 		.4byte	0x20f
 2547 0890 9B080000 		.4byte	0x89b
 2548 0894 09       		.uleb128 0x9
 2549 0895 ED000000 		.4byte	0xed
 2550 0899 03       		.byte	0x3
 2551 089a 00       		.byte	0
 2552 089b 05       		.uleb128 0x5
 2553 089c 0B0D0000 		.4byte	.LASF168
 2554 08a0 07       		.byte	0x7
 2555 08a1 A301     		.2byte	0x1a3
ARM GAS  C:\Users\RECEPC~1\AppData\Local\Temp\ccUYVmA0.s 			page 55


 2556 08a3 A8070000 		.4byte	0x7a8
 2557 08a7 17       		.uleb128 0x17
 2558 08a8 28       		.byte	0x28
 2559 08a9 07       		.byte	0x7
 2560 08aa B201     		.2byte	0x1b2
 2561 08ac 81090000 		.4byte	0x981
 2562 08b0 15       		.uleb128 0x15
 2563 08b1 160C0000 		.4byte	.LASF169
 2564 08b5 07       		.byte	0x7
 2565 08b6 B401     		.2byte	0x1b4
 2566 08b8 0A020000 		.4byte	0x20a
 2567 08bc 00       		.byte	0
 2568 08bd 15       		.uleb128 0x15
 2569 08be A0030000 		.4byte	.LASF170
 2570 08c2 07       		.byte	0x7
 2571 08c3 B501     		.2byte	0x1b5
 2572 08c5 DE000000 		.4byte	0xde
 2573 08c9 01       		.byte	0x1
 2574 08ca 15       		.uleb128 0x15
 2575 08cb 94020000 		.4byte	.LASF51
 2576 08cf 07       		.byte	0x7
 2577 08d0 B801     		.2byte	0x1b8
 2578 08d2 DE000000 		.4byte	0xde
 2579 08d6 02       		.byte	0x2
 2580 08d7 15       		.uleb128 0x15
 2581 08d8 F60D0000 		.4byte	.LASF171
 2582 08dc 07       		.byte	0x7
 2583 08dd BA01     		.2byte	0x1ba
 2584 08df E3000000 		.4byte	0xe3
 2585 08e3 04       		.byte	0x4
 2586 08e4 15       		.uleb128 0x15
 2587 08e5 790C0000 		.4byte	.LASF172
 2588 08e9 07       		.byte	0x7
 2589 08ea BB01     		.2byte	0x1bb
 2590 08ec E3000000 		.4byte	0xe3
 2591 08f0 06       		.byte	0x6
 2592 08f1 15       		.uleb128 0x15
 2593 08f2 52020000 		.4byte	.LASF173
 2594 08f6 07       		.byte	0x7
 2595 08f7 BD01     		.2byte	0x1bd
 2596 08f9 E3000000 		.4byte	0xe3
 2597 08fd 08       		.byte	0x8
 2598 08fe 15       		.uleb128 0x15
 2599 08ff 33010000 		.4byte	.LASF174
 2600 0903 07       		.byte	0x7
 2601 0904 BE01     		.2byte	0x1be
 2602 0906 E3000000 		.4byte	0xe3
 2603 090a 0A       		.byte	0xa
 2604 090b 15       		.uleb128 0x15
 2605 090c 74010000 		.4byte	.LASF175
 2606 0910 07       		.byte	0x7
 2607 0911 BF01     		.2byte	0x1bf
 2608 0913 E3000000 		.4byte	0xe3
 2609 0917 0C       		.byte	0xc
 2610 0918 15       		.uleb128 0x15
 2611 0919 06050000 		.4byte	.LASF176
 2612 091d 07       		.byte	0x7
ARM GAS  C:\Users\RECEPC~1\AppData\Local\Temp\ccUYVmA0.s 			page 56


 2613 091e C101     		.2byte	0x1c1
 2614 0920 E3000000 		.4byte	0xe3
 2615 0924 0E       		.byte	0xe
 2616 0925 15       		.uleb128 0x15
 2617 0926 F7090000 		.4byte	.LASF177
 2618 092a 07       		.byte	0x7
 2619 092b C201     		.2byte	0x1c2
 2620 092d E3000000 		.4byte	0xe3
 2621 0931 10       		.byte	0x10
 2622 0932 15       		.uleb128 0x15
 2623 0933 990B0000 		.4byte	.LASF178
 2624 0937 07       		.byte	0x7
 2625 0938 C301     		.2byte	0x1c3
 2626 093a E3000000 		.4byte	0xe3
 2627 093e 12       		.byte	0x12
 2628 093f 15       		.uleb128 0x15
 2629 0940 F3050000 		.4byte	.LASF179
 2630 0944 07       		.byte	0x7
 2631 0945 C501     		.2byte	0x1c5
 2632 0947 81090000 		.4byte	0x981
 2633 094b 14       		.byte	0x14
 2634 094c 15       		.uleb128 0x15
 2635 094d D0020000 		.4byte	.LASF180
 2636 0951 07       		.byte	0x7
 2637 0952 C601     		.2byte	0x1c6
 2638 0954 81090000 		.4byte	0x981
 2639 0958 18       		.byte	0x18
 2640 0959 15       		.uleb128 0x15
 2641 095a DB020000 		.4byte	.LASF181
 2642 095e 07       		.byte	0x7
 2643 095f C701     		.2byte	0x1c7
 2644 0961 87090000 		.4byte	0x987
 2645 0965 1C       		.byte	0x1c
 2646 0966 15       		.uleb128 0x15
 2647 0967 910D0000 		.4byte	.LASF46
 2648 096b 07       		.byte	0x7
 2649 096c C901     		.2byte	0x1c9
 2650 096e 32020000 		.4byte	0x232
 2651 0972 20       		.byte	0x20
 2652 0973 15       		.uleb128 0x15
 2653 0974 BC000000 		.4byte	.LASF45
 2654 0978 07       		.byte	0x7
 2655 0979 CA01     		.2byte	0x1ca
 2656 097b F4000000 		.4byte	0xf4
 2657 097f 24       		.byte	0x24
 2658 0980 00       		.byte	0
 2659 0981 12       		.uleb128 0x12
 2660 0982 04       		.byte	0x4
 2661 0983 9B080000 		.4byte	0x89b
 2662 0987 12       		.uleb128 0x12
 2663 0988 04       		.byte	0x4
 2664 0989 9C070000 		.4byte	0x79c
 2665 098d 05       		.uleb128 0x5
 2666 098e C8060000 		.4byte	.LASF182
 2667 0992 07       		.byte	0x7
 2668 0993 CC01     		.2byte	0x1cc
 2669 0995 A7080000 		.4byte	0x8a7
ARM GAS  C:\Users\RECEPC~1\AppData\Local\Temp\ccUYVmA0.s 			page 57


 2670 0999 05       		.uleb128 0x5
 2671 099a 29070000 		.4byte	.LASF183
 2672 099e 07       		.byte	0x7
 2673 099f CC01     		.2byte	0x1cc
 2674 09a1 A5090000 		.4byte	0x9a5
 2675 09a5 12       		.uleb128 0x12
 2676 09a6 04       		.byte	0x4
 2677 09a7 A7080000 		.4byte	0x8a7
 2678 09ab 18       		.uleb128 0x18
 2679 09ac FD0D0000 		.4byte	.LASF184
 2680 09b0 5C08     		.2byte	0x85c
 2681 09b2 07       		.byte	0x7
 2682 09b3 CE01     		.2byte	0x1ce
 2683 09b5 360A0000 		.4byte	0xa36
 2684 09b9 15       		.uleb128 0x15
 2685 09ba 6A0B0000 		.4byte	.LASF185
 2686 09be 07       		.byte	0x7
 2687 09bf D001     		.2byte	0x1d0
 2688 09c1 E3000000 		.4byte	0xe3
 2689 09c5 00       		.byte	0
 2690 09c6 15       		.uleb128 0x15
 2691 09c7 97050000 		.4byte	.LASF186
 2692 09cb 07       		.byte	0x7
 2693 09cc D201     		.2byte	0x1d2
 2694 09ce 360A0000 		.4byte	0xa36
 2695 09d2 04       		.byte	0x4
 2696 09d3 16       		.uleb128 0x16
 2697 09d4 66080000 		.4byte	.LASF187
 2698 09d8 07       		.byte	0x7
 2699 09d9 D301     		.2byte	0x1d3
 2700 09db 460A0000 		.4byte	0xa46
 2701 09df 8407     		.2byte	0x784
 2702 09e1 16       		.uleb128 0x16
 2703 09e2 660D0000 		.4byte	.LASF188
 2704 09e6 07       		.byte	0x7
 2705 09e7 D501     		.2byte	0x1d5
 2706 09e9 32020000 		.4byte	0x232
 2707 09ed 4408     		.2byte	0x844
 2708 09ef 16       		.uleb128 0x16
 2709 09f0 23060000 		.4byte	.LASF189
 2710 09f4 07       		.byte	0x7
 2711 09f5 D601     		.2byte	0x1d6
 2712 09f7 6B0A0000 		.4byte	0xa6b
 2713 09fb 4808     		.2byte	0x848
 2714 09fd 16       		.uleb128 0x16
 2715 09fe 12000000 		.4byte	.LASF190
 2716 0a02 07       		.byte	0x7
 2717 0a03 D701     		.2byte	0x1d7
 2718 0a05 810A0000 		.4byte	0xa81
 2719 0a09 4C08     		.2byte	0x84c
 2720 0a0b 16       		.uleb128 0x16
 2721 0a0c CA0D0000 		.4byte	.LASF191
 2722 0a10 07       		.byte	0x7
 2723 0a11 D801     		.2byte	0x1d8
 2724 0a13 6B0A0000 		.4byte	0xa6b
 2725 0a17 5008     		.2byte	0x850
 2726 0a19 16       		.uleb128 0x16
ARM GAS  C:\Users\RECEPC~1\AppData\Local\Temp\ccUYVmA0.s 			page 58


 2727 0a1a 3D060000 		.4byte	.LASF192
 2728 0a1e 07       		.byte	0x7
 2729 0a1f D901     		.2byte	0x1d9
 2730 0a21 32020000 		.4byte	0x232
 2731 0a25 5408     		.2byte	0x854
 2732 0a27 16       		.uleb128 0x16
 2733 0a28 29050000 		.4byte	.LASF193
 2734 0a2c 07       		.byte	0x7
 2735 0a2d DA01     		.2byte	0x1da
 2736 0a2f 32020000 		.4byte	0x232
 2737 0a33 5808     		.2byte	0x858
 2738 0a35 00       		.byte	0
 2739 0a36 08       		.uleb128 0x8
 2740 0a37 8D090000 		.4byte	0x98d
 2741 0a3b 460A0000 		.4byte	0xa46
 2742 0a3f 09       		.uleb128 0x9
 2743 0a40 ED000000 		.4byte	0xed
 2744 0a44 2F       		.byte	0x2f
 2745 0a45 00       		.byte	0
 2746 0a46 08       		.uleb128 0x8
 2747 0a47 560A0000 		.4byte	0xa56
 2748 0a4b 560A0000 		.4byte	0xa56
 2749 0a4f 09       		.uleb128 0x9
 2750 0a50 ED000000 		.4byte	0xed
 2751 0a54 2F       		.byte	0x2f
 2752 0a55 00       		.byte	0
 2753 0a56 12       		.uleb128 0x12
 2754 0a57 04       		.byte	0x4
 2755 0a58 8D090000 		.4byte	0x98d
 2756 0a5c 19       		.uleb128 0x19
 2757 0a5d 560A0000 		.4byte	0xa56
 2758 0a61 6B0A0000 		.4byte	0xa6b
 2759 0a65 11       		.uleb128 0x11
 2760 0a66 F4000000 		.4byte	0xf4
 2761 0a6a 00       		.byte	0
 2762 0a6b 12       		.uleb128 0x12
 2763 0a6c 04       		.byte	0x4
 2764 0a6d 5C0A0000 		.4byte	0xa5c
 2765 0a71 10       		.uleb128 0x10
 2766 0a72 810A0000 		.4byte	0xa81
 2767 0a76 11       		.uleb128 0x11
 2768 0a77 F4000000 		.4byte	0xf4
 2769 0a7b 11       		.uleb128 0x11
 2770 0a7c 560A0000 		.4byte	0xa56
 2771 0a80 00       		.byte	0
 2772 0a81 12       		.uleb128 0x12
 2773 0a82 04       		.byte	0x4
 2774 0a83 710A0000 		.4byte	0xa71
 2775 0a87 05       		.uleb128 0x5
 2776 0a88 52000000 		.4byte	.LASF194
 2777 0a8c 07       		.byte	0x7
 2778 0a8d DC01     		.2byte	0x1dc
 2779 0a8f AB090000 		.4byte	0x9ab
 2780 0a93 14       		.uleb128 0x14
 2781 0a94 0C02     		.2byte	0x20c
 2782 0a96 07       		.byte	0x7
 2783 0a97 DE01     		.2byte	0x1de
ARM GAS  C:\Users\RECEPC~1\AppData\Local\Temp\ccUYVmA0.s 			page 59


 2784 0a99 DF0A0000 		.4byte	0xadf
 2785 0a9d 15       		.uleb128 0x15
 2786 0a9e F10C0000 		.4byte	.LASF195
 2787 0aa2 07       		.byte	0x7
 2788 0aa3 E001     		.2byte	0x1e0
 2789 0aa5 F4000000 		.4byte	0xf4
 2790 0aa9 00       		.byte	0
 2791 0aaa 15       		.uleb128 0x15
 2792 0aab 85030000 		.4byte	.LASF196
 2793 0aaf 07       		.byte	0x7
 2794 0ab0 E101     		.2byte	0x1e1
 2795 0ab2 0A020000 		.4byte	0x20a
 2796 0ab6 04       		.byte	0x4
 2797 0ab7 15       		.uleb128 0x15
 2798 0ab8 B6020000 		.4byte	.LASF160
 2799 0abc 07       		.byte	0x7
 2800 0abd E201     		.2byte	0x1e2
 2801 0abf E3000000 		.4byte	0xe3
 2802 0ac3 06       		.byte	0x6
 2803 0ac4 15       		.uleb128 0x15
 2804 0ac5 8A000000 		.4byte	.LASF157
 2805 0ac9 07       		.byte	0x7
 2806 0aca E301     		.2byte	0x1e3
 2807 0acc 85080000 		.4byte	0x885
 2808 0ad0 08       		.byte	0x8
 2809 0ad1 15       		.uleb128 0x15
 2810 0ad2 56050000 		.4byte	.LASF137
 2811 0ad6 07       		.byte	0x7
 2812 0ad7 E401     		.2byte	0x1e4
 2813 0ad9 DF0A0000 		.4byte	0xadf
 2814 0add 0C       		.byte	0xc
 2815 0ade 00       		.byte	0
 2816 0adf 08       		.uleb128 0x8
 2817 0ae0 CB000000 		.4byte	0xcb
 2818 0ae4 F00A0000 		.4byte	0xaf0
 2819 0ae8 0F       		.uleb128 0xf
 2820 0ae9 ED000000 		.4byte	0xed
 2821 0aed FF01     		.2byte	0x1ff
 2822 0aef 00       		.byte	0
 2823 0af0 05       		.uleb128 0x5
 2824 0af1 C9010000 		.4byte	.LASF197
 2825 0af5 07       		.byte	0x7
 2826 0af6 E601     		.2byte	0x1e6
 2827 0af8 930A0000 		.4byte	0xa93
 2828 0afc 1B       		.uleb128 0x1b
 2829 0afd C6040000 		.4byte	.LASF201
 2830 0b01 01       		.byte	0x1
 2831 0b02 2F       		.byte	0x2f
 2832 0b03 00000000 		.4byte	.LFB63
 2833 0b07 A0020000 		.4byte	.LFE63-.LFB63
 2834 0b0b 01       		.uleb128 0x1
 2835 0b0c 9C       		.byte	0x9c
 2836 0b0d 620B0000 		.4byte	0xb62
 2837 0b11 1C       		.uleb128 0x1c
 2838 0b12 47070000 		.4byte	.LASF198
 2839 0b16 01       		.byte	0x1
 2840 0b17 33       		.byte	0x33
ARM GAS  C:\Users\RECEPC~1\AppData\Local\Temp\ccUYVmA0.s 			page 60


 2841 0b18 9A020000 		.4byte	0x29a
 2842 0b1c 02       		.uleb128 0x2
 2843 0b1d 91       		.byte	0x91
 2844 0b1e 74       		.sleb128 -12
 2845 0b1f 1C       		.uleb128 0x1c
 2846 0b20 A4020000 		.4byte	.LASF199
 2847 0b24 01       		.byte	0x1
 2848 0b25 6C       		.byte	0x6c
 2849 0b26 38020000 		.4byte	0x238
 2850 0b2a 02       		.uleb128 0x2
 2851 0b2b 91       		.byte	0x91
 2852 0b2c 6C       		.sleb128 -20
 2853 0b2d 1D       		.uleb128 0x1d
 2854 0b2e 16000000 		.4byte	.LBB2
 2855 0b32 90000000 		.4byte	.LBE2-.LBB2
 2856 0b36 490B0000 		.4byte	0xb49
 2857 0b3a 1C       		.uleb128 0x1c
 2858 0b3b FD0B0000 		.4byte	.LASF200
 2859 0b3f 01       		.byte	0x1
 2860 0b40 36       		.byte	0x36
 2861 0b41 81000000 		.4byte	0x81
 2862 0b45 02       		.uleb128 0x2
 2863 0b46 91       		.byte	0x91
 2864 0b47 73       		.sleb128 -13
 2865 0b48 00       		.byte	0
 2866 0b49 1E       		.uleb128 0x1e
 2867 0b4a B2000000 		.4byte	.LBB3
 2868 0b4e C8000000 		.4byte	.LBE3-.LBB3
 2869 0b52 1C       		.uleb128 0x1c
 2870 0b53 FD0B0000 		.4byte	.LASF200
 2871 0b57 01       		.byte	0x1
 2872 0b58 4F       		.byte	0x4f
 2873 0b59 81000000 		.4byte	0x81
 2874 0b5d 02       		.uleb128 0x2
 2875 0b5e 91       		.byte	0x91
 2876 0b5f 72       		.sleb128 -14
 2877 0b60 00       		.byte	0
 2878 0b61 00       		.byte	0
 2879 0b62 1B       		.uleb128 0x1b
 2880 0b63 9D060000 		.4byte	.LASF202
 2881 0b67 01       		.byte	0x1
 2882 0b68 D3       		.byte	0xd3
 2883 0b69 00000000 		.4byte	.LFB64
 2884 0b6d 50020000 		.4byte	.LFE64-.LFB64
 2885 0b71 01       		.uleb128 0x1
 2886 0b72 9C       		.byte	0x9c
 2887 0b73 C80B0000 		.4byte	0xbc8
 2888 0b77 1C       		.uleb128 0x1c
 2889 0b78 F80B0000 		.4byte	.LASF203
 2890 0b7c 01       		.byte	0x1
 2891 0b7d D5       		.byte	0xd5
 2892 0b7e 99090000 		.4byte	0x999
 2893 0b82 02       		.uleb128 0x2
 2894 0b83 91       		.byte	0x91
 2895 0b84 74       		.sleb128 -12
 2896 0b85 1E       		.uleb128 0x1e
 2897 0b86 24000000 		.4byte	.LBB4
ARM GAS  C:\Users\RECEPC~1\AppData\Local\Temp\ccUYVmA0.s 			page 61


 2898 0b8a 18020000 		.4byte	.LBE4-.LBB4
 2899 0b8e 1C       		.uleb128 0x1c
 2900 0b8f B8080000 		.4byte	.LASF204
 2901 0b93 01       		.byte	0x1
 2902 0b94 D8       		.byte	0xd8
 2903 0b95 0F020000 		.4byte	0x20f
 2904 0b99 02       		.uleb128 0x2
 2905 0b9a 91       		.byte	0x91
 2906 0b9b 73       		.sleb128 -13
 2907 0b9c 1C       		.uleb128 0x1c
 2908 0b9d 0B030000 		.4byte	.LASF205
 2909 0ba1 01       		.byte	0x1
 2910 0ba2 D9       		.byte	0xd9
 2911 0ba3 0F020000 		.4byte	0x20f
 2912 0ba7 02       		.uleb128 0x2
 2913 0ba8 91       		.byte	0x91
 2914 0ba9 72       		.sleb128 -14
 2915 0baa 1C       		.uleb128 0x1c
 2916 0bab E0040000 		.4byte	.LASF206
 2917 0baf 01       		.byte	0x1
 2918 0bb0 DA       		.byte	0xda
 2919 0bb1 0F020000 		.4byte	0x20f
 2920 0bb5 02       		.uleb128 0x2
 2921 0bb6 91       		.byte	0x91
 2922 0bb7 71       		.sleb128 -15
 2923 0bb8 1C       		.uleb128 0x1c
 2924 0bb9 FD0B0000 		.4byte	.LASF200
 2925 0bbd 01       		.byte	0x1
 2926 0bbe E1       		.byte	0xe1
 2927 0bbf 81000000 		.4byte	0x81
 2928 0bc3 02       		.uleb128 0x2
 2929 0bc4 91       		.byte	0x91
 2930 0bc5 70       		.sleb128 -16
 2931 0bc6 00       		.byte	0
 2932 0bc7 00       		.byte	0
 2933 0bc8 1F       		.uleb128 0x1f
 2934 0bc9 A00A0000 		.4byte	.LASF207
 2935 0bcd 01       		.byte	0x1
 2936 0bce 4701     		.2byte	0x147
 2937 0bd0 00000000 		.4byte	.LFB65
 2938 0bd4 F8000000 		.4byte	.LFE65-.LFB65
 2939 0bd8 01       		.uleb128 0x1
 2940 0bd9 9C       		.byte	0x9c
 2941 0bda 070C0000 		.4byte	0xc07
 2942 0bde 20       		.uleb128 0x20
 2943 0bdf F80B0000 		.4byte	.LASF203
 2944 0be3 01       		.byte	0x1
 2945 0be4 4901     		.2byte	0x149
 2946 0be6 99090000 		.4byte	0x999
 2947 0bea 02       		.uleb128 0x2
 2948 0beb 91       		.byte	0x91
 2949 0bec 6C       		.sleb128 -20
 2950 0bed 1E       		.uleb128 0x1e
 2951 0bee 2A000000 		.4byte	.LBB5
 2952 0bf2 C0000000 		.4byte	.LBE5-.LBB5
 2953 0bf6 20       		.uleb128 0x20
 2954 0bf7 9B020000 		.4byte	.LASF208
ARM GAS  C:\Users\RECEPC~1\AppData\Local\Temp\ccUYVmA0.s 			page 62


 2955 0bfb 01       		.byte	0x1
 2956 0bfc 4F01     		.2byte	0x14f
 2957 0bfe A5000000 		.4byte	0xa5
 2958 0c02 02       		.uleb128 0x2
 2959 0c03 91       		.byte	0x91
 2960 0c04 68       		.sleb128 -24
 2961 0c05 00       		.byte	0
 2962 0c06 00       		.byte	0
 2963 0c07 1F       		.uleb128 0x1f
 2964 0c08 97090000 		.4byte	.LASF209
 2965 0c0c 01       		.byte	0x1
 2966 0c0d 7101     		.2byte	0x171
 2967 0c0f 00000000 		.4byte	.LFB66
 2968 0c13 A8020000 		.4byte	.LFE66-.LFB66
 2969 0c17 01       		.uleb128 0x1
 2970 0c18 9C       		.byte	0x9c
 2971 0c19 730C0000 		.4byte	0xc73
 2972 0c1d 20       		.uleb128 0x20
 2973 0c1e F80B0000 		.4byte	.LASF203
 2974 0c22 01       		.byte	0x1
 2975 0c23 7A01     		.2byte	0x17a
 2976 0c25 99090000 		.4byte	0x999
 2977 0c29 02       		.uleb128 0x2
 2978 0c2a 91       		.byte	0x91
 2979 0c2b 74       		.sleb128 -12
 2980 0c2c 1E       		.uleb128 0x1e
 2981 0c2d 36000000 		.4byte	.LBB6
 2982 0c31 2C020000 		.4byte	.LBE6-.LBB6
 2983 0c35 20       		.uleb128 0x20
 2984 0c36 B8080000 		.4byte	.LASF204
 2985 0c3a 01       		.byte	0x1
 2986 0c3b 8201     		.2byte	0x182
 2987 0c3d 0F020000 		.4byte	0x20f
 2988 0c41 02       		.uleb128 0x2
 2989 0c42 91       		.byte	0x91
 2990 0c43 73       		.sleb128 -13
 2991 0c44 20       		.uleb128 0x20
 2992 0c45 0E0E0000 		.4byte	.LASF210
 2993 0c49 01       		.byte	0x1
 2994 0c4a 8301     		.2byte	0x183
 2995 0c4c 0F020000 		.4byte	0x20f
 2996 0c50 02       		.uleb128 0x2
 2997 0c51 91       		.byte	0x91
 2998 0c52 72       		.sleb128 -14
 2999 0c53 20       		.uleb128 0x20
 3000 0c54 2C060000 		.4byte	.LASF211
 3001 0c58 01       		.byte	0x1
 3002 0c59 8401     		.2byte	0x184
 3003 0c5b 0F020000 		.4byte	0x20f
 3004 0c5f 02       		.uleb128 0x2
 3005 0c60 91       		.byte	0x91
 3006 0c61 71       		.sleb128 -15
 3007 0c62 20       		.uleb128 0x20
 3008 0c63 FD0B0000 		.4byte	.LASF200
 3009 0c67 01       		.byte	0x1
 3010 0c68 8501     		.2byte	0x185
 3011 0c6a 81000000 		.4byte	0x81
ARM GAS  C:\Users\RECEPC~1\AppData\Local\Temp\ccUYVmA0.s 			page 63


 3012 0c6e 02       		.uleb128 0x2
 3013 0c6f 91       		.byte	0x91
 3014 0c70 70       		.sleb128 -16
 3015 0c71 00       		.byte	0
 3016 0c72 00       		.byte	0
 3017 0c73 21       		.uleb128 0x21
 3018 0c74 440A0000 		.4byte	.LASF220
 3019 0c78 01       		.byte	0x1
 3020 0c79 F601     		.2byte	0x1f6
 3021 0c7b 00000000 		.4byte	.LFB67
 3022 0c7f 84000000 		.4byte	.LFE67-.LFB67
 3023 0c83 01       		.uleb128 0x1
 3024 0c84 9C       		.byte	0x9c
 3025 0c85 A80C0000 		.4byte	0xca8
 3026 0c89 22       		.uleb128 0x22
 3027 0c8a 60050000 		.4byte	.LASF221
 3028 0c8e 01       		.byte	0x1
 3029 0c8f F601     		.2byte	0x1f6
 3030 0c91 F4000000 		.4byte	0xf4
 3031 0c95 02       		.uleb128 0x2
 3032 0c96 91       		.byte	0x91
 3033 0c97 6C       		.sleb128 -20
 3034 0c98 20       		.uleb128 0x20
 3035 0c99 F80B0000 		.4byte	.LASF203
 3036 0c9d 01       		.byte	0x1
 3037 0c9e FB01     		.2byte	0x1fb
 3038 0ca0 99090000 		.4byte	0x999
 3039 0ca4 02       		.uleb128 0x2
 3040 0ca5 91       		.byte	0x91
 3041 0ca6 74       		.sleb128 -12
 3042 0ca7 00       		.byte	0
 3043 0ca8 23       		.uleb128 0x23
 3044 0ca9 BC010000 		.4byte	.LASF212
 3045 0cad 08       		.byte	0x8
 3046 0cae 5506     		.2byte	0x655
 3047 0cb0 B40C0000 		.4byte	0xcb4
 3048 0cb4 06       		.uleb128 0x6
 3049 0cb5 76000000 		.4byte	0x76
 3050 0cb9 23       		.uleb128 0x23
 3051 0cba 9F000000 		.4byte	.LASF213
 3052 0cbe 07       		.byte	0x7
 3053 0cbf 4B02     		.2byte	0x24b
 3054 0cc1 870A0000 		.4byte	0xa87
 3055 0cc5 24       		.uleb128 0x24
 3056 0cc6 BE0B0000 		.4byte	.LASF214
 3057 0cca 01       		.byte	0x1
 3058 0ccb 15       		.byte	0x15
 3059 0ccc F00A0000 		.4byte	0xaf0
 3060 0cd0 25       		.uleb128 0x25
 3061 0cd1 EA020000 		.4byte	.LASF215
 3062 0cd5 01       		.byte	0x1
 3063 0cd6 17       		.byte	0x17
 3064 0cd7 8D000000 		.4byte	0x8d
 3065 0cdb 05       		.uleb128 0x5
 3066 0cdc 03       		.byte	0x3
 3067 0cdd 00000000 		.4byte	_g_dispenserupdatetimeout
 3068 0ce1 25       		.uleb128 0x25
ARM GAS  C:\Users\RECEPC~1\AppData\Local\Temp\ccUYVmA0.s 			page 64


 3069 0ce2 CD0C0000 		.4byte	.LASF216
 3070 0ce6 01       		.byte	0x1
 3071 0ce7 18       		.byte	0x18
 3072 0ce8 8D000000 		.4byte	0x8d
 3073 0cec 05       		.uleb128 0x5
 3074 0ced 03       		.byte	0x3
 3075 0cee 00000000 		.4byte	_g_dispenserupdatetimeoutmultiplier
 3076 0cf2 00       		.byte	0
 3077              		.section	.debug_abbrev,"",%progbits
 3078              	.Ldebug_abbrev0:
 3079 0000 01       		.uleb128 0x1
 3080 0001 11       		.uleb128 0x11
 3081 0002 01       		.byte	0x1
 3082 0003 25       		.uleb128 0x25
 3083 0004 0E       		.uleb128 0xe
 3084 0005 13       		.uleb128 0x13
 3085 0006 0B       		.uleb128 0xb
 3086 0007 03       		.uleb128 0x3
 3087 0008 0E       		.uleb128 0xe
 3088 0009 1B       		.uleb128 0x1b
 3089 000a 0E       		.uleb128 0xe
 3090 000b 55       		.uleb128 0x55
 3091 000c 17       		.uleb128 0x17
 3092 000d 11       		.uleb128 0x11
 3093 000e 01       		.uleb128 0x1
 3094 000f 10       		.uleb128 0x10
 3095 0010 17       		.uleb128 0x17
 3096 0011 00       		.byte	0
 3097 0012 00       		.byte	0
 3098 0013 02       		.uleb128 0x2
 3099 0014 24       		.uleb128 0x24
 3100 0015 00       		.byte	0
 3101 0016 0B       		.uleb128 0xb
 3102 0017 0B       		.uleb128 0xb
 3103 0018 3E       		.uleb128 0x3e
 3104 0019 0B       		.uleb128 0xb
 3105 001a 03       		.uleb128 0x3
 3106 001b 0E       		.uleb128 0xe
 3107 001c 00       		.byte	0
 3108 001d 00       		.byte	0
 3109 001e 03       		.uleb128 0x3
 3110 001f 16       		.uleb128 0x16
 3111 0020 00       		.byte	0
 3112 0021 03       		.uleb128 0x3
 3113 0022 0E       		.uleb128 0xe
 3114 0023 3A       		.uleb128 0x3a
 3115 0024 0B       		.uleb128 0xb
 3116 0025 3B       		.uleb128 0x3b
 3117 0026 0B       		.uleb128 0xb
 3118 0027 49       		.uleb128 0x49
 3119 0028 13       		.uleb128 0x13
 3120 0029 00       		.byte	0
 3121 002a 00       		.byte	0
 3122 002b 04       		.uleb128 0x4
 3123 002c 24       		.uleb128 0x24
 3124 002d 00       		.byte	0
 3125 002e 0B       		.uleb128 0xb
ARM GAS  C:\Users\RECEPC~1\AppData\Local\Temp\ccUYVmA0.s 			page 65


 3126 002f 0B       		.uleb128 0xb
 3127 0030 3E       		.uleb128 0x3e
 3128 0031 0B       		.uleb128 0xb
 3129 0032 03       		.uleb128 0x3
 3130 0033 08       		.uleb128 0x8
 3131 0034 00       		.byte	0
 3132 0035 00       		.byte	0
 3133 0036 05       		.uleb128 0x5
 3134 0037 16       		.uleb128 0x16
 3135 0038 00       		.byte	0
 3136 0039 03       		.uleb128 0x3
 3137 003a 0E       		.uleb128 0xe
 3138 003b 3A       		.uleb128 0x3a
 3139 003c 0B       		.uleb128 0xb
 3140 003d 3B       		.uleb128 0x3b
 3141 003e 05       		.uleb128 0x5
 3142 003f 49       		.uleb128 0x49
 3143 0040 13       		.uleb128 0x13
 3144 0041 00       		.byte	0
 3145 0042 00       		.byte	0
 3146 0043 06       		.uleb128 0x6
 3147 0044 35       		.uleb128 0x35
 3148 0045 00       		.byte	0
 3149 0046 49       		.uleb128 0x49
 3150 0047 13       		.uleb128 0x13
 3151 0048 00       		.byte	0
 3152 0049 00       		.byte	0
 3153 004a 07       		.uleb128 0x7
 3154 004b 0F       		.uleb128 0xf
 3155 004c 00       		.byte	0
 3156 004d 0B       		.uleb128 0xb
 3157 004e 0B       		.uleb128 0xb
 3158 004f 00       		.byte	0
 3159 0050 00       		.byte	0
 3160 0051 08       		.uleb128 0x8
 3161 0052 01       		.uleb128 0x1
 3162 0053 01       		.byte	0x1
 3163 0054 49       		.uleb128 0x49
 3164 0055 13       		.uleb128 0x13
 3165 0056 01       		.uleb128 0x1
 3166 0057 13       		.uleb128 0x13
 3167 0058 00       		.byte	0
 3168 0059 00       		.byte	0
 3169 005a 09       		.uleb128 0x9
 3170 005b 21       		.uleb128 0x21
 3171 005c 00       		.byte	0
 3172 005d 49       		.uleb128 0x49
 3173 005e 13       		.uleb128 0x13
 3174 005f 2F       		.uleb128 0x2f
 3175 0060 0B       		.uleb128 0xb
 3176 0061 00       		.byte	0
 3177 0062 00       		.byte	0
 3178 0063 0A       		.uleb128 0xa
 3179 0064 04       		.uleb128 0x4
 3180 0065 01       		.byte	0x1
 3181 0066 03       		.uleb128 0x3
 3182 0067 0E       		.uleb128 0xe
ARM GAS  C:\Users\RECEPC~1\AppData\Local\Temp\ccUYVmA0.s 			page 66


 3183 0068 0B       		.uleb128 0xb
 3184 0069 0B       		.uleb128 0xb
 3185 006a 3A       		.uleb128 0x3a
 3186 006b 0B       		.uleb128 0xb
 3187 006c 3B       		.uleb128 0x3b
 3188 006d 0B       		.uleb128 0xb
 3189 006e 01       		.uleb128 0x1
 3190 006f 13       		.uleb128 0x13
 3191 0070 00       		.byte	0
 3192 0071 00       		.byte	0
 3193 0072 0B       		.uleb128 0xb
 3194 0073 28       		.uleb128 0x28
 3195 0074 00       		.byte	0
 3196 0075 03       		.uleb128 0x3
 3197 0076 0E       		.uleb128 0xe
 3198 0077 1C       		.uleb128 0x1c
 3199 0078 0D       		.uleb128 0xd
 3200 0079 00       		.byte	0
 3201 007a 00       		.byte	0
 3202 007b 0C       		.uleb128 0xc
 3203 007c 13       		.uleb128 0x13
 3204 007d 01       		.byte	0x1
 3205 007e 03       		.uleb128 0x3
 3206 007f 0E       		.uleb128 0xe
 3207 0080 0B       		.uleb128 0xb
 3208 0081 05       		.uleb128 0x5
 3209 0082 3A       		.uleb128 0x3a
 3210 0083 0B       		.uleb128 0xb
 3211 0084 3B       		.uleb128 0x3b
 3212 0085 0B       		.uleb128 0xb
 3213 0086 01       		.uleb128 0x1
 3214 0087 13       		.uleb128 0x13
 3215 0088 00       		.byte	0
 3216 0089 00       		.byte	0
 3217 008a 0D       		.uleb128 0xd
 3218 008b 0D       		.uleb128 0xd
 3219 008c 00       		.byte	0
 3220 008d 03       		.uleb128 0x3
 3221 008e 0E       		.uleb128 0xe
 3222 008f 3A       		.uleb128 0x3a
 3223 0090 0B       		.uleb128 0xb
 3224 0091 3B       		.uleb128 0x3b
 3225 0092 0B       		.uleb128 0xb
 3226 0093 49       		.uleb128 0x49
 3227 0094 13       		.uleb128 0x13
 3228 0095 38       		.uleb128 0x38
 3229 0096 0B       		.uleb128 0xb
 3230 0097 00       		.byte	0
 3231 0098 00       		.byte	0
 3232 0099 0E       		.uleb128 0xe
 3233 009a 0D       		.uleb128 0xd
 3234 009b 00       		.byte	0
 3235 009c 03       		.uleb128 0x3
 3236 009d 0E       		.uleb128 0xe
 3237 009e 3A       		.uleb128 0x3a
 3238 009f 0B       		.uleb128 0xb
 3239 00a0 3B       		.uleb128 0x3b
ARM GAS  C:\Users\RECEPC~1\AppData\Local\Temp\ccUYVmA0.s 			page 67


 3240 00a1 0B       		.uleb128 0xb
 3241 00a2 49       		.uleb128 0x49
 3242 00a3 13       		.uleb128 0x13
 3243 00a4 38       		.uleb128 0x38
 3244 00a5 05       		.uleb128 0x5
 3245 00a6 00       		.byte	0
 3246 00a7 00       		.byte	0
 3247 00a8 0F       		.uleb128 0xf
 3248 00a9 21       		.uleb128 0x21
 3249 00aa 00       		.byte	0
 3250 00ab 49       		.uleb128 0x49
 3251 00ac 13       		.uleb128 0x13
 3252 00ad 2F       		.uleb128 0x2f
 3253 00ae 05       		.uleb128 0x5
 3254 00af 00       		.byte	0
 3255 00b0 00       		.byte	0
 3256 00b1 10       		.uleb128 0x10
 3257 00b2 15       		.uleb128 0x15
 3258 00b3 01       		.byte	0x1
 3259 00b4 27       		.uleb128 0x27
 3260 00b5 19       		.uleb128 0x19
 3261 00b6 01       		.uleb128 0x1
 3262 00b7 13       		.uleb128 0x13
 3263 00b8 00       		.byte	0
 3264 00b9 00       		.byte	0
 3265 00ba 11       		.uleb128 0x11
 3266 00bb 05       		.uleb128 0x5
 3267 00bc 00       		.byte	0
 3268 00bd 49       		.uleb128 0x49
 3269 00be 13       		.uleb128 0x13
 3270 00bf 00       		.byte	0
 3271 00c0 00       		.byte	0
 3272 00c1 12       		.uleb128 0x12
 3273 00c2 0F       		.uleb128 0xf
 3274 00c3 00       		.byte	0
 3275 00c4 0B       		.uleb128 0xb
 3276 00c5 0B       		.uleb128 0xb
 3277 00c6 49       		.uleb128 0x49
 3278 00c7 13       		.uleb128 0x13
 3279 00c8 00       		.byte	0
 3280 00c9 00       		.byte	0
 3281 00ca 13       		.uleb128 0x13
 3282 00cb 13       		.uleb128 0x13
 3283 00cc 01       		.byte	0x1
 3284 00cd 03       		.uleb128 0x3
 3285 00ce 0E       		.uleb128 0xe
 3286 00cf 0B       		.uleb128 0xb
 3287 00d0 0B       		.uleb128 0xb
 3288 00d1 3A       		.uleb128 0x3a
 3289 00d2 0B       		.uleb128 0xb
 3290 00d3 3B       		.uleb128 0x3b
 3291 00d4 0B       		.uleb128 0xb
 3292 00d5 01       		.uleb128 0x1
 3293 00d6 13       		.uleb128 0x13
 3294 00d7 00       		.byte	0
 3295 00d8 00       		.byte	0
 3296 00d9 14       		.uleb128 0x14
ARM GAS  C:\Users\RECEPC~1\AppData\Local\Temp\ccUYVmA0.s 			page 68


 3297 00da 13       		.uleb128 0x13
 3298 00db 01       		.byte	0x1
 3299 00dc 0B       		.uleb128 0xb
 3300 00dd 05       		.uleb128 0x5
 3301 00de 3A       		.uleb128 0x3a
 3302 00df 0B       		.uleb128 0xb
 3303 00e0 3B       		.uleb128 0x3b
 3304 00e1 05       		.uleb128 0x5
 3305 00e2 01       		.uleb128 0x1
 3306 00e3 13       		.uleb128 0x13
 3307 00e4 00       		.byte	0
 3308 00e5 00       		.byte	0
 3309 00e6 15       		.uleb128 0x15
 3310 00e7 0D       		.uleb128 0xd
 3311 00e8 00       		.byte	0
 3312 00e9 03       		.uleb128 0x3
 3313 00ea 0E       		.uleb128 0xe
 3314 00eb 3A       		.uleb128 0x3a
 3315 00ec 0B       		.uleb128 0xb
 3316 00ed 3B       		.uleb128 0x3b
 3317 00ee 05       		.uleb128 0x5
 3318 00ef 49       		.uleb128 0x49
 3319 00f0 13       		.uleb128 0x13
 3320 00f1 38       		.uleb128 0x38
 3321 00f2 0B       		.uleb128 0xb
 3322 00f3 00       		.byte	0
 3323 00f4 00       		.byte	0
 3324 00f5 16       		.uleb128 0x16
 3325 00f6 0D       		.uleb128 0xd
 3326 00f7 00       		.byte	0
 3327 00f8 03       		.uleb128 0x3
 3328 00f9 0E       		.uleb128 0xe
 3329 00fa 3A       		.uleb128 0x3a
 3330 00fb 0B       		.uleb128 0xb
 3331 00fc 3B       		.uleb128 0x3b
 3332 00fd 05       		.uleb128 0x5
 3333 00fe 49       		.uleb128 0x49
 3334 00ff 13       		.uleb128 0x13
 3335 0100 38       		.uleb128 0x38
 3336 0101 05       		.uleb128 0x5
 3337 0102 00       		.byte	0
 3338 0103 00       		.byte	0
 3339 0104 17       		.uleb128 0x17
 3340 0105 13       		.uleb128 0x13
 3341 0106 01       		.byte	0x1
 3342 0107 0B       		.uleb128 0xb
 3343 0108 0B       		.uleb128 0xb
 3344 0109 3A       		.uleb128 0x3a
 3345 010a 0B       		.uleb128 0xb
 3346 010b 3B       		.uleb128 0x3b
 3347 010c 05       		.uleb128 0x5
 3348 010d 01       		.uleb128 0x1
 3349 010e 13       		.uleb128 0x13
 3350 010f 00       		.byte	0
 3351 0110 00       		.byte	0
 3352 0111 18       		.uleb128 0x18
 3353 0112 13       		.uleb128 0x13
ARM GAS  C:\Users\RECEPC~1\AppData\Local\Temp\ccUYVmA0.s 			page 69


 3354 0113 01       		.byte	0x1
 3355 0114 03       		.uleb128 0x3
 3356 0115 0E       		.uleb128 0xe
 3357 0116 0B       		.uleb128 0xb
 3358 0117 05       		.uleb128 0x5
 3359 0118 3A       		.uleb128 0x3a
 3360 0119 0B       		.uleb128 0xb
 3361 011a 3B       		.uleb128 0x3b
 3362 011b 05       		.uleb128 0x5
 3363 011c 01       		.uleb128 0x1
 3364 011d 13       		.uleb128 0x13
 3365 011e 00       		.byte	0
 3366 011f 00       		.byte	0
 3367 0120 19       		.uleb128 0x19
 3368 0121 15       		.uleb128 0x15
 3369 0122 01       		.byte	0x1
 3370 0123 27       		.uleb128 0x27
 3371 0124 19       		.uleb128 0x19
 3372 0125 49       		.uleb128 0x49
 3373 0126 13       		.uleb128 0x13
 3374 0127 01       		.uleb128 0x1
 3375 0128 13       		.uleb128 0x13
 3376 0129 00       		.byte	0
 3377 012a 00       		.byte	0
 3378 012b 1A       		.uleb128 0x1a
 3379 012c 13       		.uleb128 0x13
 3380 012d 01       		.byte	0x1
 3381 012e 03       		.uleb128 0x3
 3382 012f 0E       		.uleb128 0xe
 3383 0130 0B       		.uleb128 0xb
 3384 0131 0B       		.uleb128 0xb
 3385 0132 3A       		.uleb128 0x3a
 3386 0133 0B       		.uleb128 0xb
 3387 0134 3B       		.uleb128 0x3b
 3388 0135 05       		.uleb128 0x5
 3389 0136 01       		.uleb128 0x1
 3390 0137 13       		.uleb128 0x13
 3391 0138 00       		.byte	0
 3392 0139 00       		.byte	0
 3393 013a 1B       		.uleb128 0x1b
 3394 013b 2E       		.uleb128 0x2e
 3395 013c 01       		.byte	0x1
 3396 013d 3F       		.uleb128 0x3f
 3397 013e 19       		.uleb128 0x19
 3398 013f 03       		.uleb128 0x3
 3399 0140 0E       		.uleb128 0xe
 3400 0141 3A       		.uleb128 0x3a
 3401 0142 0B       		.uleb128 0xb
 3402 0143 3B       		.uleb128 0x3b
 3403 0144 0B       		.uleb128 0xb
 3404 0145 11       		.uleb128 0x11
 3405 0146 01       		.uleb128 0x1
 3406 0147 12       		.uleb128 0x12
 3407 0148 06       		.uleb128 0x6
 3408 0149 40       		.uleb128 0x40
 3409 014a 18       		.uleb128 0x18
 3410 014b 9642     		.uleb128 0x2116
ARM GAS  C:\Users\RECEPC~1\AppData\Local\Temp\ccUYVmA0.s 			page 70


 3411 014d 19       		.uleb128 0x19
 3412 014e 01       		.uleb128 0x1
 3413 014f 13       		.uleb128 0x13
 3414 0150 00       		.byte	0
 3415 0151 00       		.byte	0
 3416 0152 1C       		.uleb128 0x1c
 3417 0153 34       		.uleb128 0x34
 3418 0154 00       		.byte	0
 3419 0155 03       		.uleb128 0x3
 3420 0156 0E       		.uleb128 0xe
 3421 0157 3A       		.uleb128 0x3a
 3422 0158 0B       		.uleb128 0xb
 3423 0159 3B       		.uleb128 0x3b
 3424 015a 0B       		.uleb128 0xb
 3425 015b 49       		.uleb128 0x49
 3426 015c 13       		.uleb128 0x13
 3427 015d 02       		.uleb128 0x2
 3428 015e 18       		.uleb128 0x18
 3429 015f 00       		.byte	0
 3430 0160 00       		.byte	0
 3431 0161 1D       		.uleb128 0x1d
 3432 0162 0B       		.uleb128 0xb
 3433 0163 01       		.byte	0x1
 3434 0164 11       		.uleb128 0x11
 3435 0165 01       		.uleb128 0x1
 3436 0166 12       		.uleb128 0x12
 3437 0167 06       		.uleb128 0x6
 3438 0168 01       		.uleb128 0x1
 3439 0169 13       		.uleb128 0x13
 3440 016a 00       		.byte	0
 3441 016b 00       		.byte	0
 3442 016c 1E       		.uleb128 0x1e
 3443 016d 0B       		.uleb128 0xb
 3444 016e 01       		.byte	0x1
 3445 016f 11       		.uleb128 0x11
 3446 0170 01       		.uleb128 0x1
 3447 0171 12       		.uleb128 0x12
 3448 0172 06       		.uleb128 0x6
 3449 0173 00       		.byte	0
 3450 0174 00       		.byte	0
 3451 0175 1F       		.uleb128 0x1f
 3452 0176 2E       		.uleb128 0x2e
 3453 0177 01       		.byte	0x1
 3454 0178 3F       		.uleb128 0x3f
 3455 0179 19       		.uleb128 0x19
 3456 017a 03       		.uleb128 0x3
 3457 017b 0E       		.uleb128 0xe
 3458 017c 3A       		.uleb128 0x3a
 3459 017d 0B       		.uleb128 0xb
 3460 017e 3B       		.uleb128 0x3b
 3461 017f 05       		.uleb128 0x5
 3462 0180 11       		.uleb128 0x11
 3463 0181 01       		.uleb128 0x1
 3464 0182 12       		.uleb128 0x12
 3465 0183 06       		.uleb128 0x6
 3466 0184 40       		.uleb128 0x40
 3467 0185 18       		.uleb128 0x18
ARM GAS  C:\Users\RECEPC~1\AppData\Local\Temp\ccUYVmA0.s 			page 71


 3468 0186 9642     		.uleb128 0x2116
 3469 0188 19       		.uleb128 0x19
 3470 0189 01       		.uleb128 0x1
 3471 018a 13       		.uleb128 0x13
 3472 018b 00       		.byte	0
 3473 018c 00       		.byte	0
 3474 018d 20       		.uleb128 0x20
 3475 018e 34       		.uleb128 0x34
 3476 018f 00       		.byte	0
 3477 0190 03       		.uleb128 0x3
 3478 0191 0E       		.uleb128 0xe
 3479 0192 3A       		.uleb128 0x3a
 3480 0193 0B       		.uleb128 0xb
 3481 0194 3B       		.uleb128 0x3b
 3482 0195 05       		.uleb128 0x5
 3483 0196 49       		.uleb128 0x49
 3484 0197 13       		.uleb128 0x13
 3485 0198 02       		.uleb128 0x2
 3486 0199 18       		.uleb128 0x18
 3487 019a 00       		.byte	0
 3488 019b 00       		.byte	0
 3489 019c 21       		.uleb128 0x21
 3490 019d 2E       		.uleb128 0x2e
 3491 019e 01       		.byte	0x1
 3492 019f 3F       		.uleb128 0x3f
 3493 01a0 19       		.uleb128 0x19
 3494 01a1 03       		.uleb128 0x3
 3495 01a2 0E       		.uleb128 0xe
 3496 01a3 3A       		.uleb128 0x3a
 3497 01a4 0B       		.uleb128 0xb
 3498 01a5 3B       		.uleb128 0x3b
 3499 01a6 05       		.uleb128 0x5
 3500 01a7 27       		.uleb128 0x27
 3501 01a8 19       		.uleb128 0x19
 3502 01a9 11       		.uleb128 0x11
 3503 01aa 01       		.uleb128 0x1
 3504 01ab 12       		.uleb128 0x12
 3505 01ac 06       		.uleb128 0x6
 3506 01ad 40       		.uleb128 0x40
 3507 01ae 18       		.uleb128 0x18
 3508 01af 9642     		.uleb128 0x2116
 3509 01b1 19       		.uleb128 0x19
 3510 01b2 01       		.uleb128 0x1
 3511 01b3 13       		.uleb128 0x13
 3512 01b4 00       		.byte	0
 3513 01b5 00       		.byte	0
 3514 01b6 22       		.uleb128 0x22
 3515 01b7 05       		.uleb128 0x5
 3516 01b8 00       		.byte	0
 3517 01b9 03       		.uleb128 0x3
 3518 01ba 0E       		.uleb128 0xe
 3519 01bb 3A       		.uleb128 0x3a
 3520 01bc 0B       		.uleb128 0xb
 3521 01bd 3B       		.uleb128 0x3b
 3522 01be 05       		.uleb128 0x5
 3523 01bf 49       		.uleb128 0x49
 3524 01c0 13       		.uleb128 0x13
ARM GAS  C:\Users\RECEPC~1\AppData\Local\Temp\ccUYVmA0.s 			page 72


 3525 01c1 02       		.uleb128 0x2
 3526 01c2 18       		.uleb128 0x18
 3527 01c3 00       		.byte	0
 3528 01c4 00       		.byte	0
 3529 01c5 23       		.uleb128 0x23
 3530 01c6 34       		.uleb128 0x34
 3531 01c7 00       		.byte	0
 3532 01c8 03       		.uleb128 0x3
 3533 01c9 0E       		.uleb128 0xe
 3534 01ca 3A       		.uleb128 0x3a
 3535 01cb 0B       		.uleb128 0xb
 3536 01cc 3B       		.uleb128 0x3b
 3537 01cd 05       		.uleb128 0x5
 3538 01ce 49       		.uleb128 0x49
 3539 01cf 13       		.uleb128 0x13
 3540 01d0 3F       		.uleb128 0x3f
 3541 01d1 19       		.uleb128 0x19
 3542 01d2 3C       		.uleb128 0x3c
 3543 01d3 19       		.uleb128 0x19
 3544 01d4 00       		.byte	0
 3545 01d5 00       		.byte	0
 3546 01d6 24       		.uleb128 0x24
 3547 01d7 34       		.uleb128 0x34
 3548 01d8 00       		.byte	0
 3549 01d9 03       		.uleb128 0x3
 3550 01da 0E       		.uleb128 0xe
 3551 01db 3A       		.uleb128 0x3a
 3552 01dc 0B       		.uleb128 0xb
 3553 01dd 3B       		.uleb128 0x3b
 3554 01de 0B       		.uleb128 0xb
 3555 01df 49       		.uleb128 0x49
 3556 01e0 13       		.uleb128 0x13
 3557 01e1 3F       		.uleb128 0x3f
 3558 01e2 19       		.uleb128 0x19
 3559 01e3 3C       		.uleb128 0x3c
 3560 01e4 19       		.uleb128 0x19
 3561 01e5 00       		.byte	0
 3562 01e6 00       		.byte	0
 3563 01e7 25       		.uleb128 0x25
 3564 01e8 34       		.uleb128 0x34
 3565 01e9 00       		.byte	0
 3566 01ea 03       		.uleb128 0x3
 3567 01eb 0E       		.uleb128 0xe
 3568 01ec 3A       		.uleb128 0x3a
 3569 01ed 0B       		.uleb128 0xb
 3570 01ee 3B       		.uleb128 0x3b
 3571 01ef 0B       		.uleb128 0xb
 3572 01f0 49       		.uleb128 0x49
 3573 01f1 13       		.uleb128 0x13
 3574 01f2 3F       		.uleb128 0x3f
 3575 01f3 19       		.uleb128 0x19
 3576 01f4 02       		.uleb128 0x2
 3577 01f5 18       		.uleb128 0x18
 3578 01f6 00       		.byte	0
 3579 01f7 00       		.byte	0
 3580 01f8 00       		.byte	0
 3581              		.section	.debug_aranges,"",%progbits
ARM GAS  C:\Users\RECEPC~1\AppData\Local\Temp\ccUYVmA0.s 			page 73


 3582 0000 3C000000 		.4byte	0x3c
 3583 0004 0200     		.2byte	0x2
 3584 0006 00000000 		.4byte	.Ldebug_info0
 3585 000a 04       		.byte	0x4
 3586 000b 00       		.byte	0
 3587 000c 0000     		.2byte	0
 3588 000e 0000     		.2byte	0
 3589 0010 00000000 		.4byte	.LFB63
 3590 0014 A0020000 		.4byte	.LFE63-.LFB63
 3591 0018 00000000 		.4byte	.LFB64
 3592 001c 50020000 		.4byte	.LFE64-.LFB64
 3593 0020 00000000 		.4byte	.LFB65
 3594 0024 F8000000 		.4byte	.LFE65-.LFB65
 3595 0028 00000000 		.4byte	.LFB66
 3596 002c A8020000 		.4byte	.LFE66-.LFB66
 3597 0030 00000000 		.4byte	.LFB67
 3598 0034 84000000 		.4byte	.LFE67-.LFB67
 3599 0038 00000000 		.4byte	0
 3600 003c 00000000 		.4byte	0
 3601              		.section	.debug_ranges,"",%progbits
 3602              	.Ldebug_ranges0:
 3603 0000 00000000 		.4byte	.LFB63
 3604 0004 A0020000 		.4byte	.LFE63
 3605 0008 00000000 		.4byte	.LFB64
 3606 000c 50020000 		.4byte	.LFE64
 3607 0010 00000000 		.4byte	.LFB65
 3608 0014 F8000000 		.4byte	.LFE65
 3609 0018 00000000 		.4byte	.LFB66
 3610 001c A8020000 		.4byte	.LFE66
 3611 0020 00000000 		.4byte	.LFB67
 3612 0024 84000000 		.4byte	.LFE67
 3613 0028 00000000 		.4byte	0
 3614 002c 00000000 		.4byte	0
 3615              		.section	.debug_line,"",%progbits
 3616              	.Ldebug_line0:
 3617 0000 FE020000 		.section	.debug_str,"MS",%progbits,1
 3617      02008D01 
 3617      00000201 
 3617      FB0E0D00 
 3617      01010101 
 3618              	.LASF22:
 3619 0000 4E4F4E45 		.ascii	"NONE\000"
 3619      00
 3620              	.LASF167:
 3621 0005 46696E61 		.ascii	"Finalization\000"
 3621      6C697A61 
 3621      74696F6E 
 3621      00
 3622              	.LASF190:
 3623 0012 456E7175 		.ascii	"Enqueue\000"
 3623      65756500 
 3624              	.LASF150:
 3625 001a 5F617574 		.ascii	"_authorizationinfo\000"
 3625      686F7269 
 3625      7A617469 
 3625      6F6E696E 
 3625      666F00
ARM GAS  C:\Users\RECEPC~1\AppData\Local\Temp\ccUYVmA0.s 			page 74


 3626              	.LASF76:
 3627 002d 5052494E 		.ascii	"PRINTER21_JOB\000"
 3627      54455232 
 3627      315F4A4F 
 3627      4200
 3628              	.LASF146:
 3629 003b 50756D70 		.ascii	"PumpTransQueueAllocate\000"
 3629      5472616E 
 3629      73517565 
 3629      7565416C 
 3629      6C6F6361 
 3630              	.LASF194:
 3631 0052 50756D70 		.ascii	"PumpJobQueue\000"
 3631      4A6F6251 
 3631      75657565 
 3631      00
 3632              	.LASF134:
 3633 005f 5F747261 		.ascii	"_transhealth\000"
 3633      6E736865 
 3633      616C7468 
 3633      00
 3634              	.LASF132:
 3635 006c 5F72746D 		.ascii	"_rtmoneyamount\000"
 3635      6F6E6579 
 3635      616D6F75 
 3635      6E7400
 3636              	.LASF148:
 3637 007b 50756D70 		.ascii	"PumpValidState\000"
 3637      56616C69 
 3637      64537461 
 3637      746500
 3638              	.LASF157:
 3639 008a 52657370 		.ascii	"ResponseSizeResolver\000"
 3639      6F6E7365 
 3639      53697A65 
 3639      5265736F 
 3639      6C766572 
 3640              	.LASF213:
 3641 009f 5F675F70 		.ascii	"_g_pumpjobqueue\000"
 3641      756D706A 
 3641      6F627175 
 3641      65756500 
 3642              	.LASF37:
 3643 00af 5F6D6573 		.ascii	"_messagetype\000"
 3643      73616765 
 3643      74797065 
 3643      00
 3644              	.LASF45:
 3645 00bc 5F706461 		.ascii	"_pdata\000"
 3645      746100
 3646              	.LASF119:
 3647 00c3 5F70756D 		.ascii	"_pumpid\000"
 3647      70696400 
 3648              	.LASF114:
 3649 00cb 5F707265 		.ascii	"_presetamount\000"
 3649      73657461 
 3649      6D6F756E 
ARM GAS  C:\Users\RECEPC~1\AppData\Local\Temp\ccUYVmA0.s 			page 75


 3649      7400
 3650              	.LASF152:
 3651 00d9 50756D70 		.ascii	"Pump\000"
 3651      00
 3652              	.LASF138:
 3653 00de 5F727862 		.ascii	"_rxbuffersize\000"
 3653      75666665 
 3653      7273697A 
 3653      6500
 3654              	.LASF58:
 3655 00ec 53494E4B 		.ascii	"SINK_UPDATE_COUNTERS\000"
 3655      5F555044 
 3655      4154455F 
 3655      434F554E 
 3655      54455253 
 3656              	.LASF7:
 3657 0101 6C6F6E67 		.ascii	"long long unsigned int\000"
 3657      206C6F6E 
 3657      6720756E 
 3657      7369676E 
 3657      65642069 
 3658              	.LASF57:
 3659 0118 55415254 		.ascii	"UART_RF_AUTONOMOUS_MONITOR\000"
 3659      5F52465F 
 3659      4155544F 
 3659      4E4F4D4F 
 3659      55535F4D 
 3660              	.LASF174:
 3661 0133 5F726570 		.ascii	"_repushtimeoutseed\000"
 3661      75736874 
 3661      696D656F 
 3661      75747365 
 3661      656400
 3662              	.LASF29:
 3663 0146 414C4C49 		.ascii	"ALLINTERESTEDFOREVER\000"
 3663      4E544552 
 3663      45535445 
 3663      44464F52 
 3663      45564552 
 3664              	.LASF145:
 3665 015b 50756D70 		.ascii	"PumpTransQueueDeallocate\000"
 3665      5472616E 
 3665      73517565 
 3665      75654465 
 3665      616C6C6F 
 3666              	.LASF175:
 3667 0174 5F726570 		.ascii	"_repushtimeoutmultiplier\000"
 3667      75736874 
 3667      696D656F 
 3667      75746D75 
 3667      6C746970 
 3668              	.LASF78:
 3669 018d 5052494E 		.ascii	"PRINTER1_GENERIC_JOB\000"
 3669      54455231 
 3669      5F47454E 
 3669      45524943 
 3669      5F4A4F42 
ARM GAS  C:\Users\RECEPC~1\AppData\Local\Temp\ccUYVmA0.s 			page 76


 3670              	.LASF80:
 3671 01a2 44495350 		.ascii	"DISPLAY_UPDATE_PUMP_STATE\000"
 3671      4C41595F 
 3671      55504441 
 3671      54455F50 
 3671      554D505F 
 3672              	.LASF212:
 3673 01bc 49544D5F 		.ascii	"ITM_RxBuffer\000"
 3673      52784275 
 3673      66666572 
 3673      00
 3674              	.LASF197:
 3675 01c9 50756D70 		.ascii	"PumpResponseContext\000"
 3675      52657370 
 3675      6F6E7365 
 3675      436F6E74 
 3675      65787400 
 3676              	.LASF66:
 3677 01dd 44495350 		.ascii	"DISPENSER_LOAD_EEPROM_SETTINGS\000"
 3677      454E5345 
 3677      525F4C4F 
 3677      41445F45 
 3677      4550524F 
 3678              	.LASF112:
 3679 01fc 5F686F73 		.ascii	"_hoseid\000"
 3679      65696400 
 3680              	.LASF6:
 3681 0204 6C6F6E67 		.ascii	"long long int\000"
 3681      206C6F6E 
 3681      6720696E 
 3681      7400
 3682              	.LASF0:
 3683 0212 7369676E 		.ascii	"signed char\000"
 3683      65642063 
 3683      68617200 
 3684              	.LASF54:
 3685 021e 5F53494E 		.ascii	"_SINK_OBSERVABLES_\000"
 3685      4B5F4F42 
 3685      53455256 
 3685      41424C45 
 3685      535F00
 3686              	.LASF34:
 3687 0231 53494E4B 		.ascii	"SINK_BUSY\000"
 3687      5F425553 
 3687      5900
 3688              	.LASF164:
 3689 023b 5F6F6E65 		.ascii	"_oneshotpostconditions\000"
 3689      73686F74 
 3689      706F7374 
 3689      636F6E64 
 3689      6974696F 
 3690              	.LASF173:
 3691 0252 5F726570 		.ascii	"_repushretriescounter\000"
 3691      75736872 
 3691      65747269 
 3691      6573636F 
 3691      756E7465 
ARM GAS  C:\Users\RECEPC~1\AppData\Local\Temp\ccUYVmA0.s 			page 77


 3692              	.LASF124:
 3693 0268 5F616371 		.ascii	"_acquiringstate\000"
 3693      75697269 
 3693      6E677374 
 3693      61746500 
 3694              	.LASF44:
 3695 0278 5F627566 		.ascii	"_buffersize\000"
 3695      66657273 
 3695      697A6500 
 3696              	.LASF14:
 3697 0284 696E7433 		.ascii	"int32\000"
 3697      3200
 3698              	.LASF52:
 3699 028a 5F617272 		.ascii	"_arrmsgid\000"
 3699      6D736769 
 3699      6400
 3700              	.LASF51:
 3701 0294 5F737461 		.ascii	"_state\000"
 3701      746500
 3702              	.LASF208:
 3703 029b 74696D65 		.ascii	"timespan\000"
 3703      7370616E 
 3703      00
 3704              	.LASF199:
 3705 02a4 7073696E 		.ascii	"psinkmsg\000"
 3705      6B6D7367 
 3705      00
 3706              	.LASF4:
 3707 02ad 6C6F6E67 		.ascii	"long int\000"
 3707      20696E74 
 3707      00
 3708              	.LASF160:
 3709 02b6 5F726573 		.ascii	"_responsesize\000"
 3709      706F6E73 
 3709      6573697A 
 3709      6500
 3710              	.LASF126:
 3711 02c4 5F707265 		.ascii	"_presetdone\000"
 3711      73657464 
 3711      6F6E6500 
 3712              	.LASF180:
 3713 02d0 5F707265 		.ascii	"_presponse\000"
 3713      73706F6E 
 3713      736500
 3714              	.LASF181:
 3715 02db 5F707075 		.ascii	"_ppump\000"
 3715      6D7000
 3716              	.LASF43:
 3717 02e2 5F627566 		.ascii	"_buffer\000"
 3717      66657200 
 3718              	.LASF215:
 3719 02ea 5F675F64 		.ascii	"_g_dispenserupdatetimeout\000"
 3719      69737065 
 3719      6E736572 
 3719      75706461 
 3719      74657469 
 3720              	.LASF16:
ARM GAS  C:\Users\RECEPC~1\AppData\Local\Temp\ccUYVmA0.s 			page 78


 3721 0304 646F7562 		.ascii	"double\000"
 3721      6C6500
 3722              	.LASF205:
 3723 030b 70726563 		.ascii	"preconditions\000"
 3723      6F6E6469 
 3723      74696F6E 
 3723      7300
 3724              	.LASF90:
 3725 0319 49425554 		.ascii	"IBUTTON2_SCAN\000"
 3725      544F4E32 
 3725      5F534341 
 3725      4E00
 3726              	.LASF123:
 3727 0327 5F686F73 		.ascii	"_hoseactivestate\000"
 3727      65616374 
 3727      69766573 
 3727      74617465 
 3727      00
 3728              	.LASF13:
 3729 0338 75696E74 		.ascii	"uint32\000"
 3729      333200
 3730              	.LASF71:
 3731 033f 44495350 		.ascii	"DISPENSER_CONFIGURE_SINGLE_PRICE\000"
 3731      454E5345 
 3731      525F434F 
 3731      4E464947 
 3731      5552455F 
 3732              	.LASF151:
 3733 0360 436C6561 		.ascii	"CleanUp\000"
 3733      6E557000 
 3734              	.LASF136:
 3735 0368 5F747261 		.ascii	"_trasactionbuffer\000"
 3735      73616374 
 3735      696F6E62 
 3735      75666665 
 3735      7200
 3736              	.LASF94:
 3737 037a 5F747261 		.ascii	"_transtate\000"
 3737      6E737461 
 3737      746500
 3738              	.LASF196:
 3739 0385 5F627566 		.ascii	"_bufferready\000"
 3739      66657272 
 3739      65616479 
 3739      00
 3740              	.LASF74:
 3741 0392 5052494E 		.ascii	"PRINTER11_JOB\000"
 3741      54455231 
 3741      315F4A4F 
 3741      4200
 3742              	.LASF170:
 3743 03a0 5F726565 		.ascii	"_reenqueuecounter\000"
 3743      6E717565 
 3743      7565636F 
 3743      756E7465 
 3743      7200
 3744              	.LASF140:
ARM GAS  C:\Users\RECEPC~1\AppData\Local\Temp\ccUYVmA0.s 			page 79


 3745 03b2 5F747261 		.ascii	"_transqueuelocked\000"
 3745      6E737175 
 3745      6575656C 
 3745      6F636B65 
 3745      6400
 3746              	.LASF31:
 3747 03c4 5F4D4553 		.ascii	"_MESSAGE_STATE_\000"
 3747      53414745 
 3747      5F535441 
 3747      54455F00 
 3748              	.LASF131:
 3749 03d4 5F707269 		.ascii	"_print\000"
 3749      6E7400
 3750              	.LASF153:
 3751 03db 5F50554D 		.ascii	"_PUMP_TRANSACTION_JOB_\000"
 3751      505F5452 
 3751      414E5341 
 3751      4354494F 
 3751      4E5F4A4F 
 3752              	.LASF122:
 3753 03f2 5F637572 		.ascii	"_currenthose\000"
 3753      72656E74 
 3753      686F7365 
 3753      00
 3754              	.LASF56:
 3755 03ff 55415254 		.ascii	"UART_RF_TEST\000"
 3755      5F52465F 
 3755      54455354 
 3755      00
 3756              	.LASF8:
 3757 040c 756E7369 		.ascii	"unsigned int\000"
 3757      676E6564 
 3757      20696E74 
 3757      00
 3758              	.LASF77:
 3759 0419 5052494E 		.ascii	"PRINTER22_JOB\000"
 3759      54455232 
 3759      325F4A4F 
 3759      4200
 3760              	.LASF83:
 3761 0427 44495350 		.ascii	"DISPLAY1_UPDATE_DATETIME\000"
 3761      4C415931 
 3761      5F555044 
 3761      4154455F 
 3761      44415445 
 3762              	.LASF88:
 3763 0440 44495350 		.ascii	"DISPLAY2_ANIMATE_HOME\000"
 3763      4C415932 
 3763      5F414E49 
 3763      4D415445 
 3763      5F484F4D 
 3764              	.LASF116:
 3765 0456 5F736572 		.ascii	"_serial\000"
 3765      69616C00 
 3766              	.LASF27:
 3767 045e 46495253 		.ascii	"FIRSTFOUNDFOREVER\000"
 3767      54464F55 
ARM GAS  C:\Users\RECEPC~1\AppData\Local\Temp\ccUYVmA0.s 			page 80


 3767      4E44464F 
 3767      52455645 
 3767      5200
 3768              	.LASF92:
 3769 0470 544F4747 		.ascii	"TOGGLE_SCREEN_AND_WRITE_TEST\000"
 3769      4C455F53 
 3769      43524545 
 3769      4E5F414E 
 3769      445F5752 
 3770              	.LASF39:
 3771 048d 5F6D6573 		.ascii	"_messagedelay\000"
 3771      73616765 
 3771      64656C61 
 3771      7900
 3772              	.LASF36:
 3773 049b 5F6D6573 		.ascii	"_messageid\000"
 3773      73616765 
 3773      696400
 3774              	.LASF32:
 3775 04a6 53494E4B 		.ascii	"SINK_FREE\000"
 3775      5F465245 
 3775      4500
 3776              	.LASF144:
 3777 04b0 50756D70 		.ascii	"PumpTransQueueEnqueue\000"
 3777      5472616E 
 3777      73517565 
 3777      7565456E 
 3777      71756575 
 3778              	.LASF201:
 3779 04c6 44697370 		.ascii	"DispenserSinkRegistration\000"
 3779      656E7365 
 3779      7253696E 
 3779      6B526567 
 3779      69737472 
 3780              	.LASF206:
 3781 04e0 70726563 		.ascii	"precondexecuted\000"
 3781      6F6E6465 
 3781      78656375 
 3781      74656400 
 3782              	.LASF11:
 3783 04f0 75696E74 		.ascii	"uint8\000"
 3783      3800
 3784              	.LASF165:
 3785 04f6 5F706F73 		.ascii	"_postconditions\000"
 3785      74636F6E 
 3785      64697469 
 3785      6F6E7300 
 3786              	.LASF176:
 3787 0506 5F726574 		.ascii	"_retriescounter\000"
 3787      72696573 
 3787      636F756E 
 3787      74657200 
 3788              	.LASF3:
 3789 0516 73686F72 		.ascii	"short unsigned int\000"
 3789      7420756E 
 3789      7369676E 
 3789      65642069 
ARM GAS  C:\Users\RECEPC~1\AppData\Local\Temp\ccUYVmA0.s 			page 81


 3789      6E7400
 3790              	.LASF193:
 3791 0529 436C6561 		.ascii	"Clear\000"
 3791      7200
 3792              	.LASF158:
 3793 052f 5F726573 		.ascii	"_responsetimeoutlimit\000"
 3793      706F6E73 
 3793      6574696D 
 3793      656F7574 
 3793      6C696D69 
 3794              	.LASF128:
 3795 0545 5F726F75 		.ascii	"_roundrobinstate\000"
 3795      6E64726F 
 3795      62696E73 
 3795      74617465 
 3795      00
 3796              	.LASF137:
 3797 0556 5F727862 		.ascii	"_rxbuffer\000"
 3797      75666665 
 3797      7200
 3798              	.LASF221:
 3799 0560 70706172 		.ascii	"pparam\000"
 3799      616D00
 3800              	.LASF65:
 3801 0567 44495350 		.ascii	"DISPENSER_UNLOCK_EOT_PUMPS\000"
 3801      454E5345 
 3801      525F554E 
 3801      4C4F434B 
 3801      5F454F54 
 3802              	.LASF79:
 3803 0582 5052494E 		.ascii	"PRINTER2_GENERIC_JOB\000"
 3803      54455232 
 3803      5F47454E 
 3803      45524943 
 3803      5F4A4F42 
 3804              	.LASF186:
 3805 0597 5F6A6F62 		.ascii	"_jobqueueheap\000"
 3805      71756575 
 3805      65686561 
 3805      7000
 3806              	.LASF40:
 3807 05a5 5F6D6573 		.ascii	"_messagetimeout\000"
 3807      73616765 
 3807      74696D65 
 3807      6F757400 
 3808              	.LASF73:
 3809 05b5 44495350 		.ascii	"DISPENSER_PUMP_HANDLER\000"
 3809      454E5345 
 3809      525F5055 
 3809      4D505F48 
 3809      414E444C 
 3810              	.LASF82:
 3811 05cc 44495350 		.ascii	"DISPLAY1_MESSAGE\000"
 3811      4C415931 
 3811      5F4D4553 
 3811      53414745 
 3811      00
ARM GAS  C:\Users\RECEPC~1\AppData\Local\Temp\ccUYVmA0.s 			page 82


 3812              	.LASF2:
 3813 05dd 73686F72 		.ascii	"short int\000"
 3813      7420696E 
 3813      7400
 3814              	.LASF139:
 3815 05e7 5F747261 		.ascii	"_transqueue\000"
 3815      6E737175 
 3815      65756500 
 3816              	.LASF179:
 3817 05f3 5F707265 		.ascii	"_prequest\000"
 3817      71756573 
 3817      7400
 3818              	.LASF60:
 3819 05fd 53494E4B 		.ascii	"SINK_RELEASE_BY_PTR\000"
 3819      5F52454C 
 3819      45415345 
 3819      5F42595F 
 3819      50545200 
 3820              	.LASF218:
 3821 0611 2E5C4469 		.ascii	".\\DispenserSink.c\000"
 3821      7370656E 
 3821      73657253 
 3821      696E6B2E 
 3821      6300
 3822              	.LASF189:
 3823 0623 416C6C6F 		.ascii	"Allocate\000"
 3823      63617465 
 3823      00
 3824              	.LASF211:
 3825 062c 706F7374 		.ascii	"postcondexecuted\000"
 3825      636F6E64 
 3825      65786563 
 3825      75746564 
 3825      00
 3826              	.LASF192:
 3827 063d 44657175 		.ascii	"Dequeue\000"
 3827      65756500 
 3828              	.LASF85:
 3829 0645 44495350 		.ascii	"DISPLAY2_RECEPTION\000"
 3829      4C415932 
 3829      5F524543 
 3829      45505449 
 3829      4F4E00
 3830              	.LASF115:
 3831 0658 5F766F6C 		.ascii	"_volumeamount\000"
 3831      756D6561 
 3831      6D6F756E 
 3831      7400
 3832              	.LASF84:
 3833 0666 44495350 		.ascii	"DISPLAY1_ANIMATE_HOME\000"
 3833      4C415931 
 3833      5F414E49 
 3833      4D415445 
 3833      5F484F4D 
 3834              	.LASF20:
 3835 067c 73697A65 		.ascii	"sizetype\000"
 3835      74797065 
ARM GAS  C:\Users\RECEPC~1\AppData\Local\Temp\ccUYVmA0.s 			page 83


 3835      00
 3836              	.LASF127:
 3837 0685 5F70756D 		.ascii	"_pumplocked\000"
 3837      706C6F63 
 3837      6B656400 
 3838              	.LASF21:
 3839 0691 6C6F6E67 		.ascii	"long double\000"
 3839      20646F75 
 3839      626C6500 
 3840              	.LASF202:
 3841 069d 44697370 		.ascii	"DispenserHandler\000"
 3841      656E7365 
 3841      7248616E 
 3841      646C6572 
 3841      00
 3842              	.LASF41:
 3843 06ae 5F6D6573 		.ascii	"_messagetimeoutmultiplier\000"
 3843      73616765 
 3843      74696D65 
 3843      6F75746D 
 3843      756C7469 
 3844              	.LASF182:
 3845 06c8 50756D70 		.ascii	"PumpTransactionJobContext\000"
 3845      5472616E 
 3845      73616374 
 3845      696F6E4A 
 3845      6F62436F 
 3846              	.LASF75:
 3847 06e2 5052494E 		.ascii	"PRINTER12_JOB\000"
 3847      54455231 
 3847      325F4A4F 
 3847      4200
 3848              	.LASF53:
 3849 06f0 5053494E 		.ascii	"PSINKSUBSCRIBERPTR\000"
 3849      4B535542 
 3849      53435249 
 3849      42455250 
 3849      545200
 3850              	.LASF117:
 3851 0703 50756D70 		.ascii	"PumpAuthorizationInfo\000"
 3851      41757468 
 3851      6F72697A 
 3851      6174696F 
 3851      6E496E66 
 3852              	.LASF104:
 3853 0719 5F766172 		.ascii	"_var7\000"
 3853      3700
 3854              	.LASF35:
 3855 071f 5F73656C 		.ascii	"_selfkill\000"
 3855      666B696C 
 3855      6C00
 3856              	.LASF183:
 3857 0729 5050554D 		.ascii	"PPUMPTRANSACTIONJOBCONTEXTPTR\000"
 3857      50545241 
 3857      4E534143 
 3857      54494F4E 
 3857      4A4F4243 
ARM GAS  C:\Users\RECEPC~1\AppData\Local\Temp\ccUYVmA0.s 			page 84


 3858              	.LASF198:
 3859 0747 70737562 		.ascii	"psubscriber\000"
 3859      73637269 
 3859      62657200 
 3860              	.LASF142:
 3861 0753 50756D70 		.ascii	"PumpTransQueueUnlock\000"
 3861      5472616E 
 3861      73517565 
 3861      7565556E 
 3861      6C6F636B 
 3862              	.LASF69:
 3863 0768 44495350 		.ascii	"DISPENSER_CONFIGURE_PRICES\000"
 3863      454E5345 
 3863      525F434F 
 3863      4E464947 
 3863      5552455F 
 3864              	.LASF217:
 3865 0783 474E5520 		.ascii	"GNU C 4.9.3 20150303 (release) [ARM/embedded-4_9-br"
 3865      4320342E 
 3865      392E3320 
 3865      32303135 
 3865      30333033 
 3866 07b6 616E6368 		.ascii	"anch revision 221220] -mcpu=cortex-m3 -mthumb -g -O"
 3866      20726576 
 3866      6973696F 
 3866      6E203232 
 3866      31323230 
 3867 07e9 30202D66 		.ascii	"0 -ffunction-sections -ffat-lto-objects\000"
 3867      66756E63 
 3867      74696F6E 
 3867      2D736563 
 3867      74696F6E 
 3868              	.LASF95:
 3869 0811 50756D70 		.ascii	"PumpTransactionalState\000"
 3869      5472616E 
 3869      73616374 
 3869      696F6E61 
 3869      6C537461 
 3870              	.LASF109:
 3871 0828 50756D70 		.ascii	"PumpDataContainer\000"
 3871      44617461 
 3871      436F6E74 
 3871      61696E65 
 3871      7200
 3872              	.LASF149:
 3873 083a 5F646174 		.ascii	"_datacontainer\000"
 3873      61636F6E 
 3873      7461696E 
 3873      657200
 3874              	.LASF24:
 3875 0849 46495253 		.ascii	"FIRSTFOUND\000"
 3875      54464F55 
 3875      4E4400
 3876              	.LASF135:
 3877 0854 5F706375 		.ascii	"_pcurrtransaction\000"
 3877      72727472 
 3877      616E7361 
ARM GAS  C:\Users\RECEPC~1\AppData\Local\Temp\ccUYVmA0.s 			page 85


 3877      6374696F 
 3877      6E00
 3878              	.LASF187:
 3879 0866 5F706A6F 		.ascii	"_pjobqueueallocated\000"
 3879      62717565 
 3879      7565616C 
 3879      6C6F6361 
 3879      74656400 
 3880              	.LASF86:
 3881 087a 44495350 		.ascii	"DISPLAY2_MESSAGE\000"
 3881      4C415932 
 3881      5F4D4553 
 3881      53414745 
 3881      00
 3882              	.LASF133:
 3883 088b 5F727476 		.ascii	"_rtvolumeamount\000"
 3883      6F6C756D 
 3883      65616D6F 
 3883      756E7400 
 3884              	.LASF38:
 3885 089b 5F6D6573 		.ascii	"_messagestate\000"
 3885      73616765 
 3885      73746174 
 3885      6500
 3886              	.LASF33:
 3887 08a9 53494E4B 		.ascii	"SINK_ALLOCATED\000"
 3887      5F414C4C 
 3887      4F434154 
 3887      454400
 3888              	.LASF204:
 3889 08b8 6F6E6573 		.ascii	"oneshot\000"
 3889      686F7400 
 3890              	.LASF63:
 3891 08c0 44495350 		.ascii	"DISPENSER_UPDATE_STATE2\000"
 3891      454E5345 
 3891      525F5550 
 3891      44415445 
 3891      5F535441 
 3892              	.LASF155:
 3893 08d8 52657370 		.ascii	"Response\000"
 3893      6F6E7365 
 3893      00
 3894              	.LASF161:
 3895 08e1 5F726574 		.ascii	"_retryinsteadofrepush\000"
 3895      7279696E 
 3895      73746561 
 3895      646F6672 
 3895      65707573 
 3896              	.LASF30:
 3897 08f7 5F4D4553 		.ascii	"_MESSAGE_TYPE_\000"
 3897      53414745 
 3897      5F545950 
 3897      455F00
 3898              	.LASF162:
 3899 0906 5F6F6E65 		.ascii	"_oneshotpreconditions\000"
 3899      73686F74 
 3899      70726563 
ARM GAS  C:\Users\RECEPC~1\AppData\Local\Temp\ccUYVmA0.s 			page 86


 3899      6F6E6469 
 3899      74696F6E 
 3900              	.LASF219:
 3901 091c 433A5C54 		.ascii	"C:\\TeamInsepet\\NSX-Prime\\Hardware\\CorEx-MUX-Ker"
 3901      65616D49 
 3901      6E736570 
 3901      65745C4E 
 3901      53582D50 
 3902 094b 6E656C2D 		.ascii	"nel-Enhanced\\Workspace01\\CorEx-Mux-Kernel.cydsn\000"
 3902      456E6861 
 3902      6E636564 
 3902      5C576F72 
 3902      6B737061 
 3903              	.LASF47:
 3904 097b 5F426F6F 		.ascii	"_Bool\000"
 3904      6C00
 3905              	.LASF10:
 3906 0981 696E7433 		.ascii	"int32_t\000"
 3906      325F7400 
 3907              	.LASF1:
 3908 0989 756E7369 		.ascii	"unsigned char\000"
 3908      676E6564 
 3908      20636861 
 3908      7200
 3909              	.LASF209:
 3910 0997 44697370 		.ascii	"DispenserDataReceptionHandler\000"
 3910      656E7365 
 3910      72446174 
 3910      61526563 
 3910      65707469 
 3911              	.LASF130:
 3912 09b5 5F70756D 		.ascii	"_pumprftransstate\000"
 3912      70726674 
 3912      72616E73 
 3912      73746174 
 3912      6500
 3913              	.LASF129:
 3914 09c7 5F706F73 		.ascii	"_positionlocked\000"
 3914      6974696F 
 3914      6E6C6F63 
 3914      6B656400 
 3915              	.LASF143:
 3916 09d7 50756D70 		.ascii	"PumpTransQueueFind\000"
 3916      5472616E 
 3916      73517565 
 3916      75654669 
 3916      6E6400
 3917              	.LASF17:
 3918 09ea 75696E74 		.ascii	"uint64\000"
 3918      363400
 3919              	.LASF102:
 3920 09f1 5F766172 		.ascii	"_var5\000"
 3920      3500
 3921              	.LASF177:
 3922 09f7 5F74696D 		.ascii	"_timeoutseed\000"
 3922      656F7574 
 3922      73656564 
ARM GAS  C:\Users\RECEPC~1\AppData\Local\Temp\ccUYVmA0.s 			page 87


 3922      00
 3923              	.LASF50:
 3924 0a04 5F53494E 		.ascii	"_SINK_SUBSCRIBER_\000"
 3924      4B5F5355 
 3924      42534352 
 3924      49424552 
 3924      5F00
 3925              	.LASF42:
 3926 0a16 5F6D6573 		.ascii	"_messagetimeoutlimit\000"
 3926      73616765 
 3926      74696D65 
 3926      6F75746C 
 3926      696D6974 
 3927              	.LASF91:
 3928 0a2b 474C4F42 		.ascii	"GLOBAL_TICK_NOTIFICATION\000"
 3928      414C5F54 
 3928      49434B5F 
 3928      4E4F5449 
 3928      46494341 
 3929              	.LASF220:
 3930 0a44 44697370 		.ascii	"DispenserUpdateTimeouts\000"
 3930      656E7365 
 3930      72557064 
 3930      61746554 
 3930      696D656F 
 3931              	.LASF61:
 3932 0a5c 44495350 		.ascii	"DISPENSER_UPDATE_PUMP_TRANSACTION_TIMEOUTS\000"
 3932      454E5345 
 3932      525F5550 
 3932      44415445 
 3932      5F50554D 
 3933              	.LASF72:
 3934 0a87 44495350 		.ascii	"DISPENSER_ACQUIRE_TOTALS\000"
 3934      454E5345 
 3934      525F4143 
 3934      51554952 
 3934      455F544F 
 3935              	.LASF207:
 3936 0aa0 44697370 		.ascii	"DispenserTimeoutHandler\000"
 3936      656E7365 
 3936      7254696D 
 3936      656F7574 
 3936      48616E64 
 3937              	.LASF62:
 3938 0ab8 44495350 		.ascii	"DISPENSER_UPDATE_STATE1\000"
 3938      454E5345 
 3938      525F5550 
 3938      44415445 
 3938      5F535441 
 3939              	.LASF25:
 3940 0ad0 414C4C49 		.ascii	"ALLINTERESTED\000"
 3940      4E544552 
 3940      45535445 
 3940      4400
 3941              	.LASF26:
 3942 0ade 44454C41 		.ascii	"DELAYEDALLINTERESTED\000"
 3942      59454441 
ARM GAS  C:\Users\RECEPC~1\AppData\Local\Temp\ccUYVmA0.s 			page 88


 3942      4C4C494E 
 3942      54455245 
 3942      53544544 
 3943              	.LASF107:
 3944 0af3 5F766172 		.ascii	"_varA\000"
 3944      4100
 3945              	.LASF49:
 3946 0af9 5F53494E 		.ascii	"_SINK_MESSAGE_\000"
 3946      4B5F4D45 
 3946      53534147 
 3946      455F00
 3947              	.LASF67:
 3948 0b08 44495350 		.ascii	"DISPENSER_ENUMERATE_VISIBLE_PUMPS\000"
 3948      454E5345 
 3948      525F454E 
 3948      554D4552 
 3948      4154455F 
 3949              	.LASF159:
 3950 0b2a 5F726570 		.ascii	"_repushtimeoutlimit\000"
 3950      75736874 
 3950      696D656F 
 3950      75746C69 
 3950      6D697400 
 3951              	.LASF118:
 3952 0b3e 5F50554D 		.ascii	"_PUMP_LAYOUT_\000"
 3952      505F4C41 
 3952      594F5554 
 3952      5F00
 3953              	.LASF97:
 3954 0b4c 5F766172 		.ascii	"_var0\000"
 3954      3000
 3955              	.LASF98:
 3956 0b52 5F766172 		.ascii	"_var1\000"
 3956      3100
 3957              	.LASF99:
 3958 0b58 5F766172 		.ascii	"_var2\000"
 3958      3200
 3959              	.LASF100:
 3960 0b5e 5F766172 		.ascii	"_var3\000"
 3960      3300
 3961              	.LASF101:
 3962 0b64 5F766172 		.ascii	"_var4\000"
 3962      3400
 3963              	.LASF185:
 3964 0b6a 5F717565 		.ascii	"_queueindex\000"
 3964      7565696E 
 3964      64657800 
 3965              	.LASF103:
 3966 0b76 5F766172 		.ascii	"_var6\000"
 3966      3600
 3967              	.LASF93:
 3968 0b7c 57415443 		.ascii	"WATCHDOG_STARTUP\000"
 3968      48444F47 
 3968      5F535441 
 3968      52545550 
 3968      00
 3969              	.LASF105:
ARM GAS  C:\Users\RECEPC~1\AppData\Local\Temp\ccUYVmA0.s 			page 89


 3970 0b8d 5F766172 		.ascii	"_var8\000"
 3970      3800
 3971              	.LASF106:
 3972 0b93 5F766172 		.ascii	"_var9\000"
 3972      3900
 3973              	.LASF178:
 3974 0b99 5F74696D 		.ascii	"_timeoutmultiplier\000"
 3974      656F7574 
 3974      6D756C74 
 3974      69706C69 
 3974      657200
 3975              	.LASF5:
 3976 0bac 6C6F6E67 		.ascii	"long unsigned int\000"
 3976      20756E73 
 3976      69676E65 
 3976      6420696E 
 3976      7400
 3977              	.LASF214:
 3978 0bbe 5F675F72 		.ascii	"_g_respctxt\000"
 3978      65737063 
 3978      74787400 
 3979              	.LASF19:
 3980 0bca 63686172 		.ascii	"char\000"
 3980      00
 3981              	.LASF108:
 3982 0bcf 5F766172 		.ascii	"_varB\000"
 3982      4200
 3983              	.LASF154:
 3984 0bd5 52657175 		.ascii	"Request\000"
 3984      65737400 
 3985              	.LASF48:
 3986 0bdd 5053494E 		.ascii	"PSINKMESSAGEPTR\000"
 3986      4B4D4553 
 3986      53414745 
 3986      50545200 
 3987              	.LASF120:
 3988 0bed 5F70756D 		.ascii	"_pumpindex\000"
 3988      70696E64 
 3988      657800
 3989              	.LASF203:
 3990 0bf8 706A6F62 		.ascii	"pjob\000"
 3990      00
 3991              	.LASF200:
 3992 0bfd 696E6465 		.ascii	"index\000"
 3992      7800
 3993              	.LASF81:
 3994 0c03 44495350 		.ascii	"DISPLAY1_RECEPTION\000"
 3994      4C415931 
 3994      5F524543 
 3994      45505449 
 3994      4F4E00
 3995              	.LASF169:
 3996 0c16 5F726565 		.ascii	"_reenqueue\000"
 3996      6E717565 
 3996      756500
 3997              	.LASF9:
 3998 0c21 5F5F696E 		.ascii	"__int32_t\000"
ARM GAS  C:\Users\RECEPC~1\AppData\Local\Temp\ccUYVmA0.s 			page 90


 3998      7433325F 
 3998      7400
 3999              	.LASF18:
 4000 0c2b 63686172 		.ascii	"char8\000"
 4000      3800
 4001              	.LASF96:
 4002 0c31 504E4541 		.ascii	"PNEAR_PUMPTRANSACTIONALSTATEPTR\000"
 4002      525F5055 
 4002      4D505452 
 4002      414E5341 
 4002      4354494F 
 4003              	.LASF163:
 4004 0c51 5F707265 		.ascii	"_preconditions\000"
 4004      636F6E64 
 4004      6974696F 
 4004      6E7300
 4005              	.LASF70:
 4006 0c60 44495350 		.ascii	"DISPENSER_RESTORE_PRICES\000"
 4006      454E5345 
 4006      525F5245 
 4006      53544F52 
 4006      455F5052 
 4007              	.LASF172:
 4008 0c79 5F64656C 		.ascii	"_delaymultiplier\000"
 4008      61796D75 
 4008      6C746970 
 4008      6C696572 
 4008      00
 4009              	.LASF28:
 4010 0c8a 42524F41 		.ascii	"BROADCASTFOREVER\000"
 4010      44434153 
 4010      54464F52 
 4010      45564552 
 4010      00
 4011              	.LASF89:
 4012 0c9b 49425554 		.ascii	"IBUTTON1_SCAN\000"
 4012      544F4E31 
 4012      5F534341 
 4012      4E00
 4013              	.LASF113:
 4014 0ca9 5F707269 		.ascii	"_price\000"
 4014      636500
 4015              	.LASF64:
 4016 0cb0 44495350 		.ascii	"DISPENSER_ACQUIRE_PUMP_STATE\000"
 4016      454E5345 
 4016      525F4143 
 4016      51554952 
 4016      455F5055 
 4017              	.LASF216:
 4018 0ccd 5F675F64 		.ascii	"_g_dispenserupdatetimeoutmultiplier\000"
 4018      69737065 
 4018      6E736572 
 4018      75706461 
 4018      74657469 
 4019              	.LASF195:
 4020 0cf1 5F707061 		.ascii	"_pparam\000"
 4020      72616D00 
ARM GAS  C:\Users\RECEPC~1\AppData\Local\Temp\ccUYVmA0.s 			page 91


 4021              	.LASF55:
 4022 0cf9 55415254 		.ascii	"UART_RF_RECEPTION\000"
 4022      5F52465F 
 4022      52454345 
 4022      5054494F 
 4022      4E00
 4023              	.LASF168:
 4024 0d0b 50756D70 		.ascii	"PumpTransactionJob\000"
 4024      5472616E 
 4024      73616374 
 4024      696F6E4A 
 4024      6F6200
 4025              	.LASF68:
 4026 0d1e 44495350 		.ascii	"DISPENSER_ACQUIRE_CONFIGURATION_INFORMATION\000"
 4026      454E5345 
 4026      525F4143 
 4026      51554952 
 4026      455F434F 
 4027              	.LASF110:
 4028 0d4a 5F617574 		.ascii	"_authorized\000"
 4028      686F7269 
 4028      7A656400 
 4029              	.LASF156:
 4030 0d56 54696D65 		.ascii	"TimeoutCallback\000"
 4030      6F757443 
 4030      616C6C62 
 4030      61636B00 
 4031              	.LASF188:
 4032 0d66 526F7461 		.ascii	"Rotate\000"
 4032      746500
 4033              	.LASF121:
 4034 0d6d 5F70756D 		.ascii	"_pumpstate\000"
 4034      70737461 
 4034      746500
 4035              	.LASF87:
 4036 0d78 44495350 		.ascii	"DISPLAY2_UPDATE_DATETIME\000"
 4036      4C415932 
 4036      5F555044 
 4036      4154455F 
 4036      44415445 
 4037              	.LASF46:
 4038 0d91 43616C6C 		.ascii	"Callback\000"
 4038      6261636B 
 4038      00
 4039              	.LASF141:
 4040 0d9a 50756D70 		.ascii	"PumpTransQueueLock\000"
 4040      5472616E 
 4040      73517565 
 4040      75654C6F 
 4040      636B00
 4041              	.LASF23:
 4042 0dad 42524F41 		.ascii	"BROADCAST\000"
 4042      44434153 
 4042      5400
 4043              	.LASF59:
 4044 0db7 53494E4B 		.ascii	"SINK_RELEASE_BY_ID\000"
 4044      5F52454C 
ARM GAS  C:\Users\RECEPC~1\AppData\Local\Temp\ccUYVmA0.s 			page 92


 4044      45415345 
 4044      5F42595F 
 4044      494400
 4045              	.LASF191:
 4046 0dca 5065656B 		.ascii	"Peek\000"
 4046      00
 4047              	.LASF111:
 4048 0dcf 5F707265 		.ascii	"_presettype\000"
 4048      73657474 
 4048      79706500 
 4049              	.LASF15:
 4050 0ddb 666C6F61 		.ascii	"float\000"
 4050      7400
 4051              	.LASF12:
 4052 0de1 75696E74 		.ascii	"uint16\000"
 4052      313600
 4053              	.LASF125:
 4054 0de8 5F726573 		.ascii	"_restoreprice\000"
 4054      746F7265 
 4054      70726963 
 4054      6500
 4055              	.LASF171:
 4056 0df6 5F64656C 		.ascii	"_delay\000"
 4056      617900
 4057              	.LASF184:
 4058 0dfd 5F50554D 		.ascii	"_PUMP_JOB_QUEUE_\000"
 4058      505F4A4F 
 4058      425F5155 
 4058      4555455F 
 4058      00
 4059              	.LASF210:
 4060 0e0e 706F7374 		.ascii	"postconditions\000"
 4060      636F6E64 
 4060      6974696F 
 4060      6E7300
 4061              	.LASF147:
 4062 0e1d 50756D70 		.ascii	"PumpTransQueueDequeue\000"
 4062      5472616E 
 4062      73517565 
 4062      75654465 
 4062      71756575 
 4063              	.LASF166:
 4064 0e33 496E6974 		.ascii	"Initialization\000"
 4064      69616C69 
 4064      7A617469 
 4064      6F6E00
 4065              		.ident	"GCC: (GNU Tools for ARM Embedded Processors) 4.9.3 20150303 (release) [ARM/embedded-4_9-br
