ARM GAS  C:\Users\RECEPC~1\AppData\Local\Temp\ccvg7Xyk.s 			page 1


   1              		.syntax unified
   2              		.cpu cortex-m3
   3              		.fpu softvfp
   4              		.eabi_attribute 20, 1
   5              		.eabi_attribute 21, 1
   6              		.eabi_attribute 23, 3
   7              		.eabi_attribute 24, 1
   8              		.eabi_attribute 25, 1
   9              		.eabi_attribute 26, 1
  10              		.eabi_attribute 30, 6
  11              		.eabi_attribute 34, 1
  12              		.eabi_attribute 18, 4
  13              		.thumb
  14              		.file	"DisplayBLL.c"
  15              		.text
  16              	.Ltext0:
  17              		.cfi_sections	.debug_frame
  18              		.global	_g_dispvalcodes
  19              		.data
  20              		.align	2
  21              		.type	_g_dispvalcodes, %object
  22              		.size	_g_dispvalcodes, 3
  23              	_g_dispvalcodes:
  24 0000 94       		.byte	-108
  25 0001 7E       		.byte	126
  26 0002 FF       		.byte	-1
  27              		.global	_g_configured
  28              		.bss
  29              		.align	2
  30              		.type	_g_configured, %object
  31              		.size	_g_configured, 2
  32              	_g_configured:
  33 0000 0000     		.space	2
  34              		.global	_g_display1
  35 0002 0000     		.data
  36 0003 00       		.align	2
  37              		.type	_g_display1, %object
  38              		.size	_g_display1, 60
  39              	_g_display1:
  40 0004 00       		.byte	0
  41 0005 1E       		.byte	30
  42 0006 00       		.byte	0
  43 0007 00       		.byte	0
  44 0008 00       		.byte	0
  45 0009 00       		.byte	0
  46 000a 0000     		.short	0
  47 000c 0000     		.short	0
  48 000e 00       		.byte	0
  49 000f 00       		.byte	0
  50 0010 00       		.byte	0
  51 0011 01       		.byte	1
  52 0012 0000     		.space	2
  53 0014 00000000 		.word	_g_displayflow1
  54 0018 00000000 		.word	_g_displayflow1
  55 001c 0000     		.short	0
  56 001e 0000     		.short	0
  57 0020 00       		.byte	0
ARM GAS  C:\Users\RECEPC~1\AppData\Local\Temp\ccvg7Xyk.s 			page 2


  58 0021 00000000 		.space	16
  58      00000000 
  58      00000000 
  58      00000000 
  59 0031 00       		.space	1
  60 0032 0000     		.space	2
  61 0034 00000000 		.word	0
  62 0038 00000000 		.word	0
  63 003c 00000000 		.word	DisplayGenericValidator
  64              		.global	_g_display2
  65              		.align	2
  66              		.type	_g_display2, %object
  67              		.size	_g_display2, 60
  68              	_g_display2:
  69 0040 01       		.byte	1
  70 0041 22       		.byte	34
  71 0042 00       		.byte	0
  72 0043 00       		.byte	0
  73 0044 00       		.byte	0
  74 0045 00       		.byte	0
  75 0046 0000     		.short	0
  76 0048 0000     		.short	0
  77 004a 00       		.byte	0
  78 004b 00       		.byte	0
  79 004c 00       		.byte	0
  80 004d 01       		.byte	1
  81 004e 0000     		.space	2
  82 0050 00000000 		.word	_g_displayflow2
  83 0054 00000000 		.word	_g_displayflow2
  84 0058 0000     		.short	0
  85 005a 0000     		.short	0
  86 005c 00       		.byte	0
  87 005d 00000000 		.space	16
  87      00000000 
  87      00000000 
  87      00000000 
  88 006d 00       		.space	1
  89 006e 0000     		.space	2
  90 0070 00000000 		.word	0
  91 0074 00000000 		.word	0
  92 0078 00000000 		.word	DisplayGenericValidator
  93              		.global	_g_productscreenpos
  94              		.align	2
  95              		.type	_g_productscreenpos, %object
  96              		.size	_g_productscreenpos, 20
  97              	_g_productscreenpos:
  98 007c 1501     		.short	277
  99 007e 9500     		.short	149
 100 0080 2501     		.short	293
 101 0082 E900     		.short	233
 102 0084 3901     		.short	313
 103 0086 4201     		.short	322
 104 0088 4A01     		.short	330
 105 008a 9201     		.short	402
 106 008c 0000     		.short	0
 107 008e 0000     		.short	0
 108              		.global	_g_homeanimarray
ARM GAS  C:\Users\RECEPC~1\AppData\Local\Temp\ccvg7Xyk.s 			page 3


 109              		.align	2
 110              		.type	_g_homeanimarray, %object
 111              		.size	_g_homeanimarray, 14
 112              	_g_homeanimarray:
 113 0090 00       		.byte	0
 114 0091 01       		.byte	1
 115 0092 00       		.byte	0
 116 0093 5C       		.byte	92
 117 0094 7C       		.byte	124
 118 0095 2F       		.byte	47
 119 0096 2D       		.byte	45
 120 0097 00       		.byte	0
 121 0098 01       		.byte	1
 122 0099 00       		.byte	0
 123 009a 5C       		.byte	92
 124 009b 7C       		.byte	124
 125 009c 2F       		.byte	47
 126 009d 2D       		.byte	45
 127 009e 0000     		.section	.text.Display1Logic,"ax",%progbits
 128              		.align	2
 129              		.global	Display1Logic
 130              		.thumb
 131              		.thumb_func
 132              		.type	Display1Logic, %function
 133              	Display1Logic:
 134              	.LFB63:
 135              		.file 1 ".\\DisplayBLL.c"
   1:.\DisplayBLL.c **** /* ========================================
   2:.\DisplayBLL.c ****  *
   3:.\DisplayBLL.c ****  * Copyright INSEPET SISTEMAS, 2016
   4:.\DisplayBLL.c ****  * All Rights Reserved
   5:.\DisplayBLL.c ****  * UNPUBLISHED, LICENSED SOFTWARE.
   6:.\DisplayBLL.c ****  *
   7:.\DisplayBLL.c ****  * CONFIDENTIAL AND PROPRIETARY INFORMATION
   8:.\DisplayBLL.c ****  * WHICH IS THE PROPERTY OF your company.
   9:.\DisplayBLL.c ****  *
  10:.\DisplayBLL.c ****  * ========================================
  11:.\DisplayBLL.c **** @Created By: HIJH
  12:.\DisplayBLL.c **** @Date: Septembre de 2016
  13:.\DisplayBLL.c **** */
  14:.\DisplayBLL.c **** #include <project.h>
  15:.\DisplayBLL.c **** #include "GlobalDefinitions.h"
  16:.\DisplayBLL.c **** #include "UARTManager.h"
  17:.\DisplayBLL.c **** #include "SinkManager.h"
  18:.\DisplayBLL.c **** #include "SinkObservables.h"
  19:.\DisplayBLL.c **** #include "Configuration.h"
  20:.\DisplayBLL.c **** #include "Dispenser.h"
  21:.\DisplayBLL.c **** #include "Display.h"
  22:.\DisplayBLL.c **** #include "RFLink.h"
  23:.\DisplayBLL.c **** #include "iButton.h"
  24:.\DisplayBLL.c **** #include "Printer.h"
  25:.\DisplayBLL.c **** #include "Eeprom.h"
  26:.\DisplayBLL.c **** #include "Rtc.h"
  27:.\DisplayBLL.c **** 
  28:.\DisplayBLL.c **** void CastCreditVolumeValue(char8 *pbuffer, uint8 buffersize);
  29:.\DisplayBLL.c **** bool DisplayGenericValidator(LPVOID pparam);
  30:.\DisplayBLL.c **** 
ARM GAS  C:\Users\RECEPC~1\AppData\Local\Temp\ccvg7Xyk.s 			page 4


  31:.\DisplayBLL.c **** uint8 _g_dispvalcodes[] = { 0x94, 0x7E, 0xFF };
  32:.\DisplayBLL.c **** 
  33:.\DisplayBLL.c **** bool _g_configured[] = { false, false };
  34:.\DisplayBLL.c **** //Screen #1 Handler (for further information on its initialization parameters, see its definition i
  35:.\DisplayBLL.c **** DisplayLayout _g_display1 = { DISPLAY1, DISPLAY1_MESSAGE, 0x00, 0x00, 0x00, 0x00, 0, 0, 0x00, 0, 0,
  36:.\DisplayBLL.c **** //Screen #2 Handler  (for further information on its initialization parameters, see its definition 
  37:.\DisplayBLL.c **** DisplayLayout _g_display2 = { DISPLAY2, DISPLAY2_MESSAGE, 0x00, 0x00, 0x00, 0x00, 0, 0, 0x00, 0, 0,
  38:.\DisplayBLL.c **** 
  39:.\DisplayBLL.c **** uint16 _g_productscreenpos[][2] =
  40:.\DisplayBLL.c **** {
  41:.\DisplayBLL.c ****     { 0x0115, 0x0095 },
  42:.\DisplayBLL.c ****     { 0x0125, 0x00E9 },
  43:.\DisplayBLL.c ****     { 0x0139, 0x0142 },
  44:.\DisplayBLL.c ****     { 0x014A, 0x0192 },
  45:.\DisplayBLL.c ****     { 0x0000, 0x0000 },
  46:.\DisplayBLL.c **** };
  47:.\DisplayBLL.c **** 
  48:.\DisplayBLL.c **** DisplayHomeAnimation _g_homeanimarray[] =
  49:.\DisplayBLL.c **** {
  50:.\DisplayBLL.c ****     { 0x00, true, 0x00, { 0x5C, 0x7C, 0x2F, 0x2D } },//Display #1
  51:.\DisplayBLL.c ****     { 0x00, true, 0x00, { 0x5C, 0x7C, 0x2F, 0x2D } },//Display #2
  52:.\DisplayBLL.c **** };
  53:.\DisplayBLL.c **** 
  54:.\DisplayBLL.c **** //@Created By: HIJH
  55:.\DisplayBLL.c **** //@Septembre de 2016
  56:.\DisplayBLL.c **** void Display1Logic(void *pdata)
  57:.\DisplayBLL.c **** {
 136              		.loc 1 57 0
 137              		.cfi_startproc
 138              		@ args = 0, pretend = 0, frame = 56
 139              		@ frame_needed = 1, uses_anonymous_args = 0
 140 0000 90B5     		push	{r4, r7, lr}
 141              		.cfi_def_cfa_offset 12
 142              		.cfi_offset 4, -12
 143              		.cfi_offset 7, -8
 144              		.cfi_offset 14, -4
 145 0002 8FB0     		sub	sp, sp, #60
 146              		.cfi_def_cfa_offset 72
 147 0004 00AF     		add	r7, sp, #0
 148              		.cfi_def_cfa_register 7
 149 0006 7860     		str	r0, [r7, #4]
  58:.\DisplayBLL.c ****     PSINKMESSAGEPTR pmsg = (PSINKMESSAGEPTR)pdata;
 150              		.loc 1 58 0
 151 0008 7B68     		ldr	r3, [r7, #4]
 152 000a FB62     		str	r3, [r7, #44]
  59:.\DisplayBLL.c ****     
  60:.\DisplayBLL.c ****     ///////////////////////////////////////////////////////
  61:.\DisplayBLL.c ****     //TEMPORARILY DISABLED TO ALLOW FOR THE TESTS!!
  62:.\DisplayBLL.c ****     if(_g_dispenserlayoutinfo._inconfiguration)
 153              		.loc 1 62 0
 154 000c 664B     		ldr	r3, .L18
 155 000e 1B78     		ldrb	r3, [r3]
 156 0010 DBB2     		uxtb	r3, r3
 157 0012 002B     		cmp	r3, #0
 158 0014 00D0     		beq	.L2
  63:.\DisplayBLL.c ****         goto CLOSEDISPLAY1;
 159              		.loc 1 63 0
ARM GAS  C:\Users\RECEPC~1\AppData\Local\Temp\ccvg7Xyk.s 			page 5


 160 0016 BEE0     		b	.L3
 161              	.L2:
  64:.\DisplayBLL.c ****     ///////////////////////////////////////////////////////
  65:.\DisplayBLL.c ****     
  66:.\DisplayBLL.c ****     _g_display1._starting = false;
 162              		.loc 1 66 0
 163 0018 644B     		ldr	r3, .L18+4
 164 001a 0022     		movs	r2, #0
 165 001c 5A73     		strb	r2, [r3, #13]
  67:.\DisplayBLL.c **** 
  68:.\DisplayBLL.c ****     _g_display1._currscrcode = ParseDisplayStream(pmsg->_buffer, pmsg->_buffersize);
 166              		.loc 1 68 0
 167 001e FB6A     		ldr	r3, [r7, #44]
 168 0020 03F10C02 		add	r2, r3, #12
 169 0024 FB6A     		ldr	r3, [r7, #44]
 170 0026 B3F88C31 		ldrh	r3, [r3, #396]	@ movhi
 171 002a 9BB2     		uxth	r3, r3
 172 002c DBB2     		uxtb	r3, r3
 173 002e 1046     		mov	r0, r2
 174 0030 1946     		mov	r1, r3
 175 0032 FFF7FEFF 		bl	ParseDisplayStream
 176 0036 0346     		mov	r3, r0
 177 0038 1A46     		mov	r2, r3
 178 003a 5C4B     		ldr	r3, .L18+4
 179 003c DA70     		strb	r2, [r3, #3]
  69:.\DisplayBLL.c ****     ParseDisplayFlow(&_g_display1);
 180              		.loc 1 69 0
 181 003e 5B48     		ldr	r0, .L18+4
 182 0040 FFF7FEFF 		bl	ParseDisplayFlow
  70:.\DisplayBLL.c ****     if(_g_display1._nextscrid != DISPLAY_NULL || 
 183              		.loc 1 70 0
 184 0044 594B     		ldr	r3, .L18+4
 185 0046 9B78     		ldrb	r3, [r3, #2]	@ zero_extendqisi2
 186 0048 FF2B     		cmp	r3, #255
 187 004a 08D1     		bne	.L4
  71:.\DisplayBLL.c ****         _g_display1._statechangescrid != DISPLAY_NULL ||
 188              		.loc 1 71 0 discriminator 1
 189 004c 574B     		ldr	r3, .L18+4
 190 004e 5B79     		ldrb	r3, [r3, #5]	@ zero_extendqisi2
  70:.\DisplayBLL.c ****     if(_g_display1._nextscrid != DISPLAY_NULL || 
 191              		.loc 1 70 0 discriminator 1
 192 0050 FF2B     		cmp	r3, #255
 193 0052 04D1     		bne	.L4
  72:.\DisplayBLL.c ****         _g_display1._timeoutscrid != DISPLAY_NULL)
 194              		.loc 1 72 0
 195 0054 554B     		ldr	r3, .L18+4
 196 0056 9B7A     		ldrb	r3, [r3, #10]	@ zero_extendqisi2
  71:.\DisplayBLL.c ****         _g_display1._statechangescrid != DISPLAY_NULL ||
 197              		.loc 1 71 0
 198 0058 FF2B     		cmp	r3, #255
 199 005a 00F09280 		beq	.L5
 200              	.L4:
 201              	.LBB2:
  73:.\DisplayBLL.c ****     {
  74:.\DisplayBLL.c ****         //Here comes the validation for the state of the work shift 
  75:.\DisplayBLL.c ****         if(_g_display1.DisplayValidator)
 202              		.loc 1 75 0
ARM GAS  C:\Users\RECEPC~1\AppData\Local\Temp\ccvg7Xyk.s 			page 6


 203 005e 534B     		ldr	r3, .L18+4
 204 0060 9B6B     		ldr	r3, [r3, #56]
 205 0062 002B     		cmp	r3, #0
 206 0064 03D0     		beq	.L6
  76:.\DisplayBLL.c ****             _g_display1.DisplayValidator(&_g_display1);
 207              		.loc 1 76 0
 208 0066 514B     		ldr	r3, .L18+4
 209 0068 9B6B     		ldr	r3, [r3, #56]
 210 006a 5048     		ldr	r0, .L18+4
 211 006c 9847     		blx	r3
 212              	.L6:
  77:.\DisplayBLL.c ****         
  78:.\DisplayBLL.c ****         bool validate = true;
 213              		.loc 1 78 0
 214 006e 0123     		movs	r3, #1
 215 0070 87F83730 		strb	r3, [r7, #55]
  79:.\DisplayBLL.c ****         PNEAR_BYTE_PTR piterptr = &_g_dispvalcodes[0x00];
 216              		.loc 1 79 0
 217 0074 4E4B     		ldr	r3, .L18+8
 218 0076 3B63     		str	r3, [r7, #48]
  80:.\DisplayBLL.c ****         while(*piterptr != 0xFF)
 219              		.loc 1 80 0
 220 0078 0CE0     		b	.L7
 221              	.L10:
  81:.\DisplayBLL.c ****         {
  82:.\DisplayBLL.c ****             if(*piterptr == _g_display1._currscrcode)
 222              		.loc 1 82 0
 223 007a 3B6B     		ldr	r3, [r7, #48]
 224 007c 1A78     		ldrb	r2, [r3]	@ zero_extendqisi2
 225 007e 4B4B     		ldr	r3, .L18+4
 226 0080 DB78     		ldrb	r3, [r3, #3]	@ zero_extendqisi2
 227 0082 9A42     		cmp	r2, r3
 228 0084 03D1     		bne	.L8
  83:.\DisplayBLL.c ****             {
  84:.\DisplayBLL.c ****                 validate = false;
 229              		.loc 1 84 0
 230 0086 0023     		movs	r3, #0
 231 0088 87F83730 		strb	r3, [r7, #55]
  85:.\DisplayBLL.c ****                 break;
 232              		.loc 1 85 0
 233 008c 06E0     		b	.L9
 234              	.L8:
  86:.\DisplayBLL.c ****             }
  87:.\DisplayBLL.c ****             piterptr++;
 235              		.loc 1 87 0
 236 008e 3B6B     		ldr	r3, [r7, #48]
 237 0090 0133     		adds	r3, r3, #1
 238 0092 3B63     		str	r3, [r7, #48]
 239              	.L7:
  80:.\DisplayBLL.c ****         {
 240              		.loc 1 80 0
 241 0094 3B6B     		ldr	r3, [r7, #48]
 242 0096 1B78     		ldrb	r3, [r3]	@ zero_extendqisi2
 243 0098 FF2B     		cmp	r3, #255
 244 009a EED1     		bne	.L10
 245              	.L9:
  88:.\DisplayBLL.c ****         }
ARM GAS  C:\Users\RECEPC~1\AppData\Local\Temp\ccvg7Xyk.s 			page 7


  89:.\DisplayBLL.c ****         
  90:.\DisplayBLL.c ****         if(validate)
 246              		.loc 1 90 0
 247 009c 97F83730 		ldrb	r3, [r7, #55]	@ zero_extendqisi2
 248 00a0 002B     		cmp	r3, #0
 249 00a2 1CD0     		beq	.L11
 250              	.LBB3:
  91:.\DisplayBLL.c ****         {
  92:.\DisplayBLL.c ****             FPTRINPUTVALIDATOR fptrvalidator = DisplayFlowInputValidator(&_g_display1);
 251              		.loc 1 92 0
 252 00a4 4148     		ldr	r0, .L18+4
 253 00a6 FFF7FEFF 		bl	DisplayFlowInputValidator
 254 00aa 7862     		str	r0, [r7, #36]
  93:.\DisplayBLL.c ****             if(fptrvalidator)
 255              		.loc 1 93 0
 256 00ac 7B6A     		ldr	r3, [r7, #36]
 257 00ae 002B     		cmp	r3, #0
 258 00b0 15D0     		beq	.L11
  94:.\DisplayBLL.c ****                 if(!fptrvalidator(&_g_display1))
 259              		.loc 1 94 0
 260 00b2 7B6A     		ldr	r3, [r7, #36]
 261 00b4 3D48     		ldr	r0, .L18+4
 262 00b6 9847     		blx	r3
 263 00b8 0346     		mov	r3, r0
 264 00ba 83F00103 		eor	r3, r3, #1
 265 00be DBB2     		uxtb	r3, r3
 266 00c0 002B     		cmp	r3, #0
 267 00c2 0CD0     		beq	.L11
  95:.\DisplayBLL.c ****                 {
  96:.\DisplayBLL.c ****                     _g_display1._timeoutscrid = _g_display1._statechangescrid = _g_display1._nextsc
 268              		.loc 1 96 0
 269 00c4 394B     		ldr	r3, .L18+4
 270 00c6 FF22     		movs	r2, #255
 271 00c8 9A70     		strb	r2, [r3, #2]
 272 00ca 384B     		ldr	r3, .L18+4
 273 00cc 9A78     		ldrb	r2, [r3, #2]	@ zero_extendqisi2
 274 00ce 374B     		ldr	r3, .L18+4
 275 00d0 5A71     		strb	r2, [r3, #5]
 276 00d2 364B     		ldr	r3, .L18+4
 277 00d4 5A79     		ldrb	r2, [r3, #5]	@ zero_extendqisi2
 278 00d6 354B     		ldr	r3, .L18+4
 279 00d8 9A72     		strb	r2, [r3, #10]
  97:.\DisplayBLL.c ****                     goto CLOSEDISPLAY1;
 280              		.loc 1 97 0
 281 00da 00BF     		nop
 282 00dc 5BE0     		b	.L3
 283              	.L11:
 284              	.LBE3:
  98:.\DisplayBLL.c ****                 }
  99:.\DisplayBLL.c ****                 
 100:.\DisplayBLL.c ****         }
 101:.\DisplayBLL.c **** 
 102:.\DisplayBLL.c ****         ///////////////////////////////////////////////////////////////////////////////////////////
 103:.\DisplayBLL.c ****         //TODO: HERE WE NEED TO POST OR PROCESS THE INPUT BUFFER (CAPTURED THROUGH THE INPUT BOX IF
 104:.\DisplayBLL.c ****         //SINCE IT WILL BE CLEANED UP IN THE NEXT LINE
 105:.\DisplayBLL.c ****         //IT MUST BE POSTED THROUGH THE MESSAGE SINK TO THE BLL RELATED COMPONENT
 106:.\DisplayBLL.c ****         StoreTransactionData(&_g_display1);
ARM GAS  C:\Users\RECEPC~1\AppData\Local\Temp\ccvg7Xyk.s 			page 8


 285              		.loc 1 106 0
 286 00de 3348     		ldr	r0, .L18+4
 287 00e0 FFF7FEFF 		bl	StoreTransactionData
 107:.\DisplayBLL.c ****         
 108:.\DisplayBLL.c ****         FPTRFINALIZER fptrfinalizer = DisplayFinalizer(&_g_display1);
 288              		.loc 1 108 0
 289 00e4 3148     		ldr	r0, .L18+4
 290 00e6 FFF7FEFF 		bl	DisplayFinalizer
 291 00ea 3862     		str	r0, [r7, #32]
 109:.\DisplayBLL.c ****         if(fptrfinalizer)
 292              		.loc 1 109 0
 293 00ec 3B6A     		ldr	r3, [r7, #32]
 294 00ee 002B     		cmp	r3, #0
 295 00f0 02D0     		beq	.L13
 110:.\DisplayBLL.c ****             fptrfinalizer(&_g_display1);
 296              		.loc 1 110 0
 297 00f2 3B6A     		ldr	r3, [r7, #32]
 298 00f4 2D48     		ldr	r0, .L18+4
 299 00f6 9847     		blx	r3
 300              	.L13:
 111:.\DisplayBLL.c ****         
 112:.\DisplayBLL.c ****         PrepareDisplayStructure(&_g_display1);
 301              		.loc 1 112 0
 302 00f8 2C48     		ldr	r0, .L18+4
 303 00fa FFF7FEFF 		bl	PrepareDisplayStructure
 113:.\DisplayBLL.c ****         
 114:.\DisplayBLL.c ****         FPTRINITIALIZER fptrinitializer = DisplayInitializer(&_g_display1);
 304              		.loc 1 114 0
 305 00fe 2B48     		ldr	r0, .L18+4
 306 0100 FFF7FEFF 		bl	DisplayInitializer
 307 0104 F861     		str	r0, [r7, #28]
 115:.\DisplayBLL.c ****         if(fptrinitializer)
 308              		.loc 1 115 0
 309 0106 FB69     		ldr	r3, [r7, #28]
 310 0108 002B     		cmp	r3, #0
 311 010a 02D0     		beq	.L14
 116:.\DisplayBLL.c ****             fptrinitializer(&_g_display1);
 312              		.loc 1 116 0
 313 010c FB69     		ldr	r3, [r7, #28]
 314 010e 2748     		ldr	r0, .L18+4
 315 0110 9847     		blx	r3
 316              	.L14:
 117:.\DisplayBLL.c ****         
 118:.\DisplayBLL.c ****         //This is a static structure for the display screen selection command
 119:.\DisplayBLL.c ****         char8 pbuffer[] = { 0xAA, 0x70, (_g_display1._pcurrflow->_scrid >> 8) & 0xFF, _g_display1._
 317              		.loc 1 119 0
 318 0112 AA23     		movs	r3, #170
 319 0114 3B73     		strb	r3, [r7, #12]
 320 0116 7023     		movs	r3, #112
 321 0118 7B73     		strb	r3, [r7, #13]
 322 011a 0023     		movs	r3, #0
 323 011c BB73     		strb	r3, [r7, #14]
 324 011e 234B     		ldr	r3, .L18+4
 325 0120 1B69     		ldr	r3, [r3, #16]
 326 0122 1B78     		ldrb	r3, [r3]	@ zero_extendqisi2
 327 0124 FB73     		strb	r3, [r7, #15]
 328 0126 CC23     		movs	r3, #204
ARM GAS  C:\Users\RECEPC~1\AppData\Local\Temp\ccvg7Xyk.s 			page 9


 329 0128 3B74     		strb	r3, [r7, #16]
 330 012a 3323     		movs	r3, #51
 331 012c 7B74     		strb	r3, [r7, #17]
 332 012e C323     		movs	r3, #195
 333 0130 BB74     		strb	r3, [r7, #18]
 334 0132 3C23     		movs	r3, #60
 335 0134 FB74     		strb	r3, [r7, #19]
 120:.\DisplayBLL.c ****         PUARTMESSAGEPTR puartdisp = GetUARTMessageSlot(UART_DISPLAY1);
 336              		.loc 1 120 0
 337 0136 A320     		movs	r0, #163
 338 0138 FFF7FEFF 		bl	GetUARTMessageSlot
 339 013c B861     		str	r0, [r7, #24]
 121:.\DisplayBLL.c ****         if(puartdisp)
 340              		.loc 1 121 0
 341 013e BB69     		ldr	r3, [r7, #24]
 342 0140 002B     		cmp	r3, #0
 343 0142 12D0     		beq	.L15
 122:.\DisplayBLL.c ****         {
 123:.\DisplayBLL.c ****             puartdisp->_messagelength = sizeof(pbuffer) / sizeof(pbuffer[0]);
 344              		.loc 1 123 0
 345 0144 BB69     		ldr	r3, [r7, #24]
 346 0146 0822     		movs	r2, #8
 347 0148 5A80     		strh	r2, [r3, #2]	@ movhi
 124:.\DisplayBLL.c ****             memcpy(puartdisp->_messagetx, pbuffer, puartdisp->_messagelength);
 348              		.loc 1 124 0
 349 014a BB69     		ldr	r3, [r7, #24]
 350 014c 1A1D     		adds	r2, r3, #4
 351 014e BB69     		ldr	r3, [r7, #24]
 352 0150 5B88     		ldrh	r3, [r3, #2]	@ movhi
 353 0152 9BB2     		uxth	r3, r3
 354 0154 1C46     		mov	r4, r3
 355 0156 07F10C03 		add	r3, r7, #12
 356 015a 1046     		mov	r0, r2
 357 015c 1946     		mov	r1, r3
 358 015e 2246     		mov	r2, r4
 359 0160 FFF7FEFF 		bl	memcpy
 125:.\DisplayBLL.c ****             puartdisp->_messagestate = PENDING;
 360              		.loc 1 125 0
 361 0164 BB69     		ldr	r3, [r7, #24]
 362 0166 C222     		movs	r2, #194
 363 0168 1A70     		strb	r2, [r3]
 364              	.L15:
 126:.\DisplayBLL.c ****         }
 127:.\DisplayBLL.c ****         
 128:.\DisplayBLL.c ****         FPTRDECORATOR fptrdecorator = DisplayFlowDecorator(&_g_display1);
 365              		.loc 1 128 0
 366 016a 1048     		ldr	r0, .L18+4
 367 016c FFF7FEFF 		bl	DisplayFlowDecorator
 368 0170 7861     		str	r0, [r7, #20]
 129:.\DisplayBLL.c ****         if(fptrdecorator)
 369              		.loc 1 129 0
 370 0172 7B69     		ldr	r3, [r7, #20]
 371 0174 002B     		cmp	r3, #0
 372 0176 03D0     		beq	.L16
 130:.\DisplayBLL.c ****             fptrdecorator(&_g_display1);
 373              		.loc 1 130 0
 374 0178 7B69     		ldr	r3, [r7, #20]
ARM GAS  C:\Users\RECEPC~1\AppData\Local\Temp\ccvg7Xyk.s 			page 10


 375 017a 0C48     		ldr	r0, .L18+4
 376 017c 9847     		blx	r3
 377              	.LBE2:
  73:.\DisplayBLL.c ****         //Here comes the validation for the state of the work shift 
 378              		.loc 1 73 0
 379 017e 0AE0     		b	.L3
 380              	.L16:
 381 0180 09E0     		b	.L3
 382              	.L5:
 383              	.LBB4:
 131:.\DisplayBLL.c **** 
 132:.\DisplayBLL.c ****     }
 133:.\DisplayBLL.c ****     else
 134:.\DisplayBLL.c ****     {
 135:.\DisplayBLL.c ****         //Input capture processing here for all of the displays that allow data input
 136:.\DisplayBLL.c ****         FPTRINPUTHANDLER fptrhandler = DisplayFlowInputHandler(&_g_display1);
 384              		.loc 1 136 0
 385 0182 0A48     		ldr	r0, .L18+4
 386 0184 FFF7FEFF 		bl	DisplayFlowInputHandler
 387 0188 B862     		str	r0, [r7, #40]
 137:.\DisplayBLL.c ****         if(fptrhandler)
 388              		.loc 1 137 0
 389 018a BB6A     		ldr	r3, [r7, #40]
 390 018c 002B     		cmp	r3, #0
 391 018e 02D0     		beq	.L3
 138:.\DisplayBLL.c ****             fptrhandler(&_g_display1);
 392              		.loc 1 138 0
 393 0190 BB6A     		ldr	r3, [r7, #40]
 394 0192 0648     		ldr	r0, .L18+4
 395 0194 9847     		blx	r3
 396              	.L3:
 397              	.LBE4:
 139:.\DisplayBLL.c ****     }
 140:.\DisplayBLL.c ****     
 141:.\DisplayBLL.c ****     CLOSEDISPLAY1:
 142:.\DisplayBLL.c ****     Display1_ClearRxBuffer();
 398              		.loc 1 142 0
 399 0196 FFF7FEFF 		bl	Display1_ClearRxBuffer
 143:.\DisplayBLL.c ****     Display1_Enable();
 400              		.loc 1 143 0
 401 019a FFF7FEFF 		bl	Display1_Enable
 144:.\DisplayBLL.c ****     return;
 402              		.loc 1 144 0
 403 019e 00BF     		nop
 145:.\DisplayBLL.c **** }
 404              		.loc 1 145 0
 405 01a0 3C37     		adds	r7, r7, #60
 406              		.cfi_def_cfa_offset 12
 407 01a2 BD46     		mov	sp, r7
 408              		.cfi_def_cfa_register 13
 409              		@ sp needed
 410 01a4 90BD     		pop	{r4, r7, pc}
 411              	.L19:
 412 01a6 00BF     		.align	2
 413              	.L18:
 414 01a8 00000000 		.word	_g_dispenserlayoutinfo
 415 01ac 00000000 		.word	_g_display1
ARM GAS  C:\Users\RECEPC~1\AppData\Local\Temp\ccvg7Xyk.s 			page 11


 416 01b0 00000000 		.word	_g_dispvalcodes
 417              		.cfi_endproc
 418              	.LFE63:
 419              		.size	Display1Logic, .-Display1Logic
 420              		.section	.text.Display2Logic,"ax",%progbits
 421              		.align	2
 422              		.global	Display2Logic
 423              		.thumb
 424              		.thumb_func
 425              		.type	Display2Logic, %function
 426              	Display2Logic:
 427              	.LFB64:
 146:.\DisplayBLL.c **** 
 147:.\DisplayBLL.c **** //@Created By: HIJH
 148:.\DisplayBLL.c **** //@Septembre de 2016
 149:.\DisplayBLL.c **** void Display2Logic(void *pdata)
 150:.\DisplayBLL.c **** {
 428              		.loc 1 150 0
 429              		.cfi_startproc
 430              		@ args = 0, pretend = 0, frame = 56
 431              		@ frame_needed = 1, uses_anonymous_args = 0
 432 0000 90B5     		push	{r4, r7, lr}
 433              		.cfi_def_cfa_offset 12
 434              		.cfi_offset 4, -12
 435              		.cfi_offset 7, -8
 436              		.cfi_offset 14, -4
 437 0002 8FB0     		sub	sp, sp, #60
 438              		.cfi_def_cfa_offset 72
 439 0004 00AF     		add	r7, sp, #0
 440              		.cfi_def_cfa_register 7
 441 0006 7860     		str	r0, [r7, #4]
 151:.\DisplayBLL.c ****     PSINKMESSAGEPTR pmsg = (PSINKMESSAGEPTR)pdata;
 442              		.loc 1 151 0
 443 0008 7B68     		ldr	r3, [r7, #4]
 444 000a FB62     		str	r3, [r7, #44]
 152:.\DisplayBLL.c **** 
 153:.\DisplayBLL.c ****     ///////////////////////////////////////////////////////
 154:.\DisplayBLL.c ****     //TEMPORARILY DISABLED TO ALLOW TESTING OTHER FEATURES!!
 155:.\DisplayBLL.c ****     if(_g_dispenserlayoutinfo._inconfiguration)
 445              		.loc 1 155 0
 446 000c 664B     		ldr	r3, .L37
 447 000e 1B78     		ldrb	r3, [r3]
 448 0010 DBB2     		uxtb	r3, r3
 449 0012 002B     		cmp	r3, #0
 450 0014 00D0     		beq	.L21
 156:.\DisplayBLL.c ****         goto CLOSEDISPLAY2;
 451              		.loc 1 156 0
 452 0016 BEE0     		b	.L22
 453              	.L21:
 157:.\DisplayBLL.c ****     ///////////////////////////////////////////////////////
 158:.\DisplayBLL.c ****     
 159:.\DisplayBLL.c ****     _g_display2._starting = false;
 454              		.loc 1 159 0
 455 0018 644B     		ldr	r3, .L37+4
 456 001a 0022     		movs	r2, #0
 457 001c 5A73     		strb	r2, [r3, #13]
 160:.\DisplayBLL.c ****     
ARM GAS  C:\Users\RECEPC~1\AppData\Local\Temp\ccvg7Xyk.s 			page 12


 161:.\DisplayBLL.c ****     _g_display2._currscrcode = ParseDisplayStream(pmsg->_buffer, pmsg->_buffersize);
 458              		.loc 1 161 0
 459 001e FB6A     		ldr	r3, [r7, #44]
 460 0020 03F10C02 		add	r2, r3, #12
 461 0024 FB6A     		ldr	r3, [r7, #44]
 462 0026 B3F88C31 		ldrh	r3, [r3, #396]	@ movhi
 463 002a 9BB2     		uxth	r3, r3
 464 002c DBB2     		uxtb	r3, r3
 465 002e 1046     		mov	r0, r2
 466 0030 1946     		mov	r1, r3
 467 0032 FFF7FEFF 		bl	ParseDisplayStream
 468 0036 0346     		mov	r3, r0
 469 0038 1A46     		mov	r2, r3
 470 003a 5C4B     		ldr	r3, .L37+4
 471 003c DA70     		strb	r2, [r3, #3]
 162:.\DisplayBLL.c ****     ParseDisplayFlow(&_g_display2);
 472              		.loc 1 162 0
 473 003e 5B48     		ldr	r0, .L37+4
 474 0040 FFF7FEFF 		bl	ParseDisplayFlow
 163:.\DisplayBLL.c ****     if(_g_display2._nextscrid != DISPLAY_NULL || 
 475              		.loc 1 163 0
 476 0044 594B     		ldr	r3, .L37+4
 477 0046 9B78     		ldrb	r3, [r3, #2]	@ zero_extendqisi2
 478 0048 FF2B     		cmp	r3, #255
 479 004a 08D1     		bne	.L23
 164:.\DisplayBLL.c ****         _g_display2._statechangescrid != DISPLAY_NULL ||
 480              		.loc 1 164 0 discriminator 1
 481 004c 574B     		ldr	r3, .L37+4
 482 004e 5B79     		ldrb	r3, [r3, #5]	@ zero_extendqisi2
 163:.\DisplayBLL.c ****     if(_g_display2._nextscrid != DISPLAY_NULL || 
 483              		.loc 1 163 0 discriminator 1
 484 0050 FF2B     		cmp	r3, #255
 485 0052 04D1     		bne	.L23
 165:.\DisplayBLL.c ****         _g_display2._timeoutscrid != DISPLAY_NULL)
 486              		.loc 1 165 0
 487 0054 554B     		ldr	r3, .L37+4
 488 0056 9B7A     		ldrb	r3, [r3, #10]	@ zero_extendqisi2
 164:.\DisplayBLL.c ****         _g_display2._statechangescrid != DISPLAY_NULL ||
 489              		.loc 1 164 0
 490 0058 FF2B     		cmp	r3, #255
 491 005a 00F09280 		beq	.L24
 492              	.L23:
 493              	.LBB5:
 166:.\DisplayBLL.c ****     {
 167:.\DisplayBLL.c ****         //Here comes the validation for the state of the work shift 
 168:.\DisplayBLL.c ****         if(_g_display2.DisplayValidator)
 494              		.loc 1 168 0
 495 005e 534B     		ldr	r3, .L37+4
 496 0060 9B6B     		ldr	r3, [r3, #56]
 497 0062 002B     		cmp	r3, #0
 498 0064 03D0     		beq	.L25
 169:.\DisplayBLL.c ****             _g_display2.DisplayValidator(&_g_display2);
 499              		.loc 1 169 0
 500 0066 514B     		ldr	r3, .L37+4
 501 0068 9B6B     		ldr	r3, [r3, #56]
 502 006a 5048     		ldr	r0, .L37+4
 503 006c 9847     		blx	r3
ARM GAS  C:\Users\RECEPC~1\AppData\Local\Temp\ccvg7Xyk.s 			page 13


 504              	.L25:
 170:.\DisplayBLL.c ****         
 171:.\DisplayBLL.c ****         bool validate = true;
 505              		.loc 1 171 0
 506 006e 0123     		movs	r3, #1
 507 0070 87F83730 		strb	r3, [r7, #55]
 172:.\DisplayBLL.c ****         PNEAR_BYTE_PTR piterptr = &_g_dispvalcodes[0x00];
 508              		.loc 1 172 0
 509 0074 4E4B     		ldr	r3, .L37+8
 510 0076 3B63     		str	r3, [r7, #48]
 173:.\DisplayBLL.c ****         while(*piterptr != 0xFF)
 511              		.loc 1 173 0
 512 0078 0CE0     		b	.L26
 513              	.L29:
 174:.\DisplayBLL.c ****         {
 175:.\DisplayBLL.c ****             if(*piterptr == _g_display2._currscrcode)
 514              		.loc 1 175 0
 515 007a 3B6B     		ldr	r3, [r7, #48]
 516 007c 1A78     		ldrb	r2, [r3]	@ zero_extendqisi2
 517 007e 4B4B     		ldr	r3, .L37+4
 518 0080 DB78     		ldrb	r3, [r3, #3]	@ zero_extendqisi2
 519 0082 9A42     		cmp	r2, r3
 520 0084 03D1     		bne	.L27
 176:.\DisplayBLL.c ****             {
 177:.\DisplayBLL.c ****                 validate = false;
 521              		.loc 1 177 0
 522 0086 0023     		movs	r3, #0
 523 0088 87F83730 		strb	r3, [r7, #55]
 178:.\DisplayBLL.c ****                 break;
 524              		.loc 1 178 0
 525 008c 06E0     		b	.L28
 526              	.L27:
 179:.\DisplayBLL.c ****             }
 180:.\DisplayBLL.c ****             piterptr++;
 527              		.loc 1 180 0
 528 008e 3B6B     		ldr	r3, [r7, #48]
 529 0090 0133     		adds	r3, r3, #1
 530 0092 3B63     		str	r3, [r7, #48]
 531              	.L26:
 173:.\DisplayBLL.c ****         {
 532              		.loc 1 173 0
 533 0094 3B6B     		ldr	r3, [r7, #48]
 534 0096 1B78     		ldrb	r3, [r3]	@ zero_extendqisi2
 535 0098 FF2B     		cmp	r3, #255
 536 009a EED1     		bne	.L29
 537              	.L28:
 181:.\DisplayBLL.c ****         }
 182:.\DisplayBLL.c ****         
 183:.\DisplayBLL.c ****         if(validate)
 538              		.loc 1 183 0
 539 009c 97F83730 		ldrb	r3, [r7, #55]	@ zero_extendqisi2
 540 00a0 002B     		cmp	r3, #0
 541 00a2 1CD0     		beq	.L30
 542              	.LBB6:
 184:.\DisplayBLL.c ****         {
 185:.\DisplayBLL.c ****             FPTRINPUTVALIDATOR fptrvalidator = DisplayFlowInputValidator(&_g_display2);
 543              		.loc 1 185 0
ARM GAS  C:\Users\RECEPC~1\AppData\Local\Temp\ccvg7Xyk.s 			page 14


 544 00a4 4148     		ldr	r0, .L37+4
 545 00a6 FFF7FEFF 		bl	DisplayFlowInputValidator
 546 00aa 7862     		str	r0, [r7, #36]
 186:.\DisplayBLL.c ****             if(fptrvalidator)
 547              		.loc 1 186 0
 548 00ac 7B6A     		ldr	r3, [r7, #36]
 549 00ae 002B     		cmp	r3, #0
 550 00b0 15D0     		beq	.L30
 187:.\DisplayBLL.c ****                 if(!fptrvalidator(&_g_display2))
 551              		.loc 1 187 0
 552 00b2 7B6A     		ldr	r3, [r7, #36]
 553 00b4 3D48     		ldr	r0, .L37+4
 554 00b6 9847     		blx	r3
 555 00b8 0346     		mov	r3, r0
 556 00ba 83F00103 		eor	r3, r3, #1
 557 00be DBB2     		uxtb	r3, r3
 558 00c0 002B     		cmp	r3, #0
 559 00c2 0CD0     		beq	.L30
 188:.\DisplayBLL.c ****                 {
 189:.\DisplayBLL.c ****                     _g_display2._timeoutscrid = _g_display2._statechangescrid = _g_display2._nextsc
 560              		.loc 1 189 0
 561 00c4 394B     		ldr	r3, .L37+4
 562 00c6 FF22     		movs	r2, #255
 563 00c8 9A70     		strb	r2, [r3, #2]
 564 00ca 384B     		ldr	r3, .L37+4
 565 00cc 9A78     		ldrb	r2, [r3, #2]	@ zero_extendqisi2
 566 00ce 374B     		ldr	r3, .L37+4
 567 00d0 5A71     		strb	r2, [r3, #5]
 568 00d2 364B     		ldr	r3, .L37+4
 569 00d4 5A79     		ldrb	r2, [r3, #5]	@ zero_extendqisi2
 570 00d6 354B     		ldr	r3, .L37+4
 571 00d8 9A72     		strb	r2, [r3, #10]
 190:.\DisplayBLL.c ****                     goto CLOSEDISPLAY2;
 572              		.loc 1 190 0
 573 00da 00BF     		nop
 574 00dc 5BE0     		b	.L22
 575              	.L30:
 576              	.LBE6:
 191:.\DisplayBLL.c ****                 }
 192:.\DisplayBLL.c ****         }
 193:.\DisplayBLL.c **** 
 194:.\DisplayBLL.c ****         ///////////////////////////////////////////////////////////////////////////////////////////
 195:.\DisplayBLL.c ****         //TODO: HERE WE NEED TO POST OR PROCESS THE INPUT BUFFER (CAPTURED THROUGH THE INPUT BOX IF
 196:.\DisplayBLL.c ****         //SINCE IT WILL BE CLEANED UP IN THE NEXT LINE
 197:.\DisplayBLL.c ****         //IT MUST BE POSTED THROUGH THE MESSAGE SINK TO THE BLL RELATED COMPONENT
 198:.\DisplayBLL.c ****         StoreTransactionData(&_g_display2);
 577              		.loc 1 198 0
 578 00de 3348     		ldr	r0, .L37+4
 579 00e0 FFF7FEFF 		bl	StoreTransactionData
 199:.\DisplayBLL.c **** 
 200:.\DisplayBLL.c ****         FPTRFINALIZER fptrfinalizer = DisplayFinalizer(&_g_display2);
 580              		.loc 1 200 0
 581 00e4 3148     		ldr	r0, .L37+4
 582 00e6 FFF7FEFF 		bl	DisplayFinalizer
 583 00ea 3862     		str	r0, [r7, #32]
 201:.\DisplayBLL.c ****         if(fptrfinalizer)
 584              		.loc 1 201 0
ARM GAS  C:\Users\RECEPC~1\AppData\Local\Temp\ccvg7Xyk.s 			page 15


 585 00ec 3B6A     		ldr	r3, [r7, #32]
 586 00ee 002B     		cmp	r3, #0
 587 00f0 02D0     		beq	.L32
 202:.\DisplayBLL.c ****             fptrfinalizer(&_g_display2);
 588              		.loc 1 202 0
 589 00f2 3B6A     		ldr	r3, [r7, #32]
 590 00f4 2D48     		ldr	r0, .L37+4
 591 00f6 9847     		blx	r3
 592              	.L32:
 203:.\DisplayBLL.c ****         
 204:.\DisplayBLL.c ****         PrepareDisplayStructure(&_g_display2);
 593              		.loc 1 204 0
 594 00f8 2C48     		ldr	r0, .L37+4
 595 00fa FFF7FEFF 		bl	PrepareDisplayStructure
 205:.\DisplayBLL.c **** 
 206:.\DisplayBLL.c ****         FPTRINITIALIZER fptrinitializer = DisplayInitializer(&_g_display2);
 596              		.loc 1 206 0
 597 00fe 2B48     		ldr	r0, .L37+4
 598 0100 FFF7FEFF 		bl	DisplayInitializer
 599 0104 F861     		str	r0, [r7, #28]
 207:.\DisplayBLL.c ****         if(fptrinitializer)
 600              		.loc 1 207 0
 601 0106 FB69     		ldr	r3, [r7, #28]
 602 0108 002B     		cmp	r3, #0
 603 010a 02D0     		beq	.L33
 208:.\DisplayBLL.c ****             fptrinitializer(&_g_display2);
 604              		.loc 1 208 0
 605 010c FB69     		ldr	r3, [r7, #28]
 606 010e 2748     		ldr	r0, .L37+4
 607 0110 9847     		blx	r3
 608              	.L33:
 209:.\DisplayBLL.c ****         
 210:.\DisplayBLL.c ****         //This is a static structure for the display screen selection command
 211:.\DisplayBLL.c ****         char8 pbuffer[] = { 0xAA, 0x70, (_g_display2._pcurrflow->_scrid >> 8) & 0xFF, _g_display2._
 609              		.loc 1 211 0
 610 0112 AA23     		movs	r3, #170
 611 0114 3B73     		strb	r3, [r7, #12]
 612 0116 7023     		movs	r3, #112
 613 0118 7B73     		strb	r3, [r7, #13]
 614 011a 0023     		movs	r3, #0
 615 011c BB73     		strb	r3, [r7, #14]
 616 011e 234B     		ldr	r3, .L37+4
 617 0120 1B69     		ldr	r3, [r3, #16]
 618 0122 1B78     		ldrb	r3, [r3]	@ zero_extendqisi2
 619 0124 FB73     		strb	r3, [r7, #15]
 620 0126 CC23     		movs	r3, #204
 621 0128 3B74     		strb	r3, [r7, #16]
 622 012a 3323     		movs	r3, #51
 623 012c 7B74     		strb	r3, [r7, #17]
 624 012e C323     		movs	r3, #195
 625 0130 BB74     		strb	r3, [r7, #18]
 626 0132 3C23     		movs	r3, #60
 627 0134 FB74     		strb	r3, [r7, #19]
 212:.\DisplayBLL.c ****         PUARTMESSAGEPTR puartdisp = GetUARTMessageSlot(UART_DISPLAY2);
 628              		.loc 1 212 0
 629 0136 A420     		movs	r0, #164
 630 0138 FFF7FEFF 		bl	GetUARTMessageSlot
ARM GAS  C:\Users\RECEPC~1\AppData\Local\Temp\ccvg7Xyk.s 			page 16


 631 013c B861     		str	r0, [r7, #24]
 213:.\DisplayBLL.c ****         if(puartdisp)
 632              		.loc 1 213 0
 633 013e BB69     		ldr	r3, [r7, #24]
 634 0140 002B     		cmp	r3, #0
 635 0142 12D0     		beq	.L34
 214:.\DisplayBLL.c ****         {
 215:.\DisplayBLL.c ****             puartdisp->_messagelength = sizeof(pbuffer) / sizeof(pbuffer[0]);
 636              		.loc 1 215 0
 637 0144 BB69     		ldr	r3, [r7, #24]
 638 0146 0822     		movs	r2, #8
 639 0148 5A80     		strh	r2, [r3, #2]	@ movhi
 216:.\DisplayBLL.c ****             memcpy(puartdisp->_messagetx, pbuffer, puartdisp->_messagelength);
 640              		.loc 1 216 0
 641 014a BB69     		ldr	r3, [r7, #24]
 642 014c 1A1D     		adds	r2, r3, #4
 643 014e BB69     		ldr	r3, [r7, #24]
 644 0150 5B88     		ldrh	r3, [r3, #2]	@ movhi
 645 0152 9BB2     		uxth	r3, r3
 646 0154 1C46     		mov	r4, r3
 647 0156 07F10C03 		add	r3, r7, #12
 648 015a 1046     		mov	r0, r2
 649 015c 1946     		mov	r1, r3
 650 015e 2246     		mov	r2, r4
 651 0160 FFF7FEFF 		bl	memcpy
 217:.\DisplayBLL.c ****             puartdisp->_messagestate = PENDING;
 652              		.loc 1 217 0
 653 0164 BB69     		ldr	r3, [r7, #24]
 654 0166 C222     		movs	r2, #194
 655 0168 1A70     		strb	r2, [r3]
 656              	.L34:
 218:.\DisplayBLL.c ****         }
 219:.\DisplayBLL.c ****         
 220:.\DisplayBLL.c ****         FPTRDECORATOR fptrdecorator = DisplayFlowDecorator(&_g_display2);
 657              		.loc 1 220 0
 658 016a 1048     		ldr	r0, .L37+4
 659 016c FFF7FEFF 		bl	DisplayFlowDecorator
 660 0170 7861     		str	r0, [r7, #20]
 221:.\DisplayBLL.c ****         if(fptrdecorator)
 661              		.loc 1 221 0
 662 0172 7B69     		ldr	r3, [r7, #20]
 663 0174 002B     		cmp	r3, #0
 664 0176 03D0     		beq	.L35
 222:.\DisplayBLL.c ****             fptrdecorator(&_g_display2);
 665              		.loc 1 222 0
 666 0178 7B69     		ldr	r3, [r7, #20]
 667 017a 0C48     		ldr	r0, .L37+4
 668 017c 9847     		blx	r3
 669              	.LBE5:
 166:.\DisplayBLL.c ****         //Here comes the validation for the state of the work shift 
 670              		.loc 1 166 0
 671 017e 0AE0     		b	.L22
 672              	.L35:
 673 0180 09E0     		b	.L22
 674              	.L24:
 675              	.LBB7:
 223:.\DisplayBLL.c **** 
ARM GAS  C:\Users\RECEPC~1\AppData\Local\Temp\ccvg7Xyk.s 			page 17


 224:.\DisplayBLL.c ****     }
 225:.\DisplayBLL.c ****     else
 226:.\DisplayBLL.c ****     {
 227:.\DisplayBLL.c ****         //Input capture processing here for all of the displays that allow data input
 228:.\DisplayBLL.c ****         FPTRINPUTHANDLER fptrhandler = DisplayFlowInputHandler(&_g_display2);
 676              		.loc 1 228 0
 677 0182 0A48     		ldr	r0, .L37+4
 678 0184 FFF7FEFF 		bl	DisplayFlowInputHandler
 679 0188 B862     		str	r0, [r7, #40]
 229:.\DisplayBLL.c ****         if(fptrhandler)
 680              		.loc 1 229 0
 681 018a BB6A     		ldr	r3, [r7, #40]
 682 018c 002B     		cmp	r3, #0
 683 018e 02D0     		beq	.L22
 230:.\DisplayBLL.c ****             fptrhandler(&_g_display2);
 684              		.loc 1 230 0
 685 0190 BB6A     		ldr	r3, [r7, #40]
 686 0192 0648     		ldr	r0, .L37+4
 687 0194 9847     		blx	r3
 688              	.L22:
 689              	.LBE7:
 231:.\DisplayBLL.c ****     }
 232:.\DisplayBLL.c ****     CLOSEDISPLAY2:
 233:.\DisplayBLL.c ****     Display2_ClearRxBuffer();
 690              		.loc 1 233 0
 691 0196 FFF7FEFF 		bl	Display2_ClearRxBuffer
 234:.\DisplayBLL.c ****     Display2_Enable();
 692              		.loc 1 234 0
 693 019a FFF7FEFF 		bl	Display2_Enable
 235:.\DisplayBLL.c ****     return;
 694              		.loc 1 235 0
 695 019e 00BF     		nop
 236:.\DisplayBLL.c **** }
 696              		.loc 1 236 0
 697 01a0 3C37     		adds	r7, r7, #60
 698              		.cfi_def_cfa_offset 12
 699 01a2 BD46     		mov	sp, r7
 700              		.cfi_def_cfa_register 13
 701              		@ sp needed
 702 01a4 90BD     		pop	{r4, r7, pc}
 703              	.L38:
 704 01a6 00BF     		.align	2
 705              	.L37:
 706 01a8 00000000 		.word	_g_dispenserlayoutinfo
 707 01ac 00000000 		.word	_g_display2
 708 01b0 00000000 		.word	_g_dispvalcodes
 709              		.cfi_endproc
 710              	.LFE64:
 711              		.size	Display2Logic, .-Display2Logic
 712              		.section	.rodata
 713              		.align	2
 714              	.LC11:
 715 0000 28256420 		.ascii	"(%d Copia)\000"
 715      436F7069 
 715      612900
 716 000b 00       		.align	2
 717              	.LC12:
ARM GAS  C:\Users\RECEPC~1\AppData\Local\Temp\ccvg7Xyk.s 			page 18


 718 000c 28256420 		.ascii	"(%d Copias)\000"
 718      436F7069 
 718      61732900 
 719              		.section	.text.DrawNumberOfCopies,"ax",%progbits
 720              		.align	2
 721              		.global	DrawNumberOfCopies
 722              		.thumb
 723              		.thumb_func
 724              		.type	DrawNumberOfCopies, %function
 725              	DrawNumberOfCopies:
 726              	.LFB65:
 237:.\DisplayBLL.c **** 
 238:.\DisplayBLL.c **** ///////////////////////////////////////////////////////////////////////////////////////////////////
 239:.\DisplayBLL.c **** // *********************************************  PURE BLL FUNCTIONS NEXT
 240:.\DisplayBLL.c **** ///////////////////////////////////////////////////////////////////////////////////////////////////
 241:.\DisplayBLL.c **** 
 242:.\DisplayBLL.c **** void DrawNumberOfCopies(void *pparam)
 243:.\DisplayBLL.c **** {
 727              		.loc 1 243 0
 728              		.cfi_startproc
 729              		@ args = 0, pretend = 0, frame = 48
 730              		@ frame_needed = 1, uses_anonymous_args = 0
 731 0000 B0B5     		push	{r4, r5, r7, lr}
 732              		.cfi_def_cfa_offset 16
 733              		.cfi_offset 4, -16
 734              		.cfi_offset 5, -12
 735              		.cfi_offset 7, -8
 736              		.cfi_offset 14, -4
 737 0002 90B0     		sub	sp, sp, #64
 738              		.cfi_def_cfa_offset 80
 739 0004 04AF     		add	r7, sp, #16
 740              		.cfi_def_cfa 7, 64
 741 0006 7860     		str	r0, [r7, #4]
 244:.\DisplayBLL.c ****     char8 buffer[16];
 245:.\DisplayBLL.c ****     FontData fontdata;
 246:.\DisplayBLL.c ****     fontdata._size = 0x03;
 742              		.loc 1 246 0
 743 0008 0323     		movs	r3, #3
 744 000a 3B72     		strb	r3, [r7, #8]
 247:.\DisplayBLL.c ****     fontdata._backcolor = 0xFFFF;
 745              		.loc 1 247 0
 746 000c 4FF6FF73 		movw	r3, #65535
 747 0010 BB81     		strh	r3, [r7, #12]	@ movhi
 248:.\DisplayBLL.c ****     fontdata._forecolor = 0x0000;
 748              		.loc 1 248 0
 749 0012 0023     		movs	r3, #0
 750 0014 FB81     		strh	r3, [r7, #14]	@ movhi
 249:.\DisplayBLL.c ****     fontdata._opaquebackground = DISP_TEXT_TRANSP;
 751              		.loc 1 249 0
 752 0016 8523     		movs	r3, #133
 753 0018 BB72     		strb	r3, [r7, #10]
 250:.\DisplayBLL.c ****     DisplayLayout *pdisplay = (DisplayLayout*)pparam;
 754              		.loc 1 250 0
 755 001a 7B68     		ldr	r3, [r7, #4]
 756 001c FB62     		str	r3, [r7, #44]
 251:.\DisplayBLL.c ****     
 252:.\DisplayBLL.c ****     I2CBusLock();
ARM GAS  C:\Users\RECEPC~1\AppData\Local\Temp\ccvg7Xyk.s 			page 19


 757              		.loc 1 252 0
 758 001e FFF7FEFF 		bl	I2CBusLock
 253:.\DisplayBLL.c ****     ClearEepromBuffer();
 759              		.loc 1 253 0
 760 0022 FFF7FEFF 		bl	ClearEepromBuffer
 254:.\DisplayBLL.c ****     LoadEepromPage(EEPROM_CONFIGURATION_PAGE7);
 761              		.loc 1 254 0
 762 0026 4FF4E070 		mov	r0, #448
 763 002a FFF7FEFF 		bl	LoadEepromPage
 255:.\DisplayBLL.c ****     uint8 numberofprintedcopies = GetEepromBuffer()[0x08];
 764              		.loc 1 255 0
 765 002e FFF7FEFF 		bl	GetEepromBuffer
 766 0032 0346     		mov	r3, r0
 767 0034 1B7A     		ldrb	r3, [r3, #8]
 768 0036 87F82B30 		strb	r3, [r7, #43]
 256:.\DisplayBLL.c ****     I2CBusUnlock();
 769              		.loc 1 256 0
 770 003a FFF7FEFF 		bl	I2CBusUnlock
 257:.\DisplayBLL.c ****     
 258:.\DisplayBLL.c ****     if(pdisplay->_dispid == DISPLAY1)
 771              		.loc 1 258 0
 772 003e FB6A     		ldr	r3, [r7, #44]
 773 0040 1B78     		ldrb	r3, [r3]	@ zero_extendqisi2
 774 0042 002B     		cmp	r3, #0
 775 0044 47D1     		bne	.L40
 776              	.LBB8:
 259:.\DisplayBLL.c ****     {
 260:.\DisplayBLL.c ****         UARTMessage *puartdisp = GetUARTMessageSlot(UART_DISPLAY1);
 777              		.loc 1 260 0
 778 0046 A320     		movs	r0, #163
 779 0048 FFF7FEFF 		bl	GetUARTMessageSlot
 780 004c 7862     		str	r0, [r7, #36]
 261:.\DisplayBLL.c ****         if(puartdisp)
 781              		.loc 1 261 0
 782 004e 7B6A     		ldr	r3, [r7, #36]
 783 0050 002B     		cmp	r3, #0
 784 0052 3FD0     		beq	.L41
 262:.\DisplayBLL.c ****         {
 263:.\DisplayBLL.c ****             memset(buffer, 0x00, sizeof(buffer));
 785              		.loc 1 263 0
 786 0054 07F11003 		add	r3, r7, #16
 787 0058 1846     		mov	r0, r3
 788 005a 0021     		movs	r1, #0
 789 005c 1022     		movs	r2, #16
 790 005e FFF7FEFF 		bl	memset
 264:.\DisplayBLL.c ****             if(numberofprintedcopies == 0x01)
 791              		.loc 1 264 0
 792 0062 97F82B30 		ldrb	r3, [r7, #43]	@ zero_extendqisi2
 793 0066 012B     		cmp	r3, #1
 794 0068 09D1     		bne	.L42
 265:.\DisplayBLL.c ****                 sprintf(buffer, "(%d Copia)", numberofprintedcopies);
 795              		.loc 1 265 0
 796 006a 97F82B30 		ldrb	r3, [r7, #43]	@ zero_extendqisi2
 797 006e 07F11002 		add	r2, r7, #16
 798 0072 1046     		mov	r0, r2
 799 0074 3C49     		ldr	r1, .L47
 800 0076 1A46     		mov	r2, r3
ARM GAS  C:\Users\RECEPC~1\AppData\Local\Temp\ccvg7Xyk.s 			page 20


 801 0078 FFF7FEFF 		bl	sprintf
 802 007c 08E0     		b	.L43
 803              	.L42:
 266:.\DisplayBLL.c ****             else
 267:.\DisplayBLL.c ****                 sprintf(buffer, "(%d Copias)", numberofprintedcopies);
 804              		.loc 1 267 0
 805 007e 97F82B30 		ldrb	r3, [r7, #43]	@ zero_extendqisi2
 806 0082 07F11002 		add	r2, r7, #16
 807 0086 1046     		mov	r0, r2
 808 0088 3849     		ldr	r1, .L47+4
 809 008a 1A46     		mov	r2, r3
 810 008c FFF7FEFF 		bl	sprintf
 811              	.L43:
 268:.\DisplayBLL.c ****                 
 269:.\DisplayBLL.c ****             //MOVE ALL OF THESE TEXTS TO THE EEPROM
 270:.\DisplayBLL.c ****             puartdisp->_messagelength = DisplayOutputString(0x0F0, 0x12A, puartdisp->_messagetx, bu
 812              		.loc 1 270 0
 813 0090 7B6A     		ldr	r3, [r7, #36]
 814 0092 1D1D     		adds	r5, r3, #4
 815 0094 07F11003 		add	r3, r7, #16
 816 0098 1846     		mov	r0, r3
 817 009a FFF7FEFF 		bl	strlen
 818 009e 0346     		mov	r3, r0
 819 00a0 9BB2     		uxth	r3, r3
 820 00a2 07F11004 		add	r4, r7, #16
 821 00a6 0093     		str	r3, [sp]
 822 00a8 01AA     		add	r2, sp, #4
 823 00aa 07F10803 		add	r3, r7, #8
 824 00ae 93E80300 		ldmia	r3, {r0, r1}
 825 00b2 82E80300 		stmia	r2, {r0, r1}
 826 00b6 F020     		movs	r0, #240
 827 00b8 4FF49571 		mov	r1, #298
 828 00bc 2A46     		mov	r2, r5
 829 00be 2346     		mov	r3, r4
 830 00c0 FFF7FEFF 		bl	DisplayOutputString
 831 00c4 0346     		mov	r3, r0
 832 00c6 1A46     		mov	r2, r3
 833 00c8 7B6A     		ldr	r3, [r7, #36]
 834 00ca 5A80     		strh	r2, [r3, #2]	@ movhi
 271:.\DisplayBLL.c ****             puartdisp->_messagestate = PENDING;
 835              		.loc 1 271 0
 836 00cc 7B6A     		ldr	r3, [r7, #36]
 837 00ce C222     		movs	r2, #194
 838 00d0 1A70     		strb	r2, [r3]
 839              	.LBE8:
 840 00d2 46E0     		b	.L39
 841              	.L41:
 842 00d4 45E0     		b	.L39
 843              	.L40:
 844              	.LBB9:
 272:.\DisplayBLL.c ****         }
 273:.\DisplayBLL.c ****     }
 274:.\DisplayBLL.c ****     else
 275:.\DisplayBLL.c ****     {
 276:.\DisplayBLL.c ****         UARTMessage *puartdisp = GetUARTMessageSlot(UART_DISPLAY2);
 845              		.loc 1 276 0
 846 00d6 A420     		movs	r0, #164
ARM GAS  C:\Users\RECEPC~1\AppData\Local\Temp\ccvg7Xyk.s 			page 21


 847 00d8 FFF7FEFF 		bl	GetUARTMessageSlot
 848 00dc 3862     		str	r0, [r7, #32]
 277:.\DisplayBLL.c ****         if(puartdisp)
 849              		.loc 1 277 0
 850 00de 3B6A     		ldr	r3, [r7, #32]
 851 00e0 002B     		cmp	r3, #0
 852 00e2 3ED0     		beq	.L39
 278:.\DisplayBLL.c ****         {
 279:.\DisplayBLL.c ****             memset(buffer, 0x00, sizeof(buffer));
 853              		.loc 1 279 0
 854 00e4 07F11003 		add	r3, r7, #16
 855 00e8 1846     		mov	r0, r3
 856 00ea 0021     		movs	r1, #0
 857 00ec 1022     		movs	r2, #16
 858 00ee FFF7FEFF 		bl	memset
 280:.\DisplayBLL.c ****             if(numberofprintedcopies == 0x01)
 859              		.loc 1 280 0
 860 00f2 97F82B30 		ldrb	r3, [r7, #43]	@ zero_extendqisi2
 861 00f6 012B     		cmp	r3, #1
 862 00f8 09D1     		bne	.L45
 281:.\DisplayBLL.c ****                 sprintf(buffer, "(%d Copia)", numberofprintedcopies);
 863              		.loc 1 281 0
 864 00fa 97F82B30 		ldrb	r3, [r7, #43]	@ zero_extendqisi2
 865 00fe 07F11002 		add	r2, r7, #16
 866 0102 1046     		mov	r0, r2
 867 0104 1849     		ldr	r1, .L47
 868 0106 1A46     		mov	r2, r3
 869 0108 FFF7FEFF 		bl	sprintf
 870 010c 08E0     		b	.L46
 871              	.L45:
 282:.\DisplayBLL.c ****             else
 283:.\DisplayBLL.c ****                 sprintf(buffer, "(%d Copias)", numberofprintedcopies);
 872              		.loc 1 283 0
 873 010e 97F82B30 		ldrb	r3, [r7, #43]	@ zero_extendqisi2
 874 0112 07F11002 		add	r2, r7, #16
 875 0116 1046     		mov	r0, r2
 876 0118 1449     		ldr	r1, .L47+4
 877 011a 1A46     		mov	r2, r3
 878 011c FFF7FEFF 		bl	sprintf
 879              	.L46:
 284:.\DisplayBLL.c ****                 
 285:.\DisplayBLL.c ****             puartdisp->_messagelength = DisplayOutputString(0x0F0, 0x12A, puartdisp->_messagetx, bu
 880              		.loc 1 285 0
 881 0120 3B6A     		ldr	r3, [r7, #32]
 882 0122 1D1D     		adds	r5, r3, #4
 883 0124 07F11003 		add	r3, r7, #16
 884 0128 1846     		mov	r0, r3
 885 012a FFF7FEFF 		bl	strlen
 886 012e 0346     		mov	r3, r0
 887 0130 9BB2     		uxth	r3, r3
 888 0132 07F11004 		add	r4, r7, #16
 889 0136 0093     		str	r3, [sp]
 890 0138 01AA     		add	r2, sp, #4
 891 013a 07F10803 		add	r3, r7, #8
 892 013e 93E80300 		ldmia	r3, {r0, r1}
 893 0142 82E80300 		stmia	r2, {r0, r1}
 894 0146 F020     		movs	r0, #240
ARM GAS  C:\Users\RECEPC~1\AppData\Local\Temp\ccvg7Xyk.s 			page 22


 895 0148 4FF49571 		mov	r1, #298
 896 014c 2A46     		mov	r2, r5
 897 014e 2346     		mov	r3, r4
 898 0150 FFF7FEFF 		bl	DisplayOutputString
 899 0154 0346     		mov	r3, r0
 900 0156 1A46     		mov	r2, r3
 901 0158 3B6A     		ldr	r3, [r7, #32]
 902 015a 5A80     		strh	r2, [r3, #2]	@ movhi
 286:.\DisplayBLL.c ****             puartdisp->_messagestate = PENDING;
 903              		.loc 1 286 0
 904 015c 3B6A     		ldr	r3, [r7, #32]
 905 015e C222     		movs	r2, #194
 906 0160 1A70     		strb	r2, [r3]
 907              	.L39:
 908              	.LBE9:
 287:.\DisplayBLL.c ****         }
 288:.\DisplayBLL.c ****     }
 289:.\DisplayBLL.c **** }
 909              		.loc 1 289 0
 910 0162 3037     		adds	r7, r7, #48
 911              		.cfi_def_cfa_offset 16
 912 0164 BD46     		mov	sp, r7
 913              		.cfi_def_cfa_register 13
 914              		@ sp needed
 915 0166 B0BD     		pop	{r4, r5, r7, pc}
 916              	.L48:
 917              		.align	2
 918              	.L47:
 919 0168 00000000 		.word	.LC11
 920 016c 0C000000 		.word	.LC12
 921              		.cfi_endproc
 922              	.LFE65:
 923              		.size	DrawNumberOfCopies, .-DrawNumberOfCopies
 924              		.section	.rodata
 925              		.align	2
 926              	.LC13:
 927 0018 2A2A2A2A 		.ascii	"**** OPERACION CANCELADA ****\000"
 927      204F5045 
 927      52414349 
 927      4F4E2043 
 927      414E4345 
 928              		.section	.text.CancelMessageDecorator,"ax",%progbits
 929              		.align	2
 930              		.global	CancelMessageDecorator
 931              		.thumb
 932              		.thumb_func
 933              		.type	CancelMessageDecorator, %function
 934              	CancelMessageDecorator:
 935              	.LFB66:
 290:.\DisplayBLL.c **** 
 291:.\DisplayBLL.c **** void CancelMessageDecorator(void *pparam)
 292:.\DisplayBLL.c **** {
 936              		.loc 1 292 0
 937              		.cfi_startproc
 938              		@ args = 0, pretend = 0, frame = 32
 939              		@ frame_needed = 1, uses_anonymous_args = 0
 940 0000 90B5     		push	{r4, r7, lr}
ARM GAS  C:\Users\RECEPC~1\AppData\Local\Temp\ccvg7Xyk.s 			page 23


 941              		.cfi_def_cfa_offset 12
 942              		.cfi_offset 4, -12
 943              		.cfi_offset 7, -8
 944              		.cfi_offset 14, -4
 945 0002 8DB0     		sub	sp, sp, #52
 946              		.cfi_def_cfa_offset 64
 947 0004 04AF     		add	r7, sp, #16
 948              		.cfi_def_cfa 7, 48
 949 0006 7860     		str	r0, [r7, #4]
 293:.\DisplayBLL.c ****     FontData fontdata;
 294:.\DisplayBLL.c ****     fontdata._size = 0x03;
 950              		.loc 1 294 0
 951 0008 0323     		movs	r3, #3
 952 000a 3B72     		strb	r3, [r7, #8]
 295:.\DisplayBLL.c ****     fontdata._backcolor = 0xFFFF;
 953              		.loc 1 295 0
 954 000c 4FF6FF73 		movw	r3, #65535
 955 0010 BB81     		strh	r3, [r7, #12]	@ movhi
 296:.\DisplayBLL.c ****     fontdata._forecolor = 0x0000;
 956              		.loc 1 296 0
 957 0012 0023     		movs	r3, #0
 958 0014 FB81     		strh	r3, [r7, #14]	@ movhi
 297:.\DisplayBLL.c ****     fontdata._opaquebackground = DISP_TEXT_OPAQUE;
 959              		.loc 1 297 0
 960 0016 C523     		movs	r3, #197
 961 0018 BB72     		strb	r3, [r7, #10]
 298:.\DisplayBLL.c ****     //MOVE ALL OF THESE TEXTS TO THE EEPROM
 299:.\DisplayBLL.c ****     char8 *pmessage = "**** OPERACION CANCELADA ****";    
 962              		.loc 1 299 0
 963 001a 294B     		ldr	r3, .L53
 964 001c FB61     		str	r3, [r7, #28]
 300:.\DisplayBLL.c ****     DisplayLayout *pdisplay = (DisplayLayout*)pparam;
 965              		.loc 1 300 0
 966 001e 7B68     		ldr	r3, [r7, #4]
 967 0020 BB61     		str	r3, [r7, #24]
 301:.\DisplayBLL.c ****     if(pdisplay->_dispid == DISPLAY1)
 968              		.loc 1 301 0
 969 0022 BB69     		ldr	r3, [r7, #24]
 970 0024 1B78     		ldrb	r3, [r3]	@ zero_extendqisi2
 971 0026 002B     		cmp	r3, #0
 972 0028 24D1     		bne	.L50
 973              	.LBB10:
 302:.\DisplayBLL.c ****     {
 303:.\DisplayBLL.c ****         UARTMessage *puartdisp = GetUARTMessageSlot(UART_DISPLAY1);
 974              		.loc 1 303 0
 975 002a A320     		movs	r0, #163
 976 002c FFF7FEFF 		bl	GetUARTMessageSlot
 977 0030 7861     		str	r0, [r7, #20]
 304:.\DisplayBLL.c ****         if(puartdisp)
 978              		.loc 1 304 0
 979 0032 7B69     		ldr	r3, [r7, #20]
 980 0034 002B     		cmp	r3, #0
 981 0036 1CD0     		beq	.L51
 305:.\DisplayBLL.c ****         {
 306:.\DisplayBLL.c ****             puartdisp->_messagelength = DisplayOutputString(0x0060, 0x00EA, puartdisp->_messagetx, 
 982              		.loc 1 306 0
 983 0038 7B69     		ldr	r3, [r7, #20]
ARM GAS  C:\Users\RECEPC~1\AppData\Local\Temp\ccvg7Xyk.s 			page 24


 984 003a 1C1D     		adds	r4, r3, #4
 985 003c F869     		ldr	r0, [r7, #28]
 986 003e FFF7FEFF 		bl	strlen
 987 0042 0346     		mov	r3, r0
 988 0044 9BB2     		uxth	r3, r3
 989 0046 0093     		str	r3, [sp]
 990 0048 01AA     		add	r2, sp, #4
 991 004a 07F10803 		add	r3, r7, #8
 992 004e 93E80300 		ldmia	r3, {r0, r1}
 993 0052 82E80300 		stmia	r2, {r0, r1}
 994 0056 6020     		movs	r0, #96
 995 0058 EA21     		movs	r1, #234
 996 005a 2246     		mov	r2, r4
 997 005c FB69     		ldr	r3, [r7, #28]
 998 005e FFF7FEFF 		bl	DisplayOutputString
 999 0062 0346     		mov	r3, r0
 1000 0064 1A46     		mov	r2, r3
 1001 0066 7B69     		ldr	r3, [r7, #20]
 1002 0068 5A80     		strh	r2, [r3, #2]	@ movhi
 307:.\DisplayBLL.c ****             puartdisp->_messagestate = PENDING;
 1003              		.loc 1 307 0
 1004 006a 7B69     		ldr	r3, [r7, #20]
 1005 006c C222     		movs	r2, #194
 1006 006e 1A70     		strb	r2, [r3]
 1007              	.LBE10:
 1008 0070 23E0     		b	.L49
 1009              	.L51:
 1010 0072 22E0     		b	.L49
 1011              	.L50:
 1012              	.LBB11:
 308:.\DisplayBLL.c ****         }
 309:.\DisplayBLL.c ****     }
 310:.\DisplayBLL.c ****     else
 311:.\DisplayBLL.c ****     {
 312:.\DisplayBLL.c ****         UARTMessage *puartdisp = GetUARTMessageSlot(UART_DISPLAY2);
 1013              		.loc 1 312 0
 1014 0074 A420     		movs	r0, #164
 1015 0076 FFF7FEFF 		bl	GetUARTMessageSlot
 1016 007a 3861     		str	r0, [r7, #16]
 313:.\DisplayBLL.c ****         if(puartdisp)
 1017              		.loc 1 313 0
 1018 007c 3B69     		ldr	r3, [r7, #16]
 1019 007e 002B     		cmp	r3, #0
 1020 0080 1BD0     		beq	.L49
 314:.\DisplayBLL.c ****         {
 315:.\DisplayBLL.c ****             puartdisp->_messagelength = DisplayOutputString(0x0060, 0x00EA, puartdisp->_messagetx, 
 1021              		.loc 1 315 0
 1022 0082 3B69     		ldr	r3, [r7, #16]
 1023 0084 1C1D     		adds	r4, r3, #4
 1024 0086 F869     		ldr	r0, [r7, #28]
 1025 0088 FFF7FEFF 		bl	strlen
 1026 008c 0346     		mov	r3, r0
 1027 008e 9BB2     		uxth	r3, r3
 1028 0090 0093     		str	r3, [sp]
 1029 0092 01AA     		add	r2, sp, #4
 1030 0094 07F10803 		add	r3, r7, #8
 1031 0098 93E80300 		ldmia	r3, {r0, r1}
ARM GAS  C:\Users\RECEPC~1\AppData\Local\Temp\ccvg7Xyk.s 			page 25


 1032 009c 82E80300 		stmia	r2, {r0, r1}
 1033 00a0 6020     		movs	r0, #96
 1034 00a2 EA21     		movs	r1, #234
 1035 00a4 2246     		mov	r2, r4
 1036 00a6 FB69     		ldr	r3, [r7, #28]
 1037 00a8 FFF7FEFF 		bl	DisplayOutputString
 1038 00ac 0346     		mov	r3, r0
 1039 00ae 1A46     		mov	r2, r3
 1040 00b0 3B69     		ldr	r3, [r7, #16]
 1041 00b2 5A80     		strh	r2, [r3, #2]	@ movhi
 316:.\DisplayBLL.c ****             puartdisp->_messagestate = PENDING;
 1042              		.loc 1 316 0
 1043 00b4 3B69     		ldr	r3, [r7, #16]
 1044 00b6 C222     		movs	r2, #194
 1045 00b8 1A70     		strb	r2, [r3]
 1046              	.L49:
 1047              	.LBE11:
 317:.\DisplayBLL.c ****         }
 318:.\DisplayBLL.c ****     }
 319:.\DisplayBLL.c **** }
 1048              		.loc 1 319 0
 1049 00ba 2437     		adds	r7, r7, #36
 1050              		.cfi_def_cfa_offset 12
 1051 00bc BD46     		mov	sp, r7
 1052              		.cfi_def_cfa_register 13
 1053              		@ sp needed
 1054 00be 90BD     		pop	{r4, r7, pc}
 1055              	.L54:
 1056              		.align	2
 1057              	.L53:
 1058 00c0 18000000 		.word	.LC13
 1059              		.cfi_endproc
 1060              	.LFE66:
 1061              		.size	CancelMessageDecorator, .-CancelMessageDecorator
 1062              		.section	.rodata
 1063 0036 0000     		.align	2
 1064              	.LC0:
 1065 0038 AA       		.byte	-86
 1066 0039 40       		.byte	64
 1067 003a FF       		.byte	-1
 1068 003b FF       		.byte	-1
 1069 003c FF       		.byte	-1
 1070 003d FF       		.byte	-1
 1071 003e CC       		.byte	-52
 1072 003f 33       		.byte	51
 1073 0040 C3       		.byte	-61
 1074 0041 3C       		.byte	60
 1075 0042 0000     		.align	2
 1076              	.LC1:
 1077 0044 AA       		.byte	-86
 1078 0045 5B       		.byte	91
 1079 0046 01       		.byte	1
 1080 0047 00       		.byte	0
 1081 0048 01       		.byte	1
 1082 0049 4A       		.byte	74
 1083 004a 02       		.byte	2
 1084 004b 70       		.byte	112
ARM GAS  C:\Users\RECEPC~1\AppData\Local\Temp\ccvg7Xyk.s 			page 26


 1085 004c 01       		.byte	1
 1086 004d 90       		.byte	-112
 1087 004e CC       		.byte	-52
 1088 004f 33       		.byte	51
 1089 0050 C3       		.byte	-61
 1090 0051 3C       		.byte	60
 1091              		.section	.text.MaskoutOptionDecorator,"ax",%progbits
 1092              		.align	2
 1093              		.global	MaskoutOptionDecorator
 1094              		.thumb
 1095              		.thumb_func
 1096              		.type	MaskoutOptionDecorator, %function
 1097              	MaskoutOptionDecorator:
 1098              	.LFB67:
 320:.\DisplayBLL.c **** 
 321:.\DisplayBLL.c **** void MaskoutOptionDecorator(void *pparam)
 322:.\DisplayBLL.c **** {
 1099              		.loc 1 322 0
 1100              		.cfi_startproc
 1101              		@ args = 0, pretend = 0, frame = 80
 1102              		@ frame_needed = 1, uses_anonymous_args = 0
 1103 0000 90B5     		push	{r4, r7, lr}
 1104              		.cfi_def_cfa_offset 12
 1105              		.cfi_offset 4, -12
 1106              		.cfi_offset 7, -8
 1107              		.cfi_offset 14, -4
 1108 0002 95B0     		sub	sp, sp, #84
 1109              		.cfi_def_cfa_offset 96
 1110 0004 00AF     		add	r7, sp, #0
 1111              		.cfi_def_cfa_register 7
 1112 0006 7860     		str	r0, [r7, #4]
 323:.\DisplayBLL.c ****     PDISPLAYLAYOUTPTR pdisplay = (PDISPLAYLAYOUTPTR)pparam;
 1113              		.loc 1 323 0
 1114 0008 7B68     		ldr	r3, [r7, #4]
 1115 000a FB64     		str	r3, [r7, #76]
 324:.\DisplayBLL.c ****     if(pdisplay->_dispid == DISPLAY1)
 1116              		.loc 1 324 0
 1117 000c FB6C     		ldr	r3, [r7, #76]
 1118 000e 1B78     		ldrb	r3, [r3]	@ zero_extendqisi2
 1119 0010 002B     		cmp	r3, #0
 1120 0012 42D1     		bne	.L56
 1121              	.LBB12:
 325:.\DisplayBLL.c ****     {
 326:.\DisplayBLL.c ****         PUARTMESSAGEPTR puartdisp = GetUARTMessageSlot(UART_DISPLAY1);
 1122              		.loc 1 326 0
 1123 0014 A320     		movs	r0, #163
 1124 0016 FFF7FEFF 		bl	GetUARTMessageSlot
 1125 001a B864     		str	r0, [r7, #72]
 327:.\DisplayBLL.c ****         if(puartdisp)
 1126              		.loc 1 327 0
 1127 001c BB6C     		ldr	r3, [r7, #72]
 1128 001e 002B     		cmp	r3, #0
 1129 0020 17D0     		beq	.L57
 1130              	.LBB13:
 328:.\DisplayBLL.c ****         {
 329:.\DisplayBLL.c ****             //SET FC BC COLORS (WHITE)
 330:.\DisplayBLL.c ****             uint8 buff[] = { 0xAA, 0x40, 0xFF, 0xFF, 0xFF, 0xFF, 0xCC, 0x33, 0xC3, 0x3C };
ARM GAS  C:\Users\RECEPC~1\AppData\Local\Temp\ccvg7Xyk.s 			page 27


 1131              		.loc 1 330 0
 1132 0022 424A     		ldr	r2, .L61
 1133 0024 07F13803 		add	r3, r7, #56
 1134 0028 1068     		ldr	r0, [r2]	@ unaligned
 1135 002a 5168     		ldr	r1, [r2, #4]	@ unaligned
 1136 002c 03C3     		stmia	r3!, {r0, r1}
 1137 002e 1289     		ldrh	r2, [r2, #8]	@ unaligned
 1138 0030 1A80     		strh	r2, [r3]	@ unaligned
 331:.\DisplayBLL.c ****             memcpy(puartdisp->_messagetx, buff, sizeof(buff));
 1139              		.loc 1 331 0
 1140 0032 BB6C     		ldr	r3, [r7, #72]
 1141 0034 0433     		adds	r3, r3, #4
 1142 0036 1A46     		mov	r2, r3
 1143 0038 07F13803 		add	r3, r7, #56
 1144 003c 03CB     		ldmia	r3!, {r0, r1}
 1145 003e 1060     		str	r0, [r2]	@ unaligned
 1146 0040 5160     		str	r1, [r2, #4]	@ unaligned
 1147 0042 1B88     		ldrh	r3, [r3]	@ unaligned
 1148 0044 1381     		strh	r3, [r2, #8]	@ unaligned
 332:.\DisplayBLL.c ****             puartdisp->_messagelength = sizeof(buff);
 1149              		.loc 1 332 0
 1150 0046 BB6C     		ldr	r3, [r7, #72]
 1151 0048 0A22     		movs	r2, #10
 1152 004a 5A80     		strh	r2, [r3, #2]	@ movhi
 333:.\DisplayBLL.c ****             puartdisp->_messagestate = PENDING;
 1153              		.loc 1 333 0
 1154 004c BB6C     		ldr	r3, [r7, #72]
 1155 004e C222     		movs	r2, #194
 1156 0050 1A70     		strb	r2, [r3]
 1157              	.L57:
 1158              	.LBE13:
 334:.\DisplayBLL.c ****         }
 335:.\DisplayBLL.c ****         
 336:.\DisplayBLL.c ****         puartdisp = GetUARTMessageSlot(UART_DISPLAY1);
 1159              		.loc 1 336 0
 1160 0052 A320     		movs	r0, #163
 1161 0054 FFF7FEFF 		bl	GetUARTMessageSlot
 1162 0058 B864     		str	r0, [r7, #72]
 337:.\DisplayBLL.c ****         if(puartdisp)
 1163              		.loc 1 337 0
 1164 005a BB6C     		ldr	r3, [r7, #72]
 1165 005c 002B     		cmp	r3, #0
 1166 005e 1BD0     		beq	.L58
 1167              	.LBB14:
 338:.\DisplayBLL.c ****         {
 339:.\DisplayBLL.c ****             uint8 buff[] = { 0xAA, 0x5B, 0x01, 0x00, 0x01, 0x4A, 0x02, 0x70, 0x01, 0x90, 0xCC, 0x33
 1168              		.loc 1 339 0
 1169 0060 334A     		ldr	r2, .L61+4
 1170 0062 07F12803 		add	r3, r7, #40
 1171 0066 1446     		mov	r4, r2
 1172 0068 2068     		ldr	r0, [r4]	@ unaligned
 1173 006a 6168     		ldr	r1, [r4, #4]	@ unaligned
 1174 006c A268     		ldr	r2, [r4, #8]	@ unaligned
 1175 006e 07C3     		stmia	r3!, {r0, r1, r2}
 1176 0070 A289     		ldrh	r2, [r4, #12]	@ unaligned
 1177 0072 1A80     		strh	r2, [r3]	@ unaligned
 340:.\DisplayBLL.c ****             memcpy(puartdisp->_messagetx, buff, sizeof(buff));
ARM GAS  C:\Users\RECEPC~1\AppData\Local\Temp\ccvg7Xyk.s 			page 28


 1178              		.loc 1 340 0
 1179 0074 BB6C     		ldr	r3, [r7, #72]
 1180 0076 0433     		adds	r3, r3, #4
 1181 0078 1C46     		mov	r4, r3
 1182 007a 07F12803 		add	r3, r7, #40
 1183 007e 07CB     		ldmia	r3!, {r0, r1, r2}
 1184 0080 2060     		str	r0, [r4]	@ unaligned
 1185 0082 6160     		str	r1, [r4, #4]	@ unaligned
 1186 0084 A260     		str	r2, [r4, #8]	@ unaligned
 1187 0086 1B88     		ldrh	r3, [r3]	@ unaligned
 1188 0088 A381     		strh	r3, [r4, #12]	@ unaligned
 341:.\DisplayBLL.c ****             puartdisp->_messagelength = sizeof(buff);
 1189              		.loc 1 341 0
 1190 008a BB6C     		ldr	r3, [r7, #72]
 1191 008c 0E22     		movs	r2, #14
 1192 008e 5A80     		strh	r2, [r3, #2]	@ movhi
 342:.\DisplayBLL.c ****             puartdisp->_messagestate = PENDING;
 1193              		.loc 1 342 0
 1194 0090 BB6C     		ldr	r3, [r7, #72]
 1195 0092 C222     		movs	r2, #194
 1196 0094 1A70     		strb	r2, [r3]
 1197              	.LBE14:
 1198              	.LBE12:
 1199 0096 45E0     		b	.L55
 1200              	.L58:
 1201 0098 44E0     		b	.L55
 1202              	.L56:
 343:.\DisplayBLL.c ****         }    
 344:.\DisplayBLL.c ****     }
 345:.\DisplayBLL.c ****     else if(pdisplay->_dispid == DISPLAY2)
 1203              		.loc 1 345 0
 1204 009a FB6C     		ldr	r3, [r7, #76]
 1205 009c 1B78     		ldrb	r3, [r3]	@ zero_extendqisi2
 1206 009e 012B     		cmp	r3, #1
 1207 00a0 40D1     		bne	.L55
 1208              	.LBB15:
 346:.\DisplayBLL.c ****     {
 347:.\DisplayBLL.c ****         PUARTMESSAGEPTR puartdisp = GetUARTMessageSlot(UART_DISPLAY2);
 1209              		.loc 1 347 0
 1210 00a2 A420     		movs	r0, #164
 1211 00a4 FFF7FEFF 		bl	GetUARTMessageSlot
 1212 00a8 7864     		str	r0, [r7, #68]
 348:.\DisplayBLL.c ****         if(puartdisp)
 1213              		.loc 1 348 0
 1214 00aa 7B6C     		ldr	r3, [r7, #68]
 1215 00ac 002B     		cmp	r3, #0
 1216 00ae 17D0     		beq	.L60
 1217              	.LBB16:
 349:.\DisplayBLL.c ****         {
 350:.\DisplayBLL.c ****             //SET FC BC COLORS (WHITE)
 351:.\DisplayBLL.c ****             uint8 buff[] = { 0xAA, 0x40, 0xFF, 0xFF, 0xFF, 0xFF, 0xCC, 0x33, 0xC3, 0x3C };
 1218              		.loc 1 351 0
 1219 00b0 1E4A     		ldr	r2, .L61
 1220 00b2 07F11C03 		add	r3, r7, #28
 1221 00b6 1068     		ldr	r0, [r2]	@ unaligned
 1222 00b8 5168     		ldr	r1, [r2, #4]	@ unaligned
 1223 00ba 03C3     		stmia	r3!, {r0, r1}
ARM GAS  C:\Users\RECEPC~1\AppData\Local\Temp\ccvg7Xyk.s 			page 29


 1224 00bc 1289     		ldrh	r2, [r2, #8]	@ unaligned
 1225 00be 1A80     		strh	r2, [r3]	@ unaligned
 352:.\DisplayBLL.c ****             memcpy(puartdisp->_messagetx, buff, sizeof(buff));
 1226              		.loc 1 352 0
 1227 00c0 7B6C     		ldr	r3, [r7, #68]
 1228 00c2 0433     		adds	r3, r3, #4
 1229 00c4 1A46     		mov	r2, r3
 1230 00c6 07F11C03 		add	r3, r7, #28
 1231 00ca 03CB     		ldmia	r3!, {r0, r1}
 1232 00cc 1060     		str	r0, [r2]	@ unaligned
 1233 00ce 5160     		str	r1, [r2, #4]	@ unaligned
 1234 00d0 1B88     		ldrh	r3, [r3]	@ unaligned
 1235 00d2 1381     		strh	r3, [r2, #8]	@ unaligned
 353:.\DisplayBLL.c ****             puartdisp->_messagelength = sizeof(buff);
 1236              		.loc 1 353 0
 1237 00d4 7B6C     		ldr	r3, [r7, #68]
 1238 00d6 0A22     		movs	r2, #10
 1239 00d8 5A80     		strh	r2, [r3, #2]	@ movhi
 354:.\DisplayBLL.c ****             puartdisp->_messagestate = PENDING;
 1240              		.loc 1 354 0
 1241 00da 7B6C     		ldr	r3, [r7, #68]
 1242 00dc C222     		movs	r2, #194
 1243 00de 1A70     		strb	r2, [r3]
 1244              	.L60:
 1245              	.LBE16:
 355:.\DisplayBLL.c ****         }
 356:.\DisplayBLL.c ****         
 357:.\DisplayBLL.c ****         puartdisp = GetUARTMessageSlot(UART_DISPLAY2);
 1246              		.loc 1 357 0
 1247 00e0 A420     		movs	r0, #164
 1248 00e2 FFF7FEFF 		bl	GetUARTMessageSlot
 1249 00e6 7864     		str	r0, [r7, #68]
 358:.\DisplayBLL.c ****         if(puartdisp)
 1250              		.loc 1 358 0
 1251 00e8 7B6C     		ldr	r3, [r7, #68]
 1252 00ea 002B     		cmp	r3, #0
 1253 00ec 1AD0     		beq	.L55
 1254              	.LBB17:
 359:.\DisplayBLL.c ****         {
 360:.\DisplayBLL.c ****             uint8 buff[] = { 0xAA, 0x5B, 0x01, 0x00, 0x01, 0x4A, 0x02, 0x70, 0x01, 0x90, 0xCC, 0x33
 1255              		.loc 1 360 0
 1256 00ee 104A     		ldr	r2, .L61+4
 1257 00f0 07F10C03 		add	r3, r7, #12
 1258 00f4 1446     		mov	r4, r2
 1259 00f6 2068     		ldr	r0, [r4]	@ unaligned
 1260 00f8 6168     		ldr	r1, [r4, #4]	@ unaligned
 1261 00fa A268     		ldr	r2, [r4, #8]	@ unaligned
 1262 00fc 07C3     		stmia	r3!, {r0, r1, r2}
 1263 00fe A289     		ldrh	r2, [r4, #12]	@ unaligned
 1264 0100 1A80     		strh	r2, [r3]	@ unaligned
 361:.\DisplayBLL.c ****             memcpy(puartdisp->_messagetx, buff, sizeof(buff));
 1265              		.loc 1 361 0
 1266 0102 7B6C     		ldr	r3, [r7, #68]
 1267 0104 0433     		adds	r3, r3, #4
 1268 0106 1C46     		mov	r4, r3
 1269 0108 07F10C03 		add	r3, r7, #12
 1270 010c 07CB     		ldmia	r3!, {r0, r1, r2}
ARM GAS  C:\Users\RECEPC~1\AppData\Local\Temp\ccvg7Xyk.s 			page 30


 1271 010e 2060     		str	r0, [r4]	@ unaligned
 1272 0110 6160     		str	r1, [r4, #4]	@ unaligned
 1273 0112 A260     		str	r2, [r4, #8]	@ unaligned
 1274 0114 1B88     		ldrh	r3, [r3]	@ unaligned
 1275 0116 A381     		strh	r3, [r4, #12]	@ unaligned
 362:.\DisplayBLL.c ****             puartdisp->_messagelength = sizeof(buff);
 1276              		.loc 1 362 0
 1277 0118 7B6C     		ldr	r3, [r7, #68]
 1278 011a 0E22     		movs	r2, #14
 1279 011c 5A80     		strh	r2, [r3, #2]	@ movhi
 363:.\DisplayBLL.c ****             puartdisp->_messagestate = PENDING;
 1280              		.loc 1 363 0
 1281 011e 7B6C     		ldr	r3, [r7, #68]
 1282 0120 C222     		movs	r2, #194
 1283 0122 1A70     		strb	r2, [r3]
 1284              	.L55:
 1285              	.LBE17:
 1286              	.LBE15:
 364:.\DisplayBLL.c ****         }    
 365:.\DisplayBLL.c ****     }
 366:.\DisplayBLL.c **** }
 1287              		.loc 1 366 0
 1288 0124 5437     		adds	r7, r7, #84
 1289              		.cfi_def_cfa_offset 12
 1290 0126 BD46     		mov	sp, r7
 1291              		.cfi_def_cfa_register 13
 1292              		@ sp needed
 1293 0128 90BD     		pop	{r4, r7, pc}
 1294              	.L62:
 1295 012a 00BF     		.align	2
 1296              	.L61:
 1297 012c 38000000 		.word	.LC0
 1298 0130 44000000 		.word	.LC1
 1299              		.cfi_endproc
 1300              	.LFE67:
 1301              		.size	MaskoutOptionDecorator, .-MaskoutOptionDecorator
 1302              		.section	.rodata
 1303 0052 0000     		.align	2
 1304              	.LC14:
 1305 0054 56616C69 		.ascii	"Validando turno, por favor espere...\000"
 1305      64616E64 
 1305      6F207475 
 1305      726E6F2C 
 1305      20706F72 
 1306              		.section	.text.WorkShiftDecorator,"ax",%progbits
 1307              		.align	2
 1308              		.global	WorkShiftDecorator
 1309              		.thumb
 1310              		.thumb_func
 1311              		.type	WorkShiftDecorator, %function
 1312              	WorkShiftDecorator:
 1313              	.LFB68:
 367:.\DisplayBLL.c **** 
 368:.\DisplayBLL.c **** void WorkShiftDecorator(void *pparam)
 369:.\DisplayBLL.c **** {
 1314              		.loc 1 369 0
 1315              		.cfi_startproc
ARM GAS  C:\Users\RECEPC~1\AppData\Local\Temp\ccvg7Xyk.s 			page 31


 1316              		@ args = 0, pretend = 0, frame = 32
 1317              		@ frame_needed = 1, uses_anonymous_args = 0
 1318 0000 90B5     		push	{r4, r7, lr}
 1319              		.cfi_def_cfa_offset 12
 1320              		.cfi_offset 4, -12
 1321              		.cfi_offset 7, -8
 1322              		.cfi_offset 14, -4
 1323 0002 8DB0     		sub	sp, sp, #52
 1324              		.cfi_def_cfa_offset 64
 1325 0004 04AF     		add	r7, sp, #16
 1326              		.cfi_def_cfa 7, 48
 1327 0006 7860     		str	r0, [r7, #4]
 370:.\DisplayBLL.c ****     FontData fontdata;
 371:.\DisplayBLL.c ****     fontdata._size = 0x03;
 1328              		.loc 1 371 0
 1329 0008 0323     		movs	r3, #3
 1330 000a 3B72     		strb	r3, [r7, #8]
 372:.\DisplayBLL.c ****     fontdata._backcolor = 0xFFFF;
 1331              		.loc 1 372 0
 1332 000c 4FF6FF73 		movw	r3, #65535
 1333 0010 BB81     		strh	r3, [r7, #12]	@ movhi
 373:.\DisplayBLL.c ****     fontdata._forecolor = 0x0000;
 1334              		.loc 1 373 0
 1335 0012 0023     		movs	r3, #0
 1336 0014 FB81     		strh	r3, [r7, #14]	@ movhi
 374:.\DisplayBLL.c ****     fontdata._opaquebackground = DISP_TEXT_OPAQUE;
 1337              		.loc 1 374 0
 1338 0016 C523     		movs	r3, #197
 1339 0018 BB72     		strb	r3, [r7, #10]
 375:.\DisplayBLL.c ****     //MOVE ALL OF THESE TEXTS TO THE EEPROM
 376:.\DisplayBLL.c ****     char8 *pmessage = "Validando turno, por favor espere...";
 1340              		.loc 1 376 0
 1341 001a 294B     		ldr	r3, .L67
 1342 001c FB61     		str	r3, [r7, #28]
 377:.\DisplayBLL.c ****     DisplayLayout *pdisplay = (DisplayLayout*)pparam;
 1343              		.loc 1 377 0
 1344 001e 7B68     		ldr	r3, [r7, #4]
 1345 0020 BB61     		str	r3, [r7, #24]
 378:.\DisplayBLL.c ****     if(pdisplay->_dispid == DISPLAY1)
 1346              		.loc 1 378 0
 1347 0022 BB69     		ldr	r3, [r7, #24]
 1348 0024 1B78     		ldrb	r3, [r3]	@ zero_extendqisi2
 1349 0026 002B     		cmp	r3, #0
 1350 0028 24D1     		bne	.L64
 1351              	.LBB18:
 379:.\DisplayBLL.c ****     {
 380:.\DisplayBLL.c ****         UARTMessage *puartdisp = GetUARTMessageSlot(UART_DISPLAY1);
 1352              		.loc 1 380 0
 1353 002a A320     		movs	r0, #163
 1354 002c FFF7FEFF 		bl	GetUARTMessageSlot
 1355 0030 7861     		str	r0, [r7, #20]
 381:.\DisplayBLL.c ****         if(puartdisp)
 1356              		.loc 1 381 0
 1357 0032 7B69     		ldr	r3, [r7, #20]
 1358 0034 002B     		cmp	r3, #0
 1359 0036 1CD0     		beq	.L65
 382:.\DisplayBLL.c ****         {
ARM GAS  C:\Users\RECEPC~1\AppData\Local\Temp\ccvg7Xyk.s 			page 32


 383:.\DisplayBLL.c ****             puartdisp->_messagelength = DisplayOutputString(0x0020, 0x00EA, puartdisp->_messagetx, 
 1360              		.loc 1 383 0
 1361 0038 7B69     		ldr	r3, [r7, #20]
 1362 003a 1C1D     		adds	r4, r3, #4
 1363 003c F869     		ldr	r0, [r7, #28]
 1364 003e FFF7FEFF 		bl	strlen
 1365 0042 0346     		mov	r3, r0
 1366 0044 9BB2     		uxth	r3, r3
 1367 0046 0093     		str	r3, [sp]
 1368 0048 01AA     		add	r2, sp, #4
 1369 004a 07F10803 		add	r3, r7, #8
 1370 004e 93E80300 		ldmia	r3, {r0, r1}
 1371 0052 82E80300 		stmia	r2, {r0, r1}
 1372 0056 2020     		movs	r0, #32
 1373 0058 EA21     		movs	r1, #234
 1374 005a 2246     		mov	r2, r4
 1375 005c FB69     		ldr	r3, [r7, #28]
 1376 005e FFF7FEFF 		bl	DisplayOutputString
 1377 0062 0346     		mov	r3, r0
 1378 0064 1A46     		mov	r2, r3
 1379 0066 7B69     		ldr	r3, [r7, #20]
 1380 0068 5A80     		strh	r2, [r3, #2]	@ movhi
 384:.\DisplayBLL.c ****             puartdisp->_messagestate = PENDING;
 1381              		.loc 1 384 0
 1382 006a 7B69     		ldr	r3, [r7, #20]
 1383 006c C222     		movs	r2, #194
 1384 006e 1A70     		strb	r2, [r3]
 1385              	.LBE18:
 1386 0070 23E0     		b	.L63
 1387              	.L65:
 1388 0072 22E0     		b	.L63
 1389              	.L64:
 1390              	.LBB19:
 385:.\DisplayBLL.c ****         }
 386:.\DisplayBLL.c ****     }
 387:.\DisplayBLL.c ****     else
 388:.\DisplayBLL.c ****     {
 389:.\DisplayBLL.c ****         UARTMessage *puartdisp = GetUARTMessageSlot(UART_DISPLAY2);
 1391              		.loc 1 389 0
 1392 0074 A420     		movs	r0, #164
 1393 0076 FFF7FEFF 		bl	GetUARTMessageSlot
 1394 007a 3861     		str	r0, [r7, #16]
 390:.\DisplayBLL.c ****         if(puartdisp)
 1395              		.loc 1 390 0
 1396 007c 3B69     		ldr	r3, [r7, #16]
 1397 007e 002B     		cmp	r3, #0
 1398 0080 1BD0     		beq	.L63
 391:.\DisplayBLL.c ****         {
 392:.\DisplayBLL.c ****             puartdisp->_messagelength = DisplayOutputString(0x0020, 0x00EA, puartdisp->_messagetx, 
 1399              		.loc 1 392 0
 1400 0082 3B69     		ldr	r3, [r7, #16]
 1401 0084 1C1D     		adds	r4, r3, #4
 1402 0086 F869     		ldr	r0, [r7, #28]
 1403 0088 FFF7FEFF 		bl	strlen
 1404 008c 0346     		mov	r3, r0
 1405 008e 9BB2     		uxth	r3, r3
 1406 0090 0093     		str	r3, [sp]
ARM GAS  C:\Users\RECEPC~1\AppData\Local\Temp\ccvg7Xyk.s 			page 33


 1407 0092 01AA     		add	r2, sp, #4
 1408 0094 07F10803 		add	r3, r7, #8
 1409 0098 93E80300 		ldmia	r3, {r0, r1}
 1410 009c 82E80300 		stmia	r2, {r0, r1}
 1411 00a0 2020     		movs	r0, #32
 1412 00a2 EA21     		movs	r1, #234
 1413 00a4 2246     		mov	r2, r4
 1414 00a6 FB69     		ldr	r3, [r7, #28]
 1415 00a8 FFF7FEFF 		bl	DisplayOutputString
 1416 00ac 0346     		mov	r3, r0
 1417 00ae 1A46     		mov	r2, r3
 1418 00b0 3B69     		ldr	r3, [r7, #16]
 1419 00b2 5A80     		strh	r2, [r3, #2]	@ movhi
 393:.\DisplayBLL.c ****             puartdisp->_messagestate = PENDING;
 1420              		.loc 1 393 0
 1421 00b4 3B69     		ldr	r3, [r7, #16]
 1422 00b6 C222     		movs	r2, #194
 1423 00b8 1A70     		strb	r2, [r3]
 1424              	.L63:
 1425              	.LBE19:
 394:.\DisplayBLL.c ****         }
 395:.\DisplayBLL.c ****     }
 396:.\DisplayBLL.c **** }
 1426              		.loc 1 396 0
 1427 00ba 2437     		adds	r7, r7, #36
 1428              		.cfi_def_cfa_offset 12
 1429 00bc BD46     		mov	sp, r7
 1430              		.cfi_def_cfa_register 13
 1431              		@ sp needed
 1432 00be 90BD     		pop	{r4, r7, pc}
 1433              	.L68:
 1434              		.align	2
 1435              	.L67:
 1436 00c0 54000000 		.word	.LC14
 1437              		.cfi_endproc
 1438              	.LFE68:
 1439              		.size	WorkShiftDecorator, .-WorkShiftDecorator
 1440              		.section	.text.InitiateWorkShiftValidation,"ax",%progbits
 1441              		.align	2
 1442              		.global	InitiateWorkShiftValidation
 1443              		.thumb
 1444              		.thumb_func
 1445              		.type	InitiateWorkShiftValidation, %function
 1446              	InitiateWorkShiftValidation:
 1447              	.LFB69:
 397:.\DisplayBLL.c **** 
 398:.\DisplayBLL.c **** void InitiateWorkShiftValidation(void *pparam)
 399:.\DisplayBLL.c **** {
 1448              		.loc 1 399 0
 1449              		.cfi_startproc
 1450              		@ args = 0, pretend = 0, frame = 16
 1451              		@ frame_needed = 1, uses_anonymous_args = 0
 1452 0000 90B5     		push	{r4, r7, lr}
 1453              		.cfi_def_cfa_offset 12
 1454              		.cfi_offset 4, -12
 1455              		.cfi_offset 7, -8
 1456              		.cfi_offset 14, -4
ARM GAS  C:\Users\RECEPC~1\AppData\Local\Temp\ccvg7Xyk.s 			page 34


 1457 0002 85B0     		sub	sp, sp, #20
 1458              		.cfi_def_cfa_offset 32
 1459 0004 00AF     		add	r7, sp, #0
 1460              		.cfi_def_cfa_register 7
 1461 0006 7860     		str	r0, [r7, #4]
 400:.\DisplayBLL.c ****     PDISPLAYLAYOUTPTR pdisplay = (PDISPLAYLAYOUTPTR)pparam;
 1462              		.loc 1 400 0
 1463 0008 7B68     		ldr	r3, [r7, #4]
 1464 000a FB60     		str	r3, [r7, #12]
 401:.\DisplayBLL.c ****     if(pdisplay->_dispid == DISPLAY1)
 1465              		.loc 1 401 0
 1466 000c FB68     		ldr	r3, [r7, #12]
 1467 000e 1B78     		ldrb	r3, [r3]	@ zero_extendqisi2
 1468 0010 002B     		cmp	r3, #0
 1469 0012 48D1     		bne	.L70
 402:.\DisplayBLL.c ****     {
 403:.\DisplayBLL.c ****         if(((PSINKMESSAGEPTR)pdisplay->_psequesteredmessagesink)->_buffer[GetBufferIndexFromDisplay
 1470              		.loc 1 403 0
 1471 0014 FB68     		ldr	r3, [r7, #12]
 1472 0016 1C6B     		ldr	r4, [r3, #48]
 1473 0018 2E20     		movs	r0, #46
 1474 001a FFF7FEFF 		bl	GetBufferIndexFromDisplayID
 1475 001e 0346     		mov	r3, r0
 1476 0020 2344     		add	r3, r3, r4
 1477 0022 1B7B     		ldrb	r3, [r3, #12]	@ zero_extendqisi2
 1478 0024 562B     		cmp	r3, #86
 1479 0026 19D1     		bne	.L71
 1480              	.LBB20:
 404:.\DisplayBLL.c ****         {
 405:.\DisplayBLL.c ****             I2CBusLock();
 1481              		.loc 1 405 0
 1482 0028 FFF7FEFF 		bl	I2CBusLock
 406:.\DisplayBLL.c ****             ClearEepromBuffer();
 1483              		.loc 1 406 0
 1484 002c FFF7FEFF 		bl	ClearEepromBuffer
 407:.\DisplayBLL.c ****             LoadEepromPage(EEPROM_DISPENSER_PUMP1_LAYOUT_PAGE);
 1485              		.loc 1 407 0
 1486 0030 4FF40070 		mov	r0, #512
 1487 0034 FFF7FEFF 		bl	LoadEepromPage
 408:.\DisplayBLL.c ****             uint8 wsvalue = GetEepromBuffer()[0x05];
 1488              		.loc 1 408 0
 1489 0038 FFF7FEFF 		bl	GetEepromBuffer
 1490 003c 0346     		mov	r3, r0
 1491 003e 5B79     		ldrb	r3, [r3, #5]
 1492 0040 FB72     		strb	r3, [r7, #11]
 409:.\DisplayBLL.c ****             I2CBusUnlock();
 1493              		.loc 1 409 0
 1494 0042 FFF7FEFF 		bl	I2CBusUnlock
 410:.\DisplayBLL.c ****             if(wsvalue == 0x00)
 1495              		.loc 1 410 0
 1496 0046 FB7A     		ldrb	r3, [r7, #11]	@ zero_extendqisi2
 1497 0048 002B     		cmp	r3, #0
 1498 004a 03D1     		bne	.L72
 411:.\DisplayBLL.c ****                 pdisplay->_currentstate = DISPLAY_OPEN_WORK_SHIFT;
 1499              		.loc 1 411 0
 1500 004c FB68     		ldr	r3, [r7, #12]
 1501 004e A522     		movs	r2, #165
ARM GAS  C:\Users\RECEPC~1\AppData\Local\Temp\ccvg7Xyk.s 			page 35


 1502 0050 1A71     		strb	r2, [r3, #4]
 1503 0052 73E0     		b	.L69
 1504              	.L72:
 412:.\DisplayBLL.c ****             else
 413:.\DisplayBLL.c ****                 pdisplay->_currentstate = DISPLAY_CLOSE_WORK_SHIFT;
 1505              		.loc 1 413 0
 1506 0054 FB68     		ldr	r3, [r7, #12]
 1507 0056 A622     		movs	r2, #166
 1508 0058 1A71     		strb	r2, [r3, #4]
 1509              	.LBE20:
 1510 005a 6FE0     		b	.L69
 1511              	.L71:
 414:.\DisplayBLL.c ****         }
 415:.\DisplayBLL.c ****         else if(((PSINKMESSAGEPTR)pdisplay->_psequesteredmessagesink)->_buffer[GetBufferIndexFromDi
 1512              		.loc 1 415 0
 1513 005c FB68     		ldr	r3, [r7, #12]
 1514 005e 1C6B     		ldr	r4, [r3, #48]
 1515 0060 2E20     		movs	r0, #46
 1516 0062 FFF7FEFF 		bl	GetBufferIndexFromDisplayID
 1517 0066 0346     		mov	r3, r0
 1518 0068 2344     		add	r3, r3, r4
 1519 006a 1B7B     		ldrb	r3, [r3, #12]	@ zero_extendqisi2
 1520 006c 572B     		cmp	r3, #87
 1521 006e 19D1     		bne	.L74
 1522              	.LBB21:
 416:.\DisplayBLL.c ****         {
 417:.\DisplayBLL.c ****             I2CBusLock();
 1523              		.loc 1 417 0
 1524 0070 FFF7FEFF 		bl	I2CBusLock
 418:.\DisplayBLL.c ****             ClearEepromBuffer();
 1525              		.loc 1 418 0
 1526 0074 FFF7FEFF 		bl	ClearEepromBuffer
 419:.\DisplayBLL.c ****             LoadEepromPage(EEPROM_DISPENSER_PUMP3_LAYOUT_PAGE);
 1527              		.loc 1 419 0
 1528 0078 4FF42070 		mov	r0, #640
 1529 007c FFF7FEFF 		bl	LoadEepromPage
 420:.\DisplayBLL.c ****             uint8 wsvalue = GetEepromBuffer()[0x05];
 1530              		.loc 1 420 0
 1531 0080 FFF7FEFF 		bl	GetEepromBuffer
 1532 0084 0346     		mov	r3, r0
 1533 0086 5B79     		ldrb	r3, [r3, #5]
 1534 0088 BB72     		strb	r3, [r7, #10]
 421:.\DisplayBLL.c ****             I2CBusUnlock();
 1535              		.loc 1 421 0
 1536 008a FFF7FEFF 		bl	I2CBusUnlock
 422:.\DisplayBLL.c ****             if(wsvalue == 0x00)
 1537              		.loc 1 422 0
 1538 008e BB7A     		ldrb	r3, [r7, #10]	@ zero_extendqisi2
 1539 0090 002B     		cmp	r3, #0
 1540 0092 03D1     		bne	.L75
 423:.\DisplayBLL.c ****                 pdisplay->_currentstate = DISPLAY_OPEN_WORK_SHIFT;
 1541              		.loc 1 423 0
 1542 0094 FB68     		ldr	r3, [r7, #12]
 1543 0096 A522     		movs	r2, #165
 1544 0098 1A71     		strb	r2, [r3, #4]
 1545 009a 03E0     		b	.L74
 1546              	.L75:
ARM GAS  C:\Users\RECEPC~1\AppData\Local\Temp\ccvg7Xyk.s 			page 36


 424:.\DisplayBLL.c ****             else
 425:.\DisplayBLL.c ****                 pdisplay->_currentstate = DISPLAY_CLOSE_WORK_SHIFT;
 1547              		.loc 1 425 0
 1548 009c FB68     		ldr	r3, [r7, #12]
 1549 009e A622     		movs	r2, #166
 1550 00a0 1A71     		strb	r2, [r3, #4]
 1551              	.LBE21:
 1552 00a2 4BE0     		b	.L69
 1553              	.L74:
 1554 00a4 4AE0     		b	.L69
 1555              	.L70:
 426:.\DisplayBLL.c ****         }
 427:.\DisplayBLL.c ****     }
 428:.\DisplayBLL.c ****     else if(pdisplay->_dispid == DISPLAY2)
 1556              		.loc 1 428 0
 1557 00a6 FB68     		ldr	r3, [r7, #12]
 1558 00a8 1B78     		ldrb	r3, [r3]	@ zero_extendqisi2
 1559 00aa 012B     		cmp	r3, #1
 1560 00ac 46D1     		bne	.L69
 429:.\DisplayBLL.c ****     {
 430:.\DisplayBLL.c ****         if(((PSINKMESSAGEPTR)pdisplay->_psequesteredmessagesink)->_buffer[GetBufferIndexFromDisplay
 1561              		.loc 1 430 0
 1562 00ae FB68     		ldr	r3, [r7, #12]
 1563 00b0 1C6B     		ldr	r4, [r3, #48]
 1564 00b2 2E20     		movs	r0, #46
 1565 00b4 FFF7FEFF 		bl	GetBufferIndexFromDisplayID
 1566 00b8 0346     		mov	r3, r0
 1567 00ba 2344     		add	r3, r3, r4
 1568 00bc 1B7B     		ldrb	r3, [r3, #12]	@ zero_extendqisi2
 1569 00be 562B     		cmp	r3, #86
 1570 00c0 19D1     		bne	.L77
 1571              	.LBB22:
 431:.\DisplayBLL.c ****         {
 432:.\DisplayBLL.c ****             I2CBusLock();
 1572              		.loc 1 432 0
 1573 00c2 FFF7FEFF 		bl	I2CBusLock
 433:.\DisplayBLL.c ****             ClearEepromBuffer();
 1574              		.loc 1 433 0
 1575 00c6 FFF7FEFF 		bl	ClearEepromBuffer
 434:.\DisplayBLL.c ****             LoadEepromPage(EEPROM_DISPENSER_PUMP4_LAYOUT_PAGE);
 1576              		.loc 1 434 0
 1577 00ca 4FF43070 		mov	r0, #704
 1578 00ce FFF7FEFF 		bl	LoadEepromPage
 435:.\DisplayBLL.c ****             uint8 wsvalue = GetEepromBuffer()[0x05];
 1579              		.loc 1 435 0
 1580 00d2 FFF7FEFF 		bl	GetEepromBuffer
 1581 00d6 0346     		mov	r3, r0
 1582 00d8 5B79     		ldrb	r3, [r3, #5]
 1583 00da 7B72     		strb	r3, [r7, #9]
 436:.\DisplayBLL.c ****             I2CBusUnlock();
 1584              		.loc 1 436 0
 1585 00dc FFF7FEFF 		bl	I2CBusUnlock
 437:.\DisplayBLL.c ****             if(wsvalue == 0x00)
 1586              		.loc 1 437 0
 1587 00e0 7B7A     		ldrb	r3, [r7, #9]	@ zero_extendqisi2
 1588 00e2 002B     		cmp	r3, #0
 1589 00e4 03D1     		bne	.L78
ARM GAS  C:\Users\RECEPC~1\AppData\Local\Temp\ccvg7Xyk.s 			page 37


 438:.\DisplayBLL.c ****                 pdisplay->_currentstate = DISPLAY_OPEN_WORK_SHIFT;
 1590              		.loc 1 438 0
 1591 00e6 FB68     		ldr	r3, [r7, #12]
 1592 00e8 A522     		movs	r2, #165
 1593 00ea 1A71     		strb	r2, [r3, #4]
 1594 00ec 26E0     		b	.L69
 1595              	.L78:
 439:.\DisplayBLL.c ****             else
 440:.\DisplayBLL.c ****                 pdisplay->_currentstate = DISPLAY_CLOSE_WORK_SHIFT;
 1596              		.loc 1 440 0
 1597 00ee FB68     		ldr	r3, [r7, #12]
 1598 00f0 A622     		movs	r2, #166
 1599 00f2 1A71     		strb	r2, [r3, #4]
 1600              	.LBE22:
 1601 00f4 22E0     		b	.L69
 1602              	.L77:
 441:.\DisplayBLL.c ****         }
 442:.\DisplayBLL.c ****         else if(((PSINKMESSAGEPTR)pdisplay->_psequesteredmessagesink)->_buffer[GetBufferIndexFromDi
 1603              		.loc 1 442 0
 1604 00f6 FB68     		ldr	r3, [r7, #12]
 1605 00f8 1C6B     		ldr	r4, [r3, #48]
 1606 00fa 2E20     		movs	r0, #46
 1607 00fc FFF7FEFF 		bl	GetBufferIndexFromDisplayID
 1608 0100 0346     		mov	r3, r0
 1609 0102 2344     		add	r3, r3, r4
 1610 0104 1B7B     		ldrb	r3, [r3, #12]	@ zero_extendqisi2
 1611 0106 572B     		cmp	r3, #87
 1612 0108 18D1     		bne	.L69
 1613              	.LBB23:
 443:.\DisplayBLL.c ****         {
 444:.\DisplayBLL.c ****             I2CBusLock();
 1614              		.loc 1 444 0
 1615 010a FFF7FEFF 		bl	I2CBusLock
 445:.\DisplayBLL.c ****             ClearEepromBuffer();
 1616              		.loc 1 445 0
 1617 010e FFF7FEFF 		bl	ClearEepromBuffer
 446:.\DisplayBLL.c ****             LoadEepromPage(EEPROM_DISPENSER_PUMP2_LAYOUT_PAGE);
 1618              		.loc 1 446 0
 1619 0112 4FF41070 		mov	r0, #576
 1620 0116 FFF7FEFF 		bl	LoadEepromPage
 447:.\DisplayBLL.c ****             uint8 wsvalue = GetEepromBuffer()[0x05];
 1621              		.loc 1 447 0
 1622 011a FFF7FEFF 		bl	GetEepromBuffer
 1623 011e 0346     		mov	r3, r0
 1624 0120 5B79     		ldrb	r3, [r3, #5]
 1625 0122 3B72     		strb	r3, [r7, #8]
 448:.\DisplayBLL.c ****             I2CBusUnlock();
 1626              		.loc 1 448 0
 1627 0124 FFF7FEFF 		bl	I2CBusUnlock
 449:.\DisplayBLL.c ****             if(wsvalue == 0x00)
 1628              		.loc 1 449 0
 1629 0128 3B7A     		ldrb	r3, [r7, #8]	@ zero_extendqisi2
 1630 012a 002B     		cmp	r3, #0
 1631 012c 03D1     		bne	.L80
 450:.\DisplayBLL.c ****                 pdisplay->_currentstate = DISPLAY_OPEN_WORK_SHIFT;
 1632              		.loc 1 450 0
 1633 012e FB68     		ldr	r3, [r7, #12]
ARM GAS  C:\Users\RECEPC~1\AppData\Local\Temp\ccvg7Xyk.s 			page 38


 1634 0130 A522     		movs	r2, #165
 1635 0132 1A71     		strb	r2, [r3, #4]
 1636 0134 02E0     		b	.L69
 1637              	.L80:
 451:.\DisplayBLL.c ****             else
 452:.\DisplayBLL.c ****                 pdisplay->_currentstate = DISPLAY_CLOSE_WORK_SHIFT;
 1638              		.loc 1 452 0
 1639 0136 FB68     		ldr	r3, [r7, #12]
 1640 0138 A622     		movs	r2, #166
 1641 013a 1A71     		strb	r2, [r3, #4]
 1642              	.L69:
 1643              	.LBE23:
 453:.\DisplayBLL.c ****         }
 454:.\DisplayBLL.c ****     }
 455:.\DisplayBLL.c **** }
 1644              		.loc 1 455 0
 1645 013c 1437     		adds	r7, r7, #20
 1646              		.cfi_def_cfa_offset 12
 1647 013e BD46     		mov	sp, r7
 1648              		.cfi_def_cfa_register 13
 1649              		@ sp needed
 1650 0140 90BD     		pop	{r4, r7, pc}
 1651              		.cfi_endproc
 1652              	.LFE69:
 1653              		.size	InitiateWorkShiftValidation, .-InitiateWorkShiftValidation
 1654 0142 00BF     		.section	.text.RequestWorkShiftOperAuthorization,"ax",%progbits
 1655              		.align	2
 1656              		.global	RequestWorkShiftOperAuthorization
 1657              		.thumb
 1658              		.thumb_func
 1659              		.type	RequestWorkShiftOperAuthorization, %function
 1660              	RequestWorkShiftOperAuthorization:
 1661              	.LFB70:
 456:.\DisplayBLL.c **** 
 457:.\DisplayBLL.c **** void RequestWorkShiftOperAuthorization(void *pparam)
 458:.\DisplayBLL.c **** {
 1662              		.loc 1 458 0
 1663              		.cfi_startproc
 1664              		@ args = 0, pretend = 0, frame = 24
 1665              		@ frame_needed = 1, uses_anonymous_args = 0
 1666 0000 B0B5     		push	{r4, r5, r7, lr}
 1667              		.cfi_def_cfa_offset 16
 1668              		.cfi_offset 4, -16
 1669              		.cfi_offset 5, -12
 1670              		.cfi_offset 7, -8
 1671              		.cfi_offset 14, -4
 1672 0002 86B0     		sub	sp, sp, #24
 1673              		.cfi_def_cfa_offset 40
 1674 0004 00AF     		add	r7, sp, #0
 1675              		.cfi_def_cfa_register 7
 1676 0006 7860     		str	r0, [r7, #4]
 459:.\DisplayBLL.c ****     PDISPLAYLAYOUTPTR pdisplay = (PDISPLAYLAYOUTPTR)pparam;
 1677              		.loc 1 459 0
 1678 0008 7B68     		ldr	r3, [r7, #4]
 1679 000a 7B61     		str	r3, [r7, #20]
 460:.\DisplayBLL.c ****     //HERE WE ATTEMPT TO PUSH THE TRANSACTION INTO THE PUMP'S TRANSACTIONAL QUEUE.
 461:.\DisplayBLL.c ****     //THIS IS DONE ONLY IF THERE IS ROOM IN THE QUEUE, OTHERWISE THIS STATE WON'T
ARM GAS  C:\Users\RECEPC~1\AppData\Local\Temp\ccvg7Xyk.s 			page 39


 462:.\DisplayBLL.c ****     //BE REPORTED TO THE REMOTE PEER.
 463:.\DisplayBLL.c ****     PNEAR_PUMPPTR ppumpptr = &_g_pumps[GetPumpIndexFromDisplay(pdisplay)];
 1680              		.loc 1 463 0
 1681 000c 7869     		ldr	r0, [r7, #20]
 1682 000e FFF7FEFF 		bl	GetPumpIndexFromDisplay
 1683 0012 0346     		mov	r3, r0
 1684 0014 1A46     		mov	r2, r3
 1685 0016 4FF41963 		mov	r3, #2448
 1686 001a 03FB02F3 		mul	r3, r3, r2
 1687 001e 464A     		ldr	r2, .L83
 1688 0020 1344     		add	r3, r3, r2
 1689 0022 3B61     		str	r3, [r7, #16]
 464:.\DisplayBLL.c ****     if(ppumpptr)
 1690              		.loc 1 464 0
 1691 0024 3B69     		ldr	r3, [r7, #16]
 1692 0026 002B     		cmp	r3, #0
 1693 0028 00F08380 		beq	.L81
 1694              	.LBB24:
 465:.\DisplayBLL.c ****     {
 466:.\DisplayBLL.c ****         ppumpptr->PumpTransQueueLock(ppumpptr);
 1695              		.loc 1 466 0
 1696 002c 3B69     		ldr	r3, [r7, #16]
 1697 002e D3F80C39 		ldr	r3, [r3, #2316]
 1698 0032 3869     		ldr	r0, [r7, #16]
 1699 0034 9847     		blx	r3
 467:.\DisplayBLL.c ****         PNEAR_PUMPTRANSACTIONALSTATEPTR pts = ppumpptr->PumpTransQueueAllocate(ppumpptr);
 1700              		.loc 1 467 0
 1701 0036 3B69     		ldr	r3, [r7, #16]
 1702 0038 D3F82039 		ldr	r3, [r3, #2336]
 1703 003c 3869     		ldr	r0, [r7, #16]
 1704 003e 9847     		blx	r3
 1705 0040 F860     		str	r0, [r7, #12]
 468:.\DisplayBLL.c ****         ppumpptr->PumpTransQueueUnlock(ppumpptr);
 1706              		.loc 1 468 0
 1707 0042 3B69     		ldr	r3, [r7, #16]
 1708 0044 D3F81039 		ldr	r3, [r3, #2320]
 1709 0048 3869     		ldr	r0, [r7, #16]
 1710 004a 9847     		blx	r3
 469:.\DisplayBLL.c ****         if(pts)
 1711              		.loc 1 469 0
 1712 004c FB68     		ldr	r3, [r7, #12]
 1713 004e 002B     		cmp	r3, #0
 1714 0050 6FD0     		beq	.L81
 1715              	.LBB25:
 470:.\DisplayBLL.c ****         {
 471:.\DisplayBLL.c ****             uint8 index = 0;
 1716              		.loc 1 471 0
 1717 0052 0023     		movs	r3, #0
 1718 0054 FB72     		strb	r3, [r7, #11]
 472:.\DisplayBLL.c ****             pts->_transtate = RF_MUX_ISLAND_OPER_DATA_REQUEST;
 1719              		.loc 1 472 0
 1720 0056 FB68     		ldr	r3, [r7, #12]
 1721 0058 E322     		movs	r2, #227
 1722 005a 5A70     		strb	r2, [r3, #1]
 473:.\DisplayBLL.c ****             //Pump ID always comes in the first position (0x00)
 474:.\DisplayBLL.c ****             pts->_buffer[index++] = ppumpptr->_pumpid;
 1723              		.loc 1 474 0
ARM GAS  C:\Users\RECEPC~1\AppData\Local\Temp\ccvg7Xyk.s 			page 40


 1724 005c FB7A     		ldrb	r3, [r7, #11]	@ zero_extendqisi2
 1725 005e 5A1C     		adds	r2, r3, #1
 1726 0060 FA72     		strb	r2, [r7, #11]
 1727 0062 1946     		mov	r1, r3
 1728 0064 3B69     		ldr	r3, [r7, #16]
 1729 0066 1A78     		ldrb	r2, [r3]	@ zero_extendqisi2
 1730 0068 FB68     		ldr	r3, [r7, #12]
 1731 006a 0B44     		add	r3, r3, r1
 1732 006c 9A70     		strb	r2, [r3, #2]
 475:.\DisplayBLL.c ****             
 476:.\DisplayBLL.c ****             memcpy(&pts->_buffer[index], &((PSINKMESSAGEPTR)pdisplay->_psequesteredmessagesink)->_b
 1733              		.loc 1 476 0
 1734 006e FB7A     		ldrb	r3, [r7, #11]	@ zero_extendqisi2
 1735 0070 FA68     		ldr	r2, [r7, #12]
 1736 0072 1344     		add	r3, r3, r2
 1737 0074 9D1C     		adds	r5, r3, #2
 1738 0076 7B69     		ldr	r3, [r7, #20]
 1739 0078 1C6B     		ldr	r4, [r3, #48]
 1740 007a 2420     		movs	r0, #36
 1741 007c FFF7FEFF 		bl	GetBufferIndexFromDisplayID
 1742 0080 0346     		mov	r3, r0
 1743 0082 0833     		adds	r3, r3, #8
 1744 0084 2344     		add	r3, r3, r4
 1745 0086 1C1D     		adds	r4, r3, #4
 1746 0088 2420     		movs	r0, #36
 1747 008a FFF7FEFF 		bl	GetBufferLengthFromDisplayID
 1748 008e 0346     		mov	r3, r0
 1749 0090 2846     		mov	r0, r5
 1750 0092 2146     		mov	r1, r4
 1751 0094 1A46     		mov	r2, r3
 1752 0096 FFF7FEFF 		bl	memcpy
 477:.\DisplayBLL.c ****             //PSTRBUFFTOGG((PNEAR_BYTE_PTR)&pts->_buffer[index], GetBufferLengthFromDisplayID(DISPL
 478:.\DisplayBLL.c ****             index += GetBufferLengthFromDisplayID(DISPLAY_INTRODUZCA_CEDULA);
 1753              		.loc 1 478 0
 1754 009a 2420     		movs	r0, #36
 1755 009c FFF7FEFF 		bl	GetBufferLengthFromDisplayID
 1756 00a0 0346     		mov	r3, r0
 1757 00a2 1A46     		mov	r2, r3
 1758 00a4 FB7A     		ldrb	r3, [r7, #11]
 1759 00a6 1344     		add	r3, r3, r2
 1760 00a8 FB72     		strb	r3, [r7, #11]
 479:.\DisplayBLL.c ****             
 480:.\DisplayBLL.c ****             memcpy(&pts->_buffer[index], &((PSINKMESSAGEPTR)pdisplay->_psequesteredmessagesink)->_b
 1761              		.loc 1 480 0
 1762 00aa FB7A     		ldrb	r3, [r7, #11]	@ zero_extendqisi2
 1763 00ac FA68     		ldr	r2, [r7, #12]
 1764 00ae 1344     		add	r3, r3, r2
 1765 00b0 9D1C     		adds	r5, r3, #2
 1766 00b2 7B69     		ldr	r3, [r7, #20]
 1767 00b4 1C6B     		ldr	r4, [r3, #48]
 1768 00b6 2520     		movs	r0, #37
 1769 00b8 FFF7FEFF 		bl	GetBufferIndexFromDisplayID
 1770 00bc 0346     		mov	r3, r0
 1771 00be 0833     		adds	r3, r3, #8
 1772 00c0 2344     		add	r3, r3, r4
 1773 00c2 1C1D     		adds	r4, r3, #4
 1774 00c4 2520     		movs	r0, #37
ARM GAS  C:\Users\RECEPC~1\AppData\Local\Temp\ccvg7Xyk.s 			page 41


 1775 00c6 FFF7FEFF 		bl	GetBufferLengthFromDisplayID
 1776 00ca 0346     		mov	r3, r0
 1777 00cc 2846     		mov	r0, r5
 1778 00ce 2146     		mov	r1, r4
 1779 00d0 1A46     		mov	r2, r3
 1780 00d2 FFF7FEFF 		bl	memcpy
 481:.\DisplayBLL.c ****             PSTRBUFFTOGG((PNEAR_BYTE_PTR)&pts->_buffer[index], strlen(&pts->_buffer[index]));
 1781              		.loc 1 481 0
 1782 00d6 FB7A     		ldrb	r3, [r7, #11]	@ zero_extendqisi2
 1783 00d8 FA68     		ldr	r2, [r7, #12]
 1784 00da 1344     		add	r3, r3, r2
 1785 00dc 9C1C     		adds	r4, r3, #2
 1786 00de FB7A     		ldrb	r3, [r7, #11]	@ zero_extendqisi2
 1787 00e0 FA68     		ldr	r2, [r7, #12]
 1788 00e2 1344     		add	r3, r3, r2
 1789 00e4 0233     		adds	r3, r3, #2
 1790 00e6 1846     		mov	r0, r3
 1791 00e8 FFF7FEFF 		bl	strlen
 1792 00ec 0346     		mov	r3, r0
 1793 00ee DBB2     		uxtb	r3, r3
 1794 00f0 2046     		mov	r0, r4
 1795 00f2 1946     		mov	r1, r3
 1796 00f4 FFF7FEFF 		bl	PSTRBUFFTOGG
 482:.\DisplayBLL.c ****             index += GetBufferLengthFromDisplayID(DISPLAY_INGRESE_PASSWORD);
 1797              		.loc 1 482 0
 1798 00f8 2520     		movs	r0, #37
 1799 00fa FFF7FEFF 		bl	GetBufferLengthFromDisplayID
 1800 00fe 0346     		mov	r3, r0
 1801 0100 1A46     		mov	r2, r3
 1802 0102 FB7A     		ldrb	r3, [r7, #11]
 1803 0104 1344     		add	r3, r3, r2
 1804 0106 FB72     		strb	r3, [r7, #11]
 483:.\DisplayBLL.c ****             
 484:.\DisplayBLL.c ****             pts->_buffersize = index;
 1805              		.loc 1 484 0
 1806 0108 FB7A     		ldrb	r3, [r7, #11]	@ zero_extendqisi2
 1807 010a 9AB2     		uxth	r2, r3
 1808 010c FB68     		ldr	r3, [r7, #12]
 1809 010e A3F80221 		strh	r2, [r3, #258]	@ movhi
 485:.\DisplayBLL.c **** 
 486:.\DisplayBLL.c ****             ppumpptr->PumpTransQueueLock(ppumpptr);
 1810              		.loc 1 486 0
 1811 0112 3B69     		ldr	r3, [r7, #16]
 1812 0114 D3F80C39 		ldr	r3, [r3, #2316]
 1813 0118 3869     		ldr	r0, [r7, #16]
 1814 011a 9847     		blx	r3
 487:.\DisplayBLL.c ****             ppumpptr->PumpTransQueueEnqueue(ppumpptr, pts);
 1815              		.loc 1 487 0
 1816 011c 3B69     		ldr	r3, [r7, #16]
 1817 011e D3F81839 		ldr	r3, [r3, #2328]
 1818 0122 3869     		ldr	r0, [r7, #16]
 1819 0124 F968     		ldr	r1, [r7, #12]
 1820 0126 9847     		blx	r3
 488:.\DisplayBLL.c ****             ppumpptr->PumpTransQueueUnlock(ppumpptr);
 1821              		.loc 1 488 0
 1822 0128 3B69     		ldr	r3, [r7, #16]
 1823 012a D3F81039 		ldr	r3, [r3, #2320]
ARM GAS  C:\Users\RECEPC~1\AppData\Local\Temp\ccvg7Xyk.s 			page 42


 1824 012e 3869     		ldr	r0, [r7, #16]
 1825 0130 9847     		blx	r3
 1826              	.L81:
 1827              	.LBE25:
 1828              	.LBE24:
 489:.\DisplayBLL.c ****         }
 490:.\DisplayBLL.c ****     }
 491:.\DisplayBLL.c **** }
 1829              		.loc 1 491 0
 1830 0132 1837     		adds	r7, r7, #24
 1831              		.cfi_def_cfa_offset 16
 1832 0134 BD46     		mov	sp, r7
 1833              		.cfi_def_cfa_register 13
 1834              		@ sp needed
 1835 0136 B0BD     		pop	{r4, r5, r7, pc}
 1836              	.L84:
 1837              		.align	2
 1838              	.L83:
 1839 0138 00000000 		.word	_g_pumps
 1840              		.cfi_endproc
 1841              	.LFE70:
 1842              		.size	RequestWorkShiftOperAuthorization, .-RequestWorkShiftOperAuthorization
 1843              		.section	.rodata
 1844 0079 000000   		.align	2
 1845              	.LC2:
 1846 007c 454E5649 		.ascii	"ENVIANDO LA SOLICITUD DE AUTORIZACION,\000"
 1846      414E444F 
 1846      204C4120 
 1846      534F4C49 
 1846      43495455 
 1847 00a3 00       		.align	2
 1848              	.LC3:
 1849 00a4 20202020 		.ascii	"                                      \000"
 1849      20202020 
 1849      20202020 
 1849      20202020 
 1849      20202020 
 1850 00cb 00       		.align	2
 1851              	.LC4:
 1852 00cc 3C3C3C20 		.ascii	"<<<       POR FAVOR ESPERE ...     >>>\000"
 1852      20202020 
 1852      2020504F 
 1852      52204641 
 1852      564F5220 
 1853 00f3 00       		.align	2
 1854              	.LC15:
 1855 00f4 7C000000 		.word	.LC2
 1856 00f8 A4000000 		.word	.LC3
 1857 00fc CC000000 		.word	.LC4
 1858              		.section	.text.AuthorizationMessageDecorator,"ax",%progbits
 1859              		.align	2
 1860              		.global	AuthorizationMessageDecorator
 1861              		.thumb
 1862              		.thumb_func
 1863              		.type	AuthorizationMessageDecorator, %function
 1864              	AuthorizationMessageDecorator:
 1865              	.LFB71:
ARM GAS  C:\Users\RECEPC~1\AppData\Local\Temp\ccvg7Xyk.s 			page 43


 492:.\DisplayBLL.c **** 
 493:.\DisplayBLL.c **** void AuthorizationMessageDecorator(LPVOID pparam)
 494:.\DisplayBLL.c **** {
 1866              		.loc 1 494 0
 1867              		.cfi_startproc
 1868              		@ args = 0, pretend = 0, frame = 48
 1869              		@ frame_needed = 1, uses_anonymous_args = 0
 1870 0000 F0B5     		push	{r4, r5, r6, r7, lr}
 1871              		.cfi_def_cfa_offset 20
 1872              		.cfi_offset 4, -20
 1873              		.cfi_offset 5, -16
 1874              		.cfi_offset 6, -12
 1875              		.cfi_offset 7, -8
 1876              		.cfi_offset 14, -4
 1877 0002 91B0     		sub	sp, sp, #68
 1878              		.cfi_def_cfa_offset 88
 1879 0004 04AF     		add	r7, sp, #16
 1880              		.cfi_def_cfa 7, 72
 1881 0006 7860     		str	r0, [r7, #4]
 495:.\DisplayBLL.c ****     FontData fontdata;
 496:.\DisplayBLL.c ****     fontdata._size = 0x03;
 1882              		.loc 1 496 0
 1883 0008 0323     		movs	r3, #3
 1884 000a 3B75     		strb	r3, [r7, #20]
 497:.\DisplayBLL.c ****     fontdata._backcolor = 0xFFFF;
 1885              		.loc 1 497 0
 1886 000c 4FF6FF73 		movw	r3, #65535
 1887 0010 3B83     		strh	r3, [r7, #24]	@ movhi
 498:.\DisplayBLL.c ****     fontdata._forecolor = 0x0000;
 1888              		.loc 1 498 0
 1889 0012 0023     		movs	r3, #0
 1890 0014 7B83     		strh	r3, [r7, #26]	@ movhi
 499:.\DisplayBLL.c ****     fontdata._opaquebackground = DISP_TEXT_OPAQUE;
 1891              		.loc 1 499 0
 1892 0016 C523     		movs	r3, #197
 1893 0018 BB75     		strb	r3, [r7, #22]
 500:.\DisplayBLL.c ****     //MOVE ALL OF THESE TEXTS TO THE EEPROM
 501:.\DisplayBLL.c ****     char8 *pmessage[] = 
 1894              		.loc 1 501 0
 1895 001a 6B4A     		ldr	r2, .L89
 1896 001c 07F10803 		add	r3, r7, #8
 1897 0020 07CA     		ldmia	r2, {r0, r1, r2}
 1898 0022 83E80700 		stmia	r3, {r0, r1, r2}
 502:.\DisplayBLL.c ****     {
 503:.\DisplayBLL.c ****         "ENVIANDO LA SOLICITUD DE AUTORIZACION,",
 504:.\DisplayBLL.c ****         "                                      ",
 505:.\DisplayBLL.c ****         "<<<       POR FAVOR ESPERE ...     >>>",
 506:.\DisplayBLL.c ****     };
 507:.\DisplayBLL.c ****     DisplayLayout *pdisplay = (DisplayLayout*)pparam;
 1899              		.loc 1 507 0
 1900 0026 7B68     		ldr	r3, [r7, #4]
 1901 0028 FB62     		str	r3, [r7, #44]
 508:.\DisplayBLL.c ****     if(pdisplay->_dispid == DISPLAY1)
 1902              		.loc 1 508 0
 1903 002a FB6A     		ldr	r3, [r7, #44]
 1904 002c 1B78     		ldrb	r3, [r3]	@ zero_extendqisi2
 1905 002e 002B     		cmp	r3, #0
ARM GAS  C:\Users\RECEPC~1\AppData\Local\Temp\ccvg7Xyk.s 			page 44


 1906 0030 40F0CC80 		bne	.L86
 1907              	.LBB26:
 509:.\DisplayBLL.c ****     {
 510:.\DisplayBLL.c ****         UARTMessage *puartdisp = GetUARTMessageSlot(UART_DISPLAY1);
 1908              		.loc 1 510 0
 1909 0034 A320     		movs	r0, #163
 1910 0036 FFF7FEFF 		bl	GetUARTMessageSlot
 1911 003a B862     		str	r0, [r7, #40]
 511:.\DisplayBLL.c ****         if(puartdisp)
 1912              		.loc 1 511 0
 1913 003c BB6A     		ldr	r3, [r7, #40]
 1914 003e 002B     		cmp	r3, #0
 1915 0040 00F0C080 		beq	.L87
 1916              	.LBB27:
 512:.\DisplayBLL.c ****         {
 513:.\DisplayBLL.c ****             uint8 index = 0;
 1917              		.loc 1 513 0
 1918 0044 0023     		movs	r3, #0
 1919 0046 87F82730 		strb	r3, [r7, #39]
 514:.\DisplayBLL.c ****             uint16 ypos = 0x00BA;
 1920              		.loc 1 514 0
 1921 004a BA23     		movs	r3, #186
 1922 004c BB84     		strh	r3, [r7, #36]	@ movhi
 515:.\DisplayBLL.c ****             puartdisp->_messagelength = 0;
 1923              		.loc 1 515 0
 1924 004e BB6A     		ldr	r3, [r7, #40]
 1925 0050 0022     		movs	r2, #0
 1926 0052 5A80     		strh	r2, [r3, #2]	@ movhi
 516:.\DisplayBLL.c ****             puartdisp->_messagelength += DisplayOutputString(0x001A, ypos, &puartdisp->_messagetx[p
 1927              		.loc 1 516 0
 1928 0054 BB6A     		ldr	r3, [r7, #40]
 1929 0056 5B88     		ldrh	r3, [r3, #2]	@ movhi
 1930 0058 9BB2     		uxth	r3, r3
 1931 005a 1A46     		mov	r2, r3
 1932 005c BB6A     		ldr	r3, [r7, #40]
 1933 005e 1344     		add	r3, r3, r2
 1934 0060 1D1D     		adds	r5, r3, #4
 1935 0062 97F82730 		ldrb	r3, [r7, #39]	@ zero_extendqisi2
 1936 0066 9B00     		lsls	r3, r3, #2
 1937 0068 07F13002 		add	r2, r7, #48
 1938 006c 1344     		add	r3, r3, r2
 1939 006e 53F8284C 		ldr	r4, [r3, #-40]
 1940 0072 97F82730 		ldrb	r3, [r7, #39]	@ zero_extendqisi2
 1941 0076 9B00     		lsls	r3, r3, #2
 1942 0078 07F13002 		add	r2, r7, #48
 1943 007c 1344     		add	r3, r3, r2
 1944 007e 53F8283C 		ldr	r3, [r3, #-40]
 1945 0082 1846     		mov	r0, r3
 1946 0084 FFF7FEFF 		bl	strlen
 1947 0088 0346     		mov	r3, r0
 1948 008a 9BB2     		uxth	r3, r3
 1949 008c BE8C     		ldrh	r6, [r7, #36]
 1950 008e 0093     		str	r3, [sp]
 1951 0090 01AA     		add	r2, sp, #4
 1952 0092 07F11403 		add	r3, r7, #20
 1953 0096 93E80300 		ldmia	r3, {r0, r1}
 1954 009a 82E80300 		stmia	r2, {r0, r1}
ARM GAS  C:\Users\RECEPC~1\AppData\Local\Temp\ccvg7Xyk.s 			page 45


 1955 009e 1A20     		movs	r0, #26
 1956 00a0 3146     		mov	r1, r6
 1957 00a2 2A46     		mov	r2, r5
 1958 00a4 2346     		mov	r3, r4
 1959 00a6 FFF7FEFF 		bl	DisplayOutputString
 1960 00aa 0346     		mov	r3, r0
 1961 00ac 1A46     		mov	r2, r3
 1962 00ae BB6A     		ldr	r3, [r7, #40]
 1963 00b0 5B88     		ldrh	r3, [r3, #2]	@ movhi
 1964 00b2 9BB2     		uxth	r3, r3
 1965 00b4 1344     		add	r3, r3, r2
 1966 00b6 9AB2     		uxth	r2, r3
 1967 00b8 BB6A     		ldr	r3, [r7, #40]
 1968 00ba 5A80     		strh	r2, [r3, #2]	@ movhi
 517:.\DisplayBLL.c ****             ypos += 0x0020;index++;
 1969              		.loc 1 517 0
 1970 00bc BB8C     		ldrh	r3, [r7, #36]	@ movhi
 1971 00be 2033     		adds	r3, r3, #32
 1972 00c0 BB84     		strh	r3, [r7, #36]	@ movhi
 1973 00c2 97F82730 		ldrb	r3, [r7, #39]	@ zero_extendqisi2
 1974 00c6 0133     		adds	r3, r3, #1
 1975 00c8 87F82730 		strb	r3, [r7, #39]
 518:.\DisplayBLL.c ****             puartdisp->_messagelength += DisplayOutputString(0x001A, ypos, &puartdisp->_messagetx[p
 1976              		.loc 1 518 0
 1977 00cc BB6A     		ldr	r3, [r7, #40]
 1978 00ce 5B88     		ldrh	r3, [r3, #2]	@ movhi
 1979 00d0 9BB2     		uxth	r3, r3
 1980 00d2 1A46     		mov	r2, r3
 1981 00d4 BB6A     		ldr	r3, [r7, #40]
 1982 00d6 1344     		add	r3, r3, r2
 1983 00d8 1D1D     		adds	r5, r3, #4
 1984 00da 97F82730 		ldrb	r3, [r7, #39]	@ zero_extendqisi2
 1985 00de 9B00     		lsls	r3, r3, #2
 1986 00e0 07F13002 		add	r2, r7, #48
 1987 00e4 1344     		add	r3, r3, r2
 1988 00e6 53F8284C 		ldr	r4, [r3, #-40]
 1989 00ea 97F82730 		ldrb	r3, [r7, #39]	@ zero_extendqisi2
 1990 00ee 9B00     		lsls	r3, r3, #2
 1991 00f0 07F13002 		add	r2, r7, #48
 1992 00f4 1344     		add	r3, r3, r2
 1993 00f6 53F8283C 		ldr	r3, [r3, #-40]
 1994 00fa 1846     		mov	r0, r3
 1995 00fc FFF7FEFF 		bl	strlen
 1996 0100 0346     		mov	r3, r0
 1997 0102 9BB2     		uxth	r3, r3
 1998 0104 BE8C     		ldrh	r6, [r7, #36]
 1999 0106 0093     		str	r3, [sp]
 2000 0108 01AA     		add	r2, sp, #4
 2001 010a 07F11403 		add	r3, r7, #20
 2002 010e 93E80300 		ldmia	r3, {r0, r1}
 2003 0112 82E80300 		stmia	r2, {r0, r1}
 2004 0116 1A20     		movs	r0, #26
 2005 0118 3146     		mov	r1, r6
 2006 011a 2A46     		mov	r2, r5
 2007 011c 2346     		mov	r3, r4
 2008 011e FFF7FEFF 		bl	DisplayOutputString
 2009 0122 0346     		mov	r3, r0
ARM GAS  C:\Users\RECEPC~1\AppData\Local\Temp\ccvg7Xyk.s 			page 46


 2010 0124 1A46     		mov	r2, r3
 2011 0126 BB6A     		ldr	r3, [r7, #40]
 2012 0128 5B88     		ldrh	r3, [r3, #2]	@ movhi
 2013 012a 9BB2     		uxth	r3, r3
 2014 012c 1344     		add	r3, r3, r2
 2015 012e 9AB2     		uxth	r2, r3
 2016 0130 BB6A     		ldr	r3, [r7, #40]
 2017 0132 5A80     		strh	r2, [r3, #2]	@ movhi
 519:.\DisplayBLL.c ****             ypos += 0x0020;index++;
 2018              		.loc 1 519 0
 2019 0134 BB8C     		ldrh	r3, [r7, #36]	@ movhi
 2020 0136 2033     		adds	r3, r3, #32
 2021 0138 BB84     		strh	r3, [r7, #36]	@ movhi
 2022 013a 97F82730 		ldrb	r3, [r7, #39]	@ zero_extendqisi2
 2023 013e 0133     		adds	r3, r3, #1
 2024 0140 87F82730 		strb	r3, [r7, #39]
 520:.\DisplayBLL.c ****             puartdisp->_messagelength += DisplayOutputString(0x001A, ypos, &puartdisp->_messagetx[p
 2025              		.loc 1 520 0
 2026 0144 BB6A     		ldr	r3, [r7, #40]
 2027 0146 5B88     		ldrh	r3, [r3, #2]	@ movhi
 2028 0148 9BB2     		uxth	r3, r3
 2029 014a 1A46     		mov	r2, r3
 2030 014c BB6A     		ldr	r3, [r7, #40]
 2031 014e 1344     		add	r3, r3, r2
 2032 0150 1D1D     		adds	r5, r3, #4
 2033 0152 97F82730 		ldrb	r3, [r7, #39]	@ zero_extendqisi2
 2034 0156 9B00     		lsls	r3, r3, #2
 2035 0158 07F13002 		add	r2, r7, #48
 2036 015c 1344     		add	r3, r3, r2
 2037 015e 53F8284C 		ldr	r4, [r3, #-40]
 2038 0162 97F82730 		ldrb	r3, [r7, #39]	@ zero_extendqisi2
 2039 0166 9B00     		lsls	r3, r3, #2
 2040 0168 07F13002 		add	r2, r7, #48
 2041 016c 1344     		add	r3, r3, r2
 2042 016e 53F8283C 		ldr	r3, [r3, #-40]
 2043 0172 1846     		mov	r0, r3
 2044 0174 FFF7FEFF 		bl	strlen
 2045 0178 0346     		mov	r3, r0
 2046 017a 9BB2     		uxth	r3, r3
 2047 017c BE8C     		ldrh	r6, [r7, #36]
 2048 017e 0093     		str	r3, [sp]
 2049 0180 01AA     		add	r2, sp, #4
 2050 0182 07F11403 		add	r3, r7, #20
 2051 0186 93E80300 		ldmia	r3, {r0, r1}
 2052 018a 82E80300 		stmia	r2, {r0, r1}
 2053 018e 1A20     		movs	r0, #26
 2054 0190 3146     		mov	r1, r6
 2055 0192 2A46     		mov	r2, r5
 2056 0194 2346     		mov	r3, r4
 2057 0196 FFF7FEFF 		bl	DisplayOutputString
 2058 019a 0346     		mov	r3, r0
 2059 019c 1A46     		mov	r2, r3
 2060 019e BB6A     		ldr	r3, [r7, #40]
 2061 01a0 5B88     		ldrh	r3, [r3, #2]	@ movhi
 2062 01a2 9BB2     		uxth	r3, r3
 2063 01a4 1344     		add	r3, r3, r2
 2064 01a6 9AB2     		uxth	r2, r3
ARM GAS  C:\Users\RECEPC~1\AppData\Local\Temp\ccvg7Xyk.s 			page 47


 2065 01a8 BB6A     		ldr	r3, [r7, #40]
 2066 01aa 5A80     		strh	r2, [r3, #2]	@ movhi
 521:.\DisplayBLL.c ****             ypos += 0x0020;index++;
 2067              		.loc 1 521 0
 2068 01ac BB8C     		ldrh	r3, [r7, #36]	@ movhi
 2069 01ae 2033     		adds	r3, r3, #32
 2070 01b0 BB84     		strh	r3, [r7, #36]	@ movhi
 2071 01b2 97F82730 		ldrb	r3, [r7, #39]	@ zero_extendqisi2
 2072 01b6 0133     		adds	r3, r3, #1
 2073 01b8 87F82730 		strb	r3, [r7, #39]
 522:.\DisplayBLL.c **** 
 523:.\DisplayBLL.c ****             puartdisp->_messagestate = PENDING;
 2074              		.loc 1 523 0
 2075 01bc BB6A     		ldr	r3, [r7, #40]
 2076 01be C222     		movs	r2, #194
 2077 01c0 1A70     		strb	r2, [r3]
 2078              	.LBE27:
 2079              	.LBE26:
 2080 01c2 BDE0     		b	.L85
 2081              	.L87:
 2082 01c4 BCE0     		b	.L85
 2083              	.L90:
 2084 01c6 00BF     		.align	2
 2085              	.L89:
 2086 01c8 F4000000 		.word	.LC15
 2087              	.L86:
 2088              	.LBB28:
 524:.\DisplayBLL.c ****         }
 525:.\DisplayBLL.c ****     }
 526:.\DisplayBLL.c ****     else
 527:.\DisplayBLL.c ****     {
 528:.\DisplayBLL.c ****         UARTMessage *puartdisp = GetUARTMessageSlot(UART_DISPLAY2);
 2089              		.loc 1 528 0
 2090 01cc A420     		movs	r0, #164
 2091 01ce FFF7FEFF 		bl	GetUARTMessageSlot
 2092 01d2 3862     		str	r0, [r7, #32]
 529:.\DisplayBLL.c ****         if(puartdisp)
 2093              		.loc 1 529 0
 2094 01d4 3B6A     		ldr	r3, [r7, #32]
 2095 01d6 002B     		cmp	r3, #0
 2096 01d8 00F0B280 		beq	.L85
 2097              	.LBB29:
 530:.\DisplayBLL.c ****         {
 531:.\DisplayBLL.c ****             uint8 index = 0;
 2098              		.loc 1 531 0
 2099 01dc 0023     		movs	r3, #0
 2100 01de FB77     		strb	r3, [r7, #31]
 532:.\DisplayBLL.c ****             uint16 ypos = 0x00BA;
 2101              		.loc 1 532 0
 2102 01e0 BA23     		movs	r3, #186
 2103 01e2 BB83     		strh	r3, [r7, #28]	@ movhi
 533:.\DisplayBLL.c ****             puartdisp->_messagelength = 0;
 2104              		.loc 1 533 0
 2105 01e4 3B6A     		ldr	r3, [r7, #32]
 2106 01e6 0022     		movs	r2, #0
 2107 01e8 5A80     		strh	r2, [r3, #2]	@ movhi
 534:.\DisplayBLL.c ****             puartdisp->_messagelength += DisplayOutputString(0x001A, ypos, &puartdisp->_messagetx[p
ARM GAS  C:\Users\RECEPC~1\AppData\Local\Temp\ccvg7Xyk.s 			page 48


 2108              		.loc 1 534 0
 2109 01ea 3B6A     		ldr	r3, [r7, #32]
 2110 01ec 5B88     		ldrh	r3, [r3, #2]	@ movhi
 2111 01ee 9BB2     		uxth	r3, r3
 2112 01f0 1A46     		mov	r2, r3
 2113 01f2 3B6A     		ldr	r3, [r7, #32]
 2114 01f4 1344     		add	r3, r3, r2
 2115 01f6 1D1D     		adds	r5, r3, #4
 2116 01f8 FB7F     		ldrb	r3, [r7, #31]	@ zero_extendqisi2
 2117 01fa 9B00     		lsls	r3, r3, #2
 2118 01fc 07F13002 		add	r2, r7, #48
 2119 0200 1344     		add	r3, r3, r2
 2120 0202 53F8284C 		ldr	r4, [r3, #-40]
 2121 0206 FB7F     		ldrb	r3, [r7, #31]	@ zero_extendqisi2
 2122 0208 9B00     		lsls	r3, r3, #2
 2123 020a 07F13002 		add	r2, r7, #48
 2124 020e 1344     		add	r3, r3, r2
 2125 0210 53F8283C 		ldr	r3, [r3, #-40]
 2126 0214 1846     		mov	r0, r3
 2127 0216 FFF7FEFF 		bl	strlen
 2128 021a 0346     		mov	r3, r0
 2129 021c 9BB2     		uxth	r3, r3
 2130 021e BE8B     		ldrh	r6, [r7, #28]
 2131 0220 0093     		str	r3, [sp]
 2132 0222 01AA     		add	r2, sp, #4
 2133 0224 07F11403 		add	r3, r7, #20
 2134 0228 93E80300 		ldmia	r3, {r0, r1}
 2135 022c 82E80300 		stmia	r2, {r0, r1}
 2136 0230 1A20     		movs	r0, #26
 2137 0232 3146     		mov	r1, r6
 2138 0234 2A46     		mov	r2, r5
 2139 0236 2346     		mov	r3, r4
 2140 0238 FFF7FEFF 		bl	DisplayOutputString
 2141 023c 0346     		mov	r3, r0
 2142 023e 1A46     		mov	r2, r3
 2143 0240 3B6A     		ldr	r3, [r7, #32]
 2144 0242 5B88     		ldrh	r3, [r3, #2]	@ movhi
 2145 0244 9BB2     		uxth	r3, r3
 2146 0246 1344     		add	r3, r3, r2
 2147 0248 9AB2     		uxth	r2, r3
 2148 024a 3B6A     		ldr	r3, [r7, #32]
 2149 024c 5A80     		strh	r2, [r3, #2]	@ movhi
 535:.\DisplayBLL.c ****             ypos += 0x0020;index++;
 2150              		.loc 1 535 0
 2151 024e BB8B     		ldrh	r3, [r7, #28]	@ movhi
 2152 0250 2033     		adds	r3, r3, #32
 2153 0252 BB83     		strh	r3, [r7, #28]	@ movhi
 2154 0254 FB7F     		ldrb	r3, [r7, #31]	@ zero_extendqisi2
 2155 0256 0133     		adds	r3, r3, #1
 2156 0258 FB77     		strb	r3, [r7, #31]
 536:.\DisplayBLL.c ****             puartdisp->_messagelength += DisplayOutputString(0x001A, ypos, &puartdisp->_messagetx[p
 2157              		.loc 1 536 0
 2158 025a 3B6A     		ldr	r3, [r7, #32]
 2159 025c 5B88     		ldrh	r3, [r3, #2]	@ movhi
 2160 025e 9BB2     		uxth	r3, r3
 2161 0260 1A46     		mov	r2, r3
 2162 0262 3B6A     		ldr	r3, [r7, #32]
ARM GAS  C:\Users\RECEPC~1\AppData\Local\Temp\ccvg7Xyk.s 			page 49


 2163 0264 1344     		add	r3, r3, r2
 2164 0266 1D1D     		adds	r5, r3, #4
 2165 0268 FB7F     		ldrb	r3, [r7, #31]	@ zero_extendqisi2
 2166 026a 9B00     		lsls	r3, r3, #2
 2167 026c 07F13002 		add	r2, r7, #48
 2168 0270 1344     		add	r3, r3, r2
 2169 0272 53F8284C 		ldr	r4, [r3, #-40]
 2170 0276 FB7F     		ldrb	r3, [r7, #31]	@ zero_extendqisi2
 2171 0278 9B00     		lsls	r3, r3, #2
 2172 027a 07F13002 		add	r2, r7, #48
 2173 027e 1344     		add	r3, r3, r2
 2174 0280 53F8283C 		ldr	r3, [r3, #-40]
 2175 0284 1846     		mov	r0, r3
 2176 0286 FFF7FEFF 		bl	strlen
 2177 028a 0346     		mov	r3, r0
 2178 028c 9BB2     		uxth	r3, r3
 2179 028e BE8B     		ldrh	r6, [r7, #28]
 2180 0290 0093     		str	r3, [sp]
 2181 0292 01AA     		add	r2, sp, #4
 2182 0294 07F11403 		add	r3, r7, #20
 2183 0298 93E80300 		ldmia	r3, {r0, r1}
 2184 029c 82E80300 		stmia	r2, {r0, r1}
 2185 02a0 1A20     		movs	r0, #26
 2186 02a2 3146     		mov	r1, r6
 2187 02a4 2A46     		mov	r2, r5
 2188 02a6 2346     		mov	r3, r4
 2189 02a8 FFF7FEFF 		bl	DisplayOutputString
 2190 02ac 0346     		mov	r3, r0
 2191 02ae 1A46     		mov	r2, r3
 2192 02b0 3B6A     		ldr	r3, [r7, #32]
 2193 02b2 5B88     		ldrh	r3, [r3, #2]	@ movhi
 2194 02b4 9BB2     		uxth	r3, r3
 2195 02b6 1344     		add	r3, r3, r2
 2196 02b8 9AB2     		uxth	r2, r3
 2197 02ba 3B6A     		ldr	r3, [r7, #32]
 2198 02bc 5A80     		strh	r2, [r3, #2]	@ movhi
 537:.\DisplayBLL.c ****             ypos += 0x0020;index++;
 2199              		.loc 1 537 0
 2200 02be BB8B     		ldrh	r3, [r7, #28]	@ movhi
 2201 02c0 2033     		adds	r3, r3, #32
 2202 02c2 BB83     		strh	r3, [r7, #28]	@ movhi
 2203 02c4 FB7F     		ldrb	r3, [r7, #31]	@ zero_extendqisi2
 2204 02c6 0133     		adds	r3, r3, #1
 2205 02c8 FB77     		strb	r3, [r7, #31]
 538:.\DisplayBLL.c ****             puartdisp->_messagelength += DisplayOutputString(0x001A, ypos, &puartdisp->_messagetx[p
 2206              		.loc 1 538 0
 2207 02ca 3B6A     		ldr	r3, [r7, #32]
 2208 02cc 5B88     		ldrh	r3, [r3, #2]	@ movhi
 2209 02ce 9BB2     		uxth	r3, r3
 2210 02d0 1A46     		mov	r2, r3
 2211 02d2 3B6A     		ldr	r3, [r7, #32]
 2212 02d4 1344     		add	r3, r3, r2
 2213 02d6 1D1D     		adds	r5, r3, #4
 2214 02d8 FB7F     		ldrb	r3, [r7, #31]	@ zero_extendqisi2
 2215 02da 9B00     		lsls	r3, r3, #2
 2216 02dc 07F13002 		add	r2, r7, #48
 2217 02e0 1344     		add	r3, r3, r2
ARM GAS  C:\Users\RECEPC~1\AppData\Local\Temp\ccvg7Xyk.s 			page 50


 2218 02e2 53F8284C 		ldr	r4, [r3, #-40]
 2219 02e6 FB7F     		ldrb	r3, [r7, #31]	@ zero_extendqisi2
 2220 02e8 9B00     		lsls	r3, r3, #2
 2221 02ea 07F13002 		add	r2, r7, #48
 2222 02ee 1344     		add	r3, r3, r2
 2223 02f0 53F8283C 		ldr	r3, [r3, #-40]
 2224 02f4 1846     		mov	r0, r3
 2225 02f6 FFF7FEFF 		bl	strlen
 2226 02fa 0346     		mov	r3, r0
 2227 02fc 9BB2     		uxth	r3, r3
 2228 02fe BE8B     		ldrh	r6, [r7, #28]
 2229 0300 0093     		str	r3, [sp]
 2230 0302 01AA     		add	r2, sp, #4
 2231 0304 07F11403 		add	r3, r7, #20
 2232 0308 93E80300 		ldmia	r3, {r0, r1}
 2233 030c 82E80300 		stmia	r2, {r0, r1}
 2234 0310 1A20     		movs	r0, #26
 2235 0312 3146     		mov	r1, r6
 2236 0314 2A46     		mov	r2, r5
 2237 0316 2346     		mov	r3, r4
 2238 0318 FFF7FEFF 		bl	DisplayOutputString
 2239 031c 0346     		mov	r3, r0
 2240 031e 1A46     		mov	r2, r3
 2241 0320 3B6A     		ldr	r3, [r7, #32]
 2242 0322 5B88     		ldrh	r3, [r3, #2]	@ movhi
 2243 0324 9BB2     		uxth	r3, r3
 2244 0326 1344     		add	r3, r3, r2
 2245 0328 9AB2     		uxth	r2, r3
 2246 032a 3B6A     		ldr	r3, [r7, #32]
 2247 032c 5A80     		strh	r2, [r3, #2]	@ movhi
 539:.\DisplayBLL.c ****             ypos += 0x0020;index++;
 2248              		.loc 1 539 0
 2249 032e BB8B     		ldrh	r3, [r7, #28]	@ movhi
 2250 0330 2033     		adds	r3, r3, #32
 2251 0332 BB83     		strh	r3, [r7, #28]	@ movhi
 2252 0334 FB7F     		ldrb	r3, [r7, #31]	@ zero_extendqisi2
 2253 0336 0133     		adds	r3, r3, #1
 2254 0338 FB77     		strb	r3, [r7, #31]
 540:.\DisplayBLL.c ****             
 541:.\DisplayBLL.c ****             puartdisp->_messagestate = PENDING;
 2255              		.loc 1 541 0
 2256 033a 3B6A     		ldr	r3, [r7, #32]
 2257 033c C222     		movs	r2, #194
 2258 033e 1A70     		strb	r2, [r3]
 2259              	.L85:
 2260              	.LBE29:
 2261              	.LBE28:
 542:.\DisplayBLL.c ****         }
 543:.\DisplayBLL.c ****     }
 544:.\DisplayBLL.c **** }
 2262              		.loc 1 544 0
 2263 0340 3437     		adds	r7, r7, #52
 2264              		.cfi_def_cfa_offset 20
 2265 0342 BD46     		mov	sp, r7
 2266              		.cfi_def_cfa_register 13
 2267              		@ sp needed
 2268 0344 F0BD     		pop	{r4, r5, r6, r7, pc}
ARM GAS  C:\Users\RECEPC~1\AppData\Local\Temp\ccvg7Xyk.s 			page 51


 2269              		.cfi_endproc
 2270              	.LFE71:
 2271              		.size	AuthorizationMessageDecorator, .-AuthorizationMessageDecorator
 2272 0346 00BF     		.section	.rodata
 2273              		.align	2
 2274              	.LC16:
 2275 0100 20205045 		.ascii	"  PETICION DE AUTORIZACION ACEPTADA!  \000"
 2275      54494349 
 2275      4F4E2044 
 2275      45204155 
 2275      544F5249 
 2276              		.section	.text.AcceptedAuthorizationMessageDecorator,"ax",%progbits
 2277              		.align	2
 2278              		.global	AcceptedAuthorizationMessageDecorator
 2279              		.thumb
 2280              		.thumb_func
 2281              		.type	AcceptedAuthorizationMessageDecorator, %function
 2282              	AcceptedAuthorizationMessageDecorator:
 2283              	.LFB72:
 545:.\DisplayBLL.c **** 
 546:.\DisplayBLL.c **** void AcceptedAuthorizationMessageDecorator(LPVOID pparam)
 547:.\DisplayBLL.c **** {
 2284              		.loc 1 547 0
 2285              		.cfi_startproc
 2286              		@ args = 0, pretend = 0, frame = 40
 2287              		@ frame_needed = 1, uses_anonymous_args = 0
 2288 0000 F0B5     		push	{r4, r5, r6, r7, lr}
 2289              		.cfi_def_cfa_offset 20
 2290              		.cfi_offset 4, -20
 2291              		.cfi_offset 5, -16
 2292              		.cfi_offset 6, -12
 2293              		.cfi_offset 7, -8
 2294              		.cfi_offset 14, -4
 2295 0002 8FB0     		sub	sp, sp, #60
 2296              		.cfi_def_cfa_offset 80
 2297 0004 04AF     		add	r7, sp, #16
 2298              		.cfi_def_cfa 7, 64
 2299 0006 7860     		str	r0, [r7, #4]
 548:.\DisplayBLL.c ****     FontData fontdata;
 549:.\DisplayBLL.c ****     fontdata._size = 0x03;
 2300              		.loc 1 549 0
 2301 0008 0323     		movs	r3, #3
 2302 000a 3B73     		strb	r3, [r7, #12]
 550:.\DisplayBLL.c ****     fontdata._backcolor = 0xFFFF;
 2303              		.loc 1 550 0
 2304 000c 4FF6FF73 		movw	r3, #65535
 2305 0010 3B82     		strh	r3, [r7, #16]	@ movhi
 551:.\DisplayBLL.c ****     fontdata._forecolor = 0x0000;
 2306              		.loc 1 551 0
 2307 0012 0023     		movs	r3, #0
 2308 0014 7B82     		strh	r3, [r7, #18]	@ movhi
 552:.\DisplayBLL.c ****     fontdata._opaquebackground = DISP_TEXT_OPAQUE;
 2309              		.loc 1 552 0
 2310 0016 C523     		movs	r3, #197
 2311 0018 BB73     		strb	r3, [r7, #14]
 553:.\DisplayBLL.c ****     //MOVE ALL OF THESE TEXTS TO THE EEPROM
 554:.\DisplayBLL.c ****     char8 *pmessage[] = 
ARM GAS  C:\Users\RECEPC~1\AppData\Local\Temp\ccvg7Xyk.s 			page 52


 2312              		.loc 1 554 0
 2313 001a 4F4B     		ldr	r3, .L95
 2314 001c BB60     		str	r3, [r7, #8]
 555:.\DisplayBLL.c ****     {
 556:.\DisplayBLL.c ****         "  PETICION DE AUTORIZACION ACEPTADA!  ",
 557:.\DisplayBLL.c ****     };
 558:.\DisplayBLL.c ****     DisplayLayout *pdisplay = (DisplayLayout*)pparam;
 2315              		.loc 1 558 0
 2316 001e 7B68     		ldr	r3, [r7, #4]
 2317 0020 7B62     		str	r3, [r7, #36]
 559:.\DisplayBLL.c ****     if(pdisplay->_dispid == DISPLAY1)
 2318              		.loc 1 559 0
 2319 0022 7B6A     		ldr	r3, [r7, #36]
 2320 0024 1B78     		ldrb	r3, [r3]	@ zero_extendqisi2
 2321 0026 002B     		cmp	r3, #0
 2322 0028 4AD1     		bne	.L92
 2323              	.LBB30:
 560:.\DisplayBLL.c ****     {
 561:.\DisplayBLL.c ****         UARTMessage *puartdisp = GetUARTMessageSlot(UART_DISPLAY1);
 2324              		.loc 1 561 0
 2325 002a A320     		movs	r0, #163
 2326 002c FFF7FEFF 		bl	GetUARTMessageSlot
 2327 0030 3862     		str	r0, [r7, #32]
 562:.\DisplayBLL.c ****         if(puartdisp)
 2328              		.loc 1 562 0
 2329 0032 3B6A     		ldr	r3, [r7, #32]
 2330 0034 002B     		cmp	r3, #0
 2331 0036 42D0     		beq	.L93
 2332              	.LBB31:
 563:.\DisplayBLL.c ****         {
 564:.\DisplayBLL.c ****             uint8 index = 0;
 2333              		.loc 1 564 0
 2334 0038 0023     		movs	r3, #0
 2335 003a FB77     		strb	r3, [r7, #31]
 565:.\DisplayBLL.c ****             uint16 ypos = 0x00BA;
 2336              		.loc 1 565 0
 2337 003c BA23     		movs	r3, #186
 2338 003e BB83     		strh	r3, [r7, #28]	@ movhi
 566:.\DisplayBLL.c ****             puartdisp->_messagelength = 0;
 2339              		.loc 1 566 0
 2340 0040 3B6A     		ldr	r3, [r7, #32]
 2341 0042 0022     		movs	r2, #0
 2342 0044 5A80     		strh	r2, [r3, #2]	@ movhi
 567:.\DisplayBLL.c ****             puartdisp->_messagelength += DisplayOutputString(0x001A, ypos, &puartdisp->_messagetx[p
 2343              		.loc 1 567 0
 2344 0046 3B6A     		ldr	r3, [r7, #32]
 2345 0048 5B88     		ldrh	r3, [r3, #2]	@ movhi
 2346 004a 9BB2     		uxth	r3, r3
 2347 004c 1A46     		mov	r2, r3
 2348 004e 3B6A     		ldr	r3, [r7, #32]
 2349 0050 1344     		add	r3, r3, r2
 2350 0052 1D1D     		adds	r5, r3, #4
 2351 0054 FB7F     		ldrb	r3, [r7, #31]	@ zero_extendqisi2
 2352 0056 9B00     		lsls	r3, r3, #2
 2353 0058 07F12802 		add	r2, r7, #40
 2354 005c 1344     		add	r3, r3, r2
 2355 005e 53F8204C 		ldr	r4, [r3, #-32]
ARM GAS  C:\Users\RECEPC~1\AppData\Local\Temp\ccvg7Xyk.s 			page 53


 2356 0062 FB7F     		ldrb	r3, [r7, #31]	@ zero_extendqisi2
 2357 0064 9B00     		lsls	r3, r3, #2
 2358 0066 07F12802 		add	r2, r7, #40
 2359 006a 1344     		add	r3, r3, r2
 2360 006c 53F8203C 		ldr	r3, [r3, #-32]
 2361 0070 1846     		mov	r0, r3
 2362 0072 FFF7FEFF 		bl	strlen
 2363 0076 0346     		mov	r3, r0
 2364 0078 9BB2     		uxth	r3, r3
 2365 007a BE8B     		ldrh	r6, [r7, #28]
 2366 007c 0093     		str	r3, [sp]
 2367 007e 01AA     		add	r2, sp, #4
 2368 0080 07F10C03 		add	r3, r7, #12
 2369 0084 93E80300 		ldmia	r3, {r0, r1}
 2370 0088 82E80300 		stmia	r2, {r0, r1}
 2371 008c 1A20     		movs	r0, #26
 2372 008e 3146     		mov	r1, r6
 2373 0090 2A46     		mov	r2, r5
 2374 0092 2346     		mov	r3, r4
 2375 0094 FFF7FEFF 		bl	DisplayOutputString
 2376 0098 0346     		mov	r3, r0
 2377 009a 1A46     		mov	r2, r3
 2378 009c 3B6A     		ldr	r3, [r7, #32]
 2379 009e 5B88     		ldrh	r3, [r3, #2]	@ movhi
 2380 00a0 9BB2     		uxth	r3, r3
 2381 00a2 1344     		add	r3, r3, r2
 2382 00a4 9AB2     		uxth	r2, r3
 2383 00a6 3B6A     		ldr	r3, [r7, #32]
 2384 00a8 5A80     		strh	r2, [r3, #2]	@ movhi
 568:.\DisplayBLL.c ****             ypos += 0x0020;index++;
 2385              		.loc 1 568 0
 2386 00aa BB8B     		ldrh	r3, [r7, #28]	@ movhi
 2387 00ac 2033     		adds	r3, r3, #32
 2388 00ae BB83     		strh	r3, [r7, #28]	@ movhi
 2389 00b0 FB7F     		ldrb	r3, [r7, #31]	@ zero_extendqisi2
 2390 00b2 0133     		adds	r3, r3, #1
 2391 00b4 FB77     		strb	r3, [r7, #31]
 569:.\DisplayBLL.c **** 
 570:.\DisplayBLL.c ****             puartdisp->_messagestate = PENDING;
 2392              		.loc 1 570 0
 2393 00b6 3B6A     		ldr	r3, [r7, #32]
 2394 00b8 C222     		movs	r2, #194
 2395 00ba 1A70     		strb	r2, [r3]
 2396              	.LBE31:
 2397              	.LBE30:
 2398 00bc 49E0     		b	.L91
 2399              	.L93:
 2400 00be 48E0     		b	.L91
 2401              	.L92:
 2402              	.LBB32:
 571:.\DisplayBLL.c ****         }
 572:.\DisplayBLL.c ****     }
 573:.\DisplayBLL.c ****     else
 574:.\DisplayBLL.c ****     {
 575:.\DisplayBLL.c ****         UARTMessage *puartdisp = GetUARTMessageSlot(UART_DISPLAY2);
 2403              		.loc 1 575 0
 2404 00c0 A420     		movs	r0, #164
ARM GAS  C:\Users\RECEPC~1\AppData\Local\Temp\ccvg7Xyk.s 			page 54


 2405 00c2 FFF7FEFF 		bl	GetUARTMessageSlot
 2406 00c6 B861     		str	r0, [r7, #24]
 576:.\DisplayBLL.c ****         if(puartdisp)
 2407              		.loc 1 576 0
 2408 00c8 BB69     		ldr	r3, [r7, #24]
 2409 00ca 002B     		cmp	r3, #0
 2410 00cc 41D0     		beq	.L91
 2411              	.LBB33:
 577:.\DisplayBLL.c ****         {
 578:.\DisplayBLL.c ****             uint8 index = 0;
 2412              		.loc 1 578 0
 2413 00ce 0023     		movs	r3, #0
 2414 00d0 FB75     		strb	r3, [r7, #23]
 579:.\DisplayBLL.c ****             uint16 ypos = 0x00BA;
 2415              		.loc 1 579 0
 2416 00d2 BA23     		movs	r3, #186
 2417 00d4 BB82     		strh	r3, [r7, #20]	@ movhi
 580:.\DisplayBLL.c ****             puartdisp->_messagelength = 0;
 2418              		.loc 1 580 0
 2419 00d6 BB69     		ldr	r3, [r7, #24]
 2420 00d8 0022     		movs	r2, #0
 2421 00da 5A80     		strh	r2, [r3, #2]	@ movhi
 581:.\DisplayBLL.c ****             puartdisp->_messagelength += DisplayOutputString(0x001A, ypos, &puartdisp->_messagetx[p
 2422              		.loc 1 581 0
 2423 00dc BB69     		ldr	r3, [r7, #24]
 2424 00de 5B88     		ldrh	r3, [r3, #2]	@ movhi
 2425 00e0 9BB2     		uxth	r3, r3
 2426 00e2 1A46     		mov	r2, r3
 2427 00e4 BB69     		ldr	r3, [r7, #24]
 2428 00e6 1344     		add	r3, r3, r2
 2429 00e8 1D1D     		adds	r5, r3, #4
 2430 00ea FB7D     		ldrb	r3, [r7, #23]	@ zero_extendqisi2
 2431 00ec 9B00     		lsls	r3, r3, #2
 2432 00ee 07F12802 		add	r2, r7, #40
 2433 00f2 1344     		add	r3, r3, r2
 2434 00f4 53F8204C 		ldr	r4, [r3, #-32]
 2435 00f8 FB7D     		ldrb	r3, [r7, #23]	@ zero_extendqisi2
 2436 00fa 9B00     		lsls	r3, r3, #2
 2437 00fc 07F12802 		add	r2, r7, #40
 2438 0100 1344     		add	r3, r3, r2
 2439 0102 53F8203C 		ldr	r3, [r3, #-32]
 2440 0106 1846     		mov	r0, r3
 2441 0108 FFF7FEFF 		bl	strlen
 2442 010c 0346     		mov	r3, r0
 2443 010e 9BB2     		uxth	r3, r3
 2444 0110 BE8A     		ldrh	r6, [r7, #20]
 2445 0112 0093     		str	r3, [sp]
 2446 0114 01AA     		add	r2, sp, #4
 2447 0116 07F10C03 		add	r3, r7, #12
 2448 011a 93E80300 		ldmia	r3, {r0, r1}
 2449 011e 82E80300 		stmia	r2, {r0, r1}
 2450 0122 1A20     		movs	r0, #26
 2451 0124 3146     		mov	r1, r6
 2452 0126 2A46     		mov	r2, r5
 2453 0128 2346     		mov	r3, r4
 2454 012a FFF7FEFF 		bl	DisplayOutputString
 2455 012e 0346     		mov	r3, r0
ARM GAS  C:\Users\RECEPC~1\AppData\Local\Temp\ccvg7Xyk.s 			page 55


 2456 0130 1A46     		mov	r2, r3
 2457 0132 BB69     		ldr	r3, [r7, #24]
 2458 0134 5B88     		ldrh	r3, [r3, #2]	@ movhi
 2459 0136 9BB2     		uxth	r3, r3
 2460 0138 1344     		add	r3, r3, r2
 2461 013a 9AB2     		uxth	r2, r3
 2462 013c BB69     		ldr	r3, [r7, #24]
 2463 013e 5A80     		strh	r2, [r3, #2]	@ movhi
 582:.\DisplayBLL.c ****             ypos += 0x0020;index++;
 2464              		.loc 1 582 0
 2465 0140 BB8A     		ldrh	r3, [r7, #20]	@ movhi
 2466 0142 2033     		adds	r3, r3, #32
 2467 0144 BB82     		strh	r3, [r7, #20]	@ movhi
 2468 0146 FB7D     		ldrb	r3, [r7, #23]	@ zero_extendqisi2
 2469 0148 0133     		adds	r3, r3, #1
 2470 014a FB75     		strb	r3, [r7, #23]
 583:.\DisplayBLL.c ****             
 584:.\DisplayBLL.c ****             puartdisp->_messagestate = PENDING;
 2471              		.loc 1 584 0
 2472 014c BB69     		ldr	r3, [r7, #24]
 2473 014e C222     		movs	r2, #194
 2474 0150 1A70     		strb	r2, [r3]
 2475              	.L91:
 2476              	.LBE33:
 2477              	.LBE32:
 585:.\DisplayBLL.c ****         }
 586:.\DisplayBLL.c ****     }
 587:.\DisplayBLL.c **** }
 2478              		.loc 1 587 0
 2479 0152 2C37     		adds	r7, r7, #44
 2480              		.cfi_def_cfa_offset 20
 2481 0154 BD46     		mov	sp, r7
 2482              		.cfi_def_cfa_register 13
 2483              		@ sp needed
 2484 0156 F0BD     		pop	{r4, r5, r6, r7, pc}
 2485              	.L96:
 2486              		.align	2
 2487              	.L95:
 2488 0158 00010000 		.word	.LC16
 2489              		.cfi_endproc
 2490              	.LFE72:
 2491              		.size	AcceptedAuthorizationMessageDecorator, .-AcceptedAuthorizationMessageDecorator
 2492              		.section	.text.ProductNameSelectionDecorator,"ax",%progbits
 2493              		.align	2
 2494              		.global	ProductNameSelectionDecorator
 2495              		.thumb
 2496              		.thumb_func
 2497              		.type	ProductNameSelectionDecorator, %function
 2498              	ProductNameSelectionDecorator:
 2499              	.LFB73:
 588:.\DisplayBLL.c **** 
 589:.\DisplayBLL.c **** void ProductNameSelectionDecorator(LPVOID pparam)
 590:.\DisplayBLL.c **** {
 2500              		.loc 1 590 0
 2501              		.cfi_startproc
 2502              		@ args = 0, pretend = 0, frame = 72
 2503              		@ frame_needed = 1, uses_anonymous_args = 0
ARM GAS  C:\Users\RECEPC~1\AppData\Local\Temp\ccvg7Xyk.s 			page 56


 2504 0000 2DE9F041 		push	{r4, r5, r6, r7, r8, lr}
 2505              		.cfi_def_cfa_offset 24
 2506              		.cfi_offset 4, -24
 2507              		.cfi_offset 5, -20
 2508              		.cfi_offset 6, -16
 2509              		.cfi_offset 7, -12
 2510              		.cfi_offset 8, -8
 2511              		.cfi_offset 14, -4
 2512 0004 96B0     		sub	sp, sp, #88
 2513              		.cfi_def_cfa_offset 112
 2514 0006 04AF     		add	r7, sp, #16
 2515              		.cfi_def_cfa 7, 96
 2516 0008 7860     		str	r0, [r7, #4]
 591:.\DisplayBLL.c ****     FontData fontdata;
 592:.\DisplayBLL.c ****     fontdata._size = 0x03;
 2517              		.loc 1 592 0
 2518 000a 0323     		movs	r3, #3
 2519 000c 3B75     		strb	r3, [r7, #20]
 593:.\DisplayBLL.c ****     fontdata._backcolor = 0x0000;
 2520              		.loc 1 593 0
 2521 000e 0023     		movs	r3, #0
 2522 0010 3B83     		strh	r3, [r7, #24]	@ movhi
 594:.\DisplayBLL.c ****     fontdata._forecolor = 0xFFFF;
 2523              		.loc 1 594 0
 2524 0012 4FF6FF73 		movw	r3, #65535
 2525 0016 7B83     		strh	r3, [r7, #26]	@ movhi
 595:.\DisplayBLL.c ****     fontdata._opaquebackground = DISP_TEXT_TRANSP;
 2526              		.loc 1 595 0
 2527 0018 8523     		movs	r3, #133
 2528 001a BB75     		strb	r3, [r7, #22]
 596:.\DisplayBLL.c ****     uint8  numhoses = 0x00;
 2529              		.loc 1 596 0
 2530 001c 0023     		movs	r3, #0
 2531 001e 87F84730 		strb	r3, [r7, #71]
 597:.\DisplayBLL.c ****     uint16 eepromcardpage = 0x00;
 2532              		.loc 1 597 0
 2533 0022 0023     		movs	r3, #0
 2534 0024 A7F84430 		strh	r3, [r7, #68]	@ movhi
 598:.\DisplayBLL.c ****     uint16 eepromprodpage = 0x00;
 2535              		.loc 1 598 0
 2536 0028 0023     		movs	r3, #0
 2537 002a A7F84230 		strh	r3, [r7, #66]	@ movhi
 599:.\DisplayBLL.c ****     PDISPLAYLAYOUTPTR pdisplay = (PDISPLAYLAYOUTPTR)pparam;
 2538              		.loc 1 599 0
 2539 002e 7B68     		ldr	r3, [r7, #4]
 2540 0030 FB63     		str	r3, [r7, #60]
 600:.\DisplayBLL.c ****     switch(GetPumpIndexFromDisplay(pdisplay))
 2541              		.loc 1 600 0
 2542 0032 F86B     		ldr	r0, [r7, #60]
 2543 0034 FFF7FEFF 		bl	GetPumpIndexFromDisplay
 2544 0038 0346     		mov	r3, r0
 2545 003a 032B     		cmp	r3, #3
 2546 003c 3ED8     		bhi	.L98
 2547 003e 01A2     		adr	r2, .L100
 2548 0040 52F823F0 		ldr	pc, [r2, r3, lsl #2]
 2549              		.p2align 2
 2550              	.L100:
ARM GAS  C:\Users\RECEPC~1\AppData\Local\Temp\ccvg7Xyk.s 			page 57


 2551 0044 55000000 		.word	.L99+1
 2552 0048 6F000000 		.word	.L101+1
 2553 004c 89000000 		.word	.L102+1
 2554 0050 A3000000 		.word	.L103+1
 2555              		.p2align 1
 2556              	.L99:
 601:.\DisplayBLL.c ****     {
 602:.\DisplayBLL.c ****         case 0x00:
 603:.\DisplayBLL.c ****             numhoses = _g_dispenserlayoutinfo._hosesposition1;
 2557              		.loc 1 603 0
 2558 0054 D34B     		ldr	r3, .L132
 2559 0056 DB78     		ldrb	r3, [r3, #3]
 2560 0058 87F84730 		strb	r3, [r7, #71]
 604:.\DisplayBLL.c ****             eepromcardpage = (uint16)EEPROM_DISPENSER_PUMP1_LAYOUT_PAGE;
 2561              		.loc 1 604 0
 2562 005c 4FF40073 		mov	r3, #512
 2563 0060 A7F84430 		strh	r3, [r7, #68]	@ movhi
 605:.\DisplayBLL.c ****             eepromprodpage = (uint16)EEPROM_DISPENSER_PUMP1_PRODUCT_NAMES_PAGE;
 2564              		.loc 1 605 0
 2565 0064 4FF44073 		mov	r3, #768
 2566 0068 A7F84230 		strh	r3, [r7, #66]	@ movhi
 606:.\DisplayBLL.c ****             break;
 2567              		.loc 1 606 0
 2568 006c 26E0     		b	.L98
 2569              	.L101:
 607:.\DisplayBLL.c ****         case 0x01:
 608:.\DisplayBLL.c ****             numhoses = _g_dispenserlayoutinfo._hosesposition2;
 2570              		.loc 1 608 0
 2571 006e CD4B     		ldr	r3, .L132
 2572 0070 1B79     		ldrb	r3, [r3, #4]
 2573 0072 87F84730 		strb	r3, [r7, #71]
 609:.\DisplayBLL.c ****             eepromcardpage = (uint16)EEPROM_DISPENSER_PUMP2_LAYOUT_PAGE;
 2574              		.loc 1 609 0
 2575 0076 4FF41073 		mov	r3, #576
 2576 007a A7F84430 		strh	r3, [r7, #68]	@ movhi
 610:.\DisplayBLL.c ****             eepromprodpage = (uint16)EEPROM_DISPENSER_PUMP2_PRODUCT_NAMES_PAGE;
 2577              		.loc 1 610 0
 2578 007e 4FF45073 		mov	r3, #832
 2579 0082 A7F84230 		strh	r3, [r7, #66]	@ movhi
 611:.\DisplayBLL.c ****             break;
 2580              		.loc 1 611 0
 2581 0086 19E0     		b	.L98
 2582              	.L102:
 612:.\DisplayBLL.c ****         case 0x02:
 613:.\DisplayBLL.c ****             numhoses = _g_dispenserlayoutinfo._hosesposition3;
 2583              		.loc 1 613 0
 2584 0088 C64B     		ldr	r3, .L132
 2585 008a 5B79     		ldrb	r3, [r3, #5]
 2586 008c 87F84730 		strb	r3, [r7, #71]
 614:.\DisplayBLL.c ****             eepromcardpage = (uint16)EEPROM_DISPENSER_PUMP3_LAYOUT_PAGE;
 2587              		.loc 1 614 0
 2588 0090 4FF42073 		mov	r3, #640
 2589 0094 A7F84430 		strh	r3, [r7, #68]	@ movhi
 615:.\DisplayBLL.c ****             eepromprodpage = (uint16)EEPROM_DISPENSER_PUMP3_PRODUCT_NAMES_PAGE;
 2590              		.loc 1 615 0
 2591 0098 4FF46073 		mov	r3, #896
 2592 009c A7F84230 		strh	r3, [r7, #66]	@ movhi
ARM GAS  C:\Users\RECEPC~1\AppData\Local\Temp\ccvg7Xyk.s 			page 58


 616:.\DisplayBLL.c ****             break;
 2593              		.loc 1 616 0
 2594 00a0 0CE0     		b	.L98
 2595              	.L103:
 617:.\DisplayBLL.c ****         case 0x03:
 618:.\DisplayBLL.c ****             numhoses = _g_dispenserlayoutinfo._hosesposition4;
 2596              		.loc 1 618 0
 2597 00a2 C04B     		ldr	r3, .L132
 2598 00a4 9B79     		ldrb	r3, [r3, #6]
 2599 00a6 87F84730 		strb	r3, [r7, #71]
 619:.\DisplayBLL.c ****             eepromcardpage = (uint16)EEPROM_DISPENSER_PUMP4_LAYOUT_PAGE;
 2600              		.loc 1 619 0
 2601 00aa 4FF43073 		mov	r3, #704
 2602 00ae A7F84430 		strh	r3, [r7, #68]	@ movhi
 620:.\DisplayBLL.c ****             eepromprodpage = (uint16)EEPROM_DISPENSER_PUMP4_PRODUCT_NAMES_PAGE;
 2603              		.loc 1 620 0
 2604 00b2 4FF47073 		mov	r3, #960
 2605 00b6 A7F84230 		strh	r3, [r7, #66]	@ movhi
 621:.\DisplayBLL.c ****             break;
 2606              		.loc 1 621 0
 2607 00ba 00BF     		nop
 2608              	.L98:
 622:.\DisplayBLL.c ****     }    
 623:.\DisplayBLL.c ****     if(pdisplay->_dispid == DISPLAY1)
 2609              		.loc 1 623 0
 2610 00bc FB6B     		ldr	r3, [r7, #60]
 2611 00be 1B78     		ldrb	r3, [r3]	@ zero_extendqisi2
 2612 00c0 002B     		cmp	r3, #0
 2613 00c2 40F00881 		bne	.L104
 2614              	.LBB34:
 624:.\DisplayBLL.c ****     {
 625:.\DisplayBLL.c ****         uint8 cardinals[0x04];
 626:.\DisplayBLL.c ****         
 627:.\DisplayBLL.c ****         I2CBusLock();
 2615              		.loc 1 627 0
 2616 00c6 FFF7FEFF 		bl	I2CBusLock
 628:.\DisplayBLL.c ****         ClearEepromBuffer();
 2617              		.loc 1 628 0
 2618 00ca FFF7FEFF 		bl	ClearEepromBuffer
 629:.\DisplayBLL.c ****         LoadEepromPage(eepromcardpage);
 2619              		.loc 1 629 0
 2620 00ce B7F84430 		ldrh	r3, [r7, #68]
 2621 00d2 1846     		mov	r0, r3
 2622 00d4 FFF7FEFF 		bl	LoadEepromPage
 630:.\DisplayBLL.c ****         memcpy(cardinals, &GetEepromBuffer()[0x01], 0x04);
 2623              		.loc 1 630 0
 2624 00d8 FFF7FEFF 		bl	GetEepromBuffer
 2625 00dc 0346     		mov	r3, r0
 2626 00de 5A1C     		adds	r2, r3, #1
 2627 00e0 07F11003 		add	r3, r7, #16
 2628 00e4 1068     		ldr	r0, [r2]	@ unaligned
 2629 00e6 1860     		str	r0, [r3]	@ unaligned
 631:.\DisplayBLL.c ****         I2CBusUnlock();
 2630              		.loc 1 631 0
 2631 00e8 FFF7FEFF 		bl	I2CBusUnlock
 632:.\DisplayBLL.c ****         
 633:.\DisplayBLL.c ****         I2CBusLock();
ARM GAS  C:\Users\RECEPC~1\AppData\Local\Temp\ccvg7Xyk.s 			page 59


 2632              		.loc 1 633 0
 2633 00ec FFF7FEFF 		bl	I2CBusLock
 634:.\DisplayBLL.c ****         ClearEepromBuffer();
 2634              		.loc 1 634 0
 2635 00f0 FFF7FEFF 		bl	ClearEepromBuffer
 635:.\DisplayBLL.c ****         LoadEepromPage(eepromprodpage);
 2636              		.loc 1 635 0
 2637 00f4 B7F84230 		ldrh	r3, [r7, #66]
 2638 00f8 1846     		mov	r0, r3
 2639 00fa FFF7FEFF 		bl	LoadEepromPage
 636:.\DisplayBLL.c ****         FOR(uint8 index = 0, index < numhoses, index++)
 2640              		.loc 1 636 0
 2641 00fe 0023     		movs	r3, #0
 2642 0100 87F84130 		strb	r3, [r7, #65]
 2643 0104 DDE0     		b	.L105
 2644              	.L116:
 637:.\DisplayBLL.c ****         {
 638:.\DisplayBLL.c ****             switch(cardinals[index])
 2645              		.loc 1 638 0
 2646 0106 97F84130 		ldrb	r3, [r7, #65]	@ zero_extendqisi2
 2647 010a 07F14802 		add	r2, r7, #72
 2648 010e 1344     		add	r3, r3, r2
 2649 0110 13F8383C 		ldrb	r3, [r3, #-56]	@ zero_extendqisi2
 2650 0114 013B     		subs	r3, r3, #1
 2651 0116 032B     		cmp	r3, #3
 2652 0118 00F2CE80 		bhi	.L106
 2653 011c 01A2     		adr	r2, .L108
 2654 011e 52F823F0 		ldr	pc, [r2, r3, lsl #2]
 2655 0122 00BF     		.p2align 2
 2656              	.L108:
 2657 0124 35010000 		.word	.L107+1
 2658 0128 93010000 		.word	.L109+1
 2659 012c F5010000 		.word	.L110+1
 2660 0130 57020000 		.word	.L111+1
 2661              		.p2align 1
 2662              	.L107:
 2663              	.LBB35:
 639:.\DisplayBLL.c ****             {
 640:.\DisplayBLL.c ****                 case 0x01:
 641:.\DisplayBLL.c ****                 {
 642:.\DisplayBLL.c ****                     PUARTMESSAGEPTR puartdisp = GetUARTMessageSlot(UART_DISPLAY1);
 2664              		.loc 1 642 0
 2665 0134 A320     		movs	r0, #163
 2666 0136 FFF7FEFF 		bl	GetUARTMessageSlot
 2667 013a B863     		str	r0, [r7, #56]
 643:.\DisplayBLL.c ****                     if(puartdisp)
 2668              		.loc 1 643 0
 2669 013c BB6B     		ldr	r3, [r7, #56]
 2670 013e 002B     		cmp	r3, #0
 2671 0140 26D0     		beq	.L112
 644:.\DisplayBLL.c ****                     {
 645:.\DisplayBLL.c ****                         puartdisp->_messagelength = DisplayOutputString(_g_productscreenpos[index][
 2672              		.loc 1 645 0
 2673 0142 97F84130 		ldrb	r3, [r7, #65]	@ zero_extendqisi2
 2674 0146 984A     		ldr	r2, .L132+4
 2675 0148 32F82360 		ldrh	r6, [r2, r3, lsl #2]
 2676 014c 97F84130 		ldrb	r3, [r7, #65]	@ zero_extendqisi2
ARM GAS  C:\Users\RECEPC~1\AppData\Local\Temp\ccvg7Xyk.s 			page 60


 2677 0150 954A     		ldr	r2, .L132+4
 2678 0152 9B00     		lsls	r3, r3, #2
 2679 0154 1344     		add	r3, r3, r2
 2680 0156 5D88     		ldrh	r5, [r3, #2]
 2681 0158 BB6B     		ldr	r3, [r7, #56]
 2682 015a 1C1D     		adds	r4, r3, #4
 2683 015c FFF7FEFF 		bl	GetEepromBuffer
 2684 0160 8646     		mov	lr, r0
 2685 0162 1023     		movs	r3, #16
 2686 0164 0093     		str	r3, [sp]
 2687 0166 01AA     		add	r2, sp, #4
 2688 0168 07F11403 		add	r3, r7, #20
 2689 016c 93E80300 		ldmia	r3, {r0, r1}
 2690 0170 82E80300 		stmia	r2, {r0, r1}
 2691 0174 3046     		mov	r0, r6
 2692 0176 2946     		mov	r1, r5
 2693 0178 2246     		mov	r2, r4
 2694 017a 7346     		mov	r3, lr
 2695 017c FFF7FEFF 		bl	DisplayOutputString
 2696 0180 0346     		mov	r3, r0
 2697 0182 1A46     		mov	r2, r3
 2698 0184 BB6B     		ldr	r3, [r7, #56]
 2699 0186 5A80     		strh	r2, [r3, #2]	@ movhi
 646:.\DisplayBLL.c ****                         puartdisp->_messagestate = PENDING;
 2700              		.loc 1 646 0
 2701 0188 BB6B     		ldr	r3, [r7, #56]
 2702 018a C222     		movs	r2, #194
 2703 018c 1A70     		strb	r2, [r3]
 647:.\DisplayBLL.c ****                     }
 648:.\DisplayBLL.c ****                     break;
 2704              		.loc 1 648 0
 2705 018e 93E0     		b	.L106
 2706              	.L112:
 2707 0190 92E0     		b	.L106
 2708              	.L109:
 2709              	.LBE35:
 2710              	.LBB36:
 649:.\DisplayBLL.c ****                 }
 650:.\DisplayBLL.c ****                 case 0x02:
 651:.\DisplayBLL.c ****                 {
 652:.\DisplayBLL.c ****                     PUARTMESSAGEPTR puartdisp = GetUARTMessageSlot(UART_DISPLAY1);
 2711              		.loc 1 652 0
 2712 0192 A320     		movs	r0, #163
 2713 0194 FFF7FEFF 		bl	GetUARTMessageSlot
 2714 0198 7863     		str	r0, [r7, #52]
 653:.\DisplayBLL.c ****                     if(puartdisp)
 2715              		.loc 1 653 0
 2716 019a 7B6B     		ldr	r3, [r7, #52]
 2717 019c 002B     		cmp	r3, #0
 2718 019e 28D0     		beq	.L113
 654:.\DisplayBLL.c ****                     {
 655:.\DisplayBLL.c ****                         puartdisp->_messagelength = DisplayOutputString(_g_productscreenpos[index][
 2719              		.loc 1 655 0
 2720 01a0 97F84130 		ldrb	r3, [r7, #65]	@ zero_extendqisi2
 2721 01a4 804A     		ldr	r2, .L132+4
 2722 01a6 32F82380 		ldrh	r8, [r2, r3, lsl #2]
 2723 01aa 97F84130 		ldrb	r3, [r7, #65]	@ zero_extendqisi2
ARM GAS  C:\Users\RECEPC~1\AppData\Local\Temp\ccvg7Xyk.s 			page 61


 2724 01ae 7E4A     		ldr	r2, .L132+4
 2725 01b0 9B00     		lsls	r3, r3, #2
 2726 01b2 1344     		add	r3, r3, r2
 2727 01b4 5E88     		ldrh	r6, [r3, #2]
 2728 01b6 7B6B     		ldr	r3, [r7, #52]
 2729 01b8 1D1D     		adds	r5, r3, #4
 2730 01ba FFF7FEFF 		bl	GetEepromBuffer
 2731 01be 0346     		mov	r3, r0
 2732 01c0 03F11004 		add	r4, r3, #16
 2733 01c4 1023     		movs	r3, #16
 2734 01c6 0093     		str	r3, [sp]
 2735 01c8 01AA     		add	r2, sp, #4
 2736 01ca 07F11403 		add	r3, r7, #20
 2737 01ce 93E80300 		ldmia	r3, {r0, r1}
 2738 01d2 82E80300 		stmia	r2, {r0, r1}
 2739 01d6 4046     		mov	r0, r8
 2740 01d8 3146     		mov	r1, r6
 2741 01da 2A46     		mov	r2, r5
 2742 01dc 2346     		mov	r3, r4
 2743 01de FFF7FEFF 		bl	DisplayOutputString
 2744 01e2 0346     		mov	r3, r0
 2745 01e4 1A46     		mov	r2, r3
 2746 01e6 7B6B     		ldr	r3, [r7, #52]
 2747 01e8 5A80     		strh	r2, [r3, #2]	@ movhi
 656:.\DisplayBLL.c ****                         puartdisp->_messagestate = PENDING;
 2748              		.loc 1 656 0
 2749 01ea 7B6B     		ldr	r3, [r7, #52]
 2750 01ec C222     		movs	r2, #194
 2751 01ee 1A70     		strb	r2, [r3]
 657:.\DisplayBLL.c ****                     }
 658:.\DisplayBLL.c ****                     break;
 2752              		.loc 1 658 0
 2753 01f0 62E0     		b	.L106
 2754              	.L113:
 2755 01f2 61E0     		b	.L106
 2756              	.L110:
 2757              	.LBE36:
 2758              	.LBB37:
 659:.\DisplayBLL.c ****                 }
 660:.\DisplayBLL.c ****                 case 0x03:
 661:.\DisplayBLL.c ****                 {
 662:.\DisplayBLL.c ****                     PUARTMESSAGEPTR puartdisp = GetUARTMessageSlot(UART_DISPLAY1);
 2759              		.loc 1 662 0
 2760 01f4 A320     		movs	r0, #163
 2761 01f6 FFF7FEFF 		bl	GetUARTMessageSlot
 2762 01fa 3863     		str	r0, [r7, #48]
 663:.\DisplayBLL.c ****                     if(puartdisp)
 2763              		.loc 1 663 0
 2764 01fc 3B6B     		ldr	r3, [r7, #48]
 2765 01fe 002B     		cmp	r3, #0
 2766 0200 28D0     		beq	.L114
 664:.\DisplayBLL.c ****                     {
 665:.\DisplayBLL.c ****                         puartdisp->_messagelength = DisplayOutputString(_g_productscreenpos[index][
 2767              		.loc 1 665 0
 2768 0202 97F84130 		ldrb	r3, [r7, #65]	@ zero_extendqisi2
 2769 0206 684A     		ldr	r2, .L132+4
 2770 0208 32F82380 		ldrh	r8, [r2, r3, lsl #2]
ARM GAS  C:\Users\RECEPC~1\AppData\Local\Temp\ccvg7Xyk.s 			page 62


 2771 020c 97F84130 		ldrb	r3, [r7, #65]	@ zero_extendqisi2
 2772 0210 654A     		ldr	r2, .L132+4
 2773 0212 9B00     		lsls	r3, r3, #2
 2774 0214 1344     		add	r3, r3, r2
 2775 0216 5E88     		ldrh	r6, [r3, #2]
 2776 0218 3B6B     		ldr	r3, [r7, #48]
 2777 021a 1D1D     		adds	r5, r3, #4
 2778 021c FFF7FEFF 		bl	GetEepromBuffer
 2779 0220 0346     		mov	r3, r0
 2780 0222 03F12004 		add	r4, r3, #32
 2781 0226 1023     		movs	r3, #16
 2782 0228 0093     		str	r3, [sp]
 2783 022a 01AA     		add	r2, sp, #4
 2784 022c 07F11403 		add	r3, r7, #20
 2785 0230 93E80300 		ldmia	r3, {r0, r1}
 2786 0234 82E80300 		stmia	r2, {r0, r1}
 2787 0238 4046     		mov	r0, r8
 2788 023a 3146     		mov	r1, r6
 2789 023c 2A46     		mov	r2, r5
 2790 023e 2346     		mov	r3, r4
 2791 0240 FFF7FEFF 		bl	DisplayOutputString
 2792 0244 0346     		mov	r3, r0
 2793 0246 1A46     		mov	r2, r3
 2794 0248 3B6B     		ldr	r3, [r7, #48]
 2795 024a 5A80     		strh	r2, [r3, #2]	@ movhi
 666:.\DisplayBLL.c ****                         puartdisp->_messagestate = PENDING;
 2796              		.loc 1 666 0
 2797 024c 3B6B     		ldr	r3, [r7, #48]
 2798 024e C222     		movs	r2, #194
 2799 0250 1A70     		strb	r2, [r3]
 667:.\DisplayBLL.c ****                     }
 668:.\DisplayBLL.c ****                     break;
 2800              		.loc 1 668 0
 2801 0252 31E0     		b	.L106
 2802              	.L114:
 2803 0254 30E0     		b	.L106
 2804              	.L111:
 2805              	.LBE37:
 2806              	.LBB38:
 669:.\DisplayBLL.c ****                 }
 670:.\DisplayBLL.c ****                 case 0x04:
 671:.\DisplayBLL.c ****                 {
 672:.\DisplayBLL.c ****                     PUARTMESSAGEPTR puartdisp = GetUARTMessageSlot(UART_DISPLAY1);
 2807              		.loc 1 672 0
 2808 0256 A320     		movs	r0, #163
 2809 0258 FFF7FEFF 		bl	GetUARTMessageSlot
 2810 025c F862     		str	r0, [r7, #44]
 673:.\DisplayBLL.c ****                     if(puartdisp)
 2811              		.loc 1 673 0
 2812 025e FB6A     		ldr	r3, [r7, #44]
 2813 0260 002B     		cmp	r3, #0
 2814 0262 28D0     		beq	.L115
 674:.\DisplayBLL.c ****                     {
 675:.\DisplayBLL.c ****                         puartdisp->_messagelength = DisplayOutputString(_g_productscreenpos[index][
 2815              		.loc 1 675 0
 2816 0264 97F84130 		ldrb	r3, [r7, #65]	@ zero_extendqisi2
 2817 0268 4F4A     		ldr	r2, .L132+4
ARM GAS  C:\Users\RECEPC~1\AppData\Local\Temp\ccvg7Xyk.s 			page 63


 2818 026a 32F82380 		ldrh	r8, [r2, r3, lsl #2]
 2819 026e 97F84130 		ldrb	r3, [r7, #65]	@ zero_extendqisi2
 2820 0272 4D4A     		ldr	r2, .L132+4
 2821 0274 9B00     		lsls	r3, r3, #2
 2822 0276 1344     		add	r3, r3, r2
 2823 0278 5E88     		ldrh	r6, [r3, #2]
 2824 027a FB6A     		ldr	r3, [r7, #44]
 2825 027c 1D1D     		adds	r5, r3, #4
 2826 027e FFF7FEFF 		bl	GetEepromBuffer
 2827 0282 0346     		mov	r3, r0
 2828 0284 03F13004 		add	r4, r3, #48
 2829 0288 1023     		movs	r3, #16
 2830 028a 0093     		str	r3, [sp]
 2831 028c 01AA     		add	r2, sp, #4
 2832 028e 07F11403 		add	r3, r7, #20
 2833 0292 93E80300 		ldmia	r3, {r0, r1}
 2834 0296 82E80300 		stmia	r2, {r0, r1}
 2835 029a 4046     		mov	r0, r8
 2836 029c 3146     		mov	r1, r6
 2837 029e 2A46     		mov	r2, r5
 2838 02a0 2346     		mov	r3, r4
 2839 02a2 FFF7FEFF 		bl	DisplayOutputString
 2840 02a6 0346     		mov	r3, r0
 2841 02a8 1A46     		mov	r2, r3
 2842 02aa FB6A     		ldr	r3, [r7, #44]
 2843 02ac 5A80     		strh	r2, [r3, #2]	@ movhi
 676:.\DisplayBLL.c ****                         puartdisp->_messagestate = PENDING;
 2844              		.loc 1 676 0
 2845 02ae FB6A     		ldr	r3, [r7, #44]
 2846 02b0 C222     		movs	r2, #194
 2847 02b2 1A70     		strb	r2, [r3]
 677:.\DisplayBLL.c ****                     }
 678:.\DisplayBLL.c ****                     break;
 2848              		.loc 1 678 0
 2849 02b4 FFE7     		b	.L130
 2850              	.L115:
 2851              	.L130:
 2852 02b6 00BF     		nop
 2853              	.L106:
 2854              	.LBE38:
 636:.\DisplayBLL.c ****         {
 2855              		.loc 1 636 0 discriminator 2
 2856 02b8 97F84130 		ldrb	r3, [r7, #65]	@ zero_extendqisi2
 2857 02bc 0133     		adds	r3, r3, #1
 2858 02be 87F84130 		strb	r3, [r7, #65]
 2859              	.L105:
 636:.\DisplayBLL.c ****         {
 2860              		.loc 1 636 0 is_stmt 0 discriminator 1
 2861 02c2 97F84120 		ldrb	r2, [r7, #65]	@ zero_extendqisi2
 2862 02c6 97F84730 		ldrb	r3, [r7, #71]	@ zero_extendqisi2
 2863 02ca 9A42     		cmp	r2, r3
 2864 02cc FFF41BAF 		bcc	.L116
 679:.\DisplayBLL.c ****                 }
 680:.\DisplayBLL.c ****             }
 681:.\DisplayBLL.c ****         }
 682:.\DisplayBLL.c ****         I2CBusUnlock();
 2865              		.loc 1 682 0 is_stmt 1
ARM GAS  C:\Users\RECEPC~1\AppData\Local\Temp\ccvg7Xyk.s 			page 64


 2866 02d0 FFF7FEFF 		bl	I2CBusUnlock
 2867              	.LBE34:
 2868 02d4 0BE1     		b	.L97
 2869              	.L104:
 2870              	.LBB39:
 683:.\DisplayBLL.c ****     }
 684:.\DisplayBLL.c ****     else
 685:.\DisplayBLL.c ****     {
 686:.\DisplayBLL.c ****         uint8 cardinals[0x04];
 687:.\DisplayBLL.c ****         
 688:.\DisplayBLL.c ****         I2CBusLock();
 2871              		.loc 1 688 0
 2872 02d6 FFF7FEFF 		bl	I2CBusLock
 689:.\DisplayBLL.c ****         ClearEepromBuffer();
 2873              		.loc 1 689 0
 2874 02da FFF7FEFF 		bl	ClearEepromBuffer
 690:.\DisplayBLL.c ****         LoadEepromPage(eepromcardpage);
 2875              		.loc 1 690 0
 2876 02de B7F84430 		ldrh	r3, [r7, #68]
 2877 02e2 1846     		mov	r0, r3
 2878 02e4 FFF7FEFF 		bl	LoadEepromPage
 691:.\DisplayBLL.c ****         memcpy(cardinals, &GetEepromBuffer()[0x01], 0x04);
 2879              		.loc 1 691 0
 2880 02e8 FFF7FEFF 		bl	GetEepromBuffer
 2881 02ec 0346     		mov	r3, r0
 2882 02ee 5A1C     		adds	r2, r3, #1
 2883 02f0 07F10C03 		add	r3, r7, #12
 2884 02f4 1068     		ldr	r0, [r2]	@ unaligned
 2885 02f6 1860     		str	r0, [r3]	@ unaligned
 692:.\DisplayBLL.c ****         I2CBusUnlock();
 2886              		.loc 1 692 0
 2887 02f8 FFF7FEFF 		bl	I2CBusUnlock
 693:.\DisplayBLL.c ****         
 694:.\DisplayBLL.c ****         I2CBusLock();
 2888              		.loc 1 694 0
 2889 02fc FFF7FEFF 		bl	I2CBusLock
 695:.\DisplayBLL.c ****         ClearEepromBuffer();
 2890              		.loc 1 695 0
 2891 0300 FFF7FEFF 		bl	ClearEepromBuffer
 696:.\DisplayBLL.c ****         LoadEepromPage(eepromprodpage);
 2892              		.loc 1 696 0
 2893 0304 B7F84230 		ldrh	r3, [r7, #66]
 2894 0308 1846     		mov	r0, r3
 2895 030a FFF7FEFF 		bl	LoadEepromPage
 697:.\DisplayBLL.c ****         FOR(uint8 index = 0, index < numhoses, index++)
 2896              		.loc 1 697 0
 2897 030e 0023     		movs	r3, #0
 2898 0310 87F84030 		strb	r3, [r7, #64]
 2899 0314 E2E0     		b	.L118
 2900              	.L129:
 698:.\DisplayBLL.c ****         {
 699:.\DisplayBLL.c ****             switch(cardinals[index])
 2901              		.loc 1 699 0
 2902 0316 97F84030 		ldrb	r3, [r7, #64]	@ zero_extendqisi2
 2903 031a 07F14802 		add	r2, r7, #72
 2904 031e 1344     		add	r3, r3, r2
 2905 0320 13F83C3C 		ldrb	r3, [r3, #-60]	@ zero_extendqisi2
ARM GAS  C:\Users\RECEPC~1\AppData\Local\Temp\ccvg7Xyk.s 			page 65


 2906 0324 013B     		subs	r3, r3, #1
 2907 0326 032B     		cmp	r3, #3
 2908 0328 00F2D380 		bhi	.L119
 2909 032c 01A2     		adr	r2, .L121
 2910 032e 52F823F0 		ldr	pc, [r2, r3, lsl #2]
 2911 0332 00BF     		.p2align 2
 2912              	.L121:
 2913 0334 45030000 		.word	.L120+1
 2914 0338 AD030000 		.word	.L122+1
 2915 033c 0F040000 		.word	.L123+1
 2916 0340 71040000 		.word	.L124+1
 2917              		.p2align 1
 2918              	.L120:
 2919              	.LBB40:
 700:.\DisplayBLL.c ****             {
 701:.\DisplayBLL.c ****                 case 0x01:
 702:.\DisplayBLL.c ****                 {
 703:.\DisplayBLL.c ****                     PUARTMESSAGEPTR puartdisp = GetUARTMessageSlot(UART_DISPLAY2);
 2920              		.loc 1 703 0
 2921 0344 A420     		movs	r0, #164
 2922 0346 FFF7FEFF 		bl	GetUARTMessageSlot
 2923 034a B862     		str	r0, [r7, #40]
 704:.\DisplayBLL.c ****                     if(puartdisp)
 2924              		.loc 1 704 0
 2925 034c BB6A     		ldr	r3, [r7, #40]
 2926 034e 002B     		cmp	r3, #0
 2927 0350 26D0     		beq	.L125
 705:.\DisplayBLL.c ****                     {
 706:.\DisplayBLL.c ****                         puartdisp->_messagelength = DisplayOutputString(_g_productscreenpos[index][
 2928              		.loc 1 706 0
 2929 0352 97F84030 		ldrb	r3, [r7, #64]	@ zero_extendqisi2
 2930 0356 144A     		ldr	r2, .L132+4
 2931 0358 32F82360 		ldrh	r6, [r2, r3, lsl #2]
 2932 035c 97F84030 		ldrb	r3, [r7, #64]	@ zero_extendqisi2
 2933 0360 114A     		ldr	r2, .L132+4
 2934 0362 9B00     		lsls	r3, r3, #2
 2935 0364 1344     		add	r3, r3, r2
 2936 0366 5D88     		ldrh	r5, [r3, #2]
 2937 0368 BB6A     		ldr	r3, [r7, #40]
 2938 036a 1C1D     		adds	r4, r3, #4
 2939 036c FFF7FEFF 		bl	GetEepromBuffer
 2940 0370 8646     		mov	lr, r0
 2941 0372 1023     		movs	r3, #16
 2942 0374 0093     		str	r3, [sp]
 2943 0376 01AA     		add	r2, sp, #4
 2944 0378 07F11403 		add	r3, r7, #20
 2945 037c 93E80300 		ldmia	r3, {r0, r1}
 2946 0380 82E80300 		stmia	r2, {r0, r1}
 2947 0384 3046     		mov	r0, r6
 2948 0386 2946     		mov	r1, r5
 2949 0388 2246     		mov	r2, r4
 2950 038a 7346     		mov	r3, lr
 2951 038c FFF7FEFF 		bl	DisplayOutputString
 2952 0390 0346     		mov	r3, r0
 2953 0392 1A46     		mov	r2, r3
 2954 0394 BB6A     		ldr	r3, [r7, #40]
 2955 0396 5A80     		strh	r2, [r3, #2]	@ movhi
ARM GAS  C:\Users\RECEPC~1\AppData\Local\Temp\ccvg7Xyk.s 			page 66


 707:.\DisplayBLL.c ****                         puartdisp->_messagestate = PENDING;
 2956              		.loc 1 707 0
 2957 0398 BB6A     		ldr	r3, [r7, #40]
 2958 039a C222     		movs	r2, #194
 2959 039c 1A70     		strb	r2, [r3]
 708:.\DisplayBLL.c ****                     }
 709:.\DisplayBLL.c ****                     break;
 2960              		.loc 1 709 0
 2961 039e 98E0     		b	.L119
 2962              	.L125:
 2963 03a0 97E0     		b	.L119
 2964              	.L133:
 2965 03a2 00BF     		.align	2
 2966              	.L132:
 2967 03a4 00000000 		.word	_g_dispenserlayoutinfo
 2968 03a8 00000000 		.word	_g_productscreenpos
 2969              	.L122:
 2970              	.LBE40:
 2971              	.LBB41:
 710:.\DisplayBLL.c ****                 }
 711:.\DisplayBLL.c ****                 case 0x02:
 712:.\DisplayBLL.c ****                 {
 713:.\DisplayBLL.c ****                     PUARTMESSAGEPTR puartdisp = GetUARTMessageSlot(UART_DISPLAY2);
 2972              		.loc 1 713 0
 2973 03ac A420     		movs	r0, #164
 2974 03ae FFF7FEFF 		bl	GetUARTMessageSlot
 2975 03b2 7862     		str	r0, [r7, #36]
 714:.\DisplayBLL.c ****                     if(puartdisp)
 2976              		.loc 1 714 0
 2977 03b4 7B6A     		ldr	r3, [r7, #36]
 2978 03b6 002B     		cmp	r3, #0
 2979 03b8 28D0     		beq	.L126
 715:.\DisplayBLL.c ****                     {
 716:.\DisplayBLL.c ****                         puartdisp->_messagelength = DisplayOutputString(_g_productscreenpos[index][
 2980              		.loc 1 716 0
 2981 03ba 97F84030 		ldrb	r3, [r7, #64]	@ zero_extendqisi2
 2982 03be 4E4A     		ldr	r2, .L134
 2983 03c0 32F82380 		ldrh	r8, [r2, r3, lsl #2]
 2984 03c4 97F84030 		ldrb	r3, [r7, #64]	@ zero_extendqisi2
 2985 03c8 4B4A     		ldr	r2, .L134
 2986 03ca 9B00     		lsls	r3, r3, #2
 2987 03cc 1344     		add	r3, r3, r2
 2988 03ce 5E88     		ldrh	r6, [r3, #2]
 2989 03d0 7B6A     		ldr	r3, [r7, #36]
 2990 03d2 1D1D     		adds	r5, r3, #4
 2991 03d4 FFF7FEFF 		bl	GetEepromBuffer
 2992 03d8 0346     		mov	r3, r0
 2993 03da 03F11004 		add	r4, r3, #16
 2994 03de 1023     		movs	r3, #16
 2995 03e0 0093     		str	r3, [sp]
 2996 03e2 01AA     		add	r2, sp, #4
 2997 03e4 07F11403 		add	r3, r7, #20
 2998 03e8 93E80300 		ldmia	r3, {r0, r1}
 2999 03ec 82E80300 		stmia	r2, {r0, r1}
 3000 03f0 4046     		mov	r0, r8
 3001 03f2 3146     		mov	r1, r6
 3002 03f4 2A46     		mov	r2, r5
ARM GAS  C:\Users\RECEPC~1\AppData\Local\Temp\ccvg7Xyk.s 			page 67


 3003 03f6 2346     		mov	r3, r4
 3004 03f8 FFF7FEFF 		bl	DisplayOutputString
 3005 03fc 0346     		mov	r3, r0
 3006 03fe 1A46     		mov	r2, r3
 3007 0400 7B6A     		ldr	r3, [r7, #36]
 3008 0402 5A80     		strh	r2, [r3, #2]	@ movhi
 717:.\DisplayBLL.c ****                         puartdisp->_messagestate = PENDING;
 3009              		.loc 1 717 0
 3010 0404 7B6A     		ldr	r3, [r7, #36]
 3011 0406 C222     		movs	r2, #194
 3012 0408 1A70     		strb	r2, [r3]
 718:.\DisplayBLL.c ****                     }
 719:.\DisplayBLL.c ****                     break;
 3013              		.loc 1 719 0
 3014 040a 62E0     		b	.L119
 3015              	.L126:
 3016 040c 61E0     		b	.L119
 3017              	.L123:
 3018              	.LBE41:
 3019              	.LBB42:
 720:.\DisplayBLL.c ****                 }
 721:.\DisplayBLL.c ****                 case 0x03:
 722:.\DisplayBLL.c ****                 {
 723:.\DisplayBLL.c ****                     PUARTMESSAGEPTR puartdisp = GetUARTMessageSlot(UART_DISPLAY2);
 3020              		.loc 1 723 0
 3021 040e A420     		movs	r0, #164
 3022 0410 FFF7FEFF 		bl	GetUARTMessageSlot
 3023 0414 3862     		str	r0, [r7, #32]
 724:.\DisplayBLL.c ****                     if(puartdisp)
 3024              		.loc 1 724 0
 3025 0416 3B6A     		ldr	r3, [r7, #32]
 3026 0418 002B     		cmp	r3, #0
 3027 041a 28D0     		beq	.L127
 725:.\DisplayBLL.c ****                     {
 726:.\DisplayBLL.c ****                         puartdisp->_messagelength = DisplayOutputString(_g_productscreenpos[index][
 3028              		.loc 1 726 0
 3029 041c 97F84030 		ldrb	r3, [r7, #64]	@ zero_extendqisi2
 3030 0420 354A     		ldr	r2, .L134
 3031 0422 32F82380 		ldrh	r8, [r2, r3, lsl #2]
 3032 0426 97F84030 		ldrb	r3, [r7, #64]	@ zero_extendqisi2
 3033 042a 334A     		ldr	r2, .L134
 3034 042c 9B00     		lsls	r3, r3, #2
 3035 042e 1344     		add	r3, r3, r2
 3036 0430 5E88     		ldrh	r6, [r3, #2]
 3037 0432 3B6A     		ldr	r3, [r7, #32]
 3038 0434 1D1D     		adds	r5, r3, #4
 3039 0436 FFF7FEFF 		bl	GetEepromBuffer
 3040 043a 0346     		mov	r3, r0
 3041 043c 03F12004 		add	r4, r3, #32
 3042 0440 1023     		movs	r3, #16
 3043 0442 0093     		str	r3, [sp]
 3044 0444 01AA     		add	r2, sp, #4
 3045 0446 07F11403 		add	r3, r7, #20
 3046 044a 93E80300 		ldmia	r3, {r0, r1}
 3047 044e 82E80300 		stmia	r2, {r0, r1}
 3048 0452 4046     		mov	r0, r8
 3049 0454 3146     		mov	r1, r6
ARM GAS  C:\Users\RECEPC~1\AppData\Local\Temp\ccvg7Xyk.s 			page 68


 3050 0456 2A46     		mov	r2, r5
 3051 0458 2346     		mov	r3, r4
 3052 045a FFF7FEFF 		bl	DisplayOutputString
 3053 045e 0346     		mov	r3, r0
 3054 0460 1A46     		mov	r2, r3
 3055 0462 3B6A     		ldr	r3, [r7, #32]
 3056 0464 5A80     		strh	r2, [r3, #2]	@ movhi
 727:.\DisplayBLL.c ****                         puartdisp->_messagestate = PENDING;
 3057              		.loc 1 727 0
 3058 0466 3B6A     		ldr	r3, [r7, #32]
 3059 0468 C222     		movs	r2, #194
 3060 046a 1A70     		strb	r2, [r3]
 728:.\DisplayBLL.c ****                     }
 729:.\DisplayBLL.c ****                     break;
 3061              		.loc 1 729 0
 3062 046c 31E0     		b	.L119
 3063              	.L127:
 3064 046e 30E0     		b	.L119
 3065              	.L124:
 3066              	.LBE42:
 3067              	.LBB43:
 730:.\DisplayBLL.c ****                 }
 731:.\DisplayBLL.c ****                 case 0x04:
 732:.\DisplayBLL.c ****                 {
 733:.\DisplayBLL.c ****                     PUARTMESSAGEPTR puartdisp = GetUARTMessageSlot(UART_DISPLAY2);
 3068              		.loc 1 733 0
 3069 0470 A420     		movs	r0, #164
 3070 0472 FFF7FEFF 		bl	GetUARTMessageSlot
 3071 0476 F861     		str	r0, [r7, #28]
 734:.\DisplayBLL.c ****                     if(puartdisp)
 3072              		.loc 1 734 0
 3073 0478 FB69     		ldr	r3, [r7, #28]
 3074 047a 002B     		cmp	r3, #0
 3075 047c 28D0     		beq	.L128
 735:.\DisplayBLL.c ****                     {
 736:.\DisplayBLL.c ****                         puartdisp->_messagelength = DisplayOutputString(_g_productscreenpos[index][
 3076              		.loc 1 736 0
 3077 047e 97F84030 		ldrb	r3, [r7, #64]	@ zero_extendqisi2
 3078 0482 1D4A     		ldr	r2, .L134
 3079 0484 32F82380 		ldrh	r8, [r2, r3, lsl #2]
 3080 0488 97F84030 		ldrb	r3, [r7, #64]	@ zero_extendqisi2
 3081 048c 1A4A     		ldr	r2, .L134
 3082 048e 9B00     		lsls	r3, r3, #2
 3083 0490 1344     		add	r3, r3, r2
 3084 0492 5E88     		ldrh	r6, [r3, #2]
 3085 0494 FB69     		ldr	r3, [r7, #28]
 3086 0496 1D1D     		adds	r5, r3, #4
 3087 0498 FFF7FEFF 		bl	GetEepromBuffer
 3088 049c 0346     		mov	r3, r0
 3089 049e 03F13004 		add	r4, r3, #48
 3090 04a2 1023     		movs	r3, #16
 3091 04a4 0093     		str	r3, [sp]
 3092 04a6 01AA     		add	r2, sp, #4
 3093 04a8 07F11403 		add	r3, r7, #20
 3094 04ac 93E80300 		ldmia	r3, {r0, r1}
 3095 04b0 82E80300 		stmia	r2, {r0, r1}
 3096 04b4 4046     		mov	r0, r8
ARM GAS  C:\Users\RECEPC~1\AppData\Local\Temp\ccvg7Xyk.s 			page 69


 3097 04b6 3146     		mov	r1, r6
 3098 04b8 2A46     		mov	r2, r5
 3099 04ba 2346     		mov	r3, r4
 3100 04bc FFF7FEFF 		bl	DisplayOutputString
 3101 04c0 0346     		mov	r3, r0
 3102 04c2 1A46     		mov	r2, r3
 3103 04c4 FB69     		ldr	r3, [r7, #28]
 3104 04c6 5A80     		strh	r2, [r3, #2]	@ movhi
 737:.\DisplayBLL.c ****                         puartdisp->_messagestate = PENDING;
 3105              		.loc 1 737 0
 3106 04c8 FB69     		ldr	r3, [r7, #28]
 3107 04ca C222     		movs	r2, #194
 3108 04cc 1A70     		strb	r2, [r3]
 738:.\DisplayBLL.c ****                     }
 739:.\DisplayBLL.c ****                     break;
 3109              		.loc 1 739 0
 3110 04ce FFE7     		b	.L131
 3111              	.L128:
 3112              	.L131:
 3113 04d0 00BF     		nop
 3114              	.L119:
 3115              	.LBE43:
 697:.\DisplayBLL.c ****         {
 3116              		.loc 1 697 0 discriminator 2
 3117 04d2 97F84030 		ldrb	r3, [r7, #64]	@ zero_extendqisi2
 3118 04d6 0133     		adds	r3, r3, #1
 3119 04d8 87F84030 		strb	r3, [r7, #64]
 3120              	.L118:
 697:.\DisplayBLL.c ****         {
 3121              		.loc 1 697 0 is_stmt 0 discriminator 1
 3122 04dc 97F84020 		ldrb	r2, [r7, #64]	@ zero_extendqisi2
 3123 04e0 97F84730 		ldrb	r3, [r7, #71]	@ zero_extendqisi2
 3124 04e4 9A42     		cmp	r2, r3
 3125 04e6 FFF416AF 		bcc	.L129
 740:.\DisplayBLL.c ****                 }
 741:.\DisplayBLL.c ****             }
 742:.\DisplayBLL.c ****         }
 743:.\DisplayBLL.c ****         I2CBusUnlock();
 3126              		.loc 1 743 0 is_stmt 1 discriminator 2
 3127 04ea FFF7FEFF 		bl	I2CBusUnlock
 3128              	.L97:
 3129              	.LBE39:
 744:.\DisplayBLL.c ****     }
 745:.\DisplayBLL.c **** }
 3130              		.loc 1 745 0
 3131 04ee 4837     		adds	r7, r7, #72
 3132              		.cfi_def_cfa_offset 24
 3133 04f0 BD46     		mov	sp, r7
 3134              		.cfi_def_cfa_register 13
 3135              		@ sp needed
 3136 04f2 BDE8F081 		pop	{r4, r5, r6, r7, r8, pc}
 3137              	.L135:
 3138 04f6 00BF     		.align	2
 3139              	.L134:
 3140 04f8 00000000 		.word	_g_productscreenpos
 3141              		.cfi_endproc
 3142              	.LFE73:
ARM GAS  C:\Users\RECEPC~1\AppData\Local\Temp\ccvg7Xyk.s 			page 70


 3143              		.size	ProductNameSelectionDecorator, .-ProductNameSelectionDecorator
 3144              		.section	.rodata
 3145 0127 00       		.align	2
 3146              	.LC17:
 3147 0128 20205045 		.ascii	"  PETICION DE AUTORIZACION RECHAZADA! \000"
 3147      54494349 
 3147      4F4E2044 
 3147      45204155 
 3147      544F5249 
 3148              		.section	.text.RejectedAuthorizationMessageDecorator,"ax",%progbits
 3149              		.align	2
 3150              		.global	RejectedAuthorizationMessageDecorator
 3151              		.thumb
 3152              		.thumb_func
 3153              		.type	RejectedAuthorizationMessageDecorator, %function
 3154              	RejectedAuthorizationMessageDecorator:
 3155              	.LFB74:
 746:.\DisplayBLL.c **** 
 747:.\DisplayBLL.c **** void RejectedAuthorizationMessageDecorator(LPVOID pparam)
 748:.\DisplayBLL.c **** {
 3156              		.loc 1 748 0
 3157              		.cfi_startproc
 3158              		@ args = 0, pretend = 0, frame = 40
 3159              		@ frame_needed = 1, uses_anonymous_args = 0
 3160 0000 F0B5     		push	{r4, r5, r6, r7, lr}
 3161              		.cfi_def_cfa_offset 20
 3162              		.cfi_offset 4, -20
 3163              		.cfi_offset 5, -16
 3164              		.cfi_offset 6, -12
 3165              		.cfi_offset 7, -8
 3166              		.cfi_offset 14, -4
 3167 0002 8FB0     		sub	sp, sp, #60
 3168              		.cfi_def_cfa_offset 80
 3169 0004 04AF     		add	r7, sp, #16
 3170              		.cfi_def_cfa 7, 64
 3171 0006 7860     		str	r0, [r7, #4]
 749:.\DisplayBLL.c ****     FontData fontdata;
 750:.\DisplayBLL.c ****     fontdata._size = 0x03;
 3172              		.loc 1 750 0
 3173 0008 0323     		movs	r3, #3
 3174 000a 3B73     		strb	r3, [r7, #12]
 751:.\DisplayBLL.c ****     fontdata._backcolor = 0xFFFF;
 3175              		.loc 1 751 0
 3176 000c 4FF6FF73 		movw	r3, #65535
 3177 0010 3B82     		strh	r3, [r7, #16]	@ movhi
 752:.\DisplayBLL.c ****     fontdata._forecolor = 0x0000;
 3178              		.loc 1 752 0
 3179 0012 0023     		movs	r3, #0
 3180 0014 7B82     		strh	r3, [r7, #18]	@ movhi
 753:.\DisplayBLL.c ****     fontdata._opaquebackground = DISP_TEXT_OPAQUE;
 3181              		.loc 1 753 0
 3182 0016 C523     		movs	r3, #197
 3183 0018 BB73     		strb	r3, [r7, #14]
 754:.\DisplayBLL.c ****     //MOVE ALL OF THESE TEXTS TO THE EEPROM
 755:.\DisplayBLL.c ****     char8 *pmessage[] = 
 3184              		.loc 1 755 0
 3185 001a 4F4B     		ldr	r3, .L140
ARM GAS  C:\Users\RECEPC~1\AppData\Local\Temp\ccvg7Xyk.s 			page 71


 3186 001c BB60     		str	r3, [r7, #8]
 756:.\DisplayBLL.c ****     {
 757:.\DisplayBLL.c ****         "  PETICION DE AUTORIZACION RECHAZADA! ",
 758:.\DisplayBLL.c ****     };
 759:.\DisplayBLL.c ****     DisplayLayout *pdisplay = (DisplayLayout*)pparam;
 3187              		.loc 1 759 0
 3188 001e 7B68     		ldr	r3, [r7, #4]
 3189 0020 7B62     		str	r3, [r7, #36]
 760:.\DisplayBLL.c ****     if(pdisplay->_dispid == DISPLAY1)
 3190              		.loc 1 760 0
 3191 0022 7B6A     		ldr	r3, [r7, #36]
 3192 0024 1B78     		ldrb	r3, [r3]	@ zero_extendqisi2
 3193 0026 002B     		cmp	r3, #0
 3194 0028 4AD1     		bne	.L137
 3195              	.LBB44:
 761:.\DisplayBLL.c ****     {
 762:.\DisplayBLL.c ****         UARTMessage *puartdisp = GetUARTMessageSlot(UART_DISPLAY1);
 3196              		.loc 1 762 0
 3197 002a A320     		movs	r0, #163
 3198 002c FFF7FEFF 		bl	GetUARTMessageSlot
 3199 0030 3862     		str	r0, [r7, #32]
 763:.\DisplayBLL.c ****         if(puartdisp)
 3200              		.loc 1 763 0
 3201 0032 3B6A     		ldr	r3, [r7, #32]
 3202 0034 002B     		cmp	r3, #0
 3203 0036 42D0     		beq	.L138
 3204              	.LBB45:
 764:.\DisplayBLL.c ****         {
 765:.\DisplayBLL.c ****             uint8 index = 0;
 3205              		.loc 1 765 0
 3206 0038 0023     		movs	r3, #0
 3207 003a FB77     		strb	r3, [r7, #31]
 766:.\DisplayBLL.c ****             uint16 ypos = 0x00BA;
 3208              		.loc 1 766 0
 3209 003c BA23     		movs	r3, #186
 3210 003e BB83     		strh	r3, [r7, #28]	@ movhi
 767:.\DisplayBLL.c ****             puartdisp->_messagelength = 0;
 3211              		.loc 1 767 0
 3212 0040 3B6A     		ldr	r3, [r7, #32]
 3213 0042 0022     		movs	r2, #0
 3214 0044 5A80     		strh	r2, [r3, #2]	@ movhi
 768:.\DisplayBLL.c ****             puartdisp->_messagelength += DisplayOutputString(0x001A, ypos, &puartdisp->_messagetx[p
 3215              		.loc 1 768 0
 3216 0046 3B6A     		ldr	r3, [r7, #32]
 3217 0048 5B88     		ldrh	r3, [r3, #2]	@ movhi
 3218 004a 9BB2     		uxth	r3, r3
 3219 004c 1A46     		mov	r2, r3
 3220 004e 3B6A     		ldr	r3, [r7, #32]
 3221 0050 1344     		add	r3, r3, r2
 3222 0052 1D1D     		adds	r5, r3, #4
 3223 0054 FB7F     		ldrb	r3, [r7, #31]	@ zero_extendqisi2
 3224 0056 9B00     		lsls	r3, r3, #2
 3225 0058 07F12802 		add	r2, r7, #40
 3226 005c 1344     		add	r3, r3, r2
 3227 005e 53F8204C 		ldr	r4, [r3, #-32]
 3228 0062 FB7F     		ldrb	r3, [r7, #31]	@ zero_extendqisi2
 3229 0064 9B00     		lsls	r3, r3, #2
ARM GAS  C:\Users\RECEPC~1\AppData\Local\Temp\ccvg7Xyk.s 			page 72


 3230 0066 07F12802 		add	r2, r7, #40
 3231 006a 1344     		add	r3, r3, r2
 3232 006c 53F8203C 		ldr	r3, [r3, #-32]
 3233 0070 1846     		mov	r0, r3
 3234 0072 FFF7FEFF 		bl	strlen
 3235 0076 0346     		mov	r3, r0
 3236 0078 9BB2     		uxth	r3, r3
 3237 007a BE8B     		ldrh	r6, [r7, #28]
 3238 007c 0093     		str	r3, [sp]
 3239 007e 01AA     		add	r2, sp, #4
 3240 0080 07F10C03 		add	r3, r7, #12
 3241 0084 93E80300 		ldmia	r3, {r0, r1}
 3242 0088 82E80300 		stmia	r2, {r0, r1}
 3243 008c 1A20     		movs	r0, #26
 3244 008e 3146     		mov	r1, r6
 3245 0090 2A46     		mov	r2, r5
 3246 0092 2346     		mov	r3, r4
 3247 0094 FFF7FEFF 		bl	DisplayOutputString
 3248 0098 0346     		mov	r3, r0
 3249 009a 1A46     		mov	r2, r3
 3250 009c 3B6A     		ldr	r3, [r7, #32]
 3251 009e 5B88     		ldrh	r3, [r3, #2]	@ movhi
 3252 00a0 9BB2     		uxth	r3, r3
 3253 00a2 1344     		add	r3, r3, r2
 3254 00a4 9AB2     		uxth	r2, r3
 3255 00a6 3B6A     		ldr	r3, [r7, #32]
 3256 00a8 5A80     		strh	r2, [r3, #2]	@ movhi
 769:.\DisplayBLL.c ****             ypos += 0x0020;index++;
 3257              		.loc 1 769 0
 3258 00aa BB8B     		ldrh	r3, [r7, #28]	@ movhi
 3259 00ac 2033     		adds	r3, r3, #32
 3260 00ae BB83     		strh	r3, [r7, #28]	@ movhi
 3261 00b0 FB7F     		ldrb	r3, [r7, #31]	@ zero_extendqisi2
 3262 00b2 0133     		adds	r3, r3, #1
 3263 00b4 FB77     		strb	r3, [r7, #31]
 770:.\DisplayBLL.c **** 
 771:.\DisplayBLL.c ****             puartdisp->_messagestate = PENDING;
 3264              		.loc 1 771 0
 3265 00b6 3B6A     		ldr	r3, [r7, #32]
 3266 00b8 C222     		movs	r2, #194
 3267 00ba 1A70     		strb	r2, [r3]
 3268              	.LBE45:
 3269              	.LBE44:
 3270 00bc 49E0     		b	.L136
 3271              	.L138:
 3272 00be 48E0     		b	.L136
 3273              	.L137:
 3274              	.LBB46:
 772:.\DisplayBLL.c ****         }
 773:.\DisplayBLL.c ****     }
 774:.\DisplayBLL.c ****     else
 775:.\DisplayBLL.c ****     {
 776:.\DisplayBLL.c ****         UARTMessage *puartdisp = GetUARTMessageSlot(UART_DISPLAY2);
 3275              		.loc 1 776 0
 3276 00c0 A420     		movs	r0, #164
 3277 00c2 FFF7FEFF 		bl	GetUARTMessageSlot
 3278 00c6 B861     		str	r0, [r7, #24]
ARM GAS  C:\Users\RECEPC~1\AppData\Local\Temp\ccvg7Xyk.s 			page 73


 777:.\DisplayBLL.c ****         if(puartdisp)
 3279              		.loc 1 777 0
 3280 00c8 BB69     		ldr	r3, [r7, #24]
 3281 00ca 002B     		cmp	r3, #0
 3282 00cc 41D0     		beq	.L136
 3283              	.LBB47:
 778:.\DisplayBLL.c ****         {
 779:.\DisplayBLL.c ****             uint8 index = 0;
 3284              		.loc 1 779 0
 3285 00ce 0023     		movs	r3, #0
 3286 00d0 FB75     		strb	r3, [r7, #23]
 780:.\DisplayBLL.c ****             uint16 ypos = 0x00BA;
 3287              		.loc 1 780 0
 3288 00d2 BA23     		movs	r3, #186
 3289 00d4 BB82     		strh	r3, [r7, #20]	@ movhi
 781:.\DisplayBLL.c ****             puartdisp->_messagelength = 0;
 3290              		.loc 1 781 0
 3291 00d6 BB69     		ldr	r3, [r7, #24]
 3292 00d8 0022     		movs	r2, #0
 3293 00da 5A80     		strh	r2, [r3, #2]	@ movhi
 782:.\DisplayBLL.c ****             puartdisp->_messagelength += DisplayOutputString(0x001A, ypos, &puartdisp->_messagetx[p
 3294              		.loc 1 782 0
 3295 00dc BB69     		ldr	r3, [r7, #24]
 3296 00de 5B88     		ldrh	r3, [r3, #2]	@ movhi
 3297 00e0 9BB2     		uxth	r3, r3
 3298 00e2 1A46     		mov	r2, r3
 3299 00e4 BB69     		ldr	r3, [r7, #24]
 3300 00e6 1344     		add	r3, r3, r2
 3301 00e8 1D1D     		adds	r5, r3, #4
 3302 00ea FB7D     		ldrb	r3, [r7, #23]	@ zero_extendqisi2
 3303 00ec 9B00     		lsls	r3, r3, #2
 3304 00ee 07F12802 		add	r2, r7, #40
 3305 00f2 1344     		add	r3, r3, r2
 3306 00f4 53F8204C 		ldr	r4, [r3, #-32]
 3307 00f8 FB7D     		ldrb	r3, [r7, #23]	@ zero_extendqisi2
 3308 00fa 9B00     		lsls	r3, r3, #2
 3309 00fc 07F12802 		add	r2, r7, #40
 3310 0100 1344     		add	r3, r3, r2
 3311 0102 53F8203C 		ldr	r3, [r3, #-32]
 3312 0106 1846     		mov	r0, r3
 3313 0108 FFF7FEFF 		bl	strlen
 3314 010c 0346     		mov	r3, r0
 3315 010e 9BB2     		uxth	r3, r3
 3316 0110 BE8A     		ldrh	r6, [r7, #20]
 3317 0112 0093     		str	r3, [sp]
 3318 0114 01AA     		add	r2, sp, #4
 3319 0116 07F10C03 		add	r3, r7, #12
 3320 011a 93E80300 		ldmia	r3, {r0, r1}
 3321 011e 82E80300 		stmia	r2, {r0, r1}
 3322 0122 1A20     		movs	r0, #26
 3323 0124 3146     		mov	r1, r6
 3324 0126 2A46     		mov	r2, r5
 3325 0128 2346     		mov	r3, r4
 3326 012a FFF7FEFF 		bl	DisplayOutputString
 3327 012e 0346     		mov	r3, r0
 3328 0130 1A46     		mov	r2, r3
 3329 0132 BB69     		ldr	r3, [r7, #24]
ARM GAS  C:\Users\RECEPC~1\AppData\Local\Temp\ccvg7Xyk.s 			page 74


 3330 0134 5B88     		ldrh	r3, [r3, #2]	@ movhi
 3331 0136 9BB2     		uxth	r3, r3
 3332 0138 1344     		add	r3, r3, r2
 3333 013a 9AB2     		uxth	r2, r3
 3334 013c BB69     		ldr	r3, [r7, #24]
 3335 013e 5A80     		strh	r2, [r3, #2]	@ movhi
 783:.\DisplayBLL.c ****             ypos += 0x0020;index++;
 3336              		.loc 1 783 0
 3337 0140 BB8A     		ldrh	r3, [r7, #20]	@ movhi
 3338 0142 2033     		adds	r3, r3, #32
 3339 0144 BB82     		strh	r3, [r7, #20]	@ movhi
 3340 0146 FB7D     		ldrb	r3, [r7, #23]	@ zero_extendqisi2
 3341 0148 0133     		adds	r3, r3, #1
 3342 014a FB75     		strb	r3, [r7, #23]
 784:.\DisplayBLL.c ****             
 785:.\DisplayBLL.c ****             puartdisp->_messagestate = PENDING;
 3343              		.loc 1 785 0
 3344 014c BB69     		ldr	r3, [r7, #24]
 3345 014e C222     		movs	r2, #194
 3346 0150 1A70     		strb	r2, [r3]
 3347              	.L136:
 3348              	.LBE47:
 3349              	.LBE46:
 786:.\DisplayBLL.c ****         }
 787:.\DisplayBLL.c ****     }
 788:.\DisplayBLL.c **** }
 3350              		.loc 1 788 0
 3351 0152 2C37     		adds	r7, r7, #44
 3352              		.cfi_def_cfa_offset 20
 3353 0154 BD46     		mov	sp, r7
 3354              		.cfi_def_cfa_register 13
 3355              		@ sp needed
 3356 0156 F0BD     		pop	{r4, r5, r6, r7, pc}
 3357              	.L141:
 3358              		.align	2
 3359              	.L140:
 3360 0158 28010000 		.word	.LC17
 3361              		.cfi_endproc
 3362              	.LFE74:
 3363              		.size	RejectedAuthorizationMessageDecorator, .-RejectedAuthorizationMessageDecorator
 3364              		.section	.text.SendAuthorizationRequest4Credit,"ax",%progbits
 3365              		.align	2
 3366              		.global	SendAuthorizationRequest4Credit
 3367              		.thumb
 3368              		.thumb_func
 3369              		.type	SendAuthorizationRequest4Credit, %function
 3370              	SendAuthorizationRequest4Credit:
 3371              	.LFB75:
 789:.\DisplayBLL.c **** 
 790:.\DisplayBLL.c **** void SendAuthorizationRequest4Credit(LPVOID pparam)
 791:.\DisplayBLL.c **** {
 3372              		.loc 1 791 0
 3373              		.cfi_startproc
 3374              		@ args = 0, pretend = 0, frame = 32
 3375              		@ frame_needed = 1, uses_anonymous_args = 0
 3376 0000 B0B5     		push	{r4, r5, r7, lr}
 3377              		.cfi_def_cfa_offset 16
ARM GAS  C:\Users\RECEPC~1\AppData\Local\Temp\ccvg7Xyk.s 			page 75


 3378              		.cfi_offset 4, -16
 3379              		.cfi_offset 5, -12
 3380              		.cfi_offset 7, -8
 3381              		.cfi_offset 14, -4
 3382 0002 88B0     		sub	sp, sp, #32
 3383              		.cfi_def_cfa_offset 48
 3384 0004 00AF     		add	r7, sp, #0
 3385              		.cfi_def_cfa_register 7
 3386 0006 7860     		str	r0, [r7, #4]
 792:.\DisplayBLL.c ****     PDISPLAYLAYOUTPTR pdisplay = (PDISPLAYLAYOUTPTR)pparam;
 3387              		.loc 1 792 0
 3388 0008 7B68     		ldr	r3, [r7, #4]
 3389 000a BB61     		str	r3, [r7, #24]
 793:.\DisplayBLL.c ****     //HERE WE ATTEMPT TO PUSH THE TRANSACTION INTO THE PUMP'S TRANSACTIONAL QUEUE.
 794:.\DisplayBLL.c ****     //THIS IS DONE ONLY IF THERE IS ROOM IN THE QUEUE, OTHERWISE THIS STATE WON'T
 795:.\DisplayBLL.c ****     //BE REPORTED TO THE REMOTE PEER.
 796:.\DisplayBLL.c ****     PNEAR_PUMPPTR ppumpptr = &_g_pumps[GetPumpIndexFromDisplay(pdisplay)];
 3390              		.loc 1 796 0
 3391 000c B869     		ldr	r0, [r7, #24]
 3392 000e FFF7FEFF 		bl	GetPumpIndexFromDisplay
 3393 0012 0346     		mov	r3, r0
 3394 0014 1A46     		mov	r2, r3
 3395 0016 4FF41963 		mov	r3, #2448
 3396 001a 03FB02F3 		mul	r3, r3, r2
 3397 001e 844A     		ldr	r2, .L149
 3398 0020 1344     		add	r3, r3, r2
 3399 0022 7B61     		str	r3, [r7, #20]
 797:.\DisplayBLL.c ****     
 798:.\DisplayBLL.c ****     #ifndef _ALLOW_CREDIT_SALE_TESTING_
 799:.\DisplayBLL.c ****     ppumpptr->PumpTransQueueLock(ppumpptr);
 3400              		.loc 1 799 0
 3401 0024 7B69     		ldr	r3, [r7, #20]
 3402 0026 D3F80C39 		ldr	r3, [r3, #2316]
 3403 002a 7869     		ldr	r0, [r7, #20]
 3404 002c 9847     		blx	r3
 800:.\DisplayBLL.c ****     PNEAR_PUMPTRANSACTIONALSTATEPTR pts = ppumpptr->PumpTransQueueAllocate(ppumpptr);
 3405              		.loc 1 800 0
 3406 002e 7B69     		ldr	r3, [r7, #20]
 3407 0030 D3F82039 		ldr	r3, [r3, #2336]
 3408 0034 7869     		ldr	r0, [r7, #20]
 3409 0036 9847     		blx	r3
 3410 0038 3861     		str	r0, [r7, #16]
 801:.\DisplayBLL.c ****     ppumpptr->PumpTransQueueUnlock(ppumpptr);
 3411              		.loc 1 801 0
 3412 003a 7B69     		ldr	r3, [r7, #20]
 3413 003c D3F81039 		ldr	r3, [r3, #2320]
 3414 0040 7869     		ldr	r0, [r7, #20]
 3415 0042 9847     		blx	r3
 802:.\DisplayBLL.c ****     if(pts)
 3416              		.loc 1 802 0
 3417 0044 3B69     		ldr	r3, [r7, #16]
 3418 0046 002B     		cmp	r3, #0
 3419 0048 00F0EE80 		beq	.L142
 3420              	.LBB48:
 803:.\DisplayBLL.c ****     {
 804:.\DisplayBLL.c ****         
 805:.\DisplayBLL.c ****         uint8 index = 0;
ARM GAS  C:\Users\RECEPC~1\AppData\Local\Temp\ccvg7Xyk.s 			page 76


 3421              		.loc 1 805 0
 3422 004c 0023     		movs	r3, #0
 3423 004e FB77     		strb	r3, [r7, #31]
 806:.\DisplayBLL.c ****         pts->_transtate = RF_MUX_CREDIT_SERIAL_AUTH_RESPONSE;
 3424              		.loc 1 806 0
 3425 0050 3B69     		ldr	r3, [r7, #16]
 3426 0052 A222     		movs	r2, #162
 3427 0054 5A70     		strb	r2, [r3, #1]
 807:.\DisplayBLL.c ****         //Pump ID always comes in the first position (0x00)
 808:.\DisplayBLL.c ****         pts->_buffer[index++] = ppumpptr->_pumpid;
 3428              		.loc 1 808 0
 3429 0056 FB7F     		ldrb	r3, [r7, #31]	@ zero_extendqisi2
 3430 0058 5A1C     		adds	r2, r3, #1
 3431 005a FA77     		strb	r2, [r7, #31]
 3432 005c 1946     		mov	r1, r3
 3433 005e 7B69     		ldr	r3, [r7, #20]
 3434 0060 1A78     		ldrb	r2, [r3]	@ zero_extendqisi2
 3435 0062 3B69     		ldr	r3, [r7, #16]
 3436 0064 0B44     		add	r3, r3, r1
 3437 0066 9A70     		strb	r2, [r3, #2]
 809:.\DisplayBLL.c ****         //This is the Hose ID
 810:.\DisplayBLL.c ****         pts->_buffer[index++] = ((PSINKMESSAGEPTR)pdisplay->_psequesteredmessagesink)->_buffer[GetB
 3438              		.loc 1 810 0
 3439 0068 FB7F     		ldrb	r3, [r7, #31]	@ zero_extendqisi2
 3440 006a 5A1C     		adds	r2, r3, #1
 3441 006c FA77     		strb	r2, [r7, #31]
 3442 006e 1D46     		mov	r5, r3
 3443 0070 BB69     		ldr	r3, [r7, #24]
 3444 0072 1C6B     		ldr	r4, [r3, #48]
 3445 0074 0720     		movs	r0, #7
 3446 0076 FFF7FEFF 		bl	GetBufferIndexFromDisplayID
 3447 007a 0346     		mov	r3, r0
 3448 007c 2344     		add	r3, r3, r4
 3449 007e 1A7B     		ldrb	r2, [r3, #12]	@ zero_extendqisi2
 3450 0080 3B69     		ldr	r3, [r7, #16]
 3451 0082 2B44     		add	r3, r3, r5
 3452 0084 9A70     		strb	r2, [r3, #2]
 811:.\DisplayBLL.c ****         //This is the Serial (iButton) data
 812:.\DisplayBLL.c ****         memcpy(&pts->_buffer[index], &((PSINKMESSAGEPTR)pdisplay->_psequesteredmessagesink)->_buffe
 3453              		.loc 1 812 0
 3454 0086 FB7F     		ldrb	r3, [r7, #31]	@ zero_extendqisi2
 3455 0088 3A69     		ldr	r2, [r7, #16]
 3456 008a 1344     		add	r3, r3, r2
 3457 008c 9D1C     		adds	r5, r3, #2
 3458 008e BB69     		ldr	r3, [r7, #24]
 3459 0090 1C6B     		ldr	r4, [r3, #48]
 3460 0092 1220     		movs	r0, #18
 3461 0094 FFF7FEFF 		bl	GetBufferIndexFromDisplayID
 3462 0098 0346     		mov	r3, r0
 3463 009a 0833     		adds	r3, r3, #8
 3464 009c 2344     		add	r3, r3, r4
 3465 009e 1C1D     		adds	r4, r3, #4
 3466 00a0 1220     		movs	r0, #18
 3467 00a2 FFF7FEFF 		bl	GetBufferLengthFromDisplayID
 3468 00a6 0346     		mov	r3, r0
 3469 00a8 2846     		mov	r0, r5
 3470 00aa 2146     		mov	r1, r4
ARM GAS  C:\Users\RECEPC~1\AppData\Local\Temp\ccvg7Xyk.s 			page 77


 3471 00ac 1A46     		mov	r2, r3
 3472 00ae FFF7FEFF 		bl	memcpy
 813:.\DisplayBLL.c ****         PSTRBUFFTOGG((PNEAR_BYTE_PTR)&pts->_buffer[index], GetBufferLengthFromDisplayID(DISPLAY_ESP
 3473              		.loc 1 813 0
 3474 00b2 FB7F     		ldrb	r3, [r7, #31]	@ zero_extendqisi2
 3475 00b4 3A69     		ldr	r2, [r7, #16]
 3476 00b6 1344     		add	r3, r3, r2
 3477 00b8 9C1C     		adds	r4, r3, #2
 3478 00ba 1220     		movs	r0, #18
 3479 00bc FFF7FEFF 		bl	GetBufferLengthFromDisplayID
 3480 00c0 0346     		mov	r3, r0
 3481 00c2 2046     		mov	r0, r4
 3482 00c4 1946     		mov	r1, r3
 3483 00c6 FFF7FEFF 		bl	PSTRBUFFTOGG
 814:.\DisplayBLL.c ****         index += GetBufferLengthFromDisplayID(DISPLAY_ESPERANDO_ID);
 3484              		.loc 1 814 0
 3485 00ca 1220     		movs	r0, #18
 3486 00cc FFF7FEFF 		bl	GetBufferLengthFromDisplayID
 3487 00d0 0346     		mov	r3, r0
 3488 00d2 1A46     		mov	r2, r3
 3489 00d4 FB7F     		ldrb	r3, [r7, #31]
 3490 00d6 1344     		add	r3, r3, r2
 3491 00d8 FB77     		strb	r3, [r7, #31]
 815:.\DisplayBLL.c ****         //This is the milleage
 816:.\DisplayBLL.c ****         //PSTRBUFFTOGG((PNEAR_BYTE_PTR)&((PSINKMESSAGEPTR)pdisplay->_psequesteredmessagesink)->_buf
 817:.\DisplayBLL.c ****         index += 0x01;//Since the allocated buffer space for the milleage is 10 bytes length
 3492              		.loc 1 817 0
 3493 00da FB7F     		ldrb	r3, [r7, #31]
 3494 00dc 0133     		adds	r3, r3, #1
 3495 00de FB77     		strb	r3, [r7, #31]
 818:.\DisplayBLL.c ****         memcpy(&pts->_buffer[index], &((PSINKMESSAGEPTR)pdisplay->_psequesteredmessagesink)->_buffe
 3496              		.loc 1 818 0
 3497 00e0 FB7F     		ldrb	r3, [r7, #31]	@ zero_extendqisi2
 3498 00e2 3A69     		ldr	r2, [r7, #16]
 3499 00e4 1344     		add	r3, r3, r2
 3500 00e6 9D1C     		adds	r5, r3, #2
 3501 00e8 BB69     		ldr	r3, [r7, #24]
 3502 00ea 1C6B     		ldr	r4, [r3, #48]
 3503 00ec 0E20     		movs	r0, #14
 3504 00ee FFF7FEFF 		bl	GetBufferIndexFromDisplayID
 3505 00f2 0346     		mov	r3, r0
 3506 00f4 0833     		adds	r3, r3, #8
 3507 00f6 2344     		add	r3, r3, r4
 3508 00f8 1C1D     		adds	r4, r3, #4
 3509 00fa 0E20     		movs	r0, #14
 3510 00fc FFF7FEFF 		bl	GetBufferLengthFromDisplayID
 3511 0100 0346     		mov	r3, r0
 3512 0102 2846     		mov	r0, r5
 3513 0104 2146     		mov	r1, r4
 3514 0106 1A46     		mov	r2, r3
 3515 0108 FFF7FEFF 		bl	memcpy
 819:.\DisplayBLL.c ****         PSTRBUFFTOGG((PNEAR_BYTE_PTR)&pts->_buffer[index], GetBufferLengthFromDisplayID(DISPLAY_INT
 3516              		.loc 1 819 0
 3517 010c FB7F     		ldrb	r3, [r7, #31]	@ zero_extendqisi2
 3518 010e 3A69     		ldr	r2, [r7, #16]
 3519 0110 1344     		add	r3, r3, r2
 3520 0112 9C1C     		adds	r4, r3, #2
ARM GAS  C:\Users\RECEPC~1\AppData\Local\Temp\ccvg7Xyk.s 			page 78


 3521 0114 0E20     		movs	r0, #14
 3522 0116 FFF7FEFF 		bl	GetBufferLengthFromDisplayID
 3523 011a 0346     		mov	r3, r0
 3524 011c 2046     		mov	r0, r4
 3525 011e 1946     		mov	r1, r3
 3526 0120 FFF7FEFF 		bl	PSTRBUFFTOGG
 820:.\DisplayBLL.c ****         index += GetBufferLengthFromDisplayID(DISPLAY_INTRODUZCA_KILOMETRAJE);
 3527              		.loc 1 820 0
 3528 0124 0E20     		movs	r0, #14
 3529 0126 FFF7FEFF 		bl	GetBufferLengthFromDisplayID
 3530 012a 0346     		mov	r3, r0
 3531 012c 1A46     		mov	r2, r3
 3532 012e FB7F     		ldrb	r3, [r7, #31]
 3533 0130 1344     		add	r3, r3, r2
 3534 0132 FB77     		strb	r3, [r7, #31]
 821:.\DisplayBLL.c **** 
 822:.\DisplayBLL.c ****         //Program mode (Money / Volume)
 823:.\DisplayBLL.c ****         uint8 value = ((PSINKMESSAGEPTR)pdisplay->_psequesteredmessagesink)->_buffer[GetBufferIndex
 3535              		.loc 1 823 0
 3536 0134 BB69     		ldr	r3, [r7, #24]
 3537 0136 1C6B     		ldr	r4, [r3, #48]
 3538 0138 0520     		movs	r0, #5
 3539 013a FFF7FEFF 		bl	GetBufferIndexFromDisplayID
 3540 013e 0346     		mov	r3, r0
 3541 0140 2344     		add	r3, r3, r4
 3542 0142 1B7B     		ldrb	r3, [r3, #12]
 3543 0144 FB73     		strb	r3, [r7, #15]
 824:.\DisplayBLL.c ****         switch(value)
 3544              		.loc 1 824 0
 3545 0146 FB7B     		ldrb	r3, [r7, #15]	@ zero_extendqisi2
 3546 0148 102B     		cmp	r3, #16
 3547 014a 0CD0     		beq	.L145
 3548 014c 432B     		cmp	r3, #67
 3549 014e 13D0     		beq	.L146
 3550 0150 0F2B     		cmp	r3, #15
 3551 0152 1AD1     		bne	.L144
 825:.\DisplayBLL.c ****         {
 826:.\DisplayBLL.c ****             case 0x0F:
 827:.\DisplayBLL.c ****             pts->_buffer[index++] = 0x02;//Money Preset
 3552              		.loc 1 827 0
 3553 0154 FB7F     		ldrb	r3, [r7, #31]	@ zero_extendqisi2
 3554 0156 5A1C     		adds	r2, r3, #1
 3555 0158 FA77     		strb	r2, [r7, #31]
 3556 015a 1A46     		mov	r2, r3
 3557 015c 3B69     		ldr	r3, [r7, #16]
 3558 015e 1344     		add	r3, r3, r2
 3559 0160 0222     		movs	r2, #2
 3560 0162 9A70     		strb	r2, [r3, #2]
 828:.\DisplayBLL.c ****             break;
 3561              		.loc 1 828 0
 3562 0164 11E0     		b	.L144
 3563              	.L145:
 829:.\DisplayBLL.c ****             case 0x10:
 830:.\DisplayBLL.c ****             pts->_buffer[index++] = 0x01;//Volume Preset
 3564              		.loc 1 830 0
 3565 0166 FB7F     		ldrb	r3, [r7, #31]	@ zero_extendqisi2
 3566 0168 5A1C     		adds	r2, r3, #1
ARM GAS  C:\Users\RECEPC~1\AppData\Local\Temp\ccvg7Xyk.s 			page 79


 3567 016a FA77     		strb	r2, [r7, #31]
 3568 016c 1A46     		mov	r2, r3
 3569 016e 3B69     		ldr	r3, [r7, #16]
 3570 0170 1344     		add	r3, r3, r2
 3571 0172 0122     		movs	r2, #1
 3572 0174 9A70     		strb	r2, [r3, #2]
 831:.\DisplayBLL.c ****             break;
 3573              		.loc 1 831 0
 3574 0176 08E0     		b	.L144
 3575              	.L146:
 832:.\DisplayBLL.c ****             case 0x43:
 833:.\DisplayBLL.c ****             pts->_buffer[index++] = 0x03;//Full Preset
 3576              		.loc 1 833 0
 3577 0178 FB7F     		ldrb	r3, [r7, #31]	@ zero_extendqisi2
 3578 017a 5A1C     		adds	r2, r3, #1
 3579 017c FA77     		strb	r2, [r7, #31]
 3580 017e 1A46     		mov	r2, r3
 3581 0180 3B69     		ldr	r3, [r7, #16]
 3582 0182 1344     		add	r3, r3, r2
 3583 0184 0322     		movs	r2, #3
 3584 0186 9A70     		strb	r2, [r3, #2]
 834:.\DisplayBLL.c ****             break;
 3585              		.loc 1 834 0
 3586 0188 00BF     		nop
 3587              	.L144:
 835:.\DisplayBLL.c ****         }
 836:.\DisplayBLL.c ****         
 837:.\DisplayBLL.c ****         //Value for the selected program mode
 838:.\DisplayBLL.c ****         memcpy(&pts->_buffer[index], &((PSINKMESSAGEPTR)pdisplay->_psequesteredmessagesink)->_buffe
 3588              		.loc 1 838 0
 3589 018a FB7F     		ldrb	r3, [r7, #31]	@ zero_extendqisi2
 3590 018c 3A69     		ldr	r2, [r7, #16]
 3591 018e 1344     		add	r3, r3, r2
 3592 0190 9D1C     		adds	r5, r3, #2
 3593 0192 BB69     		ldr	r3, [r7, #24]
 3594 0194 1C6B     		ldr	r4, [r3, #48]
 3595 0196 0620     		movs	r0, #6
 3596 0198 FFF7FEFF 		bl	GetBufferIndexFromDisplayID
 3597 019c 0346     		mov	r3, r0
 3598 019e 0833     		adds	r3, r3, #8
 3599 01a0 2344     		add	r3, r3, r4
 3600 01a2 0433     		adds	r3, r3, #4
 3601 01a4 2846     		mov	r0, r5
 3602 01a6 1946     		mov	r1, r3
 3603 01a8 0822     		movs	r2, #8
 3604 01aa FFF7FEFF 		bl	memcpy
 839:.\DisplayBLL.c ****         if(value == 0x10)
 3605              		.loc 1 839 0
 3606 01ae FB7B     		ldrb	r3, [r7, #15]	@ zero_extendqisi2
 3607 01b0 102B     		cmp	r3, #16
 3608 01b2 07D1     		bne	.L148
 840:.\DisplayBLL.c ****             CastCreditVolumeValue(&pts->_buffer[index], 0x08);
 3609              		.loc 1 840 0
 3610 01b4 FB7F     		ldrb	r3, [r7, #31]	@ zero_extendqisi2
 3611 01b6 3A69     		ldr	r2, [r7, #16]
 3612 01b8 1344     		add	r3, r3, r2
 3613 01ba 0233     		adds	r3, r3, #2
ARM GAS  C:\Users\RECEPC~1\AppData\Local\Temp\ccvg7Xyk.s 			page 80


 3614 01bc 1846     		mov	r0, r3
 3615 01be 0821     		movs	r1, #8
 3616 01c0 FFF7FEFF 		bl	CastCreditVolumeValue
 3617              	.L148:
 841:.\DisplayBLL.c ****         
 842:.\DisplayBLL.c ****         PSTRBUFFTOGG((PNEAR_BYTE_PTR)&pts->_buffer[index], 0x08);
 3618              		.loc 1 842 0
 3619 01c4 FB7F     		ldrb	r3, [r7, #31]	@ zero_extendqisi2
 3620 01c6 3A69     		ldr	r2, [r7, #16]
 3621 01c8 1344     		add	r3, r3, r2
 3622 01ca 0233     		adds	r3, r3, #2
 3623 01cc 1846     		mov	r0, r3
 3624 01ce 0821     		movs	r1, #8
 3625 01d0 FFF7FEFF 		bl	PSTRBUFFTOGG
 843:.\DisplayBLL.c ****         index += 0x08;
 3626              		.loc 1 843 0
 3627 01d4 FB7F     		ldrb	r3, [r7, #31]
 3628 01d6 0833     		adds	r3, r3, #8
 3629 01d8 FB77     		strb	r3, [r7, #31]
 844:.\DisplayBLL.c **** 
 845:.\DisplayBLL.c ****         memset(&((PSINKMESSAGEPTR)pdisplay->_psequesteredmessagesink)->_buffer[GetBufferIndexFromDi
 3630              		.loc 1 845 0
 3631 01da BB69     		ldr	r3, [r7, #24]
 3632 01dc 1C6B     		ldr	r4, [r3, #48]
 3633 01de 0620     		movs	r0, #6
 3634 01e0 FFF7FEFF 		bl	GetBufferIndexFromDisplayID
 3635 01e4 0346     		mov	r3, r0
 3636 01e6 0833     		adds	r3, r3, #8
 3637 01e8 2344     		add	r3, r3, r4
 3638 01ea 0433     		adds	r3, r3, #4
 3639 01ec 1846     		mov	r0, r3
 3640 01ee 0021     		movs	r1, #0
 3641 01f0 0822     		movs	r2, #8
 3642 01f2 FFF7FEFF 		bl	memset
 846:.\DisplayBLL.c ****         
 847:.\DisplayBLL.c ****         pts->_buffersize = index;
 3643              		.loc 1 847 0
 3644 01f6 FB7F     		ldrb	r3, [r7, #31]	@ zero_extendqisi2
 3645 01f8 9AB2     		uxth	r2, r3
 3646 01fa 3B69     		ldr	r3, [r7, #16]
 3647 01fc A3F80221 		strh	r2, [r3, #258]	@ movhi
 848:.\DisplayBLL.c ****         //This flag will be checked to inquiry about the authorization state.
 849:.\DisplayBLL.c ****         ppumpptr->_authorizationinfo._authorized = false;
 3648              		.loc 1 849 0
 3649 0200 7B69     		ldr	r3, [r7, #20]
 3650 0202 0022     		movs	r2, #0
 3651 0204 83F87029 		strb	r2, [r3, #2416]
 850:.\DisplayBLL.c ****         
 851:.\DisplayBLL.c ****         ppumpptr->PumpTransQueueLock(ppumpptr);
 3652              		.loc 1 851 0
 3653 0208 7B69     		ldr	r3, [r7, #20]
 3654 020a D3F80C39 		ldr	r3, [r3, #2316]
 3655 020e 7869     		ldr	r0, [r7, #20]
 3656 0210 9847     		blx	r3
 852:.\DisplayBLL.c ****         ppumpptr->PumpTransQueueEnqueue(ppumpptr, pts);
 3657              		.loc 1 852 0
 3658 0212 7B69     		ldr	r3, [r7, #20]
ARM GAS  C:\Users\RECEPC~1\AppData\Local\Temp\ccvg7Xyk.s 			page 81


 3659 0214 D3F81839 		ldr	r3, [r3, #2328]
 3660 0218 7869     		ldr	r0, [r7, #20]
 3661 021a 3969     		ldr	r1, [r7, #16]
 3662 021c 9847     		blx	r3
 853:.\DisplayBLL.c ****         ppumpptr->PumpTransQueueUnlock(ppumpptr);
 3663              		.loc 1 853 0
 3664 021e 7B69     		ldr	r3, [r7, #20]
 3665 0220 D3F81039 		ldr	r3, [r3, #2320]
 3666 0224 7869     		ldr	r0, [r7, #20]
 3667 0226 9847     		blx	r3
 3668              	.L142:
 3669              	.LBE48:
 854:.\DisplayBLL.c ****     }
 855:.\DisplayBLL.c ****     #endif
 856:.\DisplayBLL.c ****     
 857:.\DisplayBLL.c ****     #ifdef _ALLOW_CREDIT_SALE_TESTING_
 858:.\DisplayBLL.c ****     //Authorization information
 859:.\DisplayBLL.c ****     ppumpptr->_authorizationinfo._authorized = true;
 860:.\DisplayBLL.c **** 
 861:.\DisplayBLL.c ****     //See the protocol description file to understand the applied indexes 
 862:.\DisplayBLL.c ****     ppumpptr->_authorizationinfo._presettype = 0x02;
 863:.\DisplayBLL.c ****     ppumpptr->_authorizationinfo._presetamount  = 0x3DB8;
 864:.\DisplayBLL.c ****     ppumpptr->_authorizationinfo._hoseid = ((PSINKMESSAGEPTR)pdisplay->_psequesteredmessagesink)->_
 865:.\DisplayBLL.c ****     
 866:.\DisplayBLL.c ****     uint16 price = 9550;
 867:.\DisplayBLL.c ****     if(_g_dispenserlayoutinfo._moneydecimals == 0x03 && _g_dispenserlayoutinfo._ppudecimals == 0x02
 868:.\DisplayBLL.c ****         ppumpptr->_authorizationinfo._price = price / 10;
 869:.\DisplayBLL.c ****     else
 870:.\DisplayBLL.c ****         ppumpptr->_authorizationinfo._price = price;
 871:.\DisplayBLL.c ****                     
 872:.\DisplayBLL.c ****     if(pdisplay)
 873:.\DisplayBLL.c ****     {
 874:.\DisplayBLL.c ****         if(ppumpptr->_authorizationinfo._authorized)
 875:.\DisplayBLL.c ****             pdisplay->_currentstate = DISPLAY_CREDIT_AUTHORIZATION_ACCEPTED;
 876:.\DisplayBLL.c ****     }
 877:.\DisplayBLL.c ****     #endif
 878:.\DisplayBLL.c **** }
 3670              		.loc 1 878 0
 3671 0228 2037     		adds	r7, r7, #32
 3672              		.cfi_def_cfa_offset 16
 3673 022a BD46     		mov	sp, r7
 3674              		.cfi_def_cfa_register 13
 3675              		@ sp needed
 3676 022c B0BD     		pop	{r4, r5, r7, pc}
 3677              	.L150:
 3678 022e 00BF     		.align	2
 3679              	.L149:
 3680 0230 00000000 		.word	_g_pumps
 3681              		.cfi_endproc
 3682              	.LFE75:
 3683              		.size	SendAuthorizationRequest4Credit, .-SendAuthorizationRequest4Credit
 3684              		.section	.text.ValidateAuthorizationResponse4Credit,"ax",%progbits
 3685              		.align	2
 3686              		.global	ValidateAuthorizationResponse4Credit
 3687              		.thumb
 3688              		.thumb_func
 3689              		.type	ValidateAuthorizationResponse4Credit, %function
ARM GAS  C:\Users\RECEPC~1\AppData\Local\Temp\ccvg7Xyk.s 			page 82


 3690              	ValidateAuthorizationResponse4Credit:
 3691              	.LFB76:
 879:.\DisplayBLL.c **** 
 880:.\DisplayBLL.c **** void ValidateAuthorizationResponse4Credit(LPVOID pparam)
 881:.\DisplayBLL.c **** {
 3692              		.loc 1 881 0
 3693              		.cfi_startproc
 3694              		@ args = 0, pretend = 0, frame = 16
 3695              		@ frame_needed = 1, uses_anonymous_args = 0
 3696 0000 90B5     		push	{r4, r7, lr}
 3697              		.cfi_def_cfa_offset 12
 3698              		.cfi_offset 4, -12
 3699              		.cfi_offset 7, -8
 3700              		.cfi_offset 14, -4
 3701 0002 85B0     		sub	sp, sp, #20
 3702              		.cfi_def_cfa_offset 32
 3703 0004 00AF     		add	r7, sp, #0
 3704              		.cfi_def_cfa_register 7
 3705 0006 7860     		str	r0, [r7, #4]
 882:.\DisplayBLL.c ****     PDISPLAYLAYOUTPTR pdisplay = (PDISPLAYLAYOUTPTR)pparam;
 3706              		.loc 1 882 0
 3707 0008 7B68     		ldr	r3, [r7, #4]
 3708 000a FB60     		str	r3, [r7, #12]
 883:.\DisplayBLL.c ****     PNEAR_PUMPPTR ppumpptr = &_g_pumps[GetPumpIndexFromDisplay(pdisplay)];
 3709              		.loc 1 883 0
 3710 000c F868     		ldr	r0, [r7, #12]
 3711 000e FFF7FEFF 		bl	GetPumpIndexFromDisplay
 3712 0012 0346     		mov	r3, r0
 3713 0014 1A46     		mov	r2, r3
 3714 0016 4FF41963 		mov	r3, #2448
 3715 001a 03FB02F3 		mul	r3, r3, r2
 3716 001e 1C4A     		ldr	r2, .L154
 3717 0020 1344     		add	r3, r3, r2
 3718 0022 BB60     		str	r3, [r7, #8]
 884:.\DisplayBLL.c ****     if(ppumpptr->_authorizationinfo._authorized)
 3719              		.loc 1 884 0
 3720 0024 BB68     		ldr	r3, [r7, #8]
 3721 0026 93F87039 		ldrb	r3, [r3, #2416]
 3722 002a DBB2     		uxtb	r3, r3
 3723 002c 002B     		cmp	r3, #0
 3724 002e 28D0     		beq	.L152
 885:.\DisplayBLL.c ****     {
 886:.\DisplayBLL.c ****         //THE AUTHORIZATION INFORMATION IS READY IN THE "PUMPAUTHORIZATIONINFO" STRUCTURE
 887:.\DisplayBLL.c ****         //SO HERE WE ONLY NEED TO CONTINUE THE "DISPLAY FLOW" TO ITS END AND THEN POST THE
 888:.\DisplayBLL.c ****         //INFORMATION TO THE "PRIME FLOW".        
 889:.\DisplayBLL.c ****         ppumpptr->_authorizationinfo._authorized = false;
 3725              		.loc 1 889 0
 3726 0030 BB68     		ldr	r3, [r7, #8]
 3727 0032 0022     		movs	r2, #0
 3728 0034 83F87029 		strb	r2, [r3, #2416]
 890:.\DisplayBLL.c ****         //Select printing the default number of copies        
 891:.\DisplayBLL.c ****         memset(&((PSINKMESSAGEPTR)pdisplay->_psequesteredmessagesink)->_buffer[GetBufferIndexFromDi
 3729              		.loc 1 891 0
 3730 0038 FB68     		ldr	r3, [r7, #12]
 3731 003a 1C6B     		ldr	r4, [r3, #48]
 3732 003c 0B20     		movs	r0, #11
 3733 003e FFF7FEFF 		bl	GetBufferIndexFromDisplayID
ARM GAS  C:\Users\RECEPC~1\AppData\Local\Temp\ccvg7Xyk.s 			page 83


 3734 0042 0346     		mov	r3, r0
 3735 0044 0833     		adds	r3, r3, #8
 3736 0046 2344     		add	r3, r3, r4
 3737 0048 1C1D     		adds	r4, r3, #4
 3738 004a 0B20     		movs	r0, #11
 3739 004c FFF7FEFF 		bl	GetBufferLengthFromDisplayID
 3740 0050 0346     		mov	r3, r0
 3741 0052 2046     		mov	r0, r4
 3742 0054 0021     		movs	r1, #0
 3743 0056 1A46     		mov	r2, r3
 3744 0058 FFF7FEFF 		bl	memset
 892:.\DisplayBLL.c ****         ((PSINKMESSAGEPTR)pdisplay->_psequesteredmessagesink)->_buffer[GetBufferIndexFromDisplayID(
 3745              		.loc 1 892 0
 3746 005c FB68     		ldr	r3, [r7, #12]
 3747 005e 1C6B     		ldr	r4, [r3, #48]
 3748 0060 0B20     		movs	r0, #11
 3749 0062 FFF7FEFF 		bl	GetBufferIndexFromDisplayID
 3750 0066 0346     		mov	r3, r0
 3751 0068 2344     		add	r3, r3, r4
 3752 006a 3922     		movs	r2, #57
 3753 006c 1A73     		strb	r2, [r3, #12]
 893:.\DisplayBLL.c ****         ((PSINKMESSAGEPTR)pdisplay->_psequesteredmessagesink)->_buffer[GetBufferIndexFromDisplayID(
 3754              		.loc 1 893 0
 3755 006e FB68     		ldr	r3, [r7, #12]
 3756 0070 1C6B     		ldr	r4, [r3, #48]
 3757 0072 0520     		movs	r0, #5
 3758 0074 FFF7FEFF 		bl	GetBufferIndexFromDisplayID
 3759 0078 0346     		mov	r3, r0
 3760 007a 2344     		add	r3, r3, r4
 3761 007c 4422     		movs	r2, #68
 3762 007e 1A73     		strb	r2, [r3, #12]
 3763 0080 02E0     		b	.L151
 3764              	.L152:
 894:.\DisplayBLL.c ****         
 895:.\DisplayBLL.c ****     }else//If no authorization has been acquired, then return to IDLE state
 896:.\DisplayBLL.c ****         ppumpptr->_pumprftransstate = RF_IDLE;
 3765              		.loc 1 896 0
 3766 0082 BB68     		ldr	r3, [r7, #8]
 3767 0084 0822     		movs	r2, #8
 3768 0086 9A73     		strb	r2, [r3, #14]
 3769              	.L151:
 897:.\DisplayBLL.c **** }
 3770              		.loc 1 897 0
 3771 0088 1437     		adds	r7, r7, #20
 3772              		.cfi_def_cfa_offset 12
 3773 008a BD46     		mov	sp, r7
 3774              		.cfi_def_cfa_register 13
 3775              		@ sp needed
 3776 008c 90BD     		pop	{r4, r7, pc}
 3777              	.L155:
 3778 008e 00BF     		.align	2
 3779              	.L154:
 3780 0090 00000000 		.word	_g_pumps
 3781              		.cfi_endproc
 3782              	.LFE76:
 3783              		.size	ValidateAuthorizationResponse4Credit, .-ValidateAuthorizationResponse4Credit
 3784              		.section	.text.HoseValidationCallback,"ax",%progbits
ARM GAS  C:\Users\RECEPC~1\AppData\Local\Temp\ccvg7Xyk.s 			page 84


 3785              		.align	2
 3786              		.global	HoseValidationCallback
 3787              		.thumb
 3788              		.thumb_func
 3789              		.type	HoseValidationCallback, %function
 3790              	HoseValidationCallback:
 3791              	.LFB77:
 898:.\DisplayBLL.c **** 
 899:.\DisplayBLL.c **** void HoseValidationCallback(LPVOID pparam)
 900:.\DisplayBLL.c **** {
 3792              		.loc 1 900 0
 3793              		.cfi_startproc
 3794              		@ args = 0, pretend = 0, frame = 24
 3795              		@ frame_needed = 1, uses_anonymous_args = 0
 3796 0000 B0B5     		push	{r4, r5, r7, lr}
 3797              		.cfi_def_cfa_offset 16
 3798              		.cfi_offset 4, -16
 3799              		.cfi_offset 5, -12
 3800              		.cfi_offset 7, -8
 3801              		.cfi_offset 14, -4
 3802 0002 86B0     		sub	sp, sp, #24
 3803              		.cfi_def_cfa_offset 40
 3804 0004 00AF     		add	r7, sp, #0
 3805              		.cfi_def_cfa_register 7
 3806 0006 7860     		str	r0, [r7, #4]
 901:.\DisplayBLL.c ****     PSINKMESSAGEPTR pmsg = (PSINKMESSAGEPTR)pparam;
 3807              		.loc 1 901 0
 3808 0008 7B68     		ldr	r3, [r7, #4]
 3809 000a 7B61     		str	r3, [r7, #20]
 902:.\DisplayBLL.c ****     DisplayLayout *pdisplay = (DisplayLayout*)pmsg->_pdata;
 3810              		.loc 1 902 0
 3811 000c 7B69     		ldr	r3, [r7, #20]
 3812 000e D3F89031 		ldr	r3, [r3, #400]
 3813 0012 3B61     		str	r3, [r7, #16]
 903:.\DisplayBLL.c ****     uint8 pumpindex = GetPumpIndexFromDisplay(pmsg->_pdata);
 3814              		.loc 1 903 0
 3815 0014 7B69     		ldr	r3, [r7, #20]
 3816 0016 D3F89031 		ldr	r3, [r3, #400]
 3817 001a 1846     		mov	r0, r3
 3818 001c FFF7FEFF 		bl	GetPumpIndexFromDisplay
 3819 0020 0346     		mov	r3, r0
 3820 0022 FB73     		strb	r3, [r7, #15]
 904:.\DisplayBLL.c ****     if(_g_pumps[pumpindex]._hoseactivestate)
 3821              		.loc 1 904 0
 3822 0024 FB7B     		ldrb	r3, [r7, #15]	@ zero_extendqisi2
 3823 0026 214A     		ldr	r2, .L158
 3824 0028 4FF41961 		mov	r1, #2448
 3825 002c 01FB03F3 		mul	r3, r1, r3
 3826 0030 1344     		add	r3, r3, r2
 3827 0032 1B79     		ldrb	r3, [r3, #4]
 3828 0034 DBB2     		uxtb	r3, r3
 3829 0036 002B     		cmp	r3, #0
 3830 0038 35D0     		beq	.L156
 905:.\DisplayBLL.c ****     {
 906:.\DisplayBLL.c ****         //The assigned hose identifier is the Pump's Hose identifier. It must be mapped to the remo
 907:.\DisplayBLL.c ****         ((PSINKMESSAGEPTR)pdisplay->_psequesteredmessagesink)->_buffer[GetBufferIndexFromDisplayID(
 3831              		.loc 1 907 0
ARM GAS  C:\Users\RECEPC~1\AppData\Local\Temp\ccvg7Xyk.s 			page 85


 3832 003a 3B69     		ldr	r3, [r7, #16]
 3833 003c 1C6B     		ldr	r4, [r3, #48]
 3834 003e 0720     		movs	r0, #7
 3835 0040 FFF7FEFF 		bl	GetBufferIndexFromDisplayID
 3836 0044 0346     		mov	r3, r0
 3837 0046 1D46     		mov	r5, r3
 3838 0048 7B69     		ldr	r3, [r7, #20]
 3839 004a D3F89031 		ldr	r3, [r3, #400]
 3840 004e 1846     		mov	r0, r3
 3841 0050 FFF7FEFF 		bl	GetPumpIndexFromDisplay
 3842 0054 0346     		mov	r3, r0
 3843 0056 1946     		mov	r1, r3
 3844 0058 144A     		ldr	r2, .L158
 3845 005a 4FF41963 		mov	r3, #2448
 3846 005e 03FB01F3 		mul	r3, r3, r1
 3847 0062 1344     		add	r3, r3, r2
 3848 0064 DB78     		ldrb	r3, [r3, #3]
 3849 0066 DBB2     		uxtb	r3, r3
 3850 0068 FA7B     		ldrb	r2, [r7, #15]	@ zero_extendqisi2
 3851 006a 1046     		mov	r0, r2
 3852 006c 1946     		mov	r1, r3
 3853 006e FFF7FEFF 		bl	DispenserLocalHoseID2RemoteHoseID
 3854 0072 0346     		mov	r3, r0
 3855 0074 1A46     		mov	r2, r3
 3856 0076 6319     		adds	r3, r4, r5
 3857 0078 1A73     		strb	r2, [r3, #12]
 908:.\DisplayBLL.c ****         
 909:.\DisplayBLL.c ****         _g_pumps[GetPumpIndexFromDisplay(pmsg->_pdata)]._hoseactivestate = 0x00;
 3858              		.loc 1 909 0
 3859 007a 7B69     		ldr	r3, [r7, #20]
 3860 007c D3F89031 		ldr	r3, [r3, #400]
 3861 0080 1846     		mov	r0, r3
 3862 0082 FFF7FEFF 		bl	GetPumpIndexFromDisplay
 3863 0086 0346     		mov	r3, r0
 3864 0088 1946     		mov	r1, r3
 3865 008a 084A     		ldr	r2, .L158
 3866 008c 4FF41963 		mov	r3, #2448
 3867 0090 03FB01F3 		mul	r3, r3, r1
 3868 0094 1344     		add	r3, r3, r2
 3869 0096 0022     		movs	r2, #0
 3870 0098 1A71     		strb	r2, [r3, #4]
 910:.\DisplayBLL.c ****         pdisplay->_currentstate = DISPLAY_HOSE_ACTIVATED;
 3871              		.loc 1 910 0
 3872 009a 3B69     		ldr	r3, [r7, #16]
 3873 009c A322     		movs	r2, #163
 3874 009e 1A71     		strb	r2, [r3, #4]
 911:.\DisplayBLL.c ****         pmsg->_selfkill = true;
 3875              		.loc 1 911 0
 3876 00a0 7B69     		ldr	r3, [r7, #20]
 3877 00a2 0122     		movs	r2, #1
 3878 00a4 1A70     		strb	r2, [r3]
 3879              	.L156:
 912:.\DisplayBLL.c ****     }
 913:.\DisplayBLL.c **** }
 3880              		.loc 1 913 0
 3881 00a6 1837     		adds	r7, r7, #24
 3882              		.cfi_def_cfa_offset 16
ARM GAS  C:\Users\RECEPC~1\AppData\Local\Temp\ccvg7Xyk.s 			page 86


 3883 00a8 BD46     		mov	sp, r7
 3884              		.cfi_def_cfa_register 13
 3885              		@ sp needed
 3886 00aa B0BD     		pop	{r4, r5, r7, pc}
 3887              	.L159:
 3888              		.align	2
 3889              	.L158:
 3890 00ac 00000000 		.word	_g_pumps
 3891              		.cfi_endproc
 3892              	.LFE77:
 3893              		.size	HoseValidationCallback, .-HoseValidationCallback
 3894              		.section	.text.KillHosePositionStateValidation,"ax",%progbits
 3895              		.align	2
 3896              		.global	KillHosePositionStateValidation
 3897              		.thumb
 3898              		.thumb_func
 3899              		.type	KillHosePositionStateValidation, %function
 3900              	KillHosePositionStateValidation:
 3901              	.LFB78:
 914:.\DisplayBLL.c **** 
 915:.\DisplayBLL.c **** /*DEPRECATED
 916:.\DisplayBLL.c **** void ValidateHosePositionState(LPVOID pparam)
 917:.\DisplayBLL.c **** {
 918:.\DisplayBLL.c ****     PDISPLAYLAYOUTPTR pdisplay = (PDISPLAYLAYOUTPTR)pparam;
 919:.\DisplayBLL.c ****     if(pdisplay->_dispid == DISPLAY1)
 920:.\DisplayBLL.c ****     {
 921:.\DisplayBLL.c ****         uint8 currpos = GetPumpIndexFromDisplay(pdisplay);
 922:.\DisplayBLL.c ****         _ALLOCATE_SINKMESSAGE_SLOT(psinkmsg);
 923:.\DisplayBLL.c ****         if(psinkmsg)
 924:.\DisplayBLL.c ****         {
 925:.\DisplayBLL.c ****             pdisplay->_pdata = psinkmsg;
 926:.\DisplayBLL.c ****             psinkmsg->_pdata = pdisplay;
 927:.\DisplayBLL.c ****             psinkmsg->_buffer[0] = currpos;
 928:.\DisplayBLL.c ****             psinkmsg->_messageid = DISPENSER_UPDATE_STATE1;
 929:.\DisplayBLL.c ****             psinkmsg->_messagetimeoutlimit = _SINK_TIMEOUT_500MS_;
 930:.\DisplayBLL.c ****             psinkmsg->Callback = HoseValidationCallback;
 931:.\DisplayBLL.c ****             psinkmsg->_messagetype = FIRSTFOUNDFOREVER;
 932:.\DisplayBLL.c ****             psinkmsg->_messagestate = SINK_BUSY;
 933:.\DisplayBLL.c ****         }
 934:.\DisplayBLL.c ****     }
 935:.\DisplayBLL.c ****     else
 936:.\DisplayBLL.c ****     {
 937:.\DisplayBLL.c ****         uint8 currpos = GetPumpIndexFromDisplay(pdisplay);
 938:.\DisplayBLL.c ****         _ALLOCATE_SINKMESSAGE_SLOT(psinkmsg);
 939:.\DisplayBLL.c ****         if(psinkmsg)
 940:.\DisplayBLL.c ****         {
 941:.\DisplayBLL.c ****             pdisplay->_pdata = psinkmsg;
 942:.\DisplayBLL.c ****             psinkmsg->_pdata = pdisplay;
 943:.\DisplayBLL.c ****             psinkmsg->_buffer[0] = currpos;
 944:.\DisplayBLL.c ****             psinkmsg->_messageid = DISPENSER_UPDATE_STATE2;
 945:.\DisplayBLL.c ****             psinkmsg->_messagetimeoutlimit = _SINK_TIMEOUT_100MS_;
 946:.\DisplayBLL.c ****             psinkmsg->Callback = HoseValidationCallback;
 947:.\DisplayBLL.c ****             psinkmsg->_messagetype = FIRSTFOUNDFOREVER;
 948:.\DisplayBLL.c ****             psinkmsg->_messagestate = SINK_BUSY;        
 949:.\DisplayBLL.c ****         }
 950:.\DisplayBLL.c ****     }
 951:.\DisplayBLL.c **** }
ARM GAS  C:\Users\RECEPC~1\AppData\Local\Temp\ccvg7Xyk.s 			page 87


 952:.\DisplayBLL.c **** */
 953:.\DisplayBLL.c **** 
 954:.\DisplayBLL.c **** void KillHosePositionStateValidation(LPVOID pparam)
 955:.\DisplayBLL.c **** {
 3902              		.loc 1 955 0
 3903              		.cfi_startproc
 3904              		@ args = 0, pretend = 0, frame = 16
 3905              		@ frame_needed = 1, uses_anonymous_args = 0
 3906              		@ link register save eliminated.
 3907 0000 80B4     		push	{r7}
 3908              		.cfi_def_cfa_offset 4
 3909              		.cfi_offset 7, -4
 3910 0002 85B0     		sub	sp, sp, #20
 3911              		.cfi_def_cfa_offset 24
 3912 0004 00AF     		add	r7, sp, #0
 3913              		.cfi_def_cfa_register 7
 3914 0006 7860     		str	r0, [r7, #4]
 956:.\DisplayBLL.c ****     PDISPLAYLAYOUTPTR pdisplay = (PDISPLAYLAYOUTPTR)pparam;
 3915              		.loc 1 956 0
 3916 0008 7B68     		ldr	r3, [r7, #4]
 3917 000a FB60     		str	r3, [r7, #12]
 957:.\DisplayBLL.c ****     if(pdisplay->_pdata)
 3918              		.loc 1 957 0
 3919 000c FB68     		ldr	r3, [r7, #12]
 3920 000e 5B6B     		ldr	r3, [r3, #52]
 3921 0010 002B     		cmp	r3, #0
 3922 0012 06D0     		beq	.L160
 958:.\DisplayBLL.c ****     {
 959:.\DisplayBLL.c ****         ((PSINKMESSAGEPTR)pdisplay->_pdata)->_selfkill = true;
 3923              		.loc 1 959 0
 3924 0014 FB68     		ldr	r3, [r7, #12]
 3925 0016 5B6B     		ldr	r3, [r3, #52]
 3926 0018 0122     		movs	r2, #1
 3927 001a 1A70     		strb	r2, [r3]
 960:.\DisplayBLL.c ****         pdisplay->_pdata = PNEAR_NULLPTR;
 3928              		.loc 1 960 0
 3929 001c FB68     		ldr	r3, [r7, #12]
 3930 001e 0022     		movs	r2, #0
 3931 0020 5A63     		str	r2, [r3, #52]
 3932              	.L160:
 961:.\DisplayBLL.c ****     }
 962:.\DisplayBLL.c **** }
 3933              		.loc 1 962 0
 3934 0022 1437     		adds	r7, r7, #20
 3935              		.cfi_def_cfa_offset 4
 3936 0024 BD46     		mov	sp, r7
 3937              		.cfi_def_cfa_register 13
 3938              		@ sp needed
 3939 0026 5DF8047B 		ldr	r7, [sp], #4
 3940              		.cfi_restore 7
 3941              		.cfi_def_cfa_offset 0
 3942 002a 7047     		bx	lr
 3943              		.cfi_endproc
 3944              	.LFE78:
 3945              		.size	KillHosePositionStateValidation, .-KillHosePositionStateValidation
 3946              		.section	.text.DisplayStationIDLoad,"ax",%progbits
 3947              		.align	2
ARM GAS  C:\Users\RECEPC~1\AppData\Local\Temp\ccvg7Xyk.s 			page 88


 3948              		.global	DisplayStationIDLoad
 3949              		.thumb
 3950              		.thumb_func
 3951              		.type	DisplayStationIDLoad, %function
 3952              	DisplayStationIDLoad:
 3953              	.LFB79:
 963:.\DisplayBLL.c **** 
 964:.\DisplayBLL.c **** void DisplayStationIDLoad(void *pparam)
 965:.\DisplayBLL.c **** {
 3954              		.loc 1 965 0
 3955              		.cfi_startproc
 3956              		@ args = 0, pretend = 0, frame = 16
 3957              		@ frame_needed = 1, uses_anonymous_args = 0
 3958 0000 90B5     		push	{r4, r7, lr}
 3959              		.cfi_def_cfa_offset 12
 3960              		.cfi_offset 4, -12
 3961              		.cfi_offset 7, -8
 3962              		.cfi_offset 14, -4
 3963 0002 85B0     		sub	sp, sp, #20
 3964              		.cfi_def_cfa_offset 32
 3965 0004 00AF     		add	r7, sp, #0
 3966              		.cfi_def_cfa_register 7
 3967 0006 7860     		str	r0, [r7, #4]
 966:.\DisplayBLL.c ****     PDISPLAYLAYOUTPTR pdisplay = (PDISPLAYLAYOUTPTR)pparam;
 3968              		.loc 1 966 0
 3969 0008 7B68     		ldr	r3, [r7, #4]
 3970 000a FB60     		str	r3, [r7, #12]
 967:.\DisplayBLL.c ****     if(pdisplay)
 3971              		.loc 1 967 0
 3972 000c FB68     		ldr	r3, [r7, #12]
 3973 000e 002B     		cmp	r3, #0
 3974 0010 3DD0     		beq	.L162
 3975              	.LBB49:
 968:.\DisplayBLL.c ****     {
 969:.\DisplayBLL.c ****         //CAREFUL WITH RETURNS BETWEEN THE LOCK/UNLOCK CALLS
 970:.\DisplayBLL.c ****         //AND RECURSIVE CALLS THAT WOULD DEADLOCK!
 971:.\DisplayBLL.c ****         I2CBusLock();
 3976              		.loc 1 971 0
 3977 0012 FFF7FEFF 		bl	I2CBusLock
 972:.\DisplayBLL.c ****         ClearEepromBuffer();
 3978              		.loc 1 972 0
 3979 0016 FFF7FEFF 		bl	ClearEepromBuffer
 973:.\DisplayBLL.c ****         
 974:.\DisplayBLL.c ****         LoadEepromPage(EEPROM_CONFIGURATION_PAGE5);
 3980              		.loc 1 974 0
 3981 001a 4FF4A070 		mov	r0, #320
 3982 001e FFF7FEFF 		bl	LoadEepromPage
 975:.\DisplayBLL.c ****         uint16 stationid = (((uint16)GetEepromBuffer()[0x01] << 8) & 0xFF00) | ((uint16)GetEepromBu
 3983              		.loc 1 975 0
 3984 0022 FFF7FEFF 		bl	GetEepromBuffer
 3985 0026 0346     		mov	r3, r0
 3986 0028 0133     		adds	r3, r3, #1
 3987 002a 1B78     		ldrb	r3, [r3]	@ zero_extendqisi2
 3988 002c 1B02     		lsls	r3, r3, #8
 3989 002e 9CB2     		uxth	r4, r3
 3990 0030 FFF7FEFF 		bl	GetEepromBuffer
 3991 0034 0346     		mov	r3, r0
ARM GAS  C:\Users\RECEPC~1\AppData\Local\Temp\ccvg7Xyk.s 			page 89


 3992 0036 1B78     		ldrb	r3, [r3]	@ zero_extendqisi2
 3993 0038 9BB2     		uxth	r3, r3
 3994 003a 2246     		mov	r2, r4	@ movhi
 3995 003c 1343     		orrs	r3, r3, r2
 3996 003e 9BB2     		uxth	r3, r3
 3997 0040 7B81     		strh	r3, [r7, #10]	@ movhi
 976:.\DisplayBLL.c ****         I2CBusUnlock();
 3998              		.loc 1 976 0
 3999 0042 FFF7FEFF 		bl	I2CBusUnlock
 977:.\DisplayBLL.c ****         
 978:.\DisplayBLL.c ****         memset(pdisplay->_bufferinfo._buffer, 0x00, _DISPLAY_BUFFER_SIZE_);
 4000              		.loc 1 978 0
 4001 0046 FB68     		ldr	r3, [r7, #12]
 4002 0048 1D33     		adds	r3, r3, #29
 4003 004a 1846     		mov	r0, r3
 4004 004c 0021     		movs	r1, #0
 4005 004e 1022     		movs	r2, #16
 4006 0050 FFF7FEFF 		bl	memset
 979:.\DisplayBLL.c ****         B78AD90CF552D9B30A(stationid, PBYTECAST(pdisplay->_bufferinfo._buffer));
 4007              		.loc 1 979 0
 4008 0054 7A89     		ldrh	r2, [r7, #10]
 4009 0056 4FF00003 		mov	r3, #0
 4010 005a F968     		ldr	r1, [r7, #12]
 4011 005c 01F11D04 		add	r4, r1, #29
 4012 0060 1046     		mov	r0, r2
 4013 0062 1946     		mov	r1, r3
 4014 0064 2246     		mov	r2, r4
 4015 0066 FFF7FEFF 		bl	B78AD90CF552D9B30A
 980:.\DisplayBLL.c ****         pdisplay->_bufferinfo._bufferindex = strlen(pdisplay->_bufferinfo._buffer);
 4016              		.loc 1 980 0
 4017 006a FB68     		ldr	r3, [r7, #12]
 4018 006c 1D33     		adds	r3, r3, #29
 4019 006e 1846     		mov	r0, r3
 4020 0070 FFF7FEFF 		bl	strlen
 4021 0074 0346     		mov	r3, r0
 4022 0076 DAB2     		uxtb	r2, r3
 4023 0078 FB68     		ldr	r3, [r7, #12]
 4024 007a 1A77     		strb	r2, [r3, #28]
 981:.\DisplayBLL.c ****         PSTRBUFFTOGG(PBYTECAST(pdisplay->_bufferinfo._buffer), pdisplay->_bufferinfo._bufferindex);
 4025              		.loc 1 981 0
 4026 007c FB68     		ldr	r3, [r7, #12]
 4027 007e 03F11D02 		add	r2, r3, #29
 4028 0082 FB68     		ldr	r3, [r7, #12]
 4029 0084 1B7F     		ldrb	r3, [r3, #28]	@ zero_extendqisi2
 4030 0086 1046     		mov	r0, r2
 4031 0088 1946     		mov	r1, r3
 4032 008a FFF7FEFF 		bl	PSTRBUFFTOGG
 4033              	.L162:
 4034              	.LBE49:
 982:.\DisplayBLL.c ****     }
 983:.\DisplayBLL.c **** }
 4035              		.loc 1 983 0
 4036 008e 1437     		adds	r7, r7, #20
 4037              		.cfi_def_cfa_offset 12
 4038 0090 BD46     		mov	sp, r7
 4039              		.cfi_def_cfa_register 13
 4040              		@ sp needed
ARM GAS  C:\Users\RECEPC~1\AppData\Local\Temp\ccvg7Xyk.s 			page 90


 4041 0092 90BD     		pop	{r4, r7, pc}
 4042              		.cfi_endproc
 4043              	.LFE79:
 4044              		.size	DisplayStationIDLoad, .-DisplayStationIDLoad
 4045              		.section	.text.DisplayStationIDDecorator,"ax",%progbits
 4046              		.align	2
 4047              		.global	DisplayStationIDDecorator
 4048              		.thumb
 4049              		.thumb_func
 4050              		.type	DisplayStationIDDecorator, %function
 4051              	DisplayStationIDDecorator:
 4052              	.LFB80:
 984:.\DisplayBLL.c **** 
 985:.\DisplayBLL.c **** void DisplayStationIDDecorator(void *pparam)
 986:.\DisplayBLL.c **** {
 4053              		.loc 1 986 0
 4054              		.cfi_startproc
 4055              		@ args = 0, pretend = 0, frame = 24
 4056              		@ frame_needed = 1, uses_anonymous_args = 0
 4057 0000 F0B5     		push	{r4, r5, r6, r7, lr}
 4058              		.cfi_def_cfa_offset 20
 4059              		.cfi_offset 4, -20
 4060              		.cfi_offset 5, -16
 4061              		.cfi_offset 6, -12
 4062              		.cfi_offset 7, -8
 4063              		.cfi_offset 14, -4
 4064 0002 8BB0     		sub	sp, sp, #44
 4065              		.cfi_def_cfa_offset 64
 4066 0004 04AF     		add	r7, sp, #16
 4067              		.cfi_def_cfa 7, 48
 4068 0006 7860     		str	r0, [r7, #4]
 987:.\DisplayBLL.c ****     PDISPLAYLAYOUTPTR pdisplay = (PDISPLAYLAYOUTPTR)pparam;
 4069              		.loc 1 987 0
 4070 0008 7B68     		ldr	r3, [r7, #4]
 4071 000a 7B61     		str	r3, [r7, #20]
 988:.\DisplayBLL.c ****     if(pdisplay)
 4072              		.loc 1 988 0
 4073 000c 7B69     		ldr	r3, [r7, #20]
 4074 000e 002B     		cmp	r3, #0
 4075 0010 65D0     		beq	.L164
 989:.\DisplayBLL.c ****     {
 990:.\DisplayBLL.c ****         pdisplay->_bufferinfo._xpos = pdisplay->_pcurrflow->_inputboxinfo._xdefpos;
 4076              		.loc 1 990 0
 4077 0012 7B69     		ldr	r3, [r7, #20]
 4078 0014 1B69     		ldr	r3, [r3, #16]
 4079 0016 9A8D     		ldrh	r2, [r3, #44]
 4080 0018 7B69     		ldr	r3, [r7, #20]
 4081 001a 1A83     		strh	r2, [r3, #24]	@ movhi
 991:.\DisplayBLL.c ****         pdisplay->_bufferinfo._ypos = pdisplay->_pcurrflow->_inputboxinfo._ydefpos;
 4082              		.loc 1 991 0
 4083 001c 7B69     		ldr	r3, [r7, #20]
 4084 001e 1B69     		ldr	r3, [r3, #16]
 4085 0020 DA8D     		ldrh	r2, [r3, #46]
 4086 0022 7B69     		ldr	r3, [r7, #20]
 4087 0024 5A83     		strh	r2, [r3, #26]	@ movhi
 992:.\DisplayBLL.c ****         if(pdisplay->_dispid == DISPLAY1)
 4088              		.loc 1 992 0
ARM GAS  C:\Users\RECEPC~1\AppData\Local\Temp\ccvg7Xyk.s 			page 91


 4089 0026 7B69     		ldr	r3, [r7, #20]
 4090 0028 1B78     		ldrb	r3, [r3]	@ zero_extendqisi2
 4091 002a 002B     		cmp	r3, #0
 4092 002c 2CD1     		bne	.L166
 4093              	.LBB50:
 993:.\DisplayBLL.c ****         {
 994:.\DisplayBLL.c ****             UARTMessage *puartdisp = GetUARTMessageSlot(UART_DISPLAY1);
 4094              		.loc 1 994 0
 4095 002e A320     		movs	r0, #163
 4096 0030 FFF7FEFF 		bl	GetUARTMessageSlot
 4097 0034 3861     		str	r0, [r7, #16]
 995:.\DisplayBLL.c ****             if(puartdisp)
 4098              		.loc 1 995 0
 4099 0036 3B69     		ldr	r3, [r7, #16]
 4100 0038 002B     		cmp	r3, #0
 4101 003a 24D0     		beq	.L167
 996:.\DisplayBLL.c ****             {
 997:.\DisplayBLL.c ****                 puartdisp->_messagelength = DisplayOutputString(pdisplay->_bufferinfo._xpos, pdispl
 4102              		.loc 1 997 0
 4103 003c 7B69     		ldr	r3, [r7, #20]
 4104 003e B3F818E0 		ldrh	lr, [r3, #24]
 4105 0042 7B69     		ldr	r3, [r7, #20]
 4106 0044 5E8B     		ldrh	r6, [r3, #26]
 4107 0046 3B69     		ldr	r3, [r7, #16]
 4108 0048 1D1D     		adds	r5, r3, #4
 4109 004a 7B69     		ldr	r3, [r7, #20]
 4110 004c 03F11D04 		add	r4, r3, #29
 4111 0050 7B69     		ldr	r3, [r7, #20]
 4112 0052 1B69     		ldr	r3, [r3, #16]
 4113 0054 93F83030 		ldrb	r3, [r3, #48]	@ zero_extendqisi2
 4114 0058 9BB2     		uxth	r3, r3
 4115 005a 7A69     		ldr	r2, [r7, #20]
 4116 005c 1269     		ldr	r2, [r2, #16]
 4117 005e 0093     		str	r3, [sp]
 4118 0060 01AB     		add	r3, sp, #4
 4119 0062 3232     		adds	r2, r2, #50
 4120 0064 1068     		ldr	r0, [r2]	@ unaligned
 4121 0066 5168     		ldr	r1, [r2, #4]	@ unaligned
 4122 0068 03C3     		stmia	r3!, {r0, r1}
 4123 006a 7046     		mov	r0, lr
 4124 006c 3146     		mov	r1, r6
 4125 006e 2A46     		mov	r2, r5
 4126 0070 2346     		mov	r3, r4
 4127 0072 FFF7FEFF 		bl	DisplayOutputString
 4128 0076 0346     		mov	r3, r0
 4129 0078 1A46     		mov	r2, r3
 4130 007a 3B69     		ldr	r3, [r7, #16]
 4131 007c 5A80     		strh	r2, [r3, #2]	@ movhi
 998:.\DisplayBLL.c ****                 puartdisp->_messagestate = PENDING;
 4132              		.loc 1 998 0
 4133 007e 3B69     		ldr	r3, [r7, #16]
 4134 0080 C222     		movs	r2, #194
 4135 0082 1A70     		strb	r2, [r3]
 4136              	.LBE50:
 4137 0084 2BE0     		b	.L164
 4138              	.L167:
 4139 0086 2AE0     		b	.L164
ARM GAS  C:\Users\RECEPC~1\AppData\Local\Temp\ccvg7Xyk.s 			page 92


 4140              	.L166:
 4141              	.LBB51:
 999:.\DisplayBLL.c ****             }
1000:.\DisplayBLL.c ****         }
1001:.\DisplayBLL.c ****         else
1002:.\DisplayBLL.c ****         {
1003:.\DisplayBLL.c ****             UARTMessage *puartdisp = GetUARTMessageSlot(UART_DISPLAY2);
 4142              		.loc 1 1003 0
 4143 0088 A420     		movs	r0, #164
 4144 008a FFF7FEFF 		bl	GetUARTMessageSlot
 4145 008e F860     		str	r0, [r7, #12]
1004:.\DisplayBLL.c ****             if(puartdisp)
 4146              		.loc 1 1004 0
 4147 0090 FB68     		ldr	r3, [r7, #12]
 4148 0092 002B     		cmp	r3, #0
 4149 0094 23D0     		beq	.L164
1005:.\DisplayBLL.c ****             {
1006:.\DisplayBLL.c ****                 puartdisp->_messagelength = DisplayOutputString(pdisplay->_bufferinfo._xpos, pdispl
 4150              		.loc 1 1006 0
 4151 0096 7B69     		ldr	r3, [r7, #20]
 4152 0098 B3F818E0 		ldrh	lr, [r3, #24]
 4153 009c 7B69     		ldr	r3, [r7, #20]
 4154 009e 5E8B     		ldrh	r6, [r3, #26]
 4155 00a0 FB68     		ldr	r3, [r7, #12]
 4156 00a2 1D1D     		adds	r5, r3, #4
 4157 00a4 7B69     		ldr	r3, [r7, #20]
 4158 00a6 03F11D04 		add	r4, r3, #29
 4159 00aa 7B69     		ldr	r3, [r7, #20]
 4160 00ac 1B69     		ldr	r3, [r3, #16]
 4161 00ae 93F83030 		ldrb	r3, [r3, #48]	@ zero_extendqisi2
 4162 00b2 9BB2     		uxth	r3, r3
 4163 00b4 7A69     		ldr	r2, [r7, #20]
 4164 00b6 1269     		ldr	r2, [r2, #16]
 4165 00b8 0093     		str	r3, [sp]
 4166 00ba 01AB     		add	r3, sp, #4
 4167 00bc 3232     		adds	r2, r2, #50
 4168 00be 1068     		ldr	r0, [r2]	@ unaligned
 4169 00c0 5168     		ldr	r1, [r2, #4]	@ unaligned
 4170 00c2 03C3     		stmia	r3!, {r0, r1}
 4171 00c4 7046     		mov	r0, lr
 4172 00c6 3146     		mov	r1, r6
 4173 00c8 2A46     		mov	r2, r5
 4174 00ca 2346     		mov	r3, r4
 4175 00cc FFF7FEFF 		bl	DisplayOutputString
 4176 00d0 0346     		mov	r3, r0
 4177 00d2 1A46     		mov	r2, r3
 4178 00d4 FB68     		ldr	r3, [r7, #12]
 4179 00d6 5A80     		strh	r2, [r3, #2]	@ movhi
1007:.\DisplayBLL.c ****                 puartdisp->_messagestate = PENDING;
 4180              		.loc 1 1007 0
 4181 00d8 FB68     		ldr	r3, [r7, #12]
 4182 00da C222     		movs	r2, #194
 4183 00dc 1A70     		strb	r2, [r3]
 4184              	.L164:
 4185              	.LBE51:
1008:.\DisplayBLL.c ****             }
1009:.\DisplayBLL.c ****         }
ARM GAS  C:\Users\RECEPC~1\AppData\Local\Temp\ccvg7Xyk.s 			page 93


1010:.\DisplayBLL.c ****     }
1011:.\DisplayBLL.c **** }
 4186              		.loc 1 1011 0
 4187 00de 1C37     		adds	r7, r7, #28
 4188              		.cfi_def_cfa_offset 20
 4189 00e0 BD46     		mov	sp, r7
 4190              		.cfi_def_cfa_register 13
 4191              		@ sp needed
 4192 00e2 F0BD     		pop	{r4, r5, r6, r7, pc}
 4193              		.cfi_endproc
 4194              	.LFE80:
 4195              		.size	DisplayStationIDDecorator, .-DisplayStationIDDecorator
 4196              		.global	__aeabi_i2d
 4197              		.global	__aeabi_dmul
 4198              		.global	__aeabi_d2uiz
 4199              		.section	.text.DisplayStationIDStore,"ax",%progbits
 4200              		.align	2
 4201              		.global	DisplayStationIDStore
 4202              		.thumb
 4203              		.thumb_func
 4204              		.type	DisplayStationIDStore, %function
 4205              	DisplayStationIDStore:
 4206              	.LFB81:
1012:.\DisplayBLL.c **** 
1013:.\DisplayBLL.c **** void DisplayStationIDStore(void *pparam)
1014:.\DisplayBLL.c **** {
 4207              		.loc 1 1014 0
 4208              		.cfi_startproc
 4209              		@ args = 0, pretend = 0, frame = 16
 4210              		@ frame_needed = 1, uses_anonymous_args = 0
 4211 0000 B0B5     		push	{r4, r5, r7, lr}
 4212              		.cfi_def_cfa_offset 16
 4213              		.cfi_offset 4, -16
 4214              		.cfi_offset 5, -12
 4215              		.cfi_offset 7, -8
 4216              		.cfi_offset 14, -4
 4217 0002 84B0     		sub	sp, sp, #16
 4218              		.cfi_def_cfa_offset 32
 4219 0004 00AF     		add	r7, sp, #0
 4220              		.cfi_def_cfa_register 7
 4221 0006 7860     		str	r0, [r7, #4]
1015:.\DisplayBLL.c ****     PDISPLAYLAYOUTPTR pdisplay = (PDISPLAYLAYOUTPTR)pparam;
 4222              		.loc 1 1015 0
 4223 0008 7B68     		ldr	r3, [r7, #4]
 4224 000a BB60     		str	r3, [r7, #8]
1016:.\DisplayBLL.c ****     if(pdisplay)
 4225              		.loc 1 1016 0
 4226 000c BB68     		ldr	r3, [r7, #8]
 4227 000e 002B     		cmp	r3, #0
 4228 0010 58D0     		beq	.L168
 4229              	.LBB52:
1017:.\DisplayBLL.c ****     {
1018:.\DisplayBLL.c ****         uint16 stationid = 0x0000;
 4230              		.loc 1 1018 0
 4231 0012 0023     		movs	r3, #0
 4232 0014 FB81     		strh	r3, [r7, #14]	@ movhi
1019:.\DisplayBLL.c ****         FOR(uint8 index = 0, index < pdisplay->_bufferinfo._bufferindex, index++)
ARM GAS  C:\Users\RECEPC~1\AppData\Local\Temp\ccvg7Xyk.s 			page 94


 4233              		.loc 1 1019 0
 4234 0016 0023     		movs	r3, #0
 4235 0018 7B73     		strb	r3, [r7, #13]
 4236 001a 2EE0     		b	.L170
 4237              	.L171:
1020:.\DisplayBLL.c ****             stationid += (uint16)(pow(10, pdisplay->_bufferinfo._bufferindex - index - 1)*(pdisplay
 4238              		.loc 1 1020 0 discriminator 3
 4239 001c BB68     		ldr	r3, [r7, #8]
 4240 001e 1B7F     		ldrb	r3, [r3, #28]	@ zero_extendqisi2
 4241 0020 1A46     		mov	r2, r3
 4242 0022 7B7B     		ldrb	r3, [r7, #13]	@ zero_extendqisi2
 4243 0024 D31A     		subs	r3, r2, r3
 4244 0026 013B     		subs	r3, r3, #1
 4245 0028 1846     		mov	r0, r3
 4246 002a FFF7FEFF 		bl	__aeabi_i2d
 4247 002e 0246     		mov	r2, r0
 4248 0030 0B46     		mov	r3, r1
 4249 0032 4FF00000 		mov	r0, #0
 4250 0036 2549     		ldr	r1, .L172
 4251 0038 FFF7FEFF 		bl	pow
 4252 003c 0446     		mov	r4, r0
 4253 003e 0D46     		mov	r5, r1
 4254 0040 7B7B     		ldrb	r3, [r7, #13]	@ zero_extendqisi2
 4255 0042 BA68     		ldr	r2, [r7, #8]
 4256 0044 1344     		add	r3, r3, r2
 4257 0046 5B7F     		ldrb	r3, [r3, #29]	@ zero_extendqisi2
 4258 0048 03F00F03 		and	r3, r3, #15
 4259 004c 1846     		mov	r0, r3
 4260 004e FFF7FEFF 		bl	__aeabi_i2d
 4261 0052 0246     		mov	r2, r0
 4262 0054 0B46     		mov	r3, r1
 4263 0056 2046     		mov	r0, r4
 4264 0058 2946     		mov	r1, r5
 4265 005a FFF7FEFF 		bl	__aeabi_dmul
 4266 005e 0246     		mov	r2, r0
 4267 0060 0B46     		mov	r3, r1
 4268 0062 1046     		mov	r0, r2
 4269 0064 1946     		mov	r1, r3
 4270 0066 FFF7FEFF 		bl	__aeabi_d2uiz
 4271 006a 0346     		mov	r3, r0
 4272 006c 9AB2     		uxth	r2, r3
 4273 006e FB89     		ldrh	r3, [r7, #14]	@ movhi
 4274 0070 1344     		add	r3, r3, r2
 4275 0072 FB81     		strh	r3, [r7, #14]	@ movhi
1019:.\DisplayBLL.c ****         FOR(uint8 index = 0, index < pdisplay->_bufferinfo._bufferindex, index++)
 4276              		.loc 1 1019 0 discriminator 3
 4277 0074 7B7B     		ldrb	r3, [r7, #13]	@ zero_extendqisi2
 4278 0076 0133     		adds	r3, r3, #1
 4279 0078 7B73     		strb	r3, [r7, #13]
 4280              	.L170:
1019:.\DisplayBLL.c ****         FOR(uint8 index = 0, index < pdisplay->_bufferinfo._bufferindex, index++)
 4281              		.loc 1 1019 0 is_stmt 0 discriminator 1
 4282 007a BB68     		ldr	r3, [r7, #8]
 4283 007c 1B7F     		ldrb	r3, [r3, #28]	@ zero_extendqisi2
 4284 007e 7A7B     		ldrb	r2, [r7, #13]	@ zero_extendqisi2
 4285 0080 9A42     		cmp	r2, r3
 4286 0082 CBD3     		bcc	.L171
ARM GAS  C:\Users\RECEPC~1\AppData\Local\Temp\ccvg7Xyk.s 			page 95


1021:.\DisplayBLL.c ****             
1022:.\DisplayBLL.c ****         //CAREFUL WITH RETURNS BETWEEN THE LOCK/UNLOCK CALLS
1023:.\DisplayBLL.c ****         //AND RECURSIVE CALLS THAT WOULD DEADLOCK!
1024:.\DisplayBLL.c ****         I2CBusLock();
 4287              		.loc 1 1024 0 is_stmt 1
 4288 0084 FFF7FEFF 		bl	I2CBusLock
1025:.\DisplayBLL.c ****         ClearEepromBuffer();
 4289              		.loc 1 1025 0
 4290 0088 FFF7FEFF 		bl	ClearEepromBuffer
1026:.\DisplayBLL.c ****         
1027:.\DisplayBLL.c ****         LoadEepromPage(EEPROM_CONFIGURATION_PAGE5);
 4291              		.loc 1 1027 0
 4292 008c 4FF4A070 		mov	r0, #320
 4293 0090 FFF7FEFF 		bl	LoadEepromPage
1028:.\DisplayBLL.c ****         GetEepromBuffer()[0x00] = (uint8)(stationid & 0x00FF);
 4294              		.loc 1 1028 0
 4295 0094 FFF7FEFF 		bl	GetEepromBuffer
 4296 0098 0346     		mov	r3, r0
 4297 009a FA89     		ldrh	r2, [r7, #14]	@ movhi
 4298 009c D2B2     		uxtb	r2, r2
 4299 009e 1A70     		strb	r2, [r3]
1029:.\DisplayBLL.c ****         GetEepromBuffer()[0x01] = (uint8)((stationid >> 8) & 0x00FF);
 4300              		.loc 1 1029 0
 4301 00a0 FFF7FEFF 		bl	GetEepromBuffer
 4302 00a4 0346     		mov	r3, r0
 4303 00a6 0133     		adds	r3, r3, #1
 4304 00a8 FA89     		ldrh	r2, [r7, #14]
 4305 00aa 120A     		lsrs	r2, r2, #8
 4306 00ac 92B2     		uxth	r2, r2
 4307 00ae D2B2     		uxtb	r2, r2
 4308 00b0 1A70     		strb	r2, [r3]
1030:.\DisplayBLL.c ****         StoreEepromPage(EEPROM_CONFIGURATION_PAGE5);
 4309              		.loc 1 1030 0
 4310 00b2 4FF4A070 		mov	r0, #320
 4311 00b6 FFF7FEFF 		bl	StoreEepromPage
1031:.\DisplayBLL.c ****         
1032:.\DisplayBLL.c ****         _g_stationidentifier = stationid;
 4312              		.loc 1 1032 0
 4313 00ba 054A     		ldr	r2, .L172+4
 4314 00bc FB89     		ldrh	r3, [r7, #14]	@ movhi
 4315 00be 1380     		strh	r3, [r2]	@ movhi
1033:.\DisplayBLL.c ****         
1034:.\DisplayBLL.c ****         I2CBusUnlock();
 4316              		.loc 1 1034 0
 4317 00c0 FFF7FEFF 		bl	I2CBusUnlock
 4318              	.L168:
 4319              	.LBE52:
1035:.\DisplayBLL.c ****         
1036:.\DisplayBLL.c ****     }
1037:.\DisplayBLL.c **** }
 4320              		.loc 1 1037 0
 4321 00c4 1037     		adds	r7, r7, #16
 4322              		.cfi_def_cfa_offset 16
 4323 00c6 BD46     		mov	sp, r7
 4324              		.cfi_def_cfa_register 13
 4325              		@ sp needed
 4326 00c8 B0BD     		pop	{r4, r5, r7, pc}
ARM GAS  C:\Users\RECEPC~1\AppData\Local\Temp\ccvg7Xyk.s 			page 96


 4327              	.L173:
 4328 00ca 00BF     		.align	2
 4329              	.L172:
 4330 00cc 00002440 		.word	1076101120
 4331 00d0 00000000 		.word	_g_stationidentifier
 4332              		.cfi_endproc
 4333              	.LFE81:
 4334              		.size	DisplayStationIDStore, .-DisplayStationIDStore
 4335              		.section	.text.DisplayPumpIDOffsetLoad,"ax",%progbits
 4336              		.align	2
 4337              		.global	DisplayPumpIDOffsetLoad
 4338              		.thumb
 4339              		.thumb_func
 4340              		.type	DisplayPumpIDOffsetLoad, %function
 4341              	DisplayPumpIDOffsetLoad:
 4342              	.LFB82:
1038:.\DisplayBLL.c **** 
1039:.\DisplayBLL.c **** void DisplayPumpIDOffsetLoad(void *pparam)
1040:.\DisplayBLL.c **** {
 4343              		.loc 1 1040 0
 4344              		.cfi_startproc
 4345              		@ args = 0, pretend = 0, frame = 16
 4346              		@ frame_needed = 1, uses_anonymous_args = 0
 4347 0000 90B5     		push	{r4, r7, lr}
 4348              		.cfi_def_cfa_offset 12
 4349              		.cfi_offset 4, -12
 4350              		.cfi_offset 7, -8
 4351              		.cfi_offset 14, -4
 4352 0002 85B0     		sub	sp, sp, #20
 4353              		.cfi_def_cfa_offset 32
 4354 0004 00AF     		add	r7, sp, #0
 4355              		.cfi_def_cfa_register 7
 4356 0006 7860     		str	r0, [r7, #4]
1041:.\DisplayBLL.c ****     PDISPLAYLAYOUTPTR pdisplay = (PDISPLAYLAYOUTPTR)pparam;
 4357              		.loc 1 1041 0
 4358 0008 7B68     		ldr	r3, [r7, #4]
 4359 000a FB60     		str	r3, [r7, #12]
1042:.\DisplayBLL.c ****     if(pdisplay)
 4360              		.loc 1 1042 0
 4361 000c FB68     		ldr	r3, [r7, #12]
 4362 000e 002B     		cmp	r3, #0
 4363 0010 32D0     		beq	.L174
 4364              	.LBB53:
1043:.\DisplayBLL.c ****     {
1044:.\DisplayBLL.c ****         //CAREFUL WITH RETURNS BETWEEN THE LOCK/UNLOCK CALLS
1045:.\DisplayBLL.c ****         //AND RECURSIVE CALLS THAT WOULD DEADLOCK!
1046:.\DisplayBLL.c ****         I2CBusLock();
 4365              		.loc 1 1046 0
 4366 0012 FFF7FEFF 		bl	I2CBusLock
1047:.\DisplayBLL.c ****         ClearEepromBuffer();
 4367              		.loc 1 1047 0
 4368 0016 FFF7FEFF 		bl	ClearEepromBuffer
1048:.\DisplayBLL.c ****         
1049:.\DisplayBLL.c ****         LoadEepromPage(EEPROM_CONFIGURATION_PAGE7);
 4369              		.loc 1 1049 0
 4370 001a 4FF4E070 		mov	r0, #448
 4371 001e FFF7FEFF 		bl	LoadEepromPage
ARM GAS  C:\Users\RECEPC~1\AppData\Local\Temp\ccvg7Xyk.s 			page 97


1050:.\DisplayBLL.c ****         uint8 pumpoffset = ((uint8)GetEepromBuffer()[0x09]);
 4372              		.loc 1 1050 0
 4373 0022 FFF7FEFF 		bl	GetEepromBuffer
 4374 0026 0346     		mov	r3, r0
 4375 0028 5B7A     		ldrb	r3, [r3, #9]
 4376 002a FB72     		strb	r3, [r7, #11]
1051:.\DisplayBLL.c ****         I2CBusUnlock();
 4377              		.loc 1 1051 0
 4378 002c FFF7FEFF 		bl	I2CBusUnlock
1052:.\DisplayBLL.c ****         
1053:.\DisplayBLL.c ****         memset(pdisplay->_bufferinfo._buffer, 0x00, _DISPLAY_BUFFER_SIZE_);
 4379              		.loc 1 1053 0
 4380 0030 FB68     		ldr	r3, [r7, #12]
 4381 0032 1D33     		adds	r3, r3, #29
 4382 0034 1846     		mov	r0, r3
 4383 0036 0021     		movs	r1, #0
 4384 0038 1022     		movs	r2, #16
 4385 003a FFF7FEFF 		bl	memset
1054:.\DisplayBLL.c ****         B78AD90CF552D9B30A(pumpoffset, PBYTECAST(pdisplay->_bufferinfo._buffer));
 4386              		.loc 1 1054 0
 4387 003e FA7A     		ldrb	r2, [r7, #11]	@ zero_extendqisi2
 4388 0040 4FF00003 		mov	r3, #0
 4389 0044 F968     		ldr	r1, [r7, #12]
 4390 0046 01F11D04 		add	r4, r1, #29
 4391 004a 1046     		mov	r0, r2
 4392 004c 1946     		mov	r1, r3
 4393 004e 2246     		mov	r2, r4
 4394 0050 FFF7FEFF 		bl	B78AD90CF552D9B30A
1055:.\DisplayBLL.c ****         pdisplay->_bufferinfo._bufferindex = strlen(pdisplay->_bufferinfo._buffer);
 4395              		.loc 1 1055 0
 4396 0054 FB68     		ldr	r3, [r7, #12]
 4397 0056 1D33     		adds	r3, r3, #29
 4398 0058 1846     		mov	r0, r3
 4399 005a FFF7FEFF 		bl	strlen
 4400 005e 0346     		mov	r3, r0
 4401 0060 DAB2     		uxtb	r2, r3
 4402 0062 FB68     		ldr	r3, [r7, #12]
 4403 0064 1A77     		strb	r2, [r3, #28]
1056:.\DisplayBLL.c ****         PSTRBUFFTOGG(PBYTECAST(pdisplay->_bufferinfo._buffer), pdisplay->_bufferinfo._bufferindex);
 4404              		.loc 1 1056 0
 4405 0066 FB68     		ldr	r3, [r7, #12]
 4406 0068 03F11D02 		add	r2, r3, #29
 4407 006c FB68     		ldr	r3, [r7, #12]
 4408 006e 1B7F     		ldrb	r3, [r3, #28]	@ zero_extendqisi2
 4409 0070 1046     		mov	r0, r2
 4410 0072 1946     		mov	r1, r3
 4411 0074 FFF7FEFF 		bl	PSTRBUFFTOGG
 4412              	.L174:
 4413              	.LBE53:
1057:.\DisplayBLL.c ****     }
1058:.\DisplayBLL.c **** }
 4414              		.loc 1 1058 0
 4415 0078 1437     		adds	r7, r7, #20
 4416              		.cfi_def_cfa_offset 12
 4417 007a BD46     		mov	sp, r7
 4418              		.cfi_def_cfa_register 13
 4419              		@ sp needed
ARM GAS  C:\Users\RECEPC~1\AppData\Local\Temp\ccvg7Xyk.s 			page 98


 4420 007c 90BD     		pop	{r4, r7, pc}
 4421              		.cfi_endproc
 4422              	.LFE82:
 4423              		.size	DisplayPumpIDOffsetLoad, .-DisplayPumpIDOffsetLoad
 4424 007e 00BF     		.section	.text.DisplayPumpIDOffsetDecorator,"ax",%progbits
 4425              		.align	2
 4426              		.global	DisplayPumpIDOffsetDecorator
 4427              		.thumb
 4428              		.thumb_func
 4429              		.type	DisplayPumpIDOffsetDecorator, %function
 4430              	DisplayPumpIDOffsetDecorator:
 4431              	.LFB83:
1059:.\DisplayBLL.c **** 
1060:.\DisplayBLL.c **** void DisplayPumpIDOffsetDecorator(void *pparam)
1061:.\DisplayBLL.c **** {
 4432              		.loc 1 1061 0
 4433              		.cfi_startproc
 4434              		@ args = 0, pretend = 0, frame = 24
 4435              		@ frame_needed = 1, uses_anonymous_args = 0
 4436 0000 F0B5     		push	{r4, r5, r6, r7, lr}
 4437              		.cfi_def_cfa_offset 20
 4438              		.cfi_offset 4, -20
 4439              		.cfi_offset 5, -16
 4440              		.cfi_offset 6, -12
 4441              		.cfi_offset 7, -8
 4442              		.cfi_offset 14, -4
 4443 0002 8BB0     		sub	sp, sp, #44
 4444              		.cfi_def_cfa_offset 64
 4445 0004 04AF     		add	r7, sp, #16
 4446              		.cfi_def_cfa 7, 48
 4447 0006 7860     		str	r0, [r7, #4]
1062:.\DisplayBLL.c ****     PDISPLAYLAYOUTPTR pdisplay = (PDISPLAYLAYOUTPTR)pparam;
 4448              		.loc 1 1062 0
 4449 0008 7B68     		ldr	r3, [r7, #4]
 4450 000a 7B61     		str	r3, [r7, #20]
1063:.\DisplayBLL.c ****     if(pdisplay)
 4451              		.loc 1 1063 0
 4452 000c 7B69     		ldr	r3, [r7, #20]
 4453 000e 002B     		cmp	r3, #0
 4454 0010 65D0     		beq	.L176
1064:.\DisplayBLL.c ****     {
1065:.\DisplayBLL.c ****         pdisplay->_bufferinfo._xpos = pdisplay->_pcurrflow->_inputboxinfo._xdefpos;
 4455              		.loc 1 1065 0
 4456 0012 7B69     		ldr	r3, [r7, #20]
 4457 0014 1B69     		ldr	r3, [r3, #16]
 4458 0016 9A8D     		ldrh	r2, [r3, #44]
 4459 0018 7B69     		ldr	r3, [r7, #20]
 4460 001a 1A83     		strh	r2, [r3, #24]	@ movhi
1066:.\DisplayBLL.c ****         pdisplay->_bufferinfo._ypos = pdisplay->_pcurrflow->_inputboxinfo._ydefpos;
 4461              		.loc 1 1066 0
 4462 001c 7B69     		ldr	r3, [r7, #20]
 4463 001e 1B69     		ldr	r3, [r3, #16]
 4464 0020 DA8D     		ldrh	r2, [r3, #46]
 4465 0022 7B69     		ldr	r3, [r7, #20]
 4466 0024 5A83     		strh	r2, [r3, #26]	@ movhi
1067:.\DisplayBLL.c ****         if(pdisplay->_dispid == DISPLAY1)
 4467              		.loc 1 1067 0
ARM GAS  C:\Users\RECEPC~1\AppData\Local\Temp\ccvg7Xyk.s 			page 99


 4468 0026 7B69     		ldr	r3, [r7, #20]
 4469 0028 1B78     		ldrb	r3, [r3]	@ zero_extendqisi2
 4470 002a 002B     		cmp	r3, #0
 4471 002c 2CD1     		bne	.L178
 4472              	.LBB54:
1068:.\DisplayBLL.c ****         {
1069:.\DisplayBLL.c ****             UARTMessage *puartdisp = GetUARTMessageSlot(UART_DISPLAY1);
 4473              		.loc 1 1069 0
 4474 002e A320     		movs	r0, #163
 4475 0030 FFF7FEFF 		bl	GetUARTMessageSlot
 4476 0034 3861     		str	r0, [r7, #16]
1070:.\DisplayBLL.c ****             if(puartdisp)
 4477              		.loc 1 1070 0
 4478 0036 3B69     		ldr	r3, [r7, #16]
 4479 0038 002B     		cmp	r3, #0
 4480 003a 24D0     		beq	.L179
1071:.\DisplayBLL.c ****             {
1072:.\DisplayBLL.c ****                 puartdisp->_messagelength = DisplayOutputString(pdisplay->_bufferinfo._xpos, pdispl
 4481              		.loc 1 1072 0
 4482 003c 7B69     		ldr	r3, [r7, #20]
 4483 003e B3F818E0 		ldrh	lr, [r3, #24]
 4484 0042 7B69     		ldr	r3, [r7, #20]
 4485 0044 5E8B     		ldrh	r6, [r3, #26]
 4486 0046 3B69     		ldr	r3, [r7, #16]
 4487 0048 1D1D     		adds	r5, r3, #4
 4488 004a 7B69     		ldr	r3, [r7, #20]
 4489 004c 03F11D04 		add	r4, r3, #29
 4490 0050 7B69     		ldr	r3, [r7, #20]
 4491 0052 1B69     		ldr	r3, [r3, #16]
 4492 0054 93F83030 		ldrb	r3, [r3, #48]	@ zero_extendqisi2
 4493 0058 9BB2     		uxth	r3, r3
 4494 005a 7A69     		ldr	r2, [r7, #20]
 4495 005c 1269     		ldr	r2, [r2, #16]
 4496 005e 0093     		str	r3, [sp]
 4497 0060 01AB     		add	r3, sp, #4
 4498 0062 3232     		adds	r2, r2, #50
 4499 0064 1068     		ldr	r0, [r2]	@ unaligned
 4500 0066 5168     		ldr	r1, [r2, #4]	@ unaligned
 4501 0068 03C3     		stmia	r3!, {r0, r1}
 4502 006a 7046     		mov	r0, lr
 4503 006c 3146     		mov	r1, r6
 4504 006e 2A46     		mov	r2, r5
 4505 0070 2346     		mov	r3, r4
 4506 0072 FFF7FEFF 		bl	DisplayOutputString
 4507 0076 0346     		mov	r3, r0
 4508 0078 1A46     		mov	r2, r3
 4509 007a 3B69     		ldr	r3, [r7, #16]
 4510 007c 5A80     		strh	r2, [r3, #2]	@ movhi
1073:.\DisplayBLL.c ****                 puartdisp->_messagestate = PENDING;
 4511              		.loc 1 1073 0
 4512 007e 3B69     		ldr	r3, [r7, #16]
 4513 0080 C222     		movs	r2, #194
 4514 0082 1A70     		strb	r2, [r3]
 4515              	.LBE54:
 4516 0084 2BE0     		b	.L176
 4517              	.L179:
 4518 0086 2AE0     		b	.L176
ARM GAS  C:\Users\RECEPC~1\AppData\Local\Temp\ccvg7Xyk.s 			page 100


 4519              	.L178:
 4520              	.LBB55:
1074:.\DisplayBLL.c ****             }
1075:.\DisplayBLL.c ****         }
1076:.\DisplayBLL.c ****         else
1077:.\DisplayBLL.c ****         {
1078:.\DisplayBLL.c ****             UARTMessage *puartdisp = GetUARTMessageSlot(UART_DISPLAY2);
 4521              		.loc 1 1078 0
 4522 0088 A420     		movs	r0, #164
 4523 008a FFF7FEFF 		bl	GetUARTMessageSlot
 4524 008e F860     		str	r0, [r7, #12]
1079:.\DisplayBLL.c ****             if(puartdisp)
 4525              		.loc 1 1079 0
 4526 0090 FB68     		ldr	r3, [r7, #12]
 4527 0092 002B     		cmp	r3, #0
 4528 0094 23D0     		beq	.L176
1080:.\DisplayBLL.c ****             {
1081:.\DisplayBLL.c ****                 puartdisp->_messagelength = DisplayOutputString(pdisplay->_bufferinfo._xpos, pdispl
 4529              		.loc 1 1081 0
 4530 0096 7B69     		ldr	r3, [r7, #20]
 4531 0098 B3F818E0 		ldrh	lr, [r3, #24]
 4532 009c 7B69     		ldr	r3, [r7, #20]
 4533 009e 5E8B     		ldrh	r6, [r3, #26]
 4534 00a0 FB68     		ldr	r3, [r7, #12]
 4535 00a2 1D1D     		adds	r5, r3, #4
 4536 00a4 7B69     		ldr	r3, [r7, #20]
 4537 00a6 03F11D04 		add	r4, r3, #29
 4538 00aa 7B69     		ldr	r3, [r7, #20]
 4539 00ac 1B69     		ldr	r3, [r3, #16]
 4540 00ae 93F83030 		ldrb	r3, [r3, #48]	@ zero_extendqisi2
 4541 00b2 9BB2     		uxth	r3, r3
 4542 00b4 7A69     		ldr	r2, [r7, #20]
 4543 00b6 1269     		ldr	r2, [r2, #16]
 4544 00b8 0093     		str	r3, [sp]
 4545 00ba 01AB     		add	r3, sp, #4
 4546 00bc 3232     		adds	r2, r2, #50
 4547 00be 1068     		ldr	r0, [r2]	@ unaligned
 4548 00c0 5168     		ldr	r1, [r2, #4]	@ unaligned
 4549 00c2 03C3     		stmia	r3!, {r0, r1}
 4550 00c4 7046     		mov	r0, lr
 4551 00c6 3146     		mov	r1, r6
 4552 00c8 2A46     		mov	r2, r5
 4553 00ca 2346     		mov	r3, r4
 4554 00cc FFF7FEFF 		bl	DisplayOutputString
 4555 00d0 0346     		mov	r3, r0
 4556 00d2 1A46     		mov	r2, r3
 4557 00d4 FB68     		ldr	r3, [r7, #12]
 4558 00d6 5A80     		strh	r2, [r3, #2]	@ movhi
1082:.\DisplayBLL.c ****                 puartdisp->_messagestate = PENDING;
 4559              		.loc 1 1082 0
 4560 00d8 FB68     		ldr	r3, [r7, #12]
 4561 00da C222     		movs	r2, #194
 4562 00dc 1A70     		strb	r2, [r3]
 4563              	.L176:
 4564              	.LBE55:
1083:.\DisplayBLL.c ****             }
1084:.\DisplayBLL.c ****         }
ARM GAS  C:\Users\RECEPC~1\AppData\Local\Temp\ccvg7Xyk.s 			page 101


1085:.\DisplayBLL.c ****     }
1086:.\DisplayBLL.c **** }
 4565              		.loc 1 1086 0
 4566 00de 1C37     		adds	r7, r7, #28
 4567              		.cfi_def_cfa_offset 20
 4568 00e0 BD46     		mov	sp, r7
 4569              		.cfi_def_cfa_register 13
 4570              		@ sp needed
 4571 00e2 F0BD     		pop	{r4, r5, r6, r7, pc}
 4572              		.cfi_endproc
 4573              	.LFE83:
 4574              		.size	DisplayPumpIDOffsetDecorator, .-DisplayPumpIDOffsetDecorator
 4575              		.section	.text.DisplayPumpIDOffsetStore,"ax",%progbits
 4576              		.align	2
 4577              		.global	DisplayPumpIDOffsetStore
 4578              		.thumb
 4579              		.thumb_func
 4580              		.type	DisplayPumpIDOffsetStore, %function
 4581              	DisplayPumpIDOffsetStore:
 4582              	.LFB84:
1087:.\DisplayBLL.c **** 
1088:.\DisplayBLL.c **** void DisplayPumpIDOffsetStore(void *pparam)
1089:.\DisplayBLL.c **** {
 4583              		.loc 1 1089 0
 4584              		.cfi_startproc
 4585              		@ args = 0, pretend = 0, frame = 16
 4586              		@ frame_needed = 1, uses_anonymous_args = 0
 4587 0000 B0B5     		push	{r4, r5, r7, lr}
 4588              		.cfi_def_cfa_offset 16
 4589              		.cfi_offset 4, -16
 4590              		.cfi_offset 5, -12
 4591              		.cfi_offset 7, -8
 4592              		.cfi_offset 14, -4
 4593 0002 84B0     		sub	sp, sp, #16
 4594              		.cfi_def_cfa_offset 32
 4595 0004 00AF     		add	r7, sp, #0
 4596              		.cfi_def_cfa_register 7
 4597 0006 7860     		str	r0, [r7, #4]
1090:.\DisplayBLL.c ****     PDISPLAYLAYOUTPTR pdisplay = (PDISPLAYLAYOUTPTR)pparam;
 4598              		.loc 1 1090 0
 4599 0008 7B68     		ldr	r3, [r7, #4]
 4600 000a BB60     		str	r3, [r7, #8]
1091:.\DisplayBLL.c ****     if(pdisplay)
 4601              		.loc 1 1091 0
 4602 000c BB68     		ldr	r3, [r7, #8]
 4603 000e 002B     		cmp	r3, #0
 4604 0010 50D0     		beq	.L180
 4605              	.LBB56:
1092:.\DisplayBLL.c ****     {
1093:.\DisplayBLL.c ****         //CAREFUL WITH RETURNS BETWEEN THE LOCK/UNLOCK CALLS
1094:.\DisplayBLL.c ****         //AND RECURSIVE CALLS THAT WOULD DEADLOCK!
1095:.\DisplayBLL.c ****         uint8 pumpidoffset = 0x00;
 4606              		.loc 1 1095 0
 4607 0012 0023     		movs	r3, #0
 4608 0014 FB73     		strb	r3, [r7, #15]
1096:.\DisplayBLL.c ****         FOR(uint8 index = 0, index < pdisplay->_bufferinfo._bufferindex, index++)
 4609              		.loc 1 1096 0
ARM GAS  C:\Users\RECEPC~1\AppData\Local\Temp\ccvg7Xyk.s 			page 102


 4610 0016 0023     		movs	r3, #0
 4611 0018 BB73     		strb	r3, [r7, #14]
 4612 001a 2FE0     		b	.L182
 4613              	.L183:
1097:.\DisplayBLL.c ****             pumpidoffset += (uint16)(pow(10, pdisplay->_bufferinfo._bufferindex - index - 1)*(pdisp
 4614              		.loc 1 1097 0 discriminator 3
 4615 001c BB68     		ldr	r3, [r7, #8]
 4616 001e 1B7F     		ldrb	r3, [r3, #28]	@ zero_extendqisi2
 4617 0020 1A46     		mov	r2, r3
 4618 0022 BB7B     		ldrb	r3, [r7, #14]	@ zero_extendqisi2
 4619 0024 D31A     		subs	r3, r2, r3
 4620 0026 013B     		subs	r3, r3, #1
 4621 0028 1846     		mov	r0, r3
 4622 002a FFF7FEFF 		bl	__aeabi_i2d
 4623 002e 0246     		mov	r2, r0
 4624 0030 0B46     		mov	r3, r1
 4625 0032 4FF00000 		mov	r0, #0
 4626 0036 2149     		ldr	r1, .L184
 4627 0038 FFF7FEFF 		bl	pow
 4628 003c 0446     		mov	r4, r0
 4629 003e 0D46     		mov	r5, r1
 4630 0040 BB7B     		ldrb	r3, [r7, #14]	@ zero_extendqisi2
 4631 0042 BA68     		ldr	r2, [r7, #8]
 4632 0044 1344     		add	r3, r3, r2
 4633 0046 5B7F     		ldrb	r3, [r3, #29]	@ zero_extendqisi2
 4634 0048 03F00F03 		and	r3, r3, #15
 4635 004c 1846     		mov	r0, r3
 4636 004e FFF7FEFF 		bl	__aeabi_i2d
 4637 0052 0246     		mov	r2, r0
 4638 0054 0B46     		mov	r3, r1
 4639 0056 2046     		mov	r0, r4
 4640 0058 2946     		mov	r1, r5
 4641 005a FFF7FEFF 		bl	__aeabi_dmul
 4642 005e 0246     		mov	r2, r0
 4643 0060 0B46     		mov	r3, r1
 4644 0062 1046     		mov	r0, r2
 4645 0064 1946     		mov	r1, r3
 4646 0066 FFF7FEFF 		bl	__aeabi_d2uiz
 4647 006a 0346     		mov	r3, r0
 4648 006c 9BB2     		uxth	r3, r3
 4649 006e DAB2     		uxtb	r2, r3
 4650 0070 FB7B     		ldrb	r3, [r7, #15]
 4651 0072 1344     		add	r3, r3, r2
 4652 0074 FB73     		strb	r3, [r7, #15]
1096:.\DisplayBLL.c ****         FOR(uint8 index = 0, index < pdisplay->_bufferinfo._bufferindex, index++)
 4653              		.loc 1 1096 0 discriminator 3
 4654 0076 BB7B     		ldrb	r3, [r7, #14]	@ zero_extendqisi2
 4655 0078 0133     		adds	r3, r3, #1
 4656 007a BB73     		strb	r3, [r7, #14]
 4657              	.L182:
1096:.\DisplayBLL.c ****         FOR(uint8 index = 0, index < pdisplay->_bufferinfo._bufferindex, index++)
 4658              		.loc 1 1096 0 is_stmt 0 discriminator 1
 4659 007c BB68     		ldr	r3, [r7, #8]
 4660 007e 1B7F     		ldrb	r3, [r3, #28]	@ zero_extendqisi2
 4661 0080 BA7B     		ldrb	r2, [r7, #14]	@ zero_extendqisi2
 4662 0082 9A42     		cmp	r2, r3
 4663 0084 CAD3     		bcc	.L183
ARM GAS  C:\Users\RECEPC~1\AppData\Local\Temp\ccvg7Xyk.s 			page 103


1098:.\DisplayBLL.c ****             
1099:.\DisplayBLL.c ****         I2CBusLock();
 4664              		.loc 1 1099 0 is_stmt 1
 4665 0086 FFF7FEFF 		bl	I2CBusLock
1100:.\DisplayBLL.c ****         ClearEepromBuffer();
 4666              		.loc 1 1100 0
 4667 008a FFF7FEFF 		bl	ClearEepromBuffer
1101:.\DisplayBLL.c ****         
1102:.\DisplayBLL.c ****         LoadEepromPage(EEPROM_CONFIGURATION_PAGE7);
 4668              		.loc 1 1102 0
 4669 008e 4FF4E070 		mov	r0, #448
 4670 0092 FFF7FEFF 		bl	LoadEepromPage
1103:.\DisplayBLL.c ****         GetEepromBuffer()[0x09] = (uint8)pumpidoffset;
 4671              		.loc 1 1103 0
 4672 0096 FFF7FEFF 		bl	GetEepromBuffer
 4673 009a 0346     		mov	r3, r0
 4674 009c 0933     		adds	r3, r3, #9
 4675 009e FA7B     		ldrb	r2, [r7, #15]
 4676 00a0 1A70     		strb	r2, [r3]
1104:.\DisplayBLL.c ****         StoreEepromPage(EEPROM_CONFIGURATION_PAGE7);
 4677              		.loc 1 1104 0
 4678 00a2 4FF4E070 		mov	r0, #448
 4679 00a6 FFF7FEFF 		bl	StoreEepromPage
1105:.\DisplayBLL.c ****         
1106:.\DisplayBLL.c ****         _g_dispenserlayoutinfo._positionoffset = (uint8)pumpidoffset;
 4680              		.loc 1 1106 0
 4681 00aa 054A     		ldr	r2, .L184+4
 4682 00ac FB7B     		ldrb	r3, [r7, #15]
 4683 00ae 9374     		strb	r3, [r2, #18]
1107:.\DisplayBLL.c ****         
1108:.\DisplayBLL.c ****         I2CBusUnlock();
 4684              		.loc 1 1108 0
 4685 00b0 FFF7FEFF 		bl	I2CBusUnlock
 4686              	.L180:
 4687              	.LBE56:
1109:.\DisplayBLL.c ****         
1110:.\DisplayBLL.c ****     }
1111:.\DisplayBLL.c **** }
 4688              		.loc 1 1111 0
 4689 00b4 1037     		adds	r7, r7, #16
 4690              		.cfi_def_cfa_offset 16
 4691 00b6 BD46     		mov	sp, r7
 4692              		.cfi_def_cfa_register 13
 4693              		@ sp needed
 4694 00b8 B0BD     		pop	{r4, r5, r7, pc}
 4695              	.L185:
 4696 00ba 00BF     		.align	2
 4697              	.L184:
 4698 00bc 00002440 		.word	1076101120
 4699 00c0 00000000 		.word	_g_dispenserlayoutinfo
 4700              		.cfi_endproc
 4701              	.LFE84:
 4702              		.size	DisplayPumpIDOffsetStore, .-DisplayPumpIDOffsetStore
 4703              		.section	.text.InitiateiButtonScan,"ax",%progbits
 4704              		.align	2
 4705              		.global	InitiateiButtonScan
 4706              		.thumb
ARM GAS  C:\Users\RECEPC~1\AppData\Local\Temp\ccvg7Xyk.s 			page 104


 4707              		.thumb_func
 4708              		.type	InitiateiButtonScan, %function
 4709              	InitiateiButtonScan:
 4710              	.LFB85:
1112:.\DisplayBLL.c **** 
1113:.\DisplayBLL.c **** //@Created By: HIJH
1114:.\DisplayBLL.c **** //@Septembre de 2016
1115:.\DisplayBLL.c **** void InitiateiButtonScan(void *pparam)
1116:.\DisplayBLL.c **** {
 4711              		.loc 1 1116 0
 4712              		.cfi_startproc
 4713              		@ args = 0, pretend = 0, frame = 24
 4714              		@ frame_needed = 1, uses_anonymous_args = 0
 4715 0000 80B5     		push	{r7, lr}
 4716              		.cfi_def_cfa_offset 8
 4717              		.cfi_offset 7, -8
 4718              		.cfi_offset 14, -4
 4719 0002 86B0     		sub	sp, sp, #24
 4720              		.cfi_def_cfa_offset 32
 4721 0004 00AF     		add	r7, sp, #0
 4722              		.cfi_def_cfa_register 7
 4723 0006 7860     		str	r0, [r7, #4]
1117:.\DisplayBLL.c ****     PDISPLAYLAYOUTPTR pdisplay = (PDISPLAYLAYOUTPTR)pparam;
 4724              		.loc 1 1117 0
 4725 0008 7B68     		ldr	r3, [r7, #4]
 4726 000a 7B61     		str	r3, [r7, #20]
1118:.\DisplayBLL.c ****     if(pdisplay->_dispid == DISPLAY1)
 4727              		.loc 1 1118 0
 4728 000c 7B69     		ldr	r3, [r7, #20]
 4729 000e 1B78     		ldrb	r3, [r3]	@ zero_extendqisi2
 4730 0010 002B     		cmp	r3, #0
 4731 0012 22D1     		bne	.L187
 4732              	.LBB57:
1119:.\DisplayBLL.c ****     {
1120:.\DisplayBLL.c ****         PSINKMESSAGEPTR psinkmsg = AllocateMessageSlot();
 4733              		.loc 1 1120 0
 4734 0014 FFF7FEFF 		bl	AllocateMessageSlot
 4735 0018 3861     		str	r0, [r7, #16]
1121:.\DisplayBLL.c ****         if(psinkmsg)
 4736              		.loc 1 1121 0
 4737 001a 3B69     		ldr	r3, [r7, #16]
 4738 001c 002B     		cmp	r3, #0
 4739 001e 1BD0     		beq	.L188
1122:.\DisplayBLL.c ****         {
1123:.\DisplayBLL.c ****             pdisplay->_pdata = psinkmsg;
 4740              		.loc 1 1123 0
 4741 0020 7B69     		ldr	r3, [r7, #20]
 4742 0022 3A69     		ldr	r2, [r7, #16]
 4743 0024 5A63     		str	r2, [r3, #52]
1124:.\DisplayBLL.c ****             psinkmsg->_pdata = pdisplay;
 4744              		.loc 1 1124 0
 4745 0026 3B69     		ldr	r3, [r7, #16]
 4746 0028 7A69     		ldr	r2, [r7, #20]
 4747 002a C3F89021 		str	r2, [r3, #400]
1125:.\DisplayBLL.c ****             psinkmsg->_messageid = IBUTTON1_SCAN;
 4748              		.loc 1 1125 0
 4749 002e 3B69     		ldr	r3, [r7, #16]
ARM GAS  C:\Users\RECEPC~1\AppData\Local\Temp\ccvg7Xyk.s 			page 105


 4750 0030 2522     		movs	r2, #37
 4751 0032 5A70     		strb	r2, [r3, #1]
1126:.\DisplayBLL.c ****             psinkmsg->_messagetimeoutlimit = _SINK_TIMEOUT_50MS_;
 4752              		.loc 1 1126 0
 4753 0034 3B69     		ldr	r3, [r7, #16]
 4754 0036 3222     		movs	r2, #50
 4755 0038 5A81     		strh	r2, [r3, #10]	@ movhi
1127:.\DisplayBLL.c ****             psinkmsg->_messagedelay = _SINK_TIMEOUT_1S_;
 4756              		.loc 1 1127 0
 4757 003a 3B69     		ldr	r3, [r7, #16]
 4758 003c 4FF47A72 		mov	r2, #1000
 4759 0040 9A80     		strh	r2, [r3, #4]	@ movhi
1128:.\DisplayBLL.c ****             psinkmsg->Callback = iButtonScreenNotification;
 4760              		.loc 1 1128 0
 4761 0042 3B69     		ldr	r3, [r7, #16]
 4762 0044 194A     		ldr	r2, .L190
 4763 0046 C3F89421 		str	r2, [r3, #404]
1129:.\DisplayBLL.c ****             psinkmsg->_messagetype = FIRSTFOUNDFOREVER;
 4764              		.loc 1 1129 0
 4765 004a 3B69     		ldr	r3, [r7, #16]
 4766 004c 0622     		movs	r2, #6
 4767 004e 9A70     		strb	r2, [r3, #2]
1130:.\DisplayBLL.c ****             psinkmsg->_messagestate = SINK_BUSY;
 4768              		.loc 1 1130 0
 4769 0050 3B69     		ldr	r3, [r7, #16]
 4770 0052 0322     		movs	r2, #3
 4771 0054 DA70     		strb	r2, [r3, #3]
 4772              	.LBE57:
 4773 0056 25E0     		b	.L186
 4774              	.L188:
 4775 0058 24E0     		b	.L186
 4776              	.L187:
1131:.\DisplayBLL.c ****         }        
1132:.\DisplayBLL.c ****     }
1133:.\DisplayBLL.c ****     else if(pdisplay->_dispid == DISPLAY2)
 4777              		.loc 1 1133 0
 4778 005a 7B69     		ldr	r3, [r7, #20]
 4779 005c 1B78     		ldrb	r3, [r3]	@ zero_extendqisi2
 4780 005e 012B     		cmp	r3, #1
 4781 0060 20D1     		bne	.L186
 4782              	.LBB58:
1134:.\DisplayBLL.c ****     {
1135:.\DisplayBLL.c ****         PSINKMESSAGEPTR psinkmsg = AllocateMessageSlot();
 4783              		.loc 1 1135 0
 4784 0062 FFF7FEFF 		bl	AllocateMessageSlot
 4785 0066 F860     		str	r0, [r7, #12]
1136:.\DisplayBLL.c ****         if(psinkmsg)
 4786              		.loc 1 1136 0
 4787 0068 FB68     		ldr	r3, [r7, #12]
 4788 006a 002B     		cmp	r3, #0
 4789 006c 1AD0     		beq	.L186
1137:.\DisplayBLL.c ****         {
1138:.\DisplayBLL.c ****             pdisplay->_pdata = psinkmsg;
 4790              		.loc 1 1138 0
 4791 006e 7B69     		ldr	r3, [r7, #20]
 4792 0070 FA68     		ldr	r2, [r7, #12]
 4793 0072 5A63     		str	r2, [r3, #52]
ARM GAS  C:\Users\RECEPC~1\AppData\Local\Temp\ccvg7Xyk.s 			page 106


1139:.\DisplayBLL.c ****             psinkmsg->_pdata = pdisplay;
 4794              		.loc 1 1139 0
 4795 0074 FB68     		ldr	r3, [r7, #12]
 4796 0076 7A69     		ldr	r2, [r7, #20]
 4797 0078 C3F89021 		str	r2, [r3, #400]
1140:.\DisplayBLL.c ****             psinkmsg->_messageid = IBUTTON2_SCAN;
 4798              		.loc 1 1140 0
 4799 007c FB68     		ldr	r3, [r7, #12]
 4800 007e 2622     		movs	r2, #38
 4801 0080 5A70     		strb	r2, [r3, #1]
1141:.\DisplayBLL.c ****             psinkmsg->_messagetimeoutlimit = _SINK_TIMEOUT_50MS_;
 4802              		.loc 1 1141 0
 4803 0082 FB68     		ldr	r3, [r7, #12]
 4804 0084 3222     		movs	r2, #50
 4805 0086 5A81     		strh	r2, [r3, #10]	@ movhi
1142:.\DisplayBLL.c ****             psinkmsg->_messagedelay = _SINK_TIMEOUT_1S_;
 4806              		.loc 1 1142 0
 4807 0088 FB68     		ldr	r3, [r7, #12]
 4808 008a 4FF47A72 		mov	r2, #1000
 4809 008e 9A80     		strh	r2, [r3, #4]	@ movhi
1143:.\DisplayBLL.c ****             psinkmsg->Callback = iButtonScreenNotification;
 4810              		.loc 1 1143 0
 4811 0090 FB68     		ldr	r3, [r7, #12]
 4812 0092 064A     		ldr	r2, .L190
 4813 0094 C3F89421 		str	r2, [r3, #404]
1144:.\DisplayBLL.c ****             psinkmsg->_messagetype = FIRSTFOUNDFOREVER;
 4814              		.loc 1 1144 0
 4815 0098 FB68     		ldr	r3, [r7, #12]
 4816 009a 0622     		movs	r2, #6
 4817 009c 9A70     		strb	r2, [r3, #2]
1145:.\DisplayBLL.c ****             psinkmsg->_messagestate = SINK_BUSY;
 4818              		.loc 1 1145 0
 4819 009e FB68     		ldr	r3, [r7, #12]
 4820 00a0 0322     		movs	r2, #3
 4821 00a2 DA70     		strb	r2, [r3, #3]
 4822              	.L186:
 4823              	.LBE58:
1146:.\DisplayBLL.c ****         }
1147:.\DisplayBLL.c ****     }
1148:.\DisplayBLL.c **** }
 4824              		.loc 1 1148 0
 4825 00a4 1837     		adds	r7, r7, #24
 4826              		.cfi_def_cfa_offset 8
 4827 00a6 BD46     		mov	sp, r7
 4828              		.cfi_def_cfa_register 13
 4829              		@ sp needed
 4830 00a8 80BD     		pop	{r7, pc}
 4831              	.L191:
 4832 00aa 00BF     		.align	2
 4833              	.L190:
 4834 00ac 00000000 		.word	iButtonScreenNotification
 4835              		.cfi_endproc
 4836              	.LFE85:
 4837              		.size	InitiateiButtonScan, .-InitiateiButtonScan
 4838              		.section	.text.TerminateiButtonScan,"ax",%progbits
 4839              		.align	2
 4840              		.global	TerminateiButtonScan
ARM GAS  C:\Users\RECEPC~1\AppData\Local\Temp\ccvg7Xyk.s 			page 107


 4841              		.thumb
 4842              		.thumb_func
 4843              		.type	TerminateiButtonScan, %function
 4844              	TerminateiButtonScan:
 4845              	.LFB86:
1149:.\DisplayBLL.c **** 
1150:.\DisplayBLL.c **** //@Created By: HIJH
1151:.\DisplayBLL.c **** //@Septembre de 2016
1152:.\DisplayBLL.c **** void TerminateiButtonScan(void *pparam)
1153:.\DisplayBLL.c **** {
 4846              		.loc 1 1153 0
 4847              		.cfi_startproc
 4848              		@ args = 0, pretend = 0, frame = 16
 4849              		@ frame_needed = 1, uses_anonymous_args = 0
 4850              		@ link register save eliminated.
 4851 0000 80B4     		push	{r7}
 4852              		.cfi_def_cfa_offset 4
 4853              		.cfi_offset 7, -4
 4854 0002 85B0     		sub	sp, sp, #20
 4855              		.cfi_def_cfa_offset 24
 4856 0004 00AF     		add	r7, sp, #0
 4857              		.cfi_def_cfa_register 7
 4858 0006 7860     		str	r0, [r7, #4]
1154:.\DisplayBLL.c ****     PDISPLAYLAYOUTPTR pdisplay = (PDISPLAYLAYOUTPTR)pparam;
 4859              		.loc 1 1154 0
 4860 0008 7B68     		ldr	r3, [r7, #4]
 4861 000a FB60     		str	r3, [r7, #12]
1155:.\DisplayBLL.c ****     if(pdisplay->_pdata)
 4862              		.loc 1 1155 0
 4863 000c FB68     		ldr	r3, [r7, #12]
 4864 000e 5B6B     		ldr	r3, [r3, #52]
 4865 0010 002B     		cmp	r3, #0
 4866 0012 0AD0     		beq	.L192
1156:.\DisplayBLL.c ****     {
1157:.\DisplayBLL.c ****         if((PSINKMESSAGEPTR)pdisplay->_pdata)
 4867              		.loc 1 1157 0
 4868 0014 FB68     		ldr	r3, [r7, #12]
 4869 0016 5B6B     		ldr	r3, [r3, #52]
 4870 0018 002B     		cmp	r3, #0
 4871 001a 03D0     		beq	.L194
1158:.\DisplayBLL.c ****             ((PSINKMESSAGEPTR)pdisplay->_pdata)->_selfkill = true;
 4872              		.loc 1 1158 0
 4873 001c FB68     		ldr	r3, [r7, #12]
 4874 001e 5B6B     		ldr	r3, [r3, #52]
 4875 0020 0122     		movs	r2, #1
 4876 0022 1A70     		strb	r2, [r3]
 4877              	.L194:
1159:.\DisplayBLL.c ****             
1160:.\DisplayBLL.c ****         pdisplay->_pdata = PNEAR_NULLPTR;
 4878              		.loc 1 1160 0
 4879 0024 FB68     		ldr	r3, [r7, #12]
 4880 0026 0022     		movs	r2, #0
 4881 0028 5A63     		str	r2, [r3, #52]
 4882              	.L192:
1161:.\DisplayBLL.c ****     }
1162:.\DisplayBLL.c **** }
 4883              		.loc 1 1162 0
ARM GAS  C:\Users\RECEPC~1\AppData\Local\Temp\ccvg7Xyk.s 			page 108


 4884 002a 1437     		adds	r7, r7, #20
 4885              		.cfi_def_cfa_offset 4
 4886 002c BD46     		mov	sp, r7
 4887              		.cfi_def_cfa_register 13
 4888              		@ sp needed
 4889 002e 5DF8047B 		ldr	r7, [sp], #4
 4890              		.cfi_restore 7
 4891              		.cfi_def_cfa_offset 0
 4892 0032 7047     		bx	lr
 4893              		.cfi_endproc
 4894              	.LFE86:
 4895              		.size	TerminateiButtonScan, .-TerminateiButtonScan
 4896              		.section	.rodata
 4897 014f 00       		.align	2
 4898              	.LC6:
 4899 0150 AA       		.byte	-86
 4900 0151 00       		.byte	0
 4901 0152 00       		.byte	0
 4902 0153 FF       		.byte	-1
 4903 0154 CC       		.byte	-52
 4904 0155 33       		.byte	51
 4905 0156 C3       		.byte	-61
 4906 0157 3C       		.byte	60
 4907              		.section	.text.iButtonScreenNotification,"ax",%progbits
 4908              		.align	2
 4909              		.global	iButtonScreenNotification
 4910              		.thumb
 4911              		.thumb_func
 4912              		.type	iButtonScreenNotification, %function
 4913              	iButtonScreenNotification:
 4914              	.LFB87:
1163:.\DisplayBLL.c **** 
1164:.\DisplayBLL.c **** //@Created By: HIJH
1165:.\DisplayBLL.c **** //@Septembre de 2016
1166:.\DisplayBLL.c **** void iButtonScreenNotification(LPVOID pparam)
1167:.\DisplayBLL.c **** {
 4915              		.loc 1 1167 0
 4916              		.cfi_startproc
 4917              		@ args = 0, pretend = 0, frame = 32
 4918              		@ frame_needed = 1, uses_anonymous_args = 0
 4919 0000 80B5     		push	{r7, lr}
 4920              		.cfi_def_cfa_offset 8
 4921              		.cfi_offset 7, -8
 4922              		.cfi_offset 14, -4
 4923 0002 88B0     		sub	sp, sp, #32
 4924              		.cfi_def_cfa_offset 40
 4925 0004 00AF     		add	r7, sp, #0
 4926              		.cfi_def_cfa_register 7
 4927 0006 7860     		str	r0, [r7, #4]
1168:.\DisplayBLL.c ****     PSINKMESSAGEPTR pmsg = (PSINKMESSAGEPTR)pparam;
 4928              		.loc 1 1168 0
 4929 0008 7B68     		ldr	r3, [r7, #4]
 4930 000a FB61     		str	r3, [r7, #28]
1169:.\DisplayBLL.c ****     PDISPLAYLAYOUTPTR pdisplay = (PDISPLAYLAYOUTPTR)pmsg->_pdata;
 4931              		.loc 1 1169 0
 4932 000c FB69     		ldr	r3, [r7, #28]
 4933 000e D3F89031 		ldr	r3, [r3, #400]
ARM GAS  C:\Users\RECEPC~1\AppData\Local\Temp\ccvg7Xyk.s 			page 109


 4934 0012 BB61     		str	r3, [r7, #24]
1170:.\DisplayBLL.c ****     if(pdisplay)
 4935              		.loc 1 1170 0
 4936 0014 BB69     		ldr	r3, [r7, #24]
 4937 0016 002B     		cmp	r3, #0
 4938 0018 38D0     		beq	.L195
 4939              	.LBB59:
1171:.\DisplayBLL.c ****     {
1172:.\DisplayBLL.c ****         pdisplay->_timeoutscrid = DISPLAY_ID_RECONOCIDO;
 4940              		.loc 1 1172 0
 4941 001a BB69     		ldr	r3, [r7, #24]
 4942 001c 1322     		movs	r2, #19
 4943 001e 9A72     		strb	r2, [r3, #10]
1173:.\DisplayBLL.c ****         //Here we are storing the serial identifier read from the iButton device
1174:.\DisplayBLL.c ****         memcpy(pdisplay->_bufferinfo._buffer, pmsg->_buffer, _IBUTTON_PAYLOAD_LENGTH_);
 4944              		.loc 1 1174 0
 4945 0020 BB69     		ldr	r3, [r7, #24]
 4946 0022 03F11D02 		add	r2, r3, #29
 4947 0026 FB69     		ldr	r3, [r7, #28]
 4948 0028 0C33     		adds	r3, r3, #12
 4949 002a 1046     		mov	r0, r2
 4950 002c 1946     		mov	r1, r3
 4951 002e 0822     		movs	r2, #8
 4952 0030 FFF7FEFF 		bl	memcpy
1175:.\DisplayBLL.c ****         pdisplay->_bufferinfo._bufferindex = _IBUTTON_PAYLOAD_LENGTH_;
 4953              		.loc 1 1175 0
 4954 0034 BB69     		ldr	r3, [r7, #24]
 4955 0036 0822     		movs	r2, #8
 4956 0038 1A77     		strb	r2, [r3, #28]
1176:.\DisplayBLL.c ****         
1177:.\DisplayBLL.c ****         _ALLOCATE_SINKMESSAGE_SLOT(psinkmsg);
 4957              		.loc 1 1177 0
 4958 003a FFF7FEFF 		bl	AllocateMessageSlot
 4959 003e 7861     		str	r0, [r7, #20]
1178:.\DisplayBLL.c ****         if(psinkmsg)
 4960              		.loc 1 1178 0
 4961 0040 7B69     		ldr	r3, [r7, #20]
 4962 0042 002B     		cmp	r3, #0
 4963 0044 22D0     		beq	.L195
 4964              	.LBB60:
1179:.\DisplayBLL.c ****         {
1180:.\DisplayBLL.c ****             
1181:.\DisplayBLL.c ****             char8 pdummybuffer[] = { 0xAA, 0x00, 0x00, 0xFF, 0xCC, 0x33, 0xC3, 0x3C };
 4965              		.loc 1 1181 0
 4966 0046 134A     		ldr	r2, .L199
 4967 0048 07F10C03 		add	r3, r7, #12
 4968 004c 1068     		ldr	r0, [r2]	@ unaligned
 4969 004e 5168     		ldr	r1, [r2, #4]	@ unaligned
 4970 0050 03C3     		stmia	r3!, {r0, r1}
1182:.\DisplayBLL.c ****             if(pdisplay->_dispid == DISPLAY1)
 4971              		.loc 1 1182 0
 4972 0052 BB69     		ldr	r3, [r7, #24]
 4973 0054 1B78     		ldrb	r3, [r3]	@ zero_extendqisi2
 4974 0056 002B     		cmp	r3, #0
 4975 0058 03D1     		bne	.L197
1183:.\DisplayBLL.c ****                 psinkmsg->_messageid = DISPLAY1_RECEPTION;
 4976              		.loc 1 1183 0
ARM GAS  C:\Users\RECEPC~1\AppData\Local\Temp\ccvg7Xyk.s 			page 110


 4977 005a 7B69     		ldr	r3, [r7, #20]
 4978 005c 1D22     		movs	r2, #29
 4979 005e 5A70     		strb	r2, [r3, #1]
 4980 0060 02E0     		b	.L198
 4981              	.L197:
1184:.\DisplayBLL.c ****             else
1185:.\DisplayBLL.c ****                 psinkmsg->_messageid = DISPLAY2_RECEPTION;
 4982              		.loc 1 1185 0
 4983 0062 7B69     		ldr	r3, [r7, #20]
 4984 0064 2122     		movs	r2, #33
 4985 0066 5A70     		strb	r2, [r3, #1]
 4986              	.L198:
1186:.\DisplayBLL.c ****             
1187:.\DisplayBLL.c ****             psinkmsg->_messagetype = FIRSTFOUND;
 4987              		.loc 1 1187 0
 4988 0068 7B69     		ldr	r3, [r7, #20]
 4989 006a 0322     		movs	r2, #3
 4990 006c 9A70     		strb	r2, [r3, #2]
1188:.\DisplayBLL.c ****             memcpy(psinkmsg->_buffer, (const void*)pdummybuffer, sizeof(pdummybuffer));
 4991              		.loc 1 1188 0
 4992 006e 7B69     		ldr	r3, [r7, #20]
 4993 0070 0C33     		adds	r3, r3, #12
 4994 0072 1A46     		mov	r2, r3
 4995 0074 07F10C03 		add	r3, r7, #12
 4996 0078 03CB     		ldmia	r3!, {r0, r1}
 4997 007a 1060     		str	r0, [r2]	@ unaligned
 4998 007c 5160     		str	r1, [r2, #4]	@ unaligned
1189:.\DisplayBLL.c ****             psinkmsg->_buffersize = sizeof(pdummybuffer);
 4999              		.loc 1 1189 0
 5000 007e 7B69     		ldr	r3, [r7, #20]
 5001 0080 0822     		movs	r2, #8
 5002 0082 A3F88C21 		strh	r2, [r3, #396]	@ movhi
1190:.\DisplayBLL.c ****             psinkmsg->_messagestate = SINK_BUSY;
 5003              		.loc 1 1190 0
 5004 0086 7B69     		ldr	r3, [r7, #20]
 5005 0088 0322     		movs	r2, #3
 5006 008a DA70     		strb	r2, [r3, #3]
 5007              	.L195:
 5008              	.LBE60:
 5009              	.LBE59:
1191:.\DisplayBLL.c ****             
1192:.\DisplayBLL.c ****         }
1193:.\DisplayBLL.c ****     }
1194:.\DisplayBLL.c **** }
 5010              		.loc 1 1194 0
 5011 008c 2037     		adds	r7, r7, #32
 5012              		.cfi_def_cfa_offset 8
 5013 008e BD46     		mov	sp, r7
 5014              		.cfi_def_cfa_register 13
 5015              		@ sp needed
 5016 0090 80BD     		pop	{r7, pc}
 5017              	.L200:
 5018 0092 00BF     		.align	2
 5019              	.L199:
 5020 0094 50010000 		.word	.LC6
 5021              		.cfi_endproc
 5022              	.LFE87:
ARM GAS  C:\Users\RECEPC~1\AppData\Local\Temp\ccvg7Xyk.s 			page 111


 5023              		.size	iButtonScreenNotification, .-iButtonScreenNotification
 5024              		.section	.text.DrawDateTime,"ax",%progbits
 5025              		.align	2
 5026              		.global	DrawDateTime
 5027              		.thumb
 5028              		.thumb_func
 5029              		.type	DrawDateTime, %function
 5030              	DrawDateTime:
 5031              	.LFB88:
1195:.\DisplayBLL.c **** 
1196:.\DisplayBLL.c **** void DrawDateTime(void *pparam)
1197:.\DisplayBLL.c **** {
 5032              		.loc 1 1197 0
 5033              		.cfi_startproc
 5034              		@ args = 0, pretend = 0, frame = 48
 5035              		@ frame_needed = 1, uses_anonymous_args = 0
 5036 0000 B0B5     		push	{r4, r5, r7, lr}
 5037              		.cfi_def_cfa_offset 16
 5038              		.cfi_offset 4, -16
 5039              		.cfi_offset 5, -12
 5040              		.cfi_offset 7, -8
 5041              		.cfi_offset 14, -4
 5042 0002 90B0     		sub	sp, sp, #64
 5043              		.cfi_def_cfa_offset 80
 5044 0004 04AF     		add	r7, sp, #16
 5045              		.cfi_def_cfa 7, 64
 5046 0006 7860     		str	r0, [r7, #4]
1198:.\DisplayBLL.c ****     char8 buffer[8];
1199:.\DisplayBLL.c ****     FontData fontdata;
1200:.\DisplayBLL.c ****     fontdata._size = 0x04;
 5047              		.loc 1 1200 0
 5048 0008 0423     		movs	r3, #4
 5049 000a 3B72     		strb	r3, [r7, #8]
1201:.\DisplayBLL.c ****     fontdata._backcolor = 0xFFFF;
 5050              		.loc 1 1201 0
 5051 000c 4FF6FF73 		movw	r3, #65535
 5052 0010 BB81     		strh	r3, [r7, #12]	@ movhi
1202:.\DisplayBLL.c ****     fontdata._forecolor = 0x0000;
 5053              		.loc 1 1202 0
 5054 0012 0023     		movs	r3, #0
 5055 0014 FB81     		strh	r3, [r7, #14]	@ movhi
1203:.\DisplayBLL.c ****     fontdata._opaquebackground = DISP_TEXT_OPAQUE;
 5056              		.loc 1 1203 0
 5057 0016 C523     		movs	r3, #197
 5058 0018 BB72     		strb	r3, [r7, #10]
1204:.\DisplayBLL.c ****     DisplayLayout *pdisplay = (DisplayLayout*)pparam;
 5059              		.loc 1 1204 0
 5060 001a 7B68     		ldr	r3, [r7, #4]
 5061 001c BB62     		str	r3, [r7, #40]
1205:.\DisplayBLL.c ****     if(pdisplay->_dispid == DISPLAY1 && ((PDISPLAYFLOWPTR)pdisplay->_pcurrflow)->_scrid == DISPLAY_
 5062              		.loc 1 1205 0
 5063 001e BB6A     		ldr	r3, [r7, #40]
 5064 0020 1B78     		ldrb	r3, [r3]	@ zero_extendqisi2
 5065 0022 002B     		cmp	r3, #0
 5066 0024 40F00482 		bne	.L202
 5067              		.loc 1 1205 0 is_stmt 0 discriminator 1
 5068 0028 BB6A     		ldr	r3, [r7, #40]
ARM GAS  C:\Users\RECEPC~1\AppData\Local\Temp\ccvg7Xyk.s 			page 112


 5069 002a 1B69     		ldr	r3, [r3, #16]
 5070 002c 1B78     		ldrb	r3, [r3]	@ zero_extendqisi2
 5071 002e 3E2B     		cmp	r3, #62
 5072 0030 40F0FE81 		bne	.L202
 5073              	.LBB61:
1206:.\DisplayBLL.c ****     {
1207:.\DisplayBLL.c ****         UARTMessage *puartdisp = GetUARTMessageSlot(UART_DISPLAY1);
 5074              		.loc 1 1207 0 is_stmt 1
 5075 0034 A320     		movs	r0, #163
 5076 0036 FFF7FEFF 		bl	GetUARTMessageSlot
 5077 003a 7862     		str	r0, [r7, #36]
1208:.\DisplayBLL.c ****         if(puartdisp)
 5078              		.loc 1 1208 0
 5079 003c 7B6A     		ldr	r3, [r7, #36]
 5080 003e 002B     		cmp	r3, #0
 5081 0040 00F01481 		beq	.L203
 5082              	.LBB62:
1209:.\DisplayBLL.c ****         {
1210:.\DisplayBLL.c ****             uint8 index = 0;
 5083              		.loc 1 1210 0
 5084 0044 0023     		movs	r3, #0
 5085 0046 87F82F30 		strb	r3, [r7, #47]
1211:.\DisplayBLL.c ****             
1212:.\DisplayBLL.c ****             //CAREFUL WITH RETURNS BETWEEN THE LOCK/UNLOCK CALLS
1213:.\DisplayBLL.c ****             //AND RECURSIVE CALLS THAT WOULD DEADLOCK!
1214:.\DisplayBLL.c ****             I2CBusLock();
 5086              		.loc 1 1214 0
 5087 004a FFF7FEFF 		bl	I2CBusLock
1215:.\DisplayBLL.c ****             
1216:.\DisplayBLL.c ****             ClearRtcBuffer();
 5088              		.loc 1 1216 0
 5089 004e FFF7FEFF 		bl	ClearRtcBuffer
1217:.\DisplayBLL.c ****             ReadRTC();                           
 5090              		.loc 1 1217 0
 5091 0052 FFF7FEFF 		bl	ReadRTC
1218:.\DisplayBLL.c ****             memset(buffer, 0x00, sizeof(buffer));            
 5092              		.loc 1 1218 0
 5093 0056 07F11003 		add	r3, r7, #16
 5094 005a 1846     		mov	r0, r3
 5095 005c 0021     		movs	r1, #0
 5096 005e 0822     		movs	r2, #8
 5097 0060 FFF7FEFF 		bl	memset
1219:.\DisplayBLL.c ****             
1220:.\DisplayBLL.c ****             if(GetRtcBuffer()[RTC_HOUR] & 0b01000000){
 5098              		.loc 1 1220 0
 5099 0064 FFF7FEFF 		bl	GetRtcBuffer
 5100 0068 0346     		mov	r3, r0
 5101 006a 0233     		adds	r3, r3, #2
 5102 006c 1B78     		ldrb	r3, [r3]	@ zero_extendqisi2
 5103 006e 03F04003 		and	r3, r3, #64
 5104 0072 002B     		cmp	r3, #0
 5105 0074 32D0     		beq	.L204
1221:.\DisplayBLL.c ****                 buffer[index++] = ((GetRtcBuffer()[RTC_HOUR] >> 4) & 0x01) | 0x30;
 5106              		.loc 1 1221 0
 5107 0076 97F82F30 		ldrb	r3, [r7, #47]	@ zero_extendqisi2
 5108 007a 5A1C     		adds	r2, r3, #1
 5109 007c 87F82F20 		strb	r2, [r7, #47]
ARM GAS  C:\Users\RECEPC~1\AppData\Local\Temp\ccvg7Xyk.s 			page 113


 5110 0080 1C46     		mov	r4, r3
 5111 0082 FFF7FEFF 		bl	GetRtcBuffer
 5112 0086 0346     		mov	r3, r0
 5113 0088 0233     		adds	r3, r3, #2
 5114 008a 1B78     		ldrb	r3, [r3]	@ zero_extendqisi2
 5115 008c 1B09     		lsrs	r3, r3, #4
 5116 008e DBB2     		uxtb	r3, r3
 5117 0090 DBB2     		uxtb	r3, r3
 5118 0092 03F00103 		and	r3, r3, #1
 5119 0096 DBB2     		uxtb	r3, r3
 5120 0098 43F03003 		orr	r3, r3, #48
 5121 009c DBB2     		uxtb	r3, r3
 5122 009e DAB2     		uxtb	r2, r3
 5123 00a0 07F13003 		add	r3, r7, #48
 5124 00a4 2344     		add	r3, r3, r4
 5125 00a6 03F8202C 		strb	r2, [r3, #-32]
1222:.\DisplayBLL.c ****                 buffer[index++] = (GetRtcBuffer()[RTC_HOUR] & 0x0F) | 0x30;
 5126              		.loc 1 1222 0
 5127 00aa 97F82F30 		ldrb	r3, [r7, #47]	@ zero_extendqisi2
 5128 00ae 5A1C     		adds	r2, r3, #1
 5129 00b0 87F82F20 		strb	r2, [r7, #47]
 5130 00b4 1C46     		mov	r4, r3
 5131 00b6 FFF7FEFF 		bl	GetRtcBuffer
 5132 00ba 0346     		mov	r3, r0
 5133 00bc 0233     		adds	r3, r3, #2
 5134 00be 1B78     		ldrb	r3, [r3]	@ zero_extendqisi2
 5135 00c0 DBB2     		uxtb	r3, r3
 5136 00c2 03F00F03 		and	r3, r3, #15
 5137 00c6 DBB2     		uxtb	r3, r3
 5138 00c8 43F03003 		orr	r3, r3, #48
 5139 00cc DBB2     		uxtb	r3, r3
 5140 00ce DAB2     		uxtb	r2, r3
 5141 00d0 07F13003 		add	r3, r7, #48
 5142 00d4 2344     		add	r3, r3, r4
 5143 00d6 03F8202C 		strb	r2, [r3, #-32]
 5144 00da 31E0     		b	.L205
 5145              	.L204:
1223:.\DisplayBLL.c ****             }else{
1224:.\DisplayBLL.c ****                 buffer[index++] = ((GetRtcBuffer()[RTC_HOUR] >> 4) & 0x03) | 0x30;
 5146              		.loc 1 1224 0
 5147 00dc 97F82F30 		ldrb	r3, [r7, #47]	@ zero_extendqisi2
 5148 00e0 5A1C     		adds	r2, r3, #1
 5149 00e2 87F82F20 		strb	r2, [r7, #47]
 5150 00e6 1C46     		mov	r4, r3
 5151 00e8 FFF7FEFF 		bl	GetRtcBuffer
 5152 00ec 0346     		mov	r3, r0
 5153 00ee 0233     		adds	r3, r3, #2
 5154 00f0 1B78     		ldrb	r3, [r3]	@ zero_extendqisi2
 5155 00f2 1B09     		lsrs	r3, r3, #4
 5156 00f4 DBB2     		uxtb	r3, r3
 5157 00f6 DBB2     		uxtb	r3, r3
 5158 00f8 03F00303 		and	r3, r3, #3
 5159 00fc DBB2     		uxtb	r3, r3
 5160 00fe 43F03003 		orr	r3, r3, #48
 5161 0102 DBB2     		uxtb	r3, r3
 5162 0104 DAB2     		uxtb	r2, r3
 5163 0106 07F13003 		add	r3, r7, #48
ARM GAS  C:\Users\RECEPC~1\AppData\Local\Temp\ccvg7Xyk.s 			page 114


 5164 010a 2344     		add	r3, r3, r4
 5165 010c 03F8202C 		strb	r2, [r3, #-32]
1225:.\DisplayBLL.c ****                 buffer[index++] = (GetRtcBuffer()[RTC_HOUR] & 0x0F) | 0x30;
 5166              		.loc 1 1225 0
 5167 0110 97F82F30 		ldrb	r3, [r7, #47]	@ zero_extendqisi2
 5168 0114 5A1C     		adds	r2, r3, #1
 5169 0116 87F82F20 		strb	r2, [r7, #47]
 5170 011a 1C46     		mov	r4, r3
 5171 011c FFF7FEFF 		bl	GetRtcBuffer
 5172 0120 0346     		mov	r3, r0
 5173 0122 0233     		adds	r3, r3, #2
 5174 0124 1B78     		ldrb	r3, [r3]	@ zero_extendqisi2
 5175 0126 DBB2     		uxtb	r3, r3
 5176 0128 03F00F03 		and	r3, r3, #15
 5177 012c DBB2     		uxtb	r3, r3
 5178 012e 43F03003 		orr	r3, r3, #48
 5179 0132 DBB2     		uxtb	r3, r3
 5180 0134 DAB2     		uxtb	r2, r3
 5181 0136 07F13003 		add	r3, r7, #48
 5182 013a 2344     		add	r3, r3, r4
 5183 013c 03F8202C 		strb	r2, [r3, #-32]
 5184              	.L205:
1226:.\DisplayBLL.c ****             }
1227:.\DisplayBLL.c ****             
1228:.\DisplayBLL.c ****             buffer[index++] = 0x3A;
 5185              		.loc 1 1228 0
 5186 0140 97F82F30 		ldrb	r3, [r7, #47]	@ zero_extendqisi2
 5187 0144 5A1C     		adds	r2, r3, #1
 5188 0146 87F82F20 		strb	r2, [r7, #47]
 5189 014a 07F13002 		add	r2, r7, #48
 5190 014e 1344     		add	r3, r3, r2
 5191 0150 3A22     		movs	r2, #58
 5192 0152 03F8202C 		strb	r2, [r3, #-32]
1229:.\DisplayBLL.c ****             buffer[index++] = ((GetRtcBuffer()[RTC_MINUTES] >> 4) & 0x07) | 0x30;
 5193              		.loc 1 1229 0
 5194 0156 97F82F30 		ldrb	r3, [r7, #47]	@ zero_extendqisi2
 5195 015a 5A1C     		adds	r2, r3, #1
 5196 015c 87F82F20 		strb	r2, [r7, #47]
 5197 0160 1C46     		mov	r4, r3
 5198 0162 FFF7FEFF 		bl	GetRtcBuffer
 5199 0166 0346     		mov	r3, r0
 5200 0168 0133     		adds	r3, r3, #1
 5201 016a 1B78     		ldrb	r3, [r3]	@ zero_extendqisi2
 5202 016c 1B09     		lsrs	r3, r3, #4
 5203 016e DBB2     		uxtb	r3, r3
 5204 0170 DBB2     		uxtb	r3, r3
 5205 0172 03F00703 		and	r3, r3, #7
 5206 0176 DBB2     		uxtb	r3, r3
 5207 0178 43F03003 		orr	r3, r3, #48
 5208 017c DBB2     		uxtb	r3, r3
 5209 017e DAB2     		uxtb	r2, r3
 5210 0180 07F13003 		add	r3, r7, #48
 5211 0184 2344     		add	r3, r3, r4
 5212 0186 03F8202C 		strb	r2, [r3, #-32]
1230:.\DisplayBLL.c ****             buffer[index++] = (GetRtcBuffer()[RTC_MINUTES] & 0x0F) | 0x30;
 5213              		.loc 1 1230 0
 5214 018a 97F82F30 		ldrb	r3, [r7, #47]	@ zero_extendqisi2
ARM GAS  C:\Users\RECEPC~1\AppData\Local\Temp\ccvg7Xyk.s 			page 115


 5215 018e 5A1C     		adds	r2, r3, #1
 5216 0190 87F82F20 		strb	r2, [r7, #47]
 5217 0194 1C46     		mov	r4, r3
 5218 0196 FFF7FEFF 		bl	GetRtcBuffer
 5219 019a 0346     		mov	r3, r0
 5220 019c 0133     		adds	r3, r3, #1
 5221 019e 1B78     		ldrb	r3, [r3]	@ zero_extendqisi2
 5222 01a0 DBB2     		uxtb	r3, r3
 5223 01a2 03F00F03 		and	r3, r3, #15
 5224 01a6 DBB2     		uxtb	r3, r3
 5225 01a8 43F03003 		orr	r3, r3, #48
 5226 01ac DBB2     		uxtb	r3, r3
 5227 01ae DAB2     		uxtb	r2, r3
 5228 01b0 07F13003 		add	r3, r7, #48
 5229 01b4 2344     		add	r3, r3, r4
 5230 01b6 03F8202C 		strb	r2, [r3, #-32]
1231:.\DisplayBLL.c ****             buffer[index++] = 0x3A;
 5231              		.loc 1 1231 0
 5232 01ba 97F82F30 		ldrb	r3, [r7, #47]	@ zero_extendqisi2
 5233 01be 5A1C     		adds	r2, r3, #1
 5234 01c0 87F82F20 		strb	r2, [r7, #47]
 5235 01c4 07F13002 		add	r2, r7, #48
 5236 01c8 1344     		add	r3, r3, r2
 5237 01ca 3A22     		movs	r2, #58
 5238 01cc 03F8202C 		strb	r2, [r3, #-32]
1232:.\DisplayBLL.c ****             buffer[index++] = ((GetRtcBuffer()[RTC_SECONDS] >> 4) & 0x07) | 0x30;
 5239              		.loc 1 1232 0
 5240 01d0 97F82F30 		ldrb	r3, [r7, #47]	@ zero_extendqisi2
 5241 01d4 5A1C     		adds	r2, r3, #1
 5242 01d6 87F82F20 		strb	r2, [r7, #47]
 5243 01da 1C46     		mov	r4, r3
 5244 01dc FFF7FEFF 		bl	GetRtcBuffer
 5245 01e0 0346     		mov	r3, r0
 5246 01e2 1B78     		ldrb	r3, [r3]	@ zero_extendqisi2
 5247 01e4 1B09     		lsrs	r3, r3, #4
 5248 01e6 DBB2     		uxtb	r3, r3
 5249 01e8 DBB2     		uxtb	r3, r3
 5250 01ea 03F00703 		and	r3, r3, #7
 5251 01ee DBB2     		uxtb	r3, r3
 5252 01f0 43F03003 		orr	r3, r3, #48
 5253 01f4 DBB2     		uxtb	r3, r3
 5254 01f6 DAB2     		uxtb	r2, r3
 5255 01f8 07F13003 		add	r3, r7, #48
 5256 01fc 2344     		add	r3, r3, r4
 5257 01fe 03F8202C 		strb	r2, [r3, #-32]
1233:.\DisplayBLL.c ****             buffer[index++] = (GetRtcBuffer()[RTC_SECONDS] & 0x0F) | 0x30;
 5258              		.loc 1 1233 0
 5259 0202 97F82F30 		ldrb	r3, [r7, #47]	@ zero_extendqisi2
 5260 0206 5A1C     		adds	r2, r3, #1
 5261 0208 87F82F20 		strb	r2, [r7, #47]
 5262 020c 1C46     		mov	r4, r3
 5263 020e FFF7FEFF 		bl	GetRtcBuffer
 5264 0212 0346     		mov	r3, r0
 5265 0214 1B78     		ldrb	r3, [r3]	@ zero_extendqisi2
 5266 0216 DBB2     		uxtb	r3, r3
 5267 0218 03F00F03 		and	r3, r3, #15
 5268 021c DBB2     		uxtb	r3, r3
ARM GAS  C:\Users\RECEPC~1\AppData\Local\Temp\ccvg7Xyk.s 			page 116


 5269 021e 43F03003 		orr	r3, r3, #48
 5270 0222 DBB2     		uxtb	r3, r3
 5271 0224 DAB2     		uxtb	r2, r3
 5272 0226 07F13003 		add	r3, r7, #48
 5273 022a 2344     		add	r3, r3, r4
 5274 022c 03F8202C 		strb	r2, [r3, #-32]
1234:.\DisplayBLL.c ****             
1235:.\DisplayBLL.c ****             I2CBusUnlock();
 5275              		.loc 1 1235 0
 5276 0230 FFF7FEFF 		bl	I2CBusUnlock
1236:.\DisplayBLL.c ****             
1237:.\DisplayBLL.c ****             puartdisp->_messagelength = DisplayOutputString(0x0C9, 0x0BA, puartdisp->_messagetx, bu
 5277              		.loc 1 1237 0
 5278 0234 7B6A     		ldr	r3, [r7, #36]
 5279 0236 1D1D     		adds	r5, r3, #4
 5280 0238 97F82F30 		ldrb	r3, [r7, #47]	@ zero_extendqisi2
 5281 023c 9BB2     		uxth	r3, r3
 5282 023e 07F11004 		add	r4, r7, #16
 5283 0242 0093     		str	r3, [sp]
 5284 0244 01AA     		add	r2, sp, #4
 5285 0246 07F10803 		add	r3, r7, #8
 5286 024a 93E80300 		ldmia	r3, {r0, r1}
 5287 024e 82E80300 		stmia	r2, {r0, r1}
 5288 0252 C920     		movs	r0, #201
 5289 0254 BA21     		movs	r1, #186
 5290 0256 2A46     		mov	r2, r5
 5291 0258 2346     		mov	r3, r4
 5292 025a FFF7FEFF 		bl	DisplayOutputString
 5293 025e 0346     		mov	r3, r0
 5294 0260 1A46     		mov	r2, r3
 5295 0262 7B6A     		ldr	r3, [r7, #36]
 5296 0264 5A80     		strh	r2, [r3, #2]	@ movhi
1238:.\DisplayBLL.c ****             puartdisp->_messagestate = PENDING;
 5297              		.loc 1 1238 0
 5298 0266 7B6A     		ldr	r3, [r7, #36]
 5299 0268 C222     		movs	r2, #194
 5300 026a 1A70     		strb	r2, [r3]
 5301              	.L203:
 5302              	.LBE62:
1239:.\DisplayBLL.c ****         }
1240:.\DisplayBLL.c ****         
1241:.\DisplayBLL.c ****         puartdisp = GetUARTMessageSlot(UART_DISPLAY1);
 5303              		.loc 1 1241 0
 5304 026c A320     		movs	r0, #163
 5305 026e FFF7FEFF 		bl	GetUARTMessageSlot
 5306 0272 7862     		str	r0, [r7, #36]
1242:.\DisplayBLL.c ****         if(puartdisp)
 5307              		.loc 1 1242 0
 5308 0274 7B6A     		ldr	r3, [r7, #36]
 5309 0276 002B     		cmp	r3, #0
 5310 0278 00F0D980 		beq	.L206
 5311              	.LBB63:
1243:.\DisplayBLL.c ****         {
1244:.\DisplayBLL.c ****             uint8 index = 0;
 5312              		.loc 1 1244 0
 5313 027c 0023     		movs	r3, #0
 5314 027e 87F82330 		strb	r3, [r7, #35]
ARM GAS  C:\Users\RECEPC~1\AppData\Local\Temp\ccvg7Xyk.s 			page 117


1245:.\DisplayBLL.c ****             
1246:.\DisplayBLL.c ****             //CAREFUL WITH RETURNS BETWEEN THE LOCK/UNLOCK CALLS
1247:.\DisplayBLL.c ****             //AND RECURSIVE CALLS THAT WOULD DEADLOCK!
1248:.\DisplayBLL.c ****             I2CBusLock();
 5315              		.loc 1 1248 0
 5316 0282 FFF7FEFF 		bl	I2CBusLock
1249:.\DisplayBLL.c ****             
1250:.\DisplayBLL.c ****             ClearRtcBuffer();
 5317              		.loc 1 1250 0
 5318 0286 FFF7FEFF 		bl	ClearRtcBuffer
1251:.\DisplayBLL.c ****             ReadRTC();                           
 5319              		.loc 1 1251 0
 5320 028a FFF7FEFF 		bl	ReadRTC
1252:.\DisplayBLL.c ****             memset(buffer, 0x00, sizeof(buffer));            
 5321              		.loc 1 1252 0
 5322 028e 07F11003 		add	r3, r7, #16
 5323 0292 1846     		mov	r0, r3
 5324 0294 0021     		movs	r1, #0
 5325 0296 0822     		movs	r2, #8
 5326 0298 FFF7FEFF 		bl	memset
1253:.\DisplayBLL.c ****             
1254:.\DisplayBLL.c ****             buffer[index++] = ((GetRtcBuffer()[RTC_DAY] >> 4) & 0x03) | 0x30;
 5327              		.loc 1 1254 0
 5328 029c 97F82330 		ldrb	r3, [r7, #35]	@ zero_extendqisi2
 5329 02a0 5A1C     		adds	r2, r3, #1
 5330 02a2 87F82320 		strb	r2, [r7, #35]
 5331 02a6 1C46     		mov	r4, r3
 5332 02a8 FFF7FEFF 		bl	GetRtcBuffer
 5333 02ac 0346     		mov	r3, r0
 5334 02ae 0433     		adds	r3, r3, #4
 5335 02b0 1B78     		ldrb	r3, [r3]	@ zero_extendqisi2
 5336 02b2 1B09     		lsrs	r3, r3, #4
 5337 02b4 DBB2     		uxtb	r3, r3
 5338 02b6 DBB2     		uxtb	r3, r3
 5339 02b8 03F00303 		and	r3, r3, #3
 5340 02bc DBB2     		uxtb	r3, r3
 5341 02be 43F03003 		orr	r3, r3, #48
 5342 02c2 DBB2     		uxtb	r3, r3
 5343 02c4 DAB2     		uxtb	r2, r3
 5344 02c6 07F13003 		add	r3, r7, #48
 5345 02ca 2344     		add	r3, r3, r4
 5346 02cc 03F8202C 		strb	r2, [r3, #-32]
1255:.\DisplayBLL.c ****             buffer[index++] = (GetRtcBuffer()[RTC_DAY] & 0x0F) | 0x30;
 5347              		.loc 1 1255 0
 5348 02d0 97F82330 		ldrb	r3, [r7, #35]	@ zero_extendqisi2
 5349 02d4 5A1C     		adds	r2, r3, #1
 5350 02d6 87F82320 		strb	r2, [r7, #35]
 5351 02da 1C46     		mov	r4, r3
 5352 02dc FFF7FEFF 		bl	GetRtcBuffer
 5353 02e0 0346     		mov	r3, r0
 5354 02e2 0433     		adds	r3, r3, #4
 5355 02e4 1B78     		ldrb	r3, [r3]	@ zero_extendqisi2
 5356 02e6 DBB2     		uxtb	r3, r3
 5357 02e8 03F00F03 		and	r3, r3, #15
 5358 02ec DBB2     		uxtb	r3, r3
 5359 02ee 43F03003 		orr	r3, r3, #48
 5360 02f2 DBB2     		uxtb	r3, r3
ARM GAS  C:\Users\RECEPC~1\AppData\Local\Temp\ccvg7Xyk.s 			page 118


 5361 02f4 DAB2     		uxtb	r2, r3
 5362 02f6 07F13003 		add	r3, r7, #48
 5363 02fa 2344     		add	r3, r3, r4
 5364 02fc 03F8202C 		strb	r2, [r3, #-32]
1256:.\DisplayBLL.c ****             buffer[index++] = 0x2F;
 5365              		.loc 1 1256 0
 5366 0300 97F82330 		ldrb	r3, [r7, #35]	@ zero_extendqisi2
 5367 0304 5A1C     		adds	r2, r3, #1
 5368 0306 87F82320 		strb	r2, [r7, #35]
 5369 030a 07F13002 		add	r2, r7, #48
 5370 030e 1344     		add	r3, r3, r2
 5371 0310 2F22     		movs	r2, #47
 5372 0312 03F8202C 		strb	r2, [r3, #-32]
1257:.\DisplayBLL.c ****             buffer[index++] = ((GetRtcBuffer()[RTC_MONTH] >> 4) & 0x01) | 0x30;
 5373              		.loc 1 1257 0
 5374 0316 97F82330 		ldrb	r3, [r7, #35]	@ zero_extendqisi2
 5375 031a 5A1C     		adds	r2, r3, #1
 5376 031c 87F82320 		strb	r2, [r7, #35]
 5377 0320 1C46     		mov	r4, r3
 5378 0322 FFF7FEFF 		bl	GetRtcBuffer
 5379 0326 0346     		mov	r3, r0
 5380 0328 0533     		adds	r3, r3, #5
 5381 032a 1B78     		ldrb	r3, [r3]	@ zero_extendqisi2
 5382 032c 1B09     		lsrs	r3, r3, #4
 5383 032e DBB2     		uxtb	r3, r3
 5384 0330 DBB2     		uxtb	r3, r3
 5385 0332 03F00103 		and	r3, r3, #1
 5386 0336 DBB2     		uxtb	r3, r3
 5387 0338 43F03003 		orr	r3, r3, #48
 5388 033c DBB2     		uxtb	r3, r3
 5389 033e DAB2     		uxtb	r2, r3
 5390 0340 07F13003 		add	r3, r7, #48
 5391 0344 2344     		add	r3, r3, r4
 5392 0346 03F8202C 		strb	r2, [r3, #-32]
1258:.\DisplayBLL.c ****             buffer[index++] = (GetRtcBuffer()[RTC_MONTH] & 0x0F) | 0x30;
 5393              		.loc 1 1258 0
 5394 034a 97F82330 		ldrb	r3, [r7, #35]	@ zero_extendqisi2
 5395 034e 5A1C     		adds	r2, r3, #1
 5396 0350 87F82320 		strb	r2, [r7, #35]
 5397 0354 1C46     		mov	r4, r3
 5398 0356 FFF7FEFF 		bl	GetRtcBuffer
 5399 035a 0346     		mov	r3, r0
 5400 035c 0533     		adds	r3, r3, #5
 5401 035e 1B78     		ldrb	r3, [r3]	@ zero_extendqisi2
 5402 0360 DBB2     		uxtb	r3, r3
 5403 0362 03F00F03 		and	r3, r3, #15
 5404 0366 DBB2     		uxtb	r3, r3
 5405 0368 43F03003 		orr	r3, r3, #48
 5406 036c DBB2     		uxtb	r3, r3
 5407 036e DAB2     		uxtb	r2, r3
 5408 0370 07F13003 		add	r3, r7, #48
 5409 0374 2344     		add	r3, r3, r4
 5410 0376 03F8202C 		strb	r2, [r3, #-32]
1259:.\DisplayBLL.c ****             buffer[index++] = 0x2F;
 5411              		.loc 1 1259 0
 5412 037a 97F82330 		ldrb	r3, [r7, #35]	@ zero_extendqisi2
 5413 037e 5A1C     		adds	r2, r3, #1
ARM GAS  C:\Users\RECEPC~1\AppData\Local\Temp\ccvg7Xyk.s 			page 119


 5414 0380 87F82320 		strb	r2, [r7, #35]
 5415 0384 07F13002 		add	r2, r7, #48
 5416 0388 1344     		add	r3, r3, r2
 5417 038a 2F22     		movs	r2, #47
 5418 038c 03F8202C 		strb	r2, [r3, #-32]
1260:.\DisplayBLL.c ****             buffer[index++] = ((GetRtcBuffer()[RTC_YEAR] >> 4) & 0x0F) | 0x30;
 5419              		.loc 1 1260 0
 5420 0390 97F82330 		ldrb	r3, [r7, #35]	@ zero_extendqisi2
 5421 0394 5A1C     		adds	r2, r3, #1
 5422 0396 87F82320 		strb	r2, [r7, #35]
 5423 039a 1C46     		mov	r4, r3
 5424 039c FFF7FEFF 		bl	GetRtcBuffer
 5425 03a0 0346     		mov	r3, r0
 5426 03a2 0633     		adds	r3, r3, #6
 5427 03a4 1B78     		ldrb	r3, [r3]	@ zero_extendqisi2
 5428 03a6 1B09     		lsrs	r3, r3, #4
 5429 03a8 DBB2     		uxtb	r3, r3
 5430 03aa DBB2     		uxtb	r3, r3
 5431 03ac 43F03003 		orr	r3, r3, #48
 5432 03b0 DBB2     		uxtb	r3, r3
 5433 03b2 DAB2     		uxtb	r2, r3
 5434 03b4 07F13003 		add	r3, r7, #48
 5435 03b8 2344     		add	r3, r3, r4
 5436 03ba 03F8202C 		strb	r2, [r3, #-32]
1261:.\DisplayBLL.c ****             buffer[index++] = (GetRtcBuffer()[RTC_YEAR] & 0x0F) | 0x30;
 5437              		.loc 1 1261 0
 5438 03be 97F82330 		ldrb	r3, [r7, #35]	@ zero_extendqisi2
 5439 03c2 5A1C     		adds	r2, r3, #1
 5440 03c4 87F82320 		strb	r2, [r7, #35]
 5441 03c8 1C46     		mov	r4, r3
 5442 03ca FFF7FEFF 		bl	GetRtcBuffer
 5443 03ce 0346     		mov	r3, r0
 5444 03d0 0633     		adds	r3, r3, #6
 5445 03d2 1B78     		ldrb	r3, [r3]	@ zero_extendqisi2
 5446 03d4 DBB2     		uxtb	r3, r3
 5447 03d6 03F00F03 		and	r3, r3, #15
 5448 03da DBB2     		uxtb	r3, r3
 5449 03dc 43F03003 		orr	r3, r3, #48
 5450 03e0 DBB2     		uxtb	r3, r3
 5451 03e2 DAB2     		uxtb	r2, r3
 5452 03e4 07F13003 		add	r3, r7, #48
 5453 03e8 2344     		add	r3, r3, r4
 5454 03ea 03F8202C 		strb	r2, [r3, #-32]
1262:.\DisplayBLL.c **** 
1263:.\DisplayBLL.c ****             I2CBusUnlock();
 5455              		.loc 1 1263 0
 5456 03ee FFF7FEFF 		bl	I2CBusUnlock
1264:.\DisplayBLL.c ****             
1265:.\DisplayBLL.c ****             puartdisp->_messagelength = DisplayOutputString(0x0C9, 0x12A, puartdisp->_messagetx, bu
 5457              		.loc 1 1265 0
 5458 03f2 7B6A     		ldr	r3, [r7, #36]
 5459 03f4 1D1D     		adds	r5, r3, #4
 5460 03f6 97F82330 		ldrb	r3, [r7, #35]	@ zero_extendqisi2
 5461 03fa 9BB2     		uxth	r3, r3
 5462 03fc 07F11004 		add	r4, r7, #16
 5463 0400 0093     		str	r3, [sp]
 5464 0402 01AA     		add	r2, sp, #4
ARM GAS  C:\Users\RECEPC~1\AppData\Local\Temp\ccvg7Xyk.s 			page 120


 5465 0404 07F10803 		add	r3, r7, #8
 5466 0408 93E80300 		ldmia	r3, {r0, r1}
 5467 040c 82E80300 		stmia	r2, {r0, r1}
 5468 0410 C920     		movs	r0, #201
 5469 0412 4FF49571 		mov	r1, #298
 5470 0416 2A46     		mov	r2, r5
 5471 0418 2346     		mov	r3, r4
 5472 041a FFF7FEFF 		bl	DisplayOutputString
 5473 041e 0346     		mov	r3, r0
 5474 0420 1A46     		mov	r2, r3
 5475 0422 7B6A     		ldr	r3, [r7, #36]
 5476 0424 5A80     		strh	r2, [r3, #2]	@ movhi
1266:.\DisplayBLL.c ****             puartdisp->_messagestate = PENDING;
 5477              		.loc 1 1266 0
 5478 0426 7B6A     		ldr	r3, [r7, #36]
 5479 0428 C222     		movs	r2, #194
 5480 042a 1A70     		strb	r2, [r3]
 5481              	.LBE63:
 5482              	.LBE61:
1206:.\DisplayBLL.c ****         UARTMessage *puartdisp = GetUARTMessageSlot(UART_DISPLAY1);
 5483              		.loc 1 1206 0
 5484 042c F5E1     		b	.L201
 5485              	.L206:
 5486 042e F4E1     		b	.L201
 5487              	.L202:
1267:.\DisplayBLL.c ****         }
1268:.\DisplayBLL.c ****         
1269:.\DisplayBLL.c ****     }
1270:.\DisplayBLL.c ****     else if(pdisplay->_dispid == DISPLAY2 && ((PDISPLAYFLOWPTR)pdisplay->_pcurrflow)->_scrid == DIS
 5488              		.loc 1 1270 0
 5489 0430 BB6A     		ldr	r3, [r7, #40]
 5490 0432 1B78     		ldrb	r3, [r3]	@ zero_extendqisi2
 5491 0434 012B     		cmp	r3, #1
 5492 0436 40F0F081 		bne	.L201
 5493              		.loc 1 1270 0 is_stmt 0 discriminator 1
 5494 043a BB6A     		ldr	r3, [r7, #40]
 5495 043c 1B69     		ldr	r3, [r3, #16]
 5496 043e 1B78     		ldrb	r3, [r3]	@ zero_extendqisi2
 5497 0440 3E2B     		cmp	r3, #62
 5498 0442 40F0EA81 		bne	.L201
 5499              	.LBB64:
1271:.\DisplayBLL.c ****     {
1272:.\DisplayBLL.c ****         UARTMessage *puartdisp = GetUARTMessageSlot(UART_DISPLAY2);
 5500              		.loc 1 1272 0 is_stmt 1
 5501 0446 A420     		movs	r0, #164
 5502 0448 FFF7FEFF 		bl	GetUARTMessageSlot
 5503 044c F861     		str	r0, [r7, #28]
1273:.\DisplayBLL.c ****         if(puartdisp)
 5504              		.loc 1 1273 0
 5505 044e FB69     		ldr	r3, [r7, #28]
 5506 0450 002B     		cmp	r3, #0
 5507 0452 00F01481 		beq	.L208
 5508              	.LBB65:
1274:.\DisplayBLL.c ****         {
1275:.\DisplayBLL.c ****             uint8 index = 0;
 5509              		.loc 1 1275 0
 5510 0456 0023     		movs	r3, #0
ARM GAS  C:\Users\RECEPC~1\AppData\Local\Temp\ccvg7Xyk.s 			page 121


 5511 0458 87F82E30 		strb	r3, [r7, #46]
1276:.\DisplayBLL.c ****             
1277:.\DisplayBLL.c ****             //CAREFUL WITH RETURNS BETWEEN THE LOCK/UNLOCK CALLS
1278:.\DisplayBLL.c ****             //AND RECURSIVE CALLS THAT WOULD DEADLOCK!
1279:.\DisplayBLL.c ****             I2CBusLock();
 5512              		.loc 1 1279 0
 5513 045c FFF7FEFF 		bl	I2CBusLock
1280:.\DisplayBLL.c ****             
1281:.\DisplayBLL.c ****             ClearRtcBuffer();
 5514              		.loc 1 1281 0
 5515 0460 FFF7FEFF 		bl	ClearRtcBuffer
1282:.\DisplayBLL.c ****             ReadRTC();                           
 5516              		.loc 1 1282 0
 5517 0464 FFF7FEFF 		bl	ReadRTC
1283:.\DisplayBLL.c ****             memset(buffer, 0x00, sizeof(buffer));            
 5518              		.loc 1 1283 0
 5519 0468 07F11003 		add	r3, r7, #16
 5520 046c 1846     		mov	r0, r3
 5521 046e 0021     		movs	r1, #0
 5522 0470 0822     		movs	r2, #8
 5523 0472 FFF7FEFF 		bl	memset
1284:.\DisplayBLL.c ****             
1285:.\DisplayBLL.c ****             if(GetRtcBuffer()[RTC_HOUR] & 0b01000000){
 5524              		.loc 1 1285 0
 5525 0476 FFF7FEFF 		bl	GetRtcBuffer
 5526 047a 0346     		mov	r3, r0
 5527 047c 0233     		adds	r3, r3, #2
 5528 047e 1B78     		ldrb	r3, [r3]	@ zero_extendqisi2
 5529 0480 03F04003 		and	r3, r3, #64
 5530 0484 002B     		cmp	r3, #0
 5531 0486 32D0     		beq	.L209
1286:.\DisplayBLL.c ****                 buffer[index++] = ((GetRtcBuffer()[RTC_HOUR] >> 4) & 0x01) | 0x30;
 5532              		.loc 1 1286 0
 5533 0488 97F82E30 		ldrb	r3, [r7, #46]	@ zero_extendqisi2
 5534 048c 5A1C     		adds	r2, r3, #1
 5535 048e 87F82E20 		strb	r2, [r7, #46]
 5536 0492 1C46     		mov	r4, r3
 5537 0494 FFF7FEFF 		bl	GetRtcBuffer
 5538 0498 0346     		mov	r3, r0
 5539 049a 0233     		adds	r3, r3, #2
 5540 049c 1B78     		ldrb	r3, [r3]	@ zero_extendqisi2
 5541 049e 1B09     		lsrs	r3, r3, #4
 5542 04a0 DBB2     		uxtb	r3, r3
 5543 04a2 DBB2     		uxtb	r3, r3
 5544 04a4 03F00103 		and	r3, r3, #1
 5545 04a8 DBB2     		uxtb	r3, r3
 5546 04aa 43F03003 		orr	r3, r3, #48
 5547 04ae DBB2     		uxtb	r3, r3
 5548 04b0 DAB2     		uxtb	r2, r3
 5549 04b2 07F13003 		add	r3, r7, #48
 5550 04b6 2344     		add	r3, r3, r4
 5551 04b8 03F8202C 		strb	r2, [r3, #-32]
1287:.\DisplayBLL.c ****                 buffer[index++] = (GetRtcBuffer()[RTC_HOUR] & 0x0F) | 0x30;
 5552              		.loc 1 1287 0
 5553 04bc 97F82E30 		ldrb	r3, [r7, #46]	@ zero_extendqisi2
 5554 04c0 5A1C     		adds	r2, r3, #1
 5555 04c2 87F82E20 		strb	r2, [r7, #46]
ARM GAS  C:\Users\RECEPC~1\AppData\Local\Temp\ccvg7Xyk.s 			page 122


 5556 04c6 1C46     		mov	r4, r3
 5557 04c8 FFF7FEFF 		bl	GetRtcBuffer
 5558 04cc 0346     		mov	r3, r0
 5559 04ce 0233     		adds	r3, r3, #2
 5560 04d0 1B78     		ldrb	r3, [r3]	@ zero_extendqisi2
 5561 04d2 DBB2     		uxtb	r3, r3
 5562 04d4 03F00F03 		and	r3, r3, #15
 5563 04d8 DBB2     		uxtb	r3, r3
 5564 04da 43F03003 		orr	r3, r3, #48
 5565 04de DBB2     		uxtb	r3, r3
 5566 04e0 DAB2     		uxtb	r2, r3
 5567 04e2 07F13003 		add	r3, r7, #48
 5568 04e6 2344     		add	r3, r3, r4
 5569 04e8 03F8202C 		strb	r2, [r3, #-32]
 5570 04ec 31E0     		b	.L210
 5571              	.L209:
1288:.\DisplayBLL.c ****             }else{
1289:.\DisplayBLL.c ****                 buffer[index++] = ((GetRtcBuffer()[RTC_HOUR] >> 4) & 0x03) | 0x30;
 5572              		.loc 1 1289 0
 5573 04ee 97F82E30 		ldrb	r3, [r7, #46]	@ zero_extendqisi2
 5574 04f2 5A1C     		adds	r2, r3, #1
 5575 04f4 87F82E20 		strb	r2, [r7, #46]
 5576 04f8 1C46     		mov	r4, r3
 5577 04fa FFF7FEFF 		bl	GetRtcBuffer
 5578 04fe 0346     		mov	r3, r0
 5579 0500 0233     		adds	r3, r3, #2
 5580 0502 1B78     		ldrb	r3, [r3]	@ zero_extendqisi2
 5581 0504 1B09     		lsrs	r3, r3, #4
 5582 0506 DBB2     		uxtb	r3, r3
 5583 0508 DBB2     		uxtb	r3, r3
 5584 050a 03F00303 		and	r3, r3, #3
 5585 050e DBB2     		uxtb	r3, r3
 5586 0510 43F03003 		orr	r3, r3, #48
 5587 0514 DBB2     		uxtb	r3, r3
 5588 0516 DAB2     		uxtb	r2, r3
 5589 0518 07F13003 		add	r3, r7, #48
 5590 051c 2344     		add	r3, r3, r4
 5591 051e 03F8202C 		strb	r2, [r3, #-32]
1290:.\DisplayBLL.c ****                 buffer[index++] = (GetRtcBuffer()[RTC_HOUR] & 0x0F) | 0x30;
 5592              		.loc 1 1290 0
 5593 0522 97F82E30 		ldrb	r3, [r7, #46]	@ zero_extendqisi2
 5594 0526 5A1C     		adds	r2, r3, #1
 5595 0528 87F82E20 		strb	r2, [r7, #46]
 5596 052c 1C46     		mov	r4, r3
 5597 052e FFF7FEFF 		bl	GetRtcBuffer
 5598 0532 0346     		mov	r3, r0
 5599 0534 0233     		adds	r3, r3, #2
 5600 0536 1B78     		ldrb	r3, [r3]	@ zero_extendqisi2
 5601 0538 DBB2     		uxtb	r3, r3
 5602 053a 03F00F03 		and	r3, r3, #15
 5603 053e DBB2     		uxtb	r3, r3
 5604 0540 43F03003 		orr	r3, r3, #48
 5605 0544 DBB2     		uxtb	r3, r3
 5606 0546 DAB2     		uxtb	r2, r3
 5607 0548 07F13003 		add	r3, r7, #48
 5608 054c 2344     		add	r3, r3, r4
 5609 054e 03F8202C 		strb	r2, [r3, #-32]
ARM GAS  C:\Users\RECEPC~1\AppData\Local\Temp\ccvg7Xyk.s 			page 123


 5610              	.L210:
1291:.\DisplayBLL.c ****             }
1292:.\DisplayBLL.c ****             
1293:.\DisplayBLL.c ****             buffer[index++] = 0x3A;
 5611              		.loc 1 1293 0
 5612 0552 97F82E30 		ldrb	r3, [r7, #46]	@ zero_extendqisi2
 5613 0556 5A1C     		adds	r2, r3, #1
 5614 0558 87F82E20 		strb	r2, [r7, #46]
 5615 055c 07F13002 		add	r2, r7, #48
 5616 0560 1344     		add	r3, r3, r2
 5617 0562 3A22     		movs	r2, #58
 5618 0564 03F8202C 		strb	r2, [r3, #-32]
1294:.\DisplayBLL.c ****             buffer[index++] = ((GetRtcBuffer()[RTC_MINUTES] >> 4) & 0x07) | 0x30;
 5619              		.loc 1 1294 0
 5620 0568 97F82E30 		ldrb	r3, [r7, #46]	@ zero_extendqisi2
 5621 056c 5A1C     		adds	r2, r3, #1
 5622 056e 87F82E20 		strb	r2, [r7, #46]
 5623 0572 1C46     		mov	r4, r3
 5624 0574 FFF7FEFF 		bl	GetRtcBuffer
 5625 0578 0346     		mov	r3, r0
 5626 057a 0133     		adds	r3, r3, #1
 5627 057c 1B78     		ldrb	r3, [r3]	@ zero_extendqisi2
 5628 057e 1B09     		lsrs	r3, r3, #4
 5629 0580 DBB2     		uxtb	r3, r3
 5630 0582 DBB2     		uxtb	r3, r3
 5631 0584 03F00703 		and	r3, r3, #7
 5632 0588 DBB2     		uxtb	r3, r3
 5633 058a 43F03003 		orr	r3, r3, #48
 5634 058e DBB2     		uxtb	r3, r3
 5635 0590 DAB2     		uxtb	r2, r3
 5636 0592 07F13003 		add	r3, r7, #48
 5637 0596 2344     		add	r3, r3, r4
 5638 0598 03F8202C 		strb	r2, [r3, #-32]
1295:.\DisplayBLL.c ****             buffer[index++] = (GetRtcBuffer()[RTC_MINUTES] & 0x0F) | 0x30;
 5639              		.loc 1 1295 0
 5640 059c 97F82E30 		ldrb	r3, [r7, #46]	@ zero_extendqisi2
 5641 05a0 5A1C     		adds	r2, r3, #1
 5642 05a2 87F82E20 		strb	r2, [r7, #46]
 5643 05a6 1C46     		mov	r4, r3
 5644 05a8 FFF7FEFF 		bl	GetRtcBuffer
 5645 05ac 0346     		mov	r3, r0
 5646 05ae 0133     		adds	r3, r3, #1
 5647 05b0 1B78     		ldrb	r3, [r3]	@ zero_extendqisi2
 5648 05b2 DBB2     		uxtb	r3, r3
 5649 05b4 03F00F03 		and	r3, r3, #15
 5650 05b8 DBB2     		uxtb	r3, r3
 5651 05ba 43F03003 		orr	r3, r3, #48
 5652 05be DBB2     		uxtb	r3, r3
 5653 05c0 DAB2     		uxtb	r2, r3
 5654 05c2 07F13003 		add	r3, r7, #48
 5655 05c6 2344     		add	r3, r3, r4
 5656 05c8 03F8202C 		strb	r2, [r3, #-32]
1296:.\DisplayBLL.c ****             buffer[index++] = 0x3A;
 5657              		.loc 1 1296 0
 5658 05cc 97F82E30 		ldrb	r3, [r7, #46]	@ zero_extendqisi2
 5659 05d0 5A1C     		adds	r2, r3, #1
 5660 05d2 87F82E20 		strb	r2, [r7, #46]
ARM GAS  C:\Users\RECEPC~1\AppData\Local\Temp\ccvg7Xyk.s 			page 124


 5661 05d6 07F13002 		add	r2, r7, #48
 5662 05da 1344     		add	r3, r3, r2
 5663 05dc 3A22     		movs	r2, #58
 5664 05de 03F8202C 		strb	r2, [r3, #-32]
1297:.\DisplayBLL.c ****             buffer[index++] = ((GetRtcBuffer()[RTC_SECONDS] >> 4) & 0x07) | 0x30;
 5665              		.loc 1 1297 0
 5666 05e2 97F82E30 		ldrb	r3, [r7, #46]	@ zero_extendqisi2
 5667 05e6 5A1C     		adds	r2, r3, #1
 5668 05e8 87F82E20 		strb	r2, [r7, #46]
 5669 05ec 1C46     		mov	r4, r3
 5670 05ee FFF7FEFF 		bl	GetRtcBuffer
 5671 05f2 0346     		mov	r3, r0
 5672 05f4 1B78     		ldrb	r3, [r3]	@ zero_extendqisi2
 5673 05f6 1B09     		lsrs	r3, r3, #4
 5674 05f8 DBB2     		uxtb	r3, r3
 5675 05fa DBB2     		uxtb	r3, r3
 5676 05fc 03F00703 		and	r3, r3, #7
 5677 0600 DBB2     		uxtb	r3, r3
 5678 0602 43F03003 		orr	r3, r3, #48
 5679 0606 DBB2     		uxtb	r3, r3
 5680 0608 DAB2     		uxtb	r2, r3
 5681 060a 07F13003 		add	r3, r7, #48
 5682 060e 2344     		add	r3, r3, r4
 5683 0610 03F8202C 		strb	r2, [r3, #-32]
1298:.\DisplayBLL.c ****             buffer[index++] = (GetRtcBuffer()[RTC_SECONDS] & 0x0F) | 0x30;
 5684              		.loc 1 1298 0
 5685 0614 97F82E30 		ldrb	r3, [r7, #46]	@ zero_extendqisi2
 5686 0618 5A1C     		adds	r2, r3, #1
 5687 061a 87F82E20 		strb	r2, [r7, #46]
 5688 061e 1C46     		mov	r4, r3
 5689 0620 FFF7FEFF 		bl	GetRtcBuffer
 5690 0624 0346     		mov	r3, r0
 5691 0626 1B78     		ldrb	r3, [r3]	@ zero_extendqisi2
 5692 0628 DBB2     		uxtb	r3, r3
 5693 062a 03F00F03 		and	r3, r3, #15
 5694 062e DBB2     		uxtb	r3, r3
 5695 0630 43F03003 		orr	r3, r3, #48
 5696 0634 DBB2     		uxtb	r3, r3
 5697 0636 DAB2     		uxtb	r2, r3
 5698 0638 07F13003 		add	r3, r7, #48
 5699 063c 2344     		add	r3, r3, r4
 5700 063e 03F8202C 		strb	r2, [r3, #-32]
1299:.\DisplayBLL.c ****             
1300:.\DisplayBLL.c ****             I2CBusUnlock();
 5701              		.loc 1 1300 0
 5702 0642 FFF7FEFF 		bl	I2CBusUnlock
1301:.\DisplayBLL.c ****             
1302:.\DisplayBLL.c ****             puartdisp->_messagelength = DisplayOutputString(0x0C9, 0x0BA, puartdisp->_messagetx, bu
 5703              		.loc 1 1302 0
 5704 0646 FB69     		ldr	r3, [r7, #28]
 5705 0648 1D1D     		adds	r5, r3, #4
 5706 064a 97F82E30 		ldrb	r3, [r7, #46]	@ zero_extendqisi2
 5707 064e 9BB2     		uxth	r3, r3
 5708 0650 07F11004 		add	r4, r7, #16
 5709 0654 0093     		str	r3, [sp]
 5710 0656 01AA     		add	r2, sp, #4
 5711 0658 07F10803 		add	r3, r7, #8
ARM GAS  C:\Users\RECEPC~1\AppData\Local\Temp\ccvg7Xyk.s 			page 125


 5712 065c 93E80300 		ldmia	r3, {r0, r1}
 5713 0660 82E80300 		stmia	r2, {r0, r1}
 5714 0664 C920     		movs	r0, #201
 5715 0666 BA21     		movs	r1, #186
 5716 0668 2A46     		mov	r2, r5
 5717 066a 2346     		mov	r3, r4
 5718 066c FFF7FEFF 		bl	DisplayOutputString
 5719 0670 0346     		mov	r3, r0
 5720 0672 1A46     		mov	r2, r3
 5721 0674 FB69     		ldr	r3, [r7, #28]
 5722 0676 5A80     		strh	r2, [r3, #2]	@ movhi
1303:.\DisplayBLL.c ****             puartdisp->_messagestate = PENDING;
 5723              		.loc 1 1303 0
 5724 0678 FB69     		ldr	r3, [r7, #28]
 5725 067a C222     		movs	r2, #194
 5726 067c 1A70     		strb	r2, [r3]
 5727              	.L208:
 5728              	.LBE65:
1304:.\DisplayBLL.c ****         }
1305:.\DisplayBLL.c ****         
1306:.\DisplayBLL.c ****         puartdisp = GetUARTMessageSlot(UART_DISPLAY2);
 5729              		.loc 1 1306 0
 5730 067e A420     		movs	r0, #164
 5731 0680 FFF7FEFF 		bl	GetUARTMessageSlot
 5732 0684 F861     		str	r0, [r7, #28]
1307:.\DisplayBLL.c ****         if(puartdisp)
 5733              		.loc 1 1307 0
 5734 0686 FB69     		ldr	r3, [r7, #28]
 5735 0688 002B     		cmp	r3, #0
 5736 068a 00F0C680 		beq	.L201
 5737              	.LBB66:
1308:.\DisplayBLL.c ****         {
1309:.\DisplayBLL.c ****             uint8 index = 0;
 5738              		.loc 1 1309 0
 5739 068e 0023     		movs	r3, #0
 5740 0690 FB76     		strb	r3, [r7, #27]
1310:.\DisplayBLL.c ****             
1311:.\DisplayBLL.c ****             //CAREFUL WITH RETURNS BETWEEN THE LOCK/UNLOCK CALLS
1312:.\DisplayBLL.c ****             //AND RECURSIVE CALLS THAT WOULD DEADLOCK!
1313:.\DisplayBLL.c ****             I2CBusLock();
 5741              		.loc 1 1313 0
 5742 0692 FFF7FEFF 		bl	I2CBusLock
1314:.\DisplayBLL.c ****             
1315:.\DisplayBLL.c ****             ClearRtcBuffer();
 5743              		.loc 1 1315 0
 5744 0696 FFF7FEFF 		bl	ClearRtcBuffer
1316:.\DisplayBLL.c ****             ReadRTC();                           
 5745              		.loc 1 1316 0
 5746 069a FFF7FEFF 		bl	ReadRTC
1317:.\DisplayBLL.c ****             memset(buffer, 0x00, sizeof(buffer));            
 5747              		.loc 1 1317 0
 5748 069e 07F11003 		add	r3, r7, #16
 5749 06a2 1846     		mov	r0, r3
 5750 06a4 0021     		movs	r1, #0
 5751 06a6 0822     		movs	r2, #8
 5752 06a8 FFF7FEFF 		bl	memset
1318:.\DisplayBLL.c ****             
ARM GAS  C:\Users\RECEPC~1\AppData\Local\Temp\ccvg7Xyk.s 			page 126


1319:.\DisplayBLL.c ****             buffer[index++] = ((GetRtcBuffer()[RTC_DAY] >> 4) & 0x03) | 0x30;
 5753              		.loc 1 1319 0
 5754 06ac FB7E     		ldrb	r3, [r7, #27]	@ zero_extendqisi2
 5755 06ae 5A1C     		adds	r2, r3, #1
 5756 06b0 FA76     		strb	r2, [r7, #27]
 5757 06b2 1C46     		mov	r4, r3
 5758 06b4 FFF7FEFF 		bl	GetRtcBuffer
 5759 06b8 0346     		mov	r3, r0
 5760 06ba 0433     		adds	r3, r3, #4
 5761 06bc 1B78     		ldrb	r3, [r3]	@ zero_extendqisi2
 5762 06be 1B09     		lsrs	r3, r3, #4
 5763 06c0 DBB2     		uxtb	r3, r3
 5764 06c2 DBB2     		uxtb	r3, r3
 5765 06c4 03F00303 		and	r3, r3, #3
 5766 06c8 DBB2     		uxtb	r3, r3
 5767 06ca 43F03003 		orr	r3, r3, #48
 5768 06ce DBB2     		uxtb	r3, r3
 5769 06d0 DAB2     		uxtb	r2, r3
 5770 06d2 07F13003 		add	r3, r7, #48
 5771 06d6 2344     		add	r3, r3, r4
 5772 06d8 03F8202C 		strb	r2, [r3, #-32]
1320:.\DisplayBLL.c ****             buffer[index++] = (GetRtcBuffer()[RTC_DAY] & 0x0F) | 0x30;
 5773              		.loc 1 1320 0
 5774 06dc FB7E     		ldrb	r3, [r7, #27]	@ zero_extendqisi2
 5775 06de 5A1C     		adds	r2, r3, #1
 5776 06e0 FA76     		strb	r2, [r7, #27]
 5777 06e2 1C46     		mov	r4, r3
 5778 06e4 FFF7FEFF 		bl	GetRtcBuffer
 5779 06e8 0346     		mov	r3, r0
 5780 06ea 0433     		adds	r3, r3, #4
 5781 06ec 1B78     		ldrb	r3, [r3]	@ zero_extendqisi2
 5782 06ee DBB2     		uxtb	r3, r3
 5783 06f0 03F00F03 		and	r3, r3, #15
 5784 06f4 DBB2     		uxtb	r3, r3
 5785 06f6 43F03003 		orr	r3, r3, #48
 5786 06fa DBB2     		uxtb	r3, r3
 5787 06fc DAB2     		uxtb	r2, r3
 5788 06fe 07F13003 		add	r3, r7, #48
 5789 0702 2344     		add	r3, r3, r4
 5790 0704 03F8202C 		strb	r2, [r3, #-32]
1321:.\DisplayBLL.c ****             buffer[index++] = 0x2F;
 5791              		.loc 1 1321 0
 5792 0708 FB7E     		ldrb	r3, [r7, #27]	@ zero_extendqisi2
 5793 070a 5A1C     		adds	r2, r3, #1
 5794 070c FA76     		strb	r2, [r7, #27]
 5795 070e 07F13002 		add	r2, r7, #48
 5796 0712 1344     		add	r3, r3, r2
 5797 0714 2F22     		movs	r2, #47
 5798 0716 03F8202C 		strb	r2, [r3, #-32]
1322:.\DisplayBLL.c ****             buffer[index++] = ((GetRtcBuffer()[RTC_MONTH] >> 4) & 0x01) | 0x30;
 5799              		.loc 1 1322 0
 5800 071a FB7E     		ldrb	r3, [r7, #27]	@ zero_extendqisi2
 5801 071c 5A1C     		adds	r2, r3, #1
 5802 071e FA76     		strb	r2, [r7, #27]
 5803 0720 1C46     		mov	r4, r3
 5804 0722 FFF7FEFF 		bl	GetRtcBuffer
 5805 0726 0346     		mov	r3, r0
ARM GAS  C:\Users\RECEPC~1\AppData\Local\Temp\ccvg7Xyk.s 			page 127


 5806 0728 0533     		adds	r3, r3, #5
 5807 072a 1B78     		ldrb	r3, [r3]	@ zero_extendqisi2
 5808 072c 1B09     		lsrs	r3, r3, #4
 5809 072e DBB2     		uxtb	r3, r3
 5810 0730 DBB2     		uxtb	r3, r3
 5811 0732 03F00103 		and	r3, r3, #1
 5812 0736 DBB2     		uxtb	r3, r3
 5813 0738 43F03003 		orr	r3, r3, #48
 5814 073c DBB2     		uxtb	r3, r3
 5815 073e DAB2     		uxtb	r2, r3
 5816 0740 07F13003 		add	r3, r7, #48
 5817 0744 2344     		add	r3, r3, r4
 5818 0746 03F8202C 		strb	r2, [r3, #-32]
1323:.\DisplayBLL.c ****             buffer[index++] = (GetRtcBuffer()[RTC_MONTH] & 0x0F) | 0x30;
 5819              		.loc 1 1323 0
 5820 074a FB7E     		ldrb	r3, [r7, #27]	@ zero_extendqisi2
 5821 074c 5A1C     		adds	r2, r3, #1
 5822 074e FA76     		strb	r2, [r7, #27]
 5823 0750 1C46     		mov	r4, r3
 5824 0752 FFF7FEFF 		bl	GetRtcBuffer
 5825 0756 0346     		mov	r3, r0
 5826 0758 0533     		adds	r3, r3, #5
 5827 075a 1B78     		ldrb	r3, [r3]	@ zero_extendqisi2
 5828 075c DBB2     		uxtb	r3, r3
 5829 075e 03F00F03 		and	r3, r3, #15
 5830 0762 DBB2     		uxtb	r3, r3
 5831 0764 43F03003 		orr	r3, r3, #48
 5832 0768 DBB2     		uxtb	r3, r3
 5833 076a DAB2     		uxtb	r2, r3
 5834 076c 07F13003 		add	r3, r7, #48
 5835 0770 2344     		add	r3, r3, r4
 5836 0772 03F8202C 		strb	r2, [r3, #-32]
1324:.\DisplayBLL.c ****             buffer[index++] = 0x2F;
 5837              		.loc 1 1324 0
 5838 0776 FB7E     		ldrb	r3, [r7, #27]	@ zero_extendqisi2
 5839 0778 5A1C     		adds	r2, r3, #1
 5840 077a FA76     		strb	r2, [r7, #27]
 5841 077c 07F13002 		add	r2, r7, #48
 5842 0780 1344     		add	r3, r3, r2
 5843 0782 2F22     		movs	r2, #47
 5844 0784 03F8202C 		strb	r2, [r3, #-32]
1325:.\DisplayBLL.c ****             buffer[index++] = ((GetRtcBuffer()[RTC_YEAR] >> 4) & 0x0F) | 0x30;
 5845              		.loc 1 1325 0
 5846 0788 FB7E     		ldrb	r3, [r7, #27]	@ zero_extendqisi2
 5847 078a 5A1C     		adds	r2, r3, #1
 5848 078c FA76     		strb	r2, [r7, #27]
 5849 078e 1C46     		mov	r4, r3
 5850 0790 FFF7FEFF 		bl	GetRtcBuffer
 5851 0794 0346     		mov	r3, r0
 5852 0796 0633     		adds	r3, r3, #6
 5853 0798 1B78     		ldrb	r3, [r3]	@ zero_extendqisi2
 5854 079a 1B09     		lsrs	r3, r3, #4
 5855 079c DBB2     		uxtb	r3, r3
 5856 079e DBB2     		uxtb	r3, r3
 5857 07a0 43F03003 		orr	r3, r3, #48
 5858 07a4 DBB2     		uxtb	r3, r3
 5859 07a6 DAB2     		uxtb	r2, r3
ARM GAS  C:\Users\RECEPC~1\AppData\Local\Temp\ccvg7Xyk.s 			page 128


 5860 07a8 07F13003 		add	r3, r7, #48
 5861 07ac 2344     		add	r3, r3, r4
 5862 07ae 03F8202C 		strb	r2, [r3, #-32]
1326:.\DisplayBLL.c ****             buffer[index++] = (GetRtcBuffer()[RTC_YEAR] & 0x0F) | 0x30;
 5863              		.loc 1 1326 0
 5864 07b2 FB7E     		ldrb	r3, [r7, #27]	@ zero_extendqisi2
 5865 07b4 5A1C     		adds	r2, r3, #1
 5866 07b6 FA76     		strb	r2, [r7, #27]
 5867 07b8 1C46     		mov	r4, r3
 5868 07ba FFF7FEFF 		bl	GetRtcBuffer
 5869 07be 0346     		mov	r3, r0
 5870 07c0 0633     		adds	r3, r3, #6
 5871 07c2 1B78     		ldrb	r3, [r3]	@ zero_extendqisi2
 5872 07c4 DBB2     		uxtb	r3, r3
 5873 07c6 03F00F03 		and	r3, r3, #15
 5874 07ca DBB2     		uxtb	r3, r3
 5875 07cc 43F03003 		orr	r3, r3, #48
 5876 07d0 DBB2     		uxtb	r3, r3
 5877 07d2 DAB2     		uxtb	r2, r3
 5878 07d4 07F13003 		add	r3, r7, #48
 5879 07d8 2344     		add	r3, r3, r4
 5880 07da 03F8202C 		strb	r2, [r3, #-32]
1327:.\DisplayBLL.c **** 
1328:.\DisplayBLL.c ****             I2CBusUnlock();
 5881              		.loc 1 1328 0
 5882 07de FFF7FEFF 		bl	I2CBusUnlock
1329:.\DisplayBLL.c ****             
1330:.\DisplayBLL.c ****             puartdisp->_messagelength = DisplayOutputString(0x0C9, 0x12A, puartdisp->_messagetx, bu
 5883              		.loc 1 1330 0
 5884 07e2 FB69     		ldr	r3, [r7, #28]
 5885 07e4 1D1D     		adds	r5, r3, #4
 5886 07e6 FB7E     		ldrb	r3, [r7, #27]	@ zero_extendqisi2
 5887 07e8 9BB2     		uxth	r3, r3
 5888 07ea 07F11004 		add	r4, r7, #16
 5889 07ee 0093     		str	r3, [sp]
 5890 07f0 01AA     		add	r2, sp, #4
 5891 07f2 07F10803 		add	r3, r7, #8
 5892 07f6 93E80300 		ldmia	r3, {r0, r1}
 5893 07fa 82E80300 		stmia	r2, {r0, r1}
 5894 07fe C920     		movs	r0, #201
 5895 0800 4FF49571 		mov	r1, #298
 5896 0804 2A46     		mov	r2, r5
 5897 0806 2346     		mov	r3, r4
 5898 0808 FFF7FEFF 		bl	DisplayOutputString
 5899 080c 0346     		mov	r3, r0
 5900 080e 1A46     		mov	r2, r3
 5901 0810 FB69     		ldr	r3, [r7, #28]
 5902 0812 5A80     		strh	r2, [r3, #2]	@ movhi
1331:.\DisplayBLL.c ****             puartdisp->_messagestate = PENDING;
 5903              		.loc 1 1331 0
 5904 0814 FB69     		ldr	r3, [r7, #28]
 5905 0816 C222     		movs	r2, #194
 5906 0818 1A70     		strb	r2, [r3]
 5907              	.L201:
 5908              	.LBE66:
 5909              	.LBE64:
1332:.\DisplayBLL.c ****         }
ARM GAS  C:\Users\RECEPC~1\AppData\Local\Temp\ccvg7Xyk.s 			page 129


1333:.\DisplayBLL.c ****     }
1334:.\DisplayBLL.c **** }
 5910              		.loc 1 1334 0
 5911 081a 3037     		adds	r7, r7, #48
 5912              		.cfi_def_cfa_offset 16
 5913 081c BD46     		mov	sp, r7
 5914              		.cfi_def_cfa_register 13
 5915              		@ sp needed
 5916 081e B0BD     		pop	{r4, r5, r7, pc}
 5917              		.cfi_endproc
 5918              	.LFE88:
 5919              		.size	DrawDateTime, .-DrawDateTime
 5920              		.section	.text.InitiateUpdateDateTime,"ax",%progbits
 5921              		.align	2
 5922              		.global	InitiateUpdateDateTime
 5923              		.thumb
 5924              		.thumb_func
 5925              		.type	InitiateUpdateDateTime, %function
 5926              	InitiateUpdateDateTime:
 5927              	.LFB89:
1335:.\DisplayBLL.c **** 
1336:.\DisplayBLL.c **** void InitiateUpdateDateTime(void *pparam)
1337:.\DisplayBLL.c **** {
 5928              		.loc 1 1337 0
 5929              		.cfi_startproc
 5930              		@ args = 0, pretend = 0, frame = 24
 5931              		@ frame_needed = 1, uses_anonymous_args = 0
 5932 0000 80B5     		push	{r7, lr}
 5933              		.cfi_def_cfa_offset 8
 5934              		.cfi_offset 7, -8
 5935              		.cfi_offset 14, -4
 5936 0002 86B0     		sub	sp, sp, #24
 5937              		.cfi_def_cfa_offset 32
 5938 0004 00AF     		add	r7, sp, #0
 5939              		.cfi_def_cfa_register 7
 5940 0006 7860     		str	r0, [r7, #4]
1338:.\DisplayBLL.c ****     PDISPLAYLAYOUTPTR pdisplay = (PDISPLAYLAYOUTPTR)pparam;
 5941              		.loc 1 1338 0
 5942 0008 7B68     		ldr	r3, [r7, #4]
 5943 000a 7B61     		str	r3, [r7, #20]
1339:.\DisplayBLL.c ****     if(pdisplay->_dispid == DISPLAY1)
 5944              		.loc 1 1339 0
 5945 000c 7B69     		ldr	r3, [r7, #20]
 5946 000e 1B78     		ldrb	r3, [r3]	@ zero_extendqisi2
 5947 0010 002B     		cmp	r3, #0
 5948 0012 20D1     		bne	.L212
 5949              	.LBB67:
1340:.\DisplayBLL.c ****     {
1341:.\DisplayBLL.c ****         PSINKMESSAGEPTR psinkmsg = AllocateMessageSlotConditional(DISPLAY1_UPDATE_DATETIME);
 5950              		.loc 1 1341 0
 5951 0014 1F20     		movs	r0, #31
 5952 0016 FFF7FEFF 		bl	AllocateMessageSlotConditional
 5953 001a 3861     		str	r0, [r7, #16]
1342:.\DisplayBLL.c ****         if(psinkmsg)
 5954              		.loc 1 1342 0
 5955 001c 3B69     		ldr	r3, [r7, #16]
 5956 001e 002B     		cmp	r3, #0
ARM GAS  C:\Users\RECEPC~1\AppData\Local\Temp\ccvg7Xyk.s 			page 130


 5957 0020 18D0     		beq	.L213
1343:.\DisplayBLL.c ****         {
1344:.\DisplayBLL.c ****             pdisplay->_pdata = psinkmsg;
 5958              		.loc 1 1344 0
 5959 0022 7B69     		ldr	r3, [r7, #20]
 5960 0024 3A69     		ldr	r2, [r7, #16]
 5961 0026 5A63     		str	r2, [r3, #52]
1345:.\DisplayBLL.c ****             psinkmsg->_pdata = pdisplay;
 5962              		.loc 1 1345 0
 5963 0028 3B69     		ldr	r3, [r7, #16]
 5964 002a 7A69     		ldr	r2, [r7, #20]
 5965 002c C3F89021 		str	r2, [r3, #400]
1346:.\DisplayBLL.c ****             psinkmsg->Callback = DrawDateTime;
 5966              		.loc 1 1346 0
 5967 0030 3B69     		ldr	r3, [r7, #16]
 5968 0032 1C4A     		ldr	r2, .L215
 5969 0034 C3F89421 		str	r2, [r3, #404]
1347:.\DisplayBLL.c ****             psinkmsg->_messageid = DISPLAY1_UPDATE_DATETIME;
 5970              		.loc 1 1347 0
 5971 0038 3B69     		ldr	r3, [r7, #16]
 5972 003a 1F22     		movs	r2, #31
 5973 003c 5A70     		strb	r2, [r3, #1]
1348:.\DisplayBLL.c ****             psinkmsg->_messagetype = FIRSTFOUNDFOREVER;
 5974              		.loc 1 1348 0
 5975 003e 3B69     		ldr	r3, [r7, #16]
 5976 0040 0622     		movs	r2, #6
 5977 0042 9A70     		strb	r2, [r3, #2]
1349:.\DisplayBLL.c ****             psinkmsg->_messagetimeoutlimit = _SINK_TIMEOUT_1S_;
 5978              		.loc 1 1349 0
 5979 0044 3B69     		ldr	r3, [r7, #16]
 5980 0046 4FF47A72 		mov	r2, #1000
 5981 004a 5A81     		strh	r2, [r3, #10]	@ movhi
1350:.\DisplayBLL.c ****             psinkmsg->_messagestate = SINK_BUSY;
 5982              		.loc 1 1350 0
 5983 004c 3B69     		ldr	r3, [r7, #16]
 5984 004e 0322     		movs	r2, #3
 5985 0050 DA70     		strb	r2, [r3, #3]
 5986              	.LBE67:
 5987 0052 23E0     		b	.L211
 5988              	.L213:
 5989 0054 22E0     		b	.L211
 5990              	.L212:
1351:.\DisplayBLL.c ****         }
1352:.\DisplayBLL.c ****     }
1353:.\DisplayBLL.c ****     else if(pdisplay->_dispid == DISPLAY2)
 5991              		.loc 1 1353 0
 5992 0056 7B69     		ldr	r3, [r7, #20]
 5993 0058 1B78     		ldrb	r3, [r3]	@ zero_extendqisi2
 5994 005a 012B     		cmp	r3, #1
 5995 005c 1ED1     		bne	.L211
 5996              	.LBB68:
1354:.\DisplayBLL.c ****     {
1355:.\DisplayBLL.c ****         PSINKMESSAGEPTR psinkmsg = AllocateMessageSlotConditional(DISPLAY2_UPDATE_DATETIME);
 5997              		.loc 1 1355 0
 5998 005e 2320     		movs	r0, #35
 5999 0060 FFF7FEFF 		bl	AllocateMessageSlotConditional
 6000 0064 F860     		str	r0, [r7, #12]
ARM GAS  C:\Users\RECEPC~1\AppData\Local\Temp\ccvg7Xyk.s 			page 131


1356:.\DisplayBLL.c ****         if(psinkmsg)
 6001              		.loc 1 1356 0
 6002 0066 FB68     		ldr	r3, [r7, #12]
 6003 0068 002B     		cmp	r3, #0
 6004 006a 17D0     		beq	.L211
1357:.\DisplayBLL.c ****         {
1358:.\DisplayBLL.c ****             pdisplay->_pdata = psinkmsg;
 6005              		.loc 1 1358 0
 6006 006c 7B69     		ldr	r3, [r7, #20]
 6007 006e FA68     		ldr	r2, [r7, #12]
 6008 0070 5A63     		str	r2, [r3, #52]
1359:.\DisplayBLL.c ****             psinkmsg->_pdata = pdisplay;
 6009              		.loc 1 1359 0
 6010 0072 FB68     		ldr	r3, [r7, #12]
 6011 0074 7A69     		ldr	r2, [r7, #20]
 6012 0076 C3F89021 		str	r2, [r3, #400]
1360:.\DisplayBLL.c ****             psinkmsg->Callback = DrawDateTime;
 6013              		.loc 1 1360 0
 6014 007a FB68     		ldr	r3, [r7, #12]
 6015 007c 094A     		ldr	r2, .L215
 6016 007e C3F89421 		str	r2, [r3, #404]
1361:.\DisplayBLL.c ****             psinkmsg->_messageid = DISPLAY2_UPDATE_DATETIME;
 6017              		.loc 1 1361 0
 6018 0082 FB68     		ldr	r3, [r7, #12]
 6019 0084 2322     		movs	r2, #35
 6020 0086 5A70     		strb	r2, [r3, #1]
1362:.\DisplayBLL.c ****             psinkmsg->_messagetype = FIRSTFOUNDFOREVER;
 6021              		.loc 1 1362 0
 6022 0088 FB68     		ldr	r3, [r7, #12]
 6023 008a 0622     		movs	r2, #6
 6024 008c 9A70     		strb	r2, [r3, #2]
1363:.\DisplayBLL.c ****             psinkmsg->_messagetimeoutlimit = _SINK_TIMEOUT_1S_;
 6025              		.loc 1 1363 0
 6026 008e FB68     		ldr	r3, [r7, #12]
 6027 0090 4FF47A72 		mov	r2, #1000
 6028 0094 5A81     		strh	r2, [r3, #10]	@ movhi
1364:.\DisplayBLL.c ****             psinkmsg->_messagestate = SINK_BUSY;
 6029              		.loc 1 1364 0
 6030 0096 FB68     		ldr	r3, [r7, #12]
 6031 0098 0322     		movs	r2, #3
 6032 009a DA70     		strb	r2, [r3, #3]
 6033              	.L211:
 6034              	.LBE68:
1365:.\DisplayBLL.c ****         }
1366:.\DisplayBLL.c ****     }
1367:.\DisplayBLL.c **** }
 6035              		.loc 1 1367 0
 6036 009c 1837     		adds	r7, r7, #24
 6037              		.cfi_def_cfa_offset 8
 6038 009e BD46     		mov	sp, r7
 6039              		.cfi_def_cfa_register 13
 6040              		@ sp needed
 6041 00a0 80BD     		pop	{r7, pc}
 6042              	.L216:
 6043 00a2 00BF     		.align	2
 6044              	.L215:
 6045 00a4 00000000 		.word	DrawDateTime
ARM GAS  C:\Users\RECEPC~1\AppData\Local\Temp\ccvg7Xyk.s 			page 132


 6046              		.cfi_endproc
 6047              	.LFE89:
 6048              		.size	InitiateUpdateDateTime, .-InitiateUpdateDateTime
 6049              		.section	.text.TerminateUpdateDateTime,"ax",%progbits
 6050              		.align	2
 6051              		.global	TerminateUpdateDateTime
 6052              		.thumb
 6053              		.thumb_func
 6054              		.type	TerminateUpdateDateTime, %function
 6055              	TerminateUpdateDateTime:
 6056              	.LFB90:
1368:.\DisplayBLL.c **** 
1369:.\DisplayBLL.c **** void TerminateUpdateDateTime(void *pparam)
1370:.\DisplayBLL.c **** {
 6057              		.loc 1 1370 0
 6058              		.cfi_startproc
 6059              		@ args = 0, pretend = 0, frame = 24
 6060              		@ frame_needed = 1, uses_anonymous_args = 0
 6061              		@ link register save eliminated.
 6062 0000 80B4     		push	{r7}
 6063              		.cfi_def_cfa_offset 4
 6064              		.cfi_offset 7, -4
 6065 0002 87B0     		sub	sp, sp, #28
 6066              		.cfi_def_cfa_offset 32
 6067 0004 00AF     		add	r7, sp, #0
 6068              		.cfi_def_cfa_register 7
 6069 0006 7860     		str	r0, [r7, #4]
1371:.\DisplayBLL.c ****     PDISPLAYLAYOUTPTR pdisplay = (PDISPLAYLAYOUTPTR)pparam;
 6070              		.loc 1 1371 0
 6071 0008 7B68     		ldr	r3, [r7, #4]
 6072 000a 7B61     		str	r3, [r7, #20]
1372:.\DisplayBLL.c ****     if(pdisplay->_dispid == DISPLAY1)
 6073              		.loc 1 1372 0
 6074 000c 7B69     		ldr	r3, [r7, #20]
 6075 000e 1B78     		ldrb	r3, [r3]	@ zero_extendqisi2
 6076 0010 002B     		cmp	r3, #0
 6077 0012 0AD1     		bne	.L218
 6078              	.LBB69:
1373:.\DisplayBLL.c ****     {
1374:.\DisplayBLL.c ****         PSINKMESSAGEPTR psinkmsg = (PSINKMESSAGEPTR)pdisplay->_pdata;
 6079              		.loc 1 1374 0
 6080 0014 7B69     		ldr	r3, [r7, #20]
 6081 0016 5B6B     		ldr	r3, [r3, #52]
 6082 0018 3B61     		str	r3, [r7, #16]
1375:.\DisplayBLL.c ****         if(psinkmsg)
 6083              		.loc 1 1375 0
 6084 001a 3B69     		ldr	r3, [r7, #16]
 6085 001c 002B     		cmp	r3, #0
 6086 001e 03D0     		beq	.L219
1376:.\DisplayBLL.c ****             psinkmsg->_selfkill = true;
 6087              		.loc 1 1376 0
 6088 0020 3B69     		ldr	r3, [r7, #16]
 6089 0022 0122     		movs	r2, #1
 6090 0024 1A70     		strb	r2, [r3]
 6091              	.LBE69:
 6092 0026 0DE0     		b	.L217
 6093              	.L219:
ARM GAS  C:\Users\RECEPC~1\AppData\Local\Temp\ccvg7Xyk.s 			page 133


 6094 0028 0CE0     		b	.L217
 6095              	.L218:
1377:.\DisplayBLL.c ****     }
1378:.\DisplayBLL.c ****     else if(pdisplay->_dispid == DISPLAY2)
 6096              		.loc 1 1378 0
 6097 002a 7B69     		ldr	r3, [r7, #20]
 6098 002c 1B78     		ldrb	r3, [r3]	@ zero_extendqisi2
 6099 002e 012B     		cmp	r3, #1
 6100 0030 08D1     		bne	.L217
 6101              	.LBB70:
1379:.\DisplayBLL.c ****     {
1380:.\DisplayBLL.c ****         PSINKMESSAGEPTR psinkmsg = (PSINKMESSAGEPTR)pdisplay->_pdata;
 6102              		.loc 1 1380 0
 6103 0032 7B69     		ldr	r3, [r7, #20]
 6104 0034 5B6B     		ldr	r3, [r3, #52]
 6105 0036 FB60     		str	r3, [r7, #12]
1381:.\DisplayBLL.c ****         if(psinkmsg)
 6106              		.loc 1 1381 0
 6107 0038 FB68     		ldr	r3, [r7, #12]
 6108 003a 002B     		cmp	r3, #0
 6109 003c 02D0     		beq	.L217
1382:.\DisplayBLL.c ****             psinkmsg->_selfkill = true;
 6110              		.loc 1 1382 0
 6111 003e FB68     		ldr	r3, [r7, #12]
 6112 0040 0122     		movs	r2, #1
 6113 0042 1A70     		strb	r2, [r3]
 6114              	.L217:
 6115              	.LBE70:
1383:.\DisplayBLL.c ****     }
1384:.\DisplayBLL.c **** }
 6116              		.loc 1 1384 0
 6117 0044 1C37     		adds	r7, r7, #28
 6118              		.cfi_def_cfa_offset 4
 6119 0046 BD46     		mov	sp, r7
 6120              		.cfi_def_cfa_register 13
 6121              		@ sp needed
 6122 0048 5DF8047B 		ldr	r7, [sp], #4
 6123              		.cfi_restore 7
 6124              		.cfi_def_cfa_offset 0
 6125 004c 7047     		bx	lr
 6126              		.cfi_endproc
 6127              	.LFE90:
 6128              		.size	TerminateUpdateDateTime, .-TerminateUpdateDateTime
 6129 004e 00BF     		.section	.text.DisplayUpdateDateTime,"ax",%progbits
 6130              		.align	2
 6131              		.global	DisplayUpdateDateTime
 6132              		.thumb
 6133              		.thumb_func
 6134              		.type	DisplayUpdateDateTime, %function
 6135              	DisplayUpdateDateTime:
 6136              	.LFB91:
1385:.\DisplayBLL.c **** 
1386:.\DisplayBLL.c **** void DisplayUpdateDateTime(void *pparam)
1387:.\DisplayBLL.c **** {
 6137              		.loc 1 1387 0
 6138              		.cfi_startproc
 6139              		@ args = 0, pretend = 0, frame = 16
ARM GAS  C:\Users\RECEPC~1\AppData\Local\Temp\ccvg7Xyk.s 			page 134


 6140              		@ frame_needed = 1, uses_anonymous_args = 0
 6141 0000 80B5     		push	{r7, lr}
 6142              		.cfi_def_cfa_offset 8
 6143              		.cfi_offset 7, -8
 6144              		.cfi_offset 14, -4
 6145 0002 84B0     		sub	sp, sp, #16
 6146              		.cfi_def_cfa_offset 24
 6147 0004 00AF     		add	r7, sp, #0
 6148              		.cfi_def_cfa_register 7
 6149 0006 7860     		str	r0, [r7, #4]
1388:.\DisplayBLL.c ****     PSINKMESSAGEPTR psinkmsg = (PSINKMESSAGEPTR)pparam;
 6150              		.loc 1 1388 0
 6151 0008 7B68     		ldr	r3, [r7, #4]
 6152 000a FB60     		str	r3, [r7, #12]
1389:.\DisplayBLL.c ****     if(psinkmsg->Callback)
 6153              		.loc 1 1389 0
 6154 000c FB68     		ldr	r3, [r7, #12]
 6155 000e D3F89431 		ldr	r3, [r3, #404]
 6156 0012 002B     		cmp	r3, #0
 6157 0014 07D0     		beq	.L221
1390:.\DisplayBLL.c ****         psinkmsg->Callback(psinkmsg->_pdata);
 6158              		.loc 1 1390 0
 6159 0016 FB68     		ldr	r3, [r7, #12]
 6160 0018 D3F89431 		ldr	r3, [r3, #404]
 6161 001c FA68     		ldr	r2, [r7, #12]
 6162 001e D2F89021 		ldr	r2, [r2, #400]
 6163 0022 1046     		mov	r0, r2
 6164 0024 9847     		blx	r3
 6165              	.L221:
1391:.\DisplayBLL.c **** }
 6166              		.loc 1 1391 0
 6167 0026 1037     		adds	r7, r7, #16
 6168              		.cfi_def_cfa_offset 8
 6169 0028 BD46     		mov	sp, r7
 6170              		.cfi_def_cfa_register 13
 6171              		@ sp needed
 6172 002a 80BD     		pop	{r7, pc}
 6173              		.cfi_endproc
 6174              	.LFE91:
 6175              		.size	DisplayUpdateDateTime, .-DisplayUpdateDateTime
 6176              		.section	.text.InitiateHomeAnimation,"ax",%progbits
 6177              		.align	2
 6178              		.global	InitiateHomeAnimation
 6179              		.thumb
 6180              		.thumb_func
 6181              		.type	InitiateHomeAnimation, %function
 6182              	InitiateHomeAnimation:
 6183              	.LFB92:
1392:.\DisplayBLL.c **** 
1393:.\DisplayBLL.c **** void InitiateHomeAnimation(void *pparam)
1394:.\DisplayBLL.c **** {
 6184              		.loc 1 1394 0
 6185              		.cfi_startproc
 6186              		@ args = 0, pretend = 0, frame = 24
 6187              		@ frame_needed = 1, uses_anonymous_args = 0
 6188 0000 80B5     		push	{r7, lr}
 6189              		.cfi_def_cfa_offset 8
ARM GAS  C:\Users\RECEPC~1\AppData\Local\Temp\ccvg7Xyk.s 			page 135


 6190              		.cfi_offset 7, -8
 6191              		.cfi_offset 14, -4
 6192 0002 86B0     		sub	sp, sp, #24
 6193              		.cfi_def_cfa_offset 32
 6194 0004 00AF     		add	r7, sp, #0
 6195              		.cfi_def_cfa_register 7
 6196 0006 7860     		str	r0, [r7, #4]
1395:.\DisplayBLL.c ****     PDISPLAYLAYOUTPTR pdisplay = (PDISPLAYLAYOUTPTR)pparam;
 6197              		.loc 1 1395 0
 6198 0008 7B68     		ldr	r3, [r7, #4]
 6199 000a 7B61     		str	r3, [r7, #20]
1396:.\DisplayBLL.c ****     if(pdisplay->_dispid == DISPLAY1)
 6200              		.loc 1 1396 0
 6201 000c 7B69     		ldr	r3, [r7, #20]
 6202 000e 1B78     		ldrb	r3, [r3]	@ zero_extendqisi2
 6203 0010 002B     		cmp	r3, #0
 6204 0012 1ED1     		bne	.L224
 6205              	.LBB71:
1397:.\DisplayBLL.c ****     {
1398:.\DisplayBLL.c ****         PSINKMESSAGEPTR psinkmsg = AllocateMessageSlotConditional(DISPLAY1_ANIMATE_HOME);
 6206              		.loc 1 1398 0
 6207 0014 2020     		movs	r0, #32
 6208 0016 FFF7FEFF 		bl	AllocateMessageSlotConditional
 6209 001a 3861     		str	r0, [r7, #16]
1399:.\DisplayBLL.c ****         if(psinkmsg)
 6210              		.loc 1 1399 0
 6211 001c 3B69     		ldr	r3, [r7, #16]
 6212 001e 002B     		cmp	r3, #0
 6213 0020 16D0     		beq	.L225
1400:.\DisplayBLL.c ****         {
1401:.\DisplayBLL.c ****             _g_homeanimarray[DISPLAY1]._timeoutmultiplier = 0;
 6214              		.loc 1 1401 0
 6215 0022 1E4B     		ldr	r3, .L227
 6216 0024 0022     		movs	r2, #0
 6217 0026 9A70     		strb	r2, [r3, #2]
1402:.\DisplayBLL.c ****             
1403:.\DisplayBLL.c ****             pdisplay->_pdata = psinkmsg;
 6218              		.loc 1 1403 0
 6219 0028 7B69     		ldr	r3, [r7, #20]
 6220 002a 3A69     		ldr	r2, [r7, #16]
 6221 002c 5A63     		str	r2, [r3, #52]
1404:.\DisplayBLL.c ****             psinkmsg->_pdata = pdisplay;
 6222              		.loc 1 1404 0
 6223 002e 3B69     		ldr	r3, [r7, #16]
 6224 0030 7A69     		ldr	r2, [r7, #20]
 6225 0032 C3F89021 		str	r2, [r3, #400]
1405:.\DisplayBLL.c ****             psinkmsg->_messageid = DISPLAY1_ANIMATE_HOME;
 6226              		.loc 1 1405 0
 6227 0036 3B69     		ldr	r3, [r7, #16]
 6228 0038 2022     		movs	r2, #32
 6229 003a 5A70     		strb	r2, [r3, #1]
1406:.\DisplayBLL.c ****             psinkmsg->_messagetype = FIRSTFOUNDFOREVER;
 6230              		.loc 1 1406 0
 6231 003c 3B69     		ldr	r3, [r7, #16]
 6232 003e 0622     		movs	r2, #6
 6233 0040 9A70     		strb	r2, [r3, #2]
1407:.\DisplayBLL.c ****             psinkmsg->_messagetimeoutlimit = _SINK_TIMEOUT_100MS_;
ARM GAS  C:\Users\RECEPC~1\AppData\Local\Temp\ccvg7Xyk.s 			page 136


 6234              		.loc 1 1407 0
 6235 0042 3B69     		ldr	r3, [r7, #16]
 6236 0044 6422     		movs	r2, #100
 6237 0046 5A81     		strh	r2, [r3, #10]	@ movhi
1408:.\DisplayBLL.c ****             psinkmsg->_messagestate = SINK_BUSY;
 6238              		.loc 1 1408 0
 6239 0048 3B69     		ldr	r3, [r7, #16]
 6240 004a 0322     		movs	r2, #3
 6241 004c DA70     		strb	r2, [r3, #3]
 6242              	.LBE71:
 6243 004e 21E0     		b	.L223
 6244              	.L225:
 6245 0050 20E0     		b	.L223
 6246              	.L224:
1409:.\DisplayBLL.c ****             
1410:.\DisplayBLL.c ****         }
1411:.\DisplayBLL.c ****     }
1412:.\DisplayBLL.c ****     else if(pdisplay->_dispid == DISPLAY2)
 6247              		.loc 1 1412 0
 6248 0052 7B69     		ldr	r3, [r7, #20]
 6249 0054 1B78     		ldrb	r3, [r3]	@ zero_extendqisi2
 6250 0056 012B     		cmp	r3, #1
 6251 0058 1CD1     		bne	.L223
 6252              	.LBB72:
1413:.\DisplayBLL.c ****     {
1414:.\DisplayBLL.c ****         PSINKMESSAGEPTR psinkmsg = AllocateMessageSlotConditional(DISPLAY2_ANIMATE_HOME);
 6253              		.loc 1 1414 0
 6254 005a 2420     		movs	r0, #36
 6255 005c FFF7FEFF 		bl	AllocateMessageSlotConditional
 6256 0060 F860     		str	r0, [r7, #12]
1415:.\DisplayBLL.c ****         if(psinkmsg)
 6257              		.loc 1 1415 0
 6258 0062 FB68     		ldr	r3, [r7, #12]
 6259 0064 002B     		cmp	r3, #0
 6260 0066 15D0     		beq	.L223
1416:.\DisplayBLL.c ****         {
1417:.\DisplayBLL.c ****             _g_homeanimarray[DISPLAY2]._timeoutmultiplier = 0;
 6261              		.loc 1 1417 0
 6262 0068 0C4B     		ldr	r3, .L227
 6263 006a 0022     		movs	r2, #0
 6264 006c 5A72     		strb	r2, [r3, #9]
1418:.\DisplayBLL.c ****             
1419:.\DisplayBLL.c ****             pdisplay->_pdata = psinkmsg;
 6265              		.loc 1 1419 0
 6266 006e 7B69     		ldr	r3, [r7, #20]
 6267 0070 FA68     		ldr	r2, [r7, #12]
 6268 0072 5A63     		str	r2, [r3, #52]
1420:.\DisplayBLL.c ****             psinkmsg->_pdata = pdisplay;
 6269              		.loc 1 1420 0
 6270 0074 FB68     		ldr	r3, [r7, #12]
 6271 0076 7A69     		ldr	r2, [r7, #20]
 6272 0078 C3F89021 		str	r2, [r3, #400]
1421:.\DisplayBLL.c ****             psinkmsg->_messageid = DISPLAY2_ANIMATE_HOME;
 6273              		.loc 1 1421 0
 6274 007c FB68     		ldr	r3, [r7, #12]
 6275 007e 2422     		movs	r2, #36
 6276 0080 5A70     		strb	r2, [r3, #1]
ARM GAS  C:\Users\RECEPC~1\AppData\Local\Temp\ccvg7Xyk.s 			page 137


1422:.\DisplayBLL.c ****             psinkmsg->_messagetype = FIRSTFOUNDFOREVER;
 6277              		.loc 1 1422 0
 6278 0082 FB68     		ldr	r3, [r7, #12]
 6279 0084 0622     		movs	r2, #6
 6280 0086 9A70     		strb	r2, [r3, #2]
1423:.\DisplayBLL.c ****             psinkmsg->_messagetimeoutlimit = _SINK_TIMEOUT_100MS_;
 6281              		.loc 1 1423 0
 6282 0088 FB68     		ldr	r3, [r7, #12]
 6283 008a 6422     		movs	r2, #100
 6284 008c 5A81     		strh	r2, [r3, #10]	@ movhi
1424:.\DisplayBLL.c ****             psinkmsg->_messagestate = SINK_BUSY;
 6285              		.loc 1 1424 0
 6286 008e FB68     		ldr	r3, [r7, #12]
 6287 0090 0322     		movs	r2, #3
 6288 0092 DA70     		strb	r2, [r3, #3]
 6289              	.L223:
 6290              	.LBE72:
1425:.\DisplayBLL.c **** 
1426:.\DisplayBLL.c ****         }
1427:.\DisplayBLL.c ****     }
1428:.\DisplayBLL.c ****     //DrawHomeDateTime(pdisplay);
1429:.\DisplayBLL.c **** }
 6291              		.loc 1 1429 0
 6292 0094 1837     		adds	r7, r7, #24
 6293              		.cfi_def_cfa_offset 8
 6294 0096 BD46     		mov	sp, r7
 6295              		.cfi_def_cfa_register 13
 6296              		@ sp needed
 6297 0098 80BD     		pop	{r7, pc}
 6298              	.L228:
 6299 009a 00BF     		.align	2
 6300              	.L227:
 6301 009c 00000000 		.word	_g_homeanimarray
 6302              		.cfi_endproc
 6303              	.LFE92:
 6304              		.size	InitiateHomeAnimation, .-InitiateHomeAnimation
 6305              		.section	.text.TerminateHomeAnimation,"ax",%progbits
 6306              		.align	2
 6307              		.global	TerminateHomeAnimation
 6308              		.thumb
 6309              		.thumb_func
 6310              		.type	TerminateHomeAnimation, %function
 6311              	TerminateHomeAnimation:
 6312              	.LFB93:
1430:.\DisplayBLL.c **** 
1431:.\DisplayBLL.c **** void TerminateHomeAnimation(void *pparam)
1432:.\DisplayBLL.c **** {
 6313              		.loc 1 1432 0
 6314              		.cfi_startproc
 6315              		@ args = 0, pretend = 0, frame = 24
 6316              		@ frame_needed = 1, uses_anonymous_args = 0
 6317              		@ link register save eliminated.
 6318 0000 80B4     		push	{r7}
 6319              		.cfi_def_cfa_offset 4
 6320              		.cfi_offset 7, -4
 6321 0002 87B0     		sub	sp, sp, #28
 6322              		.cfi_def_cfa_offset 32
ARM GAS  C:\Users\RECEPC~1\AppData\Local\Temp\ccvg7Xyk.s 			page 138


 6323 0004 00AF     		add	r7, sp, #0
 6324              		.cfi_def_cfa_register 7
 6325 0006 7860     		str	r0, [r7, #4]
1433:.\DisplayBLL.c ****     PDISPLAYLAYOUTPTR pdisplay = (PDISPLAYLAYOUTPTR)pparam;
 6326              		.loc 1 1433 0
 6327 0008 7B68     		ldr	r3, [r7, #4]
 6328 000a 7B61     		str	r3, [r7, #20]
1434:.\DisplayBLL.c ****     if(pdisplay->_dispid == DISPLAY1)
 6329              		.loc 1 1434 0
 6330 000c 7B69     		ldr	r3, [r7, #20]
 6331 000e 1B78     		ldrb	r3, [r3]	@ zero_extendqisi2
 6332 0010 002B     		cmp	r3, #0
 6333 0012 0AD1     		bne	.L230
 6334              	.LBB73:
1435:.\DisplayBLL.c ****     {
1436:.\DisplayBLL.c ****         PSINKMESSAGEPTR psinkmsg = (PSINKMESSAGEPTR)pdisplay->_pdata;
 6335              		.loc 1 1436 0
 6336 0014 7B69     		ldr	r3, [r7, #20]
 6337 0016 5B6B     		ldr	r3, [r3, #52]
 6338 0018 3B61     		str	r3, [r7, #16]
1437:.\DisplayBLL.c ****         if(psinkmsg)
 6339              		.loc 1 1437 0
 6340 001a 3B69     		ldr	r3, [r7, #16]
 6341 001c 002B     		cmp	r3, #0
 6342 001e 03D0     		beq	.L231
1438:.\DisplayBLL.c ****             psinkmsg->_selfkill = true;
 6343              		.loc 1 1438 0
 6344 0020 3B69     		ldr	r3, [r7, #16]
 6345 0022 0122     		movs	r2, #1
 6346 0024 1A70     		strb	r2, [r3]
 6347              	.LBE73:
 6348 0026 0DE0     		b	.L229
 6349              	.L231:
 6350 0028 0CE0     		b	.L229
 6351              	.L230:
1439:.\DisplayBLL.c ****     }
1440:.\DisplayBLL.c ****     else if(pdisplay->_dispid == DISPLAY2)
 6352              		.loc 1 1440 0
 6353 002a 7B69     		ldr	r3, [r7, #20]
 6354 002c 1B78     		ldrb	r3, [r3]	@ zero_extendqisi2
 6355 002e 012B     		cmp	r3, #1
 6356 0030 08D1     		bne	.L229
 6357              	.LBB74:
1441:.\DisplayBLL.c ****     {
1442:.\DisplayBLL.c ****         PSINKMESSAGEPTR psinkmsg = (PSINKMESSAGEPTR)pdisplay->_pdata;
 6358              		.loc 1 1442 0
 6359 0032 7B69     		ldr	r3, [r7, #20]
 6360 0034 5B6B     		ldr	r3, [r3, #52]
 6361 0036 FB60     		str	r3, [r7, #12]
1443:.\DisplayBLL.c ****         if(psinkmsg)
 6362              		.loc 1 1443 0
 6363 0038 FB68     		ldr	r3, [r7, #12]
 6364 003a 002B     		cmp	r3, #0
 6365 003c 02D0     		beq	.L229
1444:.\DisplayBLL.c ****             psinkmsg->_selfkill = true;
 6366              		.loc 1 1444 0
 6367 003e FB68     		ldr	r3, [r7, #12]
ARM GAS  C:\Users\RECEPC~1\AppData\Local\Temp\ccvg7Xyk.s 			page 139


 6368 0040 0122     		movs	r2, #1
 6369 0042 1A70     		strb	r2, [r3]
 6370              	.L229:
 6371              	.LBE74:
1445:.\DisplayBLL.c ****     }
1446:.\DisplayBLL.c **** }
 6372              		.loc 1 1446 0
 6373 0044 1C37     		adds	r7, r7, #28
 6374              		.cfi_def_cfa_offset 4
 6375 0046 BD46     		mov	sp, r7
 6376              		.cfi_def_cfa_register 13
 6377              		@ sp needed
 6378 0048 5DF8047B 		ldr	r7, [sp], #4
 6379              		.cfi_restore 7
 6380              		.cfi_def_cfa_offset 0
 6381 004c 7047     		bx	lr
 6382              		.cfi_endproc
 6383              	.LFE93:
 6384              		.size	TerminateHomeAnimation, .-TerminateHomeAnimation
 6385 004e 00BF     		.section	.text.DrawHomeDateTime,"ax",%progbits
 6386              		.align	2
 6387              		.global	DrawHomeDateTime
 6388              		.thumb
 6389              		.thumb_func
 6390              		.type	DrawHomeDateTime, %function
 6391              	DrawHomeDateTime:
 6392              	.LFB94:
1447:.\DisplayBLL.c **** 
1448:.\DisplayBLL.c **** void DrawHomeDateTime(void *pparam)
1449:.\DisplayBLL.c **** {
 6393              		.loc 1 1449 0
 6394              		.cfi_startproc
 6395              		@ args = 0, pretend = 0, frame = 48
 6396              		@ frame_needed = 1, uses_anonymous_args = 0
 6397 0000 B0B5     		push	{r4, r5, r7, lr}
 6398              		.cfi_def_cfa_offset 16
 6399              		.cfi_offset 4, -16
 6400              		.cfi_offset 5, -12
 6401              		.cfi_offset 7, -8
 6402              		.cfi_offset 14, -4
 6403 0002 90B0     		sub	sp, sp, #64
 6404              		.cfi_def_cfa_offset 80
 6405 0004 04AF     		add	r7, sp, #16
 6406              		.cfi_def_cfa 7, 64
 6407 0006 7860     		str	r0, [r7, #4]
1450:.\DisplayBLL.c ****     char8 buffer[8];
1451:.\DisplayBLL.c ****     FontData fontdata;
1452:.\DisplayBLL.c ****     fontdata._size = 0x02;
 6408              		.loc 1 1452 0
 6409 0008 0223     		movs	r3, #2
 6410 000a 3B72     		strb	r3, [r7, #8]
1453:.\DisplayBLL.c ****     fontdata._backcolor = 0xFFFF;
 6411              		.loc 1 1453 0
 6412 000c 4FF6FF73 		movw	r3, #65535
 6413 0010 BB81     		strh	r3, [r7, #12]	@ movhi
1454:.\DisplayBLL.c ****     fontdata._forecolor = 0x0000;
 6414              		.loc 1 1454 0
ARM GAS  C:\Users\RECEPC~1\AppData\Local\Temp\ccvg7Xyk.s 			page 140


 6415 0012 0023     		movs	r3, #0
 6416 0014 FB81     		strh	r3, [r7, #14]	@ movhi
1455:.\DisplayBLL.c ****     fontdata._opaquebackground = DISP_TEXT_OPAQUE;
 6417              		.loc 1 1455 0
 6418 0016 C523     		movs	r3, #197
 6419 0018 BB72     		strb	r3, [r7, #10]
1456:.\DisplayBLL.c ****     DisplayLayout *pdisplay = (DisplayLayout*)pparam;
 6420              		.loc 1 1456 0
 6421 001a 7B68     		ldr	r3, [r7, #4]
 6422 001c BB62     		str	r3, [r7, #40]
1457:.\DisplayBLL.c ****     if(pdisplay->_dispid == DISPLAY1 && ((PDISPLAYFLOWPTR)pdisplay->_pcurrflow)->_scrid == DISPLAY_
 6423              		.loc 1 1457 0
 6424 001e BB6A     		ldr	r3, [r7, #40]
 6425 0020 1B78     		ldrb	r3, [r3]	@ zero_extendqisi2
 6426 0022 002B     		cmp	r3, #0
 6427 0024 40F0DE81 		bne	.L234
 6428              		.loc 1 1457 0 is_stmt 0 discriminator 1
 6429 0028 BB6A     		ldr	r3, [r7, #40]
 6430 002a 1B69     		ldr	r3, [r3, #16]
 6431 002c 1B78     		ldrb	r3, [r3]	@ zero_extendqisi2
 6432 002e 012B     		cmp	r3, #1
 6433 0030 40F0D881 		bne	.L234
 6434              	.LBB75:
1458:.\DisplayBLL.c ****     {
1459:.\DisplayBLL.c ****         UARTMessage *puartdisp = GetUARTMessageSlot(UART_DISPLAY1);
 6435              		.loc 1 1459 0 is_stmt 1
 6436 0034 A320     		movs	r0, #163
 6437 0036 FFF7FEFF 		bl	GetUARTMessageSlot
 6438 003a 7862     		str	r0, [r7, #36]
1460:.\DisplayBLL.c ****         if(puartdisp)
 6439              		.loc 1 1460 0
 6440 003c 7B6A     		ldr	r3, [r7, #36]
 6441 003e 002B     		cmp	r3, #0
 6442 0040 00F0EA80 		beq	.L235
 6443              	.LBB76:
1461:.\DisplayBLL.c ****         {
1462:.\DisplayBLL.c ****             uint8 index = 0;
 6444              		.loc 1 1462 0
 6445 0044 0023     		movs	r3, #0
 6446 0046 87F82F30 		strb	r3, [r7, #47]
1463:.\DisplayBLL.c ****             
1464:.\DisplayBLL.c ****             //CAREFUL WITH RETURNS BETWEEN THE LOCK/UNLOCK CALLS
1465:.\DisplayBLL.c ****             //AND RECURSIVE CALLS THAT WOULD DEADLOCK!
1466:.\DisplayBLL.c ****             I2CBusLock();
 6447              		.loc 1 1466 0
 6448 004a FFF7FEFF 		bl	I2CBusLock
1467:.\DisplayBLL.c ****             
1468:.\DisplayBLL.c ****             ClearRtcBuffer();
 6449              		.loc 1 1468 0
 6450 004e FFF7FEFF 		bl	ClearRtcBuffer
1469:.\DisplayBLL.c ****             ReadRTC();                           
 6451              		.loc 1 1469 0
 6452 0052 FFF7FEFF 		bl	ReadRTC
1470:.\DisplayBLL.c ****             memset(buffer, 0x00, sizeof(buffer));            
 6453              		.loc 1 1470 0
 6454 0056 07F11003 		add	r3, r7, #16
 6455 005a 1846     		mov	r0, r3
ARM GAS  C:\Users\RECEPC~1\AppData\Local\Temp\ccvg7Xyk.s 			page 141


 6456 005c 0021     		movs	r1, #0
 6457 005e 0822     		movs	r2, #8
 6458 0060 FFF7FEFF 		bl	memset
1471:.\DisplayBLL.c ****             
1472:.\DisplayBLL.c ****             if(GetRtcBuffer()[RTC_HOUR] & 0b01000000){
 6459              		.loc 1 1472 0
 6460 0064 FFF7FEFF 		bl	GetRtcBuffer
 6461 0068 0346     		mov	r3, r0
 6462 006a 0233     		adds	r3, r3, #2
 6463 006c 1B78     		ldrb	r3, [r3]	@ zero_extendqisi2
 6464 006e 03F04003 		and	r3, r3, #64
 6465 0072 002B     		cmp	r3, #0
 6466 0074 32D0     		beq	.L236
1473:.\DisplayBLL.c ****                 buffer[index++] = ((GetRtcBuffer()[RTC_HOUR] >> 4) & 0x01) | 0x30;
 6467              		.loc 1 1473 0
 6468 0076 97F82F30 		ldrb	r3, [r7, #47]	@ zero_extendqisi2
 6469 007a 5A1C     		adds	r2, r3, #1
 6470 007c 87F82F20 		strb	r2, [r7, #47]
 6471 0080 1C46     		mov	r4, r3
 6472 0082 FFF7FEFF 		bl	GetRtcBuffer
 6473 0086 0346     		mov	r3, r0
 6474 0088 0233     		adds	r3, r3, #2
 6475 008a 1B78     		ldrb	r3, [r3]	@ zero_extendqisi2
 6476 008c 1B09     		lsrs	r3, r3, #4
 6477 008e DBB2     		uxtb	r3, r3
 6478 0090 DBB2     		uxtb	r3, r3
 6479 0092 03F00103 		and	r3, r3, #1
 6480 0096 DBB2     		uxtb	r3, r3
 6481 0098 43F03003 		orr	r3, r3, #48
 6482 009c DBB2     		uxtb	r3, r3
 6483 009e DAB2     		uxtb	r2, r3
 6484 00a0 07F13003 		add	r3, r7, #48
 6485 00a4 2344     		add	r3, r3, r4
 6486 00a6 03F8202C 		strb	r2, [r3, #-32]
1474:.\DisplayBLL.c ****                 buffer[index++] = (GetRtcBuffer()[RTC_HOUR] & 0x0F) | 0x30;
 6487              		.loc 1 1474 0
 6488 00aa 97F82F30 		ldrb	r3, [r7, #47]	@ zero_extendqisi2
 6489 00ae 5A1C     		adds	r2, r3, #1
 6490 00b0 87F82F20 		strb	r2, [r7, #47]
 6491 00b4 1C46     		mov	r4, r3
 6492 00b6 FFF7FEFF 		bl	GetRtcBuffer
 6493 00ba 0346     		mov	r3, r0
 6494 00bc 0233     		adds	r3, r3, #2
 6495 00be 1B78     		ldrb	r3, [r3]	@ zero_extendqisi2
 6496 00c0 DBB2     		uxtb	r3, r3
 6497 00c2 03F00F03 		and	r3, r3, #15
 6498 00c6 DBB2     		uxtb	r3, r3
 6499 00c8 43F03003 		orr	r3, r3, #48
 6500 00cc DBB2     		uxtb	r3, r3
 6501 00ce DAB2     		uxtb	r2, r3
 6502 00d0 07F13003 		add	r3, r7, #48
 6503 00d4 2344     		add	r3, r3, r4
 6504 00d6 03F8202C 		strb	r2, [r3, #-32]
 6505 00da 31E0     		b	.L237
 6506              	.L236:
1475:.\DisplayBLL.c ****             }else{
1476:.\DisplayBLL.c ****                 buffer[index++] = ((GetRtcBuffer()[RTC_HOUR] >> 4) & 0x03) | 0x30;
ARM GAS  C:\Users\RECEPC~1\AppData\Local\Temp\ccvg7Xyk.s 			page 142


 6507              		.loc 1 1476 0
 6508 00dc 97F82F30 		ldrb	r3, [r7, #47]	@ zero_extendqisi2
 6509 00e0 5A1C     		adds	r2, r3, #1
 6510 00e2 87F82F20 		strb	r2, [r7, #47]
 6511 00e6 1C46     		mov	r4, r3
 6512 00e8 FFF7FEFF 		bl	GetRtcBuffer
 6513 00ec 0346     		mov	r3, r0
 6514 00ee 0233     		adds	r3, r3, #2
 6515 00f0 1B78     		ldrb	r3, [r3]	@ zero_extendqisi2
 6516 00f2 1B09     		lsrs	r3, r3, #4
 6517 00f4 DBB2     		uxtb	r3, r3
 6518 00f6 DBB2     		uxtb	r3, r3
 6519 00f8 03F00303 		and	r3, r3, #3
 6520 00fc DBB2     		uxtb	r3, r3
 6521 00fe 43F03003 		orr	r3, r3, #48
 6522 0102 DBB2     		uxtb	r3, r3
 6523 0104 DAB2     		uxtb	r2, r3
 6524 0106 07F13003 		add	r3, r7, #48
 6525 010a 2344     		add	r3, r3, r4
 6526 010c 03F8202C 		strb	r2, [r3, #-32]
1477:.\DisplayBLL.c ****                 buffer[index++] = (GetRtcBuffer()[RTC_HOUR] & 0x0F) | 0x30;
 6527              		.loc 1 1477 0
 6528 0110 97F82F30 		ldrb	r3, [r7, #47]	@ zero_extendqisi2
 6529 0114 5A1C     		adds	r2, r3, #1
 6530 0116 87F82F20 		strb	r2, [r7, #47]
 6531 011a 1C46     		mov	r4, r3
 6532 011c FFF7FEFF 		bl	GetRtcBuffer
 6533 0120 0346     		mov	r3, r0
 6534 0122 0233     		adds	r3, r3, #2
 6535 0124 1B78     		ldrb	r3, [r3]	@ zero_extendqisi2
 6536 0126 DBB2     		uxtb	r3, r3
 6537 0128 03F00F03 		and	r3, r3, #15
 6538 012c DBB2     		uxtb	r3, r3
 6539 012e 43F03003 		orr	r3, r3, #48
 6540 0132 DBB2     		uxtb	r3, r3
 6541 0134 DAB2     		uxtb	r2, r3
 6542 0136 07F13003 		add	r3, r7, #48
 6543 013a 2344     		add	r3, r3, r4
 6544 013c 03F8202C 		strb	r2, [r3, #-32]
 6545              	.L237:
1478:.\DisplayBLL.c ****             }
1479:.\DisplayBLL.c ****             if(_g_homeanimarray[DISPLAY1]._colontoggler)
 6546              		.loc 1 1479 0
 6547 0140 A74B     		ldr	r3, .L247
 6548 0142 5B78     		ldrb	r3, [r3, #1]	@ zero_extendqisi2
 6549 0144 002B     		cmp	r3, #0
 6550 0146 0BD0     		beq	.L238
1480:.\DisplayBLL.c ****                 buffer[index++] = 0x3A;
 6551              		.loc 1 1480 0
 6552 0148 97F82F30 		ldrb	r3, [r7, #47]	@ zero_extendqisi2
 6553 014c 5A1C     		adds	r2, r3, #1
 6554 014e 87F82F20 		strb	r2, [r7, #47]
 6555 0152 07F13002 		add	r2, r7, #48
 6556 0156 1344     		add	r3, r3, r2
 6557 0158 3A22     		movs	r2, #58
 6558 015a 03F8202C 		strb	r2, [r3, #-32]
 6559 015e 0AE0     		b	.L239
ARM GAS  C:\Users\RECEPC~1\AppData\Local\Temp\ccvg7Xyk.s 			page 143


 6560              	.L238:
1481:.\DisplayBLL.c ****             else
1482:.\DisplayBLL.c ****                 buffer[index++] = 0x20;
 6561              		.loc 1 1482 0
 6562 0160 97F82F30 		ldrb	r3, [r7, #47]	@ zero_extendqisi2
 6563 0164 5A1C     		adds	r2, r3, #1
 6564 0166 87F82F20 		strb	r2, [r7, #47]
 6565 016a 07F13002 		add	r2, r7, #48
 6566 016e 1344     		add	r3, r3, r2
 6567 0170 2022     		movs	r2, #32
 6568 0172 03F8202C 		strb	r2, [r3, #-32]
 6569              	.L239:
1483:.\DisplayBLL.c ****                 
1484:.\DisplayBLL.c ****             buffer[index++] = ((GetRtcBuffer()[RTC_MINUTES] >> 4) & 0x07) | 0x30;
 6570              		.loc 1 1484 0
 6571 0176 97F82F30 		ldrb	r3, [r7, #47]	@ zero_extendqisi2
 6572 017a 5A1C     		adds	r2, r3, #1
 6573 017c 87F82F20 		strb	r2, [r7, #47]
 6574 0180 1C46     		mov	r4, r3
 6575 0182 FFF7FEFF 		bl	GetRtcBuffer
 6576 0186 0346     		mov	r3, r0
 6577 0188 0133     		adds	r3, r3, #1
 6578 018a 1B78     		ldrb	r3, [r3]	@ zero_extendqisi2
 6579 018c 1B09     		lsrs	r3, r3, #4
 6580 018e DBB2     		uxtb	r3, r3
 6581 0190 DBB2     		uxtb	r3, r3
 6582 0192 03F00703 		and	r3, r3, #7
 6583 0196 DBB2     		uxtb	r3, r3
 6584 0198 43F03003 		orr	r3, r3, #48
 6585 019c DBB2     		uxtb	r3, r3
 6586 019e DAB2     		uxtb	r2, r3
 6587 01a0 07F13003 		add	r3, r7, #48
 6588 01a4 2344     		add	r3, r3, r4
 6589 01a6 03F8202C 		strb	r2, [r3, #-32]
1485:.\DisplayBLL.c ****             buffer[index++] = (GetRtcBuffer()[RTC_MINUTES] & 0x0F) | 0x30;
 6590              		.loc 1 1485 0
 6591 01aa 97F82F30 		ldrb	r3, [r7, #47]	@ zero_extendqisi2
 6592 01ae 5A1C     		adds	r2, r3, #1
 6593 01b0 87F82F20 		strb	r2, [r7, #47]
 6594 01b4 1C46     		mov	r4, r3
 6595 01b6 FFF7FEFF 		bl	GetRtcBuffer
 6596 01ba 0346     		mov	r3, r0
 6597 01bc 0133     		adds	r3, r3, #1
 6598 01be 1B78     		ldrb	r3, [r3]	@ zero_extendqisi2
 6599 01c0 DBB2     		uxtb	r3, r3
 6600 01c2 03F00F03 		and	r3, r3, #15
 6601 01c6 DBB2     		uxtb	r3, r3
 6602 01c8 43F03003 		orr	r3, r3, #48
 6603 01cc DBB2     		uxtb	r3, r3
 6604 01ce DAB2     		uxtb	r2, r3
 6605 01d0 07F13003 		add	r3, r7, #48
 6606 01d4 2344     		add	r3, r3, r4
 6607 01d6 03F8202C 		strb	r2, [r3, #-32]
1486:.\DisplayBLL.c ****             
1487:.\DisplayBLL.c ****             /*buffer[index++] = 0x3A;
1488:.\DisplayBLL.c ****             buffer[index++] = ((GetRtcBuffer()[RTC_SECONDS] >> 4) & 0x07) | 0x30;
1489:.\DisplayBLL.c ****             buffer[index++] = (GetRtcBuffer()[RTC_SECONDS] & 0x0F) | 0x30;
ARM GAS  C:\Users\RECEPC~1\AppData\Local\Temp\ccvg7Xyk.s 			page 144


1490:.\DisplayBLL.c ****             */
1491:.\DisplayBLL.c ****             
1492:.\DisplayBLL.c ****             I2CBusUnlock();
 6608              		.loc 1 1492 0
 6609 01da FFF7FEFF 		bl	I2CBusUnlock
1493:.\DisplayBLL.c ****             
1494:.\DisplayBLL.c ****             puartdisp->_messagelength = DisplayOutputString(0x010, 0x1BA, puartdisp->_messagetx, bu
 6610              		.loc 1 1494 0
 6611 01de 7B6A     		ldr	r3, [r7, #36]
 6612 01e0 1D1D     		adds	r5, r3, #4
 6613 01e2 97F82F30 		ldrb	r3, [r7, #47]	@ zero_extendqisi2
 6614 01e6 9BB2     		uxth	r3, r3
 6615 01e8 07F11004 		add	r4, r7, #16
 6616 01ec 0093     		str	r3, [sp]
 6617 01ee 01AA     		add	r2, sp, #4
 6618 01f0 07F10803 		add	r3, r7, #8
 6619 01f4 93E80300 		ldmia	r3, {r0, r1}
 6620 01f8 82E80300 		stmia	r2, {r0, r1}
 6621 01fc 1020     		movs	r0, #16
 6622 01fe 4FF4DD71 		mov	r1, #442
 6623 0202 2A46     		mov	r2, r5
 6624 0204 2346     		mov	r3, r4
 6625 0206 FFF7FEFF 		bl	DisplayOutputString
 6626 020a 0346     		mov	r3, r0
 6627 020c 1A46     		mov	r2, r3
 6628 020e 7B6A     		ldr	r3, [r7, #36]
 6629 0210 5A80     		strh	r2, [r3, #2]	@ movhi
1495:.\DisplayBLL.c ****             puartdisp->_messagestate = PENDING;
 6630              		.loc 1 1495 0
 6631 0212 7B6A     		ldr	r3, [r7, #36]
 6632 0214 C222     		movs	r2, #194
 6633 0216 1A70     		strb	r2, [r3]
 6634              	.L235:
 6635              	.LBE76:
1496:.\DisplayBLL.c ****         }
1497:.\DisplayBLL.c ****         
1498:.\DisplayBLL.c ****         puartdisp = GetUARTMessageSlot(UART_DISPLAY1);
 6636              		.loc 1 1498 0
 6637 0218 A320     		movs	r0, #163
 6638 021a FFF7FEFF 		bl	GetUARTMessageSlot
 6639 021e 7862     		str	r0, [r7, #36]
1499:.\DisplayBLL.c ****         if(puartdisp)
 6640              		.loc 1 1499 0
 6641 0220 7B6A     		ldr	r3, [r7, #36]
 6642 0222 002B     		cmp	r3, #0
 6643 0224 00F0DA80 		beq	.L240
 6644              	.LBB77:
1500:.\DisplayBLL.c ****         {
1501:.\DisplayBLL.c ****             uint8 index = 0;
 6645              		.loc 1 1501 0
 6646 0228 0023     		movs	r3, #0
 6647 022a 87F82330 		strb	r3, [r7, #35]
1502:.\DisplayBLL.c ****             
1503:.\DisplayBLL.c ****             //CAREFUL WITH RETURNS BETWEEN THE LOCK/UNLOCK CALLS
1504:.\DisplayBLL.c ****             //AND RECURSIVE CALLS THAT WOULD DEADLOCK!
1505:.\DisplayBLL.c ****             I2CBusLock();
 6648              		.loc 1 1505 0
ARM GAS  C:\Users\RECEPC~1\AppData\Local\Temp\ccvg7Xyk.s 			page 145


 6649 022e FFF7FEFF 		bl	I2CBusLock
1506:.\DisplayBLL.c ****             
1507:.\DisplayBLL.c ****             ClearRtcBuffer();
 6650              		.loc 1 1507 0
 6651 0232 FFF7FEFF 		bl	ClearRtcBuffer
1508:.\DisplayBLL.c ****             ReadRTC();                           
 6652              		.loc 1 1508 0
 6653 0236 FFF7FEFF 		bl	ReadRTC
1509:.\DisplayBLL.c ****             memset(buffer, 0x00, sizeof(buffer));            
 6654              		.loc 1 1509 0
 6655 023a 07F11003 		add	r3, r7, #16
 6656 023e 1846     		mov	r0, r3
 6657 0240 0021     		movs	r1, #0
 6658 0242 0822     		movs	r2, #8
 6659 0244 FFF7FEFF 		bl	memset
1510:.\DisplayBLL.c ****             
1511:.\DisplayBLL.c ****             buffer[index++] = ((GetRtcBuffer()[RTC_DAY] >> 4) & 0x03) | 0x30;
 6660              		.loc 1 1511 0
 6661 0248 97F82330 		ldrb	r3, [r7, #35]	@ zero_extendqisi2
 6662 024c 5A1C     		adds	r2, r3, #1
 6663 024e 87F82320 		strb	r2, [r7, #35]
 6664 0252 1C46     		mov	r4, r3
 6665 0254 FFF7FEFF 		bl	GetRtcBuffer
 6666 0258 0346     		mov	r3, r0
 6667 025a 0433     		adds	r3, r3, #4
 6668 025c 1B78     		ldrb	r3, [r3]	@ zero_extendqisi2
 6669 025e 1B09     		lsrs	r3, r3, #4
 6670 0260 DBB2     		uxtb	r3, r3
 6671 0262 DBB2     		uxtb	r3, r3
 6672 0264 03F00303 		and	r3, r3, #3
 6673 0268 DBB2     		uxtb	r3, r3
 6674 026a 43F03003 		orr	r3, r3, #48
 6675 026e DBB2     		uxtb	r3, r3
 6676 0270 DAB2     		uxtb	r2, r3
 6677 0272 07F13003 		add	r3, r7, #48
 6678 0276 2344     		add	r3, r3, r4
 6679 0278 03F8202C 		strb	r2, [r3, #-32]
1512:.\DisplayBLL.c ****             buffer[index++] = (GetRtcBuffer()[RTC_DAY] & 0x0F) | 0x30;
 6680              		.loc 1 1512 0
 6681 027c 97F82330 		ldrb	r3, [r7, #35]	@ zero_extendqisi2
 6682 0280 5A1C     		adds	r2, r3, #1
 6683 0282 87F82320 		strb	r2, [r7, #35]
 6684 0286 1C46     		mov	r4, r3
 6685 0288 FFF7FEFF 		bl	GetRtcBuffer
 6686 028c 0346     		mov	r3, r0
 6687 028e 0433     		adds	r3, r3, #4
 6688 0290 1B78     		ldrb	r3, [r3]	@ zero_extendqisi2
 6689 0292 DBB2     		uxtb	r3, r3
 6690 0294 03F00F03 		and	r3, r3, #15
 6691 0298 DBB2     		uxtb	r3, r3
 6692 029a 43F03003 		orr	r3, r3, #48
 6693 029e DBB2     		uxtb	r3, r3
 6694 02a0 DAB2     		uxtb	r2, r3
 6695 02a2 07F13003 		add	r3, r7, #48
 6696 02a6 2344     		add	r3, r3, r4
 6697 02a8 03F8202C 		strb	r2, [r3, #-32]
1513:.\DisplayBLL.c ****             buffer[index++] = 0x2F;
ARM GAS  C:\Users\RECEPC~1\AppData\Local\Temp\ccvg7Xyk.s 			page 146


 6698              		.loc 1 1513 0
 6699 02ac 97F82330 		ldrb	r3, [r7, #35]	@ zero_extendqisi2
 6700 02b0 5A1C     		adds	r2, r3, #1
 6701 02b2 87F82320 		strb	r2, [r7, #35]
 6702 02b6 07F13002 		add	r2, r7, #48
 6703 02ba 1344     		add	r3, r3, r2
 6704 02bc 2F22     		movs	r2, #47
 6705 02be 03F8202C 		strb	r2, [r3, #-32]
1514:.\DisplayBLL.c ****             buffer[index++] = ((GetRtcBuffer()[RTC_MONTH] >> 4) & 0x01) | 0x30;
 6706              		.loc 1 1514 0
 6707 02c2 97F82330 		ldrb	r3, [r7, #35]	@ zero_extendqisi2
 6708 02c6 5A1C     		adds	r2, r3, #1
 6709 02c8 87F82320 		strb	r2, [r7, #35]
 6710 02cc 1C46     		mov	r4, r3
 6711 02ce FFF7FEFF 		bl	GetRtcBuffer
 6712 02d2 0346     		mov	r3, r0
 6713 02d4 0533     		adds	r3, r3, #5
 6714 02d6 1B78     		ldrb	r3, [r3]	@ zero_extendqisi2
 6715 02d8 1B09     		lsrs	r3, r3, #4
 6716 02da DBB2     		uxtb	r3, r3
 6717 02dc DBB2     		uxtb	r3, r3
 6718 02de 03F00103 		and	r3, r3, #1
 6719 02e2 DBB2     		uxtb	r3, r3
 6720 02e4 43F03003 		orr	r3, r3, #48
 6721 02e8 DBB2     		uxtb	r3, r3
 6722 02ea DAB2     		uxtb	r2, r3
 6723 02ec 07F13003 		add	r3, r7, #48
 6724 02f0 2344     		add	r3, r3, r4
 6725 02f2 03F8202C 		strb	r2, [r3, #-32]
1515:.\DisplayBLL.c ****             buffer[index++] = (GetRtcBuffer()[RTC_MONTH] & 0x0F) | 0x30;
 6726              		.loc 1 1515 0
 6727 02f6 97F82330 		ldrb	r3, [r7, #35]	@ zero_extendqisi2
 6728 02fa 5A1C     		adds	r2, r3, #1
 6729 02fc 87F82320 		strb	r2, [r7, #35]
 6730 0300 1C46     		mov	r4, r3
 6731 0302 FFF7FEFF 		bl	GetRtcBuffer
 6732 0306 0346     		mov	r3, r0
 6733 0308 0533     		adds	r3, r3, #5
 6734 030a 1B78     		ldrb	r3, [r3]	@ zero_extendqisi2
 6735 030c DBB2     		uxtb	r3, r3
 6736 030e 03F00F03 		and	r3, r3, #15
 6737 0312 DBB2     		uxtb	r3, r3
 6738 0314 43F03003 		orr	r3, r3, #48
 6739 0318 DBB2     		uxtb	r3, r3
 6740 031a DAB2     		uxtb	r2, r3
 6741 031c 07F13003 		add	r3, r7, #48
 6742 0320 2344     		add	r3, r3, r4
 6743 0322 03F8202C 		strb	r2, [r3, #-32]
1516:.\DisplayBLL.c ****             
1517:.\DisplayBLL.c ****             buffer[index++] = 0x2F;
 6744              		.loc 1 1517 0
 6745 0326 97F82330 		ldrb	r3, [r7, #35]	@ zero_extendqisi2
 6746 032a 5A1C     		adds	r2, r3, #1
 6747 032c 87F82320 		strb	r2, [r7, #35]
 6748 0330 07F13002 		add	r2, r7, #48
 6749 0334 1344     		add	r3, r3, r2
 6750 0336 2F22     		movs	r2, #47
ARM GAS  C:\Users\RECEPC~1\AppData\Local\Temp\ccvg7Xyk.s 			page 147


 6751 0338 03F8202C 		strb	r2, [r3, #-32]
1518:.\DisplayBLL.c ****             buffer[index++] = ((GetRtcBuffer()[RTC_YEAR] >> 4) & 0x0F) | 0x30;
 6752              		.loc 1 1518 0
 6753 033c 97F82330 		ldrb	r3, [r7, #35]	@ zero_extendqisi2
 6754 0340 5A1C     		adds	r2, r3, #1
 6755 0342 87F82320 		strb	r2, [r7, #35]
 6756 0346 1C46     		mov	r4, r3
 6757 0348 FFF7FEFF 		bl	GetRtcBuffer
 6758 034c 0346     		mov	r3, r0
 6759 034e 0633     		adds	r3, r3, #6
 6760 0350 1B78     		ldrb	r3, [r3]	@ zero_extendqisi2
 6761 0352 1B09     		lsrs	r3, r3, #4
 6762 0354 DBB2     		uxtb	r3, r3
 6763 0356 DBB2     		uxtb	r3, r3
 6764 0358 43F03003 		orr	r3, r3, #48
 6765 035c DBB2     		uxtb	r3, r3
 6766 035e DAB2     		uxtb	r2, r3
 6767 0360 07F13003 		add	r3, r7, #48
 6768 0364 2344     		add	r3, r3, r4
 6769 0366 03F8202C 		strb	r2, [r3, #-32]
1519:.\DisplayBLL.c ****             buffer[index++] = (GetRtcBuffer()[RTC_YEAR] & 0x0F) | 0x30;
 6770              		.loc 1 1519 0
 6771 036a 97F82330 		ldrb	r3, [r7, #35]	@ zero_extendqisi2
 6772 036e 5A1C     		adds	r2, r3, #1
 6773 0370 87F82320 		strb	r2, [r7, #35]
 6774 0374 1C46     		mov	r4, r3
 6775 0376 FFF7FEFF 		bl	GetRtcBuffer
 6776 037a 0346     		mov	r3, r0
 6777 037c 0633     		adds	r3, r3, #6
 6778 037e 1B78     		ldrb	r3, [r3]	@ zero_extendqisi2
 6779 0380 DBB2     		uxtb	r3, r3
 6780 0382 03F00F03 		and	r3, r3, #15
 6781 0386 DBB2     		uxtb	r3, r3
 6782 0388 43F03003 		orr	r3, r3, #48
 6783 038c DBB2     		uxtb	r3, r3
 6784 038e DAB2     		uxtb	r2, r3
 6785 0390 07F13003 		add	r3, r7, #48
 6786 0394 2344     		add	r3, r3, r4
 6787 0396 03F8202C 		strb	r2, [r3, #-32]
1520:.\DisplayBLL.c **** 
1521:.\DisplayBLL.c ****             I2CBusUnlock();
 6788              		.loc 1 1521 0
 6789 039a FFF7FEFF 		bl	I2CBusUnlock
1522:.\DisplayBLL.c ****             
1523:.\DisplayBLL.c ****             puartdisp->_messagelength = DisplayOutputString(0x210, 0x1BA, puartdisp->_messagetx, bu
 6790              		.loc 1 1523 0
 6791 039e 7B6A     		ldr	r3, [r7, #36]
 6792 03a0 1D1D     		adds	r5, r3, #4
 6793 03a2 97F82330 		ldrb	r3, [r7, #35]	@ zero_extendqisi2
 6794 03a6 9BB2     		uxth	r3, r3
 6795 03a8 07F11004 		add	r4, r7, #16
 6796 03ac 0093     		str	r3, [sp]
 6797 03ae 01AA     		add	r2, sp, #4
 6798 03b0 07F10803 		add	r3, r7, #8
 6799 03b4 93E80300 		ldmia	r3, {r0, r1}
 6800 03b8 82E80300 		stmia	r2, {r0, r1}
 6801 03bc 4FF40470 		mov	r0, #528
ARM GAS  C:\Users\RECEPC~1\AppData\Local\Temp\ccvg7Xyk.s 			page 148


 6802 03c0 4FF4DD71 		mov	r1, #442
 6803 03c4 2A46     		mov	r2, r5
 6804 03c6 2346     		mov	r3, r4
 6805 03c8 FFF7FEFF 		bl	DisplayOutputString
 6806 03cc 0346     		mov	r3, r0
 6807 03ce 1A46     		mov	r2, r3
 6808 03d0 7B6A     		ldr	r3, [r7, #36]
 6809 03d2 5A80     		strh	r2, [r3, #2]	@ movhi
1524:.\DisplayBLL.c ****             puartdisp->_messagestate = PENDING;
 6810              		.loc 1 1524 0
 6811 03d4 7B6A     		ldr	r3, [r7, #36]
 6812 03d6 C222     		movs	r2, #194
 6813 03d8 1A70     		strb	r2, [r3]
 6814              	.LBE77:
 6815              	.LBE75:
1458:.\DisplayBLL.c ****         UARTMessage *puartdisp = GetUARTMessageSlot(UART_DISPLAY1);
 6816              		.loc 1 1458 0
 6817 03da CFE1     		b	.L233
 6818              	.L240:
 6819 03dc CEE1     		b	.L233
 6820              	.L248:
 6821 03de 00BF     		.align	2
 6822              	.L247:
 6823 03e0 00000000 		.word	_g_homeanimarray
 6824              	.L234:
1525:.\DisplayBLL.c ****         }
1526:.\DisplayBLL.c ****         
1527:.\DisplayBLL.c ****     }
1528:.\DisplayBLL.c ****     else if(pdisplay->_dispid == DISPLAY2 && ((PDISPLAYFLOWPTR)pdisplay->_pcurrflow)->_scrid == DIS
 6825              		.loc 1 1528 0
 6826 03e4 BB6A     		ldr	r3, [r7, #40]
 6827 03e6 1B78     		ldrb	r3, [r3]	@ zero_extendqisi2
 6828 03e8 012B     		cmp	r3, #1
 6829 03ea 40F0C781 		bne	.L233
 6830              		.loc 1 1528 0 is_stmt 0 discriminator 1
 6831 03ee BB6A     		ldr	r3, [r7, #40]
 6832 03f0 1B69     		ldr	r3, [r3, #16]
 6833 03f2 1B78     		ldrb	r3, [r3]	@ zero_extendqisi2
 6834 03f4 012B     		cmp	r3, #1
 6835 03f6 40F0C181 		bne	.L233
 6836              	.LBB78:
1529:.\DisplayBLL.c ****     {
1530:.\DisplayBLL.c ****         UARTMessage *puartdisp = GetUARTMessageSlot(UART_DISPLAY2);
 6837              		.loc 1 1530 0 is_stmt 1
 6838 03fa A420     		movs	r0, #164
 6839 03fc FFF7FEFF 		bl	GetUARTMessageSlot
 6840 0400 F861     		str	r0, [r7, #28]
1531:.\DisplayBLL.c ****         if(puartdisp)
 6841              		.loc 1 1531 0
 6842 0402 FB69     		ldr	r3, [r7, #28]
 6843 0404 002B     		cmp	r3, #0
 6844 0406 00F0EA80 		beq	.L242
 6845              	.LBB79:
1532:.\DisplayBLL.c ****         {
1533:.\DisplayBLL.c ****             uint8 index = 0;
 6846              		.loc 1 1533 0
 6847 040a 0023     		movs	r3, #0
ARM GAS  C:\Users\RECEPC~1\AppData\Local\Temp\ccvg7Xyk.s 			page 149


 6848 040c 87F82E30 		strb	r3, [r7, #46]
1534:.\DisplayBLL.c ****             
1535:.\DisplayBLL.c ****             //CAREFUL WITH RETURNS BETWEEN THE LOCK/UNLOCK CALLS
1536:.\DisplayBLL.c ****             //AND RECURSIVE CALLS THAT WOULD DEADLOCK!
1537:.\DisplayBLL.c ****             I2CBusLock();
 6849              		.loc 1 1537 0
 6850 0410 FFF7FEFF 		bl	I2CBusLock
1538:.\DisplayBLL.c ****             
1539:.\DisplayBLL.c ****             ClearRtcBuffer();
 6851              		.loc 1 1539 0
 6852 0414 FFF7FEFF 		bl	ClearRtcBuffer
1540:.\DisplayBLL.c ****             ReadRTC();                           
 6853              		.loc 1 1540 0
 6854 0418 FFF7FEFF 		bl	ReadRTC
1541:.\DisplayBLL.c ****             memset(buffer, 0x00, sizeof(buffer));            
 6855              		.loc 1 1541 0
 6856 041c 07F11003 		add	r3, r7, #16
 6857 0420 1846     		mov	r0, r3
 6858 0422 0021     		movs	r1, #0
 6859 0424 0822     		movs	r2, #8
 6860 0426 FFF7FEFF 		bl	memset
1542:.\DisplayBLL.c ****             
1543:.\DisplayBLL.c ****             if(GetRtcBuffer()[RTC_HOUR] & 0b01000000){
 6861              		.loc 1 1543 0
 6862 042a FFF7FEFF 		bl	GetRtcBuffer
 6863 042e 0346     		mov	r3, r0
 6864 0430 0233     		adds	r3, r3, #2
 6865 0432 1B78     		ldrb	r3, [r3]	@ zero_extendqisi2
 6866 0434 03F04003 		and	r3, r3, #64
 6867 0438 002B     		cmp	r3, #0
 6868 043a 32D0     		beq	.L243
1544:.\DisplayBLL.c ****                 buffer[index++] = ((GetRtcBuffer()[RTC_HOUR] >> 4) & 0x01) | 0x30;
 6869              		.loc 1 1544 0
 6870 043c 97F82E30 		ldrb	r3, [r7, #46]	@ zero_extendqisi2
 6871 0440 5A1C     		adds	r2, r3, #1
 6872 0442 87F82E20 		strb	r2, [r7, #46]
 6873 0446 1C46     		mov	r4, r3
 6874 0448 FFF7FEFF 		bl	GetRtcBuffer
 6875 044c 0346     		mov	r3, r0
 6876 044e 0233     		adds	r3, r3, #2
 6877 0450 1B78     		ldrb	r3, [r3]	@ zero_extendqisi2
 6878 0452 1B09     		lsrs	r3, r3, #4
 6879 0454 DBB2     		uxtb	r3, r3
 6880 0456 DBB2     		uxtb	r3, r3
 6881 0458 03F00103 		and	r3, r3, #1
 6882 045c DBB2     		uxtb	r3, r3
 6883 045e 43F03003 		orr	r3, r3, #48
 6884 0462 DBB2     		uxtb	r3, r3
 6885 0464 DAB2     		uxtb	r2, r3
 6886 0466 07F13003 		add	r3, r7, #48
 6887 046a 2344     		add	r3, r3, r4
 6888 046c 03F8202C 		strb	r2, [r3, #-32]
1545:.\DisplayBLL.c ****                 buffer[index++] = (GetRtcBuffer()[RTC_HOUR] & 0x0F) | 0x30;
 6889              		.loc 1 1545 0
 6890 0470 97F82E30 		ldrb	r3, [r7, #46]	@ zero_extendqisi2
 6891 0474 5A1C     		adds	r2, r3, #1
 6892 0476 87F82E20 		strb	r2, [r7, #46]
ARM GAS  C:\Users\RECEPC~1\AppData\Local\Temp\ccvg7Xyk.s 			page 150


 6893 047a 1C46     		mov	r4, r3
 6894 047c FFF7FEFF 		bl	GetRtcBuffer
 6895 0480 0346     		mov	r3, r0
 6896 0482 0233     		adds	r3, r3, #2
 6897 0484 1B78     		ldrb	r3, [r3]	@ zero_extendqisi2
 6898 0486 DBB2     		uxtb	r3, r3
 6899 0488 03F00F03 		and	r3, r3, #15
 6900 048c DBB2     		uxtb	r3, r3
 6901 048e 43F03003 		orr	r3, r3, #48
 6902 0492 DBB2     		uxtb	r3, r3
 6903 0494 DAB2     		uxtb	r2, r3
 6904 0496 07F13003 		add	r3, r7, #48
 6905 049a 2344     		add	r3, r3, r4
 6906 049c 03F8202C 		strb	r2, [r3, #-32]
 6907 04a0 31E0     		b	.L244
 6908              	.L243:
1546:.\DisplayBLL.c ****             }else{
1547:.\DisplayBLL.c ****                 buffer[index++] = ((GetRtcBuffer()[RTC_HOUR] >> 4) & 0x03) | 0x30;
 6909              		.loc 1 1547 0
 6910 04a2 97F82E30 		ldrb	r3, [r7, #46]	@ zero_extendqisi2
 6911 04a6 5A1C     		adds	r2, r3, #1
 6912 04a8 87F82E20 		strb	r2, [r7, #46]
 6913 04ac 1C46     		mov	r4, r3
 6914 04ae FFF7FEFF 		bl	GetRtcBuffer
 6915 04b2 0346     		mov	r3, r0
 6916 04b4 0233     		adds	r3, r3, #2
 6917 04b6 1B78     		ldrb	r3, [r3]	@ zero_extendqisi2
 6918 04b8 1B09     		lsrs	r3, r3, #4
 6919 04ba DBB2     		uxtb	r3, r3
 6920 04bc DBB2     		uxtb	r3, r3
 6921 04be 03F00303 		and	r3, r3, #3
 6922 04c2 DBB2     		uxtb	r3, r3
 6923 04c4 43F03003 		orr	r3, r3, #48
 6924 04c8 DBB2     		uxtb	r3, r3
 6925 04ca DAB2     		uxtb	r2, r3
 6926 04cc 07F13003 		add	r3, r7, #48
 6927 04d0 2344     		add	r3, r3, r4
 6928 04d2 03F8202C 		strb	r2, [r3, #-32]
1548:.\DisplayBLL.c ****                 buffer[index++] = (GetRtcBuffer()[RTC_HOUR] & 0x0F) | 0x30;
 6929              		.loc 1 1548 0
 6930 04d6 97F82E30 		ldrb	r3, [r7, #46]	@ zero_extendqisi2
 6931 04da 5A1C     		adds	r2, r3, #1
 6932 04dc 87F82E20 		strb	r2, [r7, #46]
 6933 04e0 1C46     		mov	r4, r3
 6934 04e2 FFF7FEFF 		bl	GetRtcBuffer
 6935 04e6 0346     		mov	r3, r0
 6936 04e8 0233     		adds	r3, r3, #2
 6937 04ea 1B78     		ldrb	r3, [r3]	@ zero_extendqisi2
 6938 04ec DBB2     		uxtb	r3, r3
 6939 04ee 03F00F03 		and	r3, r3, #15
 6940 04f2 DBB2     		uxtb	r3, r3
 6941 04f4 43F03003 		orr	r3, r3, #48
 6942 04f8 DBB2     		uxtb	r3, r3
 6943 04fa DAB2     		uxtb	r2, r3
 6944 04fc 07F13003 		add	r3, r7, #48
 6945 0500 2344     		add	r3, r3, r4
 6946 0502 03F8202C 		strb	r2, [r3, #-32]
ARM GAS  C:\Users\RECEPC~1\AppData\Local\Temp\ccvg7Xyk.s 			page 151


 6947              	.L244:
1549:.\DisplayBLL.c ****             }
1550:.\DisplayBLL.c ****             if(_g_homeanimarray[DISPLAY2]._colontoggler)
 6948              		.loc 1 1550 0
 6949 0506 9F4B     		ldr	r3, .L249
 6950 0508 1B7A     		ldrb	r3, [r3, #8]	@ zero_extendqisi2
 6951 050a 002B     		cmp	r3, #0
 6952 050c 0BD0     		beq	.L245
1551:.\DisplayBLL.c ****                 buffer[index++] = 0x3A;
 6953              		.loc 1 1551 0
 6954 050e 97F82E30 		ldrb	r3, [r7, #46]	@ zero_extendqisi2
 6955 0512 5A1C     		adds	r2, r3, #1
 6956 0514 87F82E20 		strb	r2, [r7, #46]
 6957 0518 07F13002 		add	r2, r7, #48
 6958 051c 1344     		add	r3, r3, r2
 6959 051e 3A22     		movs	r2, #58
 6960 0520 03F8202C 		strb	r2, [r3, #-32]
 6961 0524 0AE0     		b	.L246
 6962              	.L245:
1552:.\DisplayBLL.c ****             else
1553:.\DisplayBLL.c ****                 buffer[index++] = 0x20;
 6963              		.loc 1 1553 0
 6964 0526 97F82E30 		ldrb	r3, [r7, #46]	@ zero_extendqisi2
 6965 052a 5A1C     		adds	r2, r3, #1
 6966 052c 87F82E20 		strb	r2, [r7, #46]
 6967 0530 07F13002 		add	r2, r7, #48
 6968 0534 1344     		add	r3, r3, r2
 6969 0536 2022     		movs	r2, #32
 6970 0538 03F8202C 		strb	r2, [r3, #-32]
 6971              	.L246:
1554:.\DisplayBLL.c ****                 
1555:.\DisplayBLL.c ****             buffer[index++] = ((GetRtcBuffer()[RTC_MINUTES] >> 4) & 0x07) | 0x30;
 6972              		.loc 1 1555 0
 6973 053c 97F82E30 		ldrb	r3, [r7, #46]	@ zero_extendqisi2
 6974 0540 5A1C     		adds	r2, r3, #1
 6975 0542 87F82E20 		strb	r2, [r7, #46]
 6976 0546 1C46     		mov	r4, r3
 6977 0548 FFF7FEFF 		bl	GetRtcBuffer
 6978 054c 0346     		mov	r3, r0
 6979 054e 0133     		adds	r3, r3, #1
 6980 0550 1B78     		ldrb	r3, [r3]	@ zero_extendqisi2
 6981 0552 1B09     		lsrs	r3, r3, #4
 6982 0554 DBB2     		uxtb	r3, r3
 6983 0556 DBB2     		uxtb	r3, r3
 6984 0558 03F00703 		and	r3, r3, #7
 6985 055c DBB2     		uxtb	r3, r3
 6986 055e 43F03003 		orr	r3, r3, #48
 6987 0562 DBB2     		uxtb	r3, r3
 6988 0564 DAB2     		uxtb	r2, r3
 6989 0566 07F13003 		add	r3, r7, #48
 6990 056a 2344     		add	r3, r3, r4
 6991 056c 03F8202C 		strb	r2, [r3, #-32]
1556:.\DisplayBLL.c ****             buffer[index++] = (GetRtcBuffer()[RTC_MINUTES] & 0x0F) | 0x30;
 6992              		.loc 1 1556 0
 6993 0570 97F82E30 		ldrb	r3, [r7, #46]	@ zero_extendqisi2
 6994 0574 5A1C     		adds	r2, r3, #1
 6995 0576 87F82E20 		strb	r2, [r7, #46]
ARM GAS  C:\Users\RECEPC~1\AppData\Local\Temp\ccvg7Xyk.s 			page 152


 6996 057a 1C46     		mov	r4, r3
 6997 057c FFF7FEFF 		bl	GetRtcBuffer
 6998 0580 0346     		mov	r3, r0
 6999 0582 0133     		adds	r3, r3, #1
 7000 0584 1B78     		ldrb	r3, [r3]	@ zero_extendqisi2
 7001 0586 DBB2     		uxtb	r3, r3
 7002 0588 03F00F03 		and	r3, r3, #15
 7003 058c DBB2     		uxtb	r3, r3
 7004 058e 43F03003 		orr	r3, r3, #48
 7005 0592 DBB2     		uxtb	r3, r3
 7006 0594 DAB2     		uxtb	r2, r3
 7007 0596 07F13003 		add	r3, r7, #48
 7008 059a 2344     		add	r3, r3, r4
 7009 059c 03F8202C 		strb	r2, [r3, #-32]
1557:.\DisplayBLL.c ****             
1558:.\DisplayBLL.c ****             /*buffer[index++] = 0x3A;
1559:.\DisplayBLL.c ****             buffer[index++] = ((GetRtcBuffer()[RTC_SECONDS] >> 4) & 0x07) | 0x30;
1560:.\DisplayBLL.c ****             buffer[index++] = (GetRtcBuffer()[RTC_SECONDS] & 0x0F) | 0x30;*/
1561:.\DisplayBLL.c ****             
1562:.\DisplayBLL.c ****             I2CBusUnlock();            
 7010              		.loc 1 1562 0
 7011 05a0 FFF7FEFF 		bl	I2CBusUnlock
1563:.\DisplayBLL.c ****             
1564:.\DisplayBLL.c ****             puartdisp->_messagelength = DisplayOutputString(0x010, 0x1BA, puartdisp->_messagetx, bu
 7012              		.loc 1 1564 0
 7013 05a4 FB69     		ldr	r3, [r7, #28]
 7014 05a6 1D1D     		adds	r5, r3, #4
 7015 05a8 97F82E30 		ldrb	r3, [r7, #46]	@ zero_extendqisi2
 7016 05ac 9BB2     		uxth	r3, r3
 7017 05ae 07F11004 		add	r4, r7, #16
 7018 05b2 0093     		str	r3, [sp]
 7019 05b4 01AA     		add	r2, sp, #4
 7020 05b6 07F10803 		add	r3, r7, #8
 7021 05ba 93E80300 		ldmia	r3, {r0, r1}
 7022 05be 82E80300 		stmia	r2, {r0, r1}
 7023 05c2 1020     		movs	r0, #16
 7024 05c4 4FF4DD71 		mov	r1, #442
 7025 05c8 2A46     		mov	r2, r5
 7026 05ca 2346     		mov	r3, r4
 7027 05cc FFF7FEFF 		bl	DisplayOutputString
 7028 05d0 0346     		mov	r3, r0
 7029 05d2 1A46     		mov	r2, r3
 7030 05d4 FB69     		ldr	r3, [r7, #28]
 7031 05d6 5A80     		strh	r2, [r3, #2]	@ movhi
1565:.\DisplayBLL.c ****             puartdisp->_messagestate = PENDING;
 7032              		.loc 1 1565 0
 7033 05d8 FB69     		ldr	r3, [r7, #28]
 7034 05da C222     		movs	r2, #194
 7035 05dc 1A70     		strb	r2, [r3]
 7036              	.L242:
 7037              	.LBE79:
1566:.\DisplayBLL.c ****         }
1567:.\DisplayBLL.c ****         
1568:.\DisplayBLL.c ****         puartdisp = GetUARTMessageSlot(UART_DISPLAY2);
 7038              		.loc 1 1568 0
 7039 05de A420     		movs	r0, #164
 7040 05e0 FFF7FEFF 		bl	GetUARTMessageSlot
ARM GAS  C:\Users\RECEPC~1\AppData\Local\Temp\ccvg7Xyk.s 			page 153


 7041 05e4 F861     		str	r0, [r7, #28]
1569:.\DisplayBLL.c ****         if(puartdisp)
 7042              		.loc 1 1569 0
 7043 05e6 FB69     		ldr	r3, [r7, #28]
 7044 05e8 002B     		cmp	r3, #0
 7045 05ea 00F0C780 		beq	.L233
 7046              	.LBB80:
1570:.\DisplayBLL.c ****         {
1571:.\DisplayBLL.c ****             uint8 index = 0;
 7047              		.loc 1 1571 0
 7048 05ee 0023     		movs	r3, #0
 7049 05f0 FB76     		strb	r3, [r7, #27]
1572:.\DisplayBLL.c ****             
1573:.\DisplayBLL.c ****             //CAREFUL WITH RETURNS BETWEEN THE LOCK/UNLOCK CALLS
1574:.\DisplayBLL.c ****             //AND RECURSIVE CALLS THAT WOULD DEADLOCK!
1575:.\DisplayBLL.c ****             I2CBusLock();
 7050              		.loc 1 1575 0
 7051 05f2 FFF7FEFF 		bl	I2CBusLock
1576:.\DisplayBLL.c ****             
1577:.\DisplayBLL.c ****             ClearRtcBuffer();
 7052              		.loc 1 1577 0
 7053 05f6 FFF7FEFF 		bl	ClearRtcBuffer
1578:.\DisplayBLL.c ****             ReadRTC();                           
 7054              		.loc 1 1578 0
 7055 05fa FFF7FEFF 		bl	ReadRTC
1579:.\DisplayBLL.c ****             memset(buffer, 0x00, sizeof(buffer));            
 7056              		.loc 1 1579 0
 7057 05fe 07F11003 		add	r3, r7, #16
 7058 0602 1846     		mov	r0, r3
 7059 0604 0021     		movs	r1, #0
 7060 0606 0822     		movs	r2, #8
 7061 0608 FFF7FEFF 		bl	memset
1580:.\DisplayBLL.c ****             
1581:.\DisplayBLL.c ****             buffer[index++] = ((GetRtcBuffer()[RTC_DAY] >> 4) & 0x03) | 0x30;
 7062              		.loc 1 1581 0
 7063 060c FB7E     		ldrb	r3, [r7, #27]	@ zero_extendqisi2
 7064 060e 5A1C     		adds	r2, r3, #1
 7065 0610 FA76     		strb	r2, [r7, #27]
 7066 0612 1C46     		mov	r4, r3
 7067 0614 FFF7FEFF 		bl	GetRtcBuffer
 7068 0618 0346     		mov	r3, r0
 7069 061a 0433     		adds	r3, r3, #4
 7070 061c 1B78     		ldrb	r3, [r3]	@ zero_extendqisi2
 7071 061e 1B09     		lsrs	r3, r3, #4
 7072 0620 DBB2     		uxtb	r3, r3
 7073 0622 DBB2     		uxtb	r3, r3
 7074 0624 03F00303 		and	r3, r3, #3
 7075 0628 DBB2     		uxtb	r3, r3
 7076 062a 43F03003 		orr	r3, r3, #48
 7077 062e DBB2     		uxtb	r3, r3
 7078 0630 DAB2     		uxtb	r2, r3
 7079 0632 07F13003 		add	r3, r7, #48
 7080 0636 2344     		add	r3, r3, r4
 7081 0638 03F8202C 		strb	r2, [r3, #-32]
1582:.\DisplayBLL.c ****             buffer[index++] = (GetRtcBuffer()[RTC_DAY] & 0x0F) | 0x30;
 7082              		.loc 1 1582 0
 7083 063c FB7E     		ldrb	r3, [r7, #27]	@ zero_extendqisi2
ARM GAS  C:\Users\RECEPC~1\AppData\Local\Temp\ccvg7Xyk.s 			page 154


 7084 063e 5A1C     		adds	r2, r3, #1
 7085 0640 FA76     		strb	r2, [r7, #27]
 7086 0642 1C46     		mov	r4, r3
 7087 0644 FFF7FEFF 		bl	GetRtcBuffer
 7088 0648 0346     		mov	r3, r0
 7089 064a 0433     		adds	r3, r3, #4
 7090 064c 1B78     		ldrb	r3, [r3]	@ zero_extendqisi2
 7091 064e DBB2     		uxtb	r3, r3
 7092 0650 03F00F03 		and	r3, r3, #15
 7093 0654 DBB2     		uxtb	r3, r3
 7094 0656 43F03003 		orr	r3, r3, #48
 7095 065a DBB2     		uxtb	r3, r3
 7096 065c DAB2     		uxtb	r2, r3
 7097 065e 07F13003 		add	r3, r7, #48
 7098 0662 2344     		add	r3, r3, r4
 7099 0664 03F8202C 		strb	r2, [r3, #-32]
1583:.\DisplayBLL.c ****             buffer[index++] = 0x2F;
 7100              		.loc 1 1583 0
 7101 0668 FB7E     		ldrb	r3, [r7, #27]	@ zero_extendqisi2
 7102 066a 5A1C     		adds	r2, r3, #1
 7103 066c FA76     		strb	r2, [r7, #27]
 7104 066e 07F13002 		add	r2, r7, #48
 7105 0672 1344     		add	r3, r3, r2
 7106 0674 2F22     		movs	r2, #47
 7107 0676 03F8202C 		strb	r2, [r3, #-32]
1584:.\DisplayBLL.c ****             buffer[index++] = ((GetRtcBuffer()[RTC_MONTH] >> 4) & 0x01) | 0x30;
 7108              		.loc 1 1584 0
 7109 067a FB7E     		ldrb	r3, [r7, #27]	@ zero_extendqisi2
 7110 067c 5A1C     		adds	r2, r3, #1
 7111 067e FA76     		strb	r2, [r7, #27]
 7112 0680 1C46     		mov	r4, r3
 7113 0682 FFF7FEFF 		bl	GetRtcBuffer
 7114 0686 0346     		mov	r3, r0
 7115 0688 0533     		adds	r3, r3, #5
 7116 068a 1B78     		ldrb	r3, [r3]	@ zero_extendqisi2
 7117 068c 1B09     		lsrs	r3, r3, #4
 7118 068e DBB2     		uxtb	r3, r3
 7119 0690 DBB2     		uxtb	r3, r3
 7120 0692 03F00103 		and	r3, r3, #1
 7121 0696 DBB2     		uxtb	r3, r3
 7122 0698 43F03003 		orr	r3, r3, #48
 7123 069c DBB2     		uxtb	r3, r3
 7124 069e DAB2     		uxtb	r2, r3
 7125 06a0 07F13003 		add	r3, r7, #48
 7126 06a4 2344     		add	r3, r3, r4
 7127 06a6 03F8202C 		strb	r2, [r3, #-32]
1585:.\DisplayBLL.c ****             buffer[index++] = (GetRtcBuffer()[RTC_MONTH] & 0x0F) | 0x30;
 7128              		.loc 1 1585 0
 7129 06aa FB7E     		ldrb	r3, [r7, #27]	@ zero_extendqisi2
 7130 06ac 5A1C     		adds	r2, r3, #1
 7131 06ae FA76     		strb	r2, [r7, #27]
 7132 06b0 1C46     		mov	r4, r3
 7133 06b2 FFF7FEFF 		bl	GetRtcBuffer
 7134 06b6 0346     		mov	r3, r0
 7135 06b8 0533     		adds	r3, r3, #5
 7136 06ba 1B78     		ldrb	r3, [r3]	@ zero_extendqisi2
 7137 06bc DBB2     		uxtb	r3, r3
ARM GAS  C:\Users\RECEPC~1\AppData\Local\Temp\ccvg7Xyk.s 			page 155


 7138 06be 03F00F03 		and	r3, r3, #15
 7139 06c2 DBB2     		uxtb	r3, r3
 7140 06c4 43F03003 		orr	r3, r3, #48
 7141 06c8 DBB2     		uxtb	r3, r3
 7142 06ca DAB2     		uxtb	r2, r3
 7143 06cc 07F13003 		add	r3, r7, #48
 7144 06d0 2344     		add	r3, r3, r4
 7145 06d2 03F8202C 		strb	r2, [r3, #-32]
1586:.\DisplayBLL.c ****             buffer[index++] = 0x2F;
 7146              		.loc 1 1586 0
 7147 06d6 FB7E     		ldrb	r3, [r7, #27]	@ zero_extendqisi2
 7148 06d8 5A1C     		adds	r2, r3, #1
 7149 06da FA76     		strb	r2, [r7, #27]
 7150 06dc 07F13002 		add	r2, r7, #48
 7151 06e0 1344     		add	r3, r3, r2
 7152 06e2 2F22     		movs	r2, #47
 7153 06e4 03F8202C 		strb	r2, [r3, #-32]
1587:.\DisplayBLL.c ****             buffer[index++] = ((GetRtcBuffer()[RTC_YEAR] >> 4) & 0x0F) | 0x30;
 7154              		.loc 1 1587 0
 7155 06e8 FB7E     		ldrb	r3, [r7, #27]	@ zero_extendqisi2
 7156 06ea 5A1C     		adds	r2, r3, #1
 7157 06ec FA76     		strb	r2, [r7, #27]
 7158 06ee 1C46     		mov	r4, r3
 7159 06f0 FFF7FEFF 		bl	GetRtcBuffer
 7160 06f4 0346     		mov	r3, r0
 7161 06f6 0633     		adds	r3, r3, #6
 7162 06f8 1B78     		ldrb	r3, [r3]	@ zero_extendqisi2
 7163 06fa 1B09     		lsrs	r3, r3, #4
 7164 06fc DBB2     		uxtb	r3, r3
 7165 06fe DBB2     		uxtb	r3, r3
 7166 0700 43F03003 		orr	r3, r3, #48
 7167 0704 DBB2     		uxtb	r3, r3
 7168 0706 DAB2     		uxtb	r2, r3
 7169 0708 07F13003 		add	r3, r7, #48
 7170 070c 2344     		add	r3, r3, r4
 7171 070e 03F8202C 		strb	r2, [r3, #-32]
1588:.\DisplayBLL.c ****             buffer[index++] = (GetRtcBuffer()[RTC_YEAR] & 0x0F) | 0x30;
 7172              		.loc 1 1588 0
 7173 0712 FB7E     		ldrb	r3, [r7, #27]	@ zero_extendqisi2
 7174 0714 5A1C     		adds	r2, r3, #1
 7175 0716 FA76     		strb	r2, [r7, #27]
 7176 0718 1C46     		mov	r4, r3
 7177 071a FFF7FEFF 		bl	GetRtcBuffer
 7178 071e 0346     		mov	r3, r0
 7179 0720 0633     		adds	r3, r3, #6
 7180 0722 1B78     		ldrb	r3, [r3]	@ zero_extendqisi2
 7181 0724 DBB2     		uxtb	r3, r3
 7182 0726 03F00F03 		and	r3, r3, #15
 7183 072a DBB2     		uxtb	r3, r3
 7184 072c 43F03003 		orr	r3, r3, #48
 7185 0730 DBB2     		uxtb	r3, r3
 7186 0732 DAB2     		uxtb	r2, r3
 7187 0734 07F13003 		add	r3, r7, #48
 7188 0738 2344     		add	r3, r3, r4
 7189 073a 03F8202C 		strb	r2, [r3, #-32]
1589:.\DisplayBLL.c **** 
1590:.\DisplayBLL.c ****             I2CBusUnlock();            
ARM GAS  C:\Users\RECEPC~1\AppData\Local\Temp\ccvg7Xyk.s 			page 156


 7190              		.loc 1 1590 0
 7191 073e FFF7FEFF 		bl	I2CBusUnlock
1591:.\DisplayBLL.c ****             
1592:.\DisplayBLL.c ****             puartdisp->_messagelength = DisplayOutputString(0x210, 0x1BA, puartdisp->_messagetx, bu
 7192              		.loc 1 1592 0
 7193 0742 FB69     		ldr	r3, [r7, #28]
 7194 0744 1D1D     		adds	r5, r3, #4
 7195 0746 FB7E     		ldrb	r3, [r7, #27]	@ zero_extendqisi2
 7196 0748 9BB2     		uxth	r3, r3
 7197 074a 07F11004 		add	r4, r7, #16
 7198 074e 0093     		str	r3, [sp]
 7199 0750 01AA     		add	r2, sp, #4
 7200 0752 07F10803 		add	r3, r7, #8
 7201 0756 93E80300 		ldmia	r3, {r0, r1}
 7202 075a 82E80300 		stmia	r2, {r0, r1}
 7203 075e 4FF40470 		mov	r0, #528
 7204 0762 4FF4DD71 		mov	r1, #442
 7205 0766 2A46     		mov	r2, r5
 7206 0768 2346     		mov	r3, r4
 7207 076a FFF7FEFF 		bl	DisplayOutputString
 7208 076e 0346     		mov	r3, r0
 7209 0770 1A46     		mov	r2, r3
 7210 0772 FB69     		ldr	r3, [r7, #28]
 7211 0774 5A80     		strh	r2, [r3, #2]	@ movhi
1593:.\DisplayBLL.c ****             puartdisp->_messagestate = PENDING;
 7212              		.loc 1 1593 0
 7213 0776 FB69     		ldr	r3, [r7, #28]
 7214 0778 C222     		movs	r2, #194
 7215 077a 1A70     		strb	r2, [r3]
 7216              	.L233:
 7217              	.LBE80:
 7218              	.LBE78:
1594:.\DisplayBLL.c ****         }
1595:.\DisplayBLL.c ****     }
1596:.\DisplayBLL.c **** }
 7219              		.loc 1 1596 0
 7220 077c 3037     		adds	r7, r7, #48
 7221              		.cfi_def_cfa_offset 16
 7222 077e BD46     		mov	sp, r7
 7223              		.cfi_def_cfa_register 13
 7224              		@ sp needed
 7225 0780 B0BD     		pop	{r4, r5, r7, pc}
 7226              	.L250:
 7227 0782 00BF     		.align	2
 7228              	.L249:
 7229 0784 00000000 		.word	_g_homeanimarray
 7230              		.cfi_endproc
 7231              	.LFE94:
 7232              		.size	DrawHomeDateTime, .-DrawHomeDateTime
 7233              		.section	.rodata
 7234              		.align	2
 7235              	.LC18:
 7236 0158 4D555820 		.ascii	"MUX Ver. 17\000"
 7236      5665722E 
 7236      20313700 
 7237              		.align	2
 7238              	.LC19:
ARM GAS  C:\Users\RECEPC~1\AppData\Local\Temp\ccvg7Xyk.s 			page 157


 7239 0164 496D7072 		.ascii	"Imprimiendo, por favor espere...\000"
 7239      696D6965 
 7239      6E646F2C 
 7239      20706F72 
 7239      20666176 
 7240 0185 000000   		.align	2
 7241              	.LC20:
 7242 0188 3C3C2A2A 		.ascii	"<<** LAZO DE CORRIENTE ABIERTO! **>>\000"
 7242      204C415A 
 7242      4F204445 
 7242      20434F52 
 7242      5249454E 
 7243 01ad 000000   		.align	2
 7244              	.LC21:
 7245 01b0 436F6E66 		.ascii	"Configurando, por favor espere.....\000"
 7245      69677572 
 7245      616E646F 
 7245      2C20706F 
 7245      72206661 
 7246              		.align	2
 7247              	.LC23:
 7248 01d4 57656C63 		.ascii	"Welcome to INSEPET GVR PRIME/ENCORE DUPLA!   \000"
 7248      6F6D6520 
 7248      746F2049 
 7248      4E534550 
 7248      45542047 
 7249 0202 0000     		.align	2
 7250              	.LC7:
 7251 0204 AA       		.byte	-86
 7252 0205 40       		.byte	64
 7253 0206 00       		.byte	0
 7254 0207 1F       		.byte	31
 7255 0208 FF       		.byte	-1
 7256 0209 FF       		.byte	-1
 7257 020a CC       		.byte	-52
 7258 020b 33       		.byte	51
 7259 020c C3       		.byte	-61
 7260 020d 3C       		.byte	60
 7261 020e 0000     		.align	2
 7262              	.LC8:
 7263 0210 AA       		.byte	-86
 7264 0211 40       		.byte	64
 7265 0212 F8       		.byte	-8
 7266 0213 00       		.byte	0
 7267 0214 FF       		.byte	-1
 7268 0215 FF       		.byte	-1
 7269 0216 CC       		.byte	-52
 7270 0217 33       		.byte	51
 7271 0218 C3       		.byte	-61
 7272 0219 3C       		.byte	60
 7273 021a 0000     		.align	2
 7274              	.LC9:
 7275 021c AA       		.byte	-86
 7276 021d 5B       		.byte	91
 7277 021e 02       		.byte	2
 7278 021f 50       		.byte	80
 7279 0220 01       		.byte	1
ARM GAS  C:\Users\RECEPC~1\AppData\Local\Temp\ccvg7Xyk.s 			page 158


 7280 0221 70       		.byte	112
 7281 0222 02       		.byte	2
 7282 0223 70       		.byte	112
 7283 0224 01       		.byte	1
 7284 0225 90       		.byte	-112
 7285 0226 CC       		.byte	-52
 7286 0227 33       		.byte	51
 7287 0228 C3       		.byte	-61
 7288 0229 3C       		.byte	60
 7289 022a 0000     		.align	2
 7290              	.LC10:
 7291 022c AA       		.byte	-86
 7292 022d 5B       		.byte	91
 7293 022e 00       		.byte	0
 7294 022f 10       		.byte	16
 7295 0230 01       		.byte	1
 7296 0231 70       		.byte	112
 7297 0232 00       		.byte	0
 7298 0233 30       		.byte	48
 7299 0234 01       		.byte	1
 7300 0235 90       		.byte	-112
 7301 0236 CC       		.byte	-52
 7302 0237 33       		.byte	51
 7303 0238 C3       		.byte	-61
 7304 0239 3C       		.byte	60
 7305 023a 0000     		.align	2
 7306              	.LC22:
 7307 023c 57656C63 		.ascii	"Welcome to INSEPET GVR PRIME QUATTRO!  \000"
 7307      6F6D6520 
 7307      746F2049 
 7307      4E534550 
 7307      45542047 
 7308              		.section	.text.DisplayUpdateHomeAnimation,"ax",%progbits
 7309              		.align	2
 7310              		.global	DisplayUpdateHomeAnimation
 7311              		.thumb
 7312              		.thumb_func
 7313              		.type	DisplayUpdateHomeAnimation, %function
 7314              	DisplayUpdateHomeAnimation:
 7315              	.LFB95:
1597:.\DisplayBLL.c **** 
1598:.\DisplayBLL.c **** void DisplayUpdateHomeAnimation(void *pparam)
1599:.\DisplayBLL.c **** {    
 7316              		.loc 1 1599 0
 7317              		.cfi_startproc
 7318              		@ args = 0, pretend = 0, frame = 336
 7319              		@ frame_needed = 1, uses_anonymous_args = 0
 7320 0000 B0B5     		push	{r4, r5, r7, lr}
 7321              		.cfi_def_cfa_offset 16
 7322              		.cfi_offset 4, -16
 7323              		.cfi_offset 5, -12
 7324              		.cfi_offset 7, -8
 7325              		.cfi_offset 14, -4
 7326 0002 D8B0     		sub	sp, sp, #352
 7327              		.cfi_def_cfa_offset 368
 7328 0004 04AF     		add	r7, sp, #16
 7329              		.cfi_def_cfa 7, 352
ARM GAS  C:\Users\RECEPC~1\AppData\Local\Temp\ccvg7Xyk.s 			page 159


 7330 0006 3B1D     		adds	r3, r7, #4
 7331 0008 1860     		str	r0, [r3]
1600:.\DisplayBLL.c ****     char8 buffer[2];
1601:.\DisplayBLL.c ****     FontData fontdata;
1602:.\DisplayBLL.c ****     fontdata._size = 0x04;
 7332              		.loc 1 1602 0
 7333 000a 0423     		movs	r3, #4
 7334 000c 87F81031 		strb	r3, [r7, #272]
1603:.\DisplayBLL.c ****     fontdata._backcolor = 0xFFFF;
 7335              		.loc 1 1603 0
 7336 0010 4FF6FF73 		movw	r3, #65535
 7337 0014 A7F81431 		strh	r3, [r7, #276]	@ movhi
1604:.\DisplayBLL.c ****     fontdata._forecolor = 0x0000;
 7338              		.loc 1 1604 0
 7339 0018 0023     		movs	r3, #0
 7340 001a A7F81631 		strh	r3, [r7, #278]	@ movhi
1605:.\DisplayBLL.c ****     fontdata._opaquebackground = DISP_TEXT_OPAQUE;
 7341              		.loc 1 1605 0
 7342 001e C523     		movs	r3, #197
 7343 0020 87F81231 		strb	r3, [r7, #274]
1606:.\DisplayBLL.c ****     PSINKMESSAGEPTR psinkmsg = (PSINKMESSAGEPTR)pparam;
 7344              		.loc 1 1606 0
 7345 0024 3B1D     		adds	r3, r7, #4
 7346 0026 1B68     		ldr	r3, [r3]
 7347 0028 C7F84C31 		str	r3, [r7, #332]
1607:.\DisplayBLL.c ****     PDISPLAYLAYOUTPTR pdisplay = (PDISPLAYLAYOUTPTR)psinkmsg->_pdata;
 7348              		.loc 1 1607 0
 7349 002c D7F84C31 		ldr	r3, [r7, #332]
 7350 0030 D3F89031 		ldr	r3, [r3, #400]
 7351 0034 C7F84831 		str	r3, [r7, #328]
1608:.\DisplayBLL.c ****     if(pdisplay->_dispid == DISPLAY1 && ((PDISPLAYFLOWPTR)pdisplay->_pcurrflow)->_scrid == DISPLAY_
 7352              		.loc 1 1608 0
 7353 0038 D7F84831 		ldr	r3, [r7, #328]
 7354 003c 1B78     		ldrb	r3, [r3]	@ zero_extendqisi2
 7355 003e 002B     		cmp	r3, #0
 7356 0040 40F04783 		bne	.L252
 7357              		.loc 1 1608 0 is_stmt 0 discriminator 1
 7358 0044 D7F84831 		ldr	r3, [r7, #328]
 7359 0048 1B69     		ldr	r3, [r3, #16]
 7360 004a 1B78     		ldrb	r3, [r3]	@ zero_extendqisi2
 7361 004c 012B     		cmp	r3, #1
 7362 004e 40F04083 		bne	.L252
 7363              	.LBB81:
1609:.\DisplayBLL.c ****     {
1610:.\DisplayBLL.c ****         UARTMessage *puartdisp = GetUARTMessageSlot(UART_DISPLAY1);
 7364              		.loc 1 1610 0 is_stmt 1
 7365 0052 A320     		movs	r0, #163
 7366 0054 FFF7FEFF 		bl	GetUARTMessageSlot
 7367 0058 C7F84401 		str	r0, [r7, #324]
1611:.\DisplayBLL.c ****         if(puartdisp)
 7368              		.loc 1 1611 0
 7369 005c D7F84431 		ldr	r3, [r7, #324]
 7370 0060 002B     		cmp	r3, #0
 7371 0062 30D0     		beq	.L253
1612:.\DisplayBLL.c ****         {
1613:.\DisplayBLL.c ****             buffer[0] = _g_homeanimarray[DISPLAY1]._g_homeanimation[_g_homeanimarray[DISPLAY1]._cur
 7372              		.loc 1 1613 0
ARM GAS  C:\Users\RECEPC~1\AppData\Local\Temp\ccvg7Xyk.s 			page 160


 7373 0064 914B     		ldr	r3, .L305
 7374 0066 1B78     		ldrb	r3, [r3]	@ zero_extendqisi2
 7375 0068 5A1C     		adds	r2, r3, #1
 7376 006a D1B2     		uxtb	r1, r2
 7377 006c 8F4A     		ldr	r2, .L305
 7378 006e 1170     		strb	r1, [r2]
 7379 0070 1A46     		mov	r2, r3
 7380 0072 8E4B     		ldr	r3, .L305
 7381 0074 1344     		add	r3, r3, r2
 7382 0076 DB78     		ldrb	r3, [r3, #3]	@ zero_extendqisi2
 7383 0078 87F81831 		strb	r3, [r7, #280]
1614:.\DisplayBLL.c ****             if(_g_homeanimarray[DISPLAY1]._currindex >= sizeof(_g_homeanimarray[DISPLAY1]._g_homean
 7384              		.loc 1 1614 0
 7385 007c 8B4B     		ldr	r3, .L305
 7386 007e 1B78     		ldrb	r3, [r3]	@ zero_extendqisi2
 7387 0080 032B     		cmp	r3, #3
 7388 0082 02D9     		bls	.L254
1615:.\DisplayBLL.c ****                 _g_homeanimarray[DISPLAY1]._currindex = 0x00;
 7389              		.loc 1 1615 0
 7390 0084 894B     		ldr	r3, .L305
 7391 0086 0022     		movs	r2, #0
 7392 0088 1A70     		strb	r2, [r3]
 7393              	.L254:
1616:.\DisplayBLL.c ****             
1617:.\DisplayBLL.c ****             puartdisp->_messagelength = DisplayOutputString(0x250, 0x012, puartdisp->_messagetx, bu
 7394              		.loc 1 1617 0
 7395 008a D7F84431 		ldr	r3, [r7, #324]
 7396 008e 1D1D     		adds	r5, r3, #4
 7397 0090 07F58C74 		add	r4, r7, #280
 7398 0094 0123     		movs	r3, #1
 7399 0096 0093     		str	r3, [sp]
 7400 0098 01AA     		add	r2, sp, #4
 7401 009a 07F58873 		add	r3, r7, #272
 7402 009e 93E80300 		ldmia	r3, {r0, r1}
 7403 00a2 82E80300 		stmia	r2, {r0, r1}
 7404 00a6 4FF41470 		mov	r0, #592
 7405 00aa 1221     		movs	r1, #18
 7406 00ac 2A46     		mov	r2, r5
 7407 00ae 2346     		mov	r3, r4
 7408 00b0 FFF7FEFF 		bl	DisplayOutputString
 7409 00b4 0346     		mov	r3, r0
 7410 00b6 1A46     		mov	r2, r3
 7411 00b8 D7F84431 		ldr	r3, [r7, #324]
 7412 00bc 5A80     		strh	r2, [r3, #2]	@ movhi
1618:.\DisplayBLL.c ****             puartdisp->_messagestate = PENDING;
 7413              		.loc 1 1618 0
 7414 00be D7F84431 		ldr	r3, [r7, #324]
 7415 00c2 C222     		movs	r2, #194
 7416 00c4 1A70     		strb	r2, [r3]
 7417              	.L253:
1619:.\DisplayBLL.c ****         }
1620:.\DisplayBLL.c **** 
1621:.\DisplayBLL.c ****         uint8 pumpavstates[0x02];
1622:.\DisplayBLL.c ****         memset(pumpavstates, 0x00, 0x02);
 7418              		.loc 1 1622 0
 7419 00c6 07F58673 		add	r3, r7, #268
 7420 00ca 1846     		mov	r0, r3
ARM GAS  C:\Users\RECEPC~1\AppData\Local\Temp\ccvg7Xyk.s 			page 161


 7421 00cc 0021     		movs	r1, #0
 7422 00ce 0222     		movs	r2, #2
 7423 00d0 FFF7FEFF 		bl	memset
1623:.\DisplayBLL.c ****         GetPumpsAvailability(pdisplay, pumpavstates);
 7424              		.loc 1 1623 0
 7425 00d4 07F58673 		add	r3, r7, #268
 7426 00d8 D7F84801 		ldr	r0, [r7, #328]
 7427 00dc 1946     		mov	r1, r3
 7428 00de FFF7FEFF 		bl	GetPumpsAvailability
1624:.\DisplayBLL.c **** 
1625:.\DisplayBLL.c ****         bool pumpsprintstate[0x02];
1626:.\DisplayBLL.c ****         GetPumpsPrintState(pdisplay, pumpsprintstate);
 7429              		.loc 1 1626 0
 7430 00e2 07F58473 		add	r3, r7, #264
 7431 00e6 D7F84801 		ldr	r0, [r7, #328]
 7432 00ea 1946     		mov	r1, r3
 7433 00ec FFF7FEFF 		bl	GetPumpsPrintState
1627:.\DisplayBLL.c ****         
1628:.\DisplayBLL.c ****         //On-Display witness to alert about pending or in-execution operations on the pump
1629:.\DisplayBLL.c ****         if(!pumpavstates[0x01])
 7434              		.loc 1 1629 0
 7435 00f0 97F80D31 		ldrb	r3, [r7, #269]	@ zero_extendqisi2
 7436 00f4 002B     		cmp	r3, #0
 7437 00f6 44D1     		bne	.L255
1630:.\DisplayBLL.c ****         {
1631:.\DisplayBLL.c ****             puartdisp = GetUARTMessageSlot(UART_DISPLAY1);
 7438              		.loc 1 1631 0
 7439 00f8 A320     		movs	r0, #163
 7440 00fa FFF7FEFF 		bl	GetUARTMessageSlot
 7441 00fe C7F84401 		str	r0, [r7, #324]
1632:.\DisplayBLL.c ****             if(puartdisp)
 7442              		.loc 1 1632 0
 7443 0102 D7F84431 		ldr	r3, [r7, #324]
 7444 0106 002B     		cmp	r3, #0
 7445 0108 5FD0     		beq	.L258
1633:.\DisplayBLL.c ****             {
1634:.\DisplayBLL.c ****                 //SET FC BC COLORS (BLUE) IF PRINT HAS BEEN REQUESTED
1635:.\DisplayBLL.c ****                 if(pumpsprintstate[0x01])
 7446              		.loc 1 1635 0
 7447 010a 97F80931 		ldrb	r3, [r7, #265]	@ zero_extendqisi2
 7448 010e 002B     		cmp	r3, #0
 7449 0110 1BD0     		beq	.L257
 7450              	.LBB82:
1636:.\DisplayBLL.c ****                 {
1637:.\DisplayBLL.c ****                     uint8 buff[] = { 0xAA, 0x40, 0x00, 0x1F, 0xFF, 0xFF, 0xCC, 0x33, 0xC3, 0x3C };
 7451              		.loc 1 1637 0
 7452 0112 674A     		ldr	r2, .L305+4
 7453 0114 07F1FC03 		add	r3, r7, #252
 7454 0118 1068     		ldr	r0, [r2]	@ unaligned
 7455 011a 5168     		ldr	r1, [r2, #4]	@ unaligned
 7456 011c 03C3     		stmia	r3!, {r0, r1}
 7457 011e 1289     		ldrh	r2, [r2, #8]	@ unaligned
 7458 0120 1A80     		strh	r2, [r3]	@ unaligned
1638:.\DisplayBLL.c ****                     memcpy(puartdisp->_messagetx, buff, sizeof(buff));
 7459              		.loc 1 1638 0
 7460 0122 D7F84431 		ldr	r3, [r7, #324]
 7461 0126 0433     		adds	r3, r3, #4
ARM GAS  C:\Users\RECEPC~1\AppData\Local\Temp\ccvg7Xyk.s 			page 162


 7462 0128 1A46     		mov	r2, r3
 7463 012a 07F1FC03 		add	r3, r7, #252
 7464 012e 03CB     		ldmia	r3!, {r0, r1}
 7465 0130 1060     		str	r0, [r2]	@ unaligned
 7466 0132 5160     		str	r1, [r2, #4]	@ unaligned
 7467 0134 1B88     		ldrh	r3, [r3]	@ unaligned
 7468 0136 1381     		strh	r3, [r2, #8]	@ unaligned
1639:.\DisplayBLL.c ****                     puartdisp->_messagelength = sizeof(buff);
 7469              		.loc 1 1639 0
 7470 0138 D7F84431 		ldr	r3, [r7, #324]
 7471 013c 0A22     		movs	r2, #10
 7472 013e 5A80     		strh	r2, [r3, #2]	@ movhi
1640:.\DisplayBLL.c ****                     puartdisp->_messagestate = PENDING;
 7473              		.loc 1 1640 0
 7474 0140 D7F84431 		ldr	r3, [r7, #324]
 7475 0144 C222     		movs	r2, #194
 7476 0146 1A70     		strb	r2, [r3]
 7477              	.LBE82:
 7478 0148 3FE0     		b	.L258
 7479              	.L257:
 7480              	.LBB83:
1641:.\DisplayBLL.c ****                 }
1642:.\DisplayBLL.c ****                 else
1643:.\DisplayBLL.c ****                 {
1644:.\DisplayBLL.c ****                     uint8 buff[] = { 0xAA, 0x40, 0xF8, 0x00, 0xFF, 0xFF, 0xCC, 0x33, 0xC3, 0x3C };
 7481              		.loc 1 1644 0 discriminator 2
 7482 014a 5A4A     		ldr	r2, .L305+8
 7483 014c 07F1F003 		add	r3, r7, #240
 7484 0150 1068     		ldr	r0, [r2]	@ unaligned
 7485 0152 5168     		ldr	r1, [r2, #4]	@ unaligned
 7486 0154 03C3     		stmia	r3!, {r0, r1}
 7487 0156 1289     		ldrh	r2, [r2, #8]	@ unaligned
 7488 0158 1A80     		strh	r2, [r3]	@ unaligned
1645:.\DisplayBLL.c ****                     memcpy(puartdisp->_messagetx, buff, sizeof(buff));
 7489              		.loc 1 1645 0 discriminator 2
 7490 015a D7F84431 		ldr	r3, [r7, #324]
 7491 015e 0433     		adds	r3, r3, #4
 7492 0160 1A46     		mov	r2, r3
 7493 0162 07F1F003 		add	r3, r7, #240
 7494 0166 03CB     		ldmia	r3!, {r0, r1}
 7495 0168 1060     		str	r0, [r2]	@ unaligned
 7496 016a 5160     		str	r1, [r2, #4]	@ unaligned
 7497 016c 1B88     		ldrh	r3, [r3]	@ unaligned
 7498 016e 1381     		strh	r3, [r2, #8]	@ unaligned
1646:.\DisplayBLL.c ****                     puartdisp->_messagelength = sizeof(buff);
 7499              		.loc 1 1646 0 discriminator 2
 7500 0170 D7F84431 		ldr	r3, [r7, #324]
 7501 0174 0A22     		movs	r2, #10
 7502 0176 5A80     		strh	r2, [r3, #2]	@ movhi
1647:.\DisplayBLL.c ****                     puartdisp->_messagestate = PENDING;
 7503              		.loc 1 1647 0 discriminator 2
 7504 0178 D7F84431 		ldr	r3, [r7, #324]
 7505 017c C222     		movs	r2, #194
 7506 017e 1A70     		strb	r2, [r3]
 7507 0180 23E0     		b	.L258
 7508              	.L255:
 7509              	.LBE83:
ARM GAS  C:\Users\RECEPC~1\AppData\Local\Temp\ccvg7Xyk.s 			page 163


1648:.\DisplayBLL.c ****                 }
1649:.\DisplayBLL.c ****             }
1650:.\DisplayBLL.c ****         }
1651:.\DisplayBLL.c ****         else
1652:.\DisplayBLL.c ****         {
1653:.\DisplayBLL.c ****             puartdisp = GetUARTMessageSlot(UART_DISPLAY1);
 7510              		.loc 1 1653 0
 7511 0182 A320     		movs	r0, #163
 7512 0184 FFF7FEFF 		bl	GetUARTMessageSlot
 7513 0188 C7F84401 		str	r0, [r7, #324]
1654:.\DisplayBLL.c ****             if(puartdisp)
 7514              		.loc 1 1654 0
 7515 018c D7F84431 		ldr	r3, [r7, #324]
 7516 0190 002B     		cmp	r3, #0
 7517 0192 1AD0     		beq	.L258
 7518              	.LBB84:
1655:.\DisplayBLL.c ****             {
1656:.\DisplayBLL.c ****                 //SET FC BC COLORS (WHITE)
1657:.\DisplayBLL.c ****                 uint8 buff[] = { 0xAA, 0x40, 0xFF, 0xFF, 0xFF, 0xFF, 0xCC, 0x33, 0xC3, 0x3C };
 7519              		.loc 1 1657 0
 7520 0194 484A     		ldr	r2, .L305+12
 7521 0196 07F1E403 		add	r3, r7, #228
 7522 019a 1068     		ldr	r0, [r2]	@ unaligned
 7523 019c 5168     		ldr	r1, [r2, #4]	@ unaligned
 7524 019e 03C3     		stmia	r3!, {r0, r1}
 7525 01a0 1289     		ldrh	r2, [r2, #8]	@ unaligned
 7526 01a2 1A80     		strh	r2, [r3]	@ unaligned
1658:.\DisplayBLL.c ****                 memcpy(puartdisp->_messagetx, buff, sizeof(buff));
 7527              		.loc 1 1658 0
 7528 01a4 D7F84431 		ldr	r3, [r7, #324]
 7529 01a8 0433     		adds	r3, r3, #4
 7530 01aa 1A46     		mov	r2, r3
 7531 01ac 07F1E403 		add	r3, r7, #228
 7532 01b0 03CB     		ldmia	r3!, {r0, r1}
 7533 01b2 1060     		str	r0, [r2]	@ unaligned
 7534 01b4 5160     		str	r1, [r2, #4]	@ unaligned
 7535 01b6 1B88     		ldrh	r3, [r3]	@ unaligned
 7536 01b8 1381     		strh	r3, [r2, #8]	@ unaligned
1659:.\DisplayBLL.c ****                 puartdisp->_messagelength = sizeof(buff);
 7537              		.loc 1 1659 0
 7538 01ba D7F84431 		ldr	r3, [r7, #324]
 7539 01be 0A22     		movs	r2, #10
 7540 01c0 5A80     		strh	r2, [r3, #2]	@ movhi
1660:.\DisplayBLL.c ****                 puartdisp->_messagestate = PENDING;
 7541              		.loc 1 1660 0
 7542 01c2 D7F84431 		ldr	r3, [r7, #324]
 7543 01c6 C222     		movs	r2, #194
 7544 01c8 1A70     		strb	r2, [r3]
 7545              	.L258:
 7546              	.LBE84:
1661:.\DisplayBLL.c ****             }
1662:.\DisplayBLL.c ****         }
1663:.\DisplayBLL.c ****             
1664:.\DisplayBLL.c ****         puartdisp = GetUARTMessageSlot(UART_DISPLAY1);
 7547              		.loc 1 1664 0
 7548 01ca A320     		movs	r0, #163
 7549 01cc FFF7FEFF 		bl	GetUARTMessageSlot
ARM GAS  C:\Users\RECEPC~1\AppData\Local\Temp\ccvg7Xyk.s 			page 164


 7550 01d0 C7F84401 		str	r0, [r7, #324]
1665:.\DisplayBLL.c ****         if(puartdisp)
 7551              		.loc 1 1665 0
 7552 01d4 D7F84431 		ldr	r3, [r7, #324]
 7553 01d8 002B     		cmp	r3, #0
 7554 01da 1DD0     		beq	.L259
 7555              	.LBB85:
1666:.\DisplayBLL.c ****         {
1667:.\DisplayBLL.c ****             uint8 buff[] = { 0xAA, 0x5B, 0x02, 0x50, 0x01, 0x70, 0x02, 0x70, 0x01, 0x90, 0xCC, 0x33
 7556              		.loc 1 1667 0
 7557 01dc 374A     		ldr	r2, .L305+16
 7558 01de 07F1D403 		add	r3, r7, #212
 7559 01e2 1446     		mov	r4, r2
 7560 01e4 2068     		ldr	r0, [r4]	@ unaligned
 7561 01e6 6168     		ldr	r1, [r4, #4]	@ unaligned
 7562 01e8 A268     		ldr	r2, [r4, #8]	@ unaligned
 7563 01ea 07C3     		stmia	r3!, {r0, r1, r2}
 7564 01ec A289     		ldrh	r2, [r4, #12]	@ unaligned
 7565 01ee 1A80     		strh	r2, [r3]	@ unaligned
1668:.\DisplayBLL.c ****             memcpy(puartdisp->_messagetx, buff, sizeof(buff));
 7566              		.loc 1 1668 0
 7567 01f0 D7F84431 		ldr	r3, [r7, #324]
 7568 01f4 0433     		adds	r3, r3, #4
 7569 01f6 1C46     		mov	r4, r3
 7570 01f8 07F1D403 		add	r3, r7, #212
 7571 01fc 07CB     		ldmia	r3!, {r0, r1, r2}
 7572 01fe 2060     		str	r0, [r4]	@ unaligned
 7573 0200 6160     		str	r1, [r4, #4]	@ unaligned
 7574 0202 A260     		str	r2, [r4, #8]	@ unaligned
 7575 0204 1B88     		ldrh	r3, [r3]	@ unaligned
 7576 0206 A381     		strh	r3, [r4, #12]	@ unaligned
1669:.\DisplayBLL.c ****             puartdisp->_messagelength = sizeof(buff);
 7577              		.loc 1 1669 0
 7578 0208 D7F84431 		ldr	r3, [r7, #324]
 7579 020c 0E22     		movs	r2, #14
 7580 020e 5A80     		strh	r2, [r3, #2]	@ movhi
1670:.\DisplayBLL.c ****             puartdisp->_messagestate = PENDING;
 7581              		.loc 1 1670 0
 7582 0210 D7F84431 		ldr	r3, [r7, #324]
 7583 0214 C222     		movs	r2, #194
 7584 0216 1A70     		strb	r2, [r3]
 7585              	.L259:
 7586              	.LBE85:
1671:.\DisplayBLL.c ****         }
1672:.\DisplayBLL.c **** 
1673:.\DisplayBLL.c ****         //On-Display witness to alert about pending or in-execution operations on the pump
1674:.\DisplayBLL.c ****         if(!pumpavstates[0x00])
 7587              		.loc 1 1674 0
 7588 0218 97F80C31 		ldrb	r3, [r7, #268]	@ zero_extendqisi2
 7589 021c 002B     		cmp	r3, #0
 7590 021e 4FD1     		bne	.L260
1675:.\DisplayBLL.c ****         {
1676:.\DisplayBLL.c ****             puartdisp = GetUARTMessageSlot(UART_DISPLAY1);
 7591              		.loc 1 1676 0
 7592 0220 A320     		movs	r0, #163
 7593 0222 FFF7FEFF 		bl	GetUARTMessageSlot
 7594 0226 C7F84401 		str	r0, [r7, #324]
ARM GAS  C:\Users\RECEPC~1\AppData\Local\Temp\ccvg7Xyk.s 			page 165


1677:.\DisplayBLL.c ****             if(puartdisp)
 7595              		.loc 1 1677 0
 7596 022a D7F84431 		ldr	r3, [r7, #324]
 7597 022e 002B     		cmp	r3, #0
 7598 0230 6AD0     		beq	.L263
1678:.\DisplayBLL.c ****             {
1679:.\DisplayBLL.c ****                 //SET FC BC COLORS (BLUE) IF PRINT HAS BEEN REQUESTED
1680:.\DisplayBLL.c ****                 if(pumpsprintstate[0x00])
 7599              		.loc 1 1680 0
 7600 0232 97F80831 		ldrb	r3, [r7, #264]	@ zero_extendqisi2
 7601 0236 002B     		cmp	r3, #0
 7602 0238 1BD0     		beq	.L262
 7603              	.LBB86:
1681:.\DisplayBLL.c ****                 {
1682:.\DisplayBLL.c ****                     uint8 buff[] = { 0xAA, 0x40, 0x00, 0x1F, 0xFF, 0xFF, 0xCC, 0x33, 0xC3, 0x3C };
 7604              		.loc 1 1682 0
 7605 023a 1D4A     		ldr	r2, .L305+4
 7606 023c 07F1C803 		add	r3, r7, #200
 7607 0240 1068     		ldr	r0, [r2]	@ unaligned
 7608 0242 5168     		ldr	r1, [r2, #4]	@ unaligned
 7609 0244 03C3     		stmia	r3!, {r0, r1}
 7610 0246 1289     		ldrh	r2, [r2, #8]	@ unaligned
 7611 0248 1A80     		strh	r2, [r3]	@ unaligned
1683:.\DisplayBLL.c ****                     memcpy(puartdisp->_messagetx, buff, sizeof(buff));
 7612              		.loc 1 1683 0
 7613 024a D7F84431 		ldr	r3, [r7, #324]
 7614 024e 0433     		adds	r3, r3, #4
 7615 0250 1A46     		mov	r2, r3
 7616 0252 07F1C803 		add	r3, r7, #200
 7617 0256 03CB     		ldmia	r3!, {r0, r1}
 7618 0258 1060     		str	r0, [r2]	@ unaligned
 7619 025a 5160     		str	r1, [r2, #4]	@ unaligned
 7620 025c 1B88     		ldrh	r3, [r3]	@ unaligned
 7621 025e 1381     		strh	r3, [r2, #8]	@ unaligned
1684:.\DisplayBLL.c ****                     puartdisp->_messagelength = sizeof(buff);
 7622              		.loc 1 1684 0
 7623 0260 D7F84431 		ldr	r3, [r7, #324]
 7624 0264 0A22     		movs	r2, #10
 7625 0266 5A80     		strh	r2, [r3, #2]	@ movhi
1685:.\DisplayBLL.c ****                     puartdisp->_messagestate = PENDING;
 7626              		.loc 1 1685 0
 7627 0268 D7F84431 		ldr	r3, [r7, #324]
 7628 026c C222     		movs	r2, #194
 7629 026e 1A70     		strb	r2, [r3]
 7630              	.LBE86:
 7631 0270 4AE0     		b	.L263
 7632              	.L262:
 7633              	.LBB87:
1686:.\DisplayBLL.c ****                 }
1687:.\DisplayBLL.c ****                 else
1688:.\DisplayBLL.c ****                 {
1689:.\DisplayBLL.c ****                     uint8 buff[] = { 0xAA, 0x40, 0xF8, 0x00, 0xFF, 0xFF, 0xCC, 0x33, 0xC3, 0x3C };
 7634              		.loc 1 1689 0 discriminator 4
 7635 0272 104A     		ldr	r2, .L305+8
 7636 0274 07F1BC03 		add	r3, r7, #188
 7637 0278 1068     		ldr	r0, [r2]	@ unaligned
 7638 027a 5168     		ldr	r1, [r2, #4]	@ unaligned
ARM GAS  C:\Users\RECEPC~1\AppData\Local\Temp\ccvg7Xyk.s 			page 166


 7639 027c 03C3     		stmia	r3!, {r0, r1}
 7640 027e 1289     		ldrh	r2, [r2, #8]	@ unaligned
 7641 0280 1A80     		strh	r2, [r3]	@ unaligned
1690:.\DisplayBLL.c ****                     memcpy(puartdisp->_messagetx, buff, sizeof(buff));
 7642              		.loc 1 1690 0 discriminator 4
 7643 0282 D7F84431 		ldr	r3, [r7, #324]
 7644 0286 0433     		adds	r3, r3, #4
 7645 0288 1A46     		mov	r2, r3
 7646 028a 07F1BC03 		add	r3, r7, #188
 7647 028e 03CB     		ldmia	r3!, {r0, r1}
 7648 0290 1060     		str	r0, [r2]	@ unaligned
 7649 0292 5160     		str	r1, [r2, #4]	@ unaligned
 7650 0294 1B88     		ldrh	r3, [r3]	@ unaligned
 7651 0296 1381     		strh	r3, [r2, #8]	@ unaligned
1691:.\DisplayBLL.c ****                     puartdisp->_messagelength = sizeof(buff);
 7652              		.loc 1 1691 0 discriminator 4
 7653 0298 D7F84431 		ldr	r3, [r7, #324]
 7654 029c 0A22     		movs	r2, #10
 7655 029e 5A80     		strh	r2, [r3, #2]	@ movhi
1692:.\DisplayBLL.c ****                     puartdisp->_messagestate = PENDING;
 7656              		.loc 1 1692 0 discriminator 4
 7657 02a0 D7F84431 		ldr	r3, [r7, #324]
 7658 02a4 C222     		movs	r2, #194
 7659 02a6 1A70     		strb	r2, [r3]
 7660 02a8 2EE0     		b	.L263
 7661              	.L306:
 7662 02aa 00BF     		.align	2
 7663              	.L305:
 7664 02ac 00000000 		.word	_g_homeanimarray
 7665 02b0 04020000 		.word	.LC7
 7666 02b4 10020000 		.word	.LC8
 7667 02b8 38000000 		.word	.LC0
 7668 02bc 1C020000 		.word	.LC9
 7669              	.L260:
 7670              	.LBE87:
1693:.\DisplayBLL.c ****                 }
1694:.\DisplayBLL.c ****             }
1695:.\DisplayBLL.c ****         }
1696:.\DisplayBLL.c ****         else
1697:.\DisplayBLL.c ****         {
1698:.\DisplayBLL.c ****             puartdisp = GetUARTMessageSlot(UART_DISPLAY1);
 7671              		.loc 1 1698 0
 7672 02c0 A320     		movs	r0, #163
 7673 02c2 FFF7FEFF 		bl	GetUARTMessageSlot
 7674 02c6 C7F84401 		str	r0, [r7, #324]
1699:.\DisplayBLL.c ****             if(puartdisp)
 7675              		.loc 1 1699 0
 7676 02ca D7F84431 		ldr	r3, [r7, #324]
 7677 02ce 002B     		cmp	r3, #0
 7678 02d0 1AD0     		beq	.L263
 7679              	.LBB88:
1700:.\DisplayBLL.c ****             {
1701:.\DisplayBLL.c ****                 //SET FC BC COLORS (WHITE)
1702:.\DisplayBLL.c ****                 uint8 buff[] = { 0xAA, 0x40, 0xFF, 0xFF, 0xFF, 0xFF, 0xCC, 0x33, 0xC3, 0x3C };
 7680              		.loc 1 1702 0
 7681 02d2 C64A     		ldr	r2, .L307
 7682 02d4 07F1B003 		add	r3, r7, #176
ARM GAS  C:\Users\RECEPC~1\AppData\Local\Temp\ccvg7Xyk.s 			page 167


 7683 02d8 1068     		ldr	r0, [r2]	@ unaligned
 7684 02da 5168     		ldr	r1, [r2, #4]	@ unaligned
 7685 02dc 03C3     		stmia	r3!, {r0, r1}
 7686 02de 1289     		ldrh	r2, [r2, #8]	@ unaligned
 7687 02e0 1A80     		strh	r2, [r3]	@ unaligned
1703:.\DisplayBLL.c ****                 memcpy(puartdisp->_messagetx, buff, sizeof(buff));
 7688              		.loc 1 1703 0
 7689 02e2 D7F84431 		ldr	r3, [r7, #324]
 7690 02e6 0433     		adds	r3, r3, #4
 7691 02e8 1A46     		mov	r2, r3
 7692 02ea 07F1B003 		add	r3, r7, #176
 7693 02ee 03CB     		ldmia	r3!, {r0, r1}
 7694 02f0 1060     		str	r0, [r2]	@ unaligned
 7695 02f2 5160     		str	r1, [r2, #4]	@ unaligned
 7696 02f4 1B88     		ldrh	r3, [r3]	@ unaligned
 7697 02f6 1381     		strh	r3, [r2, #8]	@ unaligned
1704:.\DisplayBLL.c ****                 puartdisp->_messagelength = sizeof(buff);
 7698              		.loc 1 1704 0
 7699 02f8 D7F84431 		ldr	r3, [r7, #324]
 7700 02fc 0A22     		movs	r2, #10
 7701 02fe 5A80     		strh	r2, [r3, #2]	@ movhi
1705:.\DisplayBLL.c ****                 puartdisp->_messagestate = PENDING;
 7702              		.loc 1 1705 0
 7703 0300 D7F84431 		ldr	r3, [r7, #324]
 7704 0304 C222     		movs	r2, #194
 7705 0306 1A70     		strb	r2, [r3]
 7706              	.L263:
 7707              	.LBE88:
1706:.\DisplayBLL.c ****             }
1707:.\DisplayBLL.c ****         }
1708:.\DisplayBLL.c ****         
1709:.\DisplayBLL.c ****         puartdisp = GetUARTMessageSlot(UART_DISPLAY1);
 7708              		.loc 1 1709 0
 7709 0308 A320     		movs	r0, #163
 7710 030a FFF7FEFF 		bl	GetUARTMessageSlot
 7711 030e C7F84401 		str	r0, [r7, #324]
1710:.\DisplayBLL.c ****         if(puartdisp)
 7712              		.loc 1 1710 0
 7713 0312 D7F84431 		ldr	r3, [r7, #324]
 7714 0316 002B     		cmp	r3, #0
 7715 0318 1DD0     		beq	.L264
 7716              	.LBB89:
1711:.\DisplayBLL.c ****         {
1712:.\DisplayBLL.c ****             uint8 buff[] = { 0xAA, 0x5B, 0x00, 0x10, 0x01, 0x70, 0x00, 0x30, 0x01, 0x90, 0xCC, 0x33
 7717              		.loc 1 1712 0
 7718 031a B54A     		ldr	r2, .L307+4
 7719 031c 07F1A003 		add	r3, r7, #160
 7720 0320 1446     		mov	r4, r2
 7721 0322 2068     		ldr	r0, [r4]	@ unaligned
 7722 0324 6168     		ldr	r1, [r4, #4]	@ unaligned
 7723 0326 A268     		ldr	r2, [r4, #8]	@ unaligned
 7724 0328 07C3     		stmia	r3!, {r0, r1, r2}
 7725 032a A289     		ldrh	r2, [r4, #12]	@ unaligned
 7726 032c 1A80     		strh	r2, [r3]	@ unaligned
1713:.\DisplayBLL.c ****             memcpy(puartdisp->_messagetx, buff, sizeof(buff));
 7727              		.loc 1 1713 0
 7728 032e D7F84431 		ldr	r3, [r7, #324]
ARM GAS  C:\Users\RECEPC~1\AppData\Local\Temp\ccvg7Xyk.s 			page 168


 7729 0332 0433     		adds	r3, r3, #4
 7730 0334 1C46     		mov	r4, r3
 7731 0336 07F1A003 		add	r3, r7, #160
 7732 033a 07CB     		ldmia	r3!, {r0, r1, r2}
 7733 033c 2060     		str	r0, [r4]	@ unaligned
 7734 033e 6160     		str	r1, [r4, #4]	@ unaligned
 7735 0340 A260     		str	r2, [r4, #8]	@ unaligned
 7736 0342 1B88     		ldrh	r3, [r3]	@ unaligned
 7737 0344 A381     		strh	r3, [r4, #12]	@ unaligned
1714:.\DisplayBLL.c ****             puartdisp->_messagelength = sizeof(buff);
 7738              		.loc 1 1714 0
 7739 0346 D7F84431 		ldr	r3, [r7, #324]
 7740 034a 0E22     		movs	r2, #14
 7741 034c 5A80     		strh	r2, [r3, #2]	@ movhi
1715:.\DisplayBLL.c ****             puartdisp->_messagestate = PENDING;
 7742              		.loc 1 1715 0
 7743 034e D7F84431 		ldr	r3, [r7, #324]
 7744 0352 C222     		movs	r2, #194
 7745 0354 1A70     		strb	r2, [r3]
 7746              	.L264:
 7747              	.LBE89:
1716:.\DisplayBLL.c ****         }
1717:.\DisplayBLL.c ****         
1718:.\DisplayBLL.c ****         fontdata._backcolor = 0xFFFF;
 7748              		.loc 1 1718 0
 7749 0356 4FF6FF73 		movw	r3, #65535
 7750 035a A7F81431 		strh	r3, [r7, #276]	@ movhi
1719:.\DisplayBLL.c ****         fontdata._forecolor = 0x0000;
 7751              		.loc 1 1719 0
 7752 035e 0023     		movs	r3, #0
 7753 0360 A7F81631 		strh	r3, [r7, #278]	@ movhi
1720:.\DisplayBLL.c **** 
1721:.\DisplayBLL.c ****         if((100*_g_homeanimarray[DISPLAY1]._timeoutmultiplier) > _SINK_TIMEOUT_2S_)
 7754              		.loc 1 1721 0
 7755 0364 A34B     		ldr	r3, .L307+8
 7756 0366 9B78     		ldrb	r3, [r3, #2]	@ zero_extendqisi2
 7757 0368 1A46     		mov	r2, r3
 7758 036a 6423     		movs	r3, #100
 7759 036c 03FB02F3 		mul	r3, r3, r2
 7760 0370 B3F5FA6F 		cmp	r3, #2000
 7761 0374 4BDD     		ble	.L265
 7762              	.LBB90:
1722:.\DisplayBLL.c ****         {
1723:.\DisplayBLL.c ****             DrawHomeDateTime(pdisplay);
 7763              		.loc 1 1723 0
 7764 0376 D7F84801 		ldr	r0, [r7, #328]
 7765 037a FFF7FEFF 		bl	DrawHomeDateTime
1724:.\DisplayBLL.c ****             _g_homeanimarray[DISPLAY1]._timeoutmultiplier = 0;
 7766              		.loc 1 1724 0
 7767 037e 9D4B     		ldr	r3, .L307+8
 7768 0380 0022     		movs	r2, #0
 7769 0382 9A70     		strb	r2, [r3, #2]
1725:.\DisplayBLL.c ****             _g_homeanimarray[DISPLAY1]._colontoggler = !_g_homeanimarray[DISPLAY1]._colontoggler;
 7770              		.loc 1 1725 0
 7771 0384 9B4B     		ldr	r3, .L307+8
 7772 0386 5B78     		ldrb	r3, [r3, #1]	@ zero_extendqisi2
 7773 0388 002B     		cmp	r3, #0
ARM GAS  C:\Users\RECEPC~1\AppData\Local\Temp\ccvg7Xyk.s 			page 169


 7774 038a 14BF     		ite	ne
 7775 038c 0123     		movne	r3, #1
 7776 038e 0023     		moveq	r3, #0
 7777 0390 DBB2     		uxtb	r3, r3
 7778 0392 83F00103 		eor	r3, r3, #1
 7779 0396 DBB2     		uxtb	r3, r3
 7780 0398 03F00103 		and	r3, r3, #1
 7781 039c DAB2     		uxtb	r2, r3
 7782 039e 954B     		ldr	r3, .L307+8
 7783 03a0 5A70     		strb	r2, [r3, #1]
1726:.\DisplayBLL.c ****             char8 *pmessage = "MUX Ver. 17";   
 7784              		.loc 1 1726 0
 7785 03a2 954B     		ldr	r3, .L307+12
 7786 03a4 C7F84031 		str	r3, [r7, #320]
1727:.\DisplayBLL.c ****             fontdata._size = 0x01;
 7787              		.loc 1 1727 0
 7788 03a8 0123     		movs	r3, #1
 7789 03aa 87F81031 		strb	r3, [r7, #272]
1728:.\DisplayBLL.c ****             DisplayLayout *pdisplay = (DisplayLayout*)pparam;            
 7790              		.loc 1 1728 0
 7791 03ae 3B1D     		adds	r3, r7, #4
 7792 03b0 1B68     		ldr	r3, [r3]
 7793 03b2 C7F83C31 		str	r3, [r7, #316]
1729:.\DisplayBLL.c ****             UARTMessage *puartdisp = GetUARTMessageSlot(UART_DISPLAY1);
 7794              		.loc 1 1729 0
 7795 03b6 A320     		movs	r0, #163
 7796 03b8 FFF7FEFF 		bl	GetUARTMessageSlot
 7797 03bc C7F83801 		str	r0, [r7, #312]
1730:.\DisplayBLL.c ****             if(puartdisp)
 7798              		.loc 1 1730 0
 7799 03c0 D7F83831 		ldr	r3, [r7, #312]
 7800 03c4 002B     		cmp	r3, #0
 7801 03c6 21D0     		beq	.L266
1731:.\DisplayBLL.c ****             {
1732:.\DisplayBLL.c ****                 puartdisp->_messagelength = DisplayOutputString(0x000F, 0x000E, puartdisp->_message
 7802              		.loc 1 1732 0
 7803 03c8 D7F83831 		ldr	r3, [r7, #312]
 7804 03cc 1C1D     		adds	r4, r3, #4
 7805 03ce D7F84001 		ldr	r0, [r7, #320]
 7806 03d2 FFF7FEFF 		bl	strlen
 7807 03d6 0346     		mov	r3, r0
 7808 03d8 9BB2     		uxth	r3, r3
 7809 03da 0093     		str	r3, [sp]
 7810 03dc 01AA     		add	r2, sp, #4
 7811 03de 07F58873 		add	r3, r7, #272
 7812 03e2 93E80300 		ldmia	r3, {r0, r1}
 7813 03e6 82E80300 		stmia	r2, {r0, r1}
 7814 03ea 0F20     		movs	r0, #15
 7815 03ec 0E21     		movs	r1, #14
 7816 03ee 2246     		mov	r2, r4
 7817 03f0 D7F84031 		ldr	r3, [r7, #320]
 7818 03f4 FFF7FEFF 		bl	DisplayOutputString
 7819 03f8 0346     		mov	r3, r0
 7820 03fa 1A46     		mov	r2, r3
 7821 03fc D7F83831 		ldr	r3, [r7, #312]
 7822 0400 5A80     		strh	r2, [r3, #2]	@ movhi
1733:.\DisplayBLL.c ****                 puartdisp->_messagestate = PENDING;
ARM GAS  C:\Users\RECEPC~1\AppData\Local\Temp\ccvg7Xyk.s 			page 170


 7823              		.loc 1 1733 0
 7824 0402 D7F83831 		ldr	r3, [r7, #312]
 7825 0406 C222     		movs	r2, #194
 7826 0408 1A70     		strb	r2, [r3]
 7827              	.LBE90:
 7828 040a 06E0     		b	.L267
 7829              	.L266:
 7830 040c 05E0     		b	.L267
 7831              	.L265:
1734:.\DisplayBLL.c ****             } 
1735:.\DisplayBLL.c ****             
1736:.\DisplayBLL.c ****         }else
1737:.\DisplayBLL.c ****             _g_homeanimarray[DISPLAY1]._timeoutmultiplier++;
 7832              		.loc 1 1737 0
 7833 040e 794B     		ldr	r3, .L307+8
 7834 0410 9B78     		ldrb	r3, [r3, #2]	@ zero_extendqisi2
 7835 0412 0133     		adds	r3, r3, #1
 7836 0414 DAB2     		uxtb	r2, r3
 7837 0416 774B     		ldr	r3, .L307+8
 7838 0418 9A70     		strb	r2, [r3, #2]
 7839              	.L267:
1738:.\DisplayBLL.c ****             
1739:.\DisplayBLL.c ****         fontdata._size = 0x01;
 7840              		.loc 1 1739 0
 7841 041a 0123     		movs	r3, #1
 7842 041c 87F81031 		strb	r3, [r7, #272]
1740:.\DisplayBLL.c ****         if(!_g_display1._starting)
 7843              		.loc 1 1740 0
 7844 0420 764B     		ldr	r3, .L307+16
 7845 0422 5B7B     		ldrb	r3, [r3, #13]	@ zero_extendqisi2
 7846 0424 83F00103 		eor	r3, r3, #1
 7847 0428 DBB2     		uxtb	r3, r3
 7848 042a 002B     		cmp	r3, #0
 7849 042c 64D0     		beq	.L268
1741:.\DisplayBLL.c ****         {
1742:.\DisplayBLL.c ****             if(FindSinkMessage(_g_printerlayout._printerportside1))
 7850              		.loc 1 1742 0
 7851 042e 744B     		ldr	r3, .L307+20
 7852 0430 1B78     		ldrb	r3, [r3]	@ zero_extendqisi2
 7853 0432 1846     		mov	r0, r3
 7854 0434 FFF7FEFF 		bl	FindSinkMessage
 7855 0438 0346     		mov	r3, r0
 7856 043a 002B     		cmp	r3, #0
 7857 043c 2ED0     		beq	.L269
1743:.\DisplayBLL.c ****             {
1744:.\DisplayBLL.c ****                 puartdisp = GetUARTMessageSlot(UART_DISPLAY1);
 7858              		.loc 1 1744 0
 7859 043e A320     		movs	r0, #163
 7860 0440 FFF7FEFF 		bl	GetUARTMessageSlot
 7861 0444 C7F84401 		str	r0, [r7, #324]
1745:.\DisplayBLL.c ****                 if(puartdisp)
 7862              		.loc 1 1745 0
 7863 0448 D7F84431 		ldr	r3, [r7, #324]
 7864 044c 002B     		cmp	r3, #0
 7865 044e 53D0     		beq	.L268
 7866              	.LBB91:
1746:.\DisplayBLL.c ****                 {
ARM GAS  C:\Users\RECEPC~1\AppData\Local\Temp\ccvg7Xyk.s 			page 171


1747:.\DisplayBLL.c ****                     PSTR ptxtbuffer = "Imprimiendo, por favor espere...";
 7867              		.loc 1 1747 0
 7868 0450 6C4B     		ldr	r3, .L307+24
 7869 0452 C7F83431 		str	r3, [r7, #308]
1748:.\DisplayBLL.c ****                     puartdisp->_messagelength = DisplayOutputString(0x0B8, 0x1D0, puartdisp->_messa
 7870              		.loc 1 1748 0
 7871 0456 D7F84431 		ldr	r3, [r7, #324]
 7872 045a 1C1D     		adds	r4, r3, #4
 7873 045c D7F83401 		ldr	r0, [r7, #308]
 7874 0460 FFF7FEFF 		bl	strlen
 7875 0464 0346     		mov	r3, r0
 7876 0466 9BB2     		uxth	r3, r3
 7877 0468 0093     		str	r3, [sp]
 7878 046a 01AA     		add	r2, sp, #4
 7879 046c 07F58873 		add	r3, r7, #272
 7880 0470 93E80300 		ldmia	r3, {r0, r1}
 7881 0474 82E80300 		stmia	r2, {r0, r1}
 7882 0478 B820     		movs	r0, #184
 7883 047a 4FF4E871 		mov	r1, #464
 7884 047e 2246     		mov	r2, r4
 7885 0480 D7F83431 		ldr	r3, [r7, #308]
 7886 0484 FFF7FEFF 		bl	DisplayOutputString
 7887 0488 0346     		mov	r3, r0
 7888 048a 1A46     		mov	r2, r3
 7889 048c D7F84431 		ldr	r3, [r7, #324]
 7890 0490 5A80     		strh	r2, [r3, #2]	@ movhi
1749:.\DisplayBLL.c ****                     puartdisp->_messagestate = PENDING;
 7891              		.loc 1 1749 0
 7892 0492 D7F84431 		ldr	r3, [r7, #324]
 7893 0496 C222     		movs	r2, #194
 7894 0498 1A70     		strb	r2, [r3]
 7895 049a 2DE0     		b	.L268
 7896              	.L269:
 7897              	.LBE91:
1750:.\DisplayBLL.c ****                 }
1751:.\DisplayBLL.c ****             }
1752:.\DisplayBLL.c ****             else
1753:.\DisplayBLL.c ****             {
1754:.\DisplayBLL.c ****                 puartdisp = GetUARTMessageSlot(UART_DISPLAY1);
 7898              		.loc 1 1754 0
 7899 049c A320     		movs	r0, #163
 7900 049e FFF7FEFF 		bl	GetUARTMessageSlot
 7901 04a2 C7F84401 		str	r0, [r7, #324]
1755:.\DisplayBLL.c ****                 if(puartdisp)
 7902              		.loc 1 1755 0
 7903 04a6 D7F84431 		ldr	r3, [r7, #324]
 7904 04aa 002B     		cmp	r3, #0
 7905 04ac 24D0     		beq	.L268
 7906              	.LBB92:
1756:.\DisplayBLL.c ****                 {
1757:.\DisplayBLL.c ****                     uint8 ptxtbuffer[0x20];
1758:.\DisplayBLL.c ****                     memset(ptxtbuffer, 0x00, 0x20);
 7907              		.loc 1 1758 0
 7908 04ae 07F10803 		add	r3, r7, #8
 7909 04b2 1846     		mov	r0, r3
 7910 04b4 0021     		movs	r1, #0
 7911 04b6 2022     		movs	r2, #32
ARM GAS  C:\Users\RECEPC~1\AppData\Local\Temp\ccvg7Xyk.s 			page 172


 7912 04b8 FFF7FEFF 		bl	memset
1759:.\DisplayBLL.c ****                     puartdisp->_messagelength = DisplayOutputString(0x0B8, 0x1D0, puartdisp->_messa
 7913              		.loc 1 1759 0
 7914 04bc D7F84431 		ldr	r3, [r7, #324]
 7915 04c0 1D1D     		adds	r5, r3, #4
 7916 04c2 07F10804 		add	r4, r7, #8
 7917 04c6 2023     		movs	r3, #32
 7918 04c8 0093     		str	r3, [sp]
 7919 04ca 01AA     		add	r2, sp, #4
 7920 04cc 07F58873 		add	r3, r7, #272
 7921 04d0 93E80300 		ldmia	r3, {r0, r1}
 7922 04d4 82E80300 		stmia	r2, {r0, r1}
 7923 04d8 B820     		movs	r0, #184
 7924 04da 4FF4E871 		mov	r1, #464
 7925 04de 2A46     		mov	r2, r5
 7926 04e0 2346     		mov	r3, r4
 7927 04e2 FFF7FEFF 		bl	DisplayOutputString
 7928 04e6 0346     		mov	r3, r0
 7929 04e8 1A46     		mov	r2, r3
 7930 04ea D7F84431 		ldr	r3, [r7, #324]
 7931 04ee 5A80     		strh	r2, [r3, #2]	@ movhi
1760:.\DisplayBLL.c ****                     puartdisp->_messagestate = PENDING;
 7932              		.loc 1 1760 0
 7933 04f0 D7F84431 		ldr	r3, [r7, #324]
 7934 04f4 C222     		movs	r2, #194
 7935 04f6 1A70     		strb	r2, [r3]
 7936              	.L268:
 7937              	.LBE92:
1761:.\DisplayBLL.c ****                 }
1762:.\DisplayBLL.c ****             }
1763:.\DisplayBLL.c ****         }
1764:.\DisplayBLL.c ****         
1765:.\DisplayBLL.c ****         if(_g_dispenserlayoutinfo._inconfiguration)
 7938              		.loc 1 1765 0
 7939 04f8 434B     		ldr	r3, .L307+28
 7940 04fa 1B78     		ldrb	r3, [r3]
 7941 04fc DBB2     		uxtb	r3, r3
 7942 04fe 002B     		cmp	r3, #0
 7943 0500 00F08880 		beq	.L271
1766:.\DisplayBLL.c ****         {
1767:.\DisplayBLL.c ****             puartdisp = GetUARTMessageSlot(UART_DISPLAY1);
 7944              		.loc 1 1767 0
 7945 0504 A320     		movs	r0, #163
 7946 0506 FFF7FEFF 		bl	GetUARTMessageSlot
 7947 050a C7F84401 		str	r0, [r7, #324]
1768:.\DisplayBLL.c ****             if(puartdisp)
 7948              		.loc 1 1768 0
 7949 050e D7F84431 		ldr	r3, [r7, #324]
 7950 0512 002B     		cmp	r3, #0
 7951 0514 00F0DC80 		beq	.L275
1769:.\DisplayBLL.c ****             {
1770:.\DisplayBLL.c ****                 if(_g_dispenserlayoutinfo._currentloopopen)
 7952              		.loc 1 1770 0
 7953 0518 3B4B     		ldr	r3, .L307+28
 7954 051a 5B78     		ldrb	r3, [r3, #1]
 7955 051c DBB2     		uxtb	r3, r3
 7956 051e 002B     		cmp	r3, #0
ARM GAS  C:\Users\RECEPC~1\AppData\Local\Temp\ccvg7Xyk.s 			page 173


 7957 0520 2FD0     		beq	.L273
 7958              	.LBB93:
1771:.\DisplayBLL.c ****                 {
1772:.\DisplayBLL.c ****                     PSTR ptxtbuffer = "<<** LAZO DE CORRIENTE ABIERTO! **>>";
 7959              		.loc 1 1772 0
 7960 0522 3A4B     		ldr	r3, .L307+32
 7961 0524 C7F83031 		str	r3, [r7, #304]
1773:.\DisplayBLL.c ****                     memcpy(puartdisp->_messagetx, ptxtbuffer, strlen(ptxtbuffer));
 7962              		.loc 1 1773 0
 7963 0528 D7F84431 		ldr	r3, [r7, #324]
 7964 052c 1C1D     		adds	r4, r3, #4
 7965 052e D7F83001 		ldr	r0, [r7, #304]
 7966 0532 FFF7FEFF 		bl	strlen
 7967 0536 0346     		mov	r3, r0
 7968 0538 2046     		mov	r0, r4
 7969 053a D7F83011 		ldr	r1, [r7, #304]
 7970 053e 1A46     		mov	r2, r3
 7971 0540 FFF7FEFF 		bl	memcpy
1774:.\DisplayBLL.c ****                     puartdisp->_messagelength = DisplayOutputString(0x0B8, 0x1D0, puartdisp->_messa
 7972              		.loc 1 1774 0
 7973 0544 D7F84431 		ldr	r3, [r7, #324]
 7974 0548 1C1D     		adds	r4, r3, #4
 7975 054a D7F83001 		ldr	r0, [r7, #304]
 7976 054e FFF7FEFF 		bl	strlen
 7977 0552 0346     		mov	r3, r0
 7978 0554 9BB2     		uxth	r3, r3
 7979 0556 0093     		str	r3, [sp]
 7980 0558 01AA     		add	r2, sp, #4
 7981 055a 07F58873 		add	r3, r7, #272
 7982 055e 93E80300 		ldmia	r3, {r0, r1}
 7983 0562 82E80300 		stmia	r2, {r0, r1}
 7984 0566 B820     		movs	r0, #184
 7985 0568 4FF4E871 		mov	r1, #464
 7986 056c 2246     		mov	r2, r4
 7987 056e D7F83031 		ldr	r3, [r7, #304]
 7988 0572 FFF7FEFF 		bl	DisplayOutputString
 7989 0576 0346     		mov	r3, r0
 7990 0578 1A46     		mov	r2, r3
 7991 057a D7F84431 		ldr	r3, [r7, #324]
 7992 057e 5A80     		strh	r2, [r3, #2]	@ movhi
 7993              	.LBE93:
 7994 0580 2EE0     		b	.L274
 7995              	.L273:
 7996              	.LBB94:
1775:.\DisplayBLL.c ****                 }
1776:.\DisplayBLL.c ****                 else
1777:.\DisplayBLL.c ****                 {
1778:.\DisplayBLL.c ****                     PSTR ptxtbuffer = "Configurando, por favor espere.....";
 7997              		.loc 1 1778 0
 7998 0582 234B     		ldr	r3, .L307+36
 7999 0584 C7F82C31 		str	r3, [r7, #300]
1779:.\DisplayBLL.c ****                     memcpy(puartdisp->_messagetx, ptxtbuffer, strlen(ptxtbuffer));
 8000              		.loc 1 1779 0
 8001 0588 D7F84431 		ldr	r3, [r7, #324]
 8002 058c 1C1D     		adds	r4, r3, #4
 8003 058e D7F82C01 		ldr	r0, [r7, #300]
 8004 0592 FFF7FEFF 		bl	strlen
ARM GAS  C:\Users\RECEPC~1\AppData\Local\Temp\ccvg7Xyk.s 			page 174


 8005 0596 0346     		mov	r3, r0
 8006 0598 2046     		mov	r0, r4
 8007 059a D7F82C11 		ldr	r1, [r7, #300]
 8008 059e 1A46     		mov	r2, r3
 8009 05a0 FFF7FEFF 		bl	memcpy
1780:.\DisplayBLL.c ****                     puartdisp->_messagelength = DisplayOutputString(0x0B8, 0x1D0, puartdisp->_messa
 8010              		.loc 1 1780 0
 8011 05a4 D7F84431 		ldr	r3, [r7, #324]
 8012 05a8 1C1D     		adds	r4, r3, #4
 8013 05aa D7F82C01 		ldr	r0, [r7, #300]
 8014 05ae FFF7FEFF 		bl	strlen
 8015 05b2 0346     		mov	r3, r0
 8016 05b4 9BB2     		uxth	r3, r3
 8017 05b6 0093     		str	r3, [sp]
 8018 05b8 01AA     		add	r2, sp, #4
 8019 05ba 07F58873 		add	r3, r7, #272
 8020 05be 93E80300 		ldmia	r3, {r0, r1}
 8021 05c2 82E80300 		stmia	r2, {r0, r1}
 8022 05c6 B820     		movs	r0, #184
 8023 05c8 4FF4E871 		mov	r1, #464
 8024 05cc 2246     		mov	r2, r4
 8025 05ce D7F82C31 		ldr	r3, [r7, #300]
 8026 05d2 FFF7FEFF 		bl	DisplayOutputString
 8027 05d6 0346     		mov	r3, r0
 8028 05d8 1A46     		mov	r2, r3
 8029 05da D7F84431 		ldr	r3, [r7, #324]
 8030 05de 5A80     		strh	r2, [r3, #2]	@ movhi
 8031              	.L274:
 8032              	.LBE94:
1781:.\DisplayBLL.c ****                 }
1782:.\DisplayBLL.c ****                 puartdisp->_messagestate = PENDING;
 8033              		.loc 1 1782 0
 8034 05e0 D7F84431 		ldr	r3, [r7, #324]
 8035 05e4 C222     		movs	r2, #194
 8036 05e6 1A70     		strb	r2, [r3]
 8037              	.LBE81:
1609:.\DisplayBLL.c ****         UARTMessage *puartdisp = GetUARTMessageSlot(UART_DISPLAY1);
 8038              		.loc 1 1609 0
 8039 05e8 9EE3     		b	.L251
 8040              	.L308:
 8041 05ea 00BF     		.align	2
 8042              	.L307:
 8043 05ec 38000000 		.word	.LC0
 8044 05f0 2C020000 		.word	.LC10
 8045 05f4 00000000 		.word	_g_homeanimarray
 8046 05f8 58010000 		.word	.LC18
 8047 05fc 00000000 		.word	_g_display1
 8048 0600 00000000 		.word	_g_printerlayout
 8049 0604 64010000 		.word	.LC19
 8050 0608 00000000 		.word	_g_dispenserlayoutinfo
 8051 060c 88010000 		.word	.LC20
 8052 0610 B0010000 		.word	.LC21
 8053              	.L271:
 8054              	.LBB96:
1783:.\DisplayBLL.c ****             }
1784:.\DisplayBLL.c ****         }
1785:.\DisplayBLL.c ****         else if(!_g_configured[0x00])
ARM GAS  C:\Users\RECEPC~1\AppData\Local\Temp\ccvg7Xyk.s 			page 175


 8055              		.loc 1 1785 0
 8056 0614 CB4B     		ldr	r3, .L309
 8057 0616 1B78     		ldrb	r3, [r3]	@ zero_extendqisi2
 8058 0618 83F00103 		eor	r3, r3, #1
 8059 061c DBB2     		uxtb	r3, r3
 8060 061e 002B     		cmp	r3, #0
 8061 0620 56D0     		beq	.L275
1786:.\DisplayBLL.c ****         {
1787:.\DisplayBLL.c ****             puartdisp = GetUARTMessageSlot(UART_DISPLAY1);
 8062              		.loc 1 1787 0
 8063 0622 A320     		movs	r0, #163
 8064 0624 FFF7FEFF 		bl	GetUARTMessageSlot
 8065 0628 C7F84401 		str	r0, [r7, #324]
1788:.\DisplayBLL.c ****             if(puartdisp)
 8066              		.loc 1 1788 0
 8067 062c D7F84431 		ldr	r3, [r7, #324]
 8068 0630 002B     		cmp	r3, #0
 8069 0632 49D0     		beq	.L276
 8070              	.LBB95:
1789:.\DisplayBLL.c ****             {
1790:.\DisplayBLL.c ****                 char8 txtbuffer[0x28];
1791:.\DisplayBLL.c ****                 memset(txtbuffer, 0x20, 0x28);
 8071              		.loc 1 1791 0
 8072 0634 07F10803 		add	r3, r7, #8
 8073 0638 1846     		mov	r0, r3
 8074 063a 2021     		movs	r1, #32
 8075 063c 2822     		movs	r2, #40
 8076 063e FFF7FEFF 		bl	memset
1792:.\DisplayBLL.c ****                 if(_g_dispenserlayoutinfo._numpositions == 0x04)
 8077              		.loc 1 1792 0
 8078 0642 C14B     		ldr	r3, .L309+4
 8079 0644 9B78     		ldrb	r3, [r3, #2]	@ zero_extendqisi2
 8080 0646 042B     		cmp	r3, #4
 8081 0648 0DD1     		bne	.L277
1793:.\DisplayBLL.c ****                     sprintf(txtbuffer, "Welcome to INSEPET GVR PRIME QUATTRO!  ");
 8082              		.loc 1 1793 0
 8083 064a 07F10803 		add	r3, r7, #8
 8084 064e BF4A     		ldr	r2, .L309+8
 8085 0650 1C46     		mov	r4, r3
 8086 0652 1546     		mov	r5, r2
 8087 0654 0FCD     		ldmia	r5!, {r0, r1, r2, r3}
 8088 0656 0FC4     		stmia	r4!, {r0, r1, r2, r3}
 8089 0658 0FCD     		ldmia	r5!, {r0, r1, r2, r3}
 8090 065a 0FC4     		stmia	r4!, {r0, r1, r2, r3}
 8091 065c 95E80300 		ldmia	r5, {r0, r1}
 8092 0660 84E80300 		stmia	r4, {r0, r1}
 8093 0664 0CE0     		b	.L278
 8094              	.L277:
1794:.\DisplayBLL.c ****                 else
1795:.\DisplayBLL.c ****                     sprintf(txtbuffer, "Welcome to INSEPET GVR PRIME/ENCORE DUPLA!   ");
 8095              		.loc 1 1795 0
 8096 0666 07F10803 		add	r3, r7, #8
 8097 066a B94A     		ldr	r2, .L309+12
 8098 066c 1C46     		mov	r4, r3
 8099 066e 1546     		mov	r5, r2
 8100 0670 0FCD     		ldmia	r5!, {r0, r1, r2, r3}
 8101 0672 0FC4     		stmia	r4!, {r0, r1, r2, r3}
ARM GAS  C:\Users\RECEPC~1\AppData\Local\Temp\ccvg7Xyk.s 			page 176


 8102 0674 0FCD     		ldmia	r5!, {r0, r1, r2, r3}
 8103 0676 0FC4     		stmia	r4!, {r0, r1, r2, r3}
 8104 0678 95E80F00 		ldmia	r5, {r0, r1, r2, r3}
 8105 067c 07C4     		stmia	r4!, {r0, r1, r2}
 8106 067e 2380     		strh	r3, [r4]	@ movhi
 8107              	.L278:
1796:.\DisplayBLL.c ****                     
1797:.\DisplayBLL.c ****                 puartdisp->_messagelength = DisplayOutputString(0x0A0, 0x1D0, puartdisp->_messagetx
 8108              		.loc 1 1797 0
 8109 0680 D7F84431 		ldr	r3, [r7, #324]
 8110 0684 1D1D     		adds	r5, r3, #4
 8111 0686 07F10803 		add	r3, r7, #8
 8112 068a 1846     		mov	r0, r3
 8113 068c FFF7FEFF 		bl	strlen
 8114 0690 0346     		mov	r3, r0
 8115 0692 9BB2     		uxth	r3, r3
 8116 0694 07F10804 		add	r4, r7, #8
 8117 0698 0093     		str	r3, [sp]
 8118 069a 01AA     		add	r2, sp, #4
 8119 069c 07F58873 		add	r3, r7, #272
 8120 06a0 93E80300 		ldmia	r3, {r0, r1}
 8121 06a4 82E80300 		stmia	r2, {r0, r1}
 8122 06a8 A020     		movs	r0, #160
 8123 06aa 4FF4E871 		mov	r1, #464
 8124 06ae 2A46     		mov	r2, r5
 8125 06b0 2346     		mov	r3, r4
 8126 06b2 FFF7FEFF 		bl	DisplayOutputString
 8127 06b6 0346     		mov	r3, r0
 8128 06b8 1A46     		mov	r2, r3
 8129 06ba D7F84431 		ldr	r3, [r7, #324]
 8130 06be 5A80     		strh	r2, [r3, #2]	@ movhi
1798:.\DisplayBLL.c ****                 puartdisp->_messagestate = PENDING;
 8131              		.loc 1 1798 0
 8132 06c0 D7F84431 		ldr	r3, [r7, #324]
 8133 06c4 C222     		movs	r2, #194
 8134 06c6 1A70     		strb	r2, [r3]
 8135              	.L276:
 8136              	.LBE95:
1799:.\DisplayBLL.c ****             }
1800:.\DisplayBLL.c ****             _g_configured[0x00] = true;            
 8137              		.loc 1 1800 0
 8138 06c8 9E4B     		ldr	r3, .L309
 8139 06ca 0122     		movs	r2, #1
 8140 06cc 1A70     		strb	r2, [r3]
 8141              	.LBE96:
1609:.\DisplayBLL.c ****         UARTMessage *puartdisp = GetUARTMessageSlot(UART_DISPLAY1);
 8142              		.loc 1 1609 0
 8143 06ce 2BE3     		b	.L251
 8144              	.L275:
1609:.\DisplayBLL.c ****         UARTMessage *puartdisp = GetUARTMessageSlot(UART_DISPLAY1);
 8145              		.loc 1 1609 0 is_stmt 0 discriminator 5
 8146 06d0 2AE3     		b	.L251
 8147              	.L252:
1801:.\DisplayBLL.c ****             
1802:.\DisplayBLL.c ****         }
1803:.\DisplayBLL.c ****         
1804:.\DisplayBLL.c ****     }
ARM GAS  C:\Users\RECEPC~1\AppData\Local\Temp\ccvg7Xyk.s 			page 177


1805:.\DisplayBLL.c ****     else if(pdisplay->_dispid == DISPLAY2 && ((PDISPLAYFLOWPTR)pdisplay->_pcurrflow)->_scrid == DIS
 8148              		.loc 1 1805 0 is_stmt 1
 8149 06d2 D7F84831 		ldr	r3, [r7, #328]
 8150 06d6 1B78     		ldrb	r3, [r3]	@ zero_extendqisi2
 8151 06d8 012B     		cmp	r3, #1
 8152 06da 40F02583 		bne	.L251
 8153              		.loc 1 1805 0 is_stmt 0 discriminator 1
 8154 06de D7F84831 		ldr	r3, [r7, #328]
 8155 06e2 1B69     		ldr	r3, [r3, #16]
 8156 06e4 1B78     		ldrb	r3, [r3]	@ zero_extendqisi2
 8157 06e6 012B     		cmp	r3, #1
 8158 06e8 40F01E83 		bne	.L251
 8159              	.LBB97:
1806:.\DisplayBLL.c ****     {
1807:.\DisplayBLL.c ****         UARTMessage *puartdisp = GetUARTMessageSlot(UART_DISPLAY2);
 8160              		.loc 1 1807 0 is_stmt 1
 8161 06ec A420     		movs	r0, #164
 8162 06ee FFF7FEFF 		bl	GetUARTMessageSlot
 8163 06f2 C7F82801 		str	r0, [r7, #296]
1808:.\DisplayBLL.c ****         if(puartdisp)
 8164              		.loc 1 1808 0
 8165 06f6 D7F82831 		ldr	r3, [r7, #296]
 8166 06fa 002B     		cmp	r3, #0
 8167 06fc 30D0     		beq	.L280
1809:.\DisplayBLL.c ****         {
1810:.\DisplayBLL.c ****             buffer[0] = _g_homeanimarray[DISPLAY2]._g_homeanimation[_g_homeanimarray[DISPLAY2]._cur
 8168              		.loc 1 1810 0
 8169 06fe 954B     		ldr	r3, .L309+16
 8170 0700 DB79     		ldrb	r3, [r3, #7]	@ zero_extendqisi2
 8171 0702 5A1C     		adds	r2, r3, #1
 8172 0704 D1B2     		uxtb	r1, r2
 8173 0706 934A     		ldr	r2, .L309+16
 8174 0708 D171     		strb	r1, [r2, #7]
 8175 070a 1A46     		mov	r2, r3
 8176 070c 914B     		ldr	r3, .L309+16
 8177 070e 1344     		add	r3, r3, r2
 8178 0710 9B7A     		ldrb	r3, [r3, #10]	@ zero_extendqisi2
 8179 0712 87F81831 		strb	r3, [r7, #280]
1811:.\DisplayBLL.c ****             if(_g_homeanimarray[DISPLAY2]._currindex >= sizeof(_g_homeanimarray[DISPLAY2]._g_homean
 8180              		.loc 1 1811 0
 8181 0716 8F4B     		ldr	r3, .L309+16
 8182 0718 DB79     		ldrb	r3, [r3, #7]	@ zero_extendqisi2
 8183 071a 032B     		cmp	r3, #3
 8184 071c 02D9     		bls	.L281
1812:.\DisplayBLL.c ****                 _g_homeanimarray[DISPLAY2]._currindex = 0x00;
 8185              		.loc 1 1812 0
 8186 071e 8D4B     		ldr	r3, .L309+16
 8187 0720 0022     		movs	r2, #0
 8188 0722 DA71     		strb	r2, [r3, #7]
 8189              	.L281:
1813:.\DisplayBLL.c ****             
1814:.\DisplayBLL.c ****             puartdisp->_messagelength = DisplayOutputString(0x250, 0x012, puartdisp->_messagetx, bu
 8190              		.loc 1 1814 0
 8191 0724 D7F82831 		ldr	r3, [r7, #296]
 8192 0728 1D1D     		adds	r5, r3, #4
 8193 072a 07F58C74 		add	r4, r7, #280
 8194 072e 0123     		movs	r3, #1
ARM GAS  C:\Users\RECEPC~1\AppData\Local\Temp\ccvg7Xyk.s 			page 178


 8195 0730 0093     		str	r3, [sp]
 8196 0732 01AA     		add	r2, sp, #4
 8197 0734 07F58873 		add	r3, r7, #272
 8198 0738 93E80300 		ldmia	r3, {r0, r1}
 8199 073c 82E80300 		stmia	r2, {r0, r1}
 8200 0740 4FF41470 		mov	r0, #592
 8201 0744 1221     		movs	r1, #18
 8202 0746 2A46     		mov	r2, r5
 8203 0748 2346     		mov	r3, r4
 8204 074a FFF7FEFF 		bl	DisplayOutputString
 8205 074e 0346     		mov	r3, r0
 8206 0750 1A46     		mov	r2, r3
 8207 0752 D7F82831 		ldr	r3, [r7, #296]
 8208 0756 5A80     		strh	r2, [r3, #2]	@ movhi
1815:.\DisplayBLL.c ****             puartdisp->_messagestate = PENDING;
 8209              		.loc 1 1815 0
 8210 0758 D7F82831 		ldr	r3, [r7, #296]
 8211 075c C222     		movs	r2, #194
 8212 075e 1A70     		strb	r2, [r3]
 8213              	.L280:
1816:.\DisplayBLL.c ****         }
1817:.\DisplayBLL.c ****         
1818:.\DisplayBLL.c ****         uint8 pumpavstates[0x02];
1819:.\DisplayBLL.c ****         memset(pumpavstates, 0x00, 0x02);
 8214              		.loc 1 1819 0
 8215 0760 07F19C03 		add	r3, r7, #156
 8216 0764 1846     		mov	r0, r3
 8217 0766 0021     		movs	r1, #0
 8218 0768 0222     		movs	r2, #2
 8219 076a FFF7FEFF 		bl	memset
1820:.\DisplayBLL.c ****         GetPumpsAvailability(pdisplay, pumpavstates);
 8220              		.loc 1 1820 0
 8221 076e 07F19C03 		add	r3, r7, #156
 8222 0772 D7F84801 		ldr	r0, [r7, #328]
 8223 0776 1946     		mov	r1, r3
 8224 0778 FFF7FEFF 		bl	GetPumpsAvailability
1821:.\DisplayBLL.c **** 
1822:.\DisplayBLL.c ****         bool pumpsprintstate[0x02];
1823:.\DisplayBLL.c ****         GetPumpsPrintState(pdisplay, pumpsprintstate);
 8225              		.loc 1 1823 0
 8226 077c 07F19803 		add	r3, r7, #152
 8227 0780 D7F84801 		ldr	r0, [r7, #328]
 8228 0784 1946     		mov	r1, r3
 8229 0786 FFF7FEFF 		bl	GetPumpsPrintState
1824:.\DisplayBLL.c ****         
1825:.\DisplayBLL.c ****         //On-Display witness to alert about pending or in-execution operations on the pump
1826:.\DisplayBLL.c ****         if(!pumpavstates[0x01])
 8230              		.loc 1 1826 0
 8231 078a 97F89D30 		ldrb	r3, [r7, #157]	@ zero_extendqisi2
 8232 078e 002B     		cmp	r3, #0
 8233 0790 44D1     		bne	.L282
1827:.\DisplayBLL.c ****         {
1828:.\DisplayBLL.c ****             puartdisp = GetUARTMessageSlot(UART_DISPLAY2);
 8234              		.loc 1 1828 0
 8235 0792 A420     		movs	r0, #164
 8236 0794 FFF7FEFF 		bl	GetUARTMessageSlot
 8237 0798 C7F82801 		str	r0, [r7, #296]
ARM GAS  C:\Users\RECEPC~1\AppData\Local\Temp\ccvg7Xyk.s 			page 179


1829:.\DisplayBLL.c ****             if(puartdisp)
 8238              		.loc 1 1829 0
 8239 079c D7F82831 		ldr	r3, [r7, #296]
 8240 07a0 002B     		cmp	r3, #0
 8241 07a2 5FD0     		beq	.L285
1830:.\DisplayBLL.c ****             {
1831:.\DisplayBLL.c ****                 if(pumpsprintstate[0x01])
 8242              		.loc 1 1831 0
 8243 07a4 97F89930 		ldrb	r3, [r7, #153]	@ zero_extendqisi2
 8244 07a8 002B     		cmp	r3, #0
 8245 07aa 1BD0     		beq	.L284
 8246              	.LBB98:
1832:.\DisplayBLL.c ****                 {
1833:.\DisplayBLL.c ****                     //SET FC BC COLORS (BLUE) IF PRINT HAS BEEN REQUESTED
1834:.\DisplayBLL.c ****                     uint8 buff[] = { 0xAA, 0x40, 0x00, 0x1F, 0xFF, 0xFF, 0xCC, 0x33, 0xC3, 0x3C };
 8247              		.loc 1 1834 0
 8248 07ac 6A4A     		ldr	r2, .L309+20
 8249 07ae 07F18C03 		add	r3, r7, #140
 8250 07b2 1068     		ldr	r0, [r2]	@ unaligned
 8251 07b4 5168     		ldr	r1, [r2, #4]	@ unaligned
 8252 07b6 03C3     		stmia	r3!, {r0, r1}
 8253 07b8 1289     		ldrh	r2, [r2, #8]	@ unaligned
 8254 07ba 1A80     		strh	r2, [r3]	@ unaligned
1835:.\DisplayBLL.c ****                     memcpy(puartdisp->_messagetx, buff, sizeof(buff));
 8255              		.loc 1 1835 0
 8256 07bc D7F82831 		ldr	r3, [r7, #296]
 8257 07c0 0433     		adds	r3, r3, #4
 8258 07c2 1A46     		mov	r2, r3
 8259 07c4 07F18C03 		add	r3, r7, #140
 8260 07c8 03CB     		ldmia	r3!, {r0, r1}
 8261 07ca 1060     		str	r0, [r2]	@ unaligned
 8262 07cc 5160     		str	r1, [r2, #4]	@ unaligned
 8263 07ce 1B88     		ldrh	r3, [r3]	@ unaligned
 8264 07d0 1381     		strh	r3, [r2, #8]	@ unaligned
1836:.\DisplayBLL.c ****                     puartdisp->_messagelength = sizeof(buff);
 8265              		.loc 1 1836 0
 8266 07d2 D7F82831 		ldr	r3, [r7, #296]
 8267 07d6 0A22     		movs	r2, #10
 8268 07d8 5A80     		strh	r2, [r3, #2]	@ movhi
1837:.\DisplayBLL.c ****                     puartdisp->_messagestate = PENDING;
 8269              		.loc 1 1837 0
 8270 07da D7F82831 		ldr	r3, [r7, #296]
 8271 07de C222     		movs	r2, #194
 8272 07e0 1A70     		strb	r2, [r3]
 8273              	.LBE98:
 8274 07e2 3FE0     		b	.L285
 8275              	.L284:
 8276              	.LBB99:
1838:.\DisplayBLL.c ****                 }
1839:.\DisplayBLL.c ****                 else
1840:.\DisplayBLL.c ****                 {
1841:.\DisplayBLL.c ****                     //SET FC BC COLORS (RED)
1842:.\DisplayBLL.c ****                     uint8 buff[] = { 0xAA, 0x40, 0xF8, 0x00, 0xFF, 0xFF, 0xCC, 0x33, 0xC3, 0x3C };
 8277              		.loc 1 1842 0 discriminator 8
 8278 07e4 5D4A     		ldr	r2, .L309+24
 8279 07e6 07F18003 		add	r3, r7, #128
 8280 07ea 1068     		ldr	r0, [r2]	@ unaligned
ARM GAS  C:\Users\RECEPC~1\AppData\Local\Temp\ccvg7Xyk.s 			page 180


 8281 07ec 5168     		ldr	r1, [r2, #4]	@ unaligned
 8282 07ee 03C3     		stmia	r3!, {r0, r1}
 8283 07f0 1289     		ldrh	r2, [r2, #8]	@ unaligned
 8284 07f2 1A80     		strh	r2, [r3]	@ unaligned
1843:.\DisplayBLL.c ****                     memcpy(puartdisp->_messagetx, buff, sizeof(buff));
 8285              		.loc 1 1843 0 discriminator 8
 8286 07f4 D7F82831 		ldr	r3, [r7, #296]
 8287 07f8 0433     		adds	r3, r3, #4
 8288 07fa 1A46     		mov	r2, r3
 8289 07fc 07F18003 		add	r3, r7, #128
 8290 0800 03CB     		ldmia	r3!, {r0, r1}
 8291 0802 1060     		str	r0, [r2]	@ unaligned
 8292 0804 5160     		str	r1, [r2, #4]	@ unaligned
 8293 0806 1B88     		ldrh	r3, [r3]	@ unaligned
 8294 0808 1381     		strh	r3, [r2, #8]	@ unaligned
1844:.\DisplayBLL.c ****                     puartdisp->_messagelength = sizeof(buff);
 8295              		.loc 1 1844 0 discriminator 8
 8296 080a D7F82831 		ldr	r3, [r7, #296]
 8297 080e 0A22     		movs	r2, #10
 8298 0810 5A80     		strh	r2, [r3, #2]	@ movhi
1845:.\DisplayBLL.c ****                     puartdisp->_messagestate = PENDING;
 8299              		.loc 1 1845 0 discriminator 8
 8300 0812 D7F82831 		ldr	r3, [r7, #296]
 8301 0816 C222     		movs	r2, #194
 8302 0818 1A70     		strb	r2, [r3]
 8303 081a 23E0     		b	.L285
 8304              	.L282:
 8305              	.LBE99:
1846:.\DisplayBLL.c ****                 }
1847:.\DisplayBLL.c ****             }
1848:.\DisplayBLL.c ****         }
1849:.\DisplayBLL.c ****         else
1850:.\DisplayBLL.c ****         {
1851:.\DisplayBLL.c ****             puartdisp = GetUARTMessageSlot(UART_DISPLAY2);
 8306              		.loc 1 1851 0
 8307 081c A420     		movs	r0, #164
 8308 081e FFF7FEFF 		bl	GetUARTMessageSlot
 8309 0822 C7F82801 		str	r0, [r7, #296]
1852:.\DisplayBLL.c ****             if(puartdisp)
 8310              		.loc 1 1852 0
 8311 0826 D7F82831 		ldr	r3, [r7, #296]
 8312 082a 002B     		cmp	r3, #0
 8313 082c 1AD0     		beq	.L285
 8314              	.LBB100:
1853:.\DisplayBLL.c ****             {
1854:.\DisplayBLL.c ****                 //SET FC BC COLORS (WHITE)
1855:.\DisplayBLL.c ****                 uint8 buff[] = { 0xAA, 0x40, 0xFF, 0xFF, 0xFF, 0xFF, 0xCC, 0x33, 0xC3, 0x3C };
 8315              		.loc 1 1855 0
 8316 082e 4C4A     		ldr	r2, .L309+28
 8317 0830 07F17403 		add	r3, r7, #116
 8318 0834 1068     		ldr	r0, [r2]	@ unaligned
 8319 0836 5168     		ldr	r1, [r2, #4]	@ unaligned
 8320 0838 03C3     		stmia	r3!, {r0, r1}
 8321 083a 1289     		ldrh	r2, [r2, #8]	@ unaligned
 8322 083c 1A80     		strh	r2, [r3]	@ unaligned
1856:.\DisplayBLL.c ****                 memcpy(puartdisp->_messagetx, buff, sizeof(buff));
 8323              		.loc 1 1856 0
ARM GAS  C:\Users\RECEPC~1\AppData\Local\Temp\ccvg7Xyk.s 			page 181


 8324 083e D7F82831 		ldr	r3, [r7, #296]
 8325 0842 0433     		adds	r3, r3, #4
 8326 0844 1A46     		mov	r2, r3
 8327 0846 07F17403 		add	r3, r7, #116
 8328 084a 03CB     		ldmia	r3!, {r0, r1}
 8329 084c 1060     		str	r0, [r2]	@ unaligned
 8330 084e 5160     		str	r1, [r2, #4]	@ unaligned
 8331 0850 1B88     		ldrh	r3, [r3]	@ unaligned
 8332 0852 1381     		strh	r3, [r2, #8]	@ unaligned
1857:.\DisplayBLL.c ****                 puartdisp->_messagelength = sizeof(buff);
 8333              		.loc 1 1857 0
 8334 0854 D7F82831 		ldr	r3, [r7, #296]
 8335 0858 0A22     		movs	r2, #10
 8336 085a 5A80     		strh	r2, [r3, #2]	@ movhi
1858:.\DisplayBLL.c ****                 puartdisp->_messagestate = PENDING;
 8337              		.loc 1 1858 0
 8338 085c D7F82831 		ldr	r3, [r7, #296]
 8339 0860 C222     		movs	r2, #194
 8340 0862 1A70     		strb	r2, [r3]
 8341              	.L285:
 8342              	.LBE100:
1859:.\DisplayBLL.c ****             }
1860:.\DisplayBLL.c ****         }
1861:.\DisplayBLL.c ****         
1862:.\DisplayBLL.c ****         puartdisp = GetUARTMessageSlot(UART_DISPLAY2);
 8343              		.loc 1 1862 0
 8344 0864 A420     		movs	r0, #164
 8345 0866 FFF7FEFF 		bl	GetUARTMessageSlot
 8346 086a C7F82801 		str	r0, [r7, #296]
1863:.\DisplayBLL.c ****         if(puartdisp)
 8347              		.loc 1 1863 0
 8348 086e D7F82831 		ldr	r3, [r7, #296]
 8349 0872 002B     		cmp	r3, #0
 8350 0874 1DD0     		beq	.L286
 8351              	.LBB101:
1864:.\DisplayBLL.c ****         {
1865:.\DisplayBLL.c ****             uint8 buff[] = { 0xAA, 0x5B, 0x02, 0x50, 0x01, 0x70, 0x02, 0x70, 0x01, 0x90, 0xCC, 0x33
 8352              		.loc 1 1865 0
 8353 0876 3B4A     		ldr	r2, .L309+32
 8354 0878 07F16403 		add	r3, r7, #100
 8355 087c 1446     		mov	r4, r2
 8356 087e 2068     		ldr	r0, [r4]	@ unaligned
 8357 0880 6168     		ldr	r1, [r4, #4]	@ unaligned
 8358 0882 A268     		ldr	r2, [r4, #8]	@ unaligned
 8359 0884 07C3     		stmia	r3!, {r0, r1, r2}
 8360 0886 A289     		ldrh	r2, [r4, #12]	@ unaligned
 8361 0888 1A80     		strh	r2, [r3]	@ unaligned
1866:.\DisplayBLL.c ****             memcpy(puartdisp->_messagetx, buff, sizeof(buff));
 8362              		.loc 1 1866 0
 8363 088a D7F82831 		ldr	r3, [r7, #296]
 8364 088e 0433     		adds	r3, r3, #4
 8365 0890 1C46     		mov	r4, r3
 8366 0892 07F16403 		add	r3, r7, #100
 8367 0896 07CB     		ldmia	r3!, {r0, r1, r2}
 8368 0898 2060     		str	r0, [r4]	@ unaligned
 8369 089a 6160     		str	r1, [r4, #4]	@ unaligned
 8370 089c A260     		str	r2, [r4, #8]	@ unaligned
ARM GAS  C:\Users\RECEPC~1\AppData\Local\Temp\ccvg7Xyk.s 			page 182


 8371 089e 1B88     		ldrh	r3, [r3]	@ unaligned
 8372 08a0 A381     		strh	r3, [r4, #12]	@ unaligned
1867:.\DisplayBLL.c ****             puartdisp->_messagelength = sizeof(buff);
 8373              		.loc 1 1867 0
 8374 08a2 D7F82831 		ldr	r3, [r7, #296]
 8375 08a6 0E22     		movs	r2, #14
 8376 08a8 5A80     		strh	r2, [r3, #2]	@ movhi
1868:.\DisplayBLL.c ****             puartdisp->_messagestate = PENDING;
 8377              		.loc 1 1868 0
 8378 08aa D7F82831 		ldr	r3, [r7, #296]
 8379 08ae C222     		movs	r2, #194
 8380 08b0 1A70     		strb	r2, [r3]
 8381              	.L286:
 8382              	.LBE101:
1869:.\DisplayBLL.c ****         }
1870:.\DisplayBLL.c ****         
1871:.\DisplayBLL.c ****         //On-Display witness to alert about pending or in-execution operations on the pump
1872:.\DisplayBLL.c ****         if(!pumpavstates[0x00])
 8383              		.loc 1 1872 0
 8384 08b2 97F89C30 		ldrb	r3, [r7, #156]	@ zero_extendqisi2
 8385 08b6 002B     		cmp	r3, #0
 8386 08b8 56D1     		bne	.L287
1873:.\DisplayBLL.c ****         {
1874:.\DisplayBLL.c ****             puartdisp = GetUARTMessageSlot(UART_DISPLAY2);
 8387              		.loc 1 1874 0
 8388 08ba A420     		movs	r0, #164
 8389 08bc FFF7FEFF 		bl	GetUARTMessageSlot
 8390 08c0 C7F82801 		str	r0, [r7, #296]
1875:.\DisplayBLL.c ****             if(puartdisp)
 8391              		.loc 1 1875 0
 8392 08c4 D7F82831 		ldr	r3, [r7, #296]
 8393 08c8 002B     		cmp	r3, #0
 8394 08ca 70D0     		beq	.L290
1876:.\DisplayBLL.c ****             {
1877:.\DisplayBLL.c ****                 if(pumpsprintstate[0x00])
 8395              		.loc 1 1877 0
 8396 08cc 97F89830 		ldrb	r3, [r7, #152]	@ zero_extendqisi2
 8397 08d0 002B     		cmp	r3, #0
 8398 08d2 1BD0     		beq	.L289
 8399              	.LBB102:
1878:.\DisplayBLL.c ****                 {
1879:.\DisplayBLL.c ****                     //SET FC BC COLORS (BLUE) IF PRINT HAS BEEN REQUESTED
1880:.\DisplayBLL.c ****                     uint8 buff[] = { 0xAA, 0x40, 0x00, 0x1F, 0xFF, 0xFF, 0xCC, 0x33, 0xC3, 0x3C };
 8400              		.loc 1 1880 0
 8401 08d4 204A     		ldr	r2, .L309+20
 8402 08d6 07F15803 		add	r3, r7, #88
 8403 08da 1068     		ldr	r0, [r2]	@ unaligned
 8404 08dc 5168     		ldr	r1, [r2, #4]	@ unaligned
 8405 08de 03C3     		stmia	r3!, {r0, r1}
 8406 08e0 1289     		ldrh	r2, [r2, #8]	@ unaligned
 8407 08e2 1A80     		strh	r2, [r3]	@ unaligned
1881:.\DisplayBLL.c ****                     memcpy(puartdisp->_messagetx, buff, sizeof(buff));
 8408              		.loc 1 1881 0
 8409 08e4 D7F82831 		ldr	r3, [r7, #296]
 8410 08e8 0433     		adds	r3, r3, #4
 8411 08ea 1A46     		mov	r2, r3
 8412 08ec 07F15803 		add	r3, r7, #88
ARM GAS  C:\Users\RECEPC~1\AppData\Local\Temp\ccvg7Xyk.s 			page 183


 8413 08f0 03CB     		ldmia	r3!, {r0, r1}
 8414 08f2 1060     		str	r0, [r2]	@ unaligned
 8415 08f4 5160     		str	r1, [r2, #4]	@ unaligned
 8416 08f6 1B88     		ldrh	r3, [r3]	@ unaligned
 8417 08f8 1381     		strh	r3, [r2, #8]	@ unaligned
1882:.\DisplayBLL.c ****                     puartdisp->_messagelength = sizeof(buff);
 8418              		.loc 1 1882 0
 8419 08fa D7F82831 		ldr	r3, [r7, #296]
 8420 08fe 0A22     		movs	r2, #10
 8421 0900 5A80     		strh	r2, [r3, #2]	@ movhi
1883:.\DisplayBLL.c ****                     puartdisp->_messagestate = PENDING;
 8422              		.loc 1 1883 0
 8423 0902 D7F82831 		ldr	r3, [r7, #296]
 8424 0906 C222     		movs	r2, #194
 8425 0908 1A70     		strb	r2, [r3]
 8426              	.LBE102:
 8427 090a 50E0     		b	.L290
 8428              	.L289:
 8429              	.LBB103:
1884:.\DisplayBLL.c ****                 }
1885:.\DisplayBLL.c ****                 else
1886:.\DisplayBLL.c ****                 {
1887:.\DisplayBLL.c ****                     //SET FC BC COLORS (RED)
1888:.\DisplayBLL.c ****                     uint8 buff[] = { 0xAA, 0x40, 0xF8, 0x00, 0xFF, 0xFF, 0xCC, 0x33, 0xC3, 0x3C };
 8430              		.loc 1 1888 0 discriminator 10
 8431 090c 07F14C03 		add	r3, r7, #76
 8432 0910 124A     		ldr	r2, .L309+24
 8433 0912 1068     		ldr	r0, [r2]	@ unaligned
 8434 0914 5168     		ldr	r1, [r2, #4]	@ unaligned
 8435 0916 03C3     		stmia	r3!, {r0, r1}
 8436 0918 1289     		ldrh	r2, [r2, #8]	@ unaligned
 8437 091a 1A80     		strh	r2, [r3]	@ unaligned
1889:.\DisplayBLL.c ****                     memcpy(puartdisp->_messagetx, buff, sizeof(buff));
 8438              		.loc 1 1889 0 discriminator 10
 8439 091c D7F82831 		ldr	r3, [r7, #296]
 8440 0920 1A1D     		adds	r2, r3, #4
 8441 0922 07F14C03 		add	r3, r7, #76
 8442 0926 03CB     		ldmia	r3!, {r0, r1}
 8443 0928 1060     		str	r0, [r2]	@ unaligned
 8444 092a 5160     		str	r1, [r2, #4]	@ unaligned
 8445 092c 1B88     		ldrh	r3, [r3]	@ unaligned
 8446 092e 1381     		strh	r3, [r2, #8]	@ unaligned
1890:.\DisplayBLL.c ****                     puartdisp->_messagelength = sizeof(buff);
 8447              		.loc 1 1890 0 discriminator 10
 8448 0930 D7F82831 		ldr	r3, [r7, #296]
 8449 0934 0A22     		movs	r2, #10
 8450 0936 5A80     		strh	r2, [r3, #2]	@ movhi
1891:.\DisplayBLL.c ****                     puartdisp->_messagestate = PENDING;
 8451              		.loc 1 1891 0 discriminator 10
 8452 0938 D7F82831 		ldr	r3, [r7, #296]
 8453 093c C222     		movs	r2, #194
 8454 093e 1A70     		strb	r2, [r3]
 8455 0940 35E0     		b	.L290
 8456              	.L310:
 8457 0942 00BF     		.align	2
 8458              	.L309:
 8459 0944 00000000 		.word	_g_configured
ARM GAS  C:\Users\RECEPC~1\AppData\Local\Temp\ccvg7Xyk.s 			page 184


 8460 0948 00000000 		.word	_g_dispenserlayoutinfo
 8461 094c 3C020000 		.word	.LC22
 8462 0950 D4010000 		.word	.LC23
 8463 0954 00000000 		.word	_g_homeanimarray
 8464 0958 04020000 		.word	.LC7
 8465 095c 10020000 		.word	.LC8
 8466 0960 38000000 		.word	.LC0
 8467 0964 1C020000 		.word	.LC9
 8468              	.L287:
 8469              	.LBE103:
1892:.\DisplayBLL.c ****                 }
1893:.\DisplayBLL.c ****             }
1894:.\DisplayBLL.c ****         }
1895:.\DisplayBLL.c ****         else
1896:.\DisplayBLL.c ****         {
1897:.\DisplayBLL.c ****             puartdisp = GetUARTMessageSlot(UART_DISPLAY2);
 8470              		.loc 1 1897 0
 8471 0968 A420     		movs	r0, #164
 8472 096a FFF7FEFF 		bl	GetUARTMessageSlot
 8473 096e C7F82801 		str	r0, [r7, #296]
1898:.\DisplayBLL.c ****             if(puartdisp)
 8474              		.loc 1 1898 0
 8475 0972 D7F82831 		ldr	r3, [r7, #296]
 8476 0976 002B     		cmp	r3, #0
 8477 0978 19D0     		beq	.L290
 8478              	.LBB104:
1899:.\DisplayBLL.c ****             {
1900:.\DisplayBLL.c ****                 //SET FC BC COLORS (WHITE)
1901:.\DisplayBLL.c ****                 uint8 buff[] = { 0xAA, 0x40, 0xFF, 0xFF, 0xFF, 0xFF, 0xCC, 0x33, 0xC3, 0x3C };
 8479              		.loc 1 1901 0
 8480 097a 07F14003 		add	r3, r7, #64
 8481 097e C54A     		ldr	r2, .L311
 8482 0980 1068     		ldr	r0, [r2]	@ unaligned
 8483 0982 5168     		ldr	r1, [r2, #4]	@ unaligned
 8484 0984 03C3     		stmia	r3!, {r0, r1}
 8485 0986 1289     		ldrh	r2, [r2, #8]	@ unaligned
 8486 0988 1A80     		strh	r2, [r3]	@ unaligned
1902:.\DisplayBLL.c ****                 memcpy(puartdisp->_messagetx, buff, sizeof(buff));
 8487              		.loc 1 1902 0
 8488 098a D7F82831 		ldr	r3, [r7, #296]
 8489 098e 1A1D     		adds	r2, r3, #4
 8490 0990 07F14003 		add	r3, r7, #64
 8491 0994 03CB     		ldmia	r3!, {r0, r1}
 8492 0996 1060     		str	r0, [r2]	@ unaligned
 8493 0998 5160     		str	r1, [r2, #4]	@ unaligned
 8494 099a 1B88     		ldrh	r3, [r3]	@ unaligned
 8495 099c 1381     		strh	r3, [r2, #8]	@ unaligned
1903:.\DisplayBLL.c ****                 puartdisp->_messagelength = sizeof(buff);
 8496              		.loc 1 1903 0
 8497 099e D7F82831 		ldr	r3, [r7, #296]
 8498 09a2 0A22     		movs	r2, #10
 8499 09a4 5A80     		strh	r2, [r3, #2]	@ movhi
1904:.\DisplayBLL.c ****                 puartdisp->_messagestate = PENDING;
 8500              		.loc 1 1904 0
 8501 09a6 D7F82831 		ldr	r3, [r7, #296]
 8502 09aa C222     		movs	r2, #194
 8503 09ac 1A70     		strb	r2, [r3]
ARM GAS  C:\Users\RECEPC~1\AppData\Local\Temp\ccvg7Xyk.s 			page 185


 8504              	.L290:
 8505              	.LBE104:
1905:.\DisplayBLL.c ****             }
1906:.\DisplayBLL.c ****         }
1907:.\DisplayBLL.c ****         
1908:.\DisplayBLL.c ****         puartdisp = GetUARTMessageSlot(UART_DISPLAY2);
 8506              		.loc 1 1908 0
 8507 09ae A420     		movs	r0, #164
 8508 09b0 FFF7FEFF 		bl	GetUARTMessageSlot
 8509 09b4 C7F82801 		str	r0, [r7, #296]
1909:.\DisplayBLL.c ****         if(puartdisp)
 8510              		.loc 1 1909 0
 8511 09b8 D7F82831 		ldr	r3, [r7, #296]
 8512 09bc 002B     		cmp	r3, #0
 8513 09be 1DD0     		beq	.L291
 8514              	.LBB105:
1910:.\DisplayBLL.c ****         {
1911:.\DisplayBLL.c ****             uint8 buff[] = { 0xAA, 0x5B, 0x00, 0x10, 0x01, 0x70, 0x00, 0x30, 0x01, 0x90, 0xCC, 0x33
 8515              		.loc 1 1911 0
 8516 09c0 07F13003 		add	r3, r7, #48
 8517 09c4 B44A     		ldr	r2, .L311+4
 8518 09c6 1446     		mov	r4, r2
 8519 09c8 2068     		ldr	r0, [r4]	@ unaligned
 8520 09ca 6168     		ldr	r1, [r4, #4]	@ unaligned
 8521 09cc A268     		ldr	r2, [r4, #8]	@ unaligned
 8522 09ce 07C3     		stmia	r3!, {r0, r1, r2}
 8523 09d0 A289     		ldrh	r2, [r4, #12]	@ unaligned
 8524 09d2 1A80     		strh	r2, [r3]	@ unaligned
1912:.\DisplayBLL.c ****             memcpy(puartdisp->_messagetx, buff, sizeof(buff));
 8525              		.loc 1 1912 0
 8526 09d4 D7F82831 		ldr	r3, [r7, #296]
 8527 09d8 1A1D     		adds	r2, r3, #4
 8528 09da 07F13003 		add	r3, r7, #48
 8529 09de 1446     		mov	r4, r2
 8530 09e0 07CB     		ldmia	r3!, {r0, r1, r2}
 8531 09e2 2060     		str	r0, [r4]	@ unaligned
 8532 09e4 6160     		str	r1, [r4, #4]	@ unaligned
 8533 09e6 A260     		str	r2, [r4, #8]	@ unaligned
 8534 09e8 1B88     		ldrh	r3, [r3]	@ unaligned
 8535 09ea A381     		strh	r3, [r4, #12]	@ unaligned
1913:.\DisplayBLL.c ****             puartdisp->_messagelength = sizeof(buff);
 8536              		.loc 1 1913 0
 8537 09ec D7F82831 		ldr	r3, [r7, #296]
 8538 09f0 0E22     		movs	r2, #14
 8539 09f2 5A80     		strh	r2, [r3, #2]	@ movhi
1914:.\DisplayBLL.c ****             puartdisp->_messagestate = PENDING;
 8540              		.loc 1 1914 0
 8541 09f4 D7F82831 		ldr	r3, [r7, #296]
 8542 09f8 C222     		movs	r2, #194
 8543 09fa 1A70     		strb	r2, [r3]
 8544              	.L291:
 8545              	.LBE105:
1915:.\DisplayBLL.c ****         }
1916:.\DisplayBLL.c ****         
1917:.\DisplayBLL.c ****         fontdata._backcolor = 0xFFFF;
 8546              		.loc 1 1917 0
 8547 09fc 4FF6FF73 		movw	r3, #65535
ARM GAS  C:\Users\RECEPC~1\AppData\Local\Temp\ccvg7Xyk.s 			page 186


 8548 0a00 A7F81431 		strh	r3, [r7, #276]	@ movhi
1918:.\DisplayBLL.c ****         fontdata._forecolor = 0x0000;
 8549              		.loc 1 1918 0
 8550 0a04 0023     		movs	r3, #0
 8551 0a06 A7F81631 		strh	r3, [r7, #278]	@ movhi
1919:.\DisplayBLL.c ****         
1920:.\DisplayBLL.c ****         if((100*_g_homeanimarray[DISPLAY2]._timeoutmultiplier) > _SINK_TIMEOUT_2S_)
 8552              		.loc 1 1920 0
 8553 0a0a A44B     		ldr	r3, .L311+8
 8554 0a0c 5B7A     		ldrb	r3, [r3, #9]	@ zero_extendqisi2
 8555 0a0e 1A46     		mov	r2, r3
 8556 0a10 6423     		movs	r3, #100
 8557 0a12 03FB02F3 		mul	r3, r3, r2
 8558 0a16 B3F5FA6F 		cmp	r3, #2000
 8559 0a1a 16DD     		ble	.L292
1921:.\DisplayBLL.c ****         {
1922:.\DisplayBLL.c ****             DrawHomeDateTime(pdisplay);
 8560              		.loc 1 1922 0
 8561 0a1c D7F84801 		ldr	r0, [r7, #328]
 8562 0a20 FFF7FEFF 		bl	DrawHomeDateTime
1923:.\DisplayBLL.c ****             _g_homeanimarray[DISPLAY2]._timeoutmultiplier = 0;
 8563              		.loc 1 1923 0
 8564 0a24 9D4B     		ldr	r3, .L311+8
 8565 0a26 0022     		movs	r2, #0
 8566 0a28 5A72     		strb	r2, [r3, #9]
1924:.\DisplayBLL.c ****             _g_homeanimarray[DISPLAY2]._colontoggler = !_g_homeanimarray[DISPLAY2]._colontoggler;
 8567              		.loc 1 1924 0
 8568 0a2a 9C4B     		ldr	r3, .L311+8
 8569 0a2c 1B7A     		ldrb	r3, [r3, #8]	@ zero_extendqisi2
 8570 0a2e 002B     		cmp	r3, #0
 8571 0a30 14BF     		ite	ne
 8572 0a32 0123     		movne	r3, #1
 8573 0a34 0023     		moveq	r3, #0
 8574 0a36 DBB2     		uxtb	r3, r3
 8575 0a38 83F00103 		eor	r3, r3, #1
 8576 0a3c DBB2     		uxtb	r3, r3
 8577 0a3e 03F00103 		and	r3, r3, #1
 8578 0a42 DAB2     		uxtb	r2, r3
 8579 0a44 954B     		ldr	r3, .L311+8
 8580 0a46 1A72     		strb	r2, [r3, #8]
 8581 0a48 05E0     		b	.L293
 8582              	.L292:
1925:.\DisplayBLL.c ****         }else
1926:.\DisplayBLL.c ****             _g_homeanimarray[DISPLAY2]._timeoutmultiplier++;
 8583              		.loc 1 1926 0
 8584 0a4a 944B     		ldr	r3, .L311+8
 8585 0a4c 5B7A     		ldrb	r3, [r3, #9]	@ zero_extendqisi2
 8586 0a4e 0133     		adds	r3, r3, #1
 8587 0a50 DAB2     		uxtb	r2, r3
 8588 0a52 924B     		ldr	r3, .L311+8
 8589 0a54 5A72     		strb	r2, [r3, #9]
 8590              	.L293:
1927:.\DisplayBLL.c ****             
1928:.\DisplayBLL.c ****         fontdata._size = 0x01;
 8591              		.loc 1 1928 0
 8592 0a56 0123     		movs	r3, #1
 8593 0a58 87F81031 		strb	r3, [r7, #272]
ARM GAS  C:\Users\RECEPC~1\AppData\Local\Temp\ccvg7Xyk.s 			page 187


1929:.\DisplayBLL.c ****         if(!_g_display2._starting)
 8594              		.loc 1 1929 0
 8595 0a5c 904B     		ldr	r3, .L311+12
 8596 0a5e 5B7B     		ldrb	r3, [r3, #13]	@ zero_extendqisi2
 8597 0a60 83F00103 		eor	r3, r3, #1
 8598 0a64 DBB2     		uxtb	r3, r3
 8599 0a66 002B     		cmp	r3, #0
 8600 0a68 64D0     		beq	.L294
1930:.\DisplayBLL.c ****         {
1931:.\DisplayBLL.c ****             if(FindSinkMessage(_g_printerlayout._printerportside2))
 8601              		.loc 1 1931 0
 8602 0a6a 8E4B     		ldr	r3, .L311+16
 8603 0a6c 5B78     		ldrb	r3, [r3, #1]	@ zero_extendqisi2
 8604 0a6e 1846     		mov	r0, r3
 8605 0a70 FFF7FEFF 		bl	FindSinkMessage
 8606 0a74 0346     		mov	r3, r0
 8607 0a76 002B     		cmp	r3, #0
 8608 0a78 2ED0     		beq	.L295
1932:.\DisplayBLL.c ****             {
1933:.\DisplayBLL.c ****                 puartdisp = GetUARTMessageSlot(UART_DISPLAY2);
 8609              		.loc 1 1933 0
 8610 0a7a A420     		movs	r0, #164
 8611 0a7c FFF7FEFF 		bl	GetUARTMessageSlot
 8612 0a80 C7F82801 		str	r0, [r7, #296]
1934:.\DisplayBLL.c ****                 if(puartdisp)
 8613              		.loc 1 1934 0
 8614 0a84 D7F82831 		ldr	r3, [r7, #296]
 8615 0a88 002B     		cmp	r3, #0
 8616 0a8a 53D0     		beq	.L294
 8617              	.LBB106:
1935:.\DisplayBLL.c ****                 {
1936:.\DisplayBLL.c ****                     PSTR ptxtbuffer = "Imprimiendo, por favor espere...";
 8618              		.loc 1 1936 0
 8619 0a8c 864B     		ldr	r3, .L311+20
 8620 0a8e C7F82431 		str	r3, [r7, #292]
1937:.\DisplayBLL.c ****                     puartdisp->_messagelength = DisplayOutputString(0x0B8, 0x1D0, puartdisp->_messa
 8621              		.loc 1 1937 0
 8622 0a92 D7F82831 		ldr	r3, [r7, #296]
 8623 0a96 1C1D     		adds	r4, r3, #4
 8624 0a98 D7F82401 		ldr	r0, [r7, #292]
 8625 0a9c FFF7FEFF 		bl	strlen
 8626 0aa0 0346     		mov	r3, r0
 8627 0aa2 9BB2     		uxth	r3, r3
 8628 0aa4 0093     		str	r3, [sp]
 8629 0aa6 01AA     		add	r2, sp, #4
 8630 0aa8 07F58873 		add	r3, r7, #272
 8631 0aac 93E80300 		ldmia	r3, {r0, r1}
 8632 0ab0 82E80300 		stmia	r2, {r0, r1}
 8633 0ab4 B820     		movs	r0, #184
 8634 0ab6 4FF4E871 		mov	r1, #464
 8635 0aba 2246     		mov	r2, r4
 8636 0abc D7F82431 		ldr	r3, [r7, #292]
 8637 0ac0 FFF7FEFF 		bl	DisplayOutputString
 8638 0ac4 0346     		mov	r3, r0
 8639 0ac6 1A46     		mov	r2, r3
 8640 0ac8 D7F82831 		ldr	r3, [r7, #296]
 8641 0acc 5A80     		strh	r2, [r3, #2]	@ movhi
ARM GAS  C:\Users\RECEPC~1\AppData\Local\Temp\ccvg7Xyk.s 			page 188


1938:.\DisplayBLL.c ****                     puartdisp->_messagestate = PENDING;
 8642              		.loc 1 1938 0
 8643 0ace D7F82831 		ldr	r3, [r7, #296]
 8644 0ad2 C222     		movs	r2, #194
 8645 0ad4 1A70     		strb	r2, [r3]
 8646 0ad6 2DE0     		b	.L294
 8647              	.L295:
 8648              	.LBE106:
1939:.\DisplayBLL.c ****                 }
1940:.\DisplayBLL.c ****             }
1941:.\DisplayBLL.c ****             else
1942:.\DisplayBLL.c ****             {
1943:.\DisplayBLL.c ****                 puartdisp = GetUARTMessageSlot(UART_DISPLAY2);
 8649              		.loc 1 1943 0
 8650 0ad8 A420     		movs	r0, #164
 8651 0ada FFF7FEFF 		bl	GetUARTMessageSlot
 8652 0ade C7F82801 		str	r0, [r7, #296]
1944:.\DisplayBLL.c ****                 if(puartdisp)
 8653              		.loc 1 1944 0
 8654 0ae2 D7F82831 		ldr	r3, [r7, #296]
 8655 0ae6 002B     		cmp	r3, #0
 8656 0ae8 24D0     		beq	.L294
 8657              	.LBB107:
1945:.\DisplayBLL.c ****                 {
1946:.\DisplayBLL.c ****                     uint8 ptxtbuffer[0x20];
1947:.\DisplayBLL.c ****                     memset(ptxtbuffer, 0x00, 0x20);
 8658              		.loc 1 1947 0
 8659 0aea 07F10803 		add	r3, r7, #8
 8660 0aee 1846     		mov	r0, r3
 8661 0af0 0021     		movs	r1, #0
 8662 0af2 2022     		movs	r2, #32
 8663 0af4 FFF7FEFF 		bl	memset
1948:.\DisplayBLL.c ****                     puartdisp->_messagelength = DisplayOutputString(0x0B8, 0x1D0, puartdisp->_messa
 8664              		.loc 1 1948 0
 8665 0af8 D7F82831 		ldr	r3, [r7, #296]
 8666 0afc 1D1D     		adds	r5, r3, #4
 8667 0afe 07F10804 		add	r4, r7, #8
 8668 0b02 2023     		movs	r3, #32
 8669 0b04 0093     		str	r3, [sp]
 8670 0b06 01AA     		add	r2, sp, #4
 8671 0b08 07F58873 		add	r3, r7, #272
 8672 0b0c 93E80300 		ldmia	r3, {r0, r1}
 8673 0b10 82E80300 		stmia	r2, {r0, r1}
 8674 0b14 B820     		movs	r0, #184
 8675 0b16 4FF4E871 		mov	r1, #464
 8676 0b1a 2A46     		mov	r2, r5
 8677 0b1c 2346     		mov	r3, r4
 8678 0b1e FFF7FEFF 		bl	DisplayOutputString
 8679 0b22 0346     		mov	r3, r0
 8680 0b24 1A46     		mov	r2, r3
 8681 0b26 D7F82831 		ldr	r3, [r7, #296]
 8682 0b2a 5A80     		strh	r2, [r3, #2]	@ movhi
1949:.\DisplayBLL.c ****                     puartdisp->_messagestate = PENDING;
 8683              		.loc 1 1949 0
 8684 0b2c D7F82831 		ldr	r3, [r7, #296]
 8685 0b30 C222     		movs	r2, #194
 8686 0b32 1A70     		strb	r2, [r3]
ARM GAS  C:\Users\RECEPC~1\AppData\Local\Temp\ccvg7Xyk.s 			page 189


 8687              	.L294:
 8688              	.LBE107:
1950:.\DisplayBLL.c ****                 }
1951:.\DisplayBLL.c ****             }
1952:.\DisplayBLL.c ****         }
1953:.\DisplayBLL.c ****         
1954:.\DisplayBLL.c ****         if(_g_dispenserlayoutinfo._inconfiguration)
 8689              		.loc 1 1954 0
 8690 0b34 5D4B     		ldr	r3, .L311+24
 8691 0b36 1B78     		ldrb	r3, [r3]
 8692 0b38 DBB2     		uxtb	r3, r3
 8693 0b3a 002B     		cmp	r3, #0
 8694 0b3c 72D0     		beq	.L297
1955:.\DisplayBLL.c ****         {
1956:.\DisplayBLL.c ****             puartdisp = GetUARTMessageSlot(UART_DISPLAY2);
 8695              		.loc 1 1956 0
 8696 0b3e A420     		movs	r0, #164
 8697 0b40 FFF7FEFF 		bl	GetUARTMessageSlot
 8698 0b44 C7F82801 		str	r0, [r7, #296]
1957:.\DisplayBLL.c ****             if(puartdisp)
 8699              		.loc 1 1957 0
 8700 0b48 D7F82831 		ldr	r3, [r7, #296]
 8701 0b4c 002B     		cmp	r3, #0
 8702 0b4e 00F0EB80 		beq	.L251
1958:.\DisplayBLL.c ****             {
1959:.\DisplayBLL.c ****                 if(_g_dispenserlayoutinfo._currentloopopen)
 8703              		.loc 1 1959 0
 8704 0b52 564B     		ldr	r3, .L311+24
 8705 0b54 5B78     		ldrb	r3, [r3, #1]
 8706 0b56 DBB2     		uxtb	r3, r3
 8707 0b58 002B     		cmp	r3, #0
 8708 0b5a 2FD0     		beq	.L299
 8709              	.LBB108:
1960:.\DisplayBLL.c ****                 {
1961:.\DisplayBLL.c ****                     PSTR ptxtbuffer = "<<** LAZO DE CORRIENTE ABIERTO! **>>";
 8710              		.loc 1 1961 0
 8711 0b5c 544B     		ldr	r3, .L311+28
 8712 0b5e C7F82031 		str	r3, [r7, #288]
1962:.\DisplayBLL.c ****                     memcpy(puartdisp->_messagetx, ptxtbuffer, strlen(ptxtbuffer));
 8713              		.loc 1 1962 0
 8714 0b62 D7F82831 		ldr	r3, [r7, #296]
 8715 0b66 1C1D     		adds	r4, r3, #4
 8716 0b68 D7F82001 		ldr	r0, [r7, #288]
 8717 0b6c FFF7FEFF 		bl	strlen
 8718 0b70 0346     		mov	r3, r0
 8719 0b72 2046     		mov	r0, r4
 8720 0b74 D7F82011 		ldr	r1, [r7, #288]
 8721 0b78 1A46     		mov	r2, r3
 8722 0b7a FFF7FEFF 		bl	memcpy
1963:.\DisplayBLL.c ****                     puartdisp->_messagelength = DisplayOutputString(0x0B8, 0x1D0, puartdisp->_messa
 8723              		.loc 1 1963 0
 8724 0b7e D7F82831 		ldr	r3, [r7, #296]
 8725 0b82 1C1D     		adds	r4, r3, #4
 8726 0b84 D7F82001 		ldr	r0, [r7, #288]
 8727 0b88 FFF7FEFF 		bl	strlen
 8728 0b8c 0346     		mov	r3, r0
 8729 0b8e 9BB2     		uxth	r3, r3
ARM GAS  C:\Users\RECEPC~1\AppData\Local\Temp\ccvg7Xyk.s 			page 190


 8730 0b90 0093     		str	r3, [sp]
 8731 0b92 01AA     		add	r2, sp, #4
 8732 0b94 07F58873 		add	r3, r7, #272
 8733 0b98 93E80300 		ldmia	r3, {r0, r1}
 8734 0b9c 82E80300 		stmia	r2, {r0, r1}
 8735 0ba0 B820     		movs	r0, #184
 8736 0ba2 4FF4E871 		mov	r1, #464
 8737 0ba6 2246     		mov	r2, r4
 8738 0ba8 D7F82031 		ldr	r3, [r7, #288]
 8739 0bac FFF7FEFF 		bl	DisplayOutputString
 8740 0bb0 0346     		mov	r3, r0
 8741 0bb2 1A46     		mov	r2, r3
 8742 0bb4 D7F82831 		ldr	r3, [r7, #296]
 8743 0bb8 5A80     		strh	r2, [r3, #2]	@ movhi
 8744              	.LBE108:
 8745 0bba 2EE0     		b	.L300
 8746              	.L299:
 8747              	.LBB109:
1964:.\DisplayBLL.c ****                 }
1965:.\DisplayBLL.c ****                 else
1966:.\DisplayBLL.c ****                 {
1967:.\DisplayBLL.c ****                     PSTR ptxtbuffer = "Configurando, por favor espere.....";
 8748              		.loc 1 1967 0
 8749 0bbc 3D4B     		ldr	r3, .L311+32
 8750 0bbe C7F81C31 		str	r3, [r7, #284]
1968:.\DisplayBLL.c ****                     memcpy(puartdisp->_messagetx, ptxtbuffer, strlen(ptxtbuffer));
 8751              		.loc 1 1968 0
 8752 0bc2 D7F82831 		ldr	r3, [r7, #296]
 8753 0bc6 1C1D     		adds	r4, r3, #4
 8754 0bc8 D7F81C01 		ldr	r0, [r7, #284]
 8755 0bcc FFF7FEFF 		bl	strlen
 8756 0bd0 0346     		mov	r3, r0
 8757 0bd2 2046     		mov	r0, r4
 8758 0bd4 D7F81C11 		ldr	r1, [r7, #284]
 8759 0bd8 1A46     		mov	r2, r3
 8760 0bda FFF7FEFF 		bl	memcpy
1969:.\DisplayBLL.c ****                     puartdisp->_messagelength = DisplayOutputString(0x0B8, 0x1D0, puartdisp->_messa
 8761              		.loc 1 1969 0
 8762 0bde D7F82831 		ldr	r3, [r7, #296]
 8763 0be2 1C1D     		adds	r4, r3, #4
 8764 0be4 D7F81C01 		ldr	r0, [r7, #284]
 8765 0be8 FFF7FEFF 		bl	strlen
 8766 0bec 0346     		mov	r3, r0
 8767 0bee 9BB2     		uxth	r3, r3
 8768 0bf0 0093     		str	r3, [sp]
 8769 0bf2 01AA     		add	r2, sp, #4
 8770 0bf4 07F58873 		add	r3, r7, #272
 8771 0bf8 93E80300 		ldmia	r3, {r0, r1}
 8772 0bfc 82E80300 		stmia	r2, {r0, r1}
 8773 0c00 B820     		movs	r0, #184
 8774 0c02 4FF4E871 		mov	r1, #464
 8775 0c06 2246     		mov	r2, r4
 8776 0c08 D7F81C31 		ldr	r3, [r7, #284]
 8777 0c0c FFF7FEFF 		bl	DisplayOutputString
 8778 0c10 0346     		mov	r3, r0
 8779 0c12 1A46     		mov	r2, r3
 8780 0c14 D7F82831 		ldr	r3, [r7, #296]
ARM GAS  C:\Users\RECEPC~1\AppData\Local\Temp\ccvg7Xyk.s 			page 191


 8781 0c18 5A80     		strh	r2, [r3, #2]	@ movhi
 8782              	.L300:
 8783              	.LBE109:
1970:.\DisplayBLL.c ****                 }
1971:.\DisplayBLL.c ****                 puartdisp->_messagestate = PENDING;
 8784              		.loc 1 1971 0
 8785 0c1a D7F82831 		ldr	r3, [r7, #296]
 8786 0c1e C222     		movs	r2, #194
 8787 0c20 1A70     		strb	r2, [r3]
 8788 0c22 81E0     		b	.L251
 8789              	.L297:
1972:.\DisplayBLL.c ****             }
1973:.\DisplayBLL.c ****         }
1974:.\DisplayBLL.c ****         else if(!_g_configured[0x01])
 8790              		.loc 1 1974 0
 8791 0c24 244B     		ldr	r3, .L311+36
 8792 0c26 5B78     		ldrb	r3, [r3, #1]	@ zero_extendqisi2
 8793 0c28 83F00103 		eor	r3, r3, #1
 8794 0c2c DBB2     		uxtb	r3, r3
 8795 0c2e 002B     		cmp	r3, #0
 8796 0c30 7AD0     		beq	.L251
1975:.\DisplayBLL.c ****         {
1976:.\DisplayBLL.c ****             puartdisp = GetUARTMessageSlot(UART_DISPLAY2);
 8797              		.loc 1 1976 0
 8798 0c32 A420     		movs	r0, #164
 8799 0c34 FFF7FEFF 		bl	GetUARTMessageSlot
 8800 0c38 C7F82801 		str	r0, [r7, #296]
1977:.\DisplayBLL.c ****             if(puartdisp)
 8801              		.loc 1 1977 0
 8802 0c3c D7F82831 		ldr	r3, [r7, #296]
 8803 0c40 002B     		cmp	r3, #0
 8804 0c42 6ED0     		beq	.L302
 8805              	.LBB110:
1978:.\DisplayBLL.c ****             {
1979:.\DisplayBLL.c ****                 char8 txtbuffer[0x28];
1980:.\DisplayBLL.c ****                 memset(txtbuffer, 0x20, 0x28);
 8806              		.loc 1 1980 0
 8807 0c44 07F10803 		add	r3, r7, #8
 8808 0c48 1846     		mov	r0, r3
 8809 0c4a 2021     		movs	r1, #32
 8810 0c4c 2822     		movs	r2, #40
 8811 0c4e FFF7FEFF 		bl	memset
1981:.\DisplayBLL.c ****                 memcpy(puartdisp->_messagetx, txtbuffer, strlen(txtbuffer));
 8812              		.loc 1 1981 0
 8813 0c52 D7F82831 		ldr	r3, [r7, #296]
 8814 0c56 1C1D     		adds	r4, r3, #4
 8815 0c58 07F10803 		add	r3, r7, #8
 8816 0c5c 1846     		mov	r0, r3
 8817 0c5e FFF7FEFF 		bl	strlen
 8818 0c62 0246     		mov	r2, r0
 8819 0c64 07F10803 		add	r3, r7, #8
 8820 0c68 2046     		mov	r0, r4
 8821 0c6a 1946     		mov	r1, r3
 8822 0c6c FFF7FEFF 		bl	memcpy
1982:.\DisplayBLL.c ****                 if(_g_dispenserlayoutinfo._numpositions == 0x04)
 8823              		.loc 1 1982 0
 8824 0c70 0E4B     		ldr	r3, .L311+24
ARM GAS  C:\Users\RECEPC~1\AppData\Local\Temp\ccvg7Xyk.s 			page 192


 8825 0c72 9B78     		ldrb	r3, [r3, #2]	@ zero_extendqisi2
 8826 0c74 042B     		cmp	r3, #4
 8827 0c76 23D1     		bne	.L303
1983:.\DisplayBLL.c ****                     sprintf(txtbuffer, "Welcome to INSEPET GVR PRIME QUATTRO!  ");
 8828              		.loc 1 1983 0
 8829 0c78 07F10803 		add	r3, r7, #8
 8830 0c7c 0F4A     		ldr	r2, .L311+40
 8831 0c7e 1C46     		mov	r4, r3
 8832 0c80 1546     		mov	r5, r2
 8833 0c82 0FCD     		ldmia	r5!, {r0, r1, r2, r3}
 8834 0c84 0FC4     		stmia	r4!, {r0, r1, r2, r3}
 8835 0c86 0FCD     		ldmia	r5!, {r0, r1, r2, r3}
 8836 0c88 0FC4     		stmia	r4!, {r0, r1, r2, r3}
 8837 0c8a 95E80300 		ldmia	r5, {r0, r1}
 8838 0c8e 84E80300 		stmia	r4, {r0, r1}
 8839 0c92 22E0     		b	.L304
 8840              	.L312:
 8841              		.align	2
 8842              	.L311:
 8843 0c94 38000000 		.word	.LC0
 8844 0c98 2C020000 		.word	.LC10
 8845 0c9c 00000000 		.word	_g_homeanimarray
 8846 0ca0 00000000 		.word	_g_display2
 8847 0ca4 00000000 		.word	_g_printerlayout
 8848 0ca8 64010000 		.word	.LC19
 8849 0cac 00000000 		.word	_g_dispenserlayoutinfo
 8850 0cb0 88010000 		.word	.LC20
 8851 0cb4 B0010000 		.word	.LC21
 8852 0cb8 00000000 		.word	_g_configured
 8853 0cbc 3C020000 		.word	.LC22
 8854              	.L303:
1984:.\DisplayBLL.c ****                 else
1985:.\DisplayBLL.c ****                     sprintf(txtbuffer, "Welcome to INSEPET GVR PRIME/ENCORE DUPLA!   ");
 8855              		.loc 1 1985 0
 8856 0cc0 07F10803 		add	r3, r7, #8
 8857 0cc4 1A4A     		ldr	r2, .L313
 8858 0cc6 1C46     		mov	r4, r3
 8859 0cc8 1546     		mov	r5, r2
 8860 0cca 0FCD     		ldmia	r5!, {r0, r1, r2, r3}
 8861 0ccc 0FC4     		stmia	r4!, {r0, r1, r2, r3}
 8862 0cce 0FCD     		ldmia	r5!, {r0, r1, r2, r3}
 8863 0cd0 0FC4     		stmia	r4!, {r0, r1, r2, r3}
 8864 0cd2 95E80F00 		ldmia	r5, {r0, r1, r2, r3}
 8865 0cd6 07C4     		stmia	r4!, {r0, r1, r2}
 8866 0cd8 2380     		strh	r3, [r4]	@ movhi
 8867              	.L304:
1986:.\DisplayBLL.c ****                     
1987:.\DisplayBLL.c ****                 puartdisp->_messagelength = DisplayOutputString(0x0A0, 0x1D0, puartdisp->_messagetx
 8868              		.loc 1 1987 0
 8869 0cda D7F82831 		ldr	r3, [r7, #296]
 8870 0cde 1D1D     		adds	r5, r3, #4
 8871 0ce0 07F10803 		add	r3, r7, #8
 8872 0ce4 1846     		mov	r0, r3
 8873 0ce6 FFF7FEFF 		bl	strlen
 8874 0cea 0346     		mov	r3, r0
 8875 0cec 9BB2     		uxth	r3, r3
 8876 0cee 07F10804 		add	r4, r7, #8
ARM GAS  C:\Users\RECEPC~1\AppData\Local\Temp\ccvg7Xyk.s 			page 193


 8877 0cf2 0093     		str	r3, [sp]
 8878 0cf4 01AA     		add	r2, sp, #4
 8879 0cf6 07F58873 		add	r3, r7, #272
 8880 0cfa 93E80300 		ldmia	r3, {r0, r1}
 8881 0cfe 82E80300 		stmia	r2, {r0, r1}
 8882 0d02 A020     		movs	r0, #160
 8883 0d04 4FF4E871 		mov	r1, #464
 8884 0d08 2A46     		mov	r2, r5
 8885 0d0a 2346     		mov	r3, r4
 8886 0d0c FFF7FEFF 		bl	DisplayOutputString
 8887 0d10 0346     		mov	r3, r0
 8888 0d12 1A46     		mov	r2, r3
 8889 0d14 D7F82831 		ldr	r3, [r7, #296]
 8890 0d18 5A80     		strh	r2, [r3, #2]	@ movhi
1988:.\DisplayBLL.c ****                 puartdisp->_messagestate = PENDING;
 8891              		.loc 1 1988 0
 8892 0d1a D7F82831 		ldr	r3, [r7, #296]
 8893 0d1e C222     		movs	r2, #194
 8894 0d20 1A70     		strb	r2, [r3]
 8895              	.L302:
 8896              	.LBE110:
1989:.\DisplayBLL.c ****             }
1990:.\DisplayBLL.c ****             _g_configured[0x01] = true;
 8897              		.loc 1 1990 0
 8898 0d22 044B     		ldr	r3, .L313+4
 8899 0d24 0122     		movs	r2, #1
 8900 0d26 5A70     		strb	r2, [r3, #1]
 8901              	.L251:
 8902              	.LBE97:
1991:.\DisplayBLL.c ****         }
1992:.\DisplayBLL.c **** 
1993:.\DisplayBLL.c ****     }
1994:.\DisplayBLL.c ****     
1995:.\DisplayBLL.c **** }
 8903              		.loc 1 1995 0
 8904 0d28 07F5A877 		add	r7, r7, #336
 8905              		.cfi_def_cfa_offset 16
 8906 0d2c BD46     		mov	sp, r7
 8907              		.cfi_def_cfa_register 13
 8908              		@ sp needed
 8909 0d2e B0BD     		pop	{r4, r5, r7, pc}
 8910              	.L314:
 8911              		.align	2
 8912              	.L313:
 8913 0d30 D4010000 		.word	.LC23
 8914 0d34 00000000 		.word	_g_configured
 8915              		.cfi_endproc
 8916              	.LFE95:
 8917              		.size	DisplayUpdateHomeAnimation, .-DisplayUpdateHomeAnimation
 8918              		.section	.text.PrintcopyReceipt,"ax",%progbits
 8919              		.align	2
 8920              		.global	PrintcopyReceipt
 8921              		.thumb
 8922              		.thumb_func
 8923              		.type	PrintcopyReceipt, %function
 8924              	PrintcopyReceipt:
 8925              	.LFB96:
ARM GAS  C:\Users\RECEPC~1\AppData\Local\Temp\ccvg7Xyk.s 			page 194


1996:.\DisplayBLL.c **** void PrintcopyReceipt(void *pparam)
1997:.\DisplayBLL.c **** {
 8926              		.loc 1 1997 0
 8927              		.cfi_startproc
 8928              		@ args = 0, pretend = 0, frame = 24
 8929              		@ frame_needed = 1, uses_anonymous_args = 0
 8930 0000 80B5     		push	{r7, lr}
 8931              		.cfi_def_cfa_offset 8
 8932              		.cfi_offset 7, -8
 8933              		.cfi_offset 14, -4
 8934 0002 86B0     		sub	sp, sp, #24
 8935              		.cfi_def_cfa_offset 32
 8936 0004 00AF     		add	r7, sp, #0
 8937              		.cfi_def_cfa_register 7
 8938 0006 7860     		str	r0, [r7, #4]
1998:.\DisplayBLL.c ****     PDISPLAYLAYOUTPTR pdisplay = (PDISPLAYLAYOUTPTR)pparam;
 8939              		.loc 1 1998 0
 8940 0008 7B68     		ldr	r3, [r7, #4]
 8941 000a 7B61     		str	r3, [r7, #20]
1999:.\DisplayBLL.c ****     //HERE WE ATTEMPT TO PUSH THE TRANSACTION INTO THE PUMP'S TRANSACTIONAL QUEUE.
2000:.\DisplayBLL.c ****     //THIS IS DONE ONLY IF THERE IS ROOM IN THE QUEUE, OTHERWISE THIS STATE WON'T
2001:.\DisplayBLL.c ****     //BE REPORTED TO THE REMOTE PEER.
2002:.\DisplayBLL.c ****     PNEAR_PUMPPTR ppumpptr = &_g_pumps[GetPumpIndexFromDisplay(pdisplay)];
 8942              		.loc 1 2002 0
 8943 000c 7869     		ldr	r0, [r7, #20]
 8944 000e FFF7FEFF 		bl	GetPumpIndexFromDisplay
 8945 0012 0346     		mov	r3, r0
 8946 0014 1A46     		mov	r2, r3
 8947 0016 4FF41963 		mov	r3, #2448
 8948 001a 03FB02F3 		mul	r3, r3, r2
 8949 001e 1F4A     		ldr	r2, .L317
 8950 0020 1344     		add	r3, r3, r2
 8951 0022 3B61     		str	r3, [r7, #16]
2003:.\DisplayBLL.c ****     if(ppumpptr)
 8952              		.loc 1 2003 0
 8953 0024 3B69     		ldr	r3, [r7, #16]
 8954 0026 002B     		cmp	r3, #0
 8955 0028 35D0     		beq	.L315
 8956              	.LBB111:
2004:.\DisplayBLL.c ****     {
2005:.\DisplayBLL.c ****         ppumpptr->PumpTransQueueLock(ppumpptr);
 8957              		.loc 1 2005 0
 8958 002a 3B69     		ldr	r3, [r7, #16]
 8959 002c D3F80C39 		ldr	r3, [r3, #2316]
 8960 0030 3869     		ldr	r0, [r7, #16]
 8961 0032 9847     		blx	r3
2006:.\DisplayBLL.c ****         PNEAR_PUMPTRANSACTIONALSTATEPTR pts = ppumpptr->PumpTransQueueAllocate(ppumpptr);
 8962              		.loc 1 2006 0
 8963 0034 3B69     		ldr	r3, [r7, #16]
 8964 0036 D3F82039 		ldr	r3, [r3, #2336]
 8965 003a 3869     		ldr	r0, [r7, #16]
 8966 003c 9847     		blx	r3
 8967 003e F860     		str	r0, [r7, #12]
2007:.\DisplayBLL.c ****         ppumpptr->PumpTransQueueUnlock(ppumpptr);
 8968              		.loc 1 2007 0
 8969 0040 3B69     		ldr	r3, [r7, #16]
 8970 0042 D3F81039 		ldr	r3, [r3, #2320]
ARM GAS  C:\Users\RECEPC~1\AppData\Local\Temp\ccvg7Xyk.s 			page 195


 8971 0046 3869     		ldr	r0, [r7, #16]
 8972 0048 9847     		blx	r3
2008:.\DisplayBLL.c ****         if(pts)
 8973              		.loc 1 2008 0
 8974 004a FB68     		ldr	r3, [r7, #12]
 8975 004c 002B     		cmp	r3, #0
 8976 004e 22D0     		beq	.L315
 8977              	.LBB112:
2009:.\DisplayBLL.c ****         {
2010:.\DisplayBLL.c ****             uint8 index = 0;
 8978              		.loc 1 2010 0
 8979 0050 0023     		movs	r3, #0
 8980 0052 FB72     		strb	r3, [r7, #11]
2011:.\DisplayBLL.c ****             pts->_transtate = RF_MUX_COPY_REQUEST;
 8981              		.loc 1 2011 0
 8982 0054 FB68     		ldr	r3, [r7, #12]
 8983 0056 E622     		movs	r2, #230
 8984 0058 5A70     		strb	r2, [r3, #1]
2012:.\DisplayBLL.c ****             pts->_buffer[index++] = ppumpptr->_pumpid;
 8985              		.loc 1 2012 0
 8986 005a FB7A     		ldrb	r3, [r7, #11]	@ zero_extendqisi2
 8987 005c 5A1C     		adds	r2, r3, #1
 8988 005e FA72     		strb	r2, [r7, #11]
 8989 0060 1946     		mov	r1, r3
 8990 0062 3B69     		ldr	r3, [r7, #16]
 8991 0064 1A78     		ldrb	r2, [r3]	@ zero_extendqisi2
 8992 0066 FB68     		ldr	r3, [r7, #12]
 8993 0068 0B44     		add	r3, r3, r1
 8994 006a 9A70     		strb	r2, [r3, #2]
2013:.\DisplayBLL.c ****             pts->_buffersize = index;
 8995              		.loc 1 2013 0
 8996 006c FB7A     		ldrb	r3, [r7, #11]	@ zero_extendqisi2
 8997 006e 9AB2     		uxth	r2, r3
 8998 0070 FB68     		ldr	r3, [r7, #12]
 8999 0072 A3F80221 		strh	r2, [r3, #258]	@ movhi
2014:.\DisplayBLL.c ****             ppumpptr->PumpTransQueueLock(ppumpptr);
 9000              		.loc 1 2014 0
 9001 0076 3B69     		ldr	r3, [r7, #16]
 9002 0078 D3F80C39 		ldr	r3, [r3, #2316]
 9003 007c 3869     		ldr	r0, [r7, #16]
 9004 007e 9847     		blx	r3
2015:.\DisplayBLL.c ****             ppumpptr->PumpTransQueueEnqueue(ppumpptr, pts);
 9005              		.loc 1 2015 0
 9006 0080 3B69     		ldr	r3, [r7, #16]
 9007 0082 D3F81839 		ldr	r3, [r3, #2328]
 9008 0086 3869     		ldr	r0, [r7, #16]
 9009 0088 F968     		ldr	r1, [r7, #12]
 9010 008a 9847     		blx	r3
2016:.\DisplayBLL.c ****             ppumpptr->PumpTransQueueUnlock(ppumpptr);
 9011              		.loc 1 2016 0
 9012 008c 3B69     		ldr	r3, [r7, #16]
 9013 008e D3F81039 		ldr	r3, [r3, #2320]
 9014 0092 3869     		ldr	r0, [r7, #16]
 9015 0094 9847     		blx	r3
 9016              	.L315:
 9017              	.LBE112:
 9018              	.LBE111:
ARM GAS  C:\Users\RECEPC~1\AppData\Local\Temp\ccvg7Xyk.s 			page 196


2017:.\DisplayBLL.c ****         }
2018:.\DisplayBLL.c ****     }
2019:.\DisplayBLL.c **** }
 9019              		.loc 1 2019 0
 9020 0096 1837     		adds	r7, r7, #24
 9021              		.cfi_def_cfa_offset 8
 9022 0098 BD46     		mov	sp, r7
 9023              		.cfi_def_cfa_register 13
 9024              		@ sp needed
 9025 009a 80BD     		pop	{r7, pc}
 9026              	.L318:
 9027              		.align	2
 9028              	.L317:
 9029 009c 00000000 		.word	_g_pumps
 9030              		.cfi_endproc
 9031              	.LFE96:
 9032              		.size	PrintcopyReceipt, .-PrintcopyReceipt
 9033              		.section	.text.PrintersWorking,"ax",%progbits
 9034              		.align	2
 9035              		.global	PrintersWorking
 9036              		.thumb
 9037              		.thumb_func
 9038              		.type	PrintersWorking, %function
 9039              	PrintersWorking:
 9040              	.LFB97:
2020:.\DisplayBLL.c **** 
2021:.\DisplayBLL.c **** 
2022:.\DisplayBLL.c **** void PrintersWorking(void *pparam)
2023:.\DisplayBLL.c **** {
 9041              		.loc 1 2023 0
 9042              		.cfi_startproc
 9043              		@ args = 0, pretend = 0, frame = 16
 9044              		@ frame_needed = 1, uses_anonymous_args = 0
 9045 0000 80B5     		push	{r7, lr}
 9046              		.cfi_def_cfa_offset 8
 9047              		.cfi_offset 7, -8
 9048              		.cfi_offset 14, -4
 9049 0002 84B0     		sub	sp, sp, #16
 9050              		.cfi_def_cfa_offset 24
 9051 0004 00AF     		add	r7, sp, #0
 9052              		.cfi_def_cfa_register 7
 9053 0006 7860     		str	r0, [r7, #4]
2024:.\DisplayBLL.c ****     PDISPLAYLAYOUTPTR pdisplay = (PDISPLAYLAYOUTPTR)pparam;
 9054              		.loc 1 2024 0
 9055 0008 7B68     		ldr	r3, [r7, #4]
 9056 000a FB60     		str	r3, [r7, #12]
2025:.\DisplayBLL.c ****     //Entering here means that both printers are ok
2026:.\DisplayBLL.c ****     if(pdisplay->_currscrcode == 0x39)
 9057              		.loc 1 2026 0
 9058 000c FB68     		ldr	r3, [r7, #12]
 9059 000e DB78     		ldrb	r3, [r3, #3]	@ zero_extendqisi2
 9060 0010 392B     		cmp	r3, #57
 9061 0012 1DD1     		bne	.L319
2027:.\DisplayBLL.c ****     {
2028:.\DisplayBLL.c ****         //This is the default printer port allocation
2029:.\DisplayBLL.c ****         _g_printerlayout._printerportside1 = PRINTER11_JOB;
 9062              		.loc 1 2029 0
ARM GAS  C:\Users\RECEPC~1\AppData\Local\Temp\ccvg7Xyk.s 			page 197


 9063 0014 104B     		ldr	r3, .L321
 9064 0016 1622     		movs	r2, #22
 9065 0018 1A70     		strb	r2, [r3]
2030:.\DisplayBLL.c ****         _g_printerlayout._printerportside2 = PRINTER21_JOB;
 9066              		.loc 1 2030 0
 9067 001a 0F4B     		ldr	r3, .L321
 9068 001c 1822     		movs	r2, #24
 9069 001e 5A70     		strb	r2, [r3, #1]
2031:.\DisplayBLL.c ****         
2032:.\DisplayBLL.c ****         ClearEepromBuffer();
 9070              		.loc 1 2032 0
 9071 0020 FFF7FEFF 		bl	ClearEepromBuffer
2033:.\DisplayBLL.c ****         LoadEepromPage(EEPROM_CONFIGURATION_PAGE7);
 9072              		.loc 1 2033 0
 9073 0024 4FF4E070 		mov	r0, #448
 9074 0028 FFF7FEFF 		bl	LoadEepromPage
2034:.\DisplayBLL.c ****         //Dispenser Pumps Offset is stored at position 0x09 in this memory area (see Eeprom.h)
2035:.\DisplayBLL.c ****         //Printer port #1
2036:.\DisplayBLL.c ****         GetEepromBuffer()[0x0B] = _g_printerlayout._printerportside1;
 9075              		.loc 1 2036 0
 9076 002c FFF7FEFF 		bl	GetEepromBuffer
 9077 0030 0346     		mov	r3, r0
 9078 0032 0B33     		adds	r3, r3, #11
 9079 0034 084A     		ldr	r2, .L321
 9080 0036 1278     		ldrb	r2, [r2]	@ zero_extendqisi2
 9081 0038 1A70     		strb	r2, [r3]
2037:.\DisplayBLL.c ****         //Printer port #2
2038:.\DisplayBLL.c ****         GetEepromBuffer()[0x0C] = _g_printerlayout._printerportside2;
 9082              		.loc 1 2038 0
 9083 003a FFF7FEFF 		bl	GetEepromBuffer
 9084 003e 0346     		mov	r3, r0
 9085 0040 0C33     		adds	r3, r3, #12
 9086 0042 054A     		ldr	r2, .L321
 9087 0044 5278     		ldrb	r2, [r2, #1]	@ zero_extendqisi2
 9088 0046 1A70     		strb	r2, [r3]
2039:.\DisplayBLL.c **** 
2040:.\DisplayBLL.c ****         StoreEepromPage(EEPROM_CONFIGURATION_PAGE7);
 9089              		.loc 1 2040 0
 9090 0048 4FF4E070 		mov	r0, #448
 9091 004c FFF7FEFF 		bl	StoreEepromPage
 9092              	.L319:
2041:.\DisplayBLL.c ****                 
2042:.\DisplayBLL.c ****     }
2043:.\DisplayBLL.c **** }
 9093              		.loc 1 2043 0
 9094 0050 1037     		adds	r7, r7, #16
 9095              		.cfi_def_cfa_offset 8
 9096 0052 BD46     		mov	sp, r7
 9097              		.cfi_def_cfa_register 13
 9098              		@ sp needed
 9099 0054 80BD     		pop	{r7, pc}
 9100              	.L322:
 9101 0056 00BF     		.align	2
 9102              	.L321:
 9103 0058 00000000 		.word	_g_printerlayout
 9104              		.cfi_endproc
 9105              	.LFE97:
ARM GAS  C:\Users\RECEPC~1\AppData\Local\Temp\ccvg7Xyk.s 			page 198


 9106              		.size	PrintersWorking, .-PrintersWorking
 9107              		.section	.text.EitherPrinterWorking,"ax",%progbits
 9108              		.align	2
 9109              		.global	EitherPrinterWorking
 9110              		.thumb
 9111              		.thumb_func
 9112              		.type	EitherPrinterWorking, %function
 9113              	EitherPrinterWorking:
 9114              	.LFB98:
2044:.\DisplayBLL.c **** 
2045:.\DisplayBLL.c **** void EitherPrinterWorking(void *pparam)
2046:.\DisplayBLL.c **** {
 9115              		.loc 1 2046 0
 9116              		.cfi_startproc
 9117              		@ args = 0, pretend = 0, frame = 16
 9118              		@ frame_needed = 1, uses_anonymous_args = 0
 9119 0000 80B5     		push	{r7, lr}
 9120              		.cfi_def_cfa_offset 8
 9121              		.cfi_offset 7, -8
 9122              		.cfi_offset 14, -4
 9123 0002 84B0     		sub	sp, sp, #16
 9124              		.cfi_def_cfa_offset 24
 9125 0004 00AF     		add	r7, sp, #0
 9126              		.cfi_def_cfa_register 7
 9127 0006 7860     		str	r0, [r7, #4]
2047:.\DisplayBLL.c ****     PDISPLAYLAYOUTPTR pdisplay = (PDISPLAYLAYOUTPTR)pparam;
 9128              		.loc 1 2047 0
 9129 0008 7B68     		ldr	r3, [r7, #4]
 9130 000a FB60     		str	r3, [r7, #12]
2048:.\DisplayBLL.c ****     switch(pdisplay->_currscrcode)
 9131              		.loc 1 2048 0
 9132 000c FB68     		ldr	r3, [r7, #12]
 9133 000e DB78     		ldrb	r3, [r3, #3]	@ zero_extendqisi2
 9134 0010 8C2B     		cmp	r3, #140
 9135 0012 02D0     		beq	.L325
 9136 0014 8D2B     		cmp	r3, #141
 9137 0016 07D0     		beq	.L326
 9138 0018 0DE0     		b	.L324
 9139              	.L325:
2049:.\DisplayBLL.c ****     {
2050:.\DisplayBLL.c ****         case 0x8C://Printer #1 not working, then redirect printer jobs to printer #2
2051:.\DisplayBLL.c ****         {
2052:.\DisplayBLL.c ****             _g_printerlayout._printerportside1 = PRINTER21_JOB;
 9140              		.loc 1 2052 0
 9141 001a 144B     		ldr	r3, .L327
 9142 001c 1822     		movs	r2, #24
 9143 001e 1A70     		strb	r2, [r3]
2053:.\DisplayBLL.c ****             _g_printerlayout._printerportside2 = PRINTER21_JOB;
 9144              		.loc 1 2053 0
 9145 0020 124B     		ldr	r3, .L327
 9146 0022 1822     		movs	r2, #24
 9147 0024 5A70     		strb	r2, [r3, #1]
2054:.\DisplayBLL.c ****             break;
 9148              		.loc 1 2054 0
 9149 0026 06E0     		b	.L324
 9150              	.L326:
2055:.\DisplayBLL.c ****         }
ARM GAS  C:\Users\RECEPC~1\AppData\Local\Temp\ccvg7Xyk.s 			page 199


2056:.\DisplayBLL.c ****         case 0x8D://Printer #2 not working, then redirect printer jobs to printer #1
2057:.\DisplayBLL.c ****         {
2058:.\DisplayBLL.c ****             _g_printerlayout._printerportside1 = PRINTER11_JOB;
 9151              		.loc 1 2058 0
 9152 0028 104B     		ldr	r3, .L327
 9153 002a 1622     		movs	r2, #22
 9154 002c 1A70     		strb	r2, [r3]
2059:.\DisplayBLL.c ****             _g_printerlayout._printerportside2 = PRINTER11_JOB;
 9155              		.loc 1 2059 0
 9156 002e 0F4B     		ldr	r3, .L327
 9157 0030 1622     		movs	r2, #22
 9158 0032 5A70     		strb	r2, [r3, #1]
2060:.\DisplayBLL.c ****             break;
 9159              		.loc 1 2060 0
 9160 0034 00BF     		nop
 9161              	.L324:
2061:.\DisplayBLL.c ****         }
2062:.\DisplayBLL.c ****     }
2063:.\DisplayBLL.c ****     ClearEepromBuffer();
 9162              		.loc 1 2063 0
 9163 0036 FFF7FEFF 		bl	ClearEepromBuffer
2064:.\DisplayBLL.c ****     LoadEepromPage(EEPROM_CONFIGURATION_PAGE7);
 9164              		.loc 1 2064 0
 9165 003a 4FF4E070 		mov	r0, #448
 9166 003e FFF7FEFF 		bl	LoadEepromPage
2065:.\DisplayBLL.c ****     //Dispenser Pumps Offset is stored at position 0x09 in this memory area (see Eeprom.h)
2066:.\DisplayBLL.c ****     //Printer port #1
2067:.\DisplayBLL.c ****     GetEepromBuffer()[0x0B] = _g_printerlayout._printerportside1;
 9167              		.loc 1 2067 0
 9168 0042 FFF7FEFF 		bl	GetEepromBuffer
 9169 0046 0346     		mov	r3, r0
 9170 0048 0B33     		adds	r3, r3, #11
 9171 004a 084A     		ldr	r2, .L327
 9172 004c 1278     		ldrb	r2, [r2]	@ zero_extendqisi2
 9173 004e 1A70     		strb	r2, [r3]
2068:.\DisplayBLL.c ****     //Printer port #2
2069:.\DisplayBLL.c ****     GetEepromBuffer()[0x0C] = _g_printerlayout._printerportside2;
 9174              		.loc 1 2069 0
 9175 0050 FFF7FEFF 		bl	GetEepromBuffer
 9176 0054 0346     		mov	r3, r0
 9177 0056 0C33     		adds	r3, r3, #12
 9178 0058 044A     		ldr	r2, .L327
 9179 005a 5278     		ldrb	r2, [r2, #1]	@ zero_extendqisi2
 9180 005c 1A70     		strb	r2, [r3]
2070:.\DisplayBLL.c **** 
2071:.\DisplayBLL.c ****     StoreEepromPage(EEPROM_CONFIGURATION_PAGE7);
 9181              		.loc 1 2071 0
 9182 005e 4FF4E070 		mov	r0, #448
 9183 0062 FFF7FEFF 		bl	StoreEepromPage
2072:.\DisplayBLL.c **** }
 9184              		.loc 1 2072 0
 9185 0066 1037     		adds	r7, r7, #16
 9186              		.cfi_def_cfa_offset 8
 9187 0068 BD46     		mov	sp, r7
 9188              		.cfi_def_cfa_register 13
 9189              		@ sp needed
 9190 006a 80BD     		pop	{r7, pc}
ARM GAS  C:\Users\RECEPC~1\AppData\Local\Temp\ccvg7Xyk.s 			page 200


 9191              	.L328:
 9192              		.align	2
 9193              	.L327:
 9194 006c 00000000 		.word	_g_printerlayout
 9195              		.cfi_endproc
 9196              	.LFE98:
 9197              		.size	EitherPrinterWorking, .-EitherPrinterWorking
 9198              		.section	.text.DisplayGenericValidator,"ax",%progbits
 9199              		.align	2
 9200              		.global	DisplayGenericValidator
 9201              		.thumb
 9202              		.thumb_func
 9203              		.type	DisplayGenericValidator, %function
 9204              	DisplayGenericValidator:
 9205              	.LFB99:
2073:.\DisplayBLL.c **** 
2074:.\DisplayBLL.c **** bool DisplayGenericValidator(LPVOID pparam)
2075:.\DisplayBLL.c **** {
 9206              		.loc 1 2075 0
 9207              		.cfi_startproc
 9208              		@ args = 0, pretend = 0, frame = 24
 9209              		@ frame_needed = 1, uses_anonymous_args = 0
 9210 0000 80B5     		push	{r7, lr}
 9211              		.cfi_def_cfa_offset 8
 9212              		.cfi_offset 7, -8
 9213              		.cfi_offset 14, -4
 9214 0002 86B0     		sub	sp, sp, #24
 9215              		.cfi_def_cfa_offset 32
 9216 0004 00AF     		add	r7, sp, #0
 9217              		.cfi_def_cfa_register 7
 9218 0006 7860     		str	r0, [r7, #4]
2076:.\DisplayBLL.c ****     bool retval = false;
 9219              		.loc 1 2076 0
 9220 0008 0023     		movs	r3, #0
 9221 000a FB75     		strb	r3, [r7, #23]
2077:.\DisplayBLL.c ****     PDISPLAYLAYOUTPTR pdisplay = (PDISPLAYLAYOUTPTR)pparam;
 9222              		.loc 1 2077 0
 9223 000c 7B68     		ldr	r3, [r7, #4]
 9224 000e 3B61     		str	r3, [r7, #16]
2078:.\DisplayBLL.c ****     PSINKMESSAGEPTR psinkmsg = (PSINKMESSAGEPTR)pdisplay->_psequesteredmessagesink;
 9225              		.loc 1 2078 0
 9226 0010 3B69     		ldr	r3, [r7, #16]
 9227 0012 1B6B     		ldr	r3, [r3, #48]
 9228 0014 FB60     		str	r3, [r7, #12]
2079:.\DisplayBLL.c **** 
2080:.\DisplayBLL.c ****     uint8 pumpindex = GetPumpIndexFromDisplay(pparam);
 9229              		.loc 1 2080 0
 9230 0016 7868     		ldr	r0, [r7, #4]
 9231 0018 FFF7FEFF 		bl	GetPumpIndexFromDisplay
 9232 001c 0346     		mov	r3, r0
 9233 001e FB72     		strb	r3, [r7, #11]
2081:.\DisplayBLL.c **** 
2082:.\DisplayBLL.c ****     //If the current position isn't locked, then perform the check based on the RF link activity
2083:.\DisplayBLL.c ****     //to detect whether it is in "Autonomous Mode".
2084:.\DisplayBLL.c ****     if(!_g_pumps[pumpindex]._positionlocked)
 9234              		.loc 1 2084 0
 9235 0020 FB7A     		ldrb	r3, [r7, #11]	@ zero_extendqisi2
ARM GAS  C:\Users\RECEPC~1\AppData\Local\Temp\ccvg7Xyk.s 			page 201


 9236 0022 524A     		ldr	r2, .L337
 9237 0024 4FF41961 		mov	r1, #2448
 9238 0028 01FB03F3 		mul	r3, r1, r3
 9239 002c 1344     		add	r3, r3, r2
 9240 002e 0833     		adds	r3, r3, #8
 9241 0030 5B79     		ldrb	r3, [r3, #5]
 9242 0032 DBB2     		uxtb	r3, r3
 9243 0034 83F00103 		eor	r3, r3, #1
 9244 0038 DBB2     		uxtb	r3, r3
 9245 003a 002B     		cmp	r3, #0
 9246 003c 46D0     		beq	.L330
2085:.\DisplayBLL.c ****     {
2086:.\DisplayBLL.c ****         //Means that there is no RF link so credit sales must be disabled
2087:.\DisplayBLL.c ****         #ifdef _ALLOW_CREDIT_SALE_TESTING_
2088:.\DisplayBLL.c ****         if(false)
2089:.\DisplayBLL.c ****         #endif
2090:.\DisplayBLL.c ****         #ifndef _ALLOW_CREDIT_SALE_TESTING_
2091:.\DisplayBLL.c ****         if(_g_rfautorun._state == RF_AUTONOMOUS)
 9247              		.loc 1 2091 0
 9248 003e 4C4B     		ldr	r3, .L337+4
 9249 0040 1B78     		ldrb	r3, [r3]
 9250 0042 DBB2     		uxtb	r3, r3
 9251 0044 012B     		cmp	r3, #1
 9252 0046 40D1     		bne	.L331
2092:.\DisplayBLL.c ****         #endif
2093:.\DisplayBLL.c ****         {
2094:.\DisplayBLL.c ****             if(psinkmsg)
 9253              		.loc 1 2094 0
 9254 0048 FB68     		ldr	r3, [r7, #12]
 9255 004a 002B     		cmp	r3, #0
 9256 004c 3DD0     		beq	.L331
2095:.\DisplayBLL.c ****                 if(psinkmsg->_buffer[GetBufferIndexFromDisplayID(DISPLAY_SELECCIONE_POSICION)] != 0
 9257              		.loc 1 2095 0
 9258 004e 2E20     		movs	r0, #46
 9259 0050 FFF7FEFF 		bl	GetBufferIndexFromDisplayID
 9260 0054 0346     		mov	r3, r0
 9261 0056 1A46     		mov	r2, r3
 9262 0058 FB68     		ldr	r3, [r7, #12]
 9263 005a 1344     		add	r3, r3, r2
 9264 005c 1B7B     		ldrb	r3, [r3, #12]	@ zero_extendqisi2
 9265 005e 002B     		cmp	r3, #0
 9266 0060 33D0     		beq	.L331
 9267              	.LBB113:
2096:.\DisplayBLL.c ****                 {
2097:.\DisplayBLL.c ****                     uint8 paymodel = psinkmsg->_buffer[GetBufferIndexFromDisplayID(DISPLAY_FORMA_PA
 9268              		.loc 1 2097 0
 9269 0062 0420     		movs	r0, #4
 9270 0064 FFF7FEFF 		bl	GetBufferIndexFromDisplayID
 9271 0068 0346     		mov	r3, r0
 9272 006a 1A46     		mov	r2, r3
 9273 006c FB68     		ldr	r3, [r7, #12]
 9274 006e 1344     		add	r3, r3, r2
 9275 0070 1B7B     		ldrb	r3, [r3, #12]
 9276 0072 BB72     		strb	r3, [r7, #10]
2098:.\DisplayBLL.c ****                     if(paymodel == 0x0E || (pdisplay->_pcurrflow->_scrid == DISPLAY_FORMA_PAGO_DESE
 9277              		.loc 1 2098 0
 9278 0074 BB7A     		ldrb	r3, [r7, #10]	@ zero_extendqisi2
ARM GAS  C:\Users\RECEPC~1\AppData\Local\Temp\ccvg7Xyk.s 			page 202


 9279 0076 0E2B     		cmp	r3, #14
 9280 0078 08D0     		beq	.L332
 9281              		.loc 1 2098 0 is_stmt 0 discriminator 1
 9282 007a 3B69     		ldr	r3, [r7, #16]
 9283 007c 1B69     		ldr	r3, [r3, #16]
 9284 007e 1B78     		ldrb	r3, [r3]	@ zero_extendqisi2
 9285 0080 042B     		cmp	r3, #4
 9286 0082 22D1     		bne	.L331
 9287              		.loc 1 2098 0 discriminator 2
 9288 0084 3B69     		ldr	r3, [r7, #16]
 9289 0086 DB78     		ldrb	r3, [r3, #3]	@ zero_extendqisi2
 9290 0088 0E2B     		cmp	r3, #14
 9291 008a 1ED1     		bne	.L331
 9292              	.L332:
2099:.\DisplayBLL.c ****                     {
2100:.\DisplayBLL.c ****                         retval = true;
 9293              		.loc 1 2100 0 is_stmt 1
 9294 008c 0123     		movs	r3, #1
 9295 008e FB75     		strb	r3, [r7, #23]
2101:.\DisplayBLL.c ****                         pdisplay->_timeoutscrid = pdisplay->_statechangescrid = DISPLAY_NULL;
 9296              		.loc 1 2101 0
 9297 0090 3B69     		ldr	r3, [r7, #16]
 9298 0092 FF22     		movs	r2, #255
 9299 0094 5A71     		strb	r2, [r3, #5]
 9300 0096 3B69     		ldr	r3, [r7, #16]
 9301 0098 5A79     		ldrb	r2, [r3, #5]	@ zero_extendqisi2
 9302 009a 3B69     		ldr	r3, [r7, #16]
 9303 009c 9A72     		strb	r2, [r3, #10]
2102:.\DisplayBLL.c ****                         psinkmsg->_buffer[GetBufferIndexFromDisplayID(DISPLAY_FORMA_PAGO_DESEADA)] 
 9304              		.loc 1 2102 0
 9305 009e 0420     		movs	r0, #4
 9306 00a0 FFF7FEFF 		bl	GetBufferIndexFromDisplayID
 9307 00a4 0346     		mov	r3, r0
 9308 00a6 1A46     		mov	r2, r3
 9309 00a8 FB68     		ldr	r3, [r7, #12]
 9310 00aa 1344     		add	r3, r3, r2
 9311 00ac 0022     		movs	r2, #0
 9312 00ae 1A73     		strb	r2, [r3, #12]
2103:.\DisplayBLL.c ****                         psinkmsg->_buffer[GetBufferIndexFromDisplayID(DISPLAY_SELECCIONE_POSICION)]
 9313              		.loc 1 2103 0
 9314 00b0 2E20     		movs	r0, #46
 9315 00b2 FFF7FEFF 		bl	GetBufferIndexFromDisplayID
 9316 00b6 0346     		mov	r3, r0
 9317 00b8 1A46     		mov	r2, r3
 9318 00ba FB68     		ldr	r3, [r7, #12]
 9319 00bc 1344     		add	r3, r3, r2
 9320 00be 0022     		movs	r2, #0
 9321 00c0 1A73     		strb	r2, [r3, #12]
2104:.\DisplayBLL.c ****                         pdisplay->_nextscrid = DISPLAY_OPERACION_CANCELADA;
 9322              		.loc 1 2104 0
 9323 00c2 3B69     		ldr	r3, [r7, #16]
 9324 00c4 8C22     		movs	r2, #140
 9325 00c6 9A70     		strb	r2, [r3, #2]
 9326              	.LBE113:
 9327 00c8 4BE0     		b	.L333
 9328              	.L331:
 9329 00ca 4AE0     		b	.L333
ARM GAS  C:\Users\RECEPC~1\AppData\Local\Temp\ccvg7Xyk.s 			page 203


 9330              	.L330:
2105:.\DisplayBLL.c ****                     }
2106:.\DisplayBLL.c ****                 }
2107:.\DisplayBLL.c ****         }
2108:.\DisplayBLL.c ****         
2109:.\DisplayBLL.c ****     }
2110:.\DisplayBLL.c ****     else
2111:.\DisplayBLL.c ****     {
2112:.\DisplayBLL.c ****         if(psinkmsg)
 9331              		.loc 1 2112 0
 9332 00cc FB68     		ldr	r3, [r7, #12]
 9333 00ce 002B     		cmp	r3, #0
 9334 00d0 47D0     		beq	.L333
2113:.\DisplayBLL.c ****             if(psinkmsg->_buffer[GetBufferIndexFromDisplayID(DISPLAY_SELECCIONE_POSICION)] != 0x00)
 9335              		.loc 1 2113 0
 9336 00d2 2E20     		movs	r0, #46
 9337 00d4 FFF7FEFF 		bl	GetBufferIndexFromDisplayID
 9338 00d8 0346     		mov	r3, r0
 9339 00da 1A46     		mov	r2, r3
 9340 00dc FB68     		ldr	r3, [r7, #12]
 9341 00de 1344     		add	r3, r3, r2
 9342 00e0 1B7B     		ldrb	r3, [r3, #12]	@ zero_extendqisi2
 9343 00e2 002B     		cmp	r3, #0
 9344 00e4 3DD0     		beq	.L333
 9345              	.LBB114:
2114:.\DisplayBLL.c ****             {
2115:.\DisplayBLL.c ****                 uint8 paymodel = psinkmsg->_buffer[GetBufferIndexFromDisplayID(DISPLAY_FORMA_PAGO_D
 9346              		.loc 1 2115 0
 9347 00e6 0420     		movs	r0, #4
 9348 00e8 FFF7FEFF 		bl	GetBufferIndexFromDisplayID
 9349 00ec 0346     		mov	r3, r0
 9350 00ee 1A46     		mov	r2, r3
 9351 00f0 FB68     		ldr	r3, [r7, #12]
 9352 00f2 1344     		add	r3, r3, r2
 9353 00f4 1B7B     		ldrb	r3, [r3, #12]
 9354 00f6 7B72     		strb	r3, [r7, #9]
2116:.\DisplayBLL.c ****                 if((paymodel != 0x45 && paymodel != 0x00) || (pdisplay->_pcurrflow->_scrid == DISPL
 9355              		.loc 1 2116 0
 9356 00f8 7B7A     		ldrb	r3, [r7, #9]	@ zero_extendqisi2
 9357 00fa 452B     		cmp	r3, #69
 9358 00fc 02D0     		beq	.L334
 9359              		.loc 1 2116 0 is_stmt 0 discriminator 1
 9360 00fe 7B7A     		ldrb	r3, [r7, #9]	@ zero_extendqisi2
 9361 0100 002B     		cmp	r3, #0
 9362 0102 08D1     		bne	.L335
 9363              	.L334:
 9364              		.loc 1 2116 0 discriminator 3
 9365 0104 3B69     		ldr	r3, [r7, #16]
 9366 0106 1B69     		ldr	r3, [r3, #16]
 9367 0108 1B78     		ldrb	r3, [r3]	@ zero_extendqisi2
 9368 010a 042B     		cmp	r3, #4
 9369 010c 29D1     		bne	.L333
 9370              		.loc 1 2116 0 discriminator 4
 9371 010e 3B69     		ldr	r3, [r7, #16]
 9372 0110 DB78     		ldrb	r3, [r3, #3]	@ zero_extendqisi2
 9373 0112 452B     		cmp	r3, #69
 9374 0114 25D0     		beq	.L333
ARM GAS  C:\Users\RECEPC~1\AppData\Local\Temp\ccvg7Xyk.s 			page 204


 9375              	.L335:
2117:.\DisplayBLL.c ****                 {
2118:.\DisplayBLL.c ****                     retval = _g_pumps[pumpindex]._positionlocked;
 9376              		.loc 1 2118 0 is_stmt 1
 9377 0116 FB7A     		ldrb	r3, [r7, #11]	@ zero_extendqisi2
 9378 0118 144A     		ldr	r2, .L337
 9379 011a 4FF41961 		mov	r1, #2448
 9380 011e 01FB03F3 		mul	r3, r1, r3
 9381 0122 1344     		add	r3, r3, r2
 9382 0124 0833     		adds	r3, r3, #8
 9383 0126 5B79     		ldrb	r3, [r3, #5]
 9384 0128 FB75     		strb	r3, [r7, #23]
2119:.\DisplayBLL.c ****                     pdisplay->_timeoutscrid = pdisplay->_statechangescrid = DISPLAY_NULL;
 9385              		.loc 1 2119 0
 9386 012a 3B69     		ldr	r3, [r7, #16]
 9387 012c FF22     		movs	r2, #255
 9388 012e 5A71     		strb	r2, [r3, #5]
 9389 0130 3B69     		ldr	r3, [r7, #16]
 9390 0132 5A79     		ldrb	r2, [r3, #5]	@ zero_extendqisi2
 9391 0134 3B69     		ldr	r3, [r7, #16]
 9392 0136 9A72     		strb	r2, [r3, #10]
2120:.\DisplayBLL.c ****                     psinkmsg->_buffer[GetBufferIndexFromDisplayID(DISPLAY_FORMA_PAGO_DESEADA)] = 0x
 9393              		.loc 1 2120 0
 9394 0138 0420     		movs	r0, #4
 9395 013a FFF7FEFF 		bl	GetBufferIndexFromDisplayID
 9396 013e 0346     		mov	r3, r0
 9397 0140 1A46     		mov	r2, r3
 9398 0142 FB68     		ldr	r3, [r7, #12]
 9399 0144 1344     		add	r3, r3, r2
 9400 0146 0022     		movs	r2, #0
 9401 0148 1A73     		strb	r2, [r3, #12]
2121:.\DisplayBLL.c ****                     psinkmsg->_buffer[GetBufferIndexFromDisplayID(DISPLAY_SELECCIONE_POSICION)] = 0
 9402              		.loc 1 2121 0
 9403 014a 2E20     		movs	r0, #46
 9404 014c FFF7FEFF 		bl	GetBufferIndexFromDisplayID
 9405 0150 0346     		mov	r3, r0
 9406 0152 1A46     		mov	r2, r3
 9407 0154 FB68     		ldr	r3, [r7, #12]
 9408 0156 1344     		add	r3, r3, r2
 9409 0158 0022     		movs	r2, #0
 9410 015a 1A73     		strb	r2, [r3, #12]
2122:.\DisplayBLL.c ****                     pdisplay->_nextscrid = DISPLAY_CANCELADO_X_PC;
 9411              		.loc 1 2122 0
 9412 015c 3B69     		ldr	r3, [r7, #16]
 9413 015e 2B22     		movs	r2, #43
 9414 0160 9A70     		strb	r2, [r3, #2]
 9415              	.L333:
 9416              	.LBE114:
2123:.\DisplayBLL.c ****                 }
2124:.\DisplayBLL.c ****             }
2125:.\DisplayBLL.c ****     }
2126:.\DisplayBLL.c ****         
2127:.\DisplayBLL.c ****     return retval;
 9417              		.loc 1 2127 0
 9418 0162 FB7D     		ldrb	r3, [r7, #23]	@ zero_extendqisi2
2128:.\DisplayBLL.c ****     
2129:.\DisplayBLL.c **** }
ARM GAS  C:\Users\RECEPC~1\AppData\Local\Temp\ccvg7Xyk.s 			page 205


 9419              		.loc 1 2129 0
 9420 0164 1846     		mov	r0, r3
 9421 0166 1837     		adds	r7, r7, #24
 9422              		.cfi_def_cfa_offset 8
 9423 0168 BD46     		mov	sp, r7
 9424              		.cfi_def_cfa_register 13
 9425              		@ sp needed
 9426 016a 80BD     		pop	{r7, pc}
 9427              	.L338:
 9428              		.align	2
 9429              	.L337:
 9430 016c 00000000 		.word	_g_pumps
 9431 0170 00000000 		.word	_g_rfautorun
 9432              		.cfi_endproc
 9433              	.LFE99:
 9434              		.size	DisplayGenericValidator, .-DisplayGenericValidator
 9435              		.section	.text.CastCreditVolumeValue,"ax",%progbits
 9436              		.align	2
 9437              		.global	CastCreditVolumeValue
 9438              		.thumb
 9439              		.thumb_func
 9440              		.type	CastCreditVolumeValue, %function
 9441              	CastCreditVolumeValue:
 9442              	.LFB100:
2130:.\DisplayBLL.c **** 
2131:.\DisplayBLL.c **** void CastCreditVolumeValue(char8 *pbuffer, uint8 buffersize)
2132:.\DisplayBLL.c **** {
 9443              		.loc 1 2132 0
 9444              		.cfi_startproc
 9445              		@ args = 0, pretend = 0, frame = 16
 9446              		@ frame_needed = 1, uses_anonymous_args = 0
 9447              		@ link register save eliminated.
 9448 0000 80B4     		push	{r7}
 9449              		.cfi_def_cfa_offset 4
 9450              		.cfi_offset 7, -4
 9451 0002 85B0     		sub	sp, sp, #20
 9452              		.cfi_def_cfa_offset 24
 9453 0004 00AF     		add	r7, sp, #0
 9454              		.cfi_def_cfa_register 7
 9455 0006 7860     		str	r0, [r7, #4]
 9456 0008 0B46     		mov	r3, r1
 9457 000a FB70     		strb	r3, [r7, #3]
2133:.\DisplayBLL.c ****     uint8 delimiterindex = 0x00;
 9458              		.loc 1 2133 0
 9459 000c 0023     		movs	r3, #0
 9460 000e FB73     		strb	r3, [r7, #15]
2134:.\DisplayBLL.c ****     bool shiftbydelimiter = false;
 9461              		.loc 1 2134 0
 9462 0010 0023     		movs	r3, #0
 9463 0012 BB73     		strb	r3, [r7, #14]
2135:.\DisplayBLL.c ****     //If there is a "Comma" inside of the buffer, then just remove it before and count this for the
2136:.\DisplayBLL.c ****     FOR(int8 index = (buffersize - 1), index > 0, index--)
 9464              		.loc 1 2136 0
 9465 0014 FB78     		ldrb	r3, [r7, #3]
 9466 0016 013B     		subs	r3, r3, #1
 9467 0018 DBB2     		uxtb	r3, r3
 9468 001a 7B73     		strb	r3, [r7, #13]
ARM GAS  C:\Users\RECEPC~1\AppData\Local\Temp\ccvg7Xyk.s 			page 206


 9469 001c 2CE0     		b	.L340
 9470              	.L344:
2137:.\DisplayBLL.c ****     {
2138:.\DisplayBLL.c ****         if(pbuffer[index] == 0x2C && !shiftbydelimiter)
 9471              		.loc 1 2138 0
 9472 001e 97F90D30 		ldrsb	r3, [r7, #13]
 9473 0022 7A68     		ldr	r2, [r7, #4]
 9474 0024 1344     		add	r3, r3, r2
 9475 0026 1B78     		ldrb	r3, [r3]	@ zero_extendqisi2
 9476 0028 2C2B     		cmp	r3, #44
 9477 002a 07D1     		bne	.L341
 9478              		.loc 1 2138 0 is_stmt 0 discriminator 1
 9479 002c BB7B     		ldrb	r3, [r7, #14]
 9480 002e 83F00103 		eor	r3, r3, #1
 9481 0032 DBB2     		uxtb	r3, r3
 9482 0034 002B     		cmp	r3, #0
 9483 0036 01D0     		beq	.L341
2139:.\DisplayBLL.c ****             shiftbydelimiter = true;
 9484              		.loc 1 2139 0 is_stmt 1
 9485 0038 0123     		movs	r3, #1
 9486 003a BB73     		strb	r3, [r7, #14]
 9487              	.L341:
2140:.\DisplayBLL.c **** 
2141:.\DisplayBLL.c ****         if(shiftbydelimiter)
 9488              		.loc 1 2141 0
 9489 003c BB7B     		ldrb	r3, [r7, #14]	@ zero_extendqisi2
 9490 003e 002B     		cmp	r3, #0
 9491 0040 12D0     		beq	.L342
2142:.\DisplayBLL.c ****         {
2143:.\DisplayBLL.c ****             pbuffer[index] = pbuffer[index - 1];
 9492              		.loc 1 2143 0
 9493 0042 97F90D30 		ldrsb	r3, [r7, #13]
 9494 0046 7A68     		ldr	r2, [r7, #4]
 9495 0048 1344     		add	r3, r3, r2
 9496 004a 97F90D20 		ldrsb	r2, [r7, #13]
 9497 004e 013A     		subs	r2, r2, #1
 9498 0050 7968     		ldr	r1, [r7, #4]
 9499 0052 0A44     		add	r2, r2, r1
 9500 0054 1278     		ldrb	r2, [r2]	@ zero_extendqisi2
 9501 0056 1A70     		strb	r2, [r3]
2144:.\DisplayBLL.c ****             pbuffer[index - 1] = 0x00;
 9502              		.loc 1 2144 0
 9503 0058 97F90D30 		ldrsb	r3, [r7, #13]
 9504 005c 013B     		subs	r3, r3, #1
 9505 005e 7A68     		ldr	r2, [r7, #4]
 9506 0060 1344     		add	r3, r3, r2
 9507 0062 0022     		movs	r2, #0
 9508 0064 1A70     		strb	r2, [r3]
 9509 0066 02E0     		b	.L343
 9510              	.L342:
2145:.\DisplayBLL.c ****         }else
2146:.\DisplayBLL.c ****             delimiterindex++;
 9511              		.loc 1 2146 0
 9512 0068 FB7B     		ldrb	r3, [r7, #15]	@ zero_extendqisi2
 9513 006a 0133     		adds	r3, r3, #1
 9514 006c FB73     		strb	r3, [r7, #15]
 9515              	.L343:
ARM GAS  C:\Users\RECEPC~1\AppData\Local\Temp\ccvg7Xyk.s 			page 207


2136:.\DisplayBLL.c ****     {
 9516              		.loc 1 2136 0 discriminator 2
 9517 006e 7B7B     		ldrb	r3, [r7, #13]	@ zero_extendqisi2
 9518 0070 DBB2     		uxtb	r3, r3
 9519 0072 013B     		subs	r3, r3, #1
 9520 0074 DBB2     		uxtb	r3, r3
 9521 0076 7B73     		strb	r3, [r7, #13]
 9522              	.L340:
2136:.\DisplayBLL.c ****     {
 9523              		.loc 1 2136 0 is_stmt 0 discriminator 1
 9524 0078 97F90D30 		ldrsb	r3, [r7, #13]
 9525 007c 002B     		cmp	r3, #0
 9526 007e CEDC     		bgt	.L344
2147:.\DisplayBLL.c ****         
2148:.\DisplayBLL.c ****     }
2149:.\DisplayBLL.c ****     if(!shiftbydelimiter)
 9527              		.loc 1 2149 0 is_stmt 1
 9528 0080 BB7B     		ldrb	r3, [r7, #14]
 9529 0082 83F00103 		eor	r3, r3, #1
 9530 0086 DBB2     		uxtb	r3, r3
 9531 0088 002B     		cmp	r3, #0
 9532 008a 01D0     		beq	.L345
2150:.\DisplayBLL.c ****         delimiterindex = 0x00;
 9533              		.loc 1 2150 0
 9534 008c 0023     		movs	r3, #0
 9535 008e FB73     		strb	r3, [r7, #15]
 9536              	.L345:
2151:.\DisplayBLL.c ****     
2152:.\DisplayBLL.c ****     int8 shiftcount = (delimiterindex - _g_dispenserlayoutinfo._volumedecimals);
 9537              		.loc 1 2152 0
 9538 0090 334B     		ldr	r3, .L356
 9539 0092 5B7A     		ldrb	r3, [r3, #9]	@ zero_extendqisi2
 9540 0094 FA7B     		ldrb	r2, [r7, #15]
 9541 0096 D31A     		subs	r3, r2, r3
 9542 0098 DBB2     		uxtb	r3, r3
 9543 009a 3B73     		strb	r3, [r7, #12]
2153:.\DisplayBLL.c ****     //8 is the size of the allocated buffer space for the preset values according to the protocol.
2154:.\DisplayBLL.c ****     //The real buffer size allocated from the display side is 16 bytes. The buffer will be cast fro
2155:.\DisplayBLL.c ****     //the end to the beginning, so the startup index has been calculated "explicitly", this is (8 -
2156:.\DisplayBLL.c ****     //To multiply by 1000 we need to shift the entire buffer three bytes to shift the comma, so we
2157:.\DisplayBLL.c ****     //will subtract 3 bytes to the starting position in order to make the shifting.
2158:.\DisplayBLL.c ****     if(shiftcount > 0)
 9544              		.loc 1 2158 0
 9545 009c 97F90C30 		ldrsb	r3, [r7, #12]
 9546 00a0 002B     		cmp	r3, #0
 9547 00a2 29DD     		ble	.L346
2159:.\DisplayBLL.c ****     {
2160:.\DisplayBLL.c ****         while(shiftcount > 0)
 9548              		.loc 1 2160 0
 9549 00a4 23E0     		b	.L347
 9550              	.L350:
2161:.\DisplayBLL.c ****         {
2162:.\DisplayBLL.c ****             FOR(index = (buffersize - 1), index > 0, index--)
 9551              		.loc 1 2162 0
 9552 00a6 FB78     		ldrb	r3, [r7, #3]
 9553 00a8 013B     		subs	r3, r3, #1
 9554 00aa DBB2     		uxtb	r3, r3
ARM GAS  C:\Users\RECEPC~1\AppData\Local\Temp\ccvg7Xyk.s 			page 208


 9555 00ac 7B73     		strb	r3, [r7, #13]
 9556 00ae 15E0     		b	.L348
 9557              	.L349:
2163:.\DisplayBLL.c ****             {
2164:.\DisplayBLL.c ****                 pbuffer[index] = pbuffer[index - 1];
 9558              		.loc 1 2164 0 discriminator 3
 9559 00b0 97F90D30 		ldrsb	r3, [r7, #13]
 9560 00b4 7A68     		ldr	r2, [r7, #4]
 9561 00b6 1344     		add	r3, r3, r2
 9562 00b8 97F90D20 		ldrsb	r2, [r7, #13]
 9563 00bc 013A     		subs	r2, r2, #1
 9564 00be 7968     		ldr	r1, [r7, #4]
 9565 00c0 0A44     		add	r2, r2, r1
 9566 00c2 1278     		ldrb	r2, [r2]	@ zero_extendqisi2
 9567 00c4 1A70     		strb	r2, [r3]
2165:.\DisplayBLL.c ****                 pbuffer[index] = 0x00;
 9568              		.loc 1 2165 0 discriminator 3
 9569 00c6 97F90D30 		ldrsb	r3, [r7, #13]
 9570 00ca 7A68     		ldr	r2, [r7, #4]
 9571 00cc 1344     		add	r3, r3, r2
 9572 00ce 0022     		movs	r2, #0
 9573 00d0 1A70     		strb	r2, [r3]
2162:.\DisplayBLL.c ****             {
 9574              		.loc 1 2162 0 discriminator 3
 9575 00d2 7B7B     		ldrb	r3, [r7, #13]	@ zero_extendqisi2
 9576 00d4 DBB2     		uxtb	r3, r3
 9577 00d6 013B     		subs	r3, r3, #1
 9578 00d8 DBB2     		uxtb	r3, r3
 9579 00da 7B73     		strb	r3, [r7, #13]
 9580              	.L348:
2162:.\DisplayBLL.c ****             {
 9581              		.loc 1 2162 0 is_stmt 0 discriminator 1
 9582 00dc 97F90D30 		ldrsb	r3, [r7, #13]
 9583 00e0 002B     		cmp	r3, #0
 9584 00e2 E5DC     		bgt	.L349
2166:.\DisplayBLL.c ****             }
2167:.\DisplayBLL.c ****             shiftcount--;
 9585              		.loc 1 2167 0 is_stmt 1
 9586 00e4 3B7B     		ldrb	r3, [r7, #12]	@ zero_extendqisi2
 9587 00e6 DBB2     		uxtb	r3, r3
 9588 00e8 013B     		subs	r3, r3, #1
 9589 00ea DBB2     		uxtb	r3, r3
 9590 00ec 3B73     		strb	r3, [r7, #12]
 9591              	.L347:
2160:.\DisplayBLL.c ****         {
 9592              		.loc 1 2160 0
 9593 00ee 97F90C30 		ldrsb	r3, [r7, #12]
 9594 00f2 002B     		cmp	r3, #0
 9595 00f4 D7DC     		bgt	.L350
 9596 00f6 2DE0     		b	.L339
 9597              	.L346:
2168:.\DisplayBLL.c ****         }
2169:.\DisplayBLL.c ****     }
2170:.\DisplayBLL.c ****     else if(shiftcount < 0)
 9598              		.loc 1 2170 0
 9599 00f8 97F90C30 		ldrsb	r3, [r7, #12]
 9600 00fc 002B     		cmp	r3, #0
ARM GAS  C:\Users\RECEPC~1\AppData\Local\Temp\ccvg7Xyk.s 			page 209


 9601 00fe 29DA     		bge	.L339
2171:.\DisplayBLL.c ****     {
2172:.\DisplayBLL.c ****         while(shiftcount < 0)
 9602              		.loc 1 2172 0
 9603 0100 24E0     		b	.L352
 9604              	.L355:
2173:.\DisplayBLL.c ****         {
2174:.\DisplayBLL.c ****             FOR(index = 0, index < (buffersize  - 1), index++)
 9605              		.loc 1 2174 0
 9606 0102 0023     		movs	r3, #0
 9607 0104 7B73     		strb	r3, [r7, #13]
 9608 0106 16E0     		b	.L353
 9609              	.L354:
2175:.\DisplayBLL.c ****             {
2176:.\DisplayBLL.c ****                 pbuffer[index] = pbuffer[index + 1];
 9610              		.loc 1 2176 0 discriminator 3
 9611 0108 97F90D30 		ldrsb	r3, [r7, #13]
 9612 010c 7A68     		ldr	r2, [r7, #4]
 9613 010e 1344     		add	r3, r3, r2
 9614 0110 97F90D20 		ldrsb	r2, [r7, #13]
 9615 0114 0132     		adds	r2, r2, #1
 9616 0116 7968     		ldr	r1, [r7, #4]
 9617 0118 0A44     		add	r2, r2, r1
 9618 011a 1278     		ldrb	r2, [r2]	@ zero_extendqisi2
 9619 011c 1A70     		strb	r2, [r3]
2177:.\DisplayBLL.c ****                 pbuffer[index + 1] = 0x30;
 9620              		.loc 1 2177 0 discriminator 3
 9621 011e 97F90D30 		ldrsb	r3, [r7, #13]
 9622 0122 0133     		adds	r3, r3, #1
 9623 0124 7A68     		ldr	r2, [r7, #4]
 9624 0126 1344     		add	r3, r3, r2
 9625 0128 3022     		movs	r2, #48
 9626 012a 1A70     		strb	r2, [r3]
2174:.\DisplayBLL.c ****             {
 9627              		.loc 1 2174 0 discriminator 3
 9628 012c 7B7B     		ldrb	r3, [r7, #13]	@ zero_extendqisi2
 9629 012e DBB2     		uxtb	r3, r3
 9630 0130 0133     		adds	r3, r3, #1
 9631 0132 DBB2     		uxtb	r3, r3
 9632 0134 7B73     		strb	r3, [r7, #13]
 9633              	.L353:
2174:.\DisplayBLL.c ****             {
 9634              		.loc 1 2174 0 is_stmt 0 discriminator 1
 9635 0136 97F90D20 		ldrsb	r2, [r7, #13]
 9636 013a FB78     		ldrb	r3, [r7, #3]	@ zero_extendqisi2
 9637 013c 013B     		subs	r3, r3, #1
 9638 013e 9A42     		cmp	r2, r3
 9639 0140 E2DB     		blt	.L354
2178:.\DisplayBLL.c ****             }
2179:.\DisplayBLL.c ****             shiftcount++;
 9640              		.loc 1 2179 0 is_stmt 1
 9641 0142 3B7B     		ldrb	r3, [r7, #12]	@ zero_extendqisi2
 9642 0144 DBB2     		uxtb	r3, r3
 9643 0146 0133     		adds	r3, r3, #1
 9644 0148 DBB2     		uxtb	r3, r3
 9645 014a 3B73     		strb	r3, [r7, #12]
 9646              	.L352:
ARM GAS  C:\Users\RECEPC~1\AppData\Local\Temp\ccvg7Xyk.s 			page 210


2172:.\DisplayBLL.c ****         {
 9647              		.loc 1 2172 0
 9648 014c 97F90C30 		ldrsb	r3, [r7, #12]
 9649 0150 002B     		cmp	r3, #0
 9650 0152 D6DB     		blt	.L355
 9651              	.L339:
2180:.\DisplayBLL.c ****         }
2181:.\DisplayBLL.c ****     }
2182:.\DisplayBLL.c **** }
 9652              		.loc 1 2182 0
 9653 0154 1437     		adds	r7, r7, #20
 9654              		.cfi_def_cfa_offset 4
 9655 0156 BD46     		mov	sp, r7
 9656              		.cfi_def_cfa_register 13
 9657              		@ sp needed
 9658 0158 5DF8047B 		ldr	r7, [sp], #4
 9659              		.cfi_restore 7
 9660              		.cfi_def_cfa_offset 0
 9661 015c 7047     		bx	lr
 9662              	.L357:
 9663 015e 00BF     		.align	2
 9664              	.L356:
 9665 0160 00000000 		.word	_g_dispenserlayoutinfo
 9666              		.cfi_endproc
 9667              	.LFE100:
 9668              		.size	CastCreditVolumeValue, .-CastCreditVolumeValue
 9669              		.text
 9670              	.Letext0:
 9671              		.file 2 "c:\\program files (x86)\\cypress\\psoc creator\\3.3\\psoc creator\\import\\gnu\\arm\\4.9.
 9672              		.file 3 "c:\\program files (x86)\\cypress\\psoc creator\\3.3\\psoc creator\\import\\gnu\\arm\\4.9.
 9673              		.file 4 "Generated_Source\\PSoC5/cytypes.h"
 9674              		.file 5 ".\\GlobalDefinitions.h"
 9675              		.file 6 ".\\UARTManager.h"
 9676              		.file 7 ".\\SinkManager.h"
 9677              		.file 8 ".\\SinkObservables.h"
 9678              		.file 9 ".\\Prime.h"
 9679              		.file 10 ".\\Display.h"
 9680              		.file 11 ".\\RFLink.h"
 9681              		.file 12 ".\\Printer.h"
 9682              		.file 13 ".\\Eeprom.h"
 9683              		.file 14 ".\\Rtc.h"
 9684              		.file 15 "Generated_Source\\PSoC5/core_cm3.h"
 9685              		.file 16 ".\\Configuration.h"
 9686              		.section	.debug_info,"",%progbits
 9687              	.Ldebug_info0:
 9688 0000 222E0000 		.4byte	0x2e22
 9689 0004 0400     		.2byte	0x4
 9690 0006 00000000 		.4byte	.Ldebug_abbrev0
 9691 000a 04       		.byte	0x4
 9692 000b 01       		.uleb128 0x1
 9693 000c E1250000 		.4byte	.LASF577
 9694 0010 01       		.byte	0x1
 9695 0011 EE200000 		.4byte	.LASF578
 9696 0015 BB180000 		.4byte	.LASF579
 9697 0019 18000000 		.4byte	.Ldebug_ranges0+0x18
 9698 001d 00000000 		.4byte	0
 9699 0021 00000000 		.4byte	.Ldebug_line0
ARM GAS  C:\Users\RECEPC~1\AppData\Local\Temp\ccvg7Xyk.s 			page 211


 9700 0025 02       		.uleb128 0x2
 9701 0026 01       		.byte	0x1
 9702 0027 06       		.byte	0x6
 9703 0028 8B0A0000 		.4byte	.LASF0
 9704 002c 02       		.uleb128 0x2
 9705 002d 01       		.byte	0x1
 9706 002e 08       		.byte	0x8
 9707 002f AC0B0000 		.4byte	.LASF1
 9708 0033 02       		.uleb128 0x2
 9709 0034 02       		.byte	0x2
 9710 0035 05       		.byte	0x5
 9711 0036 73240000 		.4byte	.LASF2
 9712 003a 02       		.uleb128 0x2
 9713 003b 02       		.byte	0x2
 9714 003c 07       		.byte	0x7
 9715 003d 28290000 		.4byte	.LASF3
 9716 0041 03       		.uleb128 0x3
 9717 0042 BE290000 		.4byte	.LASF9
 9718 0046 02       		.byte	0x2
 9719 0047 3F       		.byte	0x3f
 9720 0048 4C000000 		.4byte	0x4c
 9721 004c 02       		.uleb128 0x2
 9722 004d 04       		.byte	0x4
 9723 004e 05       		.byte	0x5
 9724 004f BB070000 		.4byte	.LASF4
 9725 0053 02       		.uleb128 0x2
 9726 0054 04       		.byte	0x4
 9727 0055 07       		.byte	0x7
 9728 0056 29140000 		.4byte	.LASF5
 9729 005a 02       		.uleb128 0x2
 9730 005b 08       		.byte	0x8
 9731 005c 05       		.byte	0x5
 9732 005d 1E170000 		.4byte	.LASF6
 9733 0061 02       		.uleb128 0x2
 9734 0062 08       		.byte	0x8
 9735 0063 07       		.byte	0x7
 9736 0064 AA1F0000 		.4byte	.LASF7
 9737 0068 04       		.uleb128 0x4
 9738 0069 04       		.byte	0x4
 9739 006a 05       		.byte	0x5
 9740 006b 696E7400 		.ascii	"int\000"
 9741 006f 02       		.uleb128 0x2
 9742 0070 04       		.byte	0x4
 9743 0071 07       		.byte	0x7
 9744 0072 6E1A0000 		.4byte	.LASF8
 9745 0076 03       		.uleb128 0x3
 9746 0077 3C020000 		.4byte	.LASF10
 9747 007b 03       		.byte	0x3
 9748 007c 2C       		.byte	0x2c
 9749 007d 41000000 		.4byte	0x41
 9750 0081 05       		.uleb128 0x5
 9751 0082 C9230000 		.4byte	.LASF11
 9752 0086 04       		.byte	0x4
 9753 0087 3801     		.2byte	0x138
 9754 0089 2C000000 		.4byte	0x2c
 9755 008d 05       		.uleb128 0x5
 9756 008e FF2A0000 		.4byte	.LASF12
ARM GAS  C:\Users\RECEPC~1\AppData\Local\Temp\ccvg7Xyk.s 			page 212


 9757 0092 04       		.byte	0x4
 9758 0093 3901     		.2byte	0x139
 9759 0095 3A000000 		.4byte	0x3a
 9760 0099 05       		.uleb128 0x5
 9761 009a A6020000 		.4byte	.LASF13
 9762 009e 04       		.byte	0x4
 9763 009f 3A01     		.2byte	0x13a
 9764 00a1 53000000 		.4byte	0x53
 9765 00a5 05       		.uleb128 0x5
 9766 00a6 52050000 		.4byte	.LASF14
 9767 00aa 04       		.byte	0x4
 9768 00ab 3B01     		.2byte	0x13b
 9769 00ad 25000000 		.4byte	0x25
 9770 00b1 02       		.uleb128 0x2
 9771 00b2 04       		.byte	0x4
 9772 00b3 04       		.byte	0x4
 9773 00b4 C8190000 		.4byte	.LASF15
 9774 00b8 02       		.uleb128 0x2
 9775 00b9 08       		.byte	0x8
 9776 00ba 04       		.byte	0x4
 9777 00bb 2C180000 		.4byte	.LASF16
 9778 00bf 05       		.uleb128 0x5
 9779 00c0 B4070000 		.4byte	.LASF17
 9780 00c4 04       		.byte	0x4
 9781 00c5 4401     		.2byte	0x144
 9782 00c7 61000000 		.4byte	0x61
 9783 00cb 05       		.uleb128 0x5
 9784 00cc 6B040000 		.4byte	.LASF18
 9785 00d0 04       		.byte	0x4
 9786 00d1 4901     		.2byte	0x149
 9787 00d3 D7000000 		.4byte	0xd7
 9788 00d7 02       		.uleb128 0x2
 9789 00d8 01       		.byte	0x1
 9790 00d9 08       		.byte	0x8
 9791 00da 730D0000 		.4byte	.LASF19
 9792 00de 06       		.uleb128 0x6
 9793 00df 81000000 		.4byte	0x81
 9794 00e3 06       		.uleb128 0x6
 9795 00e4 8D000000 		.4byte	0x8d
 9796 00e8 06       		.uleb128 0x6
 9797 00e9 99000000 		.4byte	0x99
 9798 00ed 07       		.uleb128 0x7
 9799 00ee 04       		.byte	0x4
 9800 00ef F3000000 		.4byte	0xf3
 9801 00f3 08       		.uleb128 0x8
 9802 00f4 02       		.uleb128 0x2
 9803 00f5 04       		.byte	0x4
 9804 00f6 07       		.byte	0x7
 9805 00f7 A3000000 		.4byte	.LASF20
 9806 00fb 09       		.uleb128 0x9
 9807 00fc 04       		.byte	0x4
 9808 00fd 07       		.uleb128 0x7
 9809 00fe 04       		.byte	0x4
 9810 00ff D7000000 		.4byte	0xd7
 9811 0103 0A       		.uleb128 0xa
 9812 0104 81000000 		.4byte	0x81
 9813 0108 13010000 		.4byte	0x113
ARM GAS  C:\Users\RECEPC~1\AppData\Local\Temp\ccvg7Xyk.s 			page 213


 9814 010c 0B       		.uleb128 0xb
 9815 010d F4000000 		.4byte	0xf4
 9816 0111 03       		.byte	0x3
 9817 0112 00       		.byte	0
 9818 0113 02       		.uleb128 0x2
 9819 0114 08       		.byte	0x8
 9820 0115 04       		.byte	0x4
 9821 0116 961D0000 		.4byte	.LASF21
 9822 011a 03       		.uleb128 0x3
 9823 011b 7D1C0000 		.4byte	.LASF22
 9824 011f 05       		.byte	0x5
 9825 0120 29       		.byte	0x29
 9826 0121 FB000000 		.4byte	0xfb
 9827 0125 07       		.uleb128 0x7
 9828 0126 04       		.byte	0x4
 9829 0127 CB000000 		.4byte	0xcb
 9830 012b 03       		.uleb128 0x3
 9831 012c 970A0000 		.4byte	.LASF23
 9832 0130 05       		.byte	0x5
 9833 0131 50       		.byte	0x50
 9834 0132 36010000 		.4byte	0x136
 9835 0136 07       		.uleb128 0x7
 9836 0137 04       		.byte	0x4
 9837 0138 81000000 		.4byte	0x81
 9838 013c 0C       		.uleb128 0xc
 9839 013d F01A0000 		.4byte	.LASF48
 9840 0141 4C       		.byte	0x4c
 9841 0142 06       		.byte	0x6
 9842 0143 2C       		.byte	0x2c
 9843 0144 2D020000 		.4byte	0x22d
 9844 0148 0D       		.uleb128 0xd
 9845 0149 3F210000 		.4byte	.LASF24
 9846 014d 06       		.byte	0x6
 9847 014e 2E       		.byte	0x2e
 9848 014f 81000000 		.4byte	0x81
 9849 0153 00       		.byte	0
 9850 0154 0D       		.uleb128 0xd
 9851 0155 95100000 		.4byte	.LASF25
 9852 0159 06       		.byte	0x6
 9853 015a 31       		.byte	0x31
 9854 015b 38020000 		.4byte	0x238
 9855 015f 04       		.byte	0x4
 9856 0160 0D       		.uleb128 0xd
 9857 0161 CD1D0000 		.4byte	.LASF26
 9858 0165 06       		.byte	0x6
 9859 0166 34       		.byte	0x34
 9860 0167 ED000000 		.4byte	0xed
 9861 016b 08       		.byte	0x8
 9862 016c 0D       		.uleb128 0xd
 9863 016d 62030000 		.4byte	.LASF27
 9864 0171 06       		.byte	0x6
 9865 0172 35       		.byte	0x35
 9866 0173 ED000000 		.4byte	0xed
 9867 0177 0C       		.byte	0xc
 9868 0178 0D       		.uleb128 0xd
 9869 0179 7A200000 		.4byte	.LASF28
 9870 017d 06       		.byte	0x6
ARM GAS  C:\Users\RECEPC~1\AppData\Local\Temp\ccvg7Xyk.s 			page 214


 9871 017e 36       		.byte	0x36
 9872 017f 43020000 		.4byte	0x243
 9873 0183 10       		.byte	0x10
 9874 0184 0D       		.uleb128 0xd
 9875 0185 311C0000 		.4byte	.LASF29
 9876 0189 06       		.byte	0x6
 9877 018a 37       		.byte	0x37
 9878 018b 54020000 		.4byte	0x254
 9879 018f 14       		.byte	0x14
 9880 0190 0D       		.uleb128 0xd
 9881 0191 7B250000 		.4byte	.LASF30
 9882 0195 06       		.byte	0x6
 9883 0196 39       		.byte	0x39
 9884 0197 43020000 		.4byte	0x243
 9885 019b 18       		.byte	0x18
 9886 019c 0D       		.uleb128 0xd
 9887 019d 6C0E0000 		.4byte	.LASF31
 9888 01a1 06       		.byte	0x6
 9889 01a2 3A       		.byte	0x3a
 9890 01a3 43020000 		.4byte	0x243
 9891 01a7 1C       		.byte	0x1c
 9892 01a8 0D       		.uleb128 0xd
 9893 01a9 DF0A0000 		.4byte	.LASF32
 9894 01ad 06       		.byte	0x6
 9895 01ae 3B       		.byte	0x3b
 9896 01af 43020000 		.4byte	0x243
 9897 01b3 20       		.byte	0x20
 9898 01b4 0D       		.uleb128 0xd
 9899 01b5 FB210000 		.4byte	.LASF33
 9900 01b9 06       		.byte	0x6
 9901 01ba 3C       		.byte	0x3c
 9902 01bb 5F020000 		.4byte	0x25f
 9903 01bf 24       		.byte	0x24
 9904 01c0 0D       		.uleb128 0xd
 9905 01c1 6D010000 		.4byte	.LASF34
 9906 01c5 06       		.byte	0x6
 9907 01c6 3D       		.byte	0x3d
 9908 01c7 5F020000 		.4byte	0x25f
 9909 01cb 28       		.byte	0x28
 9910 01cc 0D       		.uleb128 0xd
 9911 01cd D10A0000 		.4byte	.LASF35
 9912 01d1 06       		.byte	0x6
 9913 01d2 3E       		.byte	0x3e
 9914 01d3 ED000000 		.4byte	0xed
 9915 01d7 2C       		.byte	0x2c
 9916 01d8 0D       		.uleb128 0xd
 9917 01d9 160D0000 		.4byte	.LASF36
 9918 01dd 06       		.byte	0x6
 9919 01de 40       		.byte	0x40
 9920 01df 54020000 		.4byte	0x254
 9921 01e3 30       		.byte	0x30
 9922 01e4 0D       		.uleb128 0xd
 9923 01e5 7B1A0000 		.4byte	.LASF37
 9924 01e9 06       		.byte	0x6
 9925 01ea 41       		.byte	0x41
 9926 01eb 43020000 		.4byte	0x243
 9927 01ef 34       		.byte	0x34
ARM GAS  C:\Users\RECEPC~1\AppData\Local\Temp\ccvg7Xyk.s 			page 215


 9928 01f0 0D       		.uleb128 0xd
 9929 01f1 4F150000 		.4byte	.LASF38
 9930 01f5 06       		.byte	0x6
 9931 01f6 42       		.byte	0x42
 9932 01f7 54020000 		.4byte	0x254
 9933 01fb 38       		.byte	0x38
 9934 01fc 0D       		.uleb128 0xd
 9935 01fd 4F100000 		.4byte	.LASF39
 9936 0201 06       		.byte	0x6
 9937 0202 43       		.byte	0x43
 9938 0203 7B020000 		.4byte	0x27b
 9939 0207 3C       		.byte	0x3c
 9940 0208 0D       		.uleb128 0xd
 9941 0209 03200000 		.4byte	.LASF40
 9942 020d 06       		.byte	0x6
 9943 020e 44       		.byte	0x44
 9944 020f 9C020000 		.4byte	0x29c
 9945 0213 40       		.byte	0x40
 9946 0214 0D       		.uleb128 0xd
 9947 0215 0F0F0000 		.4byte	.LASF41
 9948 0219 06       		.byte	0x6
 9949 021a 45       		.byte	0x45
 9950 021b 54020000 		.4byte	0x254
 9951 021f 44       		.byte	0x44
 9952 0220 0D       		.uleb128 0xd
 9953 0221 B5160000 		.4byte	.LASF42
 9954 0225 06       		.byte	0x6
 9955 0226 46       		.byte	0x46
 9956 0227 ED000000 		.4byte	0xed
 9957 022b 48       		.byte	0x48
 9958 022c 00       		.byte	0
 9959 022d 0E       		.uleb128 0xe
 9960 022e 38020000 		.4byte	0x238
 9961 0232 0F       		.uleb128 0xf
 9962 0233 FB000000 		.4byte	0xfb
 9963 0237 00       		.byte	0
 9964 0238 07       		.uleb128 0x7
 9965 0239 04       		.byte	0x4
 9966 023a 2D020000 		.4byte	0x22d
 9967 023e 10       		.uleb128 0x10
 9968 023f 81000000 		.4byte	0x81
 9969 0243 07       		.uleb128 0x7
 9970 0244 04       		.byte	0x4
 9971 0245 3E020000 		.4byte	0x23e
 9972 0249 0E       		.uleb128 0xe
 9973 024a 54020000 		.4byte	0x254
 9974 024e 0F       		.uleb128 0xf
 9975 024f 81000000 		.4byte	0x81
 9976 0253 00       		.byte	0
 9977 0254 07       		.uleb128 0x7
 9978 0255 04       		.byte	0x4
 9979 0256 49020000 		.4byte	0x249
 9980 025a 10       		.uleb128 0x10
 9981 025b 8D000000 		.4byte	0x8d
 9982 025f 07       		.uleb128 0x7
 9983 0260 04       		.byte	0x4
 9984 0261 5A020000 		.4byte	0x25a
ARM GAS  C:\Users\RECEPC~1\AppData\Local\Temp\ccvg7Xyk.s 			page 216


 9985 0265 0E       		.uleb128 0xe
 9986 0266 70020000 		.4byte	0x270
 9987 026a 0F       		.uleb128 0xf
 9988 026b 70020000 		.4byte	0x270
 9989 026f 00       		.byte	0
 9990 0270 07       		.uleb128 0x7
 9991 0271 04       		.byte	0x4
 9992 0272 76020000 		.4byte	0x276
 9993 0276 11       		.uleb128 0x11
 9994 0277 CB000000 		.4byte	0xcb
 9995 027b 07       		.uleb128 0x7
 9996 027c 04       		.byte	0x4
 9997 027d 65020000 		.4byte	0x265
 9998 0281 0E       		.uleb128 0xe
 9999 0282 91020000 		.4byte	0x291
 10000 0286 0F       		.uleb128 0xf
 10001 0287 91020000 		.4byte	0x291
 10002 028b 0F       		.uleb128 0xf
 10003 028c 81000000 		.4byte	0x81
 10004 0290 00       		.byte	0
 10005 0291 07       		.uleb128 0x7
 10006 0292 04       		.byte	0x4
 10007 0293 97020000 		.4byte	0x297
 10008 0297 11       		.uleb128 0x11
 10009 0298 81000000 		.4byte	0x81
 10010 029c 07       		.uleb128 0x7
 10011 029d 04       		.byte	0x4
 10012 029e 81020000 		.4byte	0x281
 10013 02a2 03       		.uleb128 0x3
 10014 02a3 67030000 		.4byte	.LASF43
 10015 02a7 06       		.byte	0x6
 10016 02a8 48       		.byte	0x48
 10017 02a9 3C010000 		.4byte	0x13c
 10018 02ad 02       		.uleb128 0x2
 10019 02ae 01       		.byte	0x1
 10020 02af 02       		.byte	0x2
 10021 02b0 DA0C0000 		.4byte	.LASF44
 10022 02b4 12       		.uleb128 0x12
 10023 02b5 12060000 		.4byte	.LASF57
 10024 02b9 01       		.byte	0x1
 10025 02ba 06       		.byte	0x6
 10026 02bb 51       		.byte	0x51
 10027 02bc D6020000 		.4byte	0x2d6
 10028 02c0 13       		.uleb128 0x13
 10029 02c1 750C0000 		.4byte	.LASF45
 10030 02c5 C001     		.sleb128 192
 10031 02c7 13       		.uleb128 0x13
 10032 02c8 BF230000 		.4byte	.LASF46
 10033 02cc C101     		.sleb128 193
 10034 02ce 13       		.uleb128 0x13
 10035 02cf 7D0B0000 		.4byte	.LASF47
 10036 02d3 C201     		.sleb128 194
 10037 02d5 00       		.byte	0
 10038 02d6 14       		.uleb128 0x14
 10039 02d7 EE1D0000 		.4byte	.LASF49
 10040 02db 0C01     		.2byte	0x10c
 10041 02dd 06       		.byte	0x6
ARM GAS  C:\Users\RECEPC~1\AppData\Local\Temp\ccvg7Xyk.s 			page 217


 10042 02de 59       		.byte	0x59
 10043 02df 22030000 		.4byte	0x322
 10044 02e3 0D       		.uleb128 0xd
 10045 02e4 0A280000 		.4byte	.LASF50
 10046 02e8 06       		.byte	0x6
 10047 02e9 5B       		.byte	0x5b
 10048 02ea DE000000 		.4byte	0xde
 10049 02ee 00       		.byte	0
 10050 02ef 0D       		.uleb128 0xd
 10051 02f0 C9000000 		.4byte	.LASF51
 10052 02f4 06       		.byte	0x6
 10053 02f5 5C       		.byte	0x5c
 10054 02f6 E3000000 		.4byte	0xe3
 10055 02fa 02       		.byte	0x2
 10056 02fb 0D       		.uleb128 0xd
 10057 02fc 68080000 		.4byte	.LASF52
 10058 0300 06       		.byte	0x6
 10059 0301 5D       		.byte	0x5d
 10060 0302 22030000 		.4byte	0x322
 10061 0306 04       		.byte	0x4
 10062 0307 15       		.uleb128 0x15
 10063 0308 36280000 		.4byte	.LASF53
 10064 030c 06       		.byte	0x6
 10065 030d 5E       		.byte	0x5e
 10066 030e 42030000 		.4byte	0x342
 10067 0312 0401     		.2byte	0x104
 10068 0314 15       		.uleb128 0x15
 10069 0315 492B0000 		.4byte	.LASF54
 10070 0319 06       		.byte	0x6
 10071 031a 60       		.byte	0x60
 10072 031b 48030000 		.4byte	0x348
 10073 031f 0801     		.2byte	0x108
 10074 0321 00       		.byte	0
 10075 0322 0A       		.uleb128 0xa
 10076 0323 CB000000 		.4byte	0xcb
 10077 0327 32030000 		.4byte	0x332
 10078 032b 0B       		.uleb128 0xb
 10079 032c F4000000 		.4byte	0xf4
 10080 0330 FF       		.byte	0xff
 10081 0331 00       		.byte	0
 10082 0332 0E       		.uleb128 0xe
 10083 0333 42030000 		.4byte	0x342
 10084 0337 0F       		.uleb128 0xf
 10085 0338 81000000 		.4byte	0x81
 10086 033c 0F       		.uleb128 0xf
 10087 033d 25010000 		.4byte	0x125
 10088 0341 00       		.byte	0
 10089 0342 07       		.uleb128 0x7
 10090 0343 04       		.byte	0x4
 10091 0344 32030000 		.4byte	0x332
 10092 0348 07       		.uleb128 0x7
 10093 0349 04       		.byte	0x4
 10094 034a A2020000 		.4byte	0x2a2
 10095 034e 03       		.uleb128 0x3
 10096 034f E3000000 		.4byte	.LASF55
 10097 0353 06       		.byte	0x6
 10098 0354 61       		.byte	0x61
ARM GAS  C:\Users\RECEPC~1\AppData\Local\Temp\ccvg7Xyk.s 			page 218


 10099 0355 D6020000 		.4byte	0x2d6
 10100 0359 03       		.uleb128 0x3
 10101 035a 751E0000 		.4byte	.LASF56
 10102 035e 06       		.byte	0x6
 10103 035f 61       		.byte	0x61
 10104 0360 64030000 		.4byte	0x364
 10105 0364 07       		.uleb128 0x7
 10106 0365 04       		.byte	0x4
 10107 0366 D6020000 		.4byte	0x2d6
 10108 036a 12       		.uleb128 0x12
 10109 036b C7250000 		.4byte	.LASF58
 10110 036f 01       		.byte	0x1
 10111 0370 06       		.byte	0x6
 10112 0371 6D       		.byte	0x6d
 10113 0372 A1030000 		.4byte	0x3a1
 10114 0376 13       		.uleb128 0x13
 10115 0377 34020000 		.4byte	.LASF59
 10116 037b A001     		.sleb128 160
 10117 037d 13       		.uleb128 0x13
 10118 037e 1C0E0000 		.4byte	.LASF60
 10119 0382 A101     		.sleb128 161
 10120 0384 13       		.uleb128 0x13
 10121 0385 DB150000 		.4byte	.LASF61
 10122 0389 A201     		.sleb128 162
 10123 038b 13       		.uleb128 0x13
 10124 038c CB080000 		.4byte	.LASF62
 10125 0390 A301     		.sleb128 163
 10126 0392 13       		.uleb128 0x13
 10127 0393 D9080000 		.4byte	.LASF63
 10128 0397 A401     		.sleb128 164
 10129 0399 13       		.uleb128 0x13
 10130 039a 7B1B0000 		.4byte	.LASF64
 10131 039e A501     		.sleb128 165
 10132 03a0 00       		.byte	0
 10133 03a1 12       		.uleb128 0x12
 10134 03a2 7D280000 		.4byte	.LASF65
 10135 03a6 01       		.byte	0x1
 10136 03a7 07       		.byte	0x7
 10137 03a8 3D       		.byte	0x3d
 10138 03a9 DE030000 		.4byte	0x3de
 10139 03ad 13       		.uleb128 0x13
 10140 03ae 9C2A0000 		.4byte	.LASF66
 10141 03b2 01       		.sleb128 1
 10142 03b3 13       		.uleb128 0x13
 10143 03b4 E01A0000 		.4byte	.LASF67
 10144 03b8 02       		.sleb128 2
 10145 03b9 13       		.uleb128 0x13
 10146 03ba 691C0000 		.4byte	.LASF68
 10147 03be 03       		.sleb128 3
 10148 03bf 13       		.uleb128 0x13
 10149 03c0 4C230000 		.4byte	.LASF69
 10150 03c4 04       		.sleb128 4
 10151 03c5 13       		.uleb128 0x13
 10152 03c6 5C110000 		.4byte	.LASF70
 10153 03ca 05       		.sleb128 5
 10154 03cb 13       		.uleb128 0x13
 10155 03cc DB260000 		.4byte	.LASF71
ARM GAS  C:\Users\RECEPC~1\AppData\Local\Temp\ccvg7Xyk.s 			page 219


 10156 03d0 06       		.sleb128 6
 10157 03d1 13       		.uleb128 0x13
 10158 03d2 DD0D0000 		.4byte	.LASF72
 10159 03d6 07       		.sleb128 7
 10160 03d7 13       		.uleb128 0x13
 10161 03d8 A7130000 		.4byte	.LASF73
 10162 03dc 08       		.sleb128 8
 10163 03dd 00       		.byte	0
 10164 03de 12       		.uleb128 0x12
 10165 03df 822A0000 		.4byte	.LASF74
 10166 03e3 01       		.byte	0x1
 10167 03e4 07       		.byte	0x7
 10168 03e5 4A       		.byte	0x4a
 10169 03e6 FD030000 		.4byte	0x3fd
 10170 03ea 13       		.uleb128 0x13
 10171 03eb 922A0000 		.4byte	.LASF75
 10172 03ef 01       		.sleb128 1
 10173 03f0 13       		.uleb128 0x13
 10174 03f1 330D0000 		.4byte	.LASF76
 10175 03f5 02       		.sleb128 2
 10176 03f6 13       		.uleb128 0x13
 10177 03f7 A21D0000 		.4byte	.LASF77
 10178 03fb 03       		.sleb128 3
 10179 03fc 00       		.byte	0
 10180 03fd 14       		.uleb128 0x14
 10181 03fe 5A000000 		.4byte	.LASF78
 10182 0402 9801     		.2byte	0x198
 10183 0404 07       		.byte	0x7
 10184 0405 51       		.byte	0x51
 10185 0406 9E040000 		.4byte	0x49e
 10186 040a 0D       		.uleb128 0xd
 10187 040b B9190000 		.4byte	.LASF79
 10188 040f 07       		.byte	0x7
 10189 0410 53       		.byte	0x53
 10190 0411 9E040000 		.4byte	0x49e
 10191 0415 00       		.byte	0
 10192 0416 0D       		.uleb128 0xd
 10193 0417 88230000 		.4byte	.LASF80
 10194 041b 07       		.byte	0x7
 10195 041c 54       		.byte	0x54
 10196 041d DE000000 		.4byte	0xde
 10197 0421 01       		.byte	0x1
 10198 0422 0D       		.uleb128 0xd
 10199 0423 B4260000 		.4byte	.LASF81
 10200 0427 07       		.byte	0x7
 10201 0428 55       		.byte	0x55
 10202 0429 DE000000 		.4byte	0xde
 10203 042d 02       		.byte	0x2
 10204 042e 0D       		.uleb128 0xd
 10205 042f 0A280000 		.4byte	.LASF50
 10206 0433 07       		.byte	0x7
 10207 0434 56       		.byte	0x56
 10208 0435 DE000000 		.4byte	0xde
 10209 0439 03       		.byte	0x3
 10210 043a 0D       		.uleb128 0xd
 10211 043b BC0C0000 		.4byte	.LASF82
 10212 043f 07       		.byte	0x7
ARM GAS  C:\Users\RECEPC~1\AppData\Local\Temp\ccvg7Xyk.s 			page 220


 10213 0440 58       		.byte	0x58
 10214 0441 E3000000 		.4byte	0xe3
 10215 0445 04       		.byte	0x4
 10216 0446 0D       		.uleb128 0xd
 10217 0447 F90F0000 		.4byte	.LASF83
 10218 044b 07       		.byte	0x7
 10219 044c 59       		.byte	0x59
 10220 044d E3000000 		.4byte	0xe3
 10221 0451 06       		.byte	0x6
 10222 0452 0D       		.uleb128 0xd
 10223 0453 22080000 		.4byte	.LASF84
 10224 0457 07       		.byte	0x7
 10225 0458 5A       		.byte	0x5a
 10226 0459 E3000000 		.4byte	0xe3
 10227 045d 08       		.byte	0x8
 10228 045e 0D       		.uleb128 0xd
 10229 045f B2250000 		.4byte	.LASF85
 10230 0463 07       		.byte	0x7
 10231 0464 5B       		.byte	0x5b
 10232 0465 E3000000 		.4byte	0xe3
 10233 0469 0A       		.byte	0xa
 10234 046a 0D       		.uleb128 0xd
 10235 046b 11070000 		.4byte	.LASF86
 10236 046f 07       		.byte	0x7
 10237 0470 5C       		.byte	0x5c
 10238 0471 A3040000 		.4byte	0x4a3
 10239 0475 0C       		.byte	0xc
 10240 0476 15       		.uleb128 0x15
 10241 0477 612B0000 		.4byte	.LASF87
 10242 047b 07       		.byte	0x7
 10243 047c 5D       		.byte	0x5d
 10244 047d E3000000 		.4byte	0xe3
 10245 0481 8C01     		.2byte	0x18c
 10246 0483 15       		.uleb128 0x15
 10247 0484 04150000 		.4byte	.LASF88
 10248 0488 07       		.byte	0x7
 10249 0489 60       		.byte	0x60
 10250 048a FB000000 		.4byte	0xfb
 10251 048e 9001     		.2byte	0x190
 10252 0490 15       		.uleb128 0x15
 10253 0491 EE230000 		.4byte	.LASF89
 10254 0495 07       		.byte	0x7
 10255 0496 61       		.byte	0x61
 10256 0497 38020000 		.4byte	0x238
 10257 049b 9401     		.2byte	0x194
 10258 049d 00       		.byte	0
 10259 049e 06       		.uleb128 0x6
 10260 049f AD020000 		.4byte	0x2ad
 10261 04a3 0A       		.uleb128 0xa
 10262 04a4 CB000000 		.4byte	0xcb
 10263 04a8 B4040000 		.4byte	0x4b4
 10264 04ac 16       		.uleb128 0x16
 10265 04ad F4000000 		.4byte	0xf4
 10266 04b1 7F01     		.2byte	0x17f
 10267 04b3 00       		.byte	0
 10268 04b4 03       		.uleb128 0x3
 10269 04b5 A11A0000 		.4byte	.LASF90
ARM GAS  C:\Users\RECEPC~1\AppData\Local\Temp\ccvg7Xyk.s 			page 221


 10270 04b9 07       		.byte	0x7
 10271 04ba 62       		.byte	0x62
 10272 04bb BF040000 		.4byte	0x4bf
 10273 04bf 07       		.uleb128 0x7
 10274 04c0 04       		.byte	0x4
 10275 04c1 FD030000 		.4byte	0x3fd
 10276 04c5 12       		.uleb128 0x12
 10277 04c6 5F070000 		.4byte	.LASF91
 10278 04ca 01       		.byte	0x1
 10279 04cb 08       		.byte	0x8
 10280 04cc 0F       		.byte	0xf
 10281 04cd C8050000 		.4byte	0x5c8
 10282 04d1 13       		.uleb128 0x13
 10283 04d2 511D0000 		.4byte	.LASF92
 10284 04d6 01       		.sleb128 1
 10285 04d7 13       		.uleb128 0x13
 10286 04d8 40220000 		.4byte	.LASF93
 10287 04dc 02       		.sleb128 2
 10288 04dd 13       		.uleb128 0x13
 10289 04de 69020000 		.4byte	.LASF94
 10290 04e2 03       		.sleb128 3
 10291 04e3 13       		.uleb128 0x13
 10292 04e4 65200000 		.4byte	.LASF95
 10293 04e8 04       		.sleb128 4
 10294 04e9 13       		.uleb128 0x13
 10295 04ea 21020000 		.4byte	.LASF96
 10296 04ee 05       		.sleb128 5
 10297 04ef 13       		.uleb128 0x13
 10298 04f0 A7040000 		.4byte	.LASF97
 10299 04f4 06       		.sleb128 6
 10300 04f5 13       		.uleb128 0x13
 10301 04f6 B3170000 		.4byte	.LASF98
 10302 04fa 07       		.sleb128 7
 10303 04fb 13       		.uleb128 0x13
 10304 04fc AC000000 		.4byte	.LASF99
 10305 0500 08       		.sleb128 8
 10306 0501 13       		.uleb128 0x13
 10307 0502 57150000 		.4byte	.LASF100
 10308 0506 09       		.sleb128 9
 10309 0507 13       		.uleb128 0x13
 10310 0508 FF070000 		.4byte	.LASF101
 10311 050c 0A       		.sleb128 10
 10312 050d 13       		.uleb128 0x13
 10313 050e B1090000 		.4byte	.LASF102
 10314 0512 0B       		.sleb128 11
 10315 0513 13       		.uleb128 0x13
 10316 0514 47030000 		.4byte	.LASF103
 10317 0518 0C       		.sleb128 12
 10318 0519 13       		.uleb128 0x13
 10319 051a 12210000 		.4byte	.LASF104
 10320 051e 0D       		.sleb128 13
 10321 051f 13       		.uleb128 0x13
 10322 0520 59250000 		.4byte	.LASF105
 10323 0524 0E       		.sleb128 14
 10324 0525 13       		.uleb128 0x13
 10325 0526 900C0000 		.4byte	.LASF106
 10326 052a 0F       		.sleb128 15
ARM GAS  C:\Users\RECEPC~1\AppData\Local\Temp\ccvg7Xyk.s 			page 222


 10327 052b 13       		.uleb128 0x13
 10328 052c 420D0000 		.4byte	.LASF107
 10329 0530 10       		.sleb128 16
 10330 0531 13       		.uleb128 0x13
 10331 0532 8C280000 		.4byte	.LASF108
 10332 0536 11       		.sleb128 17
 10333 0537 13       		.uleb128 0x13
 10334 0538 E5240000 		.4byte	.LASF109
 10335 053c 12       		.sleb128 18
 10336 053d 13       		.uleb128 0x13
 10337 053e 8E040000 		.4byte	.LASF110
 10338 0542 13       		.sleb128 19
 10339 0543 13       		.uleb128 0x13
 10340 0544 841C0000 		.4byte	.LASF111
 10341 0548 14       		.sleb128 20
 10342 0549 13       		.uleb128 0x13
 10343 054a 3C080000 		.4byte	.LASF112
 10344 054e 15       		.sleb128 21
 10345 054f 13       		.uleb128 0x13
 10346 0550 F3170000 		.4byte	.LASF113
 10347 0554 16       		.sleb128 22
 10348 0555 13       		.uleb128 0x13
 10349 0556 A10F0000 		.4byte	.LASF114
 10350 055a 17       		.sleb128 23
 10351 055b 13       		.uleb128 0x13
 10352 055c 31050000 		.4byte	.LASF115
 10353 0560 18       		.sleb128 24
 10354 0561 13       		.uleb128 0x13
 10355 0562 75290000 		.4byte	.LASF116
 10356 0566 19       		.sleb128 25
 10357 0567 13       		.uleb128 0x13
 10358 0568 AC220000 		.4byte	.LASF117
 10359 056c 1A       		.sleb128 26
 10360 056d 13       		.uleb128 0x13
 10361 056e ED090000 		.4byte	.LASF118
 10362 0572 1B       		.sleb128 27
 10363 0573 13       		.uleb128 0x13
 10364 0574 5A280000 		.4byte	.LASF119
 10365 0578 1C       		.sleb128 28
 10366 0579 13       		.uleb128 0x13
 10367 057a 22250000 		.4byte	.LASF120
 10368 057e 1D       		.sleb128 29
 10369 057f 13       		.uleb128 0x13
 10370 0580 36030000 		.4byte	.LASF121
 10371 0584 1E       		.sleb128 30
 10372 0585 13       		.uleb128 0x13
 10373 0586 850B0000 		.4byte	.LASF122
 10374 058a 1F       		.sleb128 31
 10375 058b 13       		.uleb128 0x13
 10376 058c FB060000 		.4byte	.LASF123
 10377 0590 20       		.sleb128 32
 10378 0591 13       		.uleb128 0x13
 10379 0592 CF230000 		.4byte	.LASF124
 10380 0596 21       		.sleb128 33
 10381 0597 13       		.uleb128 0x13
 10382 0598 EE0D0000 		.4byte	.LASF125
 10383 059c 22       		.sleb128 34
ARM GAS  C:\Users\RECEPC~1\AppData\Local\Temp\ccvg7Xyk.s 			page 223


 10384 059d 13       		.uleb128 0x13
 10385 059e 86090000 		.4byte	.LASF126
 10386 05a2 23       		.sleb128 35
 10387 05a3 13       		.uleb128 0x13
 10388 05a4 3E200000 		.4byte	.LASF127
 10389 05a8 24       		.sleb128 36
 10390 05a9 13       		.uleb128 0x13
 10391 05aa 5B020000 		.4byte	.LASF128
 10392 05ae 25       		.sleb128 37
 10393 05af 13       		.uleb128 0x13
 10394 05b0 BA2A0000 		.4byte	.LASF129
 10395 05b4 26       		.sleb128 38
 10396 05b5 13       		.uleb128 0x13
 10397 05b6 461C0000 		.4byte	.LASF130
 10398 05ba 27       		.sleb128 39
 10399 05bb 13       		.uleb128 0x13
 10400 05bc 71040000 		.4byte	.LASF131
 10401 05c0 28       		.sleb128 40
 10402 05c1 13       		.uleb128 0x13
 10403 05c2 83160000 		.4byte	.LASF132
 10404 05c6 29       		.sleb128 41
 10405 05c7 00       		.byte	0
 10406 05c8 03       		.uleb128 0x3
 10407 05c9 790E0000 		.4byte	.LASF133
 10408 05cd 09       		.byte	0x9
 10409 05ce 28       		.byte	0x28
 10410 05cf FD000000 		.4byte	0xfd
 10411 05d3 12       		.uleb128 0x12
 10412 05d4 D20F0000 		.4byte	.LASF134
 10413 05d8 01       		.byte	0x1
 10414 05d9 09       		.byte	0x9
 10415 05da FC       		.byte	0xfc
 10416 05db 55060000 		.4byte	0x655
 10417 05df 13       		.uleb128 0x13
 10418 05e0 A3230000 		.4byte	.LASF135
 10419 05e4 0F       		.sleb128 15
 10420 05e5 13       		.uleb128 0x13
 10421 05e6 AC1D0000 		.4byte	.LASF136
 10422 05ea 10       		.sleb128 16
 10423 05eb 13       		.uleb128 0x13
 10424 05ec 25280000 		.4byte	.LASF137
 10425 05f0 C300     		.sleb128 67
 10426 05f2 13       		.uleb128 0x13
 10427 05f3 3F050000 		.4byte	.LASF138
 10428 05f7 C400     		.sleb128 68
 10429 05f9 13       		.uleb128 0x13
 10430 05fa A7270000 		.4byte	.LASF139
 10431 05fe C500     		.sleb128 69
 10432 0600 13       		.uleb128 0x13
 10433 0601 F11F0000 		.4byte	.LASF140
 10434 0605 C600     		.sleb128 70
 10435 0607 13       		.uleb128 0x13
 10436 0608 00230000 		.4byte	.LASF141
 10437 060c C700     		.sleb128 71
 10438 060e 13       		.uleb128 0x13
 10439 060f 92070000 		.4byte	.LASF142
 10440 0613 C800     		.sleb128 72
ARM GAS  C:\Users\RECEPC~1\AppData\Local\Temp\ccvg7Xyk.s 			page 224


 10441 0615 13       		.uleb128 0x13
 10442 0616 16140000 		.4byte	.LASF143
 10443 061a C900     		.sleb128 73
 10444 061c 13       		.uleb128 0x13
 10445 061d 901B0000 		.4byte	.LASF144
 10446 0621 CA00     		.sleb128 74
 10447 0623 13       		.uleb128 0x13
 10448 0624 4F280000 		.4byte	.LASF145
 10449 0628 CB00     		.sleb128 75
 10450 062a 13       		.uleb128 0x13
 10451 062b D41B0000 		.4byte	.LASF146
 10452 062f CC00     		.sleb128 76
 10453 0631 13       		.uleb128 0x13
 10454 0632 E7080000 		.4byte	.LASF147
 10455 0636 CD00     		.sleb128 77
 10456 0638 13       		.uleb128 0x13
 10457 0639 49140000 		.4byte	.LASF148
 10458 063d CE00     		.sleb128 78
 10459 063f 13       		.uleb128 0x13
 10460 0640 6B1F0000 		.4byte	.LASF149
 10461 0644 CF00     		.sleb128 79
 10462 0646 13       		.uleb128 0x13
 10463 0647 83270000 		.4byte	.LASF150
 10464 064b D000     		.sleb128 80
 10465 064d 13       		.uleb128 0x13
 10466 064e 59100000 		.4byte	.LASF151
 10467 0652 D100     		.sleb128 81
 10468 0654 00       		.byte	0
 10469 0655 17       		.uleb128 0x17
 10470 0656 0401     		.2byte	0x104
 10471 0658 09       		.byte	0x9
 10472 0659 2B01     		.2byte	0x12b
 10473 065b 95060000 		.4byte	0x695
 10474 065f 18       		.uleb128 0x18
 10475 0660 AD020000 		.4byte	.LASF152
 10476 0664 09       		.byte	0x9
 10477 0665 2D01     		.2byte	0x12d
 10478 0667 81000000 		.4byte	0x81
 10479 066b 00       		.byte	0
 10480 066c 18       		.uleb128 0x18
 10481 066d C21D0000 		.4byte	.LASF153
 10482 0671 09       		.byte	0x9
 10483 0672 2E01     		.2byte	0x12e
 10484 0674 81000000 		.4byte	0x81
 10485 0678 01       		.byte	0x1
 10486 0679 18       		.uleb128 0x18
 10487 067a 11070000 		.4byte	.LASF86
 10488 067e 09       		.byte	0x9
 10489 067f 2F01     		.2byte	0x12f
 10490 0681 95060000 		.4byte	0x695
 10491 0685 02       		.byte	0x2
 10492 0686 19       		.uleb128 0x19
 10493 0687 612B0000 		.4byte	.LASF87
 10494 068b 09       		.byte	0x9
 10495 068c 3001     		.2byte	0x130
 10496 068e 8D000000 		.4byte	0x8d
 10497 0692 0201     		.2byte	0x102
ARM GAS  C:\Users\RECEPC~1\AppData\Local\Temp\ccvg7Xyk.s 			page 225


 10498 0694 00       		.byte	0
 10499 0695 0A       		.uleb128 0xa
 10500 0696 D7000000 		.4byte	0xd7
 10501 069a A5060000 		.4byte	0x6a5
 10502 069e 0B       		.uleb128 0xb
 10503 069f F4000000 		.4byte	0xf4
 10504 06a3 FF       		.byte	0xff
 10505 06a4 00       		.byte	0
 10506 06a5 05       		.uleb128 0x5
 10507 06a6 2C2A0000 		.4byte	.LASF154
 10508 06aa 09       		.byte	0x9
 10509 06ab 3201     		.2byte	0x132
 10510 06ad 55060000 		.4byte	0x655
 10511 06b1 05       		.uleb128 0x5
 10512 06b2 97110000 		.4byte	.LASF155
 10513 06b6 09       		.byte	0x9
 10514 06b7 3201     		.2byte	0x132
 10515 06b9 BD060000 		.4byte	0x6bd
 10516 06bd 07       		.uleb128 0x7
 10517 06be 04       		.byte	0x4
 10518 06bf 55060000 		.4byte	0x655
 10519 06c3 1A       		.uleb128 0x1a
 10520 06c4 40       		.byte	0x40
 10521 06c5 09       		.byte	0x9
 10522 06c6 3401     		.2byte	0x134
 10523 06c8 69070000 		.4byte	0x769
 10524 06cc 18       		.uleb128 0x18
 10525 06cd 94220000 		.4byte	.LASF156
 10526 06d1 09       		.byte	0x9
 10527 06d2 3601     		.2byte	0x136
 10528 06d4 DE000000 		.4byte	0xde
 10529 06d8 00       		.byte	0
 10530 06d9 18       		.uleb128 0x18
 10531 06da 9A220000 		.4byte	.LASF157
 10532 06de 09       		.byte	0x9
 10533 06df 3701     		.2byte	0x137
 10534 06e1 DE000000 		.4byte	0xde
 10535 06e5 01       		.byte	0x1
 10536 06e6 18       		.uleb128 0x18
 10537 06e7 A0220000 		.4byte	.LASF158
 10538 06eb 09       		.byte	0x9
 10539 06ec 3901     		.2byte	0x139
 10540 06ee E3000000 		.4byte	0xe3
 10541 06f2 02       		.byte	0x2
 10542 06f3 18       		.uleb128 0x18
 10543 06f4 A6220000 		.4byte	.LASF159
 10544 06f8 09       		.byte	0x9
 10545 06f9 3A01     		.2byte	0x13a
 10546 06fb E3000000 		.4byte	0xe3
 10547 06ff 04       		.byte	0x4
 10548 0700 18       		.uleb128 0x18
 10549 0701 E8200000 		.4byte	.LASF160
 10550 0705 09       		.byte	0x9
 10551 0706 3C01     		.2byte	0x13c
 10552 0708 E8000000 		.4byte	0xe8
 10553 070c 08       		.byte	0x8
 10554 070d 18       		.uleb128 0x18
ARM GAS  C:\Users\RECEPC~1\AppData\Local\Temp\ccvg7Xyk.s 			page 226


 10555 070e C1220000 		.4byte	.LASF161
 10556 0712 09       		.byte	0x9
 10557 0713 3D01     		.2byte	0x13d
 10558 0715 E8000000 		.4byte	0xe8
 10559 0719 0C       		.byte	0xc
 10560 071a 18       		.uleb128 0x18
 10561 071b C7220000 		.4byte	.LASF162
 10562 071f 09       		.byte	0x9
 10563 0720 4201     		.2byte	0x142
 10564 0722 69070000 		.4byte	0x769
 10565 0726 10       		.byte	0x10
 10566 0727 18       		.uleb128 0x18
 10567 0728 CD220000 		.4byte	.LASF163
 10568 072c 09       		.byte	0x9
 10569 072d 4301     		.2byte	0x143
 10570 072f 69070000 		.4byte	0x769
 10571 0733 18       		.byte	0x18
 10572 0734 18       		.uleb128 0x18
 10573 0735 D3220000 		.4byte	.LASF164
 10574 0739 09       		.byte	0x9
 10575 073a 4401     		.2byte	0x144
 10576 073c 69070000 		.4byte	0x769
 10577 0740 20       		.byte	0x20
 10578 0741 18       		.uleb128 0x18
 10579 0742 D9220000 		.4byte	.LASF165
 10580 0746 09       		.byte	0x9
 10581 0747 4501     		.2byte	0x145
 10582 0749 69070000 		.4byte	0x769
 10583 074d 28       		.byte	0x28
 10584 074e 18       		.uleb128 0x18
 10585 074f 15230000 		.4byte	.LASF166
 10586 0753 09       		.byte	0x9
 10587 0754 4701     		.2byte	0x147
 10588 0756 6E070000 		.4byte	0x76e
 10589 075a 30       		.byte	0x30
 10590 075b 18       		.uleb128 0x18
 10591 075c 1B230000 		.4byte	.LASF167
 10592 0760 09       		.byte	0x9
 10593 0761 4801     		.2byte	0x148
 10594 0763 6E070000 		.4byte	0x76e
 10595 0767 38       		.byte	0x38
 10596 0768 00       		.byte	0
 10597 0769 06       		.uleb128 0x6
 10598 076a BF000000 		.4byte	0xbf
 10599 076e 06       		.uleb128 0x6
 10600 076f B8000000 		.4byte	0xb8
 10601 0773 05       		.uleb128 0x5
 10602 0774 051A0000 		.4byte	.LASF168
 10603 0778 09       		.byte	0x9
 10604 0779 4A01     		.2byte	0x14a
 10605 077b C3060000 		.4byte	0x6c3
 10606 077f 1A       		.uleb128 0x1a
 10607 0780 18       		.byte	0x18
 10608 0781 09       		.byte	0x9
 10609 0782 5201     		.2byte	0x152
 10610 0784 E4070000 		.4byte	0x7e4
 10611 0788 18       		.uleb128 0x18
ARM GAS  C:\Users\RECEPC~1\AppData\Local\Temp\ccvg7Xyk.s 			page 227


 10612 0789 631D0000 		.4byte	.LASF169
 10613 078d 09       		.byte	0x9
 10614 078e 5501     		.2byte	0x155
 10615 0790 9E040000 		.4byte	0x49e
 10616 0794 00       		.byte	0
 10617 0795 18       		.uleb128 0x18
 10618 0796 43280000 		.4byte	.LASF170
 10619 079a 09       		.byte	0x9
 10620 079b 5601     		.2byte	0x156
 10621 079d DE000000 		.4byte	0xde
 10622 07a1 01       		.byte	0x1
 10623 07a2 18       		.uleb128 0x18
 10624 07a3 400F0000 		.4byte	.LASF171
 10625 07a7 09       		.byte	0x9
 10626 07a8 5701     		.2byte	0x157
 10627 07aa DE000000 		.4byte	0xde
 10628 07ae 02       		.byte	0x2
 10629 07af 18       		.uleb128 0x18
 10630 07b0 491A0000 		.4byte	.LASF172
 10631 07b4 09       		.byte	0x9
 10632 07b5 5801     		.2byte	0x158
 10633 07b7 E3000000 		.4byte	0xe3
 10634 07bb 04       		.byte	0x4
 10635 07bc 18       		.uleb128 0x18
 10636 07bd 31210000 		.4byte	.LASF173
 10637 07c1 09       		.byte	0x9
 10638 07c2 5901     		.2byte	0x159
 10639 07c4 E8000000 		.4byte	0xe8
 10640 07c8 08       		.byte	0x8
 10641 07c9 18       		.uleb128 0x18
 10642 07ca FD0C0000 		.4byte	.LASF174
 10643 07ce 09       		.byte	0x9
 10644 07cf 5A01     		.2byte	0x15a
 10645 07d1 E8000000 		.4byte	0xe8
 10646 07d5 0C       		.byte	0xc
 10647 07d6 18       		.uleb128 0x18
 10648 07d7 270C0000 		.4byte	.LASF175
 10649 07db 09       		.byte	0x9
 10650 07dc 5B01     		.2byte	0x15b
 10651 07de E4070000 		.4byte	0x7e4
 10652 07e2 10       		.byte	0x10
 10653 07e3 00       		.byte	0
 10654 07e4 0A       		.uleb128 0xa
 10655 07e5 CB000000 		.4byte	0xcb
 10656 07e9 F4070000 		.4byte	0x7f4
 10657 07ed 0B       		.uleb128 0xb
 10658 07ee F4000000 		.4byte	0xf4
 10659 07f2 07       		.byte	0x7
 10660 07f3 00       		.byte	0
 10661 07f4 05       		.uleb128 0x5
 10662 07f5 92120000 		.4byte	.LASF176
 10663 07f9 09       		.byte	0x9
 10664 07fa 5D01     		.2byte	0x15d
 10665 07fc 7F070000 		.4byte	0x77f
 10666 0800 1B       		.uleb128 0x1b
 10667 0801 60160000 		.4byte	.LASF177
 10668 0805 9009     		.2byte	0x990
ARM GAS  C:\Users\RECEPC~1\AppData\Local\Temp\ccvg7Xyk.s 			page 228


 10669 0807 09       		.byte	0x9
 10670 0808 6001     		.2byte	0x160
 10671 080a FF090000 		.4byte	0x9ff
 10672 080e 18       		.uleb128 0x18
 10673 080f 24110000 		.4byte	.LASF178
 10674 0813 09       		.byte	0x9
 10675 0814 6201     		.2byte	0x162
 10676 0816 81000000 		.4byte	0x81
 10677 081a 00       		.byte	0
 10678 081b 18       		.uleb128 0x18
 10679 081c 71230000 		.4byte	.LASF179
 10680 0820 09       		.byte	0x9
 10681 0821 6301     		.2byte	0x163
 10682 0823 81000000 		.4byte	0x81
 10683 0827 01       		.byte	0x1
 10684 0828 18       		.uleb128 0x18
 10685 0829 E0070000 		.4byte	.LASF180
 10686 082d 09       		.byte	0x9
 10687 082e 6501     		.2byte	0x165
 10688 0830 DE000000 		.4byte	0xde
 10689 0834 02       		.byte	0x2
 10690 0835 18       		.uleb128 0x18
 10691 0836 48270000 		.4byte	.LASF181
 10692 083a 09       		.byte	0x9
 10693 083b 6601     		.2byte	0x166
 10694 083d DE000000 		.4byte	0xde
 10695 0841 03       		.byte	0x3
 10696 0842 18       		.uleb128 0x18
 10697 0843 951E0000 		.4byte	.LASF182
 10698 0847 09       		.byte	0x9
 10699 0848 6701     		.2byte	0x167
 10700 084a DE000000 		.4byte	0xde
 10701 084e 04       		.byte	0x4
 10702 084f 18       		.uleb128 0x18
 10703 0850 70220000 		.4byte	.LASF183
 10704 0854 09       		.byte	0x9
 10705 0855 6801     		.2byte	0x168
 10706 0857 9E040000 		.4byte	0x49e
 10707 085b 05       		.byte	0x5
 10708 085c 18       		.uleb128 0x18
 10709 085d EF000000 		.4byte	.LASF184
 10710 0861 09       		.byte	0x9
 10711 0862 6A01     		.2byte	0x16a
 10712 0864 DE000000 		.4byte	0xde
 10713 0868 06       		.byte	0x6
 10714 0869 18       		.uleb128 0x18
 10715 086a 191F0000 		.4byte	.LASF185
 10716 086e 09       		.byte	0x9
 10717 086f 6B01     		.2byte	0x16b
 10718 0871 DE000000 		.4byte	0xde
 10719 0875 07       		.byte	0x7
 10720 0876 18       		.uleb128 0x18
 10721 0877 631D0000 		.4byte	.LASF169
 10722 087b 09       		.byte	0x9
 10723 087c 6D01     		.2byte	0x16d
 10724 087e 9E040000 		.4byte	0x49e
 10725 0882 08       		.byte	0x8
ARM GAS  C:\Users\RECEPC~1\AppData\Local\Temp\ccvg7Xyk.s 			page 229


 10726 0883 18       		.uleb128 0x18
 10727 0884 EB070000 		.4byte	.LASF186
 10728 0888 09       		.byte	0x9
 10729 0889 6E01     		.2byte	0x16e
 10730 088b 9E040000 		.4byte	0x49e
 10731 088f 09       		.byte	0x9
 10732 0890 18       		.uleb128 0x18
 10733 0891 EF210000 		.4byte	.LASF187
 10734 0895 09       		.byte	0x9
 10735 0896 6F01     		.2byte	0x16f
 10736 0898 9E040000 		.4byte	0x49e
 10737 089c 0A       		.byte	0xa
 10738 089d 18       		.uleb128 0x18
 10739 089e 7C230000 		.4byte	.LASF188
 10740 08a2 09       		.byte	0x9
 10741 08a3 7001     		.2byte	0x170
 10742 08a5 9E040000 		.4byte	0x49e
 10743 08a9 0B       		.byte	0xb
 10744 08aa 18       		.uleb128 0x18
 10745 08ab C4070000 		.4byte	.LASF189
 10746 08af 09       		.byte	0x9
 10747 08b0 7101     		.2byte	0x171
 10748 08b2 DE000000 		.4byte	0xde
 10749 08b6 0C       		.byte	0xc
 10750 08b7 18       		.uleb128 0x18
 10751 08b8 990E0000 		.4byte	.LASF190
 10752 08bc 09       		.byte	0x9
 10753 08bd 7201     		.2byte	0x172
 10754 08bf 9E040000 		.4byte	0x49e
 10755 08c3 0D       		.byte	0xd
 10756 08c4 18       		.uleb128 0x18
 10757 08c5 2A000000 		.4byte	.LASF191
 10758 08c9 09       		.byte	0x9
 10759 08ca 7301     		.2byte	0x173
 10760 08cc DE000000 		.4byte	0xde
 10761 08d0 0E       		.byte	0xe
 10762 08d1 18       		.uleb128 0x18
 10763 08d2 EF280000 		.4byte	.LASF192
 10764 08d6 09       		.byte	0x9
 10765 08d7 7501     		.2byte	0x175
 10766 08d9 9E040000 		.4byte	0x49e
 10767 08dd 0F       		.byte	0xf
 10768 08de 18       		.uleb128 0x18
 10769 08df 8D190000 		.4byte	.LASF193
 10770 08e3 09       		.byte	0x9
 10771 08e4 7701     		.2byte	0x177
 10772 08e6 E8000000 		.4byte	0xe8
 10773 08ea 10       		.byte	0x10
 10774 08eb 18       		.uleb128 0x18
 10775 08ec 19130000 		.4byte	.LASF194
 10776 08f0 09       		.byte	0x9
 10777 08f1 7801     		.2byte	0x178
 10778 08f3 E8000000 		.4byte	0xe8
 10779 08f7 14       		.byte	0x14
 10780 08f8 18       		.uleb128 0x18
 10781 08f9 FF0D0000 		.4byte	.LASF195
 10782 08fd 09       		.byte	0x9
ARM GAS  C:\Users\RECEPC~1\AppData\Local\Temp\ccvg7Xyk.s 			page 230


 10783 08fe 7B01     		.2byte	0x17b
 10784 0900 DE000000 		.4byte	0xde
 10785 0904 18       		.byte	0x18
 10786 0905 18       		.uleb128 0x18
 10787 0906 C21D0000 		.4byte	.LASF153
 10788 090a 09       		.byte	0x9
 10789 090b 7C01     		.2byte	0x17c
 10790 090d DE000000 		.4byte	0xde
 10791 0911 19       		.byte	0x19
 10792 0912 18       		.uleb128 0x18
 10793 0913 0C200000 		.4byte	.LASF196
 10794 0917 09       		.byte	0x9
 10795 0918 7E01     		.2byte	0x17e
 10796 091a FB000000 		.4byte	0xfb
 10797 091e 1C       		.byte	0x1c
 10798 091f 18       		.uleb128 0x18
 10799 0920 35120000 		.4byte	.LASF197
 10800 0924 09       		.byte	0x9
 10801 0925 7F01     		.2byte	0x17f
 10802 0927 FF090000 		.4byte	0x9ff
 10803 092b 20       		.byte	0x20
 10804 092c 19       		.uleb128 0x19
 10805 092d 7F110000 		.4byte	.LASF198
 10806 0931 09       		.byte	0x9
 10807 0932 8101     		.2byte	0x181
 10808 0934 FF090000 		.4byte	0x9ff
 10809 0938 8801     		.2byte	0x188
 10810 093a 19       		.uleb128 0x19
 10811 093b 4D020000 		.4byte	.LASF199
 10812 093f 09       		.byte	0x9
 10813 0940 8201     		.2byte	0x182
 10814 0942 8D000000 		.4byte	0x8d
 10815 0946 F002     		.2byte	0x2f0
 10816 0948 19       		.uleb128 0x19
 10817 0949 BB040000 		.4byte	.LASF200
 10818 094d 09       		.byte	0x9
 10819 094e 8601     		.2byte	0x186
 10820 0950 100A0000 		.4byte	0xa10
 10821 0954 F202     		.2byte	0x2f2
 10822 0956 19       		.uleb128 0x19
 10823 0957 2E0F0000 		.4byte	.LASF201
 10824 095b 09       		.byte	0x9
 10825 095c 8801     		.2byte	0x188
 10826 095e 9E040000 		.4byte	0x49e
 10827 0962 0A09     		.2byte	0x90a
 10828 0964 19       		.uleb128 0x19
 10829 0965 97240000 		.4byte	.LASF202
 10830 0969 09       		.byte	0x9
 10831 096a 8A01     		.2byte	0x18a
 10832 096c 38020000 		.4byte	0x238
 10833 0970 0C09     		.2byte	0x90c
 10834 0972 19       		.uleb128 0x19
 10835 0973 342B0000 		.4byte	.LASF203
 10836 0977 09       		.byte	0x9
 10837 0978 8B01     		.2byte	0x18b
 10838 097a 38020000 		.4byte	0x238
 10839 097e 1009     		.2byte	0x910
ARM GAS  C:\Users\RECEPC~1\AppData\Local\Temp\ccvg7Xyk.s 			page 231


 10840 0980 19       		.uleb128 0x19
 10841 0981 46290000 		.4byte	.LASF204
 10842 0985 09       		.byte	0x9
 10843 0986 8C01     		.2byte	0x18c
 10844 0988 340A0000 		.4byte	0xa34
 10845 098c 1409     		.2byte	0x914
 10846 098e 19       		.uleb128 0x19
 10847 098f 35250000 		.4byte	.LASF205
 10848 0993 09       		.byte	0x9
 10849 0994 8D01     		.2byte	0x18d
 10850 0996 4A0A0000 		.4byte	0xa4a
 10851 099a 1809     		.2byte	0x918
 10852 099c 19       		.uleb128 0x19
 10853 099d D7050000 		.4byte	.LASF206
 10854 09a1 09       		.byte	0x9
 10855 09a2 8E01     		.2byte	0x18e
 10856 09a4 4A0A0000 		.4byte	0xa4a
 10857 09a8 1C09     		.2byte	0x91c
 10858 09aa 19       		.uleb128 0x19
 10859 09ab B7240000 		.4byte	.LASF207
 10860 09af 09       		.byte	0x9
 10861 09b0 8F01     		.2byte	0x18f
 10862 09b2 5F0A0000 		.4byte	0xa5f
 10863 09b6 2009     		.2byte	0x920
 10864 09b8 19       		.uleb128 0x19
 10865 09b9 5D0D0000 		.4byte	.LASF208
 10866 09bd 09       		.byte	0x9
 10867 09be 9001     		.2byte	0x190
 10868 09c0 5F0A0000 		.4byte	0xa5f
 10869 09c4 2409     		.2byte	0x924
 10870 09c6 19       		.uleb128 0x19
 10871 09c7 61270000 		.4byte	.LASF209
 10872 09cb 09       		.byte	0x9
 10873 09cc 9201     		.2byte	0x192
 10874 09ce 740A0000 		.4byte	0xa74
 10875 09d2 2809     		.2byte	0x928
 10876 09d4 19       		.uleb128 0x19
 10877 09d5 5C2A0000 		.4byte	.LASF210
 10878 09d9 09       		.byte	0x9
 10879 09da 9401     		.2byte	0x194
 10880 09dc 73070000 		.4byte	0x773
 10881 09e0 3009     		.2byte	0x930
 10882 09e2 19       		.uleb128 0x19
 10883 09e3 70270000 		.4byte	.LASF211
 10884 09e7 09       		.byte	0x9
 10885 09e8 9501     		.2byte	0x195
 10886 09ea F4070000 		.4byte	0x7f4
 10887 09ee 7009     		.2byte	0x970
 10888 09f0 19       		.uleb128 0x19
 10889 09f1 111F0000 		.4byte	.LASF212
 10890 09f5 09       		.byte	0x9
 10891 09f6 9701     		.2byte	0x197
 10892 09f8 38020000 		.4byte	0x238
 10893 09fc 8809     		.2byte	0x988
 10894 09fe 00       		.byte	0
 10895 09ff 0A       		.uleb128 0xa
 10896 0a00 CB000000 		.4byte	0xcb
ARM GAS  C:\Users\RECEPC~1\AppData\Local\Temp\ccvg7Xyk.s 			page 232


 10897 0a04 100A0000 		.4byte	0xa10
 10898 0a08 16       		.uleb128 0x16
 10899 0a09 F4000000 		.4byte	0xf4
 10900 0a0d 6701     		.2byte	0x167
 10901 0a0f 00       		.byte	0
 10902 0a10 0A       		.uleb128 0xa
 10903 0a11 A5060000 		.4byte	0x6a5
 10904 0a15 200A0000 		.4byte	0xa20
 10905 0a19 0B       		.uleb128 0xb
 10906 0a1a F4000000 		.4byte	0xf4
 10907 0a1e 05       		.byte	0x5
 10908 0a1f 00       		.byte	0
 10909 0a20 1C       		.uleb128 0x1c
 10910 0a21 AD020000 		.4byte	0x2ad
 10911 0a25 340A0000 		.4byte	0xa34
 10912 0a29 0F       		.uleb128 0xf
 10913 0a2a FB000000 		.4byte	0xfb
 10914 0a2e 0F       		.uleb128 0xf
 10915 0a2f 81000000 		.4byte	0x81
 10916 0a33 00       		.byte	0
 10917 0a34 07       		.uleb128 0x7
 10918 0a35 04       		.byte	0x4
 10919 0a36 200A0000 		.4byte	0xa20
 10920 0a3a 0E       		.uleb128 0xe
 10921 0a3b 4A0A0000 		.4byte	0xa4a
 10922 0a3f 0F       		.uleb128 0xf
 10923 0a40 FB000000 		.4byte	0xfb
 10924 0a44 0F       		.uleb128 0xf
 10925 0a45 B1060000 		.4byte	0x6b1
 10926 0a49 00       		.byte	0
 10927 0a4a 07       		.uleb128 0x7
 10928 0a4b 04       		.byte	0x4
 10929 0a4c 3A0A0000 		.4byte	0xa3a
 10930 0a50 1C       		.uleb128 0x1c
 10931 0a51 B1060000 		.4byte	0x6b1
 10932 0a55 5F0A0000 		.4byte	0xa5f
 10933 0a59 0F       		.uleb128 0xf
 10934 0a5a FB000000 		.4byte	0xfb
 10935 0a5e 00       		.byte	0
 10936 0a5f 07       		.uleb128 0x7
 10937 0a60 04       		.byte	0x4
 10938 0a61 500A0000 		.4byte	0xa50
 10939 0a65 1C       		.uleb128 0x1c
 10940 0a66 AD020000 		.4byte	0x2ad
 10941 0a6a 740A0000 		.4byte	0xa74
 10942 0a6e 0F       		.uleb128 0xf
 10943 0a6f FB000000 		.4byte	0xfb
 10944 0a73 00       		.byte	0
 10945 0a74 07       		.uleb128 0x7
 10946 0a75 04       		.byte	0x4
 10947 0a76 650A0000 		.4byte	0xa65
 10948 0a7a 05       		.uleb128 0x5
 10949 0a7b 521F0000 		.4byte	.LASF213
 10950 0a7f 09       		.byte	0x9
 10951 0a80 9901     		.2byte	0x199
 10952 0a82 00080000 		.4byte	0x800
 10953 0a86 05       		.uleb128 0x5
ARM GAS  C:\Users\RECEPC~1\AppData\Local\Temp\ccvg7Xyk.s 			page 233


 10954 0a87 671E0000 		.4byte	.LASF214
 10955 0a8b 09       		.byte	0x9
 10956 0a8c 9901     		.2byte	0x199
 10957 0a8e 920A0000 		.4byte	0xa92
 10958 0a92 07       		.uleb128 0x7
 10959 0a93 04       		.byte	0x4
 10960 0a94 00080000 		.4byte	0x800
 10961 0a98 1A       		.uleb128 0x1a
 10962 0a99 14       		.byte	0x14
 10963 0a9a 09       		.byte	0x9
 10964 0a9b FD01     		.2byte	0x1fd
 10965 0a9d 820B0000 		.4byte	0xb82
 10966 0aa1 18       		.uleb128 0x18
 10967 0aa2 EA130000 		.4byte	.LASF215
 10968 0aa6 09       		.byte	0x9
 10969 0aa7 FF01     		.2byte	0x1ff
 10970 0aa9 9E040000 		.4byte	0x49e
 10971 0aad 00       		.byte	0
 10972 0aae 18       		.uleb128 0x18
 10973 0aaf 54200000 		.4byte	.LASF216
 10974 0ab3 09       		.byte	0x9
 10975 0ab4 0002     		.2byte	0x200
 10976 0ab6 9E040000 		.4byte	0x49e
 10977 0aba 01       		.byte	0x1
 10978 0abb 18       		.uleb128 0x18
 10979 0abc BA0B0000 		.4byte	.LASF217
 10980 0ac0 09       		.byte	0x9
 10981 0ac1 0402     		.2byte	0x204
 10982 0ac3 81000000 		.4byte	0x81
 10983 0ac7 02       		.byte	0x2
 10984 0ac8 18       		.uleb128 0x18
 10985 0ac9 851E0000 		.4byte	.LASF218
 10986 0acd 09       		.byte	0x9
 10987 0ace 1202     		.2byte	0x212
 10988 0ad0 81000000 		.4byte	0x81
 10989 0ad4 03       		.byte	0x3
 10990 0ad5 18       		.uleb128 0x18
 10991 0ad6 ED0C0000 		.4byte	.LASF219
 10992 0ada 09       		.byte	0x9
 10993 0adb 1302     		.2byte	0x213
 10994 0add 81000000 		.4byte	0x81
 10995 0ae1 04       		.byte	0x4
 10996 0ae2 18       		.uleb128 0x18
 10997 0ae3 A61E0000 		.4byte	.LASF220
 10998 0ae7 09       		.byte	0x9
 10999 0ae8 1402     		.2byte	0x214
 11000 0aea 81000000 		.4byte	0x81
 11001 0aee 05       		.byte	0x5
 11002 0aef 18       		.uleb128 0x18
 11003 0af0 B61E0000 		.4byte	.LASF221
 11004 0af4 09       		.byte	0x9
 11005 0af5 1502     		.2byte	0x215
 11006 0af7 81000000 		.4byte	0x81
 11007 0afb 06       		.byte	0x6
 11008 0afc 18       		.uleb128 0x18
 11009 0afd 530E0000 		.4byte	.LASF222
 11010 0b01 09       		.byte	0x9
ARM GAS  C:\Users\RECEPC~1\AppData\Local\Temp\ccvg7Xyk.s 			page 234


 11011 0b02 1702     		.2byte	0x217
 11012 0b04 81000000 		.4byte	0x81
 11013 0b08 07       		.byte	0x7
 11014 0b09 18       		.uleb128 0x18
 11015 0b0a 17110000 		.4byte	.LASF223
 11016 0b0e 09       		.byte	0x9
 11017 0b0f 1802     		.2byte	0x218
 11018 0b11 81000000 		.4byte	0x81
 11019 0b15 08       		.byte	0x8
 11020 0b16 18       		.uleb128 0x18
 11021 0b17 CA0C0000 		.4byte	.LASF224
 11022 0b1b 09       		.byte	0x9
 11023 0b1c 1902     		.2byte	0x219
 11024 0b1e 81000000 		.4byte	0x81
 11025 0b22 09       		.byte	0x9
 11026 0b23 18       		.uleb128 0x18
 11027 0b24 3C000000 		.4byte	.LASF225
 11028 0b28 09       		.byte	0x9
 11029 0b29 1B02     		.2byte	0x21b
 11030 0b2b 81000000 		.4byte	0x81
 11031 0b2f 0A       		.byte	0xa
 11032 0b30 18       		.uleb128 0x18
 11033 0b31 7E0E0000 		.4byte	.LASF226
 11034 0b35 09       		.byte	0x9
 11035 0b36 1D02     		.2byte	0x21d
 11036 0b38 8D000000 		.4byte	0x8d
 11037 0b3c 0C       		.byte	0xc
 11038 0b3d 18       		.uleb128 0x18
 11039 0b3e 011F0000 		.4byte	.LASF227
 11040 0b42 09       		.byte	0x9
 11041 0b43 1E02     		.2byte	0x21e
 11042 0b45 8D000000 		.4byte	0x8d
 11043 0b49 0E       		.byte	0xe
 11044 0b4a 18       		.uleb128 0x18
 11045 0b4b EC2A0000 		.4byte	.LASF228
 11046 0b4f 09       		.byte	0x9
 11047 0b50 2002     		.2byte	0x220
 11048 0b52 81000000 		.4byte	0x81
 11049 0b56 10       		.byte	0x10
 11050 0b57 18       		.uleb128 0x18
 11051 0b58 9E0B0000 		.4byte	.LASF229
 11052 0b5c 09       		.byte	0x9
 11053 0b5d 2202     		.2byte	0x222
 11054 0b5f 81000000 		.4byte	0x81
 11055 0b63 11       		.byte	0x11
 11056 0b64 18       		.uleb128 0x18
 11057 0b65 1A000000 		.4byte	.LASF230
 11058 0b69 09       		.byte	0x9
 11059 0b6a 2402     		.2byte	0x224
 11060 0b6c 81000000 		.4byte	0x81
 11061 0b70 12       		.byte	0x12
 11062 0b71 1D       		.uleb128 0x1d
 11063 0b72 3B1B0000 		.4byte	.LASF580
 11064 0b76 09       		.byte	0x9
 11065 0b77 2602     		.2byte	0x226
 11066 0b79 81000000 		.4byte	0x81
 11067 0b7d 01       		.byte	0x1
ARM GAS  C:\Users\RECEPC~1\AppData\Local\Temp\ccvg7Xyk.s 			page 235


 11068 0b7e 01       		.byte	0x1
 11069 0b7f 07       		.byte	0x7
 11070 0b80 13       		.byte	0x13
 11071 0b81 00       		.byte	0
 11072 0b82 05       		.uleb128 0x5
 11073 0b83 03220000 		.4byte	.LASF231
 11074 0b87 09       		.byte	0x9
 11075 0b88 2702     		.2byte	0x227
 11076 0b8a 980A0000 		.4byte	0xa98
 11077 0b8e 12       		.uleb128 0x12
 11078 0b8f B4140000 		.4byte	.LASF232
 11079 0b93 01       		.byte	0x1
 11080 0b94 0A       		.byte	0xa
 11081 0b95 21       		.byte	0x21
 11082 0b96 010D0000 		.4byte	0xd01
 11083 0b9a 13       		.uleb128 0x13
 11084 0b9b 2C110000 		.4byte	.LASF233
 11085 0b9f 01       		.sleb128 1
 11086 0ba0 13       		.uleb128 0x13
 11087 0ba1 3C110000 		.4byte	.LASF234
 11088 0ba5 02       		.sleb128 2
 11089 0ba6 13       		.uleb128 0x13
 11090 0ba7 4C110000 		.4byte	.LASF235
 11091 0bab 03       		.sleb128 3
 11092 0bac 13       		.uleb128 0x13
 11093 0bad 771F0000 		.4byte	.LASF236
 11094 0bb1 04       		.sleb128 4
 11095 0bb2 13       		.uleb128 0x13
 11096 0bb3 34100000 		.4byte	.LASF237
 11097 0bb7 05       		.sleb128 5
 11098 0bb8 13       		.uleb128 0x13
 11099 0bb9 C80B0000 		.4byte	.LASF238
 11100 0bbd 06       		.sleb128 6
 11101 0bbe 13       		.uleb128 0x13
 11102 0bbf B1060000 		.4byte	.LASF239
 11103 0bc3 0F       		.sleb128 15
 11104 0bc4 13       		.uleb128 0x13
 11105 0bc5 21190000 		.4byte	.LASF240
 11106 0bc9 FE00     		.sleb128 126
 11107 0bcb 13       		.uleb128 0x13
 11108 0bcc 3E190000 		.4byte	.LASF241
 11109 0bd0 8601     		.sleb128 134
 11110 0bd2 13       		.uleb128 0x13
 11111 0bd3 3E010000 		.4byte	.LASF242
 11112 0bd7 07       		.sleb128 7
 11113 0bd8 13       		.uleb128 0x13
 11114 0bd9 80220000 		.4byte	.LASF243
 11115 0bdd 08       		.sleb128 8
 11116 0bde 13       		.uleb128 0x13
 11117 0bdf 870F0000 		.4byte	.LASF244
 11118 0be3 09       		.sleb128 9
 11119 0be4 13       		.uleb128 0x13
 11120 0be5 CB1A0000 		.4byte	.LASF245
 11121 0be9 0A       		.sleb128 10
 11122 0bea 13       		.uleb128 0x13
 11123 0beb 69170000 		.4byte	.LASF246
 11124 0bef 0B       		.sleb128 11
ARM GAS  C:\Users\RECEPC~1\AppData\Local\Temp\ccvg7Xyk.s 			page 236


 11125 0bf0 13       		.uleb128 0x13
 11126 0bf1 CD160000 		.4byte	.LASF247
 11127 0bf5 25       		.sleb128 37
 11128 0bf6 13       		.uleb128 0x13
 11129 0bf7 5C180000 		.4byte	.LASF248
 11130 0bfb 26       		.sleb128 38
 11131 0bfc 13       		.uleb128 0x13
 11132 0bfd 73190000 		.4byte	.LASF249
 11133 0c01 27       		.sleb128 39
 11134 0c02 13       		.uleb128 0x13
 11135 0c03 DD1E0000 		.4byte	.LASF250
 11136 0c07 2F       		.sleb128 47
 11137 0c08 13       		.uleb128 0x13
 11138 0c09 B90A0000 		.4byte	.LASF251
 11139 0c0d 2C       		.sleb128 44
 11140 0c0e 13       		.uleb128 0x13
 11141 0c0f 87170000 		.4byte	.LASF252
 11142 0c13 0C       		.sleb128 12
 11143 0c14 13       		.uleb128 0x13
 11144 0c15 A60A0000 		.4byte	.LASF253
 11145 0c19 8501     		.sleb128 133
 11146 0c1b 13       		.uleb128 0x13
 11147 0c1c 881A0000 		.4byte	.LASF254
 11148 0c20 1C       		.sleb128 28
 11149 0c21 13       		.uleb128 0x13
 11150 0c22 01090000 		.4byte	.LASF255
 11151 0c26 12       		.sleb128 18
 11152 0c27 13       		.uleb128 0x13
 11153 0c28 04160000 		.4byte	.LASF256
 11154 0c2c 13       		.sleb128 19
 11155 0c2d 13       		.uleb128 0x13
 11156 0c2e 6F260000 		.4byte	.LASF257
 11157 0c32 24       		.sleb128 36
 11158 0c33 13       		.uleb128 0x13
 11159 0c34 31230000 		.4byte	.LASF258
 11160 0c38 0D       		.sleb128 13
 11161 0c39 13       		.uleb128 0x13
 11162 0c3a 16090000 		.4byte	.LASF259
 11163 0c3e 0E       		.sleb128 14
 11164 0c3f 13       		.uleb128 0x13
 11165 0c40 351E0000 		.4byte	.LASF260
 11166 0c44 8301     		.sleb128 131
 11167 0c46 13       		.uleb128 0x13
 11168 0c47 2A040000 		.4byte	.LASF261
 11169 0c4b DA00     		.sleb128 90
 11170 0c4d 13       		.uleb128 0x13
 11171 0c4e B4020000 		.4byte	.LASF262
 11172 0c52 31       		.sleb128 49
 11173 0c53 13       		.uleb128 0x13
 11174 0c54 99140000 		.4byte	.LASF263
 11175 0c58 35       		.sleb128 53
 11176 0c59 13       		.uleb128 0x13
 11177 0c5a 5B0B0000 		.4byte	.LASF264
 11178 0c5e 2E       		.sleb128 46
 11179 0c5f 13       		.uleb128 0x13
 11180 0c60 191E0000 		.4byte	.LASF265
 11181 0c64 8C01     		.sleb128 140
ARM GAS  C:\Users\RECEPC~1\AppData\Local\Temp\ccvg7Xyk.s 			page 237


 11182 0c66 13       		.uleb128 0x13
 11183 0c67 2F0C0000 		.4byte	.LASF266
 11184 0c6b 9601     		.sleb128 150
 11185 0c6d 13       		.uleb128 0x13
 11186 0c6e 020A0000 		.4byte	.LASF267
 11187 0c72 39       		.sleb128 57
 11188 0c73 13       		.uleb128 0x13
 11189 0c74 2C170000 		.4byte	.LASF268
 11190 0c78 9701     		.sleb128 151
 11191 0c7a 13       		.uleb128 0x13
 11192 0c7b 962B0000 		.4byte	.LASF269
 11193 0c7f 9801     		.sleb128 152
 11194 0c81 13       		.uleb128 0x13
 11195 0c82 151D0000 		.4byte	.LASF270
 11196 0c86 3E       		.sleb128 62
 11197 0c87 13       		.uleb128 0x13
 11198 0c88 0B150000 		.4byte	.LASF271
 11199 0c8c 3F       		.sleb128 63
 11200 0c8d 13       		.uleb128 0x13
 11201 0c8e 5A0A0000 		.4byte	.LASF272
 11202 0c92 C000     		.sleb128 64
 11203 0c94 13       		.uleb128 0x13
 11204 0c95 92270000 		.4byte	.LASF273
 11205 0c99 8D01     		.sleb128 141
 11206 0c9b 13       		.uleb128 0x13
 11207 0c9c EA030000 		.4byte	.LASF274
 11208 0ca0 23       		.sleb128 35
 11209 0ca1 13       		.uleb128 0x13
 11210 0ca2 3D0B0000 		.4byte	.LASF275
 11211 0ca6 2A       		.sleb128 42
 11212 0ca7 13       		.uleb128 0x13
 11213 0ca8 5A230000 		.4byte	.LASF276
 11214 0cac 2B       		.sleb128 43
 11215 0cad 13       		.uleb128 0x13
 11216 0cae 260B0000 		.4byte	.LASF277
 11217 0cb2 3C       		.sleb128 60
 11218 0cb3 13       		.uleb128 0x13
 11219 0cb4 C4110000 		.4byte	.LASF278
 11220 0cb8 C100     		.sleb128 65
 11221 0cba 13       		.uleb128 0x13
 11222 0cbb B80D0000 		.4byte	.LASF279
 11223 0cbf EB00     		.sleb128 107
 11224 0cc1 13       		.uleb128 0x13
 11225 0cc2 94160000 		.4byte	.LASF280
 11226 0cc6 E700     		.sleb128 103
 11227 0cc8 13       		.uleb128 0x13
 11228 0cc9 DC060000 		.4byte	.LASF281
 11229 0ccd E400     		.sleb128 100
 11230 0ccf 13       		.uleb128 0x13
 11231 0cd0 7D240000 		.4byte	.LASF282
 11232 0cd4 E500     		.sleb128 101
 11233 0cd6 13       		.uleb128 0x13
 11234 0cd7 5D140000 		.4byte	.LASF283
 11235 0cdb 9901     		.sleb128 153
 11236 0cdd 13       		.uleb128 0x13
 11237 0cde 6C140000 		.4byte	.LASF284
 11238 0ce2 9A01     		.sleb128 154
ARM GAS  C:\Users\RECEPC~1\AppData\Local\Temp\ccvg7Xyk.s 			page 238


 11239 0ce4 13       		.uleb128 0x13
 11240 0ce5 7B140000 		.4byte	.LASF285
 11241 0ce9 9B01     		.sleb128 155
 11242 0ceb 13       		.uleb128 0x13
 11243 0cec 8A140000 		.4byte	.LASF286
 11244 0cf0 9C01     		.sleb128 156
 11245 0cf2 13       		.uleb128 0x13
 11246 0cf3 FA1C0000 		.4byte	.LASF287
 11247 0cf7 FA01     		.sleb128 250
 11248 0cf9 13       		.uleb128 0x13
 11249 0cfa AA240000 		.4byte	.LASF288
 11250 0cfe FF01     		.sleb128 255
 11251 0d00 00       		.byte	0
 11252 0d01 12       		.uleb128 0x12
 11253 0d02 680A0000 		.4byte	.LASF289
 11254 0d06 01       		.byte	0x1
 11255 0d07 0A       		.byte	0xa
 11256 0d08 6B       		.byte	0x6b
 11257 0d09 680D0000 		.4byte	0xd68
 11258 0d0d 13       		.uleb128 0x13
 11259 0d0e D7200000 		.4byte	.LASF290
 11260 0d12 00       		.sleb128 0
 11261 0d13 13       		.uleb128 0x13
 11262 0d14 35090000 		.4byte	.LASF291
 11263 0d18 A001     		.sleb128 160
 11264 0d1a 13       		.uleb128 0x13
 11265 0d1b 73150000 		.4byte	.LASF292
 11266 0d1f A101     		.sleb128 161
 11267 0d21 13       		.uleb128 0x13
 11268 0d22 96260000 		.4byte	.LASF293
 11269 0d26 A201     		.sleb128 162
 11270 0d28 13       		.uleb128 0x13
 11271 0d29 171A0000 		.4byte	.LASF294
 11272 0d2d A301     		.sleb128 163
 11273 0d2f 13       		.uleb128 0x13
 11274 0d30 F7230000 		.4byte	.LASF295
 11275 0d34 A401     		.sleb128 164
 11276 0d36 13       		.uleb128 0x13
 11277 0d37 921F0000 		.4byte	.LASF296
 11278 0d3b A501     		.sleb128 165
 11279 0d3d 13       		.uleb128 0x13
 11280 0d3e A31B0000 		.4byte	.LASF297
 11281 0d42 A601     		.sleb128 166
 11282 0d44 13       		.uleb128 0x13
 11283 0d45 6D120000 		.4byte	.LASF298
 11284 0d49 A701     		.sleb128 167
 11285 0d4b 13       		.uleb128 0x13
 11286 0d4c E5100000 		.4byte	.LASF299
 11287 0d50 A801     		.sleb128 168
 11288 0d52 13       		.uleb128 0x13
 11289 0d53 530F0000 		.4byte	.LASF300
 11290 0d57 A901     		.sleb128 169
 11291 0d59 13       		.uleb128 0x13
 11292 0d5a A12A0000 		.4byte	.LASF301
 11293 0d5e AA01     		.sleb128 170
 11294 0d60 13       		.uleb128 0x13
 11295 0d61 000C0000 		.4byte	.LASF302
ARM GAS  C:\Users\RECEPC~1\AppData\Local\Temp\ccvg7Xyk.s 			page 239


 11296 0d65 AB01     		.sleb128 171
 11297 0d67 00       		.byte	0
 11298 0d68 1E       		.uleb128 0x1e
 11299 0d69 01       		.byte	0x1
 11300 0d6a 0A       		.byte	0xa
 11301 0d6b 82       		.byte	0x82
 11302 0d6c 7D0D0000 		.4byte	0xd7d
 11303 0d70 13       		.uleb128 0x13
 11304 0d71 48000000 		.4byte	.LASF303
 11305 0d75 00       		.sleb128 0
 11306 0d76 13       		.uleb128 0x13
 11307 0d77 51000000 		.4byte	.LASF304
 11308 0d7b 01       		.sleb128 1
 11309 0d7c 00       		.byte	0
 11310 0d7d 1E       		.uleb128 0x1e
 11311 0d7e 01       		.byte	0x1
 11312 0d7f 0A       		.byte	0xa
 11313 0d80 88       		.byte	0x88
 11314 0d81 940D0000 		.4byte	0xd94
 11315 0d85 13       		.uleb128 0x13
 11316 0d86 0B030000 		.4byte	.LASF305
 11317 0d8a D600     		.sleb128 86
 11318 0d8c 13       		.uleb128 0x13
 11319 0d8d 15030000 		.4byte	.LASF306
 11320 0d91 D700     		.sleb128 87
 11321 0d93 00       		.byte	0
 11322 0d94 12       		.uleb128 0x12
 11323 0d95 CE240000 		.4byte	.LASF307
 11324 0d99 01       		.byte	0x1
 11325 0d9a 0A       		.byte	0xa
 11326 0d9b 8D       		.byte	0x8d
 11327 0d9c AF0D0000 		.4byte	0xdaf
 11328 0da0 13       		.uleb128 0x13
 11329 0da1 F6160000 		.4byte	.LASF308
 11330 0da5 C501     		.sleb128 197
 11331 0da7 13       		.uleb128 0x13
 11332 0da8 5A0C0000 		.4byte	.LASF309
 11333 0dac 8501     		.sleb128 133
 11334 0dae 00       		.byte	0
 11335 0daf 1F       		.uleb128 0x1f
 11336 0db0 08       		.byte	0x8
 11337 0db1 0A       		.byte	0xa
 11338 0db2 93       		.byte	0x93
 11339 0db3 F40D0000 		.4byte	0xdf4
 11340 0db7 0D       		.uleb128 0xd
 11341 0db8 F9070000 		.4byte	.LASF310
 11342 0dbc 0A       		.byte	0xa
 11343 0dbd 95       		.byte	0x95
 11344 0dbe 81000000 		.4byte	0x81
 11345 0dc2 00       		.byte	0
 11346 0dc3 0D       		.uleb128 0xd
 11347 0dc4 770B0000 		.4byte	.LASF311
 11348 0dc8 0A       		.byte	0xa
 11349 0dc9 96       		.byte	0x96
 11350 0dca 81000000 		.4byte	0x81
 11351 0dce 01       		.byte	0x1
 11352 0dcf 0D       		.uleb128 0xd
ARM GAS  C:\Users\RECEPC~1\AppData\Local\Temp\ccvg7Xyk.s 			page 240


 11353 0dd0 61240000 		.4byte	.LASF312
 11354 0dd4 0A       		.byte	0xa
 11355 0dd5 97       		.byte	0x97
 11356 0dd6 81000000 		.4byte	0x81
 11357 0dda 02       		.byte	0x2
 11358 0ddb 0D       		.uleb128 0xd
 11359 0ddc 3B290000 		.4byte	.LASF313
 11360 0de0 0A       		.byte	0xa
 11361 0de1 98       		.byte	0x98
 11362 0de2 8D000000 		.4byte	0x8d
 11363 0de6 04       		.byte	0x4
 11364 0de7 0D       		.uleb128 0xd
 11365 0de8 480F0000 		.4byte	.LASF314
 11366 0dec 0A       		.byte	0xa
 11367 0ded 99       		.byte	0x99
 11368 0dee 8D000000 		.4byte	0x8d
 11369 0df2 06       		.byte	0x6
 11370 0df3 00       		.byte	0
 11371 0df4 03       		.uleb128 0x3
 11372 0df5 FF040000 		.4byte	.LASF315
 11373 0df9 0A       		.byte	0xa
 11374 0dfa 9A       		.byte	0x9a
 11375 0dfb AF0D0000 		.4byte	0xdaf
 11376 0dff 03       		.uleb128 0x3
 11377 0e00 57240000 		.4byte	.LASF316
 11378 0e04 0A       		.byte	0xa
 11379 0e05 9C       		.byte	0x9c
 11380 0e06 38020000 		.4byte	0x238
 11381 0e0a 03       		.uleb128 0x3
 11382 0e0b 19290000 		.4byte	.LASF317
 11383 0e0f 0A       		.byte	0xa
 11384 0e10 9D       		.byte	0x9d
 11385 0e11 740A0000 		.4byte	0xa74
 11386 0e15 03       		.uleb128 0x3
 11387 0e16 0A110000 		.4byte	.LASF318
 11388 0e1a 0A       		.byte	0xa
 11389 0e1b 9E       		.byte	0x9e
 11390 0e1c 38020000 		.4byte	0x238
 11391 0e20 03       		.uleb128 0x3
 11392 0e21 FF1A0000 		.4byte	.LASF319
 11393 0e25 0A       		.byte	0xa
 11394 0e26 9F       		.byte	0x9f
 11395 0e27 38020000 		.4byte	0x238
 11396 0e2b 03       		.uleb128 0x3
 11397 0e2c 620E0000 		.4byte	.LASF320
 11398 0e30 0A       		.byte	0xa
 11399 0e31 A0       		.byte	0xa0
 11400 0e32 38020000 		.4byte	0x238
 11401 0e36 03       		.uleb128 0x3
 11402 0e37 A4100000 		.4byte	.LASF321
 11403 0e3b 0A       		.byte	0xa
 11404 0e3c A2       		.byte	0xa2
 11405 0e3d FF0D0000 		.4byte	0xdff
 11406 0e41 03       		.uleb128 0x3
 11407 0e42 0D180000 		.4byte	.LASF322
 11408 0e46 0A       		.byte	0xa
 11409 0e47 A3       		.byte	0xa3
ARM GAS  C:\Users\RECEPC~1\AppData\Local\Temp\ccvg7Xyk.s 			page 241


 11410 0e48 0A0E0000 		.4byte	0xe0a
 11411 0e4c 03       		.uleb128 0x3
 11412 0e4d 220D0000 		.4byte	.LASF323
 11413 0e51 0A       		.byte	0xa
 11414 0e52 A4       		.byte	0xa4
 11415 0e53 150E0000 		.4byte	0xe15
 11416 0e57 03       		.uleb128 0x3
 11417 0e58 DF210000 		.4byte	.LASF324
 11418 0e5c 0A       		.byte	0xa
 11419 0e5d A5       		.byte	0xa5
 11420 0e5e 200E0000 		.4byte	0xe20
 11421 0e62 03       		.uleb128 0x3
 11422 0e63 C1150000 		.4byte	.LASF325
 11423 0e67 0A       		.byte	0xa
 11424 0e68 A6       		.byte	0xa6
 11425 0e69 2B0E0000 		.4byte	0xe2b
 11426 0e6d 1F       		.uleb128 0x1f
 11427 0e6e 0E       		.byte	0xe
 11428 0e6f 0A       		.byte	0xa
 11429 0e70 B5       		.byte	0xb5
 11430 0e71 A60E0000 		.4byte	0xea6
 11431 0e75 0D       		.uleb128 0xd
 11432 0e76 8D050000 		.4byte	.LASF326
 11433 0e7a 0A       		.byte	0xa
 11434 0e7b B7       		.byte	0xb7
 11435 0e7c 8D000000 		.4byte	0x8d
 11436 0e80 00       		.byte	0
 11437 0e81 0D       		.uleb128 0xd
 11438 0e82 44020000 		.4byte	.LASF327
 11439 0e86 0A       		.byte	0xa
 11440 0e87 B8       		.byte	0xb8
 11441 0e88 8D000000 		.4byte	0x8d
 11442 0e8c 02       		.byte	0x2
 11443 0e8d 0D       		.uleb128 0xd
 11444 0e8e 141B0000 		.4byte	.LASF328
 11445 0e92 0A       		.byte	0xa
 11446 0e93 B9       		.byte	0xb9
 11447 0e94 81000000 		.4byte	0x81
 11448 0e98 04       		.byte	0x4
 11449 0e99 0D       		.uleb128 0xd
 11450 0e9a 23140000 		.4byte	.LASF329
 11451 0e9e 0A       		.byte	0xa
 11452 0e9f BB       		.byte	0xbb
 11453 0ea0 F40D0000 		.4byte	0xdf4
 11454 0ea4 06       		.byte	0x6
 11455 0ea5 00       		.byte	0
 11456 0ea6 03       		.uleb128 0x3
 11457 0ea7 E6160000 		.4byte	.LASF330
 11458 0eab 0A       		.byte	0xa
 11459 0eac BC       		.byte	0xbc
 11460 0ead 6D0E0000 		.4byte	0xe6d
 11461 0eb1 1F       		.uleb128 0x1f
 11462 0eb2 44       		.byte	0x44
 11463 0eb3 0A       		.byte	0xa
 11464 0eb4 C0       		.byte	0xc0
 11465 0eb5 6E0F0000 		.4byte	0xf6e
 11466 0eb9 0D       		.uleb128 0xd
ARM GAS  C:\Users\RECEPC~1\AppData\Local\Temp\ccvg7Xyk.s 			page 242


 11467 0eba 1A190000 		.4byte	.LASF331
 11468 0ebe 0A       		.byte	0xa
 11469 0ebf C3       		.byte	0xc3
 11470 0ec0 81000000 		.4byte	0x81
 11471 0ec4 00       		.byte	0
 11472 0ec5 0D       		.uleb128 0xd
 11473 0ec6 E00C0000 		.4byte	.LASF332
 11474 0eca 0A       		.byte	0xa
 11475 0ecb C5       		.byte	0xc5
 11476 0ecc 81000000 		.4byte	0x81
 11477 0ed0 01       		.byte	0x1
 11478 0ed1 0D       		.uleb128 0xd
 11479 0ed2 4E0C0000 		.4byte	.LASF333
 11480 0ed6 0A       		.byte	0xa
 11481 0ed7 C7       		.byte	0xc7
 11482 0ed8 81000000 		.4byte	0x81
 11483 0edc 02       		.byte	0x2
 11484 0edd 0D       		.uleb128 0xd
 11485 0ede D9280000 		.4byte	.LASF334
 11486 0ee2 0A       		.byte	0xa
 11487 0ee3 C9       		.byte	0xc9
 11488 0ee4 8D000000 		.4byte	0x8d
 11489 0ee8 04       		.byte	0x4
 11490 0ee9 0D       		.uleb128 0xd
 11491 0eea 3B140000 		.4byte	.LASF335
 11492 0eee 0A       		.byte	0xa
 11493 0eef CB       		.byte	0xcb
 11494 0ef0 81000000 		.4byte	0x81
 11495 0ef4 06       		.byte	0x6
 11496 0ef5 0D       		.uleb128 0xd
 11497 0ef6 040F0000 		.4byte	.LASF336
 11498 0efa 0A       		.byte	0xa
 11499 0efb CE       		.byte	0xce
 11500 0efc 6E0F0000 		.4byte	0xf6e
 11501 0f00 07       		.byte	0x7
 11502 0f01 0D       		.uleb128 0xd
 11503 0f02 E61B0000 		.4byte	.LASF337
 11504 0f06 0A       		.byte	0xa
 11505 0f07 CF       		.byte	0xcf
 11506 0f08 6E0F0000 		.4byte	0xf6e
 11507 0f0c 0D       		.byte	0xd
 11508 0f0d 0D       		.uleb128 0xd
 11509 0f0e 20180000 		.4byte	.LASF338
 11510 0f12 0A       		.byte	0xa
 11511 0f13 D2       		.byte	0xd2
 11512 0f14 6E0F0000 		.4byte	0xf6e
 11513 0f18 13       		.byte	0x13
 11514 0f19 0D       		.uleb128 0xd
 11515 0f1a E2230000 		.4byte	.LASF339
 11516 0f1e 0A       		.byte	0xa
 11517 0f1f D3       		.byte	0xd3
 11518 0f20 6E0F0000 		.4byte	0xf6e
 11519 0f24 19       		.byte	0x19
 11520 0f25 0D       		.uleb128 0xd
 11521 0f26 B6150000 		.4byte	.LASF340
 11522 0f2a 0A       		.byte	0xa
 11523 0f2b D5       		.byte	0xd5
ARM GAS  C:\Users\RECEPC~1\AppData\Local\Temp\ccvg7Xyk.s 			page 243


 11524 0f2c FF0D0000 		.4byte	0xdff
 11525 0f30 20       		.byte	0x20
 11526 0f31 0D       		.uleb128 0xd
 11527 0f32 C11F0000 		.4byte	.LASF341
 11528 0f36 0A       		.byte	0xa
 11529 0f37 D8       		.byte	0xd8
 11530 0f38 150E0000 		.4byte	0xe15
 11531 0f3c 24       		.byte	0x24
 11532 0f3d 0D       		.uleb128 0xd
 11533 0f3e CE010000 		.4byte	.LASF342
 11534 0f42 0A       		.byte	0xa
 11535 0f43 DA       		.byte	0xda
 11536 0f44 0A0E0000 		.4byte	0xe0a
 11537 0f48 28       		.byte	0x28
 11538 0f49 0D       		.uleb128 0xd
 11539 0f4a BB200000 		.4byte	.LASF343
 11540 0f4e 0A       		.byte	0xa
 11541 0f4f DC       		.byte	0xdc
 11542 0f50 A60E0000 		.4byte	0xea6
 11543 0f54 2C       		.byte	0x2c
 11544 0f55 0D       		.uleb128 0xd
 11545 0f56 F41E0000 		.4byte	.LASF344
 11546 0f5a 0A       		.byte	0xa
 11547 0f5b DE       		.byte	0xde
 11548 0f5c 200E0000 		.4byte	0xe20
 11549 0f60 3C       		.byte	0x3c
 11550 0f61 0D       		.uleb128 0xd
 11551 0f62 0B0D0000 		.4byte	.LASF345
 11552 0f66 0A       		.byte	0xa
 11553 0f67 E0       		.byte	0xe0
 11554 0f68 2B0E0000 		.4byte	0xe2b
 11555 0f6c 40       		.byte	0x40
 11556 0f6d 00       		.byte	0
 11557 0f6e 0A       		.uleb128 0xa
 11558 0f6f 81000000 		.4byte	0x81
 11559 0f73 7E0F0000 		.4byte	0xf7e
 11560 0f77 0B       		.uleb128 0xb
 11561 0f78 F4000000 		.4byte	0xf4
 11562 0f7c 05       		.byte	0x5
 11563 0f7d 00       		.byte	0
 11564 0f7e 03       		.uleb128 0x3
 11565 0f7f 55270000 		.4byte	.LASF346
 11566 0f83 0A       		.byte	0xa
 11567 0f84 E1       		.byte	0xe1
 11568 0f85 B10E0000 		.4byte	0xeb1
 11569 0f89 03       		.uleb128 0x3
 11570 0f8a 97130000 		.4byte	.LASF347
 11571 0f8e 0A       		.byte	0xa
 11572 0f8f E1       		.byte	0xe1
 11573 0f90 940F0000 		.4byte	0xf94
 11574 0f94 07       		.uleb128 0x7
 11575 0f95 04       		.byte	0x4
 11576 0f96 B10E0000 		.4byte	0xeb1
 11577 0f9a 1F       		.uleb128 0x1f
 11578 0f9b 16       		.byte	0x16
 11579 0f9c 0A       		.byte	0xa
 11580 0f9d E5       		.byte	0xe5
ARM GAS  C:\Users\RECEPC~1\AppData\Local\Temp\ccvg7Xyk.s 			page 244


 11581 0f9e D30F0000 		.4byte	0xfd3
 11582 0fa2 0D       		.uleb128 0xd
 11583 0fa3 B5210000 		.4byte	.LASF348
 11584 0fa7 0A       		.byte	0xa
 11585 0fa8 E7       		.byte	0xe7
 11586 0fa9 8D000000 		.4byte	0x8d
 11587 0fad 00       		.byte	0
 11588 0fae 0D       		.uleb128 0xd
 11589 0faf 8A0C0000 		.4byte	.LASF349
 11590 0fb3 0A       		.byte	0xa
 11591 0fb4 E8       		.byte	0xe8
 11592 0fb5 8D000000 		.4byte	0x8d
 11593 0fb9 02       		.byte	0x2
 11594 0fba 0D       		.uleb128 0xd
 11595 0fbb 14020000 		.4byte	.LASF350
 11596 0fbf 0A       		.byte	0xa
 11597 0fc0 E9       		.byte	0xe9
 11598 0fc1 81000000 		.4byte	0x81
 11599 0fc5 04       		.byte	0x4
 11600 0fc6 0D       		.uleb128 0xd
 11601 0fc7 11070000 		.4byte	.LASF86
 11602 0fcb 0A       		.byte	0xa
 11603 0fcc EA       		.byte	0xea
 11604 0fcd D30F0000 		.4byte	0xfd3
 11605 0fd1 05       		.byte	0x5
 11606 0fd2 00       		.byte	0
 11607 0fd3 0A       		.uleb128 0xa
 11608 0fd4 CB000000 		.4byte	0xcb
 11609 0fd8 E30F0000 		.4byte	0xfe3
 11610 0fdc 0B       		.uleb128 0xb
 11611 0fdd F4000000 		.4byte	0xf4
 11612 0fe1 0F       		.byte	0xf
 11613 0fe2 00       		.byte	0
 11614 0fe3 03       		.uleb128 0x3
 11615 0fe4 F7190000 		.4byte	.LASF351
 11616 0fe8 0A       		.byte	0xa
 11617 0fe9 EC       		.byte	0xec
 11618 0fea 9A0F0000 		.4byte	0xf9a
 11619 0fee 1F       		.uleb128 0x1f
 11620 0fef 3C       		.byte	0x3c
 11621 0ff0 0A       		.byte	0xa
 11622 0ff1 EE       		.byte	0xee
 11623 0ff2 D4100000 		.4byte	0x10d4
 11624 0ff6 0D       		.uleb128 0xd
 11625 0ff7 00000000 		.4byte	.LASF352
 11626 0ffb 0A       		.byte	0xa
 11627 0ffc F0       		.byte	0xf0
 11628 0ffd 81000000 		.4byte	0x81
 11629 1001 00       		.byte	0
 11630 1002 0D       		.uleb128 0xd
 11631 1003 01180000 		.4byte	.LASF353
 11632 1007 0A       		.byte	0xa
 11633 1008 F1       		.byte	0xf1
 11634 1009 81000000 		.4byte	0x81
 11635 100d 01       		.byte	0x1
 11636 100e 0D       		.uleb128 0xd
 11637 100f D8000000 		.4byte	.LASF354
ARM GAS  C:\Users\RECEPC~1\AppData\Local\Temp\ccvg7Xyk.s 			page 245


 11638 1013 0A       		.byte	0xa
 11639 1014 F2       		.byte	0xf2
 11640 1015 81000000 		.4byte	0x81
 11641 1019 02       		.byte	0x2
 11642 101a 0D       		.uleb128 0xd
 11643 101b B7110000 		.4byte	.LASF355
 11644 101f 0A       		.byte	0xa
 11645 1020 F3       		.byte	0xf3
 11646 1021 81000000 		.4byte	0x81
 11647 1025 03       		.byte	0x3
 11648 1026 0D       		.uleb128 0xd
 11649 1027 47120000 		.4byte	.LASF356
 11650 102b 0A       		.byte	0xa
 11651 102c F4       		.byte	0xf4
 11652 102d 81000000 		.4byte	0x81
 11653 1031 04       		.byte	0x4
 11654 1032 0D       		.uleb128 0xd
 11655 1033 FB130000 		.4byte	.LASF357
 11656 1037 0A       		.byte	0xa
 11657 1038 F5       		.byte	0xf5
 11658 1039 81000000 		.4byte	0x81
 11659 103d 05       		.byte	0x5
 11660 103e 0D       		.uleb128 0xd
 11661 103f A9190000 		.4byte	.LASF358
 11662 1043 0A       		.byte	0xa
 11663 1044 F6       		.byte	0xf6
 11664 1045 8D000000 		.4byte	0x8d
 11665 1049 06       		.byte	0x6
 11666 104a 0D       		.uleb128 0xd
 11667 104b 72070000 		.4byte	.LASF359
 11668 104f 0A       		.byte	0xa
 11669 1050 F7       		.byte	0xf7
 11670 1051 8D000000 		.4byte	0x8d
 11671 1055 08       		.byte	0x8
 11672 1056 0D       		.uleb128 0xd
 11673 1057 3B140000 		.4byte	.LASF335
 11674 105b 0A       		.byte	0xa
 11675 105c F8       		.byte	0xf8
 11676 105d 81000000 		.4byte	0x81
 11677 1061 0A       		.byte	0xa
 11678 1062 0D       		.uleb128 0xd
 11679 1063 9B0F0000 		.4byte	.LASF360
 11680 1067 0A       		.byte	0xa
 11681 1068 FA       		.byte	0xfa
 11682 1069 81000000 		.4byte	0x81
 11683 106d 0B       		.byte	0xb
 11684 106e 0D       		.uleb128 0xd
 11685 106f EA1A0000 		.4byte	.LASF361
 11686 1073 0A       		.byte	0xa
 11687 1074 FB       		.byte	0xfb
 11688 1075 81000000 		.4byte	0x81
 11689 1079 0C       		.byte	0xc
 11690 107a 0D       		.uleb128 0xd
 11691 107b 5F1C0000 		.4byte	.LASF362
 11692 107f 0A       		.byte	0xa
 11693 1080 FD       		.byte	0xfd
 11694 1081 AD020000 		.4byte	0x2ad
ARM GAS  C:\Users\RECEPC~1\AppData\Local\Temp\ccvg7Xyk.s 			page 246


 11695 1085 0D       		.byte	0xd
 11696 1086 0D       		.uleb128 0xd
 11697 1087 D5070000 		.4byte	.LASF363
 11698 108b 0A       		.byte	0xa
 11699 108c FF       		.byte	0xff
 11700 108d D4100000 		.4byte	0x10d4
 11701 1091 10       		.byte	0x10
 11702 1092 18       		.uleb128 0x18
 11703 1093 0C0E0000 		.4byte	.LASF364
 11704 1097 0A       		.byte	0xa
 11705 1098 0001     		.2byte	0x100
 11706 109a D4100000 		.4byte	0x10d4
 11707 109e 14       		.byte	0x14
 11708 109f 18       		.uleb128 0x18
 11709 10a0 8D0E0000 		.4byte	.LASF365
 11710 10a4 0A       		.byte	0xa
 11711 10a5 0101     		.2byte	0x101
 11712 10a7 E30F0000 		.4byte	0xfe3
 11713 10ab 18       		.byte	0x18
 11714 10ac 18       		.uleb128 0x18
 11715 10ad 432A0000 		.4byte	.LASF366
 11716 10b1 0A       		.byte	0xa
 11717 10b2 0301     		.2byte	0x103
 11718 10b4 FB000000 		.4byte	0xfb
 11719 10b8 30       		.byte	0x30
 11720 10b9 18       		.uleb128 0x18
 11721 10ba 04150000 		.4byte	.LASF88
 11722 10be 0A       		.byte	0xa
 11723 10bf 0401     		.2byte	0x104
 11724 10c1 FB000000 		.4byte	0xfb
 11725 10c5 34       		.byte	0x34
 11726 10c6 18       		.uleb128 0x18
 11727 10c7 58170000 		.4byte	.LASF367
 11728 10cb 0A       		.byte	0xa
 11729 10cc 0601     		.2byte	0x106
 11730 10ce 740A0000 		.4byte	0xa74
 11731 10d2 38       		.byte	0x38
 11732 10d3 00       		.byte	0
 11733 10d4 07       		.uleb128 0x7
 11734 10d5 04       		.byte	0x4
 11735 10d6 7E0F0000 		.4byte	0xf7e
 11736 10da 05       		.uleb128 0x5
 11737 10db C9200000 		.4byte	.LASF368
 11738 10df 0A       		.byte	0xa
 11739 10e0 0801     		.2byte	0x108
 11740 10e2 EE0F0000 		.4byte	0xfee
 11741 10e6 05       		.uleb128 0x5
 11742 10e7 9F090000 		.4byte	.LASF369
 11743 10eb 0A       		.byte	0xa
 11744 10ec 0801     		.2byte	0x108
 11745 10ee F2100000 		.4byte	0x10f2
 11746 10f2 07       		.uleb128 0x7
 11747 10f3 04       		.byte	0x4
 11748 10f4 EE0F0000 		.4byte	0xfee
 11749 10f8 1A       		.uleb128 0x1a
 11750 10f9 07       		.byte	0x7
 11751 10fa 0A       		.byte	0xa
ARM GAS  C:\Users\RECEPC~1\AppData\Local\Temp\ccvg7Xyk.s 			page 247


 11752 10fb 0A01     		.2byte	0x10a
 11753 10fd 36110000 		.4byte	0x1136
 11754 1101 18       		.uleb128 0x18
 11755 1102 AE280000 		.4byte	.LASF370
 11756 1106 0A       		.byte	0xa
 11757 1107 0C01     		.2byte	0x10c
 11758 1109 81000000 		.4byte	0x81
 11759 110d 00       		.byte	0
 11760 110e 18       		.uleb128 0x18
 11761 110f 52160000 		.4byte	.LASF371
 11762 1113 0A       		.byte	0xa
 11763 1114 0D01     		.2byte	0x10d
 11764 1116 AD020000 		.4byte	0x2ad
 11765 111a 01       		.byte	0x1
 11766 111b 18       		.uleb128 0x18
 11767 111c 72070000 		.4byte	.LASF359
 11768 1120 0A       		.byte	0xa
 11769 1121 0E01     		.2byte	0x10e
 11770 1123 81000000 		.4byte	0x81
 11771 1127 02       		.byte	0x2
 11772 1128 18       		.uleb128 0x18
 11773 1129 8E200000 		.4byte	.LASF372
 11774 112d 0A       		.byte	0xa
 11775 112e 0F01     		.2byte	0x10f
 11776 1130 36110000 		.4byte	0x1136
 11777 1134 03       		.byte	0x3
 11778 1135 00       		.byte	0
 11779 1136 0A       		.uleb128 0xa
 11780 1137 CB000000 		.4byte	0xcb
 11781 113b 46110000 		.4byte	0x1146
 11782 113f 0B       		.uleb128 0xb
 11783 1140 F4000000 		.4byte	0xf4
 11784 1144 03       		.byte	0x3
 11785 1145 00       		.byte	0
 11786 1146 05       		.uleb128 0x5
 11787 1147 C2050000 		.4byte	.LASF373
 11788 114b 0A       		.byte	0xa
 11789 114c 1101     		.2byte	0x111
 11790 114e F8100000 		.4byte	0x10f8
 11791 1152 1E       		.uleb128 0x1e
 11792 1153 01       		.byte	0x1
 11793 1154 0B       		.byte	0xb
 11794 1155 26       		.byte	0x26
 11795 1156 6C120000 		.4byte	0x126c
 11796 115a 13       		.uleb128 0x13
 11797 115b 1B0A0000 		.4byte	.LASF374
 11798 115f A101     		.sleb128 161
 11799 1161 13       		.uleb128 0x13
 11800 1162 E70A0000 		.4byte	.LASF375
 11801 1166 A101     		.sleb128 161
 11802 1168 13       		.uleb128 0x13
 11803 1169 84020000 		.4byte	.LASF376
 11804 116d A201     		.sleb128 162
 11805 116f 13       		.uleb128 0x13
 11806 1170 4D220000 		.4byte	.LASF377
 11807 1174 A201     		.sleb128 162
 11808 1176 13       		.uleb128 0x13
ARM GAS  C:\Users\RECEPC~1\AppData\Local\Temp\ccvg7Xyk.s 			page 248


 11809 1177 09100000 		.4byte	.LASF378
 11810 117b A301     		.sleb128 163
 11811 117d 13       		.uleb128 0x13
 11812 117e DE270000 		.4byte	.LASF379
 11813 1182 A301     		.sleb128 163
 11814 1184 13       		.uleb128 0x13
 11815 1185 300A0000 		.4byte	.LASF380
 11816 1189 AE01     		.sleb128 174
 11817 118b 13       		.uleb128 0x13
 11818 118c 5B090000 		.4byte	.LASF381
 11819 1190 AE01     		.sleb128 174
 11820 1192 13       		.uleb128 0x13
 11821 1193 E10B0000 		.4byte	.LASF382
 11822 1197 AA01     		.sleb128 170
 11823 1199 13       		.uleb128 0x13
 11824 119a B9280000 		.4byte	.LASF383
 11825 119e AA01     		.sleb128 170
 11826 11a0 13       		.uleb128 0x13
 11827 11a1 BB210000 		.4byte	.LASF384
 11828 11a5 A401     		.sleb128 164
 11829 11a7 13       		.uleb128 0x13
 11830 11a8 DA140000 		.4byte	.LASF385
 11831 11ac A401     		.sleb128 164
 11832 11ae 13       		.uleb128 0x13
 11833 11af C7040000 		.4byte	.LASF386
 11834 11b3 A501     		.sleb128 165
 11835 11b5 13       		.uleb128 0x13
 11836 11b6 07170000 		.4byte	.LASF387
 11837 11ba A501     		.sleb128 165
 11838 11bc 13       		.uleb128 0x13
 11839 11bd C8100000 		.4byte	.LASF388
 11840 11c1 E801     		.sleb128 232
 11841 11c3 13       		.uleb128 0x13
 11842 11c4 331D0000 		.4byte	.LASF389
 11843 11c8 E801     		.sleb128 232
 11844 11ca 13       		.uleb128 0x13
 11845 11cb E4220000 		.4byte	.LASF390
 11846 11cf A601     		.sleb128 166
 11847 11d1 13       		.uleb128 0x13
 11848 11d2 9B1C0000 		.4byte	.LASF391
 11849 11d6 A601     		.sleb128 166
 11850 11d8 13       		.uleb128 0x13
 11851 11d9 E5290000 		.4byte	.LASF392
 11852 11dd A701     		.sleb128 167
 11853 11df 13       		.uleb128 0x13
 11854 11e0 73080000 		.4byte	.LASF393
 11855 11e4 A701     		.sleb128 167
 11856 11e6 13       		.uleb128 0x13
 11857 11e7 970D0000 		.4byte	.LASF394
 11858 11eb A801     		.sleb128 168
 11859 11ed 13       		.uleb128 0x13
 11860 11ee F0050000 		.4byte	.LASF395
 11861 11f2 A801     		.sleb128 168
 11862 11f4 13       		.uleb128 0x13
 11863 11f5 680F0000 		.4byte	.LASF396
 11864 11f9 A901     		.sleb128 169
 11865 11fb 13       		.uleb128 0x13
ARM GAS  C:\Users\RECEPC~1\AppData\Local\Temp\ccvg7Xyk.s 			page 249


 11866 11fc 1E200000 		.4byte	.LASF397
 11867 1200 A901     		.sleb128 169
 11868 1202 13       		.uleb128 0x13
 11869 1203 53130000 		.4byte	.LASF398
 11870 1207 AC01     		.sleb128 172
 11871 1209 13       		.uleb128 0x13
 11872 120a C82A0000 		.4byte	.LASF399
 11873 120e AC01     		.sleb128 172
 11874 1210 13       		.uleb128 0x13
 11875 1211 4B210000 		.4byte	.LASF400
 11876 1215 AD01     		.sleb128 173
 11877 1217 13       		.uleb128 0x13
 11878 1218 780D0000 		.4byte	.LASF401
 11879 121c AD01     		.sleb128 173
 11880 121e 13       		.uleb128 0x13
 11881 121f 83290000 		.4byte	.LASF402
 11882 1223 E101     		.sleb128 225
 11883 1225 13       		.uleb128 0x13
 11884 1226 2A270000 		.4byte	.LASF403
 11885 122a E101     		.sleb128 225
 11886 122c 13       		.uleb128 0x13
 11887 122d 06250000 		.4byte	.LASF404
 11888 1231 E201     		.sleb128 226
 11889 1233 13       		.uleb128 0x13
 11890 1234 27060000 		.4byte	.LASF405
 11891 1238 E201     		.sleb128 226
 11892 123a 13       		.uleb128 0x13
 11893 123b 142B0000 		.4byte	.LASF406
 11894 123f E301     		.sleb128 227
 11895 1241 13       		.uleb128 0x13
 11896 1242 57050000 		.4byte	.LASF407
 11897 1246 E301     		.sleb128 227
 11898 1248 13       		.uleb128 0x13
 11899 1249 9F200000 		.4byte	.LASF408
 11900 124d E401     		.sleb128 228
 11901 124f 13       		.uleb128 0x13
 11902 1250 19070000 		.4byte	.LASF409
 11903 1254 E401     		.sleb128 228
 11904 1256 13       		.uleb128 0x13
 11905 1257 EB040000 		.4byte	.LASF410
 11906 125b E601     		.sleb128 230
 11907 125d 13       		.uleb128 0x13
 11908 125e C8290000 		.4byte	.LASF411
 11909 1262 E601     		.sleb128 230
 11910 1264 13       		.uleb128 0x13
 11911 1265 CF150000 		.4byte	.LASF412
 11912 1269 FF01     		.sleb128 255
 11913 126b 00       		.byte	0
 11914 126c 12       		.uleb128 0x12
 11915 126d 99030000 		.4byte	.LASF413
 11916 1271 01       		.byte	0x1
 11917 1272 0B       		.byte	0xb
 11918 1273 8A       		.byte	0x8a
 11919 1274 A9120000 		.4byte	0x12a9
 11920 1278 13       		.uleb128 0x13
 11921 1279 22040000 		.4byte	.LASF414
 11922 127d 08       		.sleb128 8
ARM GAS  C:\Users\RECEPC~1\AppData\Local\Temp\ccvg7Xyk.s 			page 250


 11923 127e 13       		.uleb128 0x13
 11924 127f A5170000 		.4byte	.LASF415
 11925 1283 01       		.sleb128 1
 11926 1284 13       		.uleb128 0x13
 11927 1285 BF1C0000 		.4byte	.LASF416
 11928 1289 02       		.sleb128 2
 11929 128a 13       		.uleb128 0x13
 11930 128b 45240000 		.4byte	.LASF417
 11931 128f 03       		.sleb128 3
 11932 1290 13       		.uleb128 0x13
 11933 1291 7A0C0000 		.4byte	.LASF418
 11934 1295 05       		.sleb128 5
 11935 1296 13       		.uleb128 0x13
 11936 1297 00010000 		.4byte	.LASF419
 11937 129b 06       		.sleb128 6
 11938 129c 13       		.uleb128 0x13
 11939 129d 741C0000 		.4byte	.LASF420
 11940 12a1 04       		.sleb128 4
 11941 12a2 13       		.uleb128 0x13
 11942 12a3 21230000 		.4byte	.LASF421
 11943 12a7 0B       		.sleb128 11
 11944 12a8 00       		.byte	0
 11945 12a9 12       		.uleb128 0x12
 11946 12aa B6080000 		.4byte	.LASF422
 11947 12ae 01       		.byte	0x1
 11948 12af 0B       		.byte	0xb
 11949 12b0 AB       		.byte	0xab
 11950 12b1 C2120000 		.4byte	0x12c2
 11951 12b5 13       		.uleb128 0x13
 11952 12b6 DD040000 		.4byte	.LASF423
 11953 12ba 01       		.sleb128 1
 11954 12bb 13       		.uleb128 0x13
 11955 12bc DD110000 		.4byte	.LASF424
 11956 12c0 02       		.sleb128 2
 11957 12c1 00       		.byte	0
 11958 12c2 1F       		.uleb128 0x1f
 11959 12c3 0A       		.byte	0xa
 11960 12c4 0B       		.byte	0xb
 11961 12c5 B1       		.byte	0xb1
 11962 12c6 07130000 		.4byte	0x1307
 11963 12ca 0D       		.uleb128 0xd
 11964 12cb AD020000 		.4byte	.LASF152
 11965 12cf 0B       		.byte	0xb
 11966 12d0 B3       		.byte	0xb3
 11967 12d1 DE000000 		.4byte	0xde
 11968 12d5 00       		.byte	0
 11969 12d6 0D       		.uleb128 0xd
 11970 12d7 E4120000 		.4byte	.LASF425
 11971 12db 0B       		.byte	0xb
 11972 12dc B4       		.byte	0xb4
 11973 12dd E3000000 		.4byte	0xe3
 11974 12e1 02       		.byte	0x2
 11975 12e2 0D       		.uleb128 0xd
 11976 12e3 A1150000 		.4byte	.LASF426
 11977 12e7 0B       		.byte	0xb
 11978 12e8 B5       		.byte	0xb5
 11979 12e9 DE000000 		.4byte	0xde
ARM GAS  C:\Users\RECEPC~1\AppData\Local\Temp\ccvg7Xyk.s 			page 251


 11980 12ed 04       		.byte	0x4
 11981 12ee 0D       		.uleb128 0xd
 11982 12ef D8030000 		.4byte	.LASF427
 11983 12f3 0B       		.byte	0xb
 11984 12f4 B7       		.byte	0xb7
 11985 12f5 E3000000 		.4byte	0xe3
 11986 12f9 06       		.byte	0x6
 11987 12fa 0D       		.uleb128 0xd
 11988 12fb 59290000 		.4byte	.LASF428
 11989 12ff 0B       		.byte	0xb
 11990 1300 B8       		.byte	0xb8
 11991 1301 E3000000 		.4byte	0xe3
 11992 1305 08       		.byte	0x8
 11993 1306 00       		.byte	0
 11994 1307 03       		.uleb128 0x3
 11995 1308 572B0000 		.4byte	.LASF429
 11996 130c 0B       		.byte	0xb
 11997 130d B9       		.byte	0xb9
 11998 130e C2120000 		.4byte	0x12c2
 11999 1312 1F       		.uleb128 0x1f
 12000 1313 02       		.byte	0x2
 12001 1314 0C       		.byte	0xc
 12002 1315 6D       		.byte	0x6d
 12003 1316 33130000 		.4byte	0x1333
 12004 131a 0D       		.uleb128 0xd
 12005 131b B52B0000 		.4byte	.LASF430
 12006 131f 0C       		.byte	0xc
 12007 1320 6F       		.byte	0x6f
 12008 1321 81000000 		.4byte	0x81
 12009 1325 00       		.byte	0
 12010 1326 0D       		.uleb128 0xd
 12011 1327 08000000 		.4byte	.LASF431
 12012 132b 0C       		.byte	0xc
 12013 132c 70       		.byte	0x70
 12014 132d 81000000 		.4byte	0x81
 12015 1331 01       		.byte	0x1
 12016 1332 00       		.byte	0
 12017 1333 03       		.uleb128 0x3
 12018 1334 4B250000 		.4byte	.LASF432
 12019 1338 0C       		.byte	0xc
 12020 1339 72       		.byte	0x72
 12021 133a 12130000 		.4byte	0x1312
 12022 133e 12       		.uleb128 0x12
 12023 133f A0070000 		.4byte	.LASF433
 12024 1343 02       		.byte	0x2
 12025 1344 0D       		.byte	0xd
 12026 1345 2A       		.byte	0x2a
 12027 1346 62140000 		.4byte	0x1462
 12028 134a 13       		.uleb128 0x13
 12029 134b 52010000 		.4byte	.LASF434
 12030 134f 00       		.sleb128 0
 12031 1350 13       		.uleb128 0x13
 12032 1351 07040000 		.4byte	.LASF435
 12033 1355 C000     		.sleb128 64
 12034 1357 13       		.uleb128 0x13
 12035 1358 7D010000 		.4byte	.LASF436
 12036 135c 8001     		.sleb128 128
ARM GAS  C:\Users\RECEPC~1\AppData\Local\Temp\ccvg7Xyk.s 			page 252


 12037 135e 13       		.uleb128 0x13
 12038 135f 98010000 		.4byte	.LASF437
 12039 1363 C001     		.sleb128 192
 12040 1365 13       		.uleb128 0x13
 12041 1366 B3010000 		.4byte	.LASF438
 12042 136a 8002     		.sleb128 256
 12043 136c 13       		.uleb128 0x13
 12044 136d 2E1A0000 		.4byte	.LASF439
 12045 1371 C002     		.sleb128 320
 12046 1373 13       		.uleb128 0x13
 12047 1374 DE010000 		.4byte	.LASF440
 12048 1378 8003     		.sleb128 384
 12049 137a 13       		.uleb128 0x13
 12050 137b F9010000 		.4byte	.LASF441
 12051 137f C003     		.sleb128 448
 12052 1381 13       		.uleb128 0x13
 12053 1382 9F050000 		.4byte	.LASF442
 12054 1386 8004     		.sleb128 512
 12055 1388 13       		.uleb128 0x13
 12056 1389 74180000 		.4byte	.LASF443
 12057 138d C004     		.sleb128 576
 12058 138f 13       		.uleb128 0x13
 12059 1390 F6280000 		.4byte	.LASF444
 12060 1394 8005     		.sleb128 640
 12061 1396 13       		.uleb128 0x13
 12062 1397 AF0F0000 		.4byte	.LASF445
 12063 139b C005     		.sleb128 704
 12064 139d 13       		.uleb128 0x13
 12065 139e 14010000 		.4byte	.LASF446
 12066 13a2 8006     		.sleb128 768
 12067 13a4 13       		.uleb128 0x13
 12068 13a5 290E0000 		.4byte	.LASF447
 12069 13a9 C006     		.sleb128 832
 12070 13ab 13       		.uleb128 0x13
 12071 13ac 022A0000 		.4byte	.LASF448
 12072 13b0 8007     		.sleb128 896
 12073 13b2 13       		.uleb128 0x13
 12074 13b3 29130000 		.4byte	.LASF449
 12075 13b7 C007     		.sleb128 960
 12076 13b9 13       		.uleb128 0x13
 12077 13ba 91080000 		.4byte	.LASF450
 12078 13be 8008     		.sleb128 1024
 12079 13c0 13       		.uleb128 0x13
 12080 13c1 2D1F0000 		.4byte	.LASF451
 12081 13c5 C008     		.sleb128 1088
 12082 13c7 13       		.uleb128 0x13
 12083 13c8 05270000 		.4byte	.LASF452
 12084 13cc 8009     		.sleb128 1152
 12085 13ce 13       		.uleb128 0x13
 12086 13cf 02120000 		.4byte	.LASF453
 12087 13d3 C009     		.sleb128 1216
 12088 13d5 13       		.uleb128 0x13
 12089 13d6 A8120000 		.4byte	.LASF454
 12090 13da 800A     		.sleb128 1280
 12091 13dc 13       		.uleb128 0x13
 12092 13dd C6120000 		.4byte	.LASF455
 12093 13e1 C00A     		.sleb128 1344
ARM GAS  C:\Users\RECEPC~1\AppData\Local\Temp\ccvg7Xyk.s 			page 253


 12094 13e3 13       		.uleb128 0x13
 12095 13e4 491E0000 		.4byte	.LASF456
 12096 13e8 800B     		.sleb128 1408
 12097 13ea 13       		.uleb128 0x13
 12098 13eb FB120000 		.4byte	.LASF457
 12099 13ef C00B     		.sleb128 1472
 12100 13f1 13       		.uleb128 0x13
 12101 13f2 B20E0000 		.4byte	.LASF458
 12102 13f6 800C     		.sleb128 1536
 12103 13f8 13       		.uleb128 0x13
 12104 13f9 081C0000 		.4byte	.LASF459
 12105 13fd C00C     		.sleb128 1600
 12106 13ff 13       		.uleb128 0x13
 12107 1400 FD0A0000 		.4byte	.LASF460
 12108 1404 800D     		.sleb128 1664
 12109 1406 13       		.uleb128 0x13
 12110 1407 36070000 		.4byte	.LASF461
 12111 140b C00D     		.sleb128 1728
 12112 140d 13       		.uleb128 0x13
 12113 140e D11C0000 		.4byte	.LASF462
 12114 1412 800E     		.sleb128 1792
 12115 1414 13       		.uleb128 0x13
 12116 1415 6D2B0000 		.4byte	.LASF463
 12117 1419 C00E     		.sleb128 1856
 12118 141b 13       		.uleb128 0x13
 12119 141c DB0E0000 		.4byte	.LASF464
 12120 1420 800F     		.sleb128 1920
 12121 1422 13       		.uleb128 0x13
 12122 1423 08050000 		.4byte	.LASF465
 12123 1427 C00F     		.sleb128 1984
 12124 1429 13       		.uleb128 0x13
 12125 142a 521B0000 		.4byte	.LASF466
 12126 142e 8010     		.sleb128 2048
 12127 1430 13       		.uleb128 0x13
 12128 1431 33180000 		.4byte	.LASF467
 12129 1435 C010     		.sleb128 2112
 12130 1437 13       		.uleb128 0x13
 12131 1438 72060000 		.4byte	.LASF468
 12132 143c 8011     		.sleb128 2176
 12133 143e 13       		.uleb128 0x13
 12134 143f E2020000 		.4byte	.LASF469
 12135 1443 C011     		.sleb128 2240
 12136 1445 13       		.uleb128 0x13
 12137 1446 CE190000 		.4byte	.LASF470
 12138 144a 8012     		.sleb128 2304
 12139 144c 13       		.uleb128 0x13
 12140 144d 29160000 		.4byte	.LASF471
 12141 1451 C012     		.sleb128 2368
 12142 1453 13       		.uleb128 0x13
 12143 1454 42040000 		.4byte	.LASF472
 12144 1458 8013     		.sleb128 2432
 12145 145a 13       		.uleb128 0x13
 12146 145b 7A000000 		.4byte	.LASF473
 12147 145f C013     		.sleb128 2496
 12148 1461 00       		.byte	0
 12149 1462 12       		.uleb128 0x12
 12150 1463 C9140000 		.4byte	.LASF474
ARM GAS  C:\Users\RECEPC~1\AppData\Local\Temp\ccvg7Xyk.s 			page 254


 12151 1467 01       		.byte	0x1
 12152 1468 0E       		.byte	0xe
 12153 1469 33       		.byte	0x33
 12154 146a 93140000 		.4byte	0x1493
 12155 146e 13       		.uleb128 0x13
 12156 146f BC100000 		.4byte	.LASF475
 12157 1473 00       		.sleb128 0
 12158 1474 13       		.uleb128 0x13
 12159 1475 CF1F0000 		.4byte	.LASF476
 12160 1479 01       		.sleb128 1
 12161 147a 13       		.uleb128 0x13
 12162 147b 820A0000 		.4byte	.LASF477
 12163 147f 02       		.sleb128 2
 12164 1480 13       		.uleb128 0x13
 12165 1481 1A160000 		.4byte	.LASF478
 12166 1485 04       		.sleb128 4
 12167 1486 13       		.uleb128 0x13
 12168 1487 C3160000 		.4byte	.LASF479
 12169 148b 05       		.sleb128 5
 12170 148c 13       		.uleb128 0x13
 12171 148d 74280000 		.4byte	.LASF480
 12172 1491 06       		.sleb128 6
 12173 1492 00       		.byte	0
 12174 1493 20       		.uleb128 0x20
 12175 1494 89110000 		.4byte	.LASF491
 12176 1498 01       		.byte	0x1
 12177 1499 38       		.byte	0x38
 12178 149a 00000000 		.4byte	.LFB63
 12179 149e B4010000 		.4byte	.LFE63-.LFB63
 12180 14a2 01       		.uleb128 0x1
 12181 14a3 9C       		.byte	0x9c
 12182 14a4 71150000 		.4byte	0x1571
 12183 14a8 21       		.uleb128 0x21
 12184 14a9 D6060000 		.4byte	.LASF493
 12185 14ad 01       		.byte	0x1
 12186 14ae 38       		.byte	0x38
 12187 14af FB000000 		.4byte	0xfb
 12188 14b3 03       		.uleb128 0x3
 12189 14b4 91       		.byte	0x91
 12190 14b5 BC7F     		.sleb128 -68
 12191 14b7 22       		.uleb128 0x22
 12192 14b8 FF140000 		.4byte	.LASF481
 12193 14bc 01       		.byte	0x1
 12194 14bd 3A       		.byte	0x3a
 12195 14be B4040000 		.4byte	0x4b4
 12196 14c2 02       		.uleb128 0x2
 12197 14c3 91       		.byte	0x91
 12198 14c4 64       		.sleb128 -28
 12199 14c5 23       		.uleb128 0x23
 12200 14c6 FD1D0000 		.4byte	.LASF494
 12201 14ca 01       		.byte	0x1
 12202 14cb 8D       		.byte	0x8d
 12203 14cc 96010000 		.4byte	.L3
 12204 14d0 24       		.uleb128 0x24
 12205 14d1 5E000000 		.4byte	.LBB2
 12206 14d5 20010000 		.4byte	.LBE2-.LBB2
 12207 14d9 58150000 		.4byte	0x1558
ARM GAS  C:\Users\RECEPC~1\AppData\Local\Temp\ccvg7Xyk.s 			page 255


 12208 14dd 22       		.uleb128 0x22
 12209 14de 790A0000 		.4byte	.LASF482
 12210 14e2 01       		.byte	0x1
 12211 14e3 4E       		.byte	0x4e
 12212 14e4 AD020000 		.4byte	0x2ad
 12213 14e8 02       		.uleb128 0x2
 12214 14e9 91       		.byte	0x91
 12215 14ea 6F       		.sleb128 -17
 12216 14eb 22       		.uleb128 0x22
 12217 14ec FE030000 		.4byte	.LASF483
 12218 14f0 01       		.byte	0x1
 12219 14f1 4F       		.byte	0x4f
 12220 14f2 2B010000 		.4byte	0x12b
 12221 14f6 02       		.uleb128 0x2
 12222 14f7 91       		.byte	0x91
 12223 14f8 68       		.sleb128 -24
 12224 14f9 22       		.uleb128 0x22
 12225 14fa 64060000 		.4byte	.LASF484
 12226 14fe 01       		.byte	0x1
 12227 14ff 6C       		.byte	0x6c
 12228 1500 620E0000 		.4byte	0xe62
 12229 1504 02       		.uleb128 0x2
 12230 1505 91       		.byte	0x91
 12231 1506 58       		.sleb128 -40
 12232 1507 22       		.uleb128 0x22
 12233 1508 93230000 		.4byte	.LASF485
 12234 150c 01       		.byte	0x1
 12235 150d 72       		.byte	0x72
 12236 150e 570E0000 		.4byte	0xe57
 12237 1512 02       		.uleb128 0x2
 12238 1513 91       		.byte	0x91
 12239 1514 54       		.sleb128 -44
 12240 1515 22       		.uleb128 0x22
 12241 1516 170F0000 		.4byte	.LASF486
 12242 151a 01       		.byte	0x1
 12243 151b 77       		.byte	0x77
 12244 151c E4070000 		.4byte	0x7e4
 12245 1520 02       		.uleb128 0x2
 12246 1521 91       		.byte	0x91
 12247 1522 44       		.sleb128 -60
 12248 1523 22       		.uleb128 0x22
 12249 1524 6B0C0000 		.4byte	.LASF487
 12250 1528 01       		.byte	0x1
 12251 1529 78       		.byte	0x78
 12252 152a 59030000 		.4byte	0x359
 12253 152e 02       		.uleb128 0x2
 12254 152f 91       		.byte	0x91
 12255 1530 50       		.sleb128 -48
 12256 1531 22       		.uleb128 0x22
 12257 1532 4A170000 		.4byte	.LASF488
 12258 1536 01       		.byte	0x1
 12259 1537 80       		.byte	0x80
 12260 1538 360E0000 		.4byte	0xe36
 12261 153c 02       		.uleb128 0x2
 12262 153d 91       		.byte	0x91
 12263 153e 4C       		.sleb128 -52
 12264 153f 25       		.uleb128 0x25
ARM GAS  C:\Users\RECEPC~1\AppData\Local\Temp\ccvg7Xyk.s 			page 256


 12265 1540 A4000000 		.4byte	.LBB3
 12266 1544 3A000000 		.4byte	.LBE3-.LBB3
 12267 1548 22       		.uleb128 0x22
 12268 1549 71110000 		.4byte	.LASF489
 12269 154d 01       		.byte	0x1
 12270 154e 5C       		.byte	0x5c
 12271 154f 410E0000 		.4byte	0xe41
 12272 1553 02       		.uleb128 0x2
 12273 1554 91       		.byte	0x91
 12274 1555 5C       		.sleb128 -36
 12275 1556 00       		.byte	0
 12276 1557 00       		.byte	0
 12277 1558 25       		.uleb128 0x25
 12278 1559 82010000 		.4byte	.LBB4
 12279 155d 14000000 		.4byte	.LBE4-.LBB4
 12280 1561 22       		.uleb128 0x22
 12281 1562 AF180000 		.4byte	.LASF490
 12282 1566 01       		.byte	0x1
 12283 1567 88       		.byte	0x88
 12284 1568 4C0E0000 		.4byte	0xe4c
 12285 156c 02       		.uleb128 0x2
 12286 156d 91       		.byte	0x91
 12287 156e 60       		.sleb128 -32
 12288 156f 00       		.byte	0
 12289 1570 00       		.byte	0
 12290 1571 20       		.uleb128 0x20
 12291 1572 062B0000 		.4byte	.LASF492
 12292 1576 01       		.byte	0x1
 12293 1577 95       		.byte	0x95
 12294 1578 00000000 		.4byte	.LFB64
 12295 157c B4010000 		.4byte	.LFE64-.LFB64
 12296 1580 01       		.uleb128 0x1
 12297 1581 9C       		.byte	0x9c
 12298 1582 4F160000 		.4byte	0x164f
 12299 1586 21       		.uleb128 0x21
 12300 1587 D6060000 		.4byte	.LASF493
 12301 158b 01       		.byte	0x1
 12302 158c 95       		.byte	0x95
 12303 158d FB000000 		.4byte	0xfb
 12304 1591 03       		.uleb128 0x3
 12305 1592 91       		.byte	0x91
 12306 1593 BC7F     		.sleb128 -68
 12307 1595 22       		.uleb128 0x22
 12308 1596 FF140000 		.4byte	.LASF481
 12309 159a 01       		.byte	0x1
 12310 159b 97       		.byte	0x97
 12311 159c B4040000 		.4byte	0x4b4
 12312 15a0 02       		.uleb128 0x2
 12313 15a1 91       		.byte	0x91
 12314 15a2 64       		.sleb128 -28
 12315 15a3 23       		.uleb128 0x23
 12316 15a4 0B1E0000 		.4byte	.LASF495
 12317 15a8 01       		.byte	0x1
 12318 15a9 E8       		.byte	0xe8
 12319 15aa 96010000 		.4byte	.L22
 12320 15ae 24       		.uleb128 0x24
 12321 15af 5E000000 		.4byte	.LBB5
ARM GAS  C:\Users\RECEPC~1\AppData\Local\Temp\ccvg7Xyk.s 			page 257


 12322 15b3 20010000 		.4byte	.LBE5-.LBB5
 12323 15b7 36160000 		.4byte	0x1636
 12324 15bb 22       		.uleb128 0x22
 12325 15bc 790A0000 		.4byte	.LASF482
 12326 15c0 01       		.byte	0x1
 12327 15c1 AB       		.byte	0xab
 12328 15c2 AD020000 		.4byte	0x2ad
 12329 15c6 02       		.uleb128 0x2
 12330 15c7 91       		.byte	0x91
 12331 15c8 6F       		.sleb128 -17
 12332 15c9 22       		.uleb128 0x22
 12333 15ca FE030000 		.4byte	.LASF483
 12334 15ce 01       		.byte	0x1
 12335 15cf AC       		.byte	0xac
 12336 15d0 2B010000 		.4byte	0x12b
 12337 15d4 02       		.uleb128 0x2
 12338 15d5 91       		.byte	0x91
 12339 15d6 68       		.sleb128 -24
 12340 15d7 22       		.uleb128 0x22
 12341 15d8 64060000 		.4byte	.LASF484
 12342 15dc 01       		.byte	0x1
 12343 15dd C8       		.byte	0xc8
 12344 15de 620E0000 		.4byte	0xe62
 12345 15e2 02       		.uleb128 0x2
 12346 15e3 91       		.byte	0x91
 12347 15e4 58       		.sleb128 -40
 12348 15e5 22       		.uleb128 0x22
 12349 15e6 93230000 		.4byte	.LASF485
 12350 15ea 01       		.byte	0x1
 12351 15eb CE       		.byte	0xce
 12352 15ec 570E0000 		.4byte	0xe57
 12353 15f0 02       		.uleb128 0x2
 12354 15f1 91       		.byte	0x91
 12355 15f2 54       		.sleb128 -44
 12356 15f3 22       		.uleb128 0x22
 12357 15f4 170F0000 		.4byte	.LASF486
 12358 15f8 01       		.byte	0x1
 12359 15f9 D3       		.byte	0xd3
 12360 15fa E4070000 		.4byte	0x7e4
 12361 15fe 02       		.uleb128 0x2
 12362 15ff 91       		.byte	0x91
 12363 1600 44       		.sleb128 -60
 12364 1601 22       		.uleb128 0x22
 12365 1602 6B0C0000 		.4byte	.LASF487
 12366 1606 01       		.byte	0x1
 12367 1607 D4       		.byte	0xd4
 12368 1608 59030000 		.4byte	0x359
 12369 160c 02       		.uleb128 0x2
 12370 160d 91       		.byte	0x91
 12371 160e 50       		.sleb128 -48
 12372 160f 22       		.uleb128 0x22
 12373 1610 4A170000 		.4byte	.LASF488
 12374 1614 01       		.byte	0x1
 12375 1615 DC       		.byte	0xdc
 12376 1616 360E0000 		.4byte	0xe36
 12377 161a 02       		.uleb128 0x2
 12378 161b 91       		.byte	0x91
ARM GAS  C:\Users\RECEPC~1\AppData\Local\Temp\ccvg7Xyk.s 			page 258


 12379 161c 4C       		.sleb128 -52
 12380 161d 25       		.uleb128 0x25
 12381 161e A4000000 		.4byte	.LBB6
 12382 1622 3A000000 		.4byte	.LBE6-.LBB6
 12383 1626 22       		.uleb128 0x22
 12384 1627 71110000 		.4byte	.LASF489
 12385 162b 01       		.byte	0x1
 12386 162c B9       		.byte	0xb9
 12387 162d 410E0000 		.4byte	0xe41
 12388 1631 02       		.uleb128 0x2
 12389 1632 91       		.byte	0x91
 12390 1633 5C       		.sleb128 -36
 12391 1634 00       		.byte	0
 12392 1635 00       		.byte	0
 12393 1636 25       		.uleb128 0x25
 12394 1637 82010000 		.4byte	.LBB7
 12395 163b 14000000 		.4byte	.LBE7-.LBB7
 12396 163f 22       		.uleb128 0x22
 12397 1640 AF180000 		.4byte	.LASF490
 12398 1644 01       		.byte	0x1
 12399 1645 E4       		.byte	0xe4
 12400 1646 4C0E0000 		.4byte	0xe4c
 12401 164a 02       		.uleb128 0x2
 12402 164b 91       		.byte	0x91
 12403 164c 60       		.sleb128 -32
 12404 164d 00       		.byte	0
 12405 164e 00       		.byte	0
 12406 164f 20       		.uleb128 0x20
 12407 1650 EF110000 		.4byte	.LASF496
 12408 1654 01       		.byte	0x1
 12409 1655 F2       		.byte	0xf2
 12410 1656 00000000 		.4byte	.LFB65
 12411 165a 70010000 		.4byte	.LFE65-.LFB65
 12412 165e 01       		.uleb128 0x1
 12413 165f 9C       		.byte	0x9c
 12414 1660 E1160000 		.4byte	0x16e1
 12415 1664 21       		.uleb128 0x21
 12416 1665 B81C0000 		.4byte	.LASF497
 12417 1669 01       		.byte	0x1
 12418 166a F2       		.byte	0xf2
 12419 166b FB000000 		.4byte	0xfb
 12420 166f 02       		.uleb128 0x2
 12421 1670 91       		.byte	0x91
 12422 1671 44       		.sleb128 -60
 12423 1672 22       		.uleb128 0x22
 12424 1673 B8230000 		.4byte	.LASF498
 12425 1677 01       		.byte	0x1
 12426 1678 F4       		.byte	0xf4
 12427 1679 D30F0000 		.4byte	0xfd3
 12428 167d 02       		.uleb128 0x2
 12429 167e 91       		.byte	0x91
 12430 167f 50       		.sleb128 -48
 12431 1680 22       		.uleb128 0x22
 12432 1681 A5280000 		.4byte	.LASF499
 12433 1685 01       		.byte	0x1
 12434 1686 F5       		.byte	0xf5
 12435 1687 F40D0000 		.4byte	0xdf4
ARM GAS  C:\Users\RECEPC~1\AppData\Local\Temp\ccvg7Xyk.s 			page 259


 12436 168b 02       		.uleb128 0x2
 12437 168c 91       		.byte	0x91
 12438 168d 48       		.sleb128 -56
 12439 168e 22       		.uleb128 0x22
 12440 168f 520B0000 		.4byte	.LASF500
 12441 1693 01       		.byte	0x1
 12442 1694 FA       		.byte	0xfa
 12443 1695 E1160000 		.4byte	0x16e1
 12444 1699 02       		.uleb128 0x2
 12445 169a 91       		.byte	0x91
 12446 169b 6C       		.sleb128 -20
 12447 169c 22       		.uleb128 0x22
 12448 169d C8270000 		.4byte	.LASF501
 12449 16a1 01       		.byte	0x1
 12450 16a2 FF       		.byte	0xff
 12451 16a3 81000000 		.4byte	0x81
 12452 16a7 02       		.uleb128 0x2
 12453 16a8 91       		.byte	0x91
 12454 16a9 6B       		.sleb128 -21
 12455 16aa 24       		.uleb128 0x24
 12456 16ab 46000000 		.4byte	.LBB8
 12457 16af 8C000000 		.4byte	.LBE8-.LBB8
 12458 16b3 C7160000 		.4byte	0x16c7
 12459 16b7 26       		.uleb128 0x26
 12460 16b8 6B0C0000 		.4byte	.LASF487
 12461 16bc 01       		.byte	0x1
 12462 16bd 0401     		.2byte	0x104
 12463 16bf E7160000 		.4byte	0x16e7
 12464 16c3 02       		.uleb128 0x2
 12465 16c4 91       		.byte	0x91
 12466 16c5 64       		.sleb128 -28
 12467 16c6 00       		.byte	0
 12468 16c7 25       		.uleb128 0x25
 12469 16c8 D6000000 		.4byte	.LBB9
 12470 16cc 8C000000 		.4byte	.LBE9-.LBB9
 12471 16d0 26       		.uleb128 0x26
 12472 16d1 6B0C0000 		.4byte	.LASF487
 12473 16d5 01       		.byte	0x1
 12474 16d6 1401     		.2byte	0x114
 12475 16d8 E7160000 		.4byte	0x16e7
 12476 16dc 02       		.uleb128 0x2
 12477 16dd 91       		.byte	0x91
 12478 16de 60       		.sleb128 -32
 12479 16df 00       		.byte	0
 12480 16e0 00       		.byte	0
 12481 16e1 07       		.uleb128 0x7
 12482 16e2 04       		.byte	0x4
 12483 16e3 DA100000 		.4byte	0x10da
 12484 16e7 07       		.uleb128 0x7
 12485 16e8 04       		.byte	0x4
 12486 16e9 4E030000 		.4byte	0x34e
 12487 16ed 27       		.uleb128 0x27
 12488 16ee D6090000 		.4byte	.LASF502
 12489 16f2 01       		.byte	0x1
 12490 16f3 2301     		.2byte	0x123
 12491 16f5 00000000 		.4byte	.LFB66
 12492 16f9 C4000000 		.4byte	.LFE66-.LFB66
ARM GAS  C:\Users\RECEPC~1\AppData\Local\Temp\ccvg7Xyk.s 			page 260


 12493 16fd 01       		.uleb128 0x1
 12494 16fe 9C       		.byte	0x9c
 12495 16ff 76170000 		.4byte	0x1776
 12496 1703 28       		.uleb128 0x28
 12497 1704 B81C0000 		.4byte	.LASF497
 12498 1708 01       		.byte	0x1
 12499 1709 2301     		.2byte	0x123
 12500 170b FB000000 		.4byte	0xfb
 12501 170f 02       		.uleb128 0x2
 12502 1710 91       		.byte	0x91
 12503 1711 54       		.sleb128 -44
 12504 1712 26       		.uleb128 0x26
 12505 1713 A5280000 		.4byte	.LASF499
 12506 1717 01       		.byte	0x1
 12507 1718 2501     		.2byte	0x125
 12508 171a F40D0000 		.4byte	0xdf4
 12509 171e 02       		.uleb128 0x2
 12510 171f 91       		.byte	0x91
 12511 1720 58       		.sleb128 -40
 12512 1721 26       		.uleb128 0x26
 12513 1722 A90E0000 		.4byte	.LASF503
 12514 1726 01       		.byte	0x1
 12515 1727 2B01     		.2byte	0x12b
 12516 1729 25010000 		.4byte	0x125
 12517 172d 02       		.uleb128 0x2
 12518 172e 91       		.byte	0x91
 12519 172f 6C       		.sleb128 -20
 12520 1730 26       		.uleb128 0x26
 12521 1731 520B0000 		.4byte	.LASF500
 12522 1735 01       		.byte	0x1
 12523 1736 2C01     		.2byte	0x12c
 12524 1738 E1160000 		.4byte	0x16e1
 12525 173c 02       		.uleb128 0x2
 12526 173d 91       		.byte	0x91
 12527 173e 68       		.sleb128 -24
 12528 173f 24       		.uleb128 0x24
 12529 1740 2A000000 		.4byte	.LBB10
 12530 1744 46000000 		.4byte	.LBE10-.LBB10
 12531 1748 5C170000 		.4byte	0x175c
 12532 174c 26       		.uleb128 0x26
 12533 174d 6B0C0000 		.4byte	.LASF487
 12534 1751 01       		.byte	0x1
 12535 1752 2F01     		.2byte	0x12f
 12536 1754 E7160000 		.4byte	0x16e7
 12537 1758 02       		.uleb128 0x2
 12538 1759 91       		.byte	0x91
 12539 175a 64       		.sleb128 -28
 12540 175b 00       		.byte	0
 12541 175c 25       		.uleb128 0x25
 12542 175d 74000000 		.4byte	.LBB11
 12543 1761 46000000 		.4byte	.LBE11-.LBB11
 12544 1765 26       		.uleb128 0x26
 12545 1766 6B0C0000 		.4byte	.LASF487
 12546 176a 01       		.byte	0x1
 12547 176b 3801     		.2byte	0x138
 12548 176d E7160000 		.4byte	0x16e7
 12549 1771 02       		.uleb128 0x2
ARM GAS  C:\Users\RECEPC~1\AppData\Local\Temp\ccvg7Xyk.s 			page 261


 12550 1772 91       		.byte	0x91
 12551 1773 60       		.sleb128 -32
 12552 1774 00       		.byte	0
 12553 1775 00       		.byte	0
 12554 1776 27       		.uleb128 0x27
 12555 1777 C61E0000 		.4byte	.LASF504
 12556 177b 01       		.byte	0x1
 12557 177c 4101     		.2byte	0x141
 12558 177e 00000000 		.4byte	.LFB67
 12559 1782 34010000 		.4byte	.LFE67-.LFB67
 12560 1786 01       		.uleb128 0x1
 12561 1787 9C       		.byte	0x9c
 12562 1788 50180000 		.4byte	0x1850
 12563 178c 28       		.uleb128 0x28
 12564 178d B81C0000 		.4byte	.LASF497
 12565 1791 01       		.byte	0x1
 12566 1792 4101     		.2byte	0x141
 12567 1794 FB000000 		.4byte	0xfb
 12568 1798 03       		.uleb128 0x3
 12569 1799 91       		.byte	0x91
 12570 179a A47F     		.sleb128 -92
 12571 179c 26       		.uleb128 0x26
 12572 179d 520B0000 		.4byte	.LASF500
 12573 17a1 01       		.byte	0x1
 12574 17a2 4301     		.2byte	0x143
 12575 17a4 E6100000 		.4byte	0x10e6
 12576 17a8 02       		.uleb128 0x2
 12577 17a9 91       		.byte	0x91
 12578 17aa 6C       		.sleb128 -20
 12579 17ab 24       		.uleb128 0x24
 12580 17ac 14000000 		.4byte	.LBB12
 12581 17b0 82000000 		.4byte	.LBE12-.LBB12
 12582 17b4 FE170000 		.4byte	0x17fe
 12583 17b8 26       		.uleb128 0x26
 12584 17b9 6B0C0000 		.4byte	.LASF487
 12585 17bd 01       		.byte	0x1
 12586 17be 4601     		.2byte	0x146
 12587 17c0 59030000 		.4byte	0x359
 12588 17c4 02       		.uleb128 0x2
 12589 17c5 91       		.byte	0x91
 12590 17c6 68       		.sleb128 -24
 12591 17c7 24       		.uleb128 0x24
 12592 17c8 22000000 		.4byte	.LBB13
 12593 17cc 30000000 		.4byte	.LBE13-.LBB13
 12594 17d0 E4170000 		.4byte	0x17e4
 12595 17d4 26       		.uleb128 0x26
 12596 17d5 C3190000 		.4byte	.LASF505
 12597 17d9 01       		.byte	0x1
 12598 17da 4A01     		.2byte	0x14a
 12599 17dc 50180000 		.4byte	0x1850
 12600 17e0 02       		.uleb128 0x2
 12601 17e1 91       		.byte	0x91
 12602 17e2 58       		.sleb128 -40
 12603 17e3 00       		.byte	0
 12604 17e4 25       		.uleb128 0x25
 12605 17e5 60000000 		.4byte	.LBB14
 12606 17e9 36000000 		.4byte	.LBE14-.LBB14
ARM GAS  C:\Users\RECEPC~1\AppData\Local\Temp\ccvg7Xyk.s 			page 262


 12607 17ed 26       		.uleb128 0x26
 12608 17ee C3190000 		.4byte	.LASF505
 12609 17f2 01       		.byte	0x1
 12610 17f3 5301     		.2byte	0x153
 12611 17f5 60180000 		.4byte	0x1860
 12612 17f9 02       		.uleb128 0x2
 12613 17fa 91       		.byte	0x91
 12614 17fb 48       		.sleb128 -56
 12615 17fc 00       		.byte	0
 12616 17fd 00       		.byte	0
 12617 17fe 25       		.uleb128 0x25
 12618 17ff A2000000 		.4byte	.LBB15
 12619 1803 82000000 		.4byte	.LBE15-.LBB15
 12620 1807 26       		.uleb128 0x26
 12621 1808 6B0C0000 		.4byte	.LASF487
 12622 180c 01       		.byte	0x1
 12623 180d 5B01     		.2byte	0x15b
 12624 180f 59030000 		.4byte	0x359
 12625 1813 02       		.uleb128 0x2
 12626 1814 91       		.byte	0x91
 12627 1815 64       		.sleb128 -28
 12628 1816 24       		.uleb128 0x24
 12629 1817 B0000000 		.4byte	.LBB16
 12630 181b 30000000 		.4byte	.LBE16-.LBB16
 12631 181f 34180000 		.4byte	0x1834
 12632 1823 26       		.uleb128 0x26
 12633 1824 C3190000 		.4byte	.LASF505
 12634 1828 01       		.byte	0x1
 12635 1829 5F01     		.2byte	0x15f
 12636 182b 50180000 		.4byte	0x1850
 12637 182f 03       		.uleb128 0x3
 12638 1830 91       		.byte	0x91
 12639 1831 BC7F     		.sleb128 -68
 12640 1833 00       		.byte	0
 12641 1834 25       		.uleb128 0x25
 12642 1835 EE000000 		.4byte	.LBB17
 12643 1839 36000000 		.4byte	.LBE17-.LBB17
 12644 183d 26       		.uleb128 0x26
 12645 183e C3190000 		.4byte	.LASF505
 12646 1842 01       		.byte	0x1
 12647 1843 6801     		.2byte	0x168
 12648 1845 60180000 		.4byte	0x1860
 12649 1849 03       		.uleb128 0x3
 12650 184a 91       		.byte	0x91
 12651 184b AC7F     		.sleb128 -84
 12652 184d 00       		.byte	0
 12653 184e 00       		.byte	0
 12654 184f 00       		.byte	0
 12655 1850 0A       		.uleb128 0xa
 12656 1851 81000000 		.4byte	0x81
 12657 1855 60180000 		.4byte	0x1860
 12658 1859 0B       		.uleb128 0xb
 12659 185a F4000000 		.4byte	0xf4
 12660 185e 09       		.byte	0x9
 12661 185f 00       		.byte	0
 12662 1860 0A       		.uleb128 0xa
 12663 1861 81000000 		.4byte	0x81
ARM GAS  C:\Users\RECEPC~1\AppData\Local\Temp\ccvg7Xyk.s 			page 263


 12664 1865 70180000 		.4byte	0x1870
 12665 1869 0B       		.uleb128 0xb
 12666 186a F4000000 		.4byte	0xf4
 12667 186e 0D       		.byte	0xd
 12668 186f 00       		.byte	0
 12669 1870 27       		.uleb128 0x27
 12670 1871 E60F0000 		.4byte	.LASF506
 12671 1875 01       		.byte	0x1
 12672 1876 7001     		.2byte	0x170
 12673 1878 00000000 		.4byte	.LFB68
 12674 187c C4000000 		.4byte	.LFE68-.LFB68
 12675 1880 01       		.uleb128 0x1
 12676 1881 9C       		.byte	0x9c
 12677 1882 F9180000 		.4byte	0x18f9
 12678 1886 28       		.uleb128 0x28
 12679 1887 B81C0000 		.4byte	.LASF497
 12680 188b 01       		.byte	0x1
 12681 188c 7001     		.2byte	0x170
 12682 188e FB000000 		.4byte	0xfb
 12683 1892 02       		.uleb128 0x2
 12684 1893 91       		.byte	0x91
 12685 1894 54       		.sleb128 -44
 12686 1895 26       		.uleb128 0x26
 12687 1896 A5280000 		.4byte	.LASF499
 12688 189a 01       		.byte	0x1
 12689 189b 7201     		.2byte	0x172
 12690 189d F40D0000 		.4byte	0xdf4
 12691 18a1 02       		.uleb128 0x2
 12692 18a2 91       		.byte	0x91
 12693 18a3 58       		.sleb128 -40
 12694 18a4 26       		.uleb128 0x26
 12695 18a5 A90E0000 		.4byte	.LASF503
 12696 18a9 01       		.byte	0x1
 12697 18aa 7801     		.2byte	0x178
 12698 18ac 25010000 		.4byte	0x125
 12699 18b0 02       		.uleb128 0x2
 12700 18b1 91       		.byte	0x91
 12701 18b2 6C       		.sleb128 -20
 12702 18b3 26       		.uleb128 0x26
 12703 18b4 520B0000 		.4byte	.LASF500
 12704 18b8 01       		.byte	0x1
 12705 18b9 7901     		.2byte	0x179
 12706 18bb E1160000 		.4byte	0x16e1
 12707 18bf 02       		.uleb128 0x2
 12708 18c0 91       		.byte	0x91
 12709 18c1 68       		.sleb128 -24
 12710 18c2 24       		.uleb128 0x24
 12711 18c3 2A000000 		.4byte	.LBB18
 12712 18c7 46000000 		.4byte	.LBE18-.LBB18
 12713 18cb DF180000 		.4byte	0x18df
 12714 18cf 26       		.uleb128 0x26
 12715 18d0 6B0C0000 		.4byte	.LASF487
 12716 18d4 01       		.byte	0x1
 12717 18d5 7C01     		.2byte	0x17c
 12718 18d7 E7160000 		.4byte	0x16e7
 12719 18db 02       		.uleb128 0x2
 12720 18dc 91       		.byte	0x91
ARM GAS  C:\Users\RECEPC~1\AppData\Local\Temp\ccvg7Xyk.s 			page 264


 12721 18dd 64       		.sleb128 -28
 12722 18de 00       		.byte	0
 12723 18df 25       		.uleb128 0x25
 12724 18e0 74000000 		.4byte	.LBB19
 12725 18e4 46000000 		.4byte	.LBE19-.LBB19
 12726 18e8 26       		.uleb128 0x26
 12727 18e9 6B0C0000 		.4byte	.LASF487
 12728 18ed 01       		.byte	0x1
 12729 18ee 8501     		.2byte	0x185
 12730 18f0 E7160000 		.4byte	0x16e7
 12731 18f4 02       		.uleb128 0x2
 12732 18f5 91       		.byte	0x91
 12733 18f6 60       		.sleb128 -32
 12734 18f7 00       		.byte	0
 12735 18f8 00       		.byte	0
 12736 18f9 27       		.uleb128 0x27
 12737 18fa 96250000 		.4byte	.LASF507
 12738 18fe 01       		.byte	0x1
 12739 18ff 8E01     		.2byte	0x18e
 12740 1901 00000000 		.4byte	.LFB69
 12741 1905 42010000 		.4byte	.LFE69-.LFB69
 12742 1909 01       		.uleb128 0x1
 12743 190a 9C       		.byte	0x9c
 12744 190b 9E190000 		.4byte	0x199e
 12745 190f 28       		.uleb128 0x28
 12746 1910 B81C0000 		.4byte	.LASF497
 12747 1914 01       		.byte	0x1
 12748 1915 8E01     		.2byte	0x18e
 12749 1917 FB000000 		.4byte	0xfb
 12750 191b 02       		.uleb128 0x2
 12751 191c 91       		.byte	0x91
 12752 191d 64       		.sleb128 -28
 12753 191e 26       		.uleb128 0x26
 12754 191f 520B0000 		.4byte	.LASF500
 12755 1923 01       		.byte	0x1
 12756 1924 9001     		.2byte	0x190
 12757 1926 E6100000 		.4byte	0x10e6
 12758 192a 02       		.uleb128 0x2
 12759 192b 91       		.byte	0x91
 12760 192c 6C       		.sleb128 -20
 12761 192d 24       		.uleb128 0x24
 12762 192e 28000000 		.4byte	.LBB20
 12763 1932 32000000 		.4byte	.LBE20-.LBB20
 12764 1936 4A190000 		.4byte	0x194a
 12765 193a 26       		.uleb128 0x26
 12766 193b 99150000 		.4byte	.LASF508
 12767 193f 01       		.byte	0x1
 12768 1940 9801     		.2byte	0x198
 12769 1942 81000000 		.4byte	0x81
 12770 1946 02       		.uleb128 0x2
 12771 1947 91       		.byte	0x91
 12772 1948 6B       		.sleb128 -21
 12773 1949 00       		.byte	0
 12774 194a 24       		.uleb128 0x24
 12775 194b 70000000 		.4byte	.LBB21
 12776 194f 32000000 		.4byte	.LBE21-.LBB21
 12777 1953 67190000 		.4byte	0x1967
ARM GAS  C:\Users\RECEPC~1\AppData\Local\Temp\ccvg7Xyk.s 			page 265


 12778 1957 26       		.uleb128 0x26
 12779 1958 99150000 		.4byte	.LASF508
 12780 195c 01       		.byte	0x1
 12781 195d A401     		.2byte	0x1a4
 12782 195f 81000000 		.4byte	0x81
 12783 1963 02       		.uleb128 0x2
 12784 1964 91       		.byte	0x91
 12785 1965 6A       		.sleb128 -22
 12786 1966 00       		.byte	0
 12787 1967 24       		.uleb128 0x24
 12788 1968 C2000000 		.4byte	.LBB22
 12789 196c 32000000 		.4byte	.LBE22-.LBB22
 12790 1970 84190000 		.4byte	0x1984
 12791 1974 26       		.uleb128 0x26
 12792 1975 99150000 		.4byte	.LASF508
 12793 1979 01       		.byte	0x1
 12794 197a B301     		.2byte	0x1b3
 12795 197c 81000000 		.4byte	0x81
 12796 1980 02       		.uleb128 0x2
 12797 1981 91       		.byte	0x91
 12798 1982 69       		.sleb128 -23
 12799 1983 00       		.byte	0
 12800 1984 25       		.uleb128 0x25
 12801 1985 0A010000 		.4byte	.LBB23
 12802 1989 32000000 		.4byte	.LBE23-.LBB23
 12803 198d 26       		.uleb128 0x26
 12804 198e 99150000 		.4byte	.LASF508
 12805 1992 01       		.byte	0x1
 12806 1993 BF01     		.2byte	0x1bf
 12807 1995 81000000 		.4byte	0x81
 12808 1999 02       		.uleb128 0x2
 12809 199a 91       		.byte	0x91
 12810 199b 68       		.sleb128 -24
 12811 199c 00       		.byte	0
 12812 199d 00       		.byte	0
 12813 199e 27       		.uleb128 0x27
 12814 199f B6030000 		.4byte	.LASF509
 12815 19a3 01       		.byte	0x1
 12816 19a4 C901     		.2byte	0x1c9
 12817 19a6 00000000 		.4byte	.LFB70
 12818 19aa 3C010000 		.4byte	.LFE70-.LFB70
 12819 19ae 01       		.uleb128 0x1
 12820 19af 9C       		.byte	0x9c
 12821 19b0 141A0000 		.4byte	0x1a14
 12822 19b4 28       		.uleb128 0x28
 12823 19b5 B81C0000 		.4byte	.LASF497
 12824 19b9 01       		.byte	0x1
 12825 19ba C901     		.2byte	0x1c9
 12826 19bc FB000000 		.4byte	0xfb
 12827 19c0 02       		.uleb128 0x2
 12828 19c1 91       		.byte	0x91
 12829 19c2 5C       		.sleb128 -36
 12830 19c3 26       		.uleb128 0x26
 12831 19c4 520B0000 		.4byte	.LASF500
 12832 19c8 01       		.byte	0x1
 12833 19c9 CB01     		.2byte	0x1cb
 12834 19cb E6100000 		.4byte	0x10e6
ARM GAS  C:\Users\RECEPC~1\AppData\Local\Temp\ccvg7Xyk.s 			page 266


 12835 19cf 02       		.uleb128 0x2
 12836 19d0 91       		.byte	0x91
 12837 19d1 6C       		.sleb128 -20
 12838 19d2 26       		.uleb128 0x26
 12839 19d3 96050000 		.4byte	.LASF510
 12840 19d7 01       		.byte	0x1
 12841 19d8 CF01     		.2byte	0x1cf
 12842 19da 860A0000 		.4byte	0xa86
 12843 19de 02       		.uleb128 0x2
 12844 19df 91       		.byte	0x91
 12845 19e0 68       		.sleb128 -24
 12846 19e1 25       		.uleb128 0x25
 12847 19e2 2C000000 		.4byte	.LBB24
 12848 19e6 06010000 		.4byte	.LBE24-.LBB24
 12849 19ea 29       		.uleb128 0x29
 12850 19eb 70747300 		.ascii	"pts\000"
 12851 19ef 01       		.byte	0x1
 12852 19f0 D301     		.2byte	0x1d3
 12853 19f2 B1060000 		.4byte	0x6b1
 12854 19f6 02       		.uleb128 0x2
 12855 19f7 91       		.byte	0x91
 12856 19f8 64       		.sleb128 -28
 12857 19f9 25       		.uleb128 0x25
 12858 19fa 52000000 		.4byte	.LBB25
 12859 19fe E0000000 		.4byte	.LBE25-.LBB25
 12860 1a02 26       		.uleb128 0x26
 12861 1a03 5E120000 		.4byte	.LASF511
 12862 1a07 01       		.byte	0x1
 12863 1a08 D701     		.2byte	0x1d7
 12864 1a0a 81000000 		.4byte	0x81
 12865 1a0e 02       		.uleb128 0x2
 12866 1a0f 91       		.byte	0x91
 12867 1a10 63       		.sleb128 -29
 12868 1a11 00       		.byte	0
 12869 1a12 00       		.byte	0
 12870 1a13 00       		.byte	0
 12871 1a14 27       		.uleb128 0x27
 12872 1a15 CC130000 		.4byte	.LASF512
 12873 1a19 01       		.byte	0x1
 12874 1a1a ED01     		.2byte	0x1ed
 12875 1a1c 00000000 		.4byte	.LFB71
 12876 1a20 46030000 		.4byte	.LFE71-.LFB71
 12877 1a24 01       		.uleb128 0x1
 12878 1a25 9C       		.byte	0x9c
 12879 1a26 EE1A0000 		.4byte	0x1aee
 12880 1a2a 28       		.uleb128 0x28
 12881 1a2b B81C0000 		.4byte	.LASF497
 12882 1a2f 01       		.byte	0x1
 12883 1a30 ED01     		.2byte	0x1ed
 12884 1a32 1A010000 		.4byte	0x11a
 12885 1a36 03       		.uleb128 0x3
 12886 1a37 91       		.byte	0x91
 12887 1a38 BC7F     		.sleb128 -68
 12888 1a3a 26       		.uleb128 0x26
 12889 1a3b A5280000 		.4byte	.LASF499
 12890 1a3f 01       		.byte	0x1
 12891 1a40 EF01     		.2byte	0x1ef
ARM GAS  C:\Users\RECEPC~1\AppData\Local\Temp\ccvg7Xyk.s 			page 267


 12892 1a42 F40D0000 		.4byte	0xdf4
 12893 1a46 02       		.uleb128 0x2
 12894 1a47 91       		.byte	0x91
 12895 1a48 4C       		.sleb128 -52
 12896 1a49 26       		.uleb128 0x26
 12897 1a4a A90E0000 		.4byte	.LASF503
 12898 1a4e 01       		.byte	0x1
 12899 1a4f F501     		.2byte	0x1f5
 12900 1a51 EE1A0000 		.4byte	0x1aee
 12901 1a55 02       		.uleb128 0x2
 12902 1a56 91       		.byte	0x91
 12903 1a57 40       		.sleb128 -64
 12904 1a58 26       		.uleb128 0x26
 12905 1a59 520B0000 		.4byte	.LASF500
 12906 1a5d 01       		.byte	0x1
 12907 1a5e FB01     		.2byte	0x1fb
 12908 1a60 E1160000 		.4byte	0x16e1
 12909 1a64 02       		.uleb128 0x2
 12910 1a65 91       		.byte	0x91
 12911 1a66 64       		.sleb128 -28
 12912 1a67 24       		.uleb128 0x24
 12913 1a68 34000000 		.4byte	.LBB26
 12914 1a6c 8E010000 		.4byte	.LBE26-.LBB26
 12915 1a70 AC1A0000 		.4byte	0x1aac
 12916 1a74 26       		.uleb128 0x26
 12917 1a75 6B0C0000 		.4byte	.LASF487
 12918 1a79 01       		.byte	0x1
 12919 1a7a FE01     		.2byte	0x1fe
 12920 1a7c E7160000 		.4byte	0x16e7
 12921 1a80 02       		.uleb128 0x2
 12922 1a81 91       		.byte	0x91
 12923 1a82 60       		.sleb128 -32
 12924 1a83 25       		.uleb128 0x25
 12925 1a84 44000000 		.4byte	.LBB27
 12926 1a88 7E010000 		.4byte	.LBE27-.LBB27
 12927 1a8c 26       		.uleb128 0x26
 12928 1a8d 5E120000 		.4byte	.LASF511
 12929 1a91 01       		.byte	0x1
 12930 1a92 0102     		.2byte	0x201
 12931 1a94 81000000 		.4byte	0x81
 12932 1a98 02       		.uleb128 0x2
 12933 1a99 91       		.byte	0x91
 12934 1a9a 5F       		.sleb128 -33
 12935 1a9b 26       		.uleb128 0x26
 12936 1a9c DF220000 		.4byte	.LASF513
 12937 1aa0 01       		.byte	0x1
 12938 1aa1 0202     		.2byte	0x202
 12939 1aa3 8D000000 		.4byte	0x8d
 12940 1aa7 02       		.uleb128 0x2
 12941 1aa8 91       		.byte	0x91
 12942 1aa9 5C       		.sleb128 -36
 12943 1aaa 00       		.byte	0
 12944 1aab 00       		.byte	0
 12945 1aac 25       		.uleb128 0x25
 12946 1aad CC010000 		.4byte	.LBB28
 12947 1ab1 74010000 		.4byte	.LBE28-.LBB28
 12948 1ab5 26       		.uleb128 0x26
ARM GAS  C:\Users\RECEPC~1\AppData\Local\Temp\ccvg7Xyk.s 			page 268


 12949 1ab6 6B0C0000 		.4byte	.LASF487
 12950 1aba 01       		.byte	0x1
 12951 1abb 1002     		.2byte	0x210
 12952 1abd E7160000 		.4byte	0x16e7
 12953 1ac1 02       		.uleb128 0x2
 12954 1ac2 91       		.byte	0x91
 12955 1ac3 58       		.sleb128 -40
 12956 1ac4 25       		.uleb128 0x25
 12957 1ac5 DC010000 		.4byte	.LBB29
 12958 1ac9 64010000 		.4byte	.LBE29-.LBB29
 12959 1acd 26       		.uleb128 0x26
 12960 1ace 5E120000 		.4byte	.LASF511
 12961 1ad2 01       		.byte	0x1
 12962 1ad3 1302     		.2byte	0x213
 12963 1ad5 81000000 		.4byte	0x81
 12964 1ad9 02       		.uleb128 0x2
 12965 1ada 91       		.byte	0x91
 12966 1adb 57       		.sleb128 -41
 12967 1adc 26       		.uleb128 0x26
 12968 1add DF220000 		.4byte	.LASF513
 12969 1ae1 01       		.byte	0x1
 12970 1ae2 1402     		.2byte	0x214
 12971 1ae4 8D000000 		.4byte	0x8d
 12972 1ae8 02       		.uleb128 0x2
 12973 1ae9 91       		.byte	0x91
 12974 1aea 54       		.sleb128 -44
 12975 1aeb 00       		.byte	0
 12976 1aec 00       		.byte	0
 12977 1aed 00       		.byte	0
 12978 1aee 0A       		.uleb128 0xa
 12979 1aef 25010000 		.4byte	0x125
 12980 1af3 FE1A0000 		.4byte	0x1afe
 12981 1af7 0B       		.uleb128 0xb
 12982 1af8 F4000000 		.4byte	0xf4
 12983 1afc 02       		.byte	0x2
 12984 1afd 00       		.byte	0
 12985 1afe 27       		.uleb128 0x27
 12986 1aff 29150000 		.4byte	.LASF514
 12987 1b03 01       		.byte	0x1
 12988 1b04 2202     		.2byte	0x222
 12989 1b06 00000000 		.4byte	.LFB72
 12990 1b0a 5C010000 		.4byte	.LFE72-.LFB72
 12991 1b0e 01       		.uleb128 0x1
 12992 1b0f 9C       		.byte	0x9c
 12993 1b10 D71B0000 		.4byte	0x1bd7
 12994 1b14 28       		.uleb128 0x28
 12995 1b15 B81C0000 		.4byte	.LASF497
 12996 1b19 01       		.byte	0x1
 12997 1b1a 2202     		.2byte	0x222
 12998 1b1c 1A010000 		.4byte	0x11a
 12999 1b20 02       		.uleb128 0x2
 13000 1b21 91       		.byte	0x91
 13001 1b22 44       		.sleb128 -60
 13002 1b23 26       		.uleb128 0x26
 13003 1b24 A5280000 		.4byte	.LASF499
 13004 1b28 01       		.byte	0x1
 13005 1b29 2402     		.2byte	0x224
ARM GAS  C:\Users\RECEPC~1\AppData\Local\Temp\ccvg7Xyk.s 			page 269


 13006 1b2b F40D0000 		.4byte	0xdf4
 13007 1b2f 02       		.uleb128 0x2
 13008 1b30 91       		.byte	0x91
 13009 1b31 4C       		.sleb128 -52
 13010 1b32 26       		.uleb128 0x26
 13011 1b33 A90E0000 		.4byte	.LASF503
 13012 1b37 01       		.byte	0x1
 13013 1b38 2A02     		.2byte	0x22a
 13014 1b3a D71B0000 		.4byte	0x1bd7
 13015 1b3e 02       		.uleb128 0x2
 13016 1b3f 91       		.byte	0x91
 13017 1b40 48       		.sleb128 -56
 13018 1b41 26       		.uleb128 0x26
 13019 1b42 520B0000 		.4byte	.LASF500
 13020 1b46 01       		.byte	0x1
 13021 1b47 2E02     		.2byte	0x22e
 13022 1b49 E1160000 		.4byte	0x16e1
 13023 1b4d 02       		.uleb128 0x2
 13024 1b4e 91       		.byte	0x91
 13025 1b4f 64       		.sleb128 -28
 13026 1b50 24       		.uleb128 0x24
 13027 1b51 2A000000 		.4byte	.LBB30
 13028 1b55 92000000 		.4byte	.LBE30-.LBB30
 13029 1b59 951B0000 		.4byte	0x1b95
 13030 1b5d 26       		.uleb128 0x26
 13031 1b5e 6B0C0000 		.4byte	.LASF487
 13032 1b62 01       		.byte	0x1
 13033 1b63 3102     		.2byte	0x231
 13034 1b65 E7160000 		.4byte	0x16e7
 13035 1b69 02       		.uleb128 0x2
 13036 1b6a 91       		.byte	0x91
 13037 1b6b 60       		.sleb128 -32
 13038 1b6c 25       		.uleb128 0x25
 13039 1b6d 38000000 		.4byte	.LBB31
 13040 1b71 84000000 		.4byte	.LBE31-.LBB31
 13041 1b75 26       		.uleb128 0x26
 13042 1b76 5E120000 		.4byte	.LASF511
 13043 1b7a 01       		.byte	0x1
 13044 1b7b 3402     		.2byte	0x234
 13045 1b7d 81000000 		.4byte	0x81
 13046 1b81 02       		.uleb128 0x2
 13047 1b82 91       		.byte	0x91
 13048 1b83 5F       		.sleb128 -33
 13049 1b84 26       		.uleb128 0x26
 13050 1b85 DF220000 		.4byte	.LASF513
 13051 1b89 01       		.byte	0x1
 13052 1b8a 3502     		.2byte	0x235
 13053 1b8c 8D000000 		.4byte	0x8d
 13054 1b90 02       		.uleb128 0x2
 13055 1b91 91       		.byte	0x91
 13056 1b92 5C       		.sleb128 -36
 13057 1b93 00       		.byte	0
 13058 1b94 00       		.byte	0
 13059 1b95 25       		.uleb128 0x25
 13060 1b96 C0000000 		.4byte	.LBB32
 13061 1b9a 92000000 		.4byte	.LBE32-.LBB32
 13062 1b9e 26       		.uleb128 0x26
ARM GAS  C:\Users\RECEPC~1\AppData\Local\Temp\ccvg7Xyk.s 			page 270


 13063 1b9f 6B0C0000 		.4byte	.LASF487
 13064 1ba3 01       		.byte	0x1
 13065 1ba4 3F02     		.2byte	0x23f
 13066 1ba6 E7160000 		.4byte	0x16e7
 13067 1baa 02       		.uleb128 0x2
 13068 1bab 91       		.byte	0x91
 13069 1bac 58       		.sleb128 -40
 13070 1bad 25       		.uleb128 0x25
 13071 1bae CE000000 		.4byte	.LBB33
 13072 1bb2 84000000 		.4byte	.LBE33-.LBB33
 13073 1bb6 26       		.uleb128 0x26
 13074 1bb7 5E120000 		.4byte	.LASF511
 13075 1bbb 01       		.byte	0x1
 13076 1bbc 4202     		.2byte	0x242
 13077 1bbe 81000000 		.4byte	0x81
 13078 1bc2 02       		.uleb128 0x2
 13079 1bc3 91       		.byte	0x91
 13080 1bc4 57       		.sleb128 -41
 13081 1bc5 26       		.uleb128 0x26
 13082 1bc6 DF220000 		.4byte	.LASF513
 13083 1bca 01       		.byte	0x1
 13084 1bcb 4302     		.2byte	0x243
 13085 1bcd 8D000000 		.4byte	0x8d
 13086 1bd1 02       		.uleb128 0x2
 13087 1bd2 91       		.byte	0x91
 13088 1bd3 54       		.sleb128 -44
 13089 1bd4 00       		.byte	0
 13090 1bd5 00       		.byte	0
 13091 1bd6 00       		.byte	0
 13092 1bd7 0A       		.uleb128 0xa
 13093 1bd8 25010000 		.4byte	0x125
 13094 1bdc E71B0000 		.4byte	0x1be7
 13095 1be0 0B       		.uleb128 0xb
 13096 1be1 F4000000 		.4byte	0xf4
 13097 1be5 00       		.byte	0
 13098 1be6 00       		.byte	0
 13099 1be7 27       		.uleb128 0x27
 13100 1be8 501A0000 		.4byte	.LASF515
 13101 1bec 01       		.byte	0x1
 13102 1bed 4D02     		.2byte	0x24d
 13103 1bef 00000000 		.4byte	.LFB73
 13104 1bf3 FC040000 		.4byte	.LFE73-.LFB73
 13105 1bf7 01       		.uleb128 0x1
 13106 1bf8 9C       		.byte	0x9c
 13107 1bf9 911D0000 		.4byte	0x1d91
 13108 1bfd 28       		.uleb128 0x28
 13109 1bfe B81C0000 		.4byte	.LASF497
 13110 1c02 01       		.byte	0x1
 13111 1c03 4D02     		.2byte	0x24d
 13112 1c05 1A010000 		.4byte	0x11a
 13113 1c09 03       		.uleb128 0x3
 13114 1c0a 91       		.byte	0x91
 13115 1c0b A47F     		.sleb128 -92
 13116 1c0d 26       		.uleb128 0x26
 13117 1c0e A5280000 		.4byte	.LASF499
 13118 1c12 01       		.byte	0x1
 13119 1c13 4F02     		.2byte	0x24f
ARM GAS  C:\Users\RECEPC~1\AppData\Local\Temp\ccvg7Xyk.s 			page 271


 13120 1c15 F40D0000 		.4byte	0xdf4
 13121 1c19 03       		.uleb128 0x3
 13122 1c1a 91       		.byte	0x91
 13123 1c1b B47F     		.sleb128 -76
 13124 1c1d 26       		.uleb128 0x26
 13125 1c1e 0B1B0000 		.4byte	.LASF516
 13126 1c22 01       		.byte	0x1
 13127 1c23 5402     		.2byte	0x254
 13128 1c25 81000000 		.4byte	0x81
 13129 1c29 02       		.uleb128 0x2
 13130 1c2a 91       		.byte	0x91
 13131 1c2b 67       		.sleb128 -25
 13132 1c2c 26       		.uleb128 0x26
 13133 1c2d 1F0F0000 		.4byte	.LASF517
 13134 1c31 01       		.byte	0x1
 13135 1c32 5502     		.2byte	0x255
 13136 1c34 8D000000 		.4byte	0x8d
 13137 1c38 02       		.uleb128 0x2
 13138 1c39 91       		.byte	0x91
 13139 1c3a 64       		.sleb128 -28
 13140 1c3b 26       		.uleb128 0x26
 13141 1c3c 17220000 		.4byte	.LASF518
 13142 1c40 01       		.byte	0x1
 13143 1c41 5602     		.2byte	0x256
 13144 1c43 8D000000 		.4byte	0x8d
 13145 1c47 02       		.uleb128 0x2
 13146 1c48 91       		.byte	0x91
 13147 1c49 62       		.sleb128 -30
 13148 1c4a 26       		.uleb128 0x26
 13149 1c4b 520B0000 		.4byte	.LASF500
 13150 1c4f 01       		.byte	0x1
 13151 1c50 5702     		.2byte	0x257
 13152 1c52 E6100000 		.4byte	0x10e6
 13153 1c56 02       		.uleb128 0x2
 13154 1c57 91       		.byte	0x91
 13155 1c58 5C       		.sleb128 -36
 13156 1c59 24       		.uleb128 0x24
 13157 1c5a C6000000 		.4byte	.LBB34
 13158 1c5e 0E020000 		.4byte	.LBE34-.LBB34
 13159 1c62 F61C0000 		.4byte	0x1cf6
 13160 1c66 26       		.uleb128 0x26
 13161 1c67 5E080000 		.4byte	.LASF519
 13162 1c6b 01       		.byte	0x1
 13163 1c6c 7102     		.2byte	0x271
 13164 1c6e 03010000 		.4byte	0x103
 13165 1c72 03       		.uleb128 0x3
 13166 1c73 91       		.byte	0x91
 13167 1c74 B07F     		.sleb128 -80
 13168 1c76 26       		.uleb128 0x26
 13169 1c77 5E120000 		.4byte	.LASF511
 13170 1c7b 01       		.byte	0x1
 13171 1c7c 7C02     		.2byte	0x27c
 13172 1c7e 81000000 		.4byte	0x81
 13173 1c82 02       		.uleb128 0x2
 13174 1c83 91       		.byte	0x91
 13175 1c84 61       		.sleb128 -31
 13176 1c85 24       		.uleb128 0x24
ARM GAS  C:\Users\RECEPC~1\AppData\Local\Temp\ccvg7Xyk.s 			page 272


 13177 1c86 34010000 		.4byte	.LBB35
 13178 1c8a 5E000000 		.4byte	.LBE35-.LBB35
 13179 1c8e A21C0000 		.4byte	0x1ca2
 13180 1c92 26       		.uleb128 0x26
 13181 1c93 6B0C0000 		.4byte	.LASF487
 13182 1c97 01       		.byte	0x1
 13183 1c98 8202     		.2byte	0x282
 13184 1c9a 59030000 		.4byte	0x359
 13185 1c9e 02       		.uleb128 0x2
 13186 1c9f 91       		.byte	0x91
 13187 1ca0 58       		.sleb128 -40
 13188 1ca1 00       		.byte	0
 13189 1ca2 24       		.uleb128 0x24
 13190 1ca3 92010000 		.4byte	.LBB36
 13191 1ca7 62000000 		.4byte	.LBE36-.LBB36
 13192 1cab BF1C0000 		.4byte	0x1cbf
 13193 1caf 26       		.uleb128 0x26
 13194 1cb0 6B0C0000 		.4byte	.LASF487
 13195 1cb4 01       		.byte	0x1
 13196 1cb5 8C02     		.2byte	0x28c
 13197 1cb7 59030000 		.4byte	0x359
 13198 1cbb 02       		.uleb128 0x2
 13199 1cbc 91       		.byte	0x91
 13200 1cbd 54       		.sleb128 -44
 13201 1cbe 00       		.byte	0
 13202 1cbf 24       		.uleb128 0x24
 13203 1cc0 F4010000 		.4byte	.LBB37
 13204 1cc4 62000000 		.4byte	.LBE37-.LBB37
 13205 1cc8 DC1C0000 		.4byte	0x1cdc
 13206 1ccc 26       		.uleb128 0x26
 13207 1ccd 6B0C0000 		.4byte	.LASF487
 13208 1cd1 01       		.byte	0x1
 13209 1cd2 9602     		.2byte	0x296
 13210 1cd4 59030000 		.4byte	0x359
 13211 1cd8 02       		.uleb128 0x2
 13212 1cd9 91       		.byte	0x91
 13213 1cda 50       		.sleb128 -48
 13214 1cdb 00       		.byte	0
 13215 1cdc 25       		.uleb128 0x25
 13216 1cdd 56020000 		.4byte	.LBB38
 13217 1ce1 62000000 		.4byte	.LBE38-.LBB38
 13218 1ce5 26       		.uleb128 0x26
 13219 1ce6 6B0C0000 		.4byte	.LASF487
 13220 1cea 01       		.byte	0x1
 13221 1ceb A002     		.2byte	0x2a0
 13222 1ced 59030000 		.4byte	0x359
 13223 1cf1 02       		.uleb128 0x2
 13224 1cf2 91       		.byte	0x91
 13225 1cf3 4C       		.sleb128 -52
 13226 1cf4 00       		.byte	0
 13227 1cf5 00       		.byte	0
 13228 1cf6 25       		.uleb128 0x25
 13229 1cf7 D6020000 		.4byte	.LBB39
 13230 1cfb 18020000 		.4byte	.LBE39-.LBB39
 13231 1cff 26       		.uleb128 0x26
 13232 1d00 5E080000 		.4byte	.LASF519
 13233 1d04 01       		.byte	0x1
ARM GAS  C:\Users\RECEPC~1\AppData\Local\Temp\ccvg7Xyk.s 			page 273


 13234 1d05 AE02     		.2byte	0x2ae
 13235 1d07 03010000 		.4byte	0x103
 13236 1d0b 03       		.uleb128 0x3
 13237 1d0c 91       		.byte	0x91
 13238 1d0d AC7F     		.sleb128 -84
 13239 1d0f 26       		.uleb128 0x26
 13240 1d10 5E120000 		.4byte	.LASF511
 13241 1d14 01       		.byte	0x1
 13242 1d15 B902     		.2byte	0x2b9
 13243 1d17 81000000 		.4byte	0x81
 13244 1d1b 02       		.uleb128 0x2
 13245 1d1c 91       		.byte	0x91
 13246 1d1d 60       		.sleb128 -32
 13247 1d1e 24       		.uleb128 0x24
 13248 1d1f 44030000 		.4byte	.LBB40
 13249 1d23 68000000 		.4byte	.LBE40-.LBB40
 13250 1d27 3B1D0000 		.4byte	0x1d3b
 13251 1d2b 26       		.uleb128 0x26
 13252 1d2c 6B0C0000 		.4byte	.LASF487
 13253 1d30 01       		.byte	0x1
 13254 1d31 BF02     		.2byte	0x2bf
 13255 1d33 59030000 		.4byte	0x359
 13256 1d37 02       		.uleb128 0x2
 13257 1d38 91       		.byte	0x91
 13258 1d39 48       		.sleb128 -56
 13259 1d3a 00       		.byte	0
 13260 1d3b 24       		.uleb128 0x24
 13261 1d3c AC030000 		.4byte	.LBB41
 13262 1d40 62000000 		.4byte	.LBE41-.LBB41
 13263 1d44 581D0000 		.4byte	0x1d58
 13264 1d48 26       		.uleb128 0x26
 13265 1d49 6B0C0000 		.4byte	.LASF487
 13266 1d4d 01       		.byte	0x1
 13267 1d4e C902     		.2byte	0x2c9
 13268 1d50 59030000 		.4byte	0x359
 13269 1d54 02       		.uleb128 0x2
 13270 1d55 91       		.byte	0x91
 13271 1d56 44       		.sleb128 -60
 13272 1d57 00       		.byte	0
 13273 1d58 24       		.uleb128 0x24
 13274 1d59 0E040000 		.4byte	.LBB42
 13275 1d5d 62000000 		.4byte	.LBE42-.LBB42
 13276 1d61 751D0000 		.4byte	0x1d75
 13277 1d65 26       		.uleb128 0x26
 13278 1d66 6B0C0000 		.4byte	.LASF487
 13279 1d6a 01       		.byte	0x1
 13280 1d6b D302     		.2byte	0x2d3
 13281 1d6d 59030000 		.4byte	0x359
 13282 1d71 02       		.uleb128 0x2
 13283 1d72 91       		.byte	0x91
 13284 1d73 40       		.sleb128 -64
 13285 1d74 00       		.byte	0
 13286 1d75 25       		.uleb128 0x25
 13287 1d76 70040000 		.4byte	.LBB43
 13288 1d7a 62000000 		.4byte	.LBE43-.LBB43
 13289 1d7e 26       		.uleb128 0x26
 13290 1d7f 6B0C0000 		.4byte	.LASF487
ARM GAS  C:\Users\RECEPC~1\AppData\Local\Temp\ccvg7Xyk.s 			page 274


 13291 1d83 01       		.byte	0x1
 13292 1d84 DD02     		.2byte	0x2dd
 13293 1d86 59030000 		.4byte	0x359
 13294 1d8a 03       		.uleb128 0x3
 13295 1d8b 91       		.byte	0x91
 13296 1d8c BC7F     		.sleb128 -68
 13297 1d8e 00       		.byte	0
 13298 1d8f 00       		.byte	0
 13299 1d90 00       		.byte	0
 13300 1d91 27       		.uleb128 0x27
 13301 1d92 73030000 		.4byte	.LASF520
 13302 1d96 01       		.byte	0x1
 13303 1d97 EB02     		.2byte	0x2eb
 13304 1d99 00000000 		.4byte	.LFB74
 13305 1d9d 5C010000 		.4byte	.LFE74-.LFB74
 13306 1da1 01       		.uleb128 0x1
 13307 1da2 9C       		.byte	0x9c
 13308 1da3 6A1E0000 		.4byte	0x1e6a
 13309 1da7 28       		.uleb128 0x28
 13310 1da8 B81C0000 		.4byte	.LASF497
 13311 1dac 01       		.byte	0x1
 13312 1dad EB02     		.2byte	0x2eb
 13313 1daf 1A010000 		.4byte	0x11a
 13314 1db3 02       		.uleb128 0x2
 13315 1db4 91       		.byte	0x91
 13316 1db5 44       		.sleb128 -60
 13317 1db6 26       		.uleb128 0x26
 13318 1db7 A5280000 		.4byte	.LASF499
 13319 1dbb 01       		.byte	0x1
 13320 1dbc ED02     		.2byte	0x2ed
 13321 1dbe F40D0000 		.4byte	0xdf4
 13322 1dc2 02       		.uleb128 0x2
 13323 1dc3 91       		.byte	0x91
 13324 1dc4 4C       		.sleb128 -52
 13325 1dc5 26       		.uleb128 0x26
 13326 1dc6 A90E0000 		.4byte	.LASF503
 13327 1dca 01       		.byte	0x1
 13328 1dcb F302     		.2byte	0x2f3
 13329 1dcd D71B0000 		.4byte	0x1bd7
 13330 1dd1 02       		.uleb128 0x2
 13331 1dd2 91       		.byte	0x91
 13332 1dd3 48       		.sleb128 -56
 13333 1dd4 26       		.uleb128 0x26
 13334 1dd5 520B0000 		.4byte	.LASF500
 13335 1dd9 01       		.byte	0x1
 13336 1dda F702     		.2byte	0x2f7
 13337 1ddc E1160000 		.4byte	0x16e1
 13338 1de0 02       		.uleb128 0x2
 13339 1de1 91       		.byte	0x91
 13340 1de2 64       		.sleb128 -28
 13341 1de3 24       		.uleb128 0x24
 13342 1de4 2A000000 		.4byte	.LBB44
 13343 1de8 92000000 		.4byte	.LBE44-.LBB44
 13344 1dec 281E0000 		.4byte	0x1e28
 13345 1df0 26       		.uleb128 0x26
 13346 1df1 6B0C0000 		.4byte	.LASF487
 13347 1df5 01       		.byte	0x1
ARM GAS  C:\Users\RECEPC~1\AppData\Local\Temp\ccvg7Xyk.s 			page 275


 13348 1df6 FA02     		.2byte	0x2fa
 13349 1df8 E7160000 		.4byte	0x16e7
 13350 1dfc 02       		.uleb128 0x2
 13351 1dfd 91       		.byte	0x91
 13352 1dfe 60       		.sleb128 -32
 13353 1dff 25       		.uleb128 0x25
 13354 1e00 38000000 		.4byte	.LBB45
 13355 1e04 84000000 		.4byte	.LBE45-.LBB45
 13356 1e08 26       		.uleb128 0x26
 13357 1e09 5E120000 		.4byte	.LASF511
 13358 1e0d 01       		.byte	0x1
 13359 1e0e FD02     		.2byte	0x2fd
 13360 1e10 81000000 		.4byte	0x81
 13361 1e14 02       		.uleb128 0x2
 13362 1e15 91       		.byte	0x91
 13363 1e16 5F       		.sleb128 -33
 13364 1e17 26       		.uleb128 0x26
 13365 1e18 DF220000 		.4byte	.LASF513
 13366 1e1c 01       		.byte	0x1
 13367 1e1d FE02     		.2byte	0x2fe
 13368 1e1f 8D000000 		.4byte	0x8d
 13369 1e23 02       		.uleb128 0x2
 13370 1e24 91       		.byte	0x91
 13371 1e25 5C       		.sleb128 -36
 13372 1e26 00       		.byte	0
 13373 1e27 00       		.byte	0
 13374 1e28 25       		.uleb128 0x25
 13375 1e29 C0000000 		.4byte	.LBB46
 13376 1e2d 92000000 		.4byte	.LBE46-.LBB46
 13377 1e31 26       		.uleb128 0x26
 13378 1e32 6B0C0000 		.4byte	.LASF487
 13379 1e36 01       		.byte	0x1
 13380 1e37 0803     		.2byte	0x308
 13381 1e39 E7160000 		.4byte	0x16e7
 13382 1e3d 02       		.uleb128 0x2
 13383 1e3e 91       		.byte	0x91
 13384 1e3f 58       		.sleb128 -40
 13385 1e40 25       		.uleb128 0x25
 13386 1e41 CE000000 		.4byte	.LBB47
 13387 1e45 84000000 		.4byte	.LBE47-.LBB47
 13388 1e49 26       		.uleb128 0x26
 13389 1e4a 5E120000 		.4byte	.LASF511
 13390 1e4e 01       		.byte	0x1
 13391 1e4f 0B03     		.2byte	0x30b
 13392 1e51 81000000 		.4byte	0x81
 13393 1e55 02       		.uleb128 0x2
 13394 1e56 91       		.byte	0x91
 13395 1e57 57       		.sleb128 -41
 13396 1e58 26       		.uleb128 0x26
 13397 1e59 DF220000 		.4byte	.LASF513
 13398 1e5d 01       		.byte	0x1
 13399 1e5e 0C03     		.2byte	0x30c
 13400 1e60 8D000000 		.4byte	0x8d
 13401 1e64 02       		.uleb128 0x2
 13402 1e65 91       		.byte	0x91
 13403 1e66 54       		.sleb128 -44
 13404 1e67 00       		.byte	0
ARM GAS  C:\Users\RECEPC~1\AppData\Local\Temp\ccvg7Xyk.s 			page 276


 13405 1e68 00       		.byte	0
 13406 1e69 00       		.byte	0
 13407 1e6a 27       		.uleb128 0x27
 13408 1e6b 18240000 		.4byte	.LASF521
 13409 1e6f 01       		.byte	0x1
 13410 1e70 1603     		.2byte	0x316
 13411 1e72 00000000 		.4byte	.LFB75
 13412 1e76 34020000 		.4byte	.LFE75-.LFB75
 13413 1e7a 01       		.uleb128 0x1
 13414 1e7b 9C       		.byte	0x9c
 13415 1e7c E51E0000 		.4byte	0x1ee5
 13416 1e80 28       		.uleb128 0x28
 13417 1e81 B81C0000 		.4byte	.LASF497
 13418 1e85 01       		.byte	0x1
 13419 1e86 1603     		.2byte	0x316
 13420 1e88 1A010000 		.4byte	0x11a
 13421 1e8c 02       		.uleb128 0x2
 13422 1e8d 91       		.byte	0x91
 13423 1e8e 54       		.sleb128 -44
 13424 1e8f 26       		.uleb128 0x26
 13425 1e90 520B0000 		.4byte	.LASF500
 13426 1e94 01       		.byte	0x1
 13427 1e95 1803     		.2byte	0x318
 13428 1e97 E6100000 		.4byte	0x10e6
 13429 1e9b 02       		.uleb128 0x2
 13430 1e9c 91       		.byte	0x91
 13431 1e9d 68       		.sleb128 -24
 13432 1e9e 26       		.uleb128 0x26
 13433 1e9f 96050000 		.4byte	.LASF510
 13434 1ea3 01       		.byte	0x1
 13435 1ea4 1C03     		.2byte	0x31c
 13436 1ea6 860A0000 		.4byte	0xa86
 13437 1eaa 02       		.uleb128 0x2
 13438 1eab 91       		.byte	0x91
 13439 1eac 64       		.sleb128 -28
 13440 1ead 29       		.uleb128 0x29
 13441 1eae 70747300 		.ascii	"pts\000"
 13442 1eb2 01       		.byte	0x1
 13443 1eb3 2003     		.2byte	0x320
 13444 1eb5 B1060000 		.4byte	0x6b1
 13445 1eb9 02       		.uleb128 0x2
 13446 1eba 91       		.byte	0x91
 13447 1ebb 60       		.sleb128 -32
 13448 1ebc 25       		.uleb128 0x25
 13449 1ebd 4C000000 		.4byte	.LBB48
 13450 1ec1 DC010000 		.4byte	.LBE48-.LBB48
 13451 1ec5 26       		.uleb128 0x26
 13452 1ec6 5E120000 		.4byte	.LASF511
 13453 1eca 01       		.byte	0x1
 13454 1ecb 2503     		.2byte	0x325
 13455 1ecd 81000000 		.4byte	0x81
 13456 1ed1 02       		.uleb128 0x2
 13457 1ed2 91       		.byte	0x91
 13458 1ed3 6F       		.sleb128 -17
 13459 1ed4 26       		.uleb128 0x26
 13460 1ed5 58080000 		.4byte	.LASF522
 13461 1ed9 01       		.byte	0x1
ARM GAS  C:\Users\RECEPC~1\AppData\Local\Temp\ccvg7Xyk.s 			page 277


 13462 1eda 3703     		.2byte	0x337
 13463 1edc 81000000 		.4byte	0x81
 13464 1ee0 02       		.uleb128 0x2
 13465 1ee1 91       		.byte	0x91
 13466 1ee2 5F       		.sleb128 -33
 13467 1ee3 00       		.byte	0
 13468 1ee4 00       		.byte	0
 13469 1ee5 27       		.uleb128 0x27
 13470 1ee6 69210000 		.4byte	.LASF523
 13471 1eea 01       		.byte	0x1
 13472 1eeb 7003     		.2byte	0x370
 13473 1eed 00000000 		.4byte	.LFB76
 13474 1ef1 94000000 		.4byte	.LFE76-.LFB76
 13475 1ef5 01       		.uleb128 0x1
 13476 1ef6 9C       		.byte	0x9c
 13477 1ef7 291F0000 		.4byte	0x1f29
 13478 1efb 28       		.uleb128 0x28
 13479 1efc B81C0000 		.4byte	.LASF497
 13480 1f00 01       		.byte	0x1
 13481 1f01 7003     		.2byte	0x370
 13482 1f03 1A010000 		.4byte	0x11a
 13483 1f07 02       		.uleb128 0x2
 13484 1f08 91       		.byte	0x91
 13485 1f09 64       		.sleb128 -28
 13486 1f0a 26       		.uleb128 0x26
 13487 1f0b 520B0000 		.4byte	.LASF500
 13488 1f0f 01       		.byte	0x1
 13489 1f10 7203     		.2byte	0x372
 13490 1f12 E6100000 		.4byte	0x10e6
 13491 1f16 02       		.uleb128 0x2
 13492 1f17 91       		.byte	0x91
 13493 1f18 6C       		.sleb128 -20
 13494 1f19 26       		.uleb128 0x26
 13495 1f1a 96050000 		.4byte	.LASF510
 13496 1f1e 01       		.byte	0x1
 13497 1f1f 7303     		.2byte	0x373
 13498 1f21 860A0000 		.4byte	0xa86
 13499 1f25 02       		.uleb128 0x2
 13500 1f26 91       		.byte	0x91
 13501 1f27 68       		.sleb128 -24
 13502 1f28 00       		.byte	0
 13503 1f29 27       		.uleb128 0x27
 13504 1f2a 7F1D0000 		.4byte	.LASF524
 13505 1f2e 01       		.byte	0x1
 13506 1f2f 8303     		.2byte	0x383
 13507 1f31 00000000 		.4byte	.LFB77
 13508 1f35 B0000000 		.4byte	.LFE77-.LFB77
 13509 1f39 01       		.uleb128 0x1
 13510 1f3a 9C       		.byte	0x9c
 13511 1f3b 7C1F0000 		.4byte	0x1f7c
 13512 1f3f 28       		.uleb128 0x28
 13513 1f40 B81C0000 		.4byte	.LASF497
 13514 1f44 01       		.byte	0x1
 13515 1f45 8303     		.2byte	0x383
 13516 1f47 1A010000 		.4byte	0x11a
 13517 1f4b 02       		.uleb128 0x2
 13518 1f4c 91       		.byte	0x91
ARM GAS  C:\Users\RECEPC~1\AppData\Local\Temp\ccvg7Xyk.s 			page 278


 13519 1f4d 5C       		.sleb128 -36
 13520 1f4e 26       		.uleb128 0x26
 13521 1f4f FF140000 		.4byte	.LASF481
 13522 1f53 01       		.byte	0x1
 13523 1f54 8503     		.2byte	0x385
 13524 1f56 B4040000 		.4byte	0x4b4
 13525 1f5a 02       		.uleb128 0x2
 13526 1f5b 91       		.byte	0x91
 13527 1f5c 6C       		.sleb128 -20
 13528 1f5d 26       		.uleb128 0x26
 13529 1f5e 520B0000 		.4byte	.LASF500
 13530 1f62 01       		.byte	0x1
 13531 1f63 8603     		.2byte	0x386
 13532 1f65 E1160000 		.4byte	0x16e1
 13533 1f69 02       		.uleb128 0x2
 13534 1f6a 91       		.byte	0x91
 13535 1f6b 68       		.sleb128 -24
 13536 1f6c 26       		.uleb128 0x26
 13537 1f6d B2100000 		.4byte	.LASF525
 13538 1f71 01       		.byte	0x1
 13539 1f72 8703     		.2byte	0x387
 13540 1f74 81000000 		.4byte	0x81
 13541 1f78 02       		.uleb128 0x2
 13542 1f79 91       		.byte	0x91
 13543 1f7a 67       		.sleb128 -25
 13544 1f7b 00       		.byte	0
 13545 1f7c 2A       		.uleb128 0x2a
 13546 1f7d 44060000 		.4byte	.LASF526
 13547 1f81 01       		.byte	0x1
 13548 1f82 BA03     		.2byte	0x3ba
 13549 1f84 00000000 		.4byte	.LFB78
 13550 1f88 2C000000 		.4byte	.LFE78-.LFB78
 13551 1f8c 01       		.uleb128 0x1
 13552 1f8d 9C       		.byte	0x9c
 13553 1f8e B11F0000 		.4byte	0x1fb1
 13554 1f92 28       		.uleb128 0x28
 13555 1f93 B81C0000 		.4byte	.LASF497
 13556 1f97 01       		.byte	0x1
 13557 1f98 BA03     		.2byte	0x3ba
 13558 1f9a 1A010000 		.4byte	0x11a
 13559 1f9e 02       		.uleb128 0x2
 13560 1f9f 91       		.byte	0x91
 13561 1fa0 6C       		.sleb128 -20
 13562 1fa1 26       		.uleb128 0x26
 13563 1fa2 520B0000 		.4byte	.LASF500
 13564 1fa6 01       		.byte	0x1
 13565 1fa7 BC03     		.2byte	0x3bc
 13566 1fa9 E6100000 		.4byte	0x10e6
 13567 1fad 02       		.uleb128 0x2
 13568 1fae 91       		.byte	0x91
 13569 1faf 74       		.sleb128 -12
 13570 1fb0 00       		.byte	0
 13571 1fb1 27       		.uleb128 0x27
 13572 1fb2 DE170000 		.4byte	.LASF527
 13573 1fb6 01       		.byte	0x1
 13574 1fb7 C403     		.2byte	0x3c4
 13575 1fb9 00000000 		.4byte	.LFB79
ARM GAS  C:\Users\RECEPC~1\AppData\Local\Temp\ccvg7Xyk.s 			page 279


 13576 1fbd 94000000 		.4byte	.LFE79-.LFB79
 13577 1fc1 01       		.uleb128 0x1
 13578 1fc2 9C       		.byte	0x9c
 13579 1fc3 FF1F0000 		.4byte	0x1fff
 13580 1fc7 28       		.uleb128 0x28
 13581 1fc8 B81C0000 		.4byte	.LASF497
 13582 1fcc 01       		.byte	0x1
 13583 1fcd C403     		.2byte	0x3c4
 13584 1fcf FB000000 		.4byte	0xfb
 13585 1fd3 02       		.uleb128 0x2
 13586 1fd4 91       		.byte	0x91
 13587 1fd5 64       		.sleb128 -28
 13588 1fd6 26       		.uleb128 0x26
 13589 1fd7 520B0000 		.4byte	.LASF500
 13590 1fdb 01       		.byte	0x1
 13591 1fdc C603     		.2byte	0x3c6
 13592 1fde E6100000 		.4byte	0x10e6
 13593 1fe2 02       		.uleb128 0x2
 13594 1fe3 91       		.byte	0x91
 13595 1fe4 6C       		.sleb128 -20
 13596 1fe5 25       		.uleb128 0x25
 13597 1fe6 12000000 		.4byte	.LBB49
 13598 1fea 7C000000 		.4byte	.LBE49-.LBB49
 13599 1fee 26       		.uleb128 0x26
 13600 1fef 26220000 		.4byte	.LASF528
 13601 1ff3 01       		.byte	0x1
 13602 1ff4 CF03     		.2byte	0x3cf
 13603 1ff6 8D000000 		.4byte	0x8d
 13604 1ffa 02       		.uleb128 0x2
 13605 1ffb 91       		.byte	0x91
 13606 1ffc 6A       		.sleb128 -22
 13607 1ffd 00       		.byte	0
 13608 1ffe 00       		.byte	0
 13609 1fff 27       		.uleb128 0x27
 13610 2000 EA150000 		.4byte	.LASF529
 13611 2004 01       		.byte	0x1
 13612 2005 D903     		.2byte	0x3d9
 13613 2007 00000000 		.4byte	.LFB80
 13614 200b E4000000 		.4byte	.LFE80-.LFB80
 13615 200f 01       		.uleb128 0x1
 13616 2010 9C       		.byte	0x9c
 13617 2011 6A200000 		.4byte	0x206a
 13618 2015 28       		.uleb128 0x28
 13619 2016 B81C0000 		.4byte	.LASF497
 13620 201a 01       		.byte	0x1
 13621 201b D903     		.2byte	0x3d9
 13622 201d FB000000 		.4byte	0xfb
 13623 2021 02       		.uleb128 0x2
 13624 2022 91       		.byte	0x91
 13625 2023 54       		.sleb128 -44
 13626 2024 26       		.uleb128 0x26
 13627 2025 520B0000 		.4byte	.LASF500
 13628 2029 01       		.byte	0x1
 13629 202a DB03     		.2byte	0x3db
 13630 202c E6100000 		.4byte	0x10e6
 13631 2030 02       		.uleb128 0x2
 13632 2031 91       		.byte	0x91
ARM GAS  C:\Users\RECEPC~1\AppData\Local\Temp\ccvg7Xyk.s 			page 280


 13633 2032 64       		.sleb128 -28
 13634 2033 24       		.uleb128 0x24
 13635 2034 2E000000 		.4byte	.LBB50
 13636 2038 56000000 		.4byte	.LBE50-.LBB50
 13637 203c 50200000 		.4byte	0x2050
 13638 2040 26       		.uleb128 0x26
 13639 2041 6B0C0000 		.4byte	.LASF487
 13640 2045 01       		.byte	0x1
 13641 2046 E203     		.2byte	0x3e2
 13642 2048 E7160000 		.4byte	0x16e7
 13643 204c 02       		.uleb128 0x2
 13644 204d 91       		.byte	0x91
 13645 204e 60       		.sleb128 -32
 13646 204f 00       		.byte	0
 13647 2050 25       		.uleb128 0x25
 13648 2051 88000000 		.4byte	.LBB51
 13649 2055 56000000 		.4byte	.LBE51-.LBB51
 13650 2059 26       		.uleb128 0x26
 13651 205a 6B0C0000 		.4byte	.LASF487
 13652 205e 01       		.byte	0x1
 13653 205f EB03     		.2byte	0x3eb
 13654 2061 E7160000 		.4byte	0x16e7
 13655 2065 02       		.uleb128 0x2
 13656 2066 91       		.byte	0x91
 13657 2067 5C       		.sleb128 -36
 13658 2068 00       		.byte	0
 13659 2069 00       		.byte	0
 13660 206a 27       		.uleb128 0x27
 13661 206b DB1F0000 		.4byte	.LASF530
 13662 206f 01       		.byte	0x1
 13663 2070 F503     		.2byte	0x3f5
 13664 2072 00000000 		.4byte	.LFB81
 13665 2076 D4000000 		.4byte	.LFE81-.LFB81
 13666 207a 01       		.uleb128 0x1
 13667 207b 9C       		.byte	0x9c
 13668 207c C7200000 		.4byte	0x20c7
 13669 2080 28       		.uleb128 0x28
 13670 2081 B81C0000 		.4byte	.LASF497
 13671 2085 01       		.byte	0x1
 13672 2086 F503     		.2byte	0x3f5
 13673 2088 FB000000 		.4byte	0xfb
 13674 208c 02       		.uleb128 0x2
 13675 208d 91       		.byte	0x91
 13676 208e 64       		.sleb128 -28
 13677 208f 26       		.uleb128 0x26
 13678 2090 520B0000 		.4byte	.LASF500
 13679 2094 01       		.byte	0x1
 13680 2095 F703     		.2byte	0x3f7
 13681 2097 E6100000 		.4byte	0x10e6
 13682 209b 02       		.uleb128 0x2
 13683 209c 91       		.byte	0x91
 13684 209d 68       		.sleb128 -24
 13685 209e 25       		.uleb128 0x25
 13686 209f 12000000 		.4byte	.LBB52
 13687 20a3 B2000000 		.4byte	.LBE52-.LBB52
 13688 20a7 26       		.uleb128 0x26
 13689 20a8 26220000 		.4byte	.LASF528
ARM GAS  C:\Users\RECEPC~1\AppData\Local\Temp\ccvg7Xyk.s 			page 281


 13690 20ac 01       		.byte	0x1
 13691 20ad FA03     		.2byte	0x3fa
 13692 20af 8D000000 		.4byte	0x8d
 13693 20b3 02       		.uleb128 0x2
 13694 20b4 91       		.byte	0x91
 13695 20b5 6E       		.sleb128 -18
 13696 20b6 26       		.uleb128 0x26
 13697 20b7 5E120000 		.4byte	.LASF511
 13698 20bb 01       		.byte	0x1
 13699 20bc FB03     		.2byte	0x3fb
 13700 20be 81000000 		.4byte	0x81
 13701 20c2 02       		.uleb128 0x2
 13702 20c3 91       		.byte	0x91
 13703 20c4 6D       		.sleb128 -19
 13704 20c5 00       		.byte	0
 13705 20c6 00       		.byte	0
 13706 20c7 27       		.uleb128 0x27
 13707 20c8 5B190000 		.4byte	.LASF531
 13708 20cc 01       		.byte	0x1
 13709 20cd 0F04     		.2byte	0x40f
 13710 20cf 00000000 		.4byte	.LFB82
 13711 20d3 7E000000 		.4byte	.LFE82-.LFB82
 13712 20d7 01       		.uleb128 0x1
 13713 20d8 9C       		.byte	0x9c
 13714 20d9 15210000 		.4byte	0x2115
 13715 20dd 28       		.uleb128 0x28
 13716 20de B81C0000 		.4byte	.LASF497
 13717 20e2 01       		.byte	0x1
 13718 20e3 0F04     		.2byte	0x40f
 13719 20e5 FB000000 		.4byte	0xfb
 13720 20e9 02       		.uleb128 0x2
 13721 20ea 91       		.byte	0x91
 13722 20eb 64       		.sleb128 -28
 13723 20ec 26       		.uleb128 0x26
 13724 20ed 520B0000 		.4byte	.LASF500
 13725 20f1 01       		.byte	0x1
 13726 20f2 1104     		.2byte	0x411
 13727 20f4 E6100000 		.4byte	0x10e6
 13728 20f8 02       		.uleb128 0x2
 13729 20f9 91       		.byte	0x91
 13730 20fa 6C       		.sleb128 -20
 13731 20fb 25       		.uleb128 0x25
 13732 20fc 12000000 		.4byte	.LBB53
 13733 2100 66000000 		.4byte	.LBE53-.LBB53
 13734 2104 26       		.uleb128 0x26
 13735 2105 851B0000 		.4byte	.LASF532
 13736 2109 01       		.byte	0x1
 13737 210a 1A04     		.2byte	0x41a
 13738 210c 81000000 		.4byte	0x81
 13739 2110 02       		.uleb128 0x2
 13740 2111 91       		.byte	0x91
 13741 2112 6B       		.sleb128 -21
 13742 2113 00       		.byte	0
 13743 2114 00       		.byte	0
 13744 2115 27       		.uleb128 0x27
 13745 2116 1E1B0000 		.4byte	.LASF533
 13746 211a 01       		.byte	0x1
ARM GAS  C:\Users\RECEPC~1\AppData\Local\Temp\ccvg7Xyk.s 			page 282


 13747 211b 2404     		.2byte	0x424
 13748 211d 00000000 		.4byte	.LFB83
 13749 2121 E4000000 		.4byte	.LFE83-.LFB83
 13750 2125 01       		.uleb128 0x1
 13751 2126 9C       		.byte	0x9c
 13752 2127 80210000 		.4byte	0x2180
 13753 212b 28       		.uleb128 0x28
 13754 212c B81C0000 		.4byte	.LASF497
 13755 2130 01       		.byte	0x1
 13756 2131 2404     		.2byte	0x424
 13757 2133 FB000000 		.4byte	0xfb
 13758 2137 02       		.uleb128 0x2
 13759 2138 91       		.byte	0x91
 13760 2139 54       		.sleb128 -44
 13761 213a 26       		.uleb128 0x26
 13762 213b 520B0000 		.4byte	.LASF500
 13763 213f 01       		.byte	0x1
 13764 2140 2604     		.2byte	0x426
 13765 2142 E6100000 		.4byte	0x10e6
 13766 2146 02       		.uleb128 0x2
 13767 2147 91       		.byte	0x91
 13768 2148 64       		.sleb128 -28
 13769 2149 24       		.uleb128 0x24
 13770 214a 2E000000 		.4byte	.LBB54
 13771 214e 56000000 		.4byte	.LBE54-.LBB54
 13772 2152 66210000 		.4byte	0x2166
 13773 2156 26       		.uleb128 0x26
 13774 2157 6B0C0000 		.4byte	.LASF487
 13775 215b 01       		.byte	0x1
 13776 215c 2D04     		.2byte	0x42d
 13777 215e E7160000 		.4byte	0x16e7
 13778 2162 02       		.uleb128 0x2
 13779 2163 91       		.byte	0x91
 13780 2164 60       		.sleb128 -32
 13781 2165 00       		.byte	0
 13782 2166 25       		.uleb128 0x25
 13783 2167 88000000 		.4byte	.LBB55
 13784 216b 56000000 		.4byte	.LBE55-.LBB55
 13785 216f 26       		.uleb128 0x26
 13786 2170 6B0C0000 		.4byte	.LASF487
 13787 2174 01       		.byte	0x1
 13788 2175 3604     		.2byte	0x436
 13789 2177 E7160000 		.4byte	0x16e7
 13790 217b 02       		.uleb128 0x2
 13791 217c 91       		.byte	0x91
 13792 217d 5C       		.sleb128 -36
 13793 217e 00       		.byte	0
 13794 217f 00       		.byte	0
 13795 2180 27       		.uleb128 0x27
 13796 2181 C9020000 		.4byte	.LASF534
 13797 2185 01       		.byte	0x1
 13798 2186 4004     		.2byte	0x440
 13799 2188 00000000 		.4byte	.LFB84
 13800 218c C4000000 		.4byte	.LFE84-.LFB84
 13801 2190 01       		.uleb128 0x1
 13802 2191 9C       		.byte	0x9c
 13803 2192 DD210000 		.4byte	0x21dd
ARM GAS  C:\Users\RECEPC~1\AppData\Local\Temp\ccvg7Xyk.s 			page 283


 13804 2196 28       		.uleb128 0x28
 13805 2197 B81C0000 		.4byte	.LASF497
 13806 219b 01       		.byte	0x1
 13807 219c 4004     		.2byte	0x440
 13808 219e FB000000 		.4byte	0xfb
 13809 21a2 02       		.uleb128 0x2
 13810 21a3 91       		.byte	0x91
 13811 21a4 64       		.sleb128 -28
 13812 21a5 26       		.uleb128 0x26
 13813 21a6 520B0000 		.4byte	.LASF500
 13814 21aa 01       		.byte	0x1
 13815 21ab 4204     		.2byte	0x442
 13816 21ad E6100000 		.4byte	0x10e6
 13817 21b1 02       		.uleb128 0x2
 13818 21b2 91       		.byte	0x91
 13819 21b3 68       		.sleb128 -24
 13820 21b4 25       		.uleb128 0x25
 13821 21b5 12000000 		.4byte	.LBB56
 13822 21b9 A2000000 		.4byte	.LBE56-.LBB56
 13823 21bd 26       		.uleb128 0x26
 13824 21be 89260000 		.4byte	.LASF535
 13825 21c2 01       		.byte	0x1
 13826 21c3 4704     		.2byte	0x447
 13827 21c5 81000000 		.4byte	0x81
 13828 21c9 02       		.uleb128 0x2
 13829 21ca 91       		.byte	0x91
 13830 21cb 6F       		.sleb128 -17
 13831 21cc 26       		.uleb128 0x26
 13832 21cd 5E120000 		.4byte	.LASF511
 13833 21d1 01       		.byte	0x1
 13834 21d2 4804     		.2byte	0x448
 13835 21d4 81000000 		.4byte	0x81
 13836 21d8 02       		.uleb128 0x2
 13837 21d9 91       		.byte	0x91
 13838 21da 6E       		.sleb128 -18
 13839 21db 00       		.byte	0
 13840 21dc 00       		.byte	0
 13841 21dd 27       		.uleb128 0x27
 13842 21de 571F0000 		.4byte	.LASF536
 13843 21e2 01       		.byte	0x1
 13844 21e3 5B04     		.2byte	0x45b
 13845 21e5 00000000 		.4byte	.LFB85
 13846 21e9 B0000000 		.4byte	.LFE85-.LFB85
 13847 21ed 01       		.uleb128 0x1
 13848 21ee 9C       		.byte	0x9c
 13849 21ef 48220000 		.4byte	0x2248
 13850 21f3 28       		.uleb128 0x28
 13851 21f4 B81C0000 		.4byte	.LASF497
 13852 21f8 01       		.byte	0x1
 13853 21f9 5B04     		.2byte	0x45b
 13854 21fb FB000000 		.4byte	0xfb
 13855 21ff 02       		.uleb128 0x2
 13856 2200 91       		.byte	0x91
 13857 2201 64       		.sleb128 -28
 13858 2202 26       		.uleb128 0x26
 13859 2203 520B0000 		.4byte	.LASF500
 13860 2207 01       		.byte	0x1
ARM GAS  C:\Users\RECEPC~1\AppData\Local\Temp\ccvg7Xyk.s 			page 284


 13861 2208 5D04     		.2byte	0x45d
 13862 220a E6100000 		.4byte	0x10e6
 13863 220e 02       		.uleb128 0x2
 13864 220f 91       		.byte	0x91
 13865 2210 74       		.sleb128 -12
 13866 2211 24       		.uleb128 0x24
 13867 2212 14000000 		.4byte	.LBB57
 13868 2216 42000000 		.4byte	.LBE57-.LBB57
 13869 221a 2E220000 		.4byte	0x222e
 13870 221e 26       		.uleb128 0x26
 13871 221f 64120000 		.4byte	.LASF537
 13872 2223 01       		.byte	0x1
 13873 2224 6004     		.2byte	0x460
 13874 2226 B4040000 		.4byte	0x4b4
 13875 222a 02       		.uleb128 0x2
 13876 222b 91       		.byte	0x91
 13877 222c 70       		.sleb128 -16
 13878 222d 00       		.byte	0
 13879 222e 25       		.uleb128 0x25
 13880 222f 62000000 		.4byte	.LBB58
 13881 2233 42000000 		.4byte	.LBE58-.LBB58
 13882 2237 26       		.uleb128 0x26
 13883 2238 64120000 		.4byte	.LASF537
 13884 223c 01       		.byte	0x1
 13885 223d 6F04     		.2byte	0x46f
 13886 223f B4040000 		.4byte	0x4b4
 13887 2243 02       		.uleb128 0x2
 13888 2244 91       		.byte	0x91
 13889 2245 6C       		.sleb128 -20
 13890 2246 00       		.byte	0
 13891 2247 00       		.byte	0
 13892 2248 2A       		.uleb128 0x2a
 13893 2249 FD200000 		.4byte	.LASF538
 13894 224d 01       		.byte	0x1
 13895 224e 8004     		.2byte	0x480
 13896 2250 00000000 		.4byte	.LFB86
 13897 2254 34000000 		.4byte	.LFE86-.LFB86
 13898 2258 01       		.uleb128 0x1
 13899 2259 9C       		.byte	0x9c
 13900 225a 7D220000 		.4byte	0x227d
 13901 225e 28       		.uleb128 0x28
 13902 225f B81C0000 		.4byte	.LASF497
 13903 2263 01       		.byte	0x1
 13904 2264 8004     		.2byte	0x480
 13905 2266 FB000000 		.4byte	0xfb
 13906 226a 02       		.uleb128 0x2
 13907 226b 91       		.byte	0x91
 13908 226c 6C       		.sleb128 -20
 13909 226d 26       		.uleb128 0x26
 13910 226e 520B0000 		.4byte	.LASF500
 13911 2272 01       		.byte	0x1
 13912 2273 8204     		.2byte	0x482
 13913 2275 E6100000 		.4byte	0x10e6
 13914 2279 02       		.uleb128 0x2
 13915 227a 91       		.byte	0x91
 13916 227b 74       		.sleb128 -12
 13917 227c 00       		.byte	0
ARM GAS  C:\Users\RECEPC~1\AppData\Local\Temp\ccvg7Xyk.s 			page 285


 13918 227d 27       		.uleb128 0x27
 13919 227e C1260000 		.4byte	.LASF539
 13920 2282 01       		.byte	0x1
 13921 2283 8E04     		.2byte	0x48e
 13922 2285 00000000 		.4byte	.LFB87
 13923 2289 98000000 		.4byte	.LFE87-.LFB87
 13924 228d 01       		.uleb128 0x1
 13925 228e 9C       		.byte	0x9c
 13926 228f F3220000 		.4byte	0x22f3
 13927 2293 28       		.uleb128 0x28
 13928 2294 B81C0000 		.4byte	.LASF497
 13929 2298 01       		.byte	0x1
 13930 2299 8E04     		.2byte	0x48e
 13931 229b 1A010000 		.4byte	0x11a
 13932 229f 02       		.uleb128 0x2
 13933 22a0 91       		.byte	0x91
 13934 22a1 5C       		.sleb128 -36
 13935 22a2 26       		.uleb128 0x26
 13936 22a3 FF140000 		.4byte	.LASF481
 13937 22a7 01       		.byte	0x1
 13938 22a8 9004     		.2byte	0x490
 13939 22aa B4040000 		.4byte	0x4b4
 13940 22ae 02       		.uleb128 0x2
 13941 22af 91       		.byte	0x91
 13942 22b0 74       		.sleb128 -12
 13943 22b1 26       		.uleb128 0x26
 13944 22b2 520B0000 		.4byte	.LASF500
 13945 22b6 01       		.byte	0x1
 13946 22b7 9104     		.2byte	0x491
 13947 22b9 E6100000 		.4byte	0x10e6
 13948 22bd 02       		.uleb128 0x2
 13949 22be 91       		.byte	0x91
 13950 22bf 70       		.sleb128 -16
 13951 22c0 25       		.uleb128 0x25
 13952 22c1 1A000000 		.4byte	.LBB59
 13953 22c5 72000000 		.4byte	.LBE59-.LBB59
 13954 22c9 26       		.uleb128 0x26
 13955 22ca 64120000 		.4byte	.LASF537
 13956 22ce 01       		.byte	0x1
 13957 22cf 9904     		.2byte	0x499
 13958 22d1 B4040000 		.4byte	0x4b4
 13959 22d5 02       		.uleb128 0x2
 13960 22d6 91       		.byte	0x91
 13961 22d7 6C       		.sleb128 -20
 13962 22d8 25       		.uleb128 0x25
 13963 22d9 46000000 		.4byte	.LBB60
 13964 22dd 46000000 		.4byte	.LBE60-.LBB60
 13965 22e1 26       		.uleb128 0x26
 13966 22e2 85070000 		.4byte	.LASF540
 13967 22e6 01       		.byte	0x1
 13968 22e7 9D04     		.2byte	0x49d
 13969 22e9 E4070000 		.4byte	0x7e4
 13970 22ed 02       		.uleb128 0x2
 13971 22ee 91       		.byte	0x91
 13972 22ef 64       		.sleb128 -28
 13973 22f0 00       		.byte	0
 13974 22f1 00       		.byte	0
ARM GAS  C:\Users\RECEPC~1\AppData\Local\Temp\ccvg7Xyk.s 			page 286


 13975 22f2 00       		.byte	0
 13976 22f3 27       		.uleb128 0x27
 13977 22f4 18280000 		.4byte	.LASF541
 13978 22f8 01       		.byte	0x1
 13979 22f9 AC04     		.2byte	0x4ac
 13980 22fb 00000000 		.4byte	.LFB88
 13981 22ff 20080000 		.4byte	.LFE88-.LFB88
 13982 2303 01       		.uleb128 0x1
 13983 2304 9C       		.byte	0x9c
 13984 2305 E8230000 		.4byte	0x23e8
 13985 2309 28       		.uleb128 0x28
 13986 230a B81C0000 		.4byte	.LASF497
 13987 230e 01       		.byte	0x1
 13988 230f AC04     		.2byte	0x4ac
 13989 2311 FB000000 		.4byte	0xfb
 13990 2315 02       		.uleb128 0x2
 13991 2316 91       		.byte	0x91
 13992 2317 44       		.sleb128 -60
 13993 2318 26       		.uleb128 0x26
 13994 2319 B8230000 		.4byte	.LASF498
 13995 231d 01       		.byte	0x1
 13996 231e AE04     		.2byte	0x4ae
 13997 2320 E4070000 		.4byte	0x7e4
 13998 2324 02       		.uleb128 0x2
 13999 2325 91       		.byte	0x91
 14000 2326 50       		.sleb128 -48
 14001 2327 26       		.uleb128 0x26
 14002 2328 A5280000 		.4byte	.LASF499
 14003 232c 01       		.byte	0x1
 14004 232d AF04     		.2byte	0x4af
 14005 232f F40D0000 		.4byte	0xdf4
 14006 2333 02       		.uleb128 0x2
 14007 2334 91       		.byte	0x91
 14008 2335 48       		.sleb128 -56
 14009 2336 26       		.uleb128 0x26
 14010 2337 520B0000 		.4byte	.LASF500
 14011 233b 01       		.byte	0x1
 14012 233c B404     		.2byte	0x4b4
 14013 233e E1160000 		.4byte	0x16e1
 14014 2342 02       		.uleb128 0x2
 14015 2343 91       		.byte	0x91
 14016 2344 68       		.sleb128 -24
 14017 2345 24       		.uleb128 0x24
 14018 2346 34000000 		.4byte	.LBB61
 14019 234a F8030000 		.4byte	.LBE61-.LBB61
 14020 234e 98230000 		.4byte	0x2398
 14021 2352 26       		.uleb128 0x26
 14022 2353 6B0C0000 		.4byte	.LASF487
 14023 2357 01       		.byte	0x1
 14024 2358 B704     		.2byte	0x4b7
 14025 235a E7160000 		.4byte	0x16e7
 14026 235e 02       		.uleb128 0x2
 14027 235f 91       		.byte	0x91
 14028 2360 64       		.sleb128 -28
 14029 2361 24       		.uleb128 0x24
 14030 2362 44000000 		.4byte	.LBB62
 14031 2366 28020000 		.4byte	.LBE62-.LBB62
ARM GAS  C:\Users\RECEPC~1\AppData\Local\Temp\ccvg7Xyk.s 			page 287


 14032 236a 7E230000 		.4byte	0x237e
 14033 236e 26       		.uleb128 0x26
 14034 236f 5E120000 		.4byte	.LASF511
 14035 2373 01       		.byte	0x1
 14036 2374 BA04     		.2byte	0x4ba
 14037 2376 81000000 		.4byte	0x81
 14038 237a 02       		.uleb128 0x2
 14039 237b 91       		.byte	0x91
 14040 237c 6F       		.sleb128 -17
 14041 237d 00       		.byte	0
 14042 237e 25       		.uleb128 0x25
 14043 237f 7C020000 		.4byte	.LBB63
 14044 2383 B0010000 		.4byte	.LBE63-.LBB63
 14045 2387 26       		.uleb128 0x26
 14046 2388 5E120000 		.4byte	.LASF511
 14047 238c 01       		.byte	0x1
 14048 238d DC04     		.2byte	0x4dc
 14049 238f 81000000 		.4byte	0x81
 14050 2393 02       		.uleb128 0x2
 14051 2394 91       		.byte	0x91
 14052 2395 63       		.sleb128 -29
 14053 2396 00       		.byte	0
 14054 2397 00       		.byte	0
 14055 2398 25       		.uleb128 0x25
 14056 2399 46040000 		.4byte	.LBB64
 14057 239d D4030000 		.4byte	.LBE64-.LBB64
 14058 23a1 26       		.uleb128 0x26
 14059 23a2 6B0C0000 		.4byte	.LASF487
 14060 23a6 01       		.byte	0x1
 14061 23a7 F804     		.2byte	0x4f8
 14062 23a9 E7160000 		.4byte	0x16e7
 14063 23ad 02       		.uleb128 0x2
 14064 23ae 91       		.byte	0x91
 14065 23af 5C       		.sleb128 -36
 14066 23b0 24       		.uleb128 0x24
 14067 23b1 56040000 		.4byte	.LBB65
 14068 23b5 28020000 		.4byte	.LBE65-.LBB65
 14069 23b9 CD230000 		.4byte	0x23cd
 14070 23bd 26       		.uleb128 0x26
 14071 23be 5E120000 		.4byte	.LASF511
 14072 23c2 01       		.byte	0x1
 14073 23c3 FB04     		.2byte	0x4fb
 14074 23c5 81000000 		.4byte	0x81
 14075 23c9 02       		.uleb128 0x2
 14076 23ca 91       		.byte	0x91
 14077 23cb 6E       		.sleb128 -18
 14078 23cc 00       		.byte	0
 14079 23cd 25       		.uleb128 0x25
 14080 23ce 8E060000 		.4byte	.LBB66
 14081 23d2 8C010000 		.4byte	.LBE66-.LBB66
 14082 23d6 26       		.uleb128 0x26
 14083 23d7 5E120000 		.4byte	.LASF511
 14084 23db 01       		.byte	0x1
 14085 23dc 1D05     		.2byte	0x51d
 14086 23de 81000000 		.4byte	0x81
 14087 23e2 02       		.uleb128 0x2
 14088 23e3 91       		.byte	0x91
ARM GAS  C:\Users\RECEPC~1\AppData\Local\Temp\ccvg7Xyk.s 			page 288


 14089 23e4 5B       		.sleb128 -37
 14090 23e5 00       		.byte	0
 14091 23e6 00       		.byte	0
 14092 23e7 00       		.byte	0
 14093 23e8 27       		.uleb128 0x27
 14094 23e9 1F030000 		.4byte	.LASF542
 14095 23ed 01       		.byte	0x1
 14096 23ee 3805     		.2byte	0x538
 14097 23f0 00000000 		.4byte	.LFB89
 14098 23f4 A8000000 		.4byte	.LFE89-.LFB89
 14099 23f8 01       		.uleb128 0x1
 14100 23f9 9C       		.byte	0x9c
 14101 23fa 53240000 		.4byte	0x2453
 14102 23fe 28       		.uleb128 0x28
 14103 23ff B81C0000 		.4byte	.LASF497
 14104 2403 01       		.byte	0x1
 14105 2404 3805     		.2byte	0x538
 14106 2406 FB000000 		.4byte	0xfb
 14107 240a 02       		.uleb128 0x2
 14108 240b 91       		.byte	0x91
 14109 240c 64       		.sleb128 -28
 14110 240d 26       		.uleb128 0x26
 14111 240e 520B0000 		.4byte	.LASF500
 14112 2412 01       		.byte	0x1
 14113 2413 3A05     		.2byte	0x53a
 14114 2415 E6100000 		.4byte	0x10e6
 14115 2419 02       		.uleb128 0x2
 14116 241a 91       		.byte	0x91
 14117 241b 74       		.sleb128 -12
 14118 241c 24       		.uleb128 0x24
 14119 241d 14000000 		.4byte	.LBB67
 14120 2421 3E000000 		.4byte	.LBE67-.LBB67
 14121 2425 39240000 		.4byte	0x2439
 14122 2429 26       		.uleb128 0x26
 14123 242a 64120000 		.4byte	.LASF537
 14124 242e 01       		.byte	0x1
 14125 242f 3D05     		.2byte	0x53d
 14126 2431 B4040000 		.4byte	0x4b4
 14127 2435 02       		.uleb128 0x2
 14128 2436 91       		.byte	0x91
 14129 2437 70       		.sleb128 -16
 14130 2438 00       		.byte	0
 14131 2439 25       		.uleb128 0x25
 14132 243a 5E000000 		.4byte	.LBB68
 14133 243e 3E000000 		.4byte	.LBE68-.LBB68
 14134 2442 26       		.uleb128 0x26
 14135 2443 64120000 		.4byte	.LASF537
 14136 2447 01       		.byte	0x1
 14137 2448 4B05     		.2byte	0x54b
 14138 244a B4040000 		.4byte	0x4b4
 14139 244e 02       		.uleb128 0x2
 14140 244f 91       		.byte	0x91
 14141 2450 6C       		.sleb128 -20
 14142 2451 00       		.byte	0
 14143 2452 00       		.byte	0
 14144 2453 2A       		.uleb128 0x2a
 14145 2454 97180000 		.4byte	.LASF543
ARM GAS  C:\Users\RECEPC~1\AppData\Local\Temp\ccvg7Xyk.s 			page 289


 14146 2458 01       		.byte	0x1
 14147 2459 5905     		.2byte	0x559
 14148 245b 00000000 		.4byte	.LFB90
 14149 245f 4E000000 		.4byte	.LFE90-.LFB90
 14150 2463 01       		.uleb128 0x1
 14151 2464 9C       		.byte	0x9c
 14152 2465 BE240000 		.4byte	0x24be
 14153 2469 28       		.uleb128 0x28
 14154 246a B81C0000 		.4byte	.LASF497
 14155 246e 01       		.byte	0x1
 14156 246f 5905     		.2byte	0x559
 14157 2471 FB000000 		.4byte	0xfb
 14158 2475 02       		.uleb128 0x2
 14159 2476 91       		.byte	0x91
 14160 2477 64       		.sleb128 -28
 14161 2478 26       		.uleb128 0x26
 14162 2479 520B0000 		.4byte	.LASF500
 14163 247d 01       		.byte	0x1
 14164 247e 5B05     		.2byte	0x55b
 14165 2480 E6100000 		.4byte	0x10e6
 14166 2484 02       		.uleb128 0x2
 14167 2485 91       		.byte	0x91
 14168 2486 74       		.sleb128 -12
 14169 2487 24       		.uleb128 0x24
 14170 2488 14000000 		.4byte	.LBB69
 14171 248c 12000000 		.4byte	.LBE69-.LBB69
 14172 2490 A4240000 		.4byte	0x24a4
 14173 2494 26       		.uleb128 0x26
 14174 2495 64120000 		.4byte	.LASF537
 14175 2499 01       		.byte	0x1
 14176 249a 5E05     		.2byte	0x55e
 14177 249c B4040000 		.4byte	0x4b4
 14178 24a0 02       		.uleb128 0x2
 14179 24a1 91       		.byte	0x91
 14180 24a2 70       		.sleb128 -16
 14181 24a3 00       		.byte	0
 14182 24a4 25       		.uleb128 0x25
 14183 24a5 32000000 		.4byte	.LBB70
 14184 24a9 12000000 		.4byte	.LBE70-.LBB70
 14185 24ad 26       		.uleb128 0x26
 14186 24ae 64120000 		.4byte	.LASF537
 14187 24b2 01       		.byte	0x1
 14188 24b3 6405     		.2byte	0x564
 14189 24b5 B4040000 		.4byte	0x4b4
 14190 24b9 02       		.uleb128 0x2
 14191 24ba 91       		.byte	0x91
 14192 24bb 6C       		.sleb128 -20
 14193 24bc 00       		.byte	0
 14194 24bd 00       		.byte	0
 14195 24be 27       		.uleb128 0x27
 14196 24bf 9B060000 		.4byte	.LASF544
 14197 24c3 01       		.byte	0x1
 14198 24c4 6A05     		.2byte	0x56a
 14199 24c6 00000000 		.4byte	.LFB91
 14200 24ca 2C000000 		.4byte	.LFE91-.LFB91
 14201 24ce 01       		.uleb128 0x1
 14202 24cf 9C       		.byte	0x9c
ARM GAS  C:\Users\RECEPC~1\AppData\Local\Temp\ccvg7Xyk.s 			page 290


 14203 24d0 F3240000 		.4byte	0x24f3
 14204 24d4 28       		.uleb128 0x28
 14205 24d5 B81C0000 		.4byte	.LASF497
 14206 24d9 01       		.byte	0x1
 14207 24da 6A05     		.2byte	0x56a
 14208 24dc FB000000 		.4byte	0xfb
 14209 24e0 02       		.uleb128 0x2
 14210 24e1 91       		.byte	0x91
 14211 24e2 6C       		.sleb128 -20
 14212 24e3 26       		.uleb128 0x26
 14213 24e4 64120000 		.4byte	.LASF537
 14214 24e8 01       		.byte	0x1
 14215 24e9 6C05     		.2byte	0x56c
 14216 24eb B4040000 		.4byte	0x4b4
 14217 24ef 02       		.uleb128 0x2
 14218 24f0 91       		.byte	0x91
 14219 24f1 74       		.sleb128 -12
 14220 24f2 00       		.byte	0
 14221 24f3 27       		.uleb128 0x27
 14222 24f4 8E210000 		.4byte	.LASF545
 14223 24f8 01       		.byte	0x1
 14224 24f9 7105     		.2byte	0x571
 14225 24fb 00000000 		.4byte	.LFB92
 14226 24ff A0000000 		.4byte	.LFE92-.LFB92
 14227 2503 01       		.uleb128 0x1
 14228 2504 9C       		.byte	0x9c
 14229 2505 5E250000 		.4byte	0x255e
 14230 2509 28       		.uleb128 0x28
 14231 250a B81C0000 		.4byte	.LASF497
 14232 250e 01       		.byte	0x1
 14233 250f 7105     		.2byte	0x571
 14234 2511 FB000000 		.4byte	0xfb
 14235 2515 02       		.uleb128 0x2
 14236 2516 91       		.byte	0x91
 14237 2517 64       		.sleb128 -28
 14238 2518 26       		.uleb128 0x26
 14239 2519 520B0000 		.4byte	.LASF500
 14240 251d 01       		.byte	0x1
 14241 251e 7305     		.2byte	0x573
 14242 2520 E6100000 		.4byte	0x10e6
 14243 2524 02       		.uleb128 0x2
 14244 2525 91       		.byte	0x91
 14245 2526 74       		.sleb128 -12
 14246 2527 24       		.uleb128 0x24
 14247 2528 14000000 		.4byte	.LBB71
 14248 252c 3A000000 		.4byte	.LBE71-.LBB71
 14249 2530 44250000 		.4byte	0x2544
 14250 2534 26       		.uleb128 0x26
 14251 2535 64120000 		.4byte	.LASF537
 14252 2539 01       		.byte	0x1
 14253 253a 7605     		.2byte	0x576
 14254 253c B4040000 		.4byte	0x4b4
 14255 2540 02       		.uleb128 0x2
 14256 2541 91       		.byte	0x91
 14257 2542 70       		.sleb128 -16
 14258 2543 00       		.byte	0
 14259 2544 25       		.uleb128 0x25
ARM GAS  C:\Users\RECEPC~1\AppData\Local\Temp\ccvg7Xyk.s 			page 291


 14260 2545 5A000000 		.4byte	.LBB72
 14261 2549 3A000000 		.4byte	.LBE72-.LBB72
 14262 254d 26       		.uleb128 0x26
 14263 254e 64120000 		.4byte	.LASF537
 14264 2552 01       		.byte	0x1
 14265 2553 8605     		.2byte	0x586
 14266 2555 B4040000 		.4byte	0x4b4
 14267 2559 02       		.uleb128 0x2
 14268 255a 91       		.byte	0x91
 14269 255b 6C       		.sleb128 -20
 14270 255c 00       		.byte	0
 14271 255d 00       		.byte	0
 14272 255e 2A       		.uleb128 0x2a
 14273 255f F11B0000 		.4byte	.LASF546
 14274 2563 01       		.byte	0x1
 14275 2564 9705     		.2byte	0x597
 14276 2566 00000000 		.4byte	.LFB93
 14277 256a 4E000000 		.4byte	.LFE93-.LFB93
 14278 256e 01       		.uleb128 0x1
 14279 256f 9C       		.byte	0x9c
 14280 2570 C9250000 		.4byte	0x25c9
 14281 2574 28       		.uleb128 0x28
 14282 2575 B81C0000 		.4byte	.LASF497
 14283 2579 01       		.byte	0x1
 14284 257a 9705     		.2byte	0x597
 14285 257c FB000000 		.4byte	0xfb
 14286 2580 02       		.uleb128 0x2
 14287 2581 91       		.byte	0x91
 14288 2582 64       		.sleb128 -28
 14289 2583 26       		.uleb128 0x26
 14290 2584 520B0000 		.4byte	.LASF500
 14291 2588 01       		.byte	0x1
 14292 2589 9905     		.2byte	0x599
 14293 258b E6100000 		.4byte	0x10e6
 14294 258f 02       		.uleb128 0x2
 14295 2590 91       		.byte	0x91
 14296 2591 74       		.sleb128 -12
 14297 2592 24       		.uleb128 0x24
 14298 2593 14000000 		.4byte	.LBB73
 14299 2597 12000000 		.4byte	.LBE73-.LBB73
 14300 259b AF250000 		.4byte	0x25af
 14301 259f 26       		.uleb128 0x26
 14302 25a0 64120000 		.4byte	.LASF537
 14303 25a4 01       		.byte	0x1
 14304 25a5 9C05     		.2byte	0x59c
 14305 25a7 B4040000 		.4byte	0x4b4
 14306 25ab 02       		.uleb128 0x2
 14307 25ac 91       		.byte	0x91
 14308 25ad 70       		.sleb128 -16
 14309 25ae 00       		.byte	0
 14310 25af 25       		.uleb128 0x25
 14311 25b0 32000000 		.4byte	.LBB74
 14312 25b4 12000000 		.4byte	.LBE74-.LBB74
 14313 25b8 26       		.uleb128 0x26
 14314 25b9 64120000 		.4byte	.LASF537
 14315 25bd 01       		.byte	0x1
 14316 25be A205     		.2byte	0x5a2
ARM GAS  C:\Users\RECEPC~1\AppData\Local\Temp\ccvg7Xyk.s 			page 292


 14317 25c0 B4040000 		.4byte	0x4b4
 14318 25c4 02       		.uleb128 0x2
 14319 25c5 91       		.byte	0x91
 14320 25c6 6C       		.sleb128 -20
 14321 25c7 00       		.byte	0
 14322 25c8 00       		.byte	0
 14323 25c9 27       		.uleb128 0x27
 14324 25ca 18150000 		.4byte	.LASF547
 14325 25ce 01       		.byte	0x1
 14326 25cf A805     		.2byte	0x5a8
 14327 25d1 00000000 		.4byte	.LFB94
 14328 25d5 88070000 		.4byte	.LFE94-.LFB94
 14329 25d9 01       		.uleb128 0x1
 14330 25da 9C       		.byte	0x9c
 14331 25db BE260000 		.4byte	0x26be
 14332 25df 28       		.uleb128 0x28
 14333 25e0 B81C0000 		.4byte	.LASF497
 14334 25e4 01       		.byte	0x1
 14335 25e5 A805     		.2byte	0x5a8
 14336 25e7 FB000000 		.4byte	0xfb
 14337 25eb 02       		.uleb128 0x2
 14338 25ec 91       		.byte	0x91
 14339 25ed 44       		.sleb128 -60
 14340 25ee 26       		.uleb128 0x26
 14341 25ef B8230000 		.4byte	.LASF498
 14342 25f3 01       		.byte	0x1
 14343 25f4 AA05     		.2byte	0x5aa
 14344 25f6 E4070000 		.4byte	0x7e4
 14345 25fa 02       		.uleb128 0x2
 14346 25fb 91       		.byte	0x91
 14347 25fc 50       		.sleb128 -48
 14348 25fd 26       		.uleb128 0x26
 14349 25fe A5280000 		.4byte	.LASF499
 14350 2602 01       		.byte	0x1
 14351 2603 AB05     		.2byte	0x5ab
 14352 2605 F40D0000 		.4byte	0xdf4
 14353 2609 02       		.uleb128 0x2
 14354 260a 91       		.byte	0x91
 14355 260b 48       		.sleb128 -56
 14356 260c 26       		.uleb128 0x26
 14357 260d 520B0000 		.4byte	.LASF500
 14358 2611 01       		.byte	0x1
 14359 2612 B005     		.2byte	0x5b0
 14360 2614 E1160000 		.4byte	0x16e1
 14361 2618 02       		.uleb128 0x2
 14362 2619 91       		.byte	0x91
 14363 261a 68       		.sleb128 -24
 14364 261b 24       		.uleb128 0x24
 14365 261c 34000000 		.4byte	.LBB75
 14366 2620 A6030000 		.4byte	.LBE75-.LBB75
 14367 2624 6E260000 		.4byte	0x266e
 14368 2628 26       		.uleb128 0x26
 14369 2629 6B0C0000 		.4byte	.LASF487
 14370 262d 01       		.byte	0x1
 14371 262e B305     		.2byte	0x5b3
 14372 2630 E7160000 		.4byte	0x16e7
 14373 2634 02       		.uleb128 0x2
ARM GAS  C:\Users\RECEPC~1\AppData\Local\Temp\ccvg7Xyk.s 			page 293


 14374 2635 91       		.byte	0x91
 14375 2636 64       		.sleb128 -28
 14376 2637 24       		.uleb128 0x24
 14377 2638 44000000 		.4byte	.LBB76
 14378 263c D4010000 		.4byte	.LBE76-.LBB76
 14379 2640 54260000 		.4byte	0x2654
 14380 2644 26       		.uleb128 0x26
 14381 2645 5E120000 		.4byte	.LASF511
 14382 2649 01       		.byte	0x1
 14383 264a B605     		.2byte	0x5b6
 14384 264c 81000000 		.4byte	0x81
 14385 2650 02       		.uleb128 0x2
 14386 2651 91       		.byte	0x91
 14387 2652 6F       		.sleb128 -17
 14388 2653 00       		.byte	0
 14389 2654 25       		.uleb128 0x25
 14390 2655 28020000 		.4byte	.LBB77
 14391 2659 B2010000 		.4byte	.LBE77-.LBB77
 14392 265d 26       		.uleb128 0x26
 14393 265e 5E120000 		.4byte	.LASF511
 14394 2662 01       		.byte	0x1
 14395 2663 DD05     		.2byte	0x5dd
 14396 2665 81000000 		.4byte	0x81
 14397 2669 02       		.uleb128 0x2
 14398 266a 91       		.byte	0x91
 14399 266b 63       		.sleb128 -29
 14400 266c 00       		.byte	0
 14401 266d 00       		.byte	0
 14402 266e 25       		.uleb128 0x25
 14403 266f FA030000 		.4byte	.LBB78
 14404 2673 82030000 		.4byte	.LBE78-.LBB78
 14405 2677 26       		.uleb128 0x26
 14406 2678 6B0C0000 		.4byte	.LASF487
 14407 267c 01       		.byte	0x1
 14408 267d FA05     		.2byte	0x5fa
 14409 267f E7160000 		.4byte	0x16e7
 14410 2683 02       		.uleb128 0x2
 14411 2684 91       		.byte	0x91
 14412 2685 5C       		.sleb128 -36
 14413 2686 24       		.uleb128 0x24
 14414 2687 0A040000 		.4byte	.LBB79
 14415 268b D4010000 		.4byte	.LBE79-.LBB79
 14416 268f A3260000 		.4byte	0x26a3
 14417 2693 26       		.uleb128 0x26
 14418 2694 5E120000 		.4byte	.LASF511
 14419 2698 01       		.byte	0x1
 14420 2699 FD05     		.2byte	0x5fd
 14421 269b 81000000 		.4byte	0x81
 14422 269f 02       		.uleb128 0x2
 14423 26a0 91       		.byte	0x91
 14424 26a1 6E       		.sleb128 -18
 14425 26a2 00       		.byte	0
 14426 26a3 25       		.uleb128 0x25
 14427 26a4 EE050000 		.4byte	.LBB80
 14428 26a8 8E010000 		.4byte	.LBE80-.LBB80
 14429 26ac 26       		.uleb128 0x26
 14430 26ad 5E120000 		.4byte	.LASF511
ARM GAS  C:\Users\RECEPC~1\AppData\Local\Temp\ccvg7Xyk.s 			page 294


 14431 26b1 01       		.byte	0x1
 14432 26b2 2306     		.2byte	0x623
 14433 26b4 81000000 		.4byte	0x81
 14434 26b8 02       		.uleb128 0x2
 14435 26b9 91       		.byte	0x91
 14436 26ba 5B       		.sleb128 -37
 14437 26bb 00       		.byte	0
 14438 26bc 00       		.byte	0
 14439 26bd 00       		.byte	0
 14440 26be 27       		.uleb128 0x27
 14441 26bf D31D0000 		.4byte	.LASF548
 14442 26c3 01       		.byte	0x1
 14443 26c4 3E06     		.2byte	0x63e
 14444 26c6 00000000 		.4byte	.LFB95
 14445 26ca 380D0000 		.4byte	.LFE95-.LFB95
 14446 26ce 01       		.uleb128 0x1
 14447 26cf 9C       		.byte	0x9c
 14448 26d0 CF2A0000 		.4byte	0x2acf
 14449 26d4 28       		.uleb128 0x28
 14450 26d5 B81C0000 		.4byte	.LASF497
 14451 26d9 01       		.byte	0x1
 14452 26da 3E06     		.2byte	0x63e
 14453 26dc FB000000 		.4byte	0xfb
 14454 26e0 03       		.uleb128 0x3
 14455 26e1 91       		.byte	0x91
 14456 26e2 A47D     		.sleb128 -348
 14457 26e4 26       		.uleb128 0x26
 14458 26e5 B8230000 		.4byte	.LASF498
 14459 26e9 01       		.byte	0x1
 14460 26ea 4006     		.2byte	0x640
 14461 26ec CF2A0000 		.4byte	0x2acf
 14462 26f0 03       		.uleb128 0x3
 14463 26f1 91       		.byte	0x91
 14464 26f2 B87F     		.sleb128 -72
 14465 26f4 26       		.uleb128 0x26
 14466 26f5 A5280000 		.4byte	.LASF499
 14467 26f9 01       		.byte	0x1
 14468 26fa 4106     		.2byte	0x641
 14469 26fc F40D0000 		.4byte	0xdf4
 14470 2700 03       		.uleb128 0x3
 14471 2701 91       		.byte	0x91
 14472 2702 B07F     		.sleb128 -80
 14473 2704 26       		.uleb128 0x26
 14474 2705 64120000 		.4byte	.LASF537
 14475 2709 01       		.byte	0x1
 14476 270a 4606     		.2byte	0x646
 14477 270c B4040000 		.4byte	0x4b4
 14478 2710 02       		.uleb128 0x2
 14479 2711 91       		.byte	0x91
 14480 2712 6C       		.sleb128 -20
 14481 2713 26       		.uleb128 0x26
 14482 2714 520B0000 		.4byte	.LASF500
 14483 2718 01       		.byte	0x1
 14484 2719 4706     		.2byte	0x647
 14485 271b E6100000 		.4byte	0x10e6
 14486 271f 02       		.uleb128 0x2
 14487 2720 91       		.byte	0x91
ARM GAS  C:\Users\RECEPC~1\AppData\Local\Temp\ccvg7Xyk.s 			page 295


 14488 2721 68       		.sleb128 -24
 14489 2722 2B       		.uleb128 0x2b
 14490 2723 00000000 		.4byte	.Ldebug_ranges0+0
 14491 2727 15290000 		.4byte	0x2915
 14492 272b 26       		.uleb128 0x26
 14493 272c 6B0C0000 		.4byte	.LASF487
 14494 2730 01       		.byte	0x1
 14495 2731 4A06     		.2byte	0x64a
 14496 2733 E7160000 		.4byte	0x16e7
 14497 2737 02       		.uleb128 0x2
 14498 2738 91       		.byte	0x91
 14499 2739 64       		.sleb128 -28
 14500 273a 26       		.uleb128 0x26
 14501 273b 77100000 		.4byte	.LASF549
 14502 273f 01       		.byte	0x1
 14503 2740 5506     		.2byte	0x655
 14504 2742 DF2A0000 		.4byte	0x2adf
 14505 2746 03       		.uleb128 0x3
 14506 2747 91       		.byte	0x91
 14507 2748 AC7F     		.sleb128 -84
 14508 274a 26       		.uleb128 0x26
 14509 274b BC130000 		.4byte	.LASF550
 14510 274f 01       		.byte	0x1
 14511 2750 5906     		.2byte	0x659
 14512 2752 EF2A0000 		.4byte	0x2aef
 14513 2756 03       		.uleb128 0x3
 14514 2757 91       		.byte	0x91
 14515 2758 A87F     		.sleb128 -88
 14516 275a 24       		.uleb128 0x24
 14517 275b 12010000 		.4byte	.LBB82
 14518 275f 36000000 		.4byte	.LBE82-.LBB82
 14519 2763 78270000 		.4byte	0x2778
 14520 2767 26       		.uleb128 0x26
 14521 2768 C3190000 		.4byte	.LASF505
 14522 276c 01       		.byte	0x1
 14523 276d 6506     		.2byte	0x665
 14524 276f 50180000 		.4byte	0x1850
 14525 2773 03       		.uleb128 0x3
 14526 2774 91       		.byte	0x91
 14527 2775 9C7F     		.sleb128 -100
 14528 2777 00       		.byte	0
 14529 2778 24       		.uleb128 0x24
 14530 2779 4A010000 		.4byte	.LBB83
 14531 277d 38000000 		.4byte	.LBE83-.LBB83
 14532 2781 96270000 		.4byte	0x2796
 14533 2785 26       		.uleb128 0x26
 14534 2786 C3190000 		.4byte	.LASF505
 14535 278a 01       		.byte	0x1
 14536 278b 6C06     		.2byte	0x66c
 14537 278d 50180000 		.4byte	0x1850
 14538 2791 03       		.uleb128 0x3
 14539 2792 91       		.byte	0x91
 14540 2793 907F     		.sleb128 -112
 14541 2795 00       		.byte	0
 14542 2796 24       		.uleb128 0x24
 14543 2797 94010000 		.4byte	.LBB84
 14544 279b 36000000 		.4byte	.LBE84-.LBB84
ARM GAS  C:\Users\RECEPC~1\AppData\Local\Temp\ccvg7Xyk.s 			page 296


 14545 279f B4270000 		.4byte	0x27b4
 14546 27a3 26       		.uleb128 0x26
 14547 27a4 C3190000 		.4byte	.LASF505
 14548 27a8 01       		.byte	0x1
 14549 27a9 7906     		.2byte	0x679
 14550 27ab 50180000 		.4byte	0x1850
 14551 27af 03       		.uleb128 0x3
 14552 27b0 91       		.byte	0x91
 14553 27b1 847F     		.sleb128 -124
 14554 27b3 00       		.byte	0
 14555 27b4 24       		.uleb128 0x24
 14556 27b5 DC010000 		.4byte	.LBB85
 14557 27b9 3C000000 		.4byte	.LBE85-.LBB85
 14558 27bd D2270000 		.4byte	0x27d2
 14559 27c1 26       		.uleb128 0x26
 14560 27c2 C3190000 		.4byte	.LASF505
 14561 27c6 01       		.byte	0x1
 14562 27c7 8306     		.2byte	0x683
 14563 27c9 60180000 		.4byte	0x1860
 14564 27cd 03       		.uleb128 0x3
 14565 27ce 91       		.byte	0x91
 14566 27cf F47E     		.sleb128 -140
 14567 27d1 00       		.byte	0
 14568 27d2 24       		.uleb128 0x24
 14569 27d3 3A020000 		.4byte	.LBB86
 14570 27d7 36000000 		.4byte	.LBE86-.LBB86
 14571 27db F0270000 		.4byte	0x27f0
 14572 27df 26       		.uleb128 0x26
 14573 27e0 C3190000 		.4byte	.LASF505
 14574 27e4 01       		.byte	0x1
 14575 27e5 9206     		.2byte	0x692
 14576 27e7 50180000 		.4byte	0x1850
 14577 27eb 03       		.uleb128 0x3
 14578 27ec 91       		.byte	0x91
 14579 27ed E87E     		.sleb128 -152
 14580 27ef 00       		.byte	0
 14581 27f0 24       		.uleb128 0x24
 14582 27f1 72020000 		.4byte	.LBB87
 14583 27f5 4E000000 		.4byte	.LBE87-.LBB87
 14584 27f9 0E280000 		.4byte	0x280e
 14585 27fd 26       		.uleb128 0x26
 14586 27fe C3190000 		.4byte	.LASF505
 14587 2802 01       		.byte	0x1
 14588 2803 9906     		.2byte	0x699
 14589 2805 50180000 		.4byte	0x1850
 14590 2809 03       		.uleb128 0x3
 14591 280a 91       		.byte	0x91
 14592 280b DC7E     		.sleb128 -164
 14593 280d 00       		.byte	0
 14594 280e 24       		.uleb128 0x24
 14595 280f D2020000 		.4byte	.LBB88
 14596 2813 36000000 		.4byte	.LBE88-.LBB88
 14597 2817 2C280000 		.4byte	0x282c
 14598 281b 26       		.uleb128 0x26
 14599 281c C3190000 		.4byte	.LASF505
 14600 2820 01       		.byte	0x1
 14601 2821 A606     		.2byte	0x6a6
ARM GAS  C:\Users\RECEPC~1\AppData\Local\Temp\ccvg7Xyk.s 			page 297


 14602 2823 50180000 		.4byte	0x1850
 14603 2827 03       		.uleb128 0x3
 14604 2828 91       		.byte	0x91
 14605 2829 D07E     		.sleb128 -176
 14606 282b 00       		.byte	0
 14607 282c 24       		.uleb128 0x24
 14608 282d 1A030000 		.4byte	.LBB89
 14609 2831 3C000000 		.4byte	.LBE89-.LBB89
 14610 2835 4A280000 		.4byte	0x284a
 14611 2839 26       		.uleb128 0x26
 14612 283a C3190000 		.4byte	.LASF505
 14613 283e 01       		.byte	0x1
 14614 283f B006     		.2byte	0x6b0
 14615 2841 60180000 		.4byte	0x1860
 14616 2845 03       		.uleb128 0x3
 14617 2846 91       		.byte	0x91
 14618 2847 C07E     		.sleb128 -192
 14619 2849 00       		.byte	0
 14620 284a 24       		.uleb128 0x24
 14621 284b 76030000 		.4byte	.LBB90
 14622 284f 94000000 		.4byte	.LBE90-.LBB90
 14623 2853 85280000 		.4byte	0x2885
 14624 2857 26       		.uleb128 0x26
 14625 2858 A90E0000 		.4byte	.LASF503
 14626 285c 01       		.byte	0x1
 14627 285d BE06     		.2byte	0x6be
 14628 285f 25010000 		.4byte	0x125
 14629 2863 02       		.uleb128 0x2
 14630 2864 91       		.byte	0x91
 14631 2865 60       		.sleb128 -32
 14632 2866 26       		.uleb128 0x26
 14633 2867 520B0000 		.4byte	.LASF500
 14634 286b 01       		.byte	0x1
 14635 286c C006     		.2byte	0x6c0
 14636 286e E1160000 		.4byte	0x16e1
 14637 2872 02       		.uleb128 0x2
 14638 2873 91       		.byte	0x91
 14639 2874 5C       		.sleb128 -36
 14640 2875 26       		.uleb128 0x26
 14641 2876 6B0C0000 		.4byte	.LASF487
 14642 287a 01       		.byte	0x1
 14643 287b C106     		.2byte	0x6c1
 14644 287d E7160000 		.4byte	0x16e7
 14645 2881 02       		.uleb128 0x2
 14646 2882 91       		.byte	0x91
 14647 2883 58       		.sleb128 -40
 14648 2884 00       		.byte	0
 14649 2885 24       		.uleb128 0x24
 14650 2886 50040000 		.4byte	.LBB91
 14651 288a 4C000000 		.4byte	.LBE91-.LBB91
 14652 288e A2280000 		.4byte	0x28a2
 14653 2892 26       		.uleb128 0x26
 14654 2893 CB060000 		.4byte	.LASF551
 14655 2897 01       		.byte	0x1
 14656 2898 D306     		.2byte	0x6d3
 14657 289a C8050000 		.4byte	0x5c8
 14658 289e 02       		.uleb128 0x2
ARM GAS  C:\Users\RECEPC~1\AppData\Local\Temp\ccvg7Xyk.s 			page 298


 14659 289f 91       		.byte	0x91
 14660 28a0 54       		.sleb128 -44
 14661 28a1 00       		.byte	0
 14662 28a2 24       		.uleb128 0x24
 14663 28a3 AE040000 		.4byte	.LBB92
 14664 28a7 4A000000 		.4byte	.LBE92-.LBB92
 14665 28ab C0280000 		.4byte	0x28c0
 14666 28af 26       		.uleb128 0x26
 14667 28b0 CB060000 		.4byte	.LASF551
 14668 28b4 01       		.byte	0x1
 14669 28b5 DD06     		.2byte	0x6dd
 14670 28b7 FF2A0000 		.4byte	0x2aff
 14671 28bb 03       		.uleb128 0x3
 14672 28bc 91       		.byte	0x91
 14673 28bd A87D     		.sleb128 -344
 14674 28bf 00       		.byte	0
 14675 28c0 24       		.uleb128 0x24
 14676 28c1 22050000 		.4byte	.LBB93
 14677 28c5 5E000000 		.4byte	.LBE93-.LBB93
 14678 28c9 DD280000 		.4byte	0x28dd
 14679 28cd 26       		.uleb128 0x26
 14680 28ce CB060000 		.4byte	.LASF551
 14681 28d2 01       		.byte	0x1
 14682 28d3 EC06     		.2byte	0x6ec
 14683 28d5 C8050000 		.4byte	0x5c8
 14684 28d9 02       		.uleb128 0x2
 14685 28da 91       		.byte	0x91
 14686 28db 50       		.sleb128 -48
 14687 28dc 00       		.byte	0
 14688 28dd 24       		.uleb128 0x24
 14689 28de 82050000 		.4byte	.LBB94
 14690 28e2 5E000000 		.4byte	.LBE94-.LBB94
 14691 28e6 FA280000 		.4byte	0x28fa
 14692 28ea 26       		.uleb128 0x26
 14693 28eb CB060000 		.4byte	.LASF551
 14694 28ef 01       		.byte	0x1
 14695 28f0 F206     		.2byte	0x6f2
 14696 28f2 C8050000 		.4byte	0x5c8
 14697 28f6 02       		.uleb128 0x2
 14698 28f7 91       		.byte	0x91
 14699 28f8 4C       		.sleb128 -52
 14700 28f9 00       		.byte	0
 14701 28fa 25       		.uleb128 0x25
 14702 28fb 34060000 		.4byte	.LBB95
 14703 28ff 94000000 		.4byte	.LBE95-.LBB95
 14704 2903 26       		.uleb128 0x26
 14705 2904 B4290000 		.4byte	.LASF552
 14706 2908 01       		.byte	0x1
 14707 2909 FE06     		.2byte	0x6fe
 14708 290b 0F2B0000 		.4byte	0x2b0f
 14709 290f 03       		.uleb128 0x3
 14710 2910 91       		.byte	0x91
 14711 2911 A87D     		.sleb128 -344
 14712 2913 00       		.byte	0
 14713 2914 00       		.byte	0
 14714 2915 25       		.uleb128 0x25
 14715 2916 EC060000 		.4byte	.LBB97
ARM GAS  C:\Users\RECEPC~1\AppData\Local\Temp\ccvg7Xyk.s 			page 299


 14716 291a 3C060000 		.4byte	.LBE97-.LBB97
 14717 291e 26       		.uleb128 0x26
 14718 291f 6B0C0000 		.4byte	.LASF487
 14719 2923 01       		.byte	0x1
 14720 2924 0F07     		.2byte	0x70f
 14721 2926 E7160000 		.4byte	0x16e7
 14722 292a 02       		.uleb128 0x2
 14723 292b 91       		.byte	0x91
 14724 292c 48       		.sleb128 -56
 14725 292d 26       		.uleb128 0x26
 14726 292e 77100000 		.4byte	.LASF549
 14727 2932 01       		.byte	0x1
 14728 2933 1A07     		.2byte	0x71a
 14729 2935 DF2A0000 		.4byte	0x2adf
 14730 2939 03       		.uleb128 0x3
 14731 293a 91       		.byte	0x91
 14732 293b BC7E     		.sleb128 -196
 14733 293d 26       		.uleb128 0x26
 14734 293e BC130000 		.4byte	.LASF550
 14735 2942 01       		.byte	0x1
 14736 2943 1E07     		.2byte	0x71e
 14737 2945 EF2A0000 		.4byte	0x2aef
 14738 2949 03       		.uleb128 0x3
 14739 294a 91       		.byte	0x91
 14740 294b B87E     		.sleb128 -200
 14741 294d 24       		.uleb128 0x24
 14742 294e AC070000 		.4byte	.LBB98
 14743 2952 36000000 		.4byte	.LBE98-.LBB98
 14744 2956 6B290000 		.4byte	0x296b
 14745 295a 26       		.uleb128 0x26
 14746 295b C3190000 		.4byte	.LASF505
 14747 295f 01       		.byte	0x1
 14748 2960 2A07     		.2byte	0x72a
 14749 2962 50180000 		.4byte	0x1850
 14750 2966 03       		.uleb128 0x3
 14751 2967 91       		.byte	0x91
 14752 2968 AC7E     		.sleb128 -212
 14753 296a 00       		.byte	0
 14754 296b 24       		.uleb128 0x24
 14755 296c E4070000 		.4byte	.LBB99
 14756 2970 38000000 		.4byte	.LBE99-.LBB99
 14757 2974 89290000 		.4byte	0x2989
 14758 2978 26       		.uleb128 0x26
 14759 2979 C3190000 		.4byte	.LASF505
 14760 297d 01       		.byte	0x1
 14761 297e 3207     		.2byte	0x732
 14762 2980 50180000 		.4byte	0x1850
 14763 2984 03       		.uleb128 0x3
 14764 2985 91       		.byte	0x91
 14765 2986 A07E     		.sleb128 -224
 14766 2988 00       		.byte	0
 14767 2989 24       		.uleb128 0x24
 14768 298a 2E080000 		.4byte	.LBB100
 14769 298e 36000000 		.4byte	.LBE100-.LBB100
 14770 2992 A7290000 		.4byte	0x29a7
 14771 2996 26       		.uleb128 0x26
 14772 2997 C3190000 		.4byte	.LASF505
ARM GAS  C:\Users\RECEPC~1\AppData\Local\Temp\ccvg7Xyk.s 			page 300


 14773 299b 01       		.byte	0x1
 14774 299c 3F07     		.2byte	0x73f
 14775 299e 50180000 		.4byte	0x1850
 14776 29a2 03       		.uleb128 0x3
 14777 29a3 91       		.byte	0x91
 14778 29a4 947E     		.sleb128 -236
 14779 29a6 00       		.byte	0
 14780 29a7 24       		.uleb128 0x24
 14781 29a8 76080000 		.4byte	.LBB101
 14782 29ac 3C000000 		.4byte	.LBE101-.LBB101
 14783 29b0 C5290000 		.4byte	0x29c5
 14784 29b4 26       		.uleb128 0x26
 14785 29b5 C3190000 		.4byte	.LASF505
 14786 29b9 01       		.byte	0x1
 14787 29ba 4907     		.2byte	0x749
 14788 29bc 60180000 		.4byte	0x1860
 14789 29c0 03       		.uleb128 0x3
 14790 29c1 91       		.byte	0x91
 14791 29c2 847E     		.sleb128 -252
 14792 29c4 00       		.byte	0
 14793 29c5 24       		.uleb128 0x24
 14794 29c6 D4080000 		.4byte	.LBB102
 14795 29ca 36000000 		.4byte	.LBE102-.LBB102
 14796 29ce E3290000 		.4byte	0x29e3
 14797 29d2 26       		.uleb128 0x26
 14798 29d3 C3190000 		.4byte	.LASF505
 14799 29d7 01       		.byte	0x1
 14800 29d8 5807     		.2byte	0x758
 14801 29da 50180000 		.4byte	0x1850
 14802 29de 03       		.uleb128 0x3
 14803 29df 91       		.byte	0x91
 14804 29e0 F87D     		.sleb128 -264
 14805 29e2 00       		.byte	0
 14806 29e3 24       		.uleb128 0x24
 14807 29e4 0C090000 		.4byte	.LBB103
 14808 29e8 5C000000 		.4byte	.LBE103-.LBB103
 14809 29ec 012A0000 		.4byte	0x2a01
 14810 29f0 26       		.uleb128 0x26
 14811 29f1 C3190000 		.4byte	.LASF505
 14812 29f5 01       		.byte	0x1
 14813 29f6 6007     		.2byte	0x760
 14814 29f8 50180000 		.4byte	0x1850
 14815 29fc 03       		.uleb128 0x3
 14816 29fd 91       		.byte	0x91
 14817 29fe EC7D     		.sleb128 -276
 14818 2a00 00       		.byte	0
 14819 2a01 24       		.uleb128 0x24
 14820 2a02 7A090000 		.4byte	.LBB104
 14821 2a06 34000000 		.4byte	.LBE104-.LBB104
 14822 2a0a 1F2A0000 		.4byte	0x2a1f
 14823 2a0e 26       		.uleb128 0x26
 14824 2a0f C3190000 		.4byte	.LASF505
 14825 2a13 01       		.byte	0x1
 14826 2a14 6D07     		.2byte	0x76d
 14827 2a16 50180000 		.4byte	0x1850
 14828 2a1a 03       		.uleb128 0x3
 14829 2a1b 91       		.byte	0x91
ARM GAS  C:\Users\RECEPC~1\AppData\Local\Temp\ccvg7Xyk.s 			page 301


 14830 2a1c E07D     		.sleb128 -288
 14831 2a1e 00       		.byte	0
 14832 2a1f 24       		.uleb128 0x24
 14833 2a20 C0090000 		.4byte	.LBB105
 14834 2a24 3C000000 		.4byte	.LBE105-.LBB105
 14835 2a28 3D2A0000 		.4byte	0x2a3d
 14836 2a2c 26       		.uleb128 0x26
 14837 2a2d C3190000 		.4byte	.LASF505
 14838 2a31 01       		.byte	0x1
 14839 2a32 7707     		.2byte	0x777
 14840 2a34 60180000 		.4byte	0x1860
 14841 2a38 03       		.uleb128 0x3
 14842 2a39 91       		.byte	0x91
 14843 2a3a D07D     		.sleb128 -304
 14844 2a3c 00       		.byte	0
 14845 2a3d 24       		.uleb128 0x24
 14846 2a3e 8C0A0000 		.4byte	.LBB106
 14847 2a42 4C000000 		.4byte	.LBE106-.LBB106
 14848 2a46 5A2A0000 		.4byte	0x2a5a
 14849 2a4a 26       		.uleb128 0x26
 14850 2a4b CB060000 		.4byte	.LASF551
 14851 2a4f 01       		.byte	0x1
 14852 2a50 9007     		.2byte	0x790
 14853 2a52 C8050000 		.4byte	0x5c8
 14854 2a56 02       		.uleb128 0x2
 14855 2a57 91       		.byte	0x91
 14856 2a58 44       		.sleb128 -60
 14857 2a59 00       		.byte	0
 14858 2a5a 24       		.uleb128 0x24
 14859 2a5b EA0A0000 		.4byte	.LBB107
 14860 2a5f 4A000000 		.4byte	.LBE107-.LBB107
 14861 2a63 782A0000 		.4byte	0x2a78
 14862 2a67 26       		.uleb128 0x26
 14863 2a68 CB060000 		.4byte	.LASF551
 14864 2a6c 01       		.byte	0x1
 14865 2a6d 9A07     		.2byte	0x79a
 14866 2a6f FF2A0000 		.4byte	0x2aff
 14867 2a73 03       		.uleb128 0x3
 14868 2a74 91       		.byte	0x91
 14869 2a75 A87D     		.sleb128 -344
 14870 2a77 00       		.byte	0
 14871 2a78 24       		.uleb128 0x24
 14872 2a79 5C0B0000 		.4byte	.LBB108
 14873 2a7d 5E000000 		.4byte	.LBE108-.LBB108
 14874 2a81 952A0000 		.4byte	0x2a95
 14875 2a85 26       		.uleb128 0x26
 14876 2a86 CB060000 		.4byte	.LASF551
 14877 2a8a 01       		.byte	0x1
 14878 2a8b A907     		.2byte	0x7a9
 14879 2a8d C8050000 		.4byte	0x5c8
 14880 2a91 02       		.uleb128 0x2
 14881 2a92 91       		.byte	0x91
 14882 2a93 40       		.sleb128 -64
 14883 2a94 00       		.byte	0
 14884 2a95 24       		.uleb128 0x24
 14885 2a96 BC0B0000 		.4byte	.LBB109
 14886 2a9a 5E000000 		.4byte	.LBE109-.LBB109
ARM GAS  C:\Users\RECEPC~1\AppData\Local\Temp\ccvg7Xyk.s 			page 302


 14887 2a9e B32A0000 		.4byte	0x2ab3
 14888 2aa2 26       		.uleb128 0x26
 14889 2aa3 CB060000 		.4byte	.LASF551
 14890 2aa7 01       		.byte	0x1
 14891 2aa8 AF07     		.2byte	0x7af
 14892 2aaa C8050000 		.4byte	0x5c8
 14893 2aae 03       		.uleb128 0x3
 14894 2aaf 91       		.byte	0x91
 14895 2ab0 BC7F     		.sleb128 -68
 14896 2ab2 00       		.byte	0
 14897 2ab3 25       		.uleb128 0x25
 14898 2ab4 440C0000 		.4byte	.LBB110
 14899 2ab8 DE000000 		.4byte	.LBE110-.LBB110
 14900 2abc 26       		.uleb128 0x26
 14901 2abd B4290000 		.4byte	.LASF552
 14902 2ac1 01       		.byte	0x1
 14903 2ac2 BB07     		.2byte	0x7bb
 14904 2ac4 0F2B0000 		.4byte	0x2b0f
 14905 2ac8 03       		.uleb128 0x3
 14906 2ac9 91       		.byte	0x91
 14907 2aca A87D     		.sleb128 -344
 14908 2acc 00       		.byte	0
 14909 2acd 00       		.byte	0
 14910 2ace 00       		.byte	0
 14911 2acf 0A       		.uleb128 0xa
 14912 2ad0 CB000000 		.4byte	0xcb
 14913 2ad4 DF2A0000 		.4byte	0x2adf
 14914 2ad8 0B       		.uleb128 0xb
 14915 2ad9 F4000000 		.4byte	0xf4
 14916 2add 01       		.byte	0x1
 14917 2ade 00       		.byte	0
 14918 2adf 0A       		.uleb128 0xa
 14919 2ae0 81000000 		.4byte	0x81
 14920 2ae4 EF2A0000 		.4byte	0x2aef
 14921 2ae8 0B       		.uleb128 0xb
 14922 2ae9 F4000000 		.4byte	0xf4
 14923 2aed 01       		.byte	0x1
 14924 2aee 00       		.byte	0
 14925 2aef 0A       		.uleb128 0xa
 14926 2af0 AD020000 		.4byte	0x2ad
 14927 2af4 FF2A0000 		.4byte	0x2aff
 14928 2af8 0B       		.uleb128 0xb
 14929 2af9 F4000000 		.4byte	0xf4
 14930 2afd 01       		.byte	0x1
 14931 2afe 00       		.byte	0
 14932 2aff 0A       		.uleb128 0xa
 14933 2b00 81000000 		.4byte	0x81
 14934 2b04 0F2B0000 		.4byte	0x2b0f
 14935 2b08 0B       		.uleb128 0xb
 14936 2b09 F4000000 		.4byte	0xf4
 14937 2b0d 1F       		.byte	0x1f
 14938 2b0e 00       		.byte	0
 14939 2b0f 0A       		.uleb128 0xa
 14940 2b10 CB000000 		.4byte	0xcb
 14941 2b14 1F2B0000 		.4byte	0x2b1f
 14942 2b18 0B       		.uleb128 0xb
 14943 2b19 F4000000 		.4byte	0xf4
ARM GAS  C:\Users\RECEPC~1\AppData\Local\Temp\ccvg7Xyk.s 			page 303


 14944 2b1d 27       		.byte	0x27
 14945 2b1e 00       		.byte	0
 14946 2b1f 27       		.uleb128 0x27
 14947 2b20 69000000 		.4byte	.LASF553
 14948 2b24 01       		.byte	0x1
 14949 2b25 CC07     		.2byte	0x7cc
 14950 2b27 00000000 		.4byte	.LFB96
 14951 2b2b A0000000 		.4byte	.LFE96-.LFB96
 14952 2b2f 01       		.uleb128 0x1
 14953 2b30 9C       		.byte	0x9c
 14954 2b31 952B0000 		.4byte	0x2b95
 14955 2b35 28       		.uleb128 0x28
 14956 2b36 B81C0000 		.4byte	.LASF497
 14957 2b3a 01       		.byte	0x1
 14958 2b3b CC07     		.2byte	0x7cc
 14959 2b3d FB000000 		.4byte	0xfb
 14960 2b41 02       		.uleb128 0x2
 14961 2b42 91       		.byte	0x91
 14962 2b43 64       		.sleb128 -28
 14963 2b44 26       		.uleb128 0x26
 14964 2b45 520B0000 		.4byte	.LASF500
 14965 2b49 01       		.byte	0x1
 14966 2b4a CE07     		.2byte	0x7ce
 14967 2b4c E6100000 		.4byte	0x10e6
 14968 2b50 02       		.uleb128 0x2
 14969 2b51 91       		.byte	0x91
 14970 2b52 74       		.sleb128 -12
 14971 2b53 26       		.uleb128 0x26
 14972 2b54 96050000 		.4byte	.LASF510
 14973 2b58 01       		.byte	0x1
 14974 2b59 D207     		.2byte	0x7d2
 14975 2b5b 860A0000 		.4byte	0xa86
 14976 2b5f 02       		.uleb128 0x2
 14977 2b60 91       		.byte	0x91
 14978 2b61 70       		.sleb128 -16
 14979 2b62 25       		.uleb128 0x25
 14980 2b63 2A000000 		.4byte	.LBB111
 14981 2b67 6C000000 		.4byte	.LBE111-.LBB111
 14982 2b6b 29       		.uleb128 0x29
 14983 2b6c 70747300 		.ascii	"pts\000"
 14984 2b70 01       		.byte	0x1
 14985 2b71 D607     		.2byte	0x7d6
 14986 2b73 B1060000 		.4byte	0x6b1
 14987 2b77 02       		.uleb128 0x2
 14988 2b78 91       		.byte	0x91
 14989 2b79 6C       		.sleb128 -20
 14990 2b7a 25       		.uleb128 0x25
 14991 2b7b 50000000 		.4byte	.LBB112
 14992 2b7f 46000000 		.4byte	.LBE112-.LBB112
 14993 2b83 26       		.uleb128 0x26
 14994 2b84 5E120000 		.4byte	.LASF511
 14995 2b88 01       		.byte	0x1
 14996 2b89 DA07     		.2byte	0x7da
 14997 2b8b 81000000 		.4byte	0x81
 14998 2b8f 02       		.uleb128 0x2
 14999 2b90 91       		.byte	0x91
 15000 2b91 6B       		.sleb128 -21
ARM GAS  C:\Users\RECEPC~1\AppData\Local\Temp\ccvg7Xyk.s 			page 304


 15001 2b92 00       		.byte	0
 15002 2b93 00       		.byte	0
 15003 2b94 00       		.byte	0
 15004 2b95 27       		.uleb128 0x27
 15005 2b96 86250000 		.4byte	.LASF554
 15006 2b9a 01       		.byte	0x1
 15007 2b9b E607     		.2byte	0x7e6
 15008 2b9d 00000000 		.4byte	.LFB97
 15009 2ba1 5C000000 		.4byte	.LFE97-.LFB97
 15010 2ba5 01       		.uleb128 0x1
 15011 2ba6 9C       		.byte	0x9c
 15012 2ba7 CA2B0000 		.4byte	0x2bca
 15013 2bab 28       		.uleb128 0x28
 15014 2bac B81C0000 		.4byte	.LASF497
 15015 2bb0 01       		.byte	0x1
 15016 2bb1 E607     		.2byte	0x7e6
 15017 2bb3 FB000000 		.4byte	0xfb
 15018 2bb7 02       		.uleb128 0x2
 15019 2bb8 91       		.byte	0x91
 15020 2bb9 6C       		.sleb128 -20
 15021 2bba 26       		.uleb128 0x26
 15022 2bbb 520B0000 		.4byte	.LASF500
 15023 2bbf 01       		.byte	0x1
 15024 2bc0 E807     		.2byte	0x7e8
 15025 2bc2 E6100000 		.4byte	0x10e6
 15026 2bc6 02       		.uleb128 0x2
 15027 2bc7 91       		.byte	0x91
 15028 2bc8 74       		.sleb128 -12
 15029 2bc9 00       		.byte	0
 15030 2bca 27       		.uleb128 0x27
 15031 2bcb 78050000 		.4byte	.LASF555
 15032 2bcf 01       		.byte	0x1
 15033 2bd0 FD07     		.2byte	0x7fd
 15034 2bd2 00000000 		.4byte	.LFB98
 15035 2bd6 70000000 		.4byte	.LFE98-.LFB98
 15036 2bda 01       		.uleb128 0x1
 15037 2bdb 9C       		.byte	0x9c
 15038 2bdc FF2B0000 		.4byte	0x2bff
 15039 2be0 28       		.uleb128 0x28
 15040 2be1 B81C0000 		.4byte	.LASF497
 15041 2be5 01       		.byte	0x1
 15042 2be6 FD07     		.2byte	0x7fd
 15043 2be8 FB000000 		.4byte	0xfb
 15044 2bec 02       		.uleb128 0x2
 15045 2bed 91       		.byte	0x91
 15046 2bee 6C       		.sleb128 -20
 15047 2bef 26       		.uleb128 0x26
 15048 2bf0 520B0000 		.4byte	.LASF500
 15049 2bf4 01       		.byte	0x1
 15050 2bf5 FF07     		.2byte	0x7ff
 15051 2bf7 E6100000 		.4byte	0x10e6
 15052 2bfb 02       		.uleb128 0x2
 15053 2bfc 91       		.byte	0x91
 15054 2bfd 74       		.sleb128 -12
 15055 2bfe 00       		.byte	0
 15056 2bff 2C       		.uleb128 0x2c
 15057 2c00 ED260000 		.4byte	.LASF581
ARM GAS  C:\Users\RECEPC~1\AppData\Local\Temp\ccvg7Xyk.s 			page 305


 15058 2c04 01       		.byte	0x1
 15059 2c05 1A08     		.2byte	0x81a
 15060 2c07 AD020000 		.4byte	0x2ad
 15061 2c0b 00000000 		.4byte	.LFB99
 15062 2c0f 74010000 		.4byte	.LFE99-.LFB99
 15063 2c13 01       		.uleb128 0x1
 15064 2c14 9C       		.byte	0x9c
 15065 2c15 9B2C0000 		.4byte	0x2c9b
 15066 2c19 28       		.uleb128 0x28
 15067 2c1a B81C0000 		.4byte	.LASF497
 15068 2c1e 01       		.byte	0x1
 15069 2c1f 1A08     		.2byte	0x81a
 15070 2c21 1A010000 		.4byte	0x11a
 15071 2c25 02       		.uleb128 0x2
 15072 2c26 91       		.byte	0x91
 15073 2c27 64       		.sleb128 -28
 15074 2c28 26       		.uleb128 0x26
 15075 2c29 22160000 		.4byte	.LASF556
 15076 2c2d 01       		.byte	0x1
 15077 2c2e 1C08     		.2byte	0x81c
 15078 2c30 AD020000 		.4byte	0x2ad
 15079 2c34 02       		.uleb128 0x2
 15080 2c35 91       		.byte	0x91
 15081 2c36 77       		.sleb128 -9
 15082 2c37 26       		.uleb128 0x26
 15083 2c38 520B0000 		.4byte	.LASF500
 15084 2c3c 01       		.byte	0x1
 15085 2c3d 1D08     		.2byte	0x81d
 15086 2c3f E6100000 		.4byte	0x10e6
 15087 2c43 02       		.uleb128 0x2
 15088 2c44 91       		.byte	0x91
 15089 2c45 70       		.sleb128 -16
 15090 2c46 26       		.uleb128 0x26
 15091 2c47 64120000 		.4byte	.LASF537
 15092 2c4b 01       		.byte	0x1
 15093 2c4c 1E08     		.2byte	0x81e
 15094 2c4e B4040000 		.4byte	0x4b4
 15095 2c52 02       		.uleb128 0x2
 15096 2c53 91       		.byte	0x91
 15097 2c54 6C       		.sleb128 -20
 15098 2c55 26       		.uleb128 0x26
 15099 2c56 B2100000 		.4byte	.LASF525
 15100 2c5a 01       		.byte	0x1
 15101 2c5b 2008     		.2byte	0x820
 15102 2c5d 81000000 		.4byte	0x81
 15103 2c61 02       		.uleb128 0x2
 15104 2c62 91       		.byte	0x91
 15105 2c63 6B       		.sleb128 -21
 15106 2c64 24       		.uleb128 0x24
 15107 2c65 62000000 		.4byte	.LBB113
 15108 2c69 66000000 		.4byte	.LBE113-.LBB113
 15109 2c6d 812C0000 		.4byte	0x2c81
 15110 2c71 26       		.uleb128 0x26
 15111 2c72 0D140000 		.4byte	.LASF557
 15112 2c76 01       		.byte	0x1
 15113 2c77 3108     		.2byte	0x831
 15114 2c79 81000000 		.4byte	0x81
ARM GAS  C:\Users\RECEPC~1\AppData\Local\Temp\ccvg7Xyk.s 			page 306


 15115 2c7d 02       		.uleb128 0x2
 15116 2c7e 91       		.byte	0x91
 15117 2c7f 6A       		.sleb128 -22
 15118 2c80 00       		.byte	0
 15119 2c81 25       		.uleb128 0x25
 15120 2c82 E6000000 		.4byte	.LBB114
 15121 2c86 7C000000 		.4byte	.LBE114-.LBB114
 15122 2c8a 26       		.uleb128 0x26
 15123 2c8b 0D140000 		.4byte	.LASF557
 15124 2c8f 01       		.byte	0x1
 15125 2c90 4308     		.2byte	0x843
 15126 2c92 81000000 		.4byte	0x81
 15127 2c96 02       		.uleb128 0x2
 15128 2c97 91       		.byte	0x91
 15129 2c98 69       		.sleb128 -23
 15130 2c99 00       		.byte	0
 15131 2c9a 00       		.byte	0
 15132 2c9b 2A       		.uleb128 0x2a
 15133 2c9c 76130000 		.4byte	.LASF558
 15134 2ca0 01       		.byte	0x1
 15135 2ca1 5308     		.2byte	0x853
 15136 2ca3 00000000 		.4byte	.LFB100
 15137 2ca7 64010000 		.4byte	.LFE100-.LFB100
 15138 2cab 01       		.uleb128 0x1
 15139 2cac 9C       		.byte	0x9c
 15140 2cad 0C2D0000 		.4byte	0x2d0c
 15141 2cb1 28       		.uleb128 0x28
 15142 2cb2 170F0000 		.4byte	.LASF486
 15143 2cb6 01       		.byte	0x1
 15144 2cb7 5308     		.2byte	0x853
 15145 2cb9 25010000 		.4byte	0x125
 15146 2cbd 02       		.uleb128 0x2
 15147 2cbe 91       		.byte	0x91
 15148 2cbf 6C       		.sleb128 -20
 15149 2cc0 28       		.uleb128 0x28
 15150 2cc1 B11A0000 		.4byte	.LASF559
 15151 2cc5 01       		.byte	0x1
 15152 2cc6 5308     		.2byte	0x853
 15153 2cc8 81000000 		.4byte	0x81
 15154 2ccc 02       		.uleb128 0x2
 15155 2ccd 91       		.byte	0x91
 15156 2cce 6B       		.sleb128 -21
 15157 2ccf 26       		.uleb128 0x26
 15158 2cd0 BC1A0000 		.4byte	.LASF560
 15159 2cd4 01       		.byte	0x1
 15160 2cd5 5508     		.2byte	0x855
 15161 2cd7 81000000 		.4byte	0x81
 15162 2cdb 02       		.uleb128 0x2
 15163 2cdc 91       		.byte	0x91
 15164 2cdd 77       		.sleb128 -9
 15165 2cde 26       		.uleb128 0x26
 15166 2cdf 84100000 		.4byte	.LASF561
 15167 2ce3 01       		.byte	0x1
 15168 2ce4 5608     		.2byte	0x856
 15169 2ce6 AD020000 		.4byte	0x2ad
 15170 2cea 02       		.uleb128 0x2
 15171 2ceb 91       		.byte	0x91
ARM GAS  C:\Users\RECEPC~1\AppData\Local\Temp\ccvg7Xyk.s 			page 307


 15172 2cec 76       		.sleb128 -10
 15173 2ced 26       		.uleb128 0x26
 15174 2cee 5E120000 		.4byte	.LASF511
 15175 2cf2 01       		.byte	0x1
 15176 2cf3 5808     		.2byte	0x858
 15177 2cf5 A5000000 		.4byte	0xa5
 15178 2cf9 02       		.uleb128 0x2
 15179 2cfa 91       		.byte	0x91
 15180 2cfb 75       		.sleb128 -11
 15181 2cfc 26       		.uleb128 0x26
 15182 2cfd 8C130000 		.4byte	.LASF562
 15183 2d01 01       		.byte	0x1
 15184 2d02 6808     		.2byte	0x868
 15185 2d04 A5000000 		.4byte	0xa5
 15186 2d08 02       		.uleb128 0x2
 15187 2d09 91       		.byte	0x91
 15188 2d0a 74       		.sleb128 -12
 15189 2d0b 00       		.byte	0
 15190 2d0c 2D       		.uleb128 0x2d
 15191 2d0d 9C190000 		.4byte	.LASF563
 15192 2d11 0F       		.byte	0xf
 15193 2d12 5506     		.2byte	0x655
 15194 2d14 182D0000 		.4byte	0x2d18
 15195 2d18 06       		.uleb128 0x6
 15196 2d19 76000000 		.4byte	0x76
 15197 2d1d 2E       		.uleb128 0x2e
 15198 2d1e 6E160000 		.4byte	.LASF564
 15199 2d22 10       		.byte	0x10
 15200 2d23 4D       		.byte	0x4d
 15201 2d24 8D000000 		.4byte	0x8d
 15202 2d28 0A       		.uleb128 0xa
 15203 2d29 7A0A0000 		.4byte	0xa7a
 15204 2d2d 382D0000 		.4byte	0x2d38
 15205 2d31 0B       		.uleb128 0xb
 15206 2d32 F4000000 		.4byte	0xf4
 15207 2d36 03       		.byte	0x3
 15208 2d37 00       		.byte	0
 15209 2d38 2D       		.uleb128 0x2d
 15210 2d39 55120000 		.4byte	.LASF565
 15211 2d3d 09       		.byte	0x9
 15212 2d3e 6802     		.2byte	0x268
 15213 2d40 282D0000 		.4byte	0x2d28
 15214 2d44 2D       		.uleb128 0x2d
 15215 2d45 6B2A0000 		.4byte	.LASF566
 15216 2d49 09       		.byte	0x9
 15217 2d4a 6A02     		.2byte	0x26a
 15218 2d4c 820B0000 		.4byte	0xb82
 15219 2d50 0A       		.uleb128 0xa
 15220 2d51 46110000 		.4byte	0x1146
 15221 2d55 602D0000 		.4byte	0x2d60
 15222 2d59 0B       		.uleb128 0xb
 15223 2d5a F4000000 		.4byte	0xf4
 15224 2d5e 01       		.byte	0x1
 15225 2d5f 00       		.byte	0
 15226 2d60 2F       		.uleb128 0x2f
 15227 2d61 A5030000 		.4byte	.LASF567
 15228 2d65 01       		.byte	0x1
ARM GAS  C:\Users\RECEPC~1\AppData\Local\Temp\ccvg7Xyk.s 			page 308


 15229 2d66 30       		.byte	0x30
 15230 2d67 502D0000 		.4byte	0x2d50
 15231 2d6b 05       		.uleb128 0x5
 15232 2d6c 03       		.byte	0x3
 15233 2d6d 00000000 		.4byte	_g_homeanimarray
 15234 2d71 0A       		.uleb128 0xa
 15235 2d72 7E0F0000 		.4byte	0xf7e
 15236 2d76 7C2D0000 		.4byte	0x2d7c
 15237 2d7a 30       		.uleb128 0x30
 15238 2d7b 00       		.byte	0
 15239 2d7c 2D       		.uleb128 0x2d
 15240 2d7d 30220000 		.4byte	.LASF568
 15241 2d81 0A       		.byte	0xa
 15242 2d82 1601     		.2byte	0x116
 15243 2d84 712D0000 		.4byte	0x2d71
 15244 2d88 2D       		.uleb128 0x2d
 15245 2d89 6F1D0000 		.4byte	.LASF569
 15246 2d8d 0A       		.byte	0xa
 15247 2d8e 1701     		.2byte	0x117
 15248 2d90 712D0000 		.4byte	0x2d71
 15249 2d94 2F       		.uleb128 0x2f
 15250 2d95 BC1B0000 		.4byte	.LASF570
 15251 2d99 01       		.byte	0x1
 15252 2d9a 23       		.byte	0x23
 15253 2d9b DA100000 		.4byte	0x10da
 15254 2d9f 05       		.uleb128 0x5
 15255 2da0 03       		.byte	0x3
 15256 2da1 00000000 		.4byte	_g_display1
 15257 2da5 2F       		.uleb128 0x2f
 15258 2da6 C81B0000 		.4byte	.LASF571
 15259 2daa 01       		.byte	0x1
 15260 2dab 25       		.byte	0x25
 15261 2dac DA100000 		.4byte	0x10da
 15262 2db0 05       		.uleb128 0x5
 15263 2db1 03       		.byte	0x3
 15264 2db2 00000000 		.4byte	_g_display2
 15265 2db6 2E       		.uleb128 0x2e
 15266 2db7 38240000 		.4byte	.LASF572
 15267 2dbb 0B       		.byte	0xb
 15268 2dbc C2       		.byte	0xc2
 15269 2dbd 07130000 		.4byte	0x1307
 15270 2dc1 2E       		.uleb128 0x2e
 15271 2dc2 A4210000 		.4byte	.LASF573
 15272 2dc6 0C       		.byte	0xc
 15273 2dc7 74       		.byte	0x74
 15274 2dc8 33130000 		.4byte	0x1333
 15275 2dcc 0A       		.uleb128 0xa
 15276 2dcd 81000000 		.4byte	0x81
 15277 2dd1 DC2D0000 		.4byte	0x2ddc
 15278 2dd5 0B       		.uleb128 0xb
 15279 2dd6 F4000000 		.4byte	0xf4
 15280 2dda 02       		.byte	0x2
 15281 2ddb 00       		.byte	0
 15282 2ddc 2F       		.uleb128 0x2f
 15283 2ddd 170C0000 		.4byte	.LASF574
 15284 2de1 01       		.byte	0x1
 15285 2de2 1F       		.byte	0x1f
ARM GAS  C:\Users\RECEPC~1\AppData\Local\Temp\ccvg7Xyk.s 			page 309


 15286 2de3 CC2D0000 		.4byte	0x2dcc
 15287 2de7 05       		.uleb128 0x5
 15288 2de8 03       		.byte	0x3
 15289 2de9 00000000 		.4byte	_g_dispvalcodes
 15290 2ded 2F       		.uleb128 0x2f
 15291 2dee 27120000 		.4byte	.LASF575
 15292 2df2 01       		.byte	0x1
 15293 2df3 21       		.byte	0x21
 15294 2df4 EF2A0000 		.4byte	0x2aef
 15295 2df8 05       		.uleb128 0x5
 15296 2df9 03       		.byte	0x3
 15297 2dfa 00000000 		.4byte	_g_configured
 15298 2dfe 0A       		.uleb128 0xa
 15299 2dff 8D000000 		.4byte	0x8d
 15300 2e03 142E0000 		.4byte	0x2e14
 15301 2e07 0B       		.uleb128 0xb
 15302 2e08 F4000000 		.4byte	0xf4
 15303 2e0c 04       		.byte	0x4
 15304 2e0d 0B       		.uleb128 0xb
 15305 2e0e F4000000 		.4byte	0xf4
 15306 2e12 01       		.byte	0x1
 15307 2e13 00       		.byte	0
 15308 2e14 2F       		.uleb128 0x2f
 15309 2e15 A0290000 		.4byte	.LASF576
 15310 2e19 01       		.byte	0x1
 15311 2e1a 27       		.byte	0x27
 15312 2e1b FE2D0000 		.4byte	0x2dfe
 15313 2e1f 05       		.uleb128 0x5
 15314 2e20 03       		.byte	0x3
 15315 2e21 00000000 		.4byte	_g_productscreenpos
 15316 2e25 00       		.byte	0
 15317              		.section	.debug_abbrev,"",%progbits
 15318              	.Ldebug_abbrev0:
 15319 0000 01       		.uleb128 0x1
 15320 0001 11       		.uleb128 0x11
 15321 0002 01       		.byte	0x1
 15322 0003 25       		.uleb128 0x25
 15323 0004 0E       		.uleb128 0xe
 15324 0005 13       		.uleb128 0x13
 15325 0006 0B       		.uleb128 0xb
 15326 0007 03       		.uleb128 0x3
 15327 0008 0E       		.uleb128 0xe
 15328 0009 1B       		.uleb128 0x1b
 15329 000a 0E       		.uleb128 0xe
 15330 000b 55       		.uleb128 0x55
 15331 000c 17       		.uleb128 0x17
 15332 000d 11       		.uleb128 0x11
 15333 000e 01       		.uleb128 0x1
 15334 000f 10       		.uleb128 0x10
 15335 0010 17       		.uleb128 0x17
 15336 0011 00       		.byte	0
 15337 0012 00       		.byte	0
 15338 0013 02       		.uleb128 0x2
 15339 0014 24       		.uleb128 0x24
 15340 0015 00       		.byte	0
 15341 0016 0B       		.uleb128 0xb
 15342 0017 0B       		.uleb128 0xb
ARM GAS  C:\Users\RECEPC~1\AppData\Local\Temp\ccvg7Xyk.s 			page 310


 15343 0018 3E       		.uleb128 0x3e
 15344 0019 0B       		.uleb128 0xb
 15345 001a 03       		.uleb128 0x3
 15346 001b 0E       		.uleb128 0xe
 15347 001c 00       		.byte	0
 15348 001d 00       		.byte	0
 15349 001e 03       		.uleb128 0x3
 15350 001f 16       		.uleb128 0x16
 15351 0020 00       		.byte	0
 15352 0021 03       		.uleb128 0x3
 15353 0022 0E       		.uleb128 0xe
 15354 0023 3A       		.uleb128 0x3a
 15355 0024 0B       		.uleb128 0xb
 15356 0025 3B       		.uleb128 0x3b
 15357 0026 0B       		.uleb128 0xb
 15358 0027 49       		.uleb128 0x49
 15359 0028 13       		.uleb128 0x13
 15360 0029 00       		.byte	0
 15361 002a 00       		.byte	0
 15362 002b 04       		.uleb128 0x4
 15363 002c 24       		.uleb128 0x24
 15364 002d 00       		.byte	0
 15365 002e 0B       		.uleb128 0xb
 15366 002f 0B       		.uleb128 0xb
 15367 0030 3E       		.uleb128 0x3e
 15368 0031 0B       		.uleb128 0xb
 15369 0032 03       		.uleb128 0x3
 15370 0033 08       		.uleb128 0x8
 15371 0034 00       		.byte	0
 15372 0035 00       		.byte	0
 15373 0036 05       		.uleb128 0x5
 15374 0037 16       		.uleb128 0x16
 15375 0038 00       		.byte	0
 15376 0039 03       		.uleb128 0x3
 15377 003a 0E       		.uleb128 0xe
 15378 003b 3A       		.uleb128 0x3a
 15379 003c 0B       		.uleb128 0xb
 15380 003d 3B       		.uleb128 0x3b
 15381 003e 05       		.uleb128 0x5
 15382 003f 49       		.uleb128 0x49
 15383 0040 13       		.uleb128 0x13
 15384 0041 00       		.byte	0
 15385 0042 00       		.byte	0
 15386 0043 06       		.uleb128 0x6
 15387 0044 35       		.uleb128 0x35
 15388 0045 00       		.byte	0
 15389 0046 49       		.uleb128 0x49
 15390 0047 13       		.uleb128 0x13
 15391 0048 00       		.byte	0
 15392 0049 00       		.byte	0
 15393 004a 07       		.uleb128 0x7
 15394 004b 0F       		.uleb128 0xf
 15395 004c 00       		.byte	0
 15396 004d 0B       		.uleb128 0xb
 15397 004e 0B       		.uleb128 0xb
 15398 004f 49       		.uleb128 0x49
 15399 0050 13       		.uleb128 0x13
ARM GAS  C:\Users\RECEPC~1\AppData\Local\Temp\ccvg7Xyk.s 			page 311


 15400 0051 00       		.byte	0
 15401 0052 00       		.byte	0
 15402 0053 08       		.uleb128 0x8
 15403 0054 15       		.uleb128 0x15
 15404 0055 00       		.byte	0
 15405 0056 27       		.uleb128 0x27
 15406 0057 19       		.uleb128 0x19
 15407 0058 00       		.byte	0
 15408 0059 00       		.byte	0
 15409 005a 09       		.uleb128 0x9
 15410 005b 0F       		.uleb128 0xf
 15411 005c 00       		.byte	0
 15412 005d 0B       		.uleb128 0xb
 15413 005e 0B       		.uleb128 0xb
 15414 005f 00       		.byte	0
 15415 0060 00       		.byte	0
 15416 0061 0A       		.uleb128 0xa
 15417 0062 01       		.uleb128 0x1
 15418 0063 01       		.byte	0x1
 15419 0064 49       		.uleb128 0x49
 15420 0065 13       		.uleb128 0x13
 15421 0066 01       		.uleb128 0x1
 15422 0067 13       		.uleb128 0x13
 15423 0068 00       		.byte	0
 15424 0069 00       		.byte	0
 15425 006a 0B       		.uleb128 0xb
 15426 006b 21       		.uleb128 0x21
 15427 006c 00       		.byte	0
 15428 006d 49       		.uleb128 0x49
 15429 006e 13       		.uleb128 0x13
 15430 006f 2F       		.uleb128 0x2f
 15431 0070 0B       		.uleb128 0xb
 15432 0071 00       		.byte	0
 15433 0072 00       		.byte	0
 15434 0073 0C       		.uleb128 0xc
 15435 0074 13       		.uleb128 0x13
 15436 0075 01       		.byte	0x1
 15437 0076 03       		.uleb128 0x3
 15438 0077 0E       		.uleb128 0xe
 15439 0078 0B       		.uleb128 0xb
 15440 0079 0B       		.uleb128 0xb
 15441 007a 3A       		.uleb128 0x3a
 15442 007b 0B       		.uleb128 0xb
 15443 007c 3B       		.uleb128 0x3b
 15444 007d 0B       		.uleb128 0xb
 15445 007e 01       		.uleb128 0x1
 15446 007f 13       		.uleb128 0x13
 15447 0080 00       		.byte	0
 15448 0081 00       		.byte	0
 15449 0082 0D       		.uleb128 0xd
 15450 0083 0D       		.uleb128 0xd
 15451 0084 00       		.byte	0
 15452 0085 03       		.uleb128 0x3
 15453 0086 0E       		.uleb128 0xe
 15454 0087 3A       		.uleb128 0x3a
 15455 0088 0B       		.uleb128 0xb
 15456 0089 3B       		.uleb128 0x3b
ARM GAS  C:\Users\RECEPC~1\AppData\Local\Temp\ccvg7Xyk.s 			page 312


 15457 008a 0B       		.uleb128 0xb
 15458 008b 49       		.uleb128 0x49
 15459 008c 13       		.uleb128 0x13
 15460 008d 38       		.uleb128 0x38
 15461 008e 0B       		.uleb128 0xb
 15462 008f 00       		.byte	0
 15463 0090 00       		.byte	0
 15464 0091 0E       		.uleb128 0xe
 15465 0092 15       		.uleb128 0x15
 15466 0093 01       		.byte	0x1
 15467 0094 27       		.uleb128 0x27
 15468 0095 19       		.uleb128 0x19
 15469 0096 01       		.uleb128 0x1
 15470 0097 13       		.uleb128 0x13
 15471 0098 00       		.byte	0
 15472 0099 00       		.byte	0
 15473 009a 0F       		.uleb128 0xf
 15474 009b 05       		.uleb128 0x5
 15475 009c 00       		.byte	0
 15476 009d 49       		.uleb128 0x49
 15477 009e 13       		.uleb128 0x13
 15478 009f 00       		.byte	0
 15479 00a0 00       		.byte	0
 15480 00a1 10       		.uleb128 0x10
 15481 00a2 15       		.uleb128 0x15
 15482 00a3 00       		.byte	0
 15483 00a4 27       		.uleb128 0x27
 15484 00a5 19       		.uleb128 0x19
 15485 00a6 49       		.uleb128 0x49
 15486 00a7 13       		.uleb128 0x13
 15487 00a8 00       		.byte	0
 15488 00a9 00       		.byte	0
 15489 00aa 11       		.uleb128 0x11
 15490 00ab 26       		.uleb128 0x26
 15491 00ac 00       		.byte	0
 15492 00ad 49       		.uleb128 0x49
 15493 00ae 13       		.uleb128 0x13
 15494 00af 00       		.byte	0
 15495 00b0 00       		.byte	0
 15496 00b1 12       		.uleb128 0x12
 15497 00b2 04       		.uleb128 0x4
 15498 00b3 01       		.byte	0x1
 15499 00b4 03       		.uleb128 0x3
 15500 00b5 0E       		.uleb128 0xe
 15501 00b6 0B       		.uleb128 0xb
 15502 00b7 0B       		.uleb128 0xb
 15503 00b8 3A       		.uleb128 0x3a
 15504 00b9 0B       		.uleb128 0xb
 15505 00ba 3B       		.uleb128 0x3b
 15506 00bb 0B       		.uleb128 0xb
 15507 00bc 01       		.uleb128 0x1
 15508 00bd 13       		.uleb128 0x13
 15509 00be 00       		.byte	0
 15510 00bf 00       		.byte	0
 15511 00c0 13       		.uleb128 0x13
 15512 00c1 28       		.uleb128 0x28
 15513 00c2 00       		.byte	0
ARM GAS  C:\Users\RECEPC~1\AppData\Local\Temp\ccvg7Xyk.s 			page 313


 15514 00c3 03       		.uleb128 0x3
 15515 00c4 0E       		.uleb128 0xe
 15516 00c5 1C       		.uleb128 0x1c
 15517 00c6 0D       		.uleb128 0xd
 15518 00c7 00       		.byte	0
 15519 00c8 00       		.byte	0
 15520 00c9 14       		.uleb128 0x14
 15521 00ca 13       		.uleb128 0x13
 15522 00cb 01       		.byte	0x1
 15523 00cc 03       		.uleb128 0x3
 15524 00cd 0E       		.uleb128 0xe
 15525 00ce 0B       		.uleb128 0xb
 15526 00cf 05       		.uleb128 0x5
 15527 00d0 3A       		.uleb128 0x3a
 15528 00d1 0B       		.uleb128 0xb
 15529 00d2 3B       		.uleb128 0x3b
 15530 00d3 0B       		.uleb128 0xb
 15531 00d4 01       		.uleb128 0x1
 15532 00d5 13       		.uleb128 0x13
 15533 00d6 00       		.byte	0
 15534 00d7 00       		.byte	0
 15535 00d8 15       		.uleb128 0x15
 15536 00d9 0D       		.uleb128 0xd
 15537 00da 00       		.byte	0
 15538 00db 03       		.uleb128 0x3
 15539 00dc 0E       		.uleb128 0xe
 15540 00dd 3A       		.uleb128 0x3a
 15541 00de 0B       		.uleb128 0xb
 15542 00df 3B       		.uleb128 0x3b
 15543 00e0 0B       		.uleb128 0xb
 15544 00e1 49       		.uleb128 0x49
 15545 00e2 13       		.uleb128 0x13
 15546 00e3 38       		.uleb128 0x38
 15547 00e4 05       		.uleb128 0x5
 15548 00e5 00       		.byte	0
 15549 00e6 00       		.byte	0
 15550 00e7 16       		.uleb128 0x16
 15551 00e8 21       		.uleb128 0x21
 15552 00e9 00       		.byte	0
 15553 00ea 49       		.uleb128 0x49
 15554 00eb 13       		.uleb128 0x13
 15555 00ec 2F       		.uleb128 0x2f
 15556 00ed 05       		.uleb128 0x5
 15557 00ee 00       		.byte	0
 15558 00ef 00       		.byte	0
 15559 00f0 17       		.uleb128 0x17
 15560 00f1 13       		.uleb128 0x13
 15561 00f2 01       		.byte	0x1
 15562 00f3 0B       		.uleb128 0xb
 15563 00f4 05       		.uleb128 0x5
 15564 00f5 3A       		.uleb128 0x3a
 15565 00f6 0B       		.uleb128 0xb
 15566 00f7 3B       		.uleb128 0x3b
 15567 00f8 05       		.uleb128 0x5
 15568 00f9 01       		.uleb128 0x1
 15569 00fa 13       		.uleb128 0x13
 15570 00fb 00       		.byte	0
ARM GAS  C:\Users\RECEPC~1\AppData\Local\Temp\ccvg7Xyk.s 			page 314


 15571 00fc 00       		.byte	0
 15572 00fd 18       		.uleb128 0x18
 15573 00fe 0D       		.uleb128 0xd
 15574 00ff 00       		.byte	0
 15575 0100 03       		.uleb128 0x3
 15576 0101 0E       		.uleb128 0xe
 15577 0102 3A       		.uleb128 0x3a
 15578 0103 0B       		.uleb128 0xb
 15579 0104 3B       		.uleb128 0x3b
 15580 0105 05       		.uleb128 0x5
 15581 0106 49       		.uleb128 0x49
 15582 0107 13       		.uleb128 0x13
 15583 0108 38       		.uleb128 0x38
 15584 0109 0B       		.uleb128 0xb
 15585 010a 00       		.byte	0
 15586 010b 00       		.byte	0
 15587 010c 19       		.uleb128 0x19
 15588 010d 0D       		.uleb128 0xd
 15589 010e 00       		.byte	0
 15590 010f 03       		.uleb128 0x3
 15591 0110 0E       		.uleb128 0xe
 15592 0111 3A       		.uleb128 0x3a
 15593 0112 0B       		.uleb128 0xb
 15594 0113 3B       		.uleb128 0x3b
 15595 0114 05       		.uleb128 0x5
 15596 0115 49       		.uleb128 0x49
 15597 0116 13       		.uleb128 0x13
 15598 0117 38       		.uleb128 0x38
 15599 0118 05       		.uleb128 0x5
 15600 0119 00       		.byte	0
 15601 011a 00       		.byte	0
 15602 011b 1A       		.uleb128 0x1a
 15603 011c 13       		.uleb128 0x13
 15604 011d 01       		.byte	0x1
 15605 011e 0B       		.uleb128 0xb
 15606 011f 0B       		.uleb128 0xb
 15607 0120 3A       		.uleb128 0x3a
 15608 0121 0B       		.uleb128 0xb
 15609 0122 3B       		.uleb128 0x3b
 15610 0123 05       		.uleb128 0x5
 15611 0124 01       		.uleb128 0x1
 15612 0125 13       		.uleb128 0x13
 15613 0126 00       		.byte	0
 15614 0127 00       		.byte	0
 15615 0128 1B       		.uleb128 0x1b
 15616 0129 13       		.uleb128 0x13
 15617 012a 01       		.byte	0x1
 15618 012b 03       		.uleb128 0x3
 15619 012c 0E       		.uleb128 0xe
 15620 012d 0B       		.uleb128 0xb
 15621 012e 05       		.uleb128 0x5
 15622 012f 3A       		.uleb128 0x3a
 15623 0130 0B       		.uleb128 0xb
 15624 0131 3B       		.uleb128 0x3b
 15625 0132 05       		.uleb128 0x5
 15626 0133 01       		.uleb128 0x1
 15627 0134 13       		.uleb128 0x13
ARM GAS  C:\Users\RECEPC~1\AppData\Local\Temp\ccvg7Xyk.s 			page 315


 15628 0135 00       		.byte	0
 15629 0136 00       		.byte	0
 15630 0137 1C       		.uleb128 0x1c
 15631 0138 15       		.uleb128 0x15
 15632 0139 01       		.byte	0x1
 15633 013a 27       		.uleb128 0x27
 15634 013b 19       		.uleb128 0x19
 15635 013c 49       		.uleb128 0x49
 15636 013d 13       		.uleb128 0x13
 15637 013e 01       		.uleb128 0x1
 15638 013f 13       		.uleb128 0x13
 15639 0140 00       		.byte	0
 15640 0141 00       		.byte	0
 15641 0142 1D       		.uleb128 0x1d
 15642 0143 0D       		.uleb128 0xd
 15643 0144 00       		.byte	0
 15644 0145 03       		.uleb128 0x3
 15645 0146 0E       		.uleb128 0xe
 15646 0147 3A       		.uleb128 0x3a
 15647 0148 0B       		.uleb128 0xb
 15648 0149 3B       		.uleb128 0x3b
 15649 014a 05       		.uleb128 0x5
 15650 014b 49       		.uleb128 0x49
 15651 014c 13       		.uleb128 0x13
 15652 014d 0B       		.uleb128 0xb
 15653 014e 0B       		.uleb128 0xb
 15654 014f 0D       		.uleb128 0xd
 15655 0150 0B       		.uleb128 0xb
 15656 0151 0C       		.uleb128 0xc
 15657 0152 0B       		.uleb128 0xb
 15658 0153 38       		.uleb128 0x38
 15659 0154 0B       		.uleb128 0xb
 15660 0155 00       		.byte	0
 15661 0156 00       		.byte	0
 15662 0157 1E       		.uleb128 0x1e
 15663 0158 04       		.uleb128 0x4
 15664 0159 01       		.byte	0x1
 15665 015a 0B       		.uleb128 0xb
 15666 015b 0B       		.uleb128 0xb
 15667 015c 3A       		.uleb128 0x3a
 15668 015d 0B       		.uleb128 0xb
 15669 015e 3B       		.uleb128 0x3b
 15670 015f 0B       		.uleb128 0xb
 15671 0160 01       		.uleb128 0x1
 15672 0161 13       		.uleb128 0x13
 15673 0162 00       		.byte	0
 15674 0163 00       		.byte	0
 15675 0164 1F       		.uleb128 0x1f
 15676 0165 13       		.uleb128 0x13
 15677 0166 01       		.byte	0x1
 15678 0167 0B       		.uleb128 0xb
 15679 0168 0B       		.uleb128 0xb
 15680 0169 3A       		.uleb128 0x3a
 15681 016a 0B       		.uleb128 0xb
 15682 016b 3B       		.uleb128 0x3b
 15683 016c 0B       		.uleb128 0xb
 15684 016d 01       		.uleb128 0x1
ARM GAS  C:\Users\RECEPC~1\AppData\Local\Temp\ccvg7Xyk.s 			page 316


 15685 016e 13       		.uleb128 0x13
 15686 016f 00       		.byte	0
 15687 0170 00       		.byte	0
 15688 0171 20       		.uleb128 0x20
 15689 0172 2E       		.uleb128 0x2e
 15690 0173 01       		.byte	0x1
 15691 0174 3F       		.uleb128 0x3f
 15692 0175 19       		.uleb128 0x19
 15693 0176 03       		.uleb128 0x3
 15694 0177 0E       		.uleb128 0xe
 15695 0178 3A       		.uleb128 0x3a
 15696 0179 0B       		.uleb128 0xb
 15697 017a 3B       		.uleb128 0x3b
 15698 017b 0B       		.uleb128 0xb
 15699 017c 27       		.uleb128 0x27
 15700 017d 19       		.uleb128 0x19
 15701 017e 11       		.uleb128 0x11
 15702 017f 01       		.uleb128 0x1
 15703 0180 12       		.uleb128 0x12
 15704 0181 06       		.uleb128 0x6
 15705 0182 40       		.uleb128 0x40
 15706 0183 18       		.uleb128 0x18
 15707 0184 9642     		.uleb128 0x2116
 15708 0186 19       		.uleb128 0x19
 15709 0187 01       		.uleb128 0x1
 15710 0188 13       		.uleb128 0x13
 15711 0189 00       		.byte	0
 15712 018a 00       		.byte	0
 15713 018b 21       		.uleb128 0x21
 15714 018c 05       		.uleb128 0x5
 15715 018d 00       		.byte	0
 15716 018e 03       		.uleb128 0x3
 15717 018f 0E       		.uleb128 0xe
 15718 0190 3A       		.uleb128 0x3a
 15719 0191 0B       		.uleb128 0xb
 15720 0192 3B       		.uleb128 0x3b
 15721 0193 0B       		.uleb128 0xb
 15722 0194 49       		.uleb128 0x49
 15723 0195 13       		.uleb128 0x13
 15724 0196 02       		.uleb128 0x2
 15725 0197 18       		.uleb128 0x18
 15726 0198 00       		.byte	0
 15727 0199 00       		.byte	0
 15728 019a 22       		.uleb128 0x22
 15729 019b 34       		.uleb128 0x34
 15730 019c 00       		.byte	0
 15731 019d 03       		.uleb128 0x3
 15732 019e 0E       		.uleb128 0xe
 15733 019f 3A       		.uleb128 0x3a
 15734 01a0 0B       		.uleb128 0xb
 15735 01a1 3B       		.uleb128 0x3b
 15736 01a2 0B       		.uleb128 0xb
 15737 01a3 49       		.uleb128 0x49
 15738 01a4 13       		.uleb128 0x13
 15739 01a5 02       		.uleb128 0x2
 15740 01a6 18       		.uleb128 0x18
 15741 01a7 00       		.byte	0
ARM GAS  C:\Users\RECEPC~1\AppData\Local\Temp\ccvg7Xyk.s 			page 317


 15742 01a8 00       		.byte	0
 15743 01a9 23       		.uleb128 0x23
 15744 01aa 0A       		.uleb128 0xa
 15745 01ab 00       		.byte	0
 15746 01ac 03       		.uleb128 0x3
 15747 01ad 0E       		.uleb128 0xe
 15748 01ae 3A       		.uleb128 0x3a
 15749 01af 0B       		.uleb128 0xb
 15750 01b0 3B       		.uleb128 0x3b
 15751 01b1 0B       		.uleb128 0xb
 15752 01b2 11       		.uleb128 0x11
 15753 01b3 01       		.uleb128 0x1
 15754 01b4 00       		.byte	0
 15755 01b5 00       		.byte	0
 15756 01b6 24       		.uleb128 0x24
 15757 01b7 0B       		.uleb128 0xb
 15758 01b8 01       		.byte	0x1
 15759 01b9 11       		.uleb128 0x11
 15760 01ba 01       		.uleb128 0x1
 15761 01bb 12       		.uleb128 0x12
 15762 01bc 06       		.uleb128 0x6
 15763 01bd 01       		.uleb128 0x1
 15764 01be 13       		.uleb128 0x13
 15765 01bf 00       		.byte	0
 15766 01c0 00       		.byte	0
 15767 01c1 25       		.uleb128 0x25
 15768 01c2 0B       		.uleb128 0xb
 15769 01c3 01       		.byte	0x1
 15770 01c4 11       		.uleb128 0x11
 15771 01c5 01       		.uleb128 0x1
 15772 01c6 12       		.uleb128 0x12
 15773 01c7 06       		.uleb128 0x6
 15774 01c8 00       		.byte	0
 15775 01c9 00       		.byte	0
 15776 01ca 26       		.uleb128 0x26
 15777 01cb 34       		.uleb128 0x34
 15778 01cc 00       		.byte	0
 15779 01cd 03       		.uleb128 0x3
 15780 01ce 0E       		.uleb128 0xe
 15781 01cf 3A       		.uleb128 0x3a
 15782 01d0 0B       		.uleb128 0xb
 15783 01d1 3B       		.uleb128 0x3b
 15784 01d2 05       		.uleb128 0x5
 15785 01d3 49       		.uleb128 0x49
 15786 01d4 13       		.uleb128 0x13
 15787 01d5 02       		.uleb128 0x2
 15788 01d6 18       		.uleb128 0x18
 15789 01d7 00       		.byte	0
 15790 01d8 00       		.byte	0
 15791 01d9 27       		.uleb128 0x27
 15792 01da 2E       		.uleb128 0x2e
 15793 01db 01       		.byte	0x1
 15794 01dc 3F       		.uleb128 0x3f
 15795 01dd 19       		.uleb128 0x19
 15796 01de 03       		.uleb128 0x3
 15797 01df 0E       		.uleb128 0xe
 15798 01e0 3A       		.uleb128 0x3a
ARM GAS  C:\Users\RECEPC~1\AppData\Local\Temp\ccvg7Xyk.s 			page 318


 15799 01e1 0B       		.uleb128 0xb
 15800 01e2 3B       		.uleb128 0x3b
 15801 01e3 05       		.uleb128 0x5
 15802 01e4 27       		.uleb128 0x27
 15803 01e5 19       		.uleb128 0x19
 15804 01e6 11       		.uleb128 0x11
 15805 01e7 01       		.uleb128 0x1
 15806 01e8 12       		.uleb128 0x12
 15807 01e9 06       		.uleb128 0x6
 15808 01ea 40       		.uleb128 0x40
 15809 01eb 18       		.uleb128 0x18
 15810 01ec 9642     		.uleb128 0x2116
 15811 01ee 19       		.uleb128 0x19
 15812 01ef 01       		.uleb128 0x1
 15813 01f0 13       		.uleb128 0x13
 15814 01f1 00       		.byte	0
 15815 01f2 00       		.byte	0
 15816 01f3 28       		.uleb128 0x28
 15817 01f4 05       		.uleb128 0x5
 15818 01f5 00       		.byte	0
 15819 01f6 03       		.uleb128 0x3
 15820 01f7 0E       		.uleb128 0xe
 15821 01f8 3A       		.uleb128 0x3a
 15822 01f9 0B       		.uleb128 0xb
 15823 01fa 3B       		.uleb128 0x3b
 15824 01fb 05       		.uleb128 0x5
 15825 01fc 49       		.uleb128 0x49
 15826 01fd 13       		.uleb128 0x13
 15827 01fe 02       		.uleb128 0x2
 15828 01ff 18       		.uleb128 0x18
 15829 0200 00       		.byte	0
 15830 0201 00       		.byte	0
 15831 0202 29       		.uleb128 0x29
 15832 0203 34       		.uleb128 0x34
 15833 0204 00       		.byte	0
 15834 0205 03       		.uleb128 0x3
 15835 0206 08       		.uleb128 0x8
 15836 0207 3A       		.uleb128 0x3a
 15837 0208 0B       		.uleb128 0xb
 15838 0209 3B       		.uleb128 0x3b
 15839 020a 05       		.uleb128 0x5
 15840 020b 49       		.uleb128 0x49
 15841 020c 13       		.uleb128 0x13
 15842 020d 02       		.uleb128 0x2
 15843 020e 18       		.uleb128 0x18
 15844 020f 00       		.byte	0
 15845 0210 00       		.byte	0
 15846 0211 2A       		.uleb128 0x2a
 15847 0212 2E       		.uleb128 0x2e
 15848 0213 01       		.byte	0x1
 15849 0214 3F       		.uleb128 0x3f
 15850 0215 19       		.uleb128 0x19
 15851 0216 03       		.uleb128 0x3
 15852 0217 0E       		.uleb128 0xe
 15853 0218 3A       		.uleb128 0x3a
 15854 0219 0B       		.uleb128 0xb
 15855 021a 3B       		.uleb128 0x3b
ARM GAS  C:\Users\RECEPC~1\AppData\Local\Temp\ccvg7Xyk.s 			page 319


 15856 021b 05       		.uleb128 0x5
 15857 021c 27       		.uleb128 0x27
 15858 021d 19       		.uleb128 0x19
 15859 021e 11       		.uleb128 0x11
 15860 021f 01       		.uleb128 0x1
 15861 0220 12       		.uleb128 0x12
 15862 0221 06       		.uleb128 0x6
 15863 0222 40       		.uleb128 0x40
 15864 0223 18       		.uleb128 0x18
 15865 0224 9742     		.uleb128 0x2117
 15866 0226 19       		.uleb128 0x19
 15867 0227 01       		.uleb128 0x1
 15868 0228 13       		.uleb128 0x13
 15869 0229 00       		.byte	0
 15870 022a 00       		.byte	0
 15871 022b 2B       		.uleb128 0x2b
 15872 022c 0B       		.uleb128 0xb
 15873 022d 01       		.byte	0x1
 15874 022e 55       		.uleb128 0x55
 15875 022f 17       		.uleb128 0x17
 15876 0230 01       		.uleb128 0x1
 15877 0231 13       		.uleb128 0x13
 15878 0232 00       		.byte	0
 15879 0233 00       		.byte	0
 15880 0234 2C       		.uleb128 0x2c
 15881 0235 2E       		.uleb128 0x2e
 15882 0236 01       		.byte	0x1
 15883 0237 3F       		.uleb128 0x3f
 15884 0238 19       		.uleb128 0x19
 15885 0239 03       		.uleb128 0x3
 15886 023a 0E       		.uleb128 0xe
 15887 023b 3A       		.uleb128 0x3a
 15888 023c 0B       		.uleb128 0xb
 15889 023d 3B       		.uleb128 0x3b
 15890 023e 05       		.uleb128 0x5
 15891 023f 27       		.uleb128 0x27
 15892 0240 19       		.uleb128 0x19
 15893 0241 49       		.uleb128 0x49
 15894 0242 13       		.uleb128 0x13
 15895 0243 11       		.uleb128 0x11
 15896 0244 01       		.uleb128 0x1
 15897 0245 12       		.uleb128 0x12
 15898 0246 06       		.uleb128 0x6
 15899 0247 40       		.uleb128 0x40
 15900 0248 18       		.uleb128 0x18
 15901 0249 9642     		.uleb128 0x2116
 15902 024b 19       		.uleb128 0x19
 15903 024c 01       		.uleb128 0x1
 15904 024d 13       		.uleb128 0x13
 15905 024e 00       		.byte	0
 15906 024f 00       		.byte	0
 15907 0250 2D       		.uleb128 0x2d
 15908 0251 34       		.uleb128 0x34
 15909 0252 00       		.byte	0
 15910 0253 03       		.uleb128 0x3
 15911 0254 0E       		.uleb128 0xe
 15912 0255 3A       		.uleb128 0x3a
ARM GAS  C:\Users\RECEPC~1\AppData\Local\Temp\ccvg7Xyk.s 			page 320


 15913 0256 0B       		.uleb128 0xb
 15914 0257 3B       		.uleb128 0x3b
 15915 0258 05       		.uleb128 0x5
 15916 0259 49       		.uleb128 0x49
 15917 025a 13       		.uleb128 0x13
 15918 025b 3F       		.uleb128 0x3f
 15919 025c 19       		.uleb128 0x19
 15920 025d 3C       		.uleb128 0x3c
 15921 025e 19       		.uleb128 0x19
 15922 025f 00       		.byte	0
 15923 0260 00       		.byte	0
 15924 0261 2E       		.uleb128 0x2e
 15925 0262 34       		.uleb128 0x34
 15926 0263 00       		.byte	0
 15927 0264 03       		.uleb128 0x3
 15928 0265 0E       		.uleb128 0xe
 15929 0266 3A       		.uleb128 0x3a
 15930 0267 0B       		.uleb128 0xb
 15931 0268 3B       		.uleb128 0x3b
 15932 0269 0B       		.uleb128 0xb
 15933 026a 49       		.uleb128 0x49
 15934 026b 13       		.uleb128 0x13
 15935 026c 3F       		.uleb128 0x3f
 15936 026d 19       		.uleb128 0x19
 15937 026e 3C       		.uleb128 0x3c
 15938 026f 19       		.uleb128 0x19
 15939 0270 00       		.byte	0
 15940 0271 00       		.byte	0
 15941 0272 2F       		.uleb128 0x2f
 15942 0273 34       		.uleb128 0x34
 15943 0274 00       		.byte	0
 15944 0275 03       		.uleb128 0x3
 15945 0276 0E       		.uleb128 0xe
 15946 0277 3A       		.uleb128 0x3a
 15947 0278 0B       		.uleb128 0xb
 15948 0279 3B       		.uleb128 0x3b
 15949 027a 0B       		.uleb128 0xb
 15950 027b 49       		.uleb128 0x49
 15951 027c 13       		.uleb128 0x13
 15952 027d 3F       		.uleb128 0x3f
 15953 027e 19       		.uleb128 0x19
 15954 027f 02       		.uleb128 0x2
 15955 0280 18       		.uleb128 0x18
 15956 0281 00       		.byte	0
 15957 0282 00       		.byte	0
 15958 0283 30       		.uleb128 0x30
 15959 0284 21       		.uleb128 0x21
 15960 0285 00       		.byte	0
 15961 0286 00       		.byte	0
 15962 0287 00       		.byte	0
 15963 0288 00       		.byte	0
 15964              		.section	.debug_aranges,"",%progbits
 15965 0000 44010000 		.4byte	0x144
 15966 0004 0200     		.2byte	0x2
 15967 0006 00000000 		.4byte	.Ldebug_info0
 15968 000a 04       		.byte	0x4
 15969 000b 00       		.byte	0
ARM GAS  C:\Users\RECEPC~1\AppData\Local\Temp\ccvg7Xyk.s 			page 321


 15970 000c 0000     		.2byte	0
 15971 000e 0000     		.2byte	0
 15972 0010 00000000 		.4byte	.LFB63
 15973 0014 B4010000 		.4byte	.LFE63-.LFB63
 15974 0018 00000000 		.4byte	.LFB64
 15975 001c B4010000 		.4byte	.LFE64-.LFB64
 15976 0020 00000000 		.4byte	.LFB65
 15977 0024 70010000 		.4byte	.LFE65-.LFB65
 15978 0028 00000000 		.4byte	.LFB66
 15979 002c C4000000 		.4byte	.LFE66-.LFB66
 15980 0030 00000000 		.4byte	.LFB67
 15981 0034 34010000 		.4byte	.LFE67-.LFB67
 15982 0038 00000000 		.4byte	.LFB68
 15983 003c C4000000 		.4byte	.LFE68-.LFB68
 15984 0040 00000000 		.4byte	.LFB69
 15985 0044 42010000 		.4byte	.LFE69-.LFB69
 15986 0048 00000000 		.4byte	.LFB70
 15987 004c 3C010000 		.4byte	.LFE70-.LFB70
 15988 0050 00000000 		.4byte	.LFB71
 15989 0054 46030000 		.4byte	.LFE71-.LFB71
 15990 0058 00000000 		.4byte	.LFB72
 15991 005c 5C010000 		.4byte	.LFE72-.LFB72
 15992 0060 00000000 		.4byte	.LFB73
 15993 0064 FC040000 		.4byte	.LFE73-.LFB73
 15994 0068 00000000 		.4byte	.LFB74
 15995 006c 5C010000 		.4byte	.LFE74-.LFB74
 15996 0070 00000000 		.4byte	.LFB75
 15997 0074 34020000 		.4byte	.LFE75-.LFB75
 15998 0078 00000000 		.4byte	.LFB76
 15999 007c 94000000 		.4byte	.LFE76-.LFB76
 16000 0080 00000000 		.4byte	.LFB77
 16001 0084 B0000000 		.4byte	.LFE77-.LFB77
 16002 0088 00000000 		.4byte	.LFB78
 16003 008c 2C000000 		.4byte	.LFE78-.LFB78
 16004 0090 00000000 		.4byte	.LFB79
 16005 0094 94000000 		.4byte	.LFE79-.LFB79
 16006 0098 00000000 		.4byte	.LFB80
 16007 009c E4000000 		.4byte	.LFE80-.LFB80
 16008 00a0 00000000 		.4byte	.LFB81
 16009 00a4 D4000000 		.4byte	.LFE81-.LFB81
 16010 00a8 00000000 		.4byte	.LFB82
 16011 00ac 7E000000 		.4byte	.LFE82-.LFB82
 16012 00b0 00000000 		.4byte	.LFB83
 16013 00b4 E4000000 		.4byte	.LFE83-.LFB83
 16014 00b8 00000000 		.4byte	.LFB84
 16015 00bc C4000000 		.4byte	.LFE84-.LFB84
 16016 00c0 00000000 		.4byte	.LFB85
 16017 00c4 B0000000 		.4byte	.LFE85-.LFB85
 16018 00c8 00000000 		.4byte	.LFB86
 16019 00cc 34000000 		.4byte	.LFE86-.LFB86
 16020 00d0 00000000 		.4byte	.LFB87
 16021 00d4 98000000 		.4byte	.LFE87-.LFB87
 16022 00d8 00000000 		.4byte	.LFB88
 16023 00dc 20080000 		.4byte	.LFE88-.LFB88
 16024 00e0 00000000 		.4byte	.LFB89
 16025 00e4 A8000000 		.4byte	.LFE89-.LFB89
 16026 00e8 00000000 		.4byte	.LFB90
ARM GAS  C:\Users\RECEPC~1\AppData\Local\Temp\ccvg7Xyk.s 			page 322


 16027 00ec 4E000000 		.4byte	.LFE90-.LFB90
 16028 00f0 00000000 		.4byte	.LFB91
 16029 00f4 2C000000 		.4byte	.LFE91-.LFB91
 16030 00f8 00000000 		.4byte	.LFB92
 16031 00fc A0000000 		.4byte	.LFE92-.LFB92
 16032 0100 00000000 		.4byte	.LFB93
 16033 0104 4E000000 		.4byte	.LFE93-.LFB93
 16034 0108 00000000 		.4byte	.LFB94
 16035 010c 88070000 		.4byte	.LFE94-.LFB94
 16036 0110 00000000 		.4byte	.LFB95
 16037 0114 380D0000 		.4byte	.LFE95-.LFB95
 16038 0118 00000000 		.4byte	.LFB96
 16039 011c A0000000 		.4byte	.LFE96-.LFB96
 16040 0120 00000000 		.4byte	.LFB97
 16041 0124 5C000000 		.4byte	.LFE97-.LFB97
 16042 0128 00000000 		.4byte	.LFB98
 16043 012c 70000000 		.4byte	.LFE98-.LFB98
 16044 0130 00000000 		.4byte	.LFB99
 16045 0134 74010000 		.4byte	.LFE99-.LFB99
 16046 0138 00000000 		.4byte	.LFB100
 16047 013c 64010000 		.4byte	.LFE100-.LFB100
 16048 0140 00000000 		.4byte	0
 16049 0144 00000000 		.4byte	0
 16050              		.section	.debug_ranges,"",%progbits
 16051              	.Ldebug_ranges0:
 16052 0000 52000000 		.4byte	.LBB81
 16053 0004 E8050000 		.4byte	.LBE81
 16054 0008 14060000 		.4byte	.LBB96
 16055 000c CE060000 		.4byte	.LBE96
 16056 0010 00000000 		.4byte	0
 16057 0014 00000000 		.4byte	0
 16058 0018 00000000 		.4byte	.LFB63
 16059 001c B4010000 		.4byte	.LFE63
 16060 0020 00000000 		.4byte	.LFB64
 16061 0024 B4010000 		.4byte	.LFE64
 16062 0028 00000000 		.4byte	.LFB65
 16063 002c 70010000 		.4byte	.LFE65
 16064 0030 00000000 		.4byte	.LFB66
 16065 0034 C4000000 		.4byte	.LFE66
 16066 0038 00000000 		.4byte	.LFB67
 16067 003c 34010000 		.4byte	.LFE67
 16068 0040 00000000 		.4byte	.LFB68
 16069 0044 C4000000 		.4byte	.LFE68
 16070 0048 00000000 		.4byte	.LFB69
 16071 004c 42010000 		.4byte	.LFE69
 16072 0050 00000000 		.4byte	.LFB70
 16073 0054 3C010000 		.4byte	.LFE70
 16074 0058 00000000 		.4byte	.LFB71
 16075 005c 46030000 		.4byte	.LFE71
 16076 0060 00000000 		.4byte	.LFB72
 16077 0064 5C010000 		.4byte	.LFE72
 16078 0068 00000000 		.4byte	.LFB73
 16079 006c FC040000 		.4byte	.LFE73
 16080 0070 00000000 		.4byte	.LFB74
 16081 0074 5C010000 		.4byte	.LFE74
 16082 0078 00000000 		.4byte	.LFB75
 16083 007c 34020000 		.4byte	.LFE75
ARM GAS  C:\Users\RECEPC~1\AppData\Local\Temp\ccvg7Xyk.s 			page 323


 16084 0080 00000000 		.4byte	.LFB76
 16085 0084 94000000 		.4byte	.LFE76
 16086 0088 00000000 		.4byte	.LFB77
 16087 008c B0000000 		.4byte	.LFE77
 16088 0090 00000000 		.4byte	.LFB78
 16089 0094 2C000000 		.4byte	.LFE78
 16090 0098 00000000 		.4byte	.LFB79
 16091 009c 94000000 		.4byte	.LFE79
 16092 00a0 00000000 		.4byte	.LFB80
 16093 00a4 E4000000 		.4byte	.LFE80
 16094 00a8 00000000 		.4byte	.LFB81
 16095 00ac D4000000 		.4byte	.LFE81
 16096 00b0 00000000 		.4byte	.LFB82
 16097 00b4 7E000000 		.4byte	.LFE82
 16098 00b8 00000000 		.4byte	.LFB83
 16099 00bc E4000000 		.4byte	.LFE83
 16100 00c0 00000000 		.4byte	.LFB84
 16101 00c4 C4000000 		.4byte	.LFE84
 16102 00c8 00000000 		.4byte	.LFB85
 16103 00cc B0000000 		.4byte	.LFE85
 16104 00d0 00000000 		.4byte	.LFB86
 16105 00d4 34000000 		.4byte	.LFE86
 16106 00d8 00000000 		.4byte	.LFB87
 16107 00dc 98000000 		.4byte	.LFE87
 16108 00e0 00000000 		.4byte	.LFB88
 16109 00e4 20080000 		.4byte	.LFE88
 16110 00e8 00000000 		.4byte	.LFB89
 16111 00ec A8000000 		.4byte	.LFE89
 16112 00f0 00000000 		.4byte	.LFB90
 16113 00f4 4E000000 		.4byte	.LFE90
 16114 00f8 00000000 		.4byte	.LFB91
 16115 00fc 2C000000 		.4byte	.LFE91
 16116 0100 00000000 		.4byte	.LFB92
 16117 0104 A0000000 		.4byte	.LFE92
 16118 0108 00000000 		.4byte	.LFB93
 16119 010c 4E000000 		.4byte	.LFE93
 16120 0110 00000000 		.4byte	.LFB94
 16121 0114 88070000 		.4byte	.LFE94
 16122 0118 00000000 		.4byte	.LFB95
 16123 011c 380D0000 		.4byte	.LFE95
 16124 0120 00000000 		.4byte	.LFB96
 16125 0124 A0000000 		.4byte	.LFE96
 16126 0128 00000000 		.4byte	.LFB97
 16127 012c 5C000000 		.4byte	.LFE97
 16128 0130 00000000 		.4byte	.LFB98
 16129 0134 70000000 		.4byte	.LFE98
 16130 0138 00000000 		.4byte	.LFB99
 16131 013c 74010000 		.4byte	.LFE99
 16132 0140 00000000 		.4byte	.LFB100
 16133 0144 64010000 		.4byte	.LFE100
 16134 0148 00000000 		.4byte	0
 16135 014c 00000000 		.4byte	0
 16136              		.section	.debug_line,"",%progbits
 16137              	.Ldebug_line0:
 16138 0000 D50A0000 		.section	.debug_str,"MS",%progbits,1
 16138      02000C02 
 16138      00000201 
ARM GAS  C:\Users\RECEPC~1\AppData\Local\Temp\ccvg7Xyk.s 			page 324


 16138      FB0E0D00 
 16138      01010101 
 16139              	.LASF352:
 16140 0000 5F646973 		.ascii	"_dispid\000"
 16140      70696400 
 16141              	.LASF431:
 16142 0008 5F707269 		.ascii	"_printerportside2\000"
 16142      6E746572 
 16142      706F7274 
 16142      73696465 
 16142      3200
 16143              	.LASF230:
 16144 001a 5F706F73 		.ascii	"_positionoffset\000"
 16144      6974696F 
 16144      6E6F6666 
 16144      73657400 
 16145              	.LASF191:
 16146 002a 5F70756D 		.ascii	"_pumprftransstate\000"
 16146      70726674 
 16146      72616E73 
 16146      73746174 
 16146      6500
 16147              	.LASF225:
 16148 003c 5F766F6C 		.ascii	"_volumeunit\000"
 16148      756D6575 
 16148      6E697400 
 16149              	.LASF303:
 16150 0048 44495350 		.ascii	"DISPLAY1\000"
 16150      4C415931 
 16150      00
 16151              	.LASF304:
 16152 0051 44495350 		.ascii	"DISPLAY2\000"
 16152      4C415932 
 16152      00
 16153              	.LASF78:
 16154 005a 5F53494E 		.ascii	"_SINK_MESSAGE_\000"
 16154      4B5F4D45 
 16154      53534147 
 16154      455F00
 16155              	.LASF553:
 16156 0069 5072696E 		.ascii	"PrintcopyReceipt\000"
 16156      74636F70 
 16156      79526563 
 16156      65697074 
 16156      00
 16157              	.LASF473:
 16158 007a 45455052 		.ascii	"EEPROM_DISPENSER_PUMP44_TRANSACTION_PAGE\000"
 16158      4F4D5F44 
 16158      49535045 
 16158      4E534552 
 16158      5F50554D 
 16159              	.LASF20:
 16160 00a3 73697A65 		.ascii	"sizetype\000"
 16160      74797065 
 16160      00
 16161              	.LASF99:
 16162 00ac 44495350 		.ascii	"DISPENSER_ACQUIRE_PUMP_STATE\000"
ARM GAS  C:\Users\RECEPC~1\AppData\Local\Temp\ccvg7Xyk.s 			page 325


 16162      454E5345 
 16162      525F4143 
 16162      51554952 
 16162      455F5055 
 16163              	.LASF51:
 16164 00c9 5F6D6573 		.ascii	"_messagelength\000"
 16164      73616765 
 16164      6C656E67 
 16164      746800
 16165              	.LASF354:
 16166 00d8 5F6E6578 		.ascii	"_nextscrid\000"
 16166      74736372 
 16166      696400
 16167              	.LASF55:
 16168 00e3 55415254 		.ascii	"UARTMessage\000"
 16168      4D657373 
 16168      61676500 
 16169              	.LASF184:
 16170 00ef 5F73696E 		.ascii	"_sinktransaction\000"
 16170      6B747261 
 16170      6E736163 
 16170      74696F6E 
 16170      00
 16171              	.LASF419:
 16172 0100 52465F43 		.ascii	"RF_CREDITSALEREPORT\000"
 16172      52454449 
 16172      5453414C 
 16172      45524550 
 16172      4F525400 
 16173              	.LASF446:
 16174 0114 45455052 		.ascii	"EEPROM_DISPENSER_PUMP1_PRODUCT_NAMES_PAGE\000"
 16174      4F4D5F44 
 16174      49535045 
 16174      4E534552 
 16174      5F50554D 
 16175              	.LASF242:
 16176 013e 44495350 		.ascii	"DISPLAY_SUBA_MANIJA\000"
 16176      4C41595F 
 16176      53554241 
 16176      5F4D414E 
 16176      494A4100 
 16177              	.LASF434:
 16178 0152 45455052 		.ascii	"EEPROM_CONFIGURATION_PAGE0\000"
 16178      4F4D5F43 
 16178      4F4E4649 
 16178      47555241 
 16178      54494F4E 
 16179              	.LASF34:
 16180 016d 47657452 		.ascii	"GetRxBufferSize\000"
 16180      78427566 
 16180      66657253 
 16180      697A6500 
 16181              	.LASF436:
 16182 017d 45455052 		.ascii	"EEPROM_CONFIGURATION_PAGE2\000"
 16182      4F4D5F43 
 16182      4F4E4649 
 16182      47555241 
ARM GAS  C:\Users\RECEPC~1\AppData\Local\Temp\ccvg7Xyk.s 			page 326


 16182      54494F4E 
 16183              	.LASF437:
 16184 0198 45455052 		.ascii	"EEPROM_CONFIGURATION_PAGE3\000"
 16184      4F4D5F43 
 16184      4F4E4649 
 16184      47555241 
 16184      54494F4E 
 16185              	.LASF438:
 16186 01b3 45455052 		.ascii	"EEPROM_CONFIGURATION_PAGE4\000"
 16186      4F4D5F43 
 16186      4F4E4649 
 16186      47555241 
 16186      54494F4E 
 16187              	.LASF342:
 16188 01ce 5F696E70 		.ascii	"_inputvalidator\000"
 16188      75747661 
 16188      6C696461 
 16188      746F7200 
 16189              	.LASF440:
 16190 01de 45455052 		.ascii	"EEPROM_CONFIGURATION_PAGE6\000"
 16190      4F4D5F43 
 16190      4F4E4649 
 16190      47555241 
 16190      54494F4E 
 16191              	.LASF441:
 16192 01f9 45455052 		.ascii	"EEPROM_CONFIGURATION_PAGE7\000"
 16192      4F4D5F43 
 16192      4F4E4649 
 16192      47555241 
 16192      54494F4E 
 16193              	.LASF350:
 16194 0214 5F627566 		.ascii	"_bufferindex\000"
 16194      66657269 
 16194      6E646578 
 16194      00
 16195              	.LASF96:
 16196 0221 53494E4B 		.ascii	"SINK_RELEASE_BY_ID\000"
 16196      5F52454C 
 16196      45415345 
 16196      5F42595F 
 16196      494400
 16197              	.LASF59:
 16198 0234 55415254 		.ascii	"UART_RF\000"
 16198      5F524600 
 16199              	.LASF10:
 16200 023c 696E7433 		.ascii	"int32_t\000"
 16200      325F7400 
 16201              	.LASF327:
 16202 0244 5F796465 		.ascii	"_ydefpos\000"
 16202      66706F73 
 16202      00
 16203              	.LASF199:
 16204 024d 5F727862 		.ascii	"_rxbuffersize\000"
 16204      75666665 
 16204      7273697A 
 16204      6500
 16205              	.LASF128:
ARM GAS  C:\Users\RECEPC~1\AppData\Local\Temp\ccvg7Xyk.s 			page 327


 16206 025b 49425554 		.ascii	"IBUTTON1_SCAN\000"
 16206      544F4E31 
 16206      5F534341 
 16206      4E00
 16207              	.LASF94:
 16208 0269 55415254 		.ascii	"UART_RF_AUTONOMOUS_MONITOR\000"
 16208      5F52465F 
 16208      4155544F 
 16208      4E4F4D4F 
 16208      55535F4D 
 16209              	.LASF376:
 16210 0284 52465F4D 		.ascii	"RF_MUX_CREDIT_SERIAL_AUTH_REQUEST\000"
 16210      55585F43 
 16210      52454449 
 16210      545F5345 
 16210      5249414C 
 16211              	.LASF13:
 16212 02a6 75696E74 		.ascii	"uint32\000"
 16212      333200
 16213              	.LASF152:
 16214 02ad 5F737461 		.ascii	"_state\000"
 16214      746500
 16215              	.LASF262:
 16216 02b4 44495350 		.ascii	"DISPLAY_COPIA_RECIBO\000"
 16216      4C41595F 
 16216      434F5049 
 16216      415F5245 
 16216      4349424F 
 16217              	.LASF534:
 16218 02c9 44697370 		.ascii	"DisplayPumpIDOffsetStore\000"
 16218      6C617950 
 16218      756D7049 
 16218      444F6666 
 16218      73657453 
 16219              	.LASF469:
 16220 02e2 45455052 		.ascii	"EEPROM_DISPENSER_PUMP34_TRANSACTION_PAGE\000"
 16220      4F4D5F44 
 16220      49535045 
 16220      4E534552 
 16220      5F50554D 
 16221              	.LASF305:
 16222 030b 504F5349 		.ascii	"POSITIONA\000"
 16222      54494F4E 
 16222      4100
 16223              	.LASF306:
 16224 0315 504F5349 		.ascii	"POSITIONB\000"
 16224      54494F4E 
 16224      4200
 16225              	.LASF542:
 16226 031f 496E6974 		.ascii	"InitiateUpdateDateTime\000"
 16226      69617465 
 16226      55706461 
 16226      74654461 
 16226      74655469 
 16227              	.LASF121:
 16228 0336 44495350 		.ascii	"DISPLAY1_MESSAGE\000"
 16228      4C415931 
ARM GAS  C:\Users\RECEPC~1\AppData\Local\Temp\ccvg7Xyk.s 			page 328


 16228      5F4D4553 
 16228      53414745 
 16228      00
 16229              	.LASF103:
 16230 0347 44495350 		.ascii	"DISPENSER_UNLOCK_EOT_PUMPS\000"
 16230      454E5345 
 16230      525F554E 
 16230      4C4F434B 
 16230      5F454F54 
 16231              	.LASF27:
 16232 0362 53746F70 		.ascii	"Stop\000"
 16232      00
 16233              	.LASF43:
 16234 0367 55415254 		.ascii	"UARTManager\000"
 16234      4D616E61 
 16234      67657200 
 16235              	.LASF520:
 16236 0373 52656A65 		.ascii	"RejectedAuthorizationMessageDecorator\000"
 16236      63746564 
 16236      41757468 
 16236      6F72697A 
 16236      6174696F 
 16237              	.LASF413:
 16238 0399 5F52465F 		.ascii	"_RF_STATES_\000"
 16238      53544154 
 16238      45535F00 
 16239              	.LASF567:
 16240 03a5 5F675F68 		.ascii	"_g_homeanimarray\000"
 16240      6F6D6561 
 16240      6E696D61 
 16240      72726179 
 16240      00
 16241              	.LASF509:
 16242 03b6 52657175 		.ascii	"RequestWorkShiftOperAuthorization\000"
 16242      65737457 
 16242      6F726B53 
 16242      68696674 
 16242      4F706572 
 16243              	.LASF427:
 16244 03d8 5F74696D 		.ascii	"_timeouttoreceive\000"
 16244      656F7574 
 16244      746F7265 
 16244      63656976 
 16244      6500
 16245              	.LASF274:
 16246 03ea 44495350 		.ascii	"DISPLAY_ABRIR_TURNO\000"
 16246      4C41595F 
 16246      41425249 
 16246      525F5455 
 16246      524E4F00 
 16247              	.LASF483:
 16248 03fe 70697465 		.ascii	"piterptr\000"
 16248      72707472 
 16248      00
 16249              	.LASF435:
 16250 0407 45455052 		.ascii	"EEPROM_CONFIGURATION_PAGE1\000"
 16250      4F4D5F43 
ARM GAS  C:\Users\RECEPC~1\AppData\Local\Temp\ccvg7Xyk.s 			page 329


 16250      4F4E4649 
 16250      47555241 
 16250      54494F4E 
 16251              	.LASF414:
 16252 0422 52465F49 		.ascii	"RF_IDLE\000"
 16252      444C4500 
 16253              	.LASF261:
 16254 042a 44495350 		.ascii	"DISPLAY_CONFIGURACIONES\000"
 16254      4C41595F 
 16254      434F4E46 
 16254      49475552 
 16254      4143494F 
 16255              	.LASF472:
 16256 0442 45455052 		.ascii	"EEPROM_DISPENSER_PUMP43_TRANSACTION_PAGE\000"
 16256      4F4D5F44 
 16256      49535045 
 16256      4E534552 
 16256      5F50554D 
 16257              	.LASF18:
 16258 046b 63686172 		.ascii	"char8\000"
 16258      3800
 16259              	.LASF131:
 16260 0471 544F4747 		.ascii	"TOGGLE_SCREEN_AND_WRITE_TEST\000"
 16260      4C455F53 
 16260      43524545 
 16260      4E5F414E 
 16260      445F5752 
 16261              	.LASF110:
 16262 048e 44495350 		.ascii	"DISPENSER_ACQUIRE_TOTALS\000"
 16262      454E5345 
 16262      525F4143 
 16262      51554952 
 16262      455F544F 
 16263              	.LASF97:
 16264 04a7 53494E4B 		.ascii	"SINK_RELEASE_BY_PTR\000"
 16264      5F52454C 
 16264      45415345 
 16264      5F42595F 
 16264      50545200 
 16265              	.LASF200:
 16266 04bb 5F747261 		.ascii	"_transqueue\000"
 16266      6E737175 
 16266      65756500 
 16267              	.LASF386:
 16268 04c7 52465F4D 		.ascii	"RF_MUX_TOTALS_REQUEST\000"
 16268      55585F54 
 16268      4F54414C 
 16268      535F5245 
 16268      51554553 
 16269              	.LASF423:
 16270 04dd 52465F41 		.ascii	"RF_AUTONOMOUS\000"
 16270      55544F4E 
 16270      4F4D4F55 
 16270      5300
 16271              	.LASF410:
 16272 04eb 52465F4D 		.ascii	"RF_MUX_COPY_REQUEST\000"
 16272      55585F43 
ARM GAS  C:\Users\RECEPC~1\AppData\Local\Temp\ccvg7Xyk.s 			page 330


 16272      4F50595F 
 16272      52455155 
 16272      45535400 
 16273              	.LASF315:
 16274 04ff 466F6E74 		.ascii	"FontData\000"
 16274      44617461 
 16274      00
 16275              	.LASF465:
 16276 0508 45455052 		.ascii	"EEPROM_DISPENSER_PUMP24_TRANSACTION_PAGE\000"
 16276      4F4D5F44 
 16276      49535045 
 16276      4E534552 
 16276      5F50554D 
 16277              	.LASF115:
 16278 0531 5052494E 		.ascii	"PRINTER21_JOB\000"
 16278      54455232 
 16278      315F4A4F 
 16278      4200
 16279              	.LASF138:
 16280 053f 5F50554D 		.ascii	"_PUMP_FILL_CREDIT_\000"
 16280      505F4649 
 16280      4C4C5F43 
 16280      52454449 
 16280      545F00
 16281              	.LASF14:
 16282 0552 696E7438 		.ascii	"int8\000"
 16282      00
 16283              	.LASF407:
 16284 0557 52465F4D 		.ascii	"RF_MUX_ISLAND_OPER_DATA_RESPONSE\000"
 16284      55585F49 
 16284      534C414E 
 16284      445F4F50 
 16284      45525F44 
 16285              	.LASF555:
 16286 0578 45697468 		.ascii	"EitherPrinterWorking\000"
 16286      65725072 
 16286      696E7465 
 16286      72576F72 
 16286      6B696E67 
 16287              	.LASF326:
 16288 058d 5F786465 		.ascii	"_xdefpos\000"
 16288      66706F73 
 16288      00
 16289              	.LASF510:
 16290 0596 7070756D 		.ascii	"ppumpptr\000"
 16290      70707472 
 16290      00
 16291              	.LASF442:
 16292 059f 45455052 		.ascii	"EEPROM_DISPENSER_PUMP1_LAYOUT_PAGE\000"
 16292      4F4D5F44 
 16292      49535045 
 16292      4E534552 
 16292      5F50554D 
 16293              	.LASF373:
 16294 05c2 44697370 		.ascii	"DisplayHomeAnimation\000"
 16294      6C617948 
 16294      6F6D6541 
ARM GAS  C:\Users\RECEPC~1\AppData\Local\Temp\ccvg7Xyk.s 			page 331


 16294      6E696D61 
 16294      74696F6E 
 16295              	.LASF206:
 16296 05d7 50756D70 		.ascii	"PumpTransQueueDeallocate\000"
 16296      5472616E 
 16296      73517565 
 16296      75654465 
 16296      616C6C6F 
 16297              	.LASF395:
 16298 05f0 52465F4D 		.ascii	"RF_MUX_CREDIT_SALE_PRINT_RESPONSE\000"
 16298      55585F43 
 16298      52454449 
 16298      545F5341 
 16298      4C455F50 
 16299              	.LASF57:
 16300 0612 5F554152 		.ascii	"_UART_MESSAGE_STATE_\000"
 16300      545F4D45 
 16300      53534147 
 16300      455F5354 
 16300      4154455F 
 16301              	.LASF405:
 16302 0627 52465F4D 		.ascii	"RF_MUX_POSITION_CFG_RESPONSE\000"
 16302      55585F50 
 16302      4F534954 
 16302      494F4E5F 
 16302      4346475F 
 16303              	.LASF526:
 16304 0644 4B696C6C 		.ascii	"KillHosePositionStateValidation\000"
 16304      486F7365 
 16304      506F7369 
 16304      74696F6E 
 16304      53746174 
 16305              	.LASF484:
 16306 0664 66707472 		.ascii	"fptrfinalizer\000"
 16306      66696E61 
 16306      6C697A65 
 16306      7200
 16307              	.LASF468:
 16308 0672 45455052 		.ascii	"EEPROM_DISPENSER_PUMP33_TRANSACTION_PAGE\000"
 16308      4F4D5F44 
 16308      49535045 
 16308      4E534552 
 16308      5F50554D 
 16309              	.LASF544:
 16310 069b 44697370 		.ascii	"DisplayUpdateDateTime\000"
 16310      6C617955 
 16310      70646174 
 16310      65446174 
 16310      6554696D 
 16311              	.LASF239:
 16312 06b1 44495350 		.ascii	"DISPLAY_INTRODUZCA_VALOR2\000"
 16312      4C41595F 
 16312      494E5452 
 16312      4F44555A 
 16312      43415F56 
 16313              	.LASF551:
 16314 06cb 70747874 		.ascii	"ptxtbuffer\000"
ARM GAS  C:\Users\RECEPC~1\AppData\Local\Temp\ccvg7Xyk.s 			page 332


 16314      62756666 
 16314      657200
 16315              	.LASF493:
 16316 06d6 70646174 		.ascii	"pdata\000"
 16316      6100
 16317              	.LASF281:
 16318 06dc 44495350 		.ascii	"DISPLAY_IDENTIFICADOR_ESTACION\000"
 16318      4C41595F 
 16318      4944454E 
 16318      54494649 
 16318      4341444F 
 16319              	.LASF123:
 16320 06fb 44495350 		.ascii	"DISPLAY1_ANIMATE_HOME\000"
 16320      4C415931 
 16320      5F414E49 
 16320      4D415445 
 16320      5F484F4D 
 16321              	.LASF86:
 16322 0711 5F627566 		.ascii	"_buffer\000"
 16322      66657200 
 16323              	.LASF409:
 16324 0719 52465F4D 		.ascii	"RF_MUX_ISLAND_ADMIN_RESPONSE\000"
 16324      55585F49 
 16324      534C414E 
 16324      445F4144 
 16324      4D494E5F 
 16325              	.LASF461:
 16326 0736 45455052 		.ascii	"EEPROM_DISPENSER_PUMP14_TRANSACTION_PAGE\000"
 16326      4F4D5F44 
 16326      49535045 
 16326      4E534552 
 16326      5F50554D 
 16327              	.LASF91:
 16328 075f 5F53494E 		.ascii	"_SINK_OBSERVABLES_\000"
 16328      4B5F4F42 
 16328      53455256 
 16328      41424C45 
 16328      535F00
 16329              	.LASF359:
 16330 0772 5F74696D 		.ascii	"_timeoutmultiplier\000"
 16330      656F7574 
 16330      6D756C74 
 16330      69706C69 
 16330      657200
 16331              	.LASF540:
 16332 0785 7064756D 		.ascii	"pdummybuffer\000"
 16332      6D796275 
 16332      66666572 
 16332      00
 16333              	.LASF142:
 16334 0792 5F50554D 		.ascii	"_PUMP_TOTALS_\000"
 16334      505F544F 
 16334      54414C53 
 16334      5F00
 16335              	.LASF433:
 16336 07a0 5F454550 		.ascii	"_EEPROM_MEM_FORMAT_\000"
 16336      524F4D5F 
ARM GAS  C:\Users\RECEPC~1\AppData\Local\Temp\ccvg7Xyk.s 			page 333


 16336      4D454D5F 
 16336      464F524D 
 16336      41545F00 
 16337              	.LASF17:
 16338 07b4 75696E74 		.ascii	"uint64\000"
 16338      363400
 16339              	.LASF4:
 16340 07bb 6C6F6E67 		.ascii	"long int\000"
 16340      20696E74 
 16340      00
 16341              	.LASF189:
 16342 07c4 5F726F75 		.ascii	"_roundrobinstate\000"
 16342      6E64726F 
 16342      62696E73 
 16342      74617465 
 16342      00
 16343              	.LASF363:
 16344 07d5 5F706375 		.ascii	"_pcurrflow\000"
 16344      7272666C 
 16344      6F7700
 16345              	.LASF180:
 16346 07e0 5F70756D 		.ascii	"_pumpstate\000"
 16346      70737461 
 16346      746500
 16347              	.LASF186:
 16348 07eb 5F726573 		.ascii	"_restoreprice\000"
 16348      746F7265 
 16348      70726963 
 16348      6500
 16349              	.LASF310:
 16350 07f9 5F73697A 		.ascii	"_size\000"
 16350      6500
 16351              	.LASF101:
 16352 07ff 44495350 		.ascii	"DISPENSER_EXECUTE_CASH_TRANSACTION\000"
 16352      454E5345 
 16352      525F4558 
 16352      45435554 
 16352      455F4341 
 16353              	.LASF84:
 16354 0822 5F6D6573 		.ascii	"_messagetimeoutmultiplier\000"
 16354      73616765 
 16354      74696D65 
 16354      6F75746D 
 16354      756C7469 
 16355              	.LASF112:
 16356 083c 44495350 		.ascii	"DISPENSER_PUMP_BEEP_WARNING\000"
 16356      454E5345 
 16356      525F5055 
 16356      4D505F42 
 16356      4545505F 
 16357              	.LASF522:
 16358 0858 76616C75 		.ascii	"value\000"
 16358      6500
 16359              	.LASF519:
 16360 085e 63617264 		.ascii	"cardinals\000"
 16360      696E616C 
 16360      7300
ARM GAS  C:\Users\RECEPC~1\AppData\Local\Temp\ccvg7Xyk.s 			page 334


 16361              	.LASF52:
 16362 0868 5F6D6573 		.ascii	"_messagetx\000"
 16362      73616765 
 16362      747800
 16363              	.LASF393:
 16364 0873 52465F4D 		.ascii	"RF_MUX_GENERAL_PRINT_RESPONSE\000"
 16364      55585F47 
 16364      454E4552 
 16364      414C5F50 
 16364      52494E54 
 16365              	.LASF450:
 16366 0891 45455052 		.ascii	"EEPROM_DISPENSER_PUMP1_PPU_INFO_PAGE\000"
 16366      4F4D5F44 
 16366      49535045 
 16366      4E534552 
 16366      5F50554D 
 16367              	.LASF422:
 16368 08b6 5F52465F 		.ascii	"_RF_AUTONOMOUS_MODE_\000"
 16368      4155544F 
 16368      4E4F4D4F 
 16368      55535F4D 
 16368      4F44455F 
 16369              	.LASF62:
 16370 08cb 55415254 		.ascii	"UART_DISPLAY1\000"
 16370      5F444953 
 16370      504C4159 
 16370      3100
 16371              	.LASF63:
 16372 08d9 55415254 		.ascii	"UART_DISPLAY2\000"
 16372      5F444953 
 16372      504C4159 
 16372      3200
 16373              	.LASF147:
 16374 08e7 5F50554D 		.ascii	"_PUMP_NETWORK_ENUMERATOR_\000"
 16374      505F4E45 
 16374      54574F52 
 16374      4B5F454E 
 16374      554D4552 
 16375              	.LASF255:
 16376 0901 44495350 		.ascii	"DISPLAY_ESPERANDO_ID\000"
 16376      4C41595F 
 16376      45535045 
 16376      52414E44 
 16376      4F5F4944 
 16377              	.LASF259:
 16378 0916 44495350 		.ascii	"DISPLAY_INTRODUZCA_KILOMETRAJE\000"
 16378      4C41595F 
 16378      494E5452 
 16378      4F44555A 
 16378      43415F4B 
 16379              	.LASF291:
 16380 0935 44495350 		.ascii	"DISPLAY_CREDIT_AUTHORIZATION_ACCEPTED\000"
 16380      4C41595F 
 16380      43524544 
 16380      49545F41 
 16380      5554484F 
 16381              	.LASF381:
ARM GAS  C:\Users\RECEPC~1\AppData\Local\Temp\ccvg7Xyk.s 			page 335


 16382 095b 52465F4D 		.ascii	"RF_MUX_CREDIT_PRESET_NOTIFICATION_RESPONSE\000"
 16382      55585F43 
 16382      52454449 
 16382      545F5052 
 16382      45534554 
 16383              	.LASF126:
 16384 0986 44495350 		.ascii	"DISPLAY2_UPDATE_DATETIME\000"
 16384      4C415932 
 16384      5F555044 
 16384      4154455F 
 16384      44415445 
 16385              	.LASF369:
 16386 099f 50444953 		.ascii	"PDISPLAYLAYOUTPTR\000"
 16386      504C4159 
 16386      4C41594F 
 16386      55545054 
 16386      5200
 16387              	.LASF102:
 16388 09b1 44495350 		.ascii	"DISPENSER_EXECUTE_CREDIT_TRANSACTION\000"
 16388      454E5345 
 16388      525F4558 
 16388      45435554 
 16388      455F4352 
 16389              	.LASF502:
 16390 09d6 43616E63 		.ascii	"CancelMessageDecorator\000"
 16390      656C4D65 
 16390      73736167 
 16390      65446563 
 16390      6F726174 
 16391              	.LASF118:
 16392 09ed 5052494E 		.ascii	"PRINTER2_GENERIC_JOB\000"
 16392      54455232 
 16392      5F47454E 
 16392      45524943 
 16392      5F4A4F42 
 16393              	.LASF267:
 16394 0a02 44495350 		.ascii	"DISPLAY_POR_FAVOR_ESPERE\000"
 16394      4C41595F 
 16394      504F525F 
 16394      4641564F 
 16394      525F4553 
 16395              	.LASF374:
 16396 0a1b 52465F4D 		.ascii	"RF_MUX_STATE_REQUEST\000"
 16396      55585F53 
 16396      54415445 
 16396      5F524551 
 16396      55455354 
 16397              	.LASF380:
 16398 0a30 52465F4D 		.ascii	"RF_MUX_CREDIT_PRESET_NOTIFICATION_REQUEST\000"
 16398      55585F43 
 16398      52454449 
 16398      545F5052 
 16398      45534554 
 16399              	.LASF272:
 16400 0a5a 44495350 		.ascii	"DISPLAY_FECHA\000"
 16400      4C41595F 
 16400      46454348 
ARM GAS  C:\Users\RECEPC~1\AppData\Local\Temp\ccvg7Xyk.s 			page 336


 16400      4100
 16401              	.LASF289:
 16402 0a68 5F444953 		.ascii	"_DISPLAY_STATES_\000"
 16402      504C4159 
 16402      5F535441 
 16402      5445535F 
 16402      00
 16403              	.LASF482:
 16404 0a79 76616C69 		.ascii	"validate\000"
 16404      64617465 
 16404      00
 16405              	.LASF477:
 16406 0a82 5254435F 		.ascii	"RTC_HOUR\000"
 16406      484F5552 
 16406      00
 16407              	.LASF0:
 16408 0a8b 7369676E 		.ascii	"signed char\000"
 16408      65642063 
 16408      68617200 
 16409              	.LASF23:
 16410 0a97 504E4541 		.ascii	"PNEAR_BYTE_PTR\000"
 16410      525F4259 
 16410      54455F50 
 16410      545200
 16411              	.LASF253:
 16412 0aa6 44495350 		.ascii	"DISPLAY_ID_DIGITAL\000"
 16412      4C41595F 
 16412      49445F44 
 16412      49474954 
 16412      414C00
 16413              	.LASF251:
 16414 0ab9 44495350 		.ascii	"DISPLAY_TIEMPO_EXPIRADO\000"
 16414      4C41595F 
 16414      5449454D 
 16414      504F5F45 
 16414      58504952 
 16415              	.LASF35:
 16416 0ad1 436C6561 		.ascii	"ClearRxBuffer\000"
 16416      72527842 
 16416      75666665 
 16416      7200
 16417              	.LASF32:
 16418 0adf 47657443 		.ascii	"GetChar\000"
 16418      68617200 
 16419              	.LASF375:
 16420 0ae7 52465F4D 		.ascii	"RF_MUX_STATE_RESPONSE\000"
 16420      55585F53 
 16420      54415445 
 16420      5F524553 
 16420      504F4E53 
 16421              	.LASF460:
 16422 0afd 45455052 		.ascii	"EEPROM_DISPENSER_PUMP13_TRANSACTION_PAGE\000"
 16422      4F4D5F44 
 16422      49535045 
 16422      4E534552 
 16422      5F50554D 
 16423              	.LASF277:
ARM GAS  C:\Users\RECEPC~1\AppData\Local\Temp\ccvg7Xyk.s 			page 337


 16424 0b26 44495350 		.ascii	"DISPLAY_USUARIO_VALIDO\000"
 16424      4C41595F 
 16424      55535541 
 16424      52494F5F 
 16424      56414C49 
 16425              	.LASF275:
 16426 0b3d 44495350 		.ascii	"DISPLAY_CERRAR_TURNO\000"
 16426      4C41595F 
 16426      43455252 
 16426      41525F54 
 16426      55524E4F 
 16427              	.LASF500:
 16428 0b52 70646973 		.ascii	"pdisplay\000"
 16428      706C6179 
 16428      00
 16429              	.LASF264:
 16430 0b5b 44495350 		.ascii	"DISPLAY_SELECCIONE_POSICION\000"
 16430      4C41595F 
 16430      53454C45 
 16430      4343494F 
 16430      4E455F50 
 16431              	.LASF311:
 16432 0b77 5F666163 		.ascii	"_face\000"
 16432      6500
 16433              	.LASF47:
 16434 0b7d 50454E44 		.ascii	"PENDING\000"
 16434      494E4700 
 16435              	.LASF122:
 16436 0b85 44495350 		.ascii	"DISPLAY1_UPDATE_DATETIME\000"
 16436      4C415931 
 16436      5F555044 
 16436      4154455F 
 16436      44415445 
 16437              	.LASF229:
 16438 0b9e 5F707265 		.ascii	"_presetdigits\000"
 16438      73657464 
 16438      69676974 
 16438      7300
 16439              	.LASF1:
 16440 0bac 756E7369 		.ascii	"unsigned char\000"
 16440      676E6564 
 16440      20636861 
 16440      7200
 16441              	.LASF217:
 16442 0bba 5F6E756D 		.ascii	"_numpositions\000"
 16442      706F7369 
 16442      74696F6E 
 16442      7300
 16443              	.LASF238:
 16444 0bc8 44495350 		.ascii	"DISPLAY_INTRODUZCA_VALOR\000"
 16444      4C41595F 
 16444      494E5452 
 16444      4F44555A 
 16444      43415F56 
 16445              	.LASF382:
 16446 0be1 52465F4D 		.ascii	"RF_MUX_CASH_SALE_START_REQUEST\000"
 16446      55585F43 
ARM GAS  C:\Users\RECEPC~1\AppData\Local\Temp\ccvg7Xyk.s 			page 338


 16446      4153485F 
 16446      53414C45 
 16446      5F535441 
 16447              	.LASF302:
 16448 0c00 44495350 		.ascii	"DISPLAY_VALID_PASSWORD\000"
 16448      4C41595F 
 16448      56414C49 
 16448      445F5041 
 16448      5353574F 
 16449              	.LASF574:
 16450 0c17 5F675F64 		.ascii	"_g_dispvalcodes\000"
 16450      69737076 
 16450      616C636F 
 16450      64657300 
 16451              	.LASF175:
 16452 0c27 5F736572 		.ascii	"_serial\000"
 16452      69616C00 
 16453              	.LASF266:
 16454 0c2f 44495350 		.ascii	"DISPLAY_ESPERANDO_AUTORIZACION\000"
 16454      4C41595F 
 16454      45535045 
 16454      52414E44 
 16454      4F5F4155 
 16455              	.LASF333:
 16456 0c4e 5F706172 		.ascii	"_parentcode\000"
 16456      656E7463 
 16456      6F646500 
 16457              	.LASF309:
 16458 0c5a 44495350 		.ascii	"DISP_TEXT_TRANSP\000"
 16458      5F544558 
 16458      545F5452 
 16458      414E5350 
 16458      00
 16459              	.LASF487:
 16460 0c6b 70756172 		.ascii	"puartdisp\000"
 16460      74646973 
 16460      7000
 16461              	.LASF45:
 16462 0c75 46524545 		.ascii	"FREE\000"
 16462      00
 16463              	.LASF418:
 16464 0c7a 52465F57 		.ascii	"RF_WORKSHIFTREQ\000"
 16464      4F524B53 
 16464      48494654 
 16464      52455100 
 16465              	.LASF349:
 16466 0c8a 5F79706F 		.ascii	"_ypos\000"
 16466      7300
 16467              	.LASF106:
 16468 0c90 44495350 		.ascii	"DISPENSER_ACQUIRE_CONFIGURATION_INFORMATION\000"
 16468      454E5345 
 16468      525F4143 
 16468      51554952 
 16468      455F434F 
 16469              	.LASF82:
 16470 0cbc 5F6D6573 		.ascii	"_messagedelay\000"
 16470      73616765 
ARM GAS  C:\Users\RECEPC~1\AppData\Local\Temp\ccvg7Xyk.s 			page 339


 16470      64656C61 
 16470      7900
 16471              	.LASF224:
 16472 0cca 5F766F6C 		.ascii	"_volumedecimals\000"
 16472      756D6564 
 16472      6563696D 
 16472      616C7300 
 16473              	.LASF44:
 16474 0cda 5F426F6F 		.ascii	"_Bool\000"
 16474      6C00
 16475              	.LASF332:
 16476 0ce0 5F706172 		.ascii	"_parentscrid\000"
 16476      656E7473 
 16476      63726964 
 16476      00
 16477              	.LASF219:
 16478 0ced 5F686F73 		.ascii	"_hosesposition2\000"
 16478      6573706F 
 16478      73697469 
 16478      6F6E3200 
 16479              	.LASF174:
 16480 0cfd 5F766F6C 		.ascii	"_volumeamount\000"
 16480      756D6561 
 16480      6D6F756E 
 16480      7400
 16481              	.LASF345:
 16482 0d0b 5F66696E 		.ascii	"_finalizer\000"
 16482      616C697A 
 16482      657200
 16483              	.LASF36:
 16484 0d16 57726974 		.ascii	"WriteTxData\000"
 16484      65547844 
 16484      61746100 
 16485              	.LASF323:
 16486 0d22 46505452 		.ascii	"FPTRINPUTHANDLER\000"
 16486      494E5055 
 16486      5448414E 
 16486      444C4552 
 16486      00
 16487              	.LASF76:
 16488 0d33 53494E4B 		.ascii	"SINK_ALLOCATED\000"
 16488      5F414C4C 
 16488      4F434154 
 16488      454400
 16489              	.LASF107:
 16490 0d42 44495350 		.ascii	"DISPENSER_CONFIGURE_PRICES\000"
 16490      454E5345 
 16490      525F434F 
 16490      4E464947 
 16490      5552455F 
 16491              	.LASF208:
 16492 0d5d 50756D70 		.ascii	"PumpTransQueueDequeue\000"
 16492      5472616E 
 16492      73517565 
 16492      75654465 
 16492      71756575 
 16493              	.LASF19:
ARM GAS  C:\Users\RECEPC~1\AppData\Local\Temp\ccvg7Xyk.s 			page 340


 16494 0d73 63686172 		.ascii	"char\000"
 16494      00
 16495              	.LASF401:
 16496 0d78 52465F4D 		.ascii	"RF_MUX_LAST_CASH_SALE_RESPONSE\000"
 16496      55585F4C 
 16496      4153545F 
 16496      43415348 
 16496      5F53414C 
 16497              	.LASF394:
 16498 0d97 52465F4D 		.ascii	"RF_MUX_CREDIT_SALE_PRINT_REQUEST\000"
 16498      55585F43 
 16498      52454449 
 16498      545F5341 
 16498      4C455F50 
 16499              	.LASF279:
 16500 0db8 44495350 		.ascii	"DISPLAY_AMBAS_IMPRESORAS_FUNCIONANDO\000"
 16500      4C41595F 
 16500      414D4241 
 16500      535F494D 
 16500      50524553 
 16501              	.LASF72:
 16502 0ddd 42524F41 		.ascii	"BROADCASTFOREVER\000"
 16502      44434153 
 16502      54464F52 
 16502      45564552 
 16502      00
 16503              	.LASF125:
 16504 0dee 44495350 		.ascii	"DISPLAY2_MESSAGE\000"
 16504      4C415932 
 16504      5F4D4553 
 16504      53414745 
 16504      00
 16505              	.LASF195:
 16506 0dff 5F747261 		.ascii	"_transhealth\000"
 16506      6E736865 
 16506      616C7468 
 16506      00
 16507              	.LASF364:
 16508 0e0c 5F707265 		.ascii	"_preferenceflow\000"
 16508      66657265 
 16508      6E636566 
 16508      6C6F7700 
 16509              	.LASF60:
 16510 0e1c 55415254 		.ascii	"UART_PRINTER\000"
 16510      5F505249 
 16510      4E544552 
 16510      00
 16511              	.LASF447:
 16512 0e29 45455052 		.ascii	"EEPROM_DISPENSER_PUMP2_PRODUCT_NAMES_PAGE\000"
 16512      4F4D5F44 
 16512      49535045 
 16512      4E534552 
 16512      5F50554D 
 16513              	.LASF222:
 16514 0e53 5F6D6F6E 		.ascii	"_moneydecimals\000"
 16514      65796465 
 16514      63696D61 
ARM GAS  C:\Users\RECEPC~1\AppData\Local\Temp\ccvg7Xyk.s 			page 341


 16514      6C7300
 16515              	.LASF320:
 16516 0e62 46696E61 		.ascii	"Finalizer\000"
 16516      6C697A65 
 16516      7200
 16517              	.LASF31:
 16518 0e6c 52656164 		.ascii	"ReadRxStatus\000"
 16518      52785374 
 16518      61747573 
 16518      00
 16519              	.LASF133:
 16520 0e79 50535452 		.ascii	"PSTR\000"
 16520      00
 16521              	.LASF226:
 16522 0e7e 5F6D696E 		.ascii	"_minmoneyvalue\000"
 16522      6D6F6E65 
 16522      7976616C 
 16522      756500
 16523              	.LASF365:
 16524 0e8d 5F627566 		.ascii	"_bufferinfo\000"
 16524      66657269 
 16524      6E666F00 
 16525              	.LASF190:
 16526 0e99 5F706F73 		.ascii	"_positionlocked\000"
 16526      6974696F 
 16526      6E6C6F63 
 16526      6B656400 
 16527              	.LASF503:
 16528 0ea9 706D6573 		.ascii	"pmessage\000"
 16528      73616765 
 16528      00
 16529              	.LASF458:
 16530 0eb2 45455052 		.ascii	"EEPROM_DISPENSER_PUMP11_TRANSACTION_PAGE\000"
 16530      4F4D5F44 
 16530      49535045 
 16530      4E534552 
 16530      5F50554D 
 16531              	.LASF464:
 16532 0edb 45455052 		.ascii	"EEPROM_DISPENSER_PUMP23_TRANSACTION_PAGE\000"
 16532      4F4D5F44 
 16532      49535045 
 16532      4E534552 
 16532      5F50554D 
 16533              	.LASF336:
 16534 0f04 5F706174 		.ascii	"_pathcodes\000"
 16534      68636F64 
 16534      657300
 16535              	.LASF41:
 16536 0f0f 50757443 		.ascii	"PutCRLF\000"
 16536      524C4600 
 16537              	.LASF486:
 16538 0f17 70627566 		.ascii	"pbuffer\000"
 16538      66657200 
 16539              	.LASF517:
 16540 0f1f 65657072 		.ascii	"eepromcardpage\000"
 16540      6F6D6361 
 16540      72647061 
ARM GAS  C:\Users\RECEPC~1\AppData\Local\Temp\ccvg7Xyk.s 			page 342


 16540      676500
 16541              	.LASF201:
 16542 0f2e 5F747261 		.ascii	"_transqueuelocked\000"
 16542      6E737175 
 16542      6575656C 
 16542      6F636B65 
 16542      6400
 16543              	.LASF171:
 16544 0f40 5F686F73 		.ascii	"_hoseid\000"
 16544      65696400 
 16545              	.LASF314:
 16546 0f48 5F666F72 		.ascii	"_forecolor\000"
 16546      65636F6C 
 16546      6F7200
 16547              	.LASF300:
 16548 0f53 44495350 		.ascii	"DISPLAY_NEW_PASSWORD\000"
 16548      4C41595F 
 16548      4E45575F 
 16548      50415353 
 16548      574F5244 
 16549              	.LASF396:
 16550 0f68 52465F4D 		.ascii	"RF_MUX_CASH_SALE_PRINT_REQUEST\000"
 16550      55585F43 
 16550      4153485F 
 16550      53414C45 
 16550      5F505249 
 16551              	.LASF244:
 16552 0f87 44495350 		.ascii	"DISPLAY_BAJE_MANIJA\000"
 16552      4C41595F 
 16552      42414A45 
 16552      5F4D414E 
 16552      494A4100 
 16553              	.LASF360:
 16554 0f9b 5F76616C 		.ascii	"_val0\000"
 16554      3000
 16555              	.LASF114:
 16556 0fa1 5052494E 		.ascii	"PRINTER12_JOB\000"
 16556      54455231 
 16556      325F4A4F 
 16556      4200
 16557              	.LASF445:
 16558 0faf 45455052 		.ascii	"EEPROM_DISPENSER_PUMP4_LAYOUT_PAGE\000"
 16558      4F4D5F44 
 16558      49535045 
 16558      4E534552 
 16558      5F50554D 
 16559              	.LASF134:
 16560 0fd2 5F545241 		.ascii	"_TRANSACTION_NAMES_\000"
 16560      4E534143 
 16560      54494F4E 
 16560      5F4E414D 
 16560      45535F00 
 16561              	.LASF506:
 16562 0fe6 576F726B 		.ascii	"WorkShiftDecorator\000"
 16562      53686966 
 16562      74446563 
 16562      6F726174 
ARM GAS  C:\Users\RECEPC~1\AppData\Local\Temp\ccvg7Xyk.s 			page 343


 16562      6F7200
 16563              	.LASF83:
 16564 0ff9 5F6D6573 		.ascii	"_messagetimeout\000"
 16564      73616765 
 16564      74696D65 
 16564      6F757400 
 16565              	.LASF378:
 16566 1009 52465F4D 		.ascii	"RF_MUX_CREDIT_PRESET_AUTHORIZATION_REQUEST\000"
 16566      55585F43 
 16566      52454449 
 16566      545F5052 
 16566      45534554 
 16567              	.LASF237:
 16568 1034 44495350 		.ascii	"DISPLAY_FORMA_PROGRAMACION\000"
 16568      4C41595F 
 16568      464F524D 
 16568      415F5052 
 16568      4F475241 
 16569              	.LASF39:
 16570 104f 50757453 		.ascii	"PutString\000"
 16570      7472696E 
 16570      6700
 16571              	.LASF151:
 16572 1059 5F50554D 		.ascii	"_PUMP_COMPLETE_CONFIGURATION_\000"
 16572      505F434F 
 16572      4D504C45 
 16572      54455F43 
 16572      4F4E4649 
 16573              	.LASF549:
 16574 1077 70756D70 		.ascii	"pumpavstates\000"
 16574      61767374 
 16574      61746573 
 16574      00
 16575              	.LASF561:
 16576 1084 73686966 		.ascii	"shiftbydelimiter\000"
 16576      74627964 
 16576      656C696D 
 16576      69746572 
 16576      00
 16577              	.LASF25:
 16578 1095 43757374 		.ascii	"CustomUARTSend\000"
 16578      6F6D5541 
 16578      52545365 
 16578      6E6400
 16579              	.LASF321:
 16580 10a4 46505452 		.ascii	"FPTRDECORATOR\000"
 16580      4445434F 
 16580      5241544F 
 16580      5200
 16581              	.LASF525:
 16582 10b2 70756D70 		.ascii	"pumpindex\000"
 16582      696E6465 
 16582      7800
 16583              	.LASF475:
 16584 10bc 5254435F 		.ascii	"RTC_SECONDS\000"
 16584      5345434F 
 16584      4E445300 
ARM GAS  C:\Users\RECEPC~1\AppData\Local\Temp\ccvg7Xyk.s 			page 344


 16585              	.LASF388:
 16586 10c8 52465F4D 		.ascii	"RF_MUX_TOTALS_REPORT_REQUEST\000"
 16586      55585F54 
 16586      4F54414C 
 16586      535F5245 
 16586      504F5254 
 16587              	.LASF299:
 16588 10e5 44495350 		.ascii	"DISPLAY_WORK_SHIFT_OPERATOR_REJECTED\000"
 16588      4C41595F 
 16588      574F524B 
 16588      5F534849 
 16588      46545F4F 
 16589              	.LASF318:
 16590 110a 496E7075 		.ascii	"InputHandler\000"
 16590      7448616E 
 16590      646C6572 
 16590      00
 16591              	.LASF223:
 16592 1117 5F707075 		.ascii	"_ppudecimals\000"
 16592      64656369 
 16592      6D616C73 
 16592      00
 16593              	.LASF178:
 16594 1124 5F70756D 		.ascii	"_pumpid\000"
 16594      70696400 
 16595              	.LASF233:
 16596 112c 44495350 		.ascii	"DISPLAY_INICIO0\000"
 16596      4C41595F 
 16596      494E4943 
 16596      494F3000 
 16597              	.LASF234:
 16598 113c 44495350 		.ascii	"DISPLAY_INICIO1\000"
 16598      4C41595F 
 16598      494E4943 
 16598      494F3100 
 16599              	.LASF235:
 16600 114c 44495350 		.ascii	"DISPLAY_INICIO2\000"
 16600      4C41595F 
 16600      494E4943 
 16600      494F3200 
 16601              	.LASF70:
 16602 115c 44454C41 		.ascii	"DELAYEDALLINTERESTED\000"
 16602      59454441 
 16602      4C4C494E 
 16602      54455245 
 16602      53544544 
 16603              	.LASF489:
 16604 1171 66707472 		.ascii	"fptrvalidator\000"
 16604      76616C69 
 16604      6461746F 
 16604      7200
 16605              	.LASF198:
 16606 117f 5F727862 		.ascii	"_rxbuffer\000"
 16606      75666665 
 16606      7200
 16607              	.LASF491:
 16608 1189 44697370 		.ascii	"Display1Logic\000"
ARM GAS  C:\Users\RECEPC~1\AppData\Local\Temp\ccvg7Xyk.s 			page 345


 16608      6C617931 
 16608      4C6F6769 
 16608      6300
 16609              	.LASF155:
 16610 1197 504E4541 		.ascii	"PNEAR_PUMPTRANSACTIONALSTATEPTR\000"
 16610      525F5055 
 16610      4D505452 
 16610      414E5341 
 16610      4354494F 
 16611              	.LASF355:
 16612 11b7 5F637572 		.ascii	"_currscrcode\000"
 16612      72736372 
 16612      636F6465 
 16612      00
 16613              	.LASF278:
 16614 11c4 44495350 		.ascii	"DISPLAY_USUARIO_INVALIDO\000"
 16614      4C41595F 
 16614      55535541 
 16614      52494F5F 
 16614      494E5641 
 16615              	.LASF424:
 16616 11dd 52465F4E 		.ascii	"RF_NON_AUTONOMOUS\000"
 16616      4F4E5F41 
 16616      55544F4E 
 16616      4F4D4F55 
 16616      5300
 16617              	.LASF496:
 16618 11ef 44726177 		.ascii	"DrawNumberOfCopies\000"
 16618      4E756D62 
 16618      65724F66 
 16618      436F7069 
 16618      657300
 16619              	.LASF453:
 16620 1202 45455052 		.ascii	"EEPROM_DISPENSER_PUMP4_PPU_INFO_PAGE\000"
 16620      4F4D5F44 
 16620      49535045 
 16620      4E534552 
 16620      5F50554D 
 16621              	.LASF575:
 16622 1227 5F675F63 		.ascii	"_g_configured\000"
 16622      6F6E6669 
 16622      67757265 
 16622      6400
 16623              	.LASF197:
 16624 1235 5F747261 		.ascii	"_trasactionbuffer\000"
 16624      73616374 
 16624      696F6E62 
 16624      75666665 
 16624      7200
 16625              	.LASF356:
 16626 1247 5F637572 		.ascii	"_currentstate\000"
 16626      72656E74 
 16626      73746174 
 16626      6500
 16627              	.LASF565:
 16628 1255 5F675F70 		.ascii	"_g_pumps\000"
 16628      756D7073 
ARM GAS  C:\Users\RECEPC~1\AppData\Local\Temp\ccvg7Xyk.s 			page 346


 16628      00
 16629              	.LASF511:
 16630 125e 696E6465 		.ascii	"index\000"
 16630      7800
 16631              	.LASF537:
 16632 1264 7073696E 		.ascii	"psinkmsg\000"
 16632      6B6D7367 
 16632      00
 16633              	.LASF298:
 16634 126d 44495350 		.ascii	"DISPLAY_WORK_SHIFT_OPERATOR_ACCEPTED\000"
 16634      4C41595F 
 16634      574F524B 
 16634      5F534849 
 16634      46545F4F 
 16635              	.LASF176:
 16636 1292 50756D70 		.ascii	"PumpAuthorizationInfo\000"
 16636      41757468 
 16636      6F72697A 
 16636      6174696F 
 16636      6E496E66 
 16637              	.LASF454:
 16638 12a8 45455052 		.ascii	"EEPROM_INSEPET_RESERVED_PAGE1\000"
 16638      4F4D5F49 
 16638      4E534550 
 16638      45545F52 
 16638      45534552 
 16639              	.LASF455:
 16640 12c6 45455052 		.ascii	"EEPROM_INSEPET_RESERVED_PAGE2\000"
 16640      4F4D5F49 
 16640      4E534550 
 16640      45545F52 
 16640      45534552 
 16641              	.LASF425:
 16642 12e4 5F746F61 		.ascii	"_toautonomoustimetoken\000"
 16642      75746F6E 
 16642      6F6D6F75 
 16642      7374696D 
 16642      65746F6B 
 16643              	.LASF457:
 16644 12fb 45455052 		.ascii	"EEPROM_INSEPET_RESERVED_PAGE4\000"
 16644      4F4D5F49 
 16644      4E534550 
 16644      45545F52 
 16644      45534552 
 16645              	.LASF194:
 16646 1319 5F727476 		.ascii	"_rtvolumeamount\000"
 16646      6F6C756D 
 16646      65616D6F 
 16646      756E7400 
 16647              	.LASF449:
 16648 1329 45455052 		.ascii	"EEPROM_DISPENSER_PUMP4_PRODUCT_NAMES_PAGE\000"
 16648      4F4D5F44 
 16648      49535045 
 16648      4E534552 
 16648      5F50554D 
 16649              	.LASF398:
 16650 1353 52465F4D 		.ascii	"RF_MUX_PENDING_CREDIT_SALE_REQUEST\000"
ARM GAS  C:\Users\RECEPC~1\AppData\Local\Temp\ccvg7Xyk.s 			page 347


 16650      55585F50 
 16650      454E4449 
 16650      4E475F43 
 16650      52454449 
 16651              	.LASF558:
 16652 1376 43617374 		.ascii	"CastCreditVolumeValue\000"
 16652      43726564 
 16652      6974566F 
 16652      6C756D65 
 16652      56616C75 
 16653              	.LASF562:
 16654 138c 73686966 		.ascii	"shiftcount\000"
 16654      74636F75 
 16654      6E7400
 16655              	.LASF347:
 16656 1397 50444953 		.ascii	"PDISPLAYFLOWPTR\000"
 16656      504C4159 
 16656      464C4F57 
 16656      50545200 
 16657              	.LASF73:
 16658 13a7 414C4C49 		.ascii	"ALLINTERESTEDFOREVER\000"
 16658      4E544552 
 16658      45535445 
 16658      44464F52 
 16658      45564552 
 16659              	.LASF550:
 16660 13bc 70756D70 		.ascii	"pumpsprintstate\000"
 16660      73707269 
 16660      6E747374 
 16660      61746500 
 16661              	.LASF512:
 16662 13cc 41757468 		.ascii	"AuthorizationMessageDecorator\000"
 16662      6F72697A 
 16662      6174696F 
 16662      6E4D6573 
 16662      73616765 
 16663              	.LASF215:
 16664 13ea 5F696E63 		.ascii	"_inconfiguration\000"
 16664      6F6E6669 
 16664      67757261 
 16664      74696F6E 
 16664      00
 16665              	.LASF357:
 16666 13fb 5F737461 		.ascii	"_statechangescrid\000"
 16666      74656368 
 16666      616E6765 
 16666      73637269 
 16666      6400
 16667              	.LASF557:
 16668 140d 7061796D 		.ascii	"paymodel\000"
 16668      6F64656C 
 16668      00
 16669              	.LASF143:
 16670 1416 5F50554D 		.ascii	"_PUMP_STATE_\000"
 16670      505F5354 
 16670      4154455F 
 16670      00
ARM GAS  C:\Users\RECEPC~1\AppData\Local\Temp\ccvg7Xyk.s 			page 348


 16671              	.LASF329:
 16672 1423 5F666F6E 		.ascii	"_font\000"
 16672      7400
 16673              	.LASF5:
 16674 1429 6C6F6E67 		.ascii	"long unsigned int\000"
 16674      20756E73 
 16674      69676E65 
 16674      6420696E 
 16674      7400
 16675              	.LASF335:
 16676 143b 5F74696D 		.ascii	"_timeoutscrid\000"
 16676      656F7574 
 16676      73637269 
 16676      6400
 16677              	.LASF148:
 16678 1449 5F50554D 		.ascii	"_PUMP_PROGRAM_MODE_\000"
 16678      505F5052 
 16678      4F475241 
 16678      4D5F4D4F 
 16678      44455F00 
 16679              	.LASF283:
 16680 145d 44495350 		.ascii	"DISPLAY_DUMMY0\000"
 16680      4C41595F 
 16680      44554D4D 
 16680      593000
 16681              	.LASF284:
 16682 146c 44495350 		.ascii	"DISPLAY_DUMMY1\000"
 16682      4C41595F 
 16682      44554D4D 
 16682      593100
 16683              	.LASF285:
 16684 147b 44495350 		.ascii	"DISPLAY_DUMMY2\000"
 16684      4C41595F 
 16684      44554D4D 
 16684      593200
 16685              	.LASF286:
 16686 148a 44495350 		.ascii	"DISPLAY_DUMMY3\000"
 16686      4C41595F 
 16686      44554D4D 
 16686      593300
 16687              	.LASF263:
 16688 1499 44495350 		.ascii	"DISPLAY_IMPRIMIENDO_RECIBO\000"
 16688      4C41595F 
 16688      494D5052 
 16688      494D4945 
 16688      4E444F5F 
 16689              	.LASF232:
 16690 14b4 5F415641 		.ascii	"_AVAILABLE_DISPLAYS_\000"
 16690      494C4142 
 16690      4C455F44 
 16690      4953504C 
 16690      4159535F 
 16691              	.LASF474:
 16692 14c9 5F525443 		.ascii	"_RTC_VALUES_POS_\000"
 16692      5F56414C 
 16692      5545535F 
 16692      504F535F 
ARM GAS  C:\Users\RECEPC~1\AppData\Local\Temp\ccvg7Xyk.s 			page 349


 16692      00
 16693              	.LASF385:
 16694 14da 52465F4D 		.ascii	"RF_MUX_CASH_SALE_END_REPORT_RESPONSE\000"
 16694      55585F43 
 16694      4153485F 
 16694      53414C45 
 16694      5F454E44 
 16695              	.LASF481:
 16696 14ff 706D7367 		.ascii	"pmsg\000"
 16696      00
 16697              	.LASF88:
 16698 1504 5F706461 		.ascii	"_pdata\000"
 16698      746100
 16699              	.LASF271:
 16700 150b 44495350 		.ascii	"DISPLAY_HORA\000"
 16700      4C41595F 
 16700      484F5241 
 16700      00
 16701              	.LASF547:
 16702 1518 44726177 		.ascii	"DrawHomeDateTime\000"
 16702      486F6D65 
 16702      44617465 
 16702      54696D65 
 16702      00
 16703              	.LASF514:
 16704 1529 41636365 		.ascii	"AcceptedAuthorizationMessageDecorator\000"
 16704      70746564 
 16704      41757468 
 16704      6F72697A 
 16704      6174696F 
 16705              	.LASF38:
 16706 154f 50757443 		.ascii	"PutChar\000"
 16706      68617200 
 16707              	.LASF100:
 16708 1557 44495350 		.ascii	"DISPENSER_ACQUIRE_PUMP_HOSE\000"
 16708      454E5345 
 16708      525F4143 
 16708      51554952 
 16708      455F5055 
 16709              	.LASF292:
 16710 1573 44495350 		.ascii	"DISPLAY_CREDIT_AUTHORIZATION_REJECTED\000"
 16710      4C41595F 
 16710      43524544 
 16710      49545F41 
 16710      5554484F 
 16711              	.LASF508:
 16712 1599 77737661 		.ascii	"wsvalue\000"
 16712      6C756500 
 16713              	.LASF426:
 16714 15a1 5F74696D 		.ascii	"_timeouttoautonomous\000"
 16714      656F7574 
 16714      746F6175 
 16714      746F6E6F 
 16714      6D6F7573 
 16715              	.LASF340:
 16716 15b6 5F646563 		.ascii	"_decorator\000"
 16716      6F726174 
ARM GAS  C:\Users\RECEPC~1\AppData\Local\Temp\ccvg7Xyk.s 			page 350


 16716      6F7200
 16717              	.LASF325:
 16718 15c1 46505452 		.ascii	"FPTRFINALIZER\000"
 16718      46494E41 
 16718      4C495A45 
 16718      5200
 16719              	.LASF412:
 16720 15cf 52465F4D 		.ascii	"RF_MUX_NULL\000"
 16720      55585F4E 
 16720      554C4C00 
 16721              	.LASF61:
 16722 15db 55415254 		.ascii	"UART_DISPENSER\000"
 16722      5F444953 
 16722      50454E53 
 16722      455200
 16723              	.LASF529:
 16724 15ea 44697370 		.ascii	"DisplayStationIDDecorator\000"
 16724      6C617953 
 16724      74617469 
 16724      6F6E4944 
 16724      4465636F 
 16725              	.LASF256:
 16726 1604 44495350 		.ascii	"DISPLAY_ID_RECONOCIDO\000"
 16726      4C41595F 
 16726      49445F52 
 16726      45434F4E 
 16726      4F434944 
 16727              	.LASF478:
 16728 161a 5254435F 		.ascii	"RTC_DAY\000"
 16728      44415900 
 16729              	.LASF556:
 16730 1622 72657476 		.ascii	"retval\000"
 16730      616C00
 16731              	.LASF471:
 16732 1629 45455052 		.ascii	"EEPROM_DISPENSER_PUMP42_TRANSACTION_PAGE\000"
 16732      4F4D5F44 
 16732      49535045 
 16732      4E534552 
 16732      5F50554D 
 16733              	.LASF371:
 16734 1652 5F636F6C 		.ascii	"_colontoggler\000"
 16734      6F6E746F 
 16734      67676C65 
 16734      7200
 16735              	.LASF177:
 16736 1660 5F50554D 		.ascii	"_PUMP_LAYOUT_\000"
 16736      505F4C41 
 16736      594F5554 
 16736      5F00
 16737              	.LASF564:
 16738 166e 5F675F73 		.ascii	"_g_stationidentifier\000"
 16738      74617469 
 16738      6F6E6964 
 16738      656E7469 
 16738      66696572 
 16739              	.LASF132:
 16740 1683 57415443 		.ascii	"WATCHDOG_STARTUP\000"
ARM GAS  C:\Users\RECEPC~1\AppData\Local\Temp\ccvg7Xyk.s 			page 351


 16740      48444F47 
 16740      5F535441 
 16740      52545550 
 16740      00
 16741              	.LASF280:
 16742 1694 44495350 		.ascii	"DISPLAY_IMPRESORA_NO_FUNCIONANDO\000"
 16742      4C41595F 
 16742      494D5052 
 16742      45534F52 
 16742      415F4E4F 
 16743              	.LASF42:
 16744 16b5 436C6561 		.ascii	"ClearTxBuffer\000"
 16744      72547842 
 16744      75666665 
 16744      7200
 16745              	.LASF479:
 16746 16c3 5254435F 		.ascii	"RTC_MONTH\000"
 16746      4D4F4E54 
 16746      4800
 16747              	.LASF247:
 16748 16cd 44495350 		.ascii	"DISPLAY_INGRESE_PASSWORD\000"
 16748      4C41595F 
 16748      494E4752 
 16748      4553455F 
 16748      50415353 
 16749              	.LASF330:
 16750 16e6 44697370 		.ascii	"DisplayInputBox\000"
 16750      6C617949 
 16750      6E707574 
 16750      426F7800 
 16751              	.LASF308:
 16752 16f6 44495350 		.ascii	"DISP_TEXT_OPAQUE\000"
 16752      5F544558 
 16752      545F4F50 
 16752      41515545 
 16752      00
 16753              	.LASF387:
 16754 1707 52465F4D 		.ascii	"RF_MUX_TOTALS_RESPONSE\000"
 16754      55585F54 
 16754      4F54414C 
 16754      535F5245 
 16754      53504F4E 
 16755              	.LASF6:
 16756 171e 6C6F6E67 		.ascii	"long long int\000"
 16756      206C6F6E 
 16756      6720696E 
 16756      7400
 16757              	.LASF268:
 16758 172c 44495350 		.ascii	"DISPLAY_AUTORIZACION_ACEPTADA\000"
 16758      4C41595F 
 16758      4155544F 
 16758      52495A41 
 16758      43494F4E 
 16759              	.LASF488:
 16760 174a 66707472 		.ascii	"fptrdecorator\000"
 16760      6465636F 
 16760      7261746F 
ARM GAS  C:\Users\RECEPC~1\AppData\Local\Temp\ccvg7Xyk.s 			page 352


 16760      7200
 16761              	.LASF367:
 16762 1758 44697370 		.ascii	"DisplayValidator\000"
 16762      6C617956 
 16762      616C6964 
 16762      61746F72 
 16762      00
 16763              	.LASF246:
 16764 1769 44495350 		.ascii	"DISPLAY_DESEA_IMPRIMIR_RECIBO\000"
 16764      4C41595F 
 16764      44455345 
 16764      415F494D 
 16764      5052494D 
 16765              	.LASF252:
 16766 1787 44495350 		.ascii	"DISPLAY_GRACIAS_VUELVA_PRONTO\000"
 16766      4C41595F 
 16766      47524143 
 16766      4941535F 
 16766      5655454C 
 16767              	.LASF415:
 16768 17a5 52465F44 		.ascii	"RF_DELIVERING\000"
 16768      454C4956 
 16768      4552494E 
 16768      4700
 16769              	.LASF98:
 16770 17b3 44495350 		.ascii	"DISPENSER_UPDATE_PUMP_TRANSACTION_TIMEOUTS\000"
 16770      454E5345 
 16770      525F5550 
 16770      44415445 
 16770      5F50554D 
 16771              	.LASF527:
 16772 17de 44697370 		.ascii	"DisplayStationIDLoad\000"
 16772      6C617953 
 16772      74617469 
 16772      6F6E4944 
 16772      4C6F6164 
 16773              	.LASF113:
 16774 17f3 5052494E 		.ascii	"PRINTER11_JOB\000"
 16774      54455231 
 16774      315F4A4F 
 16774      4200
 16775              	.LASF353:
 16776 1801 5F73696E 		.ascii	"_sinktarget\000"
 16776      6B746172 
 16776      67657400 
 16777              	.LASF322:
 16778 180d 46505452 		.ascii	"FPTRINPUTVALIDATOR\000"
 16778      494E5055 
 16778      5456414C 
 16778      49444154 
 16778      4F5200
 16779              	.LASF338:
 16780 1820 5F737461 		.ascii	"_statecodes\000"
 16780      7465636F 
 16780      64657300 
 16781              	.LASF16:
 16782 182c 646F7562 		.ascii	"double\000"
ARM GAS  C:\Users\RECEPC~1\AppData\Local\Temp\ccvg7Xyk.s 			page 353


 16782      6C6500
 16783              	.LASF467:
 16784 1833 45455052 		.ascii	"EEPROM_DISPENSER_PUMP32_TRANSACTION_PAGE\000"
 16784      4F4D5F44 
 16784      49535045 
 16784      4E534552 
 16784      5F50554D 
 16785              	.LASF248:
 16786 185c 44495350 		.ascii	"DISPLAY_PASSWORD_VALIDO\000"
 16786      4C41595F 
 16786      50415353 
 16786      574F5244 
 16786      5F56414C 
 16787              	.LASF443:
 16788 1874 45455052 		.ascii	"EEPROM_DISPENSER_PUMP2_LAYOUT_PAGE\000"
 16788      4F4D5F44 
 16788      49535045 
 16788      4E534552 
 16788      5F50554D 
 16789              	.LASF543:
 16790 1897 5465726D 		.ascii	"TerminateUpdateDateTime\000"
 16790      696E6174 
 16790      65557064 
 16790      61746544 
 16790      61746554 
 16791              	.LASF490:
 16792 18af 66707472 		.ascii	"fptrhandler\000"
 16792      68616E64 
 16792      6C657200 
 16793              	.LASF579:
 16794 18bb 433A5C54 		.ascii	"C:\\TeamInsepet\\NSX-Prime\\Hardware\\CorEx-MUX-Ker"
 16794      65616D49 
 16794      6E736570 
 16794      65745C4E 
 16794      53582D50 
 16795 18ea 6E656C2D 		.ascii	"nel-Enhanced\\Workspace01\\CorEx-Mux-Kernel.cydsn\000"
 16795      456E6861 
 16795      6E636564 
 16795      5C576F72 
 16795      6B737061 
 16796              	.LASF331:
 16797 191a 5F736372 		.ascii	"_scrid\000"
 16797      696400
 16798              	.LASF240:
 16799 1921 44495350 		.ascii	"DISPLAY_SELECCIONE_PRODUCTO3\000"
 16799      4C41595F 
 16799      53454C45 
 16799      4343494F 
 16799      4E455F50 
 16800              	.LASF241:
 16801 193e 44495350 		.ascii	"DISPLAY_SELECCIONE_PRODUCTO4\000"
 16801      4C41595F 
 16801      53454C45 
 16801      4343494F 
 16801      4E455F50 
 16802              	.LASF531:
 16803 195b 44697370 		.ascii	"DisplayPumpIDOffsetLoad\000"
ARM GAS  C:\Users\RECEPC~1\AppData\Local\Temp\ccvg7Xyk.s 			page 354


 16803      6C617950 
 16803      756D7049 
 16803      444F6666 
 16803      7365744C 
 16804              	.LASF249:
 16805 1973 44495350 		.ascii	"DISPLAY_PASSWORD_INVALIDO\000"
 16805      4C41595F 
 16805      50415353 
 16805      574F5244 
 16805      5F494E56 
 16806              	.LASF193:
 16807 198d 5F72746D 		.ascii	"_rtmoneyamount\000"
 16807      6F6E6579 
 16807      616D6F75 
 16807      6E7400
 16808              	.LASF563:
 16809 199c 49544D5F 		.ascii	"ITM_RxBuffer\000"
 16809      52784275 
 16809      66666572 
 16809      00
 16810              	.LASF358:
 16811 19a9 5F74696D 		.ascii	"_timeoutreftick\000"
 16811      656F7574 
 16811      72656674 
 16811      69636B00 
 16812              	.LASF79:
 16813 19b9 5F73656C 		.ascii	"_selfkill\000"
 16813      666B696C 
 16813      6C00
 16814              	.LASF505:
 16815 19c3 62756666 		.ascii	"buff\000"
 16815      00
 16816              	.LASF15:
 16817 19c8 666C6F61 		.ascii	"float\000"
 16817      7400
 16818              	.LASF470:
 16819 19ce 45455052 		.ascii	"EEPROM_DISPENSER_PUMP41_TRANSACTION_PAGE\000"
 16819      4F4D5F44 
 16819      49535045 
 16819      4E534552 
 16819      5F50554D 
 16820              	.LASF351:
 16821 19f7 44697370 		.ascii	"DisplayBuffer\000"
 16821      6C617942 
 16821      75666665 
 16821      7200
 16822              	.LASF168:
 16823 1a05 50756D70 		.ascii	"PumpDataContainer\000"
 16823      44617461 
 16823      436F6E74 
 16823      61696E65 
 16823      7200
 16824              	.LASF294:
 16825 1a17 44495350 		.ascii	"DISPLAY_HOSE_ACTIVATED\000"
 16825      4C41595F 
 16825      484F5345 
 16825      5F414354 
ARM GAS  C:\Users\RECEPC~1\AppData\Local\Temp\ccvg7Xyk.s 			page 355


 16825      49564154 
 16826              	.LASF439:
 16827 1a2e 45455052 		.ascii	"EEPROM_CONFIGURATION_PAGE5\000"
 16827      4F4D5F43 
 16827      4F4E4649 
 16827      47555241 
 16827      54494F4E 
 16828              	.LASF172:
 16829 1a49 5F707269 		.ascii	"_price\000"
 16829      636500
 16830              	.LASF515:
 16831 1a50 50726F64 		.ascii	"ProductNameSelectionDecorator\000"
 16831      7563744E 
 16831      616D6553 
 16831      656C6563 
 16831      74696F6E 
 16832              	.LASF8:
 16833 1a6e 756E7369 		.ascii	"unsigned int\000"
 16833      676E6564 
 16833      20696E74 
 16833      00
 16834              	.LASF37:
 16835 1a7b 52656164 		.ascii	"ReadTxStatus\000"
 16835      54785374 
 16835      61747573 
 16835      00
 16836              	.LASF254:
 16837 1a88 44495350 		.ascii	"DISPLAY_ID_NO_RECONOCIDO\000"
 16837      4C41595F 
 16837      49445F4E 
 16837      4F5F5245 
 16837      434F4E4F 
 16838              	.LASF90:
 16839 1aa1 5053494E 		.ascii	"PSINKMESSAGEPTR\000"
 16839      4B4D4553 
 16839      53414745 
 16839      50545200 
 16840              	.LASF559:
 16841 1ab1 62756666 		.ascii	"buffersize\000"
 16841      65727369 
 16841      7A6500
 16842              	.LASF560:
 16843 1abc 64656C69 		.ascii	"delimiterindex\000"
 16843      6D697465 
 16843      72696E64 
 16843      657800
 16844              	.LASF245:
 16845 1acb 44495350 		.ascii	"DISPLAY_DIGITE_PLACA\000"
 16845      4C41595F 
 16845      44494749 
 16845      54455F50 
 16845      4C414341 
 16846              	.LASF67:
 16847 1ae0 42524F41 		.ascii	"BROADCAST\000"
 16847      44434153 
 16847      5400
 16848              	.LASF361:
ARM GAS  C:\Users\RECEPC~1\AppData\Local\Temp\ccvg7Xyk.s 			page 356


 16849 1aea 5F76616C 		.ascii	"_val1\000"
 16849      3100
 16850              	.LASF48:
 16851 1af0 5F554152 		.ascii	"_UART_MANAGER_\000"
 16851      545F4D41 
 16851      4E414745 
 16851      525F00
 16852              	.LASF319:
 16853 1aff 496E6974 		.ascii	"Initializer\000"
 16853      69616C69 
 16853      7A657200 
 16854              	.LASF516:
 16855 1b0b 6E756D68 		.ascii	"numhoses\000"
 16855      6F736573 
 16855      00
 16856              	.LASF328:
 16857 1b14 5F6D6178 		.ascii	"_maxchars\000"
 16857      63686172 
 16857      7300
 16858              	.LASF533:
 16859 1b1e 44697370 		.ascii	"DisplayPumpIDOffsetDecorator\000"
 16859      6C617950 
 16859      756D7049 
 16859      444F6666 
 16859      73657444 
 16860              	.LASF580:
 16861 1b3b 5F706F69 		.ascii	"_pointcommadecimalmode\000"
 16861      6E74636F 
 16861      6D6D6164 
 16861      6563696D 
 16861      616C6D6F 
 16862              	.LASF466:
 16863 1b52 45455052 		.ascii	"EEPROM_DISPENSER_PUMP31_TRANSACTION_PAGE\000"
 16863      4F4D5F44 
 16863      49535045 
 16863      4E534552 
 16863      5F50554D 
 16864              	.LASF64:
 16865 1b7b 55415254 		.ascii	"UART_NULL\000"
 16865      5F4E554C 
 16865      4C00
 16866              	.LASF532:
 16867 1b85 70756D70 		.ascii	"pumpoffset\000"
 16867      6F666673 
 16867      657400
 16868              	.LASF144:
 16869 1b90 5F50554D 		.ascii	"_PUMP_ACTIVE_HOSE_\000"
 16869      505F4143 
 16869      54495645 
 16869      5F484F53 
 16869      455F00
 16870              	.LASF297:
 16871 1ba3 44495350 		.ascii	"DISPLAY_CLOSE_WORK_SHIFT\000"
 16871      4C41595F 
 16871      434C4F53 
 16871      455F574F 
 16871      524B5F53 
ARM GAS  C:\Users\RECEPC~1\AppData\Local\Temp\ccvg7Xyk.s 			page 357


 16872              	.LASF570:
 16873 1bbc 5F675F64 		.ascii	"_g_display1\000"
 16873      6973706C 
 16873      61793100 
 16874              	.LASF571:
 16875 1bc8 5F675F64 		.ascii	"_g_display2\000"
 16875      6973706C 
 16875      61793200 
 16876              	.LASF146:
 16877 1bd4 5F50554D 		.ascii	"_PUMP_EOT_STARUP_\000"
 16877      505F454F 
 16877      545F5354 
 16877      41525550 
 16877      5F00
 16878              	.LASF337:
 16879 1be6 5F706174 		.ascii	"_pathnodes\000"
 16879      686E6F64 
 16879      657300
 16880              	.LASF546:
 16881 1bf1 5465726D 		.ascii	"TerminateHomeAnimation\000"
 16881      696E6174 
 16881      65486F6D 
 16881      65416E69 
 16881      6D617469 
 16882              	.LASF459:
 16883 1c08 45455052 		.ascii	"EEPROM_DISPENSER_PUMP12_TRANSACTION_PAGE\000"
 16883      4F4D5F44 
 16883      49535045 
 16883      4E534552 
 16883      5F50554D 
 16884              	.LASF29:
 16885 1c31 57726974 		.ascii	"WriteControlRegister\000"
 16885      65436F6E 
 16885      74726F6C 
 16885      52656769 
 16885      73746572 
 16886              	.LASF130:
 16887 1c46 474C4F42 		.ascii	"GLOBAL_TICK_NOTIFICATION\000"
 16887      414C5F54 
 16887      49434B5F 
 16887      4E4F5449 
 16887      46494341 
 16888              	.LASF362:
 16889 1c5f 5F737461 		.ascii	"_starting\000"
 16889      7274696E 
 16889      6700
 16890              	.LASF68:
 16891 1c69 46495253 		.ascii	"FIRSTFOUND\000"
 16891      54464F55 
 16891      4E4400
 16892              	.LASF420:
 16893 1c74 52465F45 		.ascii	"RF_ERROR\000"
 16893      52524F52 
 16893      00
 16894              	.LASF22:
 16895 1c7d 4C50564F 		.ascii	"LPVOID\000"
 16895      494400
ARM GAS  C:\Users\RECEPC~1\AppData\Local\Temp\ccvg7Xyk.s 			page 358


 16896              	.LASF111:
 16897 1c84 44495350 		.ascii	"DISPENSER_PUMP_HANDLER\000"
 16897      454E5345 
 16897      525F5055 
 16897      4D505F48 
 16897      414E444C 
 16898              	.LASF391:
 16899 1c9b 52465F4D 		.ascii	"RF_MUX_PRICE_CHANGE_RESPONSE\000"
 16899      55585F50 
 16899      52494345 
 16899      5F434841 
 16899      4E47455F 
 16900              	.LASF497:
 16901 1cb8 70706172 		.ascii	"pparam\000"
 16901      616D00
 16902              	.LASF416:
 16903 1cbf 52465F43 		.ascii	"RF_CASHSALEREPORT\000"
 16903      41534853 
 16903      414C4552 
 16903      45504F52 
 16903      5400
 16904              	.LASF462:
 16905 1cd1 45455052 		.ascii	"EEPROM_DISPENSER_PUMP21_TRANSACTION_PAGE\000"
 16905      4F4D5F44 
 16905      49535045 
 16905      4E534552 
 16905      5F50554D 
 16906              	.LASF287:
 16907 1cfa 44495350 		.ascii	"DISPLAY_SIDE_DUMMY_DISPLAY\000"
 16907      4C41595F 
 16907      53494445 
 16907      5F44554D 
 16907      4D595F44 
 16908              	.LASF270:
 16909 1d15 44495350 		.ascii	"DISPLAY_CONFIGURAR_FECHA_HORA\000"
 16909      4C41595F 
 16909      434F4E46 
 16909      49475552 
 16909      41525F46 
 16910              	.LASF389:
 16911 1d33 52465F4D 		.ascii	"RF_MUX_TOTALS_REPORT_RESPONSE\000"
 16911      55585F54 
 16911      4F54414C 
 16911      535F5245 
 16911      504F5254 
 16912              	.LASF92:
 16913 1d51 55415254 		.ascii	"UART_RF_RECEPTION\000"
 16913      5F52465F 
 16913      52454345 
 16913      5054494F 
 16913      4E00
 16914              	.LASF169:
 16915 1d63 5F617574 		.ascii	"_authorized\000"
 16915      686F7269 
 16915      7A656400 
 16916              	.LASF569:
 16917 1d6f 5F675F64 		.ascii	"_g_displayflow2\000"
ARM GAS  C:\Users\RECEPC~1\AppData\Local\Temp\ccvg7Xyk.s 			page 359


 16917      6973706C 
 16917      6179666C 
 16917      6F773200 
 16918              	.LASF524:
 16919 1d7f 486F7365 		.ascii	"HoseValidationCallback\000"
 16919      56616C69 
 16919      64617469 
 16919      6F6E4361 
 16919      6C6C6261 
 16920              	.LASF21:
 16921 1d96 6C6F6E67 		.ascii	"long double\000"
 16921      20646F75 
 16921      626C6500 
 16922              	.LASF77:
 16923 1da2 53494E4B 		.ascii	"SINK_BUSY\000"
 16923      5F425553 
 16923      5900
 16924              	.LASF136:
 16925 1dac 5F50554D 		.ascii	"_PUMP_FILL_BY_VOLUME_\000"
 16925      505F4649 
 16925      4C4C5F42 
 16925      595F564F 
 16925      4C554D45 
 16926              	.LASF153:
 16927 1dc2 5F747261 		.ascii	"_transtate\000"
 16927      6E737461 
 16927      746500
 16928              	.LASF26:
 16929 1dcd 53746172 		.ascii	"Start\000"
 16929      7400
 16930              	.LASF548:
 16931 1dd3 44697370 		.ascii	"DisplayUpdateHomeAnimation\000"
 16931      6C617955 
 16931      70646174 
 16931      65486F6D 
 16931      65416E69 
 16932              	.LASF49:
 16933 1dee 5F554152 		.ascii	"_UART_MESSAGE_\000"
 16933      545F4D45 
 16933      53534147 
 16933      455F00
 16934              	.LASF494:
 16935 1dfd 434C4F53 		.ascii	"CLOSEDISPLAY1\000"
 16935      45444953 
 16935      504C4159 
 16935      3100
 16936              	.LASF495:
 16937 1e0b 434C4F53 		.ascii	"CLOSEDISPLAY2\000"
 16937      45444953 
 16937      504C4159 
 16937      3200
 16938              	.LASF265:
 16939 1e19 44495350 		.ascii	"DISPLAY_OPERACION_CANCELADA\000"
 16939      4C41595F 
 16939      4F504552 
 16939      4143494F 
 16939      4E5F4341 
ARM GAS  C:\Users\RECEPC~1\AppData\Local\Temp\ccvg7Xyk.s 			page 360


 16940              	.LASF260:
 16941 1e35 44495350 		.ascii	"DISPLAY_OPERACIONES\000"
 16941      4C41595F 
 16941      4F504552 
 16941      4143494F 
 16941      4E455300 
 16942              	.LASF456:
 16943 1e49 45455052 		.ascii	"EEPROM_INSEPET_RESERVED_PAGE3\000"
 16943      4F4D5F49 
 16943      4E534550 
 16943      45545F52 
 16943      45534552 
 16944              	.LASF214:
 16945 1e67 504E4541 		.ascii	"PNEAR_PUMPPTR\000"
 16945      525F5055 
 16945      4D505054 
 16945      5200
 16946              	.LASF56:
 16947 1e75 50554152 		.ascii	"PUARTMESSAGEPTR\000"
 16947      544D4553 
 16947      53414745 
 16947      50545200 
 16948              	.LASF218:
 16949 1e85 5F686F73 		.ascii	"_hosesposition1\000"
 16949      6573706F 
 16949      73697469 
 16949      6F6E3100 
 16950              	.LASF182:
 16951 1e95 5F686F73 		.ascii	"_hoseactivestate\000"
 16951      65616374 
 16951      69766573 
 16951      74617465 
 16951      00
 16952              	.LASF220:
 16953 1ea6 5F686F73 		.ascii	"_hosesposition3\000"
 16953      6573706F 
 16953      73697469 
 16953      6F6E3300 
 16954              	.LASF221:
 16955 1eb6 5F686F73 		.ascii	"_hosesposition4\000"
 16955      6573706F 
 16955      73697469 
 16955      6F6E3400 
 16956              	.LASF504:
 16957 1ec6 4D61736B 		.ascii	"MaskoutOptionDecorator\000"
 16957      6F75744F 
 16957      7074696F 
 16957      6E446563 
 16957      6F726174 
 16958              	.LASF250:
 16959 1edd 44495350 		.ascii	"DISPLAY_NUEVO_PASSWORD\000"
 16959      4C41595F 
 16959      4E554556 
 16959      4F5F5041 
 16959      5353574F 
 16960              	.LASF344:
 16961 1ef4 5F696E69 		.ascii	"_initializer\000"
ARM GAS  C:\Users\RECEPC~1\AppData\Local\Temp\ccvg7Xyk.s 			page 361


 16961      7469616C 
 16961      697A6572 
 16961      00
 16962              	.LASF227:
 16963 1f01 5F6D696E 		.ascii	"_minvolumevalue\000"
 16963      766F6C75 
 16963      6D657661 
 16963      6C756500 
 16964              	.LASF212:
 16965 1f11 436C6561 		.ascii	"CleanUp\000"
 16965      6E557000 
 16966              	.LASF185:
 16967 1f19 5F70656E 		.ascii	"_pendingtransaction\000"
 16967      64696E67 
 16967      7472616E 
 16967      73616374 
 16967      696F6E00 
 16968              	.LASF451:
 16969 1f2d 45455052 		.ascii	"EEPROM_DISPENSER_PUMP2_PPU_INFO_PAGE\000"
 16969      4F4D5F44 
 16969      49535045 
 16969      4E534552 
 16969      5F50554D 
 16970              	.LASF213:
 16971 1f52 50756D70 		.ascii	"Pump\000"
 16971      00
 16972              	.LASF536:
 16973 1f57 496E6974 		.ascii	"InitiateiButtonScan\000"
 16973      69617465 
 16973      69427574 
 16973      746F6E53 
 16973      63616E00 
 16974              	.LASF149:
 16975 1f6b 5F50554D 		.ascii	"_PUMP_STOP_\000"
 16975      505F5354 
 16975      4F505F00 
 16976              	.LASF236:
 16977 1f77 44495350 		.ascii	"DISPLAY_FORMA_PAGO_DESEADA\000"
 16977      4C41595F 
 16977      464F524D 
 16977      415F5041 
 16977      474F5F44 
 16978              	.LASF296:
 16979 1f92 44495350 		.ascii	"DISPLAY_OPEN_WORK_SHIFT\000"
 16979      4C41595F 
 16979      4F50454E 
 16979      5F574F52 
 16979      4B5F5348 
 16980              	.LASF7:
 16981 1faa 6C6F6E67 		.ascii	"long long unsigned int\000"
 16981      206C6F6E 
 16981      6720756E 
 16981      7369676E 
 16981      65642069 
 16982              	.LASF341:
 16983 1fc1 5F696E70 		.ascii	"_inputhandler\000"
 16983      75746861 
ARM GAS  C:\Users\RECEPC~1\AppData\Local\Temp\ccvg7Xyk.s 			page 362


 16983      6E646C65 
 16983      7200
 16984              	.LASF476:
 16985 1fcf 5254435F 		.ascii	"RTC_MINUTES\000"
 16985      4D494E55 
 16985      54455300 
 16986              	.LASF530:
 16987 1fdb 44697370 		.ascii	"DisplayStationIDStore\000"
 16987      6C617953 
 16987      74617469 
 16987      6F6E4944 
 16987      53746F72 
 16988              	.LASF140:
 16989 1ff1 5F50554D 		.ascii	"_PUMP_PPU_CHANGE_\000"
 16989      505F5050 
 16989      555F4348 
 16989      414E4745 
 16989      5F00
 16990              	.LASF40:
 16991 2003 50757441 		.ascii	"PutArray\000"
 16991      72726179 
 16991      00
 16992              	.LASF196:
 16993 200c 5F706375 		.ascii	"_pcurrtransaction\000"
 16993      72727472 
 16993      616E7361 
 16993      6374696F 
 16993      6E00
 16994              	.LASF397:
 16995 201e 52465F4D 		.ascii	"RF_MUX_CASH_SALE_PRINT_RESPONSE\000"
 16995      55585F43 
 16995      4153485F 
 16995      53414C45 
 16995      5F505249 
 16996              	.LASF127:
 16997 203e 44495350 		.ascii	"DISPLAY2_ANIMATE_HOME\000"
 16997      4C415932 
 16997      5F414E49 
 16997      4D415445 
 16997      5F484F4D 
 16998              	.LASF216:
 16999 2054 5F637572 		.ascii	"_currentloopopen\000"
 16999      72656E74 
 16999      6C6F6F70 
 16999      6F70656E 
 16999      00
 17000              	.LASF95:
 17001 2065 53494E4B 		.ascii	"SINK_UPDATE_COUNTERS\000"
 17001      5F555044 
 17001      4154455F 
 17001      434F554E 
 17001      54455253 
 17002              	.LASF28:
 17003 207a 52656164 		.ascii	"ReadControlRegister\000"
 17003      436F6E74 
 17003      726F6C52 
 17003      65676973 
ARM GAS  C:\Users\RECEPC~1\AppData\Local\Temp\ccvg7Xyk.s 			page 363


 17003      74657200 
 17004              	.LASF372:
 17005 208e 5F675F68 		.ascii	"_g_homeanimation\000"
 17005      6F6D6561 
 17005      6E696D61 
 17005      74696F6E 
 17005      00
 17006              	.LASF408:
 17007 209f 52465F4D 		.ascii	"RF_MUX_ISLAND_ADMIN_REQUEST\000"
 17007      55585F49 
 17007      534C414E 
 17007      445F4144 
 17007      4D494E5F 
 17008              	.LASF343:
 17009 20bb 5F696E70 		.ascii	"_inputboxinfo\000"
 17009      7574626F 
 17009      78696E66 
 17009      6F00
 17010              	.LASF368:
 17011 20c9 44697370 		.ascii	"DisplayLayout\000"
 17011      6C61794C 
 17011      61796F75 
 17011      7400
 17012              	.LASF290:
 17013 20d7 44495350 		.ascii	"DISPLAY_NO_STATE\000"
 17013      4C41595F 
 17013      4E4F5F53 
 17013      54415445 
 17013      00
 17014              	.LASF160:
 17015 20e8 5F766172 		.ascii	"_var4\000"
 17015      3400
 17016              	.LASF578:
 17017 20ee 2E5C4469 		.ascii	".\\DisplayBLL.c\000"
 17017      73706C61 
 17017      79424C4C 
 17017      2E6300
 17018              	.LASF538:
 17019 20fd 5465726D 		.ascii	"TerminateiButtonScan\000"
 17019      696E6174 
 17019      65694275 
 17019      74746F6E 
 17019      5363616E 
 17020              	.LASF104:
 17021 2112 44495350 		.ascii	"DISPENSER_LOAD_EEPROM_SETTINGS\000"
 17021      454E5345 
 17021      525F4C4F 
 17021      41445F45 
 17021      4550524F 
 17022              	.LASF173:
 17023 2131 5F707265 		.ascii	"_presetamount\000"
 17023      73657461 
 17023      6D6F756E 
 17023      7400
 17024              	.LASF24:
 17025 213f 5F696465 		.ascii	"_identifier\000"
 17025      6E746966 
ARM GAS  C:\Users\RECEPC~1\AppData\Local\Temp\ccvg7Xyk.s 			page 364


 17025      69657200 
 17026              	.LASF400:
 17027 214b 52465F4D 		.ascii	"RF_MUX_LAST_CASH_SALE_REQUEST\000"
 17027      55585F4C 
 17027      4153545F 
 17027      43415348 
 17027      5F53414C 
 17028              	.LASF523:
 17029 2169 56616C69 		.ascii	"ValidateAuthorizationResponse4Credit\000"
 17029      64617465 
 17029      41757468 
 17029      6F72697A 
 17029      6174696F 
 17030              	.LASF545:
 17031 218e 496E6974 		.ascii	"InitiateHomeAnimation\000"
 17031      69617465 
 17031      486F6D65 
 17031      416E696D 
 17031      6174696F 
 17032              	.LASF573:
 17033 21a4 5F675F70 		.ascii	"_g_printerlayout\000"
 17033      72696E74 
 17033      65726C61 
 17033      796F7574 
 17033      00
 17034              	.LASF348:
 17035 21b5 5F78706F 		.ascii	"_xpos\000"
 17035      7300
 17036              	.LASF384:
 17037 21bb 52465F4D 		.ascii	"RF_MUX_CASH_SALE_END_REPORT_REQUEST\000"
 17037      55585F43 
 17037      4153485F 
 17037      53414C45 
 17037      5F454E44 
 17038              	.LASF324:
 17039 21df 46505452 		.ascii	"FPTRINITIALIZER\000"
 17039      494E4954 
 17039      49414C49 
 17039      5A455200 
 17040              	.LASF187:
 17041 21ef 5F707265 		.ascii	"_presetdone\000"
 17041      73657464 
 17041      6F6E6500 
 17042              	.LASF33:
 17043 21fb 47657442 		.ascii	"GetByte\000"
 17043      79746500 
 17044              	.LASF231:
 17045 2203 44697370 		.ascii	"DispenserLayoutInfo\000"
 17045      656E7365 
 17045      724C6179 
 17045      6F757449 
 17045      6E666F00 
 17046              	.LASF518:
 17047 2217 65657072 		.ascii	"eepromprodpage\000"
 17047      6F6D7072 
 17047      6F647061 
 17047      676500
ARM GAS  C:\Users\RECEPC~1\AppData\Local\Temp\ccvg7Xyk.s 			page 365


 17048              	.LASF528:
 17049 2226 73746174 		.ascii	"stationid\000"
 17049      696F6E69 
 17049      6400
 17050              	.LASF568:
 17051 2230 5F675F64 		.ascii	"_g_displayflow1\000"
 17051      6973706C 
 17051      6179666C 
 17051      6F773100 
 17052              	.LASF93:
 17053 2240 55415254 		.ascii	"UART_RF_TEST\000"
 17053      5F52465F 
 17053      54455354 
 17053      00
 17054              	.LASF377:
 17055 224d 52465F4D 		.ascii	"RF_MUX_CREDIT_SERIAL_AUTH_RESPONSE\000"
 17055      55585F43 
 17055      52454449 
 17055      545F5345 
 17055      5249414C 
 17056              	.LASF183:
 17057 2270 5F616371 		.ascii	"_acquiringstate\000"
 17057      75697269 
 17057      6E677374 
 17057      61746500 
 17058              	.LASF243:
 17059 2280 44495350 		.ascii	"DISPLAY_DESPACHANDO\000"
 17059      4C41595F 
 17059      44455350 
 17059      41434841 
 17059      4E444F00 
 17060              	.LASF156:
 17061 2294 5F766172 		.ascii	"_var0\000"
 17061      3000
 17062              	.LASF157:
 17063 229a 5F766172 		.ascii	"_var1\000"
 17063      3100
 17064              	.LASF158:
 17065 22a0 5F766172 		.ascii	"_var2\000"
 17065      3200
 17066              	.LASF159:
 17067 22a6 5F766172 		.ascii	"_var3\000"
 17067      3300
 17068              	.LASF117:
 17069 22ac 5052494E 		.ascii	"PRINTER1_GENERIC_JOB\000"
 17069      54455231 
 17069      5F47454E 
 17069      45524943 
 17069      5F4A4F42 
 17070              	.LASF161:
 17071 22c1 5F766172 		.ascii	"_var5\000"
 17071      3500
 17072              	.LASF162:
 17073 22c7 5F766172 		.ascii	"_var6\000"
 17073      3600
 17074              	.LASF163:
 17075 22cd 5F766172 		.ascii	"_var7\000"
ARM GAS  C:\Users\RECEPC~1\AppData\Local\Temp\ccvg7Xyk.s 			page 366


 17075      3700
 17076              	.LASF164:
 17077 22d3 5F766172 		.ascii	"_var8\000"
 17077      3800
 17078              	.LASF165:
 17079 22d9 5F766172 		.ascii	"_var9\000"
 17079      3900
 17080              	.LASF513:
 17081 22df 79706F73 		.ascii	"ypos\000"
 17081      00
 17082              	.LASF390:
 17083 22e4 52465F4D 		.ascii	"RF_MUX_PRICE_CHANGE_REQUEST\000"
 17083      55585F50 
 17083      52494345 
 17083      5F434841 
 17083      4E47455F 
 17084              	.LASF141:
 17085 2300 5F50554D 		.ascii	"_PUMP_RESTORE_PRICE_\000"
 17085      505F5245 
 17085      53544F52 
 17085      455F5052 
 17085      4943455F 
 17086              	.LASF166:
 17087 2315 5F766172 		.ascii	"_varA\000"
 17087      4100
 17088              	.LASF167:
 17089 231b 5F766172 		.ascii	"_varB\000"
 17089      4200
 17090              	.LASF421:
 17091 2321 52465F43 		.ascii	"RF_COPY_RECEIPT\000"
 17091      4F50595F 
 17091      52454345 
 17091      49505400 
 17092              	.LASF258:
 17093 2331 44495350 		.ascii	"DISPLAY_INTRODUZCA_VOLUMEN\000"
 17093      4C41595F 
 17093      494E5452 
 17093      4F44555A 
 17093      43415F56 
 17094              	.LASF69:
 17095 234c 414C4C49 		.ascii	"ALLINTERESTED\000"
 17095      4E544552 
 17095      45535445 
 17095      4400
 17096              	.LASF276:
 17097 235a 44495350 		.ascii	"DISPLAY_CANCELADO_X_PC\000"
 17097      4C41595F 
 17097      43414E43 
 17097      454C4144 
 17097      4F5F585F 
 17098              	.LASF179:
 17099 2371 5F70756D 		.ascii	"_pumpindex\000"
 17099      70696E64 
 17099      657800
 17100              	.LASF188:
 17101 237c 5F70756D 		.ascii	"_pumplocked\000"
 17101      706C6F63 
ARM GAS  C:\Users\RECEPC~1\AppData\Local\Temp\ccvg7Xyk.s 			page 367


 17101      6B656400 
 17102              	.LASF80:
 17103 2388 5F6D6573 		.ascii	"_messageid\000"
 17103      73616765 
 17103      696400
 17104              	.LASF485:
 17105 2393 66707472 		.ascii	"fptrinitializer\000"
 17105      696E6974 
 17105      69616C69 
 17105      7A657200 
 17106              	.LASF135:
 17107 23a3 5F50554D 		.ascii	"_PUMP_FILL_BY_MONEY_\000"
 17107      505F4649 
 17107      4C4C5F42 
 17107      595F4D4F 
 17107      4E45595F 
 17108              	.LASF498:
 17109 23b8 62756666 		.ascii	"buffer\000"
 17109      657200
 17110              	.LASF46:
 17111 23bf 414C4C4F 		.ascii	"ALLOCATED\000"
 17111      43415445 
 17111      4400
 17112              	.LASF11:
 17113 23c9 75696E74 		.ascii	"uint8\000"
 17113      3800
 17114              	.LASF124:
 17115 23cf 44495350 		.ascii	"DISPLAY2_RECEPTION\000"
 17115      4C415932 
 17115      5F524543 
 17115      45505449 
 17115      4F4E00
 17116              	.LASF339:
 17117 23e2 5F737461 		.ascii	"_statenodes\000"
 17117      74656E6F 
 17117      64657300 
 17118              	.LASF89:
 17119 23ee 43616C6C 		.ascii	"Callback\000"
 17119      6261636B 
 17119      00
 17120              	.LASF295:
 17121 23f7 44495350 		.ascii	"DISPLAY_LESS_THAN_FOUR_POSITIONS\000"
 17121      4C41595F 
 17121      4C455353 
 17121      5F544841 
 17121      4E5F464F 
 17122              	.LASF521:
 17123 2418 53656E64 		.ascii	"SendAuthorizationRequest4Credit\000"
 17123      41757468 
 17123      6F72697A 
 17123      6174696F 
 17123      6E526571 
 17124              	.LASF572:
 17125 2438 5F675F72 		.ascii	"_g_rfautorun\000"
 17125      66617574 
 17125      6F72756E 
 17125      00
ARM GAS  C:\Users\RECEPC~1\AppData\Local\Temp\ccvg7Xyk.s 			page 368


 17126              	.LASF417:
 17127 2445 52465F43 		.ascii	"RF_CREDITSALEAUTH\000"
 17127      52454449 
 17127      5453414C 
 17127      45415554 
 17127      4800
 17128              	.LASF316:
 17129 2457 4465636F 		.ascii	"Decorator\000"
 17129      7261746F 
 17129      7200
 17130              	.LASF312:
 17131 2461 5F6F7061 		.ascii	"_opaquebackground\000"
 17131      71756562 
 17131      61636B67 
 17131      726F756E 
 17131      6400
 17132              	.LASF2:
 17133 2473 73686F72 		.ascii	"short int\000"
 17133      7420696E 
 17133      7400
 17134              	.LASF282:
 17135 247d 44495350 		.ascii	"DISPLAY_PRECIO_POR_UNIDAD\000"
 17135      4C41595F 
 17135      50524543 
 17135      494F5F50 
 17135      4F525F55 
 17136              	.LASF202:
 17137 2497 50756D70 		.ascii	"PumpTransQueueLock\000"
 17137      5472616E 
 17137      73517565 
 17137      75654C6F 
 17137      636B00
 17138              	.LASF288:
 17139 24aa 44495350 		.ascii	"DISPLAY_NULL\000"
 17139      4C41595F 
 17139      4E554C4C 
 17139      00
 17140              	.LASF207:
 17141 24b7 50756D70 		.ascii	"PumpTransQueueAllocate\000"
 17141      5472616E 
 17141      73517565 
 17141      7565416C 
 17141      6C6F6361 
 17142              	.LASF307:
 17143 24ce 5F444953 		.ascii	"_DISPLAY_TEXT_OPACITY_\000"
 17143      504C4159 
 17143      5F544558 
 17143      545F4F50 
 17143      41434954 
 17144              	.LASF109:
 17145 24e5 44495350 		.ascii	"DISPENSER_CONFIGURE_SINGLE_PRICE\000"
 17145      454E5345 
 17145      525F434F 
 17145      4E464947 
 17145      5552455F 
 17146              	.LASF404:
 17147 2506 52465F4D 		.ascii	"RF_MUX_POSITION_CFG_REQUEST\000"
ARM GAS  C:\Users\RECEPC~1\AppData\Local\Temp\ccvg7Xyk.s 			page 369


 17147      55585F50 
 17147      4F534954 
 17147      494F4E5F 
 17147      4346475F 
 17148              	.LASF120:
 17149 2522 44495350 		.ascii	"DISPLAY1_RECEPTION\000"
 17149      4C415931 
 17149      5F524543 
 17149      45505449 
 17149      4F4E00
 17150              	.LASF205:
 17151 2535 50756D70 		.ascii	"PumpTransQueueEnqueue\000"
 17151      5472616E 
 17151      73517565 
 17151      7565456E 
 17151      71756575 
 17152              	.LASF432:
 17153 254b 5072696E 		.ascii	"PrinterLayout\000"
 17153      7465724C 
 17153      61796F75 
 17153      7400
 17154              	.LASF105:
 17155 2559 44495350 		.ascii	"DISPENSER_ENUMERATE_VISIBLE_PUMPS\000"
 17155      454E5345 
 17155      525F454E 
 17155      554D4552 
 17155      4154455F 
 17156              	.LASF30:
 17157 257b 52656164 		.ascii	"ReadRxData\000"
 17157      52784461 
 17157      746100
 17158              	.LASF554:
 17159 2586 5072696E 		.ascii	"PrintersWorking\000"
 17159      74657273 
 17159      576F726B 
 17159      696E6700 
 17160              	.LASF507:
 17161 2596 496E6974 		.ascii	"InitiateWorkShiftValidation\000"
 17161      69617465 
 17161      576F726B 
 17161      53686966 
 17161      7456616C 
 17162              	.LASF85:
 17163 25b2 5F6D6573 		.ascii	"_messagetimeoutlimit\000"
 17163      73616765 
 17163      74696D65 
 17163      6F75746C 
 17163      696D6974 
 17164              	.LASF58:
 17165 25c7 5F554152 		.ascii	"_UART_MANAGERS_AVAILABLE_\000"
 17165      545F4D41 
 17165      4E414745 
 17165      52535F41 
 17165      5641494C 
 17166              	.LASF577:
 17167 25e1 474E5520 		.ascii	"GNU C 4.9.3 20150303 (release) [ARM/embedded-4_9-br"
 17167      4320342E 
ARM GAS  C:\Users\RECEPC~1\AppData\Local\Temp\ccvg7Xyk.s 			page 370


 17167      392E3320 
 17167      32303135 
 17167      30333033 
 17168 2614 616E6368 		.ascii	"anch revision 221220] -mcpu=cortex-m3 -mthumb -g -O"
 17168      20726576 
 17168      6973696F 
 17168      6E203232 
 17168      31323230 
 17169 2647 30202D66 		.ascii	"0 -ffunction-sections -ffat-lto-objects\000"
 17169      66756E63 
 17169      74696F6E 
 17169      2D736563 
 17169      74696F6E 
 17170              	.LASF257:
 17171 266f 44495350 		.ascii	"DISPLAY_INTRODUZCA_CEDULA\000"
 17171      4C41595F 
 17171      494E5452 
 17171      4F44555A 
 17171      43415F43 
 17172              	.LASF535:
 17173 2689 70756D70 		.ascii	"pumpidoffset\000"
 17173      69646F66 
 17173      66736574 
 17173      00
 17174              	.LASF293:
 17175 2696 44495350 		.ascii	"DISPLAY_IBUTTON_READ_ACCEPTED\000"
 17175      4C41595F 
 17175      49425554 
 17175      544F4E5F 
 17175      52454144 
 17176              	.LASF81:
 17177 26b4 5F6D6573 		.ascii	"_messagetype\000"
 17177      73616765 
 17177      74797065 
 17177      00
 17178              	.LASF539:
 17179 26c1 69427574 		.ascii	"iButtonScreenNotification\000"
 17179      746F6E53 
 17179      63726565 
 17179      6E4E6F74 
 17179      69666963 
 17180              	.LASF71:
 17181 26db 46495253 		.ascii	"FIRSTFOUNDFOREVER\000"
 17181      54464F55 
 17181      4E44464F 
 17181      52455645 
 17181      5200
 17182              	.LASF581:
 17183 26ed 44697370 		.ascii	"DisplayGenericValidator\000"
 17183      6C617947 
 17183      656E6572 
 17183      69635661 
 17183      6C696461 
 17184              	.LASF452:
 17185 2705 45455052 		.ascii	"EEPROM_DISPENSER_PUMP3_PPU_INFO_PAGE\000"
 17185      4F4D5F44 
 17185      49535045 
ARM GAS  C:\Users\RECEPC~1\AppData\Local\Temp\ccvg7Xyk.s 			page 371


 17185      4E534552 
 17185      5F50554D 
 17186              	.LASF403:
 17187 272a 52465F4D 		.ascii	"RF_MUX_BROADCAST_CFG_RESPONSE\000"
 17187      55585F42 
 17187      524F4144 
 17187      43415354 
 17187      5F434647 
 17188              	.LASF181:
 17189 2748 5F637572 		.ascii	"_currenthose\000"
 17189      72656E74 
 17189      686F7365 
 17189      00
 17190              	.LASF346:
 17191 2755 44697370 		.ascii	"DisplayFlow\000"
 17191      6C617946 
 17191      6C6F7700 
 17192              	.LASF209:
 17193 2761 50756D70 		.ascii	"PumpValidState\000"
 17193      56616C69 
 17193      64537461 
 17193      746500
 17194              	.LASF211:
 17195 2770 5F617574 		.ascii	"_authorizationinfo\000"
 17195      686F7269 
 17195      7A617469 
 17195      6F6E696E 
 17195      666F00
 17196              	.LASF150:
 17197 2783 5F50554D 		.ascii	"_PUMP_STOPALL_\000"
 17197      505F5354 
 17197      4F50414C 
 17197      4C5F00
 17198              	.LASF273:
 17199 2792 44495350 		.ascii	"DISPLAY_OPCION_TURNO\000"
 17199      4C41595F 
 17199      4F504349 
 17199      4F4E5F54 
 17199      55524E4F 
 17200              	.LASF139:
 17201 27a7 5F50554D 		.ascii	"_PUMP_FILL_CREDIT_COMPLEMENTARY_\000"
 17201      505F4649 
 17201      4C4C5F43 
 17201      52454449 
 17201      545F434F 
 17202              	.LASF501:
 17203 27c8 6E756D62 		.ascii	"numberofprintedcopies\000"
 17203      65726F66 
 17203      7072696E 
 17203      74656463 
 17203      6F706965 
 17204              	.LASF379:
 17205 27de 52465F4D 		.ascii	"RF_MUX_CREDIT_PRESET_AUTHORIZATION_RESPONSE\000"
 17205      55585F43 
 17205      52454449 
 17205      545F5052 
 17205      45534554 
ARM GAS  C:\Users\RECEPC~1\AppData\Local\Temp\ccvg7Xyk.s 			page 372


 17206              	.LASF50:
 17207 280a 5F6D6573 		.ascii	"_messagestate\000"
 17207      73616765 
 17207      73746174 
 17207      6500
 17208              	.LASF541:
 17209 2818 44726177 		.ascii	"DrawDateTime\000"
 17209      44617465 
 17209      54696D65 
 17209      00
 17210              	.LASF137:
 17211 2825 5F50554D 		.ascii	"_PUMP_FILL_FULL_\000"
 17211      505F4649 
 17211      4C4C5F46 
 17211      554C4C5F 
 17211      00
 17212              	.LASF53:
 17213 2836 4572726F 		.ascii	"ErrorHandler\000"
 17213      7248616E 
 17213      646C6572 
 17213      00
 17214              	.LASF170:
 17215 2843 5F707265 		.ascii	"_presettype\000"
 17215      73657474 
 17215      79706500 
 17216              	.LASF145:
 17217 284f 5F50554D 		.ascii	"_PUMP_EOT_\000"
 17217      505F454F 
 17217      545F00
 17218              	.LASF119:
 17219 285a 44495350 		.ascii	"DISPLAY_UPDATE_PUMP_STATE\000"
 17219      4C41595F 
 17219      55504441 
 17219      54455F50 
 17219      554D505F 
 17220              	.LASF480:
 17221 2874 5254435F 		.ascii	"RTC_YEAR\000"
 17221      59454152 
 17221      00
 17222              	.LASF65:
 17223 287d 5F4D4553 		.ascii	"_MESSAGE_TYPE_\000"
 17223      53414745 
 17223      5F545950 
 17223      455F00
 17224              	.LASF108:
 17225 288c 44495350 		.ascii	"DISPENSER_RESTORE_PRICES\000"
 17225      454E5345 
 17225      525F5245 
 17225      53544F52 
 17225      455F5052 
 17226              	.LASF499:
 17227 28a5 666F6E74 		.ascii	"fontdata\000"
 17227      64617461 
 17227      00
 17228              	.LASF370:
 17229 28ae 5F637572 		.ascii	"_currindex\000"
 17229      72696E64 
ARM GAS  C:\Users\RECEPC~1\AppData\Local\Temp\ccvg7Xyk.s 			page 373


 17229      657800
 17230              	.LASF383:
 17231 28b9 52465F4D 		.ascii	"RF_MUX_CASH_SALE_START_RESPONSE\000"
 17231      55585F43 
 17231      4153485F 
 17231      53414C45 
 17231      5F535441 
 17232              	.LASF334:
 17233 28d9 5F726573 		.ascii	"_responsetimeoutlimit\000"
 17233      706F6E73 
 17233      6574696D 
 17233      656F7574 
 17233      6C696D69 
 17234              	.LASF192:
 17235 28ef 5F707269 		.ascii	"_print\000"
 17235      6E7400
 17236              	.LASF444:
 17237 28f6 45455052 		.ascii	"EEPROM_DISPENSER_PUMP3_LAYOUT_PAGE\000"
 17237      4F4D5F44 
 17237      49535045 
 17237      4E534552 
 17237      5F50554D 
 17238              	.LASF317:
 17239 2919 496E7075 		.ascii	"InputValidator\000"
 17239      7456616C 
 17239      69646174 
 17239      6F7200
 17240              	.LASF3:
 17241 2928 73686F72 		.ascii	"short unsigned int\000"
 17241      7420756E 
 17241      7369676E 
 17241      65642069 
 17241      6E7400
 17242              	.LASF313:
 17243 293b 5F626163 		.ascii	"_backcolor\000"
 17243      6B636F6C 
 17243      6F7200
 17244              	.LASF204:
 17245 2946 50756D70 		.ascii	"PumpTransQueueFind\000"
 17245      5472616E 
 17245      73517565 
 17245      75654669 
 17245      6E6400
 17246              	.LASF428:
 17247 2959 5F74696D 		.ascii	"_timeouttoreceivemultiplier\000"
 17247      656F7574 
 17247      746F7265 
 17247      63656976 
 17247      656D756C 
 17248              	.LASF116:
 17249 2975 5052494E 		.ascii	"PRINTER22_JOB\000"
 17249      54455232 
 17249      325F4A4F 
 17249      4200
 17250              	.LASF402:
 17251 2983 52465F4D 		.ascii	"RF_MUX_BROADCAST_CFG_REQUEST\000"
 17251      55585F42 
ARM GAS  C:\Users\RECEPC~1\AppData\Local\Temp\ccvg7Xyk.s 			page 374


 17251      524F4144 
 17251      43415354 
 17251      5F434647 
 17252              	.LASF576:
 17253 29a0 5F675F70 		.ascii	"_g_productscreenpos\000"
 17253      726F6475 
 17253      63747363 
 17253      7265656E 
 17253      706F7300 
 17254              	.LASF552:
 17255 29b4 74787462 		.ascii	"txtbuffer\000"
 17255      75666665 
 17255      7200
 17256              	.LASF9:
 17257 29be 5F5F696E 		.ascii	"__int32_t\000"
 17257      7433325F 
 17257      7400
 17258              	.LASF411:
 17259 29c8 52465F4D 		.ascii	"RF_MUX_COPY_REQUEST_RESPONSE\000"
 17259      55585F43 
 17259      4F50595F 
 17259      52455155 
 17259      4553545F 
 17260              	.LASF392:
 17261 29e5 52465F4D 		.ascii	"RF_MUX_GENERAL_PRINT_REQUEST\000"
 17261      55585F47 
 17261      454E4552 
 17261      414C5F50 
 17261      52494E54 
 17262              	.LASF448:
 17263 2a02 45455052 		.ascii	"EEPROM_DISPENSER_PUMP3_PRODUCT_NAMES_PAGE\000"
 17263      4F4D5F44 
 17263      49535045 
 17263      4E534552 
 17263      5F50554D 
 17264              	.LASF154:
 17265 2a2c 50756D70 		.ascii	"PumpTransactionalState\000"
 17265      5472616E 
 17265      73616374 
 17265      696F6E61 
 17265      6C537461 
 17266              	.LASF366:
 17267 2a43 5F707365 		.ascii	"_psequesteredmessagesink\000"
 17267      71756573 
 17267      74657265 
 17267      646D6573 
 17267      73616765 
 17268              	.LASF210:
 17269 2a5c 5F646174 		.ascii	"_datacontainer\000"
 17269      61636F6E 
 17269      7461696E 
 17269      657200
 17270              	.LASF566:
 17271 2a6b 5F675F64 		.ascii	"_g_dispenserlayoutinfo\000"
 17271      69737065 
 17271      6E736572 
 17271      6C61796F 
ARM GAS  C:\Users\RECEPC~1\AppData\Local\Temp\ccvg7Xyk.s 			page 375


 17271      7574696E 
 17272              	.LASF74:
 17273 2a82 5F4D4553 		.ascii	"_MESSAGE_STATE_\000"
 17273      53414745 
 17273      5F535441 
 17273      54455F00 
 17274              	.LASF75:
 17275 2a92 53494E4B 		.ascii	"SINK_FREE\000"
 17275      5F465245 
 17275      4500
 17276              	.LASF66:
 17277 2a9c 4E4F4E45 		.ascii	"NONE\000"
 17277      00
 17278              	.LASF301:
 17279 2aa1 44495350 		.ascii	"DISPLAY_INVALID_PASSWORD\000"
 17279      4C41595F 
 17279      494E5641 
 17279      4C49445F 
 17279      50415353 
 17280              	.LASF129:
 17281 2aba 49425554 		.ascii	"IBUTTON2_SCAN\000"
 17281      544F4E32 
 17281      5F534341 
 17281      4E00
 17282              	.LASF399:
 17283 2ac8 52465F4D 		.ascii	"RF_MUX_PENDING_CREDIT_SALE_RESPONSE\000"
 17283      55585F50 
 17283      454E4449 
 17283      4E475F43 
 17283      52454449 
 17284              	.LASF228:
 17285 2aec 5F646973 		.ascii	"_displaydigitsmode\000"
 17285      706C6179 
 17285      64696769 
 17285      74736D6F 
 17285      646500
 17286              	.LASF12:
 17287 2aff 75696E74 		.ascii	"uint16\000"
 17287      313600
 17288              	.LASF492:
 17289 2b06 44697370 		.ascii	"Display2Logic\000"
 17289      6C617932 
 17289      4C6F6769 
 17289      6300
 17290              	.LASF406:
 17291 2b14 52465F4D 		.ascii	"RF_MUX_ISLAND_OPER_DATA_REQUEST\000"
 17291      55585F49 
 17291      534C414E 
 17291      445F4F50 
 17291      45525F44 
 17292              	.LASF203:
 17293 2b34 50756D70 		.ascii	"PumpTransQueueUnlock\000"
 17293      5472616E 
 17293      73517565 
 17293      7565556E 
 17293      6C6F636B 
 17294              	.LASF54:
ARM GAS  C:\Users\RECEPC~1\AppData\Local\Temp\ccvg7Xyk.s 			page 376


 17295 2b49 5F707561 		.ascii	"_puartmanager\000"
 17295      72746D61 
 17295      6E616765 
 17295      7200
 17296              	.LASF429:
 17297 2b57 52464175 		.ascii	"RFAutoRun\000"
 17297      746F5275 
 17297      6E00
 17298              	.LASF87:
 17299 2b61 5F627566 		.ascii	"_buffersize\000"
 17299      66657273 
 17299      697A6500 
 17300              	.LASF463:
 17301 2b6d 45455052 		.ascii	"EEPROM_DISPENSER_PUMP22_TRANSACTION_PAGE\000"
 17301      4F4D5F44 
 17301      49535045 
 17301      4E534552 
 17301      5F50554D 
 17302              	.LASF269:
 17303 2b96 44495350 		.ascii	"DISPLAY_AUTORIZACION_RECHAZADA\000"
 17303      4C41595F 
 17303      4155544F 
 17303      52495A41 
 17303      43494F4E 
 17304              	.LASF430:
 17305 2bb5 5F707269 		.ascii	"_printerportside1\000"
 17305      6E746572 
 17305      706F7274 
 17305      73696465 
 17305      3100
 17306              		.ident	"GCC: (GNU Tools for ARM Embedded Processors) 4.9.3 20150303 (release) [ARM/embedded-4_9-br
