ARM GAS  C:\Users\RECEPC~1\AppData\Local\Temp\cczK7Y4l.s 			page 1


   1              		.syntax unified
   2              		.cpu cortex-m3
   3              		.fpu softvfp
   4              		.eabi_attribute 20, 1
   5              		.eabi_attribute 21, 1
   6              		.eabi_attribute 23, 3
   7              		.eabi_attribute 24, 1
   8              		.eabi_attribute 25, 1
   9              		.eabi_attribute 26, 1
  10              		.eabi_attribute 30, 6
  11              		.eabi_attribute 34, 1
  12              		.eabi_attribute 18, 4
  13              		.thumb
  14              		.file	"Display2_INT.c"
  15              		.text
  16              	.Ltext0:
  17              		.cfi_sections	.debug_frame
  18              		.section	.text.Display2_RXISR,"ax",%progbits
  19              		.align	2
  20              		.global	Display2_RXISR
  21              		.thumb
  22              		.thumb_func
  23              		.type	Display2_RXISR, %function
  24              	Display2_RXISR:
  25              	.LFB0:
  26              		.file 1 ".\\Generated_Source\\PSoC5\\Display2_INT.c"
   1:.\Generated_Source\PSoC5/Display2_INT.c **** /*******************************************************************************
   2:.\Generated_Source\PSoC5/Display2_INT.c **** * File Name: Display2INT.c
   3:.\Generated_Source\PSoC5/Display2_INT.c **** * Version 2.50
   4:.\Generated_Source\PSoC5/Display2_INT.c **** *
   5:.\Generated_Source\PSoC5/Display2_INT.c **** * Description:
   6:.\Generated_Source\PSoC5/Display2_INT.c **** *  This file provides all Interrupt Service functionality of the UART component
   7:.\Generated_Source\PSoC5/Display2_INT.c **** *
   8:.\Generated_Source\PSoC5/Display2_INT.c **** ********************************************************************************
   9:.\Generated_Source\PSoC5/Display2_INT.c **** * Copyright 2008-2015, Cypress Semiconductor Corporation.  All rights reserved.
  10:.\Generated_Source\PSoC5/Display2_INT.c **** * You may use this file only in accordance with the license, terms, conditions,
  11:.\Generated_Source\PSoC5/Display2_INT.c **** * disclaimers, and limitations in the end user license agreement accompanying
  12:.\Generated_Source\PSoC5/Display2_INT.c **** * the software package with which this file was provided.
  13:.\Generated_Source\PSoC5/Display2_INT.c **** *******************************************************************************/
  14:.\Generated_Source\PSoC5/Display2_INT.c **** 
  15:.\Generated_Source\PSoC5/Display2_INT.c **** #include "Display2.h"
  16:.\Generated_Source\PSoC5/Display2_INT.c **** #include "cyapicallbacks.h"
  17:.\Generated_Source\PSoC5/Display2_INT.c **** 
  18:.\Generated_Source\PSoC5/Display2_INT.c **** 
  19:.\Generated_Source\PSoC5/Display2_INT.c **** /***************************************
  20:.\Generated_Source\PSoC5/Display2_INT.c **** * Custom Declarations
  21:.\Generated_Source\PSoC5/Display2_INT.c **** ***************************************/
  22:.\Generated_Source\PSoC5/Display2_INT.c **** /* `#START CUSTOM_DECLARATIONS` Place your declaration here */
  23:.\Generated_Source\PSoC5/Display2_INT.c **** 
  24:.\Generated_Source\PSoC5/Display2_INT.c **** #include "UARTManager.h"
  25:.\Generated_Source\PSoC5/Display2_INT.c **** 
  26:.\Generated_Source\PSoC5/Display2_INT.c **** /* `#END` */
  27:.\Generated_Source\PSoC5/Display2_INT.c **** 
  28:.\Generated_Source\PSoC5/Display2_INT.c **** #if (Display2_RX_INTERRUPT_ENABLED && (Display2_RX_ENABLED || Display2_HD_ENABLED))
  29:.\Generated_Source\PSoC5/Display2_INT.c ****     /*******************************************************************************
  30:.\Generated_Source\PSoC5/Display2_INT.c ****     * Function Name: Display2_RXISR
  31:.\Generated_Source\PSoC5/Display2_INT.c ****     ********************************************************************************
ARM GAS  C:\Users\RECEPC~1\AppData\Local\Temp\cczK7Y4l.s 			page 2


  32:.\Generated_Source\PSoC5/Display2_INT.c ****     *
  33:.\Generated_Source\PSoC5/Display2_INT.c ****     * Summary:
  34:.\Generated_Source\PSoC5/Display2_INT.c ****     *  Interrupt Service Routine for RX portion of the UART
  35:.\Generated_Source\PSoC5/Display2_INT.c ****     *
  36:.\Generated_Source\PSoC5/Display2_INT.c ****     * Parameters:
  37:.\Generated_Source\PSoC5/Display2_INT.c ****     *  None.
  38:.\Generated_Source\PSoC5/Display2_INT.c ****     *
  39:.\Generated_Source\PSoC5/Display2_INT.c ****     * Return:
  40:.\Generated_Source\PSoC5/Display2_INT.c ****     *  None.
  41:.\Generated_Source\PSoC5/Display2_INT.c ****     *
  42:.\Generated_Source\PSoC5/Display2_INT.c ****     * Global Variables:
  43:.\Generated_Source\PSoC5/Display2_INT.c ****     *  Display2_rxBuffer - RAM buffer pointer for save received data.
  44:.\Generated_Source\PSoC5/Display2_INT.c ****     *  Display2_rxBufferWrite - cyclic index for write to rxBuffer,
  45:.\Generated_Source\PSoC5/Display2_INT.c ****     *     increments after each byte saved to buffer.
  46:.\Generated_Source\PSoC5/Display2_INT.c ****     *  Display2_rxBufferRead - cyclic index for read from rxBuffer,
  47:.\Generated_Source\PSoC5/Display2_INT.c ****     *     checked to detect overflow condition.
  48:.\Generated_Source\PSoC5/Display2_INT.c ****     *  Display2_rxBufferOverflow - software overflow flag. Set to one
  49:.\Generated_Source\PSoC5/Display2_INT.c ****     *     when Display2_rxBufferWrite index overtakes
  50:.\Generated_Source\PSoC5/Display2_INT.c ****     *     Display2_rxBufferRead index.
  51:.\Generated_Source\PSoC5/Display2_INT.c ****     *  Display2_rxBufferLoopDetect - additional variable to detect overflow.
  52:.\Generated_Source\PSoC5/Display2_INT.c ****     *     Set to one when Display2_rxBufferWrite is equal to
  53:.\Generated_Source\PSoC5/Display2_INT.c ****     *    Display2_rxBufferRead
  54:.\Generated_Source\PSoC5/Display2_INT.c ****     *  Display2_rxAddressMode - this variable contains the Address mode,
  55:.\Generated_Source\PSoC5/Display2_INT.c ****     *     selected in customizer or set by UART_SetRxAddressMode() API.
  56:.\Generated_Source\PSoC5/Display2_INT.c ****     *  Display2_rxAddressDetected - set to 1 when correct address received,
  57:.\Generated_Source\PSoC5/Display2_INT.c ****     *     and analysed to store following addressed data bytes to the buffer.
  58:.\Generated_Source\PSoC5/Display2_INT.c ****     *     When not correct address received, set to 0 to skip following data bytes.
  59:.\Generated_Source\PSoC5/Display2_INT.c ****     *
  60:.\Generated_Source\PSoC5/Display2_INT.c ****     *******************************************************************************/
  61:.\Generated_Source\PSoC5/Display2_INT.c ****     CY_ISR(Display2_RXISR)
  62:.\Generated_Source\PSoC5/Display2_INT.c ****     {
  27              		.loc 1 62 0
  28              		.cfi_startproc
  29              		@ args = 0, pretend = 0, frame = 8
  30              		@ frame_needed = 1, uses_anonymous_args = 0
  31 0000 80B5     		push	{r7, lr}
  32              		.cfi_def_cfa_offset 8
  33              		.cfi_offset 7, -8
  34              		.cfi_offset 14, -4
  35 0002 82B0     		sub	sp, sp, #8
  36              		.cfi_def_cfa_offset 16
  37 0004 00AF     		add	r7, sp, #0
  38              		.cfi_def_cfa_register 7
  63:.\Generated_Source\PSoC5/Display2_INT.c ****         uint8 readData;
  64:.\Generated_Source\PSoC5/Display2_INT.c ****         uint8 readStatus;
  65:.\Generated_Source\PSoC5/Display2_INT.c ****         uint8 increment_pointer = 0u;
  39              		.loc 1 65 0
  40 0006 0023     		movs	r3, #0
  41 0008 FB71     		strb	r3, [r7, #7]
  42              	.L6:
  66:.\Generated_Source\PSoC5/Display2_INT.c **** 
  67:.\Generated_Source\PSoC5/Display2_INT.c ****     #if(CY_PSOC3)
  68:.\Generated_Source\PSoC5/Display2_INT.c ****         uint8 int_en;
  69:.\Generated_Source\PSoC5/Display2_INT.c ****     #endif /* (CY_PSOC3) */
  70:.\Generated_Source\PSoC5/Display2_INT.c **** 
  71:.\Generated_Source\PSoC5/Display2_INT.c ****     #ifdef Display2_RXISR_ENTRY_CALLBACK
  72:.\Generated_Source\PSoC5/Display2_INT.c ****         Display2_RXISR_EntryCallback();
ARM GAS  C:\Users\RECEPC~1\AppData\Local\Temp\cczK7Y4l.s 			page 3


  73:.\Generated_Source\PSoC5/Display2_INT.c ****     #endif /* Display2_RXISR_ENTRY_CALLBACK */
  74:.\Generated_Source\PSoC5/Display2_INT.c **** 
  75:.\Generated_Source\PSoC5/Display2_INT.c ****         /* User code required at start of ISR */
  76:.\Generated_Source\PSoC5/Display2_INT.c ****         /* `#START Display2_RXISR_START` */
  77:.\Generated_Source\PSoC5/Display2_INT.c **** 
  78:.\Generated_Source\PSoC5/Display2_INT.c ****         /* `#END` */
  79:.\Generated_Source\PSoC5/Display2_INT.c **** 
  80:.\Generated_Source\PSoC5/Display2_INT.c ****     #if(CY_PSOC3)   /* Make sure nested interrupt is enabled */
  81:.\Generated_Source\PSoC5/Display2_INT.c ****         int_en = EA;
  82:.\Generated_Source\PSoC5/Display2_INT.c ****         CyGlobalIntEnable;
  83:.\Generated_Source\PSoC5/Display2_INT.c ****     #endif /* (CY_PSOC3) */
  84:.\Generated_Source\PSoC5/Display2_INT.c **** 
  85:.\Generated_Source\PSoC5/Display2_INT.c ****         do
  86:.\Generated_Source\PSoC5/Display2_INT.c ****         {
  87:.\Generated_Source\PSoC5/Display2_INT.c ****             /* Read receiver status register */
  88:.\Generated_Source\PSoC5/Display2_INT.c ****             readStatus = Display2_RXSTATUS_REG;
  43              		.loc 1 88 0
  44 000a 314B     		ldr	r3, .L8
  45 000c 1B78     		ldrb	r3, [r3]
  46 000e BB71     		strb	r3, [r7, #6]
  89:.\Generated_Source\PSoC5/Display2_INT.c ****             /* Copy the same status to readData variable for backward compatibility support 
  90:.\Generated_Source\PSoC5/Display2_INT.c ****             *  of the user code in Display2_RXISR_ERROR` section. 
  91:.\Generated_Source\PSoC5/Display2_INT.c ****             */
  92:.\Generated_Source\PSoC5/Display2_INT.c ****             readData = readStatus;
  47              		.loc 1 92 0
  48 0010 BB79     		ldrb	r3, [r7, #6]
  49 0012 7B71     		strb	r3, [r7, #5]
  93:.\Generated_Source\PSoC5/Display2_INT.c **** 
  94:.\Generated_Source\PSoC5/Display2_INT.c ****             if((readStatus & (Display2_RX_STS_BREAK | 
  95:.\Generated_Source\PSoC5/Display2_INT.c ****                             Display2_RX_STS_PAR_ERROR |
  96:.\Generated_Source\PSoC5/Display2_INT.c ****                             Display2_RX_STS_STOP_ERROR | 
  97:.\Generated_Source\PSoC5/Display2_INT.c ****                             Display2_RX_STS_OVERRUN)) != 0u)
  50              		.loc 1 97 0
  51 0014 BB79     		ldrb	r3, [r7, #6]	@ zero_extendqisi2
  52 0016 03F01E03 		and	r3, r3, #30
  94:.\Generated_Source\PSoC5/Display2_INT.c ****                             Display2_RX_STS_PAR_ERROR |
  53              		.loc 1 94 0
  54 001a 002B     		cmp	r3, #0
  55 001c 0BD0     		beq	.L2
  98:.\Generated_Source\PSoC5/Display2_INT.c ****             {
  99:.\Generated_Source\PSoC5/Display2_INT.c ****                 /* ERROR handling. */
 100:.\Generated_Source\PSoC5/Display2_INT.c ****                 Display2_errorStatus |= readStatus & ( Display2_RX_STS_BREAK | 
  56              		.loc 1 100 0
  57 001e BB79     		ldrb	r3, [r7, #6]	@ zero_extendqisi2
  58 0020 03F01E03 		and	r3, r3, #30
  59 0024 DAB2     		uxtb	r2, r3
  60 0026 2B4B     		ldr	r3, .L8+4
  61 0028 1B78     		ldrb	r3, [r3]	@ zero_extendqisi2
  62 002a DBB2     		uxtb	r3, r3
  63 002c 1343     		orrs	r3, r3, r2
  64 002e DBB2     		uxtb	r3, r3
  65 0030 DAB2     		uxtb	r2, r3
  66 0032 284B     		ldr	r3, .L8+4
  67 0034 1A70     		strb	r2, [r3]
  68              	.L2:
 101:.\Generated_Source\PSoC5/Display2_INT.c ****                                                             Display2_RX_STS_PAR_ERROR | 
 102:.\Generated_Source\PSoC5/Display2_INT.c ****                                                             Display2_RX_STS_STOP_ERROR | 
ARM GAS  C:\Users\RECEPC~1\AppData\Local\Temp\cczK7Y4l.s 			page 4


 103:.\Generated_Source\PSoC5/Display2_INT.c ****                                                             Display2_RX_STS_OVERRUN);
 104:.\Generated_Source\PSoC5/Display2_INT.c ****                 /* `#START Display2_RXISR_ERROR` */
 105:.\Generated_Source\PSoC5/Display2_INT.c **** 
 106:.\Generated_Source\PSoC5/Display2_INT.c ****                 /* `#END` */
 107:.\Generated_Source\PSoC5/Display2_INT.c ****                 
 108:.\Generated_Source\PSoC5/Display2_INT.c ****             #ifdef Display2_RXISR_ERROR_CALLBACK
 109:.\Generated_Source\PSoC5/Display2_INT.c ****                 Display2_RXISR_ERROR_Callback();
 110:.\Generated_Source\PSoC5/Display2_INT.c ****             #endif /* Display2_RXISR_ERROR_CALLBACK */
 111:.\Generated_Source\PSoC5/Display2_INT.c ****             }
 112:.\Generated_Source\PSoC5/Display2_INT.c ****             
 113:.\Generated_Source\PSoC5/Display2_INT.c ****             if((readStatus & Display2_RX_STS_FIFO_NOTEMPTY) != 0u)
  69              		.loc 1 113 0
  70 0036 BB79     		ldrb	r3, [r7, #6]	@ zero_extendqisi2
  71 0038 03F02003 		and	r3, r3, #32
  72 003c 002B     		cmp	r3, #0
  73 003e 30D0     		beq	.L3
 114:.\Generated_Source\PSoC5/Display2_INT.c ****             {
 115:.\Generated_Source\PSoC5/Display2_INT.c ****                 /* Read data from the RX data register */
 116:.\Generated_Source\PSoC5/Display2_INT.c ****                 readData = Display2_RXDATA_REG;
  74              		.loc 1 116 0
  75 0040 254B     		ldr	r3, .L8+8
  76 0042 1B78     		ldrb	r3, [r3]
  77 0044 7B71     		strb	r3, [r7, #5]
 117:.\Generated_Source\PSoC5/Display2_INT.c ****             #if (Display2_RXHW_ADDRESS_ENABLED)
 118:.\Generated_Source\PSoC5/Display2_INT.c ****                 if(Display2_rxAddressMode == (uint8)Display2__B_UART__AM_SW_DETECT_TO_BUFFER)
 119:.\Generated_Source\PSoC5/Display2_INT.c ****                 {
 120:.\Generated_Source\PSoC5/Display2_INT.c ****                     if((readStatus & Display2_RX_STS_MRKSPC) != 0u)
 121:.\Generated_Source\PSoC5/Display2_INT.c ****                     {
 122:.\Generated_Source\PSoC5/Display2_INT.c ****                         if ((readStatus & Display2_RX_STS_ADDR_MATCH) != 0u)
 123:.\Generated_Source\PSoC5/Display2_INT.c ****                         {
 124:.\Generated_Source\PSoC5/Display2_INT.c ****                             Display2_rxAddressDetected = 1u;
 125:.\Generated_Source\PSoC5/Display2_INT.c ****                         }
 126:.\Generated_Source\PSoC5/Display2_INT.c ****                         else
 127:.\Generated_Source\PSoC5/Display2_INT.c ****                         {
 128:.\Generated_Source\PSoC5/Display2_INT.c ****                             Display2_rxAddressDetected = 0u;
 129:.\Generated_Source\PSoC5/Display2_INT.c ****                         }
 130:.\Generated_Source\PSoC5/Display2_INT.c ****                     }
 131:.\Generated_Source\PSoC5/Display2_INT.c ****                     if(Display2_rxAddressDetected != 0u)
 132:.\Generated_Source\PSoC5/Display2_INT.c ****                     {   /* Store only addressed data */
 133:.\Generated_Source\PSoC5/Display2_INT.c ****                         Display2_rxBuffer[Display2_rxBufferWrite] = readData;
 134:.\Generated_Source\PSoC5/Display2_INT.c ****                         increment_pointer = 1u;
 135:.\Generated_Source\PSoC5/Display2_INT.c ****                     }
 136:.\Generated_Source\PSoC5/Display2_INT.c ****                 }
 137:.\Generated_Source\PSoC5/Display2_INT.c ****                 else /* Without software addressing */
 138:.\Generated_Source\PSoC5/Display2_INT.c ****                 {
 139:.\Generated_Source\PSoC5/Display2_INT.c ****                     Display2_rxBuffer[Display2_rxBufferWrite] = readData;
 140:.\Generated_Source\PSoC5/Display2_INT.c ****                     increment_pointer = 1u;
 141:.\Generated_Source\PSoC5/Display2_INT.c ****                 }
 142:.\Generated_Source\PSoC5/Display2_INT.c ****             #else  /* Without addressing */
 143:.\Generated_Source\PSoC5/Display2_INT.c ****                 Display2_rxBuffer[Display2_rxBufferWrite] = readData;
  78              		.loc 1 143 0
  79 0046 254B     		ldr	r3, .L8+12
  80 0048 1B78     		ldrb	r3, [r3]
  81 004a DBB2     		uxtb	r3, r3
  82 004c 1946     		mov	r1, r3
  83 004e 244A     		ldr	r2, .L8+16
  84 0050 7B79     		ldrb	r3, [r7, #5]
ARM GAS  C:\Users\RECEPC~1\AppData\Local\Temp\cczK7Y4l.s 			page 5


  85 0052 5354     		strb	r3, [r2, r1]
 144:.\Generated_Source\PSoC5/Display2_INT.c ****                 increment_pointer = 1u;
  86              		.loc 1 144 0
  87 0054 0123     		movs	r3, #1
  88 0056 FB71     		strb	r3, [r7, #7]
 145:.\Generated_Source\PSoC5/Display2_INT.c ****             #endif /* (Display2_RXHW_ADDRESS_ENABLED) */
 146:.\Generated_Source\PSoC5/Display2_INT.c **** 
 147:.\Generated_Source\PSoC5/Display2_INT.c ****                 /* Do not increment buffer pointer when skip not addressed data */
 148:.\Generated_Source\PSoC5/Display2_INT.c ****                 if(increment_pointer != 0u)
  89              		.loc 1 148 0
  90 0058 FB79     		ldrb	r3, [r7, #7]	@ zero_extendqisi2
  91 005a 002B     		cmp	r3, #0
  92 005c 21D0     		beq	.L3
 149:.\Generated_Source\PSoC5/Display2_INT.c ****                 {
 150:.\Generated_Source\PSoC5/Display2_INT.c ****                     if(Display2_rxBufferLoopDetect != 0u)
  93              		.loc 1 150 0
  94 005e 214B     		ldr	r3, .L8+20
  95 0060 1B78     		ldrb	r3, [r3]
  96 0062 DBB2     		uxtb	r3, r3
  97 0064 002B     		cmp	r3, #0
  98 0066 02D0     		beq	.L4
 151:.\Generated_Source\PSoC5/Display2_INT.c ****                     {   /* Set Software Buffer status Overflow */
 152:.\Generated_Source\PSoC5/Display2_INT.c ****                         Display2_rxBufferOverflow = 1u;
  99              		.loc 1 152 0
 100 0068 1F4B     		ldr	r3, .L8+24
 101 006a 0122     		movs	r2, #1
 102 006c 1A70     		strb	r2, [r3]
 103              	.L4:
 153:.\Generated_Source\PSoC5/Display2_INT.c ****                     }
 154:.\Generated_Source\PSoC5/Display2_INT.c ****                     /* Set next pointer. */
 155:.\Generated_Source\PSoC5/Display2_INT.c ****                     Display2_rxBufferWrite++;
 104              		.loc 1 155 0
 105 006e 1B4B     		ldr	r3, .L8+12
 106 0070 1B78     		ldrb	r3, [r3]
 107 0072 DBB2     		uxtb	r3, r3
 108 0074 0133     		adds	r3, r3, #1
 109 0076 DAB2     		uxtb	r2, r3
 110 0078 184B     		ldr	r3, .L8+12
 111 007a 1A70     		strb	r2, [r3]
 156:.\Generated_Source\PSoC5/Display2_INT.c **** 
 157:.\Generated_Source\PSoC5/Display2_INT.c ****                     /* Check pointer for a loop condition */
 158:.\Generated_Source\PSoC5/Display2_INT.c ****                     if(Display2_rxBufferWrite >= Display2_RX_BUFFER_SIZE)
 112              		.loc 1 158 0
 113 007c 174B     		ldr	r3, .L8+12
 114 007e 1B78     		ldrb	r3, [r3]
 115 0080 DBB2     		uxtb	r3, r3
 116 0082 1F2B     		cmp	r3, #31
 117 0084 02D9     		bls	.L5
 159:.\Generated_Source\PSoC5/Display2_INT.c ****                     {
 160:.\Generated_Source\PSoC5/Display2_INT.c ****                         Display2_rxBufferWrite = 0u;
 118              		.loc 1 160 0
 119 0086 154B     		ldr	r3, .L8+12
 120 0088 0022     		movs	r2, #0
 121 008a 1A70     		strb	r2, [r3]
 122              	.L5:
 161:.\Generated_Source\PSoC5/Display2_INT.c ****                     }
 162:.\Generated_Source\PSoC5/Display2_INT.c **** 
ARM GAS  C:\Users\RECEPC~1\AppData\Local\Temp\cczK7Y4l.s 			page 6


 163:.\Generated_Source\PSoC5/Display2_INT.c ****                     /* Detect pre-overload condition and set flag */
 164:.\Generated_Source\PSoC5/Display2_INT.c ****                     if(Display2_rxBufferWrite == Display2_rxBufferRead)
 123              		.loc 1 164 0
 124 008c 134B     		ldr	r3, .L8+12
 125 008e 1B78     		ldrb	r3, [r3]
 126 0090 DAB2     		uxtb	r2, r3
 127 0092 164B     		ldr	r3, .L8+28
 128 0094 1B78     		ldrb	r3, [r3]
 129 0096 DBB2     		uxtb	r3, r3
 130 0098 9A42     		cmp	r2, r3
 131 009a 02D1     		bne	.L3
 165:.\Generated_Source\PSoC5/Display2_INT.c ****                     {
 166:.\Generated_Source\PSoC5/Display2_INT.c ****                         Display2_rxBufferLoopDetect = 1u;
 132              		.loc 1 166 0
 133 009c 114B     		ldr	r3, .L8+20
 134 009e 0122     		movs	r2, #1
 135 00a0 1A70     		strb	r2, [r3]
 136              	.L3:
 167:.\Generated_Source\PSoC5/Display2_INT.c ****                         /* When Hardware Flow Control selected */
 168:.\Generated_Source\PSoC5/Display2_INT.c ****                         #if (Display2_FLOW_CONTROL != 0u)
 169:.\Generated_Source\PSoC5/Display2_INT.c ****                             /* Disable RX interrupt mask, it is enabled when user read data from th
 170:.\Generated_Source\PSoC5/Display2_INT.c ****                             Display2_RXSTATUS_MASK_REG  &= (uint8)~Display2_RX_STS_FIFO_NOTEMPTY;
 171:.\Generated_Source\PSoC5/Display2_INT.c ****                             CyIntClearPending(Display2_RX_VECT_NUM);
 172:.\Generated_Source\PSoC5/Display2_INT.c ****                             break; /* Break the reading of the FIFO loop, leave the data there for 
 173:.\Generated_Source\PSoC5/Display2_INT.c ****                         #endif /* (Display2_FLOW_CONTROL != 0u) */
 174:.\Generated_Source\PSoC5/Display2_INT.c ****                     }
 175:.\Generated_Source\PSoC5/Display2_INT.c ****                 }
 176:.\Generated_Source\PSoC5/Display2_INT.c ****             }
 177:.\Generated_Source\PSoC5/Display2_INT.c ****         }while((readStatus & Display2_RX_STS_FIFO_NOTEMPTY) != 0u);
 137              		.loc 1 177 0
 138 00a2 BB79     		ldrb	r3, [r7, #6]	@ zero_extendqisi2
 139 00a4 03F02003 		and	r3, r3, #32
 140 00a8 002B     		cmp	r3, #0
 141 00aa AED1     		bne	.L6
 178:.\Generated_Source\PSoC5/Display2_INT.c **** 
 179:.\Generated_Source\PSoC5/Display2_INT.c ****         /* User code required at end of ISR (Optional) */
 180:.\Generated_Source\PSoC5/Display2_INT.c ****         /* `#START Display2_RXISR_END` */
 181:.\Generated_Source\PSoC5/Display2_INT.c **** 
 182:.\Generated_Source\PSoC5/Display2_INT.c ****         if(InvokeResolver(UART_DISPLAY2, (char8*)Display2_rxBuffer, Display2_GetRxBufferSize()))
 142              		.loc 1 182 0
 143 00ac FFF7FEFF 		bl	Display2_GetRxBufferSize
 144 00b0 0346     		mov	r3, r0
 145 00b2 9BB2     		uxth	r3, r3
 146 00b4 A420     		movs	r0, #164
 147 00b6 0A49     		ldr	r1, .L8+16
 148 00b8 1A46     		mov	r2, r3
 149 00ba FFF7FEFF 		bl	InvokeResolver
 150 00be 0346     		mov	r3, r0
 151 00c0 002B     		cmp	r3, #0
 152 00c2 01D0     		beq	.L1
 183:.\Generated_Source\PSoC5/Display2_INT.c ****             Display2_ClearRxBuffer();
 153              		.loc 1 183 0
 154 00c4 FFF7FEFF 		bl	Display2_ClearRxBuffer
 155              	.L1:
 184:.\Generated_Source\PSoC5/Display2_INT.c ****         
 185:.\Generated_Source\PSoC5/Display2_INT.c ****         /* `#END` */
 186:.\Generated_Source\PSoC5/Display2_INT.c **** 
ARM GAS  C:\Users\RECEPC~1\AppData\Local\Temp\cczK7Y4l.s 			page 7


 187:.\Generated_Source\PSoC5/Display2_INT.c ****     #ifdef Display2_RXISR_EXIT_CALLBACK
 188:.\Generated_Source\PSoC5/Display2_INT.c ****         Display2_RXISR_ExitCallback();
 189:.\Generated_Source\PSoC5/Display2_INT.c ****     #endif /* Display2_RXISR_EXIT_CALLBACK */
 190:.\Generated_Source\PSoC5/Display2_INT.c **** 
 191:.\Generated_Source\PSoC5/Display2_INT.c ****     #if(CY_PSOC3)
 192:.\Generated_Source\PSoC5/Display2_INT.c ****         EA = int_en;
 193:.\Generated_Source\PSoC5/Display2_INT.c ****     #endif /* (CY_PSOC3) */
 194:.\Generated_Source\PSoC5/Display2_INT.c ****     }
 156              		.loc 1 194 0
 157 00c8 0837     		adds	r7, r7, #8
 158              		.cfi_def_cfa_offset 8
 159 00ca BD46     		mov	sp, r7
 160              		.cfi_def_cfa_register 13
 161              		@ sp needed
 162 00cc 80BD     		pop	{r7, pc}
 163              	.L9:
 164 00ce 00BF     		.align	2
 165              	.L8:
 166 00d0 6D640040 		.word	1073767533
 167 00d4 00000000 		.word	Display2_errorStatus
 168 00d8 4D640040 		.word	1073767501
 169 00dc 00000000 		.word	Display2_rxBufferWrite
 170 00e0 00000000 		.word	Display2_rxBuffer
 171 00e4 00000000 		.word	Display2_rxBufferLoopDetect
 172 00e8 00000000 		.word	Display2_rxBufferOverflow
 173 00ec 00000000 		.word	Display2_rxBufferRead
 174              		.cfi_endproc
 175              	.LFE0:
 176              		.size	Display2_RXISR, .-Display2_RXISR
 177              		.text
 178              	.Letext0:
 179              		.file 2 ".\\Generated_Source\\PSoC5\\cytypes.h"
 180              		.file 3 ".\\Generated_Source\\PSoC5\\Display2.h"
 181              		.file 4 "./UARTManager.h"