ARM GAS  C:\Users\RECEPC~1\AppData\Local\Temp\ccMrdYRj.s 			page 1


   1              		.syntax unified
   2              		.cpu cortex-m3
   3              		.fpu softvfp
   4              		.eabi_attribute 20, 1
   5              		.eabi_attribute 21, 1
   6              		.eabi_attribute 23, 3
   7              		.eabi_attribute 24, 1
   8              		.eabi_attribute 25, 1
   9              		.eabi_attribute 26, 1
  10              		.eabi_attribute 30, 6
  11              		.eabi_attribute 34, 1
  12              		.eabi_attribute 18, 4
  13              		.thumb
  14              		.file	"DispenserSink.c"
  15              		.text
  16              	.Ltext0:
  17              		.cfi_sections	.debug_frame
  18              		.global	_g_dispenserupdatetimeout
  19              		.bss
  20              		.align	1
  21              		.type	_g_dispenserupdatetimeout, %object
  22              		.size	_g_dispenserupdatetimeout, 2
  23              	_g_dispenserupdatetimeout:
  24 0000 0000     		.space	2
  25              		.global	_g_dispenserupdatetimeoutmultiplier
  26              		.align	1
  27              		.type	_g_dispenserupdatetimeoutmultiplier, %object
  28              		.size	_g_dispenserupdatetimeoutmultiplier, 2
  29              	_g_dispenserupdatetimeoutmultiplier:
  30 0002 0000     		.space	2
  31              		.section	.text.DispenserSinkRegistration,"ax",%progbits
  32              		.align	2
  33              		.global	DispenserSinkRegistration
  34              		.thumb
  35              		.thumb_func
  36              		.type	DispenserSinkRegistration, %function
  37              	DispenserSinkRegistration:
  38              	.LFB63:
  39              		.file 1 ".\\DispenserSink.c"
   1:.\DispenserSink.c **** /* ========================================
   2:.\DispenserSink.c ****  *
   3:.\DispenserSink.c ****  * Copyright INSEPET SISTEMAS, 2016
   4:.\DispenserSink.c ****  * All Rights Reserved
   5:.\DispenserSink.c ****  * UNPUBLISHED, LICENSED SOFTWARE.
   6:.\DispenserSink.c ****  *
   7:.\DispenserSink.c ****  * CONFIDENTIAL AND PROPRIETARY INFORMATION
   8:.\DispenserSink.c ****  * WHICH IS THE PROPERTY OF your company.
   9:.\DispenserSink.c ****  *
  10:.\DispenserSink.c ****  * ========================================
  11:.\DispenserSink.c **** @Created By: HIJH
  12:.\DispenserSink.c **** @Date: Septembre de 2016
  13:.\DispenserSink.c **** */
  14:.\DispenserSink.c **** #include <project.h>
  15:.\DispenserSink.c **** #include "SinkManager.h"
  16:.\DispenserSink.c **** #include "SinkObservables.h"
  17:.\DispenserSink.c **** #include "GlobalDefinitions.h"
  18:.\DispenserSink.c **** 
ARM GAS  C:\Users\RECEPC~1\AppData\Local\Temp\ccMrdYRj.s 			page 2


  19:.\DispenserSink.c **** #include "Dispenser.h"
  20:.\DispenserSink.c **** 
  21:.\DispenserSink.c **** extern PumpResponseContext _g_respctxt;
  22:.\DispenserSink.c **** 
  23:.\DispenserSink.c **** uint16 _g_dispenserupdatetimeout = 0x0000;
  24:.\DispenserSink.c **** uint16 _g_dispenserupdatetimeoutmultiplier = 0x0000;
  25:.\DispenserSink.c **** 
  26:.\DispenserSink.c **** void InitProtocol();
  27:.\DispenserSink.c **** void DispenserHandler();
  28:.\DispenserSink.c **** void DispenserTimeoutHandler();
  29:.\DispenserSink.c **** void DispenserUpdateTimeouts(void *pparam);
  30:.\DispenserSink.c **** void DispenserDataReceptionHandler();
  31:.\DispenserSink.c **** 
  32:.\DispenserSink.c **** //Messages coming from the Displays
  33:.\DispenserSink.c **** void DispenserSide1Listener(void *pparam);
  34:.\DispenserSink.c **** void DispenserSide2Listener(void *pparam);
  35:.\DispenserSink.c **** //Invoked once on MUX startup. This call is delayed a few seconds to allow for the general initiali
  36:.\DispenserSink.c **** void DispenserEnumeratePumps(LPVOID pparam);
  37:.\DispenserSink.c **** void DispenserLoadEEPROMSettings(LPVOID pparam);
  38:.\DispenserSink.c **** void DispenserPriceRestore(LPVOID pparam);
  39:.\DispenserSink.c **** void DispenserRestorePrices(LPVOID pparam);
  40:.\DispenserSink.c **** void DispenserUnlockPumpsOnEOT(LPVOID pparam);
  41:.\DispenserSink.c **** void DispenserAcquireConfiguration(LPVOID pparam);
  42:.\DispenserSink.c **** void DispenserConfigurePrices(LPVOID pparam);
  43:.\DispenserSink.c **** void DispenserConfigureSinglePrice(LPVOID pparam);
  44:.\DispenserSink.c **** void DispenserAcquireTotals(LPVOID pparam);
  45:.\DispenserSink.c **** void DispenserDaylyRestart(LPVOID pparam);
  46:.\DispenserSink.c **** void DispenserHoseActiveState(LPVOID pparam);
  47:.\DispenserSink.c **** void DispenserExecuteCreditTransaction(LPVOID pparam);
  48:.\DispenserSink.c **** void DispenserExecuteCashTransaction(LPVOID pparam);
  49:.\DispenserSink.c **** void DispenserBeepWarning(LPVOID pparam);
  50:.\DispenserSink.c **** void DispenserSinkRegistration()
  51:.\DispenserSink.c **** {
  40              		.loc 1 51 0
  41              		.cfi_startproc
  42              		@ args = 0, pretend = 0, frame = 16
  43              		@ frame_needed = 1, uses_anonymous_args = 0
  44 0000 80B5     		push	{r7, lr}
  45              		.cfi_def_cfa_offset 8
  46              		.cfi_offset 7, -8
  47              		.cfi_offset 14, -4
  48 0002 84B0     		sub	sp, sp, #16
  49              		.cfi_def_cfa_offset 24
  50 0004 00AF     		add	r7, sp, #0
  51              		.cfi_def_cfa_register 7
  52:.\DispenserSink.c ****     InitProtocol();
  52              		.loc 1 52 0
  53 0006 FFF7FEFF 		bl	InitProtocol
  53:.\DispenserSink.c ****     
  54:.\DispenserSink.c ****     PSINKSUBSCRIBERPTR psubscriber = AllocateSubscriberSlot();
  54              		.loc 1 54 0
  55 000a FFF7FEFF 		bl	AllocateSubscriberSlot
  56 000e F860     		str	r0, [r7, #12]
  55:.\DispenserSink.c ****     if(psubscriber)
  57              		.loc 1 55 0
  58 0010 FB68     		ldr	r3, [r7, #12]
  59 0012 002B     		cmp	r3, #0
ARM GAS  C:\Users\RECEPC~1\AppData\Local\Temp\ccMrdYRj.s 			page 3


  60 0014 71D0     		beq	.L2
  61              	.LBB2:
  56:.\DispenserSink.c ****     {
  57:.\DispenserSink.c ****         uint8 index = 0;
  62              		.loc 1 57 0
  63 0016 0023     		movs	r3, #0
  64 0018 FB72     		strb	r3, [r7, #11]
  58:.\DispenserSink.c ****         //The maximum number of observable identifiers is _OBSERVED_IDENTIFIERS_
  59:.\DispenserSink.c ****         //located in the header file "SinkManager.h"
  60:.\DispenserSink.c ****         //Every identifier is paired with its respective Callback method pointer
  61:.\DispenserSink.c ****         
  62:.\DispenserSink.c ****         psubscriber->_arrmsgid[index] = DISPLAY1_MESSAGE;
  65              		.loc 1 62 0
  66 001a FB7A     		ldrb	r3, [r7, #11]	@ zero_extendqisi2
  67 001c FA68     		ldr	r2, [r7, #12]
  68 001e 1344     		add	r3, r3, r2
  69 0020 1E22     		movs	r2, #30
  70 0022 5A70     		strb	r2, [r3, #1]
  63:.\DispenserSink.c ****         psubscriber->Callback[index++] = DispenserSide1Listener;
  71              		.loc 1 63 0
  72 0024 FB7A     		ldrb	r3, [r7, #11]	@ zero_extendqisi2
  73 0026 5A1C     		adds	r2, r3, #1
  74 0028 FA72     		strb	r2, [r7, #11]
  75 002a FA68     		ldr	r2, [r7, #12]
  76 002c 0233     		adds	r3, r3, #2
  77 002e 9B00     		lsls	r3, r3, #2
  78 0030 1344     		add	r3, r3, r2
  79 0032 A74A     		ldr	r2, .L9
  80 0034 5A60     		str	r2, [r3, #4]
  64:.\DispenserSink.c **** 
  65:.\DispenserSink.c ****         psubscriber->_arrmsgid[index] = DISPLAY2_MESSAGE;
  81              		.loc 1 65 0
  82 0036 FB7A     		ldrb	r3, [r7, #11]	@ zero_extendqisi2
  83 0038 FA68     		ldr	r2, [r7, #12]
  84 003a 1344     		add	r3, r3, r2
  85 003c 2222     		movs	r2, #34
  86 003e 5A70     		strb	r2, [r3, #1]
  66:.\DispenserSink.c ****         psubscriber->Callback[index++] = DispenserSide2Listener;
  87              		.loc 1 66 0
  88 0040 FB7A     		ldrb	r3, [r7, #11]	@ zero_extendqisi2
  89 0042 5A1C     		adds	r2, r3, #1
  90 0044 FA72     		strb	r2, [r7, #11]
  91 0046 FA68     		ldr	r2, [r7, #12]
  92 0048 0233     		adds	r3, r3, #2
  93 004a 9B00     		lsls	r3, r3, #2
  94 004c 1344     		add	r3, r3, r2
  95 004e A14A     		ldr	r2, .L9+4
  96 0050 5A60     		str	r2, [r3, #4]
  67:.\DispenserSink.c **** 
  68:.\DispenserSink.c ****         psubscriber->_arrmsgid[index] = DISPENSER_UPDATE_PUMP_TRANSACTION_TIMEOUTS;
  97              		.loc 1 68 0
  98 0052 FB7A     		ldrb	r3, [r7, #11]	@ zero_extendqisi2
  99 0054 FA68     		ldr	r2, [r7, #12]
 100 0056 1344     		add	r3, r3, r2
 101 0058 0722     		movs	r2, #7
 102 005a 5A70     		strb	r2, [r3, #1]
  69:.\DispenserSink.c ****         psubscriber->Callback[index++] = DispenserUpdateTimeouts;
ARM GAS  C:\Users\RECEPC~1\AppData\Local\Temp\ccMrdYRj.s 			page 4


 103              		.loc 1 69 0
 104 005c FB7A     		ldrb	r3, [r7, #11]	@ zero_extendqisi2
 105 005e 5A1C     		adds	r2, r3, #1
 106 0060 FA72     		strb	r2, [r7, #11]
 107 0062 FA68     		ldr	r2, [r7, #12]
 108 0064 0233     		adds	r3, r3, #2
 109 0066 9B00     		lsls	r3, r3, #2
 110 0068 1344     		add	r3, r3, r2
 111 006a 9B4A     		ldr	r2, .L9+8
 112 006c 5A60     		str	r2, [r3, #4]
  70:.\DispenserSink.c **** 
  71:.\DispenserSink.c ****         psubscriber->_arrmsgid[index] = DISPENSER_ACQUIRE_PUMP_STATE;
 113              		.loc 1 71 0
 114 006e FB7A     		ldrb	r3, [r7, #11]	@ zero_extendqisi2
 115 0070 FA68     		ldr	r2, [r7, #12]
 116 0072 1344     		add	r3, r3, r2
 117 0074 0822     		movs	r2, #8
 118 0076 5A70     		strb	r2, [r3, #1]
  72:.\DispenserSink.c ****         psubscriber->Callback[index++] = DispenserUpdatePumpState;
 119              		.loc 1 72 0
 120 0078 FB7A     		ldrb	r3, [r7, #11]	@ zero_extendqisi2
 121 007a 5A1C     		adds	r2, r3, #1
 122 007c FA72     		strb	r2, [r7, #11]
 123 007e FA68     		ldr	r2, [r7, #12]
 124 0080 0233     		adds	r3, r3, #2
 125 0082 9B00     		lsls	r3, r3, #2
 126 0084 1344     		add	r3, r3, r2
 127 0086 954A     		ldr	r2, .L9+12
 128 0088 5A60     		str	r2, [r3, #4]
  73:.\DispenserSink.c **** 
  74:.\DispenserSink.c ****         psubscriber->_arrmsgid[index] = DISPENSER_LOAD_EEPROM_SETTINGS;
 129              		.loc 1 74 0
 130 008a FB7A     		ldrb	r3, [r7, #11]	@ zero_extendqisi2
 131 008c FA68     		ldr	r2, [r7, #12]
 132 008e 1344     		add	r3, r3, r2
 133 0090 0D22     		movs	r2, #13
 134 0092 5A70     		strb	r2, [r3, #1]
  75:.\DispenserSink.c ****         psubscriber->Callback[index++] = DispenserLoadEEPROMSettings;
 135              		.loc 1 75 0
 136 0094 FB7A     		ldrb	r3, [r7, #11]	@ zero_extendqisi2
 137 0096 5A1C     		adds	r2, r3, #1
 138 0098 FA72     		strb	r2, [r7, #11]
 139 009a FA68     		ldr	r2, [r7, #12]
 140 009c 0233     		adds	r3, r3, #2
 141 009e 9B00     		lsls	r3, r3, #2
 142 00a0 1344     		add	r3, r3, r2
 143 00a2 8F4A     		ldr	r2, .L9+16
 144 00a4 5A60     		str	r2, [r3, #4]
  76:.\DispenserSink.c **** 
  77:.\DispenserSink.c ****         #ifdef PRIME_PROTOCOL
  78:.\DispenserSink.c ****         psubscriber->_arrmsgid[index] = DISPENSER_ACQUIRE_PUMP_HOSE;
 145              		.loc 1 78 0
 146 00a6 FB7A     		ldrb	r3, [r7, #11]	@ zero_extendqisi2
 147 00a8 FA68     		ldr	r2, [r7, #12]
 148 00aa 1344     		add	r3, r3, r2
 149 00ac 0922     		movs	r2, #9
 150 00ae 5A70     		strb	r2, [r3, #1]
ARM GAS  C:\Users\RECEPC~1\AppData\Local\Temp\ccMrdYRj.s 			page 5


  79:.\DispenserSink.c ****         psubscriber->Callback[index++] = DispenserHoseActiveState;
 151              		.loc 1 79 0
 152 00b0 FB7A     		ldrb	r3, [r7, #11]	@ zero_extendqisi2
 153 00b2 5A1C     		adds	r2, r3, #1
 154 00b4 FA72     		strb	r2, [r7, #11]
 155 00b6 FA68     		ldr	r2, [r7, #12]
 156 00b8 0233     		adds	r3, r3, #2
 157 00ba 9B00     		lsls	r3, r3, #2
 158 00bc 1344     		add	r3, r3, r2
 159 00be 894A     		ldr	r2, .L9+20
 160 00c0 5A60     		str	r2, [r3, #4]
  80:.\DispenserSink.c **** 
  81:.\DispenserSink.c ****         psubscriber->_arrmsgid[index] = DISPENSER_EXECUTE_CASH_TRANSACTION;
 161              		.loc 1 81 0
 162 00c2 FB7A     		ldrb	r3, [r7, #11]	@ zero_extendqisi2
 163 00c4 FA68     		ldr	r2, [r7, #12]
 164 00c6 1344     		add	r3, r3, r2
 165 00c8 0A22     		movs	r2, #10
 166 00ca 5A70     		strb	r2, [r3, #1]
  82:.\DispenserSink.c ****         psubscriber->Callback[index++] = DispenserExecuteCashTransaction;
 167              		.loc 1 82 0
 168 00cc FB7A     		ldrb	r3, [r7, #11]	@ zero_extendqisi2
 169 00ce 5A1C     		adds	r2, r3, #1
 170 00d0 FA72     		strb	r2, [r7, #11]
 171 00d2 FA68     		ldr	r2, [r7, #12]
 172 00d4 0233     		adds	r3, r3, #2
 173 00d6 9B00     		lsls	r3, r3, #2
 174 00d8 1344     		add	r3, r3, r2
 175 00da 834A     		ldr	r2, .L9+24
 176 00dc 5A60     		str	r2, [r3, #4]
  83:.\DispenserSink.c **** 
  84:.\DispenserSink.c ****         psubscriber->_arrmsgid[index] = DISPENSER_EXECUTE_CREDIT_TRANSACTION;
 177              		.loc 1 84 0
 178 00de FB7A     		ldrb	r3, [r7, #11]	@ zero_extendqisi2
 179 00e0 FA68     		ldr	r2, [r7, #12]
 180 00e2 1344     		add	r3, r3, r2
 181 00e4 0B22     		movs	r2, #11
 182 00e6 5A70     		strb	r2, [r3, #1]
  85:.\DispenserSink.c ****         psubscriber->Callback[index++] = DispenserExecuteCreditTransaction;
 183              		.loc 1 85 0
 184 00e8 FB7A     		ldrb	r3, [r7, #11]	@ zero_extendqisi2
 185 00ea 5A1C     		adds	r2, r3, #1
 186 00ec FA72     		strb	r2, [r7, #11]
 187 00ee FA68     		ldr	r2, [r7, #12]
 188 00f0 0233     		adds	r3, r3, #2
 189 00f2 9B00     		lsls	r3, r3, #2
 190 00f4 1344     		add	r3, r3, r2
 191 00f6 7D4A     		ldr	r2, .L9+28
 192 00f8 5A60     		str	r2, [r3, #4]
 193              	.L2:
 194              	.LBE2:
  86:.\DispenserSink.c ****         #endif
  87:.\DispenserSink.c ****         
  88:.\DispenserSink.c ****     }
  89:.\DispenserSink.c **** 
  90:.\DispenserSink.c ****     psubscriber = AllocateSubscriberSlot();
 195              		.loc 1 90 0
ARM GAS  C:\Users\RECEPC~1\AppData\Local\Temp\ccMrdYRj.s 			page 6


 196 00fa FFF7FEFF 		bl	AllocateSubscriberSlot
 197 00fe F860     		str	r0, [r7, #12]
  91:.\DispenserSink.c ****     if(psubscriber)
 198              		.loc 1 91 0
 199 0100 FB68     		ldr	r3, [r7, #12]
 200 0102 002B     		cmp	r3, #0
 201 0104 71D0     		beq	.L3
 202              	.LBB3:
  92:.\DispenserSink.c ****     {
  93:.\DispenserSink.c ****         uint8 index = 0;
 203              		.loc 1 93 0
 204 0106 0023     		movs	r3, #0
 205 0108 BB72     		strb	r3, [r7, #10]
  94:.\DispenserSink.c ****         
  95:.\DispenserSink.c ****         psubscriber->_arrmsgid[index] = DISPENSER_ENUMERATE_VISIBLE_PUMPS;
 206              		.loc 1 95 0
 207 010a BB7A     		ldrb	r3, [r7, #10]	@ zero_extendqisi2
 208 010c FA68     		ldr	r2, [r7, #12]
 209 010e 1344     		add	r3, r3, r2
 210 0110 0E22     		movs	r2, #14
 211 0112 5A70     		strb	r2, [r3, #1]
  96:.\DispenserSink.c ****         psubscriber->Callback[index++] = DispenserEnumeratePumps;
 212              		.loc 1 96 0
 213 0114 BB7A     		ldrb	r3, [r7, #10]	@ zero_extendqisi2
 214 0116 5A1C     		adds	r2, r3, #1
 215 0118 BA72     		strb	r2, [r7, #10]
 216 011a FA68     		ldr	r2, [r7, #12]
 217 011c 0233     		adds	r3, r3, #2
 218 011e 9B00     		lsls	r3, r3, #2
 219 0120 1344     		add	r3, r3, r2
 220 0122 734A     		ldr	r2, .L9+32
 221 0124 5A60     		str	r2, [r3, #4]
  97:.\DispenserSink.c ****         
  98:.\DispenserSink.c ****         psubscriber->_arrmsgid[index] = DISPENSER_ACQUIRE_CONFIGURATION_INFORMATION;
 222              		.loc 1 98 0
 223 0126 BB7A     		ldrb	r3, [r7, #10]	@ zero_extendqisi2
 224 0128 FA68     		ldr	r2, [r7, #12]
 225 012a 1344     		add	r3, r3, r2
 226 012c 0F22     		movs	r2, #15
 227 012e 5A70     		strb	r2, [r3, #1]
  99:.\DispenserSink.c ****         psubscriber->Callback[index++] = DispenserAcquireConfiguration;
 228              		.loc 1 99 0
 229 0130 BB7A     		ldrb	r3, [r7, #10]	@ zero_extendqisi2
 230 0132 5A1C     		adds	r2, r3, #1
 231 0134 BA72     		strb	r2, [r7, #10]
 232 0136 FA68     		ldr	r2, [r7, #12]
 233 0138 0233     		adds	r3, r3, #2
 234 013a 9B00     		lsls	r3, r3, #2
 235 013c 1344     		add	r3, r3, r2
 236 013e 6D4A     		ldr	r2, .L9+36
 237 0140 5A60     		str	r2, [r3, #4]
 100:.\DispenserSink.c ****         
 101:.\DispenserSink.c ****         psubscriber->_arrmsgid[index] = DISPENSER_CONFIGURE_PRICES;
 238              		.loc 1 101 0
 239 0142 BB7A     		ldrb	r3, [r7, #10]	@ zero_extendqisi2
 240 0144 FA68     		ldr	r2, [r7, #12]
 241 0146 1344     		add	r3, r3, r2
ARM GAS  C:\Users\RECEPC~1\AppData\Local\Temp\ccMrdYRj.s 			page 7


 242 0148 1022     		movs	r2, #16
 243 014a 5A70     		strb	r2, [r3, #1]
 102:.\DispenserSink.c ****         psubscriber->Callback[index++] = DispenserConfigurePrices;
 244              		.loc 1 102 0
 245 014c BB7A     		ldrb	r3, [r7, #10]	@ zero_extendqisi2
 246 014e 5A1C     		adds	r2, r3, #1
 247 0150 BA72     		strb	r2, [r7, #10]
 248 0152 FA68     		ldr	r2, [r7, #12]
 249 0154 0233     		adds	r3, r3, #2
 250 0156 9B00     		lsls	r3, r3, #2
 251 0158 1344     		add	r3, r3, r2
 252 015a 674A     		ldr	r2, .L9+40
 253 015c 5A60     		str	r2, [r3, #4]
 103:.\DispenserSink.c ****         
 104:.\DispenserSink.c ****         psubscriber->_arrmsgid[index] = DISPENSER_CONFIGURE_SINGLE_PRICE;
 254              		.loc 1 104 0
 255 015e BB7A     		ldrb	r3, [r7, #10]	@ zero_extendqisi2
 256 0160 FA68     		ldr	r2, [r7, #12]
 257 0162 1344     		add	r3, r3, r2
 258 0164 1222     		movs	r2, #18
 259 0166 5A70     		strb	r2, [r3, #1]
 105:.\DispenserSink.c ****         psubscriber->Callback[index++] = DispenserConfigureSinglePrice;
 260              		.loc 1 105 0
 261 0168 BB7A     		ldrb	r3, [r7, #10]	@ zero_extendqisi2
 262 016a 5A1C     		adds	r2, r3, #1
 263 016c BA72     		strb	r2, [r7, #10]
 264 016e FA68     		ldr	r2, [r7, #12]
 265 0170 0233     		adds	r3, r3, #2
 266 0172 9B00     		lsls	r3, r3, #2
 267 0174 1344     		add	r3, r3, r2
 268 0176 614A     		ldr	r2, .L9+44
 269 0178 5A60     		str	r2, [r3, #4]
 106:.\DispenserSink.c ****         
 107:.\DispenserSink.c ****         psubscriber->_arrmsgid[index] = DISPENSER_ACQUIRE_TOTALS;
 270              		.loc 1 107 0
 271 017a BB7A     		ldrb	r3, [r7, #10]	@ zero_extendqisi2
 272 017c FA68     		ldr	r2, [r7, #12]
 273 017e 1344     		add	r3, r3, r2
 274 0180 1322     		movs	r2, #19
 275 0182 5A70     		strb	r2, [r3, #1]
 108:.\DispenserSink.c ****         psubscriber->Callback[index++] = DispenserAcquireTotals;
 276              		.loc 1 108 0
 277 0184 BB7A     		ldrb	r3, [r7, #10]	@ zero_extendqisi2
 278 0186 5A1C     		adds	r2, r3, #1
 279 0188 BA72     		strb	r2, [r7, #10]
 280 018a FA68     		ldr	r2, [r7, #12]
 281 018c 0233     		adds	r3, r3, #2
 282 018e 9B00     		lsls	r3, r3, #2
 283 0190 1344     		add	r3, r3, r2
 284 0192 5B4A     		ldr	r2, .L9+48
 285 0194 5A60     		str	r2, [r3, #4]
 109:.\DispenserSink.c **** 
 110:.\DispenserSink.c ****         psubscriber->_arrmsgid[index] = DISPENSER_RESTORE_PRICES;
 286              		.loc 1 110 0
 287 0196 BB7A     		ldrb	r3, [r7, #10]	@ zero_extendqisi2
 288 0198 FA68     		ldr	r2, [r7, #12]
 289 019a 1344     		add	r3, r3, r2
ARM GAS  C:\Users\RECEPC~1\AppData\Local\Temp\ccMrdYRj.s 			page 8


 290 019c 1122     		movs	r2, #17
 291 019e 5A70     		strb	r2, [r3, #1]
 111:.\DispenserSink.c ****         psubscriber->Callback[index++] = DispenserRestorePrices;
 292              		.loc 1 111 0
 293 01a0 BB7A     		ldrb	r3, [r7, #10]	@ zero_extendqisi2
 294 01a2 5A1C     		adds	r2, r3, #1
 295 01a4 BA72     		strb	r2, [r7, #10]
 296 01a6 FA68     		ldr	r2, [r7, #12]
 297 01a8 0233     		adds	r3, r3, #2
 298 01aa 9B00     		lsls	r3, r3, #2
 299 01ac 1344     		add	r3, r3, r2
 300 01ae 554A     		ldr	r2, .L9+52
 301 01b0 5A60     		str	r2, [r3, #4]
 112:.\DispenserSink.c ****         
 113:.\DispenserSink.c ****         psubscriber->_arrmsgid[index] = DISPENSER_PUMP_HANDLER;
 302              		.loc 1 113 0
 303 01b2 BB7A     		ldrb	r3, [r7, #10]	@ zero_extendqisi2
 304 01b4 FA68     		ldr	r2, [r7, #12]
 305 01b6 1344     		add	r3, r3, r2
 306 01b8 1422     		movs	r2, #20
 307 01ba 5A70     		strb	r2, [r3, #1]
 114:.\DispenserSink.c ****         psubscriber->Callback[index++] = DispenserHandler;
 308              		.loc 1 114 0
 309 01bc BB7A     		ldrb	r3, [r7, #10]	@ zero_extendqisi2
 310 01be 5A1C     		adds	r2, r3, #1
 311 01c0 BA72     		strb	r2, [r7, #10]
 312 01c2 FA68     		ldr	r2, [r7, #12]
 313 01c4 0233     		adds	r3, r3, #2
 314 01c6 9B00     		lsls	r3, r3, #2
 315 01c8 1344     		add	r3, r3, r2
 316 01ca 4F4A     		ldr	r2, .L9+56
 317 01cc 5A60     		str	r2, [r3, #4]
 115:.\DispenserSink.c **** 
 116:.\DispenserSink.c ****         psubscriber->_arrmsgid[index] = DISPENSER_PUMP_BEEP_WARNING;
 318              		.loc 1 116 0
 319 01ce BB7A     		ldrb	r3, [r7, #10]	@ zero_extendqisi2
 320 01d0 FA68     		ldr	r2, [r7, #12]
 321 01d2 1344     		add	r3, r3, r2
 322 01d4 1522     		movs	r2, #21
 323 01d6 5A70     		strb	r2, [r3, #1]
 117:.\DispenserSink.c ****         psubscriber->Callback[index++] = DispenserBeepWarning;
 324              		.loc 1 117 0
 325 01d8 BB7A     		ldrb	r3, [r7, #10]	@ zero_extendqisi2
 326 01da 5A1C     		adds	r2, r3, #1
 327 01dc BA72     		strb	r2, [r7, #10]
 328 01de FA68     		ldr	r2, [r7, #12]
 329 01e0 0233     		adds	r3, r3, #2
 330 01e2 9B00     		lsls	r3, r3, #2
 331 01e4 1344     		add	r3, r3, r2
 332 01e6 494A     		ldr	r2, .L9+60
 333 01e8 5A60     		str	r2, [r3, #4]
 334              	.L3:
 335              	.LBE3:
 118:.\DispenserSink.c ****     }    
 119:.\DispenserSink.c ****     //This perpetual call is in charge of updating the global pump state array
 120:.\DispenserSink.c ****     //so the different modules could inquiry on those states
 121:.\DispenserSink.c ****     //This one-shot call is in charge of loading the current dispenser configuration regarding
ARM GAS  C:\Users\RECEPC~1\AppData\Local\Temp\ccMrdYRj.s 			page 9


 122:.\DispenserSink.c ****     //money, volume and ppu decimal formats, pump layout, pump model, display type, volume unit etc
 123:.\DispenserSink.c **** 
 124:.\DispenserSink.c ****     #ifdef FAST_STARTUP
 125:.\DispenserSink.c ****     _ALLOCATE_SINKMESSAGE_SLOT(psinkmsg);
 336              		.loc 1 125 0
 337 01ea FFF7FEFF 		bl	AllocateMessageSlot
 338 01ee 7860     		str	r0, [r7, #4]
 126:.\DispenserSink.c ****     if(psinkmsg)
 339              		.loc 1 126 0
 340 01f0 7B68     		ldr	r3, [r7, #4]
 341 01f2 002B     		cmp	r3, #0
 342 01f4 0CD0     		beq	.L4
 127:.\DispenserSink.c ****     {
 128:.\DispenserSink.c ****         psinkmsg->_messageid = DISPENSER_ENUMERATE_VISIBLE_PUMPS;
 343              		.loc 1 128 0
 344 01f6 7B68     		ldr	r3, [r7, #4]
 345 01f8 0E22     		movs	r2, #14
 346 01fa 5A70     		strb	r2, [r3, #1]
 129:.\DispenserSink.c ****         psinkmsg->_messagedelay = _SINK_TIMEOUT_10S_;
 347              		.loc 1 129 0
 348 01fc 7B68     		ldr	r3, [r7, #4]
 349 01fe 42F21072 		movw	r2, #10000
 350 0202 9A80     		strh	r2, [r3, #4]	@ movhi
 130:.\DispenserSink.c ****         psinkmsg->_messagetype = DELAYEDALLINTERESTED;
 351              		.loc 1 130 0
 352 0204 7B68     		ldr	r3, [r7, #4]
 353 0206 0522     		movs	r2, #5
 354 0208 9A70     		strb	r2, [r3, #2]
 131:.\DispenserSink.c ****         psinkmsg->_messagestate = SINK_BUSY;
 355              		.loc 1 131 0
 356 020a 7B68     		ldr	r3, [r7, #4]
 357 020c 0322     		movs	r2, #3
 358 020e DA70     		strb	r2, [r3, #3]
 359              	.L4:
 132:.\DispenserSink.c ****     }    
 133:.\DispenserSink.c ****     _REALLOCATE_SINKMESSAGE_SLOT(psinkmsg);
 360              		.loc 1 133 0
 361 0210 FFF7FEFF 		bl	AllocateMessageSlot
 362 0214 7860     		str	r0, [r7, #4]
 134:.\DispenserSink.c ****     if(psinkmsg)
 363              		.loc 1 134 0
 364 0216 7B68     		ldr	r3, [r7, #4]
 365 0218 002B     		cmp	r3, #0
 366 021a 0CD0     		beq	.L5
 135:.\DispenserSink.c ****     {
 136:.\DispenserSink.c ****         psinkmsg->_messageid = DISPENSER_ACQUIRE_CONFIGURATION_INFORMATION;
 367              		.loc 1 136 0
 368 021c 7B68     		ldr	r3, [r7, #4]
 369 021e 0F22     		movs	r2, #15
 370 0220 5A70     		strb	r2, [r3, #1]
 137:.\DispenserSink.c ****         psinkmsg->_messagedelay = _SINK_TIMEOUT_15S_;
 371              		.loc 1 137 0
 372 0222 7B68     		ldr	r3, [r7, #4]
 373 0224 43F69822 		movw	r2, #15000
 374 0228 9A80     		strh	r2, [r3, #4]	@ movhi
 138:.\DispenserSink.c ****         psinkmsg->_messagetype = DELAYEDALLINTERESTED;
 375              		.loc 1 138 0
ARM GAS  C:\Users\RECEPC~1\AppData\Local\Temp\ccMrdYRj.s 			page 10


 376 022a 7B68     		ldr	r3, [r7, #4]
 377 022c 0522     		movs	r2, #5
 378 022e 9A70     		strb	r2, [r3, #2]
 139:.\DispenserSink.c ****         psinkmsg->_messagestate = SINK_BUSY;
 379              		.loc 1 139 0
 380 0230 7B68     		ldr	r3, [r7, #4]
 381 0232 0322     		movs	r2, #3
 382 0234 DA70     		strb	r2, [r3, #3]
 383              	.L5:
 140:.\DispenserSink.c ****     }
 141:.\DispenserSink.c ****     _REALLOCATE_SINKMESSAGE_SLOT(psinkmsg);
 384              		.loc 1 141 0
 385 0236 FFF7FEFF 		bl	AllocateMessageSlot
 386 023a 7860     		str	r0, [r7, #4]
 142:.\DispenserSink.c ****     if(psinkmsg)
 387              		.loc 1 142 0
 388 023c 7B68     		ldr	r3, [r7, #4]
 389 023e 002B     		cmp	r3, #0
 390 0240 0CD0     		beq	.L6
 143:.\DispenserSink.c ****     {
 144:.\DispenserSink.c ****         psinkmsg->_messageid = WATCHDOG_STARTUP;
 391              		.loc 1 144 0
 392 0242 7B68     		ldr	r3, [r7, #4]
 393 0244 2922     		movs	r2, #41
 394 0246 5A70     		strb	r2, [r3, #1]
 145:.\DispenserSink.c ****         psinkmsg->_messagedelay = _SINK_TIMEOUT_20S_;
 395              		.loc 1 145 0
 396 0248 7B68     		ldr	r3, [r7, #4]
 397 024a 44F62062 		movw	r2, #20000
 398 024e 9A80     		strh	r2, [r3, #4]	@ movhi
 146:.\DispenserSink.c ****         psinkmsg->_messagetype = DELAYEDALLINTERESTED;
 399              		.loc 1 146 0
 400 0250 7B68     		ldr	r3, [r7, #4]
 401 0252 0522     		movs	r2, #5
 402 0254 9A70     		strb	r2, [r3, #2]
 147:.\DispenserSink.c ****         psinkmsg->_messagestate = SINK_BUSY;
 403              		.loc 1 147 0
 404 0256 7B68     		ldr	r3, [r7, #4]
 405 0258 0322     		movs	r2, #3
 406 025a DA70     		strb	r2, [r3, #3]
 407              	.L6:
 148:.\DispenserSink.c ****     }
 149:.\DispenserSink.c ****     _REALLOCATE_SINKMESSAGE_SLOT(psinkmsg);
 408              		.loc 1 149 0
 409 025c FFF7FEFF 		bl	AllocateMessageSlot
 410 0260 7860     		str	r0, [r7, #4]
 150:.\DispenserSink.c ****     if(psinkmsg)
 411              		.loc 1 150 0
 412 0262 7B68     		ldr	r3, [r7, #4]
 413 0264 002B     		cmp	r3, #0
 414 0266 0FD0     		beq	.L7
 151:.\DispenserSink.c ****     {
 152:.\DispenserSink.c ****         psinkmsg->_messageid = DISPENSER_ACQUIRE_PUMP_STATE;
 415              		.loc 1 152 0
 416 0268 7B68     		ldr	r3, [r7, #4]
 417 026a 0822     		movs	r2, #8
 418 026c 5A70     		strb	r2, [r3, #1]
ARM GAS  C:\Users\RECEPC~1\AppData\Local\Temp\ccMrdYRj.s 			page 11


 153:.\DispenserSink.c ****         psinkmsg->_messagedelay = _SINK_TIMEOUT_20S_;
 419              		.loc 1 153 0
 420 026e 7B68     		ldr	r3, [r7, #4]
 421 0270 44F62062 		movw	r2, #20000
 422 0274 9A80     		strh	r2, [r3, #4]	@ movhi
 154:.\DispenserSink.c ****         #ifndef ADVANTAGE_PROTOCOL
 155:.\DispenserSink.c ****         psinkmsg->_messagetimeoutlimit = _SINK_TIMEOUT_250MS_;
 423              		.loc 1 155 0
 424 0276 7B68     		ldr	r3, [r7, #4]
 425 0278 FA22     		movs	r2, #250
 426 027a 5A81     		strh	r2, [r3, #10]	@ movhi
 156:.\DispenserSink.c ****         #endif
 157:.\DispenserSink.c ****         #ifdef ADVANTAGE_PROTOCOL
 158:.\DispenserSink.c ****         psinkmsg->_messagetimeoutlimit = _SINK_TIMEOUT_500MS_;
 159:.\DispenserSink.c ****         #endif
 160:.\DispenserSink.c ****         psinkmsg->_messagetype = FIRSTFOUNDFOREVER;
 427              		.loc 1 160 0
 428 027c 7B68     		ldr	r3, [r7, #4]
 429 027e 0622     		movs	r2, #6
 430 0280 9A70     		strb	r2, [r3, #2]
 161:.\DispenserSink.c ****         psinkmsg->_messagestate = SINK_BUSY;
 431              		.loc 1 161 0
 432 0282 7B68     		ldr	r3, [r7, #4]
 433 0284 0322     		movs	r2, #3
 434 0286 DA70     		strb	r2, [r3, #3]
 435              	.L7:
 162:.\DispenserSink.c ****     }
 163:.\DispenserSink.c ****     #endif
 164:.\DispenserSink.c ****     #ifdef SLOW_STARTUP
 165:.\DispenserSink.c ****     _ALLOCATE_SINKMESSAGE_SLOT(psinkmsg);
 166:.\DispenserSink.c ****     if(psinkmsg)
 167:.\DispenserSink.c ****     {
 168:.\DispenserSink.c ****         psinkmsg->_messageid = DISPENSER_ENUMERATE_VISIBLE_PUMPS;
 169:.\DispenserSink.c ****         psinkmsg->_messagedelay = _SINK_TIMEOUT_40S_;
 170:.\DispenserSink.c ****         psinkmsg->_messagetype = DELAYEDALLINTERESTED;
 171:.\DispenserSink.c ****         psinkmsg->_messagestate = SINK_BUSY;
 172:.\DispenserSink.c ****     }
 173:.\DispenserSink.c ****     
 174:.\DispenserSink.c ****     _REALLOCATE_SINKMESSAGE_SLOT(psinkmsg);
 175:.\DispenserSink.c ****     if(psinkmsg)
 176:.\DispenserSink.c ****     {
 177:.\DispenserSink.c ****         psinkmsg->_messageid = DISPENSER_ACQUIRE_CONFIGURATION_INFORMATION;
 178:.\DispenserSink.c ****         psinkmsg->_messagedelay = _SINK_TIMEOUT_45S_;
 179:.\DispenserSink.c ****         psinkmsg->_messagetype = DELAYEDALLINTERESTED;
 180:.\DispenserSink.c ****         psinkmsg->_messagestate = SINK_BUSY;
 181:.\DispenserSink.c ****     }
 182:.\DispenserSink.c ****     _REALLOCATE_SINKMESSAGE_SLOT(psinkmsg);
 183:.\DispenserSink.c ****     if(psinkmsg)
 184:.\DispenserSink.c ****     {
 185:.\DispenserSink.c ****         psinkmsg->_messageid = WATCHDOG_STARTUP;
 186:.\DispenserSink.c ****         psinkmsg->_messagedelay = _SINK_TIMEOUT_50S_;
 187:.\DispenserSink.c ****         psinkmsg->_messagetype = DELAYEDALLINTERESTED;
 188:.\DispenserSink.c ****         psinkmsg->_messagestate = SINK_BUSY;
 189:.\DispenserSink.c ****     }
 190:.\DispenserSink.c ****     _REALLOCATE_SINKMESSAGE_SLOT(psinkmsg);
 191:.\DispenserSink.c ****     if(psinkmsg)
 192:.\DispenserSink.c ****     {
ARM GAS  C:\Users\RECEPC~1\AppData\Local\Temp\ccMrdYRj.s 			page 12


 193:.\DispenserSink.c ****         psinkmsg->_messageid = DISPENSER_ACQUIRE_PUMP_STATE;
 194:.\DispenserSink.c ****         psinkmsg->_messagedelay = _SINK_TIMEOUT_50S_;
 195:.\DispenserSink.c ****         psinkmsg->_messagetimeoutlimit = _SINK_TIMEOUT_250MS_;
 196:.\DispenserSink.c ****         psinkmsg->_messagetype = FIRSTFOUNDFOREVER;
 197:.\DispenserSink.c ****         psinkmsg->_messagestate = SINK_BUSY;
 198:.\DispenserSink.c ****     }
 199:.\DispenserSink.c ****     #endif
 200:.\DispenserSink.c **** 
 201:.\DispenserSink.c ****     _REALLOCATE_SINKMESSAGE_SLOT(psinkmsg);
 436              		.loc 1 201 0
 437 0288 FFF7FEFF 		bl	AllocateMessageSlot
 438 028c 7860     		str	r0, [r7, #4]
 202:.\DispenserSink.c ****     if(psinkmsg)
 439              		.loc 1 202 0
 440 028e 7B68     		ldr	r3, [r7, #4]
 441 0290 002B     		cmp	r3, #0
 442 0292 0ED0     		beq	.L8
 203:.\DispenserSink.c ****     {
 204:.\DispenserSink.c ****         psinkmsg->_messageid = DISPENSER_PUMP_HANDLER;
 443              		.loc 1 204 0
 444 0294 7B68     		ldr	r3, [r7, #4]
 445 0296 1422     		movs	r2, #20
 446 0298 5A70     		strb	r2, [r3, #1]
 205:.\DispenserSink.c ****         psinkmsg->_messagedelay = 0x0000;
 447              		.loc 1 205 0
 448 029a 7B68     		ldr	r3, [r7, #4]
 449 029c 0022     		movs	r2, #0
 450 029e 9A80     		strh	r2, [r3, #4]	@ movhi
 206:.\DispenserSink.c ****         #ifndef ADVANTAGE_PROTOCOL
 207:.\DispenserSink.c ****         psinkmsg->_messagetimeoutlimit = _SINK_TIMEOUT_20MS_;
 451              		.loc 1 207 0
 452 02a0 7B68     		ldr	r3, [r7, #4]
 453 02a2 1422     		movs	r2, #20
 454 02a4 5A81     		strh	r2, [r3, #10]	@ movhi
 208:.\DispenserSink.c ****         #endif
 209:.\DispenserSink.c ****         #ifdef ADVANTAGE_PROTOCOL
 210:.\DispenserSink.c ****         psinkmsg->_messagetimeoutlimit = _SINK_TIMEOUT_30MS_;
 211:.\DispenserSink.c ****         #endif
 212:.\DispenserSink.c ****         psinkmsg->_messagetype = FIRSTFOUNDFOREVER;
 455              		.loc 1 212 0
 456 02a6 7B68     		ldr	r3, [r7, #4]
 457 02a8 0622     		movs	r2, #6
 458 02aa 9A70     		strb	r2, [r3, #2]
 213:.\DispenserSink.c ****         psinkmsg->_messagestate = SINK_BUSY;
 459              		.loc 1 213 0
 460 02ac 7B68     		ldr	r3, [r7, #4]
 461 02ae 0322     		movs	r2, #3
 462 02b0 DA70     		strb	r2, [r3, #3]
 463              	.L8:
 214:.\DispenserSink.c ****     }
 215:.\DispenserSink.c ****             
 216:.\DispenserSink.c ****     _g_dispenserupdatetimeout = Timer_DispenserState_ReadCounter();
 464              		.loc 1 216 0
 465 02b2 FFF7FEFF 		bl	Timer_DispenserState_ReadCounter
 466 02b6 0346     		mov	r3, r0
 467 02b8 1A46     		mov	r2, r3
 468 02ba 154B     		ldr	r3, .L9+64
ARM GAS  C:\Users\RECEPC~1\AppData\Local\Temp\ccMrdYRj.s 			page 13


 469 02bc 1A80     		strh	r2, [r3]	@ movhi
 217:.\DispenserSink.c ****     
 218:.\DispenserSink.c ****     GLOBAL_LOOP_PUSH(DispenserTimeoutHandler);
 470              		.loc 1 218 0
 471 02be 1548     		ldr	r0, .L9+68
 472 02c0 FFF7FEFF 		bl	loop_push
 219:.\DispenserSink.c ****     GLOBAL_LOOP_PUSH(DispenserDataReceptionHandler);
 473              		.loc 1 219 0
 474 02c4 1448     		ldr	r0, .L9+72
 475 02c6 FFF7FEFF 		bl	loop_push
 220:.\DispenserSink.c **** }
 476              		.loc 1 220 0
 477 02ca 1037     		adds	r7, r7, #16
 478              		.cfi_def_cfa_offset 8
 479 02cc BD46     		mov	sp, r7
 480              		.cfi_def_cfa_register 13
 481              		@ sp needed
 482 02ce 80BD     		pop	{r7, pc}
 483              	.L10:
 484              		.align	2
 485              	.L9:
 486 02d0 00000000 		.word	DispenserSide1Listener
 487 02d4 00000000 		.word	DispenserSide2Listener
 488 02d8 00000000 		.word	DispenserUpdateTimeouts
 489 02dc 00000000 		.word	DispenserUpdatePumpState
 490 02e0 00000000 		.word	DispenserLoadEEPROMSettings
 491 02e4 00000000 		.word	DispenserHoseActiveState
 492 02e8 00000000 		.word	DispenserExecuteCashTransaction
 493 02ec 00000000 		.word	DispenserExecuteCreditTransaction
 494 02f0 00000000 		.word	DispenserEnumeratePumps
 495 02f4 00000000 		.word	DispenserAcquireConfiguration
 496 02f8 00000000 		.word	DispenserConfigurePrices
 497 02fc 00000000 		.word	DispenserConfigureSinglePrice
 498 0300 00000000 		.word	DispenserAcquireTotals
 499 0304 00000000 		.word	DispenserRestorePrices
 500 0308 00000000 		.word	DispenserHandler
 501 030c 00000000 		.word	DispenserBeepWarning
 502 0310 00000000 		.word	_g_dispenserupdatetimeout
 503 0314 00000000 		.word	DispenserTimeoutHandler
 504 0318 00000000 		.word	DispenserDataReceptionHandler
 505              		.cfi_endproc
 506              	.LFE63:
 507              		.size	DispenserSinkRegistration, .-DispenserSinkRegistration
 508              		.section	.text.DispenserHandler,"ax",%progbits
 509              		.align	2
 510              		.global	DispenserHandler
 511              		.thumb
 512              		.thumb_func
 513              		.type	DispenserHandler, %function
 514              	DispenserHandler:
 515              	.LFB64:
 221:.\DispenserSink.c **** 
 222:.\DispenserSink.c **** //@Create by: HIJH
 223:.\DispenserSink.c **** //@Date: Septembre de 2016
 224:.\DispenserSink.c **** //This handler checks the transactional queue for pending job requests to execute.
 225:.\DispenserSink.c **** //Once a job is executed, the response is awaited (if required) and monitored for 
 226:.\DispenserSink.c **** //timeouts and retries. It also validates a set of pre-conditions before
ARM GAS  C:\Users\RECEPC~1\AppData\Local\Temp\ccMrdYRj.s 			page 14


 227:.\DispenserSink.c **** //executing the job.
 228:.\DispenserSink.c **** void DispenserHandler()
 229:.\DispenserSink.c **** {
 516              		.loc 1 229 0
 517              		.cfi_startproc
 518              		@ args = 0, pretend = 0, frame = 8
 519              		@ frame_needed = 1, uses_anonymous_args = 0
 520 0000 80B5     		push	{r7, lr}
 521              		.cfi_def_cfa_offset 8
 522              		.cfi_offset 7, -8
 523              		.cfi_offset 14, -4
 524 0002 82B0     		sub	sp, sp, #8
 525              		.cfi_def_cfa_offset 16
 526 0004 00AF     		add	r7, sp, #0
 527              		.cfi_def_cfa_register 7
 230:.\DispenserSink.c ****     PPUMPTRANSACTIONJOBCONTEXTPTR pjob = _g_pumpjobqueue.Peek(&_g_pumpjobqueue);
 528              		.loc 1 230 0
 529 0006 8F4B     		ldr	r3, .L33
 530 0008 D3F8F837 		ldr	r3, [r3, #2040]
 531 000c 8D48     		ldr	r0, .L33
 532 000e 9847     		blx	r3
 533 0010 7860     		str	r0, [r7, #4]
 231:.\DispenserSink.c ****     if(pjob && pjob->_prequest)
 534              		.loc 1 231 0
 535 0012 7B68     		ldr	r3, [r7, #4]
 536 0014 002B     		cmp	r3, #0
 537 0016 00F01181 		beq	.L11
 538              		.loc 1 231 0 is_stmt 0 discriminator 1
 539 001a 7B68     		ldr	r3, [r7, #4]
 540 001c 5B69     		ldr	r3, [r3, #20]
 541 001e 002B     		cmp	r3, #0
 542 0020 00F00C81 		beq	.L11
 543              	.LBB4:
 232:.\DispenserSink.c ****     {
 233:.\DispenserSink.c ****         bool oneshot = false;
 544              		.loc 1 233 0 is_stmt 1
 545 0024 0023     		movs	r3, #0
 546 0026 FB70     		strb	r3, [r7, #3]
 234:.\DispenserSink.c ****         bool preconditions = false;
 547              		.loc 1 234 0
 548 0028 0023     		movs	r3, #0
 549 002a BB70     		strb	r3, [r7, #2]
 235:.\DispenserSink.c ****         bool precondexecuted = false;
 550              		.loc 1 235 0
 551 002c 0023     		movs	r3, #0
 552 002e 7B70     		strb	r3, [r7, #1]
 236:.\DispenserSink.c ****         
 237:.\DispenserSink.c ****         _g_respctxt._bufferready = false;
 553              		.loc 1 237 0
 554 0030 854B     		ldr	r3, .L33+4
 555 0032 0022     		movs	r2, #0
 556 0034 1A71     		strb	r2, [r3, #4]
 238:.\DispenserSink.c ****         _g_respctxt._responsesize = 0x00;
 557              		.loc 1 238 0
 558 0036 844B     		ldr	r3, .L33+4
 559 0038 0022     		movs	r2, #0
 560 003a DA80     		strh	r2, [r3, #6]	@ movhi
ARM GAS  C:\Users\RECEPC~1\AppData\Local\Temp\ccMrdYRj.s 			page 15


 239:.\DispenserSink.c ****         memset(_g_respctxt._rxbuffer, 0x00, 512);
 561              		.loc 1 239 0
 562 003c 8348     		ldr	r0, .L33+8
 563 003e 0021     		movs	r1, #0
 564 0040 4FF40072 		mov	r2, #512
 565 0044 FFF7FEFF 		bl	memset
 240:.\DispenserSink.c ****         memset(pjob->_ppump->_rxbuffer, 0x00, _PUMP_RX_BUFFER_SIZE_);
 566              		.loc 1 240 0
 567 0048 7B68     		ldr	r3, [r7, #4]
 568 004a DB69     		ldr	r3, [r3, #28]
 569 004c 03F5C473 		add	r3, r3, #392
 570 0050 1846     		mov	r0, r3
 571 0052 0021     		movs	r1, #0
 572 0054 4FF4B472 		mov	r2, #360
 573 0058 FFF7FEFF 		bl	memset
 241:.\DispenserSink.c ****         
 242:.\DispenserSink.c ****         FOR(uint8 index = 0, index < _MAX_CONDITION_CODES_, index++)
 574              		.loc 1 242 0
 575 005c 0023     		movs	r3, #0
 576 005e 3B70     		strb	r3, [r7]
 577 0060 79E0     		b	.L13
 578              	.L24:
 243:.\DispenserSink.c ****         {
 244:.\DispenserSink.c ****             if(pjob->_prequest->_preconditions[index] != 0xFF)
 579              		.loc 1 244 0
 580 0062 7B68     		ldr	r3, [r7, #4]
 581 0064 5A69     		ldr	r2, [r3, #20]
 582 0066 3B78     		ldrb	r3, [r7]	@ zero_extendqisi2
 583 0068 1344     		add	r3, r3, r2
 584 006a 9B7F     		ldrb	r3, [r3, #30]	@ zero_extendqisi2
 585 006c FF2B     		cmp	r3, #255
 586 006e 6ED0     		beq	.L14
 245:.\DispenserSink.c ****             {
 246:.\DispenserSink.c ****                 //If the precondition is marked as "One Shot", it will be evaluated only once
 247:.\DispenserSink.c ****                 preconditions = true;
 587              		.loc 1 247 0
 588 0070 0123     		movs	r3, #1
 589 0072 BB70     		strb	r3, [r7, #2]
 248:.\DispenserSink.c ****                 
 249:.\DispenserSink.c ****                 if(!oneshot)
 590              		.loc 1 249 0
 591 0074 FB78     		ldrb	r3, [r7, #3]
 592 0076 83F00103 		eor	r3, r3, #1
 593 007a DBB2     		uxtb	r3, r3
 594 007c 002B     		cmp	r3, #0
 595 007e 05D0     		beq	.L15
 250:.\DispenserSink.c ****                     oneshot = pjob->_prequest->_oneshotpreconditions[index];
 596              		.loc 1 250 0
 597 0080 7B68     		ldr	r3, [r7, #4]
 598 0082 5A69     		ldr	r2, [r3, #20]
 599 0084 3B78     		ldrb	r3, [r7]	@ zero_extendqisi2
 600 0086 1344     		add	r3, r3, r2
 601 0088 9B7E     		ldrb	r3, [r3, #26]
 602 008a FB70     		strb	r3, [r7, #3]
 603              	.L15:
 251:.\DispenserSink.c ****                     
 252:.\DispenserSink.c ****                 //If the condition is met then execute the Request
ARM GAS  C:\Users\RECEPC~1\AppData\Local\Temp\ccMrdYRj.s 			page 16


 253:.\DispenserSink.c ****                 if(pjob->_ppump->_pumpstate == pjob->_prequest->_preconditions[index])
 604              		.loc 1 253 0
 605 008c 7B68     		ldr	r3, [r7, #4]
 606 008e DB69     		ldr	r3, [r3, #28]
 607 0090 9B78     		ldrb	r3, [r3, #2]
 608 0092 DAB2     		uxtb	r2, r3
 609 0094 7B68     		ldr	r3, [r7, #4]
 610 0096 5969     		ldr	r1, [r3, #20]
 611 0098 3B78     		ldrb	r3, [r7]	@ zero_extendqisi2
 612 009a 0B44     		add	r3, r3, r1
 613 009c 9B7F     		ldrb	r3, [r3, #30]	@ zero_extendqisi2
 614 009e 9A42     		cmp	r2, r3
 615 00a0 56D1     		bne	.L16
 254:.\DispenserSink.c ****                 {
 255:.\DispenserSink.c ****                     if(pjob->_prequest->Initialization)
 616              		.loc 1 255 0
 617 00a2 7B68     		ldr	r3, [r7, #4]
 618 00a4 5B69     		ldr	r3, [r3, #20]
 619 00a6 DB6A     		ldr	r3, [r3, #44]
 620 00a8 002B     		cmp	r3, #0
 621 00aa 06D0     		beq	.L17
 256:.\DispenserSink.c ****                         pjob->_prequest->Initialization(pjob->_ppump);                    
 622              		.loc 1 256 0
 623 00ac 7B68     		ldr	r3, [r7, #4]
 624 00ae 5B69     		ldr	r3, [r3, #20]
 625 00b0 DB6A     		ldr	r3, [r3, #44]
 626 00b2 7A68     		ldr	r2, [r7, #4]
 627 00b4 D269     		ldr	r2, [r2, #28]
 628 00b6 1046     		mov	r0, r2
 629 00b8 9847     		blx	r3
 630              	.L17:
 257:.\DispenserSink.c ****                     
 258:.\DispenserSink.c ****                     if(pjob->_prequest->Response)
 631              		.loc 1 258 0
 632 00ba 7B68     		ldr	r3, [r7, #4]
 633 00bc 5B69     		ldr	r3, [r3, #20]
 634 00be 5B68     		ldr	r3, [r3, #4]
 635 00c0 002B     		cmp	r3, #0
 636 00c2 29D0     		beq	.L18
 259:.\DispenserSink.c ****                     {
 260:.\DispenserSink.c ****                         _g_respctxt._pparam = pjob->_ppump;
 637              		.loc 1 260 0
 638 00c4 7B68     		ldr	r3, [r7, #4]
 639 00c6 DB69     		ldr	r3, [r3, #28]
 640 00c8 5F4A     		ldr	r2, .L33+4
 641 00ca 1360     		str	r3, [r2]
 261:.\DispenserSink.c ****                         ///////////////////////////////////////////////////////////////////
 262:.\DispenserSink.c ****                         //This variable holds the expected buffer size for the response
 263:.\DispenserSink.c ****                         if(pjob->_prequest->_responsesize > 0)
 642              		.loc 1 263 0
 643 00cc 7B68     		ldr	r3, [r7, #4]
 644 00ce 5B69     		ldr	r3, [r3, #20]
 645 00d0 1B7E     		ldrb	r3, [r3, #24]	@ zero_extendqisi2
 646 00d2 002B     		cmp	r3, #0
 647 00d4 06D0     		beq	.L19
 264:.\DispenserSink.c ****                             _g_respctxt._responsesize = pjob->_prequest->_responsesize;
 648              		.loc 1 264 0
ARM GAS  C:\Users\RECEPC~1\AppData\Local\Temp\ccMrdYRj.s 			page 17


 649 00d6 7B68     		ldr	r3, [r7, #4]
 650 00d8 5B69     		ldr	r3, [r3, #20]
 651 00da 1B7E     		ldrb	r3, [r3, #24]	@ zero_extendqisi2
 652 00dc 9AB2     		uxth	r2, r3
 653 00de 5A4B     		ldr	r3, .L33+4
 654 00e0 DA80     		strh	r2, [r3, #6]	@ movhi
 655 00e2 04E0     		b	.L20
 656              	.L19:
 265:.\DispenserSink.c ****                         else
 266:.\DispenserSink.c ****                             _g_respctxt.ResponseSizeResolver = pjob->_prequest->ResponseSizeResolve
 657              		.loc 1 266 0
 658 00e4 7B68     		ldr	r3, [r7, #4]
 659 00e6 5B69     		ldr	r3, [r3, #20]
 660 00e8 DB68     		ldr	r3, [r3, #12]
 661 00ea 574A     		ldr	r2, .L33+4
 662 00ec 9360     		str	r3, [r2, #8]
 663              	.L20:
 267:.\DispenserSink.c ****                         ///////////////////////////////////////////////////////////////////
 268:.\DispenserSink.c ****                         pjob->_prequest->Request(pjob->_ppump);
 664              		.loc 1 268 0
 665 00ee 7B68     		ldr	r3, [r7, #4]
 666 00f0 5B69     		ldr	r3, [r3, #20]
 667 00f2 1B68     		ldr	r3, [r3]
 668 00f4 7A68     		ldr	r2, [r7, #4]
 669 00f6 D269     		ldr	r2, [r2, #28]
 670 00f8 1046     		mov	r0, r2
 671 00fa 9847     		blx	r3
 269:.\DispenserSink.c ****                         pjob->_presponse = pjob->_prequest;
 672              		.loc 1 269 0
 673 00fc 7B68     		ldr	r3, [r7, #4]
 674 00fe 5A69     		ldr	r2, [r3, #20]
 675 0100 7B68     		ldr	r3, [r7, #4]
 676 0102 9A61     		str	r2, [r3, #24]
 270:.\DispenserSink.c ****                         pjob->_prequest = NULL;
 677              		.loc 1 270 0
 678 0104 7B68     		ldr	r3, [r7, #4]
 679 0106 0022     		movs	r2, #0
 680 0108 5A61     		str	r2, [r3, #20]
 271:.\DispenserSink.c ****                         
 272:.\DispenserSink.c ****                         //Initialize the reference tick if it has not yet been initialized
 273:.\DispenserSink.c ****                         pjob->_timeoutseed = Timer_DispenserState_ReadCounter();
 681              		.loc 1 273 0
 682 010a FFF7FEFF 		bl	Timer_DispenserState_ReadCounter
 683 010e 0346     		mov	r3, r0
 684 0110 1A46     		mov	r2, r3
 685 0112 7B68     		ldr	r3, [r7, #4]
 686 0114 1A82     		strh	r2, [r3, #16]	@ movhi
 687 0116 17E0     		b	.L21
 688              	.L18:
 274:.\DispenserSink.c ****                         
 275:.\DispenserSink.c ****                     }else{//Dequeue since no response is required for this request
 276:.\DispenserSink.c ****                         pjob->_prequest->Request(pjob->_ppump);
 689              		.loc 1 276 0
 690 0118 7B68     		ldr	r3, [r7, #4]
 691 011a 5B69     		ldr	r3, [r3, #20]
 692 011c 1B68     		ldr	r3, [r3]
 693 011e 7A68     		ldr	r2, [r7, #4]
ARM GAS  C:\Users\RECEPC~1\AppData\Local\Temp\ccMrdYRj.s 			page 18


 694 0120 D269     		ldr	r2, [r2, #28]
 695 0122 1046     		mov	r0, r2
 696 0124 9847     		blx	r3
 277:.\DispenserSink.c ****                         if(pjob->Callback)
 697              		.loc 1 277 0
 698 0126 7B68     		ldr	r3, [r7, #4]
 699 0128 1B6A     		ldr	r3, [r3, #32]
 700 012a 002B     		cmp	r3, #0
 701 012c 05D0     		beq	.L22
 278:.\DispenserSink.c ****                             pjob->Callback(pjob->_pdata);
 702              		.loc 1 278 0
 703 012e 7B68     		ldr	r3, [r7, #4]
 704 0130 1B6A     		ldr	r3, [r3, #32]
 705 0132 7A68     		ldr	r2, [r7, #4]
 706 0134 526A     		ldr	r2, [r2, #36]
 707 0136 1046     		mov	r0, r2
 708 0138 9847     		blx	r3
 709              	.L22:
 279:.\DispenserSink.c ****                         
 280:.\DispenserSink.c ****                         _g_pumpjobqueue.Dequeue(&_g_pumpjobqueue);
 710              		.loc 1 280 0
 711 013a 424B     		ldr	r3, .L33
 712 013c D3F8FC37 		ldr	r3, [r3, #2044]
 713 0140 4048     		ldr	r0, .L33
 714 0142 9847     		blx	r3
 281:.\DispenserSink.c ****                         pjob = NULL;
 715              		.loc 1 281 0
 716 0144 0023     		movs	r3, #0
 717 0146 7B60     		str	r3, [r7, #4]
 718              	.L21:
 282:.\DispenserSink.c ****                     }
 283:.\DispenserSink.c ****                     precondexecuted = true;
 719              		.loc 1 283 0
 720 0148 0123     		movs	r3, #1
 721 014a 7B70     		strb	r3, [r7, #1]
 284:.\DispenserSink.c ****                     break;
 722              		.loc 1 284 0
 723 014c 06E0     		b	.L23
 724              	.L14:
 285:.\DispenserSink.c ****                 }
 286:.\DispenserSink.c ****             }else
 287:.\DispenserSink.c ****                 break;
 725              		.loc 1 287 0
 726 014e 05E0     		b	.L23
 727              	.L16:
 242:.\DispenserSink.c ****         {
 728              		.loc 1 242 0 discriminator 2
 729 0150 3B78     		ldrb	r3, [r7]	@ zero_extendqisi2
 730 0152 0133     		adds	r3, r3, #1
 731 0154 3B70     		strb	r3, [r7]
 732              	.L13:
 242:.\DispenserSink.c ****         {
 733              		.loc 1 242 0 is_stmt 0 discriminator 1
 734 0156 3B78     		ldrb	r3, [r7]	@ zero_extendqisi2
 735 0158 032B     		cmp	r3, #3
 736 015a 82D9     		bls	.L24
 737              	.L23:
ARM GAS  C:\Users\RECEPC~1\AppData\Local\Temp\ccMrdYRj.s 			page 19


 288:.\DispenserSink.c ****         }
 289:.\DispenserSink.c ****         if(!preconditions)
 738              		.loc 1 289 0 is_stmt 1
 739 015c BB78     		ldrb	r3, [r7, #2]
 740 015e 83F00103 		eor	r3, r3, #1
 741 0162 DBB2     		uxtb	r3, r3
 742 0164 002B     		cmp	r3, #0
 743 0166 53D0     		beq	.L25
 290:.\DispenserSink.c ****         {
 291:.\DispenserSink.c ****             if(pjob->_prequest->Initialization)
 744              		.loc 1 291 0
 745 0168 7B68     		ldr	r3, [r7, #4]
 746 016a 5B69     		ldr	r3, [r3, #20]
 747 016c DB6A     		ldr	r3, [r3, #44]
 748 016e 002B     		cmp	r3, #0
 749 0170 06D0     		beq	.L26
 292:.\DispenserSink.c ****                 pjob->_prequest->Initialization(pjob->_ppump);                    
 750              		.loc 1 292 0
 751 0172 7B68     		ldr	r3, [r7, #4]
 752 0174 5B69     		ldr	r3, [r3, #20]
 753 0176 DB6A     		ldr	r3, [r3, #44]
 754 0178 7A68     		ldr	r2, [r7, #4]
 755 017a D269     		ldr	r2, [r2, #28]
 756 017c 1046     		mov	r0, r2
 757 017e 9847     		blx	r3
 758              	.L26:
 293:.\DispenserSink.c ****             
 294:.\DispenserSink.c ****             if(pjob->_prequest->Response)
 759              		.loc 1 294 0
 760 0180 7B68     		ldr	r3, [r7, #4]
 761 0182 5B69     		ldr	r3, [r3, #20]
 762 0184 5B68     		ldr	r3, [r3, #4]
 763 0186 002B     		cmp	r3, #0
 764 0188 29D0     		beq	.L27
 295:.\DispenserSink.c ****             {
 296:.\DispenserSink.c ****                 _g_respctxt._pparam = pjob->_ppump;
 765              		.loc 1 296 0
 766 018a 7B68     		ldr	r3, [r7, #4]
 767 018c DB69     		ldr	r3, [r3, #28]
 768 018e 2E4A     		ldr	r2, .L33+4
 769 0190 1360     		str	r3, [r2]
 297:.\DispenserSink.c ****                 ///////////////////////////////////////////////////////////////////
 298:.\DispenserSink.c ****                 //This variable holds the expected buffer size for the response
 299:.\DispenserSink.c ****                 if(pjob->_prequest->_responsesize > 0)
 770              		.loc 1 299 0
 771 0192 7B68     		ldr	r3, [r7, #4]
 772 0194 5B69     		ldr	r3, [r3, #20]
 773 0196 1B7E     		ldrb	r3, [r3, #24]	@ zero_extendqisi2
 774 0198 002B     		cmp	r3, #0
 775 019a 06D0     		beq	.L28
 300:.\DispenserSink.c ****                     _g_respctxt._responsesize = pjob->_prequest->_responsesize;
 776              		.loc 1 300 0
 777 019c 7B68     		ldr	r3, [r7, #4]
 778 019e 5B69     		ldr	r3, [r3, #20]
 779 01a0 1B7E     		ldrb	r3, [r3, #24]	@ zero_extendqisi2
 780 01a2 9AB2     		uxth	r2, r3
 781 01a4 284B     		ldr	r3, .L33+4
ARM GAS  C:\Users\RECEPC~1\AppData\Local\Temp\ccMrdYRj.s 			page 20


 782 01a6 DA80     		strh	r2, [r3, #6]	@ movhi
 783 01a8 04E0     		b	.L29
 784              	.L28:
 301:.\DispenserSink.c ****                 else
 302:.\DispenserSink.c ****                     _g_respctxt.ResponseSizeResolver = pjob->_prequest->ResponseSizeResolver;
 785              		.loc 1 302 0
 786 01aa 7B68     		ldr	r3, [r7, #4]
 787 01ac 5B69     		ldr	r3, [r3, #20]
 788 01ae DB68     		ldr	r3, [r3, #12]
 789 01b0 254A     		ldr	r2, .L33+4
 790 01b2 9360     		str	r3, [r2, #8]
 791              	.L29:
 303:.\DispenserSink.c ****                 ///////////////////////////////////////////////////////////////////
 304:.\DispenserSink.c ****                 pjob->_prequest->Request(pjob->_ppump);
 792              		.loc 1 304 0
 793 01b4 7B68     		ldr	r3, [r7, #4]
 794 01b6 5B69     		ldr	r3, [r3, #20]
 795 01b8 1B68     		ldr	r3, [r3]
 796 01ba 7A68     		ldr	r2, [r7, #4]
 797 01bc D269     		ldr	r2, [r2, #28]
 798 01be 1046     		mov	r0, r2
 799 01c0 9847     		blx	r3
 305:.\DispenserSink.c ****                 pjob->_presponse = pjob->_prequest;
 800              		.loc 1 305 0
 801 01c2 7B68     		ldr	r3, [r7, #4]
 802 01c4 5A69     		ldr	r2, [r3, #20]
 803 01c6 7B68     		ldr	r3, [r7, #4]
 804 01c8 9A61     		str	r2, [r3, #24]
 306:.\DispenserSink.c ****                 pjob->_prequest = NULL;
 805              		.loc 1 306 0
 806 01ca 7B68     		ldr	r3, [r7, #4]
 807 01cc 0022     		movs	r2, #0
 808 01ce 5A61     		str	r2, [r3, #20]
 307:.\DispenserSink.c **** 
 308:.\DispenserSink.c ****                 //Initialize the reference tick if it has not yet been initialized
 309:.\DispenserSink.c ****                 pjob->_timeoutseed = Timer_DispenserState_ReadCounter();
 809              		.loc 1 309 0
 810 01d0 FFF7FEFF 		bl	Timer_DispenserState_ReadCounter
 811 01d4 0346     		mov	r3, r0
 812 01d6 1A46     		mov	r2, r3
 813 01d8 7B68     		ldr	r3, [r7, #4]
 814 01da 1A82     		strh	r2, [r3, #16]	@ movhi
 815 01dc 2EE0     		b	.L11
 816              	.L27:
 310:.\DispenserSink.c ****                 
 311:.\DispenserSink.c ****             }else{//Since no response is required for this request!!
 312:.\DispenserSink.c ****                 pjob->_prequest->Request(pjob->_ppump);
 817              		.loc 1 312 0
 818 01de 7B68     		ldr	r3, [r7, #4]
 819 01e0 5B69     		ldr	r3, [r3, #20]
 820 01e2 1B68     		ldr	r3, [r3]
 821 01e4 7A68     		ldr	r2, [r7, #4]
 822 01e6 D269     		ldr	r2, [r2, #28]
 823 01e8 1046     		mov	r0, r2
 824 01ea 9847     		blx	r3
 313:.\DispenserSink.c ****                 if(pjob->Callback)
 825              		.loc 1 313 0
ARM GAS  C:\Users\RECEPC~1\AppData\Local\Temp\ccMrdYRj.s 			page 21


 826 01ec 7B68     		ldr	r3, [r7, #4]
 827 01ee 1B6A     		ldr	r3, [r3, #32]
 828 01f0 002B     		cmp	r3, #0
 829 01f2 05D0     		beq	.L31
 314:.\DispenserSink.c ****                     pjob->Callback(pjob->_pdata);
 830              		.loc 1 314 0
 831 01f4 7B68     		ldr	r3, [r7, #4]
 832 01f6 1B6A     		ldr	r3, [r3, #32]
 833 01f8 7A68     		ldr	r2, [r7, #4]
 834 01fa 526A     		ldr	r2, [r2, #36]
 835 01fc 1046     		mov	r0, r2
 836 01fe 9847     		blx	r3
 837              	.L31:
 315:.\DispenserSink.c ****                     
 316:.\DispenserSink.c ****                 _g_pumpjobqueue.Dequeue(&_g_pumpjobqueue);
 838              		.loc 1 316 0
 839 0200 104B     		ldr	r3, .L33
 840 0202 D3F8FC37 		ldr	r3, [r3, #2044]
 841 0206 0F48     		ldr	r0, .L33
 842 0208 9847     		blx	r3
 317:.\DispenserSink.c ****                 pjob = NULL;
 843              		.loc 1 317 0
 844 020a 0023     		movs	r3, #0
 845 020c 7B60     		str	r3, [r7, #4]
 846 020e 15E0     		b	.L11
 847              	.L25:
 318:.\DispenserSink.c ****             }
 319:.\DispenserSink.c ****         }
 320:.\DispenserSink.c ****         else if(!precondexecuted)
 848              		.loc 1 320 0
 849 0210 7B78     		ldrb	r3, [r7, #1]
 850 0212 83F00103 		eor	r3, r3, #1
 851 0216 DBB2     		uxtb	r3, r3
 852 0218 002B     		cmp	r3, #0
 853 021a 0FD0     		beq	.L11
 321:.\DispenserSink.c ****         {
 322:.\DispenserSink.c ****             //If the precondition is marked as "One Shot", it will be evaluated only once
 323:.\DispenserSink.c ****             if(oneshot)
 854              		.loc 1 323 0
 855 021c FB78     		ldrb	r3, [r7, #3]	@ zero_extendqisi2
 856 021e 002B     		cmp	r3, #0
 857 0220 07D0     		beq	.L32
 324:.\DispenserSink.c ****             {
 325:.\DispenserSink.c ****                 _g_pumpjobqueue.Dequeue(&_g_pumpjobqueue);
 858              		.loc 1 325 0
 859 0222 084B     		ldr	r3, .L33
 860 0224 D3F8FC37 		ldr	r3, [r3, #2044]
 861 0228 0648     		ldr	r0, .L33
 862 022a 9847     		blx	r3
 326:.\DispenserSink.c ****                 pjob = NULL;
 863              		.loc 1 326 0
 864 022c 0023     		movs	r3, #0
 865 022e 7B60     		str	r3, [r7, #4]
 866 0230 04E0     		b	.L11
 867              	.L32:
 327:.\DispenserSink.c ****             }
 328:.\DispenserSink.c ****             else
ARM GAS  C:\Users\RECEPC~1\AppData\Local\Temp\ccMrdYRj.s 			page 22


 329:.\DispenserSink.c ****             {
 330:.\DispenserSink.c ****                 //If none of the preconditions are met, then "Re-push" until there is a match
 331:.\DispenserSink.c ****                 //This is pretty useful for the "EOT" state since once the delivery starts, 
 332:.\DispenserSink.c ****                 //the transaction needs to wait for the "EOT" or "IDLE" condition on the pump.
 333:.\DispenserSink.c ****                 _g_pumpjobqueue.Rotate(&_g_pumpjobqueue);
 868              		.loc 1 333 0
 869 0232 044B     		ldr	r3, .L33
 870 0234 D3F8EC37 		ldr	r3, [r3, #2028]
 871 0238 0248     		ldr	r0, .L33
 872 023a 9847     		blx	r3
 873              	.L11:
 874              	.LBE4:
 334:.\DispenserSink.c ****             }
 335:.\DispenserSink.c ****         }
 336:.\DispenserSink.c ****     }
 337:.\DispenserSink.c **** }
 875              		.loc 1 337 0
 876 023c 0837     		adds	r7, r7, #8
 877              		.cfi_def_cfa_offset 8
 878 023e BD46     		mov	sp, r7
 879              		.cfi_def_cfa_register 13
 880              		@ sp needed
 881 0240 80BD     		pop	{r7, pc}
 882              	.L34:
 883 0242 00BF     		.align	2
 884              	.L33:
 885 0244 00000000 		.word	_g_pumpjobqueue
 886 0248 00000000 		.word	_g_respctxt
 887 024c 0C000000 		.word	_g_respctxt+12
 888              		.cfi_endproc
 889              	.LFE64:
 890              		.size	DispenserHandler, .-DispenserHandler
 891              		.global	__aeabi_i2d
 892              		.global	__aeabi_ddiv
 893              		.global	__aeabi_dcmpgt
 894              		.section	.text.DispenserTimeoutHandler,"ax",%progbits
 895              		.align	2
 896              		.global	DispenserTimeoutHandler
 897              		.thumb
 898              		.thumb_func
 899              		.type	DispenserTimeoutHandler, %function
 900              	DispenserTimeoutHandler:
 901              	.LFB65:
 338:.\DispenserSink.c **** 
 339:.\DispenserSink.c **** //@Create by: HIJH
 340:.\DispenserSink.c **** //@Date: Septembre de 2016
 341:.\DispenserSink.c **** //This handler checks the transactional queue for pending job requests to execute.
 342:.\DispenserSink.c **** //Once a job is executed, the response is awaited (if required) and monitored for 
 343:.\DispenserSink.c **** //timeouts and retries. The handler also validates a set of pre conditions to 
 344:.\DispenserSink.c **** //execute the job.
 345:.\DispenserSink.c **** void DispenserTimeoutHandler()
 346:.\DispenserSink.c **** {
 902              		.loc 1 346 0
 903              		.cfi_startproc
 904              		@ args = 0, pretend = 0, frame = 8
 905              		@ frame_needed = 1, uses_anonymous_args = 0
 906 0000 B0B5     		push	{r4, r5, r7, lr}
ARM GAS  C:\Users\RECEPC~1\AppData\Local\Temp\ccMrdYRj.s 			page 23


 907              		.cfi_def_cfa_offset 16
 908              		.cfi_offset 4, -16
 909              		.cfi_offset 5, -12
 910              		.cfi_offset 7, -8
 911              		.cfi_offset 14, -4
 912 0002 82B0     		sub	sp, sp, #8
 913              		.cfi_def_cfa_offset 24
 914 0004 00AF     		add	r7, sp, #0
 915              		.cfi_def_cfa_register 7
 347:.\DispenserSink.c ****     PPUMPTRANSACTIONJOBCONTEXTPTR pjob = _g_pumpjobqueue.Peek(&_g_pumpjobqueue);
 916              		.loc 1 347 0
 917 0006 3A4B     		ldr	r3, .L42
 918 0008 D3F8F837 		ldr	r3, [r3, #2040]
 919 000c 3848     		ldr	r0, .L42
 920 000e 9847     		blx	r3
 921 0010 7860     		str	r0, [r7, #4]
 348:.\DispenserSink.c ****     //Timeout handling
 349:.\DispenserSink.c ****     if(pjob && pjob->_presponse)
 922              		.loc 1 349 0
 923 0012 7B68     		ldr	r3, [r7, #4]
 924 0014 002B     		cmp	r3, #0
 925 0016 68D0     		beq	.L35
 926              		.loc 1 349 0 is_stmt 0 discriminator 1
 927 0018 7B68     		ldr	r3, [r7, #4]
 928 001a 9B69     		ldr	r3, [r3, #24]
 929 001c 002B     		cmp	r3, #0
 930 001e 64D0     		beq	.L35
 350:.\DispenserSink.c ****     {
 351:.\DispenserSink.c ****         if(pjob->_presponse->_responsetimeoutlimit != _NO_TIMEOUT_)
 931              		.loc 1 351 0 is_stmt 1
 932 0020 7B68     		ldr	r3, [r7, #4]
 933 0022 9B69     		ldr	r3, [r3, #24]
 934 0024 1B8A     		ldrh	r3, [r3, #16]
 935 0026 002B     		cmp	r3, #0
 936 0028 5FD0     		beq	.L35
 937              	.LBB5:
 352:.\DispenserSink.c ****         {
 353:.\DispenserSink.c ****             int32 timespan = ((Timer_DispenserState_ReadCounter() + _TIMEOUT_BASE_TIME_*pjob->_time
 938              		.loc 1 353 0
 939 002a FFF7FEFF 		bl	Timer_DispenserState_ReadCounter
 940 002e 0346     		mov	r3, r0
 941 0030 1A46     		mov	r2, r3
 942 0032 7B68     		ldr	r3, [r7, #4]
 943 0034 5B8A     		ldrh	r3, [r3, #18]	@ movhi
 944 0036 9BB2     		uxth	r3, r3
 945 0038 1946     		mov	r1, r3
 946 003a 4FF47A73 		mov	r3, #1000
 947 003e 03FB01F3 		mul	r3, r3, r1
 948 0042 1344     		add	r3, r3, r2
 949 0044 7A68     		ldr	r2, [r7, #4]
 950 0046 128A     		ldrh	r2, [r2, #16]	@ movhi
 951 0048 92B2     		uxth	r2, r2
 952 004a 9B1A     		subs	r3, r3, r2
 953 004c 3B60     		str	r3, [r7]
 354:.\DispenserSink.c ****             if(((double)timespan / (double)_TIMEOUT_BASE_TIME_) > pjob->_presponse->_responsetimeou
 954              		.loc 1 354 0
 955 004e 3868     		ldr	r0, [r7]
ARM GAS  C:\Users\RECEPC~1\AppData\Local\Temp\ccMrdYRj.s 			page 24


 956 0050 FFF7FEFF 		bl	__aeabi_i2d
 957 0054 0246     		mov	r2, r0
 958 0056 0B46     		mov	r3, r1
 959 0058 1046     		mov	r0, r2
 960 005a 1946     		mov	r1, r3
 961 005c 4FF00002 		mov	r2, #0
 962 0060 244B     		ldr	r3, .L42+4
 963 0062 FFF7FEFF 		bl	__aeabi_ddiv
 964 0066 0246     		mov	r2, r0
 965 0068 0B46     		mov	r3, r1
 966 006a 1446     		mov	r4, r2
 967 006c 1D46     		mov	r5, r3
 968 006e 7B68     		ldr	r3, [r7, #4]
 969 0070 9B69     		ldr	r3, [r3, #24]
 970 0072 1B8A     		ldrh	r3, [r3, #16]
 971 0074 1846     		mov	r0, r3
 972 0076 FFF7FEFF 		bl	__aeabi_i2d
 973 007a 0246     		mov	r2, r0
 974 007c 0B46     		mov	r3, r1
 975 007e 2046     		mov	r0, r4
 976 0080 2946     		mov	r1, r5
 977 0082 FFF7FEFF 		bl	__aeabi_dcmpgt
 978 0086 0346     		mov	r3, r0
 979 0088 002B     		cmp	r3, #0
 980 008a 2ED0     		beq	.L35
 355:.\DispenserSink.c ****             {
 356:.\DispenserSink.c ****                 ///TURNING IT INTO A REQUEST AGAIN FOR A LIMITED NUMBER OF RETRIES!
 357:.\DispenserSink.c ****                 pjob->_timeoutmultiplier = 0x0000;
 981              		.loc 1 357 0
 982 008c 7B68     		ldr	r3, [r7, #4]
 983 008e 0022     		movs	r2, #0
 984 0090 5A82     		strh	r2, [r3, #18]	@ movhi
 358:.\DispenserSink.c ****                 pjob->_timeoutseed = 0x0000;
 985              		.loc 1 358 0
 986 0092 7B68     		ldr	r3, [r7, #4]
 987 0094 0022     		movs	r2, #0
 988 0096 1A82     		strh	r2, [r3, #16]	@ movhi
 359:.\DispenserSink.c ****                 
 360:.\DispenserSink.c ****                 pjob->_retriescounter++;
 989              		.loc 1 360 0
 990 0098 7B68     		ldr	r3, [r7, #4]
 991 009a DB89     		ldrh	r3, [r3, #14]	@ movhi
 992 009c 9BB2     		uxth	r3, r3
 993 009e 0133     		adds	r3, r3, #1
 994 00a0 9AB2     		uxth	r2, r3
 995 00a2 7B68     		ldr	r3, [r7, #4]
 996 00a4 DA81     		strh	r2, [r3, #14]	@ movhi
 361:.\DispenserSink.c ****                 //We invoke the timeout Callback if it has been defined
 362:.\DispenserSink.c ****                 if(pjob->_presponse->TimeoutCallback)
 997              		.loc 1 362 0
 998 00a6 7B68     		ldr	r3, [r7, #4]
 999 00a8 9B69     		ldr	r3, [r3, #24]
 1000 00aa 9B68     		ldr	r3, [r3, #8]
 1001 00ac 002B     		cmp	r3, #0
 1002 00ae 04D0     		beq	.L38
 363:.\DispenserSink.c ****                     pjob->_presponse->TimeoutCallback(pjob);
 1003              		.loc 1 363 0
ARM GAS  C:\Users\RECEPC~1\AppData\Local\Temp\ccMrdYRj.s 			page 25


 1004 00b0 7B68     		ldr	r3, [r7, #4]
 1005 00b2 9B69     		ldr	r3, [r3, #24]
 1006 00b4 9B68     		ldr	r3, [r3, #8]
 1007 00b6 7868     		ldr	r0, [r7, #4]
 1008 00b8 9847     		blx	r3
 1009              	.L38:
 364:.\DispenserSink.c **** 
 365:.\DispenserSink.c ****                 if(pjob->_retriescounter > _MAX_RETRIES_){
 1010              		.loc 1 365 0
 1011 00ba 7B68     		ldr	r3, [r7, #4]
 1012 00bc DB89     		ldrh	r3, [r3, #14]	@ movhi
 1013 00be 9BB2     		uxth	r3, r3
 1014 00c0 142B     		cmp	r3, #20
 1015 00c2 07D9     		bls	.L39
 366:.\DispenserSink.c ****                     _g_pumpjobqueue.Dequeue(&_g_pumpjobqueue);
 1016              		.loc 1 366 0
 1017 00c4 0A4B     		ldr	r3, .L42
 1018 00c6 D3F8FC37 		ldr	r3, [r3, #2044]
 1019 00ca 0948     		ldr	r0, .L42
 1020 00cc 9847     		blx	r3
 367:.\DispenserSink.c ****                     pjob = NULL;
 1021              		.loc 1 367 0
 1022 00ce 0023     		movs	r3, #0
 1023 00d0 7B60     		str	r3, [r7, #4]
 1024 00d2 06E0     		b	.L40
 1025              	.L39:
 368:.\DispenserSink.c ****                 }else{
 369:.\DispenserSink.c ****                     pjob->_prequest = pjob->_presponse;
 1026              		.loc 1 369 0
 1027 00d4 7B68     		ldr	r3, [r7, #4]
 1028 00d6 9A69     		ldr	r2, [r3, #24]
 1029 00d8 7B68     		ldr	r3, [r7, #4]
 1030 00da 5A61     		str	r2, [r3, #20]
 370:.\DispenserSink.c ****                     pjob->_presponse = NULL;
 1031              		.loc 1 370 0
 1032 00dc 7B68     		ldr	r3, [r7, #4]
 1033 00de 0022     		movs	r2, #0
 1034 00e0 9A61     		str	r2, [r3, #24]
 1035              	.L40:
 371:.\DispenserSink.c ****                 }
 372:.\DispenserSink.c ****                 
 373:.\DispenserSink.c ****                 Dispenser_ClearRxBuffer();
 1036              		.loc 1 373 0
 1037 00e2 FFF7FEFF 		bl	Dispenser_ClearRxBuffer
 374:.\DispenserSink.c ****                 Dispenser_Enable();
 1038              		.loc 1 374 0
 1039 00e6 FFF7FEFF 		bl	Dispenser_Enable
 1040              	.L35:
 1041              	.LBE5:
 375:.\DispenserSink.c ****             }
 376:.\DispenserSink.c ****         }
 377:.\DispenserSink.c ****     }
 378:.\DispenserSink.c **** }
 1042              		.loc 1 378 0
 1043 00ea 0837     		adds	r7, r7, #8
 1044              		.cfi_def_cfa_offset 16
 1045 00ec BD46     		mov	sp, r7
ARM GAS  C:\Users\RECEPC~1\AppData\Local\Temp\ccMrdYRj.s 			page 26


 1046              		.cfi_def_cfa_register 13
 1047              		@ sp needed
 1048 00ee B0BD     		pop	{r4, r5, r7, pc}
 1049              	.L43:
 1050              		.align	2
 1051              	.L42:
 1052 00f0 00000000 		.word	_g_pumpjobqueue
 1053 00f4 00408F40 		.word	1083129856
 1054              		.cfi_endproc
 1055              	.LFE65:
 1056              		.size	DispenserTimeoutHandler, .-DispenserTimeoutHandler
 1057              		.section	.text.DispenserDataReceptionHandler,"ax",%progbits
 1058              		.align	2
 1059              		.global	DispenserDataReceptionHandler
 1060              		.thumb
 1061              		.thumb_func
 1062              		.type	DispenserDataReceptionHandler, %function
 1063              	DispenserDataReceptionHandler:
 1064              	.LFB66:
 379:.\DispenserSink.c **** 
 380:.\DispenserSink.c **** //@Create by: HIJH
 381:.\DispenserSink.c **** //@Date: Septembre de 2016
 382:.\DispenserSink.c **** //This handler receives the responses from the pump to job requests on top of the queue.
 383:.\DispenserSink.c **** //Once a job is executed, the response is awaited (if required) and monitored for 
 384:.\DispenserSink.c **** //timeouts and retries. The handler also validates a set of post conditions to 
 385:.\DispenserSink.c **** //answer the job.
 386:.\DispenserSink.c **** //void DispenserDataReceptionHandler(void *pparam)
 387:.\DispenserSink.c **** void DispenserDataReceptionHandler()
 388:.\DispenserSink.c **** {
 1065              		.loc 1 388 0
 1066              		.cfi_startproc
 1067              		@ args = 0, pretend = 0, frame = 8
 1068              		@ frame_needed = 1, uses_anonymous_args = 0
 1069 0000 80B5     		push	{r7, lr}
 1070              		.cfi_def_cfa_offset 8
 1071              		.cfi_offset 7, -8
 1072              		.cfi_offset 14, -4
 1073 0002 82B0     		sub	sp, sp, #8
 1074              		.cfi_def_cfa_offset 16
 1075 0004 00AF     		add	r7, sp, #0
 1076              		.cfi_def_cfa_register 7
 389:.\DispenserSink.c ****     if(!_g_respctxt._bufferready)
 1077              		.loc 1 389 0
 1078 0006 8A4B     		ldr	r3, .L68
 1079 0008 1B79     		ldrb	r3, [r3, #4]
 1080 000a DBB2     		uxtb	r3, r3
 1081 000c 83F00103 		eor	r3, r3, #1
 1082 0010 DBB2     		uxtb	r3, r3
 1083 0012 002B     		cmp	r3, #0
 1084 0014 00D0     		beq	.L45
 390:.\DispenserSink.c ****         return;
 1085              		.loc 1 390 0
 1086 0016 42E1     		b	.L44
 1087              	.L45:
 391:.\DispenserSink.c **** 
 392:.\DispenserSink.c ****     //SinkMessage *psinkmsg = (SinkMessage*)pparam;
 393:.\DispenserSink.c ****     /////////////////////////////////////////////////////////////////////////////////////////
ARM GAS  C:\Users\RECEPC~1\AppData\Local\Temp\ccMrdYRj.s 			page 27


 394:.\DispenserSink.c ****     //TODO: PLACE HERE ALL THE NECESSARY CODE TO RESOLVE THE COMPLETENESS OF THE ARRIVED STREAM
 395:.\DispenserSink.c ****     /////////////////////////////////////////////////////////////////////////////////////////
 396:.\DispenserSink.c ****     PPUMPTRANSACTIONJOBCONTEXTPTR pjob = _g_pumpjobqueue.Peek(&_g_pumpjobqueue);
 1088              		.loc 1 396 0
 1089 0018 864B     		ldr	r3, .L68+4
 1090 001a D3F8F837 		ldr	r3, [r3, #2040]
 1091 001e 8548     		ldr	r0, .L68+4
 1092 0020 9847     		blx	r3
 1093 0022 7860     		str	r0, [r7, #4]
 397:.\DispenserSink.c ****     if(pjob && pjob->_presponse)
 1094              		.loc 1 397 0
 1095 0024 7B68     		ldr	r3, [r7, #4]
 1096 0026 002B     		cmp	r3, #0
 1097 0028 00F01F81 		beq	.L47
 1098              		.loc 1 397 0 is_stmt 0 discriminator 1
 1099 002c 7B68     		ldr	r3, [r7, #4]
 1100 002e 9B69     		ldr	r3, [r3, #24]
 1101 0030 002B     		cmp	r3, #0
 1102 0032 00F01A81 		beq	.L47
 1103              	.LBB6:
 398:.\DispenserSink.c ****     {
 399:.\DispenserSink.c ****         pjob->_timeoutmultiplier = 0x0000;
 1104              		.loc 1 399 0 is_stmt 1
 1105 0036 7B68     		ldr	r3, [r7, #4]
 1106 0038 0022     		movs	r2, #0
 1107 003a 5A82     		strh	r2, [r3, #18]	@ movhi
 400:.\DispenserSink.c ****         pjob->_timeoutseed = 0x0000;
 1108              		.loc 1 400 0
 1109 003c 7B68     		ldr	r3, [r7, #4]
 1110 003e 0022     		movs	r2, #0
 1111 0040 1A82     		strh	r2, [r3, #16]	@ movhi
 401:.\DispenserSink.c ****         memcpy(pjob->_ppump->_rxbuffer, _g_respctxt._rxbuffer, _g_respctxt._responsesize);
 1112              		.loc 1 401 0
 1113 0042 7B68     		ldr	r3, [r7, #4]
 1114 0044 DB69     		ldr	r3, [r3, #28]
 1115 0046 03F5C472 		add	r2, r3, #392
 1116 004a 794B     		ldr	r3, .L68
 1117 004c DB88     		ldrh	r3, [r3, #6]	@ movhi
 1118 004e 9BB2     		uxth	r3, r3
 1119 0050 1046     		mov	r0, r2
 1120 0052 7949     		ldr	r1, .L68+8
 1121 0054 1A46     		mov	r2, r3
 1122 0056 FFF7FEFF 		bl	memcpy
 402:.\DispenserSink.c ****         pjob->_ppump->_rxbuffersize = _g_respctxt._responsesize;
 1123              		.loc 1 402 0
 1124 005a 7B68     		ldr	r3, [r7, #4]
 1125 005c DB69     		ldr	r3, [r3, #28]
 1126 005e 744A     		ldr	r2, .L68
 1127 0060 D288     		ldrh	r2, [r2, #6]	@ movhi
 1128 0062 92B2     		uxth	r2, r2
 1129 0064 A3F8F022 		strh	r2, [r3, #752]	@ movhi
 403:.\DispenserSink.c ****         
 404:.\DispenserSink.c ****         bool oneshot = false;
 1130              		.loc 1 404 0
 1131 0068 0023     		movs	r3, #0
 1132 006a FB70     		strb	r3, [r7, #3]
 405:.\DispenserSink.c ****         bool postconditions = false;
ARM GAS  C:\Users\RECEPC~1\AppData\Local\Temp\ccMrdYRj.s 			page 28


 1133              		.loc 1 405 0
 1134 006c 0023     		movs	r3, #0
 1135 006e BB70     		strb	r3, [r7, #2]
 406:.\DispenserSink.c ****         bool postcondexecuted = false;
 1136              		.loc 1 406 0
 1137 0070 0023     		movs	r3, #0
 1138 0072 7B70     		strb	r3, [r7, #1]
 407:.\DispenserSink.c ****         FOR(uint8 index = 0, index < _MAX_CONDITION_CODES_, index++)
 1139              		.loc 1 407 0
 1140 0074 0023     		movs	r3, #0
 1141 0076 3B70     		strb	r3, [r7]
 1142 0078 66E0     		b	.L48
 1143              	.L57:
 408:.\DispenserSink.c ****         {
 409:.\DispenserSink.c ****             //If none the post conditions are met, then this job item MUST timeout
 410:.\DispenserSink.c ****             //so it will be launched again for a predefined number of retries (see the code in the 
 411:.\DispenserSink.c ****             if(pjob->_presponse->_postconditions[index] != 0xFF)
 1144              		.loc 1 411 0
 1145 007a 7B68     		ldr	r3, [r7, #4]
 1146 007c 9A69     		ldr	r2, [r3, #24]
 1147 007e 3B78     		ldrb	r3, [r7]	@ zero_extendqisi2
 1148 0080 1344     		add	r3, r3, r2
 1149 0082 93F82630 		ldrb	r3, [r3, #38]	@ zero_extendqisi2
 1150 0086 FF2B     		cmp	r3, #255
 1151 0088 5AD0     		beq	.L49
 412:.\DispenserSink.c ****             {
 413:.\DispenserSink.c ****                 postconditions = true;
 1152              		.loc 1 413 0
 1153 008a 0123     		movs	r3, #1
 1154 008c BB70     		strb	r3, [r7, #2]
 414:.\DispenserSink.c ****                 if(!oneshot)
 1155              		.loc 1 414 0
 1156 008e FB78     		ldrb	r3, [r7, #3]
 1157 0090 83F00103 		eor	r3, r3, #1
 1158 0094 DBB2     		uxtb	r3, r3
 1159 0096 002B     		cmp	r3, #0
 1160 0098 06D0     		beq	.L50
 415:.\DispenserSink.c ****                     oneshot = pjob->_presponse->_oneshotpostconditions[index];
 1161              		.loc 1 415 0
 1162 009a 7B68     		ldr	r3, [r7, #4]
 1163 009c 9A69     		ldr	r2, [r3, #24]
 1164 009e 3B78     		ldrb	r3, [r7]	@ zero_extendqisi2
 1165 00a0 1344     		add	r3, r3, r2
 1166 00a2 93F82230 		ldrb	r3, [r3, #34]
 1167 00a6 FB70     		strb	r3, [r7, #3]
 1168              	.L50:
 416:.\DispenserSink.c ****                  
 417:.\DispenserSink.c ****                 pjob->_presponse->Response(pjob);
 1169              		.loc 1 417 0
 1170 00a8 7B68     		ldr	r3, [r7, #4]
 1171 00aa 9B69     		ldr	r3, [r3, #24]
 1172 00ac 5B68     		ldr	r3, [r3, #4]
 1173 00ae 7868     		ldr	r0, [r7, #4]
 1174 00b0 9847     		blx	r3
 418:.\DispenserSink.c ****                 //If the condition is met then execute the response Callback
 419:.\DispenserSink.c ****                 if(pjob->_ppump->_pumpstate == pjob->_presponse->_postconditions[index])
 1175              		.loc 1 419 0
ARM GAS  C:\Users\RECEPC~1\AppData\Local\Temp\ccMrdYRj.s 			page 29


 1176 00b2 7B68     		ldr	r3, [r7, #4]
 1177 00b4 DB69     		ldr	r3, [r3, #28]
 1178 00b6 9B78     		ldrb	r3, [r3, #2]
 1179 00b8 DAB2     		uxtb	r2, r3
 1180 00ba 7B68     		ldr	r3, [r7, #4]
 1181 00bc 9969     		ldr	r1, [r3, #24]
 1182 00be 3B78     		ldrb	r3, [r7]	@ zero_extendqisi2
 1183 00c0 0B44     		add	r3, r3, r1
 1184 00c2 93F82630 		ldrb	r3, [r3, #38]	@ zero_extendqisi2
 1185 00c6 9A42     		cmp	r2, r3
 1186 00c8 3BD1     		bne	.L51
 420:.\DispenserSink.c ****                 {
 421:.\DispenserSink.c ****                     if(!pjob->_reenqueue)
 1187              		.loc 1 421 0
 1188 00ca 7B68     		ldr	r3, [r7, #4]
 1189 00cc 1B78     		ldrb	r3, [r3]
 1190 00ce DBB2     		uxtb	r3, r3
 1191 00d0 83F00103 		eor	r3, r3, #1
 1192 00d4 DBB2     		uxtb	r3, r3
 1193 00d6 002B     		cmp	r3, #0
 1194 00d8 13D0     		beq	.L52
 422:.\DispenserSink.c ****                     {
 423:.\DispenserSink.c ****                         if(pjob->_presponse->Finalization)
 1195              		.loc 1 423 0
 1196 00da 7B68     		ldr	r3, [r7, #4]
 1197 00dc 9B69     		ldr	r3, [r3, #24]
 1198 00de 1B6B     		ldr	r3, [r3, #48]
 1199 00e0 002B     		cmp	r3, #0
 1200 00e2 04D0     		beq	.L53
 424:.\DispenserSink.c ****                             pjob->_presponse->Finalization(pjob);
 1201              		.loc 1 424 0
 1202 00e4 7B68     		ldr	r3, [r7, #4]
 1203 00e6 9B69     		ldr	r3, [r3, #24]
 1204 00e8 1B6B     		ldr	r3, [r3, #48]
 1205 00ea 7868     		ldr	r0, [r7, #4]
 1206 00ec 9847     		blx	r3
 1207              	.L53:
 425:.\DispenserSink.c ****                             
 426:.\DispenserSink.c ****                         if(pjob->Callback)
 1208              		.loc 1 426 0
 1209 00ee 7B68     		ldr	r3, [r7, #4]
 1210 00f0 1B6A     		ldr	r3, [r3, #32]
 1211 00f2 002B     		cmp	r3, #0
 1212 00f4 05D0     		beq	.L52
 427:.\DispenserSink.c ****                             pjob->Callback(pjob->_pdata);
 1213              		.loc 1 427 0
 1214 00f6 7B68     		ldr	r3, [r7, #4]
 1215 00f8 1B6A     		ldr	r3, [r3, #32]
 1216 00fa 7A68     		ldr	r2, [r7, #4]
 1217 00fc 526A     		ldr	r2, [r2, #36]
 1218 00fe 1046     		mov	r0, r2
 1219 0100 9847     		blx	r3
 1220              	.L52:
 428:.\DispenserSink.c ****                     }
 429:.\DispenserSink.c ****                     
 430:.\DispenserSink.c ****                     if(!pjob->_reenqueue)
 1221              		.loc 1 430 0
ARM GAS  C:\Users\RECEPC~1\AppData\Local\Temp\ccMrdYRj.s 			page 30


 1222 0102 7B68     		ldr	r3, [r7, #4]
 1223 0104 1B78     		ldrb	r3, [r3]
 1224 0106 DBB2     		uxtb	r3, r3
 1225 0108 83F00103 		eor	r3, r3, #1
 1226 010c DBB2     		uxtb	r3, r3
 1227 010e 002B     		cmp	r3, #0
 1228 0110 07D0     		beq	.L54
 431:.\DispenserSink.c ****                     {
 432:.\DispenserSink.c ****                         _g_pumpjobqueue.Dequeue(&_g_pumpjobqueue);
 1229              		.loc 1 432 0
 1230 0112 484B     		ldr	r3, .L68+4
 1231 0114 D3F8FC37 		ldr	r3, [r3, #2044]
 1232 0118 4648     		ldr	r0, .L68+4
 1233 011a 9847     		blx	r3
 433:.\DispenserSink.c ****                         pjob = NULL;
 1234              		.loc 1 433 0
 1235 011c 0023     		movs	r3, #0
 1236 011e 7B60     		str	r3, [r7, #4]
 1237 0120 0BE0     		b	.L55
 1238              	.L54:
 434:.\DispenserSink.c ****                     }else{
 435:.\DispenserSink.c ****                         pjob->_prequest = pjob->_presponse;
 1239              		.loc 1 435 0
 1240 0122 7B68     		ldr	r3, [r7, #4]
 1241 0124 9A69     		ldr	r2, [r3, #24]
 1242 0126 7B68     		ldr	r3, [r7, #4]
 1243 0128 5A61     		str	r2, [r3, #20]
 436:.\DispenserSink.c ****                         pjob->_presponse = NULL;
 1244              		.loc 1 436 0
 1245 012a 7B68     		ldr	r3, [r7, #4]
 1246 012c 0022     		movs	r2, #0
 1247 012e 9A61     		str	r2, [r3, #24]
 437:.\DispenserSink.c ****                         _g_pumpjobqueue.Rotate(&_g_pumpjobqueue);
 1248              		.loc 1 437 0
 1249 0130 404B     		ldr	r3, .L68+4
 1250 0132 D3F8EC37 		ldr	r3, [r3, #2028]
 1251 0136 3F48     		ldr	r0, .L68+4
 1252 0138 9847     		blx	r3
 1253              	.L55:
 438:.\DispenserSink.c ****                     }
 439:.\DispenserSink.c ****                     postcondexecuted = true;
 1254              		.loc 1 439 0
 1255 013a 0123     		movs	r3, #1
 1256 013c 7B70     		strb	r3, [r7, #1]
 440:.\DispenserSink.c ****                     break;
 1257              		.loc 1 440 0
 1258 013e 06E0     		b	.L56
 1259              	.L49:
 441:.\DispenserSink.c ****                 }
 442:.\DispenserSink.c ****             }else
 443:.\DispenserSink.c ****                 break;
 1260              		.loc 1 443 0
 1261 0140 05E0     		b	.L56
 1262              	.L51:
 407:.\DispenserSink.c ****         {
 1263              		.loc 1 407 0 discriminator 2
 1264 0142 3B78     		ldrb	r3, [r7]	@ zero_extendqisi2
ARM GAS  C:\Users\RECEPC~1\AppData\Local\Temp\ccMrdYRj.s 			page 31


 1265 0144 0133     		adds	r3, r3, #1
 1266 0146 3B70     		strb	r3, [r7]
 1267              	.L48:
 407:.\DispenserSink.c ****         {
 1268              		.loc 1 407 0 is_stmt 0 discriminator 1
 1269 0148 3B78     		ldrb	r3, [r7]	@ zero_extendqisi2
 1270 014a 032B     		cmp	r3, #3
 1271 014c 95D9     		bls	.L57
 1272              	.L56:
 444:.\DispenserSink.c ****         }
 445:.\DispenserSink.c ****         if(!postconditions)
 1273              		.loc 1 445 0 is_stmt 1
 1274 014e BB78     		ldrb	r3, [r7, #2]
 1275 0150 83F00103 		eor	r3, r3, #1
 1276 0154 DBB2     		uxtb	r3, r3
 1277 0156 002B     		cmp	r3, #0
 1278 0158 38D0     		beq	.L58
 446:.\DispenserSink.c ****         {                
 447:.\DispenserSink.c ****             pjob->_presponse->Response(pjob);
 1279              		.loc 1 447 0
 1280 015a 7B68     		ldr	r3, [r7, #4]
 1281 015c 9B69     		ldr	r3, [r3, #24]
 1282 015e 5B68     		ldr	r3, [r3, #4]
 1283 0160 7868     		ldr	r0, [r7, #4]
 1284 0162 9847     		blx	r3
 448:.\DispenserSink.c ****             
 449:.\DispenserSink.c ****             if(!pjob->_reenqueue)
 1285              		.loc 1 449 0
 1286 0164 7B68     		ldr	r3, [r7, #4]
 1287 0166 1B78     		ldrb	r3, [r3]
 1288 0168 DBB2     		uxtb	r3, r3
 1289 016a 83F00103 		eor	r3, r3, #1
 1290 016e DBB2     		uxtb	r3, r3
 1291 0170 002B     		cmp	r3, #0
 1292 0172 13D0     		beq	.L59
 450:.\DispenserSink.c ****             {
 451:.\DispenserSink.c ****                 if(pjob->_presponse->Finalization)
 1293              		.loc 1 451 0
 1294 0174 7B68     		ldr	r3, [r7, #4]
 1295 0176 9B69     		ldr	r3, [r3, #24]
 1296 0178 1B6B     		ldr	r3, [r3, #48]
 1297 017a 002B     		cmp	r3, #0
 1298 017c 04D0     		beq	.L60
 452:.\DispenserSink.c ****                     pjob->_presponse->Finalization(pjob);
 1299              		.loc 1 452 0
 1300 017e 7B68     		ldr	r3, [r7, #4]
 1301 0180 9B69     		ldr	r3, [r3, #24]
 1302 0182 1B6B     		ldr	r3, [r3, #48]
 1303 0184 7868     		ldr	r0, [r7, #4]
 1304 0186 9847     		blx	r3
 1305              	.L60:
 453:.\DispenserSink.c ****                 
 454:.\DispenserSink.c ****                 if(pjob->Callback)
 1306              		.loc 1 454 0
 1307 0188 7B68     		ldr	r3, [r7, #4]
 1308 018a 1B6A     		ldr	r3, [r3, #32]
 1309 018c 002B     		cmp	r3, #0
ARM GAS  C:\Users\RECEPC~1\AppData\Local\Temp\ccMrdYRj.s 			page 32


 1310 018e 05D0     		beq	.L59
 455:.\DispenserSink.c ****                     pjob->Callback(pjob->_pdata);
 1311              		.loc 1 455 0
 1312 0190 7B68     		ldr	r3, [r7, #4]
 1313 0192 1B6A     		ldr	r3, [r3, #32]
 1314 0194 7A68     		ldr	r2, [r7, #4]
 1315 0196 526A     		ldr	r2, [r2, #36]
 1316 0198 1046     		mov	r0, r2
 1317 019a 9847     		blx	r3
 1318              	.L59:
 456:.\DispenserSink.c ****             }
 457:.\DispenserSink.c ****             
 458:.\DispenserSink.c ****             //This is required for the enumeration model
 459:.\DispenserSink.c ****             if(!pjob->_reenqueue)
 1319              		.loc 1 459 0
 1320 019c 7B68     		ldr	r3, [r7, #4]
 1321 019e 1B78     		ldrb	r3, [r3]
 1322 01a0 DBB2     		uxtb	r3, r3
 1323 01a2 83F00103 		eor	r3, r3, #1
 1324 01a6 DBB2     		uxtb	r3, r3
 1325 01a8 002B     		cmp	r3, #0
 1326 01aa 07D0     		beq	.L61
 460:.\DispenserSink.c ****             {
 461:.\DispenserSink.c ****                 _g_pumpjobqueue.Dequeue(&_g_pumpjobqueue);
 1327              		.loc 1 461 0
 1328 01ac 214B     		ldr	r3, .L68+4
 1329 01ae D3F8FC37 		ldr	r3, [r3, #2044]
 1330 01b2 2048     		ldr	r0, .L68+4
 1331 01b4 9847     		blx	r3
 462:.\DispenserSink.c ****                 pjob = NULL;
 1332              		.loc 1 462 0
 1333 01b6 0023     		movs	r3, #0
 1334 01b8 7B60     		str	r3, [r7, #4]
 1335 01ba 56E0     		b	.L47
 1336              	.L61:
 463:.\DispenserSink.c ****             }else{
 464:.\DispenserSink.c ****                 pjob->_prequest = pjob->_presponse;
 1337              		.loc 1 464 0
 1338 01bc 7B68     		ldr	r3, [r7, #4]
 1339 01be 9A69     		ldr	r2, [r3, #24]
 1340 01c0 7B68     		ldr	r3, [r7, #4]
 1341 01c2 5A61     		str	r2, [r3, #20]
 465:.\DispenserSink.c ****                 pjob->_presponse = PNEAR_NULLPTR;
 1342              		.loc 1 465 0
 1343 01c4 7B68     		ldr	r3, [r7, #4]
 1344 01c6 0022     		movs	r2, #0
 1345 01c8 9A61     		str	r2, [r3, #24]
 1346 01ca 4EE0     		b	.L47
 1347              	.L58:
 466:.\DispenserSink.c ****             }
 467:.\DispenserSink.c ****         }
 468:.\DispenserSink.c ****         else if(!postcondexecuted)
 1348              		.loc 1 468 0
 1349 01cc 7B78     		ldrb	r3, [r7, #1]
 1350 01ce 83F00103 		eor	r3, r3, #1
 1351 01d2 DBB2     		uxtb	r3, r3
 1352 01d4 002B     		cmp	r3, #0
ARM GAS  C:\Users\RECEPC~1\AppData\Local\Temp\ccMrdYRj.s 			page 33


 1353 01d6 48D0     		beq	.L47
 469:.\DispenserSink.c ****         {
 470:.\DispenserSink.c ****             if(oneshot)
 1354              		.loc 1 470 0
 1355 01d8 FB78     		ldrb	r3, [r7, #3]	@ zero_extendqisi2
 1356 01da 002B     		cmp	r3, #0
 1357 01dc 07D0     		beq	.L63
 471:.\DispenserSink.c ****             {
 472:.\DispenserSink.c ****                 _g_pumpjobqueue.Dequeue(&_g_pumpjobqueue);
 1358              		.loc 1 472 0
 1359 01de 154B     		ldr	r3, .L68+4
 1360 01e0 D3F8FC37 		ldr	r3, [r3, #2044]
 1361 01e4 1348     		ldr	r0, .L68+4
 1362 01e6 9847     		blx	r3
 473:.\DispenserSink.c ****                 pjob = NULL;
 1363              		.loc 1 473 0
 1364 01e8 0023     		movs	r3, #0
 1365 01ea 7B60     		str	r3, [r7, #4]
 1366 01ec 3DE0     		b	.L47
 1367              	.L63:
 474:.\DispenserSink.c ****             }
 475:.\DispenserSink.c ****             else
 476:.\DispenserSink.c ****             {
 477:.\DispenserSink.c ****                 if(pjob->_presponse->_retryinsteadofrepush)
 1368              		.loc 1 477 0
 1369 01ee 7B68     		ldr	r3, [r7, #4]
 1370 01f0 9B69     		ldr	r3, [r3, #24]
 1371 01f2 5B7E     		ldrb	r3, [r3, #25]	@ zero_extendqisi2
 1372 01f4 002B     		cmp	r3, #0
 1373 01f6 21D0     		beq	.L64
 478:.\DispenserSink.c ****                 {
 479:.\DispenserSink.c ****                     if(pjob->_repushretriescounter >= _MAX_RETRIES_)
 1374              		.loc 1 479 0
 1375 01f8 7B68     		ldr	r3, [r7, #4]
 1376 01fa 1B89     		ldrh	r3, [r3, #8]	@ movhi
 1377 01fc 9BB2     		uxth	r3, r3
 1378 01fe 132B     		cmp	r3, #19
 1379 0200 07D9     		bls	.L65
 480:.\DispenserSink.c ****                     {
 481:.\DispenserSink.c ****                         _g_pumpjobqueue.Dequeue(&_g_pumpjobqueue);
 1380              		.loc 1 481 0
 1381 0202 0C4B     		ldr	r3, .L68+4
 1382 0204 D3F8FC37 		ldr	r3, [r3, #2044]
 1383 0208 0A48     		ldr	r0, .L68+4
 1384 020a 9847     		blx	r3
 482:.\DispenserSink.c ****                         pjob = NULL;
 1385              		.loc 1 482 0
 1386 020c 0023     		movs	r3, #0
 1387 020e 7B60     		str	r3, [r7, #4]
 1388 0210 2BE0     		b	.L47
 1389              	.L65:
 483:.\DispenserSink.c ****                     }
 484:.\DispenserSink.c ****                     else
 485:.\DispenserSink.c ****                     {
 486:.\DispenserSink.c ****                         pjob->_repushretriescounter++;
 1390              		.loc 1 486 0
 1391 0212 7B68     		ldr	r3, [r7, #4]
ARM GAS  C:\Users\RECEPC~1\AppData\Local\Temp\ccMrdYRj.s 			page 34


 1392 0214 1B89     		ldrh	r3, [r3, #8]	@ movhi
 1393 0216 9BB2     		uxth	r3, r3
 1394 0218 0133     		adds	r3, r3, #1
 1395 021a 9AB2     		uxth	r2, r3
 1396 021c 7B68     		ldr	r3, [r7, #4]
 1397 021e 1A81     		strh	r2, [r3, #8]	@ movhi
 487:.\DispenserSink.c ****                         pjob->_prequest = pjob->_presponse;
 1398              		.loc 1 487 0
 1399 0220 7B68     		ldr	r3, [r7, #4]
 1400 0222 9A69     		ldr	r2, [r3, #24]
 1401 0224 7B68     		ldr	r3, [r7, #4]
 1402 0226 5A61     		str	r2, [r3, #20]
 488:.\DispenserSink.c ****                         pjob->_presponse = NULL;
 1403              		.loc 1 488 0
 1404 0228 7B68     		ldr	r3, [r7, #4]
 1405 022a 0022     		movs	r2, #0
 1406 022c 9A61     		str	r2, [r3, #24]
 1407 022e 1CE0     		b	.L47
 1408              	.L69:
 1409              		.align	2
 1410              	.L68:
 1411 0230 00000000 		.word	_g_respctxt
 1412 0234 00000000 		.word	_g_pumpjobqueue
 1413 0238 0C000000 		.word	_g_respctxt+12
 1414              	.L64:
 489:.\DispenserSink.c ****                     }
 490:.\DispenserSink.c ****                 }
 491:.\DispenserSink.c ****                 else
 492:.\DispenserSink.c ****                 {
 493:.\DispenserSink.c ****                     //If none of the postconditions are met, then "Re-push" until there is a match
 494:.\DispenserSink.c ****                     //This is pretty useful for the "EOT" state since once the delivery starts, 
 495:.\DispenserSink.c ****                     //the transaction needs to wait for the "EOT" or "IDLE" condition on the pump.
 496:.\DispenserSink.c ****                     if(pjob->_repushtimeoutseed == 0x0000)
 1415              		.loc 1 496 0
 1416 023c 7B68     		ldr	r3, [r7, #4]
 1417 023e 5B89     		ldrh	r3, [r3, #10]	@ movhi
 1418 0240 9BB2     		uxth	r3, r3
 1419 0242 002B     		cmp	r3, #0
 1420 0244 05D1     		bne	.L67
 497:.\DispenserSink.c ****                         pjob->_repushtimeoutseed = Timer_DispenserState_ReadCounter();
 1421              		.loc 1 497 0
 1422 0246 FFF7FEFF 		bl	Timer_DispenserState_ReadCounter
 1423 024a 0346     		mov	r3, r0
 1424 024c 1A46     		mov	r2, r3
 1425 024e 7B68     		ldr	r3, [r7, #4]
 1426 0250 5A81     		strh	r2, [r3, #10]	@ movhi
 1427              	.L67:
 498:.\DispenserSink.c **** 
 499:.\DispenserSink.c ****                     //This pointer is NULL but just for the sake of clarity
 500:.\DispenserSink.c ****                     pjob->_prequest = pjob->_presponse;
 1428              		.loc 1 500 0
 1429 0252 7B68     		ldr	r3, [r7, #4]
 1430 0254 9A69     		ldr	r2, [r3, #24]
 1431 0256 7B68     		ldr	r3, [r7, #4]
 1432 0258 5A61     		str	r2, [r3, #20]
 501:.\DispenserSink.c ****                     pjob->_presponse = PNEAR_NULLPTR;
 1433              		.loc 1 501 0
ARM GAS  C:\Users\RECEPC~1\AppData\Local\Temp\ccMrdYRj.s 			page 35


 1434 025a 7B68     		ldr	r3, [r7, #4]
 1435 025c 0022     		movs	r2, #0
 1436 025e 9A61     		str	r2, [r3, #24]
 502:.\DispenserSink.c ****                     _g_pumpjobqueue.Rotate(&_g_pumpjobqueue);
 1437              		.loc 1 502 0
 1438 0260 104B     		ldr	r3, .L70
 1439 0262 D3F8EC37 		ldr	r3, [r3, #2028]
 1440 0266 0F48     		ldr	r0, .L70
 1441 0268 9847     		blx	r3
 1442              	.L47:
 1443              	.LBE6:
 503:.\DispenserSink.c **** 
 504:.\DispenserSink.c ****                 }
 505:.\DispenserSink.c ****             }
 506:.\DispenserSink.c ****         }
 507:.\DispenserSink.c ****     }
 508:.\DispenserSink.c ****     //CHANGE BY HIJH
 509:.\DispenserSink.c ****     //NOV 18 2016
 510:.\DispenserSink.c ****     //PLACEMENT OF THIS BLOCK OUT OF THE MAIN IF
 511:.\DispenserSink.c ****     _g_respctxt._bufferready = false;
 1444              		.loc 1 511 0
 1445 026a 0F4B     		ldr	r3, .L70+4
 1446 026c 0022     		movs	r2, #0
 1447 026e 1A71     		strb	r2, [r3, #4]
 512:.\DispenserSink.c ****     _g_respctxt._responsesize = 0x00;
 1448              		.loc 1 512 0
 1449 0270 0D4B     		ldr	r3, .L70+4
 1450 0272 0022     		movs	r2, #0
 1451 0274 DA80     		strh	r2, [r3, #6]	@ movhi
 513:.\DispenserSink.c ****     memset(_g_respctxt._rxbuffer, 0x00, 512);
 1452              		.loc 1 513 0
 1453 0276 0D48     		ldr	r0, .L70+8
 1454 0278 0021     		movs	r1, #0
 1455 027a 4FF40072 		mov	r2, #512
 1456 027e FFF7FEFF 		bl	memset
 514:.\DispenserSink.c ****     memset(pjob->_ppump->_rxbuffer, 0x00, _PUMP_RX_BUFFER_SIZE_);
 1457              		.loc 1 514 0
 1458 0282 7B68     		ldr	r3, [r7, #4]
 1459 0284 DB69     		ldr	r3, [r3, #28]
 1460 0286 03F5C473 		add	r3, r3, #392
 1461 028a 1846     		mov	r0, r3
 1462 028c 0021     		movs	r1, #0
 1463 028e 4FF4B472 		mov	r2, #360
 1464 0292 FFF7FEFF 		bl	memset
 515:.\DispenserSink.c ****     
 516:.\DispenserSink.c ****     Dispenser_ClearRxBuffer();
 1465              		.loc 1 516 0
 1466 0296 FFF7FEFF 		bl	Dispenser_ClearRxBuffer
 517:.\DispenserSink.c ****     Dispenser_Enable();
 1467              		.loc 1 517 0
 1468 029a FFF7FEFF 		bl	Dispenser_Enable
 1469              	.L44:
 518:.\DispenserSink.c **** }
 1470              		.loc 1 518 0
 1471 029e 0837     		adds	r7, r7, #8
 1472              		.cfi_def_cfa_offset 8
 1473 02a0 BD46     		mov	sp, r7
ARM GAS  C:\Users\RECEPC~1\AppData\Local\Temp\ccMrdYRj.s 			page 36


 1474              		.cfi_def_cfa_register 13
 1475              		@ sp needed
 1476 02a2 80BD     		pop	{r7, pc}
 1477              	.L71:
 1478              		.align	2
 1479              	.L70:
 1480 02a4 00000000 		.word	_g_pumpjobqueue
 1481 02a8 00000000 		.word	_g_respctxt
 1482 02ac 0C000000 		.word	_g_respctxt+12
 1483              		.cfi_endproc
 1484              	.LFE66:
 1485              		.size	DispenserDataReceptionHandler, .-DispenserDataReceptionHandler
 1486              		.section	.text.DispenserUpdateTimeouts,"ax",%progbits
 1487              		.align	2
 1488              		.global	DispenserUpdateTimeouts
 1489              		.thumb
 1490              		.thumb_func
 1491              		.type	DispenserUpdateTimeouts, %function
 1492              	DispenserUpdateTimeouts:
 1493              	.LFB67:
 519:.\DispenserSink.c **** 
 520:.\DispenserSink.c **** //This updater is invoked every millisecond, so the multiplier counts per elapsed millisecond
 521:.\DispenserSink.c **** void DispenserUpdateTimeouts(void *pparam)
 522:.\DispenserSink.c **** {
 1494              		.loc 1 522 0
 1495              		.cfi_startproc
 1496              		@ args = 0, pretend = 0, frame = 16
 1497              		@ frame_needed = 1, uses_anonymous_args = 0
 1498 0000 80B5     		push	{r7, lr}
 1499              		.cfi_def_cfa_offset 8
 1500              		.cfi_offset 7, -8
 1501              		.cfi_offset 14, -4
 1502 0002 84B0     		sub	sp, sp, #16
 1503              		.cfi_def_cfa_offset 24
 1504 0004 00AF     		add	r7, sp, #0
 1505              		.cfi_def_cfa_register 7
 1506 0006 7860     		str	r0, [r7, #4]
 523:.\DispenserSink.c ****     _g_dispenserupdatetimeoutmultiplier++;
 1507              		.loc 1 523 0
 1508 0008 1B4B     		ldr	r3, .L75
 1509 000a 1B88     		ldrh	r3, [r3]
 1510 000c 0133     		adds	r3, r3, #1
 1511 000e 9AB2     		uxth	r2, r3
 1512 0010 194B     		ldr	r3, .L75
 1513 0012 1A80     		strh	r2, [r3]	@ movhi
 524:.\DispenserSink.c ****     //Update of the transaction timeouts every 10 milliseconds
 525:.\DispenserSink.c ****         
 526:.\DispenserSink.c ****     PPUMPTRANSACTIONJOBCONTEXTPTR pjob = _g_pumpjobqueue.Peek(&_g_pumpjobqueue);
 1514              		.loc 1 526 0
 1515 0014 194B     		ldr	r3, .L75+4
 1516 0016 D3F8F837 		ldr	r3, [r3, #2040]
 1517 001a 1848     		ldr	r0, .L75+4
 1518 001c 9847     		blx	r3
 1519 001e F860     		str	r0, [r7, #12]
 527:.\DispenserSink.c ****     if(pjob && pjob->_presponse)
 1520              		.loc 1 527 0
 1521 0020 FB68     		ldr	r3, [r7, #12]
ARM GAS  C:\Users\RECEPC~1\AppData\Local\Temp\ccMrdYRj.s 			page 37


 1522 0022 002B     		cmp	r3, #0
 1523 0024 1BD0     		beq	.L73
 1524              		.loc 1 527 0 is_stmt 0 discriminator 1
 1525 0026 FB68     		ldr	r3, [r7, #12]
 1526 0028 9B69     		ldr	r3, [r3, #24]
 1527 002a 002B     		cmp	r3, #0
 1528 002c 17D0     		beq	.L73
 528:.\DispenserSink.c ****     {
 529:.\DispenserSink.c ****         if(pjob->_presponse->_responsetimeoutlimit != _NO_TIMEOUT_)
 1529              		.loc 1 529 0 is_stmt 1
 1530 002e FB68     		ldr	r3, [r7, #12]
 1531 0030 9B69     		ldr	r3, [r3, #24]
 1532 0032 1B8A     		ldrh	r3, [r3, #16]
 1533 0034 002B     		cmp	r3, #0
 1534 0036 06D0     		beq	.L74
 530:.\DispenserSink.c ****             pjob->_timeoutmultiplier++;
 1535              		.loc 1 530 0
 1536 0038 FB68     		ldr	r3, [r7, #12]
 1537 003a 5B8A     		ldrh	r3, [r3, #18]	@ movhi
 1538 003c 9BB2     		uxth	r3, r3
 1539 003e 0133     		adds	r3, r3, #1
 1540 0040 9AB2     		uxth	r2, r3
 1541 0042 FB68     		ldr	r3, [r7, #12]
 1542 0044 5A82     		strh	r2, [r3, #18]	@ movhi
 1543              	.L74:
 531:.\DispenserSink.c ****             
 532:.\DispenserSink.c ****         if(pjob->_presponse->_repushtimeoutlimit != _NO_TIMEOUT_)
 1544              		.loc 1 532 0
 1545 0046 FB68     		ldr	r3, [r7, #12]
 1546 0048 9B69     		ldr	r3, [r3, #24]
 1547 004a 5B69     		ldr	r3, [r3, #20]
 1548 004c 002B     		cmp	r3, #0
 1549 004e 06D0     		beq	.L73
 533:.\DispenserSink.c ****             pjob->_repushtimeoutmultiplier++;
 1550              		.loc 1 533 0
 1551 0050 FB68     		ldr	r3, [r7, #12]
 1552 0052 9B89     		ldrh	r3, [r3, #12]	@ movhi
 1553 0054 9BB2     		uxth	r3, r3
 1554 0056 0133     		adds	r3, r3, #1
 1555 0058 9AB2     		uxth	r2, r3
 1556 005a FB68     		ldr	r3, [r7, #12]
 1557 005c 9A81     		strh	r2, [r3, #12]	@ movhi
 1558              	.L73:
 534:.\DispenserSink.c ****     }
 535:.\DispenserSink.c ****         
 536:.\DispenserSink.c ****     _g_dispenserupdatetimeout = Timer_DispenserState_ReadCounter();
 1559              		.loc 1 536 0
 1560 005e FFF7FEFF 		bl	Timer_DispenserState_ReadCounter
 1561 0062 0346     		mov	r3, r0
 1562 0064 1A46     		mov	r2, r3
 1563 0066 064B     		ldr	r3, .L75+8
 1564 0068 1A80     		strh	r2, [r3]	@ movhi
 537:.\DispenserSink.c ****     _g_dispenserupdatetimeoutmultiplier = 0x0000;   
 1565              		.loc 1 537 0
 1566 006a 034B     		ldr	r3, .L75
 1567 006c 0022     		movs	r2, #0
 1568 006e 1A80     		strh	r2, [r3]	@ movhi
ARM GAS  C:\Users\RECEPC~1\AppData\Local\Temp\ccMrdYRj.s 			page 38


 538:.\DispenserSink.c **** }
 1569              		.loc 1 538 0
 1570 0070 1037     		adds	r7, r7, #16
 1571              		.cfi_def_cfa_offset 8
 1572 0072 BD46     		mov	sp, r7
 1573              		.cfi_def_cfa_register 13
 1574              		@ sp needed
 1575 0074 80BD     		pop	{r7, pc}
 1576              	.L76:
 1577 0076 00BF     		.align	2
 1578              	.L75:
 1579 0078 00000000 		.word	_g_dispenserupdatetimeoutmultiplier
 1580 007c 00000000 		.word	_g_pumpjobqueue
 1581 0080 00000000 		.word	_g_dispenserupdatetimeout
 1582              		.cfi_endproc
 1583              	.LFE67:
 1584              		.size	DispenserUpdateTimeouts, .-DispenserUpdateTimeouts
 1585              		.text
 1586              	.Letext0:
 1587              		.file 2 "c:\\program files (x86)\\cypress\\psoc creator\\3.3\\psoc creator\\import\\gnu\\arm\\4.9.
 1588              		.file 3 "c:\\program files (x86)\\cypress\\psoc creator\\3.3\\psoc creator\\import\\gnu\\arm\\4.9.
 1589              		.file 4 "Generated_Source\\PSoC5/cytypes.h"
 1590              		.file 5 ".\\SinkManager.h"
 1591              		.file 6 ".\\SinkObservables.h"
 1592              		.file 7 ".\\Prime.h"
 1593              		.file 8 "Generated_Source\\PSoC5/core_cm3.h"