ARM GAS  C:\Users\RECEPC~1\AppData\Local\Temp\cc1ma7xR.s 			page 1


   1              		.syntax unified
   2              		.cpu cortex-m3
   3              		.fpu softvfp
   4              		.eabi_attribute 20, 1
   5              		.eabi_attribute 21, 1
   6              		.eabi_attribute 23, 3
   7              		.eabi_attribute 24, 1
   8              		.eabi_attribute 25, 1
   9              		.eabi_attribute 26, 1
  10              		.eabi_attribute 30, 6
  11              		.eabi_attribute 34, 1
  12              		.eabi_attribute 18, 4
  13              		.thumb
  14              		.file	"DisplaySink.c"
  15              		.text
  16              	.Ltext0:
  17              		.cfi_sections	.debug_frame
  18              		.section	.text.DisplaySinkRegistration,"ax",%progbits
  19              		.align	2
  20              		.global	DisplaySinkRegistration
  21              		.thumb
  22              		.thumb_func
  23              		.type	DisplaySinkRegistration, %function
  24              	DisplaySinkRegistration:
  25              	.LFB0:
  26              		.file 1 ".\\DisplaySink.c"
   1:.\DisplaySink.c **** /* ========================================
   2:.\DisplaySink.c ****  *
   3:.\DisplaySink.c ****  * Copyright YOUR COMPANY, THE YEAR
   4:.\DisplaySink.c ****  * All Rights Reserved
   5:.\DisplaySink.c ****  * UNPUBLISHED, LICENSED SOFTWARE.
   6:.\DisplaySink.c ****  *
   7:.\DisplaySink.c ****  * CONFIDENTIAL AND PROPRIETARY INFORMATION
   8:.\DisplaySink.c ****  * WHICH IS THE PROPERTY OF your company.
   9:.\DisplaySink.c ****  *
  10:.\DisplaySink.c ****  * ========================================
  11:.\DisplaySink.c **** */
  12:.\DisplaySink.c **** #include "GlobalDefinitions.h"
  13:.\DisplaySink.c **** #include "SinkManager.h"
  14:.\DisplaySink.c **** #include "SinkObservables.h"
  15:.\DisplaySink.c **** #include "UARTManager.h"
  16:.\DisplaySink.c **** #include "Display.h"
  17:.\DisplaySink.c **** 
  18:.\DisplaySink.c **** void InitDisplays();
  19:.\DisplaySink.c **** void Display1Logic(void *pdata);
  20:.\DisplaySink.c **** void Display2Logic(void *pdata);
  21:.\DisplaySink.c **** void DisplayRaiseTimeoutsAndStateChanges(void *pparam);
  22:.\DisplaySink.c **** void DisplayUpdateDateTime(void *pparam);
  23:.\DisplaySink.c **** void DisplayUpdateHomeAnimation(void *pparam);
  24:.\DisplaySink.c **** void ToggleScreen(void *pparam);
  25:.\DisplaySink.c **** void HoseValidationCallback(LPVOID pparam);
  26:.\DisplaySink.c **** 
  27:.\DisplaySink.c **** //@Created By: HIJH
  28:.\DisplaySink.c **** //@Septembre de 2016
  29:.\DisplaySink.c **** void DisplaySinkRegistration()
  30:.\DisplaySink.c **** {
  27              		.loc 1 30 0
ARM GAS  C:\Users\RECEPC~1\AppData\Local\Temp\cc1ma7xR.s 			page 2


  28              		.cfi_startproc
  29              		@ args = 0, pretend = 0, frame = 16
  30              		@ frame_needed = 1, uses_anonymous_args = 0
  31 0000 80B5     		push	{r7, lr}
  32              		.cfi_def_cfa_offset 8
  33              		.cfi_offset 7, -8
  34              		.cfi_offset 14, -4
  35 0002 84B0     		sub	sp, sp, #16
  36              		.cfi_def_cfa_offset 24
  37 0004 00AF     		add	r7, sp, #0
  38              		.cfi_def_cfa_register 7
  31:.\DisplaySink.c ****     PSINKSUBSCRIBERPTR psubscriber = AllocateSubscriberSlot();
  39              		.loc 1 31 0
  40 0006 FFF7FEFF 		bl	AllocateSubscriberSlot
  41 000a F860     		str	r0, [r7, #12]
  32:.\DisplaySink.c ****     if(psubscriber)
  42              		.loc 1 32 0
  43 000c FB68     		ldr	r3, [r7, #12]
  44 000e 002B     		cmp	r3, #0
  45 0010 47D0     		beq	.L2
  46              	.LBB2:
  33:.\DisplaySink.c ****     {
  34:.\DisplaySink.c ****         uint8 index = 0;
  47              		.loc 1 34 0
  48 0012 0023     		movs	r3, #0
  49 0014 FB72     		strb	r3, [r7, #11]
  35:.\DisplaySink.c ****         //The maximum number of observable identifiers is _OBSERVED_IDENTIFIERS_
  36:.\DisplaySink.c ****         //located in the header file "SinkManager.h"
  37:.\DisplaySink.c ****         //Every identifier is paired with its respective Callback method pointer
  38:.\DisplaySink.c ****         psubscriber->_arrmsgid[index] = DISPLAY1_RECEPTION;
  50              		.loc 1 38 0
  51 0016 FB7A     		ldrb	r3, [r7, #11]	@ zero_extendqisi2
  52 0018 FA68     		ldr	r2, [r7, #12]
  53 001a 1344     		add	r3, r3, r2
  54 001c 1D22     		movs	r2, #29
  55 001e 5A70     		strb	r2, [r3, #1]
  39:.\DisplaySink.c ****         psubscriber->Callback[index++] = Display1Logic;
  56              		.loc 1 39 0
  57 0020 FB7A     		ldrb	r3, [r7, #11]	@ zero_extendqisi2
  58 0022 5A1C     		adds	r2, r3, #1
  59 0024 FA72     		strb	r2, [r7, #11]
  60 0026 FA68     		ldr	r2, [r7, #12]
  61 0028 0233     		adds	r3, r3, #2
  62 002a 9B00     		lsls	r3, r3, #2
  63 002c 1344     		add	r3, r3, r2
  64 002e 544A     		ldr	r2, .L7
  65 0030 5A60     		str	r2, [r3, #4]
  40:.\DisplaySink.c ****         
  41:.\DisplaySink.c ****         psubscriber->_arrmsgid[index] = DISPLAY2_RECEPTION;
  66              		.loc 1 41 0
  67 0032 FB7A     		ldrb	r3, [r7, #11]	@ zero_extendqisi2
  68 0034 FA68     		ldr	r2, [r7, #12]
  69 0036 1344     		add	r3, r3, r2
  70 0038 2122     		movs	r2, #33
  71 003a 5A70     		strb	r2, [r3, #1]
  42:.\DisplaySink.c ****         psubscriber->Callback[index++] = Display2Logic;
  72              		.loc 1 42 0
ARM GAS  C:\Users\RECEPC~1\AppData\Local\Temp\cc1ma7xR.s 			page 3


  73 003c FB7A     		ldrb	r3, [r7, #11]	@ zero_extendqisi2
  74 003e 5A1C     		adds	r2, r3, #1
  75 0040 FA72     		strb	r2, [r7, #11]
  76 0042 FA68     		ldr	r2, [r7, #12]
  77 0044 0233     		adds	r3, r3, #2
  78 0046 9B00     		lsls	r3, r3, #2
  79 0048 1344     		add	r3, r3, r2
  80 004a 4E4A     		ldr	r2, .L7+4
  81 004c 5A60     		str	r2, [r3, #4]
  43:.\DisplaySink.c ****         
  44:.\DisplaySink.c ****         psubscriber->_arrmsgid[index] = GLOBAL_TICK_NOTIFICATION;
  82              		.loc 1 44 0
  83 004e FB7A     		ldrb	r3, [r7, #11]	@ zero_extendqisi2
  84 0050 FA68     		ldr	r2, [r7, #12]
  85 0052 1344     		add	r3, r3, r2
  86 0054 2722     		movs	r2, #39
  87 0056 5A70     		strb	r2, [r3, #1]
  45:.\DisplaySink.c ****         psubscriber->Callback[index++] = DisplayRaiseTimeoutsAndStateChanges;
  88              		.loc 1 45 0
  89 0058 FB7A     		ldrb	r3, [r7, #11]	@ zero_extendqisi2
  90 005a 5A1C     		adds	r2, r3, #1
  91 005c FA72     		strb	r2, [r7, #11]
  92 005e FA68     		ldr	r2, [r7, #12]
  93 0060 0233     		adds	r3, r3, #2
  94 0062 9B00     		lsls	r3, r3, #2
  95 0064 1344     		add	r3, r3, r2
  96 0066 484A     		ldr	r2, .L7+8
  97 0068 5A60     		str	r2, [r3, #4]
  46:.\DisplaySink.c **** 
  47:.\DisplaySink.c ****         psubscriber->_arrmsgid[index] = DISPLAY1_UPDATE_DATETIME;
  98              		.loc 1 47 0
  99 006a FB7A     		ldrb	r3, [r7, #11]	@ zero_extendqisi2
 100 006c FA68     		ldr	r2, [r7, #12]
 101 006e 1344     		add	r3, r3, r2
 102 0070 1F22     		movs	r2, #31
 103 0072 5A70     		strb	r2, [r3, #1]
  48:.\DisplaySink.c ****         psubscriber->Callback[index++] = DisplayUpdateDateTime;
 104              		.loc 1 48 0
 105 0074 FB7A     		ldrb	r3, [r7, #11]	@ zero_extendqisi2
 106 0076 5A1C     		adds	r2, r3, #1
 107 0078 FA72     		strb	r2, [r7, #11]
 108 007a FA68     		ldr	r2, [r7, #12]
 109 007c 0233     		adds	r3, r3, #2
 110 007e 9B00     		lsls	r3, r3, #2
 111 0080 1344     		add	r3, r3, r2
 112 0082 424A     		ldr	r2, .L7+12
 113 0084 5A60     		str	r2, [r3, #4]
  49:.\DisplaySink.c ****         
  50:.\DisplaySink.c ****         psubscriber->_arrmsgid[index] = DISPLAY2_UPDATE_DATETIME;
 114              		.loc 1 50 0
 115 0086 FB7A     		ldrb	r3, [r7, #11]	@ zero_extendqisi2
 116 0088 FA68     		ldr	r2, [r7, #12]
 117 008a 1344     		add	r3, r3, r2
 118 008c 2322     		movs	r2, #35
 119 008e 5A70     		strb	r2, [r3, #1]
  51:.\DisplaySink.c ****         psubscriber->Callback[index++] = DisplayUpdateDateTime;
 120              		.loc 1 51 0
ARM GAS  C:\Users\RECEPC~1\AppData\Local\Temp\cc1ma7xR.s 			page 4


 121 0090 FB7A     		ldrb	r3, [r7, #11]	@ zero_extendqisi2
 122 0092 5A1C     		adds	r2, r3, #1
 123 0094 FA72     		strb	r2, [r7, #11]
 124 0096 FA68     		ldr	r2, [r7, #12]
 125 0098 0233     		adds	r3, r3, #2
 126 009a 9B00     		lsls	r3, r3, #2
 127 009c 1344     		add	r3, r3, r2
 128 009e 3B4A     		ldr	r2, .L7+12
 129 00a0 5A60     		str	r2, [r3, #4]
 130              	.L2:
 131              	.LBE2:
  52:.\DisplaySink.c ****         
  53:.\DisplaySink.c ****         #ifdef _DISPLAY_AV_SCREENS_
  54:.\DisplaySink.c ****         psubscriber->_arrmsgid[index] = TOGGLE_SCREEN_AND_WRITE_TEST;
  55:.\DisplaySink.c ****         psubscriber->Callback[index++] = ToggleScreen;
  56:.\DisplaySink.c ****         #endif
  57:.\DisplaySink.c ****     }
  58:.\DisplaySink.c **** 
  59:.\DisplaySink.c ****     psubscriber = AllocateSubscriberSlot();
 132              		.loc 1 59 0
 133 00a2 FFF7FEFF 		bl	AllocateSubscriberSlot
 134 00a6 F860     		str	r0, [r7, #12]
  60:.\DisplaySink.c ****     if(psubscriber)
 135              		.loc 1 60 0
 136 00a8 FB68     		ldr	r3, [r7, #12]
 137 00aa 002B     		cmp	r3, #0
 138 00ac 1DD0     		beq	.L3
 139              	.LBB3:
  61:.\DisplaySink.c ****     {
  62:.\DisplaySink.c ****         uint8 index = 0;
 140              		.loc 1 62 0
 141 00ae 0023     		movs	r3, #0
 142 00b0 BB72     		strb	r3, [r7, #10]
  63:.\DisplaySink.c **** 
  64:.\DisplaySink.c ****         psubscriber->_arrmsgid[index] = DISPLAY1_ANIMATE_HOME;
 143              		.loc 1 64 0
 144 00b2 BB7A     		ldrb	r3, [r7, #10]	@ zero_extendqisi2
 145 00b4 FA68     		ldr	r2, [r7, #12]
 146 00b6 1344     		add	r3, r3, r2
 147 00b8 2022     		movs	r2, #32
 148 00ba 5A70     		strb	r2, [r3, #1]
  65:.\DisplaySink.c ****         psubscriber->Callback[index++] = DisplayUpdateHomeAnimation;
 149              		.loc 1 65 0
 150 00bc BB7A     		ldrb	r3, [r7, #10]	@ zero_extendqisi2
 151 00be 5A1C     		adds	r2, r3, #1
 152 00c0 BA72     		strb	r2, [r7, #10]
 153 00c2 FA68     		ldr	r2, [r7, #12]
 154 00c4 0233     		adds	r3, r3, #2
 155 00c6 9B00     		lsls	r3, r3, #2
 156 00c8 1344     		add	r3, r3, r2
 157 00ca 314A     		ldr	r2, .L7+16
 158 00cc 5A60     		str	r2, [r3, #4]
  66:.\DisplaySink.c ****         
  67:.\DisplaySink.c ****         psubscriber->_arrmsgid[index] = DISPLAY2_ANIMATE_HOME;
 159              		.loc 1 67 0
 160 00ce BB7A     		ldrb	r3, [r7, #10]	@ zero_extendqisi2
 161 00d0 FA68     		ldr	r2, [r7, #12]
ARM GAS  C:\Users\RECEPC~1\AppData\Local\Temp\cc1ma7xR.s 			page 5


 162 00d2 1344     		add	r3, r3, r2
 163 00d4 2422     		movs	r2, #36
 164 00d6 5A70     		strb	r2, [r3, #1]
  68:.\DisplaySink.c ****         psubscriber->Callback[index++] = DisplayUpdateHomeAnimation;
 165              		.loc 1 68 0
 166 00d8 BB7A     		ldrb	r3, [r7, #10]	@ zero_extendqisi2
 167 00da 5A1C     		adds	r2, r3, #1
 168 00dc BA72     		strb	r2, [r7, #10]
 169 00de FA68     		ldr	r2, [r7, #12]
 170 00e0 0233     		adds	r3, r3, #2
 171 00e2 9B00     		lsls	r3, r3, #2
 172 00e4 1344     		add	r3, r3, r2
 173 00e6 2A4A     		ldr	r2, .L7+16
 174 00e8 5A60     		str	r2, [r3, #4]
 175              	.L3:
 176              	.LBE3:
  69:.\DisplaySink.c ****     }
  70:.\DisplaySink.c ****     
  71:.\DisplaySink.c ****     //Display1 and Display2 initialization    
  72:.\DisplaySink.c ****     InitDisplays();
 177              		.loc 1 72 0
 178 00ea FFF7FEFF 		bl	InitDisplays
  73:.\DisplaySink.c ****     
  74:.\DisplaySink.c ****     PSINKMESSAGEPTR psinkmsg = AllocateMessageSlot();
 179              		.loc 1 74 0
 180 00ee FFF7FEFF 		bl	AllocateMessageSlot
 181 00f2 7860     		str	r0, [r7, #4]
  75:.\DisplaySink.c ****     if(psinkmsg)
 182              		.loc 1 75 0
 183 00f4 7B68     		ldr	r3, [r7, #4]
 184 00f6 002B     		cmp	r3, #0
 185 00f8 0BD0     		beq	.L4
  76:.\DisplaySink.c ****     {
  77:.\DisplaySink.c ****         psinkmsg->_messageid = GLOBAL_TICK_NOTIFICATION;
 186              		.loc 1 77 0
 187 00fa 7B68     		ldr	r3, [r7, #4]
 188 00fc 2722     		movs	r2, #39
 189 00fe 5A70     		strb	r2, [r3, #1]
  78:.\DisplaySink.c ****         psinkmsg->_messagetype = FIRSTFOUNDFOREVER;
 190              		.loc 1 78 0
 191 0100 7B68     		ldr	r3, [r7, #4]
 192 0102 0622     		movs	r2, #6
 193 0104 9A70     		strb	r2, [r3, #2]
  79:.\DisplaySink.c ****         psinkmsg->_messagetimeoutlimit = _SINK_TIMEOUT_10MS_;
 194              		.loc 1 79 0
 195 0106 7B68     		ldr	r3, [r7, #4]
 196 0108 0A22     		movs	r2, #10
 197 010a 5A81     		strh	r2, [r3, #10]	@ movhi
  80:.\DisplaySink.c ****         psinkmsg->_messagestate = SINK_BUSY;
 198              		.loc 1 80 0
 199 010c 7B68     		ldr	r3, [r7, #4]
 200 010e 0322     		movs	r2, #3
 201 0110 DA70     		strb	r2, [r3, #3]
 202              	.L4:
  81:.\DisplaySink.c ****     }    
  82:.\DisplaySink.c ****     
  83:.\DisplaySink.c ****     psinkmsg = AllocateMessageSlotConditional(DISPLAY1_ANIMATE_HOME);
ARM GAS  C:\Users\RECEPC~1\AppData\Local\Temp\cc1ma7xR.s 			page 6


 203              		.loc 1 83 0
 204 0112 2020     		movs	r0, #32
 205 0114 FFF7FEFF 		bl	AllocateMessageSlotConditional
 206 0118 7860     		str	r0, [r7, #4]
  84:.\DisplaySink.c ****     if(psinkmsg)
 207              		.loc 1 84 0
 208 011a 7B68     		ldr	r3, [r7, #4]
 209 011c 002B     		cmp	r3, #0
 210 011e 12D0     		beq	.L5
  85:.\DisplaySink.c ****     {
  86:.\DisplaySink.c ****         _g_display1._pdata = psinkmsg;
 211              		.loc 1 86 0
 212 0120 1C4A     		ldr	r2, .L7+20
 213 0122 7B68     		ldr	r3, [r7, #4]
 214 0124 5363     		str	r3, [r2, #52]
  87:.\DisplaySink.c ****         psinkmsg->_pdata = &_g_display1;
 215              		.loc 1 87 0
 216 0126 7B68     		ldr	r3, [r7, #4]
 217 0128 1A4A     		ldr	r2, .L7+20
 218 012a C3F89021 		str	r2, [r3, #400]
  88:.\DisplaySink.c ****         psinkmsg->_messageid = DISPLAY1_ANIMATE_HOME;
 219              		.loc 1 88 0
 220 012e 7B68     		ldr	r3, [r7, #4]
 221 0130 2022     		movs	r2, #32
 222 0132 5A70     		strb	r2, [r3, #1]
  89:.\DisplaySink.c ****         psinkmsg->_messagetype = FIRSTFOUNDFOREVER;
 223              		.loc 1 89 0
 224 0134 7B68     		ldr	r3, [r7, #4]
 225 0136 0622     		movs	r2, #6
 226 0138 9A70     		strb	r2, [r3, #2]
  90:.\DisplaySink.c ****         psinkmsg->_messagetimeoutlimit = _SINK_TIMEOUT_100MS_;
 227              		.loc 1 90 0
 228 013a 7B68     		ldr	r3, [r7, #4]
 229 013c 6422     		movs	r2, #100
 230 013e 5A81     		strh	r2, [r3, #10]	@ movhi
  91:.\DisplaySink.c ****         psinkmsg->_messagestate = SINK_BUSY;
 231              		.loc 1 91 0
 232 0140 7B68     		ldr	r3, [r7, #4]
 233 0142 0322     		movs	r2, #3
 234 0144 DA70     		strb	r2, [r3, #3]
 235              	.L5:
  92:.\DisplaySink.c ****     }
  93:.\DisplaySink.c **** 
  94:.\DisplaySink.c ****     psinkmsg = AllocateMessageSlotConditional(DISPLAY2_ANIMATE_HOME);
 236              		.loc 1 94 0
 237 0146 2420     		movs	r0, #36
 238 0148 FFF7FEFF 		bl	AllocateMessageSlotConditional
 239 014c 7860     		str	r0, [r7, #4]
  95:.\DisplaySink.c ****     if(psinkmsg)
 240              		.loc 1 95 0
 241 014e 7B68     		ldr	r3, [r7, #4]
 242 0150 002B     		cmp	r3, #0
 243 0152 12D0     		beq	.L1
  96:.\DisplaySink.c ****     {
  97:.\DisplaySink.c ****         _g_display2._pdata = psinkmsg;
 244              		.loc 1 97 0
 245 0154 104A     		ldr	r2, .L7+24
ARM GAS  C:\Users\RECEPC~1\AppData\Local\Temp\cc1ma7xR.s 			page 7


 246 0156 7B68     		ldr	r3, [r7, #4]
 247 0158 5363     		str	r3, [r2, #52]
  98:.\DisplaySink.c ****         psinkmsg->_pdata = &_g_display2;
 248              		.loc 1 98 0
 249 015a 7B68     		ldr	r3, [r7, #4]
 250 015c 0E4A     		ldr	r2, .L7+24
 251 015e C3F89021 		str	r2, [r3, #400]
  99:.\DisplaySink.c ****         psinkmsg->_messageid = DISPLAY2_ANIMATE_HOME;
 252              		.loc 1 99 0
 253 0162 7B68     		ldr	r3, [r7, #4]
 254 0164 2422     		movs	r2, #36
 255 0166 5A70     		strb	r2, [r3, #1]
 100:.\DisplaySink.c ****         psinkmsg->_messagetype = FIRSTFOUNDFOREVER;
 256              		.loc 1 100 0
 257 0168 7B68     		ldr	r3, [r7, #4]
 258 016a 0622     		movs	r2, #6
 259 016c 9A70     		strb	r2, [r3, #2]
 101:.\DisplaySink.c ****         psinkmsg->_messagetimeoutlimit = _SINK_TIMEOUT_100MS_;
 260              		.loc 1 101 0
 261 016e 7B68     		ldr	r3, [r7, #4]
 262 0170 6422     		movs	r2, #100
 263 0172 5A81     		strh	r2, [r3, #10]	@ movhi
 102:.\DisplaySink.c ****         psinkmsg->_messagestate = SINK_BUSY;
 264              		.loc 1 102 0
 265 0174 7B68     		ldr	r3, [r7, #4]
 266 0176 0322     		movs	r2, #3
 267 0178 DA70     		strb	r2, [r3, #3]
 268              	.L1:
 103:.\DisplaySink.c ****     }
 104:.\DisplaySink.c ****     
 105:.\DisplaySink.c ****     ///////////////////////////////////////////////////////////////////////////////////////////////
 106:.\DisplaySink.c ****     ///THIS BLOCK IS MEANT ONLY TO CAPTURE THE SCREEN IDS
 107:.\DisplaySink.c ****     ///////////////////////////////////////////////////////////////////////////////////////////////
 108:.\DisplaySink.c ****     #ifdef _DISPLAY_AV_SCREENS_
 109:.\DisplaySink.c ****     _REALLOCATE_SINKMESSAGE_SLOT(psinkmsg);
 110:.\DisplaySink.c ****     if(psinkmsg)
 111:.\DisplaySink.c ****     {
 112:.\DisplaySink.c ****         
 113:.\DisplaySink.c ****         psinkmsg->_messageid = TOGGLE_SCREEN_AND_WRITE_TEST;
 114:.\DisplaySink.c ****         psinkmsg->_messagetype = ALLINTERESTEDFOREVER;
 115:.\DisplaySink.c ****         psinkmsg->_messagetimeoutlimit = _SINK_TIMEOUT_1S_;
 116:.\DisplaySink.c ****         psinkmsg->_messagestate = SINK_BUSY;
 117:.\DisplaySink.c ****         
 118:.\DisplaySink.c ****     }
 119:.\DisplaySink.c ****     #endif
 120:.\DisplaySink.c ****     ///////////////////////////////////////////////////////////////////////////////////////////////
 121:.\DisplaySink.c **** 
 122:.\DisplaySink.c **** }
 269              		.loc 1 122 0
 270 017a 1037     		adds	r7, r7, #16
 271              		.cfi_def_cfa_offset 8
 272 017c BD46     		mov	sp, r7
 273              		.cfi_def_cfa_register 13
 274              		@ sp needed
 275 017e 80BD     		pop	{r7, pc}
 276              	.L8:
 277              		.align	2
ARM GAS  C:\Users\RECEPC~1\AppData\Local\Temp\cc1ma7xR.s 			page 8


 278              	.L7:
 279 0180 00000000 		.word	Display1Logic
 280 0184 00000000 		.word	Display2Logic
 281 0188 00000000 		.word	DisplayRaiseTimeoutsAndStateChanges
 282 018c 00000000 		.word	DisplayUpdateDateTime
 283 0190 00000000 		.word	DisplayUpdateHomeAnimation
 284 0194 00000000 		.word	_g_display1
 285 0198 00000000 		.word	_g_display2
 286              		.cfi_endproc
 287              	.LFE0:
 288              		.size	DisplaySinkRegistration, .-DisplaySinkRegistration
 289              		.section	.text.InitDisplays,"ax",%progbits
 290              		.align	2
 291              		.global	InitDisplays
 292              		.thumb
 293              		.thumb_func
 294              		.type	InitDisplays, %function
 295              	InitDisplays:
 296              	.LFB1:
 123:.\DisplaySink.c **** 
 124:.\DisplaySink.c **** /////////////////////////////////////////////////////////////////////////////////////////////////
 125:.\DisplaySink.c **** ///THIS BLOCK IS ONLY MEANT TO CAPTURE THE SCREEN IDS
 126:.\DisplaySink.c **** /////////////////////////////////////////////////////////////////////////////////////////////////  
 127:.\DisplaySink.c **** #ifdef _DISPLAY_AV_SCREENS_
 128:.\DisplaySink.c **** uint16 _picindex = 0x00;
 129:.\DisplaySink.c **** void ToggleScreen(void *pparam) 
 130:.\DisplaySink.c **** {
 131:.\DisplaySink.c ****     char pbuffer[] = { 0xAA, 0x70, (_picindex >> 8) & 0xFF, _picindex & 0xFF, 0xCC, 0x33, 0xC3, 0x3
 132:.\DisplaySink.c ****     //char pbuffer[] = { 0xAA, 0x52, 0xCC, 0x33, 0xC3, 0x3C };
 133:.\DisplaySink.c ****     UARTMessage *puartdisp = GetUARTMessageSlot(UART_DISPLAY1);
 134:.\DisplaySink.c ****     if(puartdisp)
 135:.\DisplaySink.c ****     {
 136:.\DisplaySink.c ****         puartdisp->_messagelength = sizeof(pbuffer) / sizeof(pbuffer[0]);
 137:.\DisplaySink.c ****         memcpy(puartdisp->_messagetx, pbuffer, puartdisp->_messagelength);
 138:.\DisplaySink.c ****         puartdisp->_messagestate = PENDING;
 139:.\DisplaySink.c ****     }
 140:.\DisplaySink.c **** 
 141:.\DisplaySink.c ****     puartdisp = GetUARTMessageSlot(UART_DISPLAY1);
 142:.\DisplaySink.c ****     if(puartdisp)
 143:.\DisplaySink.c ****     {
 144:.\DisplaySink.c ****         char8 pstring[16];
 145:.\DisplaySink.c ****         sprintf(pstring, "Indice Pantalla: %d", _picindex);
 146:.\DisplaySink.c ****         FontData fontdata = { 0x02, 0x10, DISP_TEXT_OPAQUE, 0xFFFF, 0xD500 };
 147:.\DisplaySink.c ****         puartdisp->_messagelength = DisplayOutputString(0xd0, 0xbb, puartdisp->_messagetx, pstring,
 148:.\DisplaySink.c ****         puartdisp->_messagestate = PENDING;
 149:.\DisplaySink.c ****     }
 150:.\DisplaySink.c ****     if(_picindex++ >= 200)
 151:.\DisplaySink.c ****         _picindex = 0;
 152:.\DisplaySink.c ****     
 153:.\DisplaySink.c ****     
 154:.\DisplaySink.c **** }
 155:.\DisplaySink.c **** #endif
 156:.\DisplaySink.c **** /////////////////////////////////////////////////////////////////////////////////////////////////
 157:.\DisplaySink.c **** 
 158:.\DisplaySink.c **** 
 159:.\DisplaySink.c **** //@Created by: HIJH
 160:.\DisplaySink.c **** //@Date: Septembre de 2016
ARM GAS  C:\Users\RECEPC~1\AppData\Local\Temp\cc1ma7xR.s 			page 9


 161:.\DisplaySink.c **** //Sets both displays to the initial screen configured in the initialization structures (see Display
 162:.\DisplaySink.c **** void InitDisplays()
 163:.\DisplaySink.c **** {   
 297              		.loc 1 163 0
 298              		.cfi_startproc
 299              		@ args = 0, pretend = 0, frame = 24
 300              		@ frame_needed = 1, uses_anonymous_args = 0
 301 0000 90B5     		push	{r4, r7, lr}
 302              		.cfi_def_cfa_offset 12
 303              		.cfi_offset 4, -12
 304              		.cfi_offset 7, -8
 305              		.cfi_offset 14, -4
 306 0002 87B0     		sub	sp, sp, #28
 307              		.cfi_def_cfa_offset 40
 308 0004 00AF     		add	r7, sp, #0
 309              		.cfi_def_cfa_register 7
 164:.\DisplaySink.c ****     char pbuffer0[] = { 0xAA, 0x70, (_g_display1._pcurrflow->_scrid >> 8) & 0xFF, _g_display1._pcur
 310              		.loc 1 164 0
 311 0006 AA23     		movs	r3, #170
 312 0008 3B73     		strb	r3, [r7, #12]
 313 000a 7023     		movs	r3, #112
 314 000c 7B73     		strb	r3, [r7, #13]
 315 000e 0023     		movs	r3, #0
 316 0010 BB73     		strb	r3, [r7, #14]
 317 0012 2D4B     		ldr	r3, .L12
 318 0014 1B69     		ldr	r3, [r3, #16]
 319 0016 1B78     		ldrb	r3, [r3]	@ zero_extendqisi2
 320 0018 FB73     		strb	r3, [r7, #15]
 321 001a CC23     		movs	r3, #204
 322 001c 3B74     		strb	r3, [r7, #16]
 323 001e 3323     		movs	r3, #51
 324 0020 7B74     		strb	r3, [r7, #17]
 325 0022 C323     		movs	r3, #195
 326 0024 BB74     		strb	r3, [r7, #18]
 327 0026 3C23     		movs	r3, #60
 328 0028 FB74     		strb	r3, [r7, #19]
 165:.\DisplaySink.c ****     UARTMessage *puartdisp = GetUARTMessageSlot(UART_DISPLAY1);
 329              		.loc 1 165 0
 330 002a A320     		movs	r0, #163
 331 002c FFF7FEFF 		bl	GetUARTMessageSlot
 332 0030 7861     		str	r0, [r7, #20]
 166:.\DisplaySink.c ****     if(puartdisp)
 333              		.loc 1 166 0
 334 0032 7B69     		ldr	r3, [r7, #20]
 335 0034 002B     		cmp	r3, #0
 336 0036 15D0     		beq	.L10
 167:.\DisplaySink.c ****     {
 168:.\DisplaySink.c ****         _g_display1._psequesteredmessagesink = PNEAR_NULLPTR;
 337              		.loc 1 168 0
 338 0038 234B     		ldr	r3, .L12
 339 003a 0022     		movs	r2, #0
 340 003c 1A63     		str	r2, [r3, #48]
 169:.\DisplaySink.c ****         puartdisp->_messagelength = sizeof(pbuffer0) / sizeof(pbuffer0[0]);
 341              		.loc 1 169 0
 342 003e 7B69     		ldr	r3, [r7, #20]
 343 0040 0822     		movs	r2, #8
 344 0042 5A80     		strh	r2, [r3, #2]	@ movhi
ARM GAS  C:\Users\RECEPC~1\AppData\Local\Temp\cc1ma7xR.s 			page 10


 170:.\DisplaySink.c ****         memcpy(puartdisp->_messagetx, pbuffer0, puartdisp->_messagelength);
 345              		.loc 1 170 0
 346 0044 7B69     		ldr	r3, [r7, #20]
 347 0046 1A1D     		adds	r2, r3, #4
 348 0048 7B69     		ldr	r3, [r7, #20]
 349 004a 5B88     		ldrh	r3, [r3, #2]	@ movhi
 350 004c 9BB2     		uxth	r3, r3
 351 004e 1C46     		mov	r4, r3
 352 0050 07F10C03 		add	r3, r7, #12
 353 0054 1046     		mov	r0, r2
 354 0056 1946     		mov	r1, r3
 355 0058 2246     		mov	r2, r4
 356 005a FFF7FEFF 		bl	memcpy
 171:.\DisplaySink.c ****         puartdisp->_messagestate = PENDING;
 357              		.loc 1 171 0
 358 005e 7B69     		ldr	r3, [r7, #20]
 359 0060 C222     		movs	r2, #194
 360 0062 1A70     		strb	r2, [r3]
 361              	.L10:
 172:.\DisplaySink.c ****     }
 173:.\DisplaySink.c **** 
 174:.\DisplaySink.c ****     char pbuffer1[] = { 0xAA, 0x70, (_g_display2._pcurrflow->_scrid >> 8) & 0xFF, _g_display2._pcur
 362              		.loc 1 174 0
 363 0064 AA23     		movs	r3, #170
 364 0066 3B71     		strb	r3, [r7, #4]
 365 0068 7023     		movs	r3, #112
 366 006a 7B71     		strb	r3, [r7, #5]
 367 006c 0023     		movs	r3, #0
 368 006e BB71     		strb	r3, [r7, #6]
 369 0070 164B     		ldr	r3, .L12+4
 370 0072 1B69     		ldr	r3, [r3, #16]
 371 0074 1B78     		ldrb	r3, [r3]	@ zero_extendqisi2
 372 0076 FB71     		strb	r3, [r7, #7]
 373 0078 CC23     		movs	r3, #204
 374 007a 3B72     		strb	r3, [r7, #8]
 375 007c 3323     		movs	r3, #51
 376 007e 7B72     		strb	r3, [r7, #9]
 377 0080 C323     		movs	r3, #195
 378 0082 BB72     		strb	r3, [r7, #10]
 379 0084 3C23     		movs	r3, #60
 380 0086 FB72     		strb	r3, [r7, #11]
 175:.\DisplaySink.c ****     puartdisp = GetUARTMessageSlot(UART_DISPLAY2);
 381              		.loc 1 175 0
 382 0088 A420     		movs	r0, #164
 383 008a FFF7FEFF 		bl	GetUARTMessageSlot
 384 008e 7861     		str	r0, [r7, #20]
 176:.\DisplaySink.c ****     if(puartdisp)
 385              		.loc 1 176 0
 386 0090 7B69     		ldr	r3, [r7, #20]
 387 0092 002B     		cmp	r3, #0
 388 0094 14D0     		beq	.L9
 177:.\DisplaySink.c ****     {
 178:.\DisplaySink.c ****         _g_display2._psequesteredmessagesink = PNEAR_NULLPTR;
 389              		.loc 1 178 0
 390 0096 0D4B     		ldr	r3, .L12+4
 391 0098 0022     		movs	r2, #0
 392 009a 1A63     		str	r2, [r3, #48]
ARM GAS  C:\Users\RECEPC~1\AppData\Local\Temp\cc1ma7xR.s 			page 11


 179:.\DisplaySink.c ****         puartdisp->_messagelength = sizeof(pbuffer1) / sizeof(pbuffer1[0]);
 393              		.loc 1 179 0
 394 009c 7B69     		ldr	r3, [r7, #20]
 395 009e 0822     		movs	r2, #8
 396 00a0 5A80     		strh	r2, [r3, #2]	@ movhi
 180:.\DisplaySink.c ****         memcpy(puartdisp->_messagetx, pbuffer1, puartdisp->_messagelength);
 397              		.loc 1 180 0
 398 00a2 7B69     		ldr	r3, [r7, #20]
 399 00a4 1A1D     		adds	r2, r3, #4
 400 00a6 7B69     		ldr	r3, [r7, #20]
 401 00a8 5B88     		ldrh	r3, [r3, #2]	@ movhi
 402 00aa 9BB2     		uxth	r3, r3
 403 00ac 1C46     		mov	r4, r3
 404 00ae 3B1D     		adds	r3, r7, #4
 405 00b0 1046     		mov	r0, r2
 406 00b2 1946     		mov	r1, r3
 407 00b4 2246     		mov	r2, r4
 408 00b6 FFF7FEFF 		bl	memcpy
 181:.\DisplaySink.c ****         puartdisp->_messagestate = PENDING;
 409              		.loc 1 181 0
 410 00ba 7B69     		ldr	r3, [r7, #20]
 411 00bc C222     		movs	r2, #194
 412 00be 1A70     		strb	r2, [r3]
 413              	.L9:
 182:.\DisplaySink.c ****     }
 183:.\DisplaySink.c **** }
 414              		.loc 1 183 0
 415 00c0 1C37     		adds	r7, r7, #28
 416              		.cfi_def_cfa_offset 12
 417 00c2 BD46     		mov	sp, r7
 418              		.cfi_def_cfa_register 13
 419              		@ sp needed
 420 00c4 90BD     		pop	{r4, r7, pc}
 421              	.L13:
 422 00c6 00BF     		.align	2
 423              	.L12:
 424 00c8 00000000 		.word	_g_display1
 425 00cc 00000000 		.word	_g_display2
 426              		.cfi_endproc
 427              	.LFE1:
 428              		.size	InitDisplays, .-InitDisplays
 429              		.global	__aeabi_i2d
 430              		.global	__aeabi_ui2d
 431              		.global	__aeabi_dcmple
 432              		.global	__aeabi_dcmplt
 433              		.section	.rodata
 434              		.align	2
 435              	.LC0:
 436 0000 AA       		.byte	-86
 437 0001 00       		.byte	0
 438 0002 00       		.byte	0
 439 0003 FF       		.byte	-1
 440 0004 CC       		.byte	-52
 441 0005 33       		.byte	51
 442 0006 C3       		.byte	-61
 443 0007 3C       		.byte	60
 444              		.section	.text.DisplayRaiseTimeoutsAndStateChanges,"ax",%progbits
ARM GAS  C:\Users\RECEPC~1\AppData\Local\Temp\cc1ma7xR.s 			page 12


 445              		.align	2
 446              		.global	DisplayRaiseTimeoutsAndStateChanges
 447              		.thumb
 448              		.thumb_func
 449              		.type	DisplayRaiseTimeoutsAndStateChanges, %function
 450              	DisplayRaiseTimeoutsAndStateChanges:
 451              	.LFB2:
 184:.\DisplaySink.c **** 
 185:.\DisplaySink.c **** //@Created by: HIJH
 186:.\DisplaySink.c **** //@Date: Septembre de 2016
 187:.\DisplaySink.c **** //This definition is located in the structure "DisplayFlow" when the field "timeoutlimit" is differ
 188:.\DisplaySink.c **** //The update is achieved only if the current id for either display has been defined to timeout. 
 189:.\DisplaySink.c **** //This callback function will be invoked every 10 milliseconds
 190:.\DisplaySink.c **** void DisplayRaiseTimeoutsAndStateChanges(void *pparam)
 191:.\DisplaySink.c **** {
 452              		.loc 1 191 0
 453              		.cfi_startproc
 454              		@ args = 0, pretend = 0, frame = 80
 455              		@ frame_needed = 1, uses_anonymous_args = 0
 456 0000 80B5     		push	{r7, lr}
 457              		.cfi_def_cfa_offset 8
 458              		.cfi_offset 7, -8
 459              		.cfi_offset 14, -4
 460 0002 94B0     		sub	sp, sp, #80
 461              		.cfi_def_cfa_offset 88
 462 0004 00AF     		add	r7, sp, #0
 463              		.cfi_def_cfa_register 7
 464 0006 7860     		str	r0, [r7, #4]
 192:.\DisplaySink.c ****     PDISPLAYFLOWPTR pdispflowiterator = _g_displayflow1;
 465              		.loc 1 192 0
 466 0008 B34B     		ldr	r3, .L41
 467 000a FB64     		str	r3, [r7, #76]
 193:.\DisplaySink.c ****     while(pdispflowiterator->_scrid != DISPLAY_NULL)
 468              		.loc 1 193 0
 469 000c AFE0     		b	.L15
 470              	.L26:
 194:.\DisplaySink.c ****     {
 195:.\DisplaySink.c ****         if(_g_display1._pcurrflow->_scrid == pdispflowiterator->_scrid)
 471              		.loc 1 195 0
 472 000e B34B     		ldr	r3, .L41+4
 473 0010 1B69     		ldr	r3, [r3, #16]
 474 0012 1A78     		ldrb	r2, [r3]	@ zero_extendqisi2
 475 0014 FB6C     		ldr	r3, [r7, #76]
 476 0016 1B78     		ldrb	r3, [r3]	@ zero_extendqisi2
 477 0018 9A42     		cmp	r2, r3
 478 001a 40F0A580 		bne	.L16
 479              	.LBB4:
 196:.\DisplaySink.c ****         {
 197:.\DisplaySink.c ****             bool timeoutraised = false;
 480              		.loc 1 197 0
 481 001e 0023     		movs	r3, #0
 482 0020 87F84B30 		strb	r3, [r7, #75]
 198:.\DisplaySink.c ****             if(pdispflowiterator->_responsetimeoutlimit > 0)
 483              		.loc 1 198 0
 484 0024 FB6C     		ldr	r3, [r7, #76]
 485 0026 9B88     		ldrh	r3, [r3, #4]
 486 0028 002B     		cmp	r3, #0
ARM GAS  C:\Users\RECEPC~1\AppData\Local\Temp\cc1ma7xR.s 			page 13


 487 002a 50D0     		beq	.L17
 488              	.LBB5:
 199:.\DisplaySink.c ****             {
 200:.\DisplaySink.c ****                 _g_display1._timeoutmultiplier++;
 489              		.loc 1 200 0
 490 002c AB4B     		ldr	r3, .L41+4
 491 002e 1B89     		ldrh	r3, [r3, #8]
 492 0030 0133     		adds	r3, r3, #1
 493 0032 9AB2     		uxth	r2, r3
 494 0034 A94B     		ldr	r3, .L41+4
 495 0036 1A81     		strh	r2, [r3, #8]	@ movhi
 201:.\DisplaySink.c ****                 //VALIDATE THE TIMEOUT CONDITION HERE!!!
 202:.\DisplaySink.c ****                 double timespan = (_SINK_TIMEOUT_10MS_*_g_display1._timeoutmultiplier);
 496              		.loc 1 202 0
 497 0038 A84B     		ldr	r3, .L41+4
 498 003a 1B89     		ldrh	r3, [r3, #8]
 499 003c 1A46     		mov	r2, r3
 500 003e 1346     		mov	r3, r2
 501 0040 9B00     		lsls	r3, r3, #2
 502 0042 1344     		add	r3, r3, r2
 503 0044 5B00     		lsls	r3, r3, #1
 504 0046 1846     		mov	r0, r3
 505 0048 FFF7FEFF 		bl	__aeabi_i2d
 506 004c 0246     		mov	r2, r0
 507 004e 0B46     		mov	r3, r1
 508 0050 C7E91023 		strd	r2, [r7, #64]
 203:.\DisplaySink.c ****                 if(timespan >= (double)_g_display1._pcurrflow->_responsetimeoutlimit)
 509              		.loc 1 203 0
 510 0054 A14B     		ldr	r3, .L41+4
 511 0056 1B69     		ldr	r3, [r3, #16]
 512 0058 9B88     		ldrh	r3, [r3, #4]
 513 005a 1846     		mov	r0, r3
 514 005c FFF7FEFF 		bl	__aeabi_ui2d
 515 0060 0246     		mov	r2, r0
 516 0062 0B46     		mov	r3, r1
 517 0064 1046     		mov	r0, r2
 518 0066 1946     		mov	r1, r3
 519 0068 D7E91023 		ldrd	r2, [r7, #64]
 520 006c FFF7FEFF 		bl	__aeabi_dcmple
 521 0070 0346     		mov	r3, r0
 522 0072 002B     		cmp	r3, #0
 523 0074 2BD0     		beq	.L17
 524              	.LBB6:
 204:.\DisplaySink.c ****                 {
 205:.\DisplaySink.c ****                     _g_display1._currscrcode = 0x00;
 525              		.loc 1 205 0
 526 0076 994B     		ldr	r3, .L41+4
 527 0078 0022     		movs	r2, #0
 528 007a DA70     		strb	r2, [r3, #3]
 206:.\DisplaySink.c ****                     _g_display1._timeoutscrid = _g_display1._pcurrflow->_timeoutscrid;
 529              		.loc 1 206 0
 530 007c 974B     		ldr	r3, .L41+4
 531 007e 1B69     		ldr	r3, [r3, #16]
 532 0080 9A79     		ldrb	r2, [r3, #6]	@ zero_extendqisi2
 533 0082 964B     		ldr	r3, .L41+4
 534 0084 9A72     		strb	r2, [r3, #10]
 207:.\DisplaySink.c ****                     
ARM GAS  C:\Users\RECEPC~1\AppData\Local\Temp\cc1ma7xR.s 			page 14


 208:.\DisplaySink.c ****                     _ALLOCATE_SINKMESSAGE_SLOT(psinkmsg);
 535              		.loc 1 208 0
 536 0086 FFF7FEFF 		bl	AllocateMessageSlot
 537 008a F863     		str	r0, [r7, #60]
 209:.\DisplaySink.c ****                     if(psinkmsg)
 538              		.loc 1 209 0
 539 008c FB6B     		ldr	r3, [r7, #60]
 540 008e 002B     		cmp	r3, #0
 541 0090 1AD0     		beq	.L19
 542              	.LBB7:
 210:.\DisplaySink.c ****                     {
 211:.\DisplaySink.c ****                         char8 pdummybuffer[] = { 0xAA, 0x00, 0x00, 0xFF, 0xCC, 0x33, 0xC3, 0x3C };
 543              		.loc 1 211 0
 544 0092 934A     		ldr	r2, .L41+8
 545 0094 07F12003 		add	r3, r7, #32
 546 0098 1068     		ldr	r0, [r2]	@ unaligned
 547 009a 5168     		ldr	r1, [r2, #4]	@ unaligned
 548 009c 03C3     		stmia	r3!, {r0, r1}
 212:.\DisplaySink.c ****                         psinkmsg->_messageid = DISPLAY1_RECEPTION;
 549              		.loc 1 212 0
 550 009e FB6B     		ldr	r3, [r7, #60]
 551 00a0 1D22     		movs	r2, #29
 552 00a2 5A70     		strb	r2, [r3, #1]
 213:.\DisplaySink.c ****                         psinkmsg->_messagetype = FIRSTFOUND;
 553              		.loc 1 213 0
 554 00a4 FB6B     		ldr	r3, [r7, #60]
 555 00a6 0322     		movs	r2, #3
 556 00a8 9A70     		strb	r2, [r3, #2]
 214:.\DisplaySink.c ****                         memcpy(psinkmsg->_buffer, (const void*)pdummybuffer, sizeof(pdummybuffer));
 557              		.loc 1 214 0
 558 00aa FB6B     		ldr	r3, [r7, #60]
 559 00ac 0C33     		adds	r3, r3, #12
 560 00ae 1A46     		mov	r2, r3
 561 00b0 07F12003 		add	r3, r7, #32
 562 00b4 03CB     		ldmia	r3!, {r0, r1}
 563 00b6 1060     		str	r0, [r2]	@ unaligned
 564 00b8 5160     		str	r1, [r2, #4]	@ unaligned
 215:.\DisplaySink.c ****                         psinkmsg->_buffersize = sizeof(pdummybuffer);
 565              		.loc 1 215 0
 566 00ba FB6B     		ldr	r3, [r7, #60]
 567 00bc 0822     		movs	r2, #8
 568 00be A3F88C21 		strh	r2, [r3, #396]	@ movhi
 216:.\DisplaySink.c ****                         psinkmsg->_messagestate = SINK_BUSY;
 569              		.loc 1 216 0
 570 00c2 FB6B     		ldr	r3, [r7, #60]
 571 00c4 0322     		movs	r2, #3
 572 00c6 DA70     		strb	r2, [r3, #3]
 573              	.L19:
 574              	.LBE7:
 217:.\DisplaySink.c ****                         
 218:.\DisplaySink.c ****                     }
 219:.\DisplaySink.c ****                     timeoutraised = true;
 575              		.loc 1 219 0
 576 00c8 0123     		movs	r3, #1
 577 00ca 87F84B30 		strb	r3, [r7, #75]
 578              	.L17:
 579              	.LBE6:
ARM GAS  C:\Users\RECEPC~1\AppData\Local\Temp\cc1ma7xR.s 			page 15


 580              	.LBE5:
 220:.\DisplaySink.c ****                 }
 221:.\DisplaySink.c ****             }
 222:.\DisplaySink.c ****             if(!timeoutraised)
 581              		.loc 1 222 0
 582 00ce 97F84B30 		ldrb	r3, [r7, #75]
 583 00d2 83F00103 		eor	r3, r3, #1
 584 00d6 DBB2     		uxtb	r3, r3
 585 00d8 002B     		cmp	r3, #0
 586 00da 44D0     		beq	.L20
 587              	.LBB8:
 223:.\DisplaySink.c ****             {
 224:.\DisplaySink.c ****                 FOR(uint8 index = 0, index < _MAX_DISPLAY_PATHS_, index++)
 588              		.loc 1 224 0
 589 00dc 0023     		movs	r3, #0
 590 00de 87F84A30 		strb	r3, [r7, #74]
 591 00e2 3CE0     		b	.L21
 592              	.L24:
 225:.\DisplaySink.c ****                 {
 226:.\DisplaySink.c ****                     if(_g_display1._currentstate == _g_display1._pcurrflow->_statecodes[index])
 593              		.loc 1 226 0
 594 00e4 7D4B     		ldr	r3, .L41+4
 595 00e6 1A79     		ldrb	r2, [r3, #4]	@ zero_extendqisi2
 596 00e8 7C4B     		ldr	r3, .L41+4
 597 00ea 1969     		ldr	r1, [r3, #16]
 598 00ec 97F84A30 		ldrb	r3, [r7, #74]	@ zero_extendqisi2
 599 00f0 0B44     		add	r3, r3, r1
 600 00f2 DB7C     		ldrb	r3, [r3, #19]	@ zero_extendqisi2
 601 00f4 9A42     		cmp	r2, r3
 602 00f6 2DD1     		bne	.L22
 603              	.LBB9:
 227:.\DisplaySink.c ****                     {
 228:.\DisplaySink.c ****                         _g_display1._currscrcode = 0x00;
 604              		.loc 1 228 0
 605 00f8 784B     		ldr	r3, .L41+4
 606 00fa 0022     		movs	r2, #0
 607 00fc DA70     		strb	r2, [r3, #3]
 229:.\DisplaySink.c ****                         _g_display1._statechangescrid = _g_display1._pcurrflow->_statenodes[index];
 608              		.loc 1 229 0
 609 00fe 774B     		ldr	r3, .L41+4
 610 0100 1A69     		ldr	r2, [r3, #16]
 611 0102 97F84A30 		ldrb	r3, [r7, #74]	@ zero_extendqisi2
 612 0106 1344     		add	r3, r3, r2
 613 0108 5A7E     		ldrb	r2, [r3, #25]	@ zero_extendqisi2
 614 010a 744B     		ldr	r3, .L41+4
 615 010c 5A71     		strb	r2, [r3, #5]
 230:.\DisplaySink.c ****                         
 231:.\DisplaySink.c ****                         _ALLOCATE_SINKMESSAGE_SLOT(psinkmsg);
 616              		.loc 1 231 0
 617 010e FFF7FEFF 		bl	AllocateMessageSlot
 618 0112 B863     		str	r0, [r7, #56]
 232:.\DisplaySink.c ****                         if(psinkmsg)
 619              		.loc 1 232 0
 620 0114 BB6B     		ldr	r3, [r7, #56]
 621 0116 002B     		cmp	r3, #0
 622 0118 1BD0     		beq	.L23
 623              	.LBB10:
ARM GAS  C:\Users\RECEPC~1\AppData\Local\Temp\cc1ma7xR.s 			page 16


 233:.\DisplaySink.c ****                         {
 234:.\DisplaySink.c ****                             char8 pdummybuffer[] = { 0xAA, 0x00, 0x00, 0xFF, 0xCC, 0x33, 0xC3, 0x3C
 624              		.loc 1 234 0
 625 011a 714A     		ldr	r2, .L41+8
 626 011c 07F11803 		add	r3, r7, #24
 627 0120 1068     		ldr	r0, [r2]	@ unaligned
 628 0122 5168     		ldr	r1, [r2, #4]	@ unaligned
 629 0124 03C3     		stmia	r3!, {r0, r1}
 235:.\DisplaySink.c ****                             psinkmsg->_messageid = DISPLAY1_RECEPTION;
 630              		.loc 1 235 0
 631 0126 BB6B     		ldr	r3, [r7, #56]
 632 0128 1D22     		movs	r2, #29
 633 012a 5A70     		strb	r2, [r3, #1]
 236:.\DisplaySink.c ****                             psinkmsg->_messagetype = FIRSTFOUND;
 634              		.loc 1 236 0
 635 012c BB6B     		ldr	r3, [r7, #56]
 636 012e 0322     		movs	r2, #3
 637 0130 9A70     		strb	r2, [r3, #2]
 237:.\DisplaySink.c ****                             memcpy(psinkmsg->_buffer, (const void*)pdummybuffer, sizeof(pdummybuffe
 638              		.loc 1 237 0
 639 0132 BB6B     		ldr	r3, [r7, #56]
 640 0134 0C33     		adds	r3, r3, #12
 641 0136 1A46     		mov	r2, r3
 642 0138 07F11803 		add	r3, r7, #24
 643 013c 03CB     		ldmia	r3!, {r0, r1}
 644 013e 1060     		str	r0, [r2]	@ unaligned
 645 0140 5160     		str	r1, [r2, #4]	@ unaligned
 238:.\DisplaySink.c ****                             psinkmsg->_buffersize = sizeof(pdummybuffer);
 646              		.loc 1 238 0
 647 0142 BB6B     		ldr	r3, [r7, #56]
 648 0144 0822     		movs	r2, #8
 649 0146 A3F88C21 		strh	r2, [r3, #396]	@ movhi
 239:.\DisplaySink.c ****                             psinkmsg->_messagestate = SINK_BUSY;
 650              		.loc 1 239 0
 651 014a BB6B     		ldr	r3, [r7, #56]
 652 014c 0322     		movs	r2, #3
 653 014e DA70     		strb	r2, [r3, #3]
 654              	.LBE10:
 240:.\DisplaySink.c ****                             
 241:.\DisplaySink.c ****                         }
 242:.\DisplaySink.c ****                         break;
 655              		.loc 1 242 0
 656 0150 09E0     		b	.L20
 657              	.L23:
 658              		.loc 1 242 0 is_stmt 0 discriminator 1
 659 0152 08E0     		b	.L20
 660              	.L22:
 661              	.LBE9:
 224:.\DisplaySink.c ****                 {
 662              		.loc 1 224 0 is_stmt 1 discriminator 2
 663 0154 97F84A30 		ldrb	r3, [r7, #74]	@ zero_extendqisi2
 664 0158 0133     		adds	r3, r3, #1
 665 015a 87F84A30 		strb	r3, [r7, #74]
 666              	.L21:
 224:.\DisplaySink.c ****                 {
 667              		.loc 1 224 0 is_stmt 0 discriminator 1
 668 015e 97F84A30 		ldrb	r3, [r7, #74]	@ zero_extendqisi2
ARM GAS  C:\Users\RECEPC~1\AppData\Local\Temp\cc1ma7xR.s 			page 17


 669 0162 052B     		cmp	r3, #5
 670 0164 BED9     		bls	.L24
 671              	.L20:
 672              	.LBE8:
 243:.\DisplaySink.c ****                     }
 244:.\DisplaySink.c ****                 }
 245:.\DisplaySink.c ****             }
 246:.\DisplaySink.c ****                         
 247:.\DisplaySink.c ****             break;
 673              		.loc 1 247 0 is_stmt 1 discriminator 2
 674 0166 07E0     		b	.L25
 675              	.L16:
 676              	.LBE4:
 248:.\DisplaySink.c ****         }        
 249:.\DisplaySink.c ****         pdispflowiterator++;
 677              		.loc 1 249 0
 678 0168 FB6C     		ldr	r3, [r7, #76]
 679 016a 4433     		adds	r3, r3, #68
 680 016c FB64     		str	r3, [r7, #76]
 681              	.L15:
 193:.\DisplaySink.c ****     {
 682              		.loc 1 193 0
 683 016e FB6C     		ldr	r3, [r7, #76]
 684 0170 1B78     		ldrb	r3, [r3]	@ zero_extendqisi2
 685 0172 FF2B     		cmp	r3, #255
 686 0174 7FF44BAF 		bne	.L26
 687              	.L25:
 250:.\DisplaySink.c ****     }    
 251:.\DisplaySink.c ****     pdispflowiterator = _g_displayflow2;
 688              		.loc 1 251 0
 689 0178 5A4B     		ldr	r3, .L41+12
 690 017a FB64     		str	r3, [r7, #76]
 252:.\DisplaySink.c ****     while(pdispflowiterator->_scrid != DISPLAY_NULL)
 691              		.loc 1 252 0
 692 017c B9E0     		b	.L27
 693              	.L38:
 253:.\DisplaySink.c ****     {
 254:.\DisplaySink.c ****         if(_g_display2._pcurrflow->_scrid == pdispflowiterator->_scrid)
 694              		.loc 1 254 0
 695 017e 5A4B     		ldr	r3, .L41+16
 696 0180 1B69     		ldr	r3, [r3, #16]
 697 0182 1A78     		ldrb	r2, [r3]	@ zero_extendqisi2
 698 0184 FB6C     		ldr	r3, [r7, #76]
 699 0186 1B78     		ldrb	r3, [r3]	@ zero_extendqisi2
 700 0188 9A42     		cmp	r2, r3
 701 018a 40F0AF80 		bne	.L28
 702              	.LBB11:
 255:.\DisplaySink.c ****         {
 256:.\DisplaySink.c ****             bool timeoutraised = false;
 703              		.loc 1 256 0
 704 018e 0023     		movs	r3, #0
 705 0190 87F84930 		strb	r3, [r7, #73]
 257:.\DisplaySink.c ****             if(pdispflowiterator->_responsetimeoutlimit > 0)
 706              		.loc 1 257 0
 707 0194 FB6C     		ldr	r3, [r7, #76]
 708 0196 9B88     		ldrh	r3, [r3, #4]
 709 0198 002B     		cmp	r3, #0
ARM GAS  C:\Users\RECEPC~1\AppData\Local\Temp\cc1ma7xR.s 			page 18


 710 019a 50D0     		beq	.L29
 711              	.LBB12:
 258:.\DisplaySink.c ****             {
 259:.\DisplaySink.c ****                 _g_display2._timeoutmultiplier++;
 712              		.loc 1 259 0
 713 019c 524B     		ldr	r3, .L41+16
 714 019e 1B89     		ldrh	r3, [r3, #8]
 715 01a0 0133     		adds	r3, r3, #1
 716 01a2 9AB2     		uxth	r2, r3
 717 01a4 504B     		ldr	r3, .L41+16
 718 01a6 1A81     		strh	r2, [r3, #8]	@ movhi
 260:.\DisplaySink.c ****                 //VALIDATE THE TIMEOUT CONDITION HERE!!!
 261:.\DisplaySink.c ****                 double timespan = (_SINK_TIMEOUT_10MS_*_g_display2._timeoutmultiplier);
 719              		.loc 1 261 0
 720 01a8 4F4B     		ldr	r3, .L41+16
 721 01aa 1B89     		ldrh	r3, [r3, #8]
 722 01ac 1A46     		mov	r2, r3
 723 01ae 1346     		mov	r3, r2
 724 01b0 9B00     		lsls	r3, r3, #2
 725 01b2 1344     		add	r3, r3, r2
 726 01b4 5B00     		lsls	r3, r3, #1
 727 01b6 1846     		mov	r0, r3
 728 01b8 FFF7FEFF 		bl	__aeabi_i2d
 729 01bc 0246     		mov	r2, r0
 730 01be 0B46     		mov	r3, r1
 731 01c0 C7E90C23 		strd	r2, [r7, #48]
 262:.\DisplaySink.c ****                 if(timespan > (double)_g_display2._pcurrflow->_responsetimeoutlimit)
 732              		.loc 1 262 0
 733 01c4 484B     		ldr	r3, .L41+16
 734 01c6 1B69     		ldr	r3, [r3, #16]
 735 01c8 9B88     		ldrh	r3, [r3, #4]
 736 01ca 1846     		mov	r0, r3
 737 01cc FFF7FEFF 		bl	__aeabi_ui2d
 738 01d0 0246     		mov	r2, r0
 739 01d2 0B46     		mov	r3, r1
 740 01d4 1046     		mov	r0, r2
 741 01d6 1946     		mov	r1, r3
 742 01d8 D7E90C23 		ldrd	r2, [r7, #48]
 743 01dc FFF7FEFF 		bl	__aeabi_dcmplt
 744 01e0 0346     		mov	r3, r0
 745 01e2 002B     		cmp	r3, #0
 746 01e4 2BD0     		beq	.L29
 747              	.LBB13:
 263:.\DisplaySink.c ****                 {
 264:.\DisplaySink.c ****                     _g_display2._currscrcode = 0x00;
 748              		.loc 1 264 0
 749 01e6 404B     		ldr	r3, .L41+16
 750 01e8 0022     		movs	r2, #0
 751 01ea DA70     		strb	r2, [r3, #3]
 265:.\DisplaySink.c ****                     _g_display2._timeoutscrid = _g_display2._pcurrflow->_timeoutscrid;
 752              		.loc 1 265 0
 753 01ec 3E4B     		ldr	r3, .L41+16
 754 01ee 1B69     		ldr	r3, [r3, #16]
 755 01f0 9A79     		ldrb	r2, [r3, #6]	@ zero_extendqisi2
 756 01f2 3D4B     		ldr	r3, .L41+16
 757 01f4 9A72     		strb	r2, [r3, #10]
 266:.\DisplaySink.c ****                     
ARM GAS  C:\Users\RECEPC~1\AppData\Local\Temp\cc1ma7xR.s 			page 19


 267:.\DisplaySink.c ****                     _ALLOCATE_SINKMESSAGE_SLOT(psinkmsg);
 758              		.loc 1 267 0
 759 01f6 FFF7FEFF 		bl	AllocateMessageSlot
 760 01fa F862     		str	r0, [r7, #44]
 268:.\DisplaySink.c ****                     if(psinkmsg)
 761              		.loc 1 268 0
 762 01fc FB6A     		ldr	r3, [r7, #44]
 763 01fe 002B     		cmp	r3, #0
 764 0200 1AD0     		beq	.L31
 765              	.LBB14:
 269:.\DisplaySink.c ****                     {
 270:.\DisplaySink.c ****                         char8 pdummybuffer[] = { 0xAA, 0x00, 0x00, 0xFF, 0xCC, 0x33, 0xC3, 0x3C };
 766              		.loc 1 270 0
 767 0202 374A     		ldr	r2, .L41+8
 768 0204 07F11003 		add	r3, r7, #16
 769 0208 1068     		ldr	r0, [r2]	@ unaligned
 770 020a 5168     		ldr	r1, [r2, #4]	@ unaligned
 771 020c 03C3     		stmia	r3!, {r0, r1}
 271:.\DisplaySink.c ****                         psinkmsg->_messageid = DISPLAY2_RECEPTION;
 772              		.loc 1 271 0
 773 020e FB6A     		ldr	r3, [r7, #44]
 774 0210 2122     		movs	r2, #33
 775 0212 5A70     		strb	r2, [r3, #1]
 272:.\DisplaySink.c ****                         psinkmsg->_messagetype = FIRSTFOUND;
 776              		.loc 1 272 0
 777 0214 FB6A     		ldr	r3, [r7, #44]
 778 0216 0322     		movs	r2, #3
 779 0218 9A70     		strb	r2, [r3, #2]
 273:.\DisplaySink.c ****                         //memcpy(sinkmsg->_buffer, (const void*)pbuffer, buffersize);
 274:.\DisplaySink.c ****                         memcpy(psinkmsg->_buffer, (const void*)pdummybuffer, sizeof(pdummybuffer));
 780              		.loc 1 274 0
 781 021a FB6A     		ldr	r3, [r7, #44]
 782 021c 0C33     		adds	r3, r3, #12
 783 021e 1A46     		mov	r2, r3
 784 0220 07F11003 		add	r3, r7, #16
 785 0224 03CB     		ldmia	r3!, {r0, r1}
 786 0226 1060     		str	r0, [r2]	@ unaligned
 787 0228 5160     		str	r1, [r2, #4]	@ unaligned
 275:.\DisplaySink.c ****                         psinkmsg->_buffersize = sizeof(pdummybuffer);
 788              		.loc 1 275 0
 789 022a FB6A     		ldr	r3, [r7, #44]
 790 022c 0822     		movs	r2, #8
 791 022e A3F88C21 		strh	r2, [r3, #396]	@ movhi
 276:.\DisplaySink.c ****                         psinkmsg->_messagestate = SINK_BUSY;
 792              		.loc 1 276 0
 793 0232 FB6A     		ldr	r3, [r7, #44]
 794 0234 0322     		movs	r2, #3
 795 0236 DA70     		strb	r2, [r3, #3]
 796              	.L31:
 797              	.LBE14:
 277:.\DisplaySink.c ****                         
 278:.\DisplaySink.c ****                     }
 279:.\DisplaySink.c ****                     timeoutraised = true;
 798              		.loc 1 279 0
 799 0238 0123     		movs	r3, #1
 800 023a 87F84930 		strb	r3, [r7, #73]
 801              	.L29:
ARM GAS  C:\Users\RECEPC~1\AppData\Local\Temp\cc1ma7xR.s 			page 20


 802              	.LBE13:
 803              	.LBE12:
 280:.\DisplaySink.c ****                 }
 281:.\DisplaySink.c ****             }
 282:.\DisplaySink.c ****             if(!timeoutraised)
 804              		.loc 1 282 0
 805 023e 97F84930 		ldrb	r3, [r7, #73]
 806 0242 83F00103 		eor	r3, r3, #1
 807 0246 DBB2     		uxtb	r3, r3
 808 0248 002B     		cmp	r3, #0
 809 024a 44D0     		beq	.L32
 810              	.LBB15:
 283:.\DisplaySink.c ****             {
 284:.\DisplaySink.c ****                 FOR(uint8 index = 0, index < _MAX_DISPLAY_PATHS_, index++)
 811              		.loc 1 284 0
 812 024c 0023     		movs	r3, #0
 813 024e 87F84830 		strb	r3, [r7, #72]
 814 0252 3CE0     		b	.L33
 815              	.L36:
 285:.\DisplaySink.c ****                 {
 286:.\DisplaySink.c ****                     if(_g_display2._currentstate == _g_display2._pcurrflow->_statecodes[index])
 816              		.loc 1 286 0
 817 0254 244B     		ldr	r3, .L41+16
 818 0256 1A79     		ldrb	r2, [r3, #4]	@ zero_extendqisi2
 819 0258 234B     		ldr	r3, .L41+16
 820 025a 1969     		ldr	r1, [r3, #16]
 821 025c 97F84830 		ldrb	r3, [r7, #72]	@ zero_extendqisi2
 822 0260 0B44     		add	r3, r3, r1
 823 0262 DB7C     		ldrb	r3, [r3, #19]	@ zero_extendqisi2
 824 0264 9A42     		cmp	r2, r3
 825 0266 2DD1     		bne	.L34
 826              	.LBB16:
 287:.\DisplaySink.c ****                     {
 288:.\DisplaySink.c ****                         _g_display2._currscrcode = 0x00;
 827              		.loc 1 288 0
 828 0268 1F4B     		ldr	r3, .L41+16
 829 026a 0022     		movs	r2, #0
 830 026c DA70     		strb	r2, [r3, #3]
 289:.\DisplaySink.c ****                         _g_display2._statechangescrid = _g_display2._pcurrflow->_statenodes[index];
 831              		.loc 1 289 0
 832 026e 1E4B     		ldr	r3, .L41+16
 833 0270 1A69     		ldr	r2, [r3, #16]
 834 0272 97F84830 		ldrb	r3, [r7, #72]	@ zero_extendqisi2
 835 0276 1344     		add	r3, r3, r2
 836 0278 5A7E     		ldrb	r2, [r3, #25]	@ zero_extendqisi2
 837 027a 1B4B     		ldr	r3, .L41+16
 838 027c 5A71     		strb	r2, [r3, #5]
 290:.\DisplaySink.c ****                         
 291:.\DisplaySink.c ****                         _ALLOCATE_SINKMESSAGE_SLOT(psinkmsg);
 839              		.loc 1 291 0
 840 027e FFF7FEFF 		bl	AllocateMessageSlot
 841 0282 B862     		str	r0, [r7, #40]
 292:.\DisplaySink.c ****                         if(psinkmsg)
 842              		.loc 1 292 0
 843 0284 BB6A     		ldr	r3, [r7, #40]
 844 0286 002B     		cmp	r3, #0
 845 0288 1BD0     		beq	.L35
ARM GAS  C:\Users\RECEPC~1\AppData\Local\Temp\cc1ma7xR.s 			page 21


 846              	.LBB17:
 293:.\DisplaySink.c ****                         {
 294:.\DisplaySink.c ****                             char8 pdummybuffer[] = { 0xAA, 0x00, 0x00, 0xFF, 0xCC, 0x33, 0xC3, 0x3C
 847              		.loc 1 294 0
 848 028a 154A     		ldr	r2, .L41+8
 849 028c 07F10803 		add	r3, r7, #8
 850 0290 1068     		ldr	r0, [r2]	@ unaligned
 851 0292 5168     		ldr	r1, [r2, #4]	@ unaligned
 852 0294 03C3     		stmia	r3!, {r0, r1}
 295:.\DisplaySink.c ****                             psinkmsg->_messageid = DISPLAY2_RECEPTION;
 853              		.loc 1 295 0
 854 0296 BB6A     		ldr	r3, [r7, #40]
 855 0298 2122     		movs	r2, #33
 856 029a 5A70     		strb	r2, [r3, #1]
 296:.\DisplaySink.c ****                             psinkmsg->_messagetype = FIRSTFOUND;
 857              		.loc 1 296 0
 858 029c BB6A     		ldr	r3, [r7, #40]
 859 029e 0322     		movs	r2, #3
 860 02a0 9A70     		strb	r2, [r3, #2]
 297:.\DisplaySink.c ****                             memcpy(psinkmsg->_buffer, (const void*)pdummybuffer, sizeof(pdummybuffe
 861              		.loc 1 297 0
 862 02a2 BB6A     		ldr	r3, [r7, #40]
 863 02a4 0C33     		adds	r3, r3, #12
 864 02a6 1A46     		mov	r2, r3
 865 02a8 07F10803 		add	r3, r7, #8
 866 02ac 03CB     		ldmia	r3!, {r0, r1}
 867 02ae 1060     		str	r0, [r2]	@ unaligned
 868 02b0 5160     		str	r1, [r2, #4]	@ unaligned
 298:.\DisplaySink.c ****                             psinkmsg->_buffersize = sizeof(pdummybuffer);
 869              		.loc 1 298 0
 870 02b2 BB6A     		ldr	r3, [r7, #40]
 871 02b4 0822     		movs	r2, #8
 872 02b6 A3F88C21 		strh	r2, [r3, #396]	@ movhi
 299:.\DisplaySink.c ****                             psinkmsg->_messagestate = SINK_BUSY;
 873              		.loc 1 299 0
 874 02ba BB6A     		ldr	r3, [r7, #40]
 875 02bc 0322     		movs	r2, #3
 876 02be DA70     		strb	r2, [r3, #3]
 877              	.LBE17:
 300:.\DisplaySink.c ****                             
 301:.\DisplaySink.c ****                         }
 302:.\DisplaySink.c ****                         break;
 878              		.loc 1 302 0
 879 02c0 09E0     		b	.L32
 880              	.L35:
 881              		.loc 1 302 0 is_stmt 0 discriminator 3
 882 02c2 08E0     		b	.L32
 883              	.L34:
 884              	.LBE16:
 284:.\DisplaySink.c ****                 {
 885              		.loc 1 284 0 is_stmt 1 discriminator 2
 886 02c4 97F84830 		ldrb	r3, [r7, #72]	@ zero_extendqisi2
 887 02c8 0133     		adds	r3, r3, #1
 888 02ca 87F84830 		strb	r3, [r7, #72]
 889              	.L33:
 284:.\DisplaySink.c ****                 {
 890              		.loc 1 284 0 is_stmt 0 discriminator 1
ARM GAS  C:\Users\RECEPC~1\AppData\Local\Temp\cc1ma7xR.s 			page 22


 891 02ce 97F84830 		ldrb	r3, [r7, #72]	@ zero_extendqisi2
 892 02d2 052B     		cmp	r3, #5
 893 02d4 BED9     		bls	.L36
 894              	.L32:
 895              	.LBE15:
 303:.\DisplaySink.c ****                     }
 304:.\DisplaySink.c ****                 }
 305:.\DisplaySink.c ****             }
 306:.\DisplaySink.c ****             
 307:.\DisplaySink.c ****             break;
 896              		.loc 1 307 0 is_stmt 1 discriminator 4
 897 02d6 11E0     		b	.L14
 898              	.L42:
 899              		.align	2
 900              	.L41:
 901 02d8 00000000 		.word	_g_displayflow1
 902 02dc 00000000 		.word	_g_display1
 903 02e0 00000000 		.word	.LC0
 904 02e4 00000000 		.word	_g_displayflow2
 905 02e8 00000000 		.word	_g_display2
 906              	.L28:
 907              	.LBE11:
 308:.\DisplaySink.c ****         }
 309:.\DisplaySink.c ****         pdispflowiterator++;
 908              		.loc 1 309 0
 909 02ec FB6C     		ldr	r3, [r7, #76]
 910 02ee 4433     		adds	r3, r3, #68
 911 02f0 FB64     		str	r3, [r7, #76]
 912              	.L27:
 252:.\DisplaySink.c ****     {
 913              		.loc 1 252 0
 914 02f2 FB6C     		ldr	r3, [r7, #76]
 915 02f4 1B78     		ldrb	r3, [r3]	@ zero_extendqisi2
 916 02f6 FF2B     		cmp	r3, #255
 917 02f8 7FF441AF 		bne	.L38
 918              	.L14:
 310:.\DisplaySink.c ****     }    
 311:.\DisplaySink.c **** }
 919              		.loc 1 311 0
 920 02fc 5037     		adds	r7, r7, #80
 921              		.cfi_def_cfa_offset 8
 922 02fe BD46     		mov	sp, r7
 923              		.cfi_def_cfa_register 13
 924              		@ sp needed
 925 0300 80BD     		pop	{r7, pc}
 926              		.cfi_endproc
 927              	.LFE2:
 928              		.size	DisplayRaiseTimeoutsAndStateChanges, .-DisplayRaiseTimeoutsAndStateChanges
 929 0302 00BF     		.text
 930              	.Letext0:
 931              		.file 2 "Generated_Source\\PSoC5/cytypes.h"
 932              		.file 3 ".\\SinkManager.h"
 933              		.file 4 ".\\SinkObservables.h"
 934              		.file 5 ".\\UARTManager.h"
 935              		.file 6 ".\\Display.h"