ARM GAS  C:\Users\Lenovo\AppData\Local\Temp\ccKs44LO.s 			page 1


   1              		.syntax unified
   2              		.cpu cortex-m3
   3              		.fpu softvfp
   4              		.eabi_attribute 20, 1
   5              		.eabi_attribute 21, 1
   6              		.eabi_attribute 23, 3
   7              		.eabi_attribute 24, 1
   8              		.eabi_attribute 25, 1
   9              		.eabi_attribute 26, 1
  10              		.eabi_attribute 30, 6
  11              		.eabi_attribute 34, 1
  12              		.eabi_attribute 18, 4
  13              		.thumb
  14              		.file	"DisplayUtils.c"
  15              		.text
  16              	.Ltext0:
  17              		.cfi_sections	.debug_frame
  18              		.comm	HoseDispenser,1,1
  19              		.global	_g_productbuttonmap
  20              		.data
  21              		.align	2
  22              		.type	_g_productbuttonmap, %object
  23              		.size	_g_productbuttonmap, 10
  24              	_g_productbuttonmap:
  25 0000 80       		.byte	-128
  26 0001 00       		.byte	0
  27 0002 81       		.byte	-127
  28 0003 01       		.byte	1
  29 0004 7F       		.byte	127
  30 0005 02       		.byte	2
  31 0006 B8       		.byte	-72
  32 0007 03       		.byte	3
  33 0008 00       		.byte	0
  34 0009 00       		.byte	0
  35              		.global	_g_displaystarting
  36              		.type	_g_displaystarting, %object
  37              		.size	_g_displaystarting, 1
  38              	_g_displaystarting:
  39 000a 01       		.byte	1
  40 000b 00       		.section	.rodata
  41              		.align	2
  42              	.LC0:
  43 0000 AA       		.byte	-86
  44 0001 98       		.byte	-104
  45 0002 CC       		.byte	-52
  46 0003 33       		.byte	51
  47 0004 C3       		.byte	-61
  48 0005 3C       		.byte	60
  49              		.section	.text.DisplayOutputString,"ax",%progbits
  50              		.align	2
  51              		.global	DisplayOutputString
  52              		.thumb
  53              		.thumb_func
  54              		.type	DisplayOutputString, %function
  55              	DisplayOutputString:
  56              	.LFB63:
  57              		.file 1 ".\\DisplayUtils.c"
ARM GAS  C:\Users\Lenovo\AppData\Local\Temp\ccKs44LO.s 			page 2


   1:.\DisplayUtils.c **** /* ========================================
   2:.\DisplayUtils.c ****  *
   3:.\DisplayUtils.c ****  * Copyright INSEPET SISTEMAS, 2016
   4:.\DisplayUtils.c ****  * All Rights Reserved
   5:.\DisplayUtils.c ****  * UNPUBLISHED, LICENSED SOFTWARE.
   6:.\DisplayUtils.c ****  *
   7:.\DisplayUtils.c ****  * CONFIDENTIAL AND PROPRIETARY INFORMATION
   8:.\DisplayUtils.c ****  * WHICH IS THE PROPERTY OF your company.
   9:.\DisplayUtils.c ****  *
  10:.\DisplayUtils.c ****  * ========================================
  11:.\DisplayUtils.c **** @Created By: HIJH
  12:.\DisplayUtils.c **** @Date: Septembre de 2016
  13:.\DisplayUtils.c **** */
  14:.\DisplayUtils.c **** #include <project.h>
  15:.\DisplayUtils.c **** #include "GlobalDefinitions.h"
  16:.\DisplayUtils.c **** #include "Dispenser.h"
  17:.\DisplayUtils.c **** #include "UARTManager.h"
  18:.\DisplayUtils.c **** #include "SinkManager.h"
  19:.\DisplayUtils.c **** #include "SinkObservables.h"
  20:.\DisplayUtils.c **** #include "Printer.h"
  21:.\DisplayUtils.c **** #include "Display.h"
  22:.\DisplayUtils.c **** #include "Eeprom.h"
  23:.\DisplayUtils.c **** #include "Rtc.h"
  24:.\DisplayUtils.c **** 
  25:.\DisplayUtils.c **** DisplayCharacterMap _g_productbuttonmap[] = 
  26:.\DisplayUtils.c **** {
  27:.\DisplayUtils.c ****     { 0x80, 0x00 },
  28:.\DisplayUtils.c ****     { 0x81, 0x01 },
  29:.\DisplayUtils.c ****     { 0x7F, 0x02 },
  30:.\DisplayUtils.c ****     { 0xB8, 0x03 },
  31:.\DisplayUtils.c ****     { 0x00, 0x00 }
  32:.\DisplayUtils.c **** };
  33:.\DisplayUtils.c **** 
  34:.\DisplayUtils.c **** bool _g_displaystarting = true;
  35:.\DisplayUtils.c **** 
  36:.\DisplayUtils.c **** //@Created By: HIJH
  37:.\DisplayUtils.c **** //@Septembre de 2016
  38:.\DisplayUtils.c **** uint16 DisplayOutputString(uint16 xpos, uint16 ypos, char *pbuffer, char8 *pstring, uint16 buffersi
  39:.\DisplayUtils.c **** {
  58              		.loc 1 39 0
  59              		.cfi_startproc
  60              		@ args = 12, pretend = 0, frame = 32
  61              		@ frame_needed = 1, uses_anonymous_args = 0
  62 0000 80B5     		push	{r7, lr}
  63              		.cfi_def_cfa_offset 8
  64              		.cfi_offset 7, -8
  65              		.cfi_offset 14, -4
  66 0002 88B0     		sub	sp, sp, #32
  67              		.cfi_def_cfa_offset 40
  68 0004 00AF     		add	r7, sp, #0
  69              		.cfi_def_cfa_register 7
  70 0006 BA60     		str	r2, [r7, #8]
  71 0008 7B60     		str	r3, [r7, #4]
  72 000a 0346     		mov	r3, r0	@ movhi
  73 000c FB81     		strh	r3, [r7, #14]	@ movhi
  74 000e 0B46     		mov	r3, r1	@ movhi
  75 0010 BB81     		strh	r3, [r7, #12]	@ movhi
ARM GAS  C:\Users\Lenovo\AppData\Local\Temp\ccKs44LO.s 			page 3


  40:.\DisplayUtils.c ****     uint16 retval = 0x0000;
  76              		.loc 1 40 0
  77 0012 0023     		movs	r3, #0
  78 0014 FB83     		strh	r3, [r7, #30]	@ movhi
  41:.\DisplayUtils.c ****     if(pbuffer)
  79              		.loc 1 41 0
  80 0016 BB68     		ldr	r3, [r7, #8]
  81 0018 002B     		cmp	r3, #0
  82 001a 00F08680 		beq	.L2
  83              	.LBB2:
  42:.\DisplayUtils.c ****     {
  43:.\DisplayUtils.c ****         char8 pframedelimiters[] = { 0xAA, 0x98, 0xCC, 0x33, 0xC3, 0x3C };
  84              		.loc 1 43 0
  85 001e 454A     		ldr	r2, .L4
  86 0020 07F11803 		add	r3, r7, #24
  87 0024 1068     		ldr	r0, [r2]	@ unaligned
  88 0026 1860     		str	r0, [r3]	@ unaligned
  89 0028 9288     		ldrh	r2, [r2, #4]	@ unaligned
  90 002a 9A80     		strh	r2, [r3, #4]	@ unaligned
  44:.\DisplayUtils.c ****         //Frame header + Command ID delimiters
  45:.\DisplayUtils.c ****         memcpy(&pbuffer[retval], &pframedelimiters[0], 2);
  91              		.loc 1 45 0
  92 002c FB8B     		ldrh	r3, [r7, #30]
  93 002e BA68     		ldr	r2, [r7, #8]
  94 0030 1A44     		add	r2, r2, r3
  95 0032 07F11803 		add	r3, r7, #24
  96 0036 1046     		mov	r0, r2
  97 0038 1946     		mov	r1, r3
  98 003a 0222     		movs	r2, #2
  99 003c FFF7FEFF 		bl	memcpy
  46:.\DisplayUtils.c ****         retval += 2;
 100              		.loc 1 46 0
 101 0040 FB8B     		ldrh	r3, [r7, #30]	@ movhi
 102 0042 0233     		adds	r3, r3, #2
 103 0044 FB83     		strh	r3, [r7, #30]	@ movhi
  47:.\DisplayUtils.c ****         
  48:.\DisplayUtils.c ****         //X position of the string MSB
  49:.\DisplayUtils.c ****         pbuffer[retval++] = (xpos >> 8) & 0xFF;
 104              		.loc 1 49 0
 105 0046 FB8B     		ldrh	r3, [r7, #30]
 106 0048 5A1C     		adds	r2, r3, #1
 107 004a FA83     		strh	r2, [r7, #30]	@ movhi
 108 004c 1A46     		mov	r2, r3
 109 004e BB68     		ldr	r3, [r7, #8]
 110 0050 1344     		add	r3, r3, r2
 111 0052 FA89     		ldrh	r2, [r7, #14]
 112 0054 120A     		lsrs	r2, r2, #8
 113 0056 92B2     		uxth	r2, r2
 114 0058 D2B2     		uxtb	r2, r2
 115 005a 1A70     		strb	r2, [r3]
  50:.\DisplayUtils.c ****         //X position of the string LSB
  51:.\DisplayUtils.c ****         pbuffer[retval++] = xpos & 0xFF;
 116              		.loc 1 51 0
 117 005c FB8B     		ldrh	r3, [r7, #30]
 118 005e 5A1C     		adds	r2, r3, #1
 119 0060 FA83     		strh	r2, [r7, #30]	@ movhi
 120 0062 1A46     		mov	r2, r3
ARM GAS  C:\Users\Lenovo\AppData\Local\Temp\ccKs44LO.s 			page 4


 121 0064 BB68     		ldr	r3, [r7, #8]
 122 0066 1344     		add	r3, r3, r2
 123 0068 FA89     		ldrh	r2, [r7, #14]	@ movhi
 124 006a D2B2     		uxtb	r2, r2
 125 006c 1A70     		strb	r2, [r3]
  52:.\DisplayUtils.c ****         //Y position of the string MSB
  53:.\DisplayUtils.c ****         pbuffer[retval++] = (ypos >> 8) & 0xFF;
 126              		.loc 1 53 0
 127 006e FB8B     		ldrh	r3, [r7, #30]
 128 0070 5A1C     		adds	r2, r3, #1
 129 0072 FA83     		strh	r2, [r7, #30]	@ movhi
 130 0074 1A46     		mov	r2, r3
 131 0076 BB68     		ldr	r3, [r7, #8]
 132 0078 1344     		add	r3, r3, r2
 133 007a BA89     		ldrh	r2, [r7, #12]
 134 007c 120A     		lsrs	r2, r2, #8
 135 007e 92B2     		uxth	r2, r2
 136 0080 D2B2     		uxtb	r2, r2
 137 0082 1A70     		strb	r2, [r3]
  54:.\DisplayUtils.c ****         //Y position of the string LSB
  55:.\DisplayUtils.c ****         pbuffer[retval++] = ypos & 0xFF;
 138              		.loc 1 55 0
 139 0084 FB8B     		ldrh	r3, [r7, #30]
 140 0086 5A1C     		adds	r2, r3, #1
 141 0088 FA83     		strh	r2, [r7, #30]	@ movhi
 142 008a 1A46     		mov	r2, r3
 143 008c BB68     		ldr	r3, [r7, #8]
 144 008e 1344     		add	r3, r3, r2
 145 0090 BA89     		ldrh	r2, [r7, #12]	@ movhi
 146 0092 D2B2     		uxtb	r2, r2
 147 0094 1A70     		strb	r2, [r3]
  56:.\DisplayUtils.c ****         
  57:.\DisplayUtils.c ****         //Transparent Background: 0x85
  58:.\DisplayUtils.c ****         //Opaque Background: 0xC5
  59:.\DisplayUtils.c ****         char8 punk[]  = { 0x20 | (fontdata._size & 0x0F), fontdata._opaquebackground, 0x02, (fontda
 148              		.loc 1 59 0
 149 0096 97F82C30 		ldrb	r3, [r7, #44]	@ zero_extendqisi2
 150 009a DBB2     		uxtb	r3, r3
 151 009c 03F00F03 		and	r3, r3, #15
 152 00a0 DBB2     		uxtb	r3, r3
 153 00a2 43F02003 		orr	r3, r3, #32
 154 00a6 DBB2     		uxtb	r3, r3
 155 00a8 DBB2     		uxtb	r3, r3
 156 00aa 3B74     		strb	r3, [r7, #16]
 157 00ac 97F82E30 		ldrb	r3, [r7, #46]	@ zero_extendqisi2
 158 00b0 7B74     		strb	r3, [r7, #17]
 159 00b2 0223     		movs	r3, #2
 160 00b4 BB74     		strb	r3, [r7, #18]
 161 00b6 7B8E     		ldrh	r3, [r7, #50]
 162 00b8 1B0A     		lsrs	r3, r3, #8
 163 00ba 9BB2     		uxth	r3, r3
 164 00bc DBB2     		uxtb	r3, r3
 165 00be FB74     		strb	r3, [r7, #19]
 166 00c0 7B8E     		ldrh	r3, [r7, #50]
 167 00c2 DBB2     		uxtb	r3, r3
 168 00c4 3B75     		strb	r3, [r7, #20]
 169 00c6 3B8E     		ldrh	r3, [r7, #48]
ARM GAS  C:\Users\Lenovo\AppData\Local\Temp\ccKs44LO.s 			page 5


 170 00c8 1B0A     		lsrs	r3, r3, #8
 171 00ca 9BB2     		uxth	r3, r3
 172 00cc DBB2     		uxtb	r3, r3
 173 00ce 7B75     		strb	r3, [r7, #21]
 174 00d0 3B8E     		ldrh	r3, [r7, #48]
 175 00d2 DBB2     		uxtb	r3, r3
 176 00d4 BB75     		strb	r3, [r7, #22]
  60:.\DisplayUtils.c ****         memcpy(&pbuffer[retval], punk, sizeof(punk));
 177              		.loc 1 60 0
 178 00d6 FB8B     		ldrh	r3, [r7, #30]
 179 00d8 BA68     		ldr	r2, [r7, #8]
 180 00da 1344     		add	r3, r3, r2
 181 00dc 1A46     		mov	r2, r3
 182 00de 07F11003 		add	r3, r7, #16
 183 00e2 1868     		ldr	r0, [r3]	@ unaligned
 184 00e4 1060     		str	r0, [r2]	@ unaligned
 185 00e6 9988     		ldrh	r1, [r3, #4]	@ unaligned
 186 00e8 9B79     		ldrb	r3, [r3, #6]
 187 00ea 9180     		strh	r1, [r2, #4]	@ unaligned
 188 00ec 9371     		strb	r3, [r2, #6]
  61:.\DisplayUtils.c ****         retval += sizeof(punk);
 189              		.loc 1 61 0
 190 00ee FB8B     		ldrh	r3, [r7, #30]	@ movhi
 191 00f0 0733     		adds	r3, r3, #7
 192 00f2 FB83     		strh	r3, [r7, #30]	@ movhi
  62:.\DisplayUtils.c **** 
  63:.\DisplayUtils.c ****         //Copying the string into the buffer
  64:.\DisplayUtils.c ****         memcpy(&pbuffer[retval], pstring, buffersize);
 193              		.loc 1 64 0
 194 00f4 FB8B     		ldrh	r3, [r7, #30]
 195 00f6 BA68     		ldr	r2, [r7, #8]
 196 00f8 1A44     		add	r2, r2, r3
 197 00fa 3B8D     		ldrh	r3, [r7, #40]
 198 00fc 1046     		mov	r0, r2
 199 00fe 7968     		ldr	r1, [r7, #4]
 200 0100 1A46     		mov	r2, r3
 201 0102 FFF7FEFF 		bl	memcpy
  65:.\DisplayUtils.c ****         retval += buffersize;
 202              		.loc 1 65 0
 203 0106 FA8B     		ldrh	r2, [r7, #30]	@ movhi
 204 0108 3B8D     		ldrh	r3, [r7, #40]	@ movhi
 205 010a 1344     		add	r3, r3, r2
 206 010c FB83     		strh	r3, [r7, #30]	@ movhi
  66:.\DisplayUtils.c ****         //Frame foot delimiter
  67:.\DisplayUtils.c ****         memcpy(&pbuffer[retval], &pframedelimiters[2], 4);
 207              		.loc 1 67 0
 208 010e FB8B     		ldrh	r3, [r7, #30]
 209 0110 BA68     		ldr	r2, [r7, #8]
 210 0112 1A44     		add	r2, r2, r3
 211 0114 07F11803 		add	r3, r7, #24
 212 0118 0233     		adds	r3, r3, #2
 213 011a 1046     		mov	r0, r2
 214 011c 1946     		mov	r1, r3
 215 011e 0422     		movs	r2, #4
 216 0120 FFF7FEFF 		bl	memcpy
  68:.\DisplayUtils.c ****         retval += 4;
 217              		.loc 1 68 0
ARM GAS  C:\Users\Lenovo\AppData\Local\Temp\ccKs44LO.s 			page 6


 218 0124 FB8B     		ldrh	r3, [r7, #30]	@ movhi
 219 0126 0433     		adds	r3, r3, #4
 220 0128 FB83     		strh	r3, [r7, #30]	@ movhi
 221              	.L2:
 222              	.LBE2:
  69:.\DisplayUtils.c ****     }
  70:.\DisplayUtils.c ****     return retval;
 223              		.loc 1 70 0
 224 012a FB8B     		ldrh	r3, [r7, #30]
  71:.\DisplayUtils.c **** }
 225              		.loc 1 71 0
 226 012c 1846     		mov	r0, r3
 227 012e 2037     		adds	r7, r7, #32
 228              		.cfi_def_cfa_offset 8
 229 0130 BD46     		mov	sp, r7
 230              		.cfi_def_cfa_register 13
 231              		@ sp needed
 232 0132 80BD     		pop	{r7, pc}
 233              	.L5:
 234              		.align	2
 235              	.L4:
 236 0134 00000000 		.word	.LC0
 237              		.cfi_endproc
 238              	.LFE63:
 239              		.size	DisplayOutputString, .-DisplayOutputString
 240              		.section	.text.ParseDisplayFlow,"ax",%progbits
 241              		.align	2
 242              		.global	ParseDisplayFlow
 243              		.thumb
 244              		.thumb_func
 245              		.type	ParseDisplayFlow, %function
 246              	ParseDisplayFlow:
 247              	.LFB64:
  72:.\DisplayUtils.c **** 
  73:.\DisplayUtils.c **** //@Created by: HIJH
  74:.\DisplayUtils.c **** //@Date: Septembre de 2016
  75:.\DisplayUtils.c **** //Parses the display flow matrix and determines which screen is next
  76:.\DisplayUtils.c **** //depending on the predefined conditions.
  77:.\DisplayUtils.c **** //It also checks on the current screen for either display, this parser determines whether the curre
  78:.\DisplayUtils.c **** //screen needs to change as consequence of an external state change. For instance, if a PUMP state 
  79:.\DisplayUtils.c **** //maybe it requires that the display shows another different screen.
  80:.\DisplayUtils.c **** void ParseDisplayFlow(void *pparam)
  81:.\DisplayUtils.c **** {
 248              		.loc 1 81 0
 249              		.cfi_startproc
 250              		@ args = 0, pretend = 0, frame = 24
 251              		@ frame_needed = 1, uses_anonymous_args = 0
 252              		@ link register save eliminated.
 253 0000 80B4     		push	{r7}
 254              		.cfi_def_cfa_offset 4
 255              		.cfi_offset 7, -4
 256 0002 87B0     		sub	sp, sp, #28
 257              		.cfi_def_cfa_offset 32
 258 0004 00AF     		add	r7, sp, #0
 259              		.cfi_def_cfa_register 7
 260 0006 7860     		str	r0, [r7, #4]
  82:.\DisplayUtils.c ****     PDISPLAYLAYOUTPTR pdisplay = (PDISPLAYLAYOUTPTR)pparam;
ARM GAS  C:\Users\Lenovo\AppData\Local\Temp\ccKs44LO.s 			page 7


 261              		.loc 1 82 0
 262 0008 7B68     		ldr	r3, [r7, #4]
 263 000a FB60     		str	r3, [r7, #12]
  83:.\DisplayUtils.c ****     PDISPLAYFLOWPTR pdispflow = pdisplay->_preferenceflow;
 264              		.loc 1 83 0
 265 000c FB68     		ldr	r3, [r7, #12]
 266 000e 5B69     		ldr	r3, [r3, #20]
 267 0010 7B61     		str	r3, [r7, #20]
  84:.\DisplayUtils.c ****     while(pdispflow->_scrid != DISPLAY_NULL)
 268              		.loc 1 84 0
 269 0012 3FE0     		b	.L7
 270              	.L15:
  85:.\DisplayUtils.c ****     {        
  86:.\DisplayUtils.c ****         if(pdispflow->_scrid == pdisplay->_pcurrflow->_scrid && 
 271              		.loc 1 86 0
 272 0014 7B69     		ldr	r3, [r7, #20]
 273 0016 1A78     		ldrb	r2, [r3]	@ zero_extendqisi2
 274 0018 FB68     		ldr	r3, [r7, #12]
 275 001a 1B69     		ldr	r3, [r3, #16]
 276 001c 1B78     		ldrb	r3, [r3]	@ zero_extendqisi2
 277 001e 9A42     		cmp	r2, r3
 278 0020 35D1     		bne	.L8
  87:.\DisplayUtils.c ****             pdispflow->_parentscrid == pdisplay->_pcurrflow->_parentscrid && 
 279              		.loc 1 87 0 discriminator 1
 280 0022 7B69     		ldr	r3, [r7, #20]
 281 0024 5A78     		ldrb	r2, [r3, #1]	@ zero_extendqisi2
 282 0026 FB68     		ldr	r3, [r7, #12]
 283 0028 1B69     		ldr	r3, [r3, #16]
 284 002a 5B78     		ldrb	r3, [r3, #1]	@ zero_extendqisi2
  86:.\DisplayUtils.c ****             pdispflow->_parentscrid == pdisplay->_pcurrflow->_parentscrid && 
 285              		.loc 1 86 0 discriminator 1
 286 002c 9A42     		cmp	r2, r3
 287 002e 2ED1     		bne	.L8
  88:.\DisplayUtils.c ****             pdispflow->_parentcode == pdisplay->_pcurrflow->_parentcode)
 288              		.loc 1 88 0
 289 0030 7B69     		ldr	r3, [r7, #20]
 290 0032 9A78     		ldrb	r2, [r3, #2]	@ zero_extendqisi2
 291 0034 FB68     		ldr	r3, [r7, #12]
 292 0036 1B69     		ldr	r3, [r3, #16]
 293 0038 9B78     		ldrb	r3, [r3, #2]	@ zero_extendqisi2
  87:.\DisplayUtils.c ****             pdispflow->_parentscrid == pdisplay->_pcurrflow->_parentscrid && 
 294              		.loc 1 87 0
 295 003a 9A42     		cmp	r2, r3
 296 003c 27D1     		bne	.L8
 297              	.LBB3:
  89:.\DisplayUtils.c ****         {
  90:.\DisplayUtils.c ****             FOR(uint8 index = 0, index < _MAX_DISPLAY_PATHS_, index++)
 298              		.loc 1 90 0
 299 003e 0023     		movs	r3, #0
 300 0040 FB74     		strb	r3, [r7, #19]
 301 0042 20E0     		b	.L9
 302              	.L13:
  91:.\DisplayUtils.c ****             {
  92:.\DisplayUtils.c ****                 if(pdispflow->_pathcodes[index] == pdisplay->_currscrcode)
 303              		.loc 1 92 0
 304 0044 FB7C     		ldrb	r3, [r7, #19]	@ zero_extendqisi2
 305 0046 7A69     		ldr	r2, [r7, #20]
ARM GAS  C:\Users\Lenovo\AppData\Local\Temp\ccKs44LO.s 			page 8


 306 0048 1344     		add	r3, r3, r2
 307 004a DA79     		ldrb	r2, [r3, #7]	@ zero_extendqisi2
 308 004c FB68     		ldr	r3, [r7, #12]
 309 004e DB78     		ldrb	r3, [r3, #3]	@ zero_extendqisi2
 310 0050 9A42     		cmp	r2, r3
 311 0052 06D1     		bne	.L10
  93:.\DisplayUtils.c ****                 {
  94:.\DisplayUtils.c ****                     pdisplay->_nextscrid = pdispflow->_pathnodes[index];
 312              		.loc 1 94 0
 313 0054 FB7C     		ldrb	r3, [r7, #19]	@ zero_extendqisi2
 314 0056 7A69     		ldr	r2, [r7, #20]
 315 0058 1344     		add	r3, r3, r2
 316 005a 5A7B     		ldrb	r2, [r3, #13]	@ zero_extendqisi2
 317 005c FB68     		ldr	r3, [r7, #12]
 318 005e 9A70     		strb	r2, [r3, #2]
  95:.\DisplayUtils.c ****                     break;
 319              		.loc 1 95 0
 320 0060 14E0     		b	.L11
 321              	.L10:
  96:.\DisplayUtils.c ****                 }
  97:.\DisplayUtils.c ****                 if(pdispflow->_statecodes[index] == pdisplay->_currentstate)
 322              		.loc 1 97 0
 323 0062 FB7C     		ldrb	r3, [r7, #19]	@ zero_extendqisi2
 324 0064 7A69     		ldr	r2, [r7, #20]
 325 0066 1344     		add	r3, r3, r2
 326 0068 DA7C     		ldrb	r2, [r3, #19]	@ zero_extendqisi2
 327 006a FB68     		ldr	r3, [r7, #12]
 328 006c 1B79     		ldrb	r3, [r3, #4]	@ zero_extendqisi2
 329 006e 9A42     		cmp	r2, r3
 330 0070 06D1     		bne	.L12
  98:.\DisplayUtils.c ****                 {
  99:.\DisplayUtils.c ****                     pdisplay->_statechangescrid = pdispflow->_statenodes[index];
 331              		.loc 1 99 0
 332 0072 FB7C     		ldrb	r3, [r7, #19]	@ zero_extendqisi2
 333 0074 7A69     		ldr	r2, [r7, #20]
 334 0076 1344     		add	r3, r3, r2
 335 0078 5A7E     		ldrb	r2, [r3, #25]	@ zero_extendqisi2
 336 007a FB68     		ldr	r3, [r7, #12]
 337 007c 5A71     		strb	r2, [r3, #5]
 100:.\DisplayUtils.c ****                     break;
 338              		.loc 1 100 0
 339 007e 05E0     		b	.L11
 340              	.L12:
  90:.\DisplayUtils.c ****             {
 341              		.loc 1 90 0 discriminator 2
 342 0080 FB7C     		ldrb	r3, [r7, #19]	@ zero_extendqisi2
 343 0082 0133     		adds	r3, r3, #1
 344 0084 FB74     		strb	r3, [r7, #19]
 345              	.L9:
  90:.\DisplayUtils.c ****             {
 346              		.loc 1 90 0 is_stmt 0 discriminator 1
 347 0086 FB7C     		ldrb	r3, [r7, #19]	@ zero_extendqisi2
 348 0088 052B     		cmp	r3, #5
 349 008a DBD9     		bls	.L13
 350              	.L11:
 101:.\DisplayUtils.c ****                 }
 102:.\DisplayUtils.c ****             }
ARM GAS  C:\Users\Lenovo\AppData\Local\Temp\ccKs44LO.s 			page 9


 103:.\DisplayUtils.c ****             break;
 351              		.loc 1 103 0 is_stmt 1
 352 008c 06E0     		b	.L6
 353              	.L8:
 354              	.LBE3:
 104:.\DisplayUtils.c ****         }
 105:.\DisplayUtils.c ****         pdispflow++;
 355              		.loc 1 105 0
 356 008e 7B69     		ldr	r3, [r7, #20]
 357 0090 4433     		adds	r3, r3, #68
 358 0092 7B61     		str	r3, [r7, #20]
 359              	.L7:
  84:.\DisplayUtils.c ****     {        
 360              		.loc 1 84 0
 361 0094 7B69     		ldr	r3, [r7, #20]
 362 0096 1B78     		ldrb	r3, [r3]	@ zero_extendqisi2
 363 0098 FF2B     		cmp	r3, #255
 364 009a BBD1     		bne	.L15
 365              	.L6:
 106:.\DisplayUtils.c ****     }
 107:.\DisplayUtils.c **** }
 366              		.loc 1 107 0
 367 009c 1C37     		adds	r7, r7, #28
 368              		.cfi_def_cfa_offset 4
 369 009e BD46     		mov	sp, r7
 370              		.cfi_def_cfa_register 13
 371              		@ sp needed
 372 00a0 5DF8047B 		ldr	r7, [sp], #4
 373              		.cfi_restore 7
 374              		.cfi_def_cfa_offset 0
 375 00a4 7047     		bx	lr
 376              		.cfi_endproc
 377              	.LFE64:
 378              		.size	ParseDisplayFlow, .-ParseDisplayFlow
 379 00a6 00BF     		.section	.text.DisplayFlowInputHandler,"ax",%progbits
 380              		.align	2
 381              		.global	DisplayFlowInputHandler
 382              		.thumb
 383              		.thumb_func
 384              		.type	DisplayFlowInputHandler, %function
 385              	DisplayFlowInputHandler:
 386              	.LFB65:
 108:.\DisplayUtils.c **** 
 109:.\DisplayUtils.c **** //@Created by: HIJH
 110:.\DisplayUtils.c **** //@Date: Septembre de 2016
 111:.\DisplayUtils.c **** //This is the core handler for the input processing. It manages all the incoming codes from the scr
 112:.\DisplayUtils.c **** //and map them to the valid ASCII. It also validates the inputbox size and manages the cleanup.
 113:.\DisplayUtils.c **** FPTRINPUTHANDLER DisplayFlowInputHandler(void *pparam)
 114:.\DisplayUtils.c **** {
 387              		.loc 1 114 0
 388              		.cfi_startproc
 389              		@ args = 0, pretend = 0, frame = 24
 390              		@ frame_needed = 1, uses_anonymous_args = 0
 391              		@ link register save eliminated.
 392 0000 80B4     		push	{r7}
 393              		.cfi_def_cfa_offset 4
 394              		.cfi_offset 7, -4
ARM GAS  C:\Users\Lenovo\AppData\Local\Temp\ccKs44LO.s 			page 10


 395 0002 87B0     		sub	sp, sp, #28
 396              		.cfi_def_cfa_offset 32
 397 0004 00AF     		add	r7, sp, #0
 398              		.cfi_def_cfa_register 7
 399 0006 7860     		str	r0, [r7, #4]
 115:.\DisplayUtils.c ****     FPTRINPUTHANDLER pretval = NULL;
 400              		.loc 1 115 0
 401 0008 0023     		movs	r3, #0
 402 000a 7B61     		str	r3, [r7, #20]
 116:.\DisplayUtils.c ****     PDISPLAYLAYOUTPTR pdisplay = (PDISPLAYLAYOUTPTR)pparam;
 403              		.loc 1 116 0
 404 000c 7B68     		ldr	r3, [r7, #4]
 405 000e FB60     		str	r3, [r7, #12]
 117:.\DisplayUtils.c ****     PDISPLAYFLOWPTR pdispflow = pdisplay->_preferenceflow;    
 406              		.loc 1 117 0
 407 0010 FB68     		ldr	r3, [r7, #12]
 408 0012 5B69     		ldr	r3, [r3, #20]
 409 0014 3B61     		str	r3, [r7, #16]
 118:.\DisplayUtils.c ****     while(pdispflow->_scrid != DISPLAY_NULL)
 410              		.loc 1 118 0
 411 0016 1BE0     		b	.L17
 412              	.L20:
 119:.\DisplayUtils.c ****     {
 120:.\DisplayUtils.c ****         if(pdispflow->_scrid == pdisplay->_pcurrflow->_scrid && 
 413              		.loc 1 120 0
 414 0018 3B69     		ldr	r3, [r7, #16]
 415 001a 1A78     		ldrb	r2, [r3]	@ zero_extendqisi2
 416 001c FB68     		ldr	r3, [r7, #12]
 417 001e 1B69     		ldr	r3, [r3, #16]
 418 0020 1B78     		ldrb	r3, [r3]	@ zero_extendqisi2
 419 0022 9A42     		cmp	r2, r3
 420 0024 11D1     		bne	.L18
 121:.\DisplayUtils.c ****             pdispflow->_parentscrid == pdisplay->_pcurrflow->_parentscrid && 
 421              		.loc 1 121 0 discriminator 1
 422 0026 3B69     		ldr	r3, [r7, #16]
 423 0028 5A78     		ldrb	r2, [r3, #1]	@ zero_extendqisi2
 424 002a FB68     		ldr	r3, [r7, #12]
 425 002c 1B69     		ldr	r3, [r3, #16]
 426 002e 5B78     		ldrb	r3, [r3, #1]	@ zero_extendqisi2
 120:.\DisplayUtils.c ****             pdispflow->_parentscrid == pdisplay->_pcurrflow->_parentscrid && 
 427              		.loc 1 120 0 discriminator 1
 428 0030 9A42     		cmp	r2, r3
 429 0032 0AD1     		bne	.L18
 122:.\DisplayUtils.c ****             pdispflow->_parentcode == pdisplay->_pcurrflow->_parentcode)
 430              		.loc 1 122 0
 431 0034 3B69     		ldr	r3, [r7, #16]
 432 0036 9A78     		ldrb	r2, [r3, #2]	@ zero_extendqisi2
 433 0038 FB68     		ldr	r3, [r7, #12]
 434 003a 1B69     		ldr	r3, [r3, #16]
 435 003c 9B78     		ldrb	r3, [r3, #2]	@ zero_extendqisi2
 121:.\DisplayUtils.c ****             pdispflow->_parentscrid == pdisplay->_pcurrflow->_parentscrid && 
 436              		.loc 1 121 0
 437 003e 9A42     		cmp	r2, r3
 438 0040 03D1     		bne	.L18
 123:.\DisplayUtils.c ****         {
 124:.\DisplayUtils.c ****             pretval = pdispflow->_inputhandler;
 439              		.loc 1 124 0
ARM GAS  C:\Users\Lenovo\AppData\Local\Temp\ccKs44LO.s 			page 11


 440 0042 3B69     		ldr	r3, [r7, #16]
 441 0044 5B6A     		ldr	r3, [r3, #36]
 442 0046 7B61     		str	r3, [r7, #20]
 125:.\DisplayUtils.c ****             break;
 443              		.loc 1 125 0
 444 0048 06E0     		b	.L19
 445              	.L18:
 126:.\DisplayUtils.c ****         }
 127:.\DisplayUtils.c ****         pdispflow++;
 446              		.loc 1 127 0
 447 004a 3B69     		ldr	r3, [r7, #16]
 448 004c 4433     		adds	r3, r3, #68
 449 004e 3B61     		str	r3, [r7, #16]
 450              	.L17:
 118:.\DisplayUtils.c ****     {
 451              		.loc 1 118 0
 452 0050 3B69     		ldr	r3, [r7, #16]
 453 0052 1B78     		ldrb	r3, [r3]	@ zero_extendqisi2
 454 0054 FF2B     		cmp	r3, #255
 455 0056 DFD1     		bne	.L20
 456              	.L19:
 128:.\DisplayUtils.c ****     }
 129:.\DisplayUtils.c ****     return pretval;
 457              		.loc 1 129 0
 458 0058 7B69     		ldr	r3, [r7, #20]
 130:.\DisplayUtils.c **** }
 459              		.loc 1 130 0
 460 005a 1846     		mov	r0, r3
 461 005c 1C37     		adds	r7, r7, #28
 462              		.cfi_def_cfa_offset 4
 463 005e BD46     		mov	sp, r7
 464              		.cfi_def_cfa_register 13
 465              		@ sp needed
 466 0060 5DF8047B 		ldr	r7, [sp], #4
 467              		.cfi_restore 7
 468              		.cfi_def_cfa_offset 0
 469 0064 7047     		bx	lr
 470              		.cfi_endproc
 471              	.LFE65:
 472              		.size	DisplayFlowInputHandler, .-DisplayFlowInputHandler
 473 0066 00BF     		.section	.text.DisplayFlowInputValidator,"ax",%progbits
 474              		.align	2
 475              		.global	DisplayFlowInputValidator
 476              		.thumb
 477              		.thumb_func
 478              		.type	DisplayFlowInputValidator, %function
 479              	DisplayFlowInputValidator:
 480              	.LFB66:
 131:.\DisplayUtils.c **** 
 132:.\DisplayUtils.c **** //@Created by: HIJH
 133:.\DisplayUtils.c **** //@Date: Septembre de 2016
 134:.\DisplayUtils.c **** //This validator checks whether data has been entered into the InpupBox
 135:.\DisplayUtils.c **** FPTRINPUTVALIDATOR DisplayFlowInputValidator(void *pparam)
 136:.\DisplayUtils.c **** {
 481              		.loc 1 136 0
 482              		.cfi_startproc
 483              		@ args = 0, pretend = 0, frame = 24
ARM GAS  C:\Users\Lenovo\AppData\Local\Temp\ccKs44LO.s 			page 12


 484              		@ frame_needed = 1, uses_anonymous_args = 0
 485              		@ link register save eliminated.
 486 0000 80B4     		push	{r7}
 487              		.cfi_def_cfa_offset 4
 488              		.cfi_offset 7, -4
 489 0002 87B0     		sub	sp, sp, #28
 490              		.cfi_def_cfa_offset 32
 491 0004 00AF     		add	r7, sp, #0
 492              		.cfi_def_cfa_register 7
 493 0006 7860     		str	r0, [r7, #4]
 137:.\DisplayUtils.c ****     FPTRINPUTVALIDATOR pretval = NULL;
 494              		.loc 1 137 0
 495 0008 0023     		movs	r3, #0
 496 000a 7B61     		str	r3, [r7, #20]
 138:.\DisplayUtils.c ****     PDISPLAYLAYOUTPTR pdisplay = (PDISPLAYLAYOUTPTR)pparam;
 497              		.loc 1 138 0
 498 000c 7B68     		ldr	r3, [r7, #4]
 499 000e FB60     		str	r3, [r7, #12]
 139:.\DisplayUtils.c ****     PDISPLAYFLOWPTR pdispflow = pdisplay->_preferenceflow;
 500              		.loc 1 139 0
 501 0010 FB68     		ldr	r3, [r7, #12]
 502 0012 5B69     		ldr	r3, [r3, #20]
 503 0014 3B61     		str	r3, [r7, #16]
 140:.\DisplayUtils.c ****     while(pdispflow->_scrid != DISPLAY_NULL)
 504              		.loc 1 140 0
 505 0016 1BE0     		b	.L23
 506              	.L26:
 141:.\DisplayUtils.c ****     {
 142:.\DisplayUtils.c ****         if(pdispflow->_scrid == pdisplay->_pcurrflow->_scrid && 
 507              		.loc 1 142 0
 508 0018 3B69     		ldr	r3, [r7, #16]
 509 001a 1A78     		ldrb	r2, [r3]	@ zero_extendqisi2
 510 001c FB68     		ldr	r3, [r7, #12]
 511 001e 1B69     		ldr	r3, [r3, #16]
 512 0020 1B78     		ldrb	r3, [r3]	@ zero_extendqisi2
 513 0022 9A42     		cmp	r2, r3
 514 0024 11D1     		bne	.L24
 143:.\DisplayUtils.c ****             pdispflow->_parentscrid == pdisplay->_pcurrflow->_parentscrid && 
 515              		.loc 1 143 0 discriminator 1
 516 0026 3B69     		ldr	r3, [r7, #16]
 517 0028 5A78     		ldrb	r2, [r3, #1]	@ zero_extendqisi2
 518 002a FB68     		ldr	r3, [r7, #12]
 519 002c 1B69     		ldr	r3, [r3, #16]
 520 002e 5B78     		ldrb	r3, [r3, #1]	@ zero_extendqisi2
 142:.\DisplayUtils.c ****             pdispflow->_parentscrid == pdisplay->_pcurrflow->_parentscrid && 
 521              		.loc 1 142 0 discriminator 1
 522 0030 9A42     		cmp	r2, r3
 523 0032 0AD1     		bne	.L24
 144:.\DisplayUtils.c ****             pdispflow->_parentcode == pdisplay->_pcurrflow->_parentcode)
 524              		.loc 1 144 0
 525 0034 3B69     		ldr	r3, [r7, #16]
 526 0036 9A78     		ldrb	r2, [r3, #2]	@ zero_extendqisi2
 527 0038 FB68     		ldr	r3, [r7, #12]
 528 003a 1B69     		ldr	r3, [r3, #16]
 529 003c 9B78     		ldrb	r3, [r3, #2]	@ zero_extendqisi2
 143:.\DisplayUtils.c ****             pdispflow->_parentscrid == pdisplay->_pcurrflow->_parentscrid && 
 530              		.loc 1 143 0
ARM GAS  C:\Users\Lenovo\AppData\Local\Temp\ccKs44LO.s 			page 13


 531 003e 9A42     		cmp	r2, r3
 532 0040 03D1     		bne	.L24
 145:.\DisplayUtils.c ****         {
 146:.\DisplayUtils.c ****             pretval = pdispflow->_inputvalidator;
 533              		.loc 1 146 0
 534 0042 3B69     		ldr	r3, [r7, #16]
 535 0044 9B6A     		ldr	r3, [r3, #40]
 536 0046 7B61     		str	r3, [r7, #20]
 147:.\DisplayUtils.c ****             break;
 537              		.loc 1 147 0
 538 0048 06E0     		b	.L25
 539              	.L24:
 148:.\DisplayUtils.c ****         }
 149:.\DisplayUtils.c ****         pdispflow++;
 540              		.loc 1 149 0
 541 004a 3B69     		ldr	r3, [r7, #16]
 542 004c 4433     		adds	r3, r3, #68
 543 004e 3B61     		str	r3, [r7, #16]
 544              	.L23:
 140:.\DisplayUtils.c ****     {
 545              		.loc 1 140 0
 546 0050 3B69     		ldr	r3, [r7, #16]
 547 0052 1B78     		ldrb	r3, [r3]	@ zero_extendqisi2
 548 0054 FF2B     		cmp	r3, #255
 549 0056 DFD1     		bne	.L26
 550              	.L25:
 150:.\DisplayUtils.c ****     }
 151:.\DisplayUtils.c ****     return pretval;
 551              		.loc 1 151 0
 552 0058 7B69     		ldr	r3, [r7, #20]
 152:.\DisplayUtils.c **** }
 553              		.loc 1 152 0
 554 005a 1846     		mov	r0, r3
 555 005c 1C37     		adds	r7, r7, #28
 556              		.cfi_def_cfa_offset 4
 557 005e BD46     		mov	sp, r7
 558              		.cfi_def_cfa_register 13
 559              		@ sp needed
 560 0060 5DF8047B 		ldr	r7, [sp], #4
 561              		.cfi_restore 7
 562              		.cfi_def_cfa_offset 0
 563 0064 7047     		bx	lr
 564              		.cfi_endproc
 565              	.LFE66:
 566              		.size	DisplayFlowInputValidator, .-DisplayFlowInputValidator
 567 0066 00BF     		.section	.text.DisplayInitializer,"ax",%progbits
 568              		.align	2
 569              		.global	DisplayInitializer
 570              		.thumb
 571              		.thumb_func
 572              		.type	DisplayInitializer, %function
 573              	DisplayInitializer:
 574              	.LFB67:
 153:.\DisplayUtils.c **** 
 154:.\DisplayUtils.c **** //@Created by: HIJH
 155:.\DisplayUtils.c **** //@Date: Septembre de 2016
 156:.\DisplayUtils.c **** //Retrieves the Initializer for the currently selected screen
ARM GAS  C:\Users\Lenovo\AppData\Local\Temp\ccKs44LO.s 			page 14


 157:.\DisplayUtils.c **** FPTRINITIALIZER DisplayInitializer(void *pparam)
 158:.\DisplayUtils.c **** {
 575              		.loc 1 158 0
 576              		.cfi_startproc
 577              		@ args = 0, pretend = 0, frame = 24
 578              		@ frame_needed = 1, uses_anonymous_args = 0
 579              		@ link register save eliminated.
 580 0000 80B4     		push	{r7}
 581              		.cfi_def_cfa_offset 4
 582              		.cfi_offset 7, -4
 583 0002 87B0     		sub	sp, sp, #28
 584              		.cfi_def_cfa_offset 32
 585 0004 00AF     		add	r7, sp, #0
 586              		.cfi_def_cfa_register 7
 587 0006 7860     		str	r0, [r7, #4]
 159:.\DisplayUtils.c ****     FPTRINITIALIZER pretval = NULL;
 588              		.loc 1 159 0
 589 0008 0023     		movs	r3, #0
 590 000a 7B61     		str	r3, [r7, #20]
 160:.\DisplayUtils.c ****     PDISPLAYLAYOUTPTR pdisplay = (PDISPLAYLAYOUTPTR)pparam;
 591              		.loc 1 160 0
 592 000c 7B68     		ldr	r3, [r7, #4]
 593 000e FB60     		str	r3, [r7, #12]
 161:.\DisplayUtils.c ****     PDISPLAYFLOWPTR pdispflow = pdisplay->_preferenceflow;
 594              		.loc 1 161 0
 595 0010 FB68     		ldr	r3, [r7, #12]
 596 0012 5B69     		ldr	r3, [r3, #20]
 597 0014 3B61     		str	r3, [r7, #16]
 162:.\DisplayUtils.c ****     while(pdispflow->_scrid != DISPLAY_NULL)
 598              		.loc 1 162 0
 599 0016 1BE0     		b	.L29
 600              	.L32:
 163:.\DisplayUtils.c ****     {
 164:.\DisplayUtils.c ****         if(pdispflow->_scrid == pdisplay->_pcurrflow->_scrid && 
 601              		.loc 1 164 0
 602 0018 3B69     		ldr	r3, [r7, #16]
 603 001a 1A78     		ldrb	r2, [r3]	@ zero_extendqisi2
 604 001c FB68     		ldr	r3, [r7, #12]
 605 001e 1B69     		ldr	r3, [r3, #16]
 606 0020 1B78     		ldrb	r3, [r3]	@ zero_extendqisi2
 607 0022 9A42     		cmp	r2, r3
 608 0024 11D1     		bne	.L30
 165:.\DisplayUtils.c ****             pdispflow->_parentscrid == pdisplay->_pcurrflow->_parentscrid && 
 609              		.loc 1 165 0 discriminator 1
 610 0026 3B69     		ldr	r3, [r7, #16]
 611 0028 5A78     		ldrb	r2, [r3, #1]	@ zero_extendqisi2
 612 002a FB68     		ldr	r3, [r7, #12]
 613 002c 1B69     		ldr	r3, [r3, #16]
 614 002e 5B78     		ldrb	r3, [r3, #1]	@ zero_extendqisi2
 164:.\DisplayUtils.c ****             pdispflow->_parentscrid == pdisplay->_pcurrflow->_parentscrid && 
 615              		.loc 1 164 0 discriminator 1
 616 0030 9A42     		cmp	r2, r3
 617 0032 0AD1     		bne	.L30
 166:.\DisplayUtils.c ****             pdispflow->_parentcode == pdisplay->_pcurrflow->_parentcode)
 618              		.loc 1 166 0
 619 0034 3B69     		ldr	r3, [r7, #16]
 620 0036 9A78     		ldrb	r2, [r3, #2]	@ zero_extendqisi2
ARM GAS  C:\Users\Lenovo\AppData\Local\Temp\ccKs44LO.s 			page 15


 621 0038 FB68     		ldr	r3, [r7, #12]
 622 003a 1B69     		ldr	r3, [r3, #16]
 623 003c 9B78     		ldrb	r3, [r3, #2]	@ zero_extendqisi2
 165:.\DisplayUtils.c ****             pdispflow->_parentscrid == pdisplay->_pcurrflow->_parentscrid && 
 624              		.loc 1 165 0
 625 003e 9A42     		cmp	r2, r3
 626 0040 03D1     		bne	.L30
 167:.\DisplayUtils.c ****         {
 168:.\DisplayUtils.c ****             pretval = pdispflow->_initializer;
 627              		.loc 1 168 0
 628 0042 3B69     		ldr	r3, [r7, #16]
 629 0044 DB6B     		ldr	r3, [r3, #60]
 630 0046 7B61     		str	r3, [r7, #20]
 169:.\DisplayUtils.c ****             break;
 631              		.loc 1 169 0
 632 0048 06E0     		b	.L31
 633              	.L30:
 170:.\DisplayUtils.c ****         }
 171:.\DisplayUtils.c ****         pdispflow++;
 634              		.loc 1 171 0
 635 004a 3B69     		ldr	r3, [r7, #16]
 636 004c 4433     		adds	r3, r3, #68
 637 004e 3B61     		str	r3, [r7, #16]
 638              	.L29:
 162:.\DisplayUtils.c ****     {
 639              		.loc 1 162 0
 640 0050 3B69     		ldr	r3, [r7, #16]
 641 0052 1B78     		ldrb	r3, [r3]	@ zero_extendqisi2
 642 0054 FF2B     		cmp	r3, #255
 643 0056 DFD1     		bne	.L32
 644              	.L31:
 172:.\DisplayUtils.c ****     }
 173:.\DisplayUtils.c ****     return pretval;
 645              		.loc 1 173 0
 646 0058 7B69     		ldr	r3, [r7, #20]
 174:.\DisplayUtils.c **** }
 647              		.loc 1 174 0
 648 005a 1846     		mov	r0, r3
 649 005c 1C37     		adds	r7, r7, #28
 650              		.cfi_def_cfa_offset 4
 651 005e BD46     		mov	sp, r7
 652              		.cfi_def_cfa_register 13
 653              		@ sp needed
 654 0060 5DF8047B 		ldr	r7, [sp], #4
 655              		.cfi_restore 7
 656              		.cfi_def_cfa_offset 0
 657 0064 7047     		bx	lr
 658              		.cfi_endproc
 659              	.LFE67:
 660              		.size	DisplayInitializer, .-DisplayInitializer
 661 0066 00BF     		.section	.text.DisplayFlowDecorator,"ax",%progbits
 662              		.align	2
 663              		.global	DisplayFlowDecorator
 664              		.thumb
 665              		.thumb_func
 666              		.type	DisplayFlowDecorator, %function
 667              	DisplayFlowDecorator:
ARM GAS  C:\Users\Lenovo\AppData\Local\Temp\ccKs44LO.s 			page 16


 668              	.LFB68:
 175:.\DisplayUtils.c **** 
 176:.\DisplayUtils.c **** //@Created by: HIJH
 177:.\DisplayUtils.c **** //@Date: Septembre de 2016
 178:.\DisplayUtils.c **** //Retrieves the Decorator for the currently selected screen
 179:.\DisplayUtils.c **** FPTRDECORATOR DisplayFlowDecorator(void *pparam)
 180:.\DisplayUtils.c **** {
 669              		.loc 1 180 0
 670              		.cfi_startproc
 671              		@ args = 0, pretend = 0, frame = 24
 672              		@ frame_needed = 1, uses_anonymous_args = 0
 673              		@ link register save eliminated.
 674 0000 80B4     		push	{r7}
 675              		.cfi_def_cfa_offset 4
 676              		.cfi_offset 7, -4
 677 0002 87B0     		sub	sp, sp, #28
 678              		.cfi_def_cfa_offset 32
 679 0004 00AF     		add	r7, sp, #0
 680              		.cfi_def_cfa_register 7
 681 0006 7860     		str	r0, [r7, #4]
 181:.\DisplayUtils.c ****     FPTRDECORATOR pretval = NULL;
 682              		.loc 1 181 0
 683 0008 0023     		movs	r3, #0
 684 000a 7B61     		str	r3, [r7, #20]
 182:.\DisplayUtils.c ****     PDISPLAYLAYOUTPTR pdisplay = (PDISPLAYLAYOUTPTR)pparam;
 685              		.loc 1 182 0
 686 000c 7B68     		ldr	r3, [r7, #4]
 687 000e FB60     		str	r3, [r7, #12]
 183:.\DisplayUtils.c ****     PDISPLAYFLOWPTR pdispflow = pdisplay->_preferenceflow;
 688              		.loc 1 183 0
 689 0010 FB68     		ldr	r3, [r7, #12]
 690 0012 5B69     		ldr	r3, [r3, #20]
 691 0014 3B61     		str	r3, [r7, #16]
 184:.\DisplayUtils.c ****     while(pdispflow->_scrid != DISPLAY_NULL)
 692              		.loc 1 184 0
 693 0016 1BE0     		b	.L35
 694              	.L38:
 185:.\DisplayUtils.c ****     {
 186:.\DisplayUtils.c ****         if(pdispflow->_scrid == pdisplay->_pcurrflow->_scrid && 
 695              		.loc 1 186 0
 696 0018 3B69     		ldr	r3, [r7, #16]
 697 001a 1A78     		ldrb	r2, [r3]	@ zero_extendqisi2
 698 001c FB68     		ldr	r3, [r7, #12]
 699 001e 1B69     		ldr	r3, [r3, #16]
 700 0020 1B78     		ldrb	r3, [r3]	@ zero_extendqisi2
 701 0022 9A42     		cmp	r2, r3
 702 0024 11D1     		bne	.L36
 187:.\DisplayUtils.c ****             pdispflow->_parentscrid == pdisplay->_pcurrflow->_parentscrid && 
 703              		.loc 1 187 0 discriminator 1
 704 0026 3B69     		ldr	r3, [r7, #16]
 705 0028 5A78     		ldrb	r2, [r3, #1]	@ zero_extendqisi2
 706 002a FB68     		ldr	r3, [r7, #12]
 707 002c 1B69     		ldr	r3, [r3, #16]
 708 002e 5B78     		ldrb	r3, [r3, #1]	@ zero_extendqisi2
 186:.\DisplayUtils.c ****             pdispflow->_parentscrid == pdisplay->_pcurrflow->_parentscrid && 
 709              		.loc 1 186 0 discriminator 1
 710 0030 9A42     		cmp	r2, r3
ARM GAS  C:\Users\Lenovo\AppData\Local\Temp\ccKs44LO.s 			page 17


 711 0032 0AD1     		bne	.L36
 188:.\DisplayUtils.c ****             pdispflow->_parentcode == pdisplay->_pcurrflow->_parentcode)
 712              		.loc 1 188 0
 713 0034 3B69     		ldr	r3, [r7, #16]
 714 0036 9A78     		ldrb	r2, [r3, #2]	@ zero_extendqisi2
 715 0038 FB68     		ldr	r3, [r7, #12]
 716 003a 1B69     		ldr	r3, [r3, #16]
 717 003c 9B78     		ldrb	r3, [r3, #2]	@ zero_extendqisi2
 187:.\DisplayUtils.c ****             pdispflow->_parentscrid == pdisplay->_pcurrflow->_parentscrid && 
 718              		.loc 1 187 0
 719 003e 9A42     		cmp	r2, r3
 720 0040 03D1     		bne	.L36
 189:.\DisplayUtils.c ****         {
 190:.\DisplayUtils.c ****             pretval = pdispflow->_decorator;
 721              		.loc 1 190 0
 722 0042 3B69     		ldr	r3, [r7, #16]
 723 0044 1B6A     		ldr	r3, [r3, #32]
 724 0046 7B61     		str	r3, [r7, #20]
 191:.\DisplayUtils.c ****             break;
 725              		.loc 1 191 0
 726 0048 06E0     		b	.L37
 727              	.L36:
 192:.\DisplayUtils.c ****         }
 193:.\DisplayUtils.c ****         pdispflow++;
 728              		.loc 1 193 0
 729 004a 3B69     		ldr	r3, [r7, #16]
 730 004c 4433     		adds	r3, r3, #68
 731 004e 3B61     		str	r3, [r7, #16]
 732              	.L35:
 184:.\DisplayUtils.c ****     {
 733              		.loc 1 184 0
 734 0050 3B69     		ldr	r3, [r7, #16]
 735 0052 1B78     		ldrb	r3, [r3]	@ zero_extendqisi2
 736 0054 FF2B     		cmp	r3, #255
 737 0056 DFD1     		bne	.L38
 738              	.L37:
 194:.\DisplayUtils.c ****     }
 195:.\DisplayUtils.c ****     return pretval;
 739              		.loc 1 195 0
 740 0058 7B69     		ldr	r3, [r7, #20]
 196:.\DisplayUtils.c **** }
 741              		.loc 1 196 0
 742 005a 1846     		mov	r0, r3
 743 005c 1C37     		adds	r7, r7, #28
 744              		.cfi_def_cfa_offset 4
 745 005e BD46     		mov	sp, r7
 746              		.cfi_def_cfa_register 13
 747              		@ sp needed
 748 0060 5DF8047B 		ldr	r7, [sp], #4
 749              		.cfi_restore 7
 750              		.cfi_def_cfa_offset 0
 751 0064 7047     		bx	lr
 752              		.cfi_endproc
 753              	.LFE68:
 754              		.size	DisplayFlowDecorator, .-DisplayFlowDecorator
 755 0066 00BF     		.section	.text.DisplayFinalizer,"ax",%progbits
 756              		.align	2
ARM GAS  C:\Users\Lenovo\AppData\Local\Temp\ccKs44LO.s 			page 18


 757              		.global	DisplayFinalizer
 758              		.thumb
 759              		.thumb_func
 760              		.type	DisplayFinalizer, %function
 761              	DisplayFinalizer:
 762              	.LFB69:
 197:.\DisplayUtils.c **** 
 198:.\DisplayUtils.c **** //@Created by: HIJH
 199:.\DisplayUtils.c **** //@Date: Septembre de 2016
 200:.\DisplayUtils.c **** //Retrieves the Finalizer for the currently selected screen
 201:.\DisplayUtils.c **** FPTRFINALIZER DisplayFinalizer(void *pparam)
 202:.\DisplayUtils.c **** {
 763              		.loc 1 202 0
 764              		.cfi_startproc
 765              		@ args = 0, pretend = 0, frame = 24
 766              		@ frame_needed = 1, uses_anonymous_args = 0
 767              		@ link register save eliminated.
 768 0000 80B4     		push	{r7}
 769              		.cfi_def_cfa_offset 4
 770              		.cfi_offset 7, -4
 771 0002 87B0     		sub	sp, sp, #28
 772              		.cfi_def_cfa_offset 32
 773 0004 00AF     		add	r7, sp, #0
 774              		.cfi_def_cfa_register 7
 775 0006 7860     		str	r0, [r7, #4]
 203:.\DisplayUtils.c ****     FPTRFINALIZER pretval = NULL;
 776              		.loc 1 203 0
 777 0008 0023     		movs	r3, #0
 778 000a 7B61     		str	r3, [r7, #20]
 204:.\DisplayUtils.c ****     PDISPLAYLAYOUTPTR pdisplay = (PDISPLAYLAYOUTPTR)pparam;
 779              		.loc 1 204 0
 780 000c 7B68     		ldr	r3, [r7, #4]
 781 000e FB60     		str	r3, [r7, #12]
 205:.\DisplayUtils.c ****     PDISPLAYFLOWPTR pdispflow = pdisplay->_preferenceflow;
 782              		.loc 1 205 0
 783 0010 FB68     		ldr	r3, [r7, #12]
 784 0012 5B69     		ldr	r3, [r3, #20]
 785 0014 3B61     		str	r3, [r7, #16]
 206:.\DisplayUtils.c ****     while(pdispflow->_scrid != DISPLAY_NULL)
 786              		.loc 1 206 0
 787 0016 1BE0     		b	.L41
 788              	.L44:
 207:.\DisplayUtils.c ****     {
 208:.\DisplayUtils.c ****         if(pdispflow->_scrid == pdisplay->_pcurrflow->_scrid && 
 789              		.loc 1 208 0
 790 0018 3B69     		ldr	r3, [r7, #16]
 791 001a 1A78     		ldrb	r2, [r3]	@ zero_extendqisi2
 792 001c FB68     		ldr	r3, [r7, #12]
 793 001e 1B69     		ldr	r3, [r3, #16]
 794 0020 1B78     		ldrb	r3, [r3]	@ zero_extendqisi2
 795 0022 9A42     		cmp	r2, r3
 796 0024 11D1     		bne	.L42
 209:.\DisplayUtils.c ****             pdispflow->_parentscrid == pdisplay->_pcurrflow->_parentscrid && 
 797              		.loc 1 209 0 discriminator 1
 798 0026 3B69     		ldr	r3, [r7, #16]
 799 0028 5A78     		ldrb	r2, [r3, #1]	@ zero_extendqisi2
 800 002a FB68     		ldr	r3, [r7, #12]
ARM GAS  C:\Users\Lenovo\AppData\Local\Temp\ccKs44LO.s 			page 19


 801 002c 1B69     		ldr	r3, [r3, #16]
 802 002e 5B78     		ldrb	r3, [r3, #1]	@ zero_extendqisi2
 208:.\DisplayUtils.c ****             pdispflow->_parentscrid == pdisplay->_pcurrflow->_parentscrid && 
 803              		.loc 1 208 0 discriminator 1
 804 0030 9A42     		cmp	r2, r3
 805 0032 0AD1     		bne	.L42
 210:.\DisplayUtils.c ****             pdispflow->_parentcode == pdisplay->_pcurrflow->_parentcode)
 806              		.loc 1 210 0
 807 0034 3B69     		ldr	r3, [r7, #16]
 808 0036 9A78     		ldrb	r2, [r3, #2]	@ zero_extendqisi2
 809 0038 FB68     		ldr	r3, [r7, #12]
 810 003a 1B69     		ldr	r3, [r3, #16]
 811 003c 9B78     		ldrb	r3, [r3, #2]	@ zero_extendqisi2
 209:.\DisplayUtils.c ****             pdispflow->_parentscrid == pdisplay->_pcurrflow->_parentscrid && 
 812              		.loc 1 209 0
 813 003e 9A42     		cmp	r2, r3
 814 0040 03D1     		bne	.L42
 211:.\DisplayUtils.c ****         {
 212:.\DisplayUtils.c ****             pretval = pdispflow->_finalizer;
 815              		.loc 1 212 0
 816 0042 3B69     		ldr	r3, [r7, #16]
 817 0044 1B6C     		ldr	r3, [r3, #64]
 818 0046 7B61     		str	r3, [r7, #20]
 213:.\DisplayUtils.c ****             break;
 819              		.loc 1 213 0
 820 0048 06E0     		b	.L43
 821              	.L42:
 214:.\DisplayUtils.c ****         }
 215:.\DisplayUtils.c ****         pdispflow++;
 822              		.loc 1 215 0
 823 004a 3B69     		ldr	r3, [r7, #16]
 824 004c 4433     		adds	r3, r3, #68
 825 004e 3B61     		str	r3, [r7, #16]
 826              	.L41:
 206:.\DisplayUtils.c ****     {
 827              		.loc 1 206 0
 828 0050 3B69     		ldr	r3, [r7, #16]
 829 0052 1B78     		ldrb	r3, [r3]	@ zero_extendqisi2
 830 0054 FF2B     		cmp	r3, #255
 831 0056 DFD1     		bne	.L44
 832              	.L43:
 216:.\DisplayUtils.c ****     }
 217:.\DisplayUtils.c ****     return pretval;
 833              		.loc 1 217 0
 834 0058 7B69     		ldr	r3, [r7, #20]
 218:.\DisplayUtils.c **** }
 835              		.loc 1 218 0
 836 005a 1846     		mov	r0, r3
 837 005c 1C37     		adds	r7, r7, #28
 838              		.cfi_def_cfa_offset 4
 839 005e BD46     		mov	sp, r7
 840              		.cfi_def_cfa_register 13
 841              		@ sp needed
 842 0060 5DF8047B 		ldr	r7, [sp], #4
 843              		.cfi_restore 7
 844              		.cfi_def_cfa_offset 0
 845 0064 7047     		bx	lr
ARM GAS  C:\Users\Lenovo\AppData\Local\Temp\ccKs44LO.s 			page 20


 846              		.cfi_endproc
 847              	.LFE69:
 848              		.size	DisplayFinalizer, .-DisplayFinalizer
 849 0066 00BF     		.section	.rodata
 850 0006 0000     		.align	2
 851              	.LC1:
 852 0008 CC       		.byte	-52
 853 0009 33       		.byte	51
 854 000a C3       		.byte	-61
 855 000b 3C       		.byte	60
 856              		.section	.text.ParseDisplayStream,"ax",%progbits
 857              		.align	2
 858              		.global	ParseDisplayStream
 859              		.thumb
 860              		.thumb_func
 861              		.type	ParseDisplayStream, %function
 862              	ParseDisplayStream:
 863              	.LFB70:
 219:.\DisplayUtils.c **** 
 220:.\DisplayUtils.c **** char8 ParseDisplayStream(char* pbuffer, uint8 buffersize)
 221:.\DisplayUtils.c **** {
 864              		.loc 1 221 0
 865              		.cfi_startproc
 866              		@ args = 0, pretend = 0, frame = 16
 867              		@ frame_needed = 1, uses_anonymous_args = 0
 868              		@ link register save eliminated.
 869 0000 80B4     		push	{r7}
 870              		.cfi_def_cfa_offset 4
 871              		.cfi_offset 7, -4
 872 0002 85B0     		sub	sp, sp, #20
 873              		.cfi_def_cfa_offset 24
 874 0004 00AF     		add	r7, sp, #0
 875              		.cfi_def_cfa_register 7
 876 0006 7860     		str	r0, [r7, #4]
 877 0008 0B46     		mov	r3, r1
 878 000a FB70     		strb	r3, [r7, #3]
 222:.\DisplayUtils.c ****     char8 retval = 0x00;
 879              		.loc 1 222 0
 880 000c 0023     		movs	r3, #0
 881 000e FB73     		strb	r3, [r7, #15]
 223:.\DisplayUtils.c ****     char8 pdelimiter[] = { 0xCC, 0x33, 0xC3, 0x3C };
 882              		.loc 1 223 0
 883 0010 254A     		ldr	r2, .L49
 884 0012 07F10803 		add	r3, r7, #8
 885 0016 1068     		ldr	r0, [r2]	@ unaligned
 886 0018 1860     		str	r0, [r3]	@ unaligned
 224:.\DisplayUtils.c ****     uint16 delimitersize = sizeof(pdelimiter);
 887              		.loc 1 224 0
 888 001a 0423     		movs	r3, #4
 889 001c BB81     		strh	r3, [r7, #12]	@ movhi
 225:.\DisplayUtils.c ****     
 226:.\DisplayUtils.c ****     if((pbuffer[buffersize - 1] == pdelimiter[delimitersize - 1]) && 
 890              		.loc 1 226 0
 891 001e FB78     		ldrb	r3, [r7, #3]	@ zero_extendqisi2
 892 0020 013B     		subs	r3, r3, #1
 893 0022 7A68     		ldr	r2, [r7, #4]
 894 0024 1344     		add	r3, r3, r2
ARM GAS  C:\Users\Lenovo\AppData\Local\Temp\ccKs44LO.s 			page 21


 895 0026 1A78     		ldrb	r2, [r3]	@ zero_extendqisi2
 896 0028 BB89     		ldrh	r3, [r7, #12]
 897 002a 013B     		subs	r3, r3, #1
 898 002c 07F11001 		add	r1, r7, #16
 899 0030 0B44     		add	r3, r3, r1
 900 0032 13F8083C 		ldrb	r3, [r3, #-8]	@ zero_extendqisi2
 901 0036 9A42     		cmp	r2, r3
 902 0038 2FD1     		bne	.L47
 227:.\DisplayUtils.c ****         (pbuffer[buffersize - 2] == pdelimiter[delimitersize - 2]) &&
 903              		.loc 1 227 0 discriminator 1
 904 003a FB78     		ldrb	r3, [r7, #3]	@ zero_extendqisi2
 905 003c 023B     		subs	r3, r3, #2
 906 003e 7A68     		ldr	r2, [r7, #4]
 907 0040 1344     		add	r3, r3, r2
 908 0042 1A78     		ldrb	r2, [r3]	@ zero_extendqisi2
 909 0044 BB89     		ldrh	r3, [r7, #12]
 910 0046 023B     		subs	r3, r3, #2
 911 0048 07F11001 		add	r1, r7, #16
 912 004c 0B44     		add	r3, r3, r1
 913 004e 13F8083C 		ldrb	r3, [r3, #-8]	@ zero_extendqisi2
 226:.\DisplayUtils.c ****         (pbuffer[buffersize - 2] == pdelimiter[delimitersize - 2]) &&
 914              		.loc 1 226 0 discriminator 1
 915 0052 9A42     		cmp	r2, r3
 916 0054 21D1     		bne	.L47
 228:.\DisplayUtils.c ****         (pbuffer[buffersize - 3] == pdelimiter[delimitersize - 3]) && 
 917              		.loc 1 228 0
 918 0056 FB78     		ldrb	r3, [r7, #3]	@ zero_extendqisi2
 919 0058 033B     		subs	r3, r3, #3
 920 005a 7A68     		ldr	r2, [r7, #4]
 921 005c 1344     		add	r3, r3, r2
 922 005e 1A78     		ldrb	r2, [r3]	@ zero_extendqisi2
 923 0060 BB89     		ldrh	r3, [r7, #12]
 924 0062 033B     		subs	r3, r3, #3
 925 0064 07F11001 		add	r1, r7, #16
 926 0068 0B44     		add	r3, r3, r1
 927 006a 13F8083C 		ldrb	r3, [r3, #-8]	@ zero_extendqisi2
 227:.\DisplayUtils.c ****         (pbuffer[buffersize - 2] == pdelimiter[delimitersize - 2]) &&
 928              		.loc 1 227 0
 929 006e 9A42     		cmp	r2, r3
 930 0070 13D1     		bne	.L47
 229:.\DisplayUtils.c ****         (pbuffer[buffersize - 4] == pdelimiter[delimitersize - 4]))
 931              		.loc 1 229 0
 932 0072 FB78     		ldrb	r3, [r7, #3]	@ zero_extendqisi2
 933 0074 043B     		subs	r3, r3, #4
 934 0076 7A68     		ldr	r2, [r7, #4]
 935 0078 1344     		add	r3, r3, r2
 936 007a 1A78     		ldrb	r2, [r3]	@ zero_extendqisi2
 937 007c BB89     		ldrh	r3, [r7, #12]
 938 007e 043B     		subs	r3, r3, #4
 939 0080 07F11001 		add	r1, r7, #16
 940 0084 0B44     		add	r3, r3, r1
 941 0086 13F8083C 		ldrb	r3, [r3, #-8]	@ zero_extendqisi2
 228:.\DisplayUtils.c ****         (pbuffer[buffersize - 3] == pdelimiter[delimitersize - 3]) && 
 942              		.loc 1 228 0
 943 008a 9A42     		cmp	r2, r3
 944 008c 05D1     		bne	.L47
 230:.\DisplayUtils.c ****         retval = pbuffer[buffersize - 5];
ARM GAS  C:\Users\Lenovo\AppData\Local\Temp\ccKs44LO.s 			page 22


 945              		.loc 1 230 0
 946 008e FB78     		ldrb	r3, [r7, #3]	@ zero_extendqisi2
 947 0090 053B     		subs	r3, r3, #5
 948 0092 7A68     		ldr	r2, [r7, #4]
 949 0094 1344     		add	r3, r3, r2
 950 0096 1B78     		ldrb	r3, [r3]
 951 0098 FB73     		strb	r3, [r7, #15]
 952              	.L47:
 231:.\DisplayUtils.c ****     
 232:.\DisplayUtils.c ****     return retval;
 953              		.loc 1 232 0
 954 009a FB7B     		ldrb	r3, [r7, #15]	@ zero_extendqisi2
 233:.\DisplayUtils.c **** }
 955              		.loc 1 233 0
 956 009c 1846     		mov	r0, r3
 957 009e 1437     		adds	r7, r7, #20
 958              		.cfi_def_cfa_offset 4
 959 00a0 BD46     		mov	sp, r7
 960              		.cfi_def_cfa_register 13
 961              		@ sp needed
 962 00a2 5DF8047B 		ldr	r7, [sp], #4
 963              		.cfi_restore 7
 964              		.cfi_def_cfa_offset 0
 965 00a6 7047     		bx	lr
 966              	.L50:
 967              		.align	2
 968              	.L49:
 969 00a8 08000000 		.word	.LC1
 970              		.cfi_endproc
 971              	.LFE70:
 972              		.size	ParseDisplayStream, .-ParseDisplayStream
 973              		.section	.text.GetDisplayFlowNode,"ax",%progbits
 974              		.align	2
 975              		.global	GetDisplayFlowNode
 976              		.thumb
 977              		.thumb_func
 978              		.type	GetDisplayFlowNode, %function
 979              	GetDisplayFlowNode:
 980              	.LFB71:
 234:.\DisplayUtils.c **** 
 235:.\DisplayUtils.c **** //@Created by: HIJH
 236:.\DisplayUtils.c **** //@Date: Septembre de 2016
 237:.\DisplayUtils.c **** //Retrieves the selected DisplayFlow node from the DisplayFlow Matrix matching the correct parent
 238:.\DisplayUtils.c **** DisplayFlow *GetDisplayFlowNode(void *pparam)
 239:.\DisplayUtils.c **** {
 981              		.loc 1 239 0
 982              		.cfi_startproc
 983              		@ args = 0, pretend = 0, frame = 24
 984              		@ frame_needed = 1, uses_anonymous_args = 0
 985              		@ link register save eliminated.
 986 0000 80B4     		push	{r7}
 987              		.cfi_def_cfa_offset 4
 988              		.cfi_offset 7, -4
 989 0002 87B0     		sub	sp, sp, #28
 990              		.cfi_def_cfa_offset 32
 991 0004 00AF     		add	r7, sp, #0
 992              		.cfi_def_cfa_register 7
ARM GAS  C:\Users\Lenovo\AppData\Local\Temp\ccKs44LO.s 			page 23


 993 0006 7860     		str	r0, [r7, #4]
 240:.\DisplayUtils.c ****     PDISPLAYFLOWPTR retval = NULL;
 994              		.loc 1 240 0
 995 0008 0023     		movs	r3, #0
 996 000a 7B61     		str	r3, [r7, #20]
 241:.\DisplayUtils.c ****     PDISPLAYLAYOUTPTR pdisplay = (PDISPLAYLAYOUTPTR)pparam;
 997              		.loc 1 241 0
 998 000c 7B68     		ldr	r3, [r7, #4]
 999 000e FB60     		str	r3, [r7, #12]
 242:.\DisplayUtils.c ****     PDISPLAYFLOWPTR pdispflow = pdisplay->_preferenceflow;
 1000              		.loc 1 242 0
 1001 0010 FB68     		ldr	r3, [r7, #12]
 1002 0012 5B69     		ldr	r3, [r3, #20]
 1003 0014 3B61     		str	r3, [r7, #16]
 243:.\DisplayUtils.c ****     
 244:.\DisplayUtils.c ****     uint8 scrid = (pdisplay->_nextscrid == 0xFF)?  ((pdisplay->_statechangescrid == 0xFF)? pdisplay
 1004              		.loc 1 244 0
 1005 0016 FB68     		ldr	r3, [r7, #12]
 1006 0018 9B78     		ldrb	r3, [r3, #2]	@ zero_extendqisi2
 1007 001a FF2B     		cmp	r3, #255
 1008 001c 09D1     		bne	.L52
 1009              		.loc 1 244 0 is_stmt 0 discriminator 1
 1010 001e FB68     		ldr	r3, [r7, #12]
 1011 0020 5B79     		ldrb	r3, [r3, #5]	@ zero_extendqisi2
 1012 0022 FF2B     		cmp	r3, #255
 1013 0024 02D1     		bne	.L53
 1014              		.loc 1 244 0 discriminator 3
 1015 0026 FB68     		ldr	r3, [r7, #12]
 1016 0028 9B7A     		ldrb	r3, [r3, #10]	@ zero_extendqisi2
 1017 002a 04E0     		b	.L55
 1018              	.L53:
 1019              		.loc 1 244 0 discriminator 4
 1020 002c FB68     		ldr	r3, [r7, #12]
 1021 002e 5B79     		ldrb	r3, [r3, #5]	@ zero_extendqisi2
 1022 0030 01E0     		b	.L55
 1023              	.L52:
 1024              		.loc 1 244 0 discriminator 2
 1025 0032 FB68     		ldr	r3, [r7, #12]
 1026 0034 9B78     		ldrb	r3, [r3, #2]	@ zero_extendqisi2
 1027              	.L55:
 1028              		.loc 1 244 0 discriminator 8
 1029 0036 FB72     		strb	r3, [r7, #11]
 245:.\DisplayUtils.c ****     uint8 parcode = pdisplay->_currscrcode;
 1030              		.loc 1 245 0 is_stmt 1 discriminator 8
 1031 0038 FB68     		ldr	r3, [r7, #12]
 1032 003a DB78     		ldrb	r3, [r3, #3]
 1033 003c BB72     		strb	r3, [r7, #10]
 246:.\DisplayUtils.c ****     uint8 parscrid = pdisplay->_pcurrflow->_scrid;
 1034              		.loc 1 246 0 discriminator 8
 1035 003e FB68     		ldr	r3, [r7, #12]
 1036 0040 1B69     		ldr	r3, [r3, #16]
 1037 0042 1B78     		ldrb	r3, [r3]
 1038 0044 7B72     		strb	r3, [r7, #9]
 247:.\DisplayUtils.c ****     
 248:.\DisplayUtils.c ****     while(pdispflow->_scrid != DISPLAY_NULL)
 1039              		.loc 1 248 0 discriminator 8
 1040 0046 20E0     		b	.L56
ARM GAS  C:\Users\Lenovo\AppData\Local\Temp\ccKs44LO.s 			page 24


 1041              	.L61:
 249:.\DisplayUtils.c ****     {
 250:.\DisplayUtils.c ****         //Retrieves the requested screen by matching the parent. If the screen has no parent define
 251:.\DisplayUtils.c ****         //means that the requested screen must be the root screen or has no parent rule applied
 252:.\DisplayUtils.c ****         if((scrid == pdispflow->_scrid) && 
 1042              		.loc 1 252 0
 1043 0048 3B69     		ldr	r3, [r7, #16]
 1044 004a 1B78     		ldrb	r3, [r3]	@ zero_extendqisi2
 1045 004c FA7A     		ldrb	r2, [r7, #11]	@ zero_extendqisi2
 1046 004e 9A42     		cmp	r2, r3
 1047 0050 18D1     		bne	.L57
 253:.\DisplayUtils.c ****             ((parscrid == pdispflow->_parentscrid) || (0xFF == pdispflow->_parentscrid)) && 
 1048              		.loc 1 253 0 discriminator 1
 1049 0052 3B69     		ldr	r3, [r7, #16]
 1050 0054 5B78     		ldrb	r3, [r3, #1]	@ zero_extendqisi2
 252:.\DisplayUtils.c ****             ((parscrid == pdispflow->_parentscrid) || (0xFF == pdispflow->_parentscrid)) && 
 1051              		.loc 1 252 0 discriminator 1
 1052 0056 7A7A     		ldrb	r2, [r7, #9]	@ zero_extendqisi2
 1053 0058 9A42     		cmp	r2, r3
 1054 005a 03D0     		beq	.L58
 1055              		.loc 1 253 0
 1056 005c 3B69     		ldr	r3, [r7, #16]
 1057 005e 5B78     		ldrb	r3, [r3, #1]	@ zero_extendqisi2
 1058 0060 FF2B     		cmp	r3, #255
 1059 0062 0FD1     		bne	.L57
 1060              	.L58:
 254:.\DisplayUtils.c ****             ((parcode == pdispflow->_parentcode) || (0xFF == pdispflow->_parentcode) || (0xFF == pd
 1061              		.loc 1 254 0 discriminator 1
 1062 0064 3B69     		ldr	r3, [r7, #16]
 1063 0066 9B78     		ldrb	r3, [r3, #2]	@ zero_extendqisi2
 253:.\DisplayUtils.c ****             ((parscrid == pdispflow->_parentscrid) || (0xFF == pdispflow->_parentscrid)) && 
 1064              		.loc 1 253 0 discriminator 1
 1065 0068 BA7A     		ldrb	r2, [r7, #10]	@ zero_extendqisi2
 1066 006a 9A42     		cmp	r2, r3
 1067 006c 07D0     		beq	.L59
 1068              		.loc 1 254 0
 1069 006e 3B69     		ldr	r3, [r7, #16]
 1070 0070 9B78     		ldrb	r3, [r3, #2]	@ zero_extendqisi2
 1071 0072 FF2B     		cmp	r3, #255
 1072 0074 03D0     		beq	.L59
 1073              		.loc 1 254 0 is_stmt 0 discriminator 1
 1074 0076 3B69     		ldr	r3, [r7, #16]
 1075 0078 5B78     		ldrb	r3, [r3, #1]	@ zero_extendqisi2
 1076 007a FF2B     		cmp	r3, #255
 1077 007c 02D1     		bne	.L57
 1078              	.L59:
 255:.\DisplayUtils.c ****         {
 256:.\DisplayUtils.c ****             retval = pdispflow;
 1079              		.loc 1 256 0 is_stmt 1
 1080 007e 3B69     		ldr	r3, [r7, #16]
 1081 0080 7B61     		str	r3, [r7, #20]
 257:.\DisplayUtils.c ****             break;
 1082              		.loc 1 257 0
 1083 0082 06E0     		b	.L60
 1084              	.L57:
 258:.\DisplayUtils.c ****         }
 259:.\DisplayUtils.c ****         pdispflow++;
ARM GAS  C:\Users\Lenovo\AppData\Local\Temp\ccKs44LO.s 			page 25


 1085              		.loc 1 259 0
 1086 0084 3B69     		ldr	r3, [r7, #16]
 1087 0086 4433     		adds	r3, r3, #68
 1088 0088 3B61     		str	r3, [r7, #16]
 1089              	.L56:
 248:.\DisplayUtils.c ****     {
 1090              		.loc 1 248 0
 1091 008a 3B69     		ldr	r3, [r7, #16]
 1092 008c 1B78     		ldrb	r3, [r3]	@ zero_extendqisi2
 1093 008e FF2B     		cmp	r3, #255
 1094 0090 DAD1     		bne	.L61
 1095              	.L60:
 260:.\DisplayUtils.c ****     }
 261:.\DisplayUtils.c ****     return retval;
 1096              		.loc 1 261 0
 1097 0092 7B69     		ldr	r3, [r7, #20]
 262:.\DisplayUtils.c **** }
 1098              		.loc 1 262 0
 1099 0094 1846     		mov	r0, r3
 1100 0096 1C37     		adds	r7, r7, #28
 1101              		.cfi_def_cfa_offset 4
 1102 0098 BD46     		mov	sp, r7
 1103              		.cfi_def_cfa_register 13
 1104              		@ sp needed
 1105 009a 5DF8047B 		ldr	r7, [sp], #4
 1106              		.cfi_restore 7
 1107              		.cfi_def_cfa_offset 0
 1108 009e 7047     		bx	lr
 1109              		.cfi_endproc
 1110              	.LFE71:
 1111              		.size	GetDisplayFlowNode, .-GetDisplayFlowNode
 1112              		.section	.text.PrepareDisplayStructure,"ax",%progbits
 1113              		.align	2
 1114              		.global	PrepareDisplayStructure
 1115              		.thumb
 1116              		.thumb_func
 1117              		.type	PrepareDisplayStructure, %function
 1118              	PrepareDisplayStructure:
 1119              	.LFB72:
 263:.\DisplayUtils.c **** 
 264:.\DisplayUtils.c **** //@Created by: HIJH
 265:.\DisplayUtils.c **** //@Date: Septembre de 2016
 266:.\DisplayUtils.c **** //Further cleanup before initiation the display flow
 267:.\DisplayUtils.c **** void PrepareDisplayStructure(void *pparam)
 268:.\DisplayUtils.c **** {
 1120              		.loc 1 268 0
 1121              		.cfi_startproc
 1122              		@ args = 0, pretend = 0, frame = 16
 1123              		@ frame_needed = 1, uses_anonymous_args = 0
 1124 0000 80B5     		push	{r7, lr}
 1125              		.cfi_def_cfa_offset 8
 1126              		.cfi_offset 7, -8
 1127              		.cfi_offset 14, -4
 1128 0002 84B0     		sub	sp, sp, #16
 1129              		.cfi_def_cfa_offset 24
 1130 0004 00AF     		add	r7, sp, #0
 1131              		.cfi_def_cfa_register 7
ARM GAS  C:\Users\Lenovo\AppData\Local\Temp\ccKs44LO.s 			page 26


 1132 0006 7860     		str	r0, [r7, #4]
 269:.\DisplayUtils.c ****     PDISPLAYLAYOUTPTR pdisplay = (PDISPLAYLAYOUTPTR)pparam;
 1133              		.loc 1 269 0
 1134 0008 7B68     		ldr	r3, [r7, #4]
 1135 000a FB60     		str	r3, [r7, #12]
 270:.\DisplayUtils.c ****     
 271:.\DisplayUtils.c ****     pdisplay->_pcurrflow = GetDisplayFlowNode(pdisplay);
 1136              		.loc 1 271 0
 1137 000c F868     		ldr	r0, [r7, #12]
 1138 000e FFF7FEFF 		bl	GetDisplayFlowNode
 1139 0012 0246     		mov	r2, r0
 1140 0014 FB68     		ldr	r3, [r7, #12]
 1141 0016 1A61     		str	r2, [r3, #16]
 272:.\DisplayUtils.c ****     pdisplay->_nextscrid = DISPLAY_NULL;
 1142              		.loc 1 272 0
 1143 0018 FB68     		ldr	r3, [r7, #12]
 1144 001a FF22     		movs	r2, #255
 1145 001c 9A70     		strb	r2, [r3, #2]
 273:.\DisplayUtils.c ****     pdisplay->_statechangescrid  = DISPLAY_NULL;
 1146              		.loc 1 273 0
 1147 001e FB68     		ldr	r3, [r7, #12]
 1148 0020 FF22     		movs	r2, #255
 1149 0022 5A71     		strb	r2, [r3, #5]
 274:.\DisplayUtils.c ****     pdisplay->_currentstate  = 0x00;
 1150              		.loc 1 274 0
 1151 0024 FB68     		ldr	r3, [r7, #12]
 1152 0026 0022     		movs	r2, #0
 1153 0028 1A71     		strb	r2, [r3, #4]
 275:.\DisplayUtils.c ****     pdisplay->_timeoutscrid = DISPLAY_NULL;
 1154              		.loc 1 275 0
 1155 002a FB68     		ldr	r3, [r7, #12]
 1156 002c FF22     		movs	r2, #255
 1157 002e 9A72     		strb	r2, [r3, #10]
 276:.\DisplayUtils.c ****     pdisplay->_currscrcode = 0x00;
 1158              		.loc 1 276 0
 1159 0030 FB68     		ldr	r3, [r7, #12]
 1160 0032 0022     		movs	r2, #0
 1161 0034 DA70     		strb	r2, [r3, #3]
 277:.\DisplayUtils.c ****     pdisplay->_timeoutmultiplier = 0;
 1162              		.loc 1 277 0
 1163 0036 FB68     		ldr	r3, [r7, #12]
 1164 0038 0022     		movs	r2, #0
 1165 003a 1A81     		strh	r2, [r3, #8]	@ movhi
 278:.\DisplayUtils.c ****     memset(pdisplay->_bufferinfo._buffer, 0x00, _DISPLAY_BUFFER_SIZE_);
 1166              		.loc 1 278 0
 1167 003c FB68     		ldr	r3, [r7, #12]
 1168 003e 1D33     		adds	r3, r3, #29
 1169 0040 1846     		mov	r0, r3
 1170 0042 0021     		movs	r1, #0
 1171 0044 1022     		movs	r2, #16
 1172 0046 FFF7FEFF 		bl	memset
 279:.\DisplayUtils.c ****     //This setting only applies if the DisplayFlow item has been defined to timeout
 280:.\DisplayUtils.c ****     pdisplay->_timeoutreftick = Timer_Tick_ReadCounter();
 1173              		.loc 1 280 0
 1174 004a FFF7FEFF 		bl	Timer_Tick_ReadCounter
 1175 004e 0346     		mov	r3, r0
 1176 0050 1A46     		mov	r2, r3
ARM GAS  C:\Users\Lenovo\AppData\Local\Temp\ccKs44LO.s 			page 27


 1177 0052 FB68     		ldr	r3, [r7, #12]
 1178 0054 DA80     		strh	r2, [r3, #6]	@ movhi
 281:.\DisplayUtils.c ****     pdisplay->_bufferinfo._bufferindex = 0;
 1179              		.loc 1 281 0
 1180 0056 FB68     		ldr	r3, [r7, #12]
 1181 0058 0022     		movs	r2, #0
 1182 005a 1A77     		strb	r2, [r3, #28]
 282:.\DisplayUtils.c ****     memset(pdisplay->_bufferinfo._buffer, 0x00, _DISPLAY_BUFFER_SIZE_);
 1183              		.loc 1 282 0
 1184 005c FB68     		ldr	r3, [r7, #12]
 1185 005e 1D33     		adds	r3, r3, #29
 1186 0060 1846     		mov	r0, r3
 1187 0062 0021     		movs	r1, #0
 1188 0064 1022     		movs	r2, #16
 1189 0066 FFF7FEFF 		bl	memset
 283:.\DisplayUtils.c **** 
 284:.\DisplayUtils.c **** }
 1190              		.loc 1 284 0
 1191 006a 1037     		adds	r7, r7, #16
 1192              		.cfi_def_cfa_offset 8
 1193 006c BD46     		mov	sp, r7
 1194              		.cfi_def_cfa_register 13
 1195              		@ sp needed
 1196 006e 80BD     		pop	{r7, pc}
 1197              		.cfi_endproc
 1198              	.LFE72:
 1199              		.size	PrepareDisplayStructure, .-PrepareDisplayStructure
 1200              		.section	.text.NonEmptyDataValidator,"ax",%progbits
 1201              		.align	2
 1202              		.global	NonEmptyDataValidator
 1203              		.thumb
 1204              		.thumb_func
 1205              		.type	NonEmptyDataValidator, %function
 1206              	NonEmptyDataValidator:
 1207              	.LFB73:
 285:.\DisplayUtils.c **** 
 286:.\DisplayUtils.c **** //@Created by: HIJH
 287:.\DisplayUtils.c **** //@Date: Septembre de 2016
 288:.\DisplayUtils.c **** //This method validates that the capture buffer for the current display
 289:.\DisplayUtils.c **** //has received the required information and is not empty
 290:.\DisplayUtils.c **** bool NonEmptyDataValidator(void *pparam)
 291:.\DisplayUtils.c **** {
 1208              		.loc 1 291 0
 1209              		.cfi_startproc
 1210              		@ args = 0, pretend = 0, frame = 16
 1211              		@ frame_needed = 1, uses_anonymous_args = 0
 1212              		@ link register save eliminated.
 1213 0000 80B4     		push	{r7}
 1214              		.cfi_def_cfa_offset 4
 1215              		.cfi_offset 7, -4
 1216 0002 85B0     		sub	sp, sp, #20
 1217              		.cfi_def_cfa_offset 24
 1218 0004 00AF     		add	r7, sp, #0
 1219              		.cfi_def_cfa_register 7
 1220 0006 7860     		str	r0, [r7, #4]
 292:.\DisplayUtils.c ****     bool retval = false;
 1221              		.loc 1 292 0
ARM GAS  C:\Users\Lenovo\AppData\Local\Temp\ccKs44LO.s 			page 28


 1222 0008 0023     		movs	r3, #0
 1223 000a FB73     		strb	r3, [r7, #15]
 293:.\DisplayUtils.c ****     DisplayLayout *pdisplay = (DisplayLayout*)pparam;
 1224              		.loc 1 293 0
 1225 000c 7B68     		ldr	r3, [r7, #4]
 1226 000e BB60     		str	r3, [r7, #8]
 294:.\DisplayUtils.c ****     if(pdisplay->_bufferinfo._bufferindex > 0)
 1227              		.loc 1 294 0
 1228 0010 BB68     		ldr	r3, [r7, #8]
 1229 0012 1B7F     		ldrb	r3, [r3, #28]	@ zero_extendqisi2
 1230 0014 002B     		cmp	r3, #0
 1231 0016 01D0     		beq	.L65
 295:.\DisplayUtils.c ****         retval = true;
 1232              		.loc 1 295 0
 1233 0018 0123     		movs	r3, #1
 1234 001a FB73     		strb	r3, [r7, #15]
 1235              	.L65:
 296:.\DisplayUtils.c ****     
 297:.\DisplayUtils.c ****     return retval;
 1236              		.loc 1 297 0
 1237 001c FB7B     		ldrb	r3, [r7, #15]	@ zero_extendqisi2
 298:.\DisplayUtils.c **** }
 1238              		.loc 1 298 0
 1239 001e 1846     		mov	r0, r3
 1240 0020 1437     		adds	r7, r7, #20
 1241              		.cfi_def_cfa_offset 4
 1242 0022 BD46     		mov	sp, r7
 1243              		.cfi_def_cfa_register 13
 1244              		@ sp needed
 1245 0024 5DF8047B 		ldr	r7, [sp], #4
 1246              		.cfi_restore 7
 1247              		.cfi_def_cfa_offset 0
 1248 0028 7047     		bx	lr
 1249              		.cfi_endproc
 1250              	.LFE73:
 1251              		.size	NonEmptyDataValidator, .-NonEmptyDataValidator
 1252 002a 00BF     		.section	.text.SecureConfigurationValidator,"ax",%progbits
 1253              		.align	2
 1254              		.global	SecureConfigurationValidator
 1255              		.thumb
 1256              		.thumb_func
 1257              		.type	SecureConfigurationValidator, %function
 1258              	SecureConfigurationValidator:
 1259              	.LFB74:
 299:.\DisplayUtils.c **** 
 300:.\DisplayUtils.c **** //@Created by: HIJH
 301:.\DisplayUtils.c **** //@Date: Septembre de 2016
 302:.\DisplayUtils.c **** //This method validates that the capture buffer for the current display
 303:.\DisplayUtils.c **** //has received the required information and is not empty
 304:.\DisplayUtils.c **** bool SecureConfigurationValidator(void *pparam)
 305:.\DisplayUtils.c **** {
 1260              		.loc 1 305 0
 1261              		.cfi_startproc
 1262              		@ args = 0, pretend = 0, frame = 16
 1263              		@ frame_needed = 1, uses_anonymous_args = 0
 1264 0000 90B5     		push	{r4, r7, lr}
 1265              		.cfi_def_cfa_offset 12
ARM GAS  C:\Users\Lenovo\AppData\Local\Temp\ccKs44LO.s 			page 29


 1266              		.cfi_offset 4, -12
 1267              		.cfi_offset 7, -8
 1268              		.cfi_offset 14, -4
 1269 0002 85B0     		sub	sp, sp, #20
 1270              		.cfi_def_cfa_offset 32
 1271 0004 00AF     		add	r7, sp, #0
 1272              		.cfi_def_cfa_register 7
 1273 0006 7860     		str	r0, [r7, #4]
 306:.\DisplayUtils.c ****     bool retval = false;
 1274              		.loc 1 306 0
 1275 0008 0023     		movs	r3, #0
 1276 000a FB73     		strb	r3, [r7, #15]
 307:.\DisplayUtils.c ****     DisplayLayout *pdisplay = (DisplayLayout*)pparam;
 1277              		.loc 1 307 0
 1278 000c 7B68     		ldr	r3, [r7, #4]
 1279 000e BB60     		str	r3, [r7, #8]
 308:.\DisplayUtils.c ****     if(pdisplay->_bufferinfo._bufferindex > 0)
 1280              		.loc 1 308 0
 1281 0010 BB68     		ldr	r3, [r7, #8]
 1282 0012 1B7F     		ldrb	r3, [r3, #28]	@ zero_extendqisi2
 1283 0014 002B     		cmp	r3, #0
 1284 0016 28D0     		beq	.L68
 309:.\DisplayUtils.c ****     {
 310:.\DisplayUtils.c ****         retval = true;
 1285              		.loc 1 310 0
 1286 0018 0123     		movs	r3, #1
 1287 001a FB73     		strb	r3, [r7, #15]
 311:.\DisplayUtils.c ****         
 312:.\DisplayUtils.c ****         ClearEepromBuffer();
 1288              		.loc 1 312 0
 1289 001c FFF7FEFF 		bl	ClearEepromBuffer
 313:.\DisplayUtils.c ****         LoadEepromPage(EEPROM_CONFIGURATION_PAGE7);
 1290              		.loc 1 313 0
 1291 0020 4FF4E070 		mov	r0, #448
 1292 0024 FFF7FEFF 		bl	LoadEepromPage
 314:.\DisplayUtils.c ****         //This EEPROM's page location is used to store the four digit ASCII password
 315:.\DisplayUtils.c ****         if(!strncmp(pdisplay->_bufferinfo._buffer, (char8*)&GetEepromBuffer()[0x0D], 0x04))
 1293              		.loc 1 315 0
 1294 0028 BB68     		ldr	r3, [r7, #8]
 1295 002a 03F11D04 		add	r4, r3, #29
 1296 002e FFF7FEFF 		bl	GetEepromBuffer
 1297 0032 0346     		mov	r3, r0
 1298 0034 0D33     		adds	r3, r3, #13
 1299 0036 2046     		mov	r0, r4
 1300 0038 1946     		mov	r1, r3
 1301 003a 0422     		movs	r2, #4
 1302 003c FFF7FEFF 		bl	strncmp
 1303 0040 0346     		mov	r3, r0
 1304 0042 002B     		cmp	r3, #0
 1305 0044 11D1     		bne	.L68
 316:.\DisplayUtils.c ****         {
 317:.\DisplayUtils.c ****             if(pdisplay->_bufferinfo._buffer[0x04] == 0x2C)
 1306              		.loc 1 317 0
 1307 0046 BB68     		ldr	r3, [r7, #8]
 1308 0048 93F82130 		ldrb	r3, [r3, #33]	@ zero_extendqisi2
 1309 004c 2C2B     		cmp	r3, #44
 1310 004e 06D1     		bne	.L69
ARM GAS  C:\Users\Lenovo\AppData\Local\Temp\ccKs44LO.s 			page 30


 318:.\DisplayUtils.c ****             {
 319:.\DisplayUtils.c ****                 pdisplay->_currscrcode = 0x1E;
 1311              		.loc 1 319 0
 1312 0050 BB68     		ldr	r3, [r7, #8]
 1313 0052 1E22     		movs	r2, #30
 1314 0054 DA70     		strb	r2, [r3, #3]
 320:.\DisplayUtils.c ****                 pdisplay->_nextscrid = DISPLAY_NUEVO_PASSWORD;
 1315              		.loc 1 320 0
 1316 0056 BB68     		ldr	r3, [r7, #8]
 1317 0058 2F22     		movs	r2, #47
 1318 005a 9A70     		strb	r2, [r3, #2]
 1319 005c 05E0     		b	.L68
 1320              	.L69:
 321:.\DisplayUtils.c ****             }
 322:.\DisplayUtils.c ****             else
 323:.\DisplayUtils.c ****             {
 324:.\DisplayUtils.c ****                 pdisplay->_currscrcode = 0x1D;
 1321              		.loc 1 324 0
 1322 005e BB68     		ldr	r3, [r7, #8]
 1323 0060 1D22     		movs	r2, #29
 1324 0062 DA70     		strb	r2, [r3, #3]
 325:.\DisplayUtils.c ****                 pdisplay->_nextscrid = DISPLAY_PASSWORD_VALIDO;
 1325              		.loc 1 325 0
 1326 0064 BB68     		ldr	r3, [r7, #8]
 1327 0066 2622     		movs	r2, #38
 1328 0068 9A70     		strb	r2, [r3, #2]
 1329              	.L68:
 326:.\DisplayUtils.c ****             }
 327:.\DisplayUtils.c ****         }
 328:.\DisplayUtils.c ****     }
 329:.\DisplayUtils.c ****     
 330:.\DisplayUtils.c ****     return retval;
 1330              		.loc 1 330 0
 1331 006a FB7B     		ldrb	r3, [r7, #15]	@ zero_extendqisi2
 331:.\DisplayUtils.c **** }
 1332              		.loc 1 331 0
 1333 006c 1846     		mov	r0, r3
 1334 006e 1437     		adds	r7, r7, #20
 1335              		.cfi_def_cfa_offset 12
 1336 0070 BD46     		mov	sp, r7
 1337              		.cfi_def_cfa_register 13
 1338              		@ sp needed
 1339 0072 90BD     		pop	{r4, r7, pc}
 1340              		.cfi_endproc
 1341              	.LFE74:
 1342              		.size	SecureConfigurationValidator, .-SecureConfigurationValidator
 1343              		.section	.text.SaveNewPassword,"ax",%progbits
 1344              		.align	2
 1345              		.global	SaveNewPassword
 1346              		.thumb
 1347              		.thumb_func
 1348              		.type	SaveNewPassword, %function
 1349              	SaveNewPassword:
 1350              	.LFB75:
 332:.\DisplayUtils.c **** 
 333:.\DisplayUtils.c **** //@Created by: HIJH
 334:.\DisplayUtils.c **** //@Date: Septembre de 2016
ARM GAS  C:\Users\Lenovo\AppData\Local\Temp\ccKs44LO.s 			page 31


 335:.\DisplayUtils.c **** void SaveNewPassword(void *pparam)
 336:.\DisplayUtils.c **** {
 1351              		.loc 1 336 0
 1352              		.cfi_startproc
 1353              		@ args = 0, pretend = 0, frame = 16
 1354              		@ frame_needed = 1, uses_anonymous_args = 0
 1355 0000 80B5     		push	{r7, lr}
 1356              		.cfi_def_cfa_offset 8
 1357              		.cfi_offset 7, -8
 1358              		.cfi_offset 14, -4
 1359 0002 84B0     		sub	sp, sp, #16
 1360              		.cfi_def_cfa_offset 24
 1361 0004 00AF     		add	r7, sp, #0
 1362              		.cfi_def_cfa_register 7
 1363 0006 7860     		str	r0, [r7, #4]
 337:.\DisplayUtils.c ****     DisplayLayout *pdisplay = (DisplayLayout*)pparam;
 1364              		.loc 1 337 0
 1365 0008 7B68     		ldr	r3, [r7, #4]
 1366 000a FB60     		str	r3, [r7, #12]
 338:.\DisplayUtils.c ****     if(pdisplay->_bufferinfo._bufferindex > 0)
 1367              		.loc 1 338 0
 1368 000c FB68     		ldr	r3, [r7, #12]
 1369 000e 1B7F     		ldrb	r3, [r3, #28]	@ zero_extendqisi2
 1370 0010 002B     		cmp	r3, #0
 1371 0012 15D0     		beq	.L71
 339:.\DisplayUtils.c ****     {
 340:.\DisplayUtils.c ****         ClearEepromBuffer();
 1372              		.loc 1 340 0
 1373 0014 FFF7FEFF 		bl	ClearEepromBuffer
 341:.\DisplayUtils.c ****         LoadEepromPage(EEPROM_CONFIGURATION_PAGE7);
 1374              		.loc 1 341 0
 1375 0018 4FF4E070 		mov	r0, #448
 1376 001c FFF7FEFF 		bl	LoadEepromPage
 342:.\DisplayUtils.c ****         memcpy(&GetEepromBuffer()[0x0D], pdisplay->_bufferinfo._buffer, 0x04);
 1377              		.loc 1 342 0
 1378 0020 FFF7FEFF 		bl	GetEepromBuffer
 1379 0024 0346     		mov	r3, r0
 1380 0026 03F10D02 		add	r2, r3, #13
 1381 002a FB68     		ldr	r3, [r7, #12]
 1382 002c 1D33     		adds	r3, r3, #29
 1383 002e 1046     		mov	r0, r2
 1384 0030 1946     		mov	r1, r3
 1385 0032 0422     		movs	r2, #4
 1386 0034 FFF7FEFF 		bl	memcpy
 343:.\DisplayUtils.c ****         StoreEepromPage(EEPROM_CONFIGURATION_PAGE7);
 1387              		.loc 1 343 0
 1388 0038 4FF4E070 		mov	r0, #448
 1389 003c FFF7FEFF 		bl	StoreEepromPage
 1390              	.L71:
 344:.\DisplayUtils.c ****     }
 345:.\DisplayUtils.c **** }
 1391              		.loc 1 345 0
 1392 0040 1037     		adds	r7, r7, #16
 1393              		.cfi_def_cfa_offset 8
 1394 0042 BD46     		mov	sp, r7
 1395              		.cfi_def_cfa_register 13
 1396              		@ sp needed
ARM GAS  C:\Users\Lenovo\AppData\Local\Temp\ccKs44LO.s 			page 32


 1397 0044 80BD     		pop	{r7, pc}
 1398              		.cfi_endproc
 1399              	.LFE75:
 1400              		.size	SaveNewPassword, .-SaveNewPassword
 1401 0046 00BF     		.section	.text.DisplayNumericInputHandler,"ax",%progbits
 1402              		.align	2
 1403              		.global	DisplayNumericInputHandler
 1404              		.thumb
 1405              		.thumb_func
 1406              		.type	DisplayNumericInputHandler, %function
 1407              	DisplayNumericInputHandler:
 1408              	.LFB76:
 346:.\DisplayUtils.c **** 
 347:.\DisplayUtils.c **** //@Created by: HIJH
 348:.\DisplayUtils.c **** //@Date: Septembre de 2016
 349:.\DisplayUtils.c **** //This method handles numeric input data typed in a InputBox
 350:.\DisplayUtils.c **** void DisplayNumericInputHandler(void *pparam)
 351:.\DisplayUtils.c **** {
 1409              		.loc 1 351 0
 1410              		.cfi_startproc
 1411              		@ args = 0, pretend = 0, frame = 48
 1412              		@ frame_needed = 1, uses_anonymous_args = 0
 1413 0000 F0B5     		push	{r4, r5, r6, r7, lr}
 1414              		.cfi_def_cfa_offset 20
 1415              		.cfi_offset 4, -20
 1416              		.cfi_offset 5, -16
 1417              		.cfi_offset 6, -12
 1418              		.cfi_offset 7, -8
 1419              		.cfi_offset 14, -4
 1420 0002 91B0     		sub	sp, sp, #68
 1421              		.cfi_def_cfa_offset 88
 1422 0004 04AF     		add	r7, sp, #16
 1423              		.cfi_def_cfa 7, 72
 1424 0006 7860     		str	r0, [r7, #4]
 352:.\DisplayUtils.c ****     DisplayLayout *pdisplay = (DisplayLayout*)pparam;
 1425              		.loc 1 352 0
 1426 0008 7B68     		ldr	r3, [r7, #4]
 1427 000a BB62     		str	r3, [r7, #40]
 353:.\DisplayUtils.c ****     if(pdisplay)
 1428              		.loc 1 353 0
 1429 000c BB6A     		ldr	r3, [r7, #40]
 1430 000e 002B     		cmp	r3, #0
 1431 0010 00F0E580 		beq	.L73
 1432              	.LBB4:
 354:.\DisplayUtils.c ****     {
 355:.\DisplayUtils.c ****         char8 mappedchar = 0x00;
 1433              		.loc 1 355 0
 1434 0014 0023     		movs	r3, #0
 1435 0016 87F82F30 		strb	r3, [r7, #47]
 356:.\DisplayUtils.c ****         //This is since 0x0B has been defined as "Cancel" in the keypad
 357:.\DisplayUtils.c ****         if(pdisplay->_currscrcode == 0x0B)
 1436              		.loc 1 357 0
 1437 001a BB6A     		ldr	r3, [r7, #40]
 1438 001c DB78     		ldrb	r3, [r3, #3]	@ zero_extendqisi2
 1439 001e 0B2B     		cmp	r3, #11
 1440 0020 0AD1     		bne	.L75
 358:.\DisplayUtils.c ****         {
ARM GAS  C:\Users\Lenovo\AppData\Local\Temp\ccKs44LO.s 			page 33


 359:.\DisplayUtils.c ****             pdisplay->_bufferinfo._bufferindex = 0;
 1441              		.loc 1 359 0
 1442 0022 BB6A     		ldr	r3, [r7, #40]
 1443 0024 0022     		movs	r2, #0
 1444 0026 1A77     		strb	r2, [r3, #28]
 360:.\DisplayUtils.c ****             memset(pdisplay->_bufferinfo._buffer, 0x00, _DISPLAY_BUFFER_SIZE_);
 1445              		.loc 1 360 0
 1446 0028 BB6A     		ldr	r3, [r7, #40]
 1447 002a 1D33     		adds	r3, r3, #29
 1448 002c 1846     		mov	r0, r3
 1449 002e 0021     		movs	r1, #0
 1450 0030 1022     		movs	r2, #16
 1451 0032 FFF7FEFF 		bl	memset
 1452 0036 48E0     		b	.L76
 1453              	.L75:
 1454              	.LBB5:
 361:.\DisplayUtils.c ****         }
 362:.\DisplayUtils.c ****         else
 363:.\DisplayUtils.c ****         {
 364:.\DisplayUtils.c ****             mappedchar = UnmapCode(pdisplay->_currscrcode);
 1455              		.loc 1 364 0
 1456 0038 BB6A     		ldr	r3, [r7, #40]
 1457 003a DB78     		ldrb	r3, [r3, #3]	@ zero_extendqisi2
 1458 003c 1846     		mov	r0, r3
 1459 003e FFF7FEFF 		bl	UnmapCode
 1460 0042 0346     		mov	r3, r0
 1461 0044 87F82F30 		strb	r3, [r7, #47]
 365:.\DisplayUtils.c ****             
 366:.\DisplayUtils.c ****             //No zeros allowed as left most significant digits
 367:.\DisplayUtils.c ****             if((mappedchar <= 0x30 || mappedchar > 0x39) && (pdisplay->_bufferinfo._bufferindex == 
 1462              		.loc 1 367 0
 1463 0048 97F82F30 		ldrb	r3, [r7, #47]	@ zero_extendqisi2
 1464 004c 302B     		cmp	r3, #48
 1465 004e 03D9     		bls	.L77
 1466              		.loc 1 367 0 is_stmt 0 discriminator 2
 1467 0050 97F82F30 		ldrb	r3, [r7, #47]	@ zero_extendqisi2
 1468 0054 392B     		cmp	r3, #57
 1469 0056 04D9     		bls	.L78
 1470              	.L77:
 1471              		.loc 1 367 0 discriminator 3
 1472 0058 BB6A     		ldr	r3, [r7, #40]
 1473 005a 1B7F     		ldrb	r3, [r3, #28]	@ zero_extendqisi2
 1474 005c 002B     		cmp	r3, #0
 1475 005e 00D1     		bne	.L78
 368:.\DisplayUtils.c ****                 return;
 1476              		.loc 1 368 0 is_stmt 1
 1477 0060 BDE0     		b	.L73
 1478              	.L78:
 369:.\DisplayUtils.c ****             
 370:.\DisplayUtils.c ****             //Just one decimal delimiter allowed
 371:.\DisplayUtils.c ****             if(strchr(pdisplay->_bufferinfo._buffer, (char8)',') && (mappedchar == (char8)','))
 1479              		.loc 1 371 0
 1480 0062 BB6A     		ldr	r3, [r7, #40]
 1481 0064 1D33     		adds	r3, r3, #29
 1482 0066 1846     		mov	r0, r3
 1483 0068 2C21     		movs	r1, #44
 1484 006a FFF7FEFF 		bl	strchr
ARM GAS  C:\Users\Lenovo\AppData\Local\Temp\ccKs44LO.s 			page 34


 1485 006e 0346     		mov	r3, r0
 1486 0070 002B     		cmp	r3, #0
 1487 0072 04D0     		beq	.L80
 1488              		.loc 1 371 0 is_stmt 0 discriminator 1
 1489 0074 97F82F30 		ldrb	r3, [r7, #47]	@ zero_extendqisi2
 1490 0078 2C2B     		cmp	r3, #44
 1491 007a 00D1     		bne	.L80
 372:.\DisplayUtils.c ****                 return;
 1492              		.loc 1 372 0 is_stmt 1
 1493 007c AFE0     		b	.L73
 1494              	.L80:
 373:.\DisplayUtils.c **** 
 374:.\DisplayUtils.c ****             //Just _MAX_DECIMALS_ decimals allowed
 375:.\DisplayUtils.c ****             char tempbuffer[16];
 376:.\DisplayUtils.c ****             memset(tempbuffer, 0x00, 16);
 1495              		.loc 1 376 0
 1496 007e 07F10C03 		add	r3, r7, #12
 1497 0082 1846     		mov	r0, r3
 1498 0084 0021     		movs	r1, #0
 1499 0086 1022     		movs	r2, #16
 1500 0088 FFF7FEFF 		bl	memset
 377:.\DisplayUtils.c ****             memcpy(tempbuffer, pdisplay->_bufferinfo._buffer, pdisplay->_bufferinfo._bufferindex);
 1501              		.loc 1 377 0
 1502 008c BB6A     		ldr	r3, [r7, #40]
 1503 008e 03F11D02 		add	r2, r3, #29
 1504 0092 BB6A     		ldr	r3, [r7, #40]
 1505 0094 1B7F     		ldrb	r3, [r3, #28]	@ zero_extendqisi2
 1506 0096 1C46     		mov	r4, r3
 1507 0098 07F10C03 		add	r3, r7, #12
 1508 009c 1846     		mov	r0, r3
 1509 009e 1146     		mov	r1, r2
 1510 00a0 2246     		mov	r2, r4
 1511 00a2 FFF7FEFF 		bl	memcpy
 378:.\DisplayUtils.c ****             char *ptrpos = strchr(tempbuffer, (char8)',');
 1512              		.loc 1 378 0
 1513 00a6 07F10C03 		add	r3, r7, #12
 1514 00aa 1846     		mov	r0, r3
 1515 00ac 2C21     		movs	r1, #44
 1516 00ae FFF7FEFF 		bl	strchr
 1517 00b2 7862     		str	r0, [r7, #36]
 379:.\DisplayUtils.c ****             if(ptrpos)
 1518              		.loc 1 379 0
 1519 00b4 7B6A     		ldr	r3, [r7, #36]
 1520 00b6 002B     		cmp	r3, #0
 1521 00b8 07D0     		beq	.L76
 380:.\DisplayUtils.c ****                 if(strlen(ptrpos) > _MAX_DECIMALS_)
 1522              		.loc 1 380 0
 1523 00ba 786A     		ldr	r0, [r7, #36]
 1524 00bc FFF7FEFF 		bl	strlen
 1525 00c0 0346     		mov	r3, r0
 1526 00c2 012B     		cmp	r3, #1
 1527 00c4 01D9     		bls	.L76
 381:.\DisplayUtils.c ****                     return;
 1528              		.loc 1 381 0
 1529 00c6 00BF     		nop
 1530 00c8 89E0     		b	.L73
 1531              	.L76:
ARM GAS  C:\Users\Lenovo\AppData\Local\Temp\ccKs44LO.s 			page 35


 1532              	.LBE5:
 382:.\DisplayUtils.c ****         }
 383:.\DisplayUtils.c ****         
 384:.\DisplayUtils.c ****         if(pdisplay->_bufferinfo._bufferindex == 0)
 1533              		.loc 1 384 0
 1534 00ca BB6A     		ldr	r3, [r7, #40]
 1535 00cc 1B7F     		ldrb	r3, [r3, #28]	@ zero_extendqisi2
 1536 00ce 002B     		cmp	r3, #0
 1537 00d0 10D1     		bne	.L82
 385:.\DisplayUtils.c ****         {
 386:.\DisplayUtils.c ****             pdisplay->_bufferinfo._xpos = pdisplay->_pcurrflow->_inputboxinfo._xdefpos;
 1538              		.loc 1 386 0
 1539 00d2 BB6A     		ldr	r3, [r7, #40]
 1540 00d4 1B69     		ldr	r3, [r3, #16]
 1541 00d6 9A8D     		ldrh	r2, [r3, #44]
 1542 00d8 BB6A     		ldr	r3, [r7, #40]
 1543 00da 1A83     		strh	r2, [r3, #24]	@ movhi
 387:.\DisplayUtils.c ****             pdisplay->_bufferinfo._ypos = pdisplay->_pcurrflow->_inputboxinfo._ydefpos;
 1544              		.loc 1 387 0
 1545 00dc BB6A     		ldr	r3, [r7, #40]
 1546 00de 1B69     		ldr	r3, [r3, #16]
 1547 00e0 DA8D     		ldrh	r2, [r3, #46]
 1548 00e2 BB6A     		ldr	r3, [r7, #40]
 1549 00e4 5A83     		strh	r2, [r3, #26]	@ movhi
 388:.\DisplayUtils.c ****             memset(pdisplay->_bufferinfo._buffer, ' ', _DISPLAY_BUFFER_SIZE_);
 1550              		.loc 1 388 0
 1551 00e6 BB6A     		ldr	r3, [r7, #40]
 1552 00e8 1D33     		adds	r3, r3, #29
 1553 00ea 1846     		mov	r0, r3
 1554 00ec 2021     		movs	r1, #32
 1555 00ee 1022     		movs	r2, #16
 1556 00f0 FFF7FEFF 		bl	memset
 1557              	.L82:
 389:.\DisplayUtils.c ****         }
 390:.\DisplayUtils.c ****         //The InputBox is already filled up!
 391:.\DisplayUtils.c ****         if(pdisplay->_bufferinfo._bufferindex >= pdisplay->_pcurrflow->_inputboxinfo._maxchars)
 1558              		.loc 1 391 0
 1559 00f4 BB6A     		ldr	r3, [r7, #40]
 1560 00f6 1A7F     		ldrb	r2, [r3, #28]	@ zero_extendqisi2
 1561 00f8 BB6A     		ldr	r3, [r7, #40]
 1562 00fa 1B69     		ldr	r3, [r3, #16]
 1563 00fc 93F83030 		ldrb	r3, [r3, #48]	@ zero_extendqisi2
 1564 0100 9A42     		cmp	r2, r3
 1565 0102 00D3     		bcc	.L83
 392:.\DisplayUtils.c ****             return;
 1566              		.loc 1 392 0
 1567 0104 6BE0     		b	.L73
 1568              	.L83:
 393:.\DisplayUtils.c ****         
 394:.\DisplayUtils.c ****         //There's nothing new to show up since the unmapper didn't find anything to map to
 395:.\DisplayUtils.c ****         if(mappedchar != 0x00)
 1569              		.loc 1 395 0
 1570 0106 97F82F30 		ldrb	r3, [r7, #47]	@ zero_extendqisi2
 1571 010a 002B     		cmp	r3, #0
 1572 010c 0BD0     		beq	.L84
 396:.\DisplayUtils.c ****             pdisplay->_bufferinfo._buffer[pdisplay->_bufferinfo._bufferindex++] = mappedchar;
 1573              		.loc 1 396 0
ARM GAS  C:\Users\Lenovo\AppData\Local\Temp\ccKs44LO.s 			page 36


 1574 010e BB6A     		ldr	r3, [r7, #40]
 1575 0110 1B7F     		ldrb	r3, [r3, #28]	@ zero_extendqisi2
 1576 0112 5A1C     		adds	r2, r3, #1
 1577 0114 D1B2     		uxtb	r1, r2
 1578 0116 BA6A     		ldr	r2, [r7, #40]
 1579 0118 1177     		strb	r1, [r2, #28]
 1580 011a 1A46     		mov	r2, r3
 1581 011c BB6A     		ldr	r3, [r7, #40]
 1582 011e 1344     		add	r3, r3, r2
 1583 0120 97F82F20 		ldrb	r2, [r7, #47]
 1584 0124 5A77     		strb	r2, [r3, #29]
 1585              	.L84:
 397:.\DisplayUtils.c ****         
 398:.\DisplayUtils.c ****         if(pdisplay->_dispid == DISPLAY1)
 1586              		.loc 1 398 0
 1587 0126 BB6A     		ldr	r3, [r7, #40]
 1588 0128 1B78     		ldrb	r3, [r3]	@ zero_extendqisi2
 1589 012a 002B     		cmp	r3, #0
 1590 012c 2CD1     		bne	.L85
 1591              	.LBB6:
 399:.\DisplayUtils.c ****         {
 400:.\DisplayUtils.c ****             UARTMessage *puartdisp = GetUARTMessageSlot(UART_DISPLAY1);
 1592              		.loc 1 400 0
 1593 012e A320     		movs	r0, #163
 1594 0130 FFF7FEFF 		bl	GetUARTMessageSlot
 1595 0134 3862     		str	r0, [r7, #32]
 401:.\DisplayUtils.c ****             if(puartdisp)
 1596              		.loc 1 401 0
 1597 0136 3B6A     		ldr	r3, [r7, #32]
 1598 0138 002B     		cmp	r3, #0
 1599 013a 24D0     		beq	.L86
 402:.\DisplayUtils.c ****             {
 403:.\DisplayUtils.c ****                 puartdisp->_messagelength = DisplayOutputString(pdisplay->_bufferinfo._xpos, pdispl
 1600              		.loc 1 403 0
 1601 013c BB6A     		ldr	r3, [r7, #40]
 1602 013e B3F818E0 		ldrh	lr, [r3, #24]
 1603 0142 BB6A     		ldr	r3, [r7, #40]
 1604 0144 5E8B     		ldrh	r6, [r3, #26]
 1605 0146 3B6A     		ldr	r3, [r7, #32]
 1606 0148 1D1D     		adds	r5, r3, #4
 1607 014a BB6A     		ldr	r3, [r7, #40]
 1608 014c 03F11D04 		add	r4, r3, #29
 1609 0150 BB6A     		ldr	r3, [r7, #40]
 1610 0152 1B69     		ldr	r3, [r3, #16]
 1611 0154 93F83030 		ldrb	r3, [r3, #48]	@ zero_extendqisi2
 1612 0158 9BB2     		uxth	r3, r3
 1613 015a BA6A     		ldr	r2, [r7, #40]
 1614 015c 1269     		ldr	r2, [r2, #16]
 1615 015e 0093     		str	r3, [sp]
 1616 0160 01AB     		add	r3, sp, #4
 1617 0162 3232     		adds	r2, r2, #50
 1618 0164 1068     		ldr	r0, [r2]	@ unaligned
 1619 0166 5168     		ldr	r1, [r2, #4]	@ unaligned
 1620 0168 03C3     		stmia	r3!, {r0, r1}
 1621 016a 7046     		mov	r0, lr
 1622 016c 3146     		mov	r1, r6
 1623 016e 2A46     		mov	r2, r5
ARM GAS  C:\Users\Lenovo\AppData\Local\Temp\ccKs44LO.s 			page 37


 1624 0170 2346     		mov	r3, r4
 1625 0172 FFF7FEFF 		bl	DisplayOutputString
 1626 0176 0346     		mov	r3, r0
 1627 0178 1A46     		mov	r2, r3
 1628 017a 3B6A     		ldr	r3, [r7, #32]
 1629 017c 5A80     		strh	r2, [r3, #2]	@ movhi
 404:.\DisplayUtils.c ****                 puartdisp->_messagestate = PENDING;
 1630              		.loc 1 404 0
 1631 017e 3B6A     		ldr	r3, [r7, #32]
 1632 0180 C222     		movs	r2, #194
 1633 0182 1A70     		strb	r2, [r3]
 1634              	.LBE6:
 1635 0184 2BE0     		b	.L73
 1636              	.L86:
 1637 0186 2AE0     		b	.L73
 1638              	.L85:
 1639              	.LBB7:
 405:.\DisplayUtils.c ****             }
 406:.\DisplayUtils.c ****         }
 407:.\DisplayUtils.c ****         else
 408:.\DisplayUtils.c ****         {
 409:.\DisplayUtils.c ****             UARTMessage *puartdisp = GetUARTMessageSlot(UART_DISPLAY2);
 1640              		.loc 1 409 0
 1641 0188 A420     		movs	r0, #164
 1642 018a FFF7FEFF 		bl	GetUARTMessageSlot
 1643 018e F861     		str	r0, [r7, #28]
 410:.\DisplayUtils.c ****             if(puartdisp)
 1644              		.loc 1 410 0
 1645 0190 FB69     		ldr	r3, [r7, #28]
 1646 0192 002B     		cmp	r3, #0
 1647 0194 23D0     		beq	.L73
 411:.\DisplayUtils.c ****             {
 412:.\DisplayUtils.c ****                 puartdisp->_messagelength = DisplayOutputString(pdisplay->_bufferinfo._xpos, pdispl
 1648              		.loc 1 412 0
 1649 0196 BB6A     		ldr	r3, [r7, #40]
 1650 0198 B3F818E0 		ldrh	lr, [r3, #24]
 1651 019c BB6A     		ldr	r3, [r7, #40]
 1652 019e 5E8B     		ldrh	r6, [r3, #26]
 1653 01a0 FB69     		ldr	r3, [r7, #28]
 1654 01a2 1D1D     		adds	r5, r3, #4
 1655 01a4 BB6A     		ldr	r3, [r7, #40]
 1656 01a6 03F11D04 		add	r4, r3, #29
 1657 01aa BB6A     		ldr	r3, [r7, #40]
 1658 01ac 1B69     		ldr	r3, [r3, #16]
 1659 01ae 93F83030 		ldrb	r3, [r3, #48]	@ zero_extendqisi2
 1660 01b2 9BB2     		uxth	r3, r3
 1661 01b4 BA6A     		ldr	r2, [r7, #40]
 1662 01b6 1269     		ldr	r2, [r2, #16]
 1663 01b8 0093     		str	r3, [sp]
 1664 01ba 01AB     		add	r3, sp, #4
 1665 01bc 3232     		adds	r2, r2, #50
 1666 01be 1068     		ldr	r0, [r2]	@ unaligned
 1667 01c0 5168     		ldr	r1, [r2, #4]	@ unaligned
 1668 01c2 03C3     		stmia	r3!, {r0, r1}
 1669 01c4 7046     		mov	r0, lr
 1670 01c6 3146     		mov	r1, r6
 1671 01c8 2A46     		mov	r2, r5
ARM GAS  C:\Users\Lenovo\AppData\Local\Temp\ccKs44LO.s 			page 38


 1672 01ca 2346     		mov	r3, r4
 1673 01cc FFF7FEFF 		bl	DisplayOutputString
 1674 01d0 0346     		mov	r3, r0
 1675 01d2 1A46     		mov	r2, r3
 1676 01d4 FB69     		ldr	r3, [r7, #28]
 1677 01d6 5A80     		strh	r2, [r3, #2]	@ movhi
 413:.\DisplayUtils.c ****                 puartdisp->_messagestate = PENDING;
 1678              		.loc 1 413 0
 1679 01d8 FB69     		ldr	r3, [r7, #28]
 1680 01da C222     		movs	r2, #194
 1681 01dc 1A70     		strb	r2, [r3]
 1682              	.L73:
 1683              	.LBE7:
 1684              	.LBE4:
 414:.\DisplayUtils.c ****             }
 415:.\DisplayUtils.c ****         }
 416:.\DisplayUtils.c ****         
 417:.\DisplayUtils.c ****     }
 418:.\DisplayUtils.c **** }
 1685              		.loc 1 418 0
 1686 01de 3437     		adds	r7, r7, #52
 1687              		.cfi_def_cfa_offset 20
 1688 01e0 BD46     		mov	sp, r7
 1689              		.cfi_def_cfa_register 13
 1690              		@ sp needed
 1691 01e2 F0BD     		pop	{r4, r5, r6, r7, pc}
 1692              		.cfi_endproc
 1693              	.LFE76:
 1694              		.size	DisplayNumericInputHandler, .-DisplayNumericInputHandler
 1695              		.section	.text.DisplayIntegerInputHandler,"ax",%progbits
 1696              		.align	2
 1697              		.global	DisplayIntegerInputHandler
 1698              		.thumb
 1699              		.thumb_func
 1700              		.type	DisplayIntegerInputHandler, %function
 1701              	DisplayIntegerInputHandler:
 1702              	.LFB77:
 419:.\DisplayUtils.c **** 
 420:.\DisplayUtils.c **** //@Created by: HIJH
 421:.\DisplayUtils.c **** //@Date: Septembre de 2016
 422:.\DisplayUtils.c **** //This method handles numeric input data typed in a InputBox
 423:.\DisplayUtils.c **** void DisplayIntegerInputHandler(void *pparam)
 424:.\DisplayUtils.c **** {
 1703              		.loc 1 424 0
 1704              		.cfi_startproc
 1705              		@ args = 0, pretend = 0, frame = 24
 1706              		@ frame_needed = 1, uses_anonymous_args = 0
 1707 0000 F0B5     		push	{r4, r5, r6, r7, lr}
 1708              		.cfi_def_cfa_offset 20
 1709              		.cfi_offset 4, -20
 1710              		.cfi_offset 5, -16
 1711              		.cfi_offset 6, -12
 1712              		.cfi_offset 7, -8
 1713              		.cfi_offset 14, -4
 1714 0002 8BB0     		sub	sp, sp, #44
 1715              		.cfi_def_cfa_offset 64
 1716 0004 04AF     		add	r7, sp, #16
ARM GAS  C:\Users\Lenovo\AppData\Local\Temp\ccKs44LO.s 			page 39


 1717              		.cfi_def_cfa 7, 48
 1718 0006 7860     		str	r0, [r7, #4]
 425:.\DisplayUtils.c ****     DisplayLayout *pdisplay = (DisplayLayout*)pparam;
 1719              		.loc 1 425 0
 1720 0008 7B68     		ldr	r3, [r7, #4]
 1721 000a 3B61     		str	r3, [r7, #16]
 426:.\DisplayUtils.c ****     if(pdisplay)
 1722              		.loc 1 426 0
 1723 000c 3B69     		ldr	r3, [r7, #16]
 1724 000e 002B     		cmp	r3, #0
 1725 0010 00F0A880 		beq	.L87
 1726              	.LBB8:
 427:.\DisplayUtils.c ****     {
 428:.\DisplayUtils.c ****         char8 mappedchar = 0x00;
 1727              		.loc 1 428 0
 1728 0014 0023     		movs	r3, #0
 1729 0016 FB75     		strb	r3, [r7, #23]
 429:.\DisplayUtils.c ****         //This is since 0x0B has been defined as "Cancel" in the keypad
 430:.\DisplayUtils.c ****         if(pdisplay->_currscrcode == 0x0B)
 1730              		.loc 1 430 0
 1731 0018 3B69     		ldr	r3, [r7, #16]
 1732 001a DB78     		ldrb	r3, [r3, #3]	@ zero_extendqisi2
 1733 001c 0B2B     		cmp	r3, #11
 1734 001e 03D1     		bne	.L89
 431:.\DisplayUtils.c ****             pdisplay->_bufferinfo._bufferindex = 0;
 1735              		.loc 1 431 0
 1736 0020 3B69     		ldr	r3, [r7, #16]
 1737 0022 0022     		movs	r2, #0
 1738 0024 1A77     		strb	r2, [r3, #28]
 1739 0026 15E0     		b	.L90
 1740              	.L89:
 432:.\DisplayUtils.c ****         else
 433:.\DisplayUtils.c ****         {
 434:.\DisplayUtils.c ****             mappedchar = UnmapCode(pdisplay->_currscrcode);
 1741              		.loc 1 434 0
 1742 0028 3B69     		ldr	r3, [r7, #16]
 1743 002a DB78     		ldrb	r3, [r3, #3]	@ zero_extendqisi2
 1744 002c 1846     		mov	r0, r3
 1745 002e FFF7FEFF 		bl	UnmapCode
 1746 0032 0346     		mov	r3, r0
 1747 0034 FB75     		strb	r3, [r7, #23]
 435:.\DisplayUtils.c ****             
 436:.\DisplayUtils.c ****             //No zeros allowed as left most significant digits
 437:.\DisplayUtils.c ****             if((mappedchar <= 0x30 || mappedchar > 0x39) && (pdisplay->_bufferinfo._bufferindex == 
 1748              		.loc 1 437 0
 1749 0036 FB7D     		ldrb	r3, [r7, #23]	@ zero_extendqisi2
 1750 0038 302B     		cmp	r3, #48
 1751 003a 02D9     		bls	.L91
 1752              		.loc 1 437 0 is_stmt 0 discriminator 2
 1753 003c FB7D     		ldrb	r3, [r7, #23]	@ zero_extendqisi2
 1754 003e 392B     		cmp	r3, #57
 1755 0040 04D9     		bls	.L92
 1756              	.L91:
 1757              		.loc 1 437 0 discriminator 3
 1758 0042 3B69     		ldr	r3, [r7, #16]
 1759 0044 1B7F     		ldrb	r3, [r3, #28]	@ zero_extendqisi2
 1760 0046 002B     		cmp	r3, #0
ARM GAS  C:\Users\Lenovo\AppData\Local\Temp\ccKs44LO.s 			page 40


 1761 0048 00D1     		bne	.L92
 438:.\DisplayUtils.c ****                 return;
 1762              		.loc 1 438 0 is_stmt 1
 1763 004a 8BE0     		b	.L87
 1764              	.L92:
 439:.\DisplayUtils.c ****             
 440:.\DisplayUtils.c ****             //Just one decimal delimiter allowed
 441:.\DisplayUtils.c ****             if(mappedchar == (char8)',')
 1765              		.loc 1 441 0
 1766 004c FB7D     		ldrb	r3, [r7, #23]	@ zero_extendqisi2
 1767 004e 2C2B     		cmp	r3, #44
 1768 0050 00D1     		bne	.L90
 442:.\DisplayUtils.c ****                 return;
 1769              		.loc 1 442 0 discriminator 2
 1770 0052 87E0     		b	.L87
 1771              	.L90:
 443:.\DisplayUtils.c **** 
 444:.\DisplayUtils.c ****         }
 445:.\DisplayUtils.c ****         
 446:.\DisplayUtils.c ****         if(pdisplay->_bufferinfo._bufferindex == 0)
 1772              		.loc 1 446 0
 1773 0054 3B69     		ldr	r3, [r7, #16]
 1774 0056 1B7F     		ldrb	r3, [r3, #28]	@ zero_extendqisi2
 1775 0058 002B     		cmp	r3, #0
 1776 005a 10D1     		bne	.L93
 447:.\DisplayUtils.c ****         {
 448:.\DisplayUtils.c ****             pdisplay->_bufferinfo._xpos = pdisplay->_pcurrflow->_inputboxinfo._xdefpos;
 1777              		.loc 1 448 0
 1778 005c 3B69     		ldr	r3, [r7, #16]
 1779 005e 1B69     		ldr	r3, [r3, #16]
 1780 0060 9A8D     		ldrh	r2, [r3, #44]
 1781 0062 3B69     		ldr	r3, [r7, #16]
 1782 0064 1A83     		strh	r2, [r3, #24]	@ movhi
 449:.\DisplayUtils.c ****             pdisplay->_bufferinfo._ypos = pdisplay->_pcurrflow->_inputboxinfo._ydefpos;
 1783              		.loc 1 449 0
 1784 0066 3B69     		ldr	r3, [r7, #16]
 1785 0068 1B69     		ldr	r3, [r3, #16]
 1786 006a DA8D     		ldrh	r2, [r3, #46]
 1787 006c 3B69     		ldr	r3, [r7, #16]
 1788 006e 5A83     		strh	r2, [r3, #26]	@ movhi
 450:.\DisplayUtils.c ****             memset(pdisplay->_bufferinfo._buffer, ' ', _DISPLAY_BUFFER_SIZE_);
 1789              		.loc 1 450 0
 1790 0070 3B69     		ldr	r3, [r7, #16]
 1791 0072 1D33     		adds	r3, r3, #29
 1792 0074 1846     		mov	r0, r3
 1793 0076 2021     		movs	r1, #32
 1794 0078 1022     		movs	r2, #16
 1795 007a FFF7FEFF 		bl	memset
 1796              	.L93:
 451:.\DisplayUtils.c ****         }
 452:.\DisplayUtils.c ****         //The InputBox is already filled up!
 453:.\DisplayUtils.c ****         if(pdisplay->_bufferinfo._bufferindex >= pdisplay->_pcurrflow->_inputboxinfo._maxchars)
 1797              		.loc 1 453 0
 1798 007e 3B69     		ldr	r3, [r7, #16]
 1799 0080 1A7F     		ldrb	r2, [r3, #28]	@ zero_extendqisi2
 1800 0082 3B69     		ldr	r3, [r7, #16]
 1801 0084 1B69     		ldr	r3, [r3, #16]
ARM GAS  C:\Users\Lenovo\AppData\Local\Temp\ccKs44LO.s 			page 41


 1802 0086 93F83030 		ldrb	r3, [r3, #48]	@ zero_extendqisi2
 1803 008a 9A42     		cmp	r2, r3
 1804 008c 00D3     		bcc	.L94
 454:.\DisplayUtils.c ****             return;
 1805              		.loc 1 454 0 discriminator 3
 1806 008e 69E0     		b	.L87
 1807              	.L94:
 455:.\DisplayUtils.c ****         
 456:.\DisplayUtils.c ****         //There's nothing new to show up since the unmapper didn't find anything to map to
 457:.\DisplayUtils.c ****         if(mappedchar != 0x00)
 1808              		.loc 1 457 0
 1809 0090 FB7D     		ldrb	r3, [r7, #23]	@ zero_extendqisi2
 1810 0092 002B     		cmp	r3, #0
 1811 0094 0AD0     		beq	.L95
 458:.\DisplayUtils.c ****             pdisplay->_bufferinfo._buffer[pdisplay->_bufferinfo._bufferindex++] = mappedchar;
 1812              		.loc 1 458 0
 1813 0096 3B69     		ldr	r3, [r7, #16]
 1814 0098 1B7F     		ldrb	r3, [r3, #28]	@ zero_extendqisi2
 1815 009a 5A1C     		adds	r2, r3, #1
 1816 009c D1B2     		uxtb	r1, r2
 1817 009e 3A69     		ldr	r2, [r7, #16]
 1818 00a0 1177     		strb	r1, [r2, #28]
 1819 00a2 1A46     		mov	r2, r3
 1820 00a4 3B69     		ldr	r3, [r7, #16]
 1821 00a6 1344     		add	r3, r3, r2
 1822 00a8 FA7D     		ldrb	r2, [r7, #23]
 1823 00aa 5A77     		strb	r2, [r3, #29]
 1824              	.L95:
 459:.\DisplayUtils.c ****         
 460:.\DisplayUtils.c ****         if(pdisplay->_dispid == DISPLAY1)
 1825              		.loc 1 460 0
 1826 00ac 3B69     		ldr	r3, [r7, #16]
 1827 00ae 1B78     		ldrb	r3, [r3]	@ zero_extendqisi2
 1828 00b0 002B     		cmp	r3, #0
 1829 00b2 2CD1     		bne	.L96
 1830              	.LBB9:
 461:.\DisplayUtils.c ****         {
 462:.\DisplayUtils.c ****             UARTMessage *puartdisp = GetUARTMessageSlot(UART_DISPLAY1);
 1831              		.loc 1 462 0
 1832 00b4 A320     		movs	r0, #163
 1833 00b6 FFF7FEFF 		bl	GetUARTMessageSlot
 1834 00ba F860     		str	r0, [r7, #12]
 463:.\DisplayUtils.c ****             if(puartdisp)
 1835              		.loc 1 463 0
 1836 00bc FB68     		ldr	r3, [r7, #12]
 1837 00be 002B     		cmp	r3, #0
 1838 00c0 24D0     		beq	.L97
 464:.\DisplayUtils.c ****             {
 465:.\DisplayUtils.c ****                 puartdisp->_messagelength = DisplayOutputString(pdisplay->_bufferinfo._xpos, pdispl
 1839              		.loc 1 465 0
 1840 00c2 3B69     		ldr	r3, [r7, #16]
 1841 00c4 B3F818E0 		ldrh	lr, [r3, #24]
 1842 00c8 3B69     		ldr	r3, [r7, #16]
 1843 00ca 5E8B     		ldrh	r6, [r3, #26]
 1844 00cc FB68     		ldr	r3, [r7, #12]
 1845 00ce 1D1D     		adds	r5, r3, #4
 1846 00d0 3B69     		ldr	r3, [r7, #16]
ARM GAS  C:\Users\Lenovo\AppData\Local\Temp\ccKs44LO.s 			page 42


 1847 00d2 03F11D04 		add	r4, r3, #29
 1848 00d6 3B69     		ldr	r3, [r7, #16]
 1849 00d8 1B69     		ldr	r3, [r3, #16]
 1850 00da 93F83030 		ldrb	r3, [r3, #48]	@ zero_extendqisi2
 1851 00de 9BB2     		uxth	r3, r3
 1852 00e0 3A69     		ldr	r2, [r7, #16]
 1853 00e2 1269     		ldr	r2, [r2, #16]
 1854 00e4 0093     		str	r3, [sp]
 1855 00e6 01AB     		add	r3, sp, #4
 1856 00e8 3232     		adds	r2, r2, #50
 1857 00ea 1068     		ldr	r0, [r2]	@ unaligned
 1858 00ec 5168     		ldr	r1, [r2, #4]	@ unaligned
 1859 00ee 03C3     		stmia	r3!, {r0, r1}
 1860 00f0 7046     		mov	r0, lr
 1861 00f2 3146     		mov	r1, r6
 1862 00f4 2A46     		mov	r2, r5
 1863 00f6 2346     		mov	r3, r4
 1864 00f8 FFF7FEFF 		bl	DisplayOutputString
 1865 00fc 0346     		mov	r3, r0
 1866 00fe 1A46     		mov	r2, r3
 1867 0100 FB68     		ldr	r3, [r7, #12]
 1868 0102 5A80     		strh	r2, [r3, #2]	@ movhi
 466:.\DisplayUtils.c ****                 puartdisp->_messagestate = PENDING;
 1869              		.loc 1 466 0
 1870 0104 FB68     		ldr	r3, [r7, #12]
 1871 0106 C222     		movs	r2, #194
 1872 0108 1A70     		strb	r2, [r3]
 1873              	.LBE9:
 1874 010a 2BE0     		b	.L87
 1875              	.L97:
 1876 010c 2AE0     		b	.L87
 1877              	.L96:
 1878              	.LBB10:
 467:.\DisplayUtils.c ****             }
 468:.\DisplayUtils.c ****         }
 469:.\DisplayUtils.c ****         else
 470:.\DisplayUtils.c ****         {
 471:.\DisplayUtils.c ****             UARTMessage *puartdisp = GetUARTMessageSlot(UART_DISPLAY2);
 1879              		.loc 1 471 0
 1880 010e A420     		movs	r0, #164
 1881 0110 FFF7FEFF 		bl	GetUARTMessageSlot
 1882 0114 B860     		str	r0, [r7, #8]
 472:.\DisplayUtils.c ****             if(puartdisp)
 1883              		.loc 1 472 0
 1884 0116 BB68     		ldr	r3, [r7, #8]
 1885 0118 002B     		cmp	r3, #0
 1886 011a 23D0     		beq	.L87
 473:.\DisplayUtils.c ****             {
 474:.\DisplayUtils.c ****                 puartdisp->_messagelength = DisplayOutputString(pdisplay->_bufferinfo._xpos, pdispl
 1887              		.loc 1 474 0
 1888 011c 3B69     		ldr	r3, [r7, #16]
 1889 011e B3F818E0 		ldrh	lr, [r3, #24]
 1890 0122 3B69     		ldr	r3, [r7, #16]
 1891 0124 5E8B     		ldrh	r6, [r3, #26]
 1892 0126 BB68     		ldr	r3, [r7, #8]
 1893 0128 1D1D     		adds	r5, r3, #4
 1894 012a 3B69     		ldr	r3, [r7, #16]
ARM GAS  C:\Users\Lenovo\AppData\Local\Temp\ccKs44LO.s 			page 43


 1895 012c 03F11D04 		add	r4, r3, #29
 1896 0130 3B69     		ldr	r3, [r7, #16]
 1897 0132 1B69     		ldr	r3, [r3, #16]
 1898 0134 93F83030 		ldrb	r3, [r3, #48]	@ zero_extendqisi2
 1899 0138 9BB2     		uxth	r3, r3
 1900 013a 3A69     		ldr	r2, [r7, #16]
 1901 013c 1269     		ldr	r2, [r2, #16]
 1902 013e 0093     		str	r3, [sp]
 1903 0140 01AB     		add	r3, sp, #4
 1904 0142 3232     		adds	r2, r2, #50
 1905 0144 1068     		ldr	r0, [r2]	@ unaligned
 1906 0146 5168     		ldr	r1, [r2, #4]	@ unaligned
 1907 0148 03C3     		stmia	r3!, {r0, r1}
 1908 014a 7046     		mov	r0, lr
 1909 014c 3146     		mov	r1, r6
 1910 014e 2A46     		mov	r2, r5
 1911 0150 2346     		mov	r3, r4
 1912 0152 FFF7FEFF 		bl	DisplayOutputString
 1913 0156 0346     		mov	r3, r0
 1914 0158 1A46     		mov	r2, r3
 1915 015a BB68     		ldr	r3, [r7, #8]
 1916 015c 5A80     		strh	r2, [r3, #2]	@ movhi
 475:.\DisplayUtils.c ****                 puartdisp->_messagestate = PENDING;
 1917              		.loc 1 475 0
 1918 015e BB68     		ldr	r3, [r7, #8]
 1919 0160 C222     		movs	r2, #194
 1920 0162 1A70     		strb	r2, [r3]
 1921              	.L87:
 1922              	.LBE10:
 1923              	.LBE8:
 476:.\DisplayUtils.c ****             }
 477:.\DisplayUtils.c ****         }
 478:.\DisplayUtils.c ****         
 479:.\DisplayUtils.c ****     }
 480:.\DisplayUtils.c **** }
 1924              		.loc 1 480 0
 1925 0164 1C37     		adds	r7, r7, #28
 1926              		.cfi_def_cfa_offset 20
 1927 0166 BD46     		mov	sp, r7
 1928              		.cfi_def_cfa_register 13
 1929              		@ sp needed
 1930 0168 F0BD     		pop	{r4, r5, r6, r7, pc}
 1931              		.cfi_endproc
 1932              	.LFE77:
 1933              		.size	DisplayIntegerInputHandler, .-DisplayIntegerInputHandler
 1934 016a 00BF     		.section	.text.DisplayMoneyInputHandler,"ax",%progbits
 1935              		.align	2
 1936              		.global	DisplayMoneyInputHandler
 1937              		.thumb
 1938              		.thumb_func
 1939              		.type	DisplayMoneyInputHandler, %function
 1940              	DisplayMoneyInputHandler:
 1941              	.LFB78:
 481:.\DisplayUtils.c **** 
 482:.\DisplayUtils.c **** //@Created by: HIJH
 483:.\DisplayUtils.c **** //@Date: Septembre de 2016
 484:.\DisplayUtils.c **** //This method handles numeric input data typed in a InputBox
ARM GAS  C:\Users\Lenovo\AppData\Local\Temp\ccKs44LO.s 			page 44


 485:.\DisplayUtils.c **** void DisplayMoneyInputHandler(void *pparam)
 486:.\DisplayUtils.c **** {
 1942              		.loc 1 486 0
 1943              		.cfi_startproc
 1944              		@ args = 0, pretend = 0, frame = 48
 1945              		@ frame_needed = 1, uses_anonymous_args = 0
 1946 0000 F0B5     		push	{r4, r5, r6, r7, lr}
 1947              		.cfi_def_cfa_offset 20
 1948              		.cfi_offset 4, -20
 1949              		.cfi_offset 5, -16
 1950              		.cfi_offset 6, -12
 1951              		.cfi_offset 7, -8
 1952              		.cfi_offset 14, -4
 1953 0002 91B0     		sub	sp, sp, #68
 1954              		.cfi_def_cfa_offset 88
 1955 0004 04AF     		add	r7, sp, #16
 1956              		.cfi_def_cfa 7, 72
 1957 0006 7860     		str	r0, [r7, #4]
 487:.\DisplayUtils.c ****     DisplayLayout *pdisplay = (DisplayLayout*)pparam;
 1958              		.loc 1 487 0
 1959 0008 7B68     		ldr	r3, [r7, #4]
 1960 000a BB62     		str	r3, [r7, #40]
 488:.\DisplayUtils.c ****     if(pdisplay)
 1961              		.loc 1 488 0
 1962 000c BB6A     		ldr	r3, [r7, #40]
 1963 000e 002B     		cmp	r3, #0
 1964 0010 00F0F280 		beq	.L98
 1965              	.LBB11:
 489:.\DisplayUtils.c ****     {
 490:.\DisplayUtils.c ****         char8 mappedchar = 0x00;
 1966              		.loc 1 490 0
 1967 0014 0023     		movs	r3, #0
 1968 0016 87F82F30 		strb	r3, [r7, #47]
 491:.\DisplayUtils.c ****         //This is since 0x0B has been defined as "Cancel" in the keypad
 492:.\DisplayUtils.c ****         if(pdisplay->_currscrcode == 0x0B)
 1969              		.loc 1 492 0
 1970 001a BB6A     		ldr	r3, [r7, #40]
 1971 001c DB78     		ldrb	r3, [r3, #3]	@ zero_extendqisi2
 1972 001e 0B2B     		cmp	r3, #11
 1973 0020 0AD1     		bne	.L100
 493:.\DisplayUtils.c ****         {
 494:.\DisplayUtils.c ****             pdisplay->_bufferinfo._bufferindex = 0;
 1974              		.loc 1 494 0
 1975 0022 BB6A     		ldr	r3, [r7, #40]
 1976 0024 0022     		movs	r2, #0
 1977 0026 1A77     		strb	r2, [r3, #28]
 495:.\DisplayUtils.c ****             memset(pdisplay->_bufferinfo._buffer, 0x00, _DISPLAY_BUFFER_SIZE_);
 1978              		.loc 1 495 0
 1979 0028 BB6A     		ldr	r3, [r7, #40]
 1980 002a 1D33     		adds	r3, r3, #29
 1981 002c 1846     		mov	r0, r3
 1982 002e 0021     		movs	r1, #0
 1983 0030 1022     		movs	r2, #16
 1984 0032 FFF7FEFF 		bl	memset
 1985 0036 4FE0     		b	.L101
 1986              	.L100:
 1987              	.LBB12:
ARM GAS  C:\Users\Lenovo\AppData\Local\Temp\ccKs44LO.s 			page 45


 496:.\DisplayUtils.c ****         }
 497:.\DisplayUtils.c ****         else
 498:.\DisplayUtils.c ****         {
 499:.\DisplayUtils.c ****             mappedchar = UnmapCode(pdisplay->_currscrcode);
 1988              		.loc 1 499 0
 1989 0038 BB6A     		ldr	r3, [r7, #40]
 1990 003a DB78     		ldrb	r3, [r3, #3]	@ zero_extendqisi2
 1991 003c 1846     		mov	r0, r3
 1992 003e FFF7FEFF 		bl	UnmapCode
 1993 0042 0346     		mov	r3, r0
 1994 0044 87F82F30 		strb	r3, [r7, #47]
 500:.\DisplayUtils.c ****             
 501:.\DisplayUtils.c ****             //No zeros allowed as left most significant digits
 502:.\DisplayUtils.c ****             if((mappedchar <= 0x30 || mappedchar > 0x39) && (pdisplay->_bufferinfo._bufferindex == 
 1995              		.loc 1 502 0
 1996 0048 97F82F30 		ldrb	r3, [r7, #47]	@ zero_extendqisi2
 1997 004c 302B     		cmp	r3, #48
 1998 004e 03D9     		bls	.L102
 1999              		.loc 1 502 0 is_stmt 0 discriminator 2
 2000 0050 97F82F30 		ldrb	r3, [r7, #47]	@ zero_extendqisi2
 2001 0054 392B     		cmp	r3, #57
 2002 0056 04D9     		bls	.L103
 2003              	.L102:
 2004              		.loc 1 502 0 discriminator 3
 2005 0058 BB6A     		ldr	r3, [r7, #40]
 2006 005a 1B7F     		ldrb	r3, [r3, #28]	@ zero_extendqisi2
 2007 005c 002B     		cmp	r3, #0
 2008 005e 00D1     		bne	.L103
 503:.\DisplayUtils.c ****                 return;
 2009              		.loc 1 503 0 is_stmt 1
 2010 0060 CAE0     		b	.L98
 2011              	.L103:
 504:.\DisplayUtils.c ****             
 505:.\DisplayUtils.c ****             //Just one decimal delimiter allowed
 506:.\DisplayUtils.c ****             if(strchr(pdisplay->_bufferinfo._buffer, (char8)',') && (mappedchar == (char8)','))
 2012              		.loc 1 506 0
 2013 0062 BB6A     		ldr	r3, [r7, #40]
 2014 0064 1D33     		adds	r3, r3, #29
 2015 0066 1846     		mov	r0, r3
 2016 0068 2C21     		movs	r1, #44
 2017 006a FFF7FEFF 		bl	strchr
 2018 006e 0346     		mov	r3, r0
 2019 0070 002B     		cmp	r3, #0
 2020 0072 04D0     		beq	.L105
 2021              		.loc 1 506 0 is_stmt 0 discriminator 1
 2022 0074 97F82F30 		ldrb	r3, [r7, #47]	@ zero_extendqisi2
 2023 0078 2C2B     		cmp	r3, #44
 2024 007a 00D1     		bne	.L105
 507:.\DisplayUtils.c ****                 return;
 2025              		.loc 1 507 0 is_stmt 1
 2026 007c BCE0     		b	.L98
 2027              	.L105:
 508:.\DisplayUtils.c **** 
 509:.\DisplayUtils.c ****             //If no decimals are allowed, just return
 510:.\DisplayUtils.c ****             if((_g_dispenserlayoutinfo._moneydecimals == 0) && (mappedchar == (char8)','))
 2028              		.loc 1 510 0
 2029 007e 604B     		ldr	r3, .L114
ARM GAS  C:\Users\Lenovo\AppData\Local\Temp\ccKs44LO.s 			page 46


 2030 0080 DB79     		ldrb	r3, [r3, #7]	@ zero_extendqisi2
 2031 0082 002B     		cmp	r3, #0
 2032 0084 04D1     		bne	.L106
 2033              		.loc 1 510 0 is_stmt 0 discriminator 1
 2034 0086 97F82F30 		ldrb	r3, [r7, #47]	@ zero_extendqisi2
 2035 008a 2C2B     		cmp	r3, #44
 2036 008c 00D1     		bne	.L106
 511:.\DisplayUtils.c ****                 return;
 2037              		.loc 1 511 0 is_stmt 1
 2038 008e B3E0     		b	.L98
 2039              	.L106:
 512:.\DisplayUtils.c ****                         
 513:.\DisplayUtils.c ****             char tempbuffer[16];
 514:.\DisplayUtils.c ****             memset(tempbuffer, 0x00, 16);
 2040              		.loc 1 514 0
 2041 0090 07F10C03 		add	r3, r7, #12
 2042 0094 1846     		mov	r0, r3
 2043 0096 0021     		movs	r1, #0
 2044 0098 1022     		movs	r2, #16
 2045 009a FFF7FEFF 		bl	memset
 515:.\DisplayUtils.c ****             memcpy(tempbuffer, pdisplay->_bufferinfo._buffer, pdisplay->_bufferinfo._bufferindex);
 2046              		.loc 1 515 0
 2047 009e BB6A     		ldr	r3, [r7, #40]
 2048 00a0 03F11D02 		add	r2, r3, #29
 2049 00a4 BB6A     		ldr	r3, [r7, #40]
 2050 00a6 1B7F     		ldrb	r3, [r3, #28]	@ zero_extendqisi2
 2051 00a8 1C46     		mov	r4, r3
 2052 00aa 07F10C03 		add	r3, r7, #12
 2053 00ae 1846     		mov	r0, r3
 2054 00b0 1146     		mov	r1, r2
 2055 00b2 2246     		mov	r2, r4
 2056 00b4 FFF7FEFF 		bl	memcpy
 516:.\DisplayUtils.c ****             char *ptrpos = strchr(tempbuffer, (char8)',');
 2057              		.loc 1 516 0
 2058 00b8 07F10C03 		add	r3, r7, #12
 2059 00bc 1846     		mov	r0, r3
 2060 00be 2C21     		movs	r1, #44
 2061 00c0 FFF7FEFF 		bl	strchr
 2062 00c4 7862     		str	r0, [r7, #36]
 517:.\DisplayUtils.c ****             if(ptrpos)
 2063              		.loc 1 517 0
 2064 00c6 7B6A     		ldr	r3, [r7, #36]
 2065 00c8 002B     		cmp	r3, #0
 2066 00ca 05D0     		beq	.L101
 518:.\DisplayUtils.c ****                 if(strlen(ptrpos) > 0)//_g_dispenserlayoutinfo._moneydecimals)
 2067              		.loc 1 518 0
 2068 00cc 7B6A     		ldr	r3, [r7, #36]
 2069 00ce 1B78     		ldrb	r3, [r3]	@ zero_extendqisi2
 2070 00d0 002B     		cmp	r3, #0
 2071 00d2 01D0     		beq	.L101
 519:.\DisplayUtils.c ****                     return;
 2072              		.loc 1 519 0
 2073 00d4 00BF     		nop
 2074 00d6 8FE0     		b	.L98
 2075              	.L101:
 2076              	.LBE12:
 520:.\DisplayUtils.c ****         }
ARM GAS  C:\Users\Lenovo\AppData\Local\Temp\ccKs44LO.s 			page 47


 521:.\DisplayUtils.c ****         
 522:.\DisplayUtils.c ****         if(pdisplay->_bufferinfo._bufferindex == 0)
 2077              		.loc 1 522 0
 2078 00d8 BB6A     		ldr	r3, [r7, #40]
 2079 00da 1B7F     		ldrb	r3, [r3, #28]	@ zero_extendqisi2
 2080 00dc 002B     		cmp	r3, #0
 2081 00de 10D1     		bne	.L108
 523:.\DisplayUtils.c ****         {
 524:.\DisplayUtils.c ****             pdisplay->_bufferinfo._xpos = pdisplay->_pcurrflow->_inputboxinfo._xdefpos;
 2082              		.loc 1 524 0
 2083 00e0 BB6A     		ldr	r3, [r7, #40]
 2084 00e2 1B69     		ldr	r3, [r3, #16]
 2085 00e4 9A8D     		ldrh	r2, [r3, #44]
 2086 00e6 BB6A     		ldr	r3, [r7, #40]
 2087 00e8 1A83     		strh	r2, [r3, #24]	@ movhi
 525:.\DisplayUtils.c ****             pdisplay->_bufferinfo._ypos = pdisplay->_pcurrflow->_inputboxinfo._ydefpos;
 2088              		.loc 1 525 0
 2089 00ea BB6A     		ldr	r3, [r7, #40]
 2090 00ec 1B69     		ldr	r3, [r3, #16]
 2091 00ee DA8D     		ldrh	r2, [r3, #46]
 2092 00f0 BB6A     		ldr	r3, [r7, #40]
 2093 00f2 5A83     		strh	r2, [r3, #26]	@ movhi
 526:.\DisplayUtils.c ****             memset(pdisplay->_bufferinfo._buffer, ' ', _DISPLAY_BUFFER_SIZE_);
 2094              		.loc 1 526 0
 2095 00f4 BB6A     		ldr	r3, [r7, #40]
 2096 00f6 1D33     		adds	r3, r3, #29
 2097 00f8 1846     		mov	r0, r3
 2098 00fa 2021     		movs	r1, #32
 2099 00fc 1022     		movs	r2, #16
 2100 00fe FFF7FEFF 		bl	memset
 2101              	.L108:
 527:.\DisplayUtils.c ****         }
 528:.\DisplayUtils.c ****         //The InputBox is already filled up!
 529:.\DisplayUtils.c ****         if(pdisplay->_bufferinfo._bufferindex >= pdisplay->_pcurrflow->_inputboxinfo._maxchars || p
 2102              		.loc 1 529 0
 2103 0102 BB6A     		ldr	r3, [r7, #40]
 2104 0104 1A7F     		ldrb	r2, [r3, #28]	@ zero_extendqisi2
 2105 0106 BB6A     		ldr	r3, [r7, #40]
 2106 0108 1B69     		ldr	r3, [r3, #16]
 2107 010a 93F83030 		ldrb	r3, [r3, #48]	@ zero_extendqisi2
 2108 010e 9A42     		cmp	r2, r3
 2109 0110 05D2     		bcs	.L109
 2110              		.loc 1 529 0 is_stmt 0 discriminator 1
 2111 0112 BB6A     		ldr	r3, [r7, #40]
 2112 0114 1A7F     		ldrb	r2, [r3, #28]	@ zero_extendqisi2
 2113 0116 3A4B     		ldr	r3, .L114
 2114 0118 1B7C     		ldrb	r3, [r3, #16]	@ zero_extendqisi2
 2115 011a 9A42     		cmp	r2, r3
 2116 011c 00D3     		bcc	.L110
 2117              	.L109:
 530:.\DisplayUtils.c ****             return;
 2118              		.loc 1 530 0 is_stmt 1
 2119 011e 6BE0     		b	.L98
 2120              	.L110:
 531:.\DisplayUtils.c ****         
 532:.\DisplayUtils.c ****         //There's nothing new to show up since the unmapper didn't find anything to map to
 533:.\DisplayUtils.c ****         if(mappedchar != 0x00)
ARM GAS  C:\Users\Lenovo\AppData\Local\Temp\ccKs44LO.s 			page 48


 2121              		.loc 1 533 0
 2122 0120 97F82F30 		ldrb	r3, [r7, #47]	@ zero_extendqisi2
 2123 0124 002B     		cmp	r3, #0
 2124 0126 0BD0     		beq	.L111
 534:.\DisplayUtils.c ****             pdisplay->_bufferinfo._buffer[pdisplay->_bufferinfo._bufferindex++] = mappedchar;
 2125              		.loc 1 534 0
 2126 0128 BB6A     		ldr	r3, [r7, #40]
 2127 012a 1B7F     		ldrb	r3, [r3, #28]	@ zero_extendqisi2
 2128 012c 5A1C     		adds	r2, r3, #1
 2129 012e D1B2     		uxtb	r1, r2
 2130 0130 BA6A     		ldr	r2, [r7, #40]
 2131 0132 1177     		strb	r1, [r2, #28]
 2132 0134 1A46     		mov	r2, r3
 2133 0136 BB6A     		ldr	r3, [r7, #40]
 2134 0138 1344     		add	r3, r3, r2
 2135 013a 97F82F20 		ldrb	r2, [r7, #47]
 2136 013e 5A77     		strb	r2, [r3, #29]
 2137              	.L111:
 535:.\DisplayUtils.c ****         
 536:.\DisplayUtils.c ****         if(pdisplay->_dispid == DISPLAY1)
 2138              		.loc 1 536 0
 2139 0140 BB6A     		ldr	r3, [r7, #40]
 2140 0142 1B78     		ldrb	r3, [r3]	@ zero_extendqisi2
 2141 0144 002B     		cmp	r3, #0
 2142 0146 2CD1     		bne	.L112
 2143              	.LBB13:
 537:.\DisplayUtils.c ****         {
 538:.\DisplayUtils.c ****             UARTMessage *puartdisp = GetUARTMessageSlot(UART_DISPLAY1);
 2144              		.loc 1 538 0
 2145 0148 A320     		movs	r0, #163
 2146 014a FFF7FEFF 		bl	GetUARTMessageSlot
 2147 014e 3862     		str	r0, [r7, #32]
 539:.\DisplayUtils.c ****             if(puartdisp)
 2148              		.loc 1 539 0
 2149 0150 3B6A     		ldr	r3, [r7, #32]
 2150 0152 002B     		cmp	r3, #0
 2151 0154 24D0     		beq	.L113
 540:.\DisplayUtils.c ****             {
 541:.\DisplayUtils.c ****                 puartdisp->_messagelength = DisplayOutputString(pdisplay->_bufferinfo._xpos, pdispl
 2152              		.loc 1 541 0
 2153 0156 BB6A     		ldr	r3, [r7, #40]
 2154 0158 B3F818E0 		ldrh	lr, [r3, #24]
 2155 015c BB6A     		ldr	r3, [r7, #40]
 2156 015e 5E8B     		ldrh	r6, [r3, #26]
 2157 0160 3B6A     		ldr	r3, [r7, #32]
 2158 0162 1D1D     		adds	r5, r3, #4
 2159 0164 BB6A     		ldr	r3, [r7, #40]
 2160 0166 03F11D04 		add	r4, r3, #29
 2161 016a BB6A     		ldr	r3, [r7, #40]
 2162 016c 1B69     		ldr	r3, [r3, #16]
 2163 016e 93F83030 		ldrb	r3, [r3, #48]	@ zero_extendqisi2
 2164 0172 9BB2     		uxth	r3, r3
 2165 0174 BA6A     		ldr	r2, [r7, #40]
 2166 0176 1269     		ldr	r2, [r2, #16]
 2167 0178 0093     		str	r3, [sp]
 2168 017a 01AB     		add	r3, sp, #4
 2169 017c 3232     		adds	r2, r2, #50
ARM GAS  C:\Users\Lenovo\AppData\Local\Temp\ccKs44LO.s 			page 49


 2170 017e 1068     		ldr	r0, [r2]	@ unaligned
 2171 0180 5168     		ldr	r1, [r2, #4]	@ unaligned
 2172 0182 03C3     		stmia	r3!, {r0, r1}
 2173 0184 7046     		mov	r0, lr
 2174 0186 3146     		mov	r1, r6
 2175 0188 2A46     		mov	r2, r5
 2176 018a 2346     		mov	r3, r4
 2177 018c FFF7FEFF 		bl	DisplayOutputString
 2178 0190 0346     		mov	r3, r0
 2179 0192 1A46     		mov	r2, r3
 2180 0194 3B6A     		ldr	r3, [r7, #32]
 2181 0196 5A80     		strh	r2, [r3, #2]	@ movhi
 542:.\DisplayUtils.c ****                 puartdisp->_messagestate = PENDING;
 2182              		.loc 1 542 0
 2183 0198 3B6A     		ldr	r3, [r7, #32]
 2184 019a C222     		movs	r2, #194
 2185 019c 1A70     		strb	r2, [r3]
 2186              	.LBE13:
 2187 019e 2BE0     		b	.L98
 2188              	.L113:
 2189 01a0 2AE0     		b	.L98
 2190              	.L112:
 2191              	.LBB14:
 543:.\DisplayUtils.c ****             }
 544:.\DisplayUtils.c ****         }
 545:.\DisplayUtils.c ****         else
 546:.\DisplayUtils.c ****         {
 547:.\DisplayUtils.c ****             UARTMessage *puartdisp = GetUARTMessageSlot(UART_DISPLAY2);
 2192              		.loc 1 547 0
 2193 01a2 A420     		movs	r0, #164
 2194 01a4 FFF7FEFF 		bl	GetUARTMessageSlot
 2195 01a8 F861     		str	r0, [r7, #28]
 548:.\DisplayUtils.c ****             if(puartdisp)
 2196              		.loc 1 548 0
 2197 01aa FB69     		ldr	r3, [r7, #28]
 2198 01ac 002B     		cmp	r3, #0
 2199 01ae 23D0     		beq	.L98
 549:.\DisplayUtils.c ****             {
 550:.\DisplayUtils.c ****                 puartdisp->_messagelength = DisplayOutputString(pdisplay->_bufferinfo._xpos, pdispl
 2200              		.loc 1 550 0
 2201 01b0 BB6A     		ldr	r3, [r7, #40]
 2202 01b2 B3F818E0 		ldrh	lr, [r3, #24]
 2203 01b6 BB6A     		ldr	r3, [r7, #40]
 2204 01b8 5E8B     		ldrh	r6, [r3, #26]
 2205 01ba FB69     		ldr	r3, [r7, #28]
 2206 01bc 1D1D     		adds	r5, r3, #4
 2207 01be BB6A     		ldr	r3, [r7, #40]
 2208 01c0 03F11D04 		add	r4, r3, #29
 2209 01c4 BB6A     		ldr	r3, [r7, #40]
 2210 01c6 1B69     		ldr	r3, [r3, #16]
 2211 01c8 93F83030 		ldrb	r3, [r3, #48]	@ zero_extendqisi2
 2212 01cc 9BB2     		uxth	r3, r3
 2213 01ce BA6A     		ldr	r2, [r7, #40]
 2214 01d0 1269     		ldr	r2, [r2, #16]
 2215 01d2 0093     		str	r3, [sp]
 2216 01d4 01AB     		add	r3, sp, #4
 2217 01d6 3232     		adds	r2, r2, #50
ARM GAS  C:\Users\Lenovo\AppData\Local\Temp\ccKs44LO.s 			page 50


 2218 01d8 1068     		ldr	r0, [r2]	@ unaligned
 2219 01da 5168     		ldr	r1, [r2, #4]	@ unaligned
 2220 01dc 03C3     		stmia	r3!, {r0, r1}
 2221 01de 7046     		mov	r0, lr
 2222 01e0 3146     		mov	r1, r6
 2223 01e2 2A46     		mov	r2, r5
 2224 01e4 2346     		mov	r3, r4
 2225 01e6 FFF7FEFF 		bl	DisplayOutputString
 2226 01ea 0346     		mov	r3, r0
 2227 01ec 1A46     		mov	r2, r3
 2228 01ee FB69     		ldr	r3, [r7, #28]
 2229 01f0 5A80     		strh	r2, [r3, #2]	@ movhi
 551:.\DisplayUtils.c ****                 puartdisp->_messagestate = PENDING;
 2230              		.loc 1 551 0
 2231 01f2 FB69     		ldr	r3, [r7, #28]
 2232 01f4 C222     		movs	r2, #194
 2233 01f6 1A70     		strb	r2, [r3]
 2234              	.L98:
 2235              	.LBE14:
 2236              	.LBE11:
 552:.\DisplayUtils.c ****             }
 553:.\DisplayUtils.c ****         }
 554:.\DisplayUtils.c ****         
 555:.\DisplayUtils.c ****     }
 556:.\DisplayUtils.c **** }
 2237              		.loc 1 556 0
 2238 01f8 3437     		adds	r7, r7, #52
 2239              		.cfi_def_cfa_offset 20
 2240 01fa BD46     		mov	sp, r7
 2241              		.cfi_def_cfa_register 13
 2242              		@ sp needed
 2243 01fc F0BD     		pop	{r4, r5, r6, r7, pc}
 2244              	.L115:
 2245 01fe 00BF     		.align	2
 2246              	.L114:
 2247 0200 00000000 		.word	_g_dispenserlayoutinfo
 2248              		.cfi_endproc
 2249              	.LFE78:
 2250              		.size	DisplayMoneyInputHandler, .-DisplayMoneyInputHandler
 2251              		.section	.text.DisplayVolumeInputHandler,"ax",%progbits
 2252              		.align	2
 2253              		.global	DisplayVolumeInputHandler
 2254              		.thumb
 2255              		.thumb_func
 2256              		.type	DisplayVolumeInputHandler, %function
 2257              	DisplayVolumeInputHandler:
 2258              	.LFB79:
 557:.\DisplayUtils.c **** 
 558:.\DisplayUtils.c **** //@Created by: HIJH
 559:.\DisplayUtils.c **** //@Date: Septembre de 2016
 560:.\DisplayUtils.c **** //This method handles numeric input data typed in a InputBox
 561:.\DisplayUtils.c **** void DisplayVolumeInputHandler(void *pparam)
 562:.\DisplayUtils.c **** {
 2259              		.loc 1 562 0
 2260              		.cfi_startproc
 2261              		@ args = 0, pretend = 0, frame = 48
 2262              		@ frame_needed = 1, uses_anonymous_args = 0
ARM GAS  C:\Users\Lenovo\AppData\Local\Temp\ccKs44LO.s 			page 51


 2263 0000 F0B5     		push	{r4, r5, r6, r7, lr}
 2264              		.cfi_def_cfa_offset 20
 2265              		.cfi_offset 4, -20
 2266              		.cfi_offset 5, -16
 2267              		.cfi_offset 6, -12
 2268              		.cfi_offset 7, -8
 2269              		.cfi_offset 14, -4
 2270 0002 91B0     		sub	sp, sp, #68
 2271              		.cfi_def_cfa_offset 88
 2272 0004 04AF     		add	r7, sp, #16
 2273              		.cfi_def_cfa 7, 72
 2274 0006 7860     		str	r0, [r7, #4]
 563:.\DisplayUtils.c ****     DisplayLayout *pdisplay = (DisplayLayout*)pparam;
 2275              		.loc 1 563 0
 2276 0008 7B68     		ldr	r3, [r7, #4]
 2277 000a BB62     		str	r3, [r7, #40]
 564:.\DisplayUtils.c ****     if(pdisplay)
 2278              		.loc 1 564 0
 2279 000c BB6A     		ldr	r3, [r7, #40]
 2280 000e 002B     		cmp	r3, #0
 2281 0010 00F00D81 		beq	.L116
 2282              	.LBB15:
 565:.\DisplayUtils.c ****     {
 566:.\DisplayUtils.c ****         char8 mappedchar = 0x00;
 2283              		.loc 1 566 0
 2284 0014 0023     		movs	r3, #0
 2285 0016 87F82F30 		strb	r3, [r7, #47]
 567:.\DisplayUtils.c ****         //This is since 0x0B has been defined as "Cancel" in the keypad
 568:.\DisplayUtils.c ****         if(pdisplay->_currscrcode == 0x0B)
 2286              		.loc 1 568 0
 2287 001a BB6A     		ldr	r3, [r7, #40]
 2288 001c DB78     		ldrb	r3, [r3, #3]	@ zero_extendqisi2
 2289 001e 0B2B     		cmp	r3, #11
 2290 0020 0AD1     		bne	.L118
 569:.\DisplayUtils.c ****         {
 570:.\DisplayUtils.c ****             pdisplay->_bufferinfo._bufferindex = 0;
 2291              		.loc 1 570 0
 2292 0022 BB6A     		ldr	r3, [r7, #40]
 2293 0024 0022     		movs	r2, #0
 2294 0026 1A77     		strb	r2, [r3, #28]
 571:.\DisplayUtils.c ****             memset(pdisplay->_bufferinfo._buffer, 0x00, _DISPLAY_BUFFER_SIZE_);
 2295              		.loc 1 571 0
 2296 0028 BB6A     		ldr	r3, [r7, #40]
 2297 002a 1D33     		adds	r3, r3, #29
 2298 002c 1846     		mov	r0, r3
 2299 002e 0021     		movs	r1, #0
 2300 0030 1022     		movs	r2, #16
 2301 0032 FFF7FEFF 		bl	memset
 2302 0036 68E0     		b	.L119
 2303              	.L118:
 2304              	.LBB16:
 572:.\DisplayUtils.c ****         }
 573:.\DisplayUtils.c ****         else
 574:.\DisplayUtils.c ****         {
 575:.\DisplayUtils.c ****             mappedchar = UnmapCode(pdisplay->_currscrcode);
 2305              		.loc 1 575 0
 2306 0038 BB6A     		ldr	r3, [r7, #40]
ARM GAS  C:\Users\Lenovo\AppData\Local\Temp\ccKs44LO.s 			page 52


 2307 003a DB78     		ldrb	r3, [r3, #3]	@ zero_extendqisi2
 2308 003c 1846     		mov	r0, r3
 2309 003e FFF7FEFF 		bl	UnmapCode
 2310 0042 0346     		mov	r3, r0
 2311 0044 87F82F30 		strb	r3, [r7, #47]
 576:.\DisplayUtils.c ****             
 577:.\DisplayUtils.c ****             //No zeros allowed as left most significant digits
 578:.\DisplayUtils.c ****             if((mappedchar < 0x30 || mappedchar > 0x39) && (pdisplay->_bufferinfo._bufferindex == 0
 2312              		.loc 1 578 0
 2313 0048 97F82F30 		ldrb	r3, [r7, #47]	@ zero_extendqisi2
 2314 004c 2F2B     		cmp	r3, #47
 2315 004e 03D9     		bls	.L120
 2316              		.loc 1 578 0 is_stmt 0 discriminator 2
 2317 0050 97F82F30 		ldrb	r3, [r7, #47]	@ zero_extendqisi2
 2318 0054 392B     		cmp	r3, #57
 2319 0056 04D9     		bls	.L121
 2320              	.L120:
 2321              		.loc 1 578 0 discriminator 3
 2322 0058 BB6A     		ldr	r3, [r7, #40]
 2323 005a 1B7F     		ldrb	r3, [r3, #28]	@ zero_extendqisi2
 2324 005c 002B     		cmp	r3, #0
 2325 005e 00D1     		bne	.L121
 579:.\DisplayUtils.c ****                 return;
 2326              		.loc 1 579 0 is_stmt 1
 2327 0060 E5E0     		b	.L116
 2328              	.L121:
 580:.\DisplayUtils.c ****             
 581:.\DisplayUtils.c ****             //Just one decimal delimiter allowed
 582:.\DisplayUtils.c ****             if(strchr(pdisplay->_bufferinfo._buffer, (char8)',') && (mappedchar == (char8)','))
 2329              		.loc 1 582 0
 2330 0062 BB6A     		ldr	r3, [r7, #40]
 2331 0064 1D33     		adds	r3, r3, #29
 2332 0066 1846     		mov	r0, r3
 2333 0068 2C21     		movs	r1, #44
 2334 006a FFF7FEFF 		bl	strchr
 2335 006e 0346     		mov	r3, r0
 2336 0070 002B     		cmp	r3, #0
 2337 0072 04D0     		beq	.L123
 2338              		.loc 1 582 0 is_stmt 0 discriminator 1
 2339 0074 97F82F30 		ldrb	r3, [r7, #47]	@ zero_extendqisi2
 2340 0078 2C2B     		cmp	r3, #44
 2341 007a 00D1     		bne	.L123
 583:.\DisplayUtils.c ****                 return;
 2342              		.loc 1 583 0 is_stmt 1
 2343 007c D7E0     		b	.L116
 2344              	.L123:
 584:.\DisplayUtils.c **** 
 585:.\DisplayUtils.c ****             //Just one zero before the decimal delimiter allowed
 586:.\DisplayUtils.c ****             if(pdisplay->_bufferinfo._buffer[0] == 0x30 && (mappedchar == (char8)',' && pdisplay->_
 2345              		.loc 1 586 0
 2346 007e BB6A     		ldr	r3, [r7, #40]
 2347 0080 5B7F     		ldrb	r3, [r3, #29]	@ zero_extendqisi2
 2348 0082 302B     		cmp	r3, #48
 2349 0084 08D1     		bne	.L124
 2350              		.loc 1 586 0 is_stmt 0 discriminator 1
 2351 0086 97F82F30 		ldrb	r3, [r7, #47]	@ zero_extendqisi2
 2352 008a 2C2B     		cmp	r3, #44
ARM GAS  C:\Users\Lenovo\AppData\Local\Temp\ccKs44LO.s 			page 53


 2353 008c 04D1     		bne	.L124
 2354              		.loc 1 586 0 discriminator 2
 2355 008e BB6A     		ldr	r3, [r7, #40]
 2356 0090 9B7F     		ldrb	r3, [r3, #30]	@ zero_extendqisi2
 2357 0092 2C2B     		cmp	r3, #44
 2358 0094 00D1     		bne	.L124
 587:.\DisplayUtils.c ****                 return;
 2359              		.loc 1 587 0 is_stmt 1
 2360 0096 CAE0     		b	.L116
 2361              	.L124:
 588:.\DisplayUtils.c ****             
 589:.\DisplayUtils.c ****             //If no decimals allowed just return
 590:.\DisplayUtils.c ****             if((_g_dispenserlayoutinfo._volumedecimals == 0) && (mappedchar == (char8)','))
 2362              		.loc 1 590 0
 2363 0098 664B     		ldr	r3, .L135
 2364 009a 5B7A     		ldrb	r3, [r3, #9]	@ zero_extendqisi2
 2365 009c 002B     		cmp	r3, #0
 2366 009e 04D1     		bne	.L125
 2367              		.loc 1 590 0 is_stmt 0 discriminator 1
 2368 00a0 97F82F30 		ldrb	r3, [r7, #47]	@ zero_extendqisi2
 2369 00a4 2C2B     		cmp	r3, #44
 2370 00a6 00D1     		bne	.L125
 591:.\DisplayUtils.c ****                 return;
 2371              		.loc 1 591 0 is_stmt 1
 2372 00a8 C1E0     		b	.L116
 2373              	.L125:
 592:.\DisplayUtils.c ****             
 593:.\DisplayUtils.c ****             char tempbuffer[16];
 594:.\DisplayUtils.c ****             memset(tempbuffer, 0x00, 16);
 2374              		.loc 1 594 0
 2375 00aa 07F10C03 		add	r3, r7, #12
 2376 00ae 1846     		mov	r0, r3
 2377 00b0 0021     		movs	r1, #0
 2378 00b2 1022     		movs	r2, #16
 2379 00b4 FFF7FEFF 		bl	memset
 595:.\DisplayUtils.c ****             memcpy(tempbuffer, pdisplay->_bufferinfo._buffer, pdisplay->_bufferinfo._bufferindex);
 2380              		.loc 1 595 0
 2381 00b8 BB6A     		ldr	r3, [r7, #40]
 2382 00ba 03F11D02 		add	r2, r3, #29
 2383 00be BB6A     		ldr	r3, [r7, #40]
 2384 00c0 1B7F     		ldrb	r3, [r3, #28]	@ zero_extendqisi2
 2385 00c2 1C46     		mov	r4, r3
 2386 00c4 07F10C03 		add	r3, r7, #12
 2387 00c8 1846     		mov	r0, r3
 2388 00ca 1146     		mov	r1, r2
 2389 00cc 2246     		mov	r2, r4
 2390 00ce FFF7FEFF 		bl	memcpy
 596:.\DisplayUtils.c ****             char *ptrpos = strchr(tempbuffer, (char8)',');
 2391              		.loc 1 596 0
 2392 00d2 07F10C03 		add	r3, r7, #12
 2393 00d6 1846     		mov	r0, r3
 2394 00d8 2C21     		movs	r1, #44
 2395 00da FFF7FEFF 		bl	strchr
 2396 00de 7862     		str	r0, [r7, #36]
 597:.\DisplayUtils.c ****             if(ptrpos)
 2397              		.loc 1 597 0
 2398 00e0 7B6A     		ldr	r3, [r7, #36]
ARM GAS  C:\Users\Lenovo\AppData\Local\Temp\ccKs44LO.s 			page 54


 2399 00e2 002B     		cmp	r3, #0
 2400 00e4 11D0     		beq	.L119
 598:.\DisplayUtils.c ****                 if(strlen(ptrpos) > ((_g_dispenserlayoutinfo._displaydigitsmode == 0x06)?_g_dispens
 2401              		.loc 1 598 0
 2402 00e6 786A     		ldr	r0, [r7, #36]
 2403 00e8 FFF7FEFF 		bl	strlen
 2404 00ec 0246     		mov	r2, r0
 2405 00ee 514B     		ldr	r3, .L135
 2406 00f0 1B7C     		ldrb	r3, [r3, #16]	@ zero_extendqisi2
 2407 00f2 062B     		cmp	r3, #6
 2408 00f4 03D1     		bne	.L127
 2409              		.loc 1 598 0 is_stmt 0 discriminator 1
 2410 00f6 4F4B     		ldr	r3, .L135
 2411 00f8 5B7A     		ldrb	r3, [r3, #9]	@ zero_extendqisi2
 2412 00fa 013B     		subs	r3, r3, #1
 2413 00fc 01E0     		b	.L128
 2414              	.L127:
 2415              		.loc 1 598 0 discriminator 2
 2416 00fe 4D4B     		ldr	r3, .L135
 2417 0100 5B7A     		ldrb	r3, [r3, #9]	@ zero_extendqisi2
 2418              	.L128:
 2419              		.loc 1 598 0 discriminator 4
 2420 0102 9A42     		cmp	r2, r3
 2421 0104 01D9     		bls	.L119
 599:.\DisplayUtils.c ****                     return;
 2422              		.loc 1 599 0 is_stmt 1
 2423 0106 00BF     		nop
 2424 0108 91E0     		b	.L116
 2425              	.L119:
 2426              	.LBE16:
 600:.\DisplayUtils.c ****             
 601:.\DisplayUtils.c ****             
 602:.\DisplayUtils.c ****         }
 603:.\DisplayUtils.c ****         
 604:.\DisplayUtils.c ****         if(pdisplay->_bufferinfo._bufferindex == 0)
 2427              		.loc 1 604 0
 2428 010a BB6A     		ldr	r3, [r7, #40]
 2429 010c 1B7F     		ldrb	r3, [r3, #28]	@ zero_extendqisi2
 2430 010e 002B     		cmp	r3, #0
 2431 0110 10D1     		bne	.L129
 605:.\DisplayUtils.c ****         {
 606:.\DisplayUtils.c ****             pdisplay->_bufferinfo._xpos = pdisplay->_pcurrflow->_inputboxinfo._xdefpos;
 2432              		.loc 1 606 0
 2433 0112 BB6A     		ldr	r3, [r7, #40]
 2434 0114 1B69     		ldr	r3, [r3, #16]
 2435 0116 9A8D     		ldrh	r2, [r3, #44]
 2436 0118 BB6A     		ldr	r3, [r7, #40]
 2437 011a 1A83     		strh	r2, [r3, #24]	@ movhi
 607:.\DisplayUtils.c ****             pdisplay->_bufferinfo._ypos = pdisplay->_pcurrflow->_inputboxinfo._ydefpos;
 2438              		.loc 1 607 0
 2439 011c BB6A     		ldr	r3, [r7, #40]
 2440 011e 1B69     		ldr	r3, [r3, #16]
 2441 0120 DA8D     		ldrh	r2, [r3, #46]
 2442 0122 BB6A     		ldr	r3, [r7, #40]
 2443 0124 5A83     		strh	r2, [r3, #26]	@ movhi
 608:.\DisplayUtils.c ****             memset(pdisplay->_bufferinfo._buffer, ' ', _DISPLAY_BUFFER_SIZE_);
 2444              		.loc 1 608 0
ARM GAS  C:\Users\Lenovo\AppData\Local\Temp\ccKs44LO.s 			page 55


 2445 0126 BB6A     		ldr	r3, [r7, #40]
 2446 0128 1D33     		adds	r3, r3, #29
 2447 012a 1846     		mov	r0, r3
 2448 012c 2021     		movs	r1, #32
 2449 012e 1022     		movs	r2, #16
 2450 0130 FFF7FEFF 		bl	memset
 2451              	.L129:
 609:.\DisplayUtils.c ****         }
 610:.\DisplayUtils.c ****         //The InputBox is already filled up!
 611:.\DisplayUtils.c ****         if(pdisplay->_bufferinfo._bufferindex >= pdisplay->_pcurrflow->_inputboxinfo._maxchars || p
 2452              		.loc 1 611 0
 2453 0134 BB6A     		ldr	r3, [r7, #40]
 2454 0136 1A7F     		ldrb	r2, [r3, #28]	@ zero_extendqisi2
 2455 0138 BB6A     		ldr	r3, [r7, #40]
 2456 013a 1B69     		ldr	r3, [r3, #16]
 2457 013c 93F83030 		ldrb	r3, [r3, #48]	@ zero_extendqisi2
 2458 0140 9A42     		cmp	r2, r3
 2459 0142 07D2     		bcs	.L130
 2460              		.loc 1 611 0 is_stmt 0 discriminator 1
 2461 0144 BB6A     		ldr	r3, [r7, #40]
 2462 0146 1B7F     		ldrb	r3, [r3, #28]	@ zero_extendqisi2
 2463 0148 1A46     		mov	r2, r3
 2464 014a 3A4B     		ldr	r3, .L135
 2465 014c 1B7C     		ldrb	r3, [r3, #16]	@ zero_extendqisi2
 2466 014e 013B     		subs	r3, r3, #1
 2467 0150 9A42     		cmp	r2, r3
 2468 0152 00DB     		blt	.L131
 2469              	.L130:
 612:.\DisplayUtils.c ****             return;
 2470              		.loc 1 612 0 is_stmt 1
 2471 0154 6BE0     		b	.L116
 2472              	.L131:
 613:.\DisplayUtils.c ****         
 614:.\DisplayUtils.c ****         //There's nothing new to show up since the unmapper didn't find anything to map to
 615:.\DisplayUtils.c ****         if(mappedchar != 0x00)
 2473              		.loc 1 615 0
 2474 0156 97F82F30 		ldrb	r3, [r7, #47]	@ zero_extendqisi2
 2475 015a 002B     		cmp	r3, #0
 2476 015c 0BD0     		beq	.L132
 616:.\DisplayUtils.c ****             pdisplay->_bufferinfo._buffer[pdisplay->_bufferinfo._bufferindex++] = mappedchar;
 2477              		.loc 1 616 0
 2478 015e BB6A     		ldr	r3, [r7, #40]
 2479 0160 1B7F     		ldrb	r3, [r3, #28]	@ zero_extendqisi2
 2480 0162 5A1C     		adds	r2, r3, #1
 2481 0164 D1B2     		uxtb	r1, r2
 2482 0166 BA6A     		ldr	r2, [r7, #40]
 2483 0168 1177     		strb	r1, [r2, #28]
 2484 016a 1A46     		mov	r2, r3
 2485 016c BB6A     		ldr	r3, [r7, #40]
 2486 016e 1344     		add	r3, r3, r2
 2487 0170 97F82F20 		ldrb	r2, [r7, #47]
 2488 0174 5A77     		strb	r2, [r3, #29]
 2489              	.L132:
 617:.\DisplayUtils.c ****         
 618:.\DisplayUtils.c ****         if(pdisplay->_dispid == DISPLAY1)
 2490              		.loc 1 618 0
 2491 0176 BB6A     		ldr	r3, [r7, #40]
ARM GAS  C:\Users\Lenovo\AppData\Local\Temp\ccKs44LO.s 			page 56


 2492 0178 1B78     		ldrb	r3, [r3]	@ zero_extendqisi2
 2493 017a 002B     		cmp	r3, #0
 2494 017c 2CD1     		bne	.L133
 2495              	.LBB17:
 619:.\DisplayUtils.c ****         {
 620:.\DisplayUtils.c ****             UARTMessage *puartdisp = GetUARTMessageSlot(UART_DISPLAY1);
 2496              		.loc 1 620 0
 2497 017e A320     		movs	r0, #163
 2498 0180 FFF7FEFF 		bl	GetUARTMessageSlot
 2499 0184 3862     		str	r0, [r7, #32]
 621:.\DisplayUtils.c ****             if(puartdisp)
 2500              		.loc 1 621 0
 2501 0186 3B6A     		ldr	r3, [r7, #32]
 2502 0188 002B     		cmp	r3, #0
 2503 018a 24D0     		beq	.L134
 622:.\DisplayUtils.c ****             {
 623:.\DisplayUtils.c ****                 puartdisp->_messagelength = DisplayOutputString(pdisplay->_bufferinfo._xpos, pdispl
 2504              		.loc 1 623 0
 2505 018c BB6A     		ldr	r3, [r7, #40]
 2506 018e B3F818E0 		ldrh	lr, [r3, #24]
 2507 0192 BB6A     		ldr	r3, [r7, #40]
 2508 0194 5E8B     		ldrh	r6, [r3, #26]
 2509 0196 3B6A     		ldr	r3, [r7, #32]
 2510 0198 1D1D     		adds	r5, r3, #4
 2511 019a BB6A     		ldr	r3, [r7, #40]
 2512 019c 03F11D04 		add	r4, r3, #29
 2513 01a0 BB6A     		ldr	r3, [r7, #40]
 2514 01a2 1B69     		ldr	r3, [r3, #16]
 2515 01a4 93F83030 		ldrb	r3, [r3, #48]	@ zero_extendqisi2
 2516 01a8 9BB2     		uxth	r3, r3
 2517 01aa BA6A     		ldr	r2, [r7, #40]
 2518 01ac 1269     		ldr	r2, [r2, #16]
 2519 01ae 0093     		str	r3, [sp]
 2520 01b0 01AB     		add	r3, sp, #4
 2521 01b2 3232     		adds	r2, r2, #50
 2522 01b4 1068     		ldr	r0, [r2]	@ unaligned
 2523 01b6 5168     		ldr	r1, [r2, #4]	@ unaligned
 2524 01b8 03C3     		stmia	r3!, {r0, r1}
 2525 01ba 7046     		mov	r0, lr
 2526 01bc 3146     		mov	r1, r6
 2527 01be 2A46     		mov	r2, r5
 2528 01c0 2346     		mov	r3, r4
 2529 01c2 FFF7FEFF 		bl	DisplayOutputString
 2530 01c6 0346     		mov	r3, r0
 2531 01c8 1A46     		mov	r2, r3
 2532 01ca 3B6A     		ldr	r3, [r7, #32]
 2533 01cc 5A80     		strh	r2, [r3, #2]	@ movhi
 624:.\DisplayUtils.c ****                 puartdisp->_messagestate = PENDING;
 2534              		.loc 1 624 0
 2535 01ce 3B6A     		ldr	r3, [r7, #32]
 2536 01d0 C222     		movs	r2, #194
 2537 01d2 1A70     		strb	r2, [r3]
 2538              	.LBE17:
 2539 01d4 2BE0     		b	.L116
 2540              	.L134:
 2541 01d6 2AE0     		b	.L116
 2542              	.L133:
ARM GAS  C:\Users\Lenovo\AppData\Local\Temp\ccKs44LO.s 			page 57


 2543              	.LBB18:
 625:.\DisplayUtils.c ****             }
 626:.\DisplayUtils.c ****         }
 627:.\DisplayUtils.c ****         else
 628:.\DisplayUtils.c ****         {
 629:.\DisplayUtils.c ****             UARTMessage *puartdisp = GetUARTMessageSlot(UART_DISPLAY2);
 2544              		.loc 1 629 0
 2545 01d8 A420     		movs	r0, #164
 2546 01da FFF7FEFF 		bl	GetUARTMessageSlot
 2547 01de F861     		str	r0, [r7, #28]
 630:.\DisplayUtils.c ****             if(puartdisp)
 2548              		.loc 1 630 0
 2549 01e0 FB69     		ldr	r3, [r7, #28]
 2550 01e2 002B     		cmp	r3, #0
 2551 01e4 23D0     		beq	.L116
 631:.\DisplayUtils.c ****             {
 632:.\DisplayUtils.c ****                 puartdisp->_messagelength = DisplayOutputString(pdisplay->_bufferinfo._xpos, pdispl
 2552              		.loc 1 632 0
 2553 01e6 BB6A     		ldr	r3, [r7, #40]
 2554 01e8 B3F818E0 		ldrh	lr, [r3, #24]
 2555 01ec BB6A     		ldr	r3, [r7, #40]
 2556 01ee 5E8B     		ldrh	r6, [r3, #26]
 2557 01f0 FB69     		ldr	r3, [r7, #28]
 2558 01f2 1D1D     		adds	r5, r3, #4
 2559 01f4 BB6A     		ldr	r3, [r7, #40]
 2560 01f6 03F11D04 		add	r4, r3, #29
 2561 01fa BB6A     		ldr	r3, [r7, #40]
 2562 01fc 1B69     		ldr	r3, [r3, #16]
 2563 01fe 93F83030 		ldrb	r3, [r3, #48]	@ zero_extendqisi2
 2564 0202 9BB2     		uxth	r3, r3
 2565 0204 BA6A     		ldr	r2, [r7, #40]
 2566 0206 1269     		ldr	r2, [r2, #16]
 2567 0208 0093     		str	r3, [sp]
 2568 020a 01AB     		add	r3, sp, #4
 2569 020c 3232     		adds	r2, r2, #50
 2570 020e 1068     		ldr	r0, [r2]	@ unaligned
 2571 0210 5168     		ldr	r1, [r2, #4]	@ unaligned
 2572 0212 03C3     		stmia	r3!, {r0, r1}
 2573 0214 7046     		mov	r0, lr
 2574 0216 3146     		mov	r1, r6
 2575 0218 2A46     		mov	r2, r5
 2576 021a 2346     		mov	r3, r4
 2577 021c FFF7FEFF 		bl	DisplayOutputString
 2578 0220 0346     		mov	r3, r0
 2579 0222 1A46     		mov	r2, r3
 2580 0224 FB69     		ldr	r3, [r7, #28]
 2581 0226 5A80     		strh	r2, [r3, #2]	@ movhi
 633:.\DisplayUtils.c ****                 puartdisp->_messagestate = PENDING;
 2582              		.loc 1 633 0
 2583 0228 FB69     		ldr	r3, [r7, #28]
 2584 022a C222     		movs	r2, #194
 2585 022c 1A70     		strb	r2, [r3]
 2586              	.L116:
 2587              	.LBE18:
 2588              	.LBE15:
 634:.\DisplayUtils.c ****             }
 635:.\DisplayUtils.c ****         }
ARM GAS  C:\Users\Lenovo\AppData\Local\Temp\ccKs44LO.s 			page 58


 636:.\DisplayUtils.c ****         
 637:.\DisplayUtils.c ****     }
 638:.\DisplayUtils.c **** }
 2589              		.loc 1 638 0
 2590 022e 3437     		adds	r7, r7, #52
 2591              		.cfi_def_cfa_offset 20
 2592 0230 BD46     		mov	sp, r7
 2593              		.cfi_def_cfa_register 13
 2594              		@ sp needed
 2595 0232 F0BD     		pop	{r4, r5, r6, r7, pc}
 2596              	.L136:
 2597              		.align	2
 2598              	.L135:
 2599 0234 00000000 		.word	_g_dispenserlayoutinfo
 2600              		.cfi_endproc
 2601              	.LFE79:
 2602              		.size	DisplayVolumeInputHandler, .-DisplayVolumeInputHandler
 2603              		.section	.text.NonEmptyMoneyValidator,"ax",%progbits
 2604              		.align	2
 2605              		.global	NonEmptyMoneyValidator
 2606              		.thumb
 2607              		.thumb_func
 2608              		.type	NonEmptyMoneyValidator, %function
 2609              	NonEmptyMoneyValidator:
 2610              	.LFB80:
 639:.\DisplayUtils.c **** 
 640:.\DisplayUtils.c **** //@Created by: HIJH
 641:.\DisplayUtils.c **** //@Date: Septembre de 2016
 642:.\DisplayUtils.c **** //This method validates that the capture buffer for the current display
 643:.\DisplayUtils.c **** //has received the required information and is not empty
 644:.\DisplayUtils.c **** bool NonEmptyMoneyValidator(void *pparam)
 645:.\DisplayUtils.c **** {
 2611              		.loc 1 645 0
 2612              		.cfi_startproc
 2613              		@ args = 0, pretend = 0, frame = 48
 2614              		@ frame_needed = 1, uses_anonymous_args = 0
 2615 0000 90B5     		push	{r4, r7, lr}
 2616              		.cfi_def_cfa_offset 12
 2617              		.cfi_offset 4, -12
 2618              		.cfi_offset 7, -8
 2619              		.cfi_offset 14, -4
 2620 0002 8DB0     		sub	sp, sp, #52
 2621              		.cfi_def_cfa_offset 64
 2622 0004 00AF     		add	r7, sp, #0
 2623              		.cfi_def_cfa_register 7
 2624 0006 7860     		str	r0, [r7, #4]
 646:.\DisplayUtils.c ****     bool retval = false;
 2625              		.loc 1 646 0
 2626 0008 0023     		movs	r3, #0
 2627 000a 87F82F30 		strb	r3, [r7, #47]
 647:.\DisplayUtils.c ****     char8 tempbuffer[_DISPLAY_BUFFER_SIZE_];
 648:.\DisplayUtils.c ****     DisplayLayout *pdisplay = (DisplayLayout*)pparam;
 2628              		.loc 1 648 0
 2629 000e 7B68     		ldr	r3, [r7, #4]
 2630 0010 BB62     		str	r3, [r7, #40]
 649:.\DisplayUtils.c ****     
 650:.\DisplayUtils.c ****     if(pdisplay->_bufferinfo._bufferindex > 0)
ARM GAS  C:\Users\Lenovo\AppData\Local\Temp\ccKs44LO.s 			page 59


 2631              		.loc 1 650 0
 2632 0012 BB6A     		ldr	r3, [r7, #40]
 2633 0014 1B7F     		ldrb	r3, [r3, #28]	@ zero_extendqisi2
 2634 0016 002B     		cmp	r3, #0
 2635 0018 03D0     		beq	.L138
 651:.\DisplayUtils.c ****         retval = true;
 2636              		.loc 1 651 0
 2637 001a 0123     		movs	r3, #1
 2638 001c 87F82F30 		strb	r3, [r7, #47]
 2639 0020 02E0     		b	.L139
 2640              	.L138:
 652:.\DisplayUtils.c ****     else
 653:.\DisplayUtils.c ****         retval = false;    
 2641              		.loc 1 653 0
 2642 0022 0023     		movs	r3, #0
 2643 0024 87F82F30 		strb	r3, [r7, #47]
 2644              	.L139:
 654:.\DisplayUtils.c ****     
 655:.\DisplayUtils.c ****     if(retval)
 2645              		.loc 1 655 0
 2646 0028 97F82F30 		ldrb	r3, [r7, #47]	@ zero_extendqisi2
 2647 002c 002B     		cmp	r3, #0
 2648 002e 00F08280 		beq	.L140
 2649              	.LBB19:
 656:.\DisplayUtils.c ****     {
 657:.\DisplayUtils.c ****         uint8 remplaces = _DISPLAY_BUFFER_SIZE_ - pdisplay->_bufferinfo._bufferindex;
 2650              		.loc 1 657 0
 2651 0032 BB6A     		ldr	r3, [r7, #40]
 2652 0034 1B7F     		ldrb	r3, [r3, #28]	@ zero_extendqisi2
 2653 0036 C3F11003 		rsb	r3, r3, #16
 2654 003a 87F82730 		strb	r3, [r7, #39]
 658:.\DisplayUtils.c ****         memcpy(tempbuffer, pdisplay->_bufferinfo._buffer, _DISPLAY_BUFFER_SIZE_);
 2655              		.loc 1 658 0
 2656 003e BB6A     		ldr	r3, [r7, #40]
 2657 0040 07F10C04 		add	r4, r7, #12
 2658 0044 1D33     		adds	r3, r3, #29
 2659 0046 1868     		ldr	r0, [r3]	@ unaligned
 2660 0048 5968     		ldr	r1, [r3, #4]	@ unaligned
 2661 004a 9A68     		ldr	r2, [r3, #8]	@ unaligned
 2662 004c DB68     		ldr	r3, [r3, #12]	@ unaligned
 2663 004e 0FC4     		stmia	r4!, {r0, r1, r2, r3}
 659:.\DisplayUtils.c ****         FOR(int8 index = pdisplay->_bufferinfo._bufferindex, index < _DISPLAY_BUFFER_SIZE_, index++
 2664              		.loc 1 659 0
 2665 0050 BB6A     		ldr	r3, [r7, #40]
 2666 0052 1B7F     		ldrb	r3, [r3, #28]	@ zero_extendqisi2
 2667 0054 87F82E30 		strb	r3, [r7, #46]
 2668 0058 0EE0     		b	.L141
 2669              	.L142:
 660:.\DisplayUtils.c ****             tempbuffer[index] = 0x00;
 2670              		.loc 1 660 0 discriminator 3
 2671 005a 97F92E30 		ldrsb	r3, [r7, #46]
 2672 005e 07F13002 		add	r2, r7, #48
 2673 0062 1344     		add	r3, r3, r2
 2674 0064 0022     		movs	r2, #0
 2675 0066 03F8242C 		strb	r2, [r3, #-36]
 659:.\DisplayUtils.c ****         FOR(int8 index = pdisplay->_bufferinfo._bufferindex, index < _DISPLAY_BUFFER_SIZE_, index++
 2676              		.loc 1 659 0 discriminator 3
ARM GAS  C:\Users\Lenovo\AppData\Local\Temp\ccKs44LO.s 			page 60


 2677 006a 97F82E30 		ldrb	r3, [r7, #46]	@ zero_extendqisi2
 2678 006e DBB2     		uxtb	r3, r3
 2679 0070 0133     		adds	r3, r3, #1
 2680 0072 DBB2     		uxtb	r3, r3
 2681 0074 87F82E30 		strb	r3, [r7, #46]
 2682              	.L141:
 659:.\DisplayUtils.c ****         FOR(int8 index = pdisplay->_bufferinfo._bufferindex, index < _DISPLAY_BUFFER_SIZE_, index++
 2683              		.loc 1 659 0 is_stmt 0 discriminator 1
 2684 0078 97F92E30 		ldrsb	r3, [r7, #46]
 2685 007c 0F2B     		cmp	r3, #15
 2686 007e ECDD     		ble	.L142
 661:.\DisplayUtils.c ****         
 662:.\DisplayUtils.c ****         FOR(index = (pdisplay->_bufferinfo._bufferindex - 1), index >= 0, index--)
 2687              		.loc 1 662 0 is_stmt 1
 2688 0080 BB6A     		ldr	r3, [r7, #40]
 2689 0082 1B7F     		ldrb	r3, [r3, #28]	@ zero_extendqisi2
 2690 0084 013B     		subs	r3, r3, #1
 2691 0086 DBB2     		uxtb	r3, r3
 2692 0088 87F82E30 		strb	r3, [r7, #46]
 2693 008c 22E0     		b	.L143
 2694              	.L144:
 663:.\DisplayUtils.c ****         {
 664:.\DisplayUtils.c ****             tempbuffer[index + remplaces] = tempbuffer[index] & 0x0F;
 2695              		.loc 1 664 0 discriminator 3
 2696 008e 97F92E20 		ldrsb	r2, [r7, #46]
 2697 0092 97F82730 		ldrb	r3, [r7, #39]	@ zero_extendqisi2
 2698 0096 1344     		add	r3, r3, r2
 2699 0098 97F92E20 		ldrsb	r2, [r7, #46]
 2700 009c 07F13001 		add	r1, r7, #48
 2701 00a0 0A44     		add	r2, r2, r1
 2702 00a2 12F8242C 		ldrb	r2, [r2, #-36]	@ zero_extendqisi2
 2703 00a6 02F00F02 		and	r2, r2, #15
 2704 00aa D2B2     		uxtb	r2, r2
 2705 00ac 07F13001 		add	r1, r7, #48
 2706 00b0 0B44     		add	r3, r3, r1
 2707 00b2 03F8242C 		strb	r2, [r3, #-36]
 665:.\DisplayUtils.c ****             tempbuffer[index] = 0x00;
 2708              		.loc 1 665 0 discriminator 3
 2709 00b6 97F92E30 		ldrsb	r3, [r7, #46]
 2710 00ba 07F13002 		add	r2, r7, #48
 2711 00be 1344     		add	r3, r3, r2
 2712 00c0 0022     		movs	r2, #0
 2713 00c2 03F8242C 		strb	r2, [r3, #-36]
 662:.\DisplayUtils.c ****         {
 2714              		.loc 1 662 0 discriminator 3
 2715 00c6 97F82E30 		ldrb	r3, [r7, #46]	@ zero_extendqisi2
 2716 00ca DBB2     		uxtb	r3, r3
 2717 00cc 013B     		subs	r3, r3, #1
 2718 00ce DBB2     		uxtb	r3, r3
 2719 00d0 87F82E30 		strb	r3, [r7, #46]
 2720              	.L143:
 662:.\DisplayUtils.c ****         {
 2721              		.loc 1 662 0 is_stmt 0 discriminator 1
 2722 00d4 97F92E30 		ldrsb	r3, [r7, #46]
 2723 00d8 002B     		cmp	r3, #0
 2724 00da D8DA     		bge	.L144
 666:.\DisplayUtils.c ****         }    
ARM GAS  C:\Users\Lenovo\AppData\Local\Temp\ccKs44LO.s 			page 61


 667:.\DisplayUtils.c ****         CastMoneyValue(tempbuffer, _DISPLAY_BUFFER_SIZE_);
 2725              		.loc 1 667 0 is_stmt 1
 2726 00dc 07F10C03 		add	r3, r7, #12
 2727 00e0 1846     		mov	r0, r3
 2728 00e2 1021     		movs	r1, #16
 2729 00e4 FFF7FEFF 		bl	CastMoneyValue
 668:.\DisplayUtils.c ****         PSTRBUFFTOGG((PNEAR_BYTE_PTR)tempbuffer, _DISPLAY_BUFFER_SIZE_);
 2730              		.loc 1 668 0
 2731 00e8 07F10C03 		add	r3, r7, #12
 2732 00ec 1846     		mov	r0, r3
 2733 00ee 1021     		movs	r1, #16
 2734 00f0 FFF7FEFF 		bl	PSTRBUFFTOGG
 669:.\DisplayUtils.c ****         uint32 datavalue = LSDBCDBUFF2HEX((PNEAR_BYTE_PTR)tempbuffer, _DISPLAY_BUFFER_SIZE_);
 2735              		.loc 1 669 0
 2736 00f4 07F10C03 		add	r3, r7, #12
 2737 00f8 1846     		mov	r0, r3
 2738 00fa 1021     		movs	r1, #16
 2739 00fc FFF7FEFF 		bl	LSDBCDBUFF2HEX
 2740 0100 3862     		str	r0, [r7, #32]
 670:.\DisplayUtils.c ****         
 671:.\DisplayUtils.c ****         I2CBusLock();
 2741              		.loc 1 671 0
 2742 0102 FFF7FEFF 		bl	I2CBusLock
 672:.\DisplayUtils.c ****         ClearEepromBuffer();
 2743              		.loc 1 672 0
 2744 0106 FFF7FEFF 		bl	ClearEepromBuffer
 673:.\DisplayUtils.c ****         LoadEepromPage(EEPROM_CONFIGURATION_PAGE5);
 2745              		.loc 1 673 0
 2746 010a 4FF4A070 		mov	r0, #320
 2747 010e FFF7FEFF 		bl	LoadEepromPage
 674:.\DisplayUtils.c ****         uint32 refvalue = LSDBCDBUFF2HEX((PNEAR_BYTE_PTR)&GetEepromBuffer()[0x02], 0x10);          
 2748              		.loc 1 674 0
 2749 0112 FFF7FEFF 		bl	GetEepromBuffer
 2750 0116 0346     		mov	r3, r0
 2751 0118 0233     		adds	r3, r3, #2
 2752 011a 1846     		mov	r0, r3
 2753 011c 1021     		movs	r1, #16
 2754 011e FFF7FEFF 		bl	LSDBCDBUFF2HEX
 2755 0122 F861     		str	r0, [r7, #28]
 675:.\DisplayUtils.c ****         I2CBusUnlock();
 2756              		.loc 1 675 0
 2757 0124 FFF7FEFF 		bl	I2CBusUnlock
 676:.\DisplayUtils.c ****         
 677:.\DisplayUtils.c ****         if(datavalue < refvalue)
 2758              		.loc 1 677 0
 2759 0128 3A6A     		ldr	r2, [r7, #32]
 2760 012a FB69     		ldr	r3, [r7, #28]
 2761 012c 9A42     		cmp	r2, r3
 2762 012e 02D2     		bcs	.L140
 678:.\DisplayUtils.c ****             retval = false;
 2763              		.loc 1 678 0
 2764 0130 0023     		movs	r3, #0
 2765 0132 87F82F30 		strb	r3, [r7, #47]
 2766              	.L140:
 2767              	.LBE19:
 679:.\DisplayUtils.c ****     }
 680:.\DisplayUtils.c ****         
ARM GAS  C:\Users\Lenovo\AppData\Local\Temp\ccKs44LO.s 			page 62


 681:.\DisplayUtils.c ****     return retval;
 2768              		.loc 1 681 0
 2769 0136 97F82F30 		ldrb	r3, [r7, #47]	@ zero_extendqisi2
 682:.\DisplayUtils.c **** }
 2770              		.loc 1 682 0
 2771 013a 1846     		mov	r0, r3
 2772 013c 3437     		adds	r7, r7, #52
 2773              		.cfi_def_cfa_offset 12
 2774 013e BD46     		mov	sp, r7
 2775              		.cfi_def_cfa_register 13
 2776              		@ sp needed
 2777 0140 90BD     		pop	{r4, r7, pc}
 2778              		.cfi_endproc
 2779              	.LFE80:
 2780              		.size	NonEmptyMoneyValidator, .-NonEmptyMoneyValidator
 2781 0142 00BF     		.section	.text.NonEmptyVolumeValidator,"ax",%progbits
 2782              		.align	2
 2783              		.global	NonEmptyVolumeValidator
 2784              		.thumb
 2785              		.thumb_func
 2786              		.type	NonEmptyVolumeValidator, %function
 2787              	NonEmptyVolumeValidator:
 2788              	.LFB81:
 683:.\DisplayUtils.c **** 
 684:.\DisplayUtils.c **** //@Created by: HIJH
 685:.\DisplayUtils.c **** //@Date: Septembre de 2016
 686:.\DisplayUtils.c **** //This method validates that the capture buffer for the current display
 687:.\DisplayUtils.c **** //has received the required information and is not empty
 688:.\DisplayUtils.c **** bool NonEmptyVolumeValidator(void *pparam)
 689:.\DisplayUtils.c **** {
 2789              		.loc 1 689 0
 2790              		.cfi_startproc
 2791              		@ args = 0, pretend = 0, frame = 48
 2792              		@ frame_needed = 1, uses_anonymous_args = 0
 2793 0000 90B5     		push	{r4, r7, lr}
 2794              		.cfi_def_cfa_offset 12
 2795              		.cfi_offset 4, -12
 2796              		.cfi_offset 7, -8
 2797              		.cfi_offset 14, -4
 2798 0002 8DB0     		sub	sp, sp, #52
 2799              		.cfi_def_cfa_offset 64
 2800 0004 00AF     		add	r7, sp, #0
 2801              		.cfi_def_cfa_register 7
 2802 0006 7860     		str	r0, [r7, #4]
 690:.\DisplayUtils.c ****     bool retval = false;
 2803              		.loc 1 690 0
 2804 0008 0023     		movs	r3, #0
 2805 000a 87F82F30 		strb	r3, [r7, #47]
 691:.\DisplayUtils.c ****     char8 tempbuffer[_DISPLAY_BUFFER_SIZE_];
 692:.\DisplayUtils.c ****     DisplayLayout *pdisplay = (DisplayLayout*)pparam;
 2806              		.loc 1 692 0
 2807 000e 7B68     		ldr	r3, [r7, #4]
 2808 0010 BB62     		str	r3, [r7, #40]
 693:.\DisplayUtils.c ****     
 694:.\DisplayUtils.c ****     if(pdisplay->_bufferinfo._bufferindex > 0)
 2809              		.loc 1 694 0
 2810 0012 BB6A     		ldr	r3, [r7, #40]
ARM GAS  C:\Users\Lenovo\AppData\Local\Temp\ccKs44LO.s 			page 63


 2811 0014 1B7F     		ldrb	r3, [r3, #28]	@ zero_extendqisi2
 2812 0016 002B     		cmp	r3, #0
 2813 0018 03D0     		beq	.L147
 695:.\DisplayUtils.c ****         retval = true;
 2814              		.loc 1 695 0
 2815 001a 0123     		movs	r3, #1
 2816 001c 87F82F30 		strb	r3, [r7, #47]
 2817 0020 02E0     		b	.L148
 2818              	.L147:
 696:.\DisplayUtils.c ****     else
 697:.\DisplayUtils.c ****         retval = false;    
 2819              		.loc 1 697 0
 2820 0022 0023     		movs	r3, #0
 2821 0024 87F82F30 		strb	r3, [r7, #47]
 2822              	.L148:
 698:.\DisplayUtils.c ****     
 699:.\DisplayUtils.c ****     if(retval)
 2823              		.loc 1 699 0
 2824 0028 97F82F30 		ldrb	r3, [r7, #47]	@ zero_extendqisi2
 2825 002c 002B     		cmp	r3, #0
 2826 002e 00F08180 		beq	.L149
 2827              	.LBB20:
 700:.\DisplayUtils.c ****     {
 701:.\DisplayUtils.c ****         uint8 remplaces = _DISPLAY_BUFFER_SIZE_ - pdisplay->_bufferinfo._bufferindex;
 2828              		.loc 1 701 0
 2829 0032 BB6A     		ldr	r3, [r7, #40]
 2830 0034 1B7F     		ldrb	r3, [r3, #28]	@ zero_extendqisi2
 2831 0036 C3F11003 		rsb	r3, r3, #16
 2832 003a 87F82730 		strb	r3, [r7, #39]
 702:.\DisplayUtils.c ****         memcpy(tempbuffer, pdisplay->_bufferinfo._buffer, _DISPLAY_BUFFER_SIZE_);
 2833              		.loc 1 702 0
 2834 003e BB6A     		ldr	r3, [r7, #40]
 2835 0040 07F10C04 		add	r4, r7, #12
 2836 0044 1D33     		adds	r3, r3, #29
 2837 0046 1868     		ldr	r0, [r3]	@ unaligned
 2838 0048 5968     		ldr	r1, [r3, #4]	@ unaligned
 2839 004a 9A68     		ldr	r2, [r3, #8]	@ unaligned
 2840 004c DB68     		ldr	r3, [r3, #12]	@ unaligned
 2841 004e 0FC4     		stmia	r4!, {r0, r1, r2, r3}
 703:.\DisplayUtils.c ****         FOR(int8 index = pdisplay->_bufferinfo._bufferindex, index < _DISPLAY_BUFFER_SIZE_, index++
 2842              		.loc 1 703 0
 2843 0050 BB6A     		ldr	r3, [r7, #40]
 2844 0052 1B7F     		ldrb	r3, [r3, #28]	@ zero_extendqisi2
 2845 0054 87F82E30 		strb	r3, [r7, #46]
 2846 0058 0EE0     		b	.L150
 2847              	.L151:
 704:.\DisplayUtils.c ****             tempbuffer[index] = 0x00;
 2848              		.loc 1 704 0 discriminator 3
 2849 005a 97F92E30 		ldrsb	r3, [r7, #46]
 2850 005e 07F13002 		add	r2, r7, #48
 2851 0062 1344     		add	r3, r3, r2
 2852 0064 0022     		movs	r2, #0
 2853 0066 03F8242C 		strb	r2, [r3, #-36]
 703:.\DisplayUtils.c ****         FOR(int8 index = pdisplay->_bufferinfo._bufferindex, index < _DISPLAY_BUFFER_SIZE_, index++
 2854              		.loc 1 703 0 discriminator 3
 2855 006a 97F82E30 		ldrb	r3, [r7, #46]	@ zero_extendqisi2
 2856 006e DBB2     		uxtb	r3, r3
ARM GAS  C:\Users\Lenovo\AppData\Local\Temp\ccKs44LO.s 			page 64


 2857 0070 0133     		adds	r3, r3, #1
 2858 0072 DBB2     		uxtb	r3, r3
 2859 0074 87F82E30 		strb	r3, [r7, #46]
 2860              	.L150:
 703:.\DisplayUtils.c ****         FOR(int8 index = pdisplay->_bufferinfo._bufferindex, index < _DISPLAY_BUFFER_SIZE_, index++
 2861              		.loc 1 703 0 is_stmt 0 discriminator 1
 2862 0078 97F92E30 		ldrsb	r3, [r7, #46]
 2863 007c 0F2B     		cmp	r3, #15
 2864 007e ECDD     		ble	.L151
 705:.\DisplayUtils.c ****         
 706:.\DisplayUtils.c ****         FOR(index = (pdisplay->_bufferinfo._bufferindex - 1), index >= 0, index--)
 2865              		.loc 1 706 0 is_stmt 1
 2866 0080 BB6A     		ldr	r3, [r7, #40]
 2867 0082 1B7F     		ldrb	r3, [r3, #28]	@ zero_extendqisi2
 2868 0084 013B     		subs	r3, r3, #1
 2869 0086 DBB2     		uxtb	r3, r3
 2870 0088 87F82E30 		strb	r3, [r7, #46]
 2871 008c 22E0     		b	.L152
 2872              	.L153:
 707:.\DisplayUtils.c ****         {
 708:.\DisplayUtils.c ****             tempbuffer[index + remplaces] = tempbuffer[index] & 0x0F;
 2873              		.loc 1 708 0 discriminator 3
 2874 008e 97F92E20 		ldrsb	r2, [r7, #46]
 2875 0092 97F82730 		ldrb	r3, [r7, #39]	@ zero_extendqisi2
 2876 0096 1344     		add	r3, r3, r2
 2877 0098 97F92E20 		ldrsb	r2, [r7, #46]
 2878 009c 07F13001 		add	r1, r7, #48
 2879 00a0 0A44     		add	r2, r2, r1
 2880 00a2 12F8242C 		ldrb	r2, [r2, #-36]	@ zero_extendqisi2
 2881 00a6 02F00F02 		and	r2, r2, #15
 2882 00aa D2B2     		uxtb	r2, r2
 2883 00ac 07F13001 		add	r1, r7, #48
 2884 00b0 0B44     		add	r3, r3, r1
 2885 00b2 03F8242C 		strb	r2, [r3, #-36]
 709:.\DisplayUtils.c ****             tempbuffer[index] = 0x00;
 2886              		.loc 1 709 0 discriminator 3
 2887 00b6 97F92E30 		ldrsb	r3, [r7, #46]
 2888 00ba 07F13002 		add	r2, r7, #48
 2889 00be 1344     		add	r3, r3, r2
 2890 00c0 0022     		movs	r2, #0
 2891 00c2 03F8242C 		strb	r2, [r3, #-36]
 706:.\DisplayUtils.c ****         {
 2892              		.loc 1 706 0 discriminator 3
 2893 00c6 97F82E30 		ldrb	r3, [r7, #46]	@ zero_extendqisi2
 2894 00ca DBB2     		uxtb	r3, r3
 2895 00cc 013B     		subs	r3, r3, #1
 2896 00ce DBB2     		uxtb	r3, r3
 2897 00d0 87F82E30 		strb	r3, [r7, #46]
 2898              	.L152:
 706:.\DisplayUtils.c ****         {
 2899              		.loc 1 706 0 is_stmt 0 discriminator 1
 2900 00d4 97F92E30 		ldrsb	r3, [r7, #46]
 2901 00d8 002B     		cmp	r3, #0
 2902 00da D8DA     		bge	.L153
 710:.\DisplayUtils.c ****         }    
 711:.\DisplayUtils.c ****         CastVolumeValue(tempbuffer, _DISPLAY_BUFFER_SIZE_);
 2903              		.loc 1 711 0 is_stmt 1
ARM GAS  C:\Users\Lenovo\AppData\Local\Temp\ccKs44LO.s 			page 65


 2904 00dc 07F10C03 		add	r3, r7, #12
 2905 00e0 1846     		mov	r0, r3
 2906 00e2 1021     		movs	r1, #16
 2907 00e4 FFF7FEFF 		bl	CastVolumeValue
 712:.\DisplayUtils.c ****         PSTRBUFFTOGG((PNEAR_BYTE_PTR)tempbuffer, _DISPLAY_BUFFER_SIZE_);
 2908              		.loc 1 712 0
 2909 00e8 07F10C03 		add	r3, r7, #12
 2910 00ec 1846     		mov	r0, r3
 2911 00ee 1021     		movs	r1, #16
 2912 00f0 FFF7FEFF 		bl	PSTRBUFFTOGG
 713:.\DisplayUtils.c ****         uint32 datavalue = LSDBCDBUFF2HEX((PNEAR_BYTE_PTR)tempbuffer, _DISPLAY_BUFFER_SIZE_);
 2913              		.loc 1 713 0
 2914 00f4 07F10C03 		add	r3, r7, #12
 2915 00f8 1846     		mov	r0, r3
 2916 00fa 1021     		movs	r1, #16
 2917 00fc FFF7FEFF 		bl	LSDBCDBUFF2HEX
 2918 0100 3862     		str	r0, [r7, #32]
 714:.\DisplayUtils.c ****         
 715:.\DisplayUtils.c ****         I2CBusLock();
 2919              		.loc 1 715 0
 2920 0102 FFF7FEFF 		bl	I2CBusLock
 716:.\DisplayUtils.c ****         ClearEepromBuffer();
 2921              		.loc 1 716 0
 2922 0106 FFF7FEFF 		bl	ClearEepromBuffer
 717:.\DisplayUtils.c ****         LoadEepromPage(EEPROM_CONFIGURATION_PAGE6);
 2923              		.loc 1 717 0
 2924 010a 4FF4C070 		mov	r0, #384
 2925 010e FFF7FEFF 		bl	LoadEepromPage
 718:.\DisplayUtils.c ****         uint32 refvalue = LSDBCDBUFF2HEX((PNEAR_BYTE_PTR)&GetEepromBuffer()[0x00], 0x10);          
 2926              		.loc 1 718 0
 2927 0112 FFF7FEFF 		bl	GetEepromBuffer
 2928 0116 0346     		mov	r3, r0
 2929 0118 1846     		mov	r0, r3
 2930 011a 1021     		movs	r1, #16
 2931 011c FFF7FEFF 		bl	LSDBCDBUFF2HEX
 2932 0120 F861     		str	r0, [r7, #28]
 719:.\DisplayUtils.c ****         I2CBusUnlock();
 2933              		.loc 1 719 0
 2934 0122 FFF7FEFF 		bl	I2CBusUnlock
 720:.\DisplayUtils.c ****         
 721:.\DisplayUtils.c ****         if(datavalue < refvalue)
 2935              		.loc 1 721 0
 2936 0126 3A6A     		ldr	r2, [r7, #32]
 2937 0128 FB69     		ldr	r3, [r7, #28]
 2938 012a 9A42     		cmp	r2, r3
 2939 012c 02D2     		bcs	.L149
 722:.\DisplayUtils.c ****             retval = false;
 2940              		.loc 1 722 0
 2941 012e 0023     		movs	r3, #0
 2942 0130 87F82F30 		strb	r3, [r7, #47]
 2943              	.L149:
 2944              	.LBE20:
 723:.\DisplayUtils.c ****     }
 724:.\DisplayUtils.c ****     
 725:.\DisplayUtils.c ****     return retval;
 2945              		.loc 1 725 0
 2946 0134 97F82F30 		ldrb	r3, [r7, #47]	@ zero_extendqisi2
ARM GAS  C:\Users\Lenovo\AppData\Local\Temp\ccKs44LO.s 			page 66


 726:.\DisplayUtils.c **** }
 2947              		.loc 1 726 0
 2948 0138 1846     		mov	r0, r3
 2949 013a 3437     		adds	r7, r7, #52
 2950              		.cfi_def_cfa_offset 12
 2951 013c BD46     		mov	sp, r7
 2952              		.cfi_def_cfa_register 13
 2953              		@ sp needed
 2954 013e 90BD     		pop	{r4, r7, pc}
 2955              		.cfi_endproc
 2956              	.LFE81:
 2957              		.size	NonEmptyVolumeValidator, .-NonEmptyVolumeValidator
 2958              		.section	.text.NonEmpty15ModuloValidator,"ax",%progbits
 2959              		.align	2
 2960              		.global	NonEmpty15ModuloValidator
 2961              		.thumb
 2962              		.thumb_func
 2963              		.type	NonEmpty15ModuloValidator, %function
 2964              	NonEmpty15ModuloValidator:
 2965              	.LFB82:
 727:.\DisplayUtils.c **** 
 728:.\DisplayUtils.c **** //@Created by: HIJH
 729:.\DisplayUtils.c **** //@Date: Septembre de 2016
 730:.\DisplayUtils.c **** //This method validates that the capture buffer for the current display
 731:.\DisplayUtils.c **** //has received a fifteen modulo value
 732:.\DisplayUtils.c **** bool NonEmpty15ModuloValidator(void *pparam)
 733:.\DisplayUtils.c **** {
 2966              		.loc 1 733 0
 2967              		.cfi_startproc
 2968              		@ args = 0, pretend = 0, frame = 40
 2969              		@ frame_needed = 1, uses_anonymous_args = 0
 2970 0000 90B5     		push	{r4, r7, lr}
 2971              		.cfi_def_cfa_offset 12
 2972              		.cfi_offset 4, -12
 2973              		.cfi_offset 7, -8
 2974              		.cfi_offset 14, -4
 2975 0002 8BB0     		sub	sp, sp, #44
 2976              		.cfi_def_cfa_offset 56
 2977 0004 00AF     		add	r7, sp, #0
 2978              		.cfi_def_cfa_register 7
 2979 0006 7860     		str	r0, [r7, #4]
 734:.\DisplayUtils.c ****     bool retval = false;
 2980              		.loc 1 734 0
 2981 0008 0023     		movs	r3, #0
 2982 000a 87F82730 		strb	r3, [r7, #39]
 735:.\DisplayUtils.c ****     char8 tempbuffer[_DISPLAY_BUFFER_SIZE_];
 736:.\DisplayUtils.c ****     DisplayLayout *pdisplay = (DisplayLayout*)pparam;
 2983              		.loc 1 736 0
 2984 000e 7B68     		ldr	r3, [r7, #4]
 2985 0010 3B62     		str	r3, [r7, #32]
 737:.\DisplayUtils.c ****     
 738:.\DisplayUtils.c ****     if(pdisplay->_bufferinfo._bufferindex > 0)
 2986              		.loc 1 738 0
 2987 0012 3B6A     		ldr	r3, [r7, #32]
 2988 0014 1B7F     		ldrb	r3, [r3, #28]	@ zero_extendqisi2
 2989 0016 002B     		cmp	r3, #0
 2990 0018 03D0     		beq	.L156
ARM GAS  C:\Users\Lenovo\AppData\Local\Temp\ccKs44LO.s 			page 67


 739:.\DisplayUtils.c ****         retval = true;
 2991              		.loc 1 739 0
 2992 001a 0123     		movs	r3, #1
 2993 001c 87F82730 		strb	r3, [r7, #39]
 2994 0020 02E0     		b	.L157
 2995              	.L156:
 740:.\DisplayUtils.c ****     else
 741:.\DisplayUtils.c ****         retval = false;    
 2996              		.loc 1 741 0
 2997 0022 0023     		movs	r3, #0
 2998 0024 87F82730 		strb	r3, [r7, #39]
 2999              	.L157:
 742:.\DisplayUtils.c ****     
 743:.\DisplayUtils.c ****     if(retval)
 3000              		.loc 1 743 0
 3001 0028 97F82730 		ldrb	r3, [r7, #39]	@ zero_extendqisi2
 3002 002c 002B     		cmp	r3, #0
 3003 002e 6DD0     		beq	.L158
 3004              	.LBB21:
 744:.\DisplayUtils.c ****     {
 745:.\DisplayUtils.c ****         uint8 remplaces = _DISPLAY_BUFFER_SIZE_ - pdisplay->_bufferinfo._bufferindex;
 3005              		.loc 1 745 0
 3006 0030 3B6A     		ldr	r3, [r7, #32]
 3007 0032 1B7F     		ldrb	r3, [r3, #28]	@ zero_extendqisi2
 3008 0034 C3F11003 		rsb	r3, r3, #16
 3009 0038 FB77     		strb	r3, [r7, #31]
 746:.\DisplayUtils.c ****         memcpy(tempbuffer, pdisplay->_bufferinfo._buffer, _DISPLAY_BUFFER_SIZE_);
 3010              		.loc 1 746 0
 3011 003a 3B6A     		ldr	r3, [r7, #32]
 3012 003c 07F10804 		add	r4, r7, #8
 3013 0040 1D33     		adds	r3, r3, #29
 3014 0042 1868     		ldr	r0, [r3]	@ unaligned
 3015 0044 5968     		ldr	r1, [r3, #4]	@ unaligned
 3016 0046 9A68     		ldr	r2, [r3, #8]	@ unaligned
 3017 0048 DB68     		ldr	r3, [r3, #12]	@ unaligned
 3018 004a 0FC4     		stmia	r4!, {r0, r1, r2, r3}
 747:.\DisplayUtils.c ****         FOR(int8 index = pdisplay->_bufferinfo._bufferindex, index < _DISPLAY_BUFFER_SIZE_, index++
 3019              		.loc 1 747 0
 3020 004c 3B6A     		ldr	r3, [r7, #32]
 3021 004e 1B7F     		ldrb	r3, [r3, #28]	@ zero_extendqisi2
 3022 0050 87F82630 		strb	r3, [r7, #38]
 3023 0054 0EE0     		b	.L159
 3024              	.L160:
 748:.\DisplayUtils.c ****             tempbuffer[index] = 0x00;
 3025              		.loc 1 748 0 discriminator 3
 3026 0056 97F92630 		ldrsb	r3, [r7, #38]
 3027 005a 07F12802 		add	r2, r7, #40
 3028 005e 1344     		add	r3, r3, r2
 3029 0060 0022     		movs	r2, #0
 3030 0062 03F8202C 		strb	r2, [r3, #-32]
 747:.\DisplayUtils.c ****         FOR(int8 index = pdisplay->_bufferinfo._bufferindex, index < _DISPLAY_BUFFER_SIZE_, index++
 3031              		.loc 1 747 0 discriminator 3
 3032 0066 97F82630 		ldrb	r3, [r7, #38]	@ zero_extendqisi2
 3033 006a DBB2     		uxtb	r3, r3
 3034 006c 0133     		adds	r3, r3, #1
 3035 006e DBB2     		uxtb	r3, r3
 3036 0070 87F82630 		strb	r3, [r7, #38]
ARM GAS  C:\Users\Lenovo\AppData\Local\Temp\ccKs44LO.s 			page 68


 3037              	.L159:
 747:.\DisplayUtils.c ****         FOR(int8 index = pdisplay->_bufferinfo._bufferindex, index < _DISPLAY_BUFFER_SIZE_, index++
 3038              		.loc 1 747 0 is_stmt 0 discriminator 1
 3039 0074 97F92630 		ldrsb	r3, [r7, #38]
 3040 0078 0F2B     		cmp	r3, #15
 3041 007a ECDD     		ble	.L160
 749:.\DisplayUtils.c ****         
 750:.\DisplayUtils.c ****         FOR(index = (pdisplay->_bufferinfo._bufferindex - 1), index >= 0, index--)
 3042              		.loc 1 750 0 is_stmt 1
 3043 007c 3B6A     		ldr	r3, [r7, #32]
 3044 007e 1B7F     		ldrb	r3, [r3, #28]	@ zero_extendqisi2
 3045 0080 013B     		subs	r3, r3, #1
 3046 0082 DBB2     		uxtb	r3, r3
 3047 0084 87F82630 		strb	r3, [r7, #38]
 3048 0088 21E0     		b	.L161
 3049              	.L162:
 751:.\DisplayUtils.c ****         {
 752:.\DisplayUtils.c ****             tempbuffer[index + remplaces] = tempbuffer[index] & 0x0F;
 3050              		.loc 1 752 0 discriminator 3
 3051 008a 97F92620 		ldrsb	r2, [r7, #38]
 3052 008e FB7F     		ldrb	r3, [r7, #31]	@ zero_extendqisi2
 3053 0090 1344     		add	r3, r3, r2
 3054 0092 97F92620 		ldrsb	r2, [r7, #38]
 3055 0096 07F12801 		add	r1, r7, #40
 3056 009a 0A44     		add	r2, r2, r1
 3057 009c 12F8202C 		ldrb	r2, [r2, #-32]	@ zero_extendqisi2
 3058 00a0 02F00F02 		and	r2, r2, #15
 3059 00a4 D2B2     		uxtb	r2, r2
 3060 00a6 07F12801 		add	r1, r7, #40
 3061 00aa 0B44     		add	r3, r3, r1
 3062 00ac 03F8202C 		strb	r2, [r3, #-32]
 753:.\DisplayUtils.c ****             tempbuffer[index] = 0x00;
 3063              		.loc 1 753 0 discriminator 3
 3064 00b0 97F92630 		ldrsb	r3, [r7, #38]
 3065 00b4 07F12802 		add	r2, r7, #40
 3066 00b8 1344     		add	r3, r3, r2
 3067 00ba 0022     		movs	r2, #0
 3068 00bc 03F8202C 		strb	r2, [r3, #-32]
 750:.\DisplayUtils.c ****         {
 3069              		.loc 1 750 0 discriminator 3
 3070 00c0 97F82630 		ldrb	r3, [r7, #38]	@ zero_extendqisi2
 3071 00c4 DBB2     		uxtb	r3, r3
 3072 00c6 013B     		subs	r3, r3, #1
 3073 00c8 DBB2     		uxtb	r3, r3
 3074 00ca 87F82630 		strb	r3, [r7, #38]
 3075              	.L161:
 750:.\DisplayUtils.c ****         {
 3076              		.loc 1 750 0 is_stmt 0 discriminator 1
 3077 00ce 97F92630 		ldrsb	r3, [r7, #38]
 3078 00d2 002B     		cmp	r3, #0
 3079 00d4 D9DA     		bge	.L162
 754:.\DisplayUtils.c ****         }    
 755:.\DisplayUtils.c ****         PSTRBUFFTOGG((PNEAR_BYTE_PTR)tempbuffer, _DISPLAY_BUFFER_SIZE_);
 3080              		.loc 1 755 0 is_stmt 1
 3081 00d6 07F10803 		add	r3, r7, #8
 3082 00da 1846     		mov	r0, r3
 3083 00dc 1021     		movs	r1, #16
ARM GAS  C:\Users\Lenovo\AppData\Local\Temp\ccKs44LO.s 			page 69


 3084 00de FFF7FEFF 		bl	PSTRBUFFTOGG
 756:.\DisplayUtils.c ****         uint32 datavalue = LSDBCDBUFF2HEX((PNEAR_BYTE_PTR)tempbuffer, _DISPLAY_BUFFER_SIZE_);
 3085              		.loc 1 756 0
 3086 00e2 07F10803 		add	r3, r7, #8
 3087 00e6 1846     		mov	r0, r3
 3088 00e8 1021     		movs	r1, #16
 3089 00ea FFF7FEFF 		bl	LSDBCDBUFF2HEX
 3090 00ee B861     		str	r0, [r7, #24]
 757:.\DisplayUtils.c ****                 
 758:.\DisplayUtils.c ****         if((datavalue % 15) != 0)
 3091              		.loc 1 758 0
 3092 00f0 B969     		ldr	r1, [r7, #24]
 3093 00f2 094B     		ldr	r3, .L164
 3094 00f4 A3FB0123 		umull	r2, r3, r3, r1
 3095 00f8 DA08     		lsrs	r2, r3, #3
 3096 00fa 1346     		mov	r3, r2
 3097 00fc 1B01     		lsls	r3, r3, #4
 3098 00fe 9B1A     		subs	r3, r3, r2
 3099 0100 CA1A     		subs	r2, r1, r3
 3100 0102 002A     		cmp	r2, #0
 3101 0104 02D0     		beq	.L158
 759:.\DisplayUtils.c ****             retval = false;
 3102              		.loc 1 759 0
 3103 0106 0023     		movs	r3, #0
 3104 0108 87F82730 		strb	r3, [r7, #39]
 3105              	.L158:
 3106              	.LBE21:
 760:.\DisplayUtils.c ****     }
 761:.\DisplayUtils.c ****         
 762:.\DisplayUtils.c ****     return retval;
 3107              		.loc 1 762 0
 3108 010c 97F82730 		ldrb	r3, [r7, #39]	@ zero_extendqisi2
 763:.\DisplayUtils.c **** }
 3109              		.loc 1 763 0
 3110 0110 1846     		mov	r0, r3
 3111 0112 2C37     		adds	r7, r7, #44
 3112              		.cfi_def_cfa_offset 12
 3113 0114 BD46     		mov	sp, r7
 3114              		.cfi_def_cfa_register 13
 3115              		@ sp needed
 3116 0116 90BD     		pop	{r4, r7, pc}
 3117              	.L165:
 3118              		.align	2
 3119              	.L164:
 3120 0118 89888888 		.word	-2004318071
 3121              		.cfi_endproc
 3122              	.LFE82:
 3123              		.size	NonEmpty15ModuloValidator, .-NonEmpty15ModuloValidator
 3124              		.section	.text.ValidatePumpAvailability4Positions,"ax",%progbits
 3125              		.align	2
 3126              		.global	ValidatePumpAvailability4Positions
 3127              		.thumb
 3128              		.thumb_func
 3129              		.type	ValidatePumpAvailability4Positions, %function
 3130              	ValidatePumpAvailability4Positions:
 3131              	.LFB83:
 764:.\DisplayUtils.c **** 
ARM GAS  C:\Users\Lenovo\AppData\Local\Temp\ccKs44LO.s 			page 70


 765:.\DisplayUtils.c **** bool ValidatePumpAvailability4Positions(void *pparam)
 766:.\DisplayUtils.c **** {
 3132              		.loc 1 766 0
 3133              		.cfi_startproc
 3134              		@ args = 0, pretend = 0, frame = 16
 3135              		@ frame_needed = 1, uses_anonymous_args = 0
 3136 0000 80B5     		push	{r7, lr}
 3137              		.cfi_def_cfa_offset 8
 3138              		.cfi_offset 7, -8
 3139              		.cfi_offset 14, -4
 3140 0002 84B0     		sub	sp, sp, #16
 3141              		.cfi_def_cfa_offset 24
 3142 0004 00AF     		add	r7, sp, #0
 3143              		.cfi_def_cfa_register 7
 3144 0006 7860     		str	r0, [r7, #4]
 767:.\DisplayUtils.c ****     bool retval = true;
 3145              		.loc 1 767 0
 3146 0008 0123     		movs	r3, #1
 3147 000a FB73     		strb	r3, [r7, #15]
 768:.\DisplayUtils.c ****     DisplayLayout *pdisplay = (DisplayLayout*)pparam;
 3148              		.loc 1 768 0
 3149 000c 7B68     		ldr	r3, [r7, #4]
 3150 000e BB60     		str	r3, [r7, #8]
 769:.\DisplayUtils.c ****     if(_g_dispenserlayoutinfo._numpositions == 0x04)
 3151              		.loc 1 769 0
 3152 0010 614B     		ldr	r3, .L188
 3153 0012 9B78     		ldrb	r3, [r3, #2]	@ zero_extendqisi2
 3154 0014 042B     		cmp	r3, #4
 3155 0016 40F0BA80 		bne	.L167
 770:.\DisplayUtils.c ****     {
 771:.\DisplayUtils.c ****         if(pdisplay->_dispid == DISPLAY1)
 3156              		.loc 1 771 0
 3157 001a BB68     		ldr	r3, [r7, #8]
 3158 001c 1B78     		ldrb	r3, [r3]	@ zero_extendqisi2
 3159 001e 002B     		cmp	r3, #0
 3160 0020 57D1     		bne	.L168
 772:.\DisplayUtils.c ****         {
 773:.\DisplayUtils.c ****             switch(pdisplay->_currscrcode)
 3161              		.loc 1 773 0
 3162 0022 BB68     		ldr	r3, [r7, #8]
 3163 0024 DB78     		ldrb	r3, [r3, #3]	@ zero_extendqisi2
 3164 0026 562B     		cmp	r3, #86
 3165 0028 02D0     		beq	.L170
 3166 002a 572B     		cmp	r3, #87
 3167 002c 1BD0     		beq	.L171
 3168 002e 3EE0     		b	.L169
 3169              	.L170:
 774:.\DisplayUtils.c ****             {
 775:.\DisplayUtils.c ****                 case POSITIONA://PUMP #1
 776:.\DisplayUtils.c ****                 retval = (((_g_pumps[0x00]._pumpstate == PUMP_IDLE) || (_g_pumps[0x00]._pumpstate =
 3170              		.loc 1 776 0
 3171 0030 5A4B     		ldr	r3, .L188+4
 3172 0032 9B78     		ldrb	r3, [r3, #2]
 3173 0034 DBB2     		uxtb	r3, r3
 3174 0036 062B     		cmp	r3, #6
 3175 0038 04D0     		beq	.L172
 3176              		.loc 1 776 0 is_stmt 0 discriminator 2
ARM GAS  C:\Users\Lenovo\AppData\Local\Temp\ccKs44LO.s 			page 71


 3177 003a 584B     		ldr	r3, .L188+4
 3178 003c 9B78     		ldrb	r3, [r3, #2]
 3179 003e DBB2     		uxtb	r3, r3
 3180 0040 072B     		cmp	r3, #7
 3181 0042 09D1     		bne	.L173
 3182              	.L172:
 3183              		.loc 1 776 0 discriminator 3
 3184 0044 554B     		ldr	r3, .L188+4
 3185 0046 DB7A     		ldrb	r3, [r3, #11]
 3186 0048 DBB2     		uxtb	r3, r3
 3187 004a 83F00103 		eor	r3, r3, #1
 3188 004e DBB2     		uxtb	r3, r3
 3189 0050 002B     		cmp	r3, #0
 3190 0052 01D0     		beq	.L173
 3191              		.loc 1 776 0 discriminator 5
 3192 0054 0123     		movs	r3, #1
 3193 0056 00E0     		b	.L174
 3194              	.L173:
 3195              		.loc 1 776 0 discriminator 6
 3196 0058 0023     		movs	r3, #0
 3197              	.L174:
 3198              		.loc 1 776 0 discriminator 8
 3199 005a FB73     		strb	r3, [r7, #15]
 3200 005c FB7B     		ldrb	r3, [r7, #15]
 3201 005e 03F00103 		and	r3, r3, #1
 3202 0062 FB73     		strb	r3, [r7, #15]
 777:.\DisplayUtils.c ****                 break;
 3203              		.loc 1 777 0 is_stmt 1 discriminator 8
 3204 0064 23E0     		b	.L169
 3205              	.L171:
 778:.\DisplayUtils.c ****                 case POSITIONB://PUMP #3
 779:.\DisplayUtils.c ****                 retval = (((_g_pumps[0x02]._pumpstate == PUMP_IDLE) || (_g_pumps[0x02]._pumpstate =
 3206              		.loc 1 779 0
 3207 0066 4D4B     		ldr	r3, .L188+4
 3208 0068 03F5B953 		add	r3, r3, #5920
 3209 006c 1233     		adds	r3, r3, #18
 3210 006e 1B78     		ldrb	r3, [r3]
 3211 0070 DBB2     		uxtb	r3, r3
 3212 0072 062B     		cmp	r3, #6
 3213 0074 07D0     		beq	.L175
 3214              		.loc 1 779 0 is_stmt 0 discriminator 2
 3215 0076 494B     		ldr	r3, .L188+4
 3216 0078 03F5B953 		add	r3, r3, #5920
 3217 007c 1233     		adds	r3, r3, #18
 3218 007e 1B78     		ldrb	r3, [r3]
 3219 0080 DBB2     		uxtb	r3, r3
 3220 0082 072B     		cmp	r3, #7
 3221 0084 0CD1     		bne	.L176
 3222              	.L175:
 3223              		.loc 1 779 0 discriminator 3
 3224 0086 454B     		ldr	r3, .L188+4
 3225 0088 03F5B953 		add	r3, r3, #5920
 3226 008c 1B33     		adds	r3, r3, #27
 3227 008e 1B78     		ldrb	r3, [r3]
 3228 0090 DBB2     		uxtb	r3, r3
 3229 0092 83F00103 		eor	r3, r3, #1
 3230 0096 DBB2     		uxtb	r3, r3
ARM GAS  C:\Users\Lenovo\AppData\Local\Temp\ccKs44LO.s 			page 72


 3231 0098 002B     		cmp	r3, #0
 3232 009a 01D0     		beq	.L176
 3233              		.loc 1 779 0 discriminator 5
 3234 009c 0123     		movs	r3, #1
 3235 009e 00E0     		b	.L177
 3236              	.L176:
 3237              		.loc 1 779 0 discriminator 6
 3238 00a0 0023     		movs	r3, #0
 3239              	.L177:
 3240              		.loc 1 779 0 discriminator 8
 3241 00a2 FB73     		strb	r3, [r7, #15]
 3242 00a4 FB7B     		ldrb	r3, [r7, #15]
 3243 00a6 03F00103 		and	r3, r3, #1
 3244 00aa FB73     		strb	r3, [r7, #15]
 780:.\DisplayUtils.c ****                 break;
 3245              		.loc 1 780 0 is_stmt 1 discriminator 8
 3246 00ac 00BF     		nop
 3247              	.L169:
 781:.\DisplayUtils.c ****             }
 782:.\DisplayUtils.c ****             
 783:.\DisplayUtils.c ****             retval &= !FindSinkMessage(_g_printerlayout._printerportside1);
 3248              		.loc 1 783 0
 3249 00ae 3C4B     		ldr	r3, .L188+8
 3250 00b0 1B78     		ldrb	r3, [r3]	@ zero_extendqisi2
 3251 00b2 1846     		mov	r0, r3
 3252 00b4 FFF7FEFF 		bl	FindSinkMessage
 3253 00b8 0346     		mov	r3, r0
 3254 00ba 83F00103 		eor	r3, r3, #1
 3255 00be DBB2     		uxtb	r3, r3
 3256 00c0 1A46     		mov	r2, r3
 3257 00c2 FB7B     		ldrb	r3, [r7, #15]	@ zero_extendqisi2
 3258 00c4 1340     		ands	r3, r3, r2
 3259 00c6 002B     		cmp	r3, #0
 3260 00c8 14BF     		ite	ne
 3261 00ca 0123     		movne	r3, #1
 3262 00cc 0023     		moveq	r3, #0
 3263 00ce FB73     		strb	r3, [r7, #15]
 3264 00d0 5DE0     		b	.L167
 3265              	.L168:
 784:.\DisplayUtils.c ****         }
 785:.\DisplayUtils.c ****         else if(pdisplay->_dispid == DISPLAY2)
 3266              		.loc 1 785 0
 3267 00d2 BB68     		ldr	r3, [r7, #8]
 3268 00d4 1B78     		ldrb	r3, [r3]	@ zero_extendqisi2
 3269 00d6 012B     		cmp	r3, #1
 3270 00d8 59D1     		bne	.L167
 786:.\DisplayUtils.c ****         {
 787:.\DisplayUtils.c ****             switch(pdisplay->_currscrcode)
 3271              		.loc 1 787 0
 3272 00da BB68     		ldr	r3, [r7, #8]
 3273 00dc DB78     		ldrb	r3, [r3, #3]	@ zero_extendqisi2
 3274 00de 562B     		cmp	r3, #86
 3275 00e0 02D0     		beq	.L179
 3276 00e2 572B     		cmp	r3, #87
 3277 00e4 24D0     		beq	.L180
 3278 00e6 41E0     		b	.L178
 3279              	.L179:
ARM GAS  C:\Users\Lenovo\AppData\Local\Temp\ccKs44LO.s 			page 73


 788:.\DisplayUtils.c ****             {
 789:.\DisplayUtils.c ****                 case POSITIONA://PUMP #4
 790:.\DisplayUtils.c ****                 retval = (((_g_pumps[0x03]._pumpstate == PUMP_IDLE) || (_g_pumps[0x03]._pumpstate =
 3280              		.loc 1 790 0
 3281 00e8 2C4B     		ldr	r3, .L188+4
 3282 00ea 03F50B53 		add	r3, r3, #8896
 3283 00ee 0A33     		adds	r3, r3, #10
 3284 00f0 1B78     		ldrb	r3, [r3]
 3285 00f2 DBB2     		uxtb	r3, r3
 3286 00f4 062B     		cmp	r3, #6
 3287 00f6 07D0     		beq	.L181
 3288              		.loc 1 790 0 is_stmt 0 discriminator 2
 3289 00f8 284B     		ldr	r3, .L188+4
 3290 00fa 03F50B53 		add	r3, r3, #8896
 3291 00fe 0A33     		adds	r3, r3, #10
 3292 0100 1B78     		ldrb	r3, [r3]
 3293 0102 DBB2     		uxtb	r3, r3
 3294 0104 072B     		cmp	r3, #7
 3295 0106 0CD1     		bne	.L182
 3296              	.L181:
 3297              		.loc 1 790 0 discriminator 3
 3298 0108 244B     		ldr	r3, .L188+4
 3299 010a 03F50B53 		add	r3, r3, #8896
 3300 010e 1333     		adds	r3, r3, #19
 3301 0110 1B78     		ldrb	r3, [r3]
 3302 0112 DBB2     		uxtb	r3, r3
 3303 0114 83F00103 		eor	r3, r3, #1
 3304 0118 DBB2     		uxtb	r3, r3
 3305 011a 002B     		cmp	r3, #0
 3306 011c 01D0     		beq	.L182
 3307              		.loc 1 790 0 discriminator 5
 3308 011e 0123     		movs	r3, #1
 3309 0120 00E0     		b	.L183
 3310              	.L182:
 3311              		.loc 1 790 0 discriminator 6
 3312 0122 0023     		movs	r3, #0
 3313              	.L183:
 3314              		.loc 1 790 0 discriminator 8
 3315 0124 FB73     		strb	r3, [r7, #15]
 3316 0126 FB7B     		ldrb	r3, [r7, #15]
 3317 0128 03F00103 		and	r3, r3, #1
 3318 012c FB73     		strb	r3, [r7, #15]
 791:.\DisplayUtils.c ****                 break;
 3319              		.loc 1 791 0 is_stmt 1 discriminator 8
 3320 012e 1DE0     		b	.L178
 3321              	.L180:
 792:.\DisplayUtils.c ****                 case POSITIONB://PUMP #2
 793:.\DisplayUtils.c ****                 retval = (((_g_pumps[0x01]._pumpstate == PUMP_IDLE) || (_g_pumps[0x01]._pumpstate =
 3322              		.loc 1 793 0
 3323 0130 1A4B     		ldr	r3, .L188+4
 3324 0132 93F89A3B 		ldrb	r3, [r3, #2970]
 3325 0136 DBB2     		uxtb	r3, r3
 3326 0138 062B     		cmp	r3, #6
 3327 013a 05D0     		beq	.L184
 3328              		.loc 1 793 0 is_stmt 0 discriminator 2
 3329 013c 174B     		ldr	r3, .L188+4
 3330 013e 93F89A3B 		ldrb	r3, [r3, #2970]
ARM GAS  C:\Users\Lenovo\AppData\Local\Temp\ccKs44LO.s 			page 74


 3331 0142 DBB2     		uxtb	r3, r3
 3332 0144 072B     		cmp	r3, #7
 3333 0146 0AD1     		bne	.L185
 3334              	.L184:
 3335              		.loc 1 793 0 discriminator 3
 3336 0148 144B     		ldr	r3, .L188+4
 3337 014a 93F8A33B 		ldrb	r3, [r3, #2979]
 3338 014e DBB2     		uxtb	r3, r3
 3339 0150 83F00103 		eor	r3, r3, #1
 3340 0154 DBB2     		uxtb	r3, r3
 3341 0156 002B     		cmp	r3, #0
 3342 0158 01D0     		beq	.L185
 3343              		.loc 1 793 0 discriminator 5
 3344 015a 0123     		movs	r3, #1
 3345 015c 00E0     		b	.L186
 3346              	.L185:
 3347              		.loc 1 793 0 discriminator 6
 3348 015e 0023     		movs	r3, #0
 3349              	.L186:
 3350              		.loc 1 793 0 discriminator 8
 3351 0160 FB73     		strb	r3, [r7, #15]
 3352 0162 FB7B     		ldrb	r3, [r7, #15]
 3353 0164 03F00103 		and	r3, r3, #1
 3354 0168 FB73     		strb	r3, [r7, #15]
 794:.\DisplayUtils.c ****                 break;
 3355              		.loc 1 794 0 is_stmt 1 discriminator 8
 3356 016a 00BF     		nop
 3357              	.L178:
 795:.\DisplayUtils.c ****             }
 796:.\DisplayUtils.c ****             
 797:.\DisplayUtils.c ****             retval &= !FindSinkMessage(_g_printerlayout._printerportside2);
 3358              		.loc 1 797 0
 3359 016c 0C4B     		ldr	r3, .L188+8
 3360 016e 5B78     		ldrb	r3, [r3, #1]	@ zero_extendqisi2
 3361 0170 1846     		mov	r0, r3
 3362 0172 FFF7FEFF 		bl	FindSinkMessage
 3363 0176 0346     		mov	r3, r0
 3364 0178 83F00103 		eor	r3, r3, #1
 3365 017c DBB2     		uxtb	r3, r3
 3366 017e 1A46     		mov	r2, r3
 3367 0180 FB7B     		ldrb	r3, [r7, #15]	@ zero_extendqisi2
 3368 0182 1340     		ands	r3, r3, r2
 3369 0184 002B     		cmp	r3, #0
 3370 0186 14BF     		ite	ne
 3371 0188 0123     		movne	r3, #1
 3372 018a 0023     		moveq	r3, #0
 3373 018c FB73     		strb	r3, [r7, #15]
 3374              	.L167:
 798:.\DisplayUtils.c ****         }
 799:.\DisplayUtils.c ****     }
 800:.\DisplayUtils.c ****     
 801:.\DisplayUtils.c ****     return retval;
 3375              		.loc 1 801 0
 3376 018e FB7B     		ldrb	r3, [r7, #15]	@ zero_extendqisi2
 802:.\DisplayUtils.c **** }
 3377              		.loc 1 802 0
 3378 0190 1846     		mov	r0, r3
ARM GAS  C:\Users\Lenovo\AppData\Local\Temp\ccKs44LO.s 			page 75


 3379 0192 1037     		adds	r7, r7, #16
 3380              		.cfi_def_cfa_offset 8
 3381 0194 BD46     		mov	sp, r7
 3382              		.cfi_def_cfa_register 13
 3383              		@ sp needed
 3384 0196 80BD     		pop	{r7, pc}
 3385              	.L189:
 3386              		.align	2
 3387              	.L188:
 3388 0198 00000000 		.word	_g_dispenserlayoutinfo
 3389 019c 00000000 		.word	_g_pumps
 3390 01a0 00000000 		.word	_g_printerlayout
 3391              		.cfi_endproc
 3392              	.LFE83:
 3393              		.size	ValidatePumpAvailability4Positions, .-ValidatePumpAvailability4Positions
 3394              		.section	.text.ValidatePumpAvailability21Positions,"ax",%progbits
 3395              		.align	2
 3396              		.global	ValidatePumpAvailability21Positions
 3397              		.thumb
 3398              		.thumb_func
 3399              		.type	ValidatePumpAvailability21Positions, %function
 3400              	ValidatePumpAvailability21Positions:
 3401              	.LFB84:
 803:.\DisplayUtils.c **** 
 804:.\DisplayUtils.c **** bool ValidatePumpAvailability21Positions(void *pparam)
 805:.\DisplayUtils.c **** {
 3402              		.loc 1 805 0
 3403              		.cfi_startproc
 3404              		@ args = 0, pretend = 0, frame = 16
 3405              		@ frame_needed = 1, uses_anonymous_args = 0
 3406 0000 80B5     		push	{r7, lr}
 3407              		.cfi_def_cfa_offset 8
 3408              		.cfi_offset 7, -8
 3409              		.cfi_offset 14, -4
 3410 0002 84B0     		sub	sp, sp, #16
 3411              		.cfi_def_cfa_offset 24
 3412 0004 00AF     		add	r7, sp, #0
 3413              		.cfi_def_cfa_register 7
 3414 0006 7860     		str	r0, [r7, #4]
 806:.\DisplayUtils.c ****     bool retval = true;
 3415              		.loc 1 806 0
 3416 0008 0123     		movs	r3, #1
 3417 000a FB73     		strb	r3, [r7, #15]
 807:.\DisplayUtils.c ****     DisplayLayout *pdisplay = (DisplayLayout*)pparam;
 3418              		.loc 1 807 0
 3419 000c 7B68     		ldr	r3, [r7, #4]
 3420 000e BB60     		str	r3, [r7, #8]
 808:.\DisplayUtils.c ****     if(_g_dispenserlayoutinfo._numpositions == 0x02)
 3421              		.loc 1 808 0
 3422 0010 4F4B     		ldr	r3, .L205
 3423 0012 9B78     		ldrb	r3, [r3, #2]	@ zero_extendqisi2
 3424 0014 022B     		cmp	r3, #2
 3425 0016 62D1     		bne	.L191
 809:.\DisplayUtils.c ****     {
 810:.\DisplayUtils.c ****         if(pdisplay->_dispid == DISPLAY1)
 3426              		.loc 1 810 0
 3427 0018 BB68     		ldr	r3, [r7, #8]
ARM GAS  C:\Users\Lenovo\AppData\Local\Temp\ccKs44LO.s 			page 76


 3428 001a 1B78     		ldrb	r3, [r3]	@ zero_extendqisi2
 3429 001c 002B     		cmp	r3, #0
 3430 001e 2BD1     		bne	.L192
 811:.\DisplayUtils.c ****         {
 812:.\DisplayUtils.c ****             retval = (((_g_pumps[0x00]._pumpstate == PUMP_IDLE) || (_g_pumps[0x00]._pumpstate == PU
 3431              		.loc 1 812 0
 3432 0020 4C4B     		ldr	r3, .L205+4
 3433 0022 9B78     		ldrb	r3, [r3, #2]
 3434 0024 DBB2     		uxtb	r3, r3
 3435 0026 062B     		cmp	r3, #6
 3436 0028 04D0     		beq	.L193
 3437              		.loc 1 812 0 is_stmt 0 discriminator 2
 3438 002a 4A4B     		ldr	r3, .L205+4
 3439 002c 9B78     		ldrb	r3, [r3, #2]
 3440 002e DBB2     		uxtb	r3, r3
 3441 0030 072B     		cmp	r3, #7
 3442 0032 09D1     		bne	.L194
 3443              	.L193:
 3444              		.loc 1 812 0 discriminator 3
 3445 0034 474B     		ldr	r3, .L205+4
 3446 0036 DB7A     		ldrb	r3, [r3, #11]
 3447 0038 DBB2     		uxtb	r3, r3
 3448 003a 83F00103 		eor	r3, r3, #1
 3449 003e DBB2     		uxtb	r3, r3
 3450 0040 002B     		cmp	r3, #0
 3451 0042 01D0     		beq	.L194
 3452              		.loc 1 812 0 discriminator 5
 3453 0044 0123     		movs	r3, #1
 3454 0046 00E0     		b	.L195
 3455              	.L194:
 3456              		.loc 1 812 0 discriminator 6
 3457 0048 0023     		movs	r3, #0
 3458              	.L195:
 3459              		.loc 1 812 0 discriminator 8
 3460 004a FB73     		strb	r3, [r7, #15]
 3461 004c FB7B     		ldrb	r3, [r7, #15]
 3462 004e 03F00103 		and	r3, r3, #1
 3463 0052 FB73     		strb	r3, [r7, #15]
 813:.\DisplayUtils.c ****             retval &= !FindSinkMessage(_g_printerlayout._printerportside1);
 3464              		.loc 1 813 0 is_stmt 1 discriminator 8
 3465 0054 404B     		ldr	r3, .L205+8
 3466 0056 1B78     		ldrb	r3, [r3]	@ zero_extendqisi2
 3467 0058 1846     		mov	r0, r3
 3468 005a FFF7FEFF 		bl	FindSinkMessage
 3469 005e 0346     		mov	r3, r0
 3470 0060 83F00103 		eor	r3, r3, #1
 3471 0064 DBB2     		uxtb	r3, r3
 3472 0066 1A46     		mov	r2, r3
 3473 0068 FB7B     		ldrb	r3, [r7, #15]	@ zero_extendqisi2
 3474 006a 1340     		ands	r3, r3, r2
 3475 006c 002B     		cmp	r3, #0
 3476 006e 14BF     		ite	ne
 3477 0070 0123     		movne	r3, #1
 3478 0072 0023     		moveq	r3, #0
 3479 0074 FB73     		strb	r3, [r7, #15]
 3480 0076 65E0     		b	.L200
 3481              	.L192:
ARM GAS  C:\Users\Lenovo\AppData\Local\Temp\ccKs44LO.s 			page 77


 814:.\DisplayUtils.c ****         }
 815:.\DisplayUtils.c ****         else if(pdisplay->_dispid == DISPLAY2)
 3482              		.loc 1 815 0
 3483 0078 BB68     		ldr	r3, [r7, #8]
 3484 007a 1B78     		ldrb	r3, [r3]	@ zero_extendqisi2
 3485 007c 012B     		cmp	r3, #1
 3486 007e 61D1     		bne	.L200
 816:.\DisplayUtils.c ****         {
 817:.\DisplayUtils.c ****             retval = (((_g_pumps[0x01]._pumpstate == PUMP_IDLE) || (_g_pumps[0x01]._pumpstate == PU
 3487              		.loc 1 817 0
 3488 0080 344B     		ldr	r3, .L205+4
 3489 0082 93F89A3B 		ldrb	r3, [r3, #2970]
 3490 0086 DBB2     		uxtb	r3, r3
 3491 0088 062B     		cmp	r3, #6
 3492 008a 05D0     		beq	.L197
 3493              		.loc 1 817 0 is_stmt 0 discriminator 2
 3494 008c 314B     		ldr	r3, .L205+4
 3495 008e 93F89A3B 		ldrb	r3, [r3, #2970]
 3496 0092 DBB2     		uxtb	r3, r3
 3497 0094 072B     		cmp	r3, #7
 3498 0096 0AD1     		bne	.L198
 3499              	.L197:
 3500              		.loc 1 817 0 discriminator 3
 3501 0098 2E4B     		ldr	r3, .L205+4
 3502 009a 93F8A33B 		ldrb	r3, [r3, #2979]
 3503 009e DBB2     		uxtb	r3, r3
 3504 00a0 83F00103 		eor	r3, r3, #1
 3505 00a4 DBB2     		uxtb	r3, r3
 3506 00a6 002B     		cmp	r3, #0
 3507 00a8 01D0     		beq	.L198
 3508              		.loc 1 817 0 discriminator 5
 3509 00aa 0123     		movs	r3, #1
 3510 00ac 00E0     		b	.L199
 3511              	.L198:
 3512              		.loc 1 817 0 discriminator 6
 3513 00ae 0023     		movs	r3, #0
 3514              	.L199:
 3515              		.loc 1 817 0 discriminator 8
 3516 00b0 FB73     		strb	r3, [r7, #15]
 3517 00b2 FB7B     		ldrb	r3, [r7, #15]
 3518 00b4 03F00103 		and	r3, r3, #1
 3519 00b8 FB73     		strb	r3, [r7, #15]
 818:.\DisplayUtils.c ****             retval &= !FindSinkMessage(_g_printerlayout._printerportside2);
 3520              		.loc 1 818 0 is_stmt 1 discriminator 8
 3521 00ba 274B     		ldr	r3, .L205+8
 3522 00bc 5B78     		ldrb	r3, [r3, #1]	@ zero_extendqisi2
 3523 00be 1846     		mov	r0, r3
 3524 00c0 FFF7FEFF 		bl	FindSinkMessage
 3525 00c4 0346     		mov	r3, r0
 3526 00c6 83F00103 		eor	r3, r3, #1
 3527 00ca DBB2     		uxtb	r3, r3
 3528 00cc 1A46     		mov	r2, r3
 3529 00ce FB7B     		ldrb	r3, [r7, #15]	@ zero_extendqisi2
 3530 00d0 1340     		ands	r3, r3, r2
 3531 00d2 002B     		cmp	r3, #0
 3532 00d4 14BF     		ite	ne
 3533 00d6 0123     		movne	r3, #1
ARM GAS  C:\Users\Lenovo\AppData\Local\Temp\ccKs44LO.s 			page 78


 3534 00d8 0023     		moveq	r3, #0
 3535 00da FB73     		strb	r3, [r7, #15]
 3536 00dc 32E0     		b	.L200
 3537              	.L191:
 819:.\DisplayUtils.c ****         }
 820:.\DisplayUtils.c ****     }
 821:.\DisplayUtils.c ****     else if(_g_dispenserlayoutinfo._numpositions == 0x01)
 3538              		.loc 1 821 0
 3539 00de 1C4B     		ldr	r3, .L205
 3540 00e0 9B78     		ldrb	r3, [r3, #2]	@ zero_extendqisi2
 3541 00e2 012B     		cmp	r3, #1
 3542 00e4 2ED1     		bne	.L200
 822:.\DisplayUtils.c ****     {
 823:.\DisplayUtils.c ****         if(pdisplay->_dispid == DISPLAY1)
 3543              		.loc 1 823 0
 3544 00e6 BB68     		ldr	r3, [r7, #8]
 3545 00e8 1B78     		ldrb	r3, [r3]	@ zero_extendqisi2
 3546 00ea 002B     		cmp	r3, #0
 3547 00ec 2AD1     		bne	.L200
 824:.\DisplayUtils.c ****         {
 825:.\DisplayUtils.c ****             retval = (((_g_pumps[0x00]._pumpstate == PUMP_IDLE) || (_g_pumps[0x00]._pumpstate == PU
 3548              		.loc 1 825 0
 3549 00ee 194B     		ldr	r3, .L205+4
 3550 00f0 9B78     		ldrb	r3, [r3, #2]
 3551 00f2 DBB2     		uxtb	r3, r3
 3552 00f4 062B     		cmp	r3, #6
 3553 00f6 04D0     		beq	.L201
 3554              		.loc 1 825 0 is_stmt 0 discriminator 2
 3555 00f8 164B     		ldr	r3, .L205+4
 3556 00fa 9B78     		ldrb	r3, [r3, #2]
 3557 00fc DBB2     		uxtb	r3, r3
 3558 00fe 072B     		cmp	r3, #7
 3559 0100 09D1     		bne	.L202
 3560              	.L201:
 3561              		.loc 1 825 0 discriminator 3
 3562 0102 144B     		ldr	r3, .L205+4
 3563 0104 DB7A     		ldrb	r3, [r3, #11]
 3564 0106 DBB2     		uxtb	r3, r3
 3565 0108 83F00103 		eor	r3, r3, #1
 3566 010c DBB2     		uxtb	r3, r3
 3567 010e 002B     		cmp	r3, #0
 3568 0110 01D0     		beq	.L202
 3569              		.loc 1 825 0 discriminator 5
 3570 0112 0123     		movs	r3, #1
 3571 0114 00E0     		b	.L203
 3572              	.L202:
 3573              		.loc 1 825 0 discriminator 6
 3574 0116 0023     		movs	r3, #0
 3575              	.L203:
 3576              		.loc 1 825 0 discriminator 8
 3577 0118 FB73     		strb	r3, [r7, #15]
 3578 011a FB7B     		ldrb	r3, [r7, #15]
 3579 011c 03F00103 		and	r3, r3, #1
 3580 0120 FB73     		strb	r3, [r7, #15]
 826:.\DisplayUtils.c ****             retval &= !FindSinkMessage(_g_printerlayout._printerportside1);
 3581              		.loc 1 826 0 is_stmt 1 discriminator 8
 3582 0122 0D4B     		ldr	r3, .L205+8
ARM GAS  C:\Users\Lenovo\AppData\Local\Temp\ccKs44LO.s 			page 79


 3583 0124 1B78     		ldrb	r3, [r3]	@ zero_extendqisi2
 3584 0126 1846     		mov	r0, r3
 3585 0128 FFF7FEFF 		bl	FindSinkMessage
 3586 012c 0346     		mov	r3, r0
 3587 012e 83F00103 		eor	r3, r3, #1
 3588 0132 DBB2     		uxtb	r3, r3
 3589 0134 1A46     		mov	r2, r3
 3590 0136 FB7B     		ldrb	r3, [r7, #15]	@ zero_extendqisi2
 3591 0138 1340     		ands	r3, r3, r2
 3592 013a 002B     		cmp	r3, #0
 3593 013c 14BF     		ite	ne
 3594 013e 0123     		movne	r3, #1
 3595 0140 0023     		moveq	r3, #0
 3596 0142 FB73     		strb	r3, [r7, #15]
 3597              	.L200:
 827:.\DisplayUtils.c ****         }
 828:.\DisplayUtils.c ****     }
 829:.\DisplayUtils.c ****     
 830:.\DisplayUtils.c ****     return retval;
 3598              		.loc 1 830 0
 3599 0144 FB7B     		ldrb	r3, [r7, #15]	@ zero_extendqisi2
 831:.\DisplayUtils.c **** }
 3600              		.loc 1 831 0
 3601 0146 1846     		mov	r0, r3
 3602 0148 1037     		adds	r7, r7, #16
 3603              		.cfi_def_cfa_offset 8
 3604 014a BD46     		mov	sp, r7
 3605              		.cfi_def_cfa_register 13
 3606              		@ sp needed
 3607 014c 80BD     		pop	{r7, pc}
 3608              	.L206:
 3609 014e 00BF     		.align	2
 3610              	.L205:
 3611 0150 00000000 		.word	_g_dispenserlayoutinfo
 3612 0154 00000000 		.word	_g_pumps
 3613 0158 00000000 		.word	_g_printerlayout
 3614              		.cfi_endproc
 3615              	.LFE84:
 3616              		.size	ValidatePumpAvailability21Positions, .-ValidatePumpAvailability21Positions
 3617              		.section	.text.GetPumpsAvailability,"ax",%progbits
 3618              		.align	2
 3619              		.global	GetPumpsAvailability
 3620              		.thumb
 3621              		.thumb_func
 3622              		.type	GetPumpsAvailability, %function
 3623              	GetPumpsAvailability:
 3624              	.LFB85:
 832:.\DisplayUtils.c **** 
 833:.\DisplayUtils.c **** void GetPumpsAvailability(void *pparam, uint8 *pvalues)
 834:.\DisplayUtils.c **** {
 3625              		.loc 1 834 0
 3626              		.cfi_startproc
 3627              		@ args = 0, pretend = 0, frame = 16
 3628              		@ frame_needed = 1, uses_anonymous_args = 0
 3629              		@ link register save eliminated.
 3630 0000 80B4     		push	{r7}
 3631              		.cfi_def_cfa_offset 4
ARM GAS  C:\Users\Lenovo\AppData\Local\Temp\ccKs44LO.s 			page 80


 3632              		.cfi_offset 7, -4
 3633 0002 85B0     		sub	sp, sp, #20
 3634              		.cfi_def_cfa_offset 24
 3635 0004 00AF     		add	r7, sp, #0
 3636              		.cfi_def_cfa_register 7
 3637 0006 7860     		str	r0, [r7, #4]
 3638 0008 3960     		str	r1, [r7]
 835:.\DisplayUtils.c ****     DisplayLayout *pdisplay = (DisplayLayout*)pparam;
 3639              		.loc 1 835 0
 3640 000a 7B68     		ldr	r3, [r7, #4]
 3641 000c FB60     		str	r3, [r7, #12]
 836:.\DisplayUtils.c ****     if(_g_dispenserlayoutinfo._numpositions == 0x04)
 3642              		.loc 1 836 0
 3643 000e 9D4B     		ldr	r3, .L245
 3644 0010 9B78     		ldrb	r3, [r3, #2]	@ zero_extendqisi2
 3645 0012 042B     		cmp	r3, #4
 3646 0014 40F08280 		bne	.L208
 837:.\DisplayUtils.c ****     {
 838:.\DisplayUtils.c ****         if(pdisplay->_dispid == DISPLAY1)
 3647              		.loc 1 838 0
 3648 0018 FB68     		ldr	r3, [r7, #12]
 3649 001a 1B78     		ldrb	r3, [r3]	@ zero_extendqisi2
 3650 001c 002B     		cmp	r3, #0
 3651 001e 3AD1     		bne	.L209
 839:.\DisplayUtils.c ****         {
 840:.\DisplayUtils.c ****             pvalues[0x00] = (((_g_pumps[0x00]._pumpstate == PUMP_IDLE) || (_g_pumps[0x00]._pumpstat
 3652              		.loc 1 840 0
 3653 0020 994B     		ldr	r3, .L245+4
 3654 0022 9B78     		ldrb	r3, [r3, #2]
 3655 0024 DBB2     		uxtb	r3, r3
 3656 0026 062B     		cmp	r3, #6
 3657 0028 04D0     		beq	.L210
 3658              		.loc 1 840 0 is_stmt 0 discriminator 2
 3659 002a 974B     		ldr	r3, .L245+4
 3660 002c 9B78     		ldrb	r3, [r3, #2]
 3661 002e DBB2     		uxtb	r3, r3
 3662 0030 072B     		cmp	r3, #7
 3663 0032 09D1     		bne	.L211
 3664              	.L210:
 3665              		.loc 1 840 0 discriminator 3
 3666 0034 944B     		ldr	r3, .L245+4
 3667 0036 DB7A     		ldrb	r3, [r3, #11]
 3668 0038 DBB2     		uxtb	r3, r3
 3669 003a 83F00103 		eor	r3, r3, #1
 3670 003e DBB2     		uxtb	r3, r3
 3671 0040 002B     		cmp	r3, #0
 3672 0042 01D0     		beq	.L211
 3673              		.loc 1 840 0 discriminator 5
 3674 0044 0123     		movs	r3, #1
 3675 0046 00E0     		b	.L212
 3676              	.L211:
 3677              		.loc 1 840 0 discriminator 6
 3678 0048 0023     		movs	r3, #0
 3679              	.L212:
 3680              		.loc 1 840 0 discriminator 8
 3681 004a DAB2     		uxtb	r2, r3
 3682 004c 3B68     		ldr	r3, [r7]
ARM GAS  C:\Users\Lenovo\AppData\Local\Temp\ccKs44LO.s 			page 81


 3683 004e 1A70     		strb	r2, [r3]
 841:.\DisplayUtils.c ****             pvalues[0x01] = (((_g_pumps[0x02]._pumpstate == PUMP_IDLE) || (_g_pumps[0x02]._pumpstat
 3684              		.loc 1 841 0 is_stmt 1 discriminator 8
 3685 0050 3B68     		ldr	r3, [r7]
 3686 0052 5A1C     		adds	r2, r3, #1
 3687 0054 8C4B     		ldr	r3, .L245+4
 3688 0056 03F5B953 		add	r3, r3, #5920
 3689 005a 1233     		adds	r3, r3, #18
 3690 005c 1B78     		ldrb	r3, [r3]
 3691 005e DBB2     		uxtb	r3, r3
 3692 0060 062B     		cmp	r3, #6
 3693 0062 07D0     		beq	.L213
 3694              		.loc 1 841 0 is_stmt 0 discriminator 2
 3695 0064 884B     		ldr	r3, .L245+4
 3696 0066 03F5B953 		add	r3, r3, #5920
 3697 006a 1233     		adds	r3, r3, #18
 3698 006c 1B78     		ldrb	r3, [r3]
 3699 006e DBB2     		uxtb	r3, r3
 3700 0070 072B     		cmp	r3, #7
 3701 0072 0CD1     		bne	.L214
 3702              	.L213:
 3703              		.loc 1 841 0 discriminator 3
 3704 0074 844B     		ldr	r3, .L245+4
 3705 0076 03F5B953 		add	r3, r3, #5920
 3706 007a 1B33     		adds	r3, r3, #27
 3707 007c 1B78     		ldrb	r3, [r3]
 3708 007e DBB2     		uxtb	r3, r3
 3709 0080 83F00103 		eor	r3, r3, #1
 3710 0084 DBB2     		uxtb	r3, r3
 3711 0086 002B     		cmp	r3, #0
 3712 0088 01D0     		beq	.L214
 3713              		.loc 1 841 0 discriminator 5
 3714 008a 0123     		movs	r3, #1
 3715 008c 00E0     		b	.L215
 3716              	.L214:
 3717              		.loc 1 841 0 discriminator 6
 3718 008e 0023     		movs	r3, #0
 3719              	.L215:
 3720              		.loc 1 841 0 discriminator 8
 3721 0090 DBB2     		uxtb	r3, r3
 3722 0092 1370     		strb	r3, [r2]
 3723 0094 F1E0     		b	.L207
 3724              	.L209:
 842:.\DisplayUtils.c ****             
 843:.\DisplayUtils.c ****         }
 844:.\DisplayUtils.c ****         else if(pdisplay->_dispid == DISPLAY2)
 3725              		.loc 1 844 0 is_stmt 1
 3726 0096 FB68     		ldr	r3, [r7, #12]
 3727 0098 1B78     		ldrb	r3, [r3]	@ zero_extendqisi2
 3728 009a 012B     		cmp	r3, #1
 3729 009c 40F0ED80 		bne	.L207
 845:.\DisplayUtils.c ****         {
 846:.\DisplayUtils.c ****             pvalues[0x00] = (((_g_pumps[0x03]._pumpstate == PUMP_IDLE) || (_g_pumps[0x03]._pumpstat
 3730              		.loc 1 846 0
 3731 00a0 794B     		ldr	r3, .L245+4
 3732 00a2 03F50B53 		add	r3, r3, #8896
 3733 00a6 0A33     		adds	r3, r3, #10
ARM GAS  C:\Users\Lenovo\AppData\Local\Temp\ccKs44LO.s 			page 82


 3734 00a8 1B78     		ldrb	r3, [r3]
 3735 00aa DBB2     		uxtb	r3, r3
 3736 00ac 062B     		cmp	r3, #6
 3737 00ae 07D0     		beq	.L217
 3738              		.loc 1 846 0 is_stmt 0 discriminator 2
 3739 00b0 754B     		ldr	r3, .L245+4
 3740 00b2 03F50B53 		add	r3, r3, #8896
 3741 00b6 0A33     		adds	r3, r3, #10
 3742 00b8 1B78     		ldrb	r3, [r3]
 3743 00ba DBB2     		uxtb	r3, r3
 3744 00bc 072B     		cmp	r3, #7
 3745 00be 0CD1     		bne	.L218
 3746              	.L217:
 3747              		.loc 1 846 0 discriminator 3
 3748 00c0 714B     		ldr	r3, .L245+4
 3749 00c2 03F50B53 		add	r3, r3, #8896
 3750 00c6 1333     		adds	r3, r3, #19
 3751 00c8 1B78     		ldrb	r3, [r3]
 3752 00ca DBB2     		uxtb	r3, r3
 3753 00cc 83F00103 		eor	r3, r3, #1
 3754 00d0 DBB2     		uxtb	r3, r3
 3755 00d2 002B     		cmp	r3, #0
 3756 00d4 01D0     		beq	.L218
 3757              		.loc 1 846 0 discriminator 5
 3758 00d6 0123     		movs	r3, #1
 3759 00d8 00E0     		b	.L219
 3760              	.L218:
 3761              		.loc 1 846 0 discriminator 6
 3762 00da 0023     		movs	r3, #0
 3763              	.L219:
 3764              		.loc 1 846 0 discriminator 8
 3765 00dc DAB2     		uxtb	r2, r3
 3766 00de 3B68     		ldr	r3, [r7]
 3767 00e0 1A70     		strb	r2, [r3]
 847:.\DisplayUtils.c ****             pvalues[0x01] = (((_g_pumps[0x01]._pumpstate == PUMP_IDLE) || (_g_pumps[0x01]._pumpstat
 3768              		.loc 1 847 0 is_stmt 1 discriminator 8
 3769 00e2 3B68     		ldr	r3, [r7]
 3770 00e4 0133     		adds	r3, r3, #1
 3771 00e6 684A     		ldr	r2, .L245+4
 3772 00e8 92F89A2B 		ldrb	r2, [r2, #2970]
 3773 00ec D2B2     		uxtb	r2, r2
 3774 00ee 062A     		cmp	r2, #6
 3775 00f0 05D0     		beq	.L220
 3776              		.loc 1 847 0 is_stmt 0 discriminator 2
 3777 00f2 654A     		ldr	r2, .L245+4
 3778 00f4 92F89A2B 		ldrb	r2, [r2, #2970]
 3779 00f8 D2B2     		uxtb	r2, r2
 3780 00fa 072A     		cmp	r2, #7
 3781 00fc 0AD1     		bne	.L221
 3782              	.L220:
 3783              		.loc 1 847 0 discriminator 3
 3784 00fe 624A     		ldr	r2, .L245+4
 3785 0100 92F8A32B 		ldrb	r2, [r2, #2979]
 3786 0104 D2B2     		uxtb	r2, r2
 3787 0106 82F00102 		eor	r2, r2, #1
 3788 010a D2B2     		uxtb	r2, r2
 3789 010c 002A     		cmp	r2, #0
ARM GAS  C:\Users\Lenovo\AppData\Local\Temp\ccKs44LO.s 			page 83


 3790 010e 01D0     		beq	.L221
 3791              		.loc 1 847 0 discriminator 5
 3792 0110 0122     		movs	r2, #1
 3793 0112 00E0     		b	.L222
 3794              	.L221:
 3795              		.loc 1 847 0 discriminator 6
 3796 0114 0022     		movs	r2, #0
 3797              	.L222:
 3798              		.loc 1 847 0 discriminator 8
 3799 0116 D2B2     		uxtb	r2, r2
 3800 0118 1A70     		strb	r2, [r3]
 3801 011a AEE0     		b	.L207
 3802              	.L208:
 848:.\DisplayUtils.c ****             
 849:.\DisplayUtils.c ****         }
 850:.\DisplayUtils.c ****     }
 851:.\DisplayUtils.c ****     else if(_g_dispenserlayoutinfo._numpositions == 0x02)
 3803              		.loc 1 851 0 is_stmt 1
 3804 011c 594B     		ldr	r3, .L245
 3805 011e 9B78     		ldrb	r3, [r3, #2]	@ zero_extendqisi2
 3806 0120 022B     		cmp	r3, #2
 3807 0122 71D1     		bne	.L224
 852:.\DisplayUtils.c ****     {
 853:.\DisplayUtils.c ****         if(pdisplay->_dispid == DISPLAY1)
 3808              		.loc 1 853 0
 3809 0124 FB68     		ldr	r3, [r7, #12]
 3810 0126 1B78     		ldrb	r3, [r3]	@ zero_extendqisi2
 3811 0128 002B     		cmp	r3, #0
 3812 012a 31D1     		bne	.L225
 854:.\DisplayUtils.c ****         {
 855:.\DisplayUtils.c ****             pvalues[0x00] = (((_g_pumps[0x00]._pumpstate == PUMP_IDLE) || (_g_pumps[0x00]._pumpstat
 3813              		.loc 1 855 0
 3814 012c 564B     		ldr	r3, .L245+4
 3815 012e 9B78     		ldrb	r3, [r3, #2]
 3816 0130 DBB2     		uxtb	r3, r3
 3817 0132 062B     		cmp	r3, #6
 3818 0134 04D0     		beq	.L226
 3819              		.loc 1 855 0 is_stmt 0 discriminator 2
 3820 0136 544B     		ldr	r3, .L245+4
 3821 0138 9B78     		ldrb	r3, [r3, #2]
 3822 013a DBB2     		uxtb	r3, r3
 3823 013c 072B     		cmp	r3, #7
 3824 013e 09D1     		bne	.L227
 3825              	.L226:
 3826              		.loc 1 855 0 discriminator 3
 3827 0140 514B     		ldr	r3, .L245+4
 3828 0142 DB7A     		ldrb	r3, [r3, #11]
 3829 0144 DBB2     		uxtb	r3, r3
 3830 0146 83F00103 		eor	r3, r3, #1
 3831 014a DBB2     		uxtb	r3, r3
 3832 014c 002B     		cmp	r3, #0
 3833 014e 01D0     		beq	.L227
 3834              		.loc 1 855 0 discriminator 5
 3835 0150 0123     		movs	r3, #1
 3836 0152 00E0     		b	.L228
 3837              	.L227:
 3838              		.loc 1 855 0 discriminator 6
ARM GAS  C:\Users\Lenovo\AppData\Local\Temp\ccKs44LO.s 			page 84


 3839 0154 0023     		movs	r3, #0
 3840              	.L228:
 3841              		.loc 1 855 0 discriminator 8
 3842 0156 DAB2     		uxtb	r2, r3
 3843 0158 3B68     		ldr	r3, [r7]
 3844 015a 1A70     		strb	r2, [r3]
 856:.\DisplayUtils.c ****             pvalues[0x01] = (((_g_pumps[0x00]._pumpstate == PUMP_IDLE) || (_g_pumps[0x00]._pumpstat
 3845              		.loc 1 856 0 is_stmt 1 discriminator 8
 3846 015c 3B68     		ldr	r3, [r7]
 3847 015e 0133     		adds	r3, r3, #1
 3848 0160 494A     		ldr	r2, .L245+4
 3849 0162 9278     		ldrb	r2, [r2, #2]
 3850 0164 D2B2     		uxtb	r2, r2
 3851 0166 062A     		cmp	r2, #6
 3852 0168 04D0     		beq	.L229
 3853              		.loc 1 856 0 is_stmt 0 discriminator 2
 3854 016a 474A     		ldr	r2, .L245+4
 3855 016c 9278     		ldrb	r2, [r2, #2]
 3856 016e D2B2     		uxtb	r2, r2
 3857 0170 072A     		cmp	r2, #7
 3858 0172 09D1     		bne	.L230
 3859              	.L229:
 3860              		.loc 1 856 0 discriminator 3
 3861 0174 444A     		ldr	r2, .L245+4
 3862 0176 D27A     		ldrb	r2, [r2, #11]
 3863 0178 D2B2     		uxtb	r2, r2
 3864 017a 82F00102 		eor	r2, r2, #1
 3865 017e D2B2     		uxtb	r2, r2
 3866 0180 002A     		cmp	r2, #0
 3867 0182 01D0     		beq	.L230
 3868              		.loc 1 856 0 discriminator 5
 3869 0184 0122     		movs	r2, #1
 3870 0186 00E0     		b	.L231
 3871              	.L230:
 3872              		.loc 1 856 0 discriminator 6
 3873 0188 0022     		movs	r2, #0
 3874              	.L231:
 3875              		.loc 1 856 0 discriminator 8
 3876 018a D2B2     		uxtb	r2, r2
 3877 018c 1A70     		strb	r2, [r3]
 3878 018e 74E0     		b	.L207
 3879              	.L225:
 857:.\DisplayUtils.c ****             
 858:.\DisplayUtils.c ****         }
 859:.\DisplayUtils.c ****         else if(pdisplay->_dispid == DISPLAY2)
 3880              		.loc 1 859 0 is_stmt 1
 3881 0190 FB68     		ldr	r3, [r7, #12]
 3882 0192 1B78     		ldrb	r3, [r3]	@ zero_extendqisi2
 3883 0194 012B     		cmp	r3, #1
 3884 0196 70D1     		bne	.L207
 860:.\DisplayUtils.c ****         {
 861:.\DisplayUtils.c ****             pvalues[0x00] = (((_g_pumps[0x01]._pumpstate == PUMP_IDLE) || (_g_pumps[0x01]._pumpstat
 3885              		.loc 1 861 0
 3886 0198 3B4B     		ldr	r3, .L245+4
 3887 019a 93F89A3B 		ldrb	r3, [r3, #2970]
 3888 019e DBB2     		uxtb	r3, r3
 3889 01a0 062B     		cmp	r3, #6
ARM GAS  C:\Users\Lenovo\AppData\Local\Temp\ccKs44LO.s 			page 85


 3890 01a2 05D0     		beq	.L233
 3891              		.loc 1 861 0 is_stmt 0 discriminator 2
 3892 01a4 384B     		ldr	r3, .L245+4
 3893 01a6 93F89A3B 		ldrb	r3, [r3, #2970]
 3894 01aa DBB2     		uxtb	r3, r3
 3895 01ac 072B     		cmp	r3, #7
 3896 01ae 0AD1     		bne	.L234
 3897              	.L233:
 3898              		.loc 1 861 0 discriminator 3
 3899 01b0 354B     		ldr	r3, .L245+4
 3900 01b2 93F8A33B 		ldrb	r3, [r3, #2979]
 3901 01b6 DBB2     		uxtb	r3, r3
 3902 01b8 83F00103 		eor	r3, r3, #1
 3903 01bc DBB2     		uxtb	r3, r3
 3904 01be 002B     		cmp	r3, #0
 3905 01c0 01D0     		beq	.L234
 3906              		.loc 1 861 0 discriminator 5
 3907 01c2 0123     		movs	r3, #1
 3908 01c4 00E0     		b	.L235
 3909              	.L234:
 3910              		.loc 1 861 0 discriminator 6
 3911 01c6 0023     		movs	r3, #0
 3912              	.L235:
 3913              		.loc 1 861 0 discriminator 8
 3914 01c8 DAB2     		uxtb	r2, r3
 3915 01ca 3B68     		ldr	r3, [r7]
 3916 01cc 1A70     		strb	r2, [r3]
 862:.\DisplayUtils.c ****             pvalues[0x01] = (((_g_pumps[0x01]._pumpstate == PUMP_IDLE) || (_g_pumps[0x01]._pumpstat
 3917              		.loc 1 862 0 is_stmt 1 discriminator 8
 3918 01ce 3B68     		ldr	r3, [r7]
 3919 01d0 0133     		adds	r3, r3, #1
 3920 01d2 2D4A     		ldr	r2, .L245+4
 3921 01d4 92F89A2B 		ldrb	r2, [r2, #2970]
 3922 01d8 D2B2     		uxtb	r2, r2
 3923 01da 062A     		cmp	r2, #6
 3924 01dc 05D0     		beq	.L236
 3925              		.loc 1 862 0 is_stmt 0 discriminator 2
 3926 01de 2A4A     		ldr	r2, .L245+4
 3927 01e0 92F89A2B 		ldrb	r2, [r2, #2970]
 3928 01e4 D2B2     		uxtb	r2, r2
 3929 01e6 072A     		cmp	r2, #7
 3930 01e8 0AD1     		bne	.L237
 3931              	.L236:
 3932              		.loc 1 862 0 discriminator 3
 3933 01ea 274A     		ldr	r2, .L245+4
 3934 01ec 92F8A32B 		ldrb	r2, [r2, #2979]
 3935 01f0 D2B2     		uxtb	r2, r2
 3936 01f2 82F00102 		eor	r2, r2, #1
 3937 01f6 D2B2     		uxtb	r2, r2
 3938 01f8 002A     		cmp	r2, #0
 3939 01fa 01D0     		beq	.L237
 3940              		.loc 1 862 0 discriminator 5
 3941 01fc 0122     		movs	r2, #1
 3942 01fe 00E0     		b	.L238
 3943              	.L237:
 3944              		.loc 1 862 0 discriminator 6
 3945 0200 0022     		movs	r2, #0
ARM GAS  C:\Users\Lenovo\AppData\Local\Temp\ccKs44LO.s 			page 86


 3946              	.L238:
 3947              		.loc 1 862 0 discriminator 8
 3948 0202 D2B2     		uxtb	r2, r2
 3949 0204 1A70     		strb	r2, [r3]
 3950 0206 38E0     		b	.L207
 3951              	.L224:
 863:.\DisplayUtils.c ****             
 864:.\DisplayUtils.c ****         }
 865:.\DisplayUtils.c ****     }
 866:.\DisplayUtils.c ****     else if(_g_dispenserlayoutinfo._numpositions == 0x01)
 3952              		.loc 1 866 0 is_stmt 1
 3953 0208 1E4B     		ldr	r3, .L245
 3954 020a 9B78     		ldrb	r3, [r3, #2]	@ zero_extendqisi2
 3955 020c 012B     		cmp	r3, #1
 3956 020e 34D1     		bne	.L207
 867:.\DisplayUtils.c ****     {
 868:.\DisplayUtils.c ****         if(pdisplay->_dispid == DISPLAY1)
 3957              		.loc 1 868 0
 3958 0210 FB68     		ldr	r3, [r7, #12]
 3959 0212 1B78     		ldrb	r3, [r3]	@ zero_extendqisi2
 3960 0214 002B     		cmp	r3, #0
 3961 0216 30D1     		bne	.L207
 869:.\DisplayUtils.c ****         {
 870:.\DisplayUtils.c ****             pvalues[0x00] = (((_g_pumps[0x00]._pumpstate == PUMP_IDLE) || (_g_pumps[0x00]._pumpstat
 3962              		.loc 1 870 0
 3963 0218 1B4B     		ldr	r3, .L245+4
 3964 021a 9B78     		ldrb	r3, [r3, #2]
 3965 021c DBB2     		uxtb	r3, r3
 3966 021e 062B     		cmp	r3, #6
 3967 0220 04D0     		beq	.L239
 3968              		.loc 1 870 0 is_stmt 0 discriminator 2
 3969 0222 194B     		ldr	r3, .L245+4
 3970 0224 9B78     		ldrb	r3, [r3, #2]
 3971 0226 DBB2     		uxtb	r3, r3
 3972 0228 072B     		cmp	r3, #7
 3973 022a 09D1     		bne	.L240
 3974              	.L239:
 3975              		.loc 1 870 0 discriminator 3
 3976 022c 164B     		ldr	r3, .L245+4
 3977 022e DB7A     		ldrb	r3, [r3, #11]
 3978 0230 DBB2     		uxtb	r3, r3
 3979 0232 83F00103 		eor	r3, r3, #1
 3980 0236 DBB2     		uxtb	r3, r3
 3981 0238 002B     		cmp	r3, #0
 3982 023a 01D0     		beq	.L240
 3983              		.loc 1 870 0 discriminator 5
 3984 023c 0123     		movs	r3, #1
 3985 023e 00E0     		b	.L241
 3986              	.L240:
 3987              		.loc 1 870 0 discriminator 6
 3988 0240 0023     		movs	r3, #0
 3989              	.L241:
 3990              		.loc 1 870 0 discriminator 8
 3991 0242 DAB2     		uxtb	r2, r3
 3992 0244 3B68     		ldr	r3, [r7]
 3993 0246 1A70     		strb	r2, [r3]
 871:.\DisplayUtils.c ****             pvalues[0x01] = (((_g_pumps[0x00]._pumpstate == PUMP_IDLE) || (_g_pumps[0x00]._pumpstat
ARM GAS  C:\Users\Lenovo\AppData\Local\Temp\ccKs44LO.s 			page 87


 3994              		.loc 1 871 0 is_stmt 1 discriminator 8
 3995 0248 3B68     		ldr	r3, [r7]
 3996 024a 0133     		adds	r3, r3, #1
 3997 024c 0E4A     		ldr	r2, .L245+4
 3998 024e 9278     		ldrb	r2, [r2, #2]
 3999 0250 D2B2     		uxtb	r2, r2
 4000 0252 062A     		cmp	r2, #6
 4001 0254 04D0     		beq	.L242
 4002              		.loc 1 871 0 is_stmt 0 discriminator 2
 4003 0256 0C4A     		ldr	r2, .L245+4
 4004 0258 9278     		ldrb	r2, [r2, #2]
 4005 025a D2B2     		uxtb	r2, r2
 4006 025c 072A     		cmp	r2, #7
 4007 025e 09D1     		bne	.L243
 4008              	.L242:
 4009              		.loc 1 871 0 discriminator 3
 4010 0260 094A     		ldr	r2, .L245+4
 4011 0262 D27A     		ldrb	r2, [r2, #11]
 4012 0264 D2B2     		uxtb	r2, r2
 4013 0266 82F00102 		eor	r2, r2, #1
 4014 026a D2B2     		uxtb	r2, r2
 4015 026c 002A     		cmp	r2, #0
 4016 026e 01D0     		beq	.L243
 4017              		.loc 1 871 0 discriminator 5
 4018 0270 0122     		movs	r2, #1
 4019 0272 00E0     		b	.L244
 4020              	.L243:
 4021              		.loc 1 871 0 discriminator 6
 4022 0274 0022     		movs	r2, #0
 4023              	.L244:
 4024              		.loc 1 871 0 discriminator 8
 4025 0276 D2B2     		uxtb	r2, r2
 4026 0278 1A70     		strb	r2, [r3]
 4027              	.L207:
 872:.\DisplayUtils.c ****             
 873:.\DisplayUtils.c ****         }
 874:.\DisplayUtils.c ****     }
 875:.\DisplayUtils.c **** }
 4028              		.loc 1 875 0 is_stmt 1
 4029 027a 1437     		adds	r7, r7, #20
 4030              		.cfi_def_cfa_offset 4
 4031 027c BD46     		mov	sp, r7
 4032              		.cfi_def_cfa_register 13
 4033              		@ sp needed
 4034 027e 5DF8047B 		ldr	r7, [sp], #4
 4035              		.cfi_restore 7
 4036              		.cfi_def_cfa_offset 0
 4037 0282 7047     		bx	lr
 4038              	.L246:
 4039              		.align	2
 4040              	.L245:
 4041 0284 00000000 		.word	_g_dispenserlayoutinfo
 4042 0288 00000000 		.word	_g_pumps
 4043              		.cfi_endproc
 4044              	.LFE85:
 4045              		.size	GetPumpsAvailability, .-GetPumpsAvailability
 4046              		.section	.text.GetPumpsPrintState,"ax",%progbits
ARM GAS  C:\Users\Lenovo\AppData\Local\Temp\ccKs44LO.s 			page 88


 4047              		.align	2
 4048              		.global	GetPumpsPrintState
 4049              		.thumb
 4050              		.thumb_func
 4051              		.type	GetPumpsPrintState, %function
 4052              	GetPumpsPrintState:
 4053              	.LFB86:
 876:.\DisplayUtils.c **** 
 877:.\DisplayUtils.c **** void GetPumpsPrintState(void *pparam, bool *pvalues)
 878:.\DisplayUtils.c **** {
 4054              		.loc 1 878 0
 4055              		.cfi_startproc
 4056              		@ args = 0, pretend = 0, frame = 16
 4057              		@ frame_needed = 1, uses_anonymous_args = 0
 4058              		@ link register save eliminated.
 4059 0000 80B4     		push	{r7}
 4060              		.cfi_def_cfa_offset 4
 4061              		.cfi_offset 7, -4
 4062 0002 85B0     		sub	sp, sp, #20
 4063              		.cfi_def_cfa_offset 24
 4064 0004 00AF     		add	r7, sp, #0
 4065              		.cfi_def_cfa_register 7
 4066 0006 7860     		str	r0, [r7, #4]
 4067 0008 3960     		str	r1, [r7]
 879:.\DisplayUtils.c ****     DisplayLayout *pdisplay = (DisplayLayout*)pparam;
 4068              		.loc 1 879 0
 4069 000a 7B68     		ldr	r3, [r7, #4]
 4070 000c FB60     		str	r3, [r7, #12]
 880:.\DisplayUtils.c ****     if(_g_dispenserlayoutinfo._numpositions == 0x04)
 4071              		.loc 1 880 0
 4072 000e 344B     		ldr	r3, .L255
 4073 0010 9B78     		ldrb	r3, [r3, #2]	@ zero_extendqisi2
 4074 0012 042B     		cmp	r3, #4
 4075 0014 26D1     		bne	.L248
 881:.\DisplayUtils.c ****     {
 882:.\DisplayUtils.c ****         if(pdisplay->_dispid == DISPLAY1)
 4076              		.loc 1 882 0
 4077 0016 FB68     		ldr	r3, [r7, #12]
 4078 0018 1B78     		ldrb	r3, [r3]	@ zero_extendqisi2
 4079 001a 002B     		cmp	r3, #0
 4080 001c 0ED1     		bne	.L249
 883:.\DisplayUtils.c ****         {
 884:.\DisplayUtils.c ****             pvalues[0x00] = _g_pumps[0x00]._print;
 4081              		.loc 1 884 0
 4082 001e 314B     		ldr	r3, .L255+4
 4083 0020 DB7B     		ldrb	r3, [r3, #15]
 4084 0022 DAB2     		uxtb	r2, r3
 4085 0024 3B68     		ldr	r3, [r7]
 4086 0026 1A70     		strb	r2, [r3]
 885:.\DisplayUtils.c ****             pvalues[0x01] = _g_pumps[0x02]._print;
 4087              		.loc 1 885 0
 4088 0028 3B68     		ldr	r3, [r7]
 4089 002a 5A1C     		adds	r2, r3, #1
 4090 002c 2D4B     		ldr	r3, .L255+4
 4091 002e 03F5B953 		add	r3, r3, #5920
 4092 0032 1F33     		adds	r3, r3, #31
 4093 0034 1B78     		ldrb	r3, [r3]
ARM GAS  C:\Users\Lenovo\AppData\Local\Temp\ccKs44LO.s 			page 89


 4094 0036 DBB2     		uxtb	r3, r3
 4095 0038 1370     		strb	r3, [r2]
 4096 003a 4CE0     		b	.L247
 4097              	.L249:
 886:.\DisplayUtils.c ****             
 887:.\DisplayUtils.c ****         }
 888:.\DisplayUtils.c ****         else if(pdisplay->_dispid == DISPLAY2)
 4098              		.loc 1 888 0
 4099 003c FB68     		ldr	r3, [r7, #12]
 4100 003e 1B78     		ldrb	r3, [r3]	@ zero_extendqisi2
 4101 0040 012B     		cmp	r3, #1
 4102 0042 48D1     		bne	.L247
 889:.\DisplayUtils.c ****         {
 890:.\DisplayUtils.c ****             pvalues[0x00] = _g_pumps[0x03]._print;
 4103              		.loc 1 890 0
 4104 0044 274B     		ldr	r3, .L255+4
 4105 0046 03F50B53 		add	r3, r3, #8896
 4106 004a 1733     		adds	r3, r3, #23
 4107 004c 1B78     		ldrb	r3, [r3]
 4108 004e DAB2     		uxtb	r2, r3
 4109 0050 3B68     		ldr	r3, [r7]
 4110 0052 1A70     		strb	r2, [r3]
 891:.\DisplayUtils.c ****             pvalues[0x01] = _g_pumps[0x01]._print;
 4111              		.loc 1 891 0
 4112 0054 3B68     		ldr	r3, [r7]
 4113 0056 0133     		adds	r3, r3, #1
 4114 0058 224A     		ldr	r2, .L255+4
 4115 005a 92F8A72B 		ldrb	r2, [r2, #2983]
 4116 005e D2B2     		uxtb	r2, r2
 4117 0060 1A70     		strb	r2, [r3]
 4118 0062 38E0     		b	.L247
 4119              	.L248:
 892:.\DisplayUtils.c ****             
 893:.\DisplayUtils.c ****         }
 894:.\DisplayUtils.c ****     }
 895:.\DisplayUtils.c ****     else if(_g_dispenserlayoutinfo._numpositions == 0x02)
 4120              		.loc 1 895 0
 4121 0064 1E4B     		ldr	r3, .L255
 4122 0066 9B78     		ldrb	r3, [r3, #2]	@ zero_extendqisi2
 4123 0068 022B     		cmp	r3, #2
 4124 006a 21D1     		bne	.L252
 896:.\DisplayUtils.c ****     {
 897:.\DisplayUtils.c ****         if(pdisplay->_dispid == DISPLAY1)
 4125              		.loc 1 897 0
 4126 006c FB68     		ldr	r3, [r7, #12]
 4127 006e 1B78     		ldrb	r3, [r3]	@ zero_extendqisi2
 4128 0070 002B     		cmp	r3, #0
 4129 0072 0BD1     		bne	.L253
 898:.\DisplayUtils.c ****         {
 899:.\DisplayUtils.c ****             pvalues[0x00] = _g_pumps[0x00]._print;
 4130              		.loc 1 899 0
 4131 0074 1B4B     		ldr	r3, .L255+4
 4132 0076 DB7B     		ldrb	r3, [r3, #15]
 4133 0078 DAB2     		uxtb	r2, r3
 4134 007a 3B68     		ldr	r3, [r7]
 4135 007c 1A70     		strb	r2, [r3]
 900:.\DisplayUtils.c ****             pvalues[0x01] = _g_pumps[0x00]._print;
ARM GAS  C:\Users\Lenovo\AppData\Local\Temp\ccKs44LO.s 			page 90


 4136              		.loc 1 900 0
 4137 007e 3B68     		ldr	r3, [r7]
 4138 0080 0133     		adds	r3, r3, #1
 4139 0082 184A     		ldr	r2, .L255+4
 4140 0084 D27B     		ldrb	r2, [r2, #15]
 4141 0086 D2B2     		uxtb	r2, r2
 4142 0088 1A70     		strb	r2, [r3]
 4143 008a 24E0     		b	.L247
 4144              	.L253:
 901:.\DisplayUtils.c ****             
 902:.\DisplayUtils.c ****         }
 903:.\DisplayUtils.c ****         else if(pdisplay->_dispid == DISPLAY2)
 4145              		.loc 1 903 0
 4146 008c FB68     		ldr	r3, [r7, #12]
 4147 008e 1B78     		ldrb	r3, [r3]	@ zero_extendqisi2
 4148 0090 012B     		cmp	r3, #1
 4149 0092 20D1     		bne	.L247
 904:.\DisplayUtils.c ****         {
 905:.\DisplayUtils.c ****             pvalues[0x00] = _g_pumps[0x01]._print;
 4150              		.loc 1 905 0
 4151 0094 134B     		ldr	r3, .L255+4
 4152 0096 93F8A73B 		ldrb	r3, [r3, #2983]
 4153 009a DAB2     		uxtb	r2, r3
 4154 009c 3B68     		ldr	r3, [r7]
 4155 009e 1A70     		strb	r2, [r3]
 906:.\DisplayUtils.c ****             pvalues[0x01] = _g_pumps[0x01]._print;
 4156              		.loc 1 906 0
 4157 00a0 3B68     		ldr	r3, [r7]
 4158 00a2 0133     		adds	r3, r3, #1
 4159 00a4 0F4A     		ldr	r2, .L255+4
 4160 00a6 92F8A72B 		ldrb	r2, [r2, #2983]
 4161 00aa D2B2     		uxtb	r2, r2
 4162 00ac 1A70     		strb	r2, [r3]
 4163 00ae 12E0     		b	.L247
 4164              	.L252:
 907:.\DisplayUtils.c ****             
 908:.\DisplayUtils.c ****         }
 909:.\DisplayUtils.c ****     }
 910:.\DisplayUtils.c ****     else if(_g_dispenserlayoutinfo._numpositions == 0x01)
 4165              		.loc 1 910 0
 4166 00b0 0B4B     		ldr	r3, .L255
 4167 00b2 9B78     		ldrb	r3, [r3, #2]	@ zero_extendqisi2
 4168 00b4 012B     		cmp	r3, #1
 4169 00b6 0ED1     		bne	.L247
 911:.\DisplayUtils.c ****     {
 912:.\DisplayUtils.c ****         if(pdisplay->_dispid == DISPLAY1)
 4170              		.loc 1 912 0
 4171 00b8 FB68     		ldr	r3, [r7, #12]
 4172 00ba 1B78     		ldrb	r3, [r3]	@ zero_extendqisi2
 4173 00bc 002B     		cmp	r3, #0
 4174 00be 0AD1     		bne	.L247
 913:.\DisplayUtils.c ****         {
 914:.\DisplayUtils.c ****             pvalues[0x00] = _g_pumps[0x00]._print;
 4175              		.loc 1 914 0
 4176 00c0 084B     		ldr	r3, .L255+4
 4177 00c2 DB7B     		ldrb	r3, [r3, #15]
 4178 00c4 DAB2     		uxtb	r2, r3
ARM GAS  C:\Users\Lenovo\AppData\Local\Temp\ccKs44LO.s 			page 91


 4179 00c6 3B68     		ldr	r3, [r7]
 4180 00c8 1A70     		strb	r2, [r3]
 915:.\DisplayUtils.c ****             pvalues[0x01] = _g_pumps[0x00]._print;
 4181              		.loc 1 915 0
 4182 00ca 3B68     		ldr	r3, [r7]
 4183 00cc 0133     		adds	r3, r3, #1
 4184 00ce 054A     		ldr	r2, .L255+4
 4185 00d0 D27B     		ldrb	r2, [r2, #15]
 4186 00d2 D2B2     		uxtb	r2, r2
 4187 00d4 1A70     		strb	r2, [r3]
 4188              	.L247:
 916:.\DisplayUtils.c ****             
 917:.\DisplayUtils.c ****         }
 918:.\DisplayUtils.c ****     }
 919:.\DisplayUtils.c **** }
 4189              		.loc 1 919 0
 4190 00d6 1437     		adds	r7, r7, #20
 4191              		.cfi_def_cfa_offset 4
 4192 00d8 BD46     		mov	sp, r7
 4193              		.cfi_def_cfa_register 13
 4194              		@ sp needed
 4195 00da 5DF8047B 		ldr	r7, [sp], #4
 4196              		.cfi_restore 7
 4197              		.cfi_def_cfa_offset 0
 4198 00de 7047     		bx	lr
 4199              	.L256:
 4200              		.align	2
 4201              	.L255:
 4202 00e0 00000000 		.word	_g_dispenserlayoutinfo
 4203 00e4 00000000 		.word	_g_pumps
 4204              		.cfi_endproc
 4205              	.LFE86:
 4206              		.size	GetPumpsPrintState, .-GetPumpsPrintState
 4207              		.section	.text.DisplayInputHandler,"ax",%progbits
 4208              		.align	2
 4209              		.global	DisplayInputHandler
 4210              		.thumb
 4211              		.thumb_func
 4212              		.type	DisplayInputHandler, %function
 4213              	DisplayInputHandler:
 4214              	.LFB87:
 920:.\DisplayUtils.c **** 
 921:.\DisplayUtils.c **** //@Created by: HIJH
 922:.\DisplayUtils.c **** //@Date: Septembre de 2016
 923:.\DisplayUtils.c **** //This method handles the input data typed 
 924:.\DisplayUtils.c **** //in the screen
 925:.\DisplayUtils.c **** void DisplayInputHandler(void *pparam)
 926:.\DisplayUtils.c **** {
 4215              		.loc 1 926 0
 4216              		.cfi_startproc
 4217              		@ args = 0, pretend = 0, frame = 24
 4218              		@ frame_needed = 1, uses_anonymous_args = 0
 4219 0000 F0B5     		push	{r4, r5, r6, r7, lr}
 4220              		.cfi_def_cfa_offset 20
 4221              		.cfi_offset 4, -20
 4222              		.cfi_offset 5, -16
 4223              		.cfi_offset 6, -12
ARM GAS  C:\Users\Lenovo\AppData\Local\Temp\ccKs44LO.s 			page 92


 4224              		.cfi_offset 7, -8
 4225              		.cfi_offset 14, -4
 4226 0002 8BB0     		sub	sp, sp, #44
 4227              		.cfi_def_cfa_offset 64
 4228 0004 04AF     		add	r7, sp, #16
 4229              		.cfi_def_cfa 7, 48
 4230 0006 7860     		str	r0, [r7, #4]
 927:.\DisplayUtils.c ****     DisplayLayout *pdisplay = (DisplayLayout*)pparam;
 4231              		.loc 1 927 0
 4232 0008 7B68     		ldr	r3, [r7, #4]
 4233 000a 3B61     		str	r3, [r7, #16]
 928:.\DisplayUtils.c ****     if(pdisplay)
 4234              		.loc 1 928 0
 4235 000c 3B69     		ldr	r3, [r7, #16]
 4236 000e 002B     		cmp	r3, #0
 4237 0010 00F09980 		beq	.L257
 4238              	.LBB22:
 929:.\DisplayUtils.c ****     {
 930:.\DisplayUtils.c ****         char8 mappedchar = 0x00;
 4239              		.loc 1 930 0
 4240 0014 0023     		movs	r3, #0
 4241 0016 FB75     		strb	r3, [r7, #23]
 931:.\DisplayUtils.c ****         //This is since 0x0B has been defined as "Cancel" in the keypad
 932:.\DisplayUtils.c ****         if(pdisplay->_currscrcode == 0x0B)
 4242              		.loc 1 932 0
 4243 0018 3B69     		ldr	r3, [r7, #16]
 4244 001a DB78     		ldrb	r3, [r3, #3]	@ zero_extendqisi2
 4245 001c 0B2B     		cmp	r3, #11
 4246 001e 03D1     		bne	.L259
 933:.\DisplayUtils.c ****             pdisplay->_bufferinfo._bufferindex = 0;
 4247              		.loc 1 933 0
 4248 0020 3B69     		ldr	r3, [r7, #16]
 4249 0022 0022     		movs	r2, #0
 4250 0024 1A77     		strb	r2, [r3, #28]
 4251 0026 06E0     		b	.L260
 4252              	.L259:
 934:.\DisplayUtils.c ****         else
 935:.\DisplayUtils.c ****             mappedchar = UnmapCode(pdisplay->_currscrcode);
 4253              		.loc 1 935 0
 4254 0028 3B69     		ldr	r3, [r7, #16]
 4255 002a DB78     		ldrb	r3, [r3, #3]	@ zero_extendqisi2
 4256 002c 1846     		mov	r0, r3
 4257 002e FFF7FEFF 		bl	UnmapCode
 4258 0032 0346     		mov	r3, r0
 4259 0034 FB75     		strb	r3, [r7, #23]
 4260              	.L260:
 936:.\DisplayUtils.c ****         
 937:.\DisplayUtils.c ****         if(pdisplay->_bufferinfo._bufferindex == 0)
 4261              		.loc 1 937 0
 4262 0036 3B69     		ldr	r3, [r7, #16]
 4263 0038 1B7F     		ldrb	r3, [r3, #28]	@ zero_extendqisi2
 4264 003a 002B     		cmp	r3, #0
 4265 003c 10D1     		bne	.L261
 938:.\DisplayUtils.c ****         {
 939:.\DisplayUtils.c ****             pdisplay->_bufferinfo._xpos = pdisplay->_pcurrflow->_inputboxinfo._xdefpos;
 4266              		.loc 1 939 0
 4267 003e 3B69     		ldr	r3, [r7, #16]
ARM GAS  C:\Users\Lenovo\AppData\Local\Temp\ccKs44LO.s 			page 93


 4268 0040 1B69     		ldr	r3, [r3, #16]
 4269 0042 9A8D     		ldrh	r2, [r3, #44]
 4270 0044 3B69     		ldr	r3, [r7, #16]
 4271 0046 1A83     		strh	r2, [r3, #24]	@ movhi
 940:.\DisplayUtils.c ****             pdisplay->_bufferinfo._ypos = pdisplay->_pcurrflow->_inputboxinfo._ydefpos;
 4272              		.loc 1 940 0
 4273 0048 3B69     		ldr	r3, [r7, #16]
 4274 004a 1B69     		ldr	r3, [r3, #16]
 4275 004c DA8D     		ldrh	r2, [r3, #46]
 4276 004e 3B69     		ldr	r3, [r7, #16]
 4277 0050 5A83     		strh	r2, [r3, #26]	@ movhi
 941:.\DisplayUtils.c ****             memset(pdisplay->_bufferinfo._buffer, ' ', _DISPLAY_BUFFER_SIZE_);
 4278              		.loc 1 941 0
 4279 0052 3B69     		ldr	r3, [r7, #16]
 4280 0054 1D33     		adds	r3, r3, #29
 4281 0056 1846     		mov	r0, r3
 4282 0058 2021     		movs	r1, #32
 4283 005a 1022     		movs	r2, #16
 4284 005c FFF7FEFF 		bl	memset
 4285              	.L261:
 942:.\DisplayUtils.c ****         }
 943:.\DisplayUtils.c ****         //The InputBox is already filled up!
 944:.\DisplayUtils.c ****         if(pdisplay->_bufferinfo._bufferindex >= pdisplay->_pcurrflow->_inputboxinfo._maxchars)
 4286              		.loc 1 944 0
 4287 0060 3B69     		ldr	r3, [r7, #16]
 4288 0062 1A7F     		ldrb	r2, [r3, #28]	@ zero_extendqisi2
 4289 0064 3B69     		ldr	r3, [r7, #16]
 4290 0066 1B69     		ldr	r3, [r3, #16]
 4291 0068 93F83030 		ldrb	r3, [r3, #48]	@ zero_extendqisi2
 4292 006c 9A42     		cmp	r2, r3
 4293 006e 00D3     		bcc	.L262
 945:.\DisplayUtils.c ****             return;
 4294              		.loc 1 945 0
 4295 0070 69E0     		b	.L257
 4296              	.L262:
 946:.\DisplayUtils.c ****         
 947:.\DisplayUtils.c ****         //There's nothing new to show up since the unmapper didn't find anything to map to
 948:.\DisplayUtils.c ****         if(mappedchar != 0x00)
 4297              		.loc 1 948 0
 4298 0072 FB7D     		ldrb	r3, [r7, #23]	@ zero_extendqisi2
 4299 0074 002B     		cmp	r3, #0
 4300 0076 0AD0     		beq	.L263
 949:.\DisplayUtils.c ****             pdisplay->_bufferinfo._buffer[pdisplay->_bufferinfo._bufferindex++] = mappedchar;
 4301              		.loc 1 949 0
 4302 0078 3B69     		ldr	r3, [r7, #16]
 4303 007a 1B7F     		ldrb	r3, [r3, #28]	@ zero_extendqisi2
 4304 007c 5A1C     		adds	r2, r3, #1
 4305 007e D1B2     		uxtb	r1, r2
 4306 0080 3A69     		ldr	r2, [r7, #16]
 4307 0082 1177     		strb	r1, [r2, #28]
 4308 0084 1A46     		mov	r2, r3
 4309 0086 3B69     		ldr	r3, [r7, #16]
 4310 0088 1344     		add	r3, r3, r2
 4311 008a FA7D     		ldrb	r2, [r7, #23]
 4312 008c 5A77     		strb	r2, [r3, #29]
 4313              	.L263:
 950:.\DisplayUtils.c ****         
ARM GAS  C:\Users\Lenovo\AppData\Local\Temp\ccKs44LO.s 			page 94


 951:.\DisplayUtils.c ****         if(pdisplay->_dispid == DISPLAY1)
 4314              		.loc 1 951 0
 4315 008e 3B69     		ldr	r3, [r7, #16]
 4316 0090 1B78     		ldrb	r3, [r3]	@ zero_extendqisi2
 4317 0092 002B     		cmp	r3, #0
 4318 0094 2CD1     		bne	.L264
 4319              	.LBB23:
 952:.\DisplayUtils.c ****         {
 953:.\DisplayUtils.c ****             UARTMessage *puartdisp = GetUARTMessageSlot(UART_DISPLAY1);
 4320              		.loc 1 953 0
 4321 0096 A320     		movs	r0, #163
 4322 0098 FFF7FEFF 		bl	GetUARTMessageSlot
 4323 009c F860     		str	r0, [r7, #12]
 954:.\DisplayUtils.c ****             if(puartdisp)
 4324              		.loc 1 954 0
 4325 009e FB68     		ldr	r3, [r7, #12]
 4326 00a0 002B     		cmp	r3, #0
 4327 00a2 24D0     		beq	.L265
 955:.\DisplayUtils.c ****             {
 956:.\DisplayUtils.c ****                 puartdisp->_messagelength = DisplayOutputString(pdisplay->_bufferinfo._xpos, pdispl
 4328              		.loc 1 956 0
 4329 00a4 3B69     		ldr	r3, [r7, #16]
 4330 00a6 B3F818E0 		ldrh	lr, [r3, #24]
 4331 00aa 3B69     		ldr	r3, [r7, #16]
 4332 00ac 5E8B     		ldrh	r6, [r3, #26]
 4333 00ae FB68     		ldr	r3, [r7, #12]
 4334 00b0 1D1D     		adds	r5, r3, #4
 4335 00b2 3B69     		ldr	r3, [r7, #16]
 4336 00b4 03F11D04 		add	r4, r3, #29
 4337 00b8 3B69     		ldr	r3, [r7, #16]
 4338 00ba 1B69     		ldr	r3, [r3, #16]
 4339 00bc 93F83030 		ldrb	r3, [r3, #48]	@ zero_extendqisi2
 4340 00c0 9BB2     		uxth	r3, r3
 4341 00c2 3A69     		ldr	r2, [r7, #16]
 4342 00c4 1269     		ldr	r2, [r2, #16]
 4343 00c6 0093     		str	r3, [sp]
 4344 00c8 01AB     		add	r3, sp, #4
 4345 00ca 3232     		adds	r2, r2, #50
 4346 00cc 1068     		ldr	r0, [r2]	@ unaligned
 4347 00ce 5168     		ldr	r1, [r2, #4]	@ unaligned
 4348 00d0 03C3     		stmia	r3!, {r0, r1}
 4349 00d2 7046     		mov	r0, lr
 4350 00d4 3146     		mov	r1, r6
 4351 00d6 2A46     		mov	r2, r5
 4352 00d8 2346     		mov	r3, r4
 4353 00da FFF7FEFF 		bl	DisplayOutputString
 4354 00de 0346     		mov	r3, r0
 4355 00e0 1A46     		mov	r2, r3
 4356 00e2 FB68     		ldr	r3, [r7, #12]
 4357 00e4 5A80     		strh	r2, [r3, #2]	@ movhi
 957:.\DisplayUtils.c ****                 puartdisp->_messagestate = PENDING;
 4358              		.loc 1 957 0
 4359 00e6 FB68     		ldr	r3, [r7, #12]
 4360 00e8 C222     		movs	r2, #194
 4361 00ea 1A70     		strb	r2, [r3]
 4362              	.LBE23:
 4363 00ec 2BE0     		b	.L257
ARM GAS  C:\Users\Lenovo\AppData\Local\Temp\ccKs44LO.s 			page 95


 4364              	.L265:
 4365 00ee 2AE0     		b	.L257
 4366              	.L264:
 4367              	.LBB24:
 958:.\DisplayUtils.c ****             }
 959:.\DisplayUtils.c ****         }
 960:.\DisplayUtils.c ****         else
 961:.\DisplayUtils.c ****         {
 962:.\DisplayUtils.c ****             UARTMessage *puartdisp = GetUARTMessageSlot(UART_DISPLAY2);
 4368              		.loc 1 962 0
 4369 00f0 A420     		movs	r0, #164
 4370 00f2 FFF7FEFF 		bl	GetUARTMessageSlot
 4371 00f6 B860     		str	r0, [r7, #8]
 963:.\DisplayUtils.c ****             if(puartdisp)
 4372              		.loc 1 963 0
 4373 00f8 BB68     		ldr	r3, [r7, #8]
 4374 00fa 002B     		cmp	r3, #0
 4375 00fc 23D0     		beq	.L257
 964:.\DisplayUtils.c ****             {
 965:.\DisplayUtils.c ****                 puartdisp->_messagelength = DisplayOutputString(pdisplay->_bufferinfo._xpos, pdispl
 4376              		.loc 1 965 0
 4377 00fe 3B69     		ldr	r3, [r7, #16]
 4378 0100 B3F818E0 		ldrh	lr, [r3, #24]
 4379 0104 3B69     		ldr	r3, [r7, #16]
 4380 0106 5E8B     		ldrh	r6, [r3, #26]
 4381 0108 BB68     		ldr	r3, [r7, #8]
 4382 010a 1D1D     		adds	r5, r3, #4
 4383 010c 3B69     		ldr	r3, [r7, #16]
 4384 010e 03F11D04 		add	r4, r3, #29
 4385 0112 3B69     		ldr	r3, [r7, #16]
 4386 0114 1B69     		ldr	r3, [r3, #16]
 4387 0116 93F83030 		ldrb	r3, [r3, #48]	@ zero_extendqisi2
 4388 011a 9BB2     		uxth	r3, r3
 4389 011c 3A69     		ldr	r2, [r7, #16]
 4390 011e 1269     		ldr	r2, [r2, #16]
 4391 0120 0093     		str	r3, [sp]
 4392 0122 01AB     		add	r3, sp, #4
 4393 0124 3232     		adds	r2, r2, #50
 4394 0126 1068     		ldr	r0, [r2]	@ unaligned
 4395 0128 5168     		ldr	r1, [r2, #4]	@ unaligned
 4396 012a 03C3     		stmia	r3!, {r0, r1}
 4397 012c 7046     		mov	r0, lr
 4398 012e 3146     		mov	r1, r6
 4399 0130 2A46     		mov	r2, r5
 4400 0132 2346     		mov	r3, r4
 4401 0134 FFF7FEFF 		bl	DisplayOutputString
 4402 0138 0346     		mov	r3, r0
 4403 013a 1A46     		mov	r2, r3
 4404 013c BB68     		ldr	r3, [r7, #8]
 4405 013e 5A80     		strh	r2, [r3, #2]	@ movhi
 966:.\DisplayUtils.c ****                 puartdisp->_messagestate = PENDING;
 4406              		.loc 1 966 0
 4407 0140 BB68     		ldr	r3, [r7, #8]
 4408 0142 C222     		movs	r2, #194
 4409 0144 1A70     		strb	r2, [r3]
 4410              	.L257:
 4411              	.LBE24:
ARM GAS  C:\Users\Lenovo\AppData\Local\Temp\ccKs44LO.s 			page 96


 4412              	.LBE22:
 967:.\DisplayUtils.c ****             }
 968:.\DisplayUtils.c ****         }
 969:.\DisplayUtils.c ****         
 970:.\DisplayUtils.c ****     }
 971:.\DisplayUtils.c **** }
 4413              		.loc 1 971 0
 4414 0146 1C37     		adds	r7, r7, #28
 4415              		.cfi_def_cfa_offset 20
 4416 0148 BD46     		mov	sp, r7
 4417              		.cfi_def_cfa_register 13
 4418              		@ sp needed
 4419 014a F0BD     		pop	{r4, r5, r6, r7, pc}
 4420              		.cfi_endproc
 4421              	.LFE87:
 4422              		.size	DisplayInputHandler, .-DisplayInputHandler
 4423              		.section	.text.DisplayIDInputHandler,"ax",%progbits
 4424              		.align	2
 4425              		.global	DisplayIDInputHandler
 4426              		.thumb
 4427              		.thumb_func
 4428              		.type	DisplayIDInputHandler, %function
 4429              	DisplayIDInputHandler:
 4430              	.LFB88:
 972:.\DisplayUtils.c **** 
 973:.\DisplayUtils.c **** void DisplayIDInputHandler(void *pparam)
 974:.\DisplayUtils.c **** {
 4431              		.loc 1 974 0
 4432              		.cfi_startproc
 4433              		@ args = 0, pretend = 0, frame = 24
 4434              		@ frame_needed = 1, uses_anonymous_args = 0
 4435 0000 F0B5     		push	{r4, r5, r6, r7, lr}
 4436              		.cfi_def_cfa_offset 20
 4437              		.cfi_offset 4, -20
 4438              		.cfi_offset 5, -16
 4439              		.cfi_offset 6, -12
 4440              		.cfi_offset 7, -8
 4441              		.cfi_offset 14, -4
 4442 0002 8BB0     		sub	sp, sp, #44
 4443              		.cfi_def_cfa_offset 64
 4444 0004 04AF     		add	r7, sp, #16
 4445              		.cfi_def_cfa 7, 48
 4446 0006 7860     		str	r0, [r7, #4]
 975:.\DisplayUtils.c ****     DisplayLayout *pdisplay = (DisplayLayout*)pparam;
 4447              		.loc 1 975 0
 4448 0008 7B68     		ldr	r3, [r7, #4]
 4449 000a 3B61     		str	r3, [r7, #16]
 976:.\DisplayUtils.c ****     if(pdisplay)
 4450              		.loc 1 976 0
 4451 000c 3B69     		ldr	r3, [r7, #16]
 4452 000e 002B     		cmp	r3, #0
 4453 0010 00F0A480 		beq	.L266
 4454              	.LBB25:
 977:.\DisplayUtils.c ****     {
 978:.\DisplayUtils.c ****         char8 mappedchar = 0x00;
 4455              		.loc 1 978 0
 4456 0014 0023     		movs	r3, #0
ARM GAS  C:\Users\Lenovo\AppData\Local\Temp\ccKs44LO.s 			page 97


 4457 0016 FB75     		strb	r3, [r7, #23]
 979:.\DisplayUtils.c ****         //This is since 0x0B has been defined as "Cancel" in the keypad
 980:.\DisplayUtils.c ****         if(pdisplay->_currscrcode == 0x0B)
 4458              		.loc 1 980 0
 4459 0018 3B69     		ldr	r3, [r7, #16]
 4460 001a DB78     		ldrb	r3, [r3, #3]	@ zero_extendqisi2
 4461 001c 0B2B     		cmp	r3, #11
 4462 001e 03D1     		bne	.L268
 981:.\DisplayUtils.c ****             pdisplay->_bufferinfo._bufferindex = 0;
 4463              		.loc 1 981 0
 4464 0020 3B69     		ldr	r3, [r7, #16]
 4465 0022 0022     		movs	r2, #0
 4466 0024 1A77     		strb	r2, [r3, #28]
 4467 0026 11E0     		b	.L269
 4468              	.L268:
 982:.\DisplayUtils.c ****         else
 983:.\DisplayUtils.c ****         {
 984:.\DisplayUtils.c ****             mappedchar = UnmapCode(pdisplay->_currscrcode);
 4469              		.loc 1 984 0
 4470 0028 3B69     		ldr	r3, [r7, #16]
 4471 002a DB78     		ldrb	r3, [r3, #3]	@ zero_extendqisi2
 4472 002c 1846     		mov	r0, r3
 4473 002e FFF7FEFF 		bl	UnmapCode
 4474 0032 0346     		mov	r3, r0
 4475 0034 FB75     		strb	r3, [r7, #23]
 985:.\DisplayUtils.c ****             
 986:.\DisplayUtils.c ****             //No zeros allowed as left most significant digits
 987:.\DisplayUtils.c ****             if((mappedchar < 0x30 || mappedchar > 0x39) && (pdisplay->_bufferinfo._bufferindex == 0
 4476              		.loc 1 987 0
 4477 0036 FB7D     		ldrb	r3, [r7, #23]	@ zero_extendqisi2
 4478 0038 2F2B     		cmp	r3, #47
 4479 003a 02D9     		bls	.L270
 4480              		.loc 1 987 0 is_stmt 0 discriminator 2
 4481 003c FB7D     		ldrb	r3, [r7, #23]	@ zero_extendqisi2
 4482 003e 392B     		cmp	r3, #57
 4483 0040 04D9     		bls	.L269
 4484              	.L270:
 4485              		.loc 1 987 0 discriminator 3
 4486 0042 3B69     		ldr	r3, [r7, #16]
 4487 0044 1B7F     		ldrb	r3, [r3, #28]	@ zero_extendqisi2
 4488 0046 002B     		cmp	r3, #0
 4489 0048 00D1     		bne	.L269
 988:.\DisplayUtils.c ****                 return;
 4490              		.loc 1 988 0 is_stmt 1
 4491 004a 87E0     		b	.L266
 4492              	.L269:
 989:.\DisplayUtils.c ****         }
 990:.\DisplayUtils.c ****         
 991:.\DisplayUtils.c ****         if(pdisplay->_bufferinfo._bufferindex == 0)
 4493              		.loc 1 991 0
 4494 004c 3B69     		ldr	r3, [r7, #16]
 4495 004e 1B7F     		ldrb	r3, [r3, #28]	@ zero_extendqisi2
 4496 0050 002B     		cmp	r3, #0
 4497 0052 10D1     		bne	.L271
 992:.\DisplayUtils.c ****         {
 993:.\DisplayUtils.c ****             pdisplay->_bufferinfo._xpos = pdisplay->_pcurrflow->_inputboxinfo._xdefpos;
 4498              		.loc 1 993 0
ARM GAS  C:\Users\Lenovo\AppData\Local\Temp\ccKs44LO.s 			page 98


 4499 0054 3B69     		ldr	r3, [r7, #16]
 4500 0056 1B69     		ldr	r3, [r3, #16]
 4501 0058 9A8D     		ldrh	r2, [r3, #44]
 4502 005a 3B69     		ldr	r3, [r7, #16]
 4503 005c 1A83     		strh	r2, [r3, #24]	@ movhi
 994:.\DisplayUtils.c ****             pdisplay->_bufferinfo._ypos = pdisplay->_pcurrflow->_inputboxinfo._ydefpos;
 4504              		.loc 1 994 0
 4505 005e 3B69     		ldr	r3, [r7, #16]
 4506 0060 1B69     		ldr	r3, [r3, #16]
 4507 0062 DA8D     		ldrh	r2, [r3, #46]
 4508 0064 3B69     		ldr	r3, [r7, #16]
 4509 0066 5A83     		strh	r2, [r3, #26]	@ movhi
 995:.\DisplayUtils.c ****             memset(pdisplay->_bufferinfo._buffer, ' ', _DISPLAY_BUFFER_SIZE_);
 4510              		.loc 1 995 0
 4511 0068 3B69     		ldr	r3, [r7, #16]
 4512 006a 1D33     		adds	r3, r3, #29
 4513 006c 1846     		mov	r0, r3
 4514 006e 2021     		movs	r1, #32
 4515 0070 1022     		movs	r2, #16
 4516 0072 FFF7FEFF 		bl	memset
 4517              	.L271:
 996:.\DisplayUtils.c ****         }
 997:.\DisplayUtils.c ****         //The InputBox is already filled up!
 998:.\DisplayUtils.c ****         if(pdisplay->_bufferinfo._bufferindex >= pdisplay->_pcurrflow->_inputboxinfo._maxchars)
 4518              		.loc 1 998 0
 4519 0076 3B69     		ldr	r3, [r7, #16]
 4520 0078 1A7F     		ldrb	r2, [r3, #28]	@ zero_extendqisi2
 4521 007a 3B69     		ldr	r3, [r7, #16]
 4522 007c 1B69     		ldr	r3, [r3, #16]
 4523 007e 93F83030 		ldrb	r3, [r3, #48]	@ zero_extendqisi2
 4524 0082 9A42     		cmp	r2, r3
 4525 0084 00D3     		bcc	.L272
 999:.\DisplayUtils.c ****             return;
 4526              		.loc 1 999 0 discriminator 2
 4527 0086 69E0     		b	.L266
 4528              	.L272:
1000:.\DisplayUtils.c ****         
1001:.\DisplayUtils.c ****         //There's nothing new to show up since the unmapper didn't find anything to map to
1002:.\DisplayUtils.c ****         if(mappedchar != 0x00)
 4529              		.loc 1 1002 0
 4530 0088 FB7D     		ldrb	r3, [r7, #23]	@ zero_extendqisi2
 4531 008a 002B     		cmp	r3, #0
 4532 008c 0AD0     		beq	.L273
1003:.\DisplayUtils.c ****             pdisplay->_bufferinfo._buffer[pdisplay->_bufferinfo._bufferindex++] = mappedchar;
 4533              		.loc 1 1003 0
 4534 008e 3B69     		ldr	r3, [r7, #16]
 4535 0090 1B7F     		ldrb	r3, [r3, #28]	@ zero_extendqisi2
 4536 0092 5A1C     		adds	r2, r3, #1
 4537 0094 D1B2     		uxtb	r1, r2
 4538 0096 3A69     		ldr	r2, [r7, #16]
 4539 0098 1177     		strb	r1, [r2, #28]
 4540 009a 1A46     		mov	r2, r3
 4541 009c 3B69     		ldr	r3, [r7, #16]
 4542 009e 1344     		add	r3, r3, r2
 4543 00a0 FA7D     		ldrb	r2, [r7, #23]
 4544 00a2 5A77     		strb	r2, [r3, #29]
 4545              	.L273:
ARM GAS  C:\Users\Lenovo\AppData\Local\Temp\ccKs44LO.s 			page 99


1004:.\DisplayUtils.c ****         
1005:.\DisplayUtils.c ****         if(pdisplay->_dispid == DISPLAY1)
 4546              		.loc 1 1005 0
 4547 00a4 3B69     		ldr	r3, [r7, #16]
 4548 00a6 1B78     		ldrb	r3, [r3]	@ zero_extendqisi2
 4549 00a8 002B     		cmp	r3, #0
 4550 00aa 2CD1     		bne	.L274
 4551              	.LBB26:
1006:.\DisplayUtils.c ****         {
1007:.\DisplayUtils.c ****             UARTMessage *puartdisp = GetUARTMessageSlot(UART_DISPLAY1);
 4552              		.loc 1 1007 0
 4553 00ac A320     		movs	r0, #163
 4554 00ae FFF7FEFF 		bl	GetUARTMessageSlot
 4555 00b2 F860     		str	r0, [r7, #12]
1008:.\DisplayUtils.c ****             if(puartdisp)
 4556              		.loc 1 1008 0
 4557 00b4 FB68     		ldr	r3, [r7, #12]
 4558 00b6 002B     		cmp	r3, #0
 4559 00b8 24D0     		beq	.L275
1009:.\DisplayUtils.c ****             {
1010:.\DisplayUtils.c ****                 puartdisp->_messagelength = DisplayOutputString(pdisplay->_bufferinfo._xpos, pdispl
 4560              		.loc 1 1010 0
 4561 00ba 3B69     		ldr	r3, [r7, #16]
 4562 00bc B3F818E0 		ldrh	lr, [r3, #24]
 4563 00c0 3B69     		ldr	r3, [r7, #16]
 4564 00c2 5E8B     		ldrh	r6, [r3, #26]
 4565 00c4 FB68     		ldr	r3, [r7, #12]
 4566 00c6 1D1D     		adds	r5, r3, #4
 4567 00c8 3B69     		ldr	r3, [r7, #16]
 4568 00ca 03F11D04 		add	r4, r3, #29
 4569 00ce 3B69     		ldr	r3, [r7, #16]
 4570 00d0 1B69     		ldr	r3, [r3, #16]
 4571 00d2 93F83030 		ldrb	r3, [r3, #48]	@ zero_extendqisi2
 4572 00d6 9BB2     		uxth	r3, r3
 4573 00d8 3A69     		ldr	r2, [r7, #16]
 4574 00da 1269     		ldr	r2, [r2, #16]
 4575 00dc 0093     		str	r3, [sp]
 4576 00de 01AB     		add	r3, sp, #4
 4577 00e0 3232     		adds	r2, r2, #50
 4578 00e2 1068     		ldr	r0, [r2]	@ unaligned
 4579 00e4 5168     		ldr	r1, [r2, #4]	@ unaligned
 4580 00e6 03C3     		stmia	r3!, {r0, r1}
 4581 00e8 7046     		mov	r0, lr
 4582 00ea 3146     		mov	r1, r6
 4583 00ec 2A46     		mov	r2, r5
 4584 00ee 2346     		mov	r3, r4
 4585 00f0 FFF7FEFF 		bl	DisplayOutputString
 4586 00f4 0346     		mov	r3, r0
 4587 00f6 1A46     		mov	r2, r3
 4588 00f8 FB68     		ldr	r3, [r7, #12]
 4589 00fa 5A80     		strh	r2, [r3, #2]	@ movhi
1011:.\DisplayUtils.c ****                 puartdisp->_messagestate = PENDING;
 4590              		.loc 1 1011 0
 4591 00fc FB68     		ldr	r3, [r7, #12]
 4592 00fe C222     		movs	r2, #194
 4593 0100 1A70     		strb	r2, [r3]
 4594              	.LBE26:
ARM GAS  C:\Users\Lenovo\AppData\Local\Temp\ccKs44LO.s 			page 100


 4595 0102 2BE0     		b	.L266
 4596              	.L275:
 4597 0104 2AE0     		b	.L266
 4598              	.L274:
 4599              	.LBB27:
1012:.\DisplayUtils.c ****             }
1013:.\DisplayUtils.c ****         }
1014:.\DisplayUtils.c ****         else
1015:.\DisplayUtils.c ****         {
1016:.\DisplayUtils.c ****             UARTMessage *puartdisp = GetUARTMessageSlot(UART_DISPLAY2);
 4600              		.loc 1 1016 0
 4601 0106 A420     		movs	r0, #164
 4602 0108 FFF7FEFF 		bl	GetUARTMessageSlot
 4603 010c B860     		str	r0, [r7, #8]
1017:.\DisplayUtils.c ****             if(puartdisp)
 4604              		.loc 1 1017 0
 4605 010e BB68     		ldr	r3, [r7, #8]
 4606 0110 002B     		cmp	r3, #0
 4607 0112 23D0     		beq	.L266
1018:.\DisplayUtils.c ****             {
1019:.\DisplayUtils.c ****                 puartdisp->_messagelength = DisplayOutputString(pdisplay->_bufferinfo._xpos, pdispl
 4608              		.loc 1 1019 0
 4609 0114 3B69     		ldr	r3, [r7, #16]
 4610 0116 B3F818E0 		ldrh	lr, [r3, #24]
 4611 011a 3B69     		ldr	r3, [r7, #16]
 4612 011c 5E8B     		ldrh	r6, [r3, #26]
 4613 011e BB68     		ldr	r3, [r7, #8]
 4614 0120 1D1D     		adds	r5, r3, #4
 4615 0122 3B69     		ldr	r3, [r7, #16]
 4616 0124 03F11D04 		add	r4, r3, #29
 4617 0128 3B69     		ldr	r3, [r7, #16]
 4618 012a 1B69     		ldr	r3, [r3, #16]
 4619 012c 93F83030 		ldrb	r3, [r3, #48]	@ zero_extendqisi2
 4620 0130 9BB2     		uxth	r3, r3
 4621 0132 3A69     		ldr	r2, [r7, #16]
 4622 0134 1269     		ldr	r2, [r2, #16]
 4623 0136 0093     		str	r3, [sp]
 4624 0138 01AB     		add	r3, sp, #4
 4625 013a 3232     		adds	r2, r2, #50
 4626 013c 1068     		ldr	r0, [r2]	@ unaligned
 4627 013e 5168     		ldr	r1, [r2, #4]	@ unaligned
 4628 0140 03C3     		stmia	r3!, {r0, r1}
 4629 0142 7046     		mov	r0, lr
 4630 0144 3146     		mov	r1, r6
 4631 0146 2A46     		mov	r2, r5
 4632 0148 2346     		mov	r3, r4
 4633 014a FFF7FEFF 		bl	DisplayOutputString
 4634 014e 0346     		mov	r3, r0
 4635 0150 1A46     		mov	r2, r3
 4636 0152 BB68     		ldr	r3, [r7, #8]
 4637 0154 5A80     		strh	r2, [r3, #2]	@ movhi
1020:.\DisplayUtils.c ****                 puartdisp->_messagestate = PENDING;
 4638              		.loc 1 1020 0
 4639 0156 BB68     		ldr	r3, [r7, #8]
 4640 0158 C222     		movs	r2, #194
 4641 015a 1A70     		strb	r2, [r3]
 4642              	.L266:
ARM GAS  C:\Users\Lenovo\AppData\Local\Temp\ccKs44LO.s 			page 101


 4643              	.LBE27:
 4644              	.LBE25:
1021:.\DisplayUtils.c ****             }
1022:.\DisplayUtils.c ****         }
1023:.\DisplayUtils.c ****         
1024:.\DisplayUtils.c ****     }
1025:.\DisplayUtils.c **** }
 4645              		.loc 1 1025 0
 4646 015c 1C37     		adds	r7, r7, #28
 4647              		.cfi_def_cfa_offset 20
 4648 015e BD46     		mov	sp, r7
 4649              		.cfi_def_cfa_register 13
 4650              		@ sp needed
 4651 0160 F0BD     		pop	{r4, r5, r6, r7, pc}
 4652              		.cfi_endproc
 4653              	.LFE88:
 4654              		.size	DisplayIDInputHandler, .-DisplayIDInputHandler
 4655 0162 00BF     		.section	.text.DisplayInputPasswordHandler,"ax",%progbits
 4656              		.align	2
 4657              		.global	DisplayInputPasswordHandler
 4658              		.thumb
 4659              		.thumb_func
 4660              		.type	DisplayInputPasswordHandler, %function
 4661              	DisplayInputPasswordHandler:
 4662              	.LFB89:
1026:.\DisplayUtils.c **** 
1027:.\DisplayUtils.c **** //@Created by: HIJH
1028:.\DisplayUtils.c **** //@Date: Septembre de 2016
1029:.\DisplayUtils.c **** //This method handles the input data typed in the inputbox. 
1030:.\DisplayUtils.c **** //It masks the output so it allows for writting passwords.
1031:.\DisplayUtils.c **** void DisplayInputPasswordHandler(void *pparam)
1032:.\DisplayUtils.c **** {
 4663              		.loc 1 1032 0
 4664              		.cfi_startproc
 4665              		@ args = 0, pretend = 0, frame = 56
 4666              		@ frame_needed = 1, uses_anonymous_args = 0
 4667 0000 F0B5     		push	{r4, r5, r6, r7, lr}
 4668              		.cfi_def_cfa_offset 20
 4669              		.cfi_offset 4, -20
 4670              		.cfi_offset 5, -16
 4671              		.cfi_offset 6, -12
 4672              		.cfi_offset 7, -8
 4673              		.cfi_offset 14, -4
 4674 0002 93B0     		sub	sp, sp, #76
 4675              		.cfi_def_cfa_offset 96
 4676 0004 04AF     		add	r7, sp, #16
 4677              		.cfi_def_cfa 7, 80
 4678 0006 7860     		str	r0, [r7, #4]
1033:.\DisplayUtils.c ****     PDISPLAYLAYOUTPTR pdisplay = (PDISPLAYLAYOUTPTR)pparam;
 4679              		.loc 1 1033 0
 4680 0008 7B68     		ldr	r3, [r7, #4]
 4681 000a 3B63     		str	r3, [r7, #48]
1034:.\DisplayUtils.c ****     if(pdisplay)
 4682              		.loc 1 1034 0
 4683 000c 3B6B     		ldr	r3, [r7, #48]
 4684 000e 002B     		cmp	r3, #0
 4685 0010 00F0BB80 		beq	.L276
ARM GAS  C:\Users\Lenovo\AppData\Local\Temp\ccKs44LO.s 			page 102


 4686              	.LBB28:
1035:.\DisplayUtils.c ****     {
1036:.\DisplayUtils.c ****         char8 mappedchar = 0x00;
 4687              		.loc 1 1036 0
 4688 0014 0023     		movs	r3, #0
 4689 0016 87F83730 		strb	r3, [r7, #55]
1037:.\DisplayUtils.c ****         //This is since 0x0B has been defined as "Cancel" in the keypad
1038:.\DisplayUtils.c ****         if(pdisplay->_currscrcode == 0x0B)
 4690              		.loc 1 1038 0
 4691 001a 3B6B     		ldr	r3, [r7, #48]
 4692 001c DB78     		ldrb	r3, [r3, #3]	@ zero_extendqisi2
 4693 001e 0B2B     		cmp	r3, #11
 4694 0020 03D1     		bne	.L278
1039:.\DisplayUtils.c ****             pdisplay->_bufferinfo._bufferindex = 0;
 4695              		.loc 1 1039 0
 4696 0022 3B6B     		ldr	r3, [r7, #48]
 4697 0024 0022     		movs	r2, #0
 4698 0026 1A77     		strb	r2, [r3, #28]
 4699 0028 07E0     		b	.L279
 4700              	.L278:
1040:.\DisplayUtils.c ****         else
1041:.\DisplayUtils.c ****             mappedchar = UnmapCode(pdisplay->_currscrcode);
 4701              		.loc 1 1041 0
 4702 002a 3B6B     		ldr	r3, [r7, #48]
 4703 002c DB78     		ldrb	r3, [r3, #3]	@ zero_extendqisi2
 4704 002e 1846     		mov	r0, r3
 4705 0030 FFF7FEFF 		bl	UnmapCode
 4706 0034 0346     		mov	r3, r0
 4707 0036 87F83730 		strb	r3, [r7, #55]
 4708              	.L279:
1042:.\DisplayUtils.c ****         
1043:.\DisplayUtils.c ****         if(pdisplay->_bufferinfo._bufferindex == 0)
 4709              		.loc 1 1043 0
 4710 003a 3B6B     		ldr	r3, [r7, #48]
 4711 003c 1B7F     		ldrb	r3, [r3, #28]	@ zero_extendqisi2
 4712 003e 002B     		cmp	r3, #0
 4713 0040 10D1     		bne	.L280
1044:.\DisplayUtils.c ****         {
1045:.\DisplayUtils.c ****             pdisplay->_bufferinfo._xpos = pdisplay->_pcurrflow->_inputboxinfo._xdefpos;
 4714              		.loc 1 1045 0
 4715 0042 3B6B     		ldr	r3, [r7, #48]
 4716 0044 1B69     		ldr	r3, [r3, #16]
 4717 0046 9A8D     		ldrh	r2, [r3, #44]
 4718 0048 3B6B     		ldr	r3, [r7, #48]
 4719 004a 1A83     		strh	r2, [r3, #24]	@ movhi
1046:.\DisplayUtils.c ****             pdisplay->_bufferinfo._ypos = pdisplay->_pcurrflow->_inputboxinfo._ydefpos;
 4720              		.loc 1 1046 0
 4721 004c 3B6B     		ldr	r3, [r7, #48]
 4722 004e 1B69     		ldr	r3, [r3, #16]
 4723 0050 DA8D     		ldrh	r2, [r3, #46]
 4724 0052 3B6B     		ldr	r3, [r7, #48]
 4725 0054 5A83     		strh	r2, [r3, #26]	@ movhi
1047:.\DisplayUtils.c ****             memset(pdisplay->_bufferinfo._buffer, ' ', _DISPLAY_BUFFER_SIZE_);
 4726              		.loc 1 1047 0
 4727 0056 3B6B     		ldr	r3, [r7, #48]
 4728 0058 1D33     		adds	r3, r3, #29
 4729 005a 1846     		mov	r0, r3
ARM GAS  C:\Users\Lenovo\AppData\Local\Temp\ccKs44LO.s 			page 103


 4730 005c 2021     		movs	r1, #32
 4731 005e 1022     		movs	r2, #16
 4732 0060 FFF7FEFF 		bl	memset
 4733              	.L280:
1048:.\DisplayUtils.c ****         }
1049:.\DisplayUtils.c ****         //The InputBox is already filled up!
1050:.\DisplayUtils.c ****         if(pdisplay->_bufferinfo._bufferindex >= pdisplay->_pcurrflow->_inputboxinfo._maxchars)
 4734              		.loc 1 1050 0
 4735 0064 3B6B     		ldr	r3, [r7, #48]
 4736 0066 1A7F     		ldrb	r2, [r3, #28]	@ zero_extendqisi2
 4737 0068 3B6B     		ldr	r3, [r7, #48]
 4738 006a 1B69     		ldr	r3, [r3, #16]
 4739 006c 93F83030 		ldrb	r3, [r3, #48]	@ zero_extendqisi2
 4740 0070 9A42     		cmp	r2, r3
 4741 0072 00D3     		bcc	.L281
1051:.\DisplayUtils.c ****             return;
 4742              		.loc 1 1051 0
 4743 0074 89E0     		b	.L276
 4744              	.L281:
1052:.\DisplayUtils.c ****         
1053:.\DisplayUtils.c ****         //There's nothing new to show up since the unmapper didn't find anything to map to
1054:.\DisplayUtils.c ****         if(mappedchar != 0x00)
 4745              		.loc 1 1054 0
 4746 0076 97F83730 		ldrb	r3, [r7, #55]	@ zero_extendqisi2
 4747 007a 002B     		cmp	r3, #0
 4748 007c 0BD0     		beq	.L282
1055:.\DisplayUtils.c ****             pdisplay->_bufferinfo._buffer[pdisplay->_bufferinfo._bufferindex++] = mappedchar;
 4749              		.loc 1 1055 0
 4750 007e 3B6B     		ldr	r3, [r7, #48]
 4751 0080 1B7F     		ldrb	r3, [r3, #28]	@ zero_extendqisi2
 4752 0082 5A1C     		adds	r2, r3, #1
 4753 0084 D1B2     		uxtb	r1, r2
 4754 0086 3A6B     		ldr	r2, [r7, #48]
 4755 0088 1177     		strb	r1, [r2, #28]
 4756 008a 1A46     		mov	r2, r3
 4757 008c 3B6B     		ldr	r3, [r7, #48]
 4758 008e 1344     		add	r3, r3, r2
 4759 0090 97F83720 		ldrb	r2, [r7, #55]
 4760 0094 5A77     		strb	r2, [r3, #29]
 4761              	.L282:
1056:.\DisplayUtils.c ****         
1057:.\DisplayUtils.c ****         if(pdisplay->_dispid == DISPLAY1)
 4762              		.loc 1 1057 0
 4763 0096 3B6B     		ldr	r3, [r7, #48]
 4764 0098 1B78     		ldrb	r3, [r3]	@ zero_extendqisi2
 4765 009a 002B     		cmp	r3, #0
 4766 009c 3BD1     		bne	.L283
 4767              	.LBB29:
1058:.\DisplayUtils.c ****         {
1059:.\DisplayUtils.c ****             PUARTMESSAGEPTR puartdisp = GetUARTMessageSlot(UART_DISPLAY1);
 4768              		.loc 1 1059 0
 4769 009e A320     		movs	r0, #163
 4770 00a0 FFF7FEFF 		bl	GetUARTMessageSlot
 4771 00a4 F862     		str	r0, [r7, #44]
1060:.\DisplayUtils.c ****             if(puartdisp)
 4772              		.loc 1 1060 0
 4773 00a6 FB6A     		ldr	r3, [r7, #44]
ARM GAS  C:\Users\Lenovo\AppData\Local\Temp\ccKs44LO.s 			page 104


 4774 00a8 002B     		cmp	r3, #0
 4775 00aa 33D0     		beq	.L284
 4776              	.LBB30:
1061:.\DisplayUtils.c ****             {
1062:.\DisplayUtils.c ****                 char8 maskedinput[16];
1063:.\DisplayUtils.c ****                 memset(maskedinput, 0x00, sizeof(maskedinput));
 4777              		.loc 1 1063 0
 4778 00ac 07F11803 		add	r3, r7, #24
 4779 00b0 1846     		mov	r0, r3
 4780 00b2 0021     		movs	r1, #0
 4781 00b4 1022     		movs	r2, #16
 4782 00b6 FFF7FEFF 		bl	memset
1064:.\DisplayUtils.c ****                 memset(maskedinput, '*', pdisplay->_bufferinfo._bufferindex);
 4783              		.loc 1 1064 0
 4784 00ba 3B6B     		ldr	r3, [r7, #48]
 4785 00bc 1B7F     		ldrb	r3, [r3, #28]	@ zero_extendqisi2
 4786 00be 1A46     		mov	r2, r3
 4787 00c0 07F11803 		add	r3, r7, #24
 4788 00c4 1846     		mov	r0, r3
 4789 00c6 2A21     		movs	r1, #42
 4790 00c8 FFF7FEFF 		bl	memset
1065:.\DisplayUtils.c ****                 puartdisp->_messagelength = DisplayOutputString(pdisplay->_bufferinfo._xpos, pdispl
 4791              		.loc 1 1065 0
 4792 00cc 3B6B     		ldr	r3, [r7, #48]
 4793 00ce B3F818E0 		ldrh	lr, [r3, #24]
 4794 00d2 3B6B     		ldr	r3, [r7, #48]
 4795 00d4 5E8B     		ldrh	r6, [r3, #26]
 4796 00d6 FB6A     		ldr	r3, [r7, #44]
 4797 00d8 1D1D     		adds	r5, r3, #4
 4798 00da 3B6B     		ldr	r3, [r7, #48]
 4799 00dc 1B69     		ldr	r3, [r3, #16]
 4800 00de 93F83030 		ldrb	r3, [r3, #48]	@ zero_extendqisi2
 4801 00e2 9BB2     		uxth	r3, r3
 4802 00e4 3A6B     		ldr	r2, [r7, #48]
 4803 00e6 1269     		ldr	r2, [r2, #16]
 4804 00e8 07F11804 		add	r4, r7, #24
 4805 00ec 0093     		str	r3, [sp]
 4806 00ee 01AB     		add	r3, sp, #4
 4807 00f0 3232     		adds	r2, r2, #50
 4808 00f2 1068     		ldr	r0, [r2]	@ unaligned
 4809 00f4 5168     		ldr	r1, [r2, #4]	@ unaligned
 4810 00f6 03C3     		stmia	r3!, {r0, r1}
 4811 00f8 7046     		mov	r0, lr
 4812 00fa 3146     		mov	r1, r6
 4813 00fc 2A46     		mov	r2, r5
 4814 00fe 2346     		mov	r3, r4
 4815 0100 FFF7FEFF 		bl	DisplayOutputString
 4816 0104 0346     		mov	r3, r0
 4817 0106 1A46     		mov	r2, r3
 4818 0108 FB6A     		ldr	r3, [r7, #44]
 4819 010a 5A80     		strh	r2, [r3, #2]	@ movhi
1066:.\DisplayUtils.c ****                 puartdisp->_messagestate = PENDING;
 4820              		.loc 1 1066 0
 4821 010c FB6A     		ldr	r3, [r7, #44]
 4822 010e C222     		movs	r2, #194
 4823 0110 1A70     		strb	r2, [r3]
 4824              	.LBE30:
ARM GAS  C:\Users\Lenovo\AppData\Local\Temp\ccKs44LO.s 			page 105


 4825              	.LBE29:
 4826 0112 3AE0     		b	.L276
 4827              	.L284:
 4828 0114 39E0     		b	.L276
 4829              	.L283:
 4830              	.LBB31:
1067:.\DisplayUtils.c ****             }
1068:.\DisplayUtils.c ****         }
1069:.\DisplayUtils.c ****         else
1070:.\DisplayUtils.c ****         {
1071:.\DisplayUtils.c ****             PUARTMESSAGEPTR puartdisp = GetUARTMessageSlot(UART_DISPLAY2);
 4831              		.loc 1 1071 0
 4832 0116 A420     		movs	r0, #164
 4833 0118 FFF7FEFF 		bl	GetUARTMessageSlot
 4834 011c B862     		str	r0, [r7, #40]
1072:.\DisplayUtils.c ****             if(puartdisp)
 4835              		.loc 1 1072 0
 4836 011e BB6A     		ldr	r3, [r7, #40]
 4837 0120 002B     		cmp	r3, #0
 4838 0122 32D0     		beq	.L276
 4839              	.LBB32:
1073:.\DisplayUtils.c ****             {
1074:.\DisplayUtils.c ****                 char8 maskedinput[16];
1075:.\DisplayUtils.c ****                 memset(maskedinput, 0x00, sizeof(maskedinput));
 4840              		.loc 1 1075 0
 4841 0124 07F10803 		add	r3, r7, #8
 4842 0128 1846     		mov	r0, r3
 4843 012a 0021     		movs	r1, #0
 4844 012c 1022     		movs	r2, #16
 4845 012e FFF7FEFF 		bl	memset
1076:.\DisplayUtils.c ****                 memset(maskedinput, '*', pdisplay->_bufferinfo._bufferindex);
 4846              		.loc 1 1076 0
 4847 0132 3B6B     		ldr	r3, [r7, #48]
 4848 0134 1B7F     		ldrb	r3, [r3, #28]	@ zero_extendqisi2
 4849 0136 1A46     		mov	r2, r3
 4850 0138 07F10803 		add	r3, r7, #8
 4851 013c 1846     		mov	r0, r3
 4852 013e 2A21     		movs	r1, #42
 4853 0140 FFF7FEFF 		bl	memset
1077:.\DisplayUtils.c ****                 puartdisp->_messagelength = DisplayOutputString(pdisplay->_bufferinfo._xpos, pdispl
 4854              		.loc 1 1077 0
 4855 0144 3B6B     		ldr	r3, [r7, #48]
 4856 0146 B3F818E0 		ldrh	lr, [r3, #24]
 4857 014a 3B6B     		ldr	r3, [r7, #48]
 4858 014c 5E8B     		ldrh	r6, [r3, #26]
 4859 014e BB6A     		ldr	r3, [r7, #40]
 4860 0150 1D1D     		adds	r5, r3, #4
 4861 0152 3B6B     		ldr	r3, [r7, #48]
 4862 0154 1B69     		ldr	r3, [r3, #16]
 4863 0156 93F83030 		ldrb	r3, [r3, #48]	@ zero_extendqisi2
 4864 015a 9BB2     		uxth	r3, r3
 4865 015c 3A6B     		ldr	r2, [r7, #48]
 4866 015e 1269     		ldr	r2, [r2, #16]
 4867 0160 07F10804 		add	r4, r7, #8
 4868 0164 0093     		str	r3, [sp]
 4869 0166 01AB     		add	r3, sp, #4
 4870 0168 3232     		adds	r2, r2, #50
ARM GAS  C:\Users\Lenovo\AppData\Local\Temp\ccKs44LO.s 			page 106


 4871 016a 1068     		ldr	r0, [r2]	@ unaligned
 4872 016c 5168     		ldr	r1, [r2, #4]	@ unaligned
 4873 016e 03C3     		stmia	r3!, {r0, r1}
 4874 0170 7046     		mov	r0, lr
 4875 0172 3146     		mov	r1, r6
 4876 0174 2A46     		mov	r2, r5
 4877 0176 2346     		mov	r3, r4
 4878 0178 FFF7FEFF 		bl	DisplayOutputString
 4879 017c 0346     		mov	r3, r0
 4880 017e 1A46     		mov	r2, r3
 4881 0180 BB6A     		ldr	r3, [r7, #40]
 4882 0182 5A80     		strh	r2, [r3, #2]	@ movhi
1078:.\DisplayUtils.c ****                 puartdisp->_messagestate = PENDING;
 4883              		.loc 1 1078 0
 4884 0184 BB6A     		ldr	r3, [r7, #40]
 4885 0186 C222     		movs	r2, #194
 4886 0188 1A70     		strb	r2, [r3]
 4887              	.L276:
 4888              	.LBE32:
 4889              	.LBE31:
 4890              	.LBE28:
1079:.\DisplayUtils.c ****             }
1080:.\DisplayUtils.c ****         }
1081:.\DisplayUtils.c ****     }
1082:.\DisplayUtils.c **** }
 4891              		.loc 1 1082 0
 4892 018a 3C37     		adds	r7, r7, #60
 4893              		.cfi_def_cfa_offset 20
 4894 018c BD46     		mov	sp, r7
 4895              		.cfi_def_cfa_register 13
 4896              		@ sp needed
 4897 018e F0BD     		pop	{r4, r5, r6, r7, pc}
 4898              		.cfi_endproc
 4899              	.LFE89:
 4900              		.size	DisplayInputPasswordHandler, .-DisplayInputPasswordHandler
 4901              		.section	.text.GetDisplayFromPumpID,"ax",%progbits
 4902              		.align	2
 4903              		.global	GetDisplayFromPumpID
 4904              		.thumb
 4905              		.thumb_func
 4906              		.type	GetDisplayFromPumpID, %function
 4907              	GetDisplayFromPumpID:
 4908              	.LFB90:
1083:.\DisplayUtils.c **** 
1084:.\DisplayUtils.c **** //@Created by: HIJH
1085:.\DisplayUtils.c **** //@Date: Octobre de 2016
1086:.\DisplayUtils.c **** //Retrieves the right display depending on the pump identifier. This is done by taking into account
1087:.\DisplayUtils.c **** //dispenser layaou (NORMAL / QUATTRO)
1088:.\DisplayUtils.c **** PDISPLAYLAYOUTPTR GetDisplayFromPumpID(uint8 pumpid)
1089:.\DisplayUtils.c **** {
 4909              		.loc 1 1089 0
 4910              		.cfi_startproc
 4911              		@ args = 0, pretend = 0, frame = 16
 4912              		@ frame_needed = 1, uses_anonymous_args = 0
 4913              		@ link register save eliminated.
 4914 0000 80B4     		push	{r7}
 4915              		.cfi_def_cfa_offset 4
ARM GAS  C:\Users\Lenovo\AppData\Local\Temp\ccKs44LO.s 			page 107


 4916              		.cfi_offset 7, -4
 4917 0002 85B0     		sub	sp, sp, #20
 4918              		.cfi_def_cfa_offset 24
 4919 0004 00AF     		add	r7, sp, #0
 4920              		.cfi_def_cfa_register 7
 4921 0006 0346     		mov	r3, r0
 4922 0008 FB71     		strb	r3, [r7, #7]
1090:.\DisplayUtils.c ****     PDISPLAYLAYOUTPTR retval = PNEAR_NULLPTR;
 4923              		.loc 1 1090 0
 4924 000a 0023     		movs	r3, #0
 4925 000c FB60     		str	r3, [r7, #12]
1091:.\DisplayUtils.c ****     switch(_g_dispenserlayoutinfo._numpositions)
 4926              		.loc 1 1091 0
 4927 000e 244B     		ldr	r3, .L297
 4928 0010 9B78     		ldrb	r3, [r3, #2]	@ zero_extendqisi2
 4929 0012 022B     		cmp	r3, #2
 4930 0014 02D0     		beq	.L287
 4931 0016 042B     		cmp	r3, #4
 4932 0018 12D0     		beq	.L288
 4933 001a 39E0     		b	.L286
 4934              	.L287:
1092:.\DisplayUtils.c ****     {
1093:.\DisplayUtils.c ****         case 0x02:
1094:.\DisplayUtils.c ****         {
1095:.\DisplayUtils.c ****             if(_g_pumps[0x00]._pumpid == pumpid)
 4935              		.loc 1 1095 0
 4936 001c 214B     		ldr	r3, .L297+4
 4937 001e 1B78     		ldrb	r3, [r3]	@ zero_extendqisi2
 4938 0020 FA79     		ldrb	r2, [r7, #7]	@ zero_extendqisi2
 4939 0022 9A42     		cmp	r2, r3
 4940 0024 02D1     		bne	.L289
1096:.\DisplayUtils.c ****                 retval = &_g_display1;
 4941              		.loc 1 1096 0
 4942 0026 204B     		ldr	r3, .L297+8
 4943 0028 FB60     		str	r3, [r7, #12]
 4944 002a 08E0     		b	.L290
 4945              	.L289:
1097:.\DisplayUtils.c ****             else if(_g_pumps[0x01]._pumpid == pumpid)
 4946              		.loc 1 1097 0
 4947 002c 1D4B     		ldr	r3, .L297+4
 4948 002e 93F8983B 		ldrb	r3, [r3, #2968]	@ zero_extendqisi2
 4949 0032 FA79     		ldrb	r2, [r7, #7]	@ zero_extendqisi2
 4950 0034 9A42     		cmp	r2, r3
 4951 0036 02D1     		bne	.L290
1098:.\DisplayUtils.c ****                 retval = &_g_display2;
 4952              		.loc 1 1098 0
 4953 0038 1C4B     		ldr	r3, .L297+12
 4954 003a FB60     		str	r3, [r7, #12]
1099:.\DisplayUtils.c ****             
1100:.\DisplayUtils.c ****             break;
 4955              		.loc 1 1100 0
 4956 003c 28E0     		b	.L286
 4957              	.L290:
 4958 003e 27E0     		b	.L286
 4959              	.L288:
1101:.\DisplayUtils.c ****         }
1102:.\DisplayUtils.c ****         case 0x04:
ARM GAS  C:\Users\Lenovo\AppData\Local\Temp\ccKs44LO.s 			page 108


1103:.\DisplayUtils.c ****         {
1104:.\DisplayUtils.c ****             if(_g_pumps[0x00]._pumpid == pumpid)
 4960              		.loc 1 1104 0
 4961 0040 184B     		ldr	r3, .L297+4
 4962 0042 1B78     		ldrb	r3, [r3]	@ zero_extendqisi2
 4963 0044 FA79     		ldrb	r2, [r7, #7]	@ zero_extendqisi2
 4964 0046 9A42     		cmp	r2, r3
 4965 0048 02D1     		bne	.L291
1105:.\DisplayUtils.c ****                 retval = &_g_display1;
 4966              		.loc 1 1105 0
 4967 004a 174B     		ldr	r3, .L297+8
 4968 004c FB60     		str	r3, [r7, #12]
 4969 004e 1EE0     		b	.L292
 4970              	.L291:
1106:.\DisplayUtils.c ****             else if(_g_pumps[0x01]._pumpid == pumpid)
 4971              		.loc 1 1106 0
 4972 0050 144B     		ldr	r3, .L297+4
 4973 0052 93F8983B 		ldrb	r3, [r3, #2968]	@ zero_extendqisi2
 4974 0056 FA79     		ldrb	r2, [r7, #7]	@ zero_extendqisi2
 4975 0058 9A42     		cmp	r2, r3
 4976 005a 02D1     		bne	.L293
1107:.\DisplayUtils.c ****                 retval = &_g_display2;
 4977              		.loc 1 1107 0
 4978 005c 134B     		ldr	r3, .L297+12
 4979 005e FB60     		str	r3, [r7, #12]
 4980 0060 15E0     		b	.L292
 4981              	.L293:
1108:.\DisplayUtils.c ****             else if(_g_pumps[0x02]._pumpid == pumpid)
 4982              		.loc 1 1108 0
 4983 0062 104B     		ldr	r3, .L297+4
 4984 0064 03F5B953 		add	r3, r3, #5920
 4985 0068 1033     		adds	r3, r3, #16
 4986 006a 1B78     		ldrb	r3, [r3]	@ zero_extendqisi2
 4987 006c FA79     		ldrb	r2, [r7, #7]	@ zero_extendqisi2
 4988 006e 9A42     		cmp	r2, r3
 4989 0070 02D1     		bne	.L294
1109:.\DisplayUtils.c ****                 retval = &_g_display1;
 4990              		.loc 1 1109 0
 4991 0072 0D4B     		ldr	r3, .L297+8
 4992 0074 FB60     		str	r3, [r7, #12]
 4993 0076 0AE0     		b	.L292
 4994              	.L294:
1110:.\DisplayUtils.c ****             else if(_g_pumps[0x03]._pumpid == pumpid)
 4995              		.loc 1 1110 0
 4996 0078 0A4B     		ldr	r3, .L297+4
 4997 007a 03F50B53 		add	r3, r3, #8896
 4998 007e 0833     		adds	r3, r3, #8
 4999 0080 1B78     		ldrb	r3, [r3]	@ zero_extendqisi2
 5000 0082 FA79     		ldrb	r2, [r7, #7]	@ zero_extendqisi2
 5001 0084 9A42     		cmp	r2, r3
 5002 0086 02D1     		bne	.L292
1111:.\DisplayUtils.c ****                 retval = &_g_display2;
 5003              		.loc 1 1111 0
 5004 0088 084B     		ldr	r3, .L297+12
 5005 008a FB60     		str	r3, [r7, #12]
1112:.\DisplayUtils.c ****             
1113:.\DisplayUtils.c ****             break;
ARM GAS  C:\Users\Lenovo\AppData\Local\Temp\ccKs44LO.s 			page 109


 5006              		.loc 1 1113 0
 5007 008c FFE7     		b	.L296
 5008              	.L292:
 5009              	.L296:
 5010 008e 00BF     		nop
 5011              	.L286:
1114:.\DisplayUtils.c ****         }
1115:.\DisplayUtils.c ****     }
1116:.\DisplayUtils.c ****     return retval;
 5012              		.loc 1 1116 0
 5013 0090 FB68     		ldr	r3, [r7, #12]
1117:.\DisplayUtils.c **** }
 5014              		.loc 1 1117 0
 5015 0092 1846     		mov	r0, r3
 5016 0094 1437     		adds	r7, r7, #20
 5017              		.cfi_def_cfa_offset 4
 5018 0096 BD46     		mov	sp, r7
 5019              		.cfi_def_cfa_register 13
 5020              		@ sp needed
 5021 0098 5DF8047B 		ldr	r7, [sp], #4
 5022              		.cfi_restore 7
 5023              		.cfi_def_cfa_offset 0
 5024 009c 7047     		bx	lr
 5025              	.L298:
 5026 009e 00BF     		.align	2
 5027              	.L297:
 5028 00a0 00000000 		.word	_g_dispenserlayoutinfo
 5029 00a4 00000000 		.word	_g_pumps
 5030 00a8 00000000 		.word	_g_display1
 5031 00ac 00000000 		.word	_g_display2
 5032              		.cfi_endproc
 5033              	.LFE90:
 5034              		.size	GetDisplayFromPumpID, .-GetDisplayFromPumpID
 5035              		.section	.text.DisplayProductSelectionInputHandler,"ax",%progbits
 5036              		.align	2
 5037              		.global	DisplayProductSelectionInputHandler
 5038              		.thumb
 5039              		.thumb_func
 5040              		.type	DisplayProductSelectionInputHandler, %function
 5041              	DisplayProductSelectionInputHandler:
 5042              	.LFB91:
1118:.\DisplayUtils.c **** 
1119:.\DisplayUtils.c **** //@Created by: HIJH
1120:.\DisplayUtils.c **** //@Date: Septembre de 2016
1121:.\DisplayUtils.c **** //This method handles the selected product on a credit sale
1122:.\DisplayUtils.c **** void DisplayProductSelectionInputHandler(void *pparam)
1123:.\DisplayUtils.c **** {
 5043              		.loc 1 1123 0
 5044              		.cfi_startproc
 5045              		@ args = 0, pretend = 0, frame = 24
 5046              		@ frame_needed = 1, uses_anonymous_args = 0
 5047 0000 90B5     		push	{r4, r7, lr}
 5048              		.cfi_def_cfa_offset 12
 5049              		.cfi_offset 4, -12
 5050              		.cfi_offset 7, -8
 5051              		.cfi_offset 14, -4
 5052 0002 87B0     		sub	sp, sp, #28
ARM GAS  C:\Users\Lenovo\AppData\Local\Temp\ccKs44LO.s 			page 110


 5053              		.cfi_def_cfa_offset 40
 5054 0004 00AF     		add	r7, sp, #0
 5055              		.cfi_def_cfa_register 7
 5056 0006 7860     		str	r0, [r7, #4]
1124:.\DisplayUtils.c ****     PDISPLAYLAYOUTPTR pdisplay = (PDISPLAYLAYOUTPTR)pparam;
 5057              		.loc 1 1124 0
 5058 0008 7B68     		ldr	r3, [r7, #4]
 5059 000a FB60     		str	r3, [r7, #12]
1125:.\DisplayUtils.c ****     if(pdisplay)
 5060              		.loc 1 1125 0
 5061 000c FB68     		ldr	r3, [r7, #12]
 5062 000e 002B     		cmp	r3, #0
 5063 0010 49D0     		beq	.L299
 5064              	.LBB33:
1126:.\DisplayUtils.c ****     {
1127:.\DisplayUtils.c ****         uint8  numhoses = 0x00;
 5065              		.loc 1 1127 0
 5066 0012 0023     		movs	r3, #0
 5067 0014 FB75     		strb	r3, [r7, #23]
1128:.\DisplayUtils.c ****         PDISPLAYLAYOUTPTR pdisplay = (PDISPLAYLAYOUTPTR)pparam;
 5068              		.loc 1 1128 0
 5069 0016 7B68     		ldr	r3, [r7, #4]
 5070 0018 BB60     		str	r3, [r7, #8]
1129:.\DisplayUtils.c ****         switch(GetPumpIndexFromDisplay(pdisplay))
 5071              		.loc 1 1129 0
 5072 001a B868     		ldr	r0, [r7, #8]
 5073 001c FFF7FEFF 		bl	GetPumpIndexFromDisplay
 5074 0020 0346     		mov	r3, r0
 5075 0022 032B     		cmp	r3, #3
 5076 0024 1AD8     		bhi	.L301
 5077 0026 01A2     		adr	r2, .L303
 5078 0028 52F823F0 		ldr	pc, [r2, r3, lsl #2]
 5079              		.p2align 2
 5080              	.L303:
 5081 002c 3D000000 		.word	.L302+1
 5082 0030 45000000 		.word	.L304+1
 5083 0034 4D000000 		.word	.L305+1
 5084 0038 55000000 		.word	.L306+1
 5085              		.p2align 1
 5086              	.L302:
1130:.\DisplayUtils.c ****         {
1131:.\DisplayUtils.c ****             case 0x00:
1132:.\DisplayUtils.c ****                 numhoses = _g_dispenserlayoutinfo._hosesposition1;
 5087              		.loc 1 1132 0
 5088 003c 1B4B     		ldr	r3, .L310
 5089 003e DB78     		ldrb	r3, [r3, #3]
 5090 0040 FB75     		strb	r3, [r7, #23]
1133:.\DisplayUtils.c ****                 break;
 5091              		.loc 1 1133 0
 5092 0042 0BE0     		b	.L301
 5093              	.L304:
1134:.\DisplayUtils.c ****             case 0x01:
1135:.\DisplayUtils.c ****                 numhoses = _g_dispenserlayoutinfo._hosesposition2;
 5094              		.loc 1 1135 0
 5095 0044 194B     		ldr	r3, .L310
 5096 0046 1B79     		ldrb	r3, [r3, #4]
 5097 0048 FB75     		strb	r3, [r7, #23]
ARM GAS  C:\Users\Lenovo\AppData\Local\Temp\ccKs44LO.s 			page 111


1136:.\DisplayUtils.c ****                 break;
 5098              		.loc 1 1136 0
 5099 004a 07E0     		b	.L301
 5100              	.L305:
1137:.\DisplayUtils.c ****             case 0x02:
1138:.\DisplayUtils.c ****                 numhoses = _g_dispenserlayoutinfo._hosesposition3;
 5101              		.loc 1 1138 0
 5102 004c 174B     		ldr	r3, .L310
 5103 004e 5B79     		ldrb	r3, [r3, #5]
 5104 0050 FB75     		strb	r3, [r7, #23]
1139:.\DisplayUtils.c ****                 break;
 5105              		.loc 1 1139 0
 5106 0052 03E0     		b	.L301
 5107              	.L306:
1140:.\DisplayUtils.c ****             case 0x03:
1141:.\DisplayUtils.c ****                 numhoses = _g_dispenserlayoutinfo._hosesposition4;
 5108              		.loc 1 1141 0
 5109 0054 154B     		ldr	r3, .L310
 5110 0056 9B79     		ldrb	r3, [r3, #6]
 5111 0058 FB75     		strb	r3, [r7, #23]
1142:.\DisplayUtils.c ****                 break;
 5112              		.loc 1 1142 0
 5113 005a 00BF     		nop
 5114              	.L301:
1143:.\DisplayUtils.c ****         }    
1144:.\DisplayUtils.c ****         DisplayCharacterMap *pdispcharmap = _g_productbuttonmap;
 5115              		.loc 1 1144 0
 5116 005c 144B     		ldr	r3, .L310+4
 5117 005e 3B61     		str	r3, [r7, #16]
1145:.\DisplayUtils.c ****         while(pdispcharmap->_refchar != 0x00)
 5118              		.loc 1 1145 0
 5119 0060 1DE0     		b	.L307
 5120              	.L309:
1146:.\DisplayUtils.c ****         {
1147:.\DisplayUtils.c ****             if((pdispcharmap->_refchar == pdisplay->_currscrcode) && ((pdispcharmap->_mappedto + 1)
 5121              		.loc 1 1147 0
 5122 0062 3B69     		ldr	r3, [r7, #16]
 5123 0064 1A78     		ldrb	r2, [r3]	@ zero_extendqisi2
 5124 0066 BB68     		ldr	r3, [r7, #8]
 5125 0068 DB78     		ldrb	r3, [r3, #3]	@ zero_extendqisi2
 5126 006a 9A42     		cmp	r2, r3
 5127 006c 14D1     		bne	.L308
 5128              		.loc 1 1147 0 is_stmt 0 discriminator 1
 5129 006e 3B69     		ldr	r3, [r7, #16]
 5130 0070 5B78     		ldrb	r3, [r3, #1]	@ zero_extendqisi2
 5131 0072 5A1C     		adds	r2, r3, #1
 5132 0074 FB7D     		ldrb	r3, [r7, #23]	@ zero_extendqisi2
 5133 0076 9A42     		cmp	r2, r3
 5134 0078 0EDC     		bgt	.L308
1148:.\DisplayUtils.c ****             {
1149:.\DisplayUtils.c ****                 ((PSINKMESSAGEPTR)pdisplay->_psequesteredmessagesink)->_buffer[GetBufferIndexFromDi
 5135              		.loc 1 1149 0 is_stmt 1
 5136 007a BB68     		ldr	r3, [r7, #8]
 5137 007c 1C6B     		ldr	r4, [r3, #48]
 5138 007e 0720     		movs	r0, #7
 5139 0080 FFF7FEFF 		bl	GetBufferIndexFromDisplayID
 5140 0084 0346     		mov	r3, r0
ARM GAS  C:\Users\Lenovo\AppData\Local\Temp\ccKs44LO.s 			page 112


 5141 0086 1946     		mov	r1, r3
 5142 0088 3B69     		ldr	r3, [r7, #16]
 5143 008a 5A78     		ldrb	r2, [r3, #1]	@ zero_extendqisi2
 5144 008c 6318     		adds	r3, r4, r1
 5145 008e 1A73     		strb	r2, [r3, #12]
1150:.\DisplayUtils.c ****                 pdisplay->_currentstate = DISPLAY_HOSE_ACTIVATED;
 5146              		.loc 1 1150 0
 5147 0090 BB68     		ldr	r3, [r7, #8]
 5148 0092 A322     		movs	r2, #163
 5149 0094 1A71     		strb	r2, [r3, #4]
1151:.\DisplayUtils.c ****                 break;
 5150              		.loc 1 1151 0
 5151 0096 06E0     		b	.L299
 5152              	.L308:
1152:.\DisplayUtils.c ****             }
1153:.\DisplayUtils.c ****             pdispcharmap++;
 5153              		.loc 1 1153 0
 5154 0098 3B69     		ldr	r3, [r7, #16]
 5155 009a 0233     		adds	r3, r3, #2
 5156 009c 3B61     		str	r3, [r7, #16]
 5157              	.L307:
1145:.\DisplayUtils.c ****         {
 5158              		.loc 1 1145 0
 5159 009e 3B69     		ldr	r3, [r7, #16]
 5160 00a0 1B78     		ldrb	r3, [r3]	@ zero_extendqisi2
 5161 00a2 002B     		cmp	r3, #0
 5162 00a4 DDD1     		bne	.L309
 5163              	.L299:
 5164              	.LBE33:
1154:.\DisplayUtils.c ****         }
1155:.\DisplayUtils.c ****     }
1156:.\DisplayUtils.c **** }
 5165              		.loc 1 1156 0
 5166 00a6 1C37     		adds	r7, r7, #28
 5167              		.cfi_def_cfa_offset 12
 5168 00a8 BD46     		mov	sp, r7
 5169              		.cfi_def_cfa_register 13
 5170              		@ sp needed
 5171 00aa 90BD     		pop	{r4, r7, pc}
 5172              	.L311:
 5173              		.align	2
 5174              	.L310:
 5175 00ac 00000000 		.word	_g_dispenserlayoutinfo
 5176 00b0 00000000 		.word	_g_productbuttonmap
 5177              		.cfi_endproc
 5178              	.LFE91:
 5179              		.size	DisplayProductSelectionInputHandler, .-DisplayProductSelectionInputHandler
 5180              		.section	.text.CleanMessageSink,"ax",%progbits
 5181              		.align	2
 5182              		.global	CleanMessageSink
 5183              		.thumb
 5184              		.thumb_func
 5185              		.type	CleanMessageSink, %function
 5186              	CleanMessageSink:
 5187              	.LFB92:
1157:.\DisplayUtils.c **** 
1158:.\DisplayUtils.c **** //@Created by: HIJH
ARM GAS  C:\Users\Lenovo\AppData\Local\Temp\ccKs44LO.s 			page 113


1159:.\DisplayUtils.c **** //@Date: Septembre de 2016
1160:.\DisplayUtils.c **** //Cleans the sink message that has been allocated to store the transacion data
1161:.\DisplayUtils.c **** void CleanMessageSink(void *pparam)
1162:.\DisplayUtils.c **** {
 5188              		.loc 1 1162 0
 5189              		.cfi_startproc
 5190              		@ args = 0, pretend = 0, frame = 16
 5191              		@ frame_needed = 1, uses_anonymous_args = 0
 5192 0000 80B5     		push	{r7, lr}
 5193              		.cfi_def_cfa_offset 8
 5194              		.cfi_offset 7, -8
 5195              		.cfi_offset 14, -4
 5196 0002 84B0     		sub	sp, sp, #16
 5197              		.cfi_def_cfa_offset 24
 5198 0004 00AF     		add	r7, sp, #0
 5199              		.cfi_def_cfa_register 7
 5200 0006 7860     		str	r0, [r7, #4]
1163:.\DisplayUtils.c ****     PDISPLAYLAYOUTPTR pdisplay = (PDISPLAYLAYOUTPTR)pparam;
 5201              		.loc 1 1163 0
 5202 0008 7B68     		ldr	r3, [r7, #4]
 5203 000a FB60     		str	r3, [r7, #12]
1164:.\DisplayUtils.c ****     if(pdisplay)
 5204              		.loc 1 1164 0
 5205 000c FB68     		ldr	r3, [r7, #12]
 5206 000e 002B     		cmp	r3, #0
 5207 0010 13D0     		beq	.L312
1165:.\DisplayUtils.c ****     {
1166:.\DisplayUtils.c ****         if(pdisplay->_psequesteredmessagesink)
 5208              		.loc 1 1166 0
 5209 0012 FB68     		ldr	r3, [r7, #12]
 5210 0014 1B6B     		ldr	r3, [r3, #48]
 5211 0016 002B     		cmp	r3, #0
 5212 0018 08D0     		beq	.L314
1167:.\DisplayUtils.c ****             memset(&((PSINKMESSAGEPTR)pdisplay->_psequesteredmessagesink)->_buffer, 0x00, _MESSAGE_
 5213              		.loc 1 1167 0
 5214 001a FB68     		ldr	r3, [r7, #12]
 5215 001c 1B6B     		ldr	r3, [r3, #48]
 5216 001e 0C33     		adds	r3, r3, #12
 5217 0020 1846     		mov	r0, r3
 5218 0022 0021     		movs	r1, #0
 5219 0024 4FF4C072 		mov	r2, #384
 5220 0028 FFF7FEFF 		bl	memset
 5221              	.L314:
1168:.\DisplayUtils.c ****         
1169:.\DisplayUtils.c ****         memset(pdisplay->_bufferinfo._buffer, 0x00, _DISPLAY_BUFFER_SIZE_);
 5222              		.loc 1 1169 0
 5223 002c FB68     		ldr	r3, [r7, #12]
 5224 002e 1D33     		adds	r3, r3, #29
 5225 0030 1846     		mov	r0, r3
 5226 0032 0021     		movs	r1, #0
 5227 0034 1022     		movs	r2, #16
 5228 0036 FFF7FEFF 		bl	memset
 5229              	.L312:
1170:.\DisplayUtils.c ****     }
1171:.\DisplayUtils.c **** }
 5230              		.loc 1 1171 0
 5231 003a 1037     		adds	r7, r7, #16
ARM GAS  C:\Users\Lenovo\AppData\Local\Temp\ccKs44LO.s 			page 114


 5232              		.cfi_def_cfa_offset 8
 5233 003c BD46     		mov	sp, r7
 5234              		.cfi_def_cfa_register 13
 5235              		@ sp needed
 5236 003e 80BD     		pop	{r7, pc}
 5237              		.cfi_endproc
 5238              	.LFE92:
 5239              		.size	CleanMessageSink, .-CleanMessageSink
 5240              		.section	.text.SequesterMessageSink,"ax",%progbits
 5241              		.align	2
 5242              		.global	SequesterMessageSink
 5243              		.thumb
 5244              		.thumb_func
 5245              		.type	SequesterMessageSink, %function
 5246              	SequesterMessageSink:
 5247              	.LFB93:
1172:.\DisplayUtils.c **** 
1173:.\DisplayUtils.c **** //@Created by: HIJH
1174:.\DisplayUtils.c **** //@Date: Septembre de 2016
1175:.\DisplayUtils.c **** //Allocates and stores a sink message to store the transacion data
1176:.\DisplayUtils.c **** void SequesterMessageSink(void *pparam)
1177:.\DisplayUtils.c **** {
 5248              		.loc 1 1177 0
 5249              		.cfi_startproc
 5250              		@ args = 0, pretend = 0, frame = 16
 5251              		@ frame_needed = 1, uses_anonymous_args = 0
 5252 0000 90B5     		push	{r4, r7, lr}
 5253              		.cfi_def_cfa_offset 12
 5254              		.cfi_offset 4, -12
 5255              		.cfi_offset 7, -8
 5256              		.cfi_offset 14, -4
 5257 0002 85B0     		sub	sp, sp, #20
 5258              		.cfi_def_cfa_offset 32
 5259 0004 00AF     		add	r7, sp, #0
 5260              		.cfi_def_cfa_register 7
 5261 0006 7860     		str	r0, [r7, #4]
1178:.\DisplayUtils.c ****     PDISPLAYLAYOUTPTR pdisplay = (PDISPLAYLAYOUTPTR)pparam;
 5262              		.loc 1 1178 0
 5263 0008 7B68     		ldr	r3, [r7, #4]
 5264 000a BB60     		str	r3, [r7, #8]
1179:.\DisplayUtils.c ****     if(pdisplay)
 5265              		.loc 1 1179 0
 5266 000c BB68     		ldr	r3, [r7, #8]
 5267 000e 002B     		cmp	r3, #0
 5268 0010 00F09380 		beq	.L315
1180:.\DisplayUtils.c ****     {
1181:.\DisplayUtils.c ****         if(pdisplay->_psequesteredmessagesink)
 5269              		.loc 1 1181 0
 5270 0014 BB68     		ldr	r3, [r7, #8]
 5271 0016 1B6B     		ldr	r3, [r3, #48]
 5272 0018 002B     		cmp	r3, #0
 5273 001a 09D0     		beq	.L317
1182:.\DisplayUtils.c ****         {
1183:.\DisplayUtils.c ****             memset(&((PSINKMESSAGEPTR)pdisplay->_psequesteredmessagesink)->_buffer, 0x00, _MESSAGE_
 5274              		.loc 1 1183 0
 5275 001c BB68     		ldr	r3, [r7, #8]
 5276 001e 1B6B     		ldr	r3, [r3, #48]
ARM GAS  C:\Users\Lenovo\AppData\Local\Temp\ccKs44LO.s 			page 115


 5277 0020 0C33     		adds	r3, r3, #12
 5278 0022 1846     		mov	r0, r3
 5279 0024 0021     		movs	r1, #0
 5280 0026 4FF4C072 		mov	r2, #384
 5281 002a FFF7FEFF 		bl	memset
 5282 002e 15E0     		b	.L318
 5283              	.L317:
1184:.\DisplayUtils.c ****         }
1185:.\DisplayUtils.c ****         else
1186:.\DisplayUtils.c ****         {
1187:.\DisplayUtils.c ****             pdisplay->_psequesteredmessagesink = AllocateMessageSlot();
 5284              		.loc 1 1187 0
 5285 0030 FFF7FEFF 		bl	AllocateMessageSlot
 5286 0034 0246     		mov	r2, r0
 5287 0036 BB68     		ldr	r3, [r7, #8]
 5288 0038 1A63     		str	r2, [r3, #48]
1188:.\DisplayUtils.c ****             if(pdisplay->_dispid == DISPLAY1)
 5289              		.loc 1 1188 0
 5290 003a BB68     		ldr	r3, [r7, #8]
 5291 003c 1B78     		ldrb	r3, [r3]	@ zero_extendqisi2
 5292 003e 002B     		cmp	r3, #0
 5293 0040 04D1     		bne	.L319
1189:.\DisplayUtils.c ****                 ((PSINKMESSAGEPTR)pdisplay->_psequesteredmessagesink)->_messageid = DISPLAY1_MESSAG
 5294              		.loc 1 1189 0
 5295 0042 BB68     		ldr	r3, [r7, #8]
 5296 0044 1B6B     		ldr	r3, [r3, #48]
 5297 0046 2022     		movs	r2, #32
 5298 0048 5A70     		strb	r2, [r3, #1]
 5299 004a 03E0     		b	.L320
 5300              	.L319:
1190:.\DisplayUtils.c ****             else
1191:.\DisplayUtils.c ****                 ((PSINKMESSAGEPTR)pdisplay->_psequesteredmessagesink)->_messageid = DISPLAY2_MESSAG
 5301              		.loc 1 1191 0
 5302 004c BB68     		ldr	r3, [r7, #8]
 5303 004e 1B6B     		ldr	r3, [r3, #48]
 5304 0050 2422     		movs	r2, #36
 5305 0052 5A70     		strb	r2, [r3, #1]
 5306              	.L320:
1192:.\DisplayUtils.c ****                 
1193:.\DisplayUtils.c ****             ((PSINKMESSAGEPTR)pdisplay->_psequesteredmessagesink)->_messagetype = FIRSTFOUND;
 5307              		.loc 1 1193 0
 5308 0054 BB68     		ldr	r3, [r7, #8]
 5309 0056 1B6B     		ldr	r3, [r3, #48]
 5310 0058 0322     		movs	r2, #3
 5311 005a 9A70     		strb	r2, [r3, #2]
 5312              	.L318:
1194:.\DisplayUtils.c ****         }
1195:.\DisplayUtils.c ****         
1196:.\DisplayUtils.c ****         memset(pdisplay->_bufferinfo._buffer, 0x00, _DISPLAY_BUFFER_SIZE_);
 5313              		.loc 1 1196 0
 5314 005c BB68     		ldr	r3, [r7, #8]
 5315 005e 1D33     		adds	r3, r3, #29
 5316 0060 1846     		mov	r0, r3
 5317 0062 0021     		movs	r1, #0
 5318 0064 1022     		movs	r2, #16
 5319 0066 FFF7FEFF 		bl	memset
1197:.\DisplayUtils.c ****         
ARM GAS  C:\Users\Lenovo\AppData\Local\Temp\ccKs44LO.s 			page 116


1198:.\DisplayUtils.c ****         if(_g_dispenserlayoutinfo._numpositions < 0x04)
 5320              		.loc 1 1198 0
 5321 006a 354B     		ldr	r3, .L329
 5322 006c 9B78     		ldrb	r3, [r3, #2]	@ zero_extendqisi2
 5323 006e 032B     		cmp	r3, #3
 5324 0070 63D8     		bhi	.L315
 5325              	.LBB34:
1199:.\DisplayUtils.c ****         {
1200:.\DisplayUtils.c ****             DisplayScreenBufferMap *ptr = _g_buffscrlut;
 5326              		.loc 1 1200 0
 5327 0072 344B     		ldr	r3, .L329+4
 5328 0074 FB60     		str	r3, [r7, #12]
1201:.\DisplayUtils.c ****             while(ptr->_refscrid != 0x00)
 5329              		.loc 1 1201 0
 5330 0076 59E0     		b	.L321
 5331              	.L328:
1202:.\DisplayUtils.c ****             {
1203:.\DisplayUtils.c ****                 if(pdisplay->_pcurrflow->_scrid == ptr->_refscrid)
 5332              		.loc 1 1203 0
 5333 0078 BB68     		ldr	r3, [r7, #8]
 5334 007a 1B69     		ldr	r3, [r3, #16]
 5335 007c 1A78     		ldrb	r2, [r3]	@ zero_extendqisi2
 5336 007e FB68     		ldr	r3, [r7, #12]
 5337 0080 1B78     		ldrb	r3, [r3]	@ zero_extendqisi2
 5338 0082 9A42     		cmp	r2, r3
 5339 0084 4FD1     		bne	.L322
1204:.\DisplayUtils.c ****                 {
1205:.\DisplayUtils.c ****                     switch(ptr->_refscrid)
 5340              		.loc 1 1205 0
 5341 0086 FB68     		ldr	r3, [r7, #12]
 5342 0088 1B78     		ldrb	r3, [r3]	@ zero_extendqisi2
 5343 008a 2E2B     		cmp	r3, #46
 5344 008c 00D0     		beq	.L324
1206:.\DisplayUtils.c ****                     {
1207:.\DisplayUtils.c ****                         case DISPLAY_SELECCIONE_POSICION:
1208:.\DisplayUtils.c ****                         {
1209:.\DisplayUtils.c ****                             if(pdisplay->_dispid == DISPLAY1)
1210:.\DisplayUtils.c ****                             {
1211:.\DisplayUtils.c ****                                 memset(&((PSINKMESSAGEPTR)pdisplay->_psequesteredmessagesink)->_buf
1212:.\DisplayUtils.c ****                                 ((PSINKMESSAGEPTR)pdisplay->_psequesteredmessagesink)->_buffer[ptr-
1213:.\DisplayUtils.c ****                                 ((PSINKMESSAGEPTR)pdisplay->_psequesteredmessagesink)->_buffer[GetB
1214:.\DisplayUtils.c ****                             }
1215:.\DisplayUtils.c ****                             else if(pdisplay->_dispid == DISPLAY2)
1216:.\DisplayUtils.c ****                             {
1217:.\DisplayUtils.c ****                                 memset(&((PSINKMESSAGEPTR)pdisplay->_psequesteredmessagesink)->_buf
1218:.\DisplayUtils.c ****                                 ((PSINKMESSAGEPTR)pdisplay->_psequesteredmessagesink)->_buffer[ptr-
1219:.\DisplayUtils.c ****                                 ((PSINKMESSAGEPTR)pdisplay->_psequesteredmessagesink)->_buffer[GetB
1220:.\DisplayUtils.c ****                             }
1221:.\DisplayUtils.c ****                             break;
1222:.\DisplayUtils.c ****                         }
1223:.\DisplayUtils.c ****                     }
1224:.\DisplayUtils.c ****                     break;
 5345              		.loc 1 1224 0
 5346 008e 51E0     		b	.L327
 5347              	.L324:
1209:.\DisplayUtils.c ****                             {
 5348              		.loc 1 1209 0
ARM GAS  C:\Users\Lenovo\AppData\Local\Temp\ccKs44LO.s 			page 117


 5349 0090 BB68     		ldr	r3, [r7, #8]
 5350 0092 1B78     		ldrb	r3, [r3]	@ zero_extendqisi2
 5351 0094 002B     		cmp	r3, #0
 5352 0096 20D1     		bne	.L325
1211:.\DisplayUtils.c ****                                 ((PSINKMESSAGEPTR)pdisplay->_psequesteredmessagesink)->_buffer[ptr-
 5353              		.loc 1 1211 0
 5354 0098 BB68     		ldr	r3, [r7, #8]
 5355 009a 1A6B     		ldr	r2, [r3, #48]
 5356 009c FB68     		ldr	r3, [r7, #12]
 5357 009e 5B88     		ldrh	r3, [r3, #2]
 5358 00a0 0833     		adds	r3, r3, #8
 5359 00a2 1344     		add	r3, r3, r2
 5360 00a4 1A1D     		adds	r2, r3, #4
 5361 00a6 FB68     		ldr	r3, [r7, #12]
 5362 00a8 1B79     		ldrb	r3, [r3, #4]	@ zero_extendqisi2
 5363 00aa 1046     		mov	r0, r2
 5364 00ac 0021     		movs	r1, #0
 5365 00ae 1A46     		mov	r2, r3
 5366 00b0 FFF7FEFF 		bl	memset
1212:.\DisplayUtils.c ****                                 ((PSINKMESSAGEPTR)pdisplay->_psequesteredmessagesink)->_buffer[GetB
 5367              		.loc 1 1212 0
 5368 00b4 BB68     		ldr	r3, [r7, #8]
 5369 00b6 1B6B     		ldr	r3, [r3, #48]
 5370 00b8 FA68     		ldr	r2, [r7, #12]
 5371 00ba 5288     		ldrh	r2, [r2, #2]
 5372 00bc 1344     		add	r3, r3, r2
 5373 00be 5622     		movs	r2, #86
 5374 00c0 1A73     		strb	r2, [r3, #12]
1213:.\DisplayUtils.c ****                             }
 5375              		.loc 1 1213 0
 5376 00c2 BB68     		ldr	r3, [r7, #8]
 5377 00c4 1C6B     		ldr	r4, [r3, #48]
 5378 00c6 FA20     		movs	r0, #250
 5379 00c8 FFF7FEFF 		bl	GetBufferIndexFromDisplayID
 5380 00cc 0346     		mov	r3, r0
 5381 00ce 1946     		mov	r1, r3
 5382 00d0 BB68     		ldr	r3, [r7, #8]
 5383 00d2 1A78     		ldrb	r2, [r3]	@ zero_extendqisi2
 5384 00d4 6318     		adds	r3, r4, r1
 5385 00d6 1A73     		strb	r2, [r3, #12]
 5386 00d8 23E0     		b	.L326
 5387              	.L325:
1215:.\DisplayUtils.c ****                             {
 5388              		.loc 1 1215 0
 5389 00da BB68     		ldr	r3, [r7, #8]
 5390 00dc 1B78     		ldrb	r3, [r3]	@ zero_extendqisi2
 5391 00de 012B     		cmp	r3, #1
 5392 00e0 1FD1     		bne	.L326
1217:.\DisplayUtils.c ****                                 ((PSINKMESSAGEPTR)pdisplay->_psequesteredmessagesink)->_buffer[ptr-
 5393              		.loc 1 1217 0
 5394 00e2 BB68     		ldr	r3, [r7, #8]
 5395 00e4 1A6B     		ldr	r2, [r3, #48]
 5396 00e6 FB68     		ldr	r3, [r7, #12]
 5397 00e8 5B88     		ldrh	r3, [r3, #2]
 5398 00ea 0833     		adds	r3, r3, #8
 5399 00ec 1344     		add	r3, r3, r2
 5400 00ee 1A1D     		adds	r2, r3, #4
ARM GAS  C:\Users\Lenovo\AppData\Local\Temp\ccKs44LO.s 			page 118


 5401 00f0 FB68     		ldr	r3, [r7, #12]
 5402 00f2 1B79     		ldrb	r3, [r3, #4]	@ zero_extendqisi2
 5403 00f4 1046     		mov	r0, r2
 5404 00f6 0021     		movs	r1, #0
 5405 00f8 1A46     		mov	r2, r3
 5406 00fa FFF7FEFF 		bl	memset
1218:.\DisplayUtils.c ****                                 ((PSINKMESSAGEPTR)pdisplay->_psequesteredmessagesink)->_buffer[GetB
 5407              		.loc 1 1218 0
 5408 00fe BB68     		ldr	r3, [r7, #8]
 5409 0100 1B6B     		ldr	r3, [r3, #48]
 5410 0102 FA68     		ldr	r2, [r7, #12]
 5411 0104 5288     		ldrh	r2, [r2, #2]
 5412 0106 1344     		add	r3, r3, r2
 5413 0108 5722     		movs	r2, #87
 5414 010a 1A73     		strb	r2, [r3, #12]
1219:.\DisplayUtils.c ****                             }
 5415              		.loc 1 1219 0
 5416 010c BB68     		ldr	r3, [r7, #8]
 5417 010e 1C6B     		ldr	r4, [r3, #48]
 5418 0110 FA20     		movs	r0, #250
 5419 0112 FFF7FEFF 		bl	GetBufferIndexFromDisplayID
 5420 0116 0346     		mov	r3, r0
 5421 0118 1946     		mov	r1, r3
 5422 011a BB68     		ldr	r3, [r7, #8]
 5423 011c 1A78     		ldrb	r2, [r3]	@ zero_extendqisi2
 5424 011e 6318     		adds	r3, r4, r1
 5425 0120 1A73     		strb	r2, [r3, #12]
 5426              	.L326:
1221:.\DisplayUtils.c ****                         }
 5427              		.loc 1 1221 0
 5428 0122 00BF     		nop
 5429              		.loc 1 1224 0
 5430 0124 06E0     		b	.L327
 5431              	.L322:
1225:.\DisplayUtils.c ****                 }
1226:.\DisplayUtils.c ****                 ptr++;
 5432              		.loc 1 1226 0
 5433 0126 FB68     		ldr	r3, [r7, #12]
 5434 0128 0633     		adds	r3, r3, #6
 5435 012a FB60     		str	r3, [r7, #12]
 5436              	.L321:
1201:.\DisplayUtils.c ****             {
 5437              		.loc 1 1201 0
 5438 012c FB68     		ldr	r3, [r7, #12]
 5439 012e 1B78     		ldrb	r3, [r3]	@ zero_extendqisi2
 5440 0130 002B     		cmp	r3, #0
 5441 0132 A1D1     		bne	.L328
 5442              	.L327:
1227:.\DisplayUtils.c ****             }
1228:.\DisplayUtils.c ****             pdisplay->_currentstate = DISPLAY_LESS_THAN_FOUR_POSITIONS;
 5443              		.loc 1 1228 0
 5444 0134 BB68     		ldr	r3, [r7, #8]
 5445 0136 A422     		movs	r2, #164
 5446 0138 1A71     		strb	r2, [r3, #4]
 5447              	.L315:
 5448              	.LBE34:
1229:.\DisplayUtils.c ****         }
ARM GAS  C:\Users\Lenovo\AppData\Local\Temp\ccKs44LO.s 			page 119


1230:.\DisplayUtils.c ****     }
1231:.\DisplayUtils.c **** }
 5449              		.loc 1 1231 0
 5450 013a 1437     		adds	r7, r7, #20
 5451              		.cfi_def_cfa_offset 12
 5452 013c BD46     		mov	sp, r7
 5453              		.cfi_def_cfa_register 13
 5454              		@ sp needed
 5455 013e 90BD     		pop	{r4, r7, pc}
 5456              	.L330:
 5457              		.align	2
 5458              	.L329:
 5459 0140 00000000 		.word	_g_dispenserlayoutinfo
 5460 0144 00000000 		.word	_g_buffscrlut
 5461              		.cfi_endproc
 5462              	.LFE93:
 5463              		.size	SequesterMessageSink, .-SequesterMessageSink
 5464              		.section	.text.ReleaseMessageSink,"ax",%progbits
 5465              		.align	2
 5466              		.global	ReleaseMessageSink
 5467              		.thumb
 5468              		.thumb_func
 5469              		.type	ReleaseMessageSink, %function
 5470              	ReleaseMessageSink:
 5471              	.LFB94:
1232:.\DisplayUtils.c **** 
1233:.\DisplayUtils.c **** //@Created by: HIJH
1234:.\DisplayUtils.c **** //@Date: Septembre de 2016
1235:.\DisplayUtils.c **** //Sets the SinkMessage in "BUSY" state so the whole buffered data 
1236:.\DisplayUtils.c **** //from the display flow will be send to the pump transaction model
1237:.\DisplayUtils.c **** void ReleaseMessageSink(void *pparam)
1238:.\DisplayUtils.c **** {
 5472              		.loc 1 1238 0
 5473              		.cfi_startproc
 5474              		@ args = 0, pretend = 0, frame = 24
 5475              		@ frame_needed = 1, uses_anonymous_args = 0
 5476 0000 80B5     		push	{r7, lr}
 5477              		.cfi_def_cfa_offset 8
 5478              		.cfi_offset 7, -8
 5479              		.cfi_offset 14, -4
 5480 0002 86B0     		sub	sp, sp, #24
 5481              		.cfi_def_cfa_offset 32
 5482 0004 00AF     		add	r7, sp, #0
 5483              		.cfi_def_cfa_register 7
 5484 0006 7860     		str	r0, [r7, #4]
1239:.\DisplayUtils.c ****     PDISPLAYLAYOUTPTR pdisplay = (PDISPLAYLAYOUTPTR)pparam;
 5485              		.loc 1 1239 0
 5486 0008 7B68     		ldr	r3, [r7, #4]
 5487 000a 7B61     		str	r3, [r7, #20]
1240:.\DisplayUtils.c ****     if(pdisplay)
 5488              		.loc 1 1240 0
 5489 000c 7B69     		ldr	r3, [r7, #20]
 5490 000e 002B     		cmp	r3, #0
 5491 0010 00F0C780 		beq	.L331
 5492              	.LBB35:
1241:.\DisplayUtils.c ****     {
1242:.\DisplayUtils.c ****         PSINKMESSAGEPTR psinkmsg = (PSINKMESSAGEPTR)pdisplay->_psequesteredmessagesink;
ARM GAS  C:\Users\Lenovo\AppData\Local\Temp\ccKs44LO.s 			page 120


 5493              		.loc 1 1242 0
 5494 0014 7B69     		ldr	r3, [r7, #20]
 5495 0016 1B6B     		ldr	r3, [r3, #48]
 5496 0018 3B61     		str	r3, [r7, #16]
1243:.\DisplayUtils.c ****         if(psinkmsg)
 5497              		.loc 1 1243 0
 5498 001a 3B69     		ldr	r3, [r7, #16]
 5499 001c 002B     		cmp	r3, #0
 5500 001e 00F0C080 		beq	.L331
 5501              	.LBB36:
1244:.\DisplayUtils.c ****         {
1245:.\DisplayUtils.c ****             //CAREFUL WITH RETURNS BETWEEN THE LOCK/UNLOCK CALLS
1246:.\DisplayUtils.c ****             //AND RECURSIVE CALLS THAT WOULD DEADLOCK!
1247:.\DisplayUtils.c ****             I2CBusLock();
 5502              		.loc 1 1247 0
 5503 0022 FFF7FEFF 		bl	I2CBusLock
1248:.\DisplayUtils.c ****             
1249:.\DisplayUtils.c ****             ClearEepromBuffer();
 5504              		.loc 1 1249 0
 5505 0026 FFF7FEFF 		bl	ClearEepromBuffer
1250:.\DisplayUtils.c ****             //Here we store into EEPROM, the whole captured data for the current transaction
1251:.\DisplayUtils.c ****             //on either display and position
1252:.\DisplayUtils.c ****             if(pdisplay->_dispid == DISPLAY1)
 5506              		.loc 1 1252 0
 5507 002a 7B69     		ldr	r3, [r7, #20]
 5508 002c 1B78     		ldrb	r3, [r3]	@ zero_extendqisi2
 5509 002e 002B     		cmp	r3, #0
 5510 0030 4FD1     		bne	.L333
1253:.\DisplayUtils.c ****             {
1254:.\DisplayUtils.c ****                 switch(psinkmsg->_buffer[GetBufferIndexFromDisplayID(DISPLAY_SELECCIONE_POSICION)])
 5511              		.loc 1 1254 0
 5512 0032 2E20     		movs	r0, #46
 5513 0034 FFF7FEFF 		bl	GetBufferIndexFromDisplayID
 5514 0038 0346     		mov	r3, r0
 5515 003a 1A46     		mov	r2, r3
 5516 003c 3B69     		ldr	r3, [r7, #16]
 5517 003e 1344     		add	r3, r3, r2
 5518 0040 1B7B     		ldrb	r3, [r3, #12]	@ zero_extendqisi2
 5519 0042 562B     		cmp	r3, #86
 5520 0044 02D0     		beq	.L335
 5521 0046 572B     		cmp	r3, #87
 5522 0048 21D0     		beq	.L336
 5523 004a 8DE0     		b	.L341
 5524              	.L335:
1255:.\DisplayUtils.c ****                 {
1256:.\DisplayUtils.c ****                     case POSITIONA:
1257:.\DisplayUtils.c ****                     {
1258:.\DisplayUtils.c ****                         ClearEepromBuffer();
 5525              		.loc 1 1258 0
 5526 004c FFF7FEFF 		bl	ClearEepromBuffer
1259:.\DisplayUtils.c ****                         memcpy(GetEepromBuffer(), ((PSINKMESSAGEPTR)pdisplay->_psequesteredmessages
 5527              		.loc 1 1259 0
 5528 0050 FFF7FEFF 		bl	GetEepromBuffer
 5529 0054 0246     		mov	r2, r0
 5530 0056 7B69     		ldr	r3, [r7, #20]
 5531 0058 1B6B     		ldr	r3, [r3, #48]
 5532 005a 0C33     		adds	r3, r3, #12
ARM GAS  C:\Users\Lenovo\AppData\Local\Temp\ccKs44LO.s 			page 121


 5533 005c 1046     		mov	r0, r2
 5534 005e 1946     		mov	r1, r3
 5535 0060 4022     		movs	r2, #64
 5536 0062 FFF7FEFF 		bl	memcpy
1260:.\DisplayUtils.c ****                         if(psinkmsg->_buffer[GetBufferIndexFromDisplayID(DISPLAY_FORMA_PAGO_DESEADA
 5537              		.loc 1 1260 0
 5538 0066 0420     		movs	r0, #4
 5539 0068 FFF7FEFF 		bl	GetBufferIndexFromDisplayID
 5540 006c 0346     		mov	r3, r0
 5541 006e 1A46     		mov	r2, r3
 5542 0070 3B69     		ldr	r3, [r7, #16]
 5543 0072 1344     		add	r3, r3, r2
 5544 0074 1B7B     		ldrb	r3, [r3, #12]	@ zero_extendqisi2
 5545 0076 0D2B     		cmp	r3, #13
 5546 0078 04D1     		bne	.L337
1261:.\DisplayUtils.c ****                             StoreEepromPage(EEPROM_DISPENSER_PUMP11_TRANSACTION_PAGE);
 5547              		.loc 1 1261 0
 5548 007a 4FF4C060 		mov	r0, #1536
 5549 007e FFF7FEFF 		bl	StoreEepromPage
1262:.\DisplayUtils.c ****                         else
1263:.\DisplayUtils.c ****                             StoreEepromPage(EEPROM_DISPENSER_PUMP13_TRANSACTION_PAGE);
1264:.\DisplayUtils.c ****                             
1265:.\DisplayUtils.c ****                         break;
 5550              		.loc 1 1265 0
 5551 0082 25E0     		b	.L334
 5552              	.L337:
1263:.\DisplayUtils.c ****                             
 5553              		.loc 1 1263 0
 5554 0084 4FF4D060 		mov	r0, #1664
 5555 0088 FFF7FEFF 		bl	StoreEepromPage
 5556              		.loc 1 1265 0
 5557 008c 20E0     		b	.L334
 5558              	.L336:
1266:.\DisplayUtils.c ****                     }
1267:.\DisplayUtils.c ****                     case POSITIONB:
1268:.\DisplayUtils.c ****                     {
1269:.\DisplayUtils.c ****                         ClearEepromBuffer();
 5559              		.loc 1 1269 0
 5560 008e FFF7FEFF 		bl	ClearEepromBuffer
1270:.\DisplayUtils.c ****                         memcpy(GetEepromBuffer(), ((PSINKMESSAGEPTR)pdisplay->_psequesteredmessages
 5561              		.loc 1 1270 0
 5562 0092 FFF7FEFF 		bl	GetEepromBuffer
 5563 0096 0246     		mov	r2, r0
 5564 0098 7B69     		ldr	r3, [r7, #20]
 5565 009a 1B6B     		ldr	r3, [r3, #48]
 5566 009c 0C33     		adds	r3, r3, #12
 5567 009e 1046     		mov	r0, r2
 5568 00a0 1946     		mov	r1, r3
 5569 00a2 4022     		movs	r2, #64
 5570 00a4 FFF7FEFF 		bl	memcpy
1271:.\DisplayUtils.c ****                         if(psinkmsg->_buffer[GetBufferIndexFromDisplayID(DISPLAY_FORMA_PAGO_DESEADA
 5571              		.loc 1 1271 0
 5572 00a8 0420     		movs	r0, #4
 5573 00aa FFF7FEFF 		bl	GetBufferIndexFromDisplayID
 5574 00ae 0346     		mov	r3, r0
 5575 00b0 1A46     		mov	r2, r3
 5576 00b2 3B69     		ldr	r3, [r7, #16]
ARM GAS  C:\Users\Lenovo\AppData\Local\Temp\ccKs44LO.s 			page 122


 5577 00b4 1344     		add	r3, r3, r2
 5578 00b6 1B7B     		ldrb	r3, [r3, #12]	@ zero_extendqisi2
 5579 00b8 0D2B     		cmp	r3, #13
 5580 00ba 04D1     		bne	.L339
1272:.\DisplayUtils.c ****                             StoreEepromPage(EEPROM_DISPENSER_PUMP31_TRANSACTION_PAGE);
 5581              		.loc 1 1272 0
 5582 00bc 4FF40060 		mov	r0, #2048
 5583 00c0 FFF7FEFF 		bl	StoreEepromPage
1273:.\DisplayUtils.c ****                         else
1274:.\DisplayUtils.c ****                             StoreEepromPage(EEPROM_DISPENSER_PUMP33_TRANSACTION_PAGE);
1275:.\DisplayUtils.c ****                             
1276:.\DisplayUtils.c ****                         break;
 5584              		.loc 1 1276 0
 5585 00c4 03E0     		b	.L348
 5586              	.L339:
1274:.\DisplayUtils.c ****                             
 5587              		.loc 1 1274 0
 5588 00c6 4FF40860 		mov	r0, #2176
 5589 00ca FFF7FEFF 		bl	StoreEepromPage
 5590              	.L348:
 5591              		.loc 1 1276 0
 5592 00ce 00BF     		nop
 5593              	.L334:
 5594 00d0 4AE0     		b	.L341
 5595              	.L333:
1277:.\DisplayUtils.c ****                     }
1278:.\DisplayUtils.c ****                 }
1279:.\DisplayUtils.c ****             }
1280:.\DisplayUtils.c ****             else
1281:.\DisplayUtils.c ****             {
1282:.\DisplayUtils.c ****                 switch(psinkmsg->_buffer[GetBufferIndexFromDisplayID(DISPLAY_SELECCIONE_POSICION)])
 5596              		.loc 1 1282 0
 5597 00d2 2E20     		movs	r0, #46
 5598 00d4 FFF7FEFF 		bl	GetBufferIndexFromDisplayID
 5599 00d8 0346     		mov	r3, r0
 5600 00da 1A46     		mov	r2, r3
 5601 00dc 3B69     		ldr	r3, [r7, #16]
 5602 00de 1344     		add	r3, r3, r2
 5603 00e0 1B7B     		ldrb	r3, [r3, #12]	@ zero_extendqisi2
 5604 00e2 562B     		cmp	r3, #86
 5605 00e4 02D0     		beq	.L342
 5606 00e6 572B     		cmp	r3, #87
 5607 00e8 1FD0     		beq	.L343
 5608 00ea 3DE0     		b	.L341
 5609              	.L342:
1283:.\DisplayUtils.c ****                 {
1284:.\DisplayUtils.c ****                     case POSITIONA:
1285:.\DisplayUtils.c ****                         memcpy(GetEepromBuffer(), ((PSINKMESSAGEPTR)pdisplay->_psequesteredmessages
 5610              		.loc 1 1285 0
 5611 00ec FFF7FEFF 		bl	GetEepromBuffer
 5612 00f0 0246     		mov	r2, r0
 5613 00f2 7B69     		ldr	r3, [r7, #20]
 5614 00f4 1B6B     		ldr	r3, [r3, #48]
 5615 00f6 0C33     		adds	r3, r3, #12
 5616 00f8 1046     		mov	r0, r2
 5617 00fa 1946     		mov	r1, r3
 5618 00fc 4022     		movs	r2, #64
ARM GAS  C:\Users\Lenovo\AppData\Local\Temp\ccKs44LO.s 			page 123


 5619 00fe FFF7FEFF 		bl	memcpy
1286:.\DisplayUtils.c ****                         if(psinkmsg->_buffer[GetBufferIndexFromDisplayID(DISPLAY_FORMA_PAGO_DESEADA
 5620              		.loc 1 1286 0
 5621 0102 0420     		movs	r0, #4
 5622 0104 FFF7FEFF 		bl	GetBufferIndexFromDisplayID
 5623 0108 0346     		mov	r3, r0
 5624 010a 1A46     		mov	r2, r3
 5625 010c 3B69     		ldr	r3, [r7, #16]
 5626 010e 1344     		add	r3, r3, r2
 5627 0110 1B7B     		ldrb	r3, [r3, #12]	@ zero_extendqisi2
 5628 0112 0D2B     		cmp	r3, #13
 5629 0114 04D1     		bne	.L344
1287:.\DisplayUtils.c ****                             StoreEepromPage(EEPROM_DISPENSER_PUMP41_TRANSACTION_PAGE);
 5630              		.loc 1 1287 0
 5631 0116 4FF41060 		mov	r0, #2304
 5632 011a FFF7FEFF 		bl	StoreEepromPage
1288:.\DisplayUtils.c ****                         else
1289:.\DisplayUtils.c ****                             StoreEepromPage(EEPROM_DISPENSER_PUMP43_TRANSACTION_PAGE);
1290:.\DisplayUtils.c ****                             
1291:.\DisplayUtils.c ****                         break;
 5633              		.loc 1 1291 0
 5634 011e 23E0     		b	.L341
 5635              	.L344:
1289:.\DisplayUtils.c ****                             
 5636              		.loc 1 1289 0
 5637 0120 4FF41860 		mov	r0, #2432
 5638 0124 FFF7FEFF 		bl	StoreEepromPage
 5639              		.loc 1 1291 0
 5640 0128 1EE0     		b	.L341
 5641              	.L343:
1292:.\DisplayUtils.c ****                     case POSITIONB:
1293:.\DisplayUtils.c ****                         memcpy(GetEepromBuffer(), ((PSINKMESSAGEPTR)pdisplay->_psequesteredmessages
 5642              		.loc 1 1293 0
 5643 012a FFF7FEFF 		bl	GetEepromBuffer
 5644 012e 0246     		mov	r2, r0
 5645 0130 7B69     		ldr	r3, [r7, #20]
 5646 0132 1B6B     		ldr	r3, [r3, #48]
 5647 0134 0C33     		adds	r3, r3, #12
 5648 0136 1046     		mov	r0, r2
 5649 0138 1946     		mov	r1, r3
 5650 013a 4022     		movs	r2, #64
 5651 013c FFF7FEFF 		bl	memcpy
1294:.\DisplayUtils.c ****                         if(psinkmsg->_buffer[GetBufferIndexFromDisplayID(DISPLAY_FORMA_PAGO_DESEADA
 5652              		.loc 1 1294 0
 5653 0140 0420     		movs	r0, #4
 5654 0142 FFF7FEFF 		bl	GetBufferIndexFromDisplayID
 5655 0146 0346     		mov	r3, r0
 5656 0148 1A46     		mov	r2, r3
 5657 014a 3B69     		ldr	r3, [r7, #16]
 5658 014c 1344     		add	r3, r3, r2
 5659 014e 1B7B     		ldrb	r3, [r3, #12]	@ zero_extendqisi2
 5660 0150 0D2B     		cmp	r3, #13
 5661 0152 04D1     		bne	.L346
1295:.\DisplayUtils.c ****                             StoreEepromPage(EEPROM_DISPENSER_PUMP21_TRANSACTION_PAGE);
 5662              		.loc 1 1295 0
 5663 0154 4FF4E060 		mov	r0, #1792
 5664 0158 FFF7FEFF 		bl	StoreEepromPage
ARM GAS  C:\Users\Lenovo\AppData\Local\Temp\ccKs44LO.s 			page 124


1296:.\DisplayUtils.c ****                         else
1297:.\DisplayUtils.c ****                             StoreEepromPage(EEPROM_DISPENSER_PUMP23_TRANSACTION_PAGE);
1298:.\DisplayUtils.c ****                             
1299:.\DisplayUtils.c ****                         break;
 5665              		.loc 1 1299 0
 5666 015c 03E0     		b	.L349
 5667              	.L346:
1297:.\DisplayUtils.c ****                             
 5668              		.loc 1 1297 0
 5669 015e 4FF4F060 		mov	r0, #1920
 5670 0162 FFF7FEFF 		bl	StoreEepromPage
 5671              	.L349:
 5672              		.loc 1 1299 0
 5673 0166 00BF     		nop
 5674              	.L341:
1300:.\DisplayUtils.c ****                 }
1301:.\DisplayUtils.c ****             }
1302:.\DisplayUtils.c ****             I2CBusUnlock();
 5675              		.loc 1 1302 0
 5676 0168 FFF7FEFF 		bl	I2CBusUnlock
1303:.\DisplayUtils.c ****             
1304:.\DisplayUtils.c ****             PSINKMESSAGEPTR pnewsinkmsg = AllocateMessageSlot();
 5677              		.loc 1 1304 0
 5678 016c FFF7FEFF 		bl	AllocateMessageSlot
 5679 0170 F860     		str	r0, [r7, #12]
1305:.\DisplayUtils.c ****             pnewsinkmsg->_messageid = psinkmsg->_messageid;
 5680              		.loc 1 1305 0
 5681 0172 3B69     		ldr	r3, [r7, #16]
 5682 0174 5B78     		ldrb	r3, [r3, #1]
 5683 0176 DAB2     		uxtb	r2, r3
 5684 0178 FB68     		ldr	r3, [r7, #12]
 5685 017a 5A70     		strb	r2, [r3, #1]
1306:.\DisplayUtils.c ****             pnewsinkmsg->_messagetype = psinkmsg->_messagetype;
 5686              		.loc 1 1306 0
 5687 017c 3B69     		ldr	r3, [r7, #16]
 5688 017e 9B78     		ldrb	r3, [r3, #2]
 5689 0180 DAB2     		uxtb	r2, r3
 5690 0182 FB68     		ldr	r3, [r7, #12]
 5691 0184 9A70     		strb	r2, [r3, #2]
1307:.\DisplayUtils.c ****             memcpy(&pnewsinkmsg->_buffer, &psinkmsg->_buffer, _MESSAGE_LENGTH_);
 5692              		.loc 1 1307 0
 5693 0186 FB68     		ldr	r3, [r7, #12]
 5694 0188 03F10C02 		add	r2, r3, #12
 5695 018c 3B69     		ldr	r3, [r7, #16]
 5696 018e 0C33     		adds	r3, r3, #12
 5697 0190 1046     		mov	r0, r2
 5698 0192 1946     		mov	r1, r3
 5699 0194 4FF4C072 		mov	r2, #384
 5700 0198 FFF7FEFF 		bl	memcpy
1308:.\DisplayUtils.c ****             
1309:.\DisplayUtils.c ****             //////////////////////////////////////////////////////////////////////////////////
1310:.\DisplayUtils.c ****             //THIS MUST BE SET TO "SINK_BUSY" TO ALLOW FOR ITS PROCESSING!!! KEEP THIS!!!
1311:.\DisplayUtils.c ****             pnewsinkmsg->_messagestate = SINK_BUSY;
 5701              		.loc 1 1311 0
 5702 019c FB68     		ldr	r3, [r7, #12]
 5703 019e 0322     		movs	r2, #3
 5704 01a0 DA70     		strb	r2, [r3, #3]
ARM GAS  C:\Users\Lenovo\AppData\Local\Temp\ccKs44LO.s 			page 125


 5705              	.L331:
 5706              	.LBE36:
 5707              	.LBE35:
1312:.\DisplayUtils.c ****             //////////////////////////////////////////////////////////////////////////////////
1313:.\DisplayUtils.c ****         }
1314:.\DisplayUtils.c ****     }
1315:.\DisplayUtils.c **** }
 5708              		.loc 1 1315 0
 5709 01a2 1837     		adds	r7, r7, #24
 5710              		.cfi_def_cfa_offset 8
 5711 01a4 BD46     		mov	sp, r7
 5712              		.cfi_def_cfa_register 13
 5713              		@ sp needed
 5714 01a6 80BD     		pop	{r7, pc}
 5715              		.cfi_endproc
 5716              	.LFE94:
 5717              		.size	ReleaseMessageSink, .-ReleaseMessageSink
 5718              		.section	.text.StoreTransactionData,"ax",%progbits
 5719              		.align	2
 5720              		.global	StoreTransactionData
 5721              		.thumb
 5722              		.thumb_func
 5723              		.type	StoreTransactionData, %function
 5724              	StoreTransactionData:
 5725              	.LFB95:
1316:.\DisplayUtils.c **** 
1317:.\DisplayUtils.c **** //@Created by: HIJH
1318:.\DisplayUtils.c **** //@Date: Septembre de 2016
1319:.\DisplayUtils.c **** //Buffers the captured data from the display flow and makes a predefined layout for the
1320:.\DisplayUtils.c **** //upcoming transaction on the selected pump.
1321:.\DisplayUtils.c **** void StoreTransactionData(void *pparam)
1322:.\DisplayUtils.c **** {
 5726              		.loc 1 1322 0
 5727              		.cfi_startproc
 5728              		@ args = 0, pretend = 0, frame = 16
 5729              		@ frame_needed = 1, uses_anonymous_args = 0
 5730 0000 90B5     		push	{r4, r7, lr}
 5731              		.cfi_def_cfa_offset 12
 5732              		.cfi_offset 4, -12
 5733              		.cfi_offset 7, -8
 5734              		.cfi_offset 14, -4
 5735 0002 85B0     		sub	sp, sp, #20
 5736              		.cfi_def_cfa_offset 32
 5737 0004 00AF     		add	r7, sp, #0
 5738              		.cfi_def_cfa_register 7
 5739 0006 7860     		str	r0, [r7, #4]
1323:.\DisplayUtils.c ****     PDISPLAYLAYOUTPTR pdisplay = (PDISPLAYLAYOUTPTR)pparam;
 5740              		.loc 1 1323 0
 5741 0008 7B68     		ldr	r3, [r7, #4]
 5742 000a BB60     		str	r3, [r7, #8]
1324:.\DisplayUtils.c ****     if(pdisplay)
 5743              		.loc 1 1324 0
 5744 000c BB68     		ldr	r3, [r7, #8]
 5745 000e 002B     		cmp	r3, #0
 5746 0010 00F0DB81 		beq	.L350
1325:.\DisplayUtils.c ****         if(pdisplay->_psequesteredmessagesink != NULL)
 5747              		.loc 1 1325 0
ARM GAS  C:\Users\Lenovo\AppData\Local\Temp\ccKs44LO.s 			page 126


 5748 0014 BB68     		ldr	r3, [r7, #8]
 5749 0016 1B6B     		ldr	r3, [r3, #48]
 5750 0018 002B     		cmp	r3, #0
 5751 001a 00F0D681 		beq	.L350
 5752              	.LBB37:
1326:.\DisplayUtils.c ****         {
1327:.\DisplayUtils.c ****             DisplayScreenBufferMap *ptr = _g_buffscrlut;
 5753              		.loc 1 1327 0
 5754 001e B34B     		ldr	r3, .L370
 5755 0020 FB60     		str	r3, [r7, #12]
1328:.\DisplayUtils.c ****             while(ptr->_refscrid != 0x00)
 5756              		.loc 1 1328 0
 5757 0022 CBE1     		b	.L352
 5758              	.L368:
1329:.\DisplayUtils.c ****             {
1330:.\DisplayUtils.c ****                 if(pdisplay->_pcurrflow->_scrid == ptr->_refscrid)
 5759              		.loc 1 1330 0
 5760 0024 BB68     		ldr	r3, [r7, #8]
 5761 0026 1B69     		ldr	r3, [r3, #16]
 5762 0028 1A78     		ldrb	r2, [r3]	@ zero_extendqisi2
 5763 002a FB68     		ldr	r3, [r7, #12]
 5764 002c 1B78     		ldrb	r3, [r3]	@ zero_extendqisi2
 5765 002e 9A42     		cmp	r2, r3
 5766 0030 40F0C181 		bne	.L353
1331:.\DisplayUtils.c ****                 {
1332:.\DisplayUtils.c ****                     switch(ptr->_refscrid)
 5767              		.loc 1 1332 0
 5768 0034 FB68     		ldr	r3, [r7, #12]
 5769 0036 1B78     		ldrb	r3, [r3]	@ zero_extendqisi2
 5770 0038 043B     		subs	r3, r3, #4
 5771 003a 2A2B     		cmp	r3, #42
 5772 003c 00F2C481 		bhi	.L369
 5773 0040 01A2     		adr	r2, .L356
 5774 0042 52F823F0 		ldr	pc, [r2, r3, lsl #2]
 5775 0046 00BF     		.p2align 2
 5776              	.L356:
 5777 0048 F5000000 		.word	.L355+1
 5778 004c 75010000 		.word	.L357+1
 5779 0050 A5010000 		.word	.L358+1
 5780 0054 C9030000 		.word	.L369+1
 5781 0058 C9030000 		.word	.L369+1
 5782 005c C9030000 		.word	.L369+1
 5783 0060 3D020000 		.word	.L359+1
 5784 0064 7D020000 		.word	.L360+1
 5785 0068 C9030000 		.word	.L369+1
 5786 006c F1010000 		.word	.L361+1
 5787 0070 AD020000 		.word	.L362+1
 5788 0074 C9030000 		.word	.L369+1
 5789 0078 C9030000 		.word	.L369+1
 5790 007c C9030000 		.word	.L369+1
 5791 0080 75030000 		.word	.L363+1
 5792 0084 C9030000 		.word	.L369+1
 5793 0088 C9030000 		.word	.L369+1
 5794 008c C9030000 		.word	.L369+1
 5795 0090 C9030000 		.word	.L369+1
 5796 0094 C9030000 		.word	.L369+1
 5797 0098 C9030000 		.word	.L369+1
ARM GAS  C:\Users\Lenovo\AppData\Local\Temp\ccKs44LO.s 			page 127


 5798 009c C9030000 		.word	.L369+1
 5799 00a0 C9030000 		.word	.L369+1
 5800 00a4 C9030000 		.word	.L369+1
 5801 00a8 C9030000 		.word	.L369+1
 5802 00ac C9030000 		.word	.L369+1
 5803 00b0 C9030000 		.word	.L369+1
 5804 00b4 C9030000 		.word	.L369+1
 5805 00b8 C9030000 		.word	.L369+1
 5806 00bc C9030000 		.word	.L369+1
 5807 00c0 C9030000 		.word	.L369+1
 5808 00c4 C9030000 		.word	.L369+1
 5809 00c8 F5020000 		.word	.L364+1
 5810 00cc 35030000 		.word	.L365+1
 5811 00d0 C9030000 		.word	.L369+1
 5812 00d4 C9030000 		.word	.L369+1
 5813 00d8 C9030000 		.word	.L369+1
 5814 00dc C9030000 		.word	.L369+1
 5815 00e0 C9030000 		.word	.L369+1
 5816 00e4 C9030000 		.word	.L369+1
 5817 00e8 C9030000 		.word	.L369+1
 5818 00ec C9030000 		.word	.L369+1
 5819 00f0 25010000 		.word	.L366+1
 5820              		.p2align 1
 5821              	.L355:
1333:.\DisplayUtils.c ****                     {
1334:.\DisplayUtils.c ****                         case DISPLAY_FORMA_PAGO_DESEADA:
1335:.\DisplayUtils.c ****                         {
1336:.\DisplayUtils.c ****                             memset(&((PSINKMESSAGEPTR)pdisplay->_psequesteredmessagesink)->_buffer[
 5822              		.loc 1 1336 0
 5823 00f4 BB68     		ldr	r3, [r7, #8]
 5824 00f6 1A6B     		ldr	r2, [r3, #48]
 5825 00f8 FB68     		ldr	r3, [r7, #12]
 5826 00fa 5B88     		ldrh	r3, [r3, #2]
 5827 00fc 0833     		adds	r3, r3, #8
 5828 00fe 1344     		add	r3, r3, r2
 5829 0100 1A1D     		adds	r2, r3, #4
 5830 0102 FB68     		ldr	r3, [r7, #12]
 5831 0104 1B79     		ldrb	r3, [r3, #4]	@ zero_extendqisi2
 5832 0106 1046     		mov	r0, r2
 5833 0108 0021     		movs	r1, #0
 5834 010a 1A46     		mov	r2, r3
 5835 010c FFF7FEFF 		bl	memset
1337:.\DisplayUtils.c ****                             ((PSINKMESSAGEPTR)pdisplay->_psequesteredmessagesink)->_buffer[ptr->_bu
 5836              		.loc 1 1337 0
 5837 0110 BB68     		ldr	r3, [r7, #8]
 5838 0112 1B6B     		ldr	r3, [r3, #48]
 5839 0114 FA68     		ldr	r2, [r7, #12]
 5840 0116 5288     		ldrh	r2, [r2, #2]
 5841 0118 1146     		mov	r1, r2
 5842 011a BA68     		ldr	r2, [r7, #8]
 5843 011c D278     		ldrb	r2, [r2, #3]	@ zero_extendqisi2
 5844 011e 0B44     		add	r3, r3, r1
 5845 0120 1A73     		strb	r2, [r3, #12]
1338:.\DisplayUtils.c ****                             break;
 5846              		.loc 1 1338 0
 5847 0122 47E1     		b	.L354
 5848              	.L366:
ARM GAS  C:\Users\Lenovo\AppData\Local\Temp\ccKs44LO.s 			page 128


1339:.\DisplayUtils.c ****                         }
1340:.\DisplayUtils.c ****                         case DISPLAY_SELECCIONE_POSICION:
1341:.\DisplayUtils.c ****                         {
1342:.\DisplayUtils.c ****                             if(_g_dispenserlayoutinfo._numpositions == 0x04)
 5849              		.loc 1 1342 0
 5850 0124 724B     		ldr	r3, .L370+4
 5851 0126 9B78     		ldrb	r3, [r3, #2]	@ zero_extendqisi2
 5852 0128 042B     		cmp	r3, #4
 5853 012a 22D1     		bne	.L367
1343:.\DisplayUtils.c ****                             {
1344:.\DisplayUtils.c ****                                 memset(&((PSINKMESSAGEPTR)pdisplay->_psequesteredmessagesink)->_buf
 5854              		.loc 1 1344 0
 5855 012c BB68     		ldr	r3, [r7, #8]
 5856 012e 1A6B     		ldr	r2, [r3, #48]
 5857 0130 FB68     		ldr	r3, [r7, #12]
 5858 0132 5B88     		ldrh	r3, [r3, #2]
 5859 0134 0833     		adds	r3, r3, #8
 5860 0136 1344     		add	r3, r3, r2
 5861 0138 1A1D     		adds	r2, r3, #4
 5862 013a FB68     		ldr	r3, [r7, #12]
 5863 013c 1B79     		ldrb	r3, [r3, #4]	@ zero_extendqisi2
 5864 013e 1046     		mov	r0, r2
 5865 0140 0021     		movs	r1, #0
 5866 0142 1A46     		mov	r2, r3
 5867 0144 FFF7FEFF 		bl	memset
1345:.\DisplayUtils.c ****                                 ((PSINKMESSAGEPTR)pdisplay->_psequesteredmessagesink)->_buffer[ptr-
 5868              		.loc 1 1345 0
 5869 0148 BB68     		ldr	r3, [r7, #8]
 5870 014a 1B6B     		ldr	r3, [r3, #48]
 5871 014c FA68     		ldr	r2, [r7, #12]
 5872 014e 5288     		ldrh	r2, [r2, #2]
 5873 0150 1146     		mov	r1, r2
 5874 0152 BA68     		ldr	r2, [r7, #8]
 5875 0154 D278     		ldrb	r2, [r2, #3]	@ zero_extendqisi2
 5876 0156 0B44     		add	r3, r3, r1
 5877 0158 1A73     		strb	r2, [r3, #12]
1346:.\DisplayUtils.c ****                                 ((PSINKMESSAGEPTR)pdisplay->_psequesteredmessagesink)->_buffer[GetB
 5878              		.loc 1 1346 0
 5879 015a BB68     		ldr	r3, [r7, #8]
 5880 015c 1C6B     		ldr	r4, [r3, #48]
 5881 015e FA20     		movs	r0, #250
 5882 0160 FFF7FEFF 		bl	GetBufferIndexFromDisplayID
 5883 0164 0346     		mov	r3, r0
 5884 0166 1946     		mov	r1, r3
 5885 0168 BB68     		ldr	r3, [r7, #8]
 5886 016a 1A78     		ldrb	r2, [r3]	@ zero_extendqisi2
 5887 016c 6318     		adds	r3, r4, r1
 5888 016e 1A73     		strb	r2, [r3, #12]
1347:.\DisplayUtils.c ****                             }
1348:.\DisplayUtils.c ****                             break;
 5889              		.loc 1 1348 0
 5890 0170 20E1     		b	.L354
 5891              	.L367:
 5892 0172 1FE1     		b	.L354
 5893              	.L357:
1349:.\DisplayUtils.c ****                         }
1350:.\DisplayUtils.c ****                         case DISPLAY_FORMA_PROGRAMACION:
ARM GAS  C:\Users\Lenovo\AppData\Local\Temp\ccKs44LO.s 			page 129


1351:.\DisplayUtils.c ****                         {
1352:.\DisplayUtils.c ****                             memset(&((PSINKMESSAGEPTR)pdisplay->_psequesteredmessagesink)->_buffer[
 5894              		.loc 1 1352 0
 5895 0174 BB68     		ldr	r3, [r7, #8]
 5896 0176 1A6B     		ldr	r2, [r3, #48]
 5897 0178 FB68     		ldr	r3, [r7, #12]
 5898 017a 5B88     		ldrh	r3, [r3, #2]
 5899 017c 0833     		adds	r3, r3, #8
 5900 017e 1344     		add	r3, r3, r2
 5901 0180 1A1D     		adds	r2, r3, #4
 5902 0182 FB68     		ldr	r3, [r7, #12]
 5903 0184 1B79     		ldrb	r3, [r3, #4]	@ zero_extendqisi2
 5904 0186 1046     		mov	r0, r2
 5905 0188 0021     		movs	r1, #0
 5906 018a 1A46     		mov	r2, r3
 5907 018c FFF7FEFF 		bl	memset
1353:.\DisplayUtils.c ****                             ((PSINKMESSAGEPTR)pdisplay->_psequesteredmessagesink)->_buffer[ptr->_bu
 5908              		.loc 1 1353 0
 5909 0190 BB68     		ldr	r3, [r7, #8]
 5910 0192 1B6B     		ldr	r3, [r3, #48]
 5911 0194 FA68     		ldr	r2, [r7, #12]
 5912 0196 5288     		ldrh	r2, [r2, #2]
 5913 0198 1146     		mov	r1, r2
 5914 019a BA68     		ldr	r2, [r7, #8]
 5915 019c D278     		ldrb	r2, [r2, #3]	@ zero_extendqisi2
 5916 019e 0B44     		add	r3, r3, r1
 5917 01a0 1A73     		strb	r2, [r3, #12]
1354:.\DisplayUtils.c ****                             break;
 5918              		.loc 1 1354 0
 5919 01a2 07E1     		b	.L354
 5920              	.L358:
1355:.\DisplayUtils.c ****                         }
1356:.\DisplayUtils.c ****                         case DISPLAY_INTRODUZCA_VALOR:
1357:.\DisplayUtils.c ****                         {
1358:.\DisplayUtils.c ****                             memset(&((PSINKMESSAGEPTR)pdisplay->_psequesteredmessagesink)->_buffer[
 5921              		.loc 1 1358 0
 5922 01a4 BB68     		ldr	r3, [r7, #8]
 5923 01a6 1A6B     		ldr	r2, [r3, #48]
 5924 01a8 FB68     		ldr	r3, [r7, #12]
 5925 01aa 5B88     		ldrh	r3, [r3, #2]
 5926 01ac 0833     		adds	r3, r3, #8
 5927 01ae 1344     		add	r3, r3, r2
 5928 01b0 1A1D     		adds	r2, r3, #4
 5929 01b2 FB68     		ldr	r3, [r7, #12]
 5930 01b4 1B79     		ldrb	r3, [r3, #4]	@ zero_extendqisi2
 5931 01b6 1046     		mov	r0, r2
 5932 01b8 0021     		movs	r1, #0
 5933 01ba 1A46     		mov	r2, r3
 5934 01bc FFF7FEFF 		bl	memset
1359:.\DisplayUtils.c ****                             //FOR NOW 8 DEFINED INTO THE BUFFER COPY SINCE THIS IS THE MAXIMUM NUMB
1360:.\DisplayUtils.c ****                             memcpy(&((PSINKMESSAGEPTR)pdisplay->_psequesteredmessagesink)->_buffer[
 5935              		.loc 1 1360 0
 5936 01c0 BB68     		ldr	r3, [r7, #8]
 5937 01c2 1A6B     		ldr	r2, [r3, #48]
 5938 01c4 FB68     		ldr	r3, [r7, #12]
 5939 01c6 5B88     		ldrh	r3, [r3, #2]
 5940 01c8 1946     		mov	r1, r3
ARM GAS  C:\Users\Lenovo\AppData\Local\Temp\ccKs44LO.s 			page 130


 5941 01ca BB68     		ldr	r3, [r7, #8]
 5942 01cc 1B7F     		ldrb	r3, [r3, #28]	@ zero_extendqisi2
 5943 01ce C3F10803 		rsb	r3, r3, #8
 5944 01d2 0B44     		add	r3, r3, r1
 5945 01d4 0833     		adds	r3, r3, #8
 5946 01d6 1344     		add	r3, r3, r2
 5947 01d8 191D     		adds	r1, r3, #4
 5948 01da BB68     		ldr	r3, [r7, #8]
 5949 01dc 03F11D02 		add	r2, r3, #29
 5950 01e0 BB68     		ldr	r3, [r7, #8]
 5951 01e2 1B7F     		ldrb	r3, [r3, #28]	@ zero_extendqisi2
 5952 01e4 0846     		mov	r0, r1
 5953 01e6 1146     		mov	r1, r2
 5954 01e8 1A46     		mov	r2, r3
 5955 01ea FFF7FEFF 		bl	memcpy
1361:.\DisplayUtils.c ****                             break;
 5956              		.loc 1 1361 0
 5957 01ee E1E0     		b	.L354
 5958              	.L361:
1362:.\DisplayUtils.c ****                         }
1363:.\DisplayUtils.c ****                         case DISPLAY_INTRODUZCA_VOLUMEN:
1364:.\DisplayUtils.c ****                         {
1365:.\DisplayUtils.c ****                             memset(&((PSINKMESSAGEPTR)pdisplay->_psequesteredmessagesink)->_buffer[
 5959              		.loc 1 1365 0
 5960 01f0 BB68     		ldr	r3, [r7, #8]
 5961 01f2 1A6B     		ldr	r2, [r3, #48]
 5962 01f4 FB68     		ldr	r3, [r7, #12]
 5963 01f6 5B88     		ldrh	r3, [r3, #2]
 5964 01f8 0833     		adds	r3, r3, #8
 5965 01fa 1344     		add	r3, r3, r2
 5966 01fc 1A1D     		adds	r2, r3, #4
 5967 01fe FB68     		ldr	r3, [r7, #12]
 5968 0200 1B79     		ldrb	r3, [r3, #4]	@ zero_extendqisi2
 5969 0202 1046     		mov	r0, r2
 5970 0204 0021     		movs	r1, #0
 5971 0206 1A46     		mov	r2, r3
 5972 0208 FFF7FEFF 		bl	memset
1366:.\DisplayUtils.c ****                             //FOR NOW 8 DEFINED INTO THE BUFFER COPY SINCE THIS IS THE MAXIMUM NUMB
1367:.\DisplayUtils.c ****                             memcpy(&((PSINKMESSAGEPTR)pdisplay->_psequesteredmessagesink)->_buffer[
 5973              		.loc 1 1367 0
 5974 020c BB68     		ldr	r3, [r7, #8]
 5975 020e 1A6B     		ldr	r2, [r3, #48]
 5976 0210 FB68     		ldr	r3, [r7, #12]
 5977 0212 5B88     		ldrh	r3, [r3, #2]
 5978 0214 1946     		mov	r1, r3
 5979 0216 BB68     		ldr	r3, [r7, #8]
 5980 0218 1B7F     		ldrb	r3, [r3, #28]	@ zero_extendqisi2
 5981 021a C3F10803 		rsb	r3, r3, #8
 5982 021e 0B44     		add	r3, r3, r1
 5983 0220 0833     		adds	r3, r3, #8
 5984 0222 1344     		add	r3, r3, r2
 5985 0224 191D     		adds	r1, r3, #4
 5986 0226 BB68     		ldr	r3, [r7, #8]
 5987 0228 03F11D02 		add	r2, r3, #29
 5988 022c BB68     		ldr	r3, [r7, #8]
 5989 022e 1B7F     		ldrb	r3, [r3, #28]	@ zero_extendqisi2
 5990 0230 0846     		mov	r0, r1
ARM GAS  C:\Users\Lenovo\AppData\Local\Temp\ccKs44LO.s 			page 131


 5991 0232 1146     		mov	r1, r2
 5992 0234 1A46     		mov	r2, r3
 5993 0236 FFF7FEFF 		bl	memcpy
1368:.\DisplayUtils.c ****                             break;
 5994              		.loc 1 1368 0
 5995 023a BBE0     		b	.L354
 5996              	.L359:
1369:.\DisplayUtils.c ****                         }
1370:.\DisplayUtils.c ****                         case DISPLAY_DIGITE_PLACA:
1371:.\DisplayUtils.c ****                         {
1372:.\DisplayUtils.c ****                             memset(&((PSINKMESSAGEPTR)pdisplay->_psequesteredmessagesink)->_buffer[
 5997              		.loc 1 1372 0
 5998 023c BB68     		ldr	r3, [r7, #8]
 5999 023e 1A6B     		ldr	r2, [r3, #48]
 6000 0240 FB68     		ldr	r3, [r7, #12]
 6001 0242 5B88     		ldrh	r3, [r3, #2]
 6002 0244 0833     		adds	r3, r3, #8
 6003 0246 1344     		add	r3, r3, r2
 6004 0248 1A1D     		adds	r2, r3, #4
 6005 024a FB68     		ldr	r3, [r7, #12]
 6006 024c 1B79     		ldrb	r3, [r3, #4]	@ zero_extendqisi2
 6007 024e 1046     		mov	r0, r2
 6008 0250 0021     		movs	r1, #0
 6009 0252 1A46     		mov	r2, r3
 6010 0254 FFF7FEFF 		bl	memset
1373:.\DisplayUtils.c ****                             memcpy(&((PSINKMESSAGEPTR)pdisplay->_psequesteredmessagesink)->_buffer[
 6011              		.loc 1 1373 0
 6012 0258 BB68     		ldr	r3, [r7, #8]
 6013 025a 1A6B     		ldr	r2, [r3, #48]
 6014 025c FB68     		ldr	r3, [r7, #12]
 6015 025e 5B88     		ldrh	r3, [r3, #2]
 6016 0260 0833     		adds	r3, r3, #8
 6017 0262 1344     		add	r3, r3, r2
 6018 0264 191D     		adds	r1, r3, #4
 6019 0266 BB68     		ldr	r3, [r7, #8]
 6020 0268 03F11D02 		add	r2, r3, #29
 6021 026c BB68     		ldr	r3, [r7, #8]
 6022 026e 1B7F     		ldrb	r3, [r3, #28]	@ zero_extendqisi2
 6023 0270 0846     		mov	r0, r1
 6024 0272 1146     		mov	r1, r2
 6025 0274 1A46     		mov	r2, r3
 6026 0276 FFF7FEFF 		bl	memcpy
1374:.\DisplayUtils.c ****                             break;
 6027              		.loc 1 1374 0
 6028 027a 9BE0     		b	.L354
 6029              	.L360:
1375:.\DisplayUtils.c ****                         }
1376:.\DisplayUtils.c ****                         case DISPLAY_DESEA_IMPRIMIR_RECIBO:
1377:.\DisplayUtils.c ****                         {
1378:.\DisplayUtils.c ****                             memset(&((PSINKMESSAGEPTR)pdisplay->_psequesteredmessagesink)->_buffer[
 6030              		.loc 1 1378 0
 6031 027c BB68     		ldr	r3, [r7, #8]
 6032 027e 1A6B     		ldr	r2, [r3, #48]
 6033 0280 FB68     		ldr	r3, [r7, #12]
 6034 0282 5B88     		ldrh	r3, [r3, #2]
 6035 0284 0833     		adds	r3, r3, #8
 6036 0286 1344     		add	r3, r3, r2
ARM GAS  C:\Users\Lenovo\AppData\Local\Temp\ccKs44LO.s 			page 132


 6037 0288 1A1D     		adds	r2, r3, #4
 6038 028a FB68     		ldr	r3, [r7, #12]
 6039 028c 1B79     		ldrb	r3, [r3, #4]	@ zero_extendqisi2
 6040 028e 1046     		mov	r0, r2
 6041 0290 0021     		movs	r1, #0
 6042 0292 1A46     		mov	r2, r3
 6043 0294 FFF7FEFF 		bl	memset
1379:.\DisplayUtils.c ****                             ((PSINKMESSAGEPTR)pdisplay->_psequesteredmessagesink)->_buffer[ptr->_bu
 6044              		.loc 1 1379 0
 6045 0298 BB68     		ldr	r3, [r7, #8]
 6046 029a 1B6B     		ldr	r3, [r3, #48]
 6047 029c FA68     		ldr	r2, [r7, #12]
 6048 029e 5288     		ldrh	r2, [r2, #2]
 6049 02a0 1146     		mov	r1, r2
 6050 02a2 BA68     		ldr	r2, [r7, #8]
 6051 02a4 D278     		ldrb	r2, [r2, #3]	@ zero_extendqisi2
 6052 02a6 0B44     		add	r3, r3, r1
 6053 02a8 1A73     		strb	r2, [r3, #12]
1380:.\DisplayUtils.c ****                             break;
 6054              		.loc 1 1380 0
 6055 02aa 83E0     		b	.L354
 6056              	.L362:
1381:.\DisplayUtils.c ****                         }
1382:.\DisplayUtils.c ****                         case DISPLAY_INTRODUZCA_KILOMETRAJE:
1383:.\DisplayUtils.c ****                         {
1384:.\DisplayUtils.c ****                             memset(&((PSINKMESSAGEPTR)pdisplay->_psequesteredmessagesink)->_buffer[
 6057              		.loc 1 1384 0
 6058 02ac BB68     		ldr	r3, [r7, #8]
 6059 02ae 1A6B     		ldr	r2, [r3, #48]
 6060 02b0 FB68     		ldr	r3, [r7, #12]
 6061 02b2 5B88     		ldrh	r3, [r3, #2]
 6062 02b4 0833     		adds	r3, r3, #8
 6063 02b6 1344     		add	r3, r3, r2
 6064 02b8 1A1D     		adds	r2, r3, #4
 6065 02ba FB68     		ldr	r3, [r7, #12]
 6066 02bc 1B79     		ldrb	r3, [r3, #4]	@ zero_extendqisi2
 6067 02be 1046     		mov	r0, r2
 6068 02c0 0021     		movs	r1, #0
 6069 02c2 1A46     		mov	r2, r3
 6070 02c4 FFF7FEFF 		bl	memset
1385:.\DisplayUtils.c ****                             memcpy(&((PSINKMESSAGEPTR)pdisplay->_psequesteredmessagesink)->_buffer[
 6071              		.loc 1 1385 0
 6072 02c8 BB68     		ldr	r3, [r7, #8]
 6073 02ca 1A6B     		ldr	r2, [r3, #48]
 6074 02cc FB68     		ldr	r3, [r7, #12]
 6075 02ce 5B88     		ldrh	r3, [r3, #2]
 6076 02d0 0833     		adds	r3, r3, #8
 6077 02d2 1344     		add	r3, r3, r2
 6078 02d4 191D     		adds	r1, r3, #4
 6079 02d6 BB68     		ldr	r3, [r7, #8]
 6080 02d8 03F11D02 		add	r2, r3, #29
 6081 02dc BB68     		ldr	r3, [r7, #8]
 6082 02de 1B7F     		ldrb	r3, [r3, #28]	@ zero_extendqisi2
 6083 02e0 0846     		mov	r0, r1
 6084 02e2 1146     		mov	r1, r2
 6085 02e4 1A46     		mov	r2, r3
 6086 02e6 FFF7FEFF 		bl	memcpy
ARM GAS  C:\Users\Lenovo\AppData\Local\Temp\ccKs44LO.s 			page 133


1386:.\DisplayUtils.c ****                             break;
 6087              		.loc 1 1386 0
 6088 02ea 63E0     		b	.L354
 6089              	.L371:
 6090              		.align	2
 6091              	.L370:
 6092 02ec 00000000 		.word	_g_buffscrlut
 6093 02f0 00000000 		.word	_g_dispenserlayoutinfo
 6094              	.L364:
1387:.\DisplayUtils.c ****                         }
1388:.\DisplayUtils.c ****                         case DISPLAY_INTRODUZCA_CEDULA:
1389:.\DisplayUtils.c ****                         {
1390:.\DisplayUtils.c ****                             memset(&((PSINKMESSAGEPTR)pdisplay->_psequesteredmessagesink)->_buffer[
 6095              		.loc 1 1390 0
 6096 02f4 BB68     		ldr	r3, [r7, #8]
 6097 02f6 1A6B     		ldr	r2, [r3, #48]
 6098 02f8 FB68     		ldr	r3, [r7, #12]
 6099 02fa 5B88     		ldrh	r3, [r3, #2]
 6100 02fc 0833     		adds	r3, r3, #8
 6101 02fe 1344     		add	r3, r3, r2
 6102 0300 1A1D     		adds	r2, r3, #4
 6103 0302 FB68     		ldr	r3, [r7, #12]
 6104 0304 1B79     		ldrb	r3, [r3, #4]	@ zero_extendqisi2
 6105 0306 1046     		mov	r0, r2
 6106 0308 0021     		movs	r1, #0
 6107 030a 1A46     		mov	r2, r3
 6108 030c FFF7FEFF 		bl	memset
1391:.\DisplayUtils.c ****                             memcpy(&((PSINKMESSAGEPTR)pdisplay->_psequesteredmessagesink)->_buffer[
 6109              		.loc 1 1391 0
 6110 0310 BB68     		ldr	r3, [r7, #8]
 6111 0312 1A6B     		ldr	r2, [r3, #48]
 6112 0314 FB68     		ldr	r3, [r7, #12]
 6113 0316 5B88     		ldrh	r3, [r3, #2]
 6114 0318 0833     		adds	r3, r3, #8
 6115 031a 1344     		add	r3, r3, r2
 6116 031c 191D     		adds	r1, r3, #4
 6117 031e BB68     		ldr	r3, [r7, #8]
 6118 0320 03F11D02 		add	r2, r3, #29
 6119 0324 BB68     		ldr	r3, [r7, #8]
 6120 0326 1B7F     		ldrb	r3, [r3, #28]	@ zero_extendqisi2
 6121 0328 0846     		mov	r0, r1
 6122 032a 1146     		mov	r1, r2
 6123 032c 1A46     		mov	r2, r3
 6124 032e FFF7FEFF 		bl	memcpy
1392:.\DisplayUtils.c ****                             break;
 6125              		.loc 1 1392 0
 6126 0332 3FE0     		b	.L354
 6127              	.L365:
1393:.\DisplayUtils.c ****                         }
1394:.\DisplayUtils.c ****                         case DISPLAY_INGRESE_PASSWORD:
1395:.\DisplayUtils.c ****                         {
1396:.\DisplayUtils.c ****                             memset(&((PSINKMESSAGEPTR)pdisplay->_psequesteredmessagesink)->_buffer[
 6128              		.loc 1 1396 0
 6129 0334 BB68     		ldr	r3, [r7, #8]
 6130 0336 1A6B     		ldr	r2, [r3, #48]
 6131 0338 FB68     		ldr	r3, [r7, #12]
 6132 033a 5B88     		ldrh	r3, [r3, #2]
ARM GAS  C:\Users\Lenovo\AppData\Local\Temp\ccKs44LO.s 			page 134


 6133 033c 0833     		adds	r3, r3, #8
 6134 033e 1344     		add	r3, r3, r2
 6135 0340 1A1D     		adds	r2, r3, #4
 6136 0342 FB68     		ldr	r3, [r7, #12]
 6137 0344 1B79     		ldrb	r3, [r3, #4]	@ zero_extendqisi2
 6138 0346 1046     		mov	r0, r2
 6139 0348 0021     		movs	r1, #0
 6140 034a 1A46     		mov	r2, r3
 6141 034c FFF7FEFF 		bl	memset
1397:.\DisplayUtils.c ****                             memcpy(&((PSINKMESSAGEPTR)pdisplay->_psequesteredmessagesink)->_buffer[
 6142              		.loc 1 1397 0
 6143 0350 BB68     		ldr	r3, [r7, #8]
 6144 0352 1A6B     		ldr	r2, [r3, #48]
 6145 0354 FB68     		ldr	r3, [r7, #12]
 6146 0356 5B88     		ldrh	r3, [r3, #2]
 6147 0358 0833     		adds	r3, r3, #8
 6148 035a 1344     		add	r3, r3, r2
 6149 035c 191D     		adds	r1, r3, #4
 6150 035e BB68     		ldr	r3, [r7, #8]
 6151 0360 03F11D02 		add	r2, r3, #29
 6152 0364 BB68     		ldr	r3, [r7, #8]
 6153 0366 1B7F     		ldrb	r3, [r3, #28]	@ zero_extendqisi2
 6154 0368 0846     		mov	r0, r1
 6155 036a 1146     		mov	r1, r2
 6156 036c 1A46     		mov	r2, r3
 6157 036e FFF7FEFF 		bl	memcpy
1398:.\DisplayUtils.c ****                             break;
 6158              		.loc 1 1398 0
 6159 0372 1FE0     		b	.L354
 6160              	.L363:
1399:.\DisplayUtils.c ****                         }
1400:.\DisplayUtils.c ****                         case DISPLAY_ESPERANDO_ID:
1401:.\DisplayUtils.c ****                         {
1402:.\DisplayUtils.c ****                             memset(&((PSINKMESSAGEPTR)pdisplay->_psequesteredmessagesink)->_buffer[
 6161              		.loc 1 1402 0
 6162 0374 BB68     		ldr	r3, [r7, #8]
 6163 0376 1A6B     		ldr	r2, [r3, #48]
 6164 0378 FB68     		ldr	r3, [r7, #12]
 6165 037a 5B88     		ldrh	r3, [r3, #2]
 6166 037c 0833     		adds	r3, r3, #8
 6167 037e 1344     		add	r3, r3, r2
 6168 0380 1A1D     		adds	r2, r3, #4
 6169 0382 FB68     		ldr	r3, [r7, #12]
 6170 0384 1B79     		ldrb	r3, [r3, #4]	@ zero_extendqisi2
 6171 0386 1046     		mov	r0, r2
 6172 0388 0021     		movs	r1, #0
 6173 038a 1A46     		mov	r2, r3
 6174 038c FFF7FEFF 		bl	memset
1403:.\DisplayUtils.c ****                             memcpy(&((PSINKMESSAGEPTR)pdisplay->_psequesteredmessagesink)->_buffer[
 6175              		.loc 1 1403 0
 6176 0390 BB68     		ldr	r3, [r7, #8]
 6177 0392 1A6B     		ldr	r2, [r3, #48]
 6178 0394 FB68     		ldr	r3, [r7, #12]
 6179 0396 5B88     		ldrh	r3, [r3, #2]
 6180 0398 0833     		adds	r3, r3, #8
 6181 039a 1344     		add	r3, r3, r2
 6182 039c 191D     		adds	r1, r3, #4
ARM GAS  C:\Users\Lenovo\AppData\Local\Temp\ccKs44LO.s 			page 135


 6183 039e BB68     		ldr	r3, [r7, #8]
 6184 03a0 03F11D02 		add	r2, r3, #29
 6185 03a4 BB68     		ldr	r3, [r7, #8]
 6186 03a6 1B7F     		ldrb	r3, [r3, #28]	@ zero_extendqisi2
 6187 03a8 0846     		mov	r0, r1
 6188 03aa 1146     		mov	r1, r2
 6189 03ac 1A46     		mov	r2, r3
 6190 03ae FFF7FEFF 		bl	memcpy
1404:.\DisplayUtils.c ****                             break;
 6191              		.loc 1 1404 0
 6192 03b2 00BF     		nop
 6193              	.L354:
1405:.\DisplayUtils.c ****                         }
1406:.\DisplayUtils.c ****                     }
1407:.\DisplayUtils.c ****                     break;
 6194              		.loc 1 1407 0 discriminator 1
 6195 03b4 08E0     		b	.L369
 6196              	.L353:
1408:.\DisplayUtils.c ****                 }
1409:.\DisplayUtils.c ****                 ptr++;
 6197              		.loc 1 1409 0
 6198 03b6 FB68     		ldr	r3, [r7, #12]
 6199 03b8 0633     		adds	r3, r3, #6
 6200 03ba FB60     		str	r3, [r7, #12]
 6201              	.L352:
1328:.\DisplayUtils.c ****             {
 6202              		.loc 1 1328 0
 6203 03bc FB68     		ldr	r3, [r7, #12]
 6204 03be 1B78     		ldrb	r3, [r3]	@ zero_extendqisi2
 6205 03c0 002B     		cmp	r3, #0
 6206 03c2 7FF42FAE 		bne	.L368
 6207 03c6 00E0     		b	.L350
 6208              	.L369:
1407:.\DisplayUtils.c ****                 }
 6209              		.loc 1 1407 0
 6210 03c8 00BF     		nop
 6211              	.L350:
 6212              	.LBE37:
1410:.\DisplayUtils.c ****             }
1411:.\DisplayUtils.c ****         }
1412:.\DisplayUtils.c **** 
1413:.\DisplayUtils.c **** }
 6213              		.loc 1 1413 0
 6214 03ca 1437     		adds	r7, r7, #20
 6215              		.cfi_def_cfa_offset 12
 6216 03cc BD46     		mov	sp, r7
 6217              		.cfi_def_cfa_register 13
 6218              		@ sp needed
 6219 03ce 90BD     		pop	{r4, r7, pc}
 6220              		.cfi_endproc
 6221              	.LFE95:
 6222              		.size	StoreTransactionData, .-StoreTransactionData
 6223              		.text
 6224              	.Letext0:
 6225              		.file 2 "c:\\program files (x86)\\cypress\\psoc creator\\3.3\\psoc creator\\import\\gnu\\arm\\4.9.
 6226              		.file 3 "c:\\program files (x86)\\cypress\\psoc creator\\3.3\\psoc creator\\import\\gnu\\arm\\4.9.
 6227              		.file 4 "Generated_Source\\PSoC5/cytypes.h"
ARM GAS  C:\Users\Lenovo\AppData\Local\Temp\ccKs44LO.s 			page 136


 6228              		.file 5 ".\\GlobalDefinitions.h"
 6229              		.file 6 ".\\Prime.h"
 6230              		.file 7 ".\\UARTManager.h"
 6231              		.file 8 ".\\SinkManager.h"
 6232              		.file 9 ".\\SinkObservables.h"
 6233              		.file 10 ".\\Printer.h"
 6234              		.file 11 ".\\Display.h"
 6235              		.file 12 ".\\Eeprom.h"
 6236              		.file 13 "Generated_Source\\PSoC5/core_cm3.h"
 6237              		.section	.debug_info,"",%progbits
 6238              	.Ldebug_info0:
 6239 0000 BC200000 		.4byte	0x20bc
 6240 0004 0400     		.2byte	0x4
 6241 0006 00000000 		.4byte	.Ldebug_abbrev0
 6242 000a 04       		.byte	0x4
 6243 000b 01       		.uleb128 0x1
 6244 000c 791E0000 		.4byte	.LASF486
 6245 0010 01       		.byte	0x1
 6246 0011 120F0000 		.4byte	.LASF487
 6247 0015 06110000 		.4byte	.LASF488
 6248 0019 00000000 		.4byte	.Ldebug_ranges0+0
 6249 001d 00000000 		.4byte	0
 6250 0021 00000000 		.4byte	.Ldebug_line0
 6251 0025 02       		.uleb128 0x2
 6252 0026 01       		.byte	0x1
 6253 0027 06       		.byte	0x6
 6254 0028 1B080000 		.4byte	.LASF0
 6255 002c 02       		.uleb128 0x2
 6256 002d 01       		.byte	0x1
 6257 002e 08       		.byte	0x8
 6258 002f 67090000 		.4byte	.LASF1
 6259 0033 02       		.uleb128 0x2
 6260 0034 02       		.byte	0x2
 6261 0035 05       		.byte	0x5
 6262 0036 6A1D0000 		.4byte	.LASF2
 6263 003a 02       		.uleb128 0x2
 6264 003b 02       		.byte	0x2
 6265 003c 07       		.byte	0x7
 6266 003d 1F210000 		.4byte	.LASF3
 6267 0041 03       		.uleb128 0x3
 6268 0042 A1210000 		.4byte	.LASF9
 6269 0046 02       		.byte	0x2
 6270 0047 3F       		.byte	0x3f
 6271 0048 4C000000 		.4byte	0x4c
 6272 004c 02       		.uleb128 0x2
 6273 004d 04       		.byte	0x4
 6274 004e 05       		.byte	0x5
 6275 004f 00060000 		.4byte	.LASF4
 6276 0053 02       		.uleb128 0x2
 6277 0054 04       		.byte	0x4
 6278 0055 07       		.byte	0x7
 6279 0056 97100000 		.4byte	.LASF5
 6280 005a 02       		.uleb128 0x2
 6281 005b 08       		.byte	0x8
 6282 005c 05       		.byte	0x5
 6283 005d F4120000 		.4byte	.LASF6
 6284 0061 02       		.uleb128 0x2
ARM GAS  C:\Users\Lenovo\AppData\Local\Temp\ccKs44LO.s 			page 137


 6285 0062 08       		.byte	0x8
 6286 0063 07       		.byte	0x7
 6287 0064 311A0000 		.4byte	.LASF7
 6288 0068 04       		.uleb128 0x4
 6289 0069 04       		.byte	0x4
 6290 006a 05       		.byte	0x5
 6291 006b 696E7400 		.ascii	"int\000"
 6292 006f 02       		.uleb128 0x2
 6293 0070 04       		.byte	0x4
 6294 0071 07       		.byte	0x7
 6295 0072 AF150000 		.4byte	.LASF8
 6296 0076 03       		.uleb128 0x3
 6297 0077 03020000 		.4byte	.LASF10
 6298 007b 03       		.byte	0x3
 6299 007c 2C       		.byte	0x2c
 6300 007d 41000000 		.4byte	0x41
 6301 0081 05       		.uleb128 0x5
 6302 0082 E71C0000 		.4byte	.LASF11
 6303 0086 04       		.byte	0x4
 6304 0087 3801     		.2byte	0x138
 6305 0089 2C000000 		.4byte	0x2c
 6306 008d 05       		.uleb128 0x5
 6307 008e A4220000 		.4byte	.LASF12
 6308 0092 04       		.byte	0x4
 6309 0093 3901     		.2byte	0x139
 6310 0095 3A000000 		.4byte	0x3a
 6311 0099 05       		.uleb128 0x5
 6312 009a 6C020000 		.4byte	.LASF13
 6313 009e 04       		.byte	0x4
 6314 009f 3A01     		.2byte	0x13a
 6315 00a1 53000000 		.4byte	0x53
 6316 00a5 05       		.uleb128 0x5
 6317 00a6 84040000 		.4byte	.LASF14
 6318 00aa 04       		.byte	0x4
 6319 00ab 3B01     		.2byte	0x13b
 6320 00ad 25000000 		.4byte	0x25
 6321 00b1 02       		.uleb128 0x2
 6322 00b2 04       		.byte	0x4
 6323 00b3 04       		.byte	0x4
 6324 00b4 21150000 		.4byte	.LASF15
 6325 00b8 02       		.uleb128 0x2
 6326 00b9 08       		.byte	0x8
 6327 00ba 04       		.byte	0x4
 6328 00bb 18140000 		.4byte	.LASF16
 6329 00bf 05       		.uleb128 0x5
 6330 00c0 F9050000 		.4byte	.LASF17
 6331 00c4 04       		.byte	0x4
 6332 00c5 4401     		.2byte	0x144
 6333 00c7 61000000 		.4byte	0x61
 6334 00cb 05       		.uleb128 0x5
 6335 00cc 86030000 		.4byte	.LASF18
 6336 00d0 04       		.byte	0x4
 6337 00d1 4901     		.2byte	0x149
 6338 00d3 D7000000 		.4byte	0xd7
 6339 00d7 02       		.uleb128 0x2
 6340 00d8 01       		.byte	0x1
 6341 00d9 08       		.byte	0x8
ARM GAS  C:\Users\Lenovo\AppData\Local\Temp\ccKs44LO.s 			page 138


 6342 00da 000B0000 		.4byte	.LASF19
 6343 00de 06       		.uleb128 0x6
 6344 00df 81000000 		.4byte	0x81
 6345 00e3 06       		.uleb128 0x6
 6346 00e4 8D000000 		.4byte	0x8d
 6347 00e8 06       		.uleb128 0x6
 6348 00e9 99000000 		.4byte	0x99
 6349 00ed 07       		.uleb128 0x7
 6350 00ee 04       		.byte	0x4
 6351 00ef F3000000 		.4byte	0xf3
 6352 00f3 08       		.uleb128 0x8
 6353 00f4 02       		.uleb128 0x2
 6354 00f5 04       		.byte	0x4
 6355 00f6 07       		.byte	0x7
 6356 00f7 92000000 		.4byte	.LASF20
 6357 00fb 09       		.uleb128 0x9
 6358 00fc 04       		.byte	0x4
 6359 00fd 07       		.uleb128 0x7
 6360 00fe 04       		.byte	0x4
 6361 00ff D7000000 		.4byte	0xd7
 6362 0103 02       		.uleb128 0x2
 6363 0104 08       		.byte	0x8
 6364 0105 04       		.byte	0x4
 6365 0106 50180000 		.4byte	.LASF21
 6366 010a 07       		.uleb128 0x7
 6367 010b 04       		.byte	0x4
 6368 010c CB000000 		.4byte	0xcb
 6369 0110 03       		.uleb128 0x3
 6370 0111 27080000 		.4byte	.LASF22
 6371 0115 05       		.byte	0x5
 6372 0116 50       		.byte	0x50
 6373 0117 1B010000 		.4byte	0x11b
 6374 011b 07       		.uleb128 0x7
 6375 011c 04       		.byte	0x4
 6376 011d 81000000 		.4byte	0x81
 6377 0121 0A       		.uleb128 0xa
 6378 0122 93210000 		.4byte	.LASF136
 6379 0126 01       		.byte	0x1
 6380 0127 06       		.byte	0x6
 6381 0128 96       		.byte	0x96
 6382 0129 6B010000 		.4byte	0x16b
 6383 012d 0B       		.uleb128 0xb
 6384 012e 8B180000 		.4byte	.LASF23
 6385 0132 00       		.sleb128 0
 6386 0133 0B       		.uleb128 0xb
 6387 0134 7A1F0000 		.4byte	.LASF24
 6388 0138 06       		.sleb128 6
 6389 0139 0B       		.uleb128 0xb
 6390 013a 14150000 		.4byte	.LASF25
 6391 013e 07       		.sleb128 7
 6392 013f 0B       		.uleb128 0xb
 6393 0140 2A020000 		.4byte	.LASF26
 6394 0144 08       		.sleb128 8
 6395 0145 0B       		.uleb128 0xb
 6396 0146 41230000 		.4byte	.LASF27
 6397 014a 09       		.sleb128 9
 6398 014b 0B       		.uleb128 0xb
ARM GAS  C:\Users\Lenovo\AppData\Local\Temp\ccKs44LO.s 			page 139


 6399 014c B41A0000 		.4byte	.LASF28
 6400 0150 0A       		.sleb128 10
 6401 0151 0B       		.uleb128 0xb
 6402 0152 FC180000 		.4byte	.LASF29
 6403 0156 0B       		.sleb128 11
 6404 0157 0B       		.uleb128 0xb
 6405 0158 2B220000 		.4byte	.LASF30
 6406 015c 0C       		.sleb128 12
 6407 015d 0B       		.uleb128 0xb
 6408 015e F81B0000 		.4byte	.LASF31
 6409 0162 0D       		.sleb128 13
 6410 0163 0B       		.uleb128 0xb
 6411 0164 CC020000 		.4byte	.LASF32
 6412 0168 FF01     		.sleb128 255
 6413 016a 00       		.byte	0
 6414 016b 0C       		.uleb128 0xc
 6415 016c 0401     		.2byte	0x104
 6416 016e 06       		.byte	0x6
 6417 016f 1A01     		.2byte	0x11a
 6418 0171 AB010000 		.4byte	0x1ab
 6419 0175 0D       		.uleb128 0xd
 6420 0176 73020000 		.4byte	.LASF33
 6421 017a 06       		.byte	0x6
 6422 017b 1C01     		.2byte	0x11c
 6423 017d 81000000 		.4byte	0x81
 6424 0181 00       		.byte	0
 6425 0182 0D       		.uleb128 0xd
 6426 0183 80180000 		.4byte	.LASF34
 6427 0187 06       		.byte	0x6
 6428 0188 1D01     		.2byte	0x11d
 6429 018a 81000000 		.4byte	0x81
 6430 018e 01       		.byte	0x1
 6431 018f 0D       		.uleb128 0xd
 6432 0190 8E050000 		.4byte	.LASF35
 6433 0194 06       		.byte	0x6
 6434 0195 1E01     		.2byte	0x11e
 6435 0197 AB010000 		.4byte	0x1ab
 6436 019b 02       		.byte	0x2
 6437 019c 0E       		.uleb128 0xe
 6438 019d 0C230000 		.4byte	.LASF36
 6439 01a1 06       		.byte	0x6
 6440 01a2 1F01     		.2byte	0x11f
 6441 01a4 8D000000 		.4byte	0x8d
 6442 01a8 0201     		.2byte	0x102
 6443 01aa 00       		.byte	0
 6444 01ab 0F       		.uleb128 0xf
 6445 01ac D7000000 		.4byte	0xd7
 6446 01b0 BB010000 		.4byte	0x1bb
 6447 01b4 10       		.uleb128 0x10
 6448 01b5 F4000000 		.4byte	0xf4
 6449 01b9 FF       		.byte	0xff
 6450 01ba 00       		.byte	0
 6451 01bb 05       		.uleb128 0x5
 6452 01bc EC210000 		.4byte	.LASF37
 6453 01c0 06       		.byte	0x6
 6454 01c1 2101     		.2byte	0x121
 6455 01c3 6B010000 		.4byte	0x16b
ARM GAS  C:\Users\Lenovo\AppData\Local\Temp\ccKs44LO.s 			page 140


 6456 01c7 05       		.uleb128 0x5
 6457 01c8 4E0E0000 		.4byte	.LASF38
 6458 01cc 06       		.byte	0x6
 6459 01cd 2101     		.2byte	0x121
 6460 01cf D3010000 		.4byte	0x1d3
 6461 01d3 07       		.uleb128 0x7
 6462 01d4 04       		.byte	0x4
 6463 01d5 6B010000 		.4byte	0x16b
 6464 01d9 11       		.uleb128 0x11
 6465 01da 40       		.byte	0x40
 6466 01db 06       		.byte	0x6
 6467 01dc 2301     		.2byte	0x123
 6468 01de 7F020000 		.4byte	0x27f
 6469 01e2 0D       		.uleb128 0xd
 6470 01e3 071C0000 		.4byte	.LASF39
 6471 01e7 06       		.byte	0x6
 6472 01e8 2501     		.2byte	0x125
 6473 01ea DE000000 		.4byte	0xde
 6474 01ee 00       		.byte	0
 6475 01ef 0D       		.uleb128 0xd
 6476 01f0 0D1C0000 		.4byte	.LASF40
 6477 01f4 06       		.byte	0x6
 6478 01f5 2601     		.2byte	0x126
 6479 01f7 DE000000 		.4byte	0xde
 6480 01fb 01       		.byte	0x1
 6481 01fc 0D       		.uleb128 0xd
 6482 01fd 131C0000 		.4byte	.LASF41
 6483 0201 06       		.byte	0x6
 6484 0202 2801     		.2byte	0x128
 6485 0204 E3000000 		.4byte	0xe3
 6486 0208 02       		.byte	0x2
 6487 0209 0D       		.uleb128 0xd
 6488 020a 191C0000 		.4byte	.LASF42
 6489 020e 06       		.byte	0x6
 6490 020f 2901     		.2byte	0x129
 6491 0211 E3000000 		.4byte	0xe3
 6492 0215 04       		.byte	0x4
 6493 0216 0D       		.uleb128 0xd
 6494 0217 1F1C0000 		.4byte	.LASF43
 6495 021b 06       		.byte	0x6
 6496 021c 2B01     		.2byte	0x12b
 6497 021e E8000000 		.4byte	0xe8
 6498 0222 08       		.byte	0x8
 6499 0223 0D       		.uleb128 0xd
 6500 0224 251C0000 		.4byte	.LASF44
 6501 0228 06       		.byte	0x6
 6502 0229 2C01     		.2byte	0x12c
 6503 022b E8000000 		.4byte	0xe8
 6504 022f 0C       		.byte	0xc
 6505 0230 0D       		.uleb128 0xd
 6506 0231 2B1C0000 		.4byte	.LASF45
 6507 0235 06       		.byte	0x6
 6508 0236 3101     		.2byte	0x131
 6509 0238 7F020000 		.4byte	0x27f
 6510 023c 10       		.byte	0x10
 6511 023d 0D       		.uleb128 0xd
 6512 023e 311C0000 		.4byte	.LASF46
ARM GAS  C:\Users\Lenovo\AppData\Local\Temp\ccKs44LO.s 			page 141


 6513 0242 06       		.byte	0x6
 6514 0243 3201     		.2byte	0x132
 6515 0245 7F020000 		.4byte	0x27f
 6516 0249 18       		.byte	0x18
 6517 024a 0D       		.uleb128 0xd
 6518 024b 371C0000 		.4byte	.LASF47
 6519 024f 06       		.byte	0x6
 6520 0250 3301     		.2byte	0x133
 6521 0252 7F020000 		.4byte	0x27f
 6522 0256 20       		.byte	0x20
 6523 0257 0D       		.uleb128 0xd
 6524 0258 3D1C0000 		.4byte	.LASF48
 6525 025c 06       		.byte	0x6
 6526 025d 3401     		.2byte	0x134
 6527 025f 7F020000 		.4byte	0x27f
 6528 0263 28       		.byte	0x28
 6529 0264 0D       		.uleb128 0xd
 6530 0265 481C0000 		.4byte	.LASF49
 6531 0269 06       		.byte	0x6
 6532 026a 3601     		.2byte	0x136
 6533 026c 84020000 		.4byte	0x284
 6534 0270 30       		.byte	0x30
 6535 0271 0D       		.uleb128 0xd
 6536 0272 4E1C0000 		.4byte	.LASF50
 6537 0276 06       		.byte	0x6
 6538 0277 3701     		.2byte	0x137
 6539 0279 84020000 		.4byte	0x284
 6540 027d 38       		.byte	0x38
 6541 027e 00       		.byte	0
 6542 027f 06       		.uleb128 0x6
 6543 0280 BF000000 		.4byte	0xbf
 6544 0284 06       		.uleb128 0x6
 6545 0285 B8000000 		.4byte	0xb8
 6546 0289 05       		.uleb128 0x5
 6547 028a 64150000 		.4byte	.LASF51
 6548 028e 06       		.byte	0x6
 6549 028f 3901     		.2byte	0x139
 6550 0291 D9010000 		.4byte	0x1d9
 6551 0295 11       		.uleb128 0x11
 6552 0296 18       		.byte	0x18
 6553 0297 06       		.byte	0x6
 6554 0298 4101     		.2byte	0x141
 6555 029a FA020000 		.4byte	0x2fa
 6556 029e 0D       		.uleb128 0xd
 6557 029f 44180000 		.4byte	.LASF52
 6558 02a3 06       		.byte	0x6
 6559 02a4 4401     		.2byte	0x144
 6560 02a6 FA020000 		.4byte	0x2fa
 6561 02aa 00       		.byte	0
 6562 02ab 0D       		.uleb128 0xd
 6563 02ac 6C200000 		.4byte	.LASF53
 6564 02b0 06       		.byte	0x6
 6565 02b1 4501     		.2byte	0x145
 6566 02b3 DE000000 		.4byte	0xde
 6567 02b7 01       		.byte	0x1
 6568 02b8 0D       		.uleb128 0xd
 6569 02b9 27200000 		.4byte	.LASF54
ARM GAS  C:\Users\Lenovo\AppData\Local\Temp\ccKs44LO.s 			page 142


 6570 02bd 06       		.byte	0x6
 6571 02be 4601     		.2byte	0x146
 6572 02c0 DE000000 		.4byte	0xde
 6573 02c4 02       		.byte	0x2
 6574 02c5 0D       		.uleb128 0xd
 6575 02c6 A8150000 		.4byte	.LASF55
 6576 02ca 06       		.byte	0x6
 6577 02cb 4701     		.2byte	0x147
 6578 02cd E3000000 		.4byte	0xe3
 6579 02d1 04       		.byte	0x4
 6580 02d2 0D       		.uleb128 0xd
 6581 02d3 4E1B0000 		.4byte	.LASF56
 6582 02d7 06       		.byte	0x6
 6583 02d8 4801     		.2byte	0x148
 6584 02da E8000000 		.4byte	0xe8
 6585 02de 08       		.byte	0x8
 6586 02df 0D       		.uleb128 0xd
 6587 02e0 800A0000 		.4byte	.LASF57
 6588 02e4 06       		.byte	0x6
 6589 02e5 4901     		.2byte	0x149
 6590 02e7 E8000000 		.4byte	0xe8
 6591 02eb 0C       		.byte	0xc
 6592 02ec 0D       		.uleb128 0xd
 6593 02ed B3090000 		.4byte	.LASF58
 6594 02f1 06       		.byte	0x6
 6595 02f2 4A01     		.2byte	0x14a
 6596 02f4 06030000 		.4byte	0x306
 6597 02f8 10       		.byte	0x10
 6598 02f9 00       		.byte	0
 6599 02fa 06       		.uleb128 0x6
 6600 02fb FF020000 		.4byte	0x2ff
 6601 02ff 02       		.uleb128 0x2
 6602 0300 01       		.byte	0x1
 6603 0301 02       		.byte	0x2
 6604 0302 5D0A0000 		.4byte	.LASF59
 6605 0306 0F       		.uleb128 0xf
 6606 0307 CB000000 		.4byte	0xcb
 6607 030b 16030000 		.4byte	0x316
 6608 030f 10       		.uleb128 0x10
 6609 0310 F4000000 		.4byte	0xf4
 6610 0314 07       		.byte	0x7
 6611 0315 00       		.byte	0
 6612 0316 05       		.uleb128 0x5
 6613 0317 780F0000 		.4byte	.LASF60
 6614 031b 06       		.byte	0x6
 6615 031c 4C01     		.2byte	0x14c
 6616 031e 95020000 		.4byte	0x295
 6617 0322 12       		.uleb128 0x12
 6618 0323 52220000 		.4byte	.LASF114
 6619 0327 980B     		.2byte	0xb98
 6620 0329 06       		.byte	0x6
 6621 032a 4F01     		.2byte	0x14f
 6622 032c 21050000 		.4byte	0x521
 6623 0330 0D       		.uleb128 0xd
 6624 0331 22020000 		.4byte	.LASF61
 6625 0335 06       		.byte	0x6
 6626 0336 5101     		.2byte	0x151
ARM GAS  C:\Users\Lenovo\AppData\Local\Temp\ccKs44LO.s 			page 143


 6627 0338 81000000 		.4byte	0x81
 6628 033c 00       		.byte	0
 6629 033d 0D       		.uleb128 0xd
 6630 033e 9C1C0000 		.4byte	.LASF62
 6631 0342 06       		.byte	0x6
 6632 0343 5201     		.2byte	0x152
 6633 0345 81000000 		.4byte	0x81
 6634 0349 01       		.byte	0x1
 6635 034a 0D       		.uleb128 0xd
 6636 034b 25060000 		.4byte	.LASF63
 6637 034f 06       		.byte	0x6
 6638 0350 5401     		.2byte	0x154
 6639 0352 DE000000 		.4byte	0xde
 6640 0356 02       		.byte	0x2
 6641 0357 0D       		.uleb128 0xd
 6642 0358 981F0000 		.4byte	.LASF64
 6643 035c 06       		.byte	0x6
 6644 035d 5501     		.2byte	0x155
 6645 035f DE000000 		.4byte	0xde
 6646 0363 03       		.byte	0x3
 6647 0364 0D       		.uleb128 0xd
 6648 0365 31190000 		.4byte	.LASF65
 6649 0369 06       		.byte	0x6
 6650 036a 5601     		.2byte	0x156
 6651 036c DE000000 		.4byte	0xde
 6652 0370 04       		.byte	0x4
 6653 0371 0D       		.uleb128 0xd
 6654 0372 D41B0000 		.4byte	.LASF66
 6655 0376 06       		.byte	0x6
 6656 0377 5701     		.2byte	0x157
 6657 0379 FA020000 		.4byte	0x2fa
 6658 037d 05       		.byte	0x5
 6659 037e 0D       		.uleb128 0xd
 6660 037f DE000000 		.4byte	.LASF67
 6661 0383 06       		.byte	0x6
 6662 0384 5901     		.2byte	0x159
 6663 0386 DE000000 		.4byte	0xde
 6664 038a 06       		.byte	0x6
 6665 038b 0D       		.uleb128 0xd
 6666 038c 28160000 		.4byte	.LASF68
 6667 0390 06       		.byte	0x6
 6668 0391 5A01     		.2byte	0x15a
 6669 0393 DE000000 		.4byte	0xde
 6670 0397 07       		.byte	0x7
 6671 0398 0D       		.uleb128 0xd
 6672 0399 44180000 		.4byte	.LASF52
 6673 039d 06       		.byte	0x6
 6674 039e 5C01     		.2byte	0x15c
 6675 03a0 FA020000 		.4byte	0x2fa
 6676 03a4 08       		.byte	0x8
 6677 03a5 0D       		.uleb128 0xd
 6678 03a6 14160000 		.4byte	.LASF69
 6679 03aa 06       		.byte	0x6
 6680 03ab 5D01     		.2byte	0x15d
 6681 03ad FA020000 		.4byte	0x2fa
 6682 03b1 09       		.byte	0x9
 6683 03b2 0D       		.uleb128 0xd
ARM GAS  C:\Users\Lenovo\AppData\Local\Temp\ccKs44LO.s 			page 144


 6684 03b3 B31B0000 		.4byte	.LASF70
 6685 03b7 06       		.byte	0x6
 6686 03b8 5E01     		.2byte	0x15e
 6687 03ba FA020000 		.4byte	0x2fa
 6688 03be 0A       		.byte	0xa
 6689 03bf 0D       		.uleb128 0xd
 6690 03c0 C61C0000 		.4byte	.LASF71
 6691 03c4 06       		.byte	0x6
 6692 03c5 5F01     		.2byte	0x15f
 6693 03c7 FA020000 		.4byte	0x2fa
 6694 03cb 0B       		.byte	0xb
 6695 03cc 0D       		.uleb128 0xd
 6696 03cd 09060000 		.4byte	.LASF72
 6697 03d1 06       		.byte	0x6
 6698 03d2 6001     		.2byte	0x160
 6699 03d4 DE000000 		.4byte	0xde
 6700 03d8 0C       		.byte	0xc
 6701 03d9 0D       		.uleb128 0xd
 6702 03da 310C0000 		.4byte	.LASF73
 6703 03de 06       		.byte	0x6
 6704 03df 6101     		.2byte	0x161
 6705 03e1 FA020000 		.4byte	0x2fa
 6706 03e5 0D       		.byte	0xd
 6707 03e6 0D       		.uleb128 0xd
 6708 03e7 2A000000 		.4byte	.LASF74
 6709 03eb 06       		.byte	0x6
 6710 03ec 6201     		.2byte	0x162
 6711 03ee DE000000 		.4byte	0xde
 6712 03f2 0E       		.byte	0xe
 6713 03f3 0D       		.uleb128 0xd
 6714 03f4 09210000 		.4byte	.LASF75
 6715 03f8 06       		.byte	0x6
 6716 03f9 6401     		.2byte	0x164
 6717 03fb FA020000 		.4byte	0x2fa
 6718 03ff 0F       		.byte	0xf
 6719 0400 0D       		.uleb128 0xd
 6720 0401 E8140000 		.4byte	.LASF76
 6721 0405 06       		.byte	0x6
 6722 0406 6601     		.2byte	0x166
 6723 0408 E8000000 		.4byte	0xe8
 6724 040c 10       		.byte	0x10
 6725 040d 0D       		.uleb128 0xd
 6726 040e 06100000 		.4byte	.LASF77
 6727 0412 06       		.byte	0x6
 6728 0413 6701     		.2byte	0x167
 6729 0415 E8000000 		.4byte	0xe8
 6730 0419 14       		.byte	0x14
 6731 041a 0D       		.uleb128 0xd
 6732 041b 910B0000 		.4byte	.LASF78
 6733 041f 06       		.byte	0x6
 6734 0420 6A01     		.2byte	0x16a
 6735 0422 DE000000 		.4byte	0xde
 6736 0426 18       		.byte	0x18
 6737 0427 0D       		.uleb128 0xd
 6738 0428 80180000 		.4byte	.LASF34
 6739 042c 06       		.byte	0x6
 6740 042d 6B01     		.2byte	0x16b
ARM GAS  C:\Users\Lenovo\AppData\Local\Temp\ccKs44LO.s 			page 145


 6741 042f DE000000 		.4byte	0xde
 6742 0433 19       		.byte	0x19
 6743 0434 0D       		.uleb128 0xd
 6744 0435 6B1A0000 		.4byte	.LASF79
 6745 0439 06       		.byte	0x6
 6746 043a 6D01     		.2byte	0x16d
 6747 043c FB000000 		.4byte	0xfb
 6748 0440 1C       		.byte	0x1c
 6749 0441 0D       		.uleb128 0xd
 6750 0442 000F0000 		.4byte	.LASF80
 6751 0446 06       		.byte	0x6
 6752 0447 6E01     		.2byte	0x16e
 6753 0449 21050000 		.4byte	0x521
 6754 044d 20       		.byte	0x20
 6755 044e 0E       		.uleb128 0xe
 6756 044f 200E0000 		.4byte	.LASF81
 6757 0453 06       		.byte	0x6
 6758 0454 7001     		.2byte	0x170
 6759 0456 21050000 		.4byte	0x521
 6760 045a 8801     		.2byte	0x188
 6761 045c 0E       		.uleb128 0xe
 6762 045d 14020000 		.4byte	.LASF82
 6763 0461 06       		.byte	0x6
 6764 0462 7101     		.2byte	0x171
 6765 0464 8D000000 		.4byte	0x8d
 6766 0468 F002     		.2byte	0x2f0
 6767 046a 0E       		.uleb128 0xe
 6768 046b D6030000 		.4byte	.LASF83
 6769 046f 06       		.byte	0x6
 6770 0470 7501     		.2byte	0x175
 6771 0472 32050000 		.4byte	0x532
 6772 0476 F202     		.2byte	0x2f2
 6773 0478 0E       		.uleb128 0xe
 6774 0479 9A0C0000 		.4byte	.LASF84
 6775 047d 06       		.byte	0x6
 6776 047e 7701     		.2byte	0x177
 6777 0480 FA020000 		.4byte	0x2fa
 6778 0484 120B     		.2byte	0xb12
 6779 0486 0E       		.uleb128 0xe
 6780 0487 8E1D0000 		.4byte	.LASF85
 6781 048b 06       		.byte	0x6
 6782 048c 7901     		.2byte	0x179
 6783 048e 4D050000 		.4byte	0x54d
 6784 0492 140B     		.2byte	0xb14
 6785 0494 0E       		.uleb128 0xe
 6786 0495 AB220000 		.4byte	.LASF86
 6787 0499 06       		.byte	0x6
 6788 049a 7A01     		.2byte	0x17a
 6789 049c 4D050000 		.4byte	0x54d
 6790 04a0 180B     		.2byte	0xb18
 6791 04a2 0E       		.uleb128 0xe
 6792 04a3 4E210000 		.4byte	.LASF87
 6793 04a7 06       		.byte	0x6
 6794 04a8 7B01     		.2byte	0x17b
 6795 04aa 67050000 		.4byte	0x567
 6796 04ae 1C0B     		.2byte	0xb1c
 6797 04b0 0E       		.uleb128 0xe
ARM GAS  C:\Users\Lenovo\AppData\Local\Temp\ccKs44LO.s 			page 146


 6798 04b1 F91D0000 		.4byte	.LASF88
 6799 04b5 06       		.byte	0x6
 6800 04b6 7C01     		.2byte	0x17c
 6801 04b8 7D050000 		.4byte	0x57d
 6802 04bc 200B     		.2byte	0xb20
 6803 04be 0E       		.uleb128 0xe
 6804 04bf C6040000 		.4byte	.LASF89
 6805 04c3 06       		.byte	0x6
 6806 04c4 7D01     		.2byte	0x17d
 6807 04c6 7D050000 		.4byte	0x57d
 6808 04ca 240B     		.2byte	0xb24
 6809 04cc 0E       		.uleb128 0xe
 6810 04cd AE1D0000 		.4byte	.LASF90
 6811 04d1 06       		.byte	0x6
 6812 04d2 7E01     		.2byte	0x17e
 6813 04d4 92050000 		.4byte	0x592
 6814 04d8 280B     		.2byte	0xb28
 6815 04da 0E       		.uleb128 0xe
 6816 04db EA0A0000 		.4byte	.LASF91
 6817 04df 06       		.byte	0x6
 6818 04e0 7F01     		.2byte	0x17f
 6819 04e2 92050000 		.4byte	0x592
 6820 04e6 2C0B     		.2byte	0xb2c
 6821 04e8 0E       		.uleb128 0xe
 6822 04e9 F01F0000 		.4byte	.LASF92
 6823 04ed 06       		.byte	0x6
 6824 04ee 8101     		.2byte	0x181
 6825 04f0 A7050000 		.4byte	0x5a7
 6826 04f4 300B     		.2byte	0xb30
 6827 04f6 0E       		.uleb128 0xe
 6828 04f7 1C220000 		.4byte	.LASF93
 6829 04fb 06       		.byte	0x6
 6830 04fc 8301     		.2byte	0x183
 6831 04fe 89020000 		.4byte	0x289
 6832 0502 380B     		.2byte	0xb38
 6833 0504 0E       		.uleb128 0xe
 6834 0505 FF1F0000 		.4byte	.LASF94
 6835 0509 06       		.byte	0x6
 6836 050a 8401     		.2byte	0x184
 6837 050c 16030000 		.4byte	0x316
 6838 0510 780B     		.2byte	0xb78
 6839 0512 0E       		.uleb128 0xe
 6840 0513 C70A0000 		.4byte	.LASF95
 6841 0517 06       		.byte	0x6
 6842 0518 8601     		.2byte	0x186
 6843 051a 4D050000 		.4byte	0x54d
 6844 051e 900B     		.2byte	0xb90
 6845 0520 00       		.byte	0
 6846 0521 0F       		.uleb128 0xf
 6847 0522 CB000000 		.4byte	0xcb
 6848 0526 32050000 		.4byte	0x532
 6849 052a 13       		.uleb128 0x13
 6850 052b F4000000 		.4byte	0xf4
 6851 052f 6701     		.2byte	0x167
 6852 0531 00       		.byte	0
 6853 0532 0F       		.uleb128 0xf
 6854 0533 BB010000 		.4byte	0x1bb
ARM GAS  C:\Users\Lenovo\AppData\Local\Temp\ccKs44LO.s 			page 147


 6855 0537 42050000 		.4byte	0x542
 6856 053b 10       		.uleb128 0x10
 6857 053c F4000000 		.4byte	0xf4
 6858 0540 07       		.byte	0x7
 6859 0541 00       		.byte	0
 6860 0542 14       		.uleb128 0x14
 6861 0543 4D050000 		.4byte	0x54d
 6862 0547 15       		.uleb128 0x15
 6863 0548 FB000000 		.4byte	0xfb
 6864 054c 00       		.byte	0
 6865 054d 07       		.uleb128 0x7
 6866 054e 04       		.byte	0x4
 6867 054f 42050000 		.4byte	0x542
 6868 0553 16       		.uleb128 0x16
 6869 0554 FF020000 		.4byte	0x2ff
 6870 0558 67050000 		.4byte	0x567
 6871 055c 15       		.uleb128 0x15
 6872 055d FB000000 		.4byte	0xfb
 6873 0561 15       		.uleb128 0x15
 6874 0562 81000000 		.4byte	0x81
 6875 0566 00       		.byte	0
 6876 0567 07       		.uleb128 0x7
 6877 0568 04       		.byte	0x4
 6878 0569 53050000 		.4byte	0x553
 6879 056d 14       		.uleb128 0x14
 6880 056e 7D050000 		.4byte	0x57d
 6881 0572 15       		.uleb128 0x15
 6882 0573 FB000000 		.4byte	0xfb
 6883 0577 15       		.uleb128 0x15
 6884 0578 C7010000 		.4byte	0x1c7
 6885 057c 00       		.byte	0
 6886 057d 07       		.uleb128 0x7
 6887 057e 04       		.byte	0x4
 6888 057f 6D050000 		.4byte	0x56d
 6889 0583 16       		.uleb128 0x16
 6890 0584 C7010000 		.4byte	0x1c7
 6891 0588 92050000 		.4byte	0x592
 6892 058c 15       		.uleb128 0x15
 6893 058d FB000000 		.4byte	0xfb
 6894 0591 00       		.byte	0
 6895 0592 07       		.uleb128 0x7
 6896 0593 04       		.byte	0x4
 6897 0594 83050000 		.4byte	0x583
 6898 0598 16       		.uleb128 0x16
 6899 0599 FF020000 		.4byte	0x2ff
 6900 059d A7050000 		.4byte	0x5a7
 6901 05a1 15       		.uleb128 0x15
 6902 05a2 FB000000 		.4byte	0xfb
 6903 05a6 00       		.byte	0
 6904 05a7 07       		.uleb128 0x7
 6905 05a8 04       		.byte	0x4
 6906 05a9 98050000 		.4byte	0x598
 6907 05ad 05       		.uleb128 0x5
 6908 05ae F9190000 		.4byte	.LASF96
 6909 05b2 06       		.byte	0x6
 6910 05b3 8801     		.2byte	0x188
 6911 05b5 22030000 		.4byte	0x322
ARM GAS  C:\Users\Lenovo\AppData\Local\Temp\ccKs44LO.s 			page 148


 6912 05b9 11       		.uleb128 0x11
 6913 05ba 14       		.byte	0x14
 6914 05bb 06       		.byte	0x6
 6915 05bc EC01     		.2byte	0x1ec
 6916 05be A3060000 		.4byte	0x6a3
 6917 05c2 0D       		.uleb128 0xd
 6918 05c3 65100000 		.4byte	.LASF97
 6919 05c7 06       		.byte	0x6
 6920 05c8 EE01     		.2byte	0x1ee
 6921 05ca FA020000 		.4byte	0x2fa
 6922 05ce 00       		.byte	0
 6923 05cf 0D       		.uleb128 0xd
 6924 05d0 A31A0000 		.4byte	.LASF98
 6925 05d4 06       		.byte	0x6
 6926 05d5 EF01     		.2byte	0x1ef
 6927 05d7 FA020000 		.4byte	0x2fa
 6928 05db 01       		.byte	0x1
 6929 05dc 0D       		.uleb128 0xd
 6930 05dd 75090000 		.4byte	.LASF99
 6931 05e1 06       		.byte	0x6
 6932 05e2 F301     		.2byte	0x1f3
 6933 05e4 81000000 		.4byte	0x81
 6934 05e8 02       		.byte	0x2
 6935 05e9 0D       		.uleb128 0xd
 6936 05ea 21190000 		.4byte	.LASF100
 6937 05ee 06       		.byte	0x6
 6938 05ef 0102     		.2byte	0x201
 6939 05f1 81000000 		.4byte	0x81
 6940 05f5 03       		.byte	0x3
 6941 05f6 0D       		.uleb128 0xd
 6942 05f7 700A0000 		.4byte	.LASF101
 6943 05fb 06       		.byte	0x6
 6944 05fc 0202     		.2byte	0x202
 6945 05fe 81000000 		.4byte	0x81
 6946 0602 04       		.byte	0x4
 6947 0603 0D       		.uleb128 0xd
 6948 0604 42190000 		.4byte	.LASF102
 6949 0608 06       		.byte	0x6
 6950 0609 0302     		.2byte	0x203
 6951 060b 81000000 		.4byte	0x81
 6952 060f 05       		.byte	0x5
 6953 0610 0D       		.uleb128 0xd
 6954 0611 52190000 		.4byte	.LASF103
 6955 0615 06       		.byte	0x6
 6956 0616 0402     		.2byte	0x204
 6957 0618 81000000 		.4byte	0x81
 6958 061c 06       		.byte	0x6
 6959 061d 0D       		.uleb128 0xd
 6960 061e F00B0000 		.4byte	.LASF104
 6961 0622 06       		.byte	0x6
 6962 0623 0602     		.2byte	0x206
 6963 0625 81000000 		.4byte	0x81
 6964 0629 07       		.byte	0x7
 6965 062a 0D       		.uleb128 0xd
 6966 062b CE0D0000 		.4byte	.LASF105
 6967 062f 06       		.byte	0x6
 6968 0630 0702     		.2byte	0x207
ARM GAS  C:\Users\Lenovo\AppData\Local\Temp\ccKs44LO.s 			page 149


 6969 0632 81000000 		.4byte	0x81
 6970 0636 08       		.byte	0x8
 6971 0637 0D       		.uleb128 0xd
 6972 0638 4D0A0000 		.4byte	.LASF106
 6973 063c 06       		.byte	0x6
 6974 063d 0802     		.2byte	0x208
 6975 063f 81000000 		.4byte	0x81
 6976 0643 09       		.byte	0x9
 6977 0644 0D       		.uleb128 0xd
 6978 0645 3C000000 		.4byte	.LASF107
 6979 0649 06       		.byte	0x6
 6980 064a 0A02     		.2byte	0x20a
 6981 064c 81000000 		.4byte	0x81
 6982 0650 0A       		.byte	0xa
 6983 0651 0D       		.uleb128 0xd
 6984 0652 160C0000 		.4byte	.LASF108
 6985 0656 06       		.byte	0x6
 6986 0657 0C02     		.2byte	0x20c
 6987 0659 8D000000 		.4byte	0x8d
 6988 065d 0C       		.byte	0xc
 6989 065e 0D       		.uleb128 0xd
 6990 065f 86190000 		.4byte	.LASF109
 6991 0663 06       		.byte	0x6
 6992 0664 0D02     		.2byte	0x20d
 6993 0666 8D000000 		.4byte	0x8d
 6994 066a 0E       		.byte	0xe
 6995 066b 0D       		.uleb128 0xd
 6996 066c 91220000 		.4byte	.LASF110
 6997 0670 06       		.byte	0x6
 6998 0671 0F02     		.2byte	0x20f
 6999 0673 81000000 		.4byte	0x81
 7000 0677 10       		.byte	0x10
 7001 0678 0D       		.uleb128 0xd
 7002 0679 F0090000 		.4byte	.LASF111
 7003 067d 06       		.byte	0x6
 7004 067e 1102     		.2byte	0x211
 7005 0680 81000000 		.4byte	0x81
 7006 0684 11       		.byte	0x11
 7007 0685 0D       		.uleb128 0xd
 7008 0686 1A000000 		.4byte	.LASF112
 7009 068a 06       		.byte	0x6
 7010 068b 1302     		.2byte	0x213
 7011 068d 81000000 		.4byte	0x81
 7012 0691 12       		.byte	0x12
 7013 0692 17       		.uleb128 0x17
 7014 0693 5B160000 		.4byte	.LASF489
 7015 0697 06       		.byte	0x6
 7016 0698 1502     		.2byte	0x215
 7017 069a 81000000 		.4byte	0x81
 7018 069e 01       		.byte	0x1
 7019 069f 01       		.byte	0x1
 7020 06a0 07       		.byte	0x7
 7021 06a1 13       		.byte	0x13
 7022 06a2 00       		.byte	0
 7023 06a3 05       		.uleb128 0x5
 7024 06a4 A4200000 		.4byte	.LASF113
 7025 06a8 06       		.byte	0x6
ARM GAS  C:\Users\Lenovo\AppData\Local\Temp\ccKs44LO.s 			page 150


 7026 06a9 1602     		.2byte	0x216
 7027 06ab B9050000 		.4byte	0x5b9
 7028 06af 18       		.uleb128 0x18
 7029 06b0 60140000 		.4byte	.LASF115
 7030 06b4 4C       		.byte	0x4c
 7031 06b5 07       		.byte	0x7
 7032 06b6 2C       		.byte	0x2c
 7033 06b7 A0070000 		.4byte	0x7a0
 7034 06bb 19       		.uleb128 0x19
 7035 06bc 5C1B0000 		.4byte	.LASF116
 7036 06c0 07       		.byte	0x7
 7037 06c1 2E       		.byte	0x2e
 7038 06c2 81000000 		.4byte	0x81
 7039 06c6 00       		.byte	0
 7040 06c7 19       		.uleb128 0x19
 7041 06c8 650D0000 		.4byte	.LASF117
 7042 06cc 07       		.byte	0x7
 7043 06cd 31       		.byte	0x31
 7044 06ce 4D050000 		.4byte	0x54d
 7045 06d2 04       		.byte	0x4
 7046 06d3 19       		.uleb128 0x19
 7047 06d4 95180000 		.4byte	.LASF118
 7048 06d8 07       		.byte	0x7
 7049 06d9 34       		.byte	0x34
 7050 06da ED000000 		.4byte	0xed
 7051 06de 08       		.byte	0x8
 7052 06df 19       		.uleb128 0x19
 7053 06e0 05030000 		.4byte	.LASF119
 7054 06e4 07       		.byte	0x7
 7055 06e5 35       		.byte	0x35
 7056 06e6 ED000000 		.4byte	0xed
 7057 06ea 0C       		.byte	0xc
 7058 06eb 19       		.uleb128 0x19
 7059 06ec D31A0000 		.4byte	.LASF120
 7060 06f0 07       		.byte	0x7
 7061 06f1 36       		.byte	0x36
 7062 06f2 A5070000 		.4byte	0x7a5
 7063 06f6 10       		.byte	0x10
 7064 06f7 19       		.uleb128 0x19
 7065 06f8 15170000 		.4byte	.LASF121
 7066 06fc 07       		.byte	0x7
 7067 06fd 37       		.byte	0x37
 7068 06fe B6070000 		.4byte	0x7b6
 7069 0702 14       		.byte	0x14
 7070 0703 19       		.uleb128 0x19
 7071 0704 3F1E0000 		.4byte	.LASF122
 7072 0708 07       		.byte	0x7
 7073 0709 39       		.byte	0x39
 7074 070a A5070000 		.4byte	0x7a5
 7075 070e 18       		.byte	0x18
 7076 070f 19       		.uleb128 0x19
 7077 0710 090C0000 		.4byte	.LASF123
 7078 0714 07       		.byte	0x7
 7079 0715 3A       		.byte	0x3a
 7080 0716 A5070000 		.4byte	0x7a5
 7081 071a 1C       		.byte	0x1c
 7082 071b 19       		.uleb128 0x19
ARM GAS  C:\Users\Lenovo\AppData\Local\Temp\ccKs44LO.s 			page 151


 7083 071c 8B080000 		.4byte	.LASF124
 7084 0720 07       		.byte	0x7
 7085 0721 3B       		.byte	0x3b
 7086 0722 A5070000 		.4byte	0x7a5
 7087 0726 20       		.byte	0x20
 7088 0727 19       		.uleb128 0x19
 7089 0728 BF1B0000 		.4byte	.LASF125
 7090 072c 07       		.byte	0x7
 7091 072d 3C       		.byte	0x3c
 7092 072e C1070000 		.4byte	0x7c1
 7093 0732 24       		.byte	0x24
 7094 0733 19       		.uleb128 0x19
 7095 0734 34010000 		.4byte	.LASF126
 7096 0738 07       		.byte	0x7
 7097 0739 3D       		.byte	0x3d
 7098 073a C1070000 		.4byte	0x7c1
 7099 073e 28       		.byte	0x28
 7100 073f 19       		.uleb128 0x19
 7101 0740 61080000 		.4byte	.LASF127
 7102 0744 07       		.byte	0x7
 7103 0745 3E       		.byte	0x3e
 7104 0746 ED000000 		.4byte	0xed
 7105 074a 2C       		.byte	0x2c
 7106 074b 19       		.uleb128 0x19
 7107 074c 990A0000 		.4byte	.LASF128
 7108 0750 07       		.byte	0x7
 7109 0751 40       		.byte	0x40
 7110 0752 B6070000 		.4byte	0x7b6
 7111 0756 30       		.byte	0x30
 7112 0757 19       		.uleb128 0x19
 7113 0758 C5150000 		.4byte	.LASF129
 7114 075c 07       		.byte	0x7
 7115 075d 41       		.byte	0x41
 7116 075e A5070000 		.4byte	0x7a5
 7117 0762 34       		.byte	0x34
 7118 0763 19       		.uleb128 0x19
 7119 0764 A1110000 		.4byte	.LASF130
 7120 0768 07       		.byte	0x7
 7121 0769 42       		.byte	0x42
 7122 076a B6070000 		.4byte	0x7b6
 7123 076e 38       		.byte	0x38
 7124 076f 19       		.uleb128 0x19
 7125 0770 5B0D0000 		.4byte	.LASF131
 7126 0774 07       		.byte	0x7
 7127 0775 43       		.byte	0x43
 7128 0776 DD070000 		.4byte	0x7dd
 7129 077a 3C       		.byte	0x3c
 7130 077b 19       		.uleb128 0x19
 7131 077c 561A0000 		.4byte	.LASF132
 7132 0780 07       		.byte	0x7
 7133 0781 44       		.byte	0x44
 7134 0782 FE070000 		.4byte	0x7fe
 7135 0786 40       		.byte	0x40
 7136 0787 19       		.uleb128 0x19
 7137 0788 750C0000 		.4byte	.LASF133
 7138 078c 07       		.byte	0x7
 7139 078d 45       		.byte	0x45
ARM GAS  C:\Users\Lenovo\AppData\Local\Temp\ccKs44LO.s 			page 152


 7140 078e B6070000 		.4byte	0x7b6
 7141 0792 44       		.byte	0x44
 7142 0793 19       		.uleb128 0x19
 7143 0794 A3120000 		.4byte	.LASF134
 7144 0798 07       		.byte	0x7
 7145 0799 46       		.byte	0x46
 7146 079a ED000000 		.4byte	0xed
 7147 079e 48       		.byte	0x48
 7148 079f 00       		.byte	0
 7149 07a0 1A       		.uleb128 0x1a
 7150 07a1 81000000 		.4byte	0x81
 7151 07a5 07       		.uleb128 0x7
 7152 07a6 04       		.byte	0x4
 7153 07a7 A0070000 		.4byte	0x7a0
 7154 07ab 14       		.uleb128 0x14
 7155 07ac B6070000 		.4byte	0x7b6
 7156 07b0 15       		.uleb128 0x15
 7157 07b1 81000000 		.4byte	0x81
 7158 07b5 00       		.byte	0
 7159 07b6 07       		.uleb128 0x7
 7160 07b7 04       		.byte	0x4
 7161 07b8 AB070000 		.4byte	0x7ab
 7162 07bc 1A       		.uleb128 0x1a
 7163 07bd 8D000000 		.4byte	0x8d
 7164 07c1 07       		.uleb128 0x7
 7165 07c2 04       		.byte	0x4
 7166 07c3 BC070000 		.4byte	0x7bc
 7167 07c7 14       		.uleb128 0x14
 7168 07c8 D2070000 		.4byte	0x7d2
 7169 07cc 15       		.uleb128 0x15
 7170 07cd D2070000 		.4byte	0x7d2
 7171 07d1 00       		.byte	0
 7172 07d2 07       		.uleb128 0x7
 7173 07d3 04       		.byte	0x4
 7174 07d4 D8070000 		.4byte	0x7d8
 7175 07d8 1B       		.uleb128 0x1b
 7176 07d9 CB000000 		.4byte	0xcb
 7177 07dd 07       		.uleb128 0x7
 7178 07de 04       		.byte	0x4
 7179 07df C7070000 		.4byte	0x7c7
 7180 07e3 14       		.uleb128 0x14
 7181 07e4 F3070000 		.4byte	0x7f3
 7182 07e8 15       		.uleb128 0x15
 7183 07e9 F3070000 		.4byte	0x7f3
 7184 07ed 15       		.uleb128 0x15
 7185 07ee 81000000 		.4byte	0x81
 7186 07f2 00       		.byte	0
 7187 07f3 07       		.uleb128 0x7
 7188 07f4 04       		.byte	0x4
 7189 07f5 F9070000 		.4byte	0x7f9
 7190 07f9 1B       		.uleb128 0x1b
 7191 07fa 81000000 		.4byte	0x81
 7192 07fe 07       		.uleb128 0x7
 7193 07ff 04       		.byte	0x4
 7194 0800 E3070000 		.4byte	0x7e3
 7195 0804 03       		.uleb128 0x3
 7196 0805 0A030000 		.4byte	.LASF135
ARM GAS  C:\Users\Lenovo\AppData\Local\Temp\ccKs44LO.s 			page 153


 7197 0809 07       		.byte	0x7
 7198 080a 48       		.byte	0x48
 7199 080b AF060000 		.4byte	0x6af
 7200 080f 0A       		.uleb128 0xa
 7201 0810 F5040000 		.4byte	.LASF137
 7202 0814 01       		.byte	0x1
 7203 0815 07       		.byte	0x7
 7204 0816 51       		.byte	0x51
 7205 0817 31080000 		.4byte	0x831
 7206 081b 0B       		.uleb128 0xb
 7207 081c 560D0000 		.4byte	.LASF138
 7208 0820 C001     		.sleb128 192
 7209 0822 0B       		.uleb128 0xb
 7210 0823 DD1C0000 		.4byte	.LASF139
 7211 0827 C101     		.sleb128 193
 7212 0829 0B       		.uleb128 0xb
 7213 082a 46090000 		.4byte	.LASF140
 7214 082e C201     		.sleb128 194
 7215 0830 00       		.byte	0
 7216 0831 1C       		.uleb128 0x1c
 7217 0832 9B180000 		.4byte	.LASF141
 7218 0836 0C01     		.2byte	0x10c
 7219 0838 07       		.byte	0x7
 7220 0839 59       		.byte	0x59
 7221 083a 7D080000 		.4byte	0x87d
 7222 083e 19       		.uleb128 0x19
 7223 083f 2F200000 		.4byte	.LASF142
 7224 0843 07       		.byte	0x7
 7225 0844 5B       		.byte	0x5b
 7226 0845 DE000000 		.4byte	0xde
 7227 0849 00       		.byte	0
 7228 084a 19       		.uleb128 0x19
 7229 084b B8000000 		.4byte	.LASF143
 7230 084f 07       		.byte	0x7
 7231 0850 5C       		.byte	0x5c
 7232 0851 E3000000 		.4byte	0xe3
 7233 0855 02       		.byte	0x2
 7234 0856 19       		.uleb128 0x19
 7235 0857 CA060000 		.4byte	.LASF144
 7236 085b 07       		.byte	0x7
 7237 085c 5D       		.byte	0x5d
 7238 085d 7D080000 		.4byte	0x87d
 7239 0861 04       		.byte	0x4
 7240 0862 1D       		.uleb128 0x1d
 7241 0863 5F200000 		.4byte	.LASF145
 7242 0867 07       		.byte	0x7
 7243 0868 5E       		.byte	0x5e
 7244 0869 9D080000 		.4byte	0x89d
 7245 086d 0401     		.2byte	0x104
 7246 086f 1D       		.uleb128 0x1d
 7247 0870 C0220000 		.4byte	.LASF146
 7248 0874 07       		.byte	0x7
 7249 0875 60       		.byte	0x60
 7250 0876 A3080000 		.4byte	0x8a3
 7251 087a 0801     		.2byte	0x108
 7252 087c 00       		.byte	0
 7253 087d 0F       		.uleb128 0xf
ARM GAS  C:\Users\Lenovo\AppData\Local\Temp\ccKs44LO.s 			page 154


 7254 087e CB000000 		.4byte	0xcb
 7255 0882 8D080000 		.4byte	0x88d
 7256 0886 10       		.uleb128 0x10
 7257 0887 F4000000 		.4byte	0xf4
 7258 088b FF       		.byte	0xff
 7259 088c 00       		.byte	0
 7260 088d 14       		.uleb128 0x14
 7261 088e 9D080000 		.4byte	0x89d
 7262 0892 15       		.uleb128 0x15
 7263 0893 81000000 		.4byte	0x81
 7264 0897 15       		.uleb128 0x15
 7265 0898 0A010000 		.4byte	0x10a
 7266 089c 00       		.byte	0
 7267 089d 07       		.uleb128 0x7
 7268 089e 04       		.byte	0x4
 7269 089f 8D080000 		.4byte	0x88d
 7270 08a3 07       		.uleb128 0x7
 7271 08a4 04       		.byte	0x4
 7272 08a5 04080000 		.4byte	0x804
 7273 08a9 03       		.uleb128 0x3
 7274 08aa D2000000 		.4byte	.LASF147
 7275 08ae 07       		.byte	0x7
 7276 08af 61       		.byte	0x61
 7277 08b0 31080000 		.4byte	0x831
 7278 08b4 03       		.uleb128 0x3
 7279 08b5 06190000 		.4byte	.LASF148
 7280 08b9 07       		.byte	0x7
 7281 08ba 61       		.byte	0x61
 7282 08bb BF080000 		.4byte	0x8bf
 7283 08bf 07       		.uleb128 0x7
 7284 08c0 04       		.byte	0x4
 7285 08c1 31080000 		.4byte	0x831
 7286 08c5 0A       		.uleb128 0xa
 7287 08c6 5F1E0000 		.4byte	.LASF149
 7288 08ca 01       		.byte	0x1
 7289 08cb 07       		.byte	0x7
 7290 08cc 6D       		.byte	0x6d
 7291 08cd FC080000 		.4byte	0x8fc
 7292 08d1 0B       		.uleb128 0xb
 7293 08d2 FB010000 		.4byte	.LASF150
 7294 08d6 A001     		.sleb128 160
 7295 08d8 0B       		.uleb128 0xb
 7296 08d9 B90B0000 		.4byte	.LASF151
 7297 08dd A101     		.sleb128 161
 7298 08df 0B       		.uleb128 0xb
 7299 08e0 1C120000 		.4byte	.LASF152
 7300 08e4 A201     		.sleb128 162
 7301 08e6 0B       		.uleb128 0xb
 7302 08e7 1D070000 		.4byte	.LASF153
 7303 08eb A301     		.sleb128 163
 7304 08ed 0B       		.uleb128 0xb
 7305 08ee 2B070000 		.4byte	.LASF154
 7306 08f2 A401     		.sleb128 164
 7307 08f4 0B       		.uleb128 0xb
 7308 08f5 9B160000 		.4byte	.LASF155
 7309 08f9 A501     		.sleb128 165
 7310 08fb 00       		.byte	0
ARM GAS  C:\Users\Lenovo\AppData\Local\Temp\ccKs44LO.s 			page 155


 7311 08fc 0A       		.uleb128 0xa
 7312 08fd B8200000 		.4byte	.LASF156
 7313 0901 01       		.byte	0x1
 7314 0902 08       		.byte	0x8
 7315 0903 3F       		.byte	0x3f
 7316 0904 39090000 		.4byte	0x939
 7317 0908 0B       		.uleb128 0xb
 7318 0909 8E210000 		.4byte	.LASF157
 7319 090d 01       		.sleb128 1
 7320 090e 0B       		.uleb128 0xb
 7321 090f C7200000 		.4byte	.LASF158
 7322 0913 02       		.sleb128 2
 7323 0914 0B       		.uleb128 0xb
 7324 0915 4D170000 		.4byte	.LASF159
 7325 0919 03       		.sleb128 3
 7326 091a 0B       		.uleb128 0xb
 7327 091b 771C0000 		.4byte	.LASF160
 7328 091f 04       		.sleb128 4
 7329 0920 0B       		.uleb128 0xb
 7330 0921 0B0E0000 		.4byte	.LASF161
 7331 0925 05       		.sleb128 5
 7332 0926 0B       		.uleb128 0xb
 7333 0927 681F0000 		.4byte	.LASF162
 7334 092b 06       		.sleb128 6
 7335 092c 0B       		.uleb128 0xb
 7336 092d 2F0B0000 		.4byte	.LASF163
 7337 0931 07       		.sleb128 7
 7338 0932 0B       		.uleb128 0xb
 7339 0933 50100000 		.4byte	.LASF164
 7340 0937 08       		.sleb128 8
 7341 0938 00       		.byte	0
 7342 0939 0A       		.uleb128 0xa
 7343 093a 38220000 		.4byte	.LASF165
 7344 093e 01       		.byte	0x1
 7345 093f 08       		.byte	0x8
 7346 0940 4C       		.byte	0x4c
 7347 0941 58090000 		.4byte	0x958
 7348 0945 0B       		.uleb128 0xb
 7349 0946 48220000 		.4byte	.LASF166
 7350 094a 01       		.sleb128 1
 7351 094b 0B       		.uleb128 0xb
 7352 094c 040A0000 		.4byte	.LASF167
 7353 0950 02       		.sleb128 2
 7354 0951 0B       		.uleb128 0xb
 7355 0952 76180000 		.4byte	.LASF168
 7356 0956 03       		.sleb128 3
 7357 0957 00       		.byte	0
 7358 0958 1C       		.uleb128 0x1c
 7359 0959 5A000000 		.4byte	.LASF169
 7360 095d 9801     		.2byte	0x198
 7361 095f 08       		.byte	0x8
 7362 0960 53       		.byte	0x53
 7363 0961 F9090000 		.4byte	0x9f9
 7364 0965 19       		.uleb128 0x19
 7365 0966 6E0F0000 		.4byte	.LASF170
 7366 096a 08       		.byte	0x8
 7367 096b 55       		.byte	0x55
ARM GAS  C:\Users\Lenovo\AppData\Local\Temp\ccKs44LO.s 			page 156


 7368 096c FA020000 		.4byte	0x2fa
 7369 0970 00       		.byte	0
 7370 0971 19       		.uleb128 0x19
 7371 0972 D21C0000 		.4byte	.LASF171
 7372 0976 08       		.byte	0x8
 7373 0977 56       		.byte	0x56
 7374 0978 DE000000 		.4byte	0xde
 7375 097c 01       		.byte	0x1
 7376 097d 19       		.uleb128 0x19
 7377 097e 461F0000 		.4byte	.LASF172
 7378 0982 08       		.byte	0x8
 7379 0983 57       		.byte	0x57
 7380 0984 DE000000 		.4byte	0xde
 7381 0988 02       		.byte	0x2
 7382 0989 19       		.uleb128 0x19
 7383 098a 2F200000 		.4byte	.LASF142
 7384 098e 08       		.byte	0x8
 7385 098f 58       		.byte	0x58
 7386 0990 DE000000 		.4byte	0xde
 7387 0994 03       		.byte	0x3
 7388 0995 19       		.uleb128 0x19
 7389 0996 3F0A0000 		.4byte	.LASF173
 7390 099a 08       		.byte	0x8
 7391 099b 5A       		.byte	0x5a
 7392 099c E3000000 		.4byte	0xe3
 7393 09a0 04       		.byte	0x4
 7394 09a1 19       		.uleb128 0x19
 7395 09a2 2B0D0000 		.4byte	.LASF174
 7396 09a6 08       		.byte	0x8
 7397 09a7 5B       		.byte	0x5b
 7398 09a8 E3000000 		.4byte	0xe3
 7399 09ac 06       		.byte	0x6
 7400 09ad 19       		.uleb128 0x19
 7401 09ae 81060000 		.4byte	.LASF175
 7402 09b2 08       		.byte	0x8
 7403 09b3 5C       		.byte	0x5c
 7404 09b4 E3000000 		.4byte	0xe3
 7405 09b8 08       		.byte	0x8
 7406 09b9 19       		.uleb128 0x19
 7407 09ba 4A1E0000 		.4byte	.LASF176
 7408 09be 08       		.byte	0x8
 7409 09bf 5D       		.byte	0x5d
 7410 09c0 E3000000 		.4byte	0xe3
 7411 09c4 0A       		.byte	0xa
 7412 09c5 19       		.uleb128 0x19
 7413 09c6 8E050000 		.4byte	.LASF35
 7414 09ca 08       		.byte	0x8
 7415 09cb 5E       		.byte	0x5e
 7416 09cc F9090000 		.4byte	0x9f9
 7417 09d0 0C       		.byte	0xc
 7418 09d1 1D       		.uleb128 0x1d
 7419 09d2 0C230000 		.4byte	.LASF36
 7420 09d6 08       		.byte	0x8
 7421 09d7 5F       		.byte	0x5f
 7422 09d8 E3000000 		.4byte	0xe3
 7423 09dc 8C01     		.2byte	0x18c
 7424 09de 1D       		.uleb128 0x1d
ARM GAS  C:\Users\Lenovo\AppData\Local\Temp\ccKs44LO.s 			page 157


 7425 09df 8D110000 		.4byte	.LASF177
 7426 09e3 08       		.byte	0x8
 7427 09e4 62       		.byte	0x62
 7428 09e5 FB000000 		.4byte	0xfb
 7429 09e9 9001     		.2byte	0x190
 7430 09eb 1D       		.uleb128 0x1d
 7431 09ec 0C1D0000 		.4byte	.LASF178
 7432 09f0 08       		.byte	0x8
 7433 09f1 63       		.byte	0x63
 7434 09f2 4D050000 		.4byte	0x54d
 7435 09f6 9401     		.2byte	0x194
 7436 09f8 00       		.byte	0
 7437 09f9 0F       		.uleb128 0xf
 7438 09fa CB000000 		.4byte	0xcb
 7439 09fe 0A0A0000 		.4byte	0xa0a
 7440 0a02 13       		.uleb128 0x13
 7441 0a03 F4000000 		.4byte	0xf4
 7442 0a07 7F01     		.2byte	0x17f
 7443 0a09 00       		.byte	0
 7444 0a0a 03       		.uleb128 0x3
 7445 0a0b E4150000 		.4byte	.LASF179
 7446 0a0f 08       		.byte	0x8
 7447 0a10 64       		.byte	0x64
 7448 0a11 150A0000 		.4byte	0xa15
 7449 0a15 07       		.uleb128 0x7
 7450 0a16 04       		.byte	0x4
 7451 0a17 58090000 		.4byte	0x958
 7452 0a1b 0A       		.uleb128 0xa
 7453 0a1c BF050000 		.4byte	.LASF180
 7454 0a20 01       		.byte	0x1
 7455 0a21 09       		.byte	0x9
 7456 0a22 0F       		.byte	0xf
 7457 0a23 2A0B0000 		.4byte	0xb2a
 7458 0a27 0B       		.uleb128 0xb
 7459 0a28 32180000 		.4byte	.LASF181
 7460 0a2c 01       		.sleb128 1
 7461 0a2d 0B       		.uleb128 0xb
 7462 0a2e C71B0000 		.4byte	.LASF182
 7463 0a32 02       		.sleb128 2
 7464 0a33 0B       		.uleb128 0xb
 7465 0a34 3A020000 		.4byte	.LASF183
 7466 0a38 03       		.sleb128 3
 7467 0a39 0B       		.uleb128 0xb
 7468 0a3a BE1A0000 		.4byte	.LASF184
 7469 0a3e 04       		.sleb128 4
 7470 0a3f 0B       		.uleb128 0xb
 7471 0a40 E8010000 		.4byte	.LASF185
 7472 0a44 05       		.sleb128 5
 7473 0a45 0B       		.uleb128 0xb
 7474 0a46 C2030000 		.4byte	.LASF186
 7475 0a4a 06       		.sleb128 6
 7476 0a4b 0B       		.uleb128 0xb
 7477 0a4c 86130000 		.4byte	.LASF187
 7478 0a50 07       		.sleb128 7
 7479 0a51 0B       		.uleb128 0xb
 7480 0a52 9B000000 		.4byte	.LASF188
 7481 0a56 08       		.sleb128 8
ARM GAS  C:\Users\Lenovo\AppData\Local\Temp\ccKs44LO.s 			page 158


 7482 0a57 0B       		.uleb128 0xb
 7483 0a58 A9110000 		.4byte	.LASF189
 7484 0a5c 09       		.sleb128 9
 7485 0a5d 0B       		.uleb128 0xb
 7486 0a5e 5E060000 		.4byte	.LASF190
 7487 0a62 0A       		.sleb128 10
 7488 0a63 0B       		.uleb128 0xb
 7489 0a64 A9070000 		.4byte	.LASF191
 7490 0a68 0B       		.sleb128 11
 7491 0a69 0B       		.uleb128 0xb
 7492 0a6a EA020000 		.4byte	.LASF192
 7493 0a6e 0C       		.sleb128 12
 7494 0a6f 0B       		.uleb128 0xb
 7495 0a70 2F1B0000 		.4byte	.LASF193
 7496 0a74 0D       		.sleb128 13
 7497 0a75 0B       		.uleb128 0xb
 7498 0a76 1D1E0000 		.4byte	.LASF194
 7499 0a7a 0E       		.sleb128 14
 7500 0a7b 0B       		.uleb128 0xb
 7501 0a7c 130A0000 		.4byte	.LASF195
 7502 0a80 0F       		.sleb128 15
 7503 0a81 0B       		.uleb128 0xb
 7504 0a82 CF0A0000 		.4byte	.LASF196
 7505 0a86 10       		.sleb128 16
 7506 0a87 0B       		.uleb128 0xb
 7507 0a88 D1200000 		.4byte	.LASF197
 7508 0a8c 11       		.sleb128 17
 7509 0a8d 0B       		.uleb128 0xb
 7510 0a8e C51D0000 		.4byte	.LASF198
 7511 0a92 12       		.sleb128 18
 7512 0a93 0B       		.uleb128 0xb
 7513 0a94 A9030000 		.4byte	.LASF199
 7514 0a98 13       		.sleb128 19
 7515 0a99 0B       		.uleb128 0xb
 7516 0a9a 6D170000 		.4byte	.LASF200
 7517 0a9e 14       		.sleb128 20
 7518 0a9f 0B       		.uleb128 0xb
 7519 0aa0 9B060000 		.4byte	.LASF201
 7520 0aa4 15       		.sleb128 21
 7521 0aa5 0B       		.uleb128 0xb
 7522 0aa6 CC130000 		.4byte	.LASF202
 7523 0aaa 16       		.sleb128 22
 7524 0aab 0B       		.uleb128 0xb
 7525 0aac FA0C0000 		.4byte	.LASF203
 7526 0ab0 17       		.sleb128 23
 7527 0ab1 0B       		.uleb128 0xb
 7528 0ab2 46040000 		.4byte	.LASF204
 7529 0ab6 18       		.sleb128 24
 7530 0ab7 0B       		.uleb128 0xb
 7531 0ab8 6D210000 		.4byte	.LASF205
 7532 0abc 19       		.sleb128 25
 7533 0abd 0B       		.uleb128 0xb
 7534 0abe B70C0000 		.4byte	.LASF206
 7535 0ac2 1A       		.sleb128 26
 7536 0ac3 0B       		.uleb128 0xb
 7537 0ac4 CE070000 		.4byte	.LASF207
 7538 0ac8 1B       		.sleb128 27
ARM GAS  C:\Users\Lenovo\AppData\Local\Temp\ccKs44LO.s 			page 159


 7539 0ac9 0B       		.uleb128 0xb
 7540 0aca E60E0000 		.4byte	.LASF208
 7541 0ace 1C       		.sleb128 28
 7542 0acf 0B       		.uleb128 0xb
 7543 0ad0 F2220000 		.4byte	.LASF209
 7544 0ad4 1D       		.sleb128 29
 7545 0ad5 0B       		.uleb128 0xb
 7546 0ad6 820D0000 		.4byte	.LASF210
 7547 0ada 1E       		.sleb128 30
 7548 0adb 0B       		.uleb128 0xb
 7549 0adc E61D0000 		.4byte	.LASF211
 7550 0ae0 1F       		.sleb128 31
 7551 0ae1 0B       		.uleb128 0xb
 7552 0ae2 D9020000 		.4byte	.LASF212
 7553 0ae6 20       		.sleb128 32
 7554 0ae7 0B       		.uleb128 0xb
 7555 0ae8 4E090000 		.4byte	.LASF213
 7556 0aec 21       		.sleb128 33
 7557 0aed 0B       		.uleb128 0xb
 7558 0aee 78050000 		.4byte	.LASF214
 7559 0af2 22       		.sleb128 34
 7560 0af3 0B       		.uleb128 0xb
 7561 0af4 ED1C0000 		.4byte	.LASF215
 7562 0af8 23       		.sleb128 35
 7563 0af9 0B       		.uleb128 0xb
 7564 0afa 800B0000 		.4byte	.LASF216
 7565 0afe 24       		.sleb128 36
 7566 0aff 0B       		.uleb128 0xb
 7567 0b00 7E070000 		.4byte	.LASF217
 7568 0b04 25       		.sleb128 37
 7569 0b05 0B       		.uleb128 0xb
 7570 0b06 7D1A0000 		.4byte	.LASF218
 7571 0b0a 26       		.sleb128 38
 7572 0b0b 0B       		.uleb128 0xb
 7573 0b0c 7F110000 		.4byte	.LASF219
 7574 0b10 27       		.sleb128 39
 7575 0b11 0B       		.uleb128 0xb
 7576 0b12 79220000 		.4byte	.LASF220
 7577 0b16 28       		.sleb128 40
 7578 0b17 0B       		.uleb128 0xb
 7579 0b18 2A170000 		.4byte	.LASF221
 7580 0b1c 29       		.sleb128 41
 7581 0b1d 0B       		.uleb128 0xb
 7582 0b1e 8C030000 		.4byte	.LASF222
 7583 0b22 2A       		.sleb128 42
 7584 0b23 0B       		.uleb128 0xb
 7585 0b24 71120000 		.4byte	.LASF223
 7586 0b28 2B       		.sleb128 43
 7587 0b29 00       		.byte	0
 7588 0b2a 1E       		.uleb128 0x1e
 7589 0b2b 02       		.byte	0x2
 7590 0b2c 0A       		.byte	0xa
 7591 0b2d 72       		.byte	0x72
 7592 0b2e 4B0B0000 		.4byte	0xb4b
 7593 0b32 19       		.uleb128 0x19
 7594 0b33 D2150000 		.4byte	.LASF224
 7595 0b37 0A       		.byte	0xa
ARM GAS  C:\Users\Lenovo\AppData\Local\Temp\ccKs44LO.s 			page 160


 7596 0b38 74       		.byte	0x74
 7597 0b39 81000000 		.4byte	0x81
 7598 0b3d 00       		.byte	0
 7599 0b3e 19       		.uleb128 0x19
 7600 0b3f 08000000 		.4byte	.LASF225
 7601 0b43 0A       		.byte	0xa
 7602 0b44 75       		.byte	0x75
 7603 0b45 81000000 		.4byte	0x81
 7604 0b49 01       		.byte	0x1
 7605 0b4a 00       		.byte	0
 7606 0b4b 03       		.uleb128 0x3
 7607 0b4c 0F1E0000 		.4byte	.LASF226
 7608 0b50 0A       		.byte	0xa
 7609 0b51 77       		.byte	0x77
 7610 0b52 2A0B0000 		.4byte	0xb2a
 7611 0b56 0A       		.uleb128 0xa
 7612 0b57 43060000 		.4byte	.LASF227
 7613 0b5b 01       		.byte	0x1
 7614 0b5c 0B       		.byte	0xb
 7615 0b5d 21       		.byte	0x21
 7616 0b5e C90C0000 		.4byte	0xcc9
 7617 0b62 0B       		.uleb128 0xb
 7618 0b63 DB0D0000 		.4byte	.LASF228
 7619 0b67 01       		.sleb128 1
 7620 0b68 0B       		.uleb128 0xb
 7621 0b69 EB0D0000 		.4byte	.LASF229
 7622 0b6d 02       		.sleb128 2
 7623 0b6e 0B       		.uleb128 0xb
 7624 0b6f FB0D0000 		.4byte	.LASF230
 7625 0b73 03       		.sleb128 3
 7626 0b74 0B       		.uleb128 0xb
 7627 0b75 FE190000 		.4byte	.LASF231
 7628 0b79 04       		.sleb128 4
 7629 0b7a 0B       		.uleb128 0xb
 7630 0b7b 3B0D0000 		.4byte	.LASF232
 7631 0b7f 05       		.sleb128 5
 7632 0b80 0B       		.uleb128 0xb
 7633 0b81 83090000 		.4byte	.LASF233
 7634 0b85 06       		.sleb128 6
 7635 0b86 0B       		.uleb128 0xb
 7636 0b87 3F050000 		.4byte	.LASF234
 7637 0b8b 0F       		.sleb128 15
 7638 0b8c 0B       		.uleb128 0xb
 7639 0b8d 6F140000 		.4byte	.LASF235
 7640 0b91 FE00     		.sleb128 126
 7641 0b93 0B       		.uleb128 0xb
 7642 0b94 8C140000 		.4byte	.LASF236
 7643 0b98 8601     		.sleb128 134
 7644 0b9a 0B       		.uleb128 0xb
 7645 0b9b 05010000 		.4byte	.LASF237
 7646 0b9f 07       		.sleb128 7
 7647 0ba0 0B       		.uleb128 0xb
 7648 0ba1 E41B0000 		.4byte	.LASF238
 7649 0ba5 08       		.sleb128 8
 7650 0ba6 0B       		.uleb128 0xb
 7651 0ba7 E00C0000 		.4byte	.LASF239
 7652 0bab 09       		.sleb128 9
ARM GAS  C:\Users\Lenovo\AppData\Local\Temp\ccKs44LO.s 			page 161


 7653 0bac 0B       		.uleb128 0xb
 7654 0bad FF150000 		.4byte	.LASF240
 7655 0bb1 0A       		.sleb128 10
 7656 0bb2 0B       		.uleb128 0xb
 7657 0bb3 4A130000 		.4byte	.LASF241
 7658 0bb7 0B       		.sleb128 11
 7659 0bb8 0B       		.uleb128 0xb
 7660 0bb9 CB120000 		.4byte	.LASF242
 7661 0bbd 25       		.sleb128 37
 7662 0bbe 0B       		.uleb128 0xb
 7663 0bbf 48140000 		.4byte	.LASF243
 7664 0bc3 26       		.sleb128 38
 7665 0bc4 0B       		.uleb128 0xb
 7666 0bc5 CE140000 		.4byte	.LASF244
 7667 0bc9 27       		.sleb128 39
 7668 0bca 0B       		.uleb128 0xb
 7669 0bcb 62190000 		.4byte	.LASF245
 7670 0bcf 2F       		.sleb128 47
 7671 0bd0 0B       		.uleb128 0xb
 7672 0bd1 49080000 		.4byte	.LASF246
 7673 0bd5 2C       		.sleb128 44
 7674 0bd6 0B       		.uleb128 0xb
 7675 0bd7 68130000 		.4byte	.LASF247
 7676 0bdb 0C       		.sleb128 12
 7677 0bdc 0B       		.uleb128 0xb
 7678 0bdd 36080000 		.4byte	.LASF248
 7679 0be1 8501     		.sleb128 133
 7680 0be3 0B       		.uleb128 0xb
 7681 0be4 8B170000 		.4byte	.LASF249
 7682 0be8 1C       		.sleb128 28
 7683 0be9 0B       		.uleb128 0xb
 7684 0bea BF190000 		.4byte	.LASF250
 7685 0bee 12       		.sleb128 18
 7686 0bef 0B       		.uleb128 0xb
 7687 0bf0 2B120000 		.4byte	.LASF251
 7688 0bf4 13       		.sleb128 19
 7689 0bf5 0B       		.uleb128 0xb
 7690 0bf6 0E1F0000 		.4byte	.LASF252
 7691 0bfa 24       		.sleb128 36
 7692 0bfb 0B       		.uleb128 0xb
 7693 0bfc 5C1C0000 		.4byte	.LASF253
 7694 0c00 0D       		.sleb128 13
 7695 0c01 0B       		.uleb128 0xb
 7696 0c02 39070000 		.4byte	.LASF254
 7697 0c06 0E       		.sleb128 14
 7698 0c07 0B       		.uleb128 0xb
 7699 0c08 E8180000 		.4byte	.LASF255
 7700 0c0c 8301     		.sleb128 131
 7701 0c0e 0B       		.uleb128 0xb
 7702 0c0f 45030000 		.4byte	.LASF256
 7703 0c13 DA00     		.sleb128 90
 7704 0c15 0B       		.uleb128 0xb
 7705 0c16 7A020000 		.4byte	.LASF257
 7706 0c1a 31       		.sleb128 49
 7707 0c1b 0B       		.uleb128 0xb
 7708 0c1c 64110000 		.4byte	.LASF258
 7709 0c20 35       		.sleb128 53
ARM GAS  C:\Users\Lenovo\AppData\Local\Temp\ccKs44LO.s 			page 162


 7710 0c21 0B       		.uleb128 0xb
 7711 0c22 1A090000 		.4byte	.LASF259
 7712 0c26 2E       		.sleb128 46
 7713 0c27 0B       		.uleb128 0xb
 7714 0c28 CC180000 		.4byte	.LASF260
 7715 0c2c 8C01     		.sleb128 140
 7716 0c2e 0B       		.uleb128 0xb
 7717 0c2f BB090000 		.4byte	.LASF261
 7718 0c33 9601     		.sleb128 150
 7719 0c35 0B       		.uleb128 0xb
 7720 0c36 E3070000 		.4byte	.LASF262
 7721 0c3a 39       		.sleb128 57
 7722 0c3b 0B       		.uleb128 0xb
 7723 0c3c 02130000 		.4byte	.LASF263
 7724 0c40 9701     		.sleb128 151
 7725 0c42 0B       		.uleb128 0xb
 7726 0c43 A71C0000 		.4byte	.LASF264
 7727 0c47 9801     		.sleb128 152
 7728 0c49 0B       		.uleb128 0xb
 7729 0c4a 14180000 		.4byte	.LASF265
 7730 0c4e 3E       		.sleb128 62
 7731 0c4f 0B       		.uleb128 0xb
 7732 0c50 94110000 		.4byte	.LASF266
 7733 0c54 3F       		.sleb128 63
 7734 0c55 0B       		.uleb128 0xb
 7735 0c56 FC070000 		.4byte	.LASF267
 7736 0c5a C000     		.sleb128 64
 7737 0c5c 0B       		.uleb128 0xb
 7738 0c5d 12200000 		.4byte	.LASF268
 7739 0c61 8D01     		.sleb128 141
 7740 0c63 0B       		.uleb128 0xb
 7741 0c64 16030000 		.4byte	.LASF269
 7742 0c68 23       		.sleb128 35
 7743 0c69 0B       		.uleb128 0xb
 7744 0c6a F2080000 		.4byte	.LASF270
 7745 0c6e 2A       		.sleb128 42
 7746 0c6f 0B       		.uleb128 0xb
 7747 0c70 851C0000 		.4byte	.LASF271
 7748 0c74 2B       		.sleb128 43
 7749 0c75 0B       		.uleb128 0xb
 7750 0c76 CD080000 		.4byte	.LASF272
 7751 0c7a 3C       		.sleb128 60
 7752 0c7b 0B       		.uleb128 0xb
 7753 0c7c 7B0E0000 		.4byte	.LASF273
 7754 0c80 C100     		.sleb128 65
 7755 0c82 0B       		.uleb128 0xb
 7756 0c83 0A0B0000 		.4byte	.LASF274
 7757 0c87 EB00     		.sleb128 107
 7758 0c89 0B       		.uleb128 0xb
 7759 0c8a 82120000 		.4byte	.LASF275
 7760 0c8e E700     		.sleb128 103
 7761 0c90 0B       		.uleb128 0xb
 7762 0c91 59050000 		.4byte	.LASF276
 7763 0c95 E400     		.sleb128 100
 7764 0c97 0B       		.uleb128 0xb
 7765 0c98 741D0000 		.4byte	.LASF277
 7766 0c9c E500     		.sleb128 101
ARM GAS  C:\Users\Lenovo\AppData\Local\Temp\ccKs44LO.s 			page 163


 7767 0c9e 0B       		.uleb128 0xb
 7768 0c9f C2100000 		.4byte	.LASF278
 7769 0ca3 9901     		.sleb128 153
 7770 0ca5 0B       		.uleb128 0xb
 7771 0ca6 D1100000 		.4byte	.LASF279
 7772 0caa 9A01     		.sleb128 154
 7773 0cac 0B       		.uleb128 0xb
 7774 0cad E0100000 		.4byte	.LASF280
 7775 0cb1 9B01     		.sleb128 155
 7776 0cb3 0B       		.uleb128 0xb
 7777 0cb4 EF100000 		.4byte	.LASF281
 7778 0cb8 9C01     		.sleb128 156
 7779 0cba 0B       		.uleb128 0xb
 7780 0cbb F9170000 		.4byte	.LASF282
 7781 0cbf FA01     		.sleb128 250
 7782 0cc1 0B       		.uleb128 0xb
 7783 0cc2 A11D0000 		.4byte	.LASF283
 7784 0cc6 FF01     		.sleb128 255
 7785 0cc8 00       		.byte	0
 7786 0cc9 0A       		.uleb128 0xa
 7787 0cca 0A080000 		.4byte	.LASF284
 7788 0cce 01       		.byte	0x1
 7789 0ccf 0B       		.byte	0xb
 7790 0cd0 6B       		.byte	0x6b
 7791 0cd1 300D0000 		.4byte	0xd30
 7792 0cd5 0B       		.uleb128 0xb
 7793 0cd6 031B0000 		.4byte	.LASF285
 7794 0cda 00       		.sleb128 0
 7795 0cdb 0B       		.uleb128 0xb
 7796 0cdc 58070000 		.4byte	.LASF286
 7797 0ce0 A001     		.sleb128 160
 7798 0ce2 0B       		.uleb128 0xb
 7799 0ce3 C5110000 		.4byte	.LASF287
 7800 0ce7 A101     		.sleb128 161
 7801 0ce9 0B       		.uleb128 0xb
 7802 0cea 281F0000 		.4byte	.LASF288
 7803 0cee A201     		.sleb128 162
 7804 0cf0 0B       		.uleb128 0xb
 7805 0cf1 76150000 		.4byte	.LASF289
 7806 0cf5 A301     		.sleb128 163
 7807 0cf7 0B       		.uleb128 0xb
 7808 0cf8 151D0000 		.4byte	.LASF290
 7809 0cfc A401     		.sleb128 164
 7810 0cfe 0B       		.uleb128 0xb
 7811 0cff 191A0000 		.4byte	.LASF291
 7812 0d03 A501     		.sleb128 165
 7813 0d05 0B       		.uleb128 0xb
 7814 0d06 A5160000 		.4byte	.LASF292
 7815 0d0a A601     		.sleb128 166
 7816 0d0c 0B       		.uleb128 0xb
 7817 0d0d 490F0000 		.4byte	.LASF293
 7818 0d11 A701     		.sleb128 167
 7819 0d13 0B       		.uleb128 0xb
 7820 0d14 9C0D0000 		.4byte	.LASF294
 7821 0d18 A801     		.sleb128 168
 7822 0d1a 0B       		.uleb128 0xb
 7823 0d1b 7D0C0000 		.4byte	.LASF295
ARM GAS  C:\Users\Lenovo\AppData\Local\Temp\ccKs44LO.s 			page 164


 7824 0d1f A901     		.sleb128 169
 7825 0d21 0B       		.uleb128 0xb
 7826 0d22 60220000 		.4byte	.LASF296
 7827 0d26 AA01     		.sleb128 170
 7828 0d28 0B       		.uleb128 0xb
 7829 0d29 9C090000 		.4byte	.LASF297
 7830 0d2d AB01     		.sleb128 171
 7831 0d2f 00       		.byte	0
 7832 0d30 1F       		.uleb128 0x1f
 7833 0d31 01       		.byte	0x1
 7834 0d32 0B       		.byte	0xb
 7835 0d33 82       		.byte	0x82
 7836 0d34 450D0000 		.4byte	0xd45
 7837 0d38 0B       		.uleb128 0xb
 7838 0d39 48000000 		.4byte	.LASF298
 7839 0d3d 00       		.sleb128 0
 7840 0d3e 0B       		.uleb128 0xb
 7841 0d3f 51000000 		.4byte	.LASF299
 7842 0d43 01       		.sleb128 1
 7843 0d44 00       		.byte	0
 7844 0d45 1F       		.uleb128 0x1f
 7845 0d46 01       		.byte	0x1
 7846 0d47 0B       		.byte	0xb
 7847 0d48 88       		.byte	0x88
 7848 0d49 5C0D0000 		.4byte	0xd5c
 7849 0d4d 0B       		.uleb128 0xb
 7850 0d4e B8020000 		.4byte	.LASF300
 7851 0d52 D600     		.sleb128 86
 7852 0d54 0B       		.uleb128 0xb
 7853 0d55 C2020000 		.4byte	.LASF301
 7854 0d59 D700     		.sleb128 87
 7855 0d5b 00       		.byte	0
 7856 0d5c 1E       		.uleb128 0x1e
 7857 0d5d 08       		.byte	0x8
 7858 0d5e 0B       		.byte	0xb
 7859 0d5f 93       		.byte	0x93
 7860 0d60 A10D0000 		.4byte	0xda1
 7861 0d64 19       		.uleb128 0x19
 7862 0d65 58060000 		.4byte	.LASF302
 7863 0d69 0B       		.byte	0xb
 7864 0d6a 95       		.byte	0x95
 7865 0d6b 81000000 		.4byte	0x81
 7866 0d6f 00       		.byte	0
 7867 0d70 19       		.uleb128 0x19
 7868 0d71 36090000 		.4byte	.LASF303
 7869 0d75 0B       		.byte	0xb
 7870 0d76 96       		.byte	0x96
 7871 0d77 81000000 		.4byte	0x81
 7872 0d7b 01       		.byte	0x1
 7873 0d7c 19       		.uleb128 0x19
 7874 0d7d 581D0000 		.4byte	.LASF304
 7875 0d81 0B       		.byte	0xb
 7876 0d82 97       		.byte	0x97
 7877 0d83 81000000 		.4byte	0x81
 7878 0d87 02       		.byte	0x2
 7879 0d88 19       		.uleb128 0x19
 7880 0d89 32210000 		.4byte	.LASF305
ARM GAS  C:\Users\Lenovo\AppData\Local\Temp\ccKs44LO.s 			page 165


 7881 0d8d 0B       		.byte	0xb
 7882 0d8e 98       		.byte	0x98
 7883 0d8f 8D000000 		.4byte	0x8d
 7884 0d93 04       		.byte	0x4
 7885 0d94 19       		.uleb128 0x19
 7886 0d95 AC0C0000 		.4byte	.LASF306
 7887 0d99 0B       		.byte	0xb
 7888 0d9a 99       		.byte	0x99
 7889 0d9b 8D000000 		.4byte	0x8d
 7890 0d9f 06       		.byte	0x6
 7891 0da0 00       		.byte	0
 7892 0da1 03       		.uleb128 0x3
 7893 0da2 14040000 		.4byte	.LASF307
 7894 0da6 0B       		.byte	0xb
 7895 0da7 9A       		.byte	0x9a
 7896 0da8 5C0D0000 		.4byte	0xd5c
 7897 0dac 03       		.uleb128 0x3
 7898 0dad 361D0000 		.4byte	.LASF308
 7899 0db1 0B       		.byte	0xb
 7900 0db2 9C       		.byte	0x9c
 7901 0db3 4D050000 		.4byte	0x54d
 7902 0db7 03       		.uleb128 0x3
 7903 0db8 10210000 		.4byte	.LASF309
 7904 0dbc 0B       		.byte	0xb
 7905 0dbd 9D       		.byte	0x9d
 7906 0dbe A7050000 		.4byte	0x5a7
 7907 0dc2 03       		.uleb128 0x3
 7908 0dc3 C10D0000 		.4byte	.LASF310
 7909 0dc7 0B       		.byte	0xb
 7910 0dc8 9E       		.byte	0x9e
 7911 0dc9 4D050000 		.4byte	0x54d
 7912 0dcd 03       		.uleb128 0x3
 7913 0dce 3C160000 		.4byte	.LASF311
 7914 0dd2 0B       		.byte	0xb
 7915 0dd3 9F       		.byte	0x9f
 7916 0dd4 4D050000 		.4byte	0x54d
 7917 0dd8 03       		.uleb128 0x3
 7918 0dd9 FF0B0000 		.4byte	.LASF312
 7919 0ddd 0B       		.byte	0xb
 7920 0dde A0       		.byte	0xa0
 7921 0ddf 4D050000 		.4byte	0x54d
 7922 0de3 03       		.uleb128 0x3
 7923 0de4 740D0000 		.4byte	.LASF313
 7924 0de8 0B       		.byte	0xb
 7925 0de9 A2       		.byte	0xa2
 7926 0dea AC0D0000 		.4byte	0xdac
 7927 0dee 03       		.uleb128 0x3
 7928 0def F9130000 		.4byte	.LASF314
 7929 0df3 0B       		.byte	0xb
 7930 0df4 A3       		.byte	0xa3
 7931 0df5 B70D0000 		.4byte	0xdb7
 7932 0df9 03       		.uleb128 0x3
 7933 0dfa A50A0000 		.4byte	.LASF315
 7934 0dfe 0B       		.byte	0xb
 7935 0dff A4       		.byte	0xa4
 7936 0e00 C20D0000 		.4byte	0xdc2
 7937 0e04 03       		.uleb128 0x3
ARM GAS  C:\Users\Lenovo\AppData\Local\Temp\ccKs44LO.s 			page 166


 7938 0e05 7F1B0000 		.4byte	.LASF316
 7939 0e09 0B       		.byte	0xb
 7940 0e0a A5       		.byte	0xa5
 7941 0e0b CD0D0000 		.4byte	0xdcd
 7942 0e0f 03       		.uleb128 0x3
 7943 0e10 0E120000 		.4byte	.LASF317
 7944 0e14 0B       		.byte	0xb
 7945 0e15 A6       		.byte	0xa6
 7946 0e16 D80D0000 		.4byte	0xdd8
 7947 0e1a 1E       		.uleb128 0x1e
 7948 0e1b 02       		.byte	0x2
 7949 0e1c 0B       		.byte	0xb
 7950 0e1d A8       		.byte	0xa8
 7951 0e1e 3B0E0000 		.4byte	0xe3b
 7952 0e22 19       		.uleb128 0x19
 7953 0e23 BC150000 		.4byte	.LASF318
 7954 0e27 0B       		.byte	0xb
 7955 0e28 AA       		.byte	0xaa
 7956 0e29 81000000 		.4byte	0x81
 7957 0e2d 00       		.byte	0
 7958 0e2e 19       		.uleb128 0x19
 7959 0e2f 87220000 		.4byte	.LASF319
 7960 0e33 0B       		.byte	0xb
 7961 0e34 AB       		.byte	0xab
 7962 0e35 81000000 		.4byte	0x81
 7963 0e39 01       		.byte	0x1
 7964 0e3a 00       		.byte	0
 7965 0e3b 03       		.uleb128 0x3
 7966 0e3c 841F0000 		.4byte	.LASF320
 7967 0e40 0B       		.byte	0xb
 7968 0e41 AC       		.byte	0xac
 7969 0e42 1A0E0000 		.4byte	0xe1a
 7970 0e46 1E       		.uleb128 0x1e
 7971 0e47 06       		.byte	0x6
 7972 0e48 0B       		.byte	0xb
 7973 0e49 AE       		.byte	0xae
 7974 0e4a 730E0000 		.4byte	0xe73
 7975 0e4e 19       		.uleb128 0x19
 7976 0e4f 07090000 		.4byte	.LASF321
 7977 0e53 0B       		.byte	0xb
 7978 0e54 B0       		.byte	0xb0
 7979 0e55 81000000 		.4byte	0x81
 7980 0e59 00       		.byte	0
 7981 0e5a 19       		.uleb128 0x19
 7982 0e5b 9E0B0000 		.4byte	.LASF322
 7983 0e5f 0B       		.byte	0xb
 7984 0e60 B1       		.byte	0xb1
 7985 0e61 8D000000 		.4byte	0x8d
 7986 0e65 02       		.byte	0x2
 7987 0e66 19       		.uleb128 0x19
 7988 0e67 F0160000 		.4byte	.LASF323
 7989 0e6b 0B       		.byte	0xb
 7990 0e6c B2       		.byte	0xb2
 7991 0e6d 81000000 		.4byte	0x81
 7992 0e71 04       		.byte	0x4
 7993 0e72 00       		.byte	0
 7994 0e73 03       		.uleb128 0x3
ARM GAS  C:\Users\Lenovo\AppData\Local\Temp\ccKs44LO.s 			page 167


 7995 0e74 AB210000 		.4byte	.LASF324
 7996 0e78 0B       		.byte	0xb
 7997 0e79 B3       		.byte	0xb3
 7998 0e7a 460E0000 		.4byte	0xe46
 7999 0e7e 1E       		.uleb128 0x1e
 8000 0e7f 0E       		.byte	0xe
 8001 0e80 0B       		.byte	0xb
 8002 0e81 B5       		.byte	0xb5
 8003 0e82 B70E0000 		.4byte	0xeb7
 8004 0e86 19       		.uleb128 0x19
 8005 0e87 89040000 		.4byte	.LASF325
 8006 0e8b 0B       		.byte	0xb
 8007 0e8c B7       		.byte	0xb7
 8008 0e8d 8D000000 		.4byte	0x8d
 8009 0e91 00       		.byte	0
 8010 0e92 19       		.uleb128 0x19
 8011 0e93 0B020000 		.4byte	.LASF326
 8012 0e97 0B       		.byte	0xb
 8013 0e98 B8       		.byte	0xb8
 8014 0e99 8D000000 		.4byte	0x8d
 8015 0e9d 02       		.byte	0x2
 8016 0e9e 19       		.uleb128 0x19
 8017 0e9f 51160000 		.4byte	.LASF327
 8018 0ea3 0B       		.byte	0xb
 8019 0ea4 B9       		.byte	0xb9
 8020 0ea5 81000000 		.4byte	0x81
 8021 0ea9 04       		.byte	0x4
 8022 0eaa 19       		.uleb128 0x19
 8023 0eab 91100000 		.4byte	.LASF328
 8024 0eaf 0B       		.byte	0xb
 8025 0eb0 BB       		.byte	0xbb
 8026 0eb1 A10D0000 		.4byte	0xda1
 8027 0eb5 06       		.byte	0x6
 8028 0eb6 00       		.byte	0
 8029 0eb7 03       		.uleb128 0x3
 8030 0eb8 E4120000 		.4byte	.LASF329
 8031 0ebc 0B       		.byte	0xb
 8032 0ebd BC       		.byte	0xbc
 8033 0ebe 7E0E0000 		.4byte	0xe7e
 8034 0ec2 1E       		.uleb128 0x1e
 8035 0ec3 44       		.byte	0x44
 8036 0ec4 0B       		.byte	0xb
 8037 0ec5 C0       		.byte	0xc0
 8038 0ec6 7F0F0000 		.4byte	0xf7f
 8039 0eca 19       		.uleb128 0x19
 8040 0ecb 54040000 		.4byte	.LASF330
 8041 0ecf 0B       		.byte	0xb
 8042 0ed0 C3       		.byte	0xc3
 8043 0ed1 81000000 		.4byte	0x81
 8044 0ed5 00       		.byte	0
 8045 0ed6 19       		.uleb128 0x19
 8046 0ed7 630A0000 		.4byte	.LASF331
 8047 0edb 0B       		.byte	0xb
 8048 0edc C5       		.byte	0xc5
 8049 0edd 81000000 		.4byte	0x81
 8050 0ee1 01       		.byte	0x1
 8051 0ee2 19       		.uleb128 0x19
ARM GAS  C:\Users\Lenovo\AppData\Local\Temp\ccKs44LO.s 			page 168


 8052 0ee3 DA090000 		.4byte	.LASF332
 8053 0ee7 0B       		.byte	0xb
 8054 0ee8 C7       		.byte	0xc7
 8055 0ee9 81000000 		.4byte	0x81
 8056 0eed 02       		.byte	0x2
 8057 0eee 19       		.uleb128 0x19
 8058 0eef F3200000 		.4byte	.LASF333
 8059 0ef3 0B       		.byte	0xb
 8060 0ef4 C9       		.byte	0xc9
 8061 0ef5 8D000000 		.4byte	0x8d
 8062 0ef9 04       		.byte	0x4
 8063 0efa 19       		.uleb128 0x19
 8064 0efb A9100000 		.4byte	.LASF334
 8065 0eff 0B       		.byte	0xb
 8066 0f00 CB       		.byte	0xcb
 8067 0f01 81000000 		.4byte	0x81
 8068 0f05 06       		.byte	0x6
 8069 0f06 19       		.uleb128 0x19
 8070 0f07 6A0C0000 		.4byte	.LASF335
 8071 0f0b 0B       		.byte	0xb
 8072 0f0c CE       		.byte	0xce
 8073 0f0d 7F0F0000 		.4byte	0xf7f
 8074 0f11 07       		.byte	0x7
 8075 0f12 19       		.uleb128 0x19
 8076 0f13 CA160000 		.4byte	.LASF336
 8077 0f17 0B       		.byte	0xb
 8078 0f18 CF       		.byte	0xcf
 8079 0f19 7F0F0000 		.4byte	0xf7f
 8080 0f1d 0D       		.byte	0xd
 8081 0f1e 19       		.uleb128 0x19
 8082 0f1f 0C140000 		.4byte	.LASF337
 8083 0f23 0B       		.byte	0xb
 8084 0f24 D2       		.byte	0xd2
 8085 0f25 7F0F0000 		.4byte	0xf7f
 8086 0f29 13       		.byte	0x13
 8087 0f2a 19       		.uleb128 0x19
 8088 0f2b 001D0000 		.4byte	.LASF338
 8089 0f2f 0B       		.byte	0xb
 8090 0f30 D3       		.byte	0xd3
 8091 0f31 7F0F0000 		.4byte	0xf7f
 8092 0f35 19       		.byte	0x19
 8093 0f36 19       		.uleb128 0x19
 8094 0f37 03120000 		.4byte	.LASF339
 8095 0f3b 0B       		.byte	0xb
 8096 0f3c D5       		.byte	0xd5
 8097 0f3d AC0D0000 		.4byte	0xdac
 8098 0f41 20       		.byte	0x20
 8099 0f42 19       		.uleb128 0x19
 8100 0f43 481A0000 		.4byte	.LASF340
 8101 0f47 0B       		.byte	0xb
 8102 0f48 D8       		.byte	0xd8
 8103 0f49 C20D0000 		.4byte	0xdc2
 8104 0f4d 24       		.byte	0x24
 8105 0f4e 19       		.uleb128 0x19
 8106 0f4f 95010000 		.4byte	.LASF341
 8107 0f53 0B       		.byte	0xb
 8108 0f54 DA       		.byte	0xda
ARM GAS  C:\Users\Lenovo\AppData\Local\Temp\ccKs44LO.s 			page 169


 8109 0f55 B70D0000 		.4byte	0xdb7
 8110 0f59 28       		.byte	0x28
 8111 0f5a 19       		.uleb128 0x19
 8112 0f5b E71A0000 		.4byte	.LASF342
 8113 0f5f 0B       		.byte	0xb
 8114 0f60 DC       		.byte	0xdc
 8115 0f61 B70E0000 		.4byte	0xeb7
 8116 0f65 2C       		.byte	0x2c
 8117 0f66 19       		.uleb128 0x19
 8118 0f67 79190000 		.4byte	.LASF343
 8119 0f6b 0B       		.byte	0xb
 8120 0f6c DE       		.byte	0xde
 8121 0f6d CD0D0000 		.4byte	0xdcd
 8122 0f71 3C       		.byte	0x3c
 8123 0f72 19       		.uleb128 0x19
 8124 0f73 8E0A0000 		.4byte	.LASF344
 8125 0f77 0B       		.byte	0xb
 8126 0f78 E0       		.byte	0xe0
 8127 0f79 D80D0000 		.4byte	0xdd8
 8128 0f7d 40       		.byte	0x40
 8129 0f7e 00       		.byte	0
 8130 0f7f 0F       		.uleb128 0xf
 8131 0f80 81000000 		.4byte	0x81
 8132 0f84 8F0F0000 		.4byte	0xf8f
 8133 0f88 10       		.uleb128 0x10
 8134 0f89 F4000000 		.4byte	0xf4
 8135 0f8d 05       		.byte	0x5
 8136 0f8e 00       		.byte	0
 8137 0f8f 03       		.uleb128 0x3
 8138 0f90 E41F0000 		.4byte	.LASF345
 8139 0f94 0B       		.byte	0xb
 8140 0f95 E1       		.byte	0xe1
 8141 0f96 C20E0000 		.4byte	0xec2
 8142 0f9a 03       		.uleb128 0x3
 8143 0f9b 40100000 		.4byte	.LASF346
 8144 0f9f 0B       		.byte	0xb
 8145 0fa0 E1       		.byte	0xe1
 8146 0fa1 A50F0000 		.4byte	0xfa5
 8147 0fa5 07       		.uleb128 0x7
 8148 0fa6 04       		.byte	0x4
 8149 0fa7 C20E0000 		.4byte	0xec2
 8150 0fab 1E       		.uleb128 0x1e
 8151 0fac 16       		.byte	0x16
 8152 0fad 0B       		.byte	0xb
 8153 0fae E5       		.byte	0xe5
 8154 0faf E40F0000 		.4byte	0xfe4
 8155 0fb3 19       		.uleb128 0x19
 8156 0fb4 791B0000 		.4byte	.LASF347
 8157 0fb8 0B       		.byte	0xb
 8158 0fb9 E7       		.byte	0xe7
 8159 0fba 8D000000 		.4byte	0x8d
 8160 0fbe 00       		.byte	0
 8161 0fbf 19       		.uleb128 0x19
 8162 0fc0 FE090000 		.4byte	.LASF348
 8163 0fc4 0B       		.byte	0xb
 8164 0fc5 E8       		.byte	0xe8
 8165 0fc6 8D000000 		.4byte	0x8d
ARM GAS  C:\Users\Lenovo\AppData\Local\Temp\ccKs44LO.s 			page 170


 8166 0fca 02       		.byte	0x2
 8167 0fcb 19       		.uleb128 0x19
 8168 0fcc DB010000 		.4byte	.LASF349
 8169 0fd0 0B       		.byte	0xb
 8170 0fd1 E9       		.byte	0xe9
 8171 0fd2 81000000 		.4byte	0x81
 8172 0fd6 04       		.byte	0x4
 8173 0fd7 19       		.uleb128 0x19
 8174 0fd8 8E050000 		.4byte	.LASF35
 8175 0fdc 0B       		.byte	0xb
 8176 0fdd EA       		.byte	0xea
 8177 0fde E40F0000 		.4byte	0xfe4
 8178 0fe2 05       		.byte	0x5
 8179 0fe3 00       		.byte	0
 8180 0fe4 0F       		.uleb128 0xf
 8181 0fe5 CB000000 		.4byte	0xcb
 8182 0fe9 F40F0000 		.4byte	0xff4
 8183 0fed 10       		.uleb128 0x10
 8184 0fee F4000000 		.4byte	0xf4
 8185 0ff2 0F       		.byte	0xf
 8186 0ff3 00       		.byte	0
 8187 0ff4 03       		.uleb128 0x3
 8188 0ff5 56150000 		.4byte	.LASF350
 8189 0ff9 0B       		.byte	0xb
 8190 0ffa EC       		.byte	0xec
 8191 0ffb AB0F0000 		.4byte	0xfab
 8192 0fff 1E       		.uleb128 0x1e
 8193 1000 3C       		.byte	0x3c
 8194 1001 0B       		.byte	0xb
 8195 1002 EE       		.byte	0xee
 8196 1003 E5100000 		.4byte	0x10e5
 8197 1007 19       		.uleb128 0x19
 8198 1008 00000000 		.4byte	.LASF351
 8199 100c 0B       		.byte	0xb
 8200 100d F0       		.byte	0xf0
 8201 100e 81000000 		.4byte	0x81
 8202 1012 00       		.byte	0
 8203 1013 19       		.uleb128 0x19
 8204 1014 DA130000 		.4byte	.LASF352
 8205 1018 0B       		.byte	0xb
 8206 1019 F1       		.byte	0xf1
 8207 101a 81000000 		.4byte	0x81
 8208 101e 01       		.byte	0x1
 8209 101f 19       		.uleb128 0x19
 8210 1020 C7000000 		.4byte	.LASF353
 8211 1024 0B       		.byte	0xb
 8212 1025 F2       		.byte	0xf2
 8213 1026 81000000 		.4byte	0x81
 8214 102a 02       		.byte	0x2
 8215 102b 19       		.uleb128 0x19
 8216 102c 6E0E0000 		.4byte	.LASF354
 8217 1030 0B       		.byte	0xb
 8218 1031 F3       		.byte	0xf3
 8219 1032 81000000 		.4byte	0x81
 8220 1036 03       		.byte	0x3
 8221 1037 19       		.uleb128 0x19
 8222 1038 230F0000 		.4byte	.LASF355
ARM GAS  C:\Users\Lenovo\AppData\Local\Temp\ccKs44LO.s 			page 171


 8223 103c 0B       		.byte	0xb
 8224 103d F4       		.byte	0xf4
 8225 103e 81000000 		.4byte	0x81
 8226 1042 04       		.byte	0x4
 8227 1043 19       		.uleb128 0x19
 8228 1044 76100000 		.4byte	.LASF356
 8229 1048 0B       		.byte	0xb
 8230 1049 F5       		.byte	0xf5
 8231 104a 81000000 		.4byte	0x81
 8232 104e 05       		.byte	0x5
 8233 104f 19       		.uleb128 0x19
 8234 1050 04150000 		.4byte	.LASF357
 8235 1054 0B       		.byte	0xb
 8236 1055 F6       		.byte	0xf6
 8237 1056 8D000000 		.4byte	0x8d
 8238 105a 06       		.byte	0x6
 8239 105b 19       		.uleb128 0x19
 8240 105c D2050000 		.4byte	.LASF358
 8241 1060 0B       		.byte	0xb
 8242 1061 F7       		.byte	0xf7
 8243 1062 8D000000 		.4byte	0x8d
 8244 1066 08       		.byte	0x8
 8245 1067 19       		.uleb128 0x19
 8246 1068 A9100000 		.4byte	.LASF334
 8247 106c 0B       		.byte	0xb
 8248 106d F8       		.byte	0xf8
 8249 106e 81000000 		.4byte	0x81
 8250 1072 0A       		.byte	0xa
 8251 1073 19       		.uleb128 0x19
 8252 1074 F40C0000 		.4byte	.LASF359
 8253 1078 0B       		.byte	0xb
 8254 1079 FA       		.byte	0xfa
 8255 107a 81000000 		.4byte	0x81
 8256 107e 0B       		.byte	0xb
 8257 107f 19       		.uleb128 0x19
 8258 1080 22160000 		.4byte	.LASF360
 8259 1084 0B       		.byte	0xb
 8260 1085 FB       		.byte	0xfb
 8261 1086 81000000 		.4byte	0x81
 8262 108a 0C       		.byte	0xc
 8263 108b 19       		.uleb128 0x19
 8264 108c 43170000 		.4byte	.LASF361
 8265 1090 0B       		.byte	0xb
 8266 1091 FD       		.byte	0xfd
 8267 1092 FF020000 		.4byte	0x2ff
 8268 1096 0D       		.byte	0xd
 8269 1097 19       		.uleb128 0x19
 8270 1098 1A060000 		.4byte	.LASF362
 8271 109c 0B       		.byte	0xb
 8272 109d FF       		.byte	0xff
 8273 109e E5100000 		.4byte	0x10e5
 8274 10a2 10       		.byte	0x10
 8275 10a3 0D       		.uleb128 0xd
 8276 10a4 A90B0000 		.4byte	.LASF363
 8277 10a8 0B       		.byte	0xb
 8278 10a9 0001     		.2byte	0x100
 8279 10ab E5100000 		.4byte	0x10e5
ARM GAS  C:\Users\Lenovo\AppData\Local\Temp\ccKs44LO.s 			page 172


 8280 10af 14       		.byte	0x14
 8281 10b0 0D       		.uleb128 0xd
 8282 10b1 250C0000 		.4byte	.LASF364
 8283 10b5 0B       		.byte	0xb
 8284 10b6 0101     		.2byte	0x101
 8285 10b8 F40F0000 		.4byte	0xff4
 8286 10bc 18       		.byte	0x18
 8287 10bd 0D       		.uleb128 0xd
 8288 10be 03220000 		.4byte	.LASF365
 8289 10c2 0B       		.byte	0xb
 8290 10c3 0301     		.2byte	0x103
 8291 10c5 FB000000 		.4byte	0xfb
 8292 10c9 30       		.byte	0x30
 8293 10ca 0D       		.uleb128 0xd
 8294 10cb 8D110000 		.4byte	.LASF177
 8295 10cf 0B       		.byte	0xb
 8296 10d0 0401     		.2byte	0x104
 8297 10d2 FB000000 		.4byte	0xfb
 8298 10d6 34       		.byte	0x34
 8299 10d7 0D       		.uleb128 0xd
 8300 10d8 39130000 		.4byte	.LASF366
 8301 10dc 0B       		.byte	0xb
 8302 10dd 0601     		.2byte	0x106
 8303 10df A7050000 		.4byte	0x5a7
 8304 10e3 38       		.byte	0x38
 8305 10e4 00       		.byte	0
 8306 10e5 07       		.uleb128 0x7
 8307 10e6 04       		.byte	0x4
 8308 10e7 8F0F0000 		.4byte	0xf8f
 8309 10eb 05       		.uleb128 0x5
 8310 10ec F51A0000 		.4byte	.LASF367
 8311 10f0 0B       		.byte	0xb
 8312 10f1 0801     		.2byte	0x108
 8313 10f3 FF0F0000 		.4byte	0xfff
 8314 10f7 05       		.uleb128 0x5
 8315 10f8 97070000 		.4byte	.LASF368
 8316 10fc 0B       		.byte	0xb
 8317 10fd 0801     		.2byte	0x108
 8318 10ff 03110000 		.4byte	0x1103
 8319 1103 07       		.uleb128 0x7
 8320 1104 04       		.byte	0x4
 8321 1105 FF0F0000 		.4byte	0xfff
 8322 1109 0F       		.uleb128 0xf
 8323 110a CB000000 		.4byte	0xcb
 8324 110e 19110000 		.4byte	0x1119
 8325 1112 10       		.uleb128 0x10
 8326 1113 F4000000 		.4byte	0xf4
 8327 1117 03       		.byte	0x3
 8328 1118 00       		.byte	0
 8329 1119 0A       		.uleb128 0xa
 8330 111a E5050000 		.4byte	.LASF369
 8331 111e 02       		.byte	0x2
 8332 111f 0C       		.byte	0xc
 8333 1120 2A       		.byte	0x2a
 8334 1121 3D120000 		.4byte	0x123d
 8335 1125 0B       		.uleb128 0xb
 8336 1126 19010000 		.4byte	.LASF370
ARM GAS  C:\Users\Lenovo\AppData\Local\Temp\ccKs44LO.s 			page 173


 8337 112a 00       		.sleb128 0
 8338 112b 0B       		.uleb128 0xb
 8339 112c 2A030000 		.4byte	.LASF371
 8340 1130 C000     		.sleb128 64
 8341 1132 0B       		.uleb128 0xb
 8342 1133 44010000 		.4byte	.LASF372
 8343 1137 8001     		.sleb128 128
 8344 1139 0B       		.uleb128 0xb
 8345 113a 5F010000 		.4byte	.LASF373
 8346 113e C001     		.sleb128 192
 8347 1140 0B       		.uleb128 0xb
 8348 1141 7A010000 		.4byte	.LASF374
 8349 1145 8002     		.sleb128 256
 8350 1147 0B       		.uleb128 0xb
 8351 1148 8D150000 		.4byte	.LASF375
 8352 114c C002     		.sleb128 320
 8353 114e 0B       		.uleb128 0xb
 8354 114f A5010000 		.4byte	.LASF376
 8355 1153 8003     		.sleb128 384
 8356 1155 0B       		.uleb128 0xb
 8357 1156 C0010000 		.4byte	.LASF377
 8358 115a C003     		.sleb128 448
 8359 115c 0B       		.uleb128 0xb
 8360 115d A3040000 		.4byte	.LASF378
 8361 1161 8004     		.sleb128 512
 8362 1163 0B       		.uleb128 0xb
 8363 1164 D5060000 		.4byte	.LASF379
 8364 1168 C004     		.sleb128 576
 8365 116a 0B       		.uleb128 0xb
 8366 116b 81200000 		.4byte	.LASF380
 8367 116f 8005     		.sleb128 640
 8368 1171 0B       		.uleb128 0xb
 8369 1172 080D0000 		.4byte	.LASF381
 8370 1176 C005     		.sleb128 704
 8371 1178 0B       		.uleb128 0xb
 8372 1179 E2030000 		.4byte	.LASF382
 8373 117d 8006     		.sleb128 768
 8374 117f 0B       		.uleb128 0xb
 8375 1180 C60B0000 		.4byte	.LASF383
 8376 1184 C006     		.sleb128 832
 8377 1186 0B       		.uleb128 0xb
 8378 1187 C2210000 		.4byte	.LASF384
 8379 118b 8007     		.sleb128 896
 8380 118d 0B       		.uleb128 0xb
 8381 118e 16100000 		.4byte	.LASF385
 8382 1192 C007     		.sleb128 960
 8383 1194 0B       		.uleb128 0xb
 8384 1195 F8060000 		.4byte	.LASF386
 8385 1199 8008     		.sleb128 1024
 8386 119b 0B       		.uleb128 0xb
 8387 119c D4190000 		.4byte	.LASF387
 8388 11a0 C008     		.sleb128 1088
 8389 11a2 0B       		.uleb128 0xb
 8390 11a3 BF1F0000 		.4byte	.LASF388
 8391 11a7 8009     		.sleb128 1152
 8392 11a9 0B       		.uleb128 0xb
 8393 11aa B30E0000 		.4byte	.LASF389
ARM GAS  C:\Users\Lenovo\AppData\Local\Temp\ccKs44LO.s 			page 174


 8394 11ae C009     		.sleb128 1216
 8395 11b0 0B       		.uleb128 0xb
 8396 11b1 8E0F0000 		.4byte	.LASF390
 8397 11b5 800A     		.sleb128 1280
 8398 11b7 0B       		.uleb128 0xb
 8399 11b8 AC0F0000 		.4byte	.LASF391
 8400 11bc C00A     		.sleb128 1344
 8401 11be 0B       		.uleb128 0xb
 8402 11bf CA0F0000 		.4byte	.LASF392
 8403 11c3 800B     		.sleb128 1408
 8404 11c5 0B       		.uleb128 0xb
 8405 11c6 E80F0000 		.4byte	.LASF393
 8406 11ca C00B     		.sleb128 1472
 8407 11cc 0B       		.uleb128 0xb
 8408 11cd 96190000 		.4byte	.LASF394
 8409 11d1 800C     		.sleb128 1536
 8410 11d3 0B       		.uleb128 0xb
 8411 11d4 5B040000 		.4byte	.LASF395
 8412 11d8 C00C     		.sleb128 1600
 8413 11da 0B       		.uleb128 0xb
 8414 11db 93080000 		.4byte	.LASF396
 8415 11df 800D     		.sleb128 1664
 8416 11e1 0B       		.uleb128 0xb
 8417 11e2 96050000 		.4byte	.LASF397
 8418 11e6 C00D     		.sleb128 1728
 8419 11e8 0B       		.uleb128 0xb
 8420 11e9 D0170000 		.4byte	.LASF398
 8421 11ed 800E     		.sleb128 1792
 8422 11ef 0B       		.uleb128 0xb
 8423 11f0 18230000 		.4byte	.LASF399
 8424 11f4 C00E     		.sleb128 1856
 8425 11f6 0B       		.uleb128 0xb
 8426 11f7 410C0000 		.4byte	.LASF400
 8427 11fb 800F     		.sleb128 1920
 8428 11fd 0B       		.uleb128 0xb
 8429 11fe 1D040000 		.4byte	.LASF401
 8430 1202 C00F     		.sleb128 1984
 8431 1204 0B       		.uleb128 0xb
 8432 1205 72160000 		.4byte	.LASF402
 8433 1209 8010     		.sleb128 2048
 8434 120b 0B       		.uleb128 0xb
 8435 120c 1F140000 		.4byte	.LASF403
 8436 1210 C010     		.sleb128 2112
 8437 1212 0B       		.uleb128 0xb
 8438 1213 16050000 		.4byte	.LASF404
 8439 1217 8011     		.sleb128 2176
 8440 1219 0B       		.uleb128 0xb
 8441 121a 8F020000 		.4byte	.LASF405
 8442 121e C011     		.sleb128 2240
 8443 1220 0B       		.uleb128 0xb
 8444 1221 27150000 		.4byte	.LASF406
 8445 1225 8012     		.sleb128 2304
 8446 1227 0B       		.uleb128 0xb
 8447 1228 48120000 		.4byte	.LASF407
 8448 122c C012     		.sleb128 2368
 8449 122e 0B       		.uleb128 0xb
 8450 122f 5D030000 		.4byte	.LASF408
ARM GAS  C:\Users\Lenovo\AppData\Local\Temp\ccKs44LO.s 			page 175


 8451 1233 8013     		.sleb128 2432
 8452 1235 0B       		.uleb128 0xb
 8453 1236 69000000 		.4byte	.LASF409
 8454 123a C013     		.sleb128 2496
 8455 123c 00       		.byte	0
 8456 123d 20       		.uleb128 0x20
 8457 123e B8180000 		.4byte	.LASF423
 8458 1242 01       		.byte	0x1
 8459 1243 26       		.byte	0x26
 8460 1244 8D000000 		.4byte	0x8d
 8461 1248 00000000 		.4byte	.LFB63
 8462 124c 38010000 		.4byte	.LFE63-.LFB63
 8463 1250 01       		.uleb128 0x1
 8464 1251 9C       		.byte	0x9c
 8465 1252 DF120000 		.4byte	0x12df
 8466 1256 21       		.uleb128 0x21
 8467 1257 050B0000 		.4byte	.LASF410
 8468 125b 01       		.byte	0x1
 8469 125c 26       		.byte	0x26
 8470 125d 8D000000 		.4byte	0x8d
 8471 1261 02       		.uleb128 0x2
 8472 1262 91       		.byte	0x91
 8473 1263 66       		.sleb128 -26
 8474 1264 21       		.uleb128 0x21
 8475 1265 431C0000 		.4byte	.LASF411
 8476 1269 01       		.byte	0x1
 8477 126a 26       		.byte	0x26
 8478 126b 8D000000 		.4byte	0x8d
 8479 126f 02       		.uleb128 0x2
 8480 1270 91       		.byte	0x91
 8481 1271 64       		.sleb128 -28
 8482 1272 21       		.uleb128 0x21
 8483 1273 920C0000 		.4byte	.LASF412
 8484 1277 01       		.byte	0x1
 8485 1278 26       		.byte	0x26
 8486 1279 FD000000 		.4byte	0xfd
 8487 127d 02       		.uleb128 0x2
 8488 127e 91       		.byte	0x91
 8489 127f 60       		.sleb128 -32
 8490 1280 21       		.uleb128 0x21
 8491 1281 B1130000 		.4byte	.LASF413
 8492 1285 01       		.byte	0x1
 8493 1286 26       		.byte	0x26
 8494 1287 0A010000 		.4byte	0x10a
 8495 128b 02       		.uleb128 0x2
 8496 128c 91       		.byte	0x91
 8497 128d 5C       		.sleb128 -36
 8498 128e 21       		.uleb128 0x21
 8499 128f F4150000 		.4byte	.LASF414
 8500 1293 01       		.byte	0x1
 8501 1294 26       		.byte	0x26
 8502 1295 8D000000 		.4byte	0x8d
 8503 1299 02       		.uleb128 0x2
 8504 129a 91       		.byte	0x91
 8505 129b 00       		.sleb128 0
 8506 129c 21       		.uleb128 0x21
 8507 129d EA200000 		.4byte	.LASF415
ARM GAS  C:\Users\Lenovo\AppData\Local\Temp\ccKs44LO.s 			page 176


 8508 12a1 01       		.byte	0x1
 8509 12a2 26       		.byte	0x26
 8510 12a3 A10D0000 		.4byte	0xda1
 8511 12a7 02       		.uleb128 0x2
 8512 12a8 91       		.byte	0x91
 8513 12a9 04       		.sleb128 4
 8514 12aa 22       		.uleb128 0x22
 8515 12ab 41120000 		.4byte	.LASF416
 8516 12af 01       		.byte	0x1
 8517 12b0 28       		.byte	0x28
 8518 12b1 8D000000 		.4byte	0x8d
 8519 12b5 02       		.uleb128 0x2
 8520 12b6 91       		.byte	0x91
 8521 12b7 76       		.sleb128 -10
 8522 12b8 23       		.uleb128 0x23
 8523 12b9 1E000000 		.4byte	.LBB2
 8524 12bd 0C010000 		.4byte	.LBE2-.LBB2
 8525 12c1 22       		.uleb128 0x22
 8526 12c2 3D210000 		.4byte	.LASF417
 8527 12c6 01       		.byte	0x1
 8528 12c7 2B       		.byte	0x2b
 8529 12c8 DF120000 		.4byte	0x12df
 8530 12cc 02       		.uleb128 0x2
 8531 12cd 91       		.byte	0x91
 8532 12ce 70       		.sleb128 -16
 8533 12cf 22       		.uleb128 0x22
 8534 12d0 BA1F0000 		.4byte	.LASF418
 8535 12d4 01       		.byte	0x1
 8536 12d5 3B       		.byte	0x3b
 8537 12d6 EF120000 		.4byte	0x12ef
 8538 12da 02       		.uleb128 0x2
 8539 12db 91       		.byte	0x91
 8540 12dc 68       		.sleb128 -24
 8541 12dd 00       		.byte	0
 8542 12de 00       		.byte	0
 8543 12df 0F       		.uleb128 0xf
 8544 12e0 CB000000 		.4byte	0xcb
 8545 12e4 EF120000 		.4byte	0x12ef
 8546 12e8 10       		.uleb128 0x10
 8547 12e9 F4000000 		.4byte	0xf4
 8548 12ed 05       		.byte	0x5
 8549 12ee 00       		.byte	0
 8550 12ef 0F       		.uleb128 0xf
 8551 12f0 CB000000 		.4byte	0xcb
 8552 12f4 FF120000 		.4byte	0x12ff
 8553 12f8 10       		.uleb128 0x10
 8554 12f9 F4000000 		.4byte	0xf4
 8555 12fd 06       		.byte	0x6
 8556 12fe 00       		.byte	0
 8557 12ff 24       		.uleb128 0x24
 8558 1300 BC080000 		.4byte	.LASF437
 8559 1304 01       		.byte	0x1
 8560 1305 50       		.byte	0x50
 8561 1306 00000000 		.4byte	.LFB64
 8562 130a A6000000 		.4byte	.LFE64-.LFB64
 8563 130e 01       		.uleb128 0x1
 8564 130f 9C       		.byte	0x9c
ARM GAS  C:\Users\Lenovo\AppData\Local\Temp\ccKs44LO.s 			page 177


 8565 1310 57130000 		.4byte	0x1357
 8566 1314 21       		.uleb128 0x21
 8567 1315 84170000 		.4byte	.LASF419
 8568 1319 01       		.byte	0x1
 8569 131a 50       		.byte	0x50
 8570 131b FB000000 		.4byte	0xfb
 8571 131f 02       		.uleb128 0x2
 8572 1320 91       		.byte	0x91
 8573 1321 64       		.sleb128 -28
 8574 1322 22       		.uleb128 0x22
 8575 1323 11090000 		.4byte	.LASF420
 8576 1327 01       		.byte	0x1
 8577 1328 52       		.byte	0x52
 8578 1329 F7100000 		.4byte	0x10f7
 8579 132d 02       		.uleb128 0x2
 8580 132e 91       		.byte	0x91
 8581 132f 6C       		.sleb128 -20
 8582 1330 22       		.uleb128 0x22
 8583 1331 3C090000 		.4byte	.LASF421
 8584 1335 01       		.byte	0x1
 8585 1336 53       		.byte	0x53
 8586 1337 9A0F0000 		.4byte	0xf9a
 8587 133b 02       		.uleb128 0x2
 8588 133c 91       		.byte	0x91
 8589 133d 74       		.sleb128 -12
 8590 133e 23       		.uleb128 0x23
 8591 133f 3E000000 		.4byte	.LBB3
 8592 1343 50000000 		.4byte	.LBE3-.LBB3
 8593 1347 22       		.uleb128 0x22
 8594 1348 3A0F0000 		.4byte	.LASF422
 8595 134c 01       		.byte	0x1
 8596 134d 5A       		.byte	0x5a
 8597 134e 81000000 		.4byte	0x81
 8598 1352 02       		.uleb128 0x2
 8599 1353 91       		.byte	0x91
 8600 1354 73       		.sleb128 -13
 8601 1355 00       		.byte	0
 8602 1356 00       		.byte	0
 8603 1357 25       		.uleb128 0x25
 8604 1358 A4170000 		.4byte	.LASF424
 8605 135c 01       		.byte	0x1
 8606 135d 71       		.byte	0x71
 8607 135e 4D050000 		.4byte	0x54d
 8608 1362 00000000 		.4byte	.LFB65
 8609 1366 66000000 		.4byte	.LFE65-.LFB65
 8610 136a 01       		.uleb128 0x1
 8611 136b 9C       		.byte	0x9c
 8612 136c A9130000 		.4byte	0x13a9
 8613 1370 21       		.uleb128 0x21
 8614 1371 84170000 		.4byte	.LASF419
 8615 1375 01       		.byte	0x1
 8616 1376 71       		.byte	0x71
 8617 1377 FB000000 		.4byte	0xfb
 8618 137b 02       		.uleb128 0x2
 8619 137c 91       		.byte	0x91
 8620 137d 64       		.sleb128 -28
 8621 137e 22       		.uleb128 0x22
ARM GAS  C:\Users\Lenovo\AppData\Local\Temp\ccKs44LO.s 			page 178


 8622 137f FE100000 		.4byte	.LASF425
 8623 1383 01       		.byte	0x1
 8624 1384 73       		.byte	0x73
 8625 1385 F90D0000 		.4byte	0xdf9
 8626 1389 02       		.uleb128 0x2
 8627 138a 91       		.byte	0x91
 8628 138b 74       		.sleb128 -12
 8629 138c 22       		.uleb128 0x22
 8630 138d 11090000 		.4byte	.LASF420
 8631 1391 01       		.byte	0x1
 8632 1392 74       		.byte	0x74
 8633 1393 F7100000 		.4byte	0x10f7
 8634 1397 02       		.uleb128 0x2
 8635 1398 91       		.byte	0x91
 8636 1399 6C       		.sleb128 -20
 8637 139a 22       		.uleb128 0x22
 8638 139b 3C090000 		.4byte	.LASF421
 8639 139f 01       		.byte	0x1
 8640 13a0 75       		.byte	0x75
 8641 13a1 9A0F0000 		.4byte	0xf9a
 8642 13a5 02       		.uleb128 0x2
 8643 13a6 91       		.byte	0x91
 8644 13a7 70       		.sleb128 -16
 8645 13a8 00       		.byte	0
 8646 13a9 25       		.uleb128 0x25
 8647 13aa B4140000 		.4byte	.LASF426
 8648 13ae 01       		.byte	0x1
 8649 13af 87       		.byte	0x87
 8650 13b0 A7050000 		.4byte	0x5a7
 8651 13b4 00000000 		.4byte	.LFB66
 8652 13b8 66000000 		.4byte	.LFE66-.LFB66
 8653 13bc 01       		.uleb128 0x1
 8654 13bd 9C       		.byte	0x9c
 8655 13be FB130000 		.4byte	0x13fb
 8656 13c2 21       		.uleb128 0x21
 8657 13c3 84170000 		.4byte	.LASF419
 8658 13c7 01       		.byte	0x1
 8659 13c8 87       		.byte	0x87
 8660 13c9 FB000000 		.4byte	0xfb
 8661 13cd 02       		.uleb128 0x2
 8662 13ce 91       		.byte	0x91
 8663 13cf 64       		.sleb128 -28
 8664 13d0 22       		.uleb128 0x22
 8665 13d1 FE100000 		.4byte	.LASF425
 8666 13d5 01       		.byte	0x1
 8667 13d6 89       		.byte	0x89
 8668 13d7 EE0D0000 		.4byte	0xdee
 8669 13db 02       		.uleb128 0x2
 8670 13dc 91       		.byte	0x91
 8671 13dd 74       		.sleb128 -12
 8672 13de 22       		.uleb128 0x22
 8673 13df 11090000 		.4byte	.LASF420
 8674 13e3 01       		.byte	0x1
 8675 13e4 8A       		.byte	0x8a
 8676 13e5 F7100000 		.4byte	0x10f7
 8677 13e9 02       		.uleb128 0x2
 8678 13ea 91       		.byte	0x91
ARM GAS  C:\Users\Lenovo\AppData\Local\Temp\ccKs44LO.s 			page 179


 8679 13eb 6C       		.sleb128 -20
 8680 13ec 22       		.uleb128 0x22
 8681 13ed 3C090000 		.4byte	.LASF421
 8682 13f1 01       		.byte	0x1
 8683 13f2 8B       		.byte	0x8b
 8684 13f3 9A0F0000 		.4byte	0xf9a
 8685 13f7 02       		.uleb128 0x2
 8686 13f8 91       		.byte	0x91
 8687 13f9 70       		.sleb128 -16
 8688 13fa 00       		.byte	0
 8689 13fb 25       		.uleb128 0x25
 8690 13fc B7060000 		.4byte	.LASF427
 8691 1400 01       		.byte	0x1
 8692 1401 9D       		.byte	0x9d
 8693 1402 4D050000 		.4byte	0x54d
 8694 1406 00000000 		.4byte	.LFB67
 8695 140a 66000000 		.4byte	.LFE67-.LFB67
 8696 140e 01       		.uleb128 0x1
 8697 140f 9C       		.byte	0x9c
 8698 1410 4D140000 		.4byte	0x144d
 8699 1414 21       		.uleb128 0x21
 8700 1415 84170000 		.4byte	.LASF419
 8701 1419 01       		.byte	0x1
 8702 141a 9D       		.byte	0x9d
 8703 141b FB000000 		.4byte	0xfb
 8704 141f 02       		.uleb128 0x2
 8705 1420 91       		.byte	0x91
 8706 1421 64       		.sleb128 -28
 8707 1422 22       		.uleb128 0x22
 8708 1423 FE100000 		.4byte	.LASF425
 8709 1427 01       		.byte	0x1
 8710 1428 9F       		.byte	0x9f
 8711 1429 040E0000 		.4byte	0xe04
 8712 142d 02       		.uleb128 0x2
 8713 142e 91       		.byte	0x91
 8714 142f 74       		.sleb128 -12
 8715 1430 22       		.uleb128 0x22
 8716 1431 11090000 		.4byte	.LASF420
 8717 1435 01       		.byte	0x1
 8718 1436 A0       		.byte	0xa0
 8719 1437 F7100000 		.4byte	0x10f7
 8720 143b 02       		.uleb128 0x2
 8721 143c 91       		.byte	0x91
 8722 143d 6C       		.sleb128 -20
 8723 143e 22       		.uleb128 0x22
 8724 143f 3C090000 		.4byte	.LASF421
 8725 1443 01       		.byte	0x1
 8726 1444 A1       		.byte	0xa1
 8727 1445 9A0F0000 		.4byte	0xf9a
 8728 1449 02       		.uleb128 0x2
 8729 144a 91       		.byte	0x91
 8730 144b 70       		.sleb128 -16
 8731 144c 00       		.byte	0
 8732 144d 25       		.uleb128 0x25
 8733 144e 3D200000 		.4byte	.LASF428
 8734 1452 01       		.byte	0x1
 8735 1453 B3       		.byte	0xb3
ARM GAS  C:\Users\Lenovo\AppData\Local\Temp\ccKs44LO.s 			page 180


 8736 1454 4D050000 		.4byte	0x54d
 8737 1458 00000000 		.4byte	.LFB68
 8738 145c 66000000 		.4byte	.LFE68-.LFB68
 8739 1460 01       		.uleb128 0x1
 8740 1461 9C       		.byte	0x9c
 8741 1462 9F140000 		.4byte	0x149f
 8742 1466 21       		.uleb128 0x21
 8743 1467 84170000 		.4byte	.LASF419
 8744 146b 01       		.byte	0x1
 8745 146c B3       		.byte	0xb3
 8746 146d FB000000 		.4byte	0xfb
 8747 1471 02       		.uleb128 0x2
 8748 1472 91       		.byte	0x91
 8749 1473 64       		.sleb128 -28
 8750 1474 22       		.uleb128 0x22
 8751 1475 FE100000 		.4byte	.LASF425
 8752 1479 01       		.byte	0x1
 8753 147a B5       		.byte	0xb5
 8754 147b E30D0000 		.4byte	0xde3
 8755 147f 02       		.uleb128 0x2
 8756 1480 91       		.byte	0x91
 8757 1481 74       		.sleb128 -12
 8758 1482 22       		.uleb128 0x22
 8759 1483 11090000 		.4byte	.LASF420
 8760 1487 01       		.byte	0x1
 8761 1488 B6       		.byte	0xb6
 8762 1489 F7100000 		.4byte	0x10f7
 8763 148d 02       		.uleb128 0x2
 8764 148e 91       		.byte	0x91
 8765 148f 6C       		.sleb128 -20
 8766 1490 22       		.uleb128 0x22
 8767 1491 3C090000 		.4byte	.LASF421
 8768 1495 01       		.byte	0x1
 8769 1496 B7       		.byte	0xb7
 8770 1497 9A0F0000 		.4byte	0xf9a
 8771 149b 02       		.uleb128 0x2
 8772 149c 91       		.byte	0x91
 8773 149d 70       		.sleb128 -16
 8774 149e 00       		.byte	0
 8775 149f 25       		.uleb128 0x25
 8776 14a0 B60A0000 		.4byte	.LASF429
 8777 14a4 01       		.byte	0x1
 8778 14a5 C9       		.byte	0xc9
 8779 14a6 4D050000 		.4byte	0x54d
 8780 14aa 00000000 		.4byte	.LFB69
 8781 14ae 66000000 		.4byte	.LFE69-.LFB69
 8782 14b2 01       		.uleb128 0x1
 8783 14b3 9C       		.byte	0x9c
 8784 14b4 F1140000 		.4byte	0x14f1
 8785 14b8 21       		.uleb128 0x21
 8786 14b9 84170000 		.4byte	.LASF419
 8787 14bd 01       		.byte	0x1
 8788 14be C9       		.byte	0xc9
 8789 14bf FB000000 		.4byte	0xfb
 8790 14c3 02       		.uleb128 0x2
 8791 14c4 91       		.byte	0x91
 8792 14c5 64       		.sleb128 -28
ARM GAS  C:\Users\Lenovo\AppData\Local\Temp\ccKs44LO.s 			page 181


 8793 14c6 22       		.uleb128 0x22
 8794 14c7 FE100000 		.4byte	.LASF425
 8795 14cb 01       		.byte	0x1
 8796 14cc CB       		.byte	0xcb
 8797 14cd 0F0E0000 		.4byte	0xe0f
 8798 14d1 02       		.uleb128 0x2
 8799 14d2 91       		.byte	0x91
 8800 14d3 74       		.sleb128 -12
 8801 14d4 22       		.uleb128 0x22
 8802 14d5 11090000 		.4byte	.LASF420
 8803 14d9 01       		.byte	0x1
 8804 14da CC       		.byte	0xcc
 8805 14db F7100000 		.4byte	0x10f7
 8806 14df 02       		.uleb128 0x2
 8807 14e0 91       		.byte	0x91
 8808 14e1 6C       		.sleb128 -20
 8809 14e2 22       		.uleb128 0x22
 8810 14e3 3C090000 		.4byte	.LASF421
 8811 14e7 01       		.byte	0x1
 8812 14e8 CD       		.byte	0xcd
 8813 14e9 9A0F0000 		.4byte	0xf9a
 8814 14ed 02       		.uleb128 0x2
 8815 14ee 91       		.byte	0x91
 8816 14ef 70       		.sleb128 -16
 8817 14f0 00       		.byte	0
 8818 14f1 25       		.uleb128 0x25
 8819 14f2 B9130000 		.4byte	.LASF430
 8820 14f6 01       		.byte	0x1
 8821 14f7 DC       		.byte	0xdc
 8822 14f8 CB000000 		.4byte	0xcb
 8823 14fc 00000000 		.4byte	.LFB70
 8824 1500 AC000000 		.4byte	.LFE70-.LFB70
 8825 1504 01       		.uleb128 0x1
 8826 1505 9C       		.byte	0x9c
 8827 1506 51150000 		.4byte	0x1551
 8828 150a 21       		.uleb128 0x21
 8829 150b 920C0000 		.4byte	.LASF412
 8830 150f 01       		.byte	0x1
 8831 1510 DC       		.byte	0xdc
 8832 1511 FD000000 		.4byte	0xfd
 8833 1515 02       		.uleb128 0x2
 8834 1516 91       		.byte	0x91
 8835 1517 6C       		.sleb128 -20
 8836 1518 21       		.uleb128 0x21
 8837 1519 F4150000 		.4byte	.LASF414
 8838 151d 01       		.byte	0x1
 8839 151e DC       		.byte	0xdc
 8840 151f 81000000 		.4byte	0x81
 8841 1523 02       		.uleb128 0x2
 8842 1524 91       		.byte	0x91
 8843 1525 6B       		.sleb128 -21
 8844 1526 22       		.uleb128 0x22
 8845 1527 41120000 		.4byte	.LASF416
 8846 152b 01       		.byte	0x1
 8847 152c DE       		.byte	0xde
 8848 152d CB000000 		.4byte	0xcb
 8849 1531 02       		.uleb128 0x2
ARM GAS  C:\Users\Lenovo\AppData\Local\Temp\ccKs44LO.s 			page 182


 8850 1532 91       		.byte	0x91
 8851 1533 77       		.sleb128 -9
 8852 1534 22       		.uleb128 0x22
 8853 1535 16190000 		.4byte	.LASF431
 8854 1539 01       		.byte	0x1
 8855 153a DF       		.byte	0xdf
 8856 153b 09110000 		.4byte	0x1109
 8857 153f 02       		.uleb128 0x2
 8858 1540 91       		.byte	0x91
 8859 1541 70       		.sleb128 -16
 8860 1542 22       		.uleb128 0x22
 8861 1543 AA180000 		.4byte	.LASF432
 8862 1547 01       		.byte	0x1
 8863 1548 E0       		.byte	0xe0
 8864 1549 8D000000 		.4byte	0x8d
 8865 154d 02       		.uleb128 0x2
 8866 154e 91       		.byte	0x91
 8867 154f 74       		.sleb128 -12
 8868 1550 00       		.byte	0
 8869 1551 25       		.uleb128 0x25
 8870 1552 7B210000 		.4byte	.LASF433
 8871 1556 01       		.byte	0x1
 8872 1557 EE       		.byte	0xee
 8873 1558 E5100000 		.4byte	0x10e5
 8874 155c 00000000 		.4byte	.LFB71
 8875 1560 A0000000 		.4byte	.LFE71-.LFB71
 8876 1564 01       		.uleb128 0x1
 8877 1565 9C       		.byte	0x9c
 8878 1566 CD150000 		.4byte	0x15cd
 8879 156a 21       		.uleb128 0x21
 8880 156b 84170000 		.4byte	.LASF419
 8881 156f 01       		.byte	0x1
 8882 1570 EE       		.byte	0xee
 8883 1571 FB000000 		.4byte	0xfb
 8884 1575 02       		.uleb128 0x2
 8885 1576 91       		.byte	0x91
 8886 1577 64       		.sleb128 -28
 8887 1578 22       		.uleb128 0x22
 8888 1579 41120000 		.4byte	.LASF416
 8889 157d 01       		.byte	0x1
 8890 157e F0       		.byte	0xf0
 8891 157f 9A0F0000 		.4byte	0xf9a
 8892 1583 02       		.uleb128 0x2
 8893 1584 91       		.byte	0x91
 8894 1585 74       		.sleb128 -12
 8895 1586 22       		.uleb128 0x22
 8896 1587 11090000 		.4byte	.LASF420
 8897 158b 01       		.byte	0x1
 8898 158c F1       		.byte	0xf1
 8899 158d F7100000 		.4byte	0x10f7
 8900 1591 02       		.uleb128 0x2
 8901 1592 91       		.byte	0x91
 8902 1593 6C       		.sleb128 -20
 8903 1594 22       		.uleb128 0x22
 8904 1595 3C090000 		.4byte	.LASF421
 8905 1599 01       		.byte	0x1
 8906 159a F2       		.byte	0xf2
ARM GAS  C:\Users\Lenovo\AppData\Local\Temp\ccKs44LO.s 			page 183


 8907 159b 9A0F0000 		.4byte	0xf9a
 8908 159f 02       		.uleb128 0x2
 8909 15a0 91       		.byte	0x91
 8910 15a1 70       		.sleb128 -16
 8911 15a2 22       		.uleb128 0x22
 8912 15a3 50150000 		.4byte	.LASF434
 8913 15a7 01       		.byte	0x1
 8914 15a8 F4       		.byte	0xf4
 8915 15a9 81000000 		.4byte	0x81
 8916 15ad 02       		.uleb128 0x2
 8917 15ae 91       		.byte	0x91
 8918 15af 6B       		.sleb128 -21
 8919 15b0 22       		.uleb128 0x22
 8920 15b1 0C040000 		.4byte	.LASF435
 8921 15b5 01       		.byte	0x1
 8922 15b6 F5       		.byte	0xf5
 8923 15b7 81000000 		.4byte	0x81
 8924 15bb 02       		.uleb128 0x2
 8925 15bc 91       		.byte	0x91
 8926 15bd 6A       		.sleb128 -22
 8927 15be 22       		.uleb128 0x22
 8928 15bf 88100000 		.4byte	.LASF436
 8929 15c3 01       		.byte	0x1
 8930 15c4 F6       		.byte	0xf6
 8931 15c5 81000000 		.4byte	0x81
 8932 15c9 02       		.uleb128 0x2
 8933 15ca 91       		.byte	0x91
 8934 15cb 69       		.sleb128 -23
 8935 15cc 00       		.byte	0
 8936 15cd 26       		.uleb128 0x26
 8937 15ce 401D0000 		.4byte	.LASF438
 8938 15d2 01       		.byte	0x1
 8939 15d3 0B01     		.2byte	0x10b
 8940 15d5 00000000 		.4byte	.LFB72
 8941 15d9 70000000 		.4byte	.LFE72-.LFB72
 8942 15dd 01       		.uleb128 0x1
 8943 15de 9C       		.byte	0x9c
 8944 15df 02160000 		.4byte	0x1602
 8945 15e3 27       		.uleb128 0x27
 8946 15e4 84170000 		.4byte	.LASF419
 8947 15e8 01       		.byte	0x1
 8948 15e9 0B01     		.2byte	0x10b
 8949 15eb FB000000 		.4byte	0xfb
 8950 15ef 02       		.uleb128 0x2
 8951 15f0 91       		.byte	0x91
 8952 15f1 6C       		.sleb128 -20
 8953 15f2 28       		.uleb128 0x28
 8954 15f3 11090000 		.4byte	.LASF420
 8955 15f7 01       		.byte	0x1
 8956 15f8 0D01     		.2byte	0x10d
 8957 15fa F7100000 		.4byte	0x10f7
 8958 15fe 02       		.uleb128 0x2
 8959 15ff 91       		.byte	0x91
 8960 1600 74       		.sleb128 -12
 8961 1601 00       		.byte	0
 8962 1602 29       		.uleb128 0x29
 8963 1603 EF000000 		.4byte	.LASF439
ARM GAS  C:\Users\Lenovo\AppData\Local\Temp\ccKs44LO.s 			page 184


 8964 1607 01       		.byte	0x1
 8965 1608 2201     		.2byte	0x122
 8966 160a FF020000 		.4byte	0x2ff
 8967 160e 00000000 		.4byte	.LFB73
 8968 1612 2A000000 		.4byte	.LFE73-.LFB73
 8969 1616 01       		.uleb128 0x1
 8970 1617 9C       		.byte	0x9c
 8971 1618 4A160000 		.4byte	0x164a
 8972 161c 27       		.uleb128 0x27
 8973 161d 84170000 		.4byte	.LASF419
 8974 1621 01       		.byte	0x1
 8975 1622 2201     		.2byte	0x122
 8976 1624 FB000000 		.4byte	0xfb
 8977 1628 02       		.uleb128 0x2
 8978 1629 91       		.byte	0x91
 8979 162a 6C       		.sleb128 -20
 8980 162b 28       		.uleb128 0x28
 8981 162c 41120000 		.4byte	.LASF416
 8982 1630 01       		.byte	0x1
 8983 1631 2401     		.2byte	0x124
 8984 1633 FF020000 		.4byte	0x2ff
 8985 1637 02       		.uleb128 0x2
 8986 1638 91       		.byte	0x91
 8987 1639 77       		.sleb128 -9
 8988 163a 28       		.uleb128 0x28
 8989 163b 11090000 		.4byte	.LASF420
 8990 163f 01       		.byte	0x1
 8991 1640 2501     		.2byte	0x125
 8992 1642 4A160000 		.4byte	0x164a
 8993 1646 02       		.uleb128 0x2
 8994 1647 91       		.byte	0x91
 8995 1648 70       		.sleb128 -16
 8996 1649 00       		.byte	0
 8997 164a 07       		.uleb128 0x7
 8998 164b 04       		.byte	0x4
 8999 164c EB100000 		.4byte	0x10eb
 9000 1650 2A       		.uleb128 0x2a
 9001 1651 310E0000 		.4byte	.LASF440
 9002 1655 01       		.byte	0x1
 9003 1656 3001     		.2byte	0x130
 9004 1658 FF020000 		.4byte	0x2ff
 9005 165c 00000000 		.4byte	.LFB74
 9006 1660 74000000 		.4byte	.LFE74-.LFB74
 9007 1664 01       		.uleb128 0x1
 9008 1665 9C       		.byte	0x9c
 9009 1666 98160000 		.4byte	0x1698
 9010 166a 27       		.uleb128 0x27
 9011 166b 84170000 		.4byte	.LASF419
 9012 166f 01       		.byte	0x1
 9013 1670 3001     		.2byte	0x130
 9014 1672 FB000000 		.4byte	0xfb
 9015 1676 02       		.uleb128 0x2
 9016 1677 91       		.byte	0x91
 9017 1678 64       		.sleb128 -28
 9018 1679 28       		.uleb128 0x28
 9019 167a 41120000 		.4byte	.LASF416
 9020 167e 01       		.byte	0x1
ARM GAS  C:\Users\Lenovo\AppData\Local\Temp\ccKs44LO.s 			page 185


 9021 167f 3201     		.2byte	0x132
 9022 1681 FF020000 		.4byte	0x2ff
 9023 1685 02       		.uleb128 0x2
 9024 1686 91       		.byte	0x91
 9025 1687 6F       		.sleb128 -17
 9026 1688 28       		.uleb128 0x28
 9027 1689 11090000 		.4byte	.LASF420
 9028 168d 01       		.byte	0x1
 9029 168e 3301     		.2byte	0x133
 9030 1690 4A160000 		.4byte	0x164a
 9031 1694 02       		.uleb128 0x2
 9032 1695 91       		.byte	0x91
 9033 1696 68       		.sleb128 -24
 9034 1697 00       		.byte	0
 9035 1698 26       		.uleb128 0x26
 9036 1699 931A0000 		.4byte	.LASF441
 9037 169d 01       		.byte	0x1
 9038 169e 4F01     		.2byte	0x14f
 9039 16a0 00000000 		.4byte	.LFB75
 9040 16a4 46000000 		.4byte	.LFE75-.LFB75
 9041 16a8 01       		.uleb128 0x1
 9042 16a9 9C       		.byte	0x9c
 9043 16aa CD160000 		.4byte	0x16cd
 9044 16ae 27       		.uleb128 0x27
 9045 16af 84170000 		.4byte	.LASF419
 9046 16b3 01       		.byte	0x1
 9047 16b4 4F01     		.2byte	0x14f
 9048 16b6 FB000000 		.4byte	0xfb
 9049 16ba 02       		.uleb128 0x2
 9050 16bb 91       		.byte	0x91
 9051 16bc 6C       		.sleb128 -20
 9052 16bd 28       		.uleb128 0x28
 9053 16be 11090000 		.4byte	.LASF420
 9054 16c2 01       		.byte	0x1
 9055 16c3 5101     		.2byte	0x151
 9056 16c5 4A160000 		.4byte	0x164a
 9057 16c9 02       		.uleb128 0x2
 9058 16ca 91       		.byte	0x91
 9059 16cb 74       		.sleb128 -12
 9060 16cc 00       		.byte	0
 9061 16cd 26       		.uleb128 0x26
 9062 16ce 141B0000 		.4byte	.LASF442
 9063 16d2 01       		.byte	0x1
 9064 16d3 5E01     		.2byte	0x15e
 9065 16d5 00000000 		.4byte	.LFB76
 9066 16d9 E4010000 		.4byte	.LFE76-.LFB76
 9067 16dd 01       		.uleb128 0x1
 9068 16de 9C       		.byte	0x9c
 9069 16df 7E170000 		.4byte	0x177e
 9070 16e3 27       		.uleb128 0x27
 9071 16e4 84170000 		.4byte	.LASF419
 9072 16e8 01       		.byte	0x1
 9073 16e9 5E01     		.2byte	0x15e
 9074 16eb FB000000 		.4byte	0xfb
 9075 16ef 03       		.uleb128 0x3
 9076 16f0 91       		.byte	0x91
 9077 16f1 BC7F     		.sleb128 -68
ARM GAS  C:\Users\Lenovo\AppData\Local\Temp\ccKs44LO.s 			page 186


 9078 16f3 28       		.uleb128 0x28
 9079 16f4 11090000 		.4byte	.LASF420
 9080 16f8 01       		.byte	0x1
 9081 16f9 6001     		.2byte	0x160
 9082 16fb 4A160000 		.4byte	0x164a
 9083 16ff 02       		.uleb128 0x2
 9084 1700 91       		.byte	0x91
 9085 1701 60       		.sleb128 -32
 9086 1702 23       		.uleb128 0x23
 9087 1703 14000000 		.4byte	.LBB4
 9088 1707 CA010000 		.4byte	.LBE4-.LBB4
 9089 170b 28       		.uleb128 0x28
 9090 170c B7100000 		.4byte	.LASF443
 9091 1710 01       		.byte	0x1
 9092 1711 6301     		.2byte	0x163
 9093 1713 CB000000 		.4byte	0xcb
 9094 1717 02       		.uleb128 0x2
 9095 1718 91       		.byte	0x91
 9096 1719 67       		.sleb128 -25
 9097 171a 2B       		.uleb128 0x2b
 9098 171b 38000000 		.4byte	.LBB5
 9099 171f 92000000 		.4byte	.LBE5-.LBB5
 9100 1723 46170000 		.4byte	0x1746
 9101 1727 28       		.uleb128 0x28
 9102 1728 A9140000 		.4byte	.LASF444
 9103 172c 01       		.byte	0x1
 9104 172d 7701     		.2byte	0x177
 9105 172f 7E170000 		.4byte	0x177e
 9106 1733 02       		.uleb128 0x2
 9107 1734 91       		.byte	0x91
 9108 1735 44       		.sleb128 -60
 9109 1736 28       		.uleb128 0x28
 9110 1737 071F0000 		.4byte	.LASF445
 9111 173b 01       		.byte	0x1
 9112 173c 7A01     		.2byte	0x17a
 9113 173e FD000000 		.4byte	0xfd
 9114 1742 02       		.uleb128 0x2
 9115 1743 91       		.byte	0x91
 9116 1744 5C       		.sleb128 -36
 9117 1745 00       		.byte	0
 9118 1746 2B       		.uleb128 0x2b
 9119 1747 2E010000 		.4byte	.LBB6
 9120 174b 56000000 		.4byte	.LBE6-.LBB6
 9121 174f 63170000 		.4byte	0x1763
 9122 1753 28       		.uleb128 0x28
 9123 1754 E6090000 		.4byte	.LASF446
 9124 1758 01       		.byte	0x1
 9125 1759 9001     		.2byte	0x190
 9126 175b 8E170000 		.4byte	0x178e
 9127 175f 02       		.uleb128 0x2
 9128 1760 91       		.byte	0x91
 9129 1761 58       		.sleb128 -40
 9130 1762 00       		.byte	0
 9131 1763 23       		.uleb128 0x23
 9132 1764 88010000 		.4byte	.LBB7
 9133 1768 56000000 		.4byte	.LBE7-.LBB7
 9134 176c 28       		.uleb128 0x28
ARM GAS  C:\Users\Lenovo\AppData\Local\Temp\ccKs44LO.s 			page 187


 9135 176d E6090000 		.4byte	.LASF446
 9136 1771 01       		.byte	0x1
 9137 1772 9901     		.2byte	0x199
 9138 1774 8E170000 		.4byte	0x178e
 9139 1778 02       		.uleb128 0x2
 9140 1779 91       		.byte	0x91
 9141 177a 54       		.sleb128 -44
 9142 177b 00       		.byte	0
 9143 177c 00       		.byte	0
 9144 177d 00       		.byte	0
 9145 177e 0F       		.uleb128 0xf
 9146 177f D7000000 		.4byte	0xd7
 9147 1783 8E170000 		.4byte	0x178e
 9148 1787 10       		.uleb128 0x10
 9149 1788 F4000000 		.4byte	0xf4
 9150 178c 0F       		.byte	0xf
 9151 178d 00       		.byte	0
 9152 178e 07       		.uleb128 0x7
 9153 178f 04       		.byte	0x4
 9154 1790 A9080000 		.4byte	0x8a9
 9155 1794 26       		.uleb128 0x26
 9156 1795 D5160000 		.4byte	.LASF447
 9157 1799 01       		.byte	0x1
 9158 179a A701     		.2byte	0x1a7
 9159 179c 00000000 		.4byte	.LFB77
 9160 17a0 6A010000 		.4byte	.LFE77-.LFB77
 9161 17a4 01       		.uleb128 0x1
 9162 17a5 9C       		.byte	0x9c
 9163 17a6 18180000 		.4byte	0x1818
 9164 17aa 27       		.uleb128 0x27
 9165 17ab 84170000 		.4byte	.LASF419
 9166 17af 01       		.byte	0x1
 9167 17b0 A701     		.2byte	0x1a7
 9168 17b2 FB000000 		.4byte	0xfb
 9169 17b6 02       		.uleb128 0x2
 9170 17b7 91       		.byte	0x91
 9171 17b8 54       		.sleb128 -44
 9172 17b9 28       		.uleb128 0x28
 9173 17ba 11090000 		.4byte	.LASF420
 9174 17be 01       		.byte	0x1
 9175 17bf A901     		.2byte	0x1a9
 9176 17c1 4A160000 		.4byte	0x164a
 9177 17c5 02       		.uleb128 0x2
 9178 17c6 91       		.byte	0x91
 9179 17c7 60       		.sleb128 -32
 9180 17c8 23       		.uleb128 0x23
 9181 17c9 14000000 		.4byte	.LBB8
 9182 17cd 50010000 		.4byte	.LBE8-.LBB8
 9183 17d1 28       		.uleb128 0x28
 9184 17d2 B7100000 		.4byte	.LASF443
 9185 17d6 01       		.byte	0x1
 9186 17d7 AC01     		.2byte	0x1ac
 9187 17d9 CB000000 		.4byte	0xcb
 9188 17dd 02       		.uleb128 0x2
 9189 17de 91       		.byte	0x91
 9190 17df 67       		.sleb128 -25
 9191 17e0 2B       		.uleb128 0x2b
ARM GAS  C:\Users\Lenovo\AppData\Local\Temp\ccKs44LO.s 			page 188


 9192 17e1 B4000000 		.4byte	.LBB9
 9193 17e5 56000000 		.4byte	.LBE9-.LBB9
 9194 17e9 FD170000 		.4byte	0x17fd
 9195 17ed 28       		.uleb128 0x28
 9196 17ee E6090000 		.4byte	.LASF446
 9197 17f2 01       		.byte	0x1
 9198 17f3 CE01     		.2byte	0x1ce
 9199 17f5 8E170000 		.4byte	0x178e
 9200 17f9 02       		.uleb128 0x2
 9201 17fa 91       		.byte	0x91
 9202 17fb 5C       		.sleb128 -36
 9203 17fc 00       		.byte	0
 9204 17fd 23       		.uleb128 0x23
 9205 17fe 0E010000 		.4byte	.LBB10
 9206 1802 56000000 		.4byte	.LBE10-.LBB10
 9207 1806 28       		.uleb128 0x28
 9208 1807 E6090000 		.4byte	.LASF446
 9209 180b 01       		.byte	0x1
 9210 180c D701     		.2byte	0x1d7
 9211 180e 8E170000 		.4byte	0x178e
 9212 1812 02       		.uleb128 0x2
 9213 1813 91       		.byte	0x91
 9214 1814 58       		.sleb128 -40
 9215 1815 00       		.byte	0
 9216 1816 00       		.byte	0
 9217 1817 00       		.byte	0
 9218 1818 26       		.uleb128 0x26
 9219 1819 20130000 		.4byte	.LASF448
 9220 181d 01       		.byte	0x1
 9221 181e E501     		.2byte	0x1e5
 9222 1820 00000000 		.4byte	.LFB78
 9223 1824 04020000 		.4byte	.LFE78-.LFB78
 9224 1828 01       		.uleb128 0x1
 9225 1829 9C       		.byte	0x9c
 9226 182a C9180000 		.4byte	0x18c9
 9227 182e 27       		.uleb128 0x27
 9228 182f 84170000 		.4byte	.LASF419
 9229 1833 01       		.byte	0x1
 9230 1834 E501     		.2byte	0x1e5
 9231 1836 FB000000 		.4byte	0xfb
 9232 183a 03       		.uleb128 0x3
 9233 183b 91       		.byte	0x91
 9234 183c BC7F     		.sleb128 -68
 9235 183e 28       		.uleb128 0x28
 9236 183f 11090000 		.4byte	.LASF420
 9237 1843 01       		.byte	0x1
 9238 1844 E701     		.2byte	0x1e7
 9239 1846 4A160000 		.4byte	0x164a
 9240 184a 02       		.uleb128 0x2
 9241 184b 91       		.byte	0x91
 9242 184c 60       		.sleb128 -32
 9243 184d 23       		.uleb128 0x23
 9244 184e 14000000 		.4byte	.LBB11
 9245 1852 E4010000 		.4byte	.LBE11-.LBB11
 9246 1856 28       		.uleb128 0x28
 9247 1857 B7100000 		.4byte	.LASF443
 9248 185b 01       		.byte	0x1
ARM GAS  C:\Users\Lenovo\AppData\Local\Temp\ccKs44LO.s 			page 189


 9249 185c EA01     		.2byte	0x1ea
 9250 185e CB000000 		.4byte	0xcb
 9251 1862 02       		.uleb128 0x2
 9252 1863 91       		.byte	0x91
 9253 1864 67       		.sleb128 -25
 9254 1865 2B       		.uleb128 0x2b
 9255 1866 38000000 		.4byte	.LBB12
 9256 186a A0000000 		.4byte	.LBE12-.LBB12
 9257 186e 91180000 		.4byte	0x1891
 9258 1872 28       		.uleb128 0x28
 9259 1873 A9140000 		.4byte	.LASF444
 9260 1877 01       		.byte	0x1
 9261 1878 0102     		.2byte	0x201
 9262 187a 7E170000 		.4byte	0x177e
 9263 187e 02       		.uleb128 0x2
 9264 187f 91       		.byte	0x91
 9265 1880 44       		.sleb128 -60
 9266 1881 28       		.uleb128 0x28
 9267 1882 071F0000 		.4byte	.LASF445
 9268 1886 01       		.byte	0x1
 9269 1887 0402     		.2byte	0x204
 9270 1889 FD000000 		.4byte	0xfd
 9271 188d 02       		.uleb128 0x2
 9272 188e 91       		.byte	0x91
 9273 188f 5C       		.sleb128 -36
 9274 1890 00       		.byte	0
 9275 1891 2B       		.uleb128 0x2b
 9276 1892 48010000 		.4byte	.LBB13
 9277 1896 56000000 		.4byte	.LBE13-.LBB13
 9278 189a AE180000 		.4byte	0x18ae
 9279 189e 28       		.uleb128 0x28
 9280 189f E6090000 		.4byte	.LASF446
 9281 18a3 01       		.byte	0x1
 9282 18a4 1A02     		.2byte	0x21a
 9283 18a6 8E170000 		.4byte	0x178e
 9284 18aa 02       		.uleb128 0x2
 9285 18ab 91       		.byte	0x91
 9286 18ac 58       		.sleb128 -40
 9287 18ad 00       		.byte	0
 9288 18ae 23       		.uleb128 0x23
 9289 18af A2010000 		.4byte	.LBB14
 9290 18b3 56000000 		.4byte	.LBE14-.LBB14
 9291 18b7 28       		.uleb128 0x28
 9292 18b8 E6090000 		.4byte	.LASF446
 9293 18bc 01       		.byte	0x1
 9294 18bd 2302     		.2byte	0x223
 9295 18bf 8E170000 		.4byte	0x178e
 9296 18c3 02       		.uleb128 0x2
 9297 18c4 91       		.byte	0x91
 9298 18c5 54       		.sleb128 -44
 9299 18c6 00       		.byte	0
 9300 18c7 00       		.byte	0
 9301 18c8 00       		.byte	0
 9302 18c9 26       		.uleb128 0x26
 9303 18ca 5C180000 		.4byte	.LASF449
 9304 18ce 01       		.byte	0x1
 9305 18cf 3102     		.2byte	0x231
ARM GAS  C:\Users\Lenovo\AppData\Local\Temp\ccKs44LO.s 			page 190


 9306 18d1 00000000 		.4byte	.LFB79
 9307 18d5 38020000 		.4byte	.LFE79-.LFB79
 9308 18d9 01       		.uleb128 0x1
 9309 18da 9C       		.byte	0x9c
 9310 18db 7A190000 		.4byte	0x197a
 9311 18df 27       		.uleb128 0x27
 9312 18e0 84170000 		.4byte	.LASF419
 9313 18e4 01       		.byte	0x1
 9314 18e5 3102     		.2byte	0x231
 9315 18e7 FB000000 		.4byte	0xfb
 9316 18eb 03       		.uleb128 0x3
 9317 18ec 91       		.byte	0x91
 9318 18ed BC7F     		.sleb128 -68
 9319 18ef 28       		.uleb128 0x28
 9320 18f0 11090000 		.4byte	.LASF420
 9321 18f4 01       		.byte	0x1
 9322 18f5 3302     		.2byte	0x233
 9323 18f7 4A160000 		.4byte	0x164a
 9324 18fb 02       		.uleb128 0x2
 9325 18fc 91       		.byte	0x91
 9326 18fd 60       		.sleb128 -32
 9327 18fe 23       		.uleb128 0x23
 9328 18ff 14000000 		.4byte	.LBB15
 9329 1903 1A020000 		.4byte	.LBE15-.LBB15
 9330 1907 28       		.uleb128 0x28
 9331 1908 B7100000 		.4byte	.LASF443
 9332 190c 01       		.byte	0x1
 9333 190d 3602     		.2byte	0x236
 9334 190f CB000000 		.4byte	0xcb
 9335 1913 02       		.uleb128 0x2
 9336 1914 91       		.byte	0x91
 9337 1915 67       		.sleb128 -25
 9338 1916 2B       		.uleb128 0x2b
 9339 1917 38000000 		.4byte	.LBB16
 9340 191b D2000000 		.4byte	.LBE16-.LBB16
 9341 191f 42190000 		.4byte	0x1942
 9342 1923 28       		.uleb128 0x28
 9343 1924 A9140000 		.4byte	.LASF444
 9344 1928 01       		.byte	0x1
 9345 1929 5102     		.2byte	0x251
 9346 192b 7E170000 		.4byte	0x177e
 9347 192f 02       		.uleb128 0x2
 9348 1930 91       		.byte	0x91
 9349 1931 44       		.sleb128 -60
 9350 1932 28       		.uleb128 0x28
 9351 1933 071F0000 		.4byte	.LASF445
 9352 1937 01       		.byte	0x1
 9353 1938 5402     		.2byte	0x254
 9354 193a FD000000 		.4byte	0xfd
 9355 193e 02       		.uleb128 0x2
 9356 193f 91       		.byte	0x91
 9357 1940 5C       		.sleb128 -36
 9358 1941 00       		.byte	0
 9359 1942 2B       		.uleb128 0x2b
 9360 1943 7E010000 		.4byte	.LBB17
 9361 1947 56000000 		.4byte	.LBE17-.LBB17
 9362 194b 5F190000 		.4byte	0x195f
ARM GAS  C:\Users\Lenovo\AppData\Local\Temp\ccKs44LO.s 			page 191


 9363 194f 28       		.uleb128 0x28
 9364 1950 E6090000 		.4byte	.LASF446
 9365 1954 01       		.byte	0x1
 9366 1955 6C02     		.2byte	0x26c
 9367 1957 8E170000 		.4byte	0x178e
 9368 195b 02       		.uleb128 0x2
 9369 195c 91       		.byte	0x91
 9370 195d 58       		.sleb128 -40
 9371 195e 00       		.byte	0
 9372 195f 23       		.uleb128 0x23
 9373 1960 D8010000 		.4byte	.LBB18
 9374 1964 56000000 		.4byte	.LBE18-.LBB18
 9375 1968 28       		.uleb128 0x28
 9376 1969 E6090000 		.4byte	.LASF446
 9377 196d 01       		.byte	0x1
 9378 196e 7502     		.2byte	0x275
 9379 1970 8E170000 		.4byte	0x178e
 9380 1974 02       		.uleb128 0x2
 9381 1975 91       		.byte	0x91
 9382 1976 54       		.sleb128 -44
 9383 1977 00       		.byte	0
 9384 1978 00       		.byte	0
 9385 1979 00       		.byte	0
 9386 197a 2A       		.uleb128 0x2a
 9387 197b FE160000 		.4byte	.LASF450
 9388 197f 01       		.byte	0x1
 9389 1980 8402     		.2byte	0x284
 9390 1982 FF020000 		.4byte	0x2ff
 9391 1986 00000000 		.4byte	.LFB80
 9392 198a 42010000 		.4byte	.LFE80-.LFB80
 9393 198e 01       		.uleb128 0x1
 9394 198f 9C       		.byte	0x9c
 9395 1990 171A0000 		.4byte	0x1a17
 9396 1994 27       		.uleb128 0x27
 9397 1995 84170000 		.4byte	.LASF419
 9398 1999 01       		.byte	0x1
 9399 199a 8402     		.2byte	0x284
 9400 199c FB000000 		.4byte	0xfb
 9401 19a0 02       		.uleb128 0x2
 9402 19a1 91       		.byte	0x91
 9403 19a2 44       		.sleb128 -60
 9404 19a3 28       		.uleb128 0x28
 9405 19a4 41120000 		.4byte	.LASF416
 9406 19a8 01       		.byte	0x1
 9407 19a9 8602     		.2byte	0x286
 9408 19ab FF020000 		.4byte	0x2ff
 9409 19af 02       		.uleb128 0x2
 9410 19b0 91       		.byte	0x91
 9411 19b1 6F       		.sleb128 -17
 9412 19b2 28       		.uleb128 0x28
 9413 19b3 A9140000 		.4byte	.LASF444
 9414 19b7 01       		.byte	0x1
 9415 19b8 8702     		.2byte	0x287
 9416 19ba E40F0000 		.4byte	0xfe4
 9417 19be 02       		.uleb128 0x2
 9418 19bf 91       		.byte	0x91
 9419 19c0 4C       		.sleb128 -52
ARM GAS  C:\Users\Lenovo\AppData\Local\Temp\ccKs44LO.s 			page 192


 9420 19c1 28       		.uleb128 0x28
 9421 19c2 11090000 		.4byte	.LASF420
 9422 19c6 01       		.byte	0x1
 9423 19c7 8802     		.2byte	0x288
 9424 19c9 4A160000 		.4byte	0x164a
 9425 19cd 02       		.uleb128 0x2
 9426 19ce 91       		.byte	0x91
 9427 19cf 68       		.sleb128 -24
 9428 19d0 23       		.uleb128 0x23
 9429 19d1 32000000 		.4byte	.LBB19
 9430 19d5 04010000 		.4byte	.LBE19-.LBB19
 9431 19d9 28       		.uleb128 0x28
 9432 19da 760B0000 		.4byte	.LASF451
 9433 19de 01       		.byte	0x1
 9434 19df 9102     		.2byte	0x291
 9435 19e1 81000000 		.4byte	0x81
 9436 19e5 02       		.uleb128 0x2
 9437 19e6 91       		.byte	0x91
 9438 19e7 67       		.sleb128 -25
 9439 19e8 28       		.uleb128 0x28
 9440 19e9 3A0F0000 		.4byte	.LASF422
 9441 19ed 01       		.byte	0x1
 9442 19ee 9302     		.2byte	0x293
 9443 19f0 A5000000 		.4byte	0xa5
 9444 19f4 02       		.uleb128 0x2
 9445 19f5 91       		.byte	0x91
 9446 19f6 6E       		.sleb128 -18
 9447 19f7 28       		.uleb128 0x28
 9448 19f8 A90E0000 		.4byte	.LASF452
 9449 19fc 01       		.byte	0x1
 9450 19fd 9D02     		.2byte	0x29d
 9451 19ff 99000000 		.4byte	0x99
 9452 1a03 02       		.uleb128 0x2
 9453 1a04 91       		.byte	0x91
 9454 1a05 60       		.sleb128 -32
 9455 1a06 28       		.uleb128 0x28
 9456 1a07 78200000 		.4byte	.LASF453
 9457 1a0b 01       		.byte	0x1
 9458 1a0c A202     		.2byte	0x2a2
 9459 1a0e 99000000 		.4byte	0x99
 9460 1a12 02       		.uleb128 0x2
 9461 1a13 91       		.byte	0x91
 9462 1a14 5C       		.sleb128 -36
 9463 1a15 00       		.byte	0
 9464 1a16 00       		.byte	0
 9465 1a17 2A       		.uleb128 0x2a
 9466 1a18 EB110000 		.4byte	.LASF454
 9467 1a1c 01       		.byte	0x1
 9468 1a1d B002     		.2byte	0x2b0
 9469 1a1f FF020000 		.4byte	0x2ff
 9470 1a23 00000000 		.4byte	.LFB81
 9471 1a27 40010000 		.4byte	.LFE81-.LFB81
 9472 1a2b 01       		.uleb128 0x1
 9473 1a2c 9C       		.byte	0x9c
 9474 1a2d B41A0000 		.4byte	0x1ab4
 9475 1a31 27       		.uleb128 0x27
 9476 1a32 84170000 		.4byte	.LASF419
ARM GAS  C:\Users\Lenovo\AppData\Local\Temp\ccKs44LO.s 			page 193


 9477 1a36 01       		.byte	0x1
 9478 1a37 B002     		.2byte	0x2b0
 9479 1a39 FB000000 		.4byte	0xfb
 9480 1a3d 02       		.uleb128 0x2
 9481 1a3e 91       		.byte	0x91
 9482 1a3f 44       		.sleb128 -60
 9483 1a40 28       		.uleb128 0x28
 9484 1a41 41120000 		.4byte	.LASF416
 9485 1a45 01       		.byte	0x1
 9486 1a46 B202     		.2byte	0x2b2
 9487 1a48 FF020000 		.4byte	0x2ff
 9488 1a4c 02       		.uleb128 0x2
 9489 1a4d 91       		.byte	0x91
 9490 1a4e 6F       		.sleb128 -17
 9491 1a4f 28       		.uleb128 0x28
 9492 1a50 A9140000 		.4byte	.LASF444
 9493 1a54 01       		.byte	0x1
 9494 1a55 B302     		.2byte	0x2b3
 9495 1a57 E40F0000 		.4byte	0xfe4
 9496 1a5b 02       		.uleb128 0x2
 9497 1a5c 91       		.byte	0x91
 9498 1a5d 4C       		.sleb128 -52
 9499 1a5e 28       		.uleb128 0x28
 9500 1a5f 11090000 		.4byte	.LASF420
 9501 1a63 01       		.byte	0x1
 9502 1a64 B402     		.2byte	0x2b4
 9503 1a66 4A160000 		.4byte	0x164a
 9504 1a6a 02       		.uleb128 0x2
 9505 1a6b 91       		.byte	0x91
 9506 1a6c 68       		.sleb128 -24
 9507 1a6d 23       		.uleb128 0x23
 9508 1a6e 32000000 		.4byte	.LBB20
 9509 1a72 02010000 		.4byte	.LBE20-.LBB20
 9510 1a76 28       		.uleb128 0x28
 9511 1a77 760B0000 		.4byte	.LASF451
 9512 1a7b 01       		.byte	0x1
 9513 1a7c BD02     		.2byte	0x2bd
 9514 1a7e 81000000 		.4byte	0x81
 9515 1a82 02       		.uleb128 0x2
 9516 1a83 91       		.byte	0x91
 9517 1a84 67       		.sleb128 -25
 9518 1a85 28       		.uleb128 0x28
 9519 1a86 3A0F0000 		.4byte	.LASF422
 9520 1a8a 01       		.byte	0x1
 9521 1a8b BF02     		.2byte	0x2bf
 9522 1a8d A5000000 		.4byte	0xa5
 9523 1a91 02       		.uleb128 0x2
 9524 1a92 91       		.byte	0x91
 9525 1a93 6E       		.sleb128 -18
 9526 1a94 28       		.uleb128 0x28
 9527 1a95 A90E0000 		.4byte	.LASF452
 9528 1a99 01       		.byte	0x1
 9529 1a9a C902     		.2byte	0x2c9
 9530 1a9c 99000000 		.4byte	0x99
 9531 1aa0 02       		.uleb128 0x2
 9532 1aa1 91       		.byte	0x91
 9533 1aa2 60       		.sleb128 -32
ARM GAS  C:\Users\Lenovo\AppData\Local\Temp\ccKs44LO.s 			page 194


 9534 1aa3 28       		.uleb128 0x28
 9535 1aa4 78200000 		.4byte	.LASF453
 9536 1aa8 01       		.byte	0x1
 9537 1aa9 CE02     		.2byte	0x2ce
 9538 1aab 99000000 		.4byte	0x99
 9539 1aaf 02       		.uleb128 0x2
 9540 1ab0 91       		.byte	0x91
 9541 1ab1 5C       		.sleb128 -36
 9542 1ab2 00       		.byte	0
 9543 1ab3 00       		.byte	0
 9544 1ab4 2A       		.uleb128 0x2a
 9545 1ab5 B1120000 		.4byte	.LASF455
 9546 1ab9 01       		.byte	0x1
 9547 1aba DC02     		.2byte	0x2dc
 9548 1abc FF020000 		.4byte	0x2ff
 9549 1ac0 00000000 		.4byte	.LFB82
 9550 1ac4 1C010000 		.4byte	.LFE82-.LFB82
 9551 1ac8 01       		.uleb128 0x1
 9552 1ac9 9C       		.byte	0x9c
 9553 1aca 421B0000 		.4byte	0x1b42
 9554 1ace 27       		.uleb128 0x27
 9555 1acf 84170000 		.4byte	.LASF419
 9556 1ad3 01       		.byte	0x1
 9557 1ad4 DC02     		.2byte	0x2dc
 9558 1ad6 FB000000 		.4byte	0xfb
 9559 1ada 02       		.uleb128 0x2
 9560 1adb 91       		.byte	0x91
 9561 1adc 4C       		.sleb128 -52
 9562 1add 28       		.uleb128 0x28
 9563 1ade 41120000 		.4byte	.LASF416
 9564 1ae2 01       		.byte	0x1
 9565 1ae3 DE02     		.2byte	0x2de
 9566 1ae5 FF020000 		.4byte	0x2ff
 9567 1ae9 02       		.uleb128 0x2
 9568 1aea 91       		.byte	0x91
 9569 1aeb 6F       		.sleb128 -17
 9570 1aec 28       		.uleb128 0x28
 9571 1aed A9140000 		.4byte	.LASF444
 9572 1af1 01       		.byte	0x1
 9573 1af2 DF02     		.2byte	0x2df
 9574 1af4 E40F0000 		.4byte	0xfe4
 9575 1af8 02       		.uleb128 0x2
 9576 1af9 91       		.byte	0x91
 9577 1afa 50       		.sleb128 -48
 9578 1afb 28       		.uleb128 0x28
 9579 1afc 11090000 		.4byte	.LASF420
 9580 1b00 01       		.byte	0x1
 9581 1b01 E002     		.2byte	0x2e0
 9582 1b03 4A160000 		.4byte	0x164a
 9583 1b07 02       		.uleb128 0x2
 9584 1b08 91       		.byte	0x91
 9585 1b09 68       		.sleb128 -24
 9586 1b0a 23       		.uleb128 0x23
 9587 1b0b 30000000 		.4byte	.LBB21
 9588 1b0f DC000000 		.4byte	.LBE21-.LBB21
 9589 1b13 28       		.uleb128 0x28
 9590 1b14 760B0000 		.4byte	.LASF451
ARM GAS  C:\Users\Lenovo\AppData\Local\Temp\ccKs44LO.s 			page 195


 9591 1b18 01       		.byte	0x1
 9592 1b19 E902     		.2byte	0x2e9
 9593 1b1b 81000000 		.4byte	0x81
 9594 1b1f 02       		.uleb128 0x2
 9595 1b20 91       		.byte	0x91
 9596 1b21 67       		.sleb128 -25
 9597 1b22 28       		.uleb128 0x28
 9598 1b23 3A0F0000 		.4byte	.LASF422
 9599 1b27 01       		.byte	0x1
 9600 1b28 EB02     		.2byte	0x2eb
 9601 1b2a A5000000 		.4byte	0xa5
 9602 1b2e 02       		.uleb128 0x2
 9603 1b2f 91       		.byte	0x91
 9604 1b30 6E       		.sleb128 -18
 9605 1b31 28       		.uleb128 0x28
 9606 1b32 A90E0000 		.4byte	.LASF452
 9607 1b36 01       		.byte	0x1
 9608 1b37 F402     		.2byte	0x2f4
 9609 1b39 99000000 		.4byte	0x99
 9610 1b3d 02       		.uleb128 0x2
 9611 1b3e 91       		.byte	0x91
 9612 1b3f 60       		.sleb128 -32
 9613 1b40 00       		.byte	0
 9614 1b41 00       		.byte	0
 9615 1b42 2A       		.uleb128 0x2a
 9616 1b43 530B0000 		.4byte	.LASF456
 9617 1b47 01       		.byte	0x1
 9618 1b48 FD02     		.2byte	0x2fd
 9619 1b4a FF020000 		.4byte	0x2ff
 9620 1b4e 00000000 		.4byte	.LFB83
 9621 1b52 A4010000 		.4byte	.LFE83-.LFB83
 9622 1b56 01       		.uleb128 0x1
 9623 1b57 9C       		.byte	0x9c
 9624 1b58 8A1B0000 		.4byte	0x1b8a
 9625 1b5c 27       		.uleb128 0x27
 9626 1b5d 84170000 		.4byte	.LASF419
 9627 1b61 01       		.byte	0x1
 9628 1b62 FD02     		.2byte	0x2fd
 9629 1b64 FB000000 		.4byte	0xfb
 9630 1b68 02       		.uleb128 0x2
 9631 1b69 91       		.byte	0x91
 9632 1b6a 6C       		.sleb128 -20
 9633 1b6b 28       		.uleb128 0x28
 9634 1b6c 41120000 		.4byte	.LASF416
 9635 1b70 01       		.byte	0x1
 9636 1b71 FF02     		.2byte	0x2ff
 9637 1b73 FF020000 		.4byte	0x2ff
 9638 1b77 02       		.uleb128 0x2
 9639 1b78 91       		.byte	0x91
 9640 1b79 77       		.sleb128 -9
 9641 1b7a 28       		.uleb128 0x28
 9642 1b7b 11090000 		.4byte	.LASF420
 9643 1b7f 01       		.byte	0x1
 9644 1b80 0003     		.2byte	0x300
 9645 1b82 4A160000 		.4byte	0x164a
 9646 1b86 02       		.uleb128 0x2
 9647 1b87 91       		.byte	0x91
ARM GAS  C:\Users\Lenovo\AppData\Local\Temp\ccKs44LO.s 			page 196


 9648 1b88 70       		.sleb128 -16
 9649 1b89 00       		.byte	0
 9650 1b8a 2A       		.uleb128 0x2a
 9651 1b8b CE220000 		.4byte	.LASF457
 9652 1b8f 01       		.byte	0x1
 9653 1b90 2403     		.2byte	0x324
 9654 1b92 FF020000 		.4byte	0x2ff
 9655 1b96 00000000 		.4byte	.LFB84
 9656 1b9a 5C010000 		.4byte	.LFE84-.LFB84
 9657 1b9e 01       		.uleb128 0x1
 9658 1b9f 9C       		.byte	0x9c
 9659 1ba0 D21B0000 		.4byte	0x1bd2
 9660 1ba4 27       		.uleb128 0x27
 9661 1ba5 84170000 		.4byte	.LASF419
 9662 1ba9 01       		.byte	0x1
 9663 1baa 2403     		.2byte	0x324
 9664 1bac FB000000 		.4byte	0xfb
 9665 1bb0 02       		.uleb128 0x2
 9666 1bb1 91       		.byte	0x91
 9667 1bb2 6C       		.sleb128 -20
 9668 1bb3 28       		.uleb128 0x28
 9669 1bb4 41120000 		.4byte	.LASF416
 9670 1bb8 01       		.byte	0x1
 9671 1bb9 2603     		.2byte	0x326
 9672 1bbb FF020000 		.4byte	0x2ff
 9673 1bbf 02       		.uleb128 0x2
 9674 1bc0 91       		.byte	0x91
 9675 1bc1 77       		.sleb128 -9
 9676 1bc2 28       		.uleb128 0x28
 9677 1bc3 11090000 		.4byte	.LASF420
 9678 1bc7 01       		.byte	0x1
 9679 1bc8 2703     		.2byte	0x327
 9680 1bca 4A160000 		.4byte	0x164a
 9681 1bce 02       		.uleb128 0x2
 9682 1bcf 91       		.byte	0x91
 9683 1bd0 70       		.sleb128 -16
 9684 1bd1 00       		.byte	0
 9685 1bd2 2C       		.uleb128 0x2c
 9686 1bd3 940E0000 		.4byte	.LASF458
 9687 1bd7 01       		.byte	0x1
 9688 1bd8 4103     		.2byte	0x341
 9689 1bda 00000000 		.4byte	.LFB85
 9690 1bde 8C020000 		.4byte	.LFE85-.LFB85
 9691 1be2 01       		.uleb128 0x1
 9692 1be3 9C       		.byte	0x9c
 9693 1be4 161C0000 		.4byte	0x1c16
 9694 1be8 27       		.uleb128 0x27
 9695 1be9 84170000 		.4byte	.LASF419
 9696 1bed 01       		.byte	0x1
 9697 1bee 4103     		.2byte	0x341
 9698 1bf0 FB000000 		.4byte	0xfb
 9699 1bf4 02       		.uleb128 0x2
 9700 1bf5 91       		.byte	0x91
 9701 1bf6 6C       		.sleb128 -20
 9702 1bf7 27       		.uleb128 0x27
 9703 1bf8 541C0000 		.4byte	.LASF459
 9704 1bfc 01       		.byte	0x1
ARM GAS  C:\Users\Lenovo\AppData\Local\Temp\ccKs44LO.s 			page 197


 9705 1bfd 4103     		.2byte	0x341
 9706 1bff 1B010000 		.4byte	0x11b
 9707 1c03 02       		.uleb128 0x2
 9708 1c04 91       		.byte	0x91
 9709 1c05 68       		.sleb128 -24
 9710 1c06 28       		.uleb128 0x28
 9711 1c07 11090000 		.4byte	.LASF420
 9712 1c0b 01       		.byte	0x1
 9713 1c0c 4303     		.2byte	0x343
 9714 1c0e 4A160000 		.4byte	0x164a
 9715 1c12 02       		.uleb128 0x2
 9716 1c13 91       		.byte	0x91
 9717 1c14 74       		.sleb128 -12
 9718 1c15 00       		.byte	0
 9719 1c16 2C       		.uleb128 0x2c
 9720 1c17 E6130000 		.4byte	.LASF460
 9721 1c1b 01       		.byte	0x1
 9722 1c1c 6D03     		.2byte	0x36d
 9723 1c1e 00000000 		.4byte	.LFB86
 9724 1c22 E8000000 		.4byte	.LFE86-.LFB86
 9725 1c26 01       		.uleb128 0x1
 9726 1c27 9C       		.byte	0x9c
 9727 1c28 5A1C0000 		.4byte	0x1c5a
 9728 1c2c 27       		.uleb128 0x27
 9729 1c2d 84170000 		.4byte	.LASF419
 9730 1c31 01       		.byte	0x1
 9731 1c32 6D03     		.2byte	0x36d
 9732 1c34 FB000000 		.4byte	0xfb
 9733 1c38 02       		.uleb128 0x2
 9734 1c39 91       		.byte	0x91
 9735 1c3a 6C       		.sleb128 -20
 9736 1c3b 27       		.uleb128 0x27
 9737 1c3c 541C0000 		.4byte	.LASF459
 9738 1c40 01       		.byte	0x1
 9739 1c41 6D03     		.2byte	0x36d
 9740 1c43 5A1C0000 		.4byte	0x1c5a
 9741 1c47 02       		.uleb128 0x2
 9742 1c48 91       		.byte	0x91
 9743 1c49 68       		.sleb128 -24
 9744 1c4a 28       		.uleb128 0x28
 9745 1c4b 11090000 		.4byte	.LASF420
 9746 1c4f 01       		.byte	0x1
 9747 1c50 6F03     		.2byte	0x36f
 9748 1c52 4A160000 		.4byte	0x164a
 9749 1c56 02       		.uleb128 0x2
 9750 1c57 91       		.byte	0x91
 9751 1c58 74       		.sleb128 -12
 9752 1c59 00       		.byte	0
 9753 1c5a 07       		.uleb128 0x7
 9754 1c5b 04       		.byte	0x4
 9755 1c5c FF020000 		.4byte	0x2ff
 9756 1c60 26       		.uleb128 0x26
 9757 1c61 CC0C0000 		.4byte	.LASF461
 9758 1c65 01       		.byte	0x1
 9759 1c66 9D03     		.2byte	0x39d
 9760 1c68 00000000 		.4byte	.LFB87
 9761 1c6c 4C010000 		.4byte	.LFE87-.LFB87
ARM GAS  C:\Users\Lenovo\AppData\Local\Temp\ccKs44LO.s 			page 198


 9762 1c70 01       		.uleb128 0x1
 9763 1c71 9C       		.byte	0x9c
 9764 1c72 E41C0000 		.4byte	0x1ce4
 9765 1c76 27       		.uleb128 0x27
 9766 1c77 84170000 		.4byte	.LASF419
 9767 1c7b 01       		.byte	0x1
 9768 1c7c 9D03     		.2byte	0x39d
 9769 1c7e FB000000 		.4byte	0xfb
 9770 1c82 02       		.uleb128 0x2
 9771 1c83 91       		.byte	0x91
 9772 1c84 54       		.sleb128 -44
 9773 1c85 28       		.uleb128 0x28
 9774 1c86 11090000 		.4byte	.LASF420
 9775 1c8a 01       		.byte	0x1
 9776 1c8b 9F03     		.2byte	0x39f
 9777 1c8d 4A160000 		.4byte	0x164a
 9778 1c91 02       		.uleb128 0x2
 9779 1c92 91       		.byte	0x91
 9780 1c93 60       		.sleb128 -32
 9781 1c94 23       		.uleb128 0x23
 9782 1c95 14000000 		.4byte	.LBB22
 9783 1c99 32010000 		.4byte	.LBE22-.LBB22
 9784 1c9d 28       		.uleb128 0x28
 9785 1c9e B7100000 		.4byte	.LASF443
 9786 1ca2 01       		.byte	0x1
 9787 1ca3 A203     		.2byte	0x3a2
 9788 1ca5 CB000000 		.4byte	0xcb
 9789 1ca9 02       		.uleb128 0x2
 9790 1caa 91       		.byte	0x91
 9791 1cab 67       		.sleb128 -25
 9792 1cac 2B       		.uleb128 0x2b
 9793 1cad 96000000 		.4byte	.LBB23
 9794 1cb1 56000000 		.4byte	.LBE23-.LBB23
 9795 1cb5 C91C0000 		.4byte	0x1cc9
 9796 1cb9 28       		.uleb128 0x28
 9797 1cba E6090000 		.4byte	.LASF446
 9798 1cbe 01       		.byte	0x1
 9799 1cbf B903     		.2byte	0x3b9
 9800 1cc1 8E170000 		.4byte	0x178e
 9801 1cc5 02       		.uleb128 0x2
 9802 1cc6 91       		.byte	0x91
 9803 1cc7 5C       		.sleb128 -36
 9804 1cc8 00       		.byte	0
 9805 1cc9 23       		.uleb128 0x23
 9806 1cca F0000000 		.4byte	.LBB24
 9807 1cce 56000000 		.4byte	.LBE24-.LBB24
 9808 1cd2 28       		.uleb128 0x28
 9809 1cd3 E6090000 		.4byte	.LASF446
 9810 1cd7 01       		.byte	0x1
 9811 1cd8 C203     		.2byte	0x3c2
 9812 1cda 8E170000 		.4byte	0x178e
 9813 1cde 02       		.uleb128 0x2
 9814 1cdf 91       		.byte	0x91
 9815 1ce0 58       		.sleb128 -40
 9816 1ce1 00       		.byte	0
 9817 1ce2 00       		.byte	0
 9818 1ce3 00       		.byte	0
ARM GAS  C:\Users\Lenovo\AppData\Local\Temp\ccKs44LO.s 			page 199


 9819 1ce4 26       		.uleb128 0x26
 9820 1ce5 DF040000 		.4byte	.LASF462
 9821 1ce9 01       		.byte	0x1
 9822 1cea CD03     		.2byte	0x3cd
 9823 1cec 00000000 		.4byte	.LFB88
 9824 1cf0 62010000 		.4byte	.LFE88-.LFB88
 9825 1cf4 01       		.uleb128 0x1
 9826 1cf5 9C       		.byte	0x9c
 9827 1cf6 681D0000 		.4byte	0x1d68
 9828 1cfa 27       		.uleb128 0x27
 9829 1cfb 84170000 		.4byte	.LASF419
 9830 1cff 01       		.byte	0x1
 9831 1d00 CD03     		.2byte	0x3cd
 9832 1d02 FB000000 		.4byte	0xfb
 9833 1d06 02       		.uleb128 0x2
 9834 1d07 91       		.byte	0x91
 9835 1d08 54       		.sleb128 -44
 9836 1d09 28       		.uleb128 0x28
 9837 1d0a 11090000 		.4byte	.LASF420
 9838 1d0e 01       		.byte	0x1
 9839 1d0f CF03     		.2byte	0x3cf
 9840 1d11 4A160000 		.4byte	0x164a
 9841 1d15 02       		.uleb128 0x2
 9842 1d16 91       		.byte	0x91
 9843 1d17 60       		.sleb128 -32
 9844 1d18 23       		.uleb128 0x23
 9845 1d19 14000000 		.4byte	.LBB25
 9846 1d1d 48010000 		.4byte	.LBE25-.LBB25
 9847 1d21 28       		.uleb128 0x28
 9848 1d22 B7100000 		.4byte	.LASF443
 9849 1d26 01       		.byte	0x1
 9850 1d27 D203     		.2byte	0x3d2
 9851 1d29 CB000000 		.4byte	0xcb
 9852 1d2d 02       		.uleb128 0x2
 9853 1d2e 91       		.byte	0x91
 9854 1d2f 67       		.sleb128 -25
 9855 1d30 2B       		.uleb128 0x2b
 9856 1d31 AC000000 		.4byte	.LBB26
 9857 1d35 56000000 		.4byte	.LBE26-.LBB26
 9858 1d39 4D1D0000 		.4byte	0x1d4d
 9859 1d3d 28       		.uleb128 0x28
 9860 1d3e E6090000 		.4byte	.LASF446
 9861 1d42 01       		.byte	0x1
 9862 1d43 EF03     		.2byte	0x3ef
 9863 1d45 8E170000 		.4byte	0x178e
 9864 1d49 02       		.uleb128 0x2
 9865 1d4a 91       		.byte	0x91
 9866 1d4b 5C       		.sleb128 -36
 9867 1d4c 00       		.byte	0
 9868 1d4d 23       		.uleb128 0x23
 9869 1d4e 06010000 		.4byte	.LBB27
 9870 1d52 56000000 		.4byte	.LBE27-.LBB27
 9871 1d56 28       		.uleb128 0x28
 9872 1d57 E6090000 		.4byte	.LASF446
 9873 1d5b 01       		.byte	0x1
 9874 1d5c F803     		.2byte	0x3f8
 9875 1d5e 8E170000 		.4byte	0x178e
ARM GAS  C:\Users\Lenovo\AppData\Local\Temp\ccKs44LO.s 			page 200


 9876 1d62 02       		.uleb128 0x2
 9877 1d63 91       		.byte	0x91
 9878 1d64 58       		.sleb128 -40
 9879 1d65 00       		.byte	0
 9880 1d66 00       		.byte	0
 9881 1d67 00       		.byte	0
 9882 1d68 26       		.uleb128 0x26
 9883 1d69 6F080000 		.4byte	.LASF463
 9884 1d6d 01       		.byte	0x1
 9885 1d6e 0704     		.2byte	0x407
 9886 1d70 00000000 		.4byte	.LFB89
 9887 1d74 90010000 		.4byte	.LFE89-.LFB89
 9888 1d78 01       		.uleb128 0x1
 9889 1d79 9C       		.byte	0x9c
 9890 1d7a 201E0000 		.4byte	0x1e20
 9891 1d7e 27       		.uleb128 0x27
 9892 1d7f 84170000 		.4byte	.LASF419
 9893 1d83 01       		.byte	0x1
 9894 1d84 0704     		.2byte	0x407
 9895 1d86 FB000000 		.4byte	0xfb
 9896 1d8a 03       		.uleb128 0x3
 9897 1d8b 91       		.byte	0x91
 9898 1d8c B47F     		.sleb128 -76
 9899 1d8e 28       		.uleb128 0x28
 9900 1d8f 11090000 		.4byte	.LASF420
 9901 1d93 01       		.byte	0x1
 9902 1d94 0904     		.2byte	0x409
 9903 1d96 F7100000 		.4byte	0x10f7
 9904 1d9a 02       		.uleb128 0x2
 9905 1d9b 91       		.byte	0x91
 9906 1d9c 60       		.sleb128 -32
 9907 1d9d 23       		.uleb128 0x23
 9908 1d9e 14000000 		.4byte	.LBB28
 9909 1da2 76010000 		.4byte	.LBE28-.LBB28
 9910 1da6 28       		.uleb128 0x28
 9911 1da7 B7100000 		.4byte	.LASF443
 9912 1dab 01       		.byte	0x1
 9913 1dac 0C04     		.2byte	0x40c
 9914 1dae CB000000 		.4byte	0xcb
 9915 1db2 02       		.uleb128 0x2
 9916 1db3 91       		.byte	0x91
 9917 1db4 67       		.sleb128 -25
 9918 1db5 2B       		.uleb128 0x2b
 9919 1db6 9E000000 		.4byte	.LBB29
 9920 1dba 74000000 		.4byte	.LBE29-.LBB29
 9921 1dbe EB1D0000 		.4byte	0x1deb
 9922 1dc2 28       		.uleb128 0x28
 9923 1dc3 E6090000 		.4byte	.LASF446
 9924 1dc7 01       		.byte	0x1
 9925 1dc8 2304     		.2byte	0x423
 9926 1dca B4080000 		.4byte	0x8b4
 9927 1dce 02       		.uleb128 0x2
 9928 1dcf 91       		.byte	0x91
 9929 1dd0 5C       		.sleb128 -36
 9930 1dd1 23       		.uleb128 0x23
 9931 1dd2 AC000000 		.4byte	.LBB30
 9932 1dd6 66000000 		.4byte	.LBE30-.LBB30
ARM GAS  C:\Users\Lenovo\AppData\Local\Temp\ccKs44LO.s 			page 201


 9933 1dda 28       		.uleb128 0x28
 9934 1ddb 5F1A0000 		.4byte	.LASF464
 9935 1ddf 01       		.byte	0x1
 9936 1de0 2604     		.2byte	0x426
 9937 1de2 E40F0000 		.4byte	0xfe4
 9938 1de6 02       		.uleb128 0x2
 9939 1de7 91       		.byte	0x91
 9940 1de8 48       		.sleb128 -56
 9941 1de9 00       		.byte	0
 9942 1dea 00       		.byte	0
 9943 1deb 23       		.uleb128 0x23
 9944 1dec 16010000 		.4byte	.LBB31
 9945 1df0 74000000 		.4byte	.LBE31-.LBB31
 9946 1df4 28       		.uleb128 0x28
 9947 1df5 E6090000 		.4byte	.LASF446
 9948 1df9 01       		.byte	0x1
 9949 1dfa 2F04     		.2byte	0x42f
 9950 1dfc B4080000 		.4byte	0x8b4
 9951 1e00 02       		.uleb128 0x2
 9952 1e01 91       		.byte	0x91
 9953 1e02 58       		.sleb128 -40
 9954 1e03 23       		.uleb128 0x23
 9955 1e04 24010000 		.4byte	.LBB32
 9956 1e08 66000000 		.4byte	.LBE32-.LBB32
 9957 1e0c 28       		.uleb128 0x28
 9958 1e0d 5F1A0000 		.4byte	.LASF464
 9959 1e11 01       		.byte	0x1
 9960 1e12 3204     		.2byte	0x432
 9961 1e14 E40F0000 		.4byte	0xfe4
 9962 1e18 03       		.uleb128 0x3
 9963 1e19 91       		.byte	0x91
 9964 1e1a B87F     		.sleb128 -72
 9965 1e1c 00       		.byte	0
 9966 1e1d 00       		.byte	0
 9967 1e1e 00       		.byte	0
 9968 1e1f 00       		.byte	0
 9969 1e20 29       		.uleb128 0x29
 9970 1e21 A51F0000 		.4byte	.LASF465
 9971 1e25 01       		.byte	0x1
 9972 1e26 4004     		.2byte	0x440
 9973 1e28 F7100000 		.4byte	0x10f7
 9974 1e2c 00000000 		.4byte	.LFB90
 9975 1e30 B0000000 		.4byte	.LFE90-.LFB90
 9976 1e34 01       		.uleb128 0x1
 9977 1e35 9C       		.byte	0x9c
 9978 1e36 591E0000 		.4byte	0x1e59
 9979 1e3a 27       		.uleb128 0x27
 9980 1e3b 2A0E0000 		.4byte	.LASF466
 9981 1e3f 01       		.byte	0x1
 9982 1e40 4004     		.2byte	0x440
 9983 1e42 81000000 		.4byte	0x81
 9984 1e46 02       		.uleb128 0x2
 9985 1e47 91       		.byte	0x91
 9986 1e48 6F       		.sleb128 -17
 9987 1e49 28       		.uleb128 0x28
 9988 1e4a 41120000 		.4byte	.LASF416
 9989 1e4e 01       		.byte	0x1
ARM GAS  C:\Users\Lenovo\AppData\Local\Temp\ccKs44LO.s 			page 202


 9990 1e4f 4204     		.2byte	0x442
 9991 1e51 F7100000 		.4byte	0x10f7
 9992 1e55 02       		.uleb128 0x2
 9993 1e56 91       		.byte	0x91
 9994 1e57 74       		.sleb128 -12
 9995 1e58 00       		.byte	0
 9996 1e59 26       		.uleb128 0x26
 9997 1e5a 8F1B0000 		.4byte	.LASF467
 9998 1e5e 01       		.byte	0x1
 9999 1e5f 6204     		.2byte	0x462
 10000 1e61 00000000 		.4byte	.LFB91
 10001 1e65 B4000000 		.4byte	.LFE91-.LFB91
 10002 1e69 01       		.uleb128 0x1
 10003 1e6a 9C       		.byte	0x9c
 10004 1e6b C51E0000 		.4byte	0x1ec5
 10005 1e6f 27       		.uleb128 0x27
 10006 1e70 84170000 		.4byte	.LASF419
 10007 1e74 01       		.byte	0x1
 10008 1e75 6204     		.2byte	0x462
 10009 1e77 FB000000 		.4byte	0xfb
 10010 1e7b 02       		.uleb128 0x2
 10011 1e7c 91       		.byte	0x91
 10012 1e7d 5C       		.sleb128 -36
 10013 1e7e 28       		.uleb128 0x28
 10014 1e7f 11090000 		.4byte	.LASF420
 10015 1e83 01       		.byte	0x1
 10016 1e84 6404     		.2byte	0x464
 10017 1e86 F7100000 		.4byte	0x10f7
 10018 1e8a 02       		.uleb128 0x2
 10019 1e8b 91       		.byte	0x91
 10020 1e8c 64       		.sleb128 -28
 10021 1e8d 23       		.uleb128 0x23
 10022 1e8e 12000000 		.4byte	.LBB33
 10023 1e92 94000000 		.4byte	.LBE33-.LBB33
 10024 1e96 28       		.uleb128 0x28
 10025 1e97 48160000 		.4byte	.LASF468
 10026 1e9b 01       		.byte	0x1
 10027 1e9c 6704     		.2byte	0x467
 10028 1e9e 81000000 		.4byte	0x81
 10029 1ea2 02       		.uleb128 0x2
 10030 1ea3 91       		.byte	0x91
 10031 1ea4 6F       		.sleb128 -17
 10032 1ea5 28       		.uleb128 0x28
 10033 1ea6 11090000 		.4byte	.LASF420
 10034 1eaa 01       		.byte	0x1
 10035 1eab 6804     		.2byte	0x468
 10036 1ead F7100000 		.4byte	0x10f7
 10037 1eb1 02       		.uleb128 0x2
 10038 1eb2 91       		.byte	0x91
 10039 1eb3 60       		.sleb128 -32
 10040 1eb4 28       		.uleb128 0x28
 10041 1eb5 52200000 		.4byte	.LASF469
 10042 1eb9 01       		.byte	0x1
 10043 1eba 7804     		.2byte	0x478
 10044 1ebc C51E0000 		.4byte	0x1ec5
 10045 1ec0 02       		.uleb128 0x2
 10046 1ec1 91       		.byte	0x91
ARM GAS  C:\Users\Lenovo\AppData\Local\Temp\ccKs44LO.s 			page 203


 10047 1ec2 68       		.sleb128 -24
 10048 1ec3 00       		.byte	0
 10049 1ec4 00       		.byte	0
 10050 1ec5 07       		.uleb128 0x7
 10051 1ec6 04       		.byte	0x4
 10052 1ec7 3B0E0000 		.4byte	0xe3b
 10053 1ecb 26       		.uleb128 0x26
 10054 1ecc 92040000 		.4byte	.LASF470
 10055 1ed0 01       		.byte	0x1
 10056 1ed1 8904     		.2byte	0x489
 10057 1ed3 00000000 		.4byte	.LFB92
 10058 1ed7 40000000 		.4byte	.LFE92-.LFB92
 10059 1edb 01       		.uleb128 0x1
 10060 1edc 9C       		.byte	0x9c
 10061 1edd 001F0000 		.4byte	0x1f00
 10062 1ee1 27       		.uleb128 0x27
 10063 1ee2 84170000 		.4byte	.LASF419
 10064 1ee6 01       		.byte	0x1
 10065 1ee7 8904     		.2byte	0x489
 10066 1ee9 FB000000 		.4byte	0xfb
 10067 1eed 02       		.uleb128 0x2
 10068 1eee 91       		.byte	0x91
 10069 1eef 6C       		.sleb128 -20
 10070 1ef0 28       		.uleb128 0x28
 10071 1ef1 11090000 		.4byte	.LASF420
 10072 1ef5 01       		.byte	0x1
 10073 1ef6 8B04     		.2byte	0x48b
 10074 1ef8 F7100000 		.4byte	0x10f7
 10075 1efc 02       		.uleb128 0x2
 10076 1efd 91       		.byte	0x91
 10077 1efe 74       		.sleb128 -12
 10078 1eff 00       		.byte	0
 10079 1f00 26       		.uleb128 0x26
 10080 1f01 531F0000 		.4byte	.LASF471
 10081 1f05 01       		.byte	0x1
 10082 1f06 9804     		.2byte	0x498
 10083 1f08 00000000 		.4byte	.LFB93
 10084 1f0c 48010000 		.4byte	.LFE93-.LFB93
 10085 1f10 01       		.uleb128 0x1
 10086 1f11 9C       		.byte	0x9c
 10087 1f12 4E1F0000 		.4byte	0x1f4e
 10088 1f16 27       		.uleb128 0x27
 10089 1f17 84170000 		.4byte	.LASF419
 10090 1f1b 01       		.byte	0x1
 10091 1f1c 9804     		.2byte	0x498
 10092 1f1e FB000000 		.4byte	0xfb
 10093 1f22 02       		.uleb128 0x2
 10094 1f23 91       		.byte	0x91
 10095 1f24 64       		.sleb128 -28
 10096 1f25 28       		.uleb128 0x28
 10097 1f26 11090000 		.4byte	.LASF420
 10098 1f2a 01       		.byte	0x1
 10099 1f2b 9A04     		.2byte	0x49a
 10100 1f2d F7100000 		.4byte	0x10f7
 10101 1f31 02       		.uleb128 0x2
 10102 1f32 91       		.byte	0x91
 10103 1f33 68       		.sleb128 -24
ARM GAS  C:\Users\Lenovo\AppData\Local\Temp\ccKs44LO.s 			page 204


 10104 1f34 23       		.uleb128 0x23
 10105 1f35 72000000 		.4byte	.LBB34
 10106 1f39 C8000000 		.4byte	.LBE34-.LBB34
 10107 1f3d 2D       		.uleb128 0x2d
 10108 1f3e 70747200 		.ascii	"ptr\000"
 10109 1f42 01       		.byte	0x1
 10110 1f43 B004     		.2byte	0x4b0
 10111 1f45 4E1F0000 		.4byte	0x1f4e
 10112 1f49 02       		.uleb128 0x2
 10113 1f4a 91       		.byte	0x91
 10114 1f4b 6C       		.sleb128 -20
 10115 1f4c 00       		.byte	0
 10116 1f4d 00       		.byte	0
 10117 1f4e 07       		.uleb128 0x7
 10118 1f4f 04       		.byte	0x4
 10119 1f50 730E0000 		.4byte	0xe73
 10120 1f54 26       		.uleb128 0x26
 10121 1f55 30060000 		.4byte	.LASF472
 10122 1f59 01       		.byte	0x1
 10123 1f5a D504     		.2byte	0x4d5
 10124 1f5c 00000000 		.4byte	.LFB94
 10125 1f60 A8010000 		.4byte	.LFE94-.LFB94
 10126 1f64 01       		.uleb128 0x1
 10127 1f65 9C       		.byte	0x9c
 10128 1f66 BB1F0000 		.4byte	0x1fbb
 10129 1f6a 27       		.uleb128 0x27
 10130 1f6b 84170000 		.4byte	.LASF419
 10131 1f6f 01       		.byte	0x1
 10132 1f70 D504     		.2byte	0x4d5
 10133 1f72 FB000000 		.4byte	0xfb
 10134 1f76 02       		.uleb128 0x2
 10135 1f77 91       		.byte	0x91
 10136 1f78 64       		.sleb128 -28
 10137 1f79 28       		.uleb128 0x28
 10138 1f7a 11090000 		.4byte	.LASF420
 10139 1f7e 01       		.byte	0x1
 10140 1f7f D704     		.2byte	0x4d7
 10141 1f81 F7100000 		.4byte	0x10f7
 10142 1f85 02       		.uleb128 0x2
 10143 1f86 91       		.byte	0x91
 10144 1f87 74       		.sleb128 -12
 10145 1f88 23       		.uleb128 0x23
 10146 1f89 14000000 		.4byte	.LBB35
 10147 1f8d 8E010000 		.4byte	.LBE35-.LBB35
 10148 1f91 28       		.uleb128 0x28
 10149 1f92 400F0000 		.4byte	.LASF473
 10150 1f96 01       		.byte	0x1
 10151 1f97 DA04     		.2byte	0x4da
 10152 1f99 0A0A0000 		.4byte	0xa0a
 10153 1f9d 02       		.uleb128 0x2
 10154 1f9e 91       		.byte	0x91
 10155 1f9f 70       		.sleb128 -16
 10156 1fa0 23       		.uleb128 0x23
 10157 1fa1 22000000 		.4byte	.LBB36
 10158 1fa5 80010000 		.4byte	.LBE36-.LBB36
 10159 1fa9 28       		.uleb128 0x28
 10160 1faa 61210000 		.4byte	.LASF474
ARM GAS  C:\Users\Lenovo\AppData\Local\Temp\ccKs44LO.s 			page 205


 10161 1fae 01       		.byte	0x1
 10162 1faf 1805     		.2byte	0x518
 10163 1fb1 0A0A0000 		.4byte	0xa0a
 10164 1fb5 02       		.uleb128 0x2
 10165 1fb6 91       		.byte	0x91
 10166 1fb7 6C       		.sleb128 -20
 10167 1fb8 00       		.byte	0
 10168 1fb9 00       		.byte	0
 10169 1fba 00       		.byte	0
 10170 1fbb 26       		.uleb128 0x26
 10171 1fbc 58170000 		.4byte	.LASF475
 10172 1fc0 01       		.byte	0x1
 10173 1fc1 2905     		.2byte	0x529
 10174 1fc3 00000000 		.4byte	.LFB95
 10175 1fc7 D0030000 		.4byte	.LFE95-.LFB95
 10176 1fcb 01       		.uleb128 0x1
 10177 1fcc 9C       		.byte	0x9c
 10178 1fcd 09200000 		.4byte	0x2009
 10179 1fd1 27       		.uleb128 0x27
 10180 1fd2 84170000 		.4byte	.LASF419
 10181 1fd6 01       		.byte	0x1
 10182 1fd7 2905     		.2byte	0x529
 10183 1fd9 FB000000 		.4byte	0xfb
 10184 1fdd 02       		.uleb128 0x2
 10185 1fde 91       		.byte	0x91
 10186 1fdf 64       		.sleb128 -28
 10187 1fe0 28       		.uleb128 0x28
 10188 1fe1 11090000 		.4byte	.LASF420
 10189 1fe5 01       		.byte	0x1
 10190 1fe6 2B05     		.2byte	0x52b
 10191 1fe8 F7100000 		.4byte	0x10f7
 10192 1fec 02       		.uleb128 0x2
 10193 1fed 91       		.byte	0x91
 10194 1fee 68       		.sleb128 -24
 10195 1fef 23       		.uleb128 0x23
 10196 1ff0 1E000000 		.4byte	.LBB37
 10197 1ff4 AC030000 		.4byte	.LBE37-.LBB37
 10198 1ff8 2D       		.uleb128 0x2d
 10199 1ff9 70747200 		.ascii	"ptr\000"
 10200 1ffd 01       		.byte	0x1
 10201 1ffe 2F05     		.2byte	0x52f
 10202 2000 4E1F0000 		.4byte	0x1f4e
 10203 2004 02       		.uleb128 0x2
 10204 2005 91       		.byte	0x91
 10205 2006 6C       		.sleb128 -20
 10206 2007 00       		.byte	0
 10207 2008 00       		.byte	0
 10208 2009 2E       		.uleb128 0x2e
 10209 200a F7140000 		.4byte	.LASF476
 10210 200e 0D       		.byte	0xd
 10211 200f 5506     		.2byte	0x655
 10212 2011 15200000 		.4byte	0x2015
 10213 2015 06       		.uleb128 0x6
 10214 2016 76000000 		.4byte	0x76
 10215 201a 2F       		.uleb128 0x2f
 10216 201b D80E0000 		.4byte	.LASF477
 10217 201f 05       		.byte	0x5
ARM GAS  C:\Users\Lenovo\AppData\Local\Temp\ccKs44LO.s 			page 206


 10218 2020 52       		.byte	0x52
 10219 2021 81000000 		.4byte	0x81
 10220 2025 05       		.uleb128 0x5
 10221 2026 03       		.byte	0x3
 10222 2027 00000000 		.4byte	HoseDispenser
 10223 202b 0F       		.uleb128 0xf
 10224 202c AD050000 		.4byte	0x5ad
 10225 2030 3B200000 		.4byte	0x203b
 10226 2034 10       		.uleb128 0x10
 10227 2035 F4000000 		.4byte	0xf4
 10228 2039 03       		.byte	0x3
 10229 203a 00       		.byte	0
 10230 203b 2E       		.uleb128 0x2e
 10231 203c 310F0000 		.4byte	.LASF478
 10232 2040 06       		.byte	0x6
 10233 2041 5702     		.2byte	0x257
 10234 2043 2B200000 		.4byte	0x202b
 10235 2047 2E       		.uleb128 0x2e
 10236 2048 55020000 		.4byte	.LASF479
 10237 204c 06       		.byte	0x6
 10238 204d 5902     		.2byte	0x259
 10239 204f A3060000 		.4byte	0x6a3
 10240 2053 30       		.uleb128 0x30
 10241 2054 681B0000 		.4byte	.LASF480
 10242 2058 0A       		.byte	0xa
 10243 2059 79       		.byte	0x79
 10244 205a 4B0B0000 		.4byte	0xb4b
 10245 205e 0F       		.uleb128 0xf
 10246 205f 730E0000 		.4byte	0xe73
 10247 2063 69200000 		.4byte	0x2069
 10248 2067 31       		.uleb128 0x31
 10249 2068 00       		.byte	0
 10250 2069 2E       		.uleb128 0x2e
 10251 206a E4080000 		.4byte	.LASF481
 10252 206e 0B       		.byte	0xb
 10253 206f 1401     		.2byte	0x114
 10254 2071 5E200000 		.4byte	0x205e
 10255 2075 2E       		.uleb128 0x2e
 10256 2076 BE160000 		.4byte	.LASF482
 10257 207a 0B       		.byte	0xb
 10258 207b 1801     		.2byte	0x118
 10259 207d EB100000 		.4byte	0x10eb
 10260 2081 2E       		.uleb128 0x2e
 10261 2082 0A050000 		.4byte	.LASF483
 10262 2086 0B       		.byte	0xb
 10263 2087 1901     		.2byte	0x119
 10264 2089 EB100000 		.4byte	0x10eb
 10265 208d 0F       		.uleb128 0xf
 10266 208e 3B0E0000 		.4byte	0xe3b
 10267 2092 9D200000 		.4byte	0x209d
 10268 2096 10       		.uleb128 0x10
 10269 2097 F4000000 		.4byte	0xf4
 10270 209b 04       		.byte	0x4
 10271 209c 00       		.byte	0
 10272 209d 2F       		.uleb128 0x2f
 10273 209e BC170000 		.4byte	.LASF484
 10274 20a2 01       		.byte	0x1
ARM GAS  C:\Users\Lenovo\AppData\Local\Temp\ccKs44LO.s 			page 207


 10275 20a3 19       		.byte	0x19
 10276 20a4 8D200000 		.4byte	0x208d
 10277 20a8 05       		.uleb128 0x5
 10278 20a9 03       		.byte	0x3
 10279 20aa 00000000 		.4byte	_g_productbuttonmap
 10280 20ae 2F       		.uleb128 0x2f
 10281 20af 400B0000 		.4byte	.LASF485
 10282 20b3 01       		.byte	0x1
 10283 20b4 22       		.byte	0x22
 10284 20b5 FF020000 		.4byte	0x2ff
 10285 20b9 05       		.uleb128 0x5
 10286 20ba 03       		.byte	0x3
 10287 20bb 00000000 		.4byte	_g_displaystarting
 10288 20bf 00       		.byte	0
 10289              		.section	.debug_abbrev,"",%progbits
 10290              	.Ldebug_abbrev0:
 10291 0000 01       		.uleb128 0x1
 10292 0001 11       		.uleb128 0x11
 10293 0002 01       		.byte	0x1
 10294 0003 25       		.uleb128 0x25
 10295 0004 0E       		.uleb128 0xe
 10296 0005 13       		.uleb128 0x13
 10297 0006 0B       		.uleb128 0xb
 10298 0007 03       		.uleb128 0x3
 10299 0008 0E       		.uleb128 0xe
 10300 0009 1B       		.uleb128 0x1b
 10301 000a 0E       		.uleb128 0xe
 10302 000b 55       		.uleb128 0x55
 10303 000c 17       		.uleb128 0x17
 10304 000d 11       		.uleb128 0x11
 10305 000e 01       		.uleb128 0x1
 10306 000f 10       		.uleb128 0x10
 10307 0010 17       		.uleb128 0x17
 10308 0011 00       		.byte	0
 10309 0012 00       		.byte	0
 10310 0013 02       		.uleb128 0x2
 10311 0014 24       		.uleb128 0x24
 10312 0015 00       		.byte	0
 10313 0016 0B       		.uleb128 0xb
 10314 0017 0B       		.uleb128 0xb
 10315 0018 3E       		.uleb128 0x3e
 10316 0019 0B       		.uleb128 0xb
 10317 001a 03       		.uleb128 0x3
 10318 001b 0E       		.uleb128 0xe
 10319 001c 00       		.byte	0
 10320 001d 00       		.byte	0
 10321 001e 03       		.uleb128 0x3
 10322 001f 16       		.uleb128 0x16
 10323 0020 00       		.byte	0
 10324 0021 03       		.uleb128 0x3
 10325 0022 0E       		.uleb128 0xe
 10326 0023 3A       		.uleb128 0x3a
 10327 0024 0B       		.uleb128 0xb
 10328 0025 3B       		.uleb128 0x3b
 10329 0026 0B       		.uleb128 0xb
 10330 0027 49       		.uleb128 0x49
 10331 0028 13       		.uleb128 0x13
ARM GAS  C:\Users\Lenovo\AppData\Local\Temp\ccKs44LO.s 			page 208


 10332 0029 00       		.byte	0
 10333 002a 00       		.byte	0
 10334 002b 04       		.uleb128 0x4
 10335 002c 24       		.uleb128 0x24
 10336 002d 00       		.byte	0
 10337 002e 0B       		.uleb128 0xb
 10338 002f 0B       		.uleb128 0xb
 10339 0030 3E       		.uleb128 0x3e
 10340 0031 0B       		.uleb128 0xb
 10341 0032 03       		.uleb128 0x3
 10342 0033 08       		.uleb128 0x8
 10343 0034 00       		.byte	0
 10344 0035 00       		.byte	0
 10345 0036 05       		.uleb128 0x5
 10346 0037 16       		.uleb128 0x16
 10347 0038 00       		.byte	0
 10348 0039 03       		.uleb128 0x3
 10349 003a 0E       		.uleb128 0xe
 10350 003b 3A       		.uleb128 0x3a
 10351 003c 0B       		.uleb128 0xb
 10352 003d 3B       		.uleb128 0x3b
 10353 003e 05       		.uleb128 0x5
 10354 003f 49       		.uleb128 0x49
 10355 0040 13       		.uleb128 0x13
 10356 0041 00       		.byte	0
 10357 0042 00       		.byte	0
 10358 0043 06       		.uleb128 0x6
 10359 0044 35       		.uleb128 0x35
 10360 0045 00       		.byte	0
 10361 0046 49       		.uleb128 0x49
 10362 0047 13       		.uleb128 0x13
 10363 0048 00       		.byte	0
 10364 0049 00       		.byte	0
 10365 004a 07       		.uleb128 0x7
 10366 004b 0F       		.uleb128 0xf
 10367 004c 00       		.byte	0
 10368 004d 0B       		.uleb128 0xb
 10369 004e 0B       		.uleb128 0xb
 10370 004f 49       		.uleb128 0x49
 10371 0050 13       		.uleb128 0x13
 10372 0051 00       		.byte	0
 10373 0052 00       		.byte	0
 10374 0053 08       		.uleb128 0x8
 10375 0054 15       		.uleb128 0x15
 10376 0055 00       		.byte	0
 10377 0056 27       		.uleb128 0x27
 10378 0057 19       		.uleb128 0x19
 10379 0058 00       		.byte	0
 10380 0059 00       		.byte	0
 10381 005a 09       		.uleb128 0x9
 10382 005b 0F       		.uleb128 0xf
 10383 005c 00       		.byte	0
 10384 005d 0B       		.uleb128 0xb
 10385 005e 0B       		.uleb128 0xb
 10386 005f 00       		.byte	0
 10387 0060 00       		.byte	0
 10388 0061 0A       		.uleb128 0xa
ARM GAS  C:\Users\Lenovo\AppData\Local\Temp\ccKs44LO.s 			page 209


 10389 0062 04       		.uleb128 0x4
 10390 0063 01       		.byte	0x1
 10391 0064 03       		.uleb128 0x3
 10392 0065 0E       		.uleb128 0xe
 10393 0066 0B       		.uleb128 0xb
 10394 0067 0B       		.uleb128 0xb
 10395 0068 3A       		.uleb128 0x3a
 10396 0069 0B       		.uleb128 0xb
 10397 006a 3B       		.uleb128 0x3b
 10398 006b 0B       		.uleb128 0xb
 10399 006c 01       		.uleb128 0x1
 10400 006d 13       		.uleb128 0x13
 10401 006e 00       		.byte	0
 10402 006f 00       		.byte	0
 10403 0070 0B       		.uleb128 0xb
 10404 0071 28       		.uleb128 0x28
 10405 0072 00       		.byte	0
 10406 0073 03       		.uleb128 0x3
 10407 0074 0E       		.uleb128 0xe
 10408 0075 1C       		.uleb128 0x1c
 10409 0076 0D       		.uleb128 0xd
 10410 0077 00       		.byte	0
 10411 0078 00       		.byte	0
 10412 0079 0C       		.uleb128 0xc
 10413 007a 13       		.uleb128 0x13
 10414 007b 01       		.byte	0x1
 10415 007c 0B       		.uleb128 0xb
 10416 007d 05       		.uleb128 0x5
 10417 007e 3A       		.uleb128 0x3a
 10418 007f 0B       		.uleb128 0xb
 10419 0080 3B       		.uleb128 0x3b
 10420 0081 05       		.uleb128 0x5
 10421 0082 01       		.uleb128 0x1
 10422 0083 13       		.uleb128 0x13
 10423 0084 00       		.byte	0
 10424 0085 00       		.byte	0
 10425 0086 0D       		.uleb128 0xd
 10426 0087 0D       		.uleb128 0xd
 10427 0088 00       		.byte	0
 10428 0089 03       		.uleb128 0x3
 10429 008a 0E       		.uleb128 0xe
 10430 008b 3A       		.uleb128 0x3a
 10431 008c 0B       		.uleb128 0xb
 10432 008d 3B       		.uleb128 0x3b
 10433 008e 05       		.uleb128 0x5
 10434 008f 49       		.uleb128 0x49
 10435 0090 13       		.uleb128 0x13
 10436 0091 38       		.uleb128 0x38
 10437 0092 0B       		.uleb128 0xb
 10438 0093 00       		.byte	0
 10439 0094 00       		.byte	0
 10440 0095 0E       		.uleb128 0xe
 10441 0096 0D       		.uleb128 0xd
 10442 0097 00       		.byte	0
 10443 0098 03       		.uleb128 0x3
 10444 0099 0E       		.uleb128 0xe
 10445 009a 3A       		.uleb128 0x3a
ARM GAS  C:\Users\Lenovo\AppData\Local\Temp\ccKs44LO.s 			page 210


 10446 009b 0B       		.uleb128 0xb
 10447 009c 3B       		.uleb128 0x3b
 10448 009d 05       		.uleb128 0x5
 10449 009e 49       		.uleb128 0x49
 10450 009f 13       		.uleb128 0x13
 10451 00a0 38       		.uleb128 0x38
 10452 00a1 05       		.uleb128 0x5
 10453 00a2 00       		.byte	0
 10454 00a3 00       		.byte	0
 10455 00a4 0F       		.uleb128 0xf
 10456 00a5 01       		.uleb128 0x1
 10457 00a6 01       		.byte	0x1
 10458 00a7 49       		.uleb128 0x49
 10459 00a8 13       		.uleb128 0x13
 10460 00a9 01       		.uleb128 0x1
 10461 00aa 13       		.uleb128 0x13
 10462 00ab 00       		.byte	0
 10463 00ac 00       		.byte	0
 10464 00ad 10       		.uleb128 0x10
 10465 00ae 21       		.uleb128 0x21
 10466 00af 00       		.byte	0
 10467 00b0 49       		.uleb128 0x49
 10468 00b1 13       		.uleb128 0x13
 10469 00b2 2F       		.uleb128 0x2f
 10470 00b3 0B       		.uleb128 0xb
 10471 00b4 00       		.byte	0
 10472 00b5 00       		.byte	0
 10473 00b6 11       		.uleb128 0x11
 10474 00b7 13       		.uleb128 0x13
 10475 00b8 01       		.byte	0x1
 10476 00b9 0B       		.uleb128 0xb
 10477 00ba 0B       		.uleb128 0xb
 10478 00bb 3A       		.uleb128 0x3a
 10479 00bc 0B       		.uleb128 0xb
 10480 00bd 3B       		.uleb128 0x3b
 10481 00be 05       		.uleb128 0x5
 10482 00bf 01       		.uleb128 0x1
 10483 00c0 13       		.uleb128 0x13
 10484 00c1 00       		.byte	0
 10485 00c2 00       		.byte	0
 10486 00c3 12       		.uleb128 0x12
 10487 00c4 13       		.uleb128 0x13
 10488 00c5 01       		.byte	0x1
 10489 00c6 03       		.uleb128 0x3
 10490 00c7 0E       		.uleb128 0xe
 10491 00c8 0B       		.uleb128 0xb
 10492 00c9 05       		.uleb128 0x5
 10493 00ca 3A       		.uleb128 0x3a
 10494 00cb 0B       		.uleb128 0xb
 10495 00cc 3B       		.uleb128 0x3b
 10496 00cd 05       		.uleb128 0x5
 10497 00ce 01       		.uleb128 0x1
 10498 00cf 13       		.uleb128 0x13
 10499 00d0 00       		.byte	0
 10500 00d1 00       		.byte	0
 10501 00d2 13       		.uleb128 0x13
 10502 00d3 21       		.uleb128 0x21
ARM GAS  C:\Users\Lenovo\AppData\Local\Temp\ccKs44LO.s 			page 211


 10503 00d4 00       		.byte	0
 10504 00d5 49       		.uleb128 0x49
 10505 00d6 13       		.uleb128 0x13
 10506 00d7 2F       		.uleb128 0x2f
 10507 00d8 05       		.uleb128 0x5
 10508 00d9 00       		.byte	0
 10509 00da 00       		.byte	0
 10510 00db 14       		.uleb128 0x14
 10511 00dc 15       		.uleb128 0x15
 10512 00dd 01       		.byte	0x1
 10513 00de 27       		.uleb128 0x27
 10514 00df 19       		.uleb128 0x19
 10515 00e0 01       		.uleb128 0x1
 10516 00e1 13       		.uleb128 0x13
 10517 00e2 00       		.byte	0
 10518 00e3 00       		.byte	0
 10519 00e4 15       		.uleb128 0x15
 10520 00e5 05       		.uleb128 0x5
 10521 00e6 00       		.byte	0
 10522 00e7 49       		.uleb128 0x49
 10523 00e8 13       		.uleb128 0x13
 10524 00e9 00       		.byte	0
 10525 00ea 00       		.byte	0
 10526 00eb 16       		.uleb128 0x16
 10527 00ec 15       		.uleb128 0x15
 10528 00ed 01       		.byte	0x1
 10529 00ee 27       		.uleb128 0x27
 10530 00ef 19       		.uleb128 0x19
 10531 00f0 49       		.uleb128 0x49
 10532 00f1 13       		.uleb128 0x13
 10533 00f2 01       		.uleb128 0x1
 10534 00f3 13       		.uleb128 0x13
 10535 00f4 00       		.byte	0
 10536 00f5 00       		.byte	0
 10537 00f6 17       		.uleb128 0x17
 10538 00f7 0D       		.uleb128 0xd
 10539 00f8 00       		.byte	0
 10540 00f9 03       		.uleb128 0x3
 10541 00fa 0E       		.uleb128 0xe
 10542 00fb 3A       		.uleb128 0x3a
 10543 00fc 0B       		.uleb128 0xb
 10544 00fd 3B       		.uleb128 0x3b
 10545 00fe 05       		.uleb128 0x5
 10546 00ff 49       		.uleb128 0x49
 10547 0100 13       		.uleb128 0x13
 10548 0101 0B       		.uleb128 0xb
 10549 0102 0B       		.uleb128 0xb
 10550 0103 0D       		.uleb128 0xd
 10551 0104 0B       		.uleb128 0xb
 10552 0105 0C       		.uleb128 0xc
 10553 0106 0B       		.uleb128 0xb
 10554 0107 38       		.uleb128 0x38
 10555 0108 0B       		.uleb128 0xb
 10556 0109 00       		.byte	0
 10557 010a 00       		.byte	0
 10558 010b 18       		.uleb128 0x18
 10559 010c 13       		.uleb128 0x13
ARM GAS  C:\Users\Lenovo\AppData\Local\Temp\ccKs44LO.s 			page 212


 10560 010d 01       		.byte	0x1
 10561 010e 03       		.uleb128 0x3
 10562 010f 0E       		.uleb128 0xe
 10563 0110 0B       		.uleb128 0xb
 10564 0111 0B       		.uleb128 0xb
 10565 0112 3A       		.uleb128 0x3a
 10566 0113 0B       		.uleb128 0xb
 10567 0114 3B       		.uleb128 0x3b
 10568 0115 0B       		.uleb128 0xb
 10569 0116 01       		.uleb128 0x1
 10570 0117 13       		.uleb128 0x13
 10571 0118 00       		.byte	0
 10572 0119 00       		.byte	0
 10573 011a 19       		.uleb128 0x19
 10574 011b 0D       		.uleb128 0xd
 10575 011c 00       		.byte	0
 10576 011d 03       		.uleb128 0x3
 10577 011e 0E       		.uleb128 0xe
 10578 011f 3A       		.uleb128 0x3a
 10579 0120 0B       		.uleb128 0xb
 10580 0121 3B       		.uleb128 0x3b
 10581 0122 0B       		.uleb128 0xb
 10582 0123 49       		.uleb128 0x49
 10583 0124 13       		.uleb128 0x13
 10584 0125 38       		.uleb128 0x38
 10585 0126 0B       		.uleb128 0xb
 10586 0127 00       		.byte	0
 10587 0128 00       		.byte	0
 10588 0129 1A       		.uleb128 0x1a
 10589 012a 15       		.uleb128 0x15
 10590 012b 00       		.byte	0
 10591 012c 27       		.uleb128 0x27
 10592 012d 19       		.uleb128 0x19
 10593 012e 49       		.uleb128 0x49
 10594 012f 13       		.uleb128 0x13
 10595 0130 00       		.byte	0
 10596 0131 00       		.byte	0
 10597 0132 1B       		.uleb128 0x1b
 10598 0133 26       		.uleb128 0x26
 10599 0134 00       		.byte	0
 10600 0135 49       		.uleb128 0x49
 10601 0136 13       		.uleb128 0x13
 10602 0137 00       		.byte	0
 10603 0138 00       		.byte	0
 10604 0139 1C       		.uleb128 0x1c
 10605 013a 13       		.uleb128 0x13
 10606 013b 01       		.byte	0x1
 10607 013c 03       		.uleb128 0x3
 10608 013d 0E       		.uleb128 0xe
 10609 013e 0B       		.uleb128 0xb
 10610 013f 05       		.uleb128 0x5
 10611 0140 3A       		.uleb128 0x3a
 10612 0141 0B       		.uleb128 0xb
 10613 0142 3B       		.uleb128 0x3b
 10614 0143 0B       		.uleb128 0xb
 10615 0144 01       		.uleb128 0x1
 10616 0145 13       		.uleb128 0x13
ARM GAS  C:\Users\Lenovo\AppData\Local\Temp\ccKs44LO.s 			page 213


 10617 0146 00       		.byte	0
 10618 0147 00       		.byte	0
 10619 0148 1D       		.uleb128 0x1d
 10620 0149 0D       		.uleb128 0xd
 10621 014a 00       		.byte	0
 10622 014b 03       		.uleb128 0x3
 10623 014c 0E       		.uleb128 0xe
 10624 014d 3A       		.uleb128 0x3a
 10625 014e 0B       		.uleb128 0xb
 10626 014f 3B       		.uleb128 0x3b
 10627 0150 0B       		.uleb128 0xb
 10628 0151 49       		.uleb128 0x49
 10629 0152 13       		.uleb128 0x13
 10630 0153 38       		.uleb128 0x38
 10631 0154 05       		.uleb128 0x5
 10632 0155 00       		.byte	0
 10633 0156 00       		.byte	0
 10634 0157 1E       		.uleb128 0x1e
 10635 0158 13       		.uleb128 0x13
 10636 0159 01       		.byte	0x1
 10637 015a 0B       		.uleb128 0xb
 10638 015b 0B       		.uleb128 0xb
 10639 015c 3A       		.uleb128 0x3a
 10640 015d 0B       		.uleb128 0xb
 10641 015e 3B       		.uleb128 0x3b
 10642 015f 0B       		.uleb128 0xb
 10643 0160 01       		.uleb128 0x1
 10644 0161 13       		.uleb128 0x13
 10645 0162 00       		.byte	0
 10646 0163 00       		.byte	0
 10647 0164 1F       		.uleb128 0x1f
 10648 0165 04       		.uleb128 0x4
 10649 0166 01       		.byte	0x1
 10650 0167 0B       		.uleb128 0xb
 10651 0168 0B       		.uleb128 0xb
 10652 0169 3A       		.uleb128 0x3a
 10653 016a 0B       		.uleb128 0xb
 10654 016b 3B       		.uleb128 0x3b
 10655 016c 0B       		.uleb128 0xb
 10656 016d 01       		.uleb128 0x1
 10657 016e 13       		.uleb128 0x13
 10658 016f 00       		.byte	0
 10659 0170 00       		.byte	0
 10660 0171 20       		.uleb128 0x20
 10661 0172 2E       		.uleb128 0x2e
 10662 0173 01       		.byte	0x1
 10663 0174 3F       		.uleb128 0x3f
 10664 0175 19       		.uleb128 0x19
 10665 0176 03       		.uleb128 0x3
 10666 0177 0E       		.uleb128 0xe
 10667 0178 3A       		.uleb128 0x3a
 10668 0179 0B       		.uleb128 0xb
 10669 017a 3B       		.uleb128 0x3b
 10670 017b 0B       		.uleb128 0xb
 10671 017c 27       		.uleb128 0x27
 10672 017d 19       		.uleb128 0x19
 10673 017e 49       		.uleb128 0x49
ARM GAS  C:\Users\Lenovo\AppData\Local\Temp\ccKs44LO.s 			page 214


 10674 017f 13       		.uleb128 0x13
 10675 0180 11       		.uleb128 0x11
 10676 0181 01       		.uleb128 0x1
 10677 0182 12       		.uleb128 0x12
 10678 0183 06       		.uleb128 0x6
 10679 0184 40       		.uleb128 0x40
 10680 0185 18       		.uleb128 0x18
 10681 0186 9642     		.uleb128 0x2116
 10682 0188 19       		.uleb128 0x19
 10683 0189 01       		.uleb128 0x1
 10684 018a 13       		.uleb128 0x13
 10685 018b 00       		.byte	0
 10686 018c 00       		.byte	0
 10687 018d 21       		.uleb128 0x21
 10688 018e 05       		.uleb128 0x5
 10689 018f 00       		.byte	0
 10690 0190 03       		.uleb128 0x3
 10691 0191 0E       		.uleb128 0xe
 10692 0192 3A       		.uleb128 0x3a
 10693 0193 0B       		.uleb128 0xb
 10694 0194 3B       		.uleb128 0x3b
 10695 0195 0B       		.uleb128 0xb
 10696 0196 49       		.uleb128 0x49
 10697 0197 13       		.uleb128 0x13
 10698 0198 02       		.uleb128 0x2
 10699 0199 18       		.uleb128 0x18
 10700 019a 00       		.byte	0
 10701 019b 00       		.byte	0
 10702 019c 22       		.uleb128 0x22
 10703 019d 34       		.uleb128 0x34
 10704 019e 00       		.byte	0
 10705 019f 03       		.uleb128 0x3
 10706 01a0 0E       		.uleb128 0xe
 10707 01a1 3A       		.uleb128 0x3a
 10708 01a2 0B       		.uleb128 0xb
 10709 01a3 3B       		.uleb128 0x3b
 10710 01a4 0B       		.uleb128 0xb
 10711 01a5 49       		.uleb128 0x49
 10712 01a6 13       		.uleb128 0x13
 10713 01a7 02       		.uleb128 0x2
 10714 01a8 18       		.uleb128 0x18
 10715 01a9 00       		.byte	0
 10716 01aa 00       		.byte	0
 10717 01ab 23       		.uleb128 0x23
 10718 01ac 0B       		.uleb128 0xb
 10719 01ad 01       		.byte	0x1
 10720 01ae 11       		.uleb128 0x11
 10721 01af 01       		.uleb128 0x1
 10722 01b0 12       		.uleb128 0x12
 10723 01b1 06       		.uleb128 0x6
 10724 01b2 00       		.byte	0
 10725 01b3 00       		.byte	0
 10726 01b4 24       		.uleb128 0x24
 10727 01b5 2E       		.uleb128 0x2e
 10728 01b6 01       		.byte	0x1
 10729 01b7 3F       		.uleb128 0x3f
 10730 01b8 19       		.uleb128 0x19
ARM GAS  C:\Users\Lenovo\AppData\Local\Temp\ccKs44LO.s 			page 215


 10731 01b9 03       		.uleb128 0x3
 10732 01ba 0E       		.uleb128 0xe
 10733 01bb 3A       		.uleb128 0x3a
 10734 01bc 0B       		.uleb128 0xb
 10735 01bd 3B       		.uleb128 0x3b
 10736 01be 0B       		.uleb128 0xb
 10737 01bf 27       		.uleb128 0x27
 10738 01c0 19       		.uleb128 0x19
 10739 01c1 11       		.uleb128 0x11
 10740 01c2 01       		.uleb128 0x1
 10741 01c3 12       		.uleb128 0x12
 10742 01c4 06       		.uleb128 0x6
 10743 01c5 40       		.uleb128 0x40
 10744 01c6 18       		.uleb128 0x18
 10745 01c7 9742     		.uleb128 0x2117
 10746 01c9 19       		.uleb128 0x19
 10747 01ca 01       		.uleb128 0x1
 10748 01cb 13       		.uleb128 0x13
 10749 01cc 00       		.byte	0
 10750 01cd 00       		.byte	0
 10751 01ce 25       		.uleb128 0x25
 10752 01cf 2E       		.uleb128 0x2e
 10753 01d0 01       		.byte	0x1
 10754 01d1 3F       		.uleb128 0x3f
 10755 01d2 19       		.uleb128 0x19
 10756 01d3 03       		.uleb128 0x3
 10757 01d4 0E       		.uleb128 0xe
 10758 01d5 3A       		.uleb128 0x3a
 10759 01d6 0B       		.uleb128 0xb
 10760 01d7 3B       		.uleb128 0x3b
 10761 01d8 0B       		.uleb128 0xb
 10762 01d9 27       		.uleb128 0x27
 10763 01da 19       		.uleb128 0x19
 10764 01db 49       		.uleb128 0x49
 10765 01dc 13       		.uleb128 0x13
 10766 01dd 11       		.uleb128 0x11
 10767 01de 01       		.uleb128 0x1
 10768 01df 12       		.uleb128 0x12
 10769 01e0 06       		.uleb128 0x6
 10770 01e1 40       		.uleb128 0x40
 10771 01e2 18       		.uleb128 0x18
 10772 01e3 9742     		.uleb128 0x2117
 10773 01e5 19       		.uleb128 0x19
 10774 01e6 01       		.uleb128 0x1
 10775 01e7 13       		.uleb128 0x13
 10776 01e8 00       		.byte	0
 10777 01e9 00       		.byte	0
 10778 01ea 26       		.uleb128 0x26
 10779 01eb 2E       		.uleb128 0x2e
 10780 01ec 01       		.byte	0x1
 10781 01ed 3F       		.uleb128 0x3f
 10782 01ee 19       		.uleb128 0x19
 10783 01ef 03       		.uleb128 0x3
 10784 01f0 0E       		.uleb128 0xe
 10785 01f1 3A       		.uleb128 0x3a
 10786 01f2 0B       		.uleb128 0xb
 10787 01f3 3B       		.uleb128 0x3b
ARM GAS  C:\Users\Lenovo\AppData\Local\Temp\ccKs44LO.s 			page 216


 10788 01f4 05       		.uleb128 0x5
 10789 01f5 27       		.uleb128 0x27
 10790 01f6 19       		.uleb128 0x19
 10791 01f7 11       		.uleb128 0x11
 10792 01f8 01       		.uleb128 0x1
 10793 01f9 12       		.uleb128 0x12
 10794 01fa 06       		.uleb128 0x6
 10795 01fb 40       		.uleb128 0x40
 10796 01fc 18       		.uleb128 0x18
 10797 01fd 9642     		.uleb128 0x2116
 10798 01ff 19       		.uleb128 0x19
 10799 0200 01       		.uleb128 0x1
 10800 0201 13       		.uleb128 0x13
 10801 0202 00       		.byte	0
 10802 0203 00       		.byte	0
 10803 0204 27       		.uleb128 0x27
 10804 0205 05       		.uleb128 0x5
 10805 0206 00       		.byte	0
 10806 0207 03       		.uleb128 0x3
 10807 0208 0E       		.uleb128 0xe
 10808 0209 3A       		.uleb128 0x3a
 10809 020a 0B       		.uleb128 0xb
 10810 020b 3B       		.uleb128 0x3b
 10811 020c 05       		.uleb128 0x5
 10812 020d 49       		.uleb128 0x49
 10813 020e 13       		.uleb128 0x13
 10814 020f 02       		.uleb128 0x2
 10815 0210 18       		.uleb128 0x18
 10816 0211 00       		.byte	0
 10817 0212 00       		.byte	0
 10818 0213 28       		.uleb128 0x28
 10819 0214 34       		.uleb128 0x34
 10820 0215 00       		.byte	0
 10821 0216 03       		.uleb128 0x3
 10822 0217 0E       		.uleb128 0xe
 10823 0218 3A       		.uleb128 0x3a
 10824 0219 0B       		.uleb128 0xb
 10825 021a 3B       		.uleb128 0x3b
 10826 021b 05       		.uleb128 0x5
 10827 021c 49       		.uleb128 0x49
 10828 021d 13       		.uleb128 0x13
 10829 021e 02       		.uleb128 0x2
 10830 021f 18       		.uleb128 0x18
 10831 0220 00       		.byte	0
 10832 0221 00       		.byte	0
 10833 0222 29       		.uleb128 0x29
 10834 0223 2E       		.uleb128 0x2e
 10835 0224 01       		.byte	0x1
 10836 0225 3F       		.uleb128 0x3f
 10837 0226 19       		.uleb128 0x19
 10838 0227 03       		.uleb128 0x3
 10839 0228 0E       		.uleb128 0xe
 10840 0229 3A       		.uleb128 0x3a
 10841 022a 0B       		.uleb128 0xb
 10842 022b 3B       		.uleb128 0x3b
 10843 022c 05       		.uleb128 0x5
 10844 022d 27       		.uleb128 0x27
ARM GAS  C:\Users\Lenovo\AppData\Local\Temp\ccKs44LO.s 			page 217


 10845 022e 19       		.uleb128 0x19
 10846 022f 49       		.uleb128 0x49
 10847 0230 13       		.uleb128 0x13
 10848 0231 11       		.uleb128 0x11
 10849 0232 01       		.uleb128 0x1
 10850 0233 12       		.uleb128 0x12
 10851 0234 06       		.uleb128 0x6
 10852 0235 40       		.uleb128 0x40
 10853 0236 18       		.uleb128 0x18
 10854 0237 9742     		.uleb128 0x2117
 10855 0239 19       		.uleb128 0x19
 10856 023a 01       		.uleb128 0x1
 10857 023b 13       		.uleb128 0x13
 10858 023c 00       		.byte	0
 10859 023d 00       		.byte	0
 10860 023e 2A       		.uleb128 0x2a
 10861 023f 2E       		.uleb128 0x2e
 10862 0240 01       		.byte	0x1
 10863 0241 3F       		.uleb128 0x3f
 10864 0242 19       		.uleb128 0x19
 10865 0243 03       		.uleb128 0x3
 10866 0244 0E       		.uleb128 0xe
 10867 0245 3A       		.uleb128 0x3a
 10868 0246 0B       		.uleb128 0xb
 10869 0247 3B       		.uleb128 0x3b
 10870 0248 05       		.uleb128 0x5
 10871 0249 27       		.uleb128 0x27
 10872 024a 19       		.uleb128 0x19
 10873 024b 49       		.uleb128 0x49
 10874 024c 13       		.uleb128 0x13
 10875 024d 11       		.uleb128 0x11
 10876 024e 01       		.uleb128 0x1
 10877 024f 12       		.uleb128 0x12
 10878 0250 06       		.uleb128 0x6
 10879 0251 40       		.uleb128 0x40
 10880 0252 18       		.uleb128 0x18
 10881 0253 9642     		.uleb128 0x2116
 10882 0255 19       		.uleb128 0x19
 10883 0256 01       		.uleb128 0x1
 10884 0257 13       		.uleb128 0x13
 10885 0258 00       		.byte	0
 10886 0259 00       		.byte	0
 10887 025a 2B       		.uleb128 0x2b
 10888 025b 0B       		.uleb128 0xb
 10889 025c 01       		.byte	0x1
 10890 025d 11       		.uleb128 0x11
 10891 025e 01       		.uleb128 0x1
 10892 025f 12       		.uleb128 0x12
 10893 0260 06       		.uleb128 0x6
 10894 0261 01       		.uleb128 0x1
 10895 0262 13       		.uleb128 0x13
 10896 0263 00       		.byte	0
 10897 0264 00       		.byte	0
 10898 0265 2C       		.uleb128 0x2c
 10899 0266 2E       		.uleb128 0x2e
 10900 0267 01       		.byte	0x1
 10901 0268 3F       		.uleb128 0x3f
ARM GAS  C:\Users\Lenovo\AppData\Local\Temp\ccKs44LO.s 			page 218


 10902 0269 19       		.uleb128 0x19
 10903 026a 03       		.uleb128 0x3
 10904 026b 0E       		.uleb128 0xe
 10905 026c 3A       		.uleb128 0x3a
 10906 026d 0B       		.uleb128 0xb
 10907 026e 3B       		.uleb128 0x3b
 10908 026f 05       		.uleb128 0x5
 10909 0270 27       		.uleb128 0x27
 10910 0271 19       		.uleb128 0x19
 10911 0272 11       		.uleb128 0x11
 10912 0273 01       		.uleb128 0x1
 10913 0274 12       		.uleb128 0x12
 10914 0275 06       		.uleb128 0x6
 10915 0276 40       		.uleb128 0x40
 10916 0277 18       		.uleb128 0x18
 10917 0278 9742     		.uleb128 0x2117
 10918 027a 19       		.uleb128 0x19
 10919 027b 01       		.uleb128 0x1
 10920 027c 13       		.uleb128 0x13
 10921 027d 00       		.byte	0
 10922 027e 00       		.byte	0
 10923 027f 2D       		.uleb128 0x2d
 10924 0280 34       		.uleb128 0x34
 10925 0281 00       		.byte	0
 10926 0282 03       		.uleb128 0x3
 10927 0283 08       		.uleb128 0x8
 10928 0284 3A       		.uleb128 0x3a
 10929 0285 0B       		.uleb128 0xb
 10930 0286 3B       		.uleb128 0x3b
 10931 0287 05       		.uleb128 0x5
 10932 0288 49       		.uleb128 0x49
 10933 0289 13       		.uleb128 0x13
 10934 028a 02       		.uleb128 0x2
 10935 028b 18       		.uleb128 0x18
 10936 028c 00       		.byte	0
 10937 028d 00       		.byte	0
 10938 028e 2E       		.uleb128 0x2e
 10939 028f 34       		.uleb128 0x34
 10940 0290 00       		.byte	0
 10941 0291 03       		.uleb128 0x3
 10942 0292 0E       		.uleb128 0xe
 10943 0293 3A       		.uleb128 0x3a
 10944 0294 0B       		.uleb128 0xb
 10945 0295 3B       		.uleb128 0x3b
 10946 0296 05       		.uleb128 0x5
 10947 0297 49       		.uleb128 0x49
 10948 0298 13       		.uleb128 0x13
 10949 0299 3F       		.uleb128 0x3f
 10950 029a 19       		.uleb128 0x19
 10951 029b 3C       		.uleb128 0x3c
 10952 029c 19       		.uleb128 0x19
 10953 029d 00       		.byte	0
 10954 029e 00       		.byte	0
 10955 029f 2F       		.uleb128 0x2f
 10956 02a0 34       		.uleb128 0x34
 10957 02a1 00       		.byte	0
 10958 02a2 03       		.uleb128 0x3
ARM GAS  C:\Users\Lenovo\AppData\Local\Temp\ccKs44LO.s 			page 219


 10959 02a3 0E       		.uleb128 0xe
 10960 02a4 3A       		.uleb128 0x3a
 10961 02a5 0B       		.uleb128 0xb
 10962 02a6 3B       		.uleb128 0x3b
 10963 02a7 0B       		.uleb128 0xb
 10964 02a8 49       		.uleb128 0x49
 10965 02a9 13       		.uleb128 0x13
 10966 02aa 3F       		.uleb128 0x3f
 10967 02ab 19       		.uleb128 0x19
 10968 02ac 02       		.uleb128 0x2
 10969 02ad 18       		.uleb128 0x18
 10970 02ae 00       		.byte	0
 10971 02af 00       		.byte	0
 10972 02b0 30       		.uleb128 0x30
 10973 02b1 34       		.uleb128 0x34
 10974 02b2 00       		.byte	0
 10975 02b3 03       		.uleb128 0x3
 10976 02b4 0E       		.uleb128 0xe
 10977 02b5 3A       		.uleb128 0x3a
 10978 02b6 0B       		.uleb128 0xb
 10979 02b7 3B       		.uleb128 0x3b
 10980 02b8 0B       		.uleb128 0xb
 10981 02b9 49       		.uleb128 0x49
 10982 02ba 13       		.uleb128 0x13
 10983 02bb 3F       		.uleb128 0x3f
 10984 02bc 19       		.uleb128 0x19
 10985 02bd 3C       		.uleb128 0x3c
 10986 02be 19       		.uleb128 0x19
 10987 02bf 00       		.byte	0
 10988 02c0 00       		.byte	0
 10989 02c1 31       		.uleb128 0x31
 10990 02c2 21       		.uleb128 0x21
 10991 02c3 00       		.byte	0
 10992 02c4 00       		.byte	0
 10993 02c5 00       		.byte	0
 10994 02c6 00       		.byte	0
 10995              		.section	.debug_aranges,"",%progbits
 10996 0000 1C010000 		.4byte	0x11c
 10997 0004 0200     		.2byte	0x2
 10998 0006 00000000 		.4byte	.Ldebug_info0
 10999 000a 04       		.byte	0x4
 11000 000b 00       		.byte	0
 11001 000c 0000     		.2byte	0
 11002 000e 0000     		.2byte	0
 11003 0010 00000000 		.4byte	.LFB63
 11004 0014 38010000 		.4byte	.LFE63-.LFB63
 11005 0018 00000000 		.4byte	.LFB64
 11006 001c A6000000 		.4byte	.LFE64-.LFB64
 11007 0020 00000000 		.4byte	.LFB65
 11008 0024 66000000 		.4byte	.LFE65-.LFB65
 11009 0028 00000000 		.4byte	.LFB66
 11010 002c 66000000 		.4byte	.LFE66-.LFB66
 11011 0030 00000000 		.4byte	.LFB67
 11012 0034 66000000 		.4byte	.LFE67-.LFB67
 11013 0038 00000000 		.4byte	.LFB68
 11014 003c 66000000 		.4byte	.LFE68-.LFB68
 11015 0040 00000000 		.4byte	.LFB69
ARM GAS  C:\Users\Lenovo\AppData\Local\Temp\ccKs44LO.s 			page 220


 11016 0044 66000000 		.4byte	.LFE69-.LFB69
 11017 0048 00000000 		.4byte	.LFB70
 11018 004c AC000000 		.4byte	.LFE70-.LFB70
 11019 0050 00000000 		.4byte	.LFB71
 11020 0054 A0000000 		.4byte	.LFE71-.LFB71
 11021 0058 00000000 		.4byte	.LFB72
 11022 005c 70000000 		.4byte	.LFE72-.LFB72
 11023 0060 00000000 		.4byte	.LFB73
 11024 0064 2A000000 		.4byte	.LFE73-.LFB73
 11025 0068 00000000 		.4byte	.LFB74
 11026 006c 74000000 		.4byte	.LFE74-.LFB74
 11027 0070 00000000 		.4byte	.LFB75
 11028 0074 46000000 		.4byte	.LFE75-.LFB75
 11029 0078 00000000 		.4byte	.LFB76
 11030 007c E4010000 		.4byte	.LFE76-.LFB76
 11031 0080 00000000 		.4byte	.LFB77
 11032 0084 6A010000 		.4byte	.LFE77-.LFB77
 11033 0088 00000000 		.4byte	.LFB78
 11034 008c 04020000 		.4byte	.LFE78-.LFB78
 11035 0090 00000000 		.4byte	.LFB79
 11036 0094 38020000 		.4byte	.LFE79-.LFB79
 11037 0098 00000000 		.4byte	.LFB80
 11038 009c 42010000 		.4byte	.LFE80-.LFB80
 11039 00a0 00000000 		.4byte	.LFB81
 11040 00a4 40010000 		.4byte	.LFE81-.LFB81
 11041 00a8 00000000 		.4byte	.LFB82
 11042 00ac 1C010000 		.4byte	.LFE82-.LFB82
 11043 00b0 00000000 		.4byte	.LFB83
 11044 00b4 A4010000 		.4byte	.LFE83-.LFB83
 11045 00b8 00000000 		.4byte	.LFB84
 11046 00bc 5C010000 		.4byte	.LFE84-.LFB84
 11047 00c0 00000000 		.4byte	.LFB85
 11048 00c4 8C020000 		.4byte	.LFE85-.LFB85
 11049 00c8 00000000 		.4byte	.LFB86
 11050 00cc E8000000 		.4byte	.LFE86-.LFB86
 11051 00d0 00000000 		.4byte	.LFB87
 11052 00d4 4C010000 		.4byte	.LFE87-.LFB87
 11053 00d8 00000000 		.4byte	.LFB88
 11054 00dc 62010000 		.4byte	.LFE88-.LFB88
 11055 00e0 00000000 		.4byte	.LFB89
 11056 00e4 90010000 		.4byte	.LFE89-.LFB89
 11057 00e8 00000000 		.4byte	.LFB90
 11058 00ec B0000000 		.4byte	.LFE90-.LFB90
 11059 00f0 00000000 		.4byte	.LFB91
 11060 00f4 B4000000 		.4byte	.LFE91-.LFB91
 11061 00f8 00000000 		.4byte	.LFB92
 11062 00fc 40000000 		.4byte	.LFE92-.LFB92
 11063 0100 00000000 		.4byte	.LFB93
 11064 0104 48010000 		.4byte	.LFE93-.LFB93
 11065 0108 00000000 		.4byte	.LFB94
 11066 010c A8010000 		.4byte	.LFE94-.LFB94
 11067 0110 00000000 		.4byte	.LFB95
 11068 0114 D0030000 		.4byte	.LFE95-.LFB95
 11069 0118 00000000 		.4byte	0
 11070 011c 00000000 		.4byte	0
 11071              		.section	.debug_ranges,"",%progbits
 11072              	.Ldebug_ranges0:
ARM GAS  C:\Users\Lenovo\AppData\Local\Temp\ccKs44LO.s 			page 221


 11073 0000 00000000 		.4byte	.LFB63
 11074 0004 38010000 		.4byte	.LFE63
 11075 0008 00000000 		.4byte	.LFB64
 11076 000c A6000000 		.4byte	.LFE64
 11077 0010 00000000 		.4byte	.LFB65
 11078 0014 66000000 		.4byte	.LFE65
 11079 0018 00000000 		.4byte	.LFB66
 11080 001c 66000000 		.4byte	.LFE66
 11081 0020 00000000 		.4byte	.LFB67
 11082 0024 66000000 		.4byte	.LFE67
 11083 0028 00000000 		.4byte	.LFB68
 11084 002c 66000000 		.4byte	.LFE68
 11085 0030 00000000 		.4byte	.LFB69
 11086 0034 66000000 		.4byte	.LFE69
 11087 0038 00000000 		.4byte	.LFB70
 11088 003c AC000000 		.4byte	.LFE70
 11089 0040 00000000 		.4byte	.LFB71
 11090 0044 A0000000 		.4byte	.LFE71
 11091 0048 00000000 		.4byte	.LFB72
 11092 004c 70000000 		.4byte	.LFE72
 11093 0050 00000000 		.4byte	.LFB73
 11094 0054 2A000000 		.4byte	.LFE73
 11095 0058 00000000 		.4byte	.LFB74
 11096 005c 74000000 		.4byte	.LFE74
 11097 0060 00000000 		.4byte	.LFB75
 11098 0064 46000000 		.4byte	.LFE75
 11099 0068 00000000 		.4byte	.LFB76
 11100 006c E4010000 		.4byte	.LFE76
 11101 0070 00000000 		.4byte	.LFB77
 11102 0074 6A010000 		.4byte	.LFE77
 11103 0078 00000000 		.4byte	.LFB78
 11104 007c 04020000 		.4byte	.LFE78
 11105 0080 00000000 		.4byte	.LFB79
 11106 0084 38020000 		.4byte	.LFE79
 11107 0088 00000000 		.4byte	.LFB80
 11108 008c 42010000 		.4byte	.LFE80
 11109 0090 00000000 		.4byte	.LFB81
 11110 0094 40010000 		.4byte	.LFE81
 11111 0098 00000000 		.4byte	.LFB82
 11112 009c 1C010000 		.4byte	.LFE82
 11113 00a0 00000000 		.4byte	.LFB83
 11114 00a4 A4010000 		.4byte	.LFE83
 11115 00a8 00000000 		.4byte	.LFB84
 11116 00ac 5C010000 		.4byte	.LFE84
 11117 00b0 00000000 		.4byte	.LFB85
 11118 00b4 8C020000 		.4byte	.LFE85
 11119 00b8 00000000 		.4byte	.LFB86
 11120 00bc E8000000 		.4byte	.LFE86
 11121 00c0 00000000 		.4byte	.LFB87
 11122 00c4 4C010000 		.4byte	.LFE87
 11123 00c8 00000000 		.4byte	.LFB88
 11124 00cc 62010000 		.4byte	.LFE88
 11125 00d0 00000000 		.4byte	.LFB89
 11126 00d4 90010000 		.4byte	.LFE89
 11127 00d8 00000000 		.4byte	.LFB90
 11128 00dc B0000000 		.4byte	.LFE90
 11129 00e0 00000000 		.4byte	.LFB91
ARM GAS  C:\Users\Lenovo\AppData\Local\Temp\ccKs44LO.s 			page 222


 11130 00e4 B4000000 		.4byte	.LFE91
 11131 00e8 00000000 		.4byte	.LFB92
 11132 00ec 40000000 		.4byte	.LFE92
 11133 00f0 00000000 		.4byte	.LFB93
 11134 00f4 48010000 		.4byte	.LFE93
 11135 00f8 00000000 		.4byte	.LFB94
 11136 00fc A8010000 		.4byte	.LFE94
 11137 0100 00000000 		.4byte	.LFB95
 11138 0104 D0030000 		.4byte	.LFE95
 11139 0108 00000000 		.4byte	0
 11140 010c 00000000 		.4byte	0
 11141              		.section	.debug_line,"",%progbits
 11142              	.Ldebug_line0:
 11143 0000 980A0000 		.section	.debug_str,"MS",%progbits,1
 11143      0200E001 
 11143      00000201 
 11143      FB0E0D00 
 11143      01010101 
 11144              	.LASF351:
 11145 0000 5F646973 		.ascii	"_dispid\000"
 11145      70696400 
 11146              	.LASF225:
 11147 0008 5F707269 		.ascii	"_printerportside2\000"
 11147      6E746572 
 11147      706F7274 
 11147      73696465 
 11147      3200
 11148              	.LASF112:
 11149 001a 5F706F73 		.ascii	"_positionoffset\000"
 11149      6974696F 
 11149      6E6F6666 
 11149      73657400 
 11150              	.LASF74:
 11151 002a 5F70756D 		.ascii	"_pumprftransstate\000"
 11151      70726674 
 11151      72616E73 
 11151      73746174 
 11151      6500
 11152              	.LASF107:
 11153 003c 5F766F6C 		.ascii	"_volumeunit\000"
 11153      756D6575 
 11153      6E697400 
 11154              	.LASF298:
 11155 0048 44495350 		.ascii	"DISPLAY1\000"
 11155      4C415931 
 11155      00
 11156              	.LASF299:
 11157 0051 44495350 		.ascii	"DISPLAY2\000"
 11157      4C415932 
 11157      00
 11158              	.LASF169:
 11159 005a 5F53494E 		.ascii	"_SINK_MESSAGE_\000"
 11159      4B5F4D45 
 11159      53534147 
 11159      455F00
 11160              	.LASF409:
 11161 0069 45455052 		.ascii	"EEPROM_DISPENSER_PUMP44_TRANSACTION_PAGE\000"
ARM GAS  C:\Users\Lenovo\AppData\Local\Temp\ccKs44LO.s 			page 223


 11161      4F4D5F44 
 11161      49535045 
 11161      4E534552 
 11161      5F50554D 
 11162              	.LASF20:
 11163 0092 73697A65 		.ascii	"sizetype\000"
 11163      74797065 
 11163      00
 11164              	.LASF188:
 11165 009b 44495350 		.ascii	"DISPENSER_ACQUIRE_PUMP_STATE\000"
 11165      454E5345 
 11165      525F4143 
 11165      51554952 
 11165      455F5055 
 11166              	.LASF143:
 11167 00b8 5F6D6573 		.ascii	"_messagelength\000"
 11167      73616765 
 11167      6C656E67 
 11167      746800
 11168              	.LASF353:
 11169 00c7 5F6E6578 		.ascii	"_nextscrid\000"
 11169      74736372 
 11169      696400
 11170              	.LASF147:
 11171 00d2 55415254 		.ascii	"UARTMessage\000"
 11171      4D657373 
 11171      61676500 
 11172              	.LASF67:
 11173 00de 5F73696E 		.ascii	"_sinktransaction\000"
 11173      6B747261 
 11173      6E736163 
 11173      74696F6E 
 11173      00
 11174              	.LASF439:
 11175 00ef 4E6F6E45 		.ascii	"NonEmptyDataValidator\000"
 11175      6D707479 
 11175      44617461 
 11175      56616C69 
 11175      6461746F 
 11176              	.LASF237:
 11177 0105 44495350 		.ascii	"DISPLAY_SUBA_MANIJA\000"
 11177      4C41595F 
 11177      53554241 
 11177      5F4D414E 
 11177      494A4100 
 11178              	.LASF370:
 11179 0119 45455052 		.ascii	"EEPROM_CONFIGURATION_PAGE0\000"
 11179      4F4D5F43 
 11179      4F4E4649 
 11179      47555241 
 11179      54494F4E 
 11180              	.LASF126:
 11181 0134 47657452 		.ascii	"GetRxBufferSize\000"
 11181      78427566 
 11181      66657253 
 11181      697A6500 
 11182              	.LASF372:
ARM GAS  C:\Users\Lenovo\AppData\Local\Temp\ccKs44LO.s 			page 224


 11183 0144 45455052 		.ascii	"EEPROM_CONFIGURATION_PAGE2\000"
 11183      4F4D5F43 
 11183      4F4E4649 
 11183      47555241 
 11183      54494F4E 
 11184              	.LASF373:
 11185 015f 45455052 		.ascii	"EEPROM_CONFIGURATION_PAGE3\000"
 11185      4F4D5F43 
 11185      4F4E4649 
 11185      47555241 
 11185      54494F4E 
 11186              	.LASF374:
 11187 017a 45455052 		.ascii	"EEPROM_CONFIGURATION_PAGE4\000"
 11187      4F4D5F43 
 11187      4F4E4649 
 11187      47555241 
 11187      54494F4E 
 11188              	.LASF341:
 11189 0195 5F696E70 		.ascii	"_inputvalidator\000"
 11189      75747661 
 11189      6C696461 
 11189      746F7200 
 11190              	.LASF376:
 11191 01a5 45455052 		.ascii	"EEPROM_CONFIGURATION_PAGE6\000"
 11191      4F4D5F43 
 11191      4F4E4649 
 11191      47555241 
 11191      54494F4E 
 11192              	.LASF377:
 11193 01c0 45455052 		.ascii	"EEPROM_CONFIGURATION_PAGE7\000"
 11193      4F4D5F43 
 11193      4F4E4649 
 11193      47555241 
 11193      54494F4E 
 11194              	.LASF349:
 11195 01db 5F627566 		.ascii	"_bufferindex\000"
 11195      66657269 
 11195      6E646578 
 11195      00
 11196              	.LASF185:
 11197 01e8 53494E4B 		.ascii	"SINK_RELEASE_BY_ID\000"
 11197      5F52454C 
 11197      45415345 
 11197      5F42595F 
 11197      494400
 11198              	.LASF150:
 11199 01fb 55415254 		.ascii	"UART_RF\000"
 11199      5F524600 
 11200              	.LASF10:
 11201 0203 696E7433 		.ascii	"int32_t\000"
 11201      325F7400 
 11202              	.LASF326:
 11203 020b 5F796465 		.ascii	"_ydefpos\000"
 11203      66706F73 
 11203      00
 11204              	.LASF82:
 11205 0214 5F727862 		.ascii	"_rxbuffersize\000"
ARM GAS  C:\Users\Lenovo\AppData\Local\Temp\ccKs44LO.s 			page 225


 11205      75666665 
 11205      7273697A 
 11205      6500
 11206              	.LASF61:
 11207 0222 5F70756D 		.ascii	"_pumpid\000"
 11207      70696400 
 11208              	.LASF26:
 11209 022a 50554D50 		.ascii	"PUMP_AUTHORIZED\000"
 11209      5F415554 
 11209      484F5249 
 11209      5A454400 
 11210              	.LASF183:
 11211 023a 55415254 		.ascii	"UART_RF_AUTONOMOUS_MONITOR\000"
 11211      5F52465F 
 11211      4155544F 
 11211      4E4F4D4F 
 11211      55535F4D 
 11212              	.LASF479:
 11213 0255 5F675F64 		.ascii	"_g_dispenserlayoutinfo\000"
 11213      69737065 
 11213      6E736572 
 11213      6C61796F 
 11213      7574696E 
 11214              	.LASF13:
 11215 026c 75696E74 		.ascii	"uint32\000"
 11215      333200
 11216              	.LASF33:
 11217 0273 5F737461 		.ascii	"_state\000"
 11217      746500
 11218              	.LASF257:
 11219 027a 44495350 		.ascii	"DISPLAY_COPIA_RECIBO\000"
 11219      4C41595F 
 11219      434F5049 
 11219      415F5245 
 11219      4349424F 
 11220              	.LASF405:
 11221 028f 45455052 		.ascii	"EEPROM_DISPENSER_PUMP34_TRANSACTION_PAGE\000"
 11221      4F4D5F44 
 11221      49535045 
 11221      4E534552 
 11221      5F50554D 
 11222              	.LASF300:
 11223 02b8 504F5349 		.ascii	"POSITIONA\000"
 11223      54494F4E 
 11223      4100
 11224              	.LASF301:
 11225 02c2 504F5349 		.ascii	"POSITIONB\000"
 11225      54494F4E 
 11225      4200
 11226              	.LASF32:
 11227 02cc 50554D50 		.ascii	"PUMP_UNKNOWN\000"
 11227      5F554E4B 
 11227      4E4F574E 
 11227      00
 11228              	.LASF212:
 11229 02d9 44495350 		.ascii	"DISPLAY1_MESSAGE\000"
 11229      4C415931 
ARM GAS  C:\Users\Lenovo\AppData\Local\Temp\ccKs44LO.s 			page 226


 11229      5F4D4553 
 11229      53414745 
 11229      00
 11230              	.LASF192:
 11231 02ea 44495350 		.ascii	"DISPENSER_UNLOCK_EOT_PUMPS\000"
 11231      454E5345 
 11231      525F554E 
 11231      4C4F434B 
 11231      5F454F54 
 11232              	.LASF119:
 11233 0305 53746F70 		.ascii	"Stop\000"
 11233      00
 11234              	.LASF135:
 11235 030a 55415254 		.ascii	"UARTManager\000"
 11235      4D616E61 
 11235      67657200 
 11236              	.LASF269:
 11237 0316 44495350 		.ascii	"DISPLAY_ABRIR_TURNO\000"
 11237      4C41595F 
 11237      41425249 
 11237      525F5455 
 11237      524E4F00 
 11238              	.LASF371:
 11239 032a 45455052 		.ascii	"EEPROM_CONFIGURATION_PAGE1\000"
 11239      4F4D5F43 
 11239      4F4E4649 
 11239      47555241 
 11239      54494F4E 
 11240              	.LASF256:
 11241 0345 44495350 		.ascii	"DISPLAY_CONFIGURACIONES\000"
 11241      4C41595F 
 11241      434F4E46 
 11241      49475552 
 11241      4143494F 
 11242              	.LASF408:
 11243 035d 45455052 		.ascii	"EEPROM_DISPENSER_PUMP43_TRANSACTION_PAGE\000"
 11243      4F4D5F44 
 11243      49535045 
 11243      4E534552 
 11243      5F50554D 
 11244              	.LASF18:
 11245 0386 63686172 		.ascii	"char8\000"
 11245      3800
 11246              	.LASF222:
 11247 038c 544F4747 		.ascii	"TOGGLE_SCREEN_AND_WRITE_TEST\000"
 11247      4C455F53 
 11247      43524545 
 11247      4E5F414E 
 11247      445F5752 
 11248              	.LASF199:
 11249 03a9 44495350 		.ascii	"DISPENSER_ACQUIRE_TOTALS\000"
 11249      454E5345 
 11249      525F4143 
 11249      51554952 
 11249      455F544F 
 11250              	.LASF186:
 11251 03c2 53494E4B 		.ascii	"SINK_RELEASE_BY_PTR\000"
ARM GAS  C:\Users\Lenovo\AppData\Local\Temp\ccKs44LO.s 			page 227


 11251      5F52454C 
 11251      45415345 
 11251      5F42595F 
 11251      50545200 
 11252              	.LASF83:
 11253 03d6 5F747261 		.ascii	"_transqueue\000"
 11253      6E737175 
 11253      65756500 
 11254              	.LASF382:
 11255 03e2 45455052 		.ascii	"EEPROM_DISPENSER_PUMP1_PRODUCT_NAMES_PAGE\000"
 11255      4F4D5F44 
 11255      49535045 
 11255      4E534552 
 11255      5F50554D 
 11256              	.LASF435:
 11257 040c 70617263 		.ascii	"parcode\000"
 11257      6F646500 
 11258              	.LASF307:
 11259 0414 466F6E74 		.ascii	"FontData\000"
 11259      44617461 
 11259      00
 11260              	.LASF401:
 11261 041d 45455052 		.ascii	"EEPROM_DISPENSER_PUMP24_TRANSACTION_PAGE\000"
 11261      4F4D5F44 
 11261      49535045 
 11261      4E534552 
 11261      5F50554D 
 11262              	.LASF204:
 11263 0446 5052494E 		.ascii	"PRINTER21_JOB\000"
 11263      54455232 
 11263      315F4A4F 
 11263      4200
 11264              	.LASF330:
 11265 0454 5F736372 		.ascii	"_scrid\000"
 11265      696400
 11266              	.LASF395:
 11267 045b 45455052 		.ascii	"EEPROM_DISPENSER_PUMP12_TRANSACTION_PAGE\000"
 11267      4F4D5F44 
 11267      49535045 
 11267      4E534552 
 11267      5F50554D 
 11268              	.LASF14:
 11269 0484 696E7438 		.ascii	"int8\000"
 11269      00
 11270              	.LASF325:
 11271 0489 5F786465 		.ascii	"_xdefpos\000"
 11271      66706F73 
 11271      00
 11272              	.LASF470:
 11273 0492 436C6561 		.ascii	"CleanMessageSink\000"
 11273      6E4D6573 
 11273      73616765 
 11273      53696E6B 
 11273      00
 11274              	.LASF378:
 11275 04a3 45455052 		.ascii	"EEPROM_DISPENSER_PUMP1_LAYOUT_PAGE\000"
 11275      4F4D5F44 
ARM GAS  C:\Users\Lenovo\AppData\Local\Temp\ccKs44LO.s 			page 228


 11275      49535045 
 11275      4E534552 
 11275      5F50554D 
 11276              	.LASF89:
 11277 04c6 50756D70 		.ascii	"PumpTransQueueDeallocate\000"
 11277      5472616E 
 11277      73517565 
 11277      75654465 
 11277      616C6C6F 
 11278              	.LASF462:
 11279 04df 44697370 		.ascii	"DisplayIDInputHandler\000"
 11279      6C617949 
 11279      44496E70 
 11279      75744861 
 11279      6E646C65 
 11280              	.LASF137:
 11281 04f5 5F554152 		.ascii	"_UART_MESSAGE_STATE_\000"
 11281      545F4D45 
 11281      53534147 
 11281      455F5354 
 11281      4154455F 
 11282              	.LASF483:
 11283 050a 5F675F64 		.ascii	"_g_display2\000"
 11283      6973706C 
 11283      61793200 
 11284              	.LASF404:
 11285 0516 45455052 		.ascii	"EEPROM_DISPENSER_PUMP33_TRANSACTION_PAGE\000"
 11285      4F4D5F44 
 11285      49535045 
 11285      4E534552 
 11285      5F50554D 
 11286              	.LASF234:
 11287 053f 44495350 		.ascii	"DISPLAY_INTRODUZCA_VALOR2\000"
 11287      4C41595F 
 11287      494E5452 
 11287      4F44555A 
 11287      43415F56 
 11288              	.LASF276:
 11289 0559 44495350 		.ascii	"DISPLAY_IDENTIFICADOR_ESTACION\000"
 11289      4C41595F 
 11289      4944454E 
 11289      54494649 
 11289      4341444F 
 11290              	.LASF214:
 11291 0578 44495350 		.ascii	"DISPLAY1_ANIMATE_HOME\000"
 11291      4C415931 
 11291      5F414E49 
 11291      4D415445 
 11291      5F484F4D 
 11292              	.LASF35:
 11293 058e 5F627566 		.ascii	"_buffer\000"
 11293      66657200 
 11294              	.LASF397:
 11295 0596 45455052 		.ascii	"EEPROM_DISPENSER_PUMP14_TRANSACTION_PAGE\000"
 11295      4F4D5F44 
 11295      49535045 
 11295      4E534552 
ARM GAS  C:\Users\Lenovo\AppData\Local\Temp\ccKs44LO.s 			page 229


 11295      5F50554D 
 11296              	.LASF180:
 11297 05bf 5F53494E 		.ascii	"_SINK_OBSERVABLES_\000"
 11297      4B5F4F42 
 11297      53455256 
 11297      41424C45 
 11297      535F00
 11298              	.LASF358:
 11299 05d2 5F74696D 		.ascii	"_timeoutmultiplier\000"
 11299      656F7574 
 11299      6D756C74 
 11299      69706C69 
 11299      657200
 11300              	.LASF369:
 11301 05e5 5F454550 		.ascii	"_EEPROM_MEM_FORMAT_\000"
 11301      524F4D5F 
 11301      4D454D5F 
 11301      464F524D 
 11301      41545F00 
 11302              	.LASF17:
 11303 05f9 75696E74 		.ascii	"uint64\000"
 11303      363400
 11304              	.LASF4:
 11305 0600 6C6F6E67 		.ascii	"long int\000"
 11305      20696E74 
 11305      00
 11306              	.LASF72:
 11307 0609 5F726F75 		.ascii	"_roundrobinstate\000"
 11307      6E64726F 
 11307      62696E73 
 11307      74617465 
 11307      00
 11308              	.LASF362:
 11309 061a 5F706375 		.ascii	"_pcurrflow\000"
 11309      7272666C 
 11309      6F7700
 11310              	.LASF63:
 11311 0625 5F70756D 		.ascii	"_pumpstate\000"
 11311      70737461 
 11311      746500
 11312              	.LASF472:
 11313 0630 52656C65 		.ascii	"ReleaseMessageSink\000"
 11313      6173654D 
 11313      65737361 
 11313      67655369 
 11313      6E6B00
 11314              	.LASF227:
 11315 0643 5F415641 		.ascii	"_AVAILABLE_DISPLAYS_\000"
 11315      494C4142 
 11315      4C455F44 
 11315      4953504C 
 11315      4159535F 
 11316              	.LASF302:
 11317 0658 5F73697A 		.ascii	"_size\000"
 11317      6500
 11318              	.LASF190:
 11319 065e 44495350 		.ascii	"DISPENSER_EXECUTE_CASH_TRANSACTION\000"
ARM GAS  C:\Users\Lenovo\AppData\Local\Temp\ccKs44LO.s 			page 230


 11319      454E5345 
 11319      525F4558 
 11319      45435554 
 11319      455F4341 
 11320              	.LASF175:
 11321 0681 5F6D6573 		.ascii	"_messagetimeoutmultiplier\000"
 11321      73616765 
 11321      74696D65 
 11321      6F75746D 
 11321      756C7469 
 11322              	.LASF201:
 11323 069b 44495350 		.ascii	"DISPENSER_PUMP_BEEP_WARNING\000"
 11323      454E5345 
 11323      525F5055 
 11323      4D505F42 
 11323      4545505F 
 11324              	.LASF427:
 11325 06b7 44697370 		.ascii	"DisplayInitializer\000"
 11325      6C617949 
 11325      6E697469 
 11325      616C697A 
 11325      657200
 11326              	.LASF144:
 11327 06ca 5F6D6573 		.ascii	"_messagetx\000"
 11327      73616765 
 11327      747800
 11328              	.LASF379:
 11329 06d5 45455052 		.ascii	"EEPROM_DISPENSER_PUMP2_LAYOUT_PAGE\000"
 11329      4F4D5F44 
 11329      49535045 
 11329      4E534552 
 11329      5F50554D 
 11330              	.LASF386:
 11331 06f8 45455052 		.ascii	"EEPROM_DISPENSER_PUMP1_PPU_INFO_PAGE\000"
 11331      4F4D5F44 
 11331      49535045 
 11331      4E534552 
 11331      5F50554D 
 11332              	.LASF153:
 11333 071d 55415254 		.ascii	"UART_DISPLAY1\000"
 11333      5F444953 
 11333      504C4159 
 11333      3100
 11334              	.LASF154:
 11335 072b 55415254 		.ascii	"UART_DISPLAY2\000"
 11335      5F444953 
 11335      504C4159 
 11335      3200
 11336              	.LASF254:
 11337 0739 44495350 		.ascii	"DISPLAY_INTRODUZCA_KILOMETRAJE\000"
 11337      4C41595F 
 11337      494E5452 
 11337      4F44555A 
 11337      43415F4B 
 11338              	.LASF286:
 11339 0758 44495350 		.ascii	"DISPLAY_CREDIT_AUTHORIZATION_ACCEPTED\000"
 11339      4C41595F 
ARM GAS  C:\Users\Lenovo\AppData\Local\Temp\ccKs44LO.s 			page 231


 11339      43524544 
 11339      49545F41 
 11339      5554484F 
 11340              	.LASF217:
 11341 077e 44495350 		.ascii	"DISPLAY2_UPDATE_DATETIME\000"
 11341      4C415932 
 11341      5F555044 
 11341      4154455F 
 11341      44415445 
 11342              	.LASF368:
 11343 0797 50444953 		.ascii	"PDISPLAYLAYOUTPTR\000"
 11343      504C4159 
 11343      4C41594F 
 11343      55545054 
 11343      5200
 11344              	.LASF191:
 11345 07a9 44495350 		.ascii	"DISPENSER_EXECUTE_CREDIT_TRANSACTION\000"
 11345      454E5345 
 11345      525F4558 
 11345      45435554 
 11345      455F4352 
 11346              	.LASF207:
 11347 07ce 5052494E 		.ascii	"PRINTER2_GENERIC_JOB\000"
 11347      54455232 
 11347      5F47454E 
 11347      45524943 
 11347      5F4A4F42 
 11348              	.LASF262:
 11349 07e3 44495350 		.ascii	"DISPLAY_POR_FAVOR_ESPERE\000"
 11349      4C41595F 
 11349      504F525F 
 11349      4641564F 
 11349      525F4553 
 11350              	.LASF267:
 11351 07fc 44495350 		.ascii	"DISPLAY_FECHA\000"
 11351      4C41595F 
 11351      46454348 
 11351      4100
 11352              	.LASF284:
 11353 080a 5F444953 		.ascii	"_DISPLAY_STATES_\000"
 11353      504C4159 
 11353      5F535441 
 11353      5445535F 
 11353      00
 11354              	.LASF0:
 11355 081b 7369676E 		.ascii	"signed char\000"
 11355      65642063 
 11355      68617200 
 11356              	.LASF22:
 11357 0827 504E4541 		.ascii	"PNEAR_BYTE_PTR\000"
 11357      525F4259 
 11357      54455F50 
 11357      545200
 11358              	.LASF248:
 11359 0836 44495350 		.ascii	"DISPLAY_ID_DIGITAL\000"
 11359      4C41595F 
 11359      49445F44 
ARM GAS  C:\Users\Lenovo\AppData\Local\Temp\ccKs44LO.s 			page 232


 11359      49474954 
 11359      414C00
 11360              	.LASF246:
 11361 0849 44495350 		.ascii	"DISPLAY_TIEMPO_EXPIRADO\000"
 11361      4C41595F 
 11361      5449454D 
 11361      504F5F45 
 11361      58504952 
 11362              	.LASF127:
 11363 0861 436C6561 		.ascii	"ClearRxBuffer\000"
 11363      72527842 
 11363      75666665 
 11363      7200
 11364              	.LASF463:
 11365 086f 44697370 		.ascii	"DisplayInputPasswordHandler\000"
 11365      6C617949 
 11365      6E707574 
 11365      50617373 
 11365      776F7264 
 11366              	.LASF124:
 11367 088b 47657443 		.ascii	"GetChar\000"
 11367      68617200 
 11368              	.LASF396:
 11369 0893 45455052 		.ascii	"EEPROM_DISPENSER_PUMP13_TRANSACTION_PAGE\000"
 11369      4F4D5F44 
 11369      49535045 
 11369      4E534552 
 11369      5F50554D 
 11370              	.LASF437:
 11371 08bc 50617273 		.ascii	"ParseDisplayFlow\000"
 11371      65446973 
 11371      706C6179 
 11371      466C6F77 
 11371      00
 11372              	.LASF272:
 11373 08cd 44495350 		.ascii	"DISPLAY_USUARIO_VALIDO\000"
 11373      4C41595F 
 11373      55535541 
 11373      52494F5F 
 11373      56414C49 
 11374              	.LASF481:
 11375 08e4 5F675F62 		.ascii	"_g_buffscrlut\000"
 11375      75666673 
 11375      63726C75 
 11375      7400
 11376              	.LASF270:
 11377 08f2 44495350 		.ascii	"DISPLAY_CERRAR_TURNO\000"
 11377      4C41595F 
 11377      43455252 
 11377      41525F54 
 11377      55524E4F 
 11378              	.LASF321:
 11379 0907 5F726566 		.ascii	"_refscrid\000"
 11379      73637269 
 11379      6400
 11380              	.LASF420:
 11381 0911 70646973 		.ascii	"pdisplay\000"
ARM GAS  C:\Users\Lenovo\AppData\Local\Temp\ccKs44LO.s 			page 233


 11381      706C6179 
 11381      00
 11382              	.LASF259:
 11383 091a 44495350 		.ascii	"DISPLAY_SELECCIONE_POSICION\000"
 11383      4C41595F 
 11383      53454C45 
 11383      4343494F 
 11383      4E455F50 
 11384              	.LASF303:
 11385 0936 5F666163 		.ascii	"_face\000"
 11385      6500
 11386              	.LASF421:
 11387 093c 70646973 		.ascii	"pdispflow\000"
 11387      70666C6F 
 11387      7700
 11388              	.LASF140:
 11389 0946 50454E44 		.ascii	"PENDING\000"
 11389      494E4700 
 11390              	.LASF213:
 11391 094e 44495350 		.ascii	"DISPLAY1_UPDATE_DATETIME\000"
 11391      4C415931 
 11391      5F555044 
 11391      4154455F 
 11391      44415445 
 11392              	.LASF1:
 11393 0967 756E7369 		.ascii	"unsigned char\000"
 11393      676E6564 
 11393      20636861 
 11393      7200
 11394              	.LASF99:
 11395 0975 5F6E756D 		.ascii	"_numpositions\000"
 11395      706F7369 
 11395      74696F6E 
 11395      7300
 11396              	.LASF233:
 11397 0983 44495350 		.ascii	"DISPLAY_INTRODUZCA_VALOR\000"
 11397      4C41595F 
 11397      494E5452 
 11397      4F44555A 
 11397      43415F56 
 11398              	.LASF297:
 11399 099c 44495350 		.ascii	"DISPLAY_VALID_PASSWORD\000"
 11399      4C41595F 
 11399      56414C49 
 11399      445F5041 
 11399      5353574F 
 11400              	.LASF58:
 11401 09b3 5F736572 		.ascii	"_serial\000"
 11401      69616C00 
 11402              	.LASF261:
 11403 09bb 44495350 		.ascii	"DISPLAY_ESPERANDO_AUTORIZACION\000"
 11403      4C41595F 
 11403      45535045 
 11403      52414E44 
 11403      4F5F4155 
 11404              	.LASF332:
 11405 09da 5F706172 		.ascii	"_parentcode\000"
ARM GAS  C:\Users\Lenovo\AppData\Local\Temp\ccKs44LO.s 			page 234


 11405      656E7463 
 11405      6F646500 
 11406              	.LASF446:
 11407 09e6 70756172 		.ascii	"puartdisp\000"
 11407      74646973 
 11407      7000
 11408              	.LASF111:
 11409 09f0 5F707265 		.ascii	"_presetdigits\000"
 11409      73657464 
 11409      69676974 
 11409      7300
 11410              	.LASF348:
 11411 09fe 5F79706F 		.ascii	"_ypos\000"
 11411      7300
 11412              	.LASF167:
 11413 0a04 53494E4B 		.ascii	"SINK_ALLOCATED\000"
 11413      5F414C4C 
 11413      4F434154 
 11413      454400
 11414              	.LASF195:
 11415 0a13 44495350 		.ascii	"DISPENSER_ACQUIRE_CONFIGURATION_INFORMATION\000"
 11415      454E5345 
 11415      525F4143 
 11415      51554952 
 11415      455F434F 
 11416              	.LASF173:
 11417 0a3f 5F6D6573 		.ascii	"_messagedelay\000"
 11417      73616765 
 11417      64656C61 
 11417      7900
 11418              	.LASF106:
 11419 0a4d 5F766F6C 		.ascii	"_volumedecimals\000"
 11419      756D6564 
 11419      6563696D 
 11419      616C7300 
 11420              	.LASF59:
 11421 0a5d 5F426F6F 		.ascii	"_Bool\000"
 11421      6C00
 11422              	.LASF331:
 11423 0a63 5F706172 		.ascii	"_parentscrid\000"
 11423      656E7473 
 11423      63726964 
 11423      00
 11424              	.LASF101:
 11425 0a70 5F686F73 		.ascii	"_hosesposition2\000"
 11425      6573706F 
 11425      73697469 
 11425      6F6E3200 
 11426              	.LASF57:
 11427 0a80 5F766F6C 		.ascii	"_volumeamount\000"
 11427      756D6561 
 11427      6D6F756E 
 11427      7400
 11428              	.LASF344:
 11429 0a8e 5F66696E 		.ascii	"_finalizer\000"
 11429      616C697A 
 11429      657200
ARM GAS  C:\Users\Lenovo\AppData\Local\Temp\ccKs44LO.s 			page 235


 11430              	.LASF128:
 11431 0a99 57726974 		.ascii	"WriteTxData\000"
 11431      65547844 
 11431      61746100 
 11432              	.LASF315:
 11433 0aa5 46505452 		.ascii	"FPTRINPUTHANDLER\000"
 11433      494E5055 
 11433      5448414E 
 11433      444C4552 
 11433      00
 11434              	.LASF429:
 11435 0ab6 44697370 		.ascii	"DisplayFinalizer\000"
 11435      6C617946 
 11435      696E616C 
 11435      697A6572 
 11435      00
 11436              	.LASF95:
 11437 0ac7 436C6561 		.ascii	"CleanUp\000"
 11437      6E557000 
 11438              	.LASF196:
 11439 0acf 44495350 		.ascii	"DISPENSER_CONFIGURE_PRICES\000"
 11439      454E5345 
 11439      525F434F 
 11439      4E464947 
 11439      5552455F 
 11440              	.LASF91:
 11441 0aea 50756D70 		.ascii	"PumpTransQueueDequeue\000"
 11441      5472616E 
 11441      73517565 
 11441      75654465 
 11441      71756575 
 11442              	.LASF19:
 11443 0b00 63686172 		.ascii	"char\000"
 11443      00
 11444              	.LASF410:
 11445 0b05 78706F73 		.ascii	"xpos\000"
 11445      00
 11446              	.LASF274:
 11447 0b0a 44495350 		.ascii	"DISPLAY_AMBAS_IMPRESORAS_FUNCIONANDO\000"
 11447      4C41595F 
 11447      414D4241 
 11447      535F494D 
 11447      50524553 
 11448              	.LASF163:
 11449 0b2f 42524F41 		.ascii	"BROADCASTFOREVER\000"
 11449      44434153 
 11449      54464F52 
 11449      45564552 
 11449      00
 11450              	.LASF485:
 11451 0b40 5F675F64 		.ascii	"_g_displaystarting\000"
 11451      6973706C 
 11451      61797374 
 11451      61727469 
 11451      6E6700
 11452              	.LASF456:
 11453 0b53 56616C69 		.ascii	"ValidatePumpAvailability4Positions\000"
ARM GAS  C:\Users\Lenovo\AppData\Local\Temp\ccKs44LO.s 			page 236


 11453      64617465 
 11453      50756D70 
 11453      41766169 
 11453      6C616269 
 11454              	.LASF451:
 11455 0b76 72656D70 		.ascii	"remplaces\000"
 11455      6C616365 
 11455      7300
 11456              	.LASF216:
 11457 0b80 44495350 		.ascii	"DISPLAY2_MESSAGE\000"
 11457      4C415932 
 11457      5F4D4553 
 11457      53414745 
 11457      00
 11458              	.LASF78:
 11459 0b91 5F747261 		.ascii	"_transhealth\000"
 11459      6E736865 
 11459      616C7468 
 11459      00
 11460              	.LASF322:
 11461 0b9e 5F627566 		.ascii	"_bufferpos\000"
 11461      66657270 
 11461      6F7300
 11462              	.LASF363:
 11463 0ba9 5F707265 		.ascii	"_preferenceflow\000"
 11463      66657265 
 11463      6E636566 
 11463      6C6F7700 
 11464              	.LASF151:
 11465 0bb9 55415254 		.ascii	"UART_PRINTER\000"
 11465      5F505249 
 11465      4E544552 
 11465      00
 11466              	.LASF383:
 11467 0bc6 45455052 		.ascii	"EEPROM_DISPENSER_PUMP2_PRODUCT_NAMES_PAGE\000"
 11467      4F4D5F44 
 11467      49535045 
 11467      4E534552 
 11467      5F50554D 
 11468              	.LASF104:
 11469 0bf0 5F6D6F6E 		.ascii	"_moneydecimals\000"
 11469      65796465 
 11469      63696D61 
 11469      6C7300
 11470              	.LASF312:
 11471 0bff 46696E61 		.ascii	"Finalizer\000"
 11471      6C697A65 
 11471      7200
 11472              	.LASF123:
 11473 0c09 52656164 		.ascii	"ReadRxStatus\000"
 11473      52785374 
 11473      61747573 
 11473      00
 11474              	.LASF108:
 11475 0c16 5F6D696E 		.ascii	"_minmoneyvalue\000"
 11475      6D6F6E65 
 11475      7976616C 
ARM GAS  C:\Users\Lenovo\AppData\Local\Temp\ccKs44LO.s 			page 237


 11475      756500
 11476              	.LASF364:
 11477 0c25 5F627566 		.ascii	"_bufferinfo\000"
 11477      66657269 
 11477      6E666F00 
 11478              	.LASF73:
 11479 0c31 5F706F73 		.ascii	"_positionlocked\000"
 11479      6974696F 
 11479      6E6C6F63 
 11479      6B656400 
 11480              	.LASF400:
 11481 0c41 45455052 		.ascii	"EEPROM_DISPENSER_PUMP23_TRANSACTION_PAGE\000"
 11481      4F4D5F44 
 11481      49535045 
 11481      4E534552 
 11481      5F50554D 
 11482              	.LASF335:
 11483 0c6a 5F706174 		.ascii	"_pathcodes\000"
 11483      68636F64 
 11483      657300
 11484              	.LASF133:
 11485 0c75 50757443 		.ascii	"PutCRLF\000"
 11485      524C4600 
 11486              	.LASF295:
 11487 0c7d 44495350 		.ascii	"DISPLAY_NEW_PASSWORD\000"
 11487      4C41595F 
 11487      4E45575F 
 11487      50415353 
 11487      574F5244 
 11488              	.LASF412:
 11489 0c92 70627566 		.ascii	"pbuffer\000"
 11489      66657200 
 11490              	.LASF84:
 11491 0c9a 5F747261 		.ascii	"_transqueuelocked\000"
 11491      6E737175 
 11491      6575656C 
 11491      6F636B65 
 11491      6400
 11492              	.LASF306:
 11493 0cac 5F666F72 		.ascii	"_forecolor\000"
 11493      65636F6C 
 11493      6F7200
 11494              	.LASF206:
 11495 0cb7 5052494E 		.ascii	"PRINTER1_GENERIC_JOB\000"
 11495      54455231 
 11495      5F47454E 
 11495      45524943 
 11495      5F4A4F42 
 11496              	.LASF461:
 11497 0ccc 44697370 		.ascii	"DisplayInputHandler\000"
 11497      6C617949 
 11497      6E707574 
 11497      48616E64 
 11497      6C657200 
 11498              	.LASF239:
 11499 0ce0 44495350 		.ascii	"DISPLAY_BAJE_MANIJA\000"
 11499      4C41595F 
ARM GAS  C:\Users\Lenovo\AppData\Local\Temp\ccKs44LO.s 			page 238


 11499      42414A45 
 11499      5F4D414E 
 11499      494A4100 
 11500              	.LASF359:
 11501 0cf4 5F76616C 		.ascii	"_val0\000"
 11501      3000
 11502              	.LASF203:
 11503 0cfa 5052494E 		.ascii	"PRINTER12_JOB\000"
 11503      54455231 
 11503      325F4A4F 
 11503      4200
 11504              	.LASF381:
 11505 0d08 45455052 		.ascii	"EEPROM_DISPENSER_PUMP4_LAYOUT_PAGE\000"
 11505      4F4D5F44 
 11505      49535045 
 11505      4E534552 
 11505      5F50554D 
 11506              	.LASF174:
 11507 0d2b 5F6D6573 		.ascii	"_messagetimeout\000"
 11507      73616765 
 11507      74696D65 
 11507      6F757400 
 11508              	.LASF232:
 11509 0d3b 44495350 		.ascii	"DISPLAY_FORMA_PROGRAMACION\000"
 11509      4C41595F 
 11509      464F524D 
 11509      415F5052 
 11509      4F475241 
 11510              	.LASF138:
 11511 0d56 46524545 		.ascii	"FREE\000"
 11511      00
 11512              	.LASF131:
 11513 0d5b 50757453 		.ascii	"PutString\000"
 11513      7472696E 
 11513      6700
 11514              	.LASF117:
 11515 0d65 43757374 		.ascii	"CustomUARTSend\000"
 11515      6F6D5541 
 11515      52545365 
 11515      6E6400
 11516              	.LASF313:
 11517 0d74 46505452 		.ascii	"FPTRDECORATOR\000"
 11517      4445434F 
 11517      5241544F 
 11517      5200
 11518              	.LASF210:
 11519 0d82 44495350 		.ascii	"DISPLAY_UPDATE_PUMP_STATE\000"
 11519      4C41595F 
 11519      55504441 
 11519      54455F50 
 11519      554D505F 
 11520              	.LASF294:
 11521 0d9c 44495350 		.ascii	"DISPLAY_WORK_SHIFT_OPERATOR_REJECTED\000"
 11521      4C41595F 
 11521      574F524B 
 11521      5F534849 
 11521      46545F4F 
ARM GAS  C:\Users\Lenovo\AppData\Local\Temp\ccKs44LO.s 			page 239


 11522              	.LASF310:
 11523 0dc1 496E7075 		.ascii	"InputHandler\000"
 11523      7448616E 
 11523      646C6572 
 11523      00
 11524              	.LASF105:
 11525 0dce 5F707075 		.ascii	"_ppudecimals\000"
 11525      64656369 
 11525      6D616C73 
 11525      00
 11526              	.LASF228:
 11527 0ddb 44495350 		.ascii	"DISPLAY_INICIO0\000"
 11527      4C41595F 
 11527      494E4943 
 11527      494F3000 
 11528              	.LASF229:
 11529 0deb 44495350 		.ascii	"DISPLAY_INICIO1\000"
 11529      4C41595F 
 11529      494E4943 
 11529      494F3100 
 11530              	.LASF230:
 11531 0dfb 44495350 		.ascii	"DISPLAY_INICIO2\000"
 11531      4C41595F 
 11531      494E4943 
 11531      494F3200 
 11532              	.LASF161:
 11533 0e0b 44454C41 		.ascii	"DELAYEDALLINTERESTED\000"
 11533      59454441 
 11533      4C4C494E 
 11533      54455245 
 11533      53544544 
 11534              	.LASF81:
 11535 0e20 5F727862 		.ascii	"_rxbuffer\000"
 11535      75666665 
 11535      7200
 11536              	.LASF466:
 11537 0e2a 70756D70 		.ascii	"pumpid\000"
 11537      696400
 11538              	.LASF440:
 11539 0e31 53656375 		.ascii	"SecureConfigurationValidator\000"
 11539      7265436F 
 11539      6E666967 
 11539      75726174 
 11539      696F6E56 
 11540              	.LASF38:
 11541 0e4e 504E4541 		.ascii	"PNEAR_PUMPTRANSACTIONALSTATEPTR\000"
 11541      525F5055 
 11541      4D505452 
 11541      414E5341 
 11541      4354494F 
 11542              	.LASF354:
 11543 0e6e 5F637572 		.ascii	"_currscrcode\000"
 11543      72736372 
 11543      636F6465 
 11543      00
 11544              	.LASF273:
 11545 0e7b 44495350 		.ascii	"DISPLAY_USUARIO_INVALIDO\000"
ARM GAS  C:\Users\Lenovo\AppData\Local\Temp\ccKs44LO.s 			page 240


 11545      4C41595F 
 11545      55535541 
 11545      52494F5F 
 11545      494E5641 
 11546              	.LASF458:
 11547 0e94 47657450 		.ascii	"GetPumpsAvailability\000"
 11547      756D7073 
 11547      41766169 
 11547      6C616269 
 11547      6C697479 
 11548              	.LASF452:
 11549 0ea9 64617461 		.ascii	"datavalue\000"
 11549      76616C75 
 11549      6500
 11550              	.LASF389:
 11551 0eb3 45455052 		.ascii	"EEPROM_DISPENSER_PUMP4_PPU_INFO_PAGE\000"
 11551      4F4D5F44 
 11551      49535045 
 11551      4E534552 
 11551      5F50554D 
 11552              	.LASF477:
 11553 0ed8 486F7365 		.ascii	"HoseDispenser\000"
 11553      44697370 
 11553      656E7365 
 11553      7200
 11554              	.LASF208:
 11555 0ee6 5052494E 		.ascii	"PRINTER1_GENERIC_JOB_LOGO\000"
 11555      54455231 
 11555      5F47454E 
 11555      45524943 
 11555      5F4A4F42 
 11556              	.LASF80:
 11557 0f00 5F747261 		.ascii	"_trasactionbuffer\000"
 11557      73616374 
 11557      696F6E62 
 11557      75666665 
 11557      7200
 11558              	.LASF487:
 11559 0f12 2E5C4469 		.ascii	".\\DisplayUtils.c\000"
 11559      73706C61 
 11559      79557469 
 11559      6C732E63 
 11559      00
 11560              	.LASF355:
 11561 0f23 5F637572 		.ascii	"_currentstate\000"
 11561      72656E74 
 11561      73746174 
 11561      6500
 11562              	.LASF478:
 11563 0f31 5F675F70 		.ascii	"_g_pumps\000"
 11563      756D7073 
 11563      00
 11564              	.LASF422:
 11565 0f3a 696E6465 		.ascii	"index\000"
 11565      7800
 11566              	.LASF473:
 11567 0f40 7073696E 		.ascii	"psinkmsg\000"
ARM GAS  C:\Users\Lenovo\AppData\Local\Temp\ccKs44LO.s 			page 241


 11567      6B6D7367 
 11567      00
 11568              	.LASF293:
 11569 0f49 44495350 		.ascii	"DISPLAY_WORK_SHIFT_OPERATOR_ACCEPTED\000"
 11569      4C41595F 
 11569      574F524B 
 11569      5F534849 
 11569      46545F4F 
 11570              	.LASF170:
 11571 0f6e 5F73656C 		.ascii	"_selfkill\000"
 11571      666B696C 
 11571      6C00
 11572              	.LASF60:
 11573 0f78 50756D70 		.ascii	"PumpAuthorizationInfo\000"
 11573      41757468 
 11573      6F72697A 
 11573      6174696F 
 11573      6E496E66 
 11574              	.LASF390:
 11575 0f8e 45455052 		.ascii	"EEPROM_INSEPET_RESERVED_PAGE1\000"
 11575      4F4D5F49 
 11575      4E534550 
 11575      45545F52 
 11575      45534552 
 11576              	.LASF391:
 11577 0fac 45455052 		.ascii	"EEPROM_INSEPET_RESERVED_PAGE2\000"
 11577      4F4D5F49 
 11577      4E534550 
 11577      45545F52 
 11577      45534552 
 11578              	.LASF392:
 11579 0fca 45455052 		.ascii	"EEPROM_INSEPET_RESERVED_PAGE3\000"
 11579      4F4D5F49 
 11579      4E534550 
 11579      45545F52 
 11579      45534552 
 11580              	.LASF393:
 11581 0fe8 45455052 		.ascii	"EEPROM_INSEPET_RESERVED_PAGE4\000"
 11581      4F4D5F49 
 11581      4E534550 
 11581      45545F52 
 11581      45534552 
 11582              	.LASF77:
 11583 1006 5F727476 		.ascii	"_rtvolumeamount\000"
 11583      6F6C756D 
 11583      65616D6F 
 11583      756E7400 
 11584              	.LASF385:
 11585 1016 45455052 		.ascii	"EEPROM_DISPENSER_PUMP4_PRODUCT_NAMES_PAGE\000"
 11585      4F4D5F44 
 11585      49535045 
 11585      4E534552 
 11585      5F50554D 
 11586              	.LASF346:
 11587 1040 50444953 		.ascii	"PDISPLAYFLOWPTR\000"
 11587      504C4159 
 11587      464C4F57 
ARM GAS  C:\Users\Lenovo\AppData\Local\Temp\ccKs44LO.s 			page 242


 11587      50545200 
 11588              	.LASF164:
 11589 1050 414C4C49 		.ascii	"ALLINTERESTEDFOREVER\000"
 11589      4E544552 
 11589      45535445 
 11589      44464F52 
 11589      45564552 
 11590              	.LASF97:
 11591 1065 5F696E63 		.ascii	"_inconfiguration\000"
 11591      6F6E6669 
 11591      67757261 
 11591      74696F6E 
 11591      00
 11592              	.LASF356:
 11593 1076 5F737461 		.ascii	"_statechangescrid\000"
 11593      74656368 
 11593      616E6765 
 11593      73637269 
 11593      6400
 11594              	.LASF436:
 11595 1088 70617273 		.ascii	"parscrid\000"
 11595      63726964 
 11595      00
 11596              	.LASF328:
 11597 1091 5F666F6E 		.ascii	"_font\000"
 11597      7400
 11598              	.LASF5:
 11599 1097 6C6F6E67 		.ascii	"long unsigned int\000"
 11599      20756E73 
 11599      69676E65 
 11599      6420696E 
 11599      7400
 11600              	.LASF334:
 11601 10a9 5F74696D 		.ascii	"_timeoutscrid\000"
 11601      656F7574 
 11601      73637269 
 11601      6400
 11602              	.LASF443:
 11603 10b7 6D617070 		.ascii	"mappedchar\000"
 11603      65646368 
 11603      617200
 11604              	.LASF278:
 11605 10c2 44495350 		.ascii	"DISPLAY_DUMMY0\000"
 11605      4C41595F 
 11605      44554D4D 
 11605      593000
 11606              	.LASF279:
 11607 10d1 44495350 		.ascii	"DISPLAY_DUMMY1\000"
 11607      4C41595F 
 11607      44554D4D 
 11607      593100
 11608              	.LASF280:
 11609 10e0 44495350 		.ascii	"DISPLAY_DUMMY2\000"
 11609      4C41595F 
 11609      44554D4D 
 11609      593200
 11610              	.LASF281:
ARM GAS  C:\Users\Lenovo\AppData\Local\Temp\ccKs44LO.s 			page 243


 11611 10ef 44495350 		.ascii	"DISPLAY_DUMMY3\000"
 11611      4C41595F 
 11611      44554D4D 
 11611      593300
 11612              	.LASF425:
 11613 10fe 70726574 		.ascii	"pretval\000"
 11613      76616C00 
 11614              	.LASF488:
 11615 1106 433A5C55 		.ascii	"C:\\Users\\Lenovo\\Documents\\GitHub\\CorEx-MUX-Ker"
 11615      73657273 
 11615      5C4C656E 
 11615      6F766F5C 
 11615      446F6375 
 11616 1134 6E656C2D 		.ascii	"nel-Enhanced\\Workspace01\\CorEx-Mux-Kernel.cydsn\000"
 11616      456E6861 
 11616      6E636564 
 11616      5C576F72 
 11616      6B737061 
 11617              	.LASF258:
 11618 1164 44495350 		.ascii	"DISPLAY_IMPRIMIENDO_RECIBO\000"
 11618      4C41595F 
 11618      494D5052 
 11618      494D4945 
 11618      4E444F5F 
 11619              	.LASF219:
 11620 117f 49425554 		.ascii	"IBUTTON1_SCAN\000"
 11620      544F4E31 
 11620      5F534341 
 11620      4E00
 11621              	.LASF177:
 11622 118d 5F706461 		.ascii	"_pdata\000"
 11622      746100
 11623              	.LASF266:
 11624 1194 44495350 		.ascii	"DISPLAY_HORA\000"
 11624      4C41595F 
 11624      484F5241 
 11624      00
 11625              	.LASF130:
 11626 11a1 50757443 		.ascii	"PutChar\000"
 11626      68617200 
 11627              	.LASF189:
 11628 11a9 44495350 		.ascii	"DISPENSER_ACQUIRE_PUMP_HOSE\000"
 11628      454E5345 
 11628      525F4143 
 11628      51554952 
 11628      455F5055 
 11629              	.LASF287:
 11630 11c5 44495350 		.ascii	"DISPLAY_CREDIT_AUTHORIZATION_REJECTED\000"
 11630      4C41595F 
 11630      43524544 
 11630      49545F41 
 11630      5554484F 
 11631              	.LASF454:
 11632 11eb 4E6F6E45 		.ascii	"NonEmptyVolumeValidator\000"
 11632      6D707479 
 11632      566F6C75 
 11632      6D655661 
ARM GAS  C:\Users\Lenovo\AppData\Local\Temp\ccKs44LO.s 			page 244


 11632      6C696461 
 11633              	.LASF339:
 11634 1203 5F646563 		.ascii	"_decorator\000"
 11634      6F726174 
 11634      6F7200
 11635              	.LASF317:
 11636 120e 46505452 		.ascii	"FPTRFINALIZER\000"
 11636      46494E41 
 11636      4C495A45 
 11636      5200
 11637              	.LASF152:
 11638 121c 55415254 		.ascii	"UART_DISPENSER\000"
 11638      5F444953 
 11638      50454E53 
 11638      455200
 11639              	.LASF251:
 11640 122b 44495350 		.ascii	"DISPLAY_ID_RECONOCIDO\000"
 11640      4C41595F 
 11640      49445F52 
 11640      45434F4E 
 11640      4F434944 
 11641              	.LASF416:
 11642 1241 72657476 		.ascii	"retval\000"
 11642      616C00
 11643              	.LASF407:
 11644 1248 45455052 		.ascii	"EEPROM_DISPENSER_PUMP42_TRANSACTION_PAGE\000"
 11644      4F4D5F44 
 11644      49535045 
 11644      4E534552 
 11644      5F50554D 
 11645              	.LASF223:
 11646 1271 57415443 		.ascii	"WATCHDOG_STARTUP\000"
 11646      48444F47 
 11646      5F535441 
 11646      52545550 
 11646      00
 11647              	.LASF275:
 11648 1282 44495350 		.ascii	"DISPLAY_IMPRESORA_NO_FUNCIONANDO\000"
 11648      4C41595F 
 11648      494D5052 
 11648      45534F52 
 11648      415F4E4F 
 11649              	.LASF134:
 11650 12a3 436C6561 		.ascii	"ClearTxBuffer\000"
 11650      72547842 
 11650      75666665 
 11650      7200
 11651              	.LASF455:
 11652 12b1 4E6F6E45 		.ascii	"NonEmpty15ModuloValidator\000"
 11652      6D707479 
 11652      31354D6F 
 11652      64756C6F 
 11652      56616C69 
 11653              	.LASF242:
 11654 12cb 44495350 		.ascii	"DISPLAY_INGRESE_PASSWORD\000"
 11654      4C41595F 
 11654      494E4752 
ARM GAS  C:\Users\Lenovo\AppData\Local\Temp\ccKs44LO.s 			page 245


 11654      4553455F 
 11654      50415353 
 11655              	.LASF329:
 11656 12e4 44697370 		.ascii	"DisplayInputBox\000"
 11656      6C617949 
 11656      6E707574 
 11656      426F7800 
 11657              	.LASF6:
 11658 12f4 6C6F6E67 		.ascii	"long long int\000"
 11658      206C6F6E 
 11658      6720696E 
 11658      7400
 11659              	.LASF263:
 11660 1302 44495350 		.ascii	"DISPLAY_AUTORIZACION_ACEPTADA\000"
 11660      4C41595F 
 11660      4155544F 
 11660      52495A41 
 11660      43494F4E 
 11661              	.LASF448:
 11662 1320 44697370 		.ascii	"DisplayMoneyInputHandler\000"
 11662      6C61794D 
 11662      6F6E6579 
 11662      496E7075 
 11662      7448616E 
 11663              	.LASF366:
 11664 1339 44697370 		.ascii	"DisplayValidator\000"
 11664      6C617956 
 11664      616C6964 
 11664      61746F72 
 11664      00
 11665              	.LASF241:
 11666 134a 44495350 		.ascii	"DISPLAY_DESEA_IMPRIMIR_RECIBO\000"
 11666      4C41595F 
 11666      44455345 
 11666      415F494D 
 11666      5052494D 
 11667              	.LASF247:
 11668 1368 44495350 		.ascii	"DISPLAY_GRACIAS_VUELVA_PRONTO\000"
 11668      4C41595F 
 11668      47524143 
 11668      4941535F 
 11668      5655454C 
 11669              	.LASF187:
 11670 1386 44495350 		.ascii	"DISPENSER_UPDATE_PUMP_TRANSACTION_TIMEOUTS\000"
 11670      454E5345 
 11670      525F5550 
 11670      44415445 
 11670      5F50554D 
 11671              	.LASF413:
 11672 13b1 70737472 		.ascii	"pstring\000"
 11672      696E6700 
 11673              	.LASF430:
 11674 13b9 50617273 		.ascii	"ParseDisplayStream\000"
 11674      65446973 
 11674      706C6179 
 11674      53747265 
 11674      616D00
ARM GAS  C:\Users\Lenovo\AppData\Local\Temp\ccKs44LO.s 			page 246


 11675              	.LASF202:
 11676 13cc 5052494E 		.ascii	"PRINTER11_JOB\000"
 11676      54455231 
 11676      315F4A4F 
 11676      4200
 11677              	.LASF352:
 11678 13da 5F73696E 		.ascii	"_sinktarget\000"
 11678      6B746172 
 11678      67657400 
 11679              	.LASF460:
 11680 13e6 47657450 		.ascii	"GetPumpsPrintState\000"
 11680      756D7073 
 11680      5072696E 
 11680      74537461 
 11680      746500
 11681              	.LASF314:
 11682 13f9 46505452 		.ascii	"FPTRINPUTVALIDATOR\000"
 11682      494E5055 
 11682      5456414C 
 11682      49444154 
 11682      4F5200
 11683              	.LASF337:
 11684 140c 5F737461 		.ascii	"_statecodes\000"
 11684      7465636F 
 11684      64657300 
 11685              	.LASF16:
 11686 1418 646F7562 		.ascii	"double\000"
 11686      6C6500
 11687              	.LASF403:
 11688 141f 45455052 		.ascii	"EEPROM_DISPENSER_PUMP32_TRANSACTION_PAGE\000"
 11688      4F4D5F44 
 11688      49535045 
 11688      4E534552 
 11688      5F50554D 
 11689              	.LASF243:
 11690 1448 44495350 		.ascii	"DISPLAY_PASSWORD_VALIDO\000"
 11690      4C41595F 
 11690      50415353 
 11690      574F5244 
 11690      5F56414C 
 11691              	.LASF115:
 11692 1460 5F554152 		.ascii	"_UART_MANAGER_\000"
 11692      545F4D41 
 11692      4E414745 
 11692      525F00
 11693              	.LASF235:
 11694 146f 44495350 		.ascii	"DISPLAY_SELECCIONE_PRODUCTO3\000"
 11694      4C41595F 
 11694      53454C45 
 11694      4343494F 
 11694      4E455F50 
 11695              	.LASF236:
 11696 148c 44495350 		.ascii	"DISPLAY_SELECCIONE_PRODUCTO4\000"
 11696      4C41595F 
 11696      53454C45 
 11696      4343494F 
 11696      4E455F50 
ARM GAS  C:\Users\Lenovo\AppData\Local\Temp\ccKs44LO.s 			page 247


 11697              	.LASF444:
 11698 14a9 74656D70 		.ascii	"tempbuffer\000"
 11698      62756666 
 11698      657200
 11699              	.LASF426:
 11700 14b4 44697370 		.ascii	"DisplayFlowInputValidator\000"
 11700      6C617946 
 11700      6C6F7749 
 11700      6E707574 
 11700      56616C69 
 11701              	.LASF244:
 11702 14ce 44495350 		.ascii	"DISPLAY_PASSWORD_INVALIDO\000"
 11702      4C41595F 
 11702      50415353 
 11702      574F5244 
 11702      5F494E56 
 11703              	.LASF76:
 11704 14e8 5F72746D 		.ascii	"_rtmoneyamount\000"
 11704      6F6E6579 
 11704      616D6F75 
 11704      6E7400
 11705              	.LASF476:
 11706 14f7 49544D5F 		.ascii	"ITM_RxBuffer\000"
 11706      52784275 
 11706      66666572 
 11706      00
 11707              	.LASF357:
 11708 1504 5F74696D 		.ascii	"_timeoutreftick\000"
 11708      656F7574 
 11708      72656674 
 11708      69636B00 
 11709              	.LASF25:
 11710 1514 50554D50 		.ascii	"PUMP_CALLING\000"
 11710      5F43414C 
 11710      4C494E47 
 11710      00
 11711              	.LASF15:
 11712 1521 666C6F61 		.ascii	"float\000"
 11712      7400
 11713              	.LASF406:
 11714 1527 45455052 		.ascii	"EEPROM_DISPENSER_PUMP41_TRANSACTION_PAGE\000"
 11714      4F4D5F44 
 11714      49535045 
 11714      4E534552 
 11714      5F50554D 
 11715              	.LASF434:
 11716 1550 73637269 		.ascii	"scrid\000"
 11716      6400
 11717              	.LASF350:
 11718 1556 44697370 		.ascii	"DisplayBuffer\000"
 11718      6C617942 
 11718      75666665 
 11718      7200
 11719              	.LASF51:
 11720 1564 50756D70 		.ascii	"PumpDataContainer\000"
 11720      44617461 
 11720      436F6E74 
ARM GAS  C:\Users\Lenovo\AppData\Local\Temp\ccKs44LO.s 			page 248


 11720      61696E65 
 11720      7200
 11721              	.LASF289:
 11722 1576 44495350 		.ascii	"DISPLAY_HOSE_ACTIVATED\000"
 11722      4C41595F 
 11722      484F5345 
 11722      5F414354 
 11722      49564154 
 11723              	.LASF375:
 11724 158d 45455052 		.ascii	"EEPROM_CONFIGURATION_PAGE5\000"
 11724      4F4D5F43 
 11724      4F4E4649 
 11724      47555241 
 11724      54494F4E 
 11725              	.LASF55:
 11726 15a8 5F707269 		.ascii	"_price\000"
 11726      636500
 11727              	.LASF8:
 11728 15af 756E7369 		.ascii	"unsigned int\000"
 11728      676E6564 
 11728      20696E74 
 11728      00
 11729              	.LASF318:
 11730 15bc 5F726566 		.ascii	"_refchar\000"
 11730      63686172 
 11730      00
 11731              	.LASF129:
 11732 15c5 52656164 		.ascii	"ReadTxStatus\000"
 11732      54785374 
 11732      61747573 
 11732      00
 11733              	.LASF224:
 11734 15d2 5F707269 		.ascii	"_printerportside1\000"
 11734      6E746572 
 11734      706F7274 
 11734      73696465 
 11734      3100
 11735              	.LASF179:
 11736 15e4 5053494E 		.ascii	"PSINKMESSAGEPTR\000"
 11736      4B4D4553 
 11736      53414745 
 11736      50545200 
 11737              	.LASF414:
 11738 15f4 62756666 		.ascii	"buffersize\000"
 11738      65727369 
 11738      7A6500
 11739              	.LASF240:
 11740 15ff 44495350 		.ascii	"DISPLAY_DIGITE_PLACA\000"
 11740      4C41595F 
 11740      44494749 
 11740      54455F50 
 11740      4C414341 
 11741              	.LASF69:
 11742 1614 5F726573 		.ascii	"_restoreprice\000"
 11742      746F7265 
 11742      70726963 
 11742      6500
ARM GAS  C:\Users\Lenovo\AppData\Local\Temp\ccKs44LO.s 			page 249


 11743              	.LASF360:
 11744 1622 5F76616C 		.ascii	"_val1\000"
 11744      3100
 11745              	.LASF68:
 11746 1628 5F70656E 		.ascii	"_pendingtransaction\000"
 11746      64696E67 
 11746      7472616E 
 11746      73616374 
 11746      696F6E00 
 11747              	.LASF311:
 11748 163c 496E6974 		.ascii	"Initializer\000"
 11748      69616C69 
 11748      7A657200 
 11749              	.LASF468:
 11750 1648 6E756D68 		.ascii	"numhoses\000"
 11750      6F736573 
 11750      00
 11751              	.LASF327:
 11752 1651 5F6D6178 		.ascii	"_maxchars\000"
 11752      63686172 
 11752      7300
 11753              	.LASF489:
 11754 165b 5F706F69 		.ascii	"_pointcommadecimalmode\000"
 11754      6E74636F 
 11754      6D6D6164 
 11754      6563696D 
 11754      616C6D6F 
 11755              	.LASF402:
 11756 1672 45455052 		.ascii	"EEPROM_DISPENSER_PUMP31_TRANSACTION_PAGE\000"
 11756      4F4D5F44 
 11756      49535045 
 11756      4E534552 
 11756      5F50554D 
 11757              	.LASF155:
 11758 169b 55415254 		.ascii	"UART_NULL\000"
 11758      5F4E554C 
 11758      4C00
 11759              	.LASF292:
 11760 16a5 44495350 		.ascii	"DISPLAY_CLOSE_WORK_SHIFT\000"
 11760      4C41595F 
 11760      434C4F53 
 11760      455F574F 
 11760      524B5F53 
 11761              	.LASF482:
 11762 16be 5F675F64 		.ascii	"_g_display1\000"
 11762      6973706C 
 11762      61793100 
 11763              	.LASF336:
 11764 16ca 5F706174 		.ascii	"_pathnodes\000"
 11764      686E6F64 
 11764      657300
 11765              	.LASF447:
 11766 16d5 44697370 		.ascii	"DisplayIntegerInputHandler\000"
 11766      6C617949 
 11766      6E746567 
 11766      6572496E 
 11766      70757448 
ARM GAS  C:\Users\Lenovo\AppData\Local\Temp\ccKs44LO.s 			page 250


 11767              	.LASF323:
 11768 16f0 5F627566 		.ascii	"_bufferlength\000"
 11768      6665726C 
 11768      656E6774 
 11768      6800
 11769              	.LASF450:
 11770 16fe 4E6F6E45 		.ascii	"NonEmptyMoneyValidator\000"
 11770      6D707479 
 11770      4D6F6E65 
 11770      7956616C 
 11770      69646174 
 11771              	.LASF121:
 11772 1715 57726974 		.ascii	"WriteControlRegister\000"
 11772      65436F6E 
 11772      74726F6C 
 11772      52656769 
 11772      73746572 
 11773              	.LASF221:
 11774 172a 474C4F42 		.ascii	"GLOBAL_TICK_NOTIFICATION\000"
 11774      414C5F54 
 11774      49434B5F 
 11774      4E4F5449 
 11774      46494341 
 11775              	.LASF361:
 11776 1743 5F737461 		.ascii	"_starting\000"
 11776      7274696E 
 11776      6700
 11777              	.LASF159:
 11778 174d 46495253 		.ascii	"FIRSTFOUND\000"
 11778      54464F55 
 11778      4E4400
 11779              	.LASF475:
 11780 1758 53746F72 		.ascii	"StoreTransactionData\000"
 11780      65547261 
 11780      6E736163 
 11780      74696F6E 
 11780      44617461 
 11781              	.LASF200:
 11782 176d 44495350 		.ascii	"DISPENSER_PUMP_HANDLER\000"
 11782      454E5345 
 11782      525F5055 
 11782      4D505F48 
 11782      414E444C 
 11783              	.LASF419:
 11784 1784 70706172 		.ascii	"pparam\000"
 11784      616D00
 11785              	.LASF249:
 11786 178b 44495350 		.ascii	"DISPLAY_ID_NO_RECONOCIDO\000"
 11786      4C41595F 
 11786      49445F4E 
 11786      4F5F5245 
 11786      434F4E4F 
 11787              	.LASF424:
 11788 17a4 44697370 		.ascii	"DisplayFlowInputHandler\000"
 11788      6C617946 
 11788      6C6F7749 
 11788      6E707574 
ARM GAS  C:\Users\Lenovo\AppData\Local\Temp\ccKs44LO.s 			page 251


 11788      48616E64 
 11789              	.LASF484:
 11790 17bc 5F675F70 		.ascii	"_g_productbuttonmap\000"
 11790      726F6475 
 11790      63746275 
 11790      74746F6E 
 11790      6D617000 
 11791              	.LASF398:
 11792 17d0 45455052 		.ascii	"EEPROM_DISPENSER_PUMP21_TRANSACTION_PAGE\000"
 11792      4F4D5F44 
 11792      49535045 
 11792      4E534552 
 11792      5F50554D 
 11793              	.LASF282:
 11794 17f9 44495350 		.ascii	"DISPLAY_SIDE_DUMMY_DISPLAY\000"
 11794      4C41595F 
 11794      53494445 
 11794      5F44554D 
 11794      4D595F44 
 11795              	.LASF265:
 11796 1814 44495350 		.ascii	"DISPLAY_CONFIGURAR_FECHA_HORA\000"
 11796      4C41595F 
 11796      434F4E46 
 11796      49475552 
 11796      41525F46 
 11797              	.LASF181:
 11798 1832 55415254 		.ascii	"UART_RF_RECEPTION\000"
 11798      5F52465F 
 11798      52454345 
 11798      5054494F 
 11798      4E00
 11799              	.LASF52:
 11800 1844 5F617574 		.ascii	"_authorized\000"
 11800      686F7269 
 11800      7A656400 
 11801              	.LASF21:
 11802 1850 6C6F6E67 		.ascii	"long double\000"
 11802      20646F75 
 11802      626C6500 
 11803              	.LASF449:
 11804 185c 44697370 		.ascii	"DisplayVolumeInputHandler\000"
 11804      6C617956 
 11804      6F6C756D 
 11804      65496E70 
 11804      75744861 
 11805              	.LASF168:
 11806 1876 53494E4B 		.ascii	"SINK_BUSY\000"
 11806      5F425553 
 11806      5900
 11807              	.LASF34:
 11808 1880 5F747261 		.ascii	"_transtate\000"
 11808      6E737461 
 11808      746500
 11809              	.LASF23:
 11810 188b 50554D50 		.ascii	"PUMP_FAIL\000"
 11810      5F464149 
 11810      4C00
ARM GAS  C:\Users\Lenovo\AppData\Local\Temp\ccKs44LO.s 			page 252


 11811              	.LASF118:
 11812 1895 53746172 		.ascii	"Start\000"
 11812      7400
 11813              	.LASF141:
 11814 189b 5F554152 		.ascii	"_UART_MESSAGE_\000"
 11814      545F4D45 
 11814      53534147 
 11814      455F00
 11815              	.LASF432:
 11816 18aa 64656C69 		.ascii	"delimitersize\000"
 11816      6D697465 
 11816      7273697A 
 11816      6500
 11817              	.LASF423:
 11818 18b8 44697370 		.ascii	"DisplayOutputString\000"
 11818      6C61794F 
 11818      75747075 
 11818      74537472 
 11818      696E6700 
 11819              	.LASF260:
 11820 18cc 44495350 		.ascii	"DISPLAY_OPERACION_CANCELADA\000"
 11820      4C41595F 
 11820      4F504552 
 11820      4143494F 
 11820      4E5F4341 
 11821              	.LASF255:
 11822 18e8 44495350 		.ascii	"DISPLAY_OPERACIONES\000"
 11822      4C41595F 
 11822      4F504552 
 11822      4143494F 
 11822      4E455300 
 11823              	.LASF29:
 11824 18fc 50554D50 		.ascii	"PUMP_FEOT\000"
 11824      5F46454F 
 11824      5400
 11825              	.LASF148:
 11826 1906 50554152 		.ascii	"PUARTMESSAGEPTR\000"
 11826      544D4553 
 11826      53414745 
 11826      50545200 
 11827              	.LASF431:
 11828 1916 7064656C 		.ascii	"pdelimiter\000"
 11828      696D6974 
 11828      657200
 11829              	.LASF100:
 11830 1921 5F686F73 		.ascii	"_hosesposition1\000"
 11830      6573706F 
 11830      73697469 
 11830      6F6E3100 
 11831              	.LASF65:
 11832 1931 5F686F73 		.ascii	"_hoseactivestate\000"
 11832      65616374 
 11832      69766573 
 11832      74617465 
 11832      00
 11833              	.LASF102:
 11834 1942 5F686F73 		.ascii	"_hosesposition3\000"
ARM GAS  C:\Users\Lenovo\AppData\Local\Temp\ccKs44LO.s 			page 253


 11834      6573706F 
 11834      73697469 
 11834      6F6E3300 
 11835              	.LASF103:
 11836 1952 5F686F73 		.ascii	"_hosesposition4\000"
 11836      6573706F 
 11836      73697469 
 11836      6F6E3400 
 11837              	.LASF245:
 11838 1962 44495350 		.ascii	"DISPLAY_NUEVO_PASSWORD\000"
 11838      4C41595F 
 11838      4E554556 
 11838      4F5F5041 
 11838      5353574F 
 11839              	.LASF343:
 11840 1979 5F696E69 		.ascii	"_initializer\000"
 11840      7469616C 
 11840      697A6572 
 11840      00
 11841              	.LASF109:
 11842 1986 5F6D696E 		.ascii	"_minvolumevalue\000"
 11842      766F6C75 
 11842      6D657661 
 11842      6C756500 
 11843              	.LASF394:
 11844 1996 45455052 		.ascii	"EEPROM_DISPENSER_PUMP11_TRANSACTION_PAGE\000"
 11844      4F4D5F44 
 11844      49535045 
 11844      4E534552 
 11844      5F50554D 
 11845              	.LASF250:
 11846 19bf 44495350 		.ascii	"DISPLAY_ESPERANDO_ID\000"
 11846      4C41595F 
 11846      45535045 
 11846      52414E44 
 11846      4F5F4944 
 11847              	.LASF387:
 11848 19d4 45455052 		.ascii	"EEPROM_DISPENSER_PUMP2_PPU_INFO_PAGE\000"
 11848      4F4D5F44 
 11848      49535045 
 11848      4E534552 
 11848      5F50554D 
 11849              	.LASF96:
 11850 19f9 50756D70 		.ascii	"Pump\000"
 11850      00
 11851              	.LASF231:
 11852 19fe 44495350 		.ascii	"DISPLAY_FORMA_PAGO_DESEADA\000"
 11852      4C41595F 
 11852      464F524D 
 11852      415F5041 
 11852      474F5F44 
 11853              	.LASF291:
 11854 1a19 44495350 		.ascii	"DISPLAY_OPEN_WORK_SHIFT\000"
 11854      4C41595F 
 11854      4F50454E 
 11854      5F574F52 
 11854      4B5F5348 
ARM GAS  C:\Users\Lenovo\AppData\Local\Temp\ccKs44LO.s 			page 254


 11855              	.LASF7:
 11856 1a31 6C6F6E67 		.ascii	"long long unsigned int\000"
 11856      206C6F6E 
 11856      6720756E 
 11856      7369676E 
 11856      65642069 
 11857              	.LASF340:
 11858 1a48 5F696E70 		.ascii	"_inputhandler\000"
 11858      75746861 
 11858      6E646C65 
 11858      7200
 11859              	.LASF132:
 11860 1a56 50757441 		.ascii	"PutArray\000"
 11860      72726179 
 11860      00
 11861              	.LASF464:
 11862 1a5f 6D61736B 		.ascii	"maskedinput\000"
 11862      6564696E 
 11862      70757400 
 11863              	.LASF79:
 11864 1a6b 5F706375 		.ascii	"_pcurrtransaction\000"
 11864      72727472 
 11864      616E7361 
 11864      6374696F 
 11864      6E00
 11865              	.LASF218:
 11866 1a7d 44495350 		.ascii	"DISPLAY2_ANIMATE_HOME\000"
 11866      4C415932 
 11866      5F414E49 
 11866      4D415445 
 11866      5F484F4D 
 11867              	.LASF441:
 11868 1a93 53617665 		.ascii	"SaveNewPassword\000"
 11868      4E657750 
 11868      61737377 
 11868      6F726400 
 11869              	.LASF98:
 11870 1aa3 5F637572 		.ascii	"_currentloopopen\000"
 11870      72656E74 
 11870      6C6F6F70 
 11870      6F70656E 
 11870      00
 11871              	.LASF28:
 11872 1ab4 50554D50 		.ascii	"PUMP_PEOT\000"
 11872      5F50454F 
 11872      5400
 11873              	.LASF184:
 11874 1abe 53494E4B 		.ascii	"SINK_UPDATE_COUNTERS\000"
 11874      5F555044 
 11874      4154455F 
 11874      434F554E 
 11874      54455253 
 11875              	.LASF120:
 11876 1ad3 52656164 		.ascii	"ReadControlRegister\000"
 11876      436F6E74 
 11876      726F6C52 
 11876      65676973 
ARM GAS  C:\Users\Lenovo\AppData\Local\Temp\ccKs44LO.s 			page 255


 11876      74657200 
 11877              	.LASF342:
 11878 1ae7 5F696E70 		.ascii	"_inputboxinfo\000"
 11878      7574626F 
 11878      78696E66 
 11878      6F00
 11879              	.LASF367:
 11880 1af5 44697370 		.ascii	"DisplayLayout\000"
 11880      6C61794C 
 11880      61796F75 
 11880      7400
 11881              	.LASF285:
 11882 1b03 44495350 		.ascii	"DISPLAY_NO_STATE\000"
 11882      4C41595F 
 11882      4E4F5F53 
 11882      54415445 
 11882      00
 11883              	.LASF442:
 11884 1b14 44697370 		.ascii	"DisplayNumericInputHandler\000"
 11884      6C61794E 
 11884      756D6572 
 11884      6963496E 
 11884      70757448 
 11885              	.LASF193:
 11886 1b2f 44495350 		.ascii	"DISPENSER_LOAD_EEPROM_SETTINGS\000"
 11886      454E5345 
 11886      525F4C4F 
 11886      41445F45 
 11886      4550524F 
 11887              	.LASF56:
 11888 1b4e 5F707265 		.ascii	"_presetamount\000"
 11888      73657461 
 11888      6D6F756E 
 11888      7400
 11889              	.LASF116:
 11890 1b5c 5F696465 		.ascii	"_identifier\000"
 11890      6E746966 
 11890      69657200 
 11891              	.LASF480:
 11892 1b68 5F675F70 		.ascii	"_g_printerlayout\000"
 11892      72696E74 
 11892      65726C61 
 11892      796F7574 
 11892      00
 11893              	.LASF347:
 11894 1b79 5F78706F 		.ascii	"_xpos\000"
 11894      7300
 11895              	.LASF316:
 11896 1b7f 46505452 		.ascii	"FPTRINITIALIZER\000"
 11896      494E4954 
 11896      49414C49 
 11896      5A455200 
 11897              	.LASF467:
 11898 1b8f 44697370 		.ascii	"DisplayProductSelectionInputHandler\000"
 11898      6C617950 
 11898      726F6475 
 11898      63745365 
ARM GAS  C:\Users\Lenovo\AppData\Local\Temp\ccKs44LO.s 			page 256


 11898      6C656374 
 11899              	.LASF70:
 11900 1bb3 5F707265 		.ascii	"_presetdone\000"
 11900      73657464 
 11900      6F6E6500 
 11901              	.LASF125:
 11902 1bbf 47657442 		.ascii	"GetByte\000"
 11902      79746500 
 11903              	.LASF182:
 11904 1bc7 55415254 		.ascii	"UART_RF_TEST\000"
 11904      5F52465F 
 11904      54455354 
 11904      00
 11905              	.LASF66:
 11906 1bd4 5F616371 		.ascii	"_acquiringstate\000"
 11906      75697269 
 11906      6E677374 
 11906      61746500 
 11907              	.LASF238:
 11908 1be4 44495350 		.ascii	"DISPLAY_DESPACHANDO\000"
 11908      4C41595F 
 11908      44455350 
 11908      41434841 
 11908      4E444F00 
 11909              	.LASF31:
 11910 1bf8 50554D50 		.ascii	"PUMP_SEND_DATA\000"
 11910      5F53454E 
 11910      445F4441 
 11910      544100
 11911              	.LASF39:
 11912 1c07 5F766172 		.ascii	"_var0\000"
 11912      3000
 11913              	.LASF40:
 11914 1c0d 5F766172 		.ascii	"_var1\000"
 11914      3100
 11915              	.LASF41:
 11916 1c13 5F766172 		.ascii	"_var2\000"
 11916      3200
 11917              	.LASF42:
 11918 1c19 5F766172 		.ascii	"_var3\000"
 11918      3300
 11919              	.LASF43:
 11920 1c1f 5F766172 		.ascii	"_var4\000"
 11920      3400
 11921              	.LASF44:
 11922 1c25 5F766172 		.ascii	"_var5\000"
 11922      3500
 11923              	.LASF45:
 11924 1c2b 5F766172 		.ascii	"_var6\000"
 11924      3600
 11925              	.LASF46:
 11926 1c31 5F766172 		.ascii	"_var7\000"
 11926      3700
 11927              	.LASF47:
 11928 1c37 5F766172 		.ascii	"_var8\000"
 11928      3800
 11929              	.LASF48:
ARM GAS  C:\Users\Lenovo\AppData\Local\Temp\ccKs44LO.s 			page 257


 11930 1c3d 5F766172 		.ascii	"_var9\000"
 11930      3900
 11931              	.LASF411:
 11932 1c43 79706F73 		.ascii	"ypos\000"
 11932      00
 11933              	.LASF49:
 11934 1c48 5F766172 		.ascii	"_varA\000"
 11934      4100
 11935              	.LASF50:
 11936 1c4e 5F766172 		.ascii	"_varB\000"
 11936      4200
 11937              	.LASF459:
 11938 1c54 7076616C 		.ascii	"pvalues\000"
 11938      75657300 
 11939              	.LASF253:
 11940 1c5c 44495350 		.ascii	"DISPLAY_INTRODUZCA_VOLUMEN\000"
 11940      4C41595F 
 11940      494E5452 
 11940      4F44555A 
 11940      43415F56 
 11941              	.LASF160:
 11942 1c77 414C4C49 		.ascii	"ALLINTERESTED\000"
 11942      4E544552 
 11942      45535445 
 11942      4400
 11943              	.LASF271:
 11944 1c85 44495350 		.ascii	"DISPLAY_CANCELADO_X_PC\000"
 11944      4C41595F 
 11944      43414E43 
 11944      454C4144 
 11944      4F5F585F 
 11945              	.LASF62:
 11946 1c9c 5F70756D 		.ascii	"_pumpindex\000"
 11946      70696E64 
 11946      657800
 11947              	.LASF264:
 11948 1ca7 44495350 		.ascii	"DISPLAY_AUTORIZACION_RECHAZADA\000"
 11948      4C41595F 
 11948      4155544F 
 11948      52495A41 
 11948      43494F4E 
 11949              	.LASF71:
 11950 1cc6 5F70756D 		.ascii	"_pumplocked\000"
 11950      706C6F63 
 11950      6B656400 
 11951              	.LASF171:
 11952 1cd2 5F6D6573 		.ascii	"_messageid\000"
 11952      73616765 
 11952      696400
 11953              	.LASF139:
 11954 1cdd 414C4C4F 		.ascii	"ALLOCATED\000"
 11954      43415445 
 11954      4400
 11955              	.LASF11:
 11956 1ce7 75696E74 		.ascii	"uint8\000"
 11956      3800
 11957              	.LASF215:
ARM GAS  C:\Users\Lenovo\AppData\Local\Temp\ccKs44LO.s 			page 258


 11958 1ced 44495350 		.ascii	"DISPLAY2_RECEPTION\000"
 11958      4C415932 
 11958      5F524543 
 11958      45505449 
 11958      4F4E00
 11959              	.LASF338:
 11960 1d00 5F737461 		.ascii	"_statenodes\000"
 11960      74656E6F 
 11960      64657300 
 11961              	.LASF178:
 11962 1d0c 43616C6C 		.ascii	"Callback\000"
 11962      6261636B 
 11962      00
 11963              	.LASF290:
 11964 1d15 44495350 		.ascii	"DISPLAY_LESS_THAN_FOUR_POSITIONS\000"
 11964      4C41595F 
 11964      4C455353 
 11964      5F544841 
 11964      4E5F464F 
 11965              	.LASF308:
 11966 1d36 4465636F 		.ascii	"Decorator\000"
 11966      7261746F 
 11966      7200
 11967              	.LASF438:
 11968 1d40 50726570 		.ascii	"PrepareDisplayStructure\000"
 11968      61726544 
 11968      6973706C 
 11968      61795374 
 11968      72756374 
 11969              	.LASF304:
 11970 1d58 5F6F7061 		.ascii	"_opaquebackground\000"
 11970      71756562 
 11970      61636B67 
 11970      726F756E 
 11970      6400
 11971              	.LASF2:
 11972 1d6a 73686F72 		.ascii	"short int\000"
 11972      7420696E 
 11972      7400
 11973              	.LASF277:
 11974 1d74 44495350 		.ascii	"DISPLAY_PRECIO_POR_UNIDAD\000"
 11974      4C41595F 
 11974      50524543 
 11974      494F5F50 
 11974      4F525F55 
 11975              	.LASF85:
 11976 1d8e 50756D70 		.ascii	"PumpTransQueueLock\000"
 11976      5472616E 
 11976      73517565 
 11976      75654C6F 
 11976      636B00
 11977              	.LASF283:
 11978 1da1 44495350 		.ascii	"DISPLAY_NULL\000"
 11978      4C41595F 
 11978      4E554C4C 
 11978      00
 11979              	.LASF90:
ARM GAS  C:\Users\Lenovo\AppData\Local\Temp\ccKs44LO.s 			page 259


 11980 1dae 50756D70 		.ascii	"PumpTransQueueAllocate\000"
 11980      5472616E 
 11980      73517565 
 11980      7565416C 
 11980      6C6F6361 
 11981              	.LASF198:
 11982 1dc5 44495350 		.ascii	"DISPENSER_CONFIGURE_SINGLE_PRICE\000"
 11982      454E5345 
 11982      525F434F 
 11982      4E464947 
 11982      5552455F 
 11983              	.LASF211:
 11984 1de6 44495350 		.ascii	"DISPLAY1_RECEPTION\000"
 11984      4C415931 
 11984      5F524543 
 11984      45505449 
 11984      4F4E00
 11985              	.LASF88:
 11986 1df9 50756D70 		.ascii	"PumpTransQueueEnqueue\000"
 11986      5472616E 
 11986      73517565 
 11986      7565456E 
 11986      71756575 
 11987              	.LASF226:
 11988 1e0f 5072696E 		.ascii	"PrinterLayout\000"
 11988      7465724C 
 11988      61796F75 
 11988      7400
 11989              	.LASF194:
 11990 1e1d 44495350 		.ascii	"DISPENSER_ENUMERATE_VISIBLE_PUMPS\000"
 11990      454E5345 
 11990      525F454E 
 11990      554D4552 
 11990      4154455F 
 11991              	.LASF122:
 11992 1e3f 52656164 		.ascii	"ReadRxData\000"
 11992      52784461 
 11992      746100
 11993              	.LASF176:
 11994 1e4a 5F6D6573 		.ascii	"_messagetimeoutlimit\000"
 11994      73616765 
 11994      74696D65 
 11994      6F75746C 
 11994      696D6974 
 11995              	.LASF149:
 11996 1e5f 5F554152 		.ascii	"_UART_MANAGERS_AVAILABLE_\000"
 11996      545F4D41 
 11996      4E414745 
 11996      52535F41 
 11996      5641494C 
 11997              	.LASF486:
 11998 1e79 474E5520 		.ascii	"GNU C 4.9.3 20150303 (release) [ARM/embedded-4_9-br"
 11998      4320342E 
 11998      392E3320 
 11998      32303135 
 11998      30333033 
 11999 1eac 616E6368 		.ascii	"anch revision 221220] -mcpu=cortex-m3 -mthumb -g -O"
ARM GAS  C:\Users\Lenovo\AppData\Local\Temp\ccKs44LO.s 			page 260


 11999      20726576 
 11999      6973696F 
 11999      6E203232 
 11999      31323230 
 12000 1edf 30202D66 		.ascii	"0 -ffunction-sections -ffat-lto-objects\000"
 12000      66756E63 
 12000      74696F6E 
 12000      2D736563 
 12000      74696F6E 
 12001              	.LASF445:
 12002 1f07 70747270 		.ascii	"ptrpos\000"
 12002      6F7300
 12003              	.LASF252:
 12004 1f0e 44495350 		.ascii	"DISPLAY_INTRODUZCA_CEDULA\000"
 12004      4C41595F 
 12004      494E5452 
 12004      4F44555A 
 12004      43415F43 
 12005              	.LASF288:
 12006 1f28 44495350 		.ascii	"DISPLAY_IBUTTON_READ_ACCEPTED\000"
 12006      4C41595F 
 12006      49425554 
 12006      544F4E5F 
 12006      52454144 
 12007              	.LASF172:
 12008 1f46 5F6D6573 		.ascii	"_messagetype\000"
 12008      73616765 
 12008      74797065 
 12008      00
 12009              	.LASF471:
 12010 1f53 53657175 		.ascii	"SequesterMessageSink\000"
 12010      65737465 
 12010      724D6573 
 12010      73616765 
 12010      53696E6B 
 12011              	.LASF162:
 12012 1f68 46495253 		.ascii	"FIRSTFOUNDFOREVER\000"
 12012      54464F55 
 12012      4E44464F 
 12012      52455645 
 12012      5200
 12013              	.LASF24:
 12014 1f7a 50554D50 		.ascii	"PUMP_IDLE\000"
 12014      5F49444C 
 12014      4500
 12015              	.LASF320:
 12016 1f84 44697370 		.ascii	"DisplayCharacterMap\000"
 12016      6C617943 
 12016      68617261 
 12016      63746572 
 12016      4D617000 
 12017              	.LASF64:
 12018 1f98 5F637572 		.ascii	"_currenthose\000"
 12018      72656E74 
 12018      686F7365 
 12018      00
 12019              	.LASF465:
ARM GAS  C:\Users\Lenovo\AppData\Local\Temp\ccKs44LO.s 			page 261


 12020 1fa5 47657444 		.ascii	"GetDisplayFromPumpID\000"
 12020      6973706C 
 12020      61794672 
 12020      6F6D5075 
 12020      6D704944 
 12021              	.LASF418:
 12022 1fba 70756E6B 		.ascii	"punk\000"
 12022      00
 12023              	.LASF388:
 12024 1fbf 45455052 		.ascii	"EEPROM_DISPENSER_PUMP3_PPU_INFO_PAGE\000"
 12024      4F4D5F44 
 12024      49535045 
 12024      4E534552 
 12024      5F50554D 
 12025              	.LASF345:
 12026 1fe4 44697370 		.ascii	"DisplayFlow\000"
 12026      6C617946 
 12026      6C6F7700 
 12027              	.LASF92:
 12028 1ff0 50756D70 		.ascii	"PumpValidState\000"
 12028      56616C69 
 12028      64537461 
 12028      746500
 12029              	.LASF94:
 12030 1fff 5F617574 		.ascii	"_authorizationinfo\000"
 12030      686F7269 
 12030      7A617469 
 12030      6F6E696E 
 12030      666F00
 12031              	.LASF268:
 12032 2012 44495350 		.ascii	"DISPLAY_OPCION_TURNO\000"
 12032      4C41595F 
 12032      4F504349 
 12032      4F4E5F54 
 12032      55524E4F 
 12033              	.LASF54:
 12034 2027 5F686F73 		.ascii	"_hoseid\000"
 12034      65696400 
 12035              	.LASF142:
 12036 202f 5F6D6573 		.ascii	"_messagestate\000"
 12036      73616765 
 12036      73746174 
 12036      6500
 12037              	.LASF428:
 12038 203d 44697370 		.ascii	"DisplayFlowDecorator\000"
 12038      6C617946 
 12038      6C6F7744 
 12038      65636F72 
 12038      61746F72 
 12039              	.LASF469:
 12040 2052 70646973 		.ascii	"pdispcharmap\000"
 12040      70636861 
 12040      726D6170 
 12040      00
 12041              	.LASF145:
 12042 205f 4572726F 		.ascii	"ErrorHandler\000"
 12042      7248616E 
ARM GAS  C:\Users\Lenovo\AppData\Local\Temp\ccKs44LO.s 			page 262


 12042      646C6572 
 12042      00
 12043              	.LASF53:
 12044 206c 5F707265 		.ascii	"_presettype\000"
 12044      73657474 
 12044      79706500 
 12045              	.LASF453:
 12046 2078 72656676 		.ascii	"refvalue\000"
 12046      616C7565 
 12046      00
 12047              	.LASF380:
 12048 2081 45455052 		.ascii	"EEPROM_DISPENSER_PUMP3_LAYOUT_PAGE\000"
 12048      4F4D5F44 
 12048      49535045 
 12048      4E534552 
 12048      5F50554D 
 12049              	.LASF113:
 12050 20a4 44697370 		.ascii	"DispenserLayoutInfo\000"
 12050      656E7365 
 12050      724C6179 
 12050      6F757449 
 12050      6E666F00 
 12051              	.LASF156:
 12052 20b8 5F4D4553 		.ascii	"_MESSAGE_TYPE_\000"
 12052      53414745 
 12052      5F545950 
 12052      455F00
 12053              	.LASF158:
 12054 20c7 42524F41 		.ascii	"BROADCAST\000"
 12054      44434153 
 12054      5400
 12055              	.LASF197:
 12056 20d1 44495350 		.ascii	"DISPENSER_RESTORE_PRICES\000"
 12056      454E5345 
 12056      525F5245 
 12056      53544F52 
 12056      455F5052 
 12057              	.LASF415:
 12058 20ea 666F6E74 		.ascii	"fontdata\000"
 12058      64617461 
 12058      00
 12059              	.LASF333:
 12060 20f3 5F726573 		.ascii	"_responsetimeoutlimit\000"
 12060      706F6E73 
 12060      6574696D 
 12060      656F7574 
 12060      6C696D69 
 12061              	.LASF75:
 12062 2109 5F707269 		.ascii	"_print\000"
 12062      6E7400
 12063              	.LASF309:
 12064 2110 496E7075 		.ascii	"InputValidator\000"
 12064      7456616C 
 12064      69646174 
 12064      6F7200
 12065              	.LASF3:
 12066 211f 73686F72 		.ascii	"short unsigned int\000"
ARM GAS  C:\Users\Lenovo\AppData\Local\Temp\ccKs44LO.s 			page 263


 12066      7420756E 
 12066      7369676E 
 12066      65642069 
 12066      6E7400
 12067              	.LASF305:
 12068 2132 5F626163 		.ascii	"_backcolor\000"
 12068      6B636F6C 
 12068      6F7200
 12069              	.LASF417:
 12070 213d 70667261 		.ascii	"pframedelimiters\000"
 12070      6D656465 
 12070      6C696D69 
 12070      74657273 
 12070      00
 12071              	.LASF87:
 12072 214e 50756D70 		.ascii	"PumpTransQueueFind\000"
 12072      5472616E 
 12072      73517565 
 12072      75654669 
 12072      6E6400
 12073              	.LASF474:
 12074 2161 706E6577 		.ascii	"pnewsinkmsg\000"
 12074      73696E6B 
 12074      6D736700 
 12075              	.LASF205:
 12076 216d 5052494E 		.ascii	"PRINTER22_JOB\000"
 12076      54455232 
 12076      325F4A4F 
 12076      4200
 12077              	.LASF433:
 12078 217b 47657444 		.ascii	"GetDisplayFlowNode\000"
 12078      6973706C 
 12078      6179466C 
 12078      6F774E6F 
 12078      646500
 12079              	.LASF157:
 12080 218e 4E4F4E45 		.ascii	"NONE\000"
 12080      00
 12081              	.LASF136:
 12082 2193 5F50554D 		.ascii	"_PUMP_STATES_\000"
 12082      505F5354 
 12082      41544553 
 12082      5F00
 12083              	.LASF9:
 12084 21a1 5F5F696E 		.ascii	"__int32_t\000"
 12084      7433325F 
 12084      7400
 12085              	.LASF324:
 12086 21ab 44697370 		.ascii	"DisplayScreenBufferMap\000"
 12086      6C617953 
 12086      63726565 
 12086      6E427566 
 12086      6665724D 
 12087              	.LASF384:
 12088 21c2 45455052 		.ascii	"EEPROM_DISPENSER_PUMP3_PRODUCT_NAMES_PAGE\000"
 12088      4F4D5F44 
 12088      49535045 
ARM GAS  C:\Users\Lenovo\AppData\Local\Temp\ccKs44LO.s 			page 264


 12088      4E534552 
 12088      5F50554D 
 12089              	.LASF37:
 12090 21ec 50756D70 		.ascii	"PumpTransactionalState\000"
 12090      5472616E 
 12090      73616374 
 12090      696F6E61 
 12090      6C537461 
 12091              	.LASF365:
 12092 2203 5F707365 		.ascii	"_psequesteredmessagesink\000"
 12092      71756573 
 12092      74657265 
 12092      646D6573 
 12092      73616765 
 12093              	.LASF93:
 12094 221c 5F646174 		.ascii	"_datacontainer\000"
 12094      61636F6E 
 12094      7461696E 
 12094      657200
 12095              	.LASF30:
 12096 222b 50554D50 		.ascii	"PUMP_STOPPED\000"
 12096      5F53544F 
 12096      50504544 
 12096      00
 12097              	.LASF165:
 12098 2238 5F4D4553 		.ascii	"_MESSAGE_STATE_\000"
 12098      53414745 
 12098      5F535441 
 12098      54455F00 
 12099              	.LASF166:
 12100 2248 53494E4B 		.ascii	"SINK_FREE\000"
 12100      5F465245 
 12100      4500
 12101              	.LASF114:
 12102 2252 5F50554D 		.ascii	"_PUMP_LAYOUT_\000"
 12102      505F4C41 
 12102      594F5554 
 12102      5F00
 12103              	.LASF296:
 12104 2260 44495350 		.ascii	"DISPLAY_INVALID_PASSWORD\000"
 12104      4C41595F 
 12104      494E5641 
 12104      4C49445F 
 12104      50415353 
 12105              	.LASF220:
 12106 2279 49425554 		.ascii	"IBUTTON2_SCAN\000"
 12106      544F4E32 
 12106      5F534341 
 12106      4E00
 12107              	.LASF319:
 12108 2287 5F6D6170 		.ascii	"_mappedto\000"
 12108      70656474 
 12108      6F00
 12109              	.LASF110:
 12110 2291 5F646973 		.ascii	"_displaydigitsmode\000"
 12110      706C6179 
 12110      64696769 
ARM GAS  C:\Users\Lenovo\AppData\Local\Temp\ccKs44LO.s 			page 265


 12110      74736D6F 
 12110      646500
 12111              	.LASF12:
 12112 22a4 75696E74 		.ascii	"uint16\000"
 12112      313600
 12113              	.LASF86:
 12114 22ab 50756D70 		.ascii	"PumpTransQueueUnlock\000"
 12114      5472616E 
 12114      73517565 
 12114      7565556E 
 12114      6C6F636B 
 12115              	.LASF146:
 12116 22c0 5F707561 		.ascii	"_puartmanager\000"
 12116      72746D61 
 12116      6E616765 
 12116      7200
 12117              	.LASF457:
 12118 22ce 56616C69 		.ascii	"ValidatePumpAvailability21Positions\000"
 12118      64617465 
 12118      50756D70 
 12118      41766169 
 12118      6C616269 
 12119              	.LASF209:
 12120 22f2 5052494E 		.ascii	"PRINTER2_GENERIC_JOB_LOGO\000"
 12120      54455232 
 12120      5F47454E 
 12120      45524943 
 12120      5F4A4F42 
 12121              	.LASF36:
 12122 230c 5F627566 		.ascii	"_buffersize\000"
 12122      66657273 
 12122      697A6500 
 12123              	.LASF399:
 12124 2318 45455052 		.ascii	"EEPROM_DISPENSER_PUMP22_TRANSACTION_PAGE\000"
 12124      4F4D5F44 
 12124      49535045 
 12124      4E534552 
 12124      5F50554D 
 12125              	.LASF27:
 12126 2341 50554D50 		.ascii	"PUMP_BUSY\000"
 12126      5F425553 
 12126      5900
 12127              		.ident	"GCC: (GNU Tools for ARM Embedded Processors) 4.9.3 20150303 (release) [ARM/embedded-4_9-br
