ARM GAS  C:\Users\RECEPC~1\AppData\Local\Temp\cc76QunF.s 			page 1


   1              		.syntax unified
   2              		.cpu cortex-m3
   3              		.fpu softvfp
   4              		.eabi_attribute 20, 1
   5              		.eabi_attribute 21, 1
   6              		.eabi_attribute 23, 3
   7              		.eabi_attribute 24, 1
   8              		.eabi_attribute 25, 1
   9              		.eabi_attribute 26, 1
  10              		.eabi_attribute 30, 6
  11              		.eabi_attribute 34, 1
  12              		.eabi_attribute 18, 4
  13              		.thumb
  14              		.file	"DisplayResolver.c"
  15              		.text
  16              	.Ltext0:
  17              		.cfi_sections	.debug_frame
  18              		.section	.rodata
  19              		.align	2
  20              	.LC0:
  21 0000 AA       		.byte	-86
  22 0001 CC       		.byte	-52
  23 0002 33       		.byte	51
  24 0003 C3       		.byte	-61
  25 0004 3C       		.byte	60
  26 0005 000000   		.section	.text.Display1BufferResolver,"ax",%progbits
  27              		.align	2
  28              		.global	Display1BufferResolver
  29              		.thumb
  30              		.thumb_func
  31              		.type	Display1BufferResolver, %function
  32              	Display1BufferResolver:
  33              	.LFB63:
  34              		.file 1 ".\\DisplayResolver.c"
   1:.\DisplayResolver.c **** /* ========================================
   2:.\DisplayResolver.c ****  *
   3:.\DisplayResolver.c ****  * Copyright YOUR COMPANY, THE YEAR
   4:.\DisplayResolver.c ****  * All Rights Reserved
   5:.\DisplayResolver.c ****  * UNPUBLISHED, LICENSED SOFTWARE.
   6:.\DisplayResolver.c ****  *
   7:.\DisplayResolver.c ****  * CONFIDENTIAL AND PROPRIETARY INFORMATION
   8:.\DisplayResolver.c ****  * WHICH IS THE PROPERTY OF your company.
   9:.\DisplayResolver.c ****  *
  10:.\DisplayResolver.c ****  * ========================================
  11:.\DisplayResolver.c **** */
  12:.\DisplayResolver.c **** #include <project.h>
  13:.\DisplayResolver.c **** #include "GlobalDefinitions.h"
  14:.\DisplayResolver.c **** #include "SinkManager.h"
  15:.\DisplayResolver.c **** #include "SinkObservables.h"
  16:.\DisplayResolver.c **** #include "UARTManager.h"
  17:.\DisplayResolver.c **** #include "Display.h"
  18:.\DisplayResolver.c **** 
  19:.\DisplayResolver.c **** //@Created By: HIJH
  20:.\DisplayResolver.c **** //@Septembre de 2016
  21:.\DisplayResolver.c **** bool Display1BufferResolver(char8* pbuffer, uint16 buffersize)
  22:.\DisplayResolver.c **** {
  35              		.loc 1 22 0
ARM GAS  C:\Users\RECEPC~1\AppData\Local\Temp\cc76QunF.s 			page 2


  36              		.cfi_startproc
  37              		@ args = 0, pretend = 0, frame = 24
  38              		@ frame_needed = 1, uses_anonymous_args = 0
  39 0000 80B5     		push	{r7, lr}
  40              		.cfi_def_cfa_offset 8
  41              		.cfi_offset 7, -8
  42              		.cfi_offset 14, -4
  43 0002 86B0     		sub	sp, sp, #24
  44              		.cfi_def_cfa_offset 32
  45 0004 00AF     		add	r7, sp, #0
  46              		.cfi_def_cfa_register 7
  47 0006 7860     		str	r0, [r7, #4]
  48 0008 0B46     		mov	r3, r1
  49 000a 7B80     		strh	r3, [r7, #2]	@ movhi
  23:.\DisplayResolver.c ****     //Display frame delimiters
  24:.\DisplayResolver.c ****     char8 pdelimiter[] = { 0xAA, 0xCC, 0x33, 0xC3, 0x3C };
  50              		.loc 1 24 0
  51 000c 374A     		ldr	r2, .L8
  52 000e 07F10803 		add	r3, r7, #8
  53 0012 1068     		ldr	r0, [r2]	@ unaligned
  54 0014 1860     		str	r0, [r3]	@ unaligned
  55 0016 1279     		ldrb	r2, [r2, #4]
  56 0018 1A71     		strb	r2, [r3, #4]
  25:.\DisplayResolver.c ****     uint16 delimitersize = sizeof(pdelimiter);
  57              		.loc 1 25 0
  58 001a 0523     		movs	r3, #5
  59 001c FB82     		strh	r3, [r7, #22]	@ movhi
  26:.\DisplayResolver.c ****     /////////////////////////////////////////////////////////////////////////////////////////
  27:.\DisplayResolver.c ****     //TODO: PLACE HERE ALL THE NECESSARY CODE TO RESOLVE THE COMPLETENESS OF THE ARRIVED DATA
  28:.\DisplayResolver.c ****     /////////////////////////////////////////////////////////////////////////////////////////
  29:.\DisplayResolver.c ****     if(pbuffer[0] != pdelimiter[0] && buffersize >= 0x08) 
  60              		.loc 1 29 0
  61 001e 7B68     		ldr	r3, [r7, #4]
  62 0020 1A78     		ldrb	r2, [r3]	@ zero_extendqisi2
  63 0022 3B7A     		ldrb	r3, [r7, #8]	@ zero_extendqisi2
  64 0024 9A42     		cmp	r2, r3
  65 0026 04D0     		beq	.L2
  66              		.loc 1 29 0 is_stmt 0 discriminator 1
  67 0028 7B88     		ldrh	r3, [r7, #2]
  68 002a 072B     		cmp	r3, #7
  69 002c 01D9     		bls	.L2
  30:.\DisplayResolver.c ****         return true;
  70              		.loc 1 30 0 is_stmt 1
  71 002e 0123     		movs	r3, #1
  72 0030 57E0     		b	.L7
  73              	.L2:
  31:.\DisplayResolver.c ****     
  32:.\DisplayResolver.c ****     if(
  33:.\DisplayResolver.c ****     (pbuffer[buffersize - 1] != pdelimiter[delimitersize - 1]) || 
  74              		.loc 1 33 0
  75 0032 7B88     		ldrh	r3, [r7, #2]
  76 0034 013B     		subs	r3, r3, #1
  77 0036 7A68     		ldr	r2, [r7, #4]
  78 0038 1344     		add	r3, r3, r2
  79 003a 1A78     		ldrb	r2, [r3]	@ zero_extendqisi2
  80 003c FB8A     		ldrh	r3, [r7, #22]
  81 003e 013B     		subs	r3, r3, #1
ARM GAS  C:\Users\RECEPC~1\AppData\Local\Temp\cc76QunF.s 			page 3


  82 0040 07F11801 		add	r1, r7, #24
  83 0044 0B44     		add	r3, r3, r1
  84 0046 13F8103C 		ldrb	r3, [r3, #-16]	@ zero_extendqisi2
  32:.\DisplayResolver.c ****     (pbuffer[buffersize - 1] != pdelimiter[delimitersize - 1]) || 
  85              		.loc 1 32 0
  86 004a 9A42     		cmp	r2, r3
  87 004c 29D1     		bne	.L4
  34:.\DisplayResolver.c ****     (pbuffer[buffersize - 2] != pdelimiter[delimitersize - 2]) ||
  88              		.loc 1 34 0
  89 004e 7B88     		ldrh	r3, [r7, #2]
  90 0050 023B     		subs	r3, r3, #2
  91 0052 7A68     		ldr	r2, [r7, #4]
  92 0054 1344     		add	r3, r3, r2
  93 0056 1A78     		ldrb	r2, [r3]	@ zero_extendqisi2
  94 0058 FB8A     		ldrh	r3, [r7, #22]
  95 005a 023B     		subs	r3, r3, #2
  96 005c 07F11801 		add	r1, r7, #24
  97 0060 0B44     		add	r3, r3, r1
  98 0062 13F8103C 		ldrb	r3, [r3, #-16]	@ zero_extendqisi2
  33:.\DisplayResolver.c ****     (pbuffer[buffersize - 2] != pdelimiter[delimitersize - 2]) ||
  99              		.loc 1 33 0
 100 0066 9A42     		cmp	r2, r3
 101 0068 1BD1     		bne	.L4
  35:.\DisplayResolver.c ****     (pbuffer[buffersize - 3] != pdelimiter[delimitersize - 3]) || 
 102              		.loc 1 35 0
 103 006a 7B88     		ldrh	r3, [r7, #2]
 104 006c 033B     		subs	r3, r3, #3
 105 006e 7A68     		ldr	r2, [r7, #4]
 106 0070 1344     		add	r3, r3, r2
 107 0072 1A78     		ldrb	r2, [r3]	@ zero_extendqisi2
 108 0074 FB8A     		ldrh	r3, [r7, #22]
 109 0076 033B     		subs	r3, r3, #3
 110 0078 07F11801 		add	r1, r7, #24
 111 007c 0B44     		add	r3, r3, r1
 112 007e 13F8103C 		ldrb	r3, [r3, #-16]	@ zero_extendqisi2
  34:.\DisplayResolver.c ****     (pbuffer[buffersize - 2] != pdelimiter[delimitersize - 2]) ||
 113              		.loc 1 34 0
 114 0082 9A42     		cmp	r2, r3
 115 0084 0DD1     		bne	.L4
  36:.\DisplayResolver.c ****     (pbuffer[buffersize - 4] != pdelimiter[delimitersize - 4]))
 116              		.loc 1 36 0
 117 0086 7B88     		ldrh	r3, [r7, #2]
 118 0088 043B     		subs	r3, r3, #4
 119 008a 7A68     		ldr	r2, [r7, #4]
 120 008c 1344     		add	r3, r3, r2
 121 008e 1A78     		ldrb	r2, [r3]	@ zero_extendqisi2
 122 0090 FB8A     		ldrh	r3, [r7, #22]
 123 0092 043B     		subs	r3, r3, #4
 124 0094 07F11801 		add	r1, r7, #24
 125 0098 0B44     		add	r3, r3, r1
 126 009a 13F8103C 		ldrb	r3, [r3, #-16]	@ zero_extendqisi2
  35:.\DisplayResolver.c ****     (pbuffer[buffersize - 3] != pdelimiter[delimitersize - 3]) || 
 127              		.loc 1 35 0
 128 009e 9A42     		cmp	r2, r3
 129 00a0 01D0     		beq	.L5
 130              	.L4:
  37:.\DisplayResolver.c ****         return false;
ARM GAS  C:\Users\RECEPC~1\AppData\Local\Temp\cc76QunF.s 			page 4


 131              		.loc 1 37 0
 132 00a2 0023     		movs	r3, #0
 133 00a4 1DE0     		b	.L7
 134              	.L5:
  38:.\DisplayResolver.c ****     
  39:.\DisplayResolver.c ****     /////////////////////////////////////////////////////////////////////////////////////////    
  40:.\DisplayResolver.c ****     
  41:.\DisplayResolver.c ****     SinkMessage* sinkmsg = AllocateMessageSlot();
 135              		.loc 1 41 0
 136 00a6 FFF7FEFF 		bl	AllocateMessageSlot
 137 00aa 3861     		str	r0, [r7, #16]
  42:.\DisplayResolver.c ****     if(sinkmsg)
 138              		.loc 1 42 0
 139 00ac 3B69     		ldr	r3, [r7, #16]
 140 00ae 002B     		cmp	r3, #0
 141 00b0 16D0     		beq	.L6
  43:.\DisplayResolver.c ****     {
  44:.\DisplayResolver.c ****         sinkmsg->_messageid = DISPLAY1_RECEPTION;
 142              		.loc 1 44 0
 143 00b2 3B69     		ldr	r3, [r7, #16]
 144 00b4 1F22     		movs	r2, #31
 145 00b6 5A70     		strb	r2, [r3, #1]
  45:.\DisplayResolver.c ****         sinkmsg->_messagetype = FIRSTFOUND;
 146              		.loc 1 45 0
 147 00b8 3B69     		ldr	r3, [r7, #16]
 148 00ba 0322     		movs	r2, #3
 149 00bc 9A70     		strb	r2, [r3, #2]
  46:.\DisplayResolver.c ****         memcpy(sinkmsg->_buffer, (const void*)pbuffer, 0x08);
 150              		.loc 1 46 0
 151 00be 3B69     		ldr	r3, [r7, #16]
 152 00c0 0C33     		adds	r3, r3, #12
 153 00c2 1846     		mov	r0, r3
 154 00c4 7968     		ldr	r1, [r7, #4]
 155 00c6 0822     		movs	r2, #8
 156 00c8 FFF7FEFF 		bl	memcpy
  47:.\DisplayResolver.c ****         sinkmsg->_buffersize = buffersize;
 157              		.loc 1 47 0
 158 00cc 3B69     		ldr	r3, [r7, #16]
 159 00ce 7A88     		ldrh	r2, [r7, #2]	@ movhi
 160 00d0 A3F88C21 		strh	r2, [r3, #396]	@ movhi
  48:.\DisplayResolver.c ****         sinkmsg->_messagestate = SINK_BUSY;
 161              		.loc 1 48 0
 162 00d4 3B69     		ldr	r3, [r7, #16]
 163 00d6 0322     		movs	r2, #3
 164 00d8 DA70     		strb	r2, [r3, #3]
  49:.\DisplayResolver.c ****         
  50:.\DisplayResolver.c ****         Display1_DisableRxInt();
 165              		.loc 1 50 0
 166 00da 054B     		ldr	r3, .L8+4
 167 00dc 0422     		movs	r2, #4
 168 00de 1A60     		str	r2, [r3]
 169              	.L6:
  51:.\DisplayResolver.c ****     }
  52:.\DisplayResolver.c ****     return true;
 170              		.loc 1 52 0
 171 00e0 0123     		movs	r3, #1
 172              	.L7:
ARM GAS  C:\Users\RECEPC~1\AppData\Local\Temp\cc76QunF.s 			page 5


  53:.\DisplayResolver.c **** }
 173              		.loc 1 53 0 discriminator 1
 174 00e2 1846     		mov	r0, r3
 175 00e4 1837     		adds	r7, r7, #24
 176              		.cfi_def_cfa_offset 8
 177 00e6 BD46     		mov	sp, r7
 178              		.cfi_def_cfa_register 13
 179              		@ sp needed
 180 00e8 80BD     		pop	{r7, pc}
 181              	.L9:
 182 00ea 00BF     		.align	2
 183              	.L8:
 184 00ec 00000000 		.word	.LC0
 185 00f0 80E100E0 		.word	-536813184
 186              		.cfi_endproc
 187              	.LFE63:
 188              		.size	Display1BufferResolver, .-Display1BufferResolver
 189              		.section	.text.Display2BufferResolver,"ax",%progbits
 190              		.align	2
 191              		.global	Display2BufferResolver
 192              		.thumb
 193              		.thumb_func
 194              		.type	Display2BufferResolver, %function
 195              	Display2BufferResolver:
 196              	.LFB64:
  54:.\DisplayResolver.c **** 
  55:.\DisplayResolver.c **** //@Created By: HIJH
  56:.\DisplayResolver.c **** //@Septembre de 2016
  57:.\DisplayResolver.c **** bool Display2BufferResolver(char8* pbuffer, uint16 buffersize)
  58:.\DisplayResolver.c **** {    
 197              		.loc 1 58 0
 198              		.cfi_startproc
 199              		@ args = 0, pretend = 0, frame = 24
 200              		@ frame_needed = 1, uses_anonymous_args = 0
 201 0000 80B5     		push	{r7, lr}
 202              		.cfi_def_cfa_offset 8
 203              		.cfi_offset 7, -8
 204              		.cfi_offset 14, -4
 205 0002 86B0     		sub	sp, sp, #24
 206              		.cfi_def_cfa_offset 32
 207 0004 00AF     		add	r7, sp, #0
 208              		.cfi_def_cfa_register 7
 209 0006 7860     		str	r0, [r7, #4]
 210 0008 0B46     		mov	r3, r1
 211 000a 7B80     		strh	r3, [r7, #2]	@ movhi
  59:.\DisplayResolver.c ****     //Display frame delimiters
  60:.\DisplayResolver.c ****     char8 pdelimiter[] = { 0xAA, 0xCC, 0x33, 0xC3, 0x3C };
 212              		.loc 1 60 0
 213 000c 374A     		ldr	r2, .L17
 214 000e 07F10803 		add	r3, r7, #8
 215 0012 1068     		ldr	r0, [r2]	@ unaligned
 216 0014 1860     		str	r0, [r3]	@ unaligned
 217 0016 1279     		ldrb	r2, [r2, #4]
 218 0018 1A71     		strb	r2, [r3, #4]
  61:.\DisplayResolver.c ****     uint16 delimitersize = sizeof(pdelimiter);
 219              		.loc 1 61 0
 220 001a 0523     		movs	r3, #5
ARM GAS  C:\Users\RECEPC~1\AppData\Local\Temp\cc76QunF.s 			page 6


 221 001c FB82     		strh	r3, [r7, #22]	@ movhi
  62:.\DisplayResolver.c ****     /////////////////////////////////////////////////////////////////////////////////////////
  63:.\DisplayResolver.c ****     //TODO: PLACE HERE ALL THE NECESSARY CODE TO RESOLVE THE COMPLETENESS OF THE ARRIVED DATA
  64:.\DisplayResolver.c ****     /////////////////////////////////////////////////////////////////////////////////////////
  65:.\DisplayResolver.c ****     if(pbuffer[0] != pdelimiter[0] && buffersize >= 0x08) 
 222              		.loc 1 65 0
 223 001e 7B68     		ldr	r3, [r7, #4]
 224 0020 1A78     		ldrb	r2, [r3]	@ zero_extendqisi2
 225 0022 3B7A     		ldrb	r3, [r7, #8]	@ zero_extendqisi2
 226 0024 9A42     		cmp	r2, r3
 227 0026 04D0     		beq	.L11
 228              		.loc 1 65 0 is_stmt 0 discriminator 1
 229 0028 7B88     		ldrh	r3, [r7, #2]
 230 002a 072B     		cmp	r3, #7
 231 002c 01D9     		bls	.L11
  66:.\DisplayResolver.c ****         return true;
 232              		.loc 1 66 0 is_stmt 1
 233 002e 0123     		movs	r3, #1
 234 0030 57E0     		b	.L16
 235              	.L11:
  67:.\DisplayResolver.c ****     
  68:.\DisplayResolver.c ****     if(
  69:.\DisplayResolver.c ****     (pbuffer[buffersize - 1] != pdelimiter[delimitersize - 1]) || 
 236              		.loc 1 69 0
 237 0032 7B88     		ldrh	r3, [r7, #2]
 238 0034 013B     		subs	r3, r3, #1
 239 0036 7A68     		ldr	r2, [r7, #4]
 240 0038 1344     		add	r3, r3, r2
 241 003a 1A78     		ldrb	r2, [r3]	@ zero_extendqisi2
 242 003c FB8A     		ldrh	r3, [r7, #22]
 243 003e 013B     		subs	r3, r3, #1
 244 0040 07F11801 		add	r1, r7, #24
 245 0044 0B44     		add	r3, r3, r1
 246 0046 13F8103C 		ldrb	r3, [r3, #-16]	@ zero_extendqisi2
  68:.\DisplayResolver.c ****     (pbuffer[buffersize - 1] != pdelimiter[delimitersize - 1]) || 
 247              		.loc 1 68 0
 248 004a 9A42     		cmp	r2, r3
 249 004c 29D1     		bne	.L13
  70:.\DisplayResolver.c ****     (pbuffer[buffersize - 2] != pdelimiter[delimitersize - 2]) ||
 250              		.loc 1 70 0
 251 004e 7B88     		ldrh	r3, [r7, #2]
 252 0050 023B     		subs	r3, r3, #2
 253 0052 7A68     		ldr	r2, [r7, #4]
 254 0054 1344     		add	r3, r3, r2
 255 0056 1A78     		ldrb	r2, [r3]	@ zero_extendqisi2
 256 0058 FB8A     		ldrh	r3, [r7, #22]
 257 005a 023B     		subs	r3, r3, #2
 258 005c 07F11801 		add	r1, r7, #24
 259 0060 0B44     		add	r3, r3, r1
 260 0062 13F8103C 		ldrb	r3, [r3, #-16]	@ zero_extendqisi2
  69:.\DisplayResolver.c ****     (pbuffer[buffersize - 2] != pdelimiter[delimitersize - 2]) ||
 261              		.loc 1 69 0
 262 0066 9A42     		cmp	r2, r3
 263 0068 1BD1     		bne	.L13
  71:.\DisplayResolver.c ****     (pbuffer[buffersize - 3] != pdelimiter[delimitersize - 3]) || 
 264              		.loc 1 71 0
 265 006a 7B88     		ldrh	r3, [r7, #2]
ARM GAS  C:\Users\RECEPC~1\AppData\Local\Temp\cc76QunF.s 			page 7


 266 006c 033B     		subs	r3, r3, #3
 267 006e 7A68     		ldr	r2, [r7, #4]
 268 0070 1344     		add	r3, r3, r2
 269 0072 1A78     		ldrb	r2, [r3]	@ zero_extendqisi2
 270 0074 FB8A     		ldrh	r3, [r7, #22]
 271 0076 033B     		subs	r3, r3, #3
 272 0078 07F11801 		add	r1, r7, #24
 273 007c 0B44     		add	r3, r3, r1
 274 007e 13F8103C 		ldrb	r3, [r3, #-16]	@ zero_extendqisi2
  70:.\DisplayResolver.c ****     (pbuffer[buffersize - 2] != pdelimiter[delimitersize - 2]) ||
 275              		.loc 1 70 0
 276 0082 9A42     		cmp	r2, r3
 277 0084 0DD1     		bne	.L13
  72:.\DisplayResolver.c ****     (pbuffer[buffersize - 4] != pdelimiter[delimitersize - 4]))
 278              		.loc 1 72 0
 279 0086 7B88     		ldrh	r3, [r7, #2]
 280 0088 043B     		subs	r3, r3, #4
 281 008a 7A68     		ldr	r2, [r7, #4]
 282 008c 1344     		add	r3, r3, r2
 283 008e 1A78     		ldrb	r2, [r3]	@ zero_extendqisi2
 284 0090 FB8A     		ldrh	r3, [r7, #22]
 285 0092 043B     		subs	r3, r3, #4
 286 0094 07F11801 		add	r1, r7, #24
 287 0098 0B44     		add	r3, r3, r1
 288 009a 13F8103C 		ldrb	r3, [r3, #-16]	@ zero_extendqisi2
  71:.\DisplayResolver.c ****     (pbuffer[buffersize - 3] != pdelimiter[delimitersize - 3]) || 
 289              		.loc 1 71 0
 290 009e 9A42     		cmp	r2, r3
 291 00a0 01D0     		beq	.L14
 292              	.L13:
  73:.\DisplayResolver.c ****         return false;
 293              		.loc 1 73 0
 294 00a2 0023     		movs	r3, #0
 295 00a4 1DE0     		b	.L16
 296              	.L14:
  74:.\DisplayResolver.c ****     
  75:.\DisplayResolver.c ****     /////////////////////////////////////////////////////////////////////////////////////////    
  76:.\DisplayResolver.c ****     
  77:.\DisplayResolver.c ****     SinkMessage* sinkmsg = AllocateMessageSlot();
 297              		.loc 1 77 0
 298 00a6 FFF7FEFF 		bl	AllocateMessageSlot
 299 00aa 3861     		str	r0, [r7, #16]
  78:.\DisplayResolver.c ****     if(sinkmsg)
 300              		.loc 1 78 0
 301 00ac 3B69     		ldr	r3, [r7, #16]
 302 00ae 002B     		cmp	r3, #0
 303 00b0 16D0     		beq	.L15
  79:.\DisplayResolver.c ****     {
  80:.\DisplayResolver.c ****         sinkmsg->_messageid = DISPLAY2_RECEPTION;
 304              		.loc 1 80 0
 305 00b2 3B69     		ldr	r3, [r7, #16]
 306 00b4 2322     		movs	r2, #35
 307 00b6 5A70     		strb	r2, [r3, #1]
  81:.\DisplayResolver.c ****         sinkmsg->_messagetype = FIRSTFOUND;
 308              		.loc 1 81 0
 309 00b8 3B69     		ldr	r3, [r7, #16]
 310 00ba 0322     		movs	r2, #3
ARM GAS  C:\Users\RECEPC~1\AppData\Local\Temp\cc76QunF.s 			page 8


 311 00bc 9A70     		strb	r2, [r3, #2]
  82:.\DisplayResolver.c ****         memcpy(sinkmsg->_buffer, (const void*)pbuffer, 0x08);
 312              		.loc 1 82 0
 313 00be 3B69     		ldr	r3, [r7, #16]
 314 00c0 0C33     		adds	r3, r3, #12
 315 00c2 1846     		mov	r0, r3
 316 00c4 7968     		ldr	r1, [r7, #4]
 317 00c6 0822     		movs	r2, #8
 318 00c8 FFF7FEFF 		bl	memcpy
  83:.\DisplayResolver.c ****         sinkmsg->_buffersize = buffersize;
 319              		.loc 1 83 0
 320 00cc 3B69     		ldr	r3, [r7, #16]
 321 00ce 7A88     		ldrh	r2, [r7, #2]	@ movhi
 322 00d0 A3F88C21 		strh	r2, [r3, #396]	@ movhi
  84:.\DisplayResolver.c ****         sinkmsg->_messagestate = SINK_BUSY;
 323              		.loc 1 84 0
 324 00d4 3B69     		ldr	r3, [r7, #16]
 325 00d6 0322     		movs	r2, #3
 326 00d8 DA70     		strb	r2, [r3, #3]
  85:.\DisplayResolver.c ****         
  86:.\DisplayResolver.c ****         Display2_DisableRxInt();
 327              		.loc 1 86 0
 328 00da 054B     		ldr	r3, .L17+4
 329 00dc 0822     		movs	r2, #8
 330 00de 1A60     		str	r2, [r3]
 331              	.L15:
  87:.\DisplayResolver.c ****     }        
  88:.\DisplayResolver.c ****     return true;
 332              		.loc 1 88 0
 333 00e0 0123     		movs	r3, #1
 334              	.L16:
  89:.\DisplayResolver.c **** }
 335              		.loc 1 89 0 discriminator 1
 336 00e2 1846     		mov	r0, r3
 337 00e4 1837     		adds	r7, r7, #24
 338              		.cfi_def_cfa_offset 8
 339 00e6 BD46     		mov	sp, r7
 340              		.cfi_def_cfa_register 13
 341              		@ sp needed
 342 00e8 80BD     		pop	{r7, pc}
 343              	.L18:
 344 00ea 00BF     		.align	2
 345              	.L17:
 346 00ec 00000000 		.word	.LC0
 347 00f0 80E100E0 		.word	-536813184
 348              		.cfi_endproc
 349              	.LFE64:
 350              		.size	Display2BufferResolver, .-Display2BufferResolver
 351              		.section	.text.Dislay1UARTSend,"ax",%progbits
 352              		.align	2
 353              		.global	Dislay1UARTSend
 354              		.thumb
 355              		.thumb_func
 356              		.type	Dislay1UARTSend, %function
 357              	Dislay1UARTSend:
 358              	.LFB65:
  90:.\DisplayResolver.c **** 
ARM GAS  C:\Users\RECEPC~1\AppData\Local\Temp\cc76QunF.s 			page 9


  91:.\DisplayResolver.c **** //@Created By: HIJH
  92:.\DisplayResolver.c **** //@Septembre de 2016
  93:.\DisplayResolver.c **** void Dislay1UARTSend(void *ptr)
  94:.\DisplayResolver.c **** {
 359              		.loc 1 94 0
 360              		.cfi_startproc
 361              		@ args = 0, pretend = 0, frame = 16
 362              		@ frame_needed = 1, uses_anonymous_args = 0
 363 0000 80B5     		push	{r7, lr}
 364              		.cfi_def_cfa_offset 8
 365              		.cfi_offset 7, -8
 366              		.cfi_offset 14, -4
 367 0002 84B0     		sub	sp, sp, #16
 368              		.cfi_def_cfa_offset 24
 369 0004 00AF     		add	r7, sp, #0
 370              		.cfi_def_cfa_register 7
 371 0006 7860     		str	r0, [r7, #4]
  95:.\DisplayResolver.c ****     UARTMessage *pmessage = (UARTMessage*)ptr;
 372              		.loc 1 95 0
 373 0008 7B68     		ldr	r3, [r7, #4]
 374 000a BB60     		str	r3, [r7, #8]
  96:.\DisplayResolver.c ****     if(pmessage)
 375              		.loc 1 96 0
 376 000c BB68     		ldr	r3, [r7, #8]
 377 000e 002B     		cmp	r3, #0
 378 0010 16D0     		beq	.L19
 379              	.LBB2:
  97:.\DisplayResolver.c ****     {
  98:.\DisplayResolver.c ****         FOR(uint8 index = 0, index < pmessage->_messagelength, index++)
 380              		.loc 1 98 0
 381 0012 0023     		movs	r3, #0
 382 0014 FB73     		strb	r3, [r7, #15]
 383 0016 0CE0     		b	.L21
 384              	.L22:
  99:.\DisplayResolver.c ****             pmessage->_puartmanager->PutChar(pmessage->_messagetx[index]);
 385              		.loc 1 99 0 discriminator 3
 386 0018 BB68     		ldr	r3, [r7, #8]
 387 001a D3F80831 		ldr	r3, [r3, #264]
 388 001e 9B6B     		ldr	r3, [r3, #56]
 389 0020 FA7B     		ldrb	r2, [r7, #15]	@ zero_extendqisi2
 390 0022 B968     		ldr	r1, [r7, #8]
 391 0024 0A44     		add	r2, r2, r1
 392 0026 1279     		ldrb	r2, [r2, #4]	@ zero_extendqisi2
 393 0028 1046     		mov	r0, r2
 394 002a 9847     		blx	r3
  98:.\DisplayResolver.c ****             pmessage->_puartmanager->PutChar(pmessage->_messagetx[index]);
 395              		.loc 1 98 0 discriminator 3
 396 002c FB7B     		ldrb	r3, [r7, #15]	@ zero_extendqisi2
 397 002e 0133     		adds	r3, r3, #1
 398 0030 FB73     		strb	r3, [r7, #15]
 399              	.L21:
  98:.\DisplayResolver.c ****             pmessage->_puartmanager->PutChar(pmessage->_messagetx[index]);
 400              		.loc 1 98 0 is_stmt 0 discriminator 1
 401 0032 FB7B     		ldrb	r3, [r7, #15]	@ zero_extendqisi2
 402 0034 9AB2     		uxth	r2, r3
 403 0036 BB68     		ldr	r3, [r7, #8]
 404 0038 5B88     		ldrh	r3, [r3, #2]	@ movhi
ARM GAS  C:\Users\RECEPC~1\AppData\Local\Temp\cc76QunF.s 			page 10


 405 003a 9BB2     		uxth	r3, r3
 406 003c 9A42     		cmp	r2, r3
 407 003e EBD3     		bcc	.L22
 408              	.L19:
 409              	.LBE2:
 100:.\DisplayResolver.c ****     }
 101:.\DisplayResolver.c **** }
 410              		.loc 1 101 0 is_stmt 1
 411 0040 1037     		adds	r7, r7, #16
 412              		.cfi_def_cfa_offset 8
 413 0042 BD46     		mov	sp, r7
 414              		.cfi_def_cfa_register 13
 415              		@ sp needed
 416 0044 80BD     		pop	{r7, pc}
 417              		.cfi_endproc
 418              	.LFE65:
 419              		.size	Dislay1UARTSend, .-Dislay1UARTSend
 420 0046 00BF     		.section	.text.Dislay2UARTSend,"ax",%progbits
 421              		.align	2
 422              		.global	Dislay2UARTSend
 423              		.thumb
 424              		.thumb_func
 425              		.type	Dislay2UARTSend, %function
 426              	Dislay2UARTSend:
 427              	.LFB66:
 102:.\DisplayResolver.c **** 
 103:.\DisplayResolver.c **** //@Created By: HIJH
 104:.\DisplayResolver.c **** //@Septembre de 2016
 105:.\DisplayResolver.c **** void Dislay2UARTSend(void *ptr)
 106:.\DisplayResolver.c **** {
 428              		.loc 1 106 0
 429              		.cfi_startproc
 430              		@ args = 0, pretend = 0, frame = 16
 431              		@ frame_needed = 1, uses_anonymous_args = 0
 432 0000 80B5     		push	{r7, lr}
 433              		.cfi_def_cfa_offset 8
 434              		.cfi_offset 7, -8
 435              		.cfi_offset 14, -4
 436 0002 84B0     		sub	sp, sp, #16
 437              		.cfi_def_cfa_offset 24
 438 0004 00AF     		add	r7, sp, #0
 439              		.cfi_def_cfa_register 7
 440 0006 7860     		str	r0, [r7, #4]
 107:.\DisplayResolver.c ****     UARTMessage *pmessage = (UARTMessage*)ptr;
 441              		.loc 1 107 0
 442 0008 7B68     		ldr	r3, [r7, #4]
 443 000a BB60     		str	r3, [r7, #8]
 108:.\DisplayResolver.c ****     if(pmessage)
 444              		.loc 1 108 0
 445 000c BB68     		ldr	r3, [r7, #8]
 446 000e 002B     		cmp	r3, #0
 447 0010 16D0     		beq	.L23
 448              	.LBB3:
 109:.\DisplayResolver.c ****     {
 110:.\DisplayResolver.c ****         FOR(uint8 index = 0, index < pmessage->_messagelength, index++)
 449              		.loc 1 110 0
 450 0012 0023     		movs	r3, #0
ARM GAS  C:\Users\RECEPC~1\AppData\Local\Temp\cc76QunF.s 			page 11


 451 0014 FB73     		strb	r3, [r7, #15]
 452 0016 0CE0     		b	.L25
 453              	.L26:
 111:.\DisplayResolver.c ****             pmessage->_puartmanager->PutChar(pmessage->_messagetx[index]);
 454              		.loc 1 111 0 discriminator 3
 455 0018 BB68     		ldr	r3, [r7, #8]
 456 001a D3F80831 		ldr	r3, [r3, #264]
 457 001e 9B6B     		ldr	r3, [r3, #56]
 458 0020 FA7B     		ldrb	r2, [r7, #15]	@ zero_extendqisi2
 459 0022 B968     		ldr	r1, [r7, #8]
 460 0024 0A44     		add	r2, r2, r1
 461 0026 1279     		ldrb	r2, [r2, #4]	@ zero_extendqisi2
 462 0028 1046     		mov	r0, r2
 463 002a 9847     		blx	r3
 110:.\DisplayResolver.c ****             pmessage->_puartmanager->PutChar(pmessage->_messagetx[index]);
 464              		.loc 1 110 0 discriminator 3
 465 002c FB7B     		ldrb	r3, [r7, #15]	@ zero_extendqisi2
 466 002e 0133     		adds	r3, r3, #1
 467 0030 FB73     		strb	r3, [r7, #15]
 468              	.L25:
 110:.\DisplayResolver.c ****             pmessage->_puartmanager->PutChar(pmessage->_messagetx[index]);
 469              		.loc 1 110 0 is_stmt 0 discriminator 1
 470 0032 FB7B     		ldrb	r3, [r7, #15]	@ zero_extendqisi2
 471 0034 9AB2     		uxth	r2, r3
 472 0036 BB68     		ldr	r3, [r7, #8]
 473 0038 5B88     		ldrh	r3, [r3, #2]	@ movhi
 474 003a 9BB2     		uxth	r3, r3
 475 003c 9A42     		cmp	r2, r3
 476 003e EBD3     		bcc	.L26
 477              	.L23:
 478              	.LBE3:
 112:.\DisplayResolver.c ****     }
 113:.\DisplayResolver.c **** }
 479              		.loc 1 113 0 is_stmt 1
 480 0040 1037     		adds	r7, r7, #16
 481              		.cfi_def_cfa_offset 8
 482 0042 BD46     		mov	sp, r7
 483              		.cfi_def_cfa_register 13
 484              		@ sp needed
 485 0044 80BD     		pop	{r7, pc}
 486              		.cfi_endproc
 487              	.LFE66:
 488              		.size	Dislay2UARTSend, .-Dislay2UARTSend
 489 0046 00BF     		.text
 490              	.Letext0:
 491              		.file 2 "c:\\program files (x86)\\cypress\\psoc creator\\3.3\\psoc creator\\import\\gnu\\arm\\4.9.
 492              		.file 3 "c:\\program files (x86)\\cypress\\psoc creator\\3.3\\psoc creator\\import\\gnu\\arm\\4.9.
 493              		.file 4 "Generated_Source\\PSoC5/cytypes.h"
 494              		.file 5 ".\\SinkManager.h"
 495              		.file 6 ".\\SinkObservables.h"
 496              		.file 7 ".\\UARTManager.h"
 497              		.file 8 "Generated_Source\\PSoC5/core_cm3.h"