ARM GAS  C:\Users\Lenovo\AppData\Local\Temp\ccvJW3EG.s 			page 1


   1              		.syntax unified
   2              		.cpu cortex-m3
   3              		.fpu softvfp
   4              		.eabi_attribute 20, 1
   5              		.eabi_attribute 21, 1
   6              		.eabi_attribute 23, 3
   7              		.eabi_attribute 24, 1
   8              		.eabi_attribute 25, 1
   9              		.eabi_attribute 26, 1
  10              		.eabi_attribute 30, 6
  11              		.eabi_attribute 34, 1
  12              		.eabi_attribute 18, 4
  13              		.thumb
  14              		.file	"DisplayCharacterMap.c"
  15              		.text
  16              	.Ltext0:
  17              		.cfi_sections	.debug_frame
  18              		.comm	HoseDispenser,1,1
  19              		.global	_g_charmaplut
  20              		.data
  21              		.align	2
  22              		.type	_g_charmaplut, %object
  23              		.size	_g_charmaplut, 80
  24              	_g_charmaplut:
  25 0000 01       		.byte	1
  26 0001 31       		.byte	49
  27 0002 02       		.byte	2
  28 0003 32       		.byte	50
  29 0004 03       		.byte	3
  30 0005 33       		.byte	51
  31 0006 04       		.byte	4
  32 0007 34       		.byte	52
  33 0008 05       		.byte	5
  34 0009 35       		.byte	53
  35 000a 06       		.byte	6
  36 000b 36       		.byte	54
  37 000c 07       		.byte	7
  38 000d 37       		.byte	55
  39 000e 08       		.byte	8
  40 000f 38       		.byte	56
  41 0010 09       		.byte	9
  42 0011 39       		.byte	57
  43 0012 0A       		.byte	10
  44 0013 30       		.byte	48
  45 0014 1B       		.byte	27
  46 0015 51       		.byte	81
  47 0016 1C       		.byte	28
  48 0017 57       		.byte	87
  49 0018 1D       		.byte	29
  50 0019 45       		.byte	69
  51 001a 1E       		.byte	30
  52 001b 52       		.byte	82
  53 001c 1F       		.byte	31
  54 001d 54       		.byte	84
  55 001e 20       		.byte	32
  56 001f 59       		.byte	89
  57 0020 21       		.byte	33
ARM GAS  C:\Users\Lenovo\AppData\Local\Temp\ccvJW3EG.s 			page 2


  58 0021 55       		.byte	85
  59 0022 22       		.byte	34
  60 0023 49       		.byte	73
  61 0024 23       		.byte	35
  62 0025 4F       		.byte	79
  63 0026 24       		.byte	36
  64 0027 50       		.byte	80
  65 0028 25       		.byte	37
  66 0029 41       		.byte	65
  67 002a 26       		.byte	38
  68 002b 53       		.byte	83
  69 002c 27       		.byte	39
  70 002d 44       		.byte	68
  71 002e 28       		.byte	40
  72 002f 46       		.byte	70
  73 0030 29       		.byte	41
  74 0031 47       		.byte	71
  75 0032 2A       		.byte	42
  76 0033 48       		.byte	72
  77 0034 2B       		.byte	43
  78 0035 4A       		.byte	74
  79 0036 2C       		.byte	44
  80 0037 4B       		.byte	75
  81 0038 2D       		.byte	45
  82 0039 4C       		.byte	76
  83 003a 2F       		.byte	47
  84 003b 5A       		.byte	90
  85 003c 30       		.byte	48
  86 003d 58       		.byte	88
  87 003e 31       		.byte	49
  88 003f 43       		.byte	67
  89 0040 32       		.byte	50
  90 0041 56       		.byte	86
  91 0042 42       		.byte	66
  92 0043 42       		.byte	66
  93 0044 34       		.byte	52
  94 0045 4E       		.byte	78
  95 0046 35       		.byte	53
  96 0047 4D       		.byte	77
  97 0048 6A       		.byte	106
  98 0049 2D       		.byte	45
  99 004a 68       		.byte	104
 100 004b 20       		.byte	32
 101 004c 51       		.byte	81
 102 004d 2C       		.byte	44
 103 004e 00       		.byte	0
 104 004f 00       		.byte	0
 105              		.section	.text.UnmapCode,"ax",%progbits
 106              		.align	2
 107              		.global	UnmapCode
 108              		.thumb
 109              		.thumb_func
 110              		.type	UnmapCode, %function
 111              	UnmapCode:
 112              	.LFB0:
 113              		.file 1 ".\\DisplayCharacterMap.c"
   1:.\DisplayCharacterMap.c **** /* ========================================
ARM GAS  C:\Users\Lenovo\AppData\Local\Temp\ccvJW3EG.s 			page 3


   2:.\DisplayCharacterMap.c ****  *
   3:.\DisplayCharacterMap.c ****  * Copyright INSEPET SISTEMAS, 2016
   4:.\DisplayCharacterMap.c ****  * All Rights Reserved
   5:.\DisplayCharacterMap.c ****  * UNPUBLISHED, LICENSED SOFTWARE.
   6:.\DisplayCharacterMap.c ****  *
   7:.\DisplayCharacterMap.c ****  * CONFIDENTIAL AND PROPRIETARY INFORMATION
   8:.\DisplayCharacterMap.c ****  * WHICH IS THE PROPERTY OF your company.
   9:.\DisplayCharacterMap.c ****  *
  10:.\DisplayCharacterMap.c ****  * ========================================
  11:.\DisplayCharacterMap.c **** @Created By: HIJH
  12:.\DisplayCharacterMap.c **** @Date: Septembre de 2016
  13:.\DisplayCharacterMap.c **** */
  14:.\DisplayCharacterMap.c **** #include "GlobalDefinitions.h"
  15:.\DisplayCharacterMap.c **** #include "Display.h"
  16:.\DisplayCharacterMap.c **** 
  17:.\DisplayCharacterMap.c **** //This LUT maps the incoming codes from the displays into their respective ASCII character
  18:.\DisplayCharacterMap.c **** DisplayCharacterMap _g_charmaplut[] =
  19:.\DisplayCharacterMap.c **** {
  20:.\DisplayCharacterMap.c ****     { 0x01, 0x31 }, { 0x02, 0x32 }, { 0x03, 0x33 }, { 0x04, 0x34 }, { 0x05, 0x35 }, { 0x06, 0x36 },
  21:.\DisplayCharacterMap.c ****     { 0x1B, (char8)'Q' }, { 0x1C, (char8)'W'}, { 0x1D, (char8)'E'}, { 0x1E, (char8)'R'}, { 0x1F, (c
  22:.\DisplayCharacterMap.c ****     { 0x25, (char8)'A'}, { 0x26, (char8)'S'}, { 0x27, (char8)'D'}, { 0x28, (char8)'F'}, { 0x29, (ch
  23:.\DisplayCharacterMap.c ****     { 0x2F, (char8)'Z'}, { 0x30, (char8)'X'}, { 0x31, (char8)'C'}, { 0x32, (char8)'V'}, { 0x42, (ch
  24:.\DisplayCharacterMap.c ****     { 0x6A, (char8)'-'}, { 0x68, (char8)' '}, { 0x51, (char8)','}, { 0x00, 0x00 }
  25:.\DisplayCharacterMap.c **** };
  26:.\DisplayCharacterMap.c **** 
  27:.\DisplayCharacterMap.c **** //@Created By: HIJH
  28:.\DisplayCharacterMap.c **** //@Septembre de 2016
  29:.\DisplayCharacterMap.c **** char8 UnmapCode(uint8 code)
  30:.\DisplayCharacterMap.c **** {
 114              		.loc 1 30 0
 115              		.cfi_startproc
 116              		@ args = 0, pretend = 0, frame = 16
 117              		@ frame_needed = 1, uses_anonymous_args = 0
 118              		@ link register save eliminated.
 119 0000 80B4     		push	{r7}
 120              		.cfi_def_cfa_offset 4
 121              		.cfi_offset 7, -4
 122 0002 85B0     		sub	sp, sp, #20
 123              		.cfi_def_cfa_offset 24
 124 0004 00AF     		add	r7, sp, #0
 125              		.cfi_def_cfa_register 7
 126 0006 0346     		mov	r3, r0
 127 0008 FB71     		strb	r3, [r7, #7]
  31:.\DisplayCharacterMap.c ****     char8 retval = 0x00;
 128              		.loc 1 31 0
 129 000a 0023     		movs	r3, #0
 130 000c FB73     		strb	r3, [r7, #15]
  32:.\DisplayCharacterMap.c ****     DisplayCharacterMap *pcharmap = _g_charmaplut;
 131              		.loc 1 32 0
 132 000e 0D4B     		ldr	r3, .L7
 133 0010 BB60     		str	r3, [r7, #8]
  33:.\DisplayCharacterMap.c ****     while(pcharmap->_refchar != 0x00)
 134              		.loc 1 33 0
 135 0012 0BE0     		b	.L2
 136              	.L5:
  34:.\DisplayCharacterMap.c ****     {
  35:.\DisplayCharacterMap.c ****         if(pcharmap->_refchar == code)
ARM GAS  C:\Users\Lenovo\AppData\Local\Temp\ccvJW3EG.s 			page 4


 137              		.loc 1 35 0
 138 0014 BB68     		ldr	r3, [r7, #8]
 139 0016 1B78     		ldrb	r3, [r3]	@ zero_extendqisi2
 140 0018 FA79     		ldrb	r2, [r7, #7]	@ zero_extendqisi2
 141 001a 9A42     		cmp	r2, r3
 142 001c 03D1     		bne	.L3
  36:.\DisplayCharacterMap.c ****         {
  37:.\DisplayCharacterMap.c ****             retval = pcharmap->_mappedto;
 143              		.loc 1 37 0
 144 001e BB68     		ldr	r3, [r7, #8]
 145 0020 5B78     		ldrb	r3, [r3, #1]
 146 0022 FB73     		strb	r3, [r7, #15]
  38:.\DisplayCharacterMap.c ****             break;
 147              		.loc 1 38 0
 148 0024 06E0     		b	.L4
 149              	.L3:
  39:.\DisplayCharacterMap.c ****         }
  40:.\DisplayCharacterMap.c ****         pcharmap++;
 150              		.loc 1 40 0
 151 0026 BB68     		ldr	r3, [r7, #8]
 152 0028 0233     		adds	r3, r3, #2
 153 002a BB60     		str	r3, [r7, #8]
 154              	.L2:
  33:.\DisplayCharacterMap.c ****     {
 155              		.loc 1 33 0
 156 002c BB68     		ldr	r3, [r7, #8]
 157 002e 1B78     		ldrb	r3, [r3]	@ zero_extendqisi2
 158 0030 002B     		cmp	r3, #0
 159 0032 EFD1     		bne	.L5
 160              	.L4:
  41:.\DisplayCharacterMap.c ****     }
  42:.\DisplayCharacterMap.c ****     return retval;
 161              		.loc 1 42 0
 162 0034 FB7B     		ldrb	r3, [r7, #15]	@ zero_extendqisi2
  43:.\DisplayCharacterMap.c **** }
 163              		.loc 1 43 0
 164 0036 1846     		mov	r0, r3
 165 0038 1437     		adds	r7, r7, #20
 166              		.cfi_def_cfa_offset 4
 167 003a BD46     		mov	sp, r7
 168              		.cfi_def_cfa_register 13
 169              		@ sp needed
 170 003c 5DF8047B 		ldr	r7, [sp], #4
 171              		.cfi_restore 7
 172              		.cfi_def_cfa_offset 0
 173 0040 7047     		bx	lr
 174              	.L8:
 175 0042 00BF     		.align	2
 176              	.L7:
 177 0044 00000000 		.word	_g_charmaplut
 178              		.cfi_endproc
 179              	.LFE0:
 180              		.size	UnmapCode, .-UnmapCode
 181              		.text
 182              	.Letext0:
 183              		.file 2 "Generated_Source\\PSoC5/cytypes.h"
 184              		.file 3 ".\\Display.h"
ARM GAS  C:\Users\Lenovo\AppData\Local\Temp\ccvJW3EG.s 			page 5


 185              		.file 4 ".\\GlobalDefinitions.h"