ARM GAS  C:\Users\RECEPC~1\AppData\Local\Temp\ccILLrVD.s 			page 1


   1              		.syntax unified
   2              		.cpu cortex-m3
   3              		.fpu softvfp
   4              		.eabi_attribute 20, 1
   5              		.eabi_attribute 21, 1
   6              		.eabi_attribute 23, 3
   7              		.eabi_attribute 24, 1
   8              		.eabi_attribute 25, 1
   9              		.eabi_attribute 26, 1
  10              		.eabi_attribute 30, 6
  11              		.eabi_attribute 34, 1
  12              		.eabi_attribute 18, 4
  13              		.thumb
  14              		.file	"DispenserResolver.c"
  15              		.text
  16              	.Ltext0:
  17              		.cfi_sections	.debug_frame
  18              		.comm	_g_respctxt,524,4
  19              		.section	.text.DispenserBufferResolver,"ax",%progbits
  20              		.align	2
  21              		.global	DispenserBufferResolver
  22              		.thumb
  23              		.thumb_func
  24              		.type	DispenserBufferResolver, %function
  25              	DispenserBufferResolver:
  26              	.LFB63:
  27              		.file 1 ".\\DispenserResolver.c"
   1:.\DispenserResolver.c **** /* ========================================
   2:.\DispenserResolver.c ****  *
   3:.\DispenserResolver.c ****  * Copyright INSEPET SISTEMAS, 2016
   4:.\DispenserResolver.c ****  * All Rights Reserved
   5:.\DispenserResolver.c ****  * UNPUBLISHED, LICENSED SOFTWARE.
   6:.\DispenserResolver.c ****  *
   7:.\DispenserResolver.c ****  * CONFIDENTIAL AND PROPRIETARY INFORMATION
   8:.\DispenserResolver.c ****  * WHICH IS THE PROPERTY OF your company.
   9:.\DispenserResolver.c ****  *
  10:.\DispenserResolver.c ****  * ========================================
  11:.\DispenserResolver.c **** @Created By: HIJH
  12:.\DispenserResolver.c **** @Date: Septembre de 2016
  13:.\DispenserResolver.c **** */
  14:.\DispenserResolver.c **** #include <project.h>
  15:.\DispenserResolver.c **** #include "GlobalDefinitions.h"
  16:.\DispenserResolver.c **** #include "SinkManager.h"
  17:.\DispenserResolver.c **** #include "SinkObservables.h"
  18:.\DispenserResolver.c **** #include "UARTManager.h"
  19:.\DispenserResolver.c **** #include "Dispenser.h"
  20:.\DispenserResolver.c **** 
  21:.\DispenserResolver.c **** PumpResponseContext _g_respctxt;
  22:.\DispenserResolver.c **** 
  23:.\DispenserResolver.c **** //@Created By: HIJH
  24:.\DispenserResolver.c **** //@Septembre de 2016
  25:.\DispenserResolver.c **** bool DispenserBufferResolver(char* pbuffer, uint16 buffersize)
  26:.\DispenserResolver.c **** {
  28              		.loc 1 26 0
  29              		.cfi_startproc
  30              		@ args = 0, pretend = 0, frame = 8
  31              		@ frame_needed = 1, uses_anonymous_args = 0
ARM GAS  C:\Users\RECEPC~1\AppData\Local\Temp\ccILLrVD.s 			page 2


  32 0000 80B5     		push	{r7, lr}
  33              		.cfi_def_cfa_offset 8
  34              		.cfi_offset 7, -8
  35              		.cfi_offset 14, -4
  36 0002 82B0     		sub	sp, sp, #8
  37              		.cfi_def_cfa_offset 16
  38 0004 00AF     		add	r7, sp, #0
  39              		.cfi_def_cfa_register 7
  40 0006 7860     		str	r0, [r7, #4]
  41 0008 0B46     		mov	r3, r1
  42 000a 7B80     		strh	r3, [r7, #2]	@ movhi
  27:.\DispenserResolver.c ****     if(_g_respctxt._responsesize > 0)
  43              		.loc 1 27 0
  44 000c 184B     		ldr	r3, .L5
  45 000e DB88     		ldrh	r3, [r3, #6]	@ movhi
  46 0010 9BB2     		uxth	r3, r3
  47 0012 002B     		cmp	r3, #0
  48 0014 07D0     		beq	.L2
  28:.\DispenserResolver.c ****     {
  29:.\DispenserResolver.c ****         if(buffersize < _g_respctxt._responsesize)
  49              		.loc 1 29 0
  50 0016 164B     		ldr	r3, .L5
  51 0018 DB88     		ldrh	r3, [r3, #6]	@ movhi
  52 001a 9BB2     		uxth	r3, r3
  53 001c 7A88     		ldrh	r2, [r7, #2]
  54 001e 9A42     		cmp	r2, r3
  55 0020 11D2     		bcs	.L3
  30:.\DispenserResolver.c ****             return false;
  56              		.loc 1 30 0
  57 0022 0023     		movs	r3, #0
  58 0024 1FE0     		b	.L4
  59              	.L2:
  31:.\DispenserResolver.c ****     }else{
  32:.\DispenserResolver.c ****         //This must be used in case of a response with dynamic payload size
  33:.\DispenserResolver.c ****         if(!_g_respctxt.ResponseSizeResolver(_g_respctxt._pparam, pbuffer, buffersize))
  60              		.loc 1 33 0
  61 0026 124B     		ldr	r3, .L5
  62 0028 9B68     		ldr	r3, [r3, #8]
  63 002a 114A     		ldr	r2, .L5
  64 002c 1168     		ldr	r1, [r2]
  65 002e 7A88     		ldrh	r2, [r7, #2]
  66 0030 0846     		mov	r0, r1
  67 0032 7968     		ldr	r1, [r7, #4]
  68 0034 9847     		blx	r3
  69 0036 0346     		mov	r3, r0
  70 0038 83F00103 		eor	r3, r3, #1
  71 003c DBB2     		uxtb	r3, r3
  72 003e 002B     		cmp	r3, #0
  73 0040 01D0     		beq	.L3
  34:.\DispenserResolver.c ****             return false;
  74              		.loc 1 34 0
  75 0042 0023     		movs	r3, #0
  76 0044 0FE0     		b	.L4
  77              	.L3:
  35:.\DispenserResolver.c ****     }
  36:.\DispenserResolver.c ****     
  37:.\DispenserResolver.c ****     memcpy(_g_respctxt._rxbuffer, pbuffer, buffersize);
ARM GAS  C:\Users\RECEPC~1\AppData\Local\Temp\ccILLrVD.s 			page 3


  78              		.loc 1 37 0
  79 0046 7B88     		ldrh	r3, [r7, #2]
  80 0048 0A48     		ldr	r0, .L5+4
  81 004a 7968     		ldr	r1, [r7, #4]
  82 004c 1A46     		mov	r2, r3
  83 004e FFF7FEFF 		bl	memcpy
  38:.\DispenserResolver.c ****     _g_respctxt._responsesize = buffersize;
  84              		.loc 1 38 0
  85 0052 074A     		ldr	r2, .L5
  86 0054 7B88     		ldrh	r3, [r7, #2]	@ movhi
  87 0056 D380     		strh	r3, [r2, #6]	@ movhi
  39:.\DispenserResolver.c ****     _g_respctxt._bufferready = true;
  88              		.loc 1 39 0
  89 0058 054B     		ldr	r3, .L5
  90 005a 0122     		movs	r2, #1
  91 005c 1A71     		strb	r2, [r3, #4]
  40:.\DispenserResolver.c ****     
  41:.\DispenserResolver.c ****     Dispenser_DisableRxInt();
  92              		.loc 1 41 0
  93 005e 064B     		ldr	r3, .L5+8
  94 0060 0222     		movs	r2, #2
  95 0062 1A60     		str	r2, [r3]
  42:.\DispenserResolver.c ****     
  43:.\DispenserResolver.c ****     return true;
  96              		.loc 1 43 0
  97 0064 0123     		movs	r3, #1
  98              	.L4:
  44:.\DispenserResolver.c **** }
  99              		.loc 1 44 0
 100 0066 1846     		mov	r0, r3
 101 0068 0837     		adds	r7, r7, #8
 102              		.cfi_def_cfa_offset 8
 103 006a BD46     		mov	sp, r7
 104              		.cfi_def_cfa_register 13
 105              		@ sp needed
 106 006c 80BD     		pop	{r7, pc}
 107              	.L6:
 108 006e 00BF     		.align	2
 109              	.L5:
 110 0070 00000000 		.word	_g_respctxt
 111 0074 0C000000 		.word	_g_respctxt+12
 112 0078 80E100E0 		.word	-536813184
 113              		.cfi_endproc
 114              	.LFE63:
 115              		.size	DispenserBufferResolver, .-DispenserBufferResolver
 116              		.section	.text.DispenserUARTSend,"ax",%progbits
 117              		.align	2
 118              		.global	DispenserUARTSend
 119              		.thumb
 120              		.thumb_func
 121              		.type	DispenserUARTSend, %function
 122              	DispenserUARTSend:
 123              	.LFB64:
  45:.\DispenserResolver.c **** 
  46:.\DispenserResolver.c **** /*
  47:.\DispenserResolver.c **** @GlobalUARTSend standard method used for the UART Manager
  48:.\DispenserResolver.c **** @Created by: HIJH
ARM GAS  C:\Users\RECEPC~1\AppData\Local\Temp\ccILLrVD.s 			page 4


  49:.\DispenserResolver.c **** @Date: Août 30 de 2016
  50:.\DispenserResolver.c **** Since all of the communications are posted through the same channel, the state machine carry all of
  51:.\DispenserResolver.c **** flags required to notify through the layers.
  52:.\DispenserResolver.c **** 
  53:.\DispenserResolver.c **** The time interval between Words shall be at least 68 msec according to the documentation
  54:.\DispenserResolver.c **** 
  55:.\DispenserResolver.c **** DO NOT USE "CyDelay*" FUNCTIONS SINCE IT HAS BEEN PROVEN THAT THOSE FUNCTIONS GENERATE A DEADLOCK A
  56:.\DispenserResolver.c **** POINT. ACCORDING TO THE DOCUMENTATION MAYBE IT IS SOMETHING RELATED WITH THE CURRENT FREQ THAT NEED
  57:.\DispenserResolver.c **** BE DEFINED THROUGH A CALL TO "CyDelayFreq".
  58:.\DispenserResolver.c **** */
  59:.\DispenserResolver.c **** void DispenserUARTSend(void *ptr)
  60:.\DispenserResolver.c **** {
 124              		.loc 1 60 0
 125              		.cfi_startproc
 126              		@ args = 0, pretend = 0, frame = 16
 127              		@ frame_needed = 1, uses_anonymous_args = 0
 128 0000 80B5     		push	{r7, lr}
 129              		.cfi_def_cfa_offset 8
 130              		.cfi_offset 7, -8
 131              		.cfi_offset 14, -4
 132 0002 84B0     		sub	sp, sp, #16
 133              		.cfi_def_cfa_offset 24
 134 0004 00AF     		add	r7, sp, #0
 135              		.cfi_def_cfa_register 7
 136 0006 7860     		str	r0, [r7, #4]
  61:.\DispenserResolver.c ****     PUARTMESSAGEPTR pmessage = (PUARTMESSAGEPTR)ptr;
 137              		.loc 1 61 0
 138 0008 7B68     		ldr	r3, [r7, #4]
 139 000a BB60     		str	r3, [r7, #8]
  62:.\DispenserResolver.c ****     if(pmessage)
 140              		.loc 1 62 0
 141 000c BB68     		ldr	r3, [r7, #8]
 142 000e 002B     		cmp	r3, #0
 143 0010 1CD0     		beq	.L7
 144              	.LBB2:
  63:.\DispenserResolver.c ****     {
  64:.\DispenserResolver.c ****         _INTERFRAME_WAIT_;
 145              		.loc 1 64 0
 146 0012 3220     		movs	r0, #50
 147 0014 FFF7FEFF 		bl	CyDelay
  65:.\DispenserResolver.c ****         FOR(uint8 index = 0, index < pmessage->_messagelength, index++)
 148              		.loc 1 65 0
 149 0018 0023     		movs	r3, #0
 150 001a FB73     		strb	r3, [r7, #15]
 151 001c 0FE0     		b	.L9
 152              	.L10:
  66:.\DispenserResolver.c ****         {
  67:.\DispenserResolver.c ****             pmessage->_puartmanager->PutChar(pmessage->_messagetx[index]);
 153              		.loc 1 67 0 discriminator 3
 154 001e BB68     		ldr	r3, [r7, #8]
 155 0020 D3F80831 		ldr	r3, [r3, #264]
 156 0024 9B6B     		ldr	r3, [r3, #56]
 157 0026 FA7B     		ldrb	r2, [r7, #15]	@ zero_extendqisi2
 158 0028 B968     		ldr	r1, [r7, #8]
 159 002a 0A44     		add	r2, r2, r1
 160 002c 1279     		ldrb	r2, [r2, #4]	@ zero_extendqisi2
 161 002e 1046     		mov	r0, r2
ARM GAS  C:\Users\RECEPC~1\AppData\Local\Temp\ccILLrVD.s 			page 5


 162 0030 9847     		blx	r3
  68:.\DispenserResolver.c ****             _INTERWORD_WAIT_;
 163              		.loc 1 68 0 discriminator 3
 164 0032 0120     		movs	r0, #1
 165 0034 FFF7FEFF 		bl	CyDelay
  65:.\DispenserResolver.c ****         FOR(uint8 index = 0, index < pmessage->_messagelength, index++)
 166              		.loc 1 65 0 discriminator 3
 167 0038 FB7B     		ldrb	r3, [r7, #15]	@ zero_extendqisi2
 168 003a 0133     		adds	r3, r3, #1
 169 003c FB73     		strb	r3, [r7, #15]
 170              	.L9:
  65:.\DispenserResolver.c ****         FOR(uint8 index = 0, index < pmessage->_messagelength, index++)
 171              		.loc 1 65 0 is_stmt 0 discriminator 1
 172 003e FB7B     		ldrb	r3, [r7, #15]	@ zero_extendqisi2
 173 0040 9AB2     		uxth	r2, r3
 174 0042 BB68     		ldr	r3, [r7, #8]
 175 0044 5B88     		ldrh	r3, [r3, #2]	@ movhi
 176 0046 9BB2     		uxth	r3, r3
 177 0048 9A42     		cmp	r2, r3
 178 004a E8D3     		bcc	.L10
 179              	.L7:
 180              	.LBE2:
  69:.\DispenserResolver.c ****         }
  70:.\DispenserResolver.c ****     }        
  71:.\DispenserResolver.c **** }
 181              		.loc 1 71 0 is_stmt 1
 182 004c 1037     		adds	r7, r7, #16
 183              		.cfi_def_cfa_offset 8
 184 004e BD46     		mov	sp, r7
 185              		.cfi_def_cfa_register 13
 186              		@ sp needed
 187 0050 80BD     		pop	{r7, pc}
 188              		.cfi_endproc
 189              	.LFE64:
 190              		.size	DispenserUARTSend, .-DispenserUARTSend
 191 0052 00BF     		.text
 192              	.Letext0:
 193              		.file 2 "c:\\program files (x86)\\cypress\\psoc creator\\3.3\\psoc creator\\import\\gnu\\arm\\4.9.
 194              		.file 3 "c:\\program files (x86)\\cypress\\psoc creator\\3.3\\psoc creator\\import\\gnu\\arm\\4.9.
 195              		.file 4 "Generated_Source\\PSoC5/cytypes.h"
 196              		.file 5 ".\\UARTManager.h"
 197              		.file 6 ".\\Encore.h"
 198              		.file 7 "Generated_Source\\PSoC5/core_cm3.h"