ARM GAS  C:\Users\RECEPC~1\AppData\Local\Temp\ccfwlgn1.s 			page 1


   1              		.syntax unified
   2              		.cpu cortex-m3
   3              		.fpu softvfp
   4              		.eabi_attribute 20, 1
   5              		.eabi_attribute 21, 1
   6              		.eabi_attribute 23, 3
   7              		.eabi_attribute 24, 1
   8              		.eabi_attribute 25, 1
   9              		.eabi_attribute 26, 1
  10              		.eabi_attribute 30, 6
  11              		.eabi_attribute 34, 1
  12              		.eabi_attribute 18, 4
  13              		.thumb
  14              		.file	"DisplayUtils.c"
  15              		.text
  16              	.Ltext0:
  17              		.cfi_sections	.debug_frame
  18              		.global	_g_displaystarting
  19              		.data
  20              		.type	_g_displaystarting, %object
  21              		.size	_g_displaystarting, 1
  22              	_g_displaystarting:
  23 0000 01       		.byte	1
  24              		.global	_g_productbuttonmap
  25 0001 000000   		.align	2
  26              		.type	_g_productbuttonmap, %object
  27              		.size	_g_productbuttonmap, 10
  28              	_g_productbuttonmap:
  29 0004 80       		.byte	-128
  30 0005 00       		.byte	0
  31 0006 81       		.byte	-127
  32 0007 01       		.byte	1
  33 0008 7F       		.byte	127
  34 0009 02       		.byte	2
  35 000a B8       		.byte	-72
  36 000b 03       		.byte	3
  37 000c 00       		.byte	0
  38 000d 00       		.byte	0
  39 000e 0000     		.section	.rodata
  40              		.align	2
  41              	.LC0:
  42 0000 AA       		.byte	-86
  43 0001 98       		.byte	-104
  44 0002 CC       		.byte	-52
  45 0003 33       		.byte	51
  46 0004 C3       		.byte	-61
  47 0005 3C       		.byte	60
  48              		.section	.text.DisplayOutputString,"ax",%progbits
  49              		.align	2
  50              		.global	DisplayOutputString
  51              		.thumb
  52              		.thumb_func
  53              		.type	DisplayOutputString, %function
  54              	DisplayOutputString:
  55              	.LFB63:
  56              		.file 1 ".\\DisplayUtils.c"
   1:.\DisplayUtils.c **** /* ========================================
ARM GAS  C:\Users\RECEPC~1\AppData\Local\Temp\ccfwlgn1.s 			page 2


   2:.\DisplayUtils.c ****  *
   3:.\DisplayUtils.c ****  * Copyright INSEPET SISTEMAS, 2016
   4:.\DisplayUtils.c ****  * All Rights Reserved
   5:.\DisplayUtils.c ****  * UNPUBLISHED, LICENSED SOFTWARE.
   6:.\DisplayUtils.c ****  *
   7:.\DisplayUtils.c ****  * CONFIDENTIAL AND PROPRIETARY INFORMATION
   8:.\DisplayUtils.c ****  * WHICH IS THE PROPERTY OF your company.
   9:.\DisplayUtils.c ****  *
  10:.\DisplayUtils.c ****  * ========================================
  11:.\DisplayUtils.c **** @Created By: HIJH
  12:.\DisplayUtils.c **** @Date: Septembre de 2016
  13:.\DisplayUtils.c **** */
  14:.\DisplayUtils.c **** #include <project.h>
  15:.\DisplayUtils.c **** #include "GlobalDefinitions.h"
  16:.\DisplayUtils.c **** #include "Dispenser.h"
  17:.\DisplayUtils.c **** #include "UARTManager.h"
  18:.\DisplayUtils.c **** #include "SinkManager.h"
  19:.\DisplayUtils.c **** #include "SinkObservables.h"
  20:.\DisplayUtils.c **** #include "Printer.h"
  21:.\DisplayUtils.c **** #include "Display.h"
  22:.\DisplayUtils.c **** #include "Eeprom.h"
  23:.\DisplayUtils.c **** #include "Rtc.h"
  24:.\DisplayUtils.c **** 
  25:.\DisplayUtils.c **** bool _g_displaystarting = true;
  26:.\DisplayUtils.c **** 
  27:.\DisplayUtils.c **** DisplayCharacterMap _g_productbuttonmap[] = 
  28:.\DisplayUtils.c **** {
  29:.\DisplayUtils.c ****     { 0x80, 0x00 },
  30:.\DisplayUtils.c ****     { 0x81, 0x01 },
  31:.\DisplayUtils.c ****     { 0x7F, 0x02 },
  32:.\DisplayUtils.c ****     { 0xB8, 0x03 },
  33:.\DisplayUtils.c ****     { 0x00, 0x00 }
  34:.\DisplayUtils.c **** };
  35:.\DisplayUtils.c **** 
  36:.\DisplayUtils.c **** //@Created By: HIJH
  37:.\DisplayUtils.c **** //@Septembre de 2016
  38:.\DisplayUtils.c **** uint16 DisplayOutputString(uint16 xpos, uint16 ypos, char *pbuffer, char8 *pstring, uint16 buffersi
  39:.\DisplayUtils.c **** {
  57              		.loc 1 39 0
  58              		.cfi_startproc
  59              		@ args = 12, pretend = 0, frame = 32
  60              		@ frame_needed = 1, uses_anonymous_args = 0
  61 0000 80B5     		push	{r7, lr}
  62              		.cfi_def_cfa_offset 8
  63              		.cfi_offset 7, -8
  64              		.cfi_offset 14, -4
  65 0002 88B0     		sub	sp, sp, #32
  66              		.cfi_def_cfa_offset 40
  67 0004 00AF     		add	r7, sp, #0
  68              		.cfi_def_cfa_register 7
  69 0006 BA60     		str	r2, [r7, #8]
  70 0008 7B60     		str	r3, [r7, #4]
  71 000a 0346     		mov	r3, r0	@ movhi
  72 000c FB81     		strh	r3, [r7, #14]	@ movhi
  73 000e 0B46     		mov	r3, r1	@ movhi
  74 0010 BB81     		strh	r3, [r7, #12]	@ movhi
  40:.\DisplayUtils.c ****     uint16 retval = 0x0000;
ARM GAS  C:\Users\RECEPC~1\AppData\Local\Temp\ccfwlgn1.s 			page 3


  75              		.loc 1 40 0
  76 0012 0023     		movs	r3, #0
  77 0014 FB83     		strh	r3, [r7, #30]	@ movhi
  41:.\DisplayUtils.c ****     if(pbuffer)
  78              		.loc 1 41 0
  79 0016 BB68     		ldr	r3, [r7, #8]
  80 0018 002B     		cmp	r3, #0
  81 001a 00F08680 		beq	.L2
  82              	.LBB2:
  42:.\DisplayUtils.c ****     {
  43:.\DisplayUtils.c ****         char8 pframedelimiters[] = { 0xAA, 0x98, 0xCC, 0x33, 0xC3, 0x3C };
  83              		.loc 1 43 0
  84 001e 454A     		ldr	r2, .L4
  85 0020 07F11803 		add	r3, r7, #24
  86 0024 1068     		ldr	r0, [r2]	@ unaligned
  87 0026 1860     		str	r0, [r3]	@ unaligned
  88 0028 9288     		ldrh	r2, [r2, #4]	@ unaligned
  89 002a 9A80     		strh	r2, [r3, #4]	@ unaligned
  44:.\DisplayUtils.c ****         //Frame header + Command ID delimiters
  45:.\DisplayUtils.c ****         memcpy(&pbuffer[retval], &pframedelimiters[0], 2);
  90              		.loc 1 45 0
  91 002c FB8B     		ldrh	r3, [r7, #30]
  92 002e BA68     		ldr	r2, [r7, #8]
  93 0030 1A44     		add	r2, r2, r3
  94 0032 07F11803 		add	r3, r7, #24
  95 0036 1046     		mov	r0, r2
  96 0038 1946     		mov	r1, r3
  97 003a 0222     		movs	r2, #2
  98 003c FFF7FEFF 		bl	memcpy
  46:.\DisplayUtils.c ****         retval += 2;
  99              		.loc 1 46 0
 100 0040 FB8B     		ldrh	r3, [r7, #30]	@ movhi
 101 0042 0233     		adds	r3, r3, #2
 102 0044 FB83     		strh	r3, [r7, #30]	@ movhi
  47:.\DisplayUtils.c ****         
  48:.\DisplayUtils.c ****         //X position of the string MSB
  49:.\DisplayUtils.c ****         pbuffer[retval++] = (xpos >> 8) & 0xFF;
 103              		.loc 1 49 0
 104 0046 FB8B     		ldrh	r3, [r7, #30]
 105 0048 5A1C     		adds	r2, r3, #1
 106 004a FA83     		strh	r2, [r7, #30]	@ movhi
 107 004c 1A46     		mov	r2, r3
 108 004e BB68     		ldr	r3, [r7, #8]
 109 0050 1344     		add	r3, r3, r2
 110 0052 FA89     		ldrh	r2, [r7, #14]
 111 0054 120A     		lsrs	r2, r2, #8
 112 0056 92B2     		uxth	r2, r2
 113 0058 D2B2     		uxtb	r2, r2
 114 005a 1A70     		strb	r2, [r3]
  50:.\DisplayUtils.c ****         //X position of the string LSB
  51:.\DisplayUtils.c ****         pbuffer[retval++] = xpos & 0xFF;
 115              		.loc 1 51 0
 116 005c FB8B     		ldrh	r3, [r7, #30]
 117 005e 5A1C     		adds	r2, r3, #1
 118 0060 FA83     		strh	r2, [r7, #30]	@ movhi
 119 0062 1A46     		mov	r2, r3
 120 0064 BB68     		ldr	r3, [r7, #8]
ARM GAS  C:\Users\RECEPC~1\AppData\Local\Temp\ccfwlgn1.s 			page 4


 121 0066 1344     		add	r3, r3, r2
 122 0068 FA89     		ldrh	r2, [r7, #14]	@ movhi
 123 006a D2B2     		uxtb	r2, r2
 124 006c 1A70     		strb	r2, [r3]
  52:.\DisplayUtils.c ****         //Y position of the string MSB
  53:.\DisplayUtils.c ****         pbuffer[retval++] = (ypos >> 8) & 0xFF;
 125              		.loc 1 53 0
 126 006e FB8B     		ldrh	r3, [r7, #30]
 127 0070 5A1C     		adds	r2, r3, #1
 128 0072 FA83     		strh	r2, [r7, #30]	@ movhi
 129 0074 1A46     		mov	r2, r3
 130 0076 BB68     		ldr	r3, [r7, #8]
 131 0078 1344     		add	r3, r3, r2
 132 007a BA89     		ldrh	r2, [r7, #12]
 133 007c 120A     		lsrs	r2, r2, #8
 134 007e 92B2     		uxth	r2, r2
 135 0080 D2B2     		uxtb	r2, r2
 136 0082 1A70     		strb	r2, [r3]
  54:.\DisplayUtils.c ****         //Y position of the string LSB
  55:.\DisplayUtils.c ****         pbuffer[retval++] = ypos & 0xFF;
 137              		.loc 1 55 0
 138 0084 FB8B     		ldrh	r3, [r7, #30]
 139 0086 5A1C     		adds	r2, r3, #1
 140 0088 FA83     		strh	r2, [r7, #30]	@ movhi
 141 008a 1A46     		mov	r2, r3
 142 008c BB68     		ldr	r3, [r7, #8]
 143 008e 1344     		add	r3, r3, r2
 144 0090 BA89     		ldrh	r2, [r7, #12]	@ movhi
 145 0092 D2B2     		uxtb	r2, r2
 146 0094 1A70     		strb	r2, [r3]
  56:.\DisplayUtils.c ****         
  57:.\DisplayUtils.c ****         //Transparent Background: 0x85
  58:.\DisplayUtils.c ****         //Opaque Background: 0xC5
  59:.\DisplayUtils.c ****         char8 punk[]  = { 0x20 | (fontdata._size & 0x0F), fontdata._opaquebackground, 0x02, (fontda
 147              		.loc 1 59 0
 148 0096 97F82C30 		ldrb	r3, [r7, #44]	@ zero_extendqisi2
 149 009a DBB2     		uxtb	r3, r3
 150 009c 03F00F03 		and	r3, r3, #15
 151 00a0 DBB2     		uxtb	r3, r3
 152 00a2 43F02003 		orr	r3, r3, #32
 153 00a6 DBB2     		uxtb	r3, r3
 154 00a8 DBB2     		uxtb	r3, r3
 155 00aa 3B74     		strb	r3, [r7, #16]
 156 00ac 97F82E30 		ldrb	r3, [r7, #46]	@ zero_extendqisi2
 157 00b0 7B74     		strb	r3, [r7, #17]
 158 00b2 0223     		movs	r3, #2
 159 00b4 BB74     		strb	r3, [r7, #18]
 160 00b6 7B8E     		ldrh	r3, [r7, #50]
 161 00b8 1B0A     		lsrs	r3, r3, #8
 162 00ba 9BB2     		uxth	r3, r3
 163 00bc DBB2     		uxtb	r3, r3
 164 00be FB74     		strb	r3, [r7, #19]
 165 00c0 7B8E     		ldrh	r3, [r7, #50]
 166 00c2 DBB2     		uxtb	r3, r3
 167 00c4 3B75     		strb	r3, [r7, #20]
 168 00c6 3B8E     		ldrh	r3, [r7, #48]
 169 00c8 1B0A     		lsrs	r3, r3, #8
ARM GAS  C:\Users\RECEPC~1\AppData\Local\Temp\ccfwlgn1.s 			page 5


 170 00ca 9BB2     		uxth	r3, r3
 171 00cc DBB2     		uxtb	r3, r3
 172 00ce 7B75     		strb	r3, [r7, #21]
 173 00d0 3B8E     		ldrh	r3, [r7, #48]
 174 00d2 DBB2     		uxtb	r3, r3
 175 00d4 BB75     		strb	r3, [r7, #22]
  60:.\DisplayUtils.c ****         memcpy(&pbuffer[retval], punk, sizeof(punk));
 176              		.loc 1 60 0
 177 00d6 FB8B     		ldrh	r3, [r7, #30]
 178 00d8 BA68     		ldr	r2, [r7, #8]
 179 00da 1344     		add	r3, r3, r2
 180 00dc 1A46     		mov	r2, r3
 181 00de 07F11003 		add	r3, r7, #16
 182 00e2 1868     		ldr	r0, [r3]	@ unaligned
 183 00e4 1060     		str	r0, [r2]	@ unaligned
 184 00e6 9988     		ldrh	r1, [r3, #4]	@ unaligned
 185 00e8 9B79     		ldrb	r3, [r3, #6]
 186 00ea 9180     		strh	r1, [r2, #4]	@ unaligned
 187 00ec 9371     		strb	r3, [r2, #6]
  61:.\DisplayUtils.c ****         retval += sizeof(punk);
 188              		.loc 1 61 0
 189 00ee FB8B     		ldrh	r3, [r7, #30]	@ movhi
 190 00f0 0733     		adds	r3, r3, #7
 191 00f2 FB83     		strh	r3, [r7, #30]	@ movhi
  62:.\DisplayUtils.c **** 
  63:.\DisplayUtils.c ****         //Copying the string into the buffer
  64:.\DisplayUtils.c ****         memcpy(&pbuffer[retval], pstring, buffersize);
 192              		.loc 1 64 0
 193 00f4 FB8B     		ldrh	r3, [r7, #30]
 194 00f6 BA68     		ldr	r2, [r7, #8]
 195 00f8 1A44     		add	r2, r2, r3
 196 00fa 3B8D     		ldrh	r3, [r7, #40]
 197 00fc 1046     		mov	r0, r2
 198 00fe 7968     		ldr	r1, [r7, #4]
 199 0100 1A46     		mov	r2, r3
 200 0102 FFF7FEFF 		bl	memcpy
  65:.\DisplayUtils.c ****         retval += buffersize;
 201              		.loc 1 65 0
 202 0106 FA8B     		ldrh	r2, [r7, #30]	@ movhi
 203 0108 3B8D     		ldrh	r3, [r7, #40]	@ movhi
 204 010a 1344     		add	r3, r3, r2
 205 010c FB83     		strh	r3, [r7, #30]	@ movhi
  66:.\DisplayUtils.c ****         //Frame foot delimiter
  67:.\DisplayUtils.c ****         memcpy(&pbuffer[retval], &pframedelimiters[2], 4);
 206              		.loc 1 67 0
 207 010e FB8B     		ldrh	r3, [r7, #30]
 208 0110 BA68     		ldr	r2, [r7, #8]
 209 0112 1A44     		add	r2, r2, r3
 210 0114 07F11803 		add	r3, r7, #24
 211 0118 0233     		adds	r3, r3, #2
 212 011a 1046     		mov	r0, r2
 213 011c 1946     		mov	r1, r3
 214 011e 0422     		movs	r2, #4
 215 0120 FFF7FEFF 		bl	memcpy
  68:.\DisplayUtils.c ****         retval += 4;
 216              		.loc 1 68 0
 217 0124 FB8B     		ldrh	r3, [r7, #30]	@ movhi
ARM GAS  C:\Users\RECEPC~1\AppData\Local\Temp\ccfwlgn1.s 			page 6


 218 0126 0433     		adds	r3, r3, #4
 219 0128 FB83     		strh	r3, [r7, #30]	@ movhi
 220              	.L2:
 221              	.LBE2:
  69:.\DisplayUtils.c ****     }
  70:.\DisplayUtils.c ****     return retval;
 222              		.loc 1 70 0
 223 012a FB8B     		ldrh	r3, [r7, #30]
  71:.\DisplayUtils.c **** }
 224              		.loc 1 71 0
 225 012c 1846     		mov	r0, r3
 226 012e 2037     		adds	r7, r7, #32
 227              		.cfi_def_cfa_offset 8
 228 0130 BD46     		mov	sp, r7
 229              		.cfi_def_cfa_register 13
 230              		@ sp needed
 231 0132 80BD     		pop	{r7, pc}
 232              	.L5:
 233              		.align	2
 234              	.L4:
 235 0134 00000000 		.word	.LC0
 236              		.cfi_endproc
 237              	.LFE63:
 238              		.size	DisplayOutputString, .-DisplayOutputString
 239              		.section	.text.ParseDisplayFlow,"ax",%progbits
 240              		.align	2
 241              		.global	ParseDisplayFlow
 242              		.thumb
 243              		.thumb_func
 244              		.type	ParseDisplayFlow, %function
 245              	ParseDisplayFlow:
 246              	.LFB64:
  72:.\DisplayUtils.c **** 
  73:.\DisplayUtils.c **** //@Created by: HIJH
  74:.\DisplayUtils.c **** //@Date: Septembre de 2016
  75:.\DisplayUtils.c **** //Parses the display flow matrix and determines which screen is next
  76:.\DisplayUtils.c **** //depending on the predefined conditions.
  77:.\DisplayUtils.c **** //It also checks on the current screen for either display, this parser determines whether the curre
  78:.\DisplayUtils.c **** //screen needs to change as consequence of an external state change. For instance, if a PUMP state 
  79:.\DisplayUtils.c **** //maybe it requires that the display shows another different screen.
  80:.\DisplayUtils.c **** void ParseDisplayFlow(void *pparam)
  81:.\DisplayUtils.c **** {
 247              		.loc 1 81 0
 248              		.cfi_startproc
 249              		@ args = 0, pretend = 0, frame = 24
 250              		@ frame_needed = 1, uses_anonymous_args = 0
 251              		@ link register save eliminated.
 252 0000 80B4     		push	{r7}
 253              		.cfi_def_cfa_offset 4
 254              		.cfi_offset 7, -4
 255 0002 87B0     		sub	sp, sp, #28
 256              		.cfi_def_cfa_offset 32
 257 0004 00AF     		add	r7, sp, #0
 258              		.cfi_def_cfa_register 7
 259 0006 7860     		str	r0, [r7, #4]
  82:.\DisplayUtils.c ****     PDISPLAYLAYOUTPTR pdisplay = (PDISPLAYLAYOUTPTR)pparam;
 260              		.loc 1 82 0
ARM GAS  C:\Users\RECEPC~1\AppData\Local\Temp\ccfwlgn1.s 			page 7


 261 0008 7B68     		ldr	r3, [r7, #4]
 262 000a FB60     		str	r3, [r7, #12]
  83:.\DisplayUtils.c ****     PDISPLAYFLOWPTR pdispflow = pdisplay->_preferenceflow;
 263              		.loc 1 83 0
 264 000c FB68     		ldr	r3, [r7, #12]
 265 000e 5B69     		ldr	r3, [r3, #20]
 266 0010 7B61     		str	r3, [r7, #20]
  84:.\DisplayUtils.c ****     while(pdispflow->_scrid != DISPLAY_NULL)
 267              		.loc 1 84 0
 268 0012 3FE0     		b	.L7
 269              	.L15:
  85:.\DisplayUtils.c ****     {        
  86:.\DisplayUtils.c ****         if(pdispflow->_scrid == pdisplay->_pcurrflow->_scrid && 
 270              		.loc 1 86 0
 271 0014 7B69     		ldr	r3, [r7, #20]
 272 0016 1A78     		ldrb	r2, [r3]	@ zero_extendqisi2
 273 0018 FB68     		ldr	r3, [r7, #12]
 274 001a 1B69     		ldr	r3, [r3, #16]
 275 001c 1B78     		ldrb	r3, [r3]	@ zero_extendqisi2
 276 001e 9A42     		cmp	r2, r3
 277 0020 35D1     		bne	.L8
  87:.\DisplayUtils.c ****             pdispflow->_parentscrid == pdisplay->_pcurrflow->_parentscrid && 
 278              		.loc 1 87 0 discriminator 1
 279 0022 7B69     		ldr	r3, [r7, #20]
 280 0024 5A78     		ldrb	r2, [r3, #1]	@ zero_extendqisi2
 281 0026 FB68     		ldr	r3, [r7, #12]
 282 0028 1B69     		ldr	r3, [r3, #16]
 283 002a 5B78     		ldrb	r3, [r3, #1]	@ zero_extendqisi2
  86:.\DisplayUtils.c ****             pdispflow->_parentscrid == pdisplay->_pcurrflow->_parentscrid && 
 284              		.loc 1 86 0 discriminator 1
 285 002c 9A42     		cmp	r2, r3
 286 002e 2ED1     		bne	.L8
  88:.\DisplayUtils.c ****             pdispflow->_parentcode == pdisplay->_pcurrflow->_parentcode)
 287              		.loc 1 88 0
 288 0030 7B69     		ldr	r3, [r7, #20]
 289 0032 9A78     		ldrb	r2, [r3, #2]	@ zero_extendqisi2
 290 0034 FB68     		ldr	r3, [r7, #12]
 291 0036 1B69     		ldr	r3, [r3, #16]
 292 0038 9B78     		ldrb	r3, [r3, #2]	@ zero_extendqisi2
  87:.\DisplayUtils.c ****             pdispflow->_parentscrid == pdisplay->_pcurrflow->_parentscrid && 
 293              		.loc 1 87 0
 294 003a 9A42     		cmp	r2, r3
 295 003c 27D1     		bne	.L8
 296              	.LBB3:
  89:.\DisplayUtils.c ****         {
  90:.\DisplayUtils.c ****             FOR(uint8 index = 0, index < _MAX_DISPLAY_PATHS_, index++)
 297              		.loc 1 90 0
 298 003e 0023     		movs	r3, #0
 299 0040 FB74     		strb	r3, [r7, #19]
 300 0042 20E0     		b	.L9
 301              	.L13:
  91:.\DisplayUtils.c ****             {
  92:.\DisplayUtils.c ****                 if(pdispflow->_pathcodes[index] == pdisplay->_currscrcode)
 302              		.loc 1 92 0
 303 0044 FB7C     		ldrb	r3, [r7, #19]	@ zero_extendqisi2
 304 0046 7A69     		ldr	r2, [r7, #20]
 305 0048 1344     		add	r3, r3, r2
ARM GAS  C:\Users\RECEPC~1\AppData\Local\Temp\ccfwlgn1.s 			page 8


 306 004a DA79     		ldrb	r2, [r3, #7]	@ zero_extendqisi2
 307 004c FB68     		ldr	r3, [r7, #12]
 308 004e DB78     		ldrb	r3, [r3, #3]	@ zero_extendqisi2
 309 0050 9A42     		cmp	r2, r3
 310 0052 06D1     		bne	.L10
  93:.\DisplayUtils.c ****                 {
  94:.\DisplayUtils.c ****                     pdisplay->_nextscrid = pdispflow->_pathnodes[index];
 311              		.loc 1 94 0
 312 0054 FB7C     		ldrb	r3, [r7, #19]	@ zero_extendqisi2
 313 0056 7A69     		ldr	r2, [r7, #20]
 314 0058 1344     		add	r3, r3, r2
 315 005a 5A7B     		ldrb	r2, [r3, #13]	@ zero_extendqisi2
 316 005c FB68     		ldr	r3, [r7, #12]
 317 005e 9A70     		strb	r2, [r3, #2]
  95:.\DisplayUtils.c ****                     break;
 318              		.loc 1 95 0
 319 0060 14E0     		b	.L11
 320              	.L10:
  96:.\DisplayUtils.c ****                 }
  97:.\DisplayUtils.c ****                 if(pdispflow->_statecodes[index] == pdisplay->_currentstate)
 321              		.loc 1 97 0
 322 0062 FB7C     		ldrb	r3, [r7, #19]	@ zero_extendqisi2
 323 0064 7A69     		ldr	r2, [r7, #20]
 324 0066 1344     		add	r3, r3, r2
 325 0068 DA7C     		ldrb	r2, [r3, #19]	@ zero_extendqisi2
 326 006a FB68     		ldr	r3, [r7, #12]
 327 006c 1B79     		ldrb	r3, [r3, #4]	@ zero_extendqisi2
 328 006e 9A42     		cmp	r2, r3
 329 0070 06D1     		bne	.L12
  98:.\DisplayUtils.c ****                 {
  99:.\DisplayUtils.c ****                     pdisplay->_statechangescrid = pdispflow->_statenodes[index];
 330              		.loc 1 99 0
 331 0072 FB7C     		ldrb	r3, [r7, #19]	@ zero_extendqisi2
 332 0074 7A69     		ldr	r2, [r7, #20]
 333 0076 1344     		add	r3, r3, r2
 334 0078 5A7E     		ldrb	r2, [r3, #25]	@ zero_extendqisi2
 335 007a FB68     		ldr	r3, [r7, #12]
 336 007c 5A71     		strb	r2, [r3, #5]
 100:.\DisplayUtils.c ****                     break;
 337              		.loc 1 100 0
 338 007e 05E0     		b	.L11
 339              	.L12:
  90:.\DisplayUtils.c ****             {
 340              		.loc 1 90 0 discriminator 2
 341 0080 FB7C     		ldrb	r3, [r7, #19]	@ zero_extendqisi2
 342 0082 0133     		adds	r3, r3, #1
 343 0084 FB74     		strb	r3, [r7, #19]
 344              	.L9:
  90:.\DisplayUtils.c ****             {
 345              		.loc 1 90 0 is_stmt 0 discriminator 1
 346 0086 FB7C     		ldrb	r3, [r7, #19]	@ zero_extendqisi2
 347 0088 052B     		cmp	r3, #5
 348 008a DBD9     		bls	.L13
 349              	.L11:
 101:.\DisplayUtils.c ****                 }
 102:.\DisplayUtils.c ****             }
 103:.\DisplayUtils.c ****             break;
ARM GAS  C:\Users\RECEPC~1\AppData\Local\Temp\ccfwlgn1.s 			page 9


 350              		.loc 1 103 0 is_stmt 1
 351 008c 06E0     		b	.L6
 352              	.L8:
 353              	.LBE3:
 104:.\DisplayUtils.c ****         }
 105:.\DisplayUtils.c ****         pdispflow++;
 354              		.loc 1 105 0
 355 008e 7B69     		ldr	r3, [r7, #20]
 356 0090 4433     		adds	r3, r3, #68
 357 0092 7B61     		str	r3, [r7, #20]
 358              	.L7:
  84:.\DisplayUtils.c ****     {        
 359              		.loc 1 84 0
 360 0094 7B69     		ldr	r3, [r7, #20]
 361 0096 1B78     		ldrb	r3, [r3]	@ zero_extendqisi2
 362 0098 FF2B     		cmp	r3, #255
 363 009a BBD1     		bne	.L15
 364              	.L6:
 106:.\DisplayUtils.c ****     }
 107:.\DisplayUtils.c **** }
 365              		.loc 1 107 0
 366 009c 1C37     		adds	r7, r7, #28
 367              		.cfi_def_cfa_offset 4
 368 009e BD46     		mov	sp, r7
 369              		.cfi_def_cfa_register 13
 370              		@ sp needed
 371 00a0 5DF8047B 		ldr	r7, [sp], #4
 372              		.cfi_restore 7
 373              		.cfi_def_cfa_offset 0
 374 00a4 7047     		bx	lr
 375              		.cfi_endproc
 376              	.LFE64:
 377              		.size	ParseDisplayFlow, .-ParseDisplayFlow
 378 00a6 00BF     		.section	.text.DisplayFlowInputValidator,"ax",%progbits
 379              		.align	2
 380              		.global	DisplayFlowInputValidator
 381              		.thumb
 382              		.thumb_func
 383              		.type	DisplayFlowInputValidator, %function
 384              	DisplayFlowInputValidator:
 385              	.LFB65:
 108:.\DisplayUtils.c **** 
 109:.\DisplayUtils.c **** //@Created by: HIJH
 110:.\DisplayUtils.c **** //@Date: Septembre de 2016
 111:.\DisplayUtils.c **** //This validator checks whether data has been entered into the InpupBox
 112:.\DisplayUtils.c **** FPTRINPUTVALIDATOR DisplayFlowInputValidator(void *pparam)
 113:.\DisplayUtils.c **** {
 386              		.loc 1 113 0
 387              		.cfi_startproc
 388              		@ args = 0, pretend = 0, frame = 24
 389              		@ frame_needed = 1, uses_anonymous_args = 0
 390              		@ link register save eliminated.
 391 0000 80B4     		push	{r7}
 392              		.cfi_def_cfa_offset 4
 393              		.cfi_offset 7, -4
 394 0002 87B0     		sub	sp, sp, #28
 395              		.cfi_def_cfa_offset 32
ARM GAS  C:\Users\RECEPC~1\AppData\Local\Temp\ccfwlgn1.s 			page 10


 396 0004 00AF     		add	r7, sp, #0
 397              		.cfi_def_cfa_register 7
 398 0006 7860     		str	r0, [r7, #4]
 114:.\DisplayUtils.c ****     FPTRINPUTVALIDATOR pretval = NULL;
 399              		.loc 1 114 0
 400 0008 0023     		movs	r3, #0
 401 000a 7B61     		str	r3, [r7, #20]
 115:.\DisplayUtils.c ****     PDISPLAYLAYOUTPTR pdisplay = (PDISPLAYLAYOUTPTR)pparam;
 402              		.loc 1 115 0
 403 000c 7B68     		ldr	r3, [r7, #4]
 404 000e FB60     		str	r3, [r7, #12]
 116:.\DisplayUtils.c ****     PDISPLAYFLOWPTR pdispflow = pdisplay->_preferenceflow;
 405              		.loc 1 116 0
 406 0010 FB68     		ldr	r3, [r7, #12]
 407 0012 5B69     		ldr	r3, [r3, #20]
 408 0014 3B61     		str	r3, [r7, #16]
 117:.\DisplayUtils.c ****     while(pdispflow->_scrid != DISPLAY_NULL)
 409              		.loc 1 117 0
 410 0016 1BE0     		b	.L17
 411              	.L20:
 118:.\DisplayUtils.c ****     {
 119:.\DisplayUtils.c ****         if(pdispflow->_scrid == pdisplay->_pcurrflow->_scrid && 
 412              		.loc 1 119 0
 413 0018 3B69     		ldr	r3, [r7, #16]
 414 001a 1A78     		ldrb	r2, [r3]	@ zero_extendqisi2
 415 001c FB68     		ldr	r3, [r7, #12]
 416 001e 1B69     		ldr	r3, [r3, #16]
 417 0020 1B78     		ldrb	r3, [r3]	@ zero_extendqisi2
 418 0022 9A42     		cmp	r2, r3
 419 0024 11D1     		bne	.L18
 120:.\DisplayUtils.c ****             pdispflow->_parentscrid == pdisplay->_pcurrflow->_parentscrid && 
 420              		.loc 1 120 0 discriminator 1
 421 0026 3B69     		ldr	r3, [r7, #16]
 422 0028 5A78     		ldrb	r2, [r3, #1]	@ zero_extendqisi2
 423 002a FB68     		ldr	r3, [r7, #12]
 424 002c 1B69     		ldr	r3, [r3, #16]
 425 002e 5B78     		ldrb	r3, [r3, #1]	@ zero_extendqisi2
 119:.\DisplayUtils.c ****             pdispflow->_parentscrid == pdisplay->_pcurrflow->_parentscrid && 
 426              		.loc 1 119 0 discriminator 1
 427 0030 9A42     		cmp	r2, r3
 428 0032 0AD1     		bne	.L18
 121:.\DisplayUtils.c ****             pdispflow->_parentcode == pdisplay->_pcurrflow->_parentcode)
 429              		.loc 1 121 0
 430 0034 3B69     		ldr	r3, [r7, #16]
 431 0036 9A78     		ldrb	r2, [r3, #2]	@ zero_extendqisi2
 432 0038 FB68     		ldr	r3, [r7, #12]
 433 003a 1B69     		ldr	r3, [r3, #16]
 434 003c 9B78     		ldrb	r3, [r3, #2]	@ zero_extendqisi2
 120:.\DisplayUtils.c ****             pdispflow->_parentscrid == pdisplay->_pcurrflow->_parentscrid && 
 435              		.loc 1 120 0
 436 003e 9A42     		cmp	r2, r3
 437 0040 03D1     		bne	.L18
 122:.\DisplayUtils.c ****         {
 123:.\DisplayUtils.c ****             pretval = pdispflow->_inputvalidator;
 438              		.loc 1 123 0
 439 0042 3B69     		ldr	r3, [r7, #16]
 440 0044 9B6A     		ldr	r3, [r3, #40]
ARM GAS  C:\Users\RECEPC~1\AppData\Local\Temp\ccfwlgn1.s 			page 11


 441 0046 7B61     		str	r3, [r7, #20]
 124:.\DisplayUtils.c ****             break;
 442              		.loc 1 124 0
 443 0048 06E0     		b	.L19
 444              	.L18:
 125:.\DisplayUtils.c ****         }
 126:.\DisplayUtils.c ****         pdispflow++;
 445              		.loc 1 126 0
 446 004a 3B69     		ldr	r3, [r7, #16]
 447 004c 4433     		adds	r3, r3, #68
 448 004e 3B61     		str	r3, [r7, #16]
 449              	.L17:
 117:.\DisplayUtils.c ****     {
 450              		.loc 1 117 0
 451 0050 3B69     		ldr	r3, [r7, #16]
 452 0052 1B78     		ldrb	r3, [r3]	@ zero_extendqisi2
 453 0054 FF2B     		cmp	r3, #255
 454 0056 DFD1     		bne	.L20
 455              	.L19:
 127:.\DisplayUtils.c ****     }
 128:.\DisplayUtils.c ****     return pretval;
 456              		.loc 1 128 0
 457 0058 7B69     		ldr	r3, [r7, #20]
 129:.\DisplayUtils.c **** }
 458              		.loc 1 129 0
 459 005a 1846     		mov	r0, r3
 460 005c 1C37     		adds	r7, r7, #28
 461              		.cfi_def_cfa_offset 4
 462 005e BD46     		mov	sp, r7
 463              		.cfi_def_cfa_register 13
 464              		@ sp needed
 465 0060 5DF8047B 		ldr	r7, [sp], #4
 466              		.cfi_restore 7
 467              		.cfi_def_cfa_offset 0
 468 0064 7047     		bx	lr
 469              		.cfi_endproc
 470              	.LFE65:
 471              		.size	DisplayFlowInputValidator, .-DisplayFlowInputValidator
 472 0066 00BF     		.section	.text.DisplayFlowInputHandler,"ax",%progbits
 473              		.align	2
 474              		.global	DisplayFlowInputHandler
 475              		.thumb
 476              		.thumb_func
 477              		.type	DisplayFlowInputHandler, %function
 478              	DisplayFlowInputHandler:
 479              	.LFB66:
 130:.\DisplayUtils.c **** 
 131:.\DisplayUtils.c **** //@Created by: HIJH
 132:.\DisplayUtils.c **** //@Date: Septembre de 2016
 133:.\DisplayUtils.c **** //This is the core handler for the input processing. It manages all the incoming codes from the scr
 134:.\DisplayUtils.c **** //and map them to the valid ASCII. It also validates the inputbox size and manages the cleanup.
 135:.\DisplayUtils.c **** FPTRINPUTHANDLER DisplayFlowInputHandler(void *pparam)
 136:.\DisplayUtils.c **** {
 480              		.loc 1 136 0
 481              		.cfi_startproc
 482              		@ args = 0, pretend = 0, frame = 24
 483              		@ frame_needed = 1, uses_anonymous_args = 0
ARM GAS  C:\Users\RECEPC~1\AppData\Local\Temp\ccfwlgn1.s 			page 12


 484              		@ link register save eliminated.
 485 0000 80B4     		push	{r7}
 486              		.cfi_def_cfa_offset 4
 487              		.cfi_offset 7, -4
 488 0002 87B0     		sub	sp, sp, #28
 489              		.cfi_def_cfa_offset 32
 490 0004 00AF     		add	r7, sp, #0
 491              		.cfi_def_cfa_register 7
 492 0006 7860     		str	r0, [r7, #4]
 137:.\DisplayUtils.c ****     FPTRINPUTHANDLER pretval = NULL;
 493              		.loc 1 137 0
 494 0008 0023     		movs	r3, #0
 495 000a 7B61     		str	r3, [r7, #20]
 138:.\DisplayUtils.c ****     PDISPLAYLAYOUTPTR pdisplay = (PDISPLAYLAYOUTPTR)pparam;
 496              		.loc 1 138 0
 497 000c 7B68     		ldr	r3, [r7, #4]
 498 000e FB60     		str	r3, [r7, #12]
 139:.\DisplayUtils.c ****     PDISPLAYFLOWPTR pdispflow = pdisplay->_preferenceflow;    
 499              		.loc 1 139 0
 500 0010 FB68     		ldr	r3, [r7, #12]
 501 0012 5B69     		ldr	r3, [r3, #20]
 502 0014 3B61     		str	r3, [r7, #16]
 140:.\DisplayUtils.c ****     while(pdispflow->_scrid != DISPLAY_NULL)
 503              		.loc 1 140 0
 504 0016 1BE0     		b	.L23
 505              	.L26:
 141:.\DisplayUtils.c ****     {
 142:.\DisplayUtils.c ****         if(pdispflow->_scrid == pdisplay->_pcurrflow->_scrid && 
 506              		.loc 1 142 0
 507 0018 3B69     		ldr	r3, [r7, #16]
 508 001a 1A78     		ldrb	r2, [r3]	@ zero_extendqisi2
 509 001c FB68     		ldr	r3, [r7, #12]
 510 001e 1B69     		ldr	r3, [r3, #16]
 511 0020 1B78     		ldrb	r3, [r3]	@ zero_extendqisi2
 512 0022 9A42     		cmp	r2, r3
 513 0024 11D1     		bne	.L24
 143:.\DisplayUtils.c ****             pdispflow->_parentscrid == pdisplay->_pcurrflow->_parentscrid && 
 514              		.loc 1 143 0 discriminator 1
 515 0026 3B69     		ldr	r3, [r7, #16]
 516 0028 5A78     		ldrb	r2, [r3, #1]	@ zero_extendqisi2
 517 002a FB68     		ldr	r3, [r7, #12]
 518 002c 1B69     		ldr	r3, [r3, #16]
 519 002e 5B78     		ldrb	r3, [r3, #1]	@ zero_extendqisi2
 142:.\DisplayUtils.c ****             pdispflow->_parentscrid == pdisplay->_pcurrflow->_parentscrid && 
 520              		.loc 1 142 0 discriminator 1
 521 0030 9A42     		cmp	r2, r3
 522 0032 0AD1     		bne	.L24
 144:.\DisplayUtils.c ****             pdispflow->_parentcode == pdisplay->_pcurrflow->_parentcode)
 523              		.loc 1 144 0
 524 0034 3B69     		ldr	r3, [r7, #16]
 525 0036 9A78     		ldrb	r2, [r3, #2]	@ zero_extendqisi2
 526 0038 FB68     		ldr	r3, [r7, #12]
 527 003a 1B69     		ldr	r3, [r3, #16]
 528 003c 9B78     		ldrb	r3, [r3, #2]	@ zero_extendqisi2
 143:.\DisplayUtils.c ****             pdispflow->_parentscrid == pdisplay->_pcurrflow->_parentscrid && 
 529              		.loc 1 143 0
 530 003e 9A42     		cmp	r2, r3
ARM GAS  C:\Users\RECEPC~1\AppData\Local\Temp\ccfwlgn1.s 			page 13


 531 0040 03D1     		bne	.L24
 145:.\DisplayUtils.c ****         {
 146:.\DisplayUtils.c ****             pretval = pdispflow->_inputhandler;
 532              		.loc 1 146 0
 533 0042 3B69     		ldr	r3, [r7, #16]
 534 0044 5B6A     		ldr	r3, [r3, #36]
 535 0046 7B61     		str	r3, [r7, #20]
 147:.\DisplayUtils.c ****             break;
 536              		.loc 1 147 0
 537 0048 06E0     		b	.L25
 538              	.L24:
 148:.\DisplayUtils.c ****         }
 149:.\DisplayUtils.c ****         pdispflow++;
 539              		.loc 1 149 0
 540 004a 3B69     		ldr	r3, [r7, #16]
 541 004c 4433     		adds	r3, r3, #68
 542 004e 3B61     		str	r3, [r7, #16]
 543              	.L23:
 140:.\DisplayUtils.c ****     {
 544              		.loc 1 140 0
 545 0050 3B69     		ldr	r3, [r7, #16]
 546 0052 1B78     		ldrb	r3, [r3]	@ zero_extendqisi2
 547 0054 FF2B     		cmp	r3, #255
 548 0056 DFD1     		bne	.L26
 549              	.L25:
 150:.\DisplayUtils.c ****     }
 151:.\DisplayUtils.c ****     return pretval;
 550              		.loc 1 151 0
 551 0058 7B69     		ldr	r3, [r7, #20]
 152:.\DisplayUtils.c **** }
 552              		.loc 1 152 0
 553 005a 1846     		mov	r0, r3
 554 005c 1C37     		adds	r7, r7, #28
 555              		.cfi_def_cfa_offset 4
 556 005e BD46     		mov	sp, r7
 557              		.cfi_def_cfa_register 13
 558              		@ sp needed
 559 0060 5DF8047B 		ldr	r7, [sp], #4
 560              		.cfi_restore 7
 561              		.cfi_def_cfa_offset 0
 562 0064 7047     		bx	lr
 563              		.cfi_endproc
 564              	.LFE66:
 565              		.size	DisplayFlowInputHandler, .-DisplayFlowInputHandler
 566 0066 00BF     		.section	.text.DisplayFlowDecorator,"ax",%progbits
 567              		.align	2
 568              		.global	DisplayFlowDecorator
 569              		.thumb
 570              		.thumb_func
 571              		.type	DisplayFlowDecorator, %function
 572              	DisplayFlowDecorator:
 573              	.LFB67:
 153:.\DisplayUtils.c **** 
 154:.\DisplayUtils.c **** //@Created by: HIJH
 155:.\DisplayUtils.c **** //@Date: Septembre de 2016
 156:.\DisplayUtils.c **** //Retrieves the Decorator for the currently selected screen
 157:.\DisplayUtils.c **** FPTRDECORATOR DisplayFlowDecorator(void *pparam)
ARM GAS  C:\Users\RECEPC~1\AppData\Local\Temp\ccfwlgn1.s 			page 14


 158:.\DisplayUtils.c **** {
 574              		.loc 1 158 0
 575              		.cfi_startproc
 576              		@ args = 0, pretend = 0, frame = 24
 577              		@ frame_needed = 1, uses_anonymous_args = 0
 578              		@ link register save eliminated.
 579 0000 80B4     		push	{r7}
 580              		.cfi_def_cfa_offset 4
 581              		.cfi_offset 7, -4
 582 0002 87B0     		sub	sp, sp, #28
 583              		.cfi_def_cfa_offset 32
 584 0004 00AF     		add	r7, sp, #0
 585              		.cfi_def_cfa_register 7
 586 0006 7860     		str	r0, [r7, #4]
 159:.\DisplayUtils.c ****     FPTRDECORATOR pretval = NULL;
 587              		.loc 1 159 0
 588 0008 0023     		movs	r3, #0
 589 000a 7B61     		str	r3, [r7, #20]
 160:.\DisplayUtils.c ****     PDISPLAYLAYOUTPTR pdisplay = (PDISPLAYLAYOUTPTR)pparam;
 590              		.loc 1 160 0
 591 000c 7B68     		ldr	r3, [r7, #4]
 592 000e FB60     		str	r3, [r7, #12]
 161:.\DisplayUtils.c ****     PDISPLAYFLOWPTR pdispflow = pdisplay->_preferenceflow;
 593              		.loc 1 161 0
 594 0010 FB68     		ldr	r3, [r7, #12]
 595 0012 5B69     		ldr	r3, [r3, #20]
 596 0014 3B61     		str	r3, [r7, #16]
 162:.\DisplayUtils.c ****     while(pdispflow->_scrid != DISPLAY_NULL)
 597              		.loc 1 162 0
 598 0016 1BE0     		b	.L29
 599              	.L32:
 163:.\DisplayUtils.c ****     {
 164:.\DisplayUtils.c ****         if(pdispflow->_scrid == pdisplay->_pcurrflow->_scrid && 
 600              		.loc 1 164 0
 601 0018 3B69     		ldr	r3, [r7, #16]
 602 001a 1A78     		ldrb	r2, [r3]	@ zero_extendqisi2
 603 001c FB68     		ldr	r3, [r7, #12]
 604 001e 1B69     		ldr	r3, [r3, #16]
 605 0020 1B78     		ldrb	r3, [r3]	@ zero_extendqisi2
 606 0022 9A42     		cmp	r2, r3
 607 0024 11D1     		bne	.L30
 165:.\DisplayUtils.c ****             pdispflow->_parentscrid == pdisplay->_pcurrflow->_parentscrid && 
 608              		.loc 1 165 0 discriminator 1
 609 0026 3B69     		ldr	r3, [r7, #16]
 610 0028 5A78     		ldrb	r2, [r3, #1]	@ zero_extendqisi2
 611 002a FB68     		ldr	r3, [r7, #12]
 612 002c 1B69     		ldr	r3, [r3, #16]
 613 002e 5B78     		ldrb	r3, [r3, #1]	@ zero_extendqisi2
 164:.\DisplayUtils.c ****             pdispflow->_parentscrid == pdisplay->_pcurrflow->_parentscrid && 
 614              		.loc 1 164 0 discriminator 1
 615 0030 9A42     		cmp	r2, r3
 616 0032 0AD1     		bne	.L30
 166:.\DisplayUtils.c ****             pdispflow->_parentcode == pdisplay->_pcurrflow->_parentcode)
 617              		.loc 1 166 0
 618 0034 3B69     		ldr	r3, [r7, #16]
 619 0036 9A78     		ldrb	r2, [r3, #2]	@ zero_extendqisi2
 620 0038 FB68     		ldr	r3, [r7, #12]
ARM GAS  C:\Users\RECEPC~1\AppData\Local\Temp\ccfwlgn1.s 			page 15


 621 003a 1B69     		ldr	r3, [r3, #16]
 622 003c 9B78     		ldrb	r3, [r3, #2]	@ zero_extendqisi2
 165:.\DisplayUtils.c ****             pdispflow->_parentscrid == pdisplay->_pcurrflow->_parentscrid && 
 623              		.loc 1 165 0
 624 003e 9A42     		cmp	r2, r3
 625 0040 03D1     		bne	.L30
 167:.\DisplayUtils.c ****         {
 168:.\DisplayUtils.c ****             pretval = pdispflow->_decorator;
 626              		.loc 1 168 0
 627 0042 3B69     		ldr	r3, [r7, #16]
 628 0044 1B6A     		ldr	r3, [r3, #32]
 629 0046 7B61     		str	r3, [r7, #20]
 169:.\DisplayUtils.c ****             break;
 630              		.loc 1 169 0
 631 0048 06E0     		b	.L31
 632              	.L30:
 170:.\DisplayUtils.c ****         }
 171:.\DisplayUtils.c ****         pdispflow++;
 633              		.loc 1 171 0
 634 004a 3B69     		ldr	r3, [r7, #16]
 635 004c 4433     		adds	r3, r3, #68
 636 004e 3B61     		str	r3, [r7, #16]
 637              	.L29:
 162:.\DisplayUtils.c ****     {
 638              		.loc 1 162 0
 639 0050 3B69     		ldr	r3, [r7, #16]
 640 0052 1B78     		ldrb	r3, [r3]	@ zero_extendqisi2
 641 0054 FF2B     		cmp	r3, #255
 642 0056 DFD1     		bne	.L32
 643              	.L31:
 172:.\DisplayUtils.c ****     }
 173:.\DisplayUtils.c ****     return pretval;
 644              		.loc 1 173 0
 645 0058 7B69     		ldr	r3, [r7, #20]
 174:.\DisplayUtils.c **** }
 646              		.loc 1 174 0
 647 005a 1846     		mov	r0, r3
 648 005c 1C37     		adds	r7, r7, #28
 649              		.cfi_def_cfa_offset 4
 650 005e BD46     		mov	sp, r7
 651              		.cfi_def_cfa_register 13
 652              		@ sp needed
 653 0060 5DF8047B 		ldr	r7, [sp], #4
 654              		.cfi_restore 7
 655              		.cfi_def_cfa_offset 0
 656 0064 7047     		bx	lr
 657              		.cfi_endproc
 658              	.LFE67:
 659              		.size	DisplayFlowDecorator, .-DisplayFlowDecorator
 660 0066 00BF     		.section	.text.DisplayInitializer,"ax",%progbits
 661              		.align	2
 662              		.global	DisplayInitializer
 663              		.thumb
 664              		.thumb_func
 665              		.type	DisplayInitializer, %function
 666              	DisplayInitializer:
 667              	.LFB68:
ARM GAS  C:\Users\RECEPC~1\AppData\Local\Temp\ccfwlgn1.s 			page 16


 175:.\DisplayUtils.c **** 
 176:.\DisplayUtils.c **** //@Created by: HIJH
 177:.\DisplayUtils.c **** //@Date: Septembre de 2016
 178:.\DisplayUtils.c **** //Retrieves the Initializer for the currently selected screen
 179:.\DisplayUtils.c **** FPTRINITIALIZER DisplayInitializer(void *pparam)
 180:.\DisplayUtils.c **** {
 668              		.loc 1 180 0
 669              		.cfi_startproc
 670              		@ args = 0, pretend = 0, frame = 24
 671              		@ frame_needed = 1, uses_anonymous_args = 0
 672              		@ link register save eliminated.
 673 0000 80B4     		push	{r7}
 674              		.cfi_def_cfa_offset 4
 675              		.cfi_offset 7, -4
 676 0002 87B0     		sub	sp, sp, #28
 677              		.cfi_def_cfa_offset 32
 678 0004 00AF     		add	r7, sp, #0
 679              		.cfi_def_cfa_register 7
 680 0006 7860     		str	r0, [r7, #4]
 181:.\DisplayUtils.c ****     FPTRINITIALIZER pretval = NULL;
 681              		.loc 1 181 0
 682 0008 0023     		movs	r3, #0
 683 000a 7B61     		str	r3, [r7, #20]
 182:.\DisplayUtils.c ****     PDISPLAYLAYOUTPTR pdisplay = (PDISPLAYLAYOUTPTR)pparam;
 684              		.loc 1 182 0
 685 000c 7B68     		ldr	r3, [r7, #4]
 686 000e FB60     		str	r3, [r7, #12]
 183:.\DisplayUtils.c ****     PDISPLAYFLOWPTR pdispflow = pdisplay->_preferenceflow;
 687              		.loc 1 183 0
 688 0010 FB68     		ldr	r3, [r7, #12]
 689 0012 5B69     		ldr	r3, [r3, #20]
 690 0014 3B61     		str	r3, [r7, #16]
 184:.\DisplayUtils.c ****     while(pdispflow->_scrid != DISPLAY_NULL)
 691              		.loc 1 184 0
 692 0016 1BE0     		b	.L35
 693              	.L38:
 185:.\DisplayUtils.c ****     {
 186:.\DisplayUtils.c ****         if(pdispflow->_scrid == pdisplay->_pcurrflow->_scrid && 
 694              		.loc 1 186 0
 695 0018 3B69     		ldr	r3, [r7, #16]
 696 001a 1A78     		ldrb	r2, [r3]	@ zero_extendqisi2
 697 001c FB68     		ldr	r3, [r7, #12]
 698 001e 1B69     		ldr	r3, [r3, #16]
 699 0020 1B78     		ldrb	r3, [r3]	@ zero_extendqisi2
 700 0022 9A42     		cmp	r2, r3
 701 0024 11D1     		bne	.L36
 187:.\DisplayUtils.c ****             pdispflow->_parentscrid == pdisplay->_pcurrflow->_parentscrid && 
 702              		.loc 1 187 0 discriminator 1
 703 0026 3B69     		ldr	r3, [r7, #16]
 704 0028 5A78     		ldrb	r2, [r3, #1]	@ zero_extendqisi2
 705 002a FB68     		ldr	r3, [r7, #12]
 706 002c 1B69     		ldr	r3, [r3, #16]
 707 002e 5B78     		ldrb	r3, [r3, #1]	@ zero_extendqisi2
 186:.\DisplayUtils.c ****             pdispflow->_parentscrid == pdisplay->_pcurrflow->_parentscrid && 
 708              		.loc 1 186 0 discriminator 1
 709 0030 9A42     		cmp	r2, r3
 710 0032 0AD1     		bne	.L36
ARM GAS  C:\Users\RECEPC~1\AppData\Local\Temp\ccfwlgn1.s 			page 17


 188:.\DisplayUtils.c ****             pdispflow->_parentcode == pdisplay->_pcurrflow->_parentcode)
 711              		.loc 1 188 0
 712 0034 3B69     		ldr	r3, [r7, #16]
 713 0036 9A78     		ldrb	r2, [r3, #2]	@ zero_extendqisi2
 714 0038 FB68     		ldr	r3, [r7, #12]
 715 003a 1B69     		ldr	r3, [r3, #16]
 716 003c 9B78     		ldrb	r3, [r3, #2]	@ zero_extendqisi2
 187:.\DisplayUtils.c ****             pdispflow->_parentscrid == pdisplay->_pcurrflow->_parentscrid && 
 717              		.loc 1 187 0
 718 003e 9A42     		cmp	r2, r3
 719 0040 03D1     		bne	.L36
 189:.\DisplayUtils.c ****         {
 190:.\DisplayUtils.c ****             pretval = pdispflow->_initializer;
 720              		.loc 1 190 0
 721 0042 3B69     		ldr	r3, [r7, #16]
 722 0044 DB6B     		ldr	r3, [r3, #60]
 723 0046 7B61     		str	r3, [r7, #20]
 191:.\DisplayUtils.c ****             break;
 724              		.loc 1 191 0
 725 0048 06E0     		b	.L37
 726              	.L36:
 192:.\DisplayUtils.c ****         }
 193:.\DisplayUtils.c ****         pdispflow++;
 727              		.loc 1 193 0
 728 004a 3B69     		ldr	r3, [r7, #16]
 729 004c 4433     		adds	r3, r3, #68
 730 004e 3B61     		str	r3, [r7, #16]
 731              	.L35:
 184:.\DisplayUtils.c ****     {
 732              		.loc 1 184 0
 733 0050 3B69     		ldr	r3, [r7, #16]
 734 0052 1B78     		ldrb	r3, [r3]	@ zero_extendqisi2
 735 0054 FF2B     		cmp	r3, #255
 736 0056 DFD1     		bne	.L38
 737              	.L37:
 194:.\DisplayUtils.c ****     }
 195:.\DisplayUtils.c ****     return pretval;
 738              		.loc 1 195 0
 739 0058 7B69     		ldr	r3, [r7, #20]
 196:.\DisplayUtils.c **** }
 740              		.loc 1 196 0
 741 005a 1846     		mov	r0, r3
 742 005c 1C37     		adds	r7, r7, #28
 743              		.cfi_def_cfa_offset 4
 744 005e BD46     		mov	sp, r7
 745              		.cfi_def_cfa_register 13
 746              		@ sp needed
 747 0060 5DF8047B 		ldr	r7, [sp], #4
 748              		.cfi_restore 7
 749              		.cfi_def_cfa_offset 0
 750 0064 7047     		bx	lr
 751              		.cfi_endproc
 752              	.LFE68:
 753              		.size	DisplayInitializer, .-DisplayInitializer
 754 0066 00BF     		.section	.text.DisplayFinalizer,"ax",%progbits
 755              		.align	2
 756              		.global	DisplayFinalizer
ARM GAS  C:\Users\RECEPC~1\AppData\Local\Temp\ccfwlgn1.s 			page 18


 757              		.thumb
 758              		.thumb_func
 759              		.type	DisplayFinalizer, %function
 760              	DisplayFinalizer:
 761              	.LFB69:
 197:.\DisplayUtils.c **** 
 198:.\DisplayUtils.c **** //@Created by: HIJH
 199:.\DisplayUtils.c **** //@Date: Septembre de 2016
 200:.\DisplayUtils.c **** //Retrieves the Finalizer for the currently selected screen
 201:.\DisplayUtils.c **** FPTRFINALIZER DisplayFinalizer(void *pparam)
 202:.\DisplayUtils.c **** {
 762              		.loc 1 202 0
 763              		.cfi_startproc
 764              		@ args = 0, pretend = 0, frame = 24
 765              		@ frame_needed = 1, uses_anonymous_args = 0
 766              		@ link register save eliminated.
 767 0000 80B4     		push	{r7}
 768              		.cfi_def_cfa_offset 4
 769              		.cfi_offset 7, -4
 770 0002 87B0     		sub	sp, sp, #28
 771              		.cfi_def_cfa_offset 32
 772 0004 00AF     		add	r7, sp, #0
 773              		.cfi_def_cfa_register 7
 774 0006 7860     		str	r0, [r7, #4]
 203:.\DisplayUtils.c ****     FPTRFINALIZER pretval = NULL;
 775              		.loc 1 203 0
 776 0008 0023     		movs	r3, #0
 777 000a 7B61     		str	r3, [r7, #20]
 204:.\DisplayUtils.c ****     PDISPLAYLAYOUTPTR pdisplay = (PDISPLAYLAYOUTPTR)pparam;
 778              		.loc 1 204 0
 779 000c 7B68     		ldr	r3, [r7, #4]
 780 000e FB60     		str	r3, [r7, #12]
 205:.\DisplayUtils.c ****     PDISPLAYFLOWPTR pdispflow = pdisplay->_preferenceflow;
 781              		.loc 1 205 0
 782 0010 FB68     		ldr	r3, [r7, #12]
 783 0012 5B69     		ldr	r3, [r3, #20]
 784 0014 3B61     		str	r3, [r7, #16]
 206:.\DisplayUtils.c ****     while(pdispflow->_scrid != DISPLAY_NULL)
 785              		.loc 1 206 0
 786 0016 1BE0     		b	.L41
 787              	.L44:
 207:.\DisplayUtils.c ****     {
 208:.\DisplayUtils.c ****         if(pdispflow->_scrid == pdisplay->_pcurrflow->_scrid && 
 788              		.loc 1 208 0
 789 0018 3B69     		ldr	r3, [r7, #16]
 790 001a 1A78     		ldrb	r2, [r3]	@ zero_extendqisi2
 791 001c FB68     		ldr	r3, [r7, #12]
 792 001e 1B69     		ldr	r3, [r3, #16]
 793 0020 1B78     		ldrb	r3, [r3]	@ zero_extendqisi2
 794 0022 9A42     		cmp	r2, r3
 795 0024 11D1     		bne	.L42
 209:.\DisplayUtils.c ****             pdispflow->_parentscrid == pdisplay->_pcurrflow->_parentscrid && 
 796              		.loc 1 209 0 discriminator 1
 797 0026 3B69     		ldr	r3, [r7, #16]
 798 0028 5A78     		ldrb	r2, [r3, #1]	@ zero_extendqisi2
 799 002a FB68     		ldr	r3, [r7, #12]
 800 002c 1B69     		ldr	r3, [r3, #16]
ARM GAS  C:\Users\RECEPC~1\AppData\Local\Temp\ccfwlgn1.s 			page 19


 801 002e 5B78     		ldrb	r3, [r3, #1]	@ zero_extendqisi2
 208:.\DisplayUtils.c ****             pdispflow->_parentscrid == pdisplay->_pcurrflow->_parentscrid && 
 802              		.loc 1 208 0 discriminator 1
 803 0030 9A42     		cmp	r2, r3
 804 0032 0AD1     		bne	.L42
 210:.\DisplayUtils.c ****             pdispflow->_parentcode == pdisplay->_pcurrflow->_parentcode)
 805              		.loc 1 210 0
 806 0034 3B69     		ldr	r3, [r7, #16]
 807 0036 9A78     		ldrb	r2, [r3, #2]	@ zero_extendqisi2
 808 0038 FB68     		ldr	r3, [r7, #12]
 809 003a 1B69     		ldr	r3, [r3, #16]
 810 003c 9B78     		ldrb	r3, [r3, #2]	@ zero_extendqisi2
 209:.\DisplayUtils.c ****             pdispflow->_parentscrid == pdisplay->_pcurrflow->_parentscrid && 
 811              		.loc 1 209 0
 812 003e 9A42     		cmp	r2, r3
 813 0040 03D1     		bne	.L42
 211:.\DisplayUtils.c ****         {
 212:.\DisplayUtils.c ****             pretval = pdispflow->_finalizer;
 814              		.loc 1 212 0
 815 0042 3B69     		ldr	r3, [r7, #16]
 816 0044 1B6C     		ldr	r3, [r3, #64]
 817 0046 7B61     		str	r3, [r7, #20]
 213:.\DisplayUtils.c ****             break;
 818              		.loc 1 213 0
 819 0048 06E0     		b	.L43
 820              	.L42:
 214:.\DisplayUtils.c ****         }
 215:.\DisplayUtils.c ****         pdispflow++;
 821              		.loc 1 215 0
 822 004a 3B69     		ldr	r3, [r7, #16]
 823 004c 4433     		adds	r3, r3, #68
 824 004e 3B61     		str	r3, [r7, #16]
 825              	.L41:
 206:.\DisplayUtils.c ****     {
 826              		.loc 1 206 0
 827 0050 3B69     		ldr	r3, [r7, #16]
 828 0052 1B78     		ldrb	r3, [r3]	@ zero_extendqisi2
 829 0054 FF2B     		cmp	r3, #255
 830 0056 DFD1     		bne	.L44
 831              	.L43:
 216:.\DisplayUtils.c ****     }
 217:.\DisplayUtils.c ****     return pretval;
 832              		.loc 1 217 0
 833 0058 7B69     		ldr	r3, [r7, #20]
 218:.\DisplayUtils.c **** }
 834              		.loc 1 218 0
 835 005a 1846     		mov	r0, r3
 836 005c 1C37     		adds	r7, r7, #28
 837              		.cfi_def_cfa_offset 4
 838 005e BD46     		mov	sp, r7
 839              		.cfi_def_cfa_register 13
 840              		@ sp needed
 841 0060 5DF8047B 		ldr	r7, [sp], #4
 842              		.cfi_restore 7
 843              		.cfi_def_cfa_offset 0
 844 0064 7047     		bx	lr
 845              		.cfi_endproc
ARM GAS  C:\Users\RECEPC~1\AppData\Local\Temp\ccfwlgn1.s 			page 20


 846              	.LFE69:
 847              		.size	DisplayFinalizer, .-DisplayFinalizer
 848 0066 00BF     		.section	.rodata
 849 0006 0000     		.align	2
 850              	.LC1:
 851 0008 CC       		.byte	-52
 852 0009 33       		.byte	51
 853 000a C3       		.byte	-61
 854 000b 3C       		.byte	60
 855              		.section	.text.ParseDisplayStream,"ax",%progbits
 856              		.align	2
 857              		.global	ParseDisplayStream
 858              		.thumb
 859              		.thumb_func
 860              		.type	ParseDisplayStream, %function
 861              	ParseDisplayStream:
 862              	.LFB70:
 219:.\DisplayUtils.c **** 
 220:.\DisplayUtils.c **** char8 ParseDisplayStream(char* pbuffer, uint8 buffersize)
 221:.\DisplayUtils.c **** {
 863              		.loc 1 221 0
 864              		.cfi_startproc
 865              		@ args = 0, pretend = 0, frame = 16
 866              		@ frame_needed = 1, uses_anonymous_args = 0
 867              		@ link register save eliminated.
 868 0000 80B4     		push	{r7}
 869              		.cfi_def_cfa_offset 4
 870              		.cfi_offset 7, -4
 871 0002 85B0     		sub	sp, sp, #20
 872              		.cfi_def_cfa_offset 24
 873 0004 00AF     		add	r7, sp, #0
 874              		.cfi_def_cfa_register 7
 875 0006 7860     		str	r0, [r7, #4]
 876 0008 0B46     		mov	r3, r1
 877 000a FB70     		strb	r3, [r7, #3]
 222:.\DisplayUtils.c ****     char8 retval = 0x00;
 878              		.loc 1 222 0
 879 000c 0023     		movs	r3, #0
 880 000e FB73     		strb	r3, [r7, #15]
 223:.\DisplayUtils.c ****     char8 pdelimiter[] = { 0xCC, 0x33, 0xC3, 0x3C };
 881              		.loc 1 223 0
 882 0010 254A     		ldr	r2, .L49
 883 0012 07F10803 		add	r3, r7, #8
 884 0016 1068     		ldr	r0, [r2]	@ unaligned
 885 0018 1860     		str	r0, [r3]	@ unaligned
 224:.\DisplayUtils.c ****     uint16 delimitersize = sizeof(pdelimiter);
 886              		.loc 1 224 0
 887 001a 0423     		movs	r3, #4
 888 001c BB81     		strh	r3, [r7, #12]	@ movhi
 225:.\DisplayUtils.c ****     
 226:.\DisplayUtils.c ****     if((pbuffer[buffersize - 1] == pdelimiter[delimitersize - 1]) && 
 889              		.loc 1 226 0
 890 001e FB78     		ldrb	r3, [r7, #3]	@ zero_extendqisi2
 891 0020 013B     		subs	r3, r3, #1
 892 0022 7A68     		ldr	r2, [r7, #4]
 893 0024 1344     		add	r3, r3, r2
 894 0026 1A78     		ldrb	r2, [r3]	@ zero_extendqisi2
ARM GAS  C:\Users\RECEPC~1\AppData\Local\Temp\ccfwlgn1.s 			page 21


 895 0028 BB89     		ldrh	r3, [r7, #12]
 896 002a 013B     		subs	r3, r3, #1
 897 002c 07F11001 		add	r1, r7, #16
 898 0030 0B44     		add	r3, r3, r1
 899 0032 13F8083C 		ldrb	r3, [r3, #-8]	@ zero_extendqisi2
 900 0036 9A42     		cmp	r2, r3
 901 0038 2FD1     		bne	.L47
 227:.\DisplayUtils.c ****         (pbuffer[buffersize - 2] == pdelimiter[delimitersize - 2]) &&
 902              		.loc 1 227 0 discriminator 1
 903 003a FB78     		ldrb	r3, [r7, #3]	@ zero_extendqisi2
 904 003c 023B     		subs	r3, r3, #2
 905 003e 7A68     		ldr	r2, [r7, #4]
 906 0040 1344     		add	r3, r3, r2
 907 0042 1A78     		ldrb	r2, [r3]	@ zero_extendqisi2
 908 0044 BB89     		ldrh	r3, [r7, #12]
 909 0046 023B     		subs	r3, r3, #2
 910 0048 07F11001 		add	r1, r7, #16
 911 004c 0B44     		add	r3, r3, r1
 912 004e 13F8083C 		ldrb	r3, [r3, #-8]	@ zero_extendqisi2
 226:.\DisplayUtils.c ****         (pbuffer[buffersize - 2] == pdelimiter[delimitersize - 2]) &&
 913              		.loc 1 226 0 discriminator 1
 914 0052 9A42     		cmp	r2, r3
 915 0054 21D1     		bne	.L47
 228:.\DisplayUtils.c ****         (pbuffer[buffersize - 3] == pdelimiter[delimitersize - 3]) && 
 916              		.loc 1 228 0
 917 0056 FB78     		ldrb	r3, [r7, #3]	@ zero_extendqisi2
 918 0058 033B     		subs	r3, r3, #3
 919 005a 7A68     		ldr	r2, [r7, #4]
 920 005c 1344     		add	r3, r3, r2
 921 005e 1A78     		ldrb	r2, [r3]	@ zero_extendqisi2
 922 0060 BB89     		ldrh	r3, [r7, #12]
 923 0062 033B     		subs	r3, r3, #3
 924 0064 07F11001 		add	r1, r7, #16
 925 0068 0B44     		add	r3, r3, r1
 926 006a 13F8083C 		ldrb	r3, [r3, #-8]	@ zero_extendqisi2
 227:.\DisplayUtils.c ****         (pbuffer[buffersize - 2] == pdelimiter[delimitersize - 2]) &&
 927              		.loc 1 227 0
 928 006e 9A42     		cmp	r2, r3
 929 0070 13D1     		bne	.L47
 229:.\DisplayUtils.c ****         (pbuffer[buffersize - 4] == pdelimiter[delimitersize - 4]))
 930              		.loc 1 229 0
 931 0072 FB78     		ldrb	r3, [r7, #3]	@ zero_extendqisi2
 932 0074 043B     		subs	r3, r3, #4
 933 0076 7A68     		ldr	r2, [r7, #4]
 934 0078 1344     		add	r3, r3, r2
 935 007a 1A78     		ldrb	r2, [r3]	@ zero_extendqisi2
 936 007c BB89     		ldrh	r3, [r7, #12]
 937 007e 043B     		subs	r3, r3, #4
 938 0080 07F11001 		add	r1, r7, #16
 939 0084 0B44     		add	r3, r3, r1
 940 0086 13F8083C 		ldrb	r3, [r3, #-8]	@ zero_extendqisi2
 228:.\DisplayUtils.c ****         (pbuffer[buffersize - 3] == pdelimiter[delimitersize - 3]) && 
 941              		.loc 1 228 0
 942 008a 9A42     		cmp	r2, r3
 943 008c 05D1     		bne	.L47
 230:.\DisplayUtils.c ****         retval = pbuffer[buffersize - 5];
 944              		.loc 1 230 0
ARM GAS  C:\Users\RECEPC~1\AppData\Local\Temp\ccfwlgn1.s 			page 22


 945 008e FB78     		ldrb	r3, [r7, #3]	@ zero_extendqisi2
 946 0090 053B     		subs	r3, r3, #5
 947 0092 7A68     		ldr	r2, [r7, #4]
 948 0094 1344     		add	r3, r3, r2
 949 0096 1B78     		ldrb	r3, [r3]
 950 0098 FB73     		strb	r3, [r7, #15]
 951              	.L47:
 231:.\DisplayUtils.c ****     
 232:.\DisplayUtils.c ****     return retval;
 952              		.loc 1 232 0
 953 009a FB7B     		ldrb	r3, [r7, #15]	@ zero_extendqisi2
 233:.\DisplayUtils.c **** }
 954              		.loc 1 233 0
 955 009c 1846     		mov	r0, r3
 956 009e 1437     		adds	r7, r7, #20
 957              		.cfi_def_cfa_offset 4
 958 00a0 BD46     		mov	sp, r7
 959              		.cfi_def_cfa_register 13
 960              		@ sp needed
 961 00a2 5DF8047B 		ldr	r7, [sp], #4
 962              		.cfi_restore 7
 963              		.cfi_def_cfa_offset 0
 964 00a6 7047     		bx	lr
 965              	.L50:
 966              		.align	2
 967              	.L49:
 968 00a8 08000000 		.word	.LC1
 969              		.cfi_endproc
 970              	.LFE70:
 971              		.size	ParseDisplayStream, .-ParseDisplayStream
 972              		.section	.text.GetDisplayFlowNode,"ax",%progbits
 973              		.align	2
 974              		.global	GetDisplayFlowNode
 975              		.thumb
 976              		.thumb_func
 977              		.type	GetDisplayFlowNode, %function
 978              	GetDisplayFlowNode:
 979              	.LFB71:
 234:.\DisplayUtils.c **** 
 235:.\DisplayUtils.c **** //@Created by: HIJH
 236:.\DisplayUtils.c **** //@Date: Septembre de 2016
 237:.\DisplayUtils.c **** //Retrieves the selected DisplayFlow node from the DisplayFlow Matrix matching the correct parent
 238:.\DisplayUtils.c **** DisplayFlow *GetDisplayFlowNode(void *pparam)
 239:.\DisplayUtils.c **** {
 980              		.loc 1 239 0
 981              		.cfi_startproc
 982              		@ args = 0, pretend = 0, frame = 24
 983              		@ frame_needed = 1, uses_anonymous_args = 0
 984              		@ link register save eliminated.
 985 0000 80B4     		push	{r7}
 986              		.cfi_def_cfa_offset 4
 987              		.cfi_offset 7, -4
 988 0002 87B0     		sub	sp, sp, #28
 989              		.cfi_def_cfa_offset 32
 990 0004 00AF     		add	r7, sp, #0
 991              		.cfi_def_cfa_register 7
 992 0006 7860     		str	r0, [r7, #4]
ARM GAS  C:\Users\RECEPC~1\AppData\Local\Temp\ccfwlgn1.s 			page 23


 240:.\DisplayUtils.c ****     PDISPLAYFLOWPTR retval = NULL;
 993              		.loc 1 240 0
 994 0008 0023     		movs	r3, #0
 995 000a 7B61     		str	r3, [r7, #20]
 241:.\DisplayUtils.c ****     PDISPLAYLAYOUTPTR pdisplay = (PDISPLAYLAYOUTPTR)pparam;
 996              		.loc 1 241 0
 997 000c 7B68     		ldr	r3, [r7, #4]
 998 000e FB60     		str	r3, [r7, #12]
 242:.\DisplayUtils.c ****     PDISPLAYFLOWPTR pdispflow = pdisplay->_preferenceflow;
 999              		.loc 1 242 0
 1000 0010 FB68     		ldr	r3, [r7, #12]
 1001 0012 5B69     		ldr	r3, [r3, #20]
 1002 0014 3B61     		str	r3, [r7, #16]
 243:.\DisplayUtils.c ****     
 244:.\DisplayUtils.c ****     uint8 scrid = (pdisplay->_nextscrid == 0xFF)?  ((pdisplay->_statechangescrid == 0xFF)? pdisplay
 1003              		.loc 1 244 0
 1004 0016 FB68     		ldr	r3, [r7, #12]
 1005 0018 9B78     		ldrb	r3, [r3, #2]	@ zero_extendqisi2
 1006 001a FF2B     		cmp	r3, #255
 1007 001c 09D1     		bne	.L52
 1008              		.loc 1 244 0 is_stmt 0 discriminator 1
 1009 001e FB68     		ldr	r3, [r7, #12]
 1010 0020 5B79     		ldrb	r3, [r3, #5]	@ zero_extendqisi2
 1011 0022 FF2B     		cmp	r3, #255
 1012 0024 02D1     		bne	.L53
 1013              		.loc 1 244 0 discriminator 3
 1014 0026 FB68     		ldr	r3, [r7, #12]
 1015 0028 9B7A     		ldrb	r3, [r3, #10]	@ zero_extendqisi2
 1016 002a 04E0     		b	.L55
 1017              	.L53:
 1018              		.loc 1 244 0 discriminator 4
 1019 002c FB68     		ldr	r3, [r7, #12]
 1020 002e 5B79     		ldrb	r3, [r3, #5]	@ zero_extendqisi2
 1021 0030 01E0     		b	.L55
 1022              	.L52:
 1023              		.loc 1 244 0 discriminator 2
 1024 0032 FB68     		ldr	r3, [r7, #12]
 1025 0034 9B78     		ldrb	r3, [r3, #2]	@ zero_extendqisi2
 1026              	.L55:
 1027              		.loc 1 244 0 discriminator 8
 1028 0036 FB72     		strb	r3, [r7, #11]
 245:.\DisplayUtils.c ****     uint8 parcode = pdisplay->_currscrcode;
 1029              		.loc 1 245 0 is_stmt 1 discriminator 8
 1030 0038 FB68     		ldr	r3, [r7, #12]
 1031 003a DB78     		ldrb	r3, [r3, #3]
 1032 003c BB72     		strb	r3, [r7, #10]
 246:.\DisplayUtils.c ****     uint8 parscrid = pdisplay->_pcurrflow->_scrid;
 1033              		.loc 1 246 0 discriminator 8
 1034 003e FB68     		ldr	r3, [r7, #12]
 1035 0040 1B69     		ldr	r3, [r3, #16]
 1036 0042 1B78     		ldrb	r3, [r3]
 1037 0044 7B72     		strb	r3, [r7, #9]
 247:.\DisplayUtils.c ****     
 248:.\DisplayUtils.c ****     while(pdispflow->_scrid != DISPLAY_NULL)
 1038              		.loc 1 248 0 discriminator 8
 1039 0046 20E0     		b	.L56
 1040              	.L61:
ARM GAS  C:\Users\RECEPC~1\AppData\Local\Temp\ccfwlgn1.s 			page 24


 249:.\DisplayUtils.c ****     {
 250:.\DisplayUtils.c ****         //Retrieves the requested screen by matching the parent. If the screen has no parent define
 251:.\DisplayUtils.c ****         //means that the requested screen must be the root screen or has no parent rule applied
 252:.\DisplayUtils.c ****         if((scrid == pdispflow->_scrid) && 
 1041              		.loc 1 252 0
 1042 0048 3B69     		ldr	r3, [r7, #16]
 1043 004a 1B78     		ldrb	r3, [r3]	@ zero_extendqisi2
 1044 004c FA7A     		ldrb	r2, [r7, #11]	@ zero_extendqisi2
 1045 004e 9A42     		cmp	r2, r3
 1046 0050 18D1     		bne	.L57
 253:.\DisplayUtils.c ****             ((parscrid == pdispflow->_parentscrid) || (0xFF == pdispflow->_parentscrid)) && 
 1047              		.loc 1 253 0 discriminator 1
 1048 0052 3B69     		ldr	r3, [r7, #16]
 1049 0054 5B78     		ldrb	r3, [r3, #1]	@ zero_extendqisi2
 252:.\DisplayUtils.c ****             ((parscrid == pdispflow->_parentscrid) || (0xFF == pdispflow->_parentscrid)) && 
 1050              		.loc 1 252 0 discriminator 1
 1051 0056 7A7A     		ldrb	r2, [r7, #9]	@ zero_extendqisi2
 1052 0058 9A42     		cmp	r2, r3
 1053 005a 03D0     		beq	.L58
 1054              		.loc 1 253 0
 1055 005c 3B69     		ldr	r3, [r7, #16]
 1056 005e 5B78     		ldrb	r3, [r3, #1]	@ zero_extendqisi2
 1057 0060 FF2B     		cmp	r3, #255
 1058 0062 0FD1     		bne	.L57
 1059              	.L58:
 254:.\DisplayUtils.c ****             ((parcode == pdispflow->_parentcode) || (0xFF == pdispflow->_parentcode) || (0xFF == pd
 1060              		.loc 1 254 0 discriminator 1
 1061 0064 3B69     		ldr	r3, [r7, #16]
 1062 0066 9B78     		ldrb	r3, [r3, #2]	@ zero_extendqisi2
 253:.\DisplayUtils.c ****             ((parscrid == pdispflow->_parentscrid) || (0xFF == pdispflow->_parentscrid)) && 
 1063              		.loc 1 253 0 discriminator 1
 1064 0068 BA7A     		ldrb	r2, [r7, #10]	@ zero_extendqisi2
 1065 006a 9A42     		cmp	r2, r3
 1066 006c 07D0     		beq	.L59
 1067              		.loc 1 254 0
 1068 006e 3B69     		ldr	r3, [r7, #16]
 1069 0070 9B78     		ldrb	r3, [r3, #2]	@ zero_extendqisi2
 1070 0072 FF2B     		cmp	r3, #255
 1071 0074 03D0     		beq	.L59
 1072              		.loc 1 254 0 is_stmt 0 discriminator 1
 1073 0076 3B69     		ldr	r3, [r7, #16]
 1074 0078 5B78     		ldrb	r3, [r3, #1]	@ zero_extendqisi2
 1075 007a FF2B     		cmp	r3, #255
 1076 007c 02D1     		bne	.L57
 1077              	.L59:
 255:.\DisplayUtils.c ****         {
 256:.\DisplayUtils.c ****             retval = pdispflow;
 1078              		.loc 1 256 0 is_stmt 1
 1079 007e 3B69     		ldr	r3, [r7, #16]
 1080 0080 7B61     		str	r3, [r7, #20]
 257:.\DisplayUtils.c ****             break;
 1081              		.loc 1 257 0
 1082 0082 06E0     		b	.L60
 1083              	.L57:
 258:.\DisplayUtils.c ****         }
 259:.\DisplayUtils.c ****         pdispflow++;
 1084              		.loc 1 259 0
ARM GAS  C:\Users\RECEPC~1\AppData\Local\Temp\ccfwlgn1.s 			page 25


 1085 0084 3B69     		ldr	r3, [r7, #16]
 1086 0086 4433     		adds	r3, r3, #68
 1087 0088 3B61     		str	r3, [r7, #16]
 1088              	.L56:
 248:.\DisplayUtils.c ****     {
 1089              		.loc 1 248 0
 1090 008a 3B69     		ldr	r3, [r7, #16]
 1091 008c 1B78     		ldrb	r3, [r3]	@ zero_extendqisi2
 1092 008e FF2B     		cmp	r3, #255
 1093 0090 DAD1     		bne	.L61
 1094              	.L60:
 260:.\DisplayUtils.c ****     }
 261:.\DisplayUtils.c ****     return retval;
 1095              		.loc 1 261 0
 1096 0092 7B69     		ldr	r3, [r7, #20]
 262:.\DisplayUtils.c **** }
 1097              		.loc 1 262 0
 1098 0094 1846     		mov	r0, r3
 1099 0096 1C37     		adds	r7, r7, #28
 1100              		.cfi_def_cfa_offset 4
 1101 0098 BD46     		mov	sp, r7
 1102              		.cfi_def_cfa_register 13
 1103              		@ sp needed
 1104 009a 5DF8047B 		ldr	r7, [sp], #4
 1105              		.cfi_restore 7
 1106              		.cfi_def_cfa_offset 0
 1107 009e 7047     		bx	lr
 1108              		.cfi_endproc
 1109              	.LFE71:
 1110              		.size	GetDisplayFlowNode, .-GetDisplayFlowNode
 1111              		.section	.text.PrepareDisplayStructure,"ax",%progbits
 1112              		.align	2
 1113              		.global	PrepareDisplayStructure
 1114              		.thumb
 1115              		.thumb_func
 1116              		.type	PrepareDisplayStructure, %function
 1117              	PrepareDisplayStructure:
 1118              	.LFB72:
 263:.\DisplayUtils.c **** 
 264:.\DisplayUtils.c **** //@Created by: HIJH
 265:.\DisplayUtils.c **** //@Date: Septembre de 2016
 266:.\DisplayUtils.c **** //Further cleanup before initiation the display flow
 267:.\DisplayUtils.c **** void PrepareDisplayStructure(void *pparam)
 268:.\DisplayUtils.c **** {
 1119              		.loc 1 268 0
 1120              		.cfi_startproc
 1121              		@ args = 0, pretend = 0, frame = 16
 1122              		@ frame_needed = 1, uses_anonymous_args = 0
 1123 0000 80B5     		push	{r7, lr}
 1124              		.cfi_def_cfa_offset 8
 1125              		.cfi_offset 7, -8
 1126              		.cfi_offset 14, -4
 1127 0002 84B0     		sub	sp, sp, #16
 1128              		.cfi_def_cfa_offset 24
 1129 0004 00AF     		add	r7, sp, #0
 1130              		.cfi_def_cfa_register 7
 1131 0006 7860     		str	r0, [r7, #4]
ARM GAS  C:\Users\RECEPC~1\AppData\Local\Temp\ccfwlgn1.s 			page 26


 269:.\DisplayUtils.c ****     PDISPLAYLAYOUTPTR pdisplay = (PDISPLAYLAYOUTPTR)pparam;
 1132              		.loc 1 269 0
 1133 0008 7B68     		ldr	r3, [r7, #4]
 1134 000a FB60     		str	r3, [r7, #12]
 270:.\DisplayUtils.c ****     
 271:.\DisplayUtils.c ****     pdisplay->_pcurrflow = GetDisplayFlowNode(pdisplay);
 1135              		.loc 1 271 0
 1136 000c F868     		ldr	r0, [r7, #12]
 1137 000e FFF7FEFF 		bl	GetDisplayFlowNode
 1138 0012 0246     		mov	r2, r0
 1139 0014 FB68     		ldr	r3, [r7, #12]
 1140 0016 1A61     		str	r2, [r3, #16]
 272:.\DisplayUtils.c ****     pdisplay->_nextscrid = DISPLAY_NULL;
 1141              		.loc 1 272 0
 1142 0018 FB68     		ldr	r3, [r7, #12]
 1143 001a FF22     		movs	r2, #255
 1144 001c 9A70     		strb	r2, [r3, #2]
 273:.\DisplayUtils.c ****     pdisplay->_statechangescrid  = DISPLAY_NULL;
 1145              		.loc 1 273 0
 1146 001e FB68     		ldr	r3, [r7, #12]
 1147 0020 FF22     		movs	r2, #255
 1148 0022 5A71     		strb	r2, [r3, #5]
 274:.\DisplayUtils.c ****     pdisplay->_currentstate  = 0x00;
 1149              		.loc 1 274 0
 1150 0024 FB68     		ldr	r3, [r7, #12]
 1151 0026 0022     		movs	r2, #0
 1152 0028 1A71     		strb	r2, [r3, #4]
 275:.\DisplayUtils.c ****     pdisplay->_timeoutscrid = DISPLAY_NULL;
 1153              		.loc 1 275 0
 1154 002a FB68     		ldr	r3, [r7, #12]
 1155 002c FF22     		movs	r2, #255
 1156 002e 9A72     		strb	r2, [r3, #10]
 276:.\DisplayUtils.c ****     pdisplay->_currscrcode = 0x00;
 1157              		.loc 1 276 0
 1158 0030 FB68     		ldr	r3, [r7, #12]
 1159 0032 0022     		movs	r2, #0
 1160 0034 DA70     		strb	r2, [r3, #3]
 277:.\DisplayUtils.c ****     pdisplay->_timeoutmultiplier = 0;
 1161              		.loc 1 277 0
 1162 0036 FB68     		ldr	r3, [r7, #12]
 1163 0038 0022     		movs	r2, #0
 1164 003a 1A81     		strh	r2, [r3, #8]	@ movhi
 278:.\DisplayUtils.c ****     memset(pdisplay->_bufferinfo._buffer, 0x00, _DISPLAY_BUFFER_SIZE_);
 1165              		.loc 1 278 0
 1166 003c FB68     		ldr	r3, [r7, #12]
 1167 003e 1D33     		adds	r3, r3, #29
 1168 0040 1846     		mov	r0, r3
 1169 0042 0021     		movs	r1, #0
 1170 0044 1022     		movs	r2, #16
 1171 0046 FFF7FEFF 		bl	memset
 279:.\DisplayUtils.c ****     //This setting only applies if the DisplayFlow item has been defined to timeout
 280:.\DisplayUtils.c ****     pdisplay->_timeoutreftick = Timer_Tick_ReadCounter();
 1172              		.loc 1 280 0
 1173 004a FFF7FEFF 		bl	Timer_Tick_ReadCounter
 1174 004e 0346     		mov	r3, r0
 1175 0050 1A46     		mov	r2, r3
 1176 0052 FB68     		ldr	r3, [r7, #12]
ARM GAS  C:\Users\RECEPC~1\AppData\Local\Temp\ccfwlgn1.s 			page 27


 1177 0054 DA80     		strh	r2, [r3, #6]	@ movhi
 281:.\DisplayUtils.c ****     pdisplay->_bufferinfo._bufferindex = 0;
 1178              		.loc 1 281 0
 1179 0056 FB68     		ldr	r3, [r7, #12]
 1180 0058 0022     		movs	r2, #0
 1181 005a 1A77     		strb	r2, [r3, #28]
 282:.\DisplayUtils.c ****     memset(pdisplay->_bufferinfo._buffer, 0x00, _DISPLAY_BUFFER_SIZE_);
 1182              		.loc 1 282 0
 1183 005c FB68     		ldr	r3, [r7, #12]
 1184 005e 1D33     		adds	r3, r3, #29
 1185 0060 1846     		mov	r0, r3
 1186 0062 0021     		movs	r1, #0
 1187 0064 1022     		movs	r2, #16
 1188 0066 FFF7FEFF 		bl	memset
 283:.\DisplayUtils.c **** 
 284:.\DisplayUtils.c **** }
 1189              		.loc 1 284 0
 1190 006a 1037     		adds	r7, r7, #16
 1191              		.cfi_def_cfa_offset 8
 1192 006c BD46     		mov	sp, r7
 1193              		.cfi_def_cfa_register 13
 1194              		@ sp needed
 1195 006e 80BD     		pop	{r7, pc}
 1196              		.cfi_endproc
 1197              	.LFE72:
 1198              		.size	PrepareDisplayStructure, .-PrepareDisplayStructure
 1199              		.section	.text.NonEmptyDataValidator,"ax",%progbits
 1200              		.align	2
 1201              		.global	NonEmptyDataValidator
 1202              		.thumb
 1203              		.thumb_func
 1204              		.type	NonEmptyDataValidator, %function
 1205              	NonEmptyDataValidator:
 1206              	.LFB73:
 285:.\DisplayUtils.c **** 
 286:.\DisplayUtils.c **** //@Created by: HIJH
 287:.\DisplayUtils.c **** //@Date: Septembre de 2016
 288:.\DisplayUtils.c **** //This method validates that the capture buffer for the current display
 289:.\DisplayUtils.c **** //has received the required information and is not empty
 290:.\DisplayUtils.c **** bool NonEmptyDataValidator(void *pparam)
 291:.\DisplayUtils.c **** {
 1207              		.loc 1 291 0
 1208              		.cfi_startproc
 1209              		@ args = 0, pretend = 0, frame = 16
 1210              		@ frame_needed = 1, uses_anonymous_args = 0
 1211              		@ link register save eliminated.
 1212 0000 80B4     		push	{r7}
 1213              		.cfi_def_cfa_offset 4
 1214              		.cfi_offset 7, -4
 1215 0002 85B0     		sub	sp, sp, #20
 1216              		.cfi_def_cfa_offset 24
 1217 0004 00AF     		add	r7, sp, #0
 1218              		.cfi_def_cfa_register 7
 1219 0006 7860     		str	r0, [r7, #4]
 292:.\DisplayUtils.c ****     bool retval = false;
 1220              		.loc 1 292 0
 1221 0008 0023     		movs	r3, #0
ARM GAS  C:\Users\RECEPC~1\AppData\Local\Temp\ccfwlgn1.s 			page 28


 1222 000a FB73     		strb	r3, [r7, #15]
 293:.\DisplayUtils.c ****     DisplayLayout *pdisplay = (DisplayLayout*)pparam;
 1223              		.loc 1 293 0
 1224 000c 7B68     		ldr	r3, [r7, #4]
 1225 000e BB60     		str	r3, [r7, #8]
 294:.\DisplayUtils.c ****     if(pdisplay->_bufferinfo._bufferindex > 0)
 1226              		.loc 1 294 0
 1227 0010 BB68     		ldr	r3, [r7, #8]
 1228 0012 1B7F     		ldrb	r3, [r3, #28]	@ zero_extendqisi2
 1229 0014 002B     		cmp	r3, #0
 1230 0016 01D0     		beq	.L65
 295:.\DisplayUtils.c ****         retval = true;
 1231              		.loc 1 295 0
 1232 0018 0123     		movs	r3, #1
 1233 001a FB73     		strb	r3, [r7, #15]
 1234              	.L65:
 296:.\DisplayUtils.c ****     
 297:.\DisplayUtils.c ****     return retval;
 1235              		.loc 1 297 0
 1236 001c FB7B     		ldrb	r3, [r7, #15]	@ zero_extendqisi2
 298:.\DisplayUtils.c **** }
 1237              		.loc 1 298 0
 1238 001e 1846     		mov	r0, r3
 1239 0020 1437     		adds	r7, r7, #20
 1240              		.cfi_def_cfa_offset 4
 1241 0022 BD46     		mov	sp, r7
 1242              		.cfi_def_cfa_register 13
 1243              		@ sp needed
 1244 0024 5DF8047B 		ldr	r7, [sp], #4
 1245              		.cfi_restore 7
 1246              		.cfi_def_cfa_offset 0
 1247 0028 7047     		bx	lr
 1248              		.cfi_endproc
 1249              	.LFE73:
 1250              		.size	NonEmptyDataValidator, .-NonEmptyDataValidator
 1251 002a 00BF     		.section	.rodata
 1252              		.align	2
 1253              	.LC2:
 1254 000c 31323334 		.ascii	"1234\000"
 1254      00
 1255 0011 000000   		.section	.text.SecureConfigurationValidator,"ax",%progbits
 1256              		.align	2
 1257              		.global	SecureConfigurationValidator
 1258              		.thumb
 1259              		.thumb_func
 1260              		.type	SecureConfigurationValidator, %function
 1261              	SecureConfigurationValidator:
 1262              	.LFB74:
 299:.\DisplayUtils.c **** 
 300:.\DisplayUtils.c **** //@Created by: HIJH
 301:.\DisplayUtils.c **** //@Date: Septembre de 2016
 302:.\DisplayUtils.c **** //This method validates that the capture buffer for the current display
 303:.\DisplayUtils.c **** //has received the required information and is not empty
 304:.\DisplayUtils.c **** bool SecureConfigurationValidator(void *pparam)
 305:.\DisplayUtils.c **** {
 1263              		.loc 1 305 0
 1264              		.cfi_startproc
ARM GAS  C:\Users\RECEPC~1\AppData\Local\Temp\ccfwlgn1.s 			page 29


 1265              		@ args = 0, pretend = 0, frame = 24
 1266              		@ frame_needed = 1, uses_anonymous_args = 0
 1267 0000 80B5     		push	{r7, lr}
 1268              		.cfi_def_cfa_offset 8
 1269              		.cfi_offset 7, -8
 1270              		.cfi_offset 14, -4
 1271 0002 86B0     		sub	sp, sp, #24
 1272              		.cfi_def_cfa_offset 32
 1273 0004 00AF     		add	r7, sp, #0
 1274              		.cfi_def_cfa_register 7
 1275 0006 7860     		str	r0, [r7, #4]
 306:.\DisplayUtils.c ****     bool retval = false;
 1276              		.loc 1 306 0
 1277 0008 0023     		movs	r3, #0
 1278 000a FB75     		strb	r3, [r7, #23]
 307:.\DisplayUtils.c ****     DisplayLayout *pdisplay = (DisplayLayout*)pparam;
 1279              		.loc 1 307 0
 1280 000c 7B68     		ldr	r3, [r7, #4]
 1281 000e 3B61     		str	r3, [r7, #16]
 308:.\DisplayUtils.c ****     if(pdisplay->_bufferinfo._bufferindex > 0)
 1282              		.loc 1 308 0
 1283 0010 3B69     		ldr	r3, [r7, #16]
 1284 0012 1B7F     		ldrb	r3, [r3, #28]	@ zero_extendqisi2
 1285 0014 002B     		cmp	r3, #0
 1286 0016 25D0     		beq	.L68
 1287              	.LBB4:
 309:.\DisplayUtils.c ****     {
 310:.\DisplayUtils.c ****         retval = true;
 1288              		.loc 1 310 0
 1289 0018 0123     		movs	r3, #1
 1290 001a FB75     		strb	r3, [r7, #23]
 311:.\DisplayUtils.c ****         const char* StringPass = "1234";
 1291              		.loc 1 311 0
 1292 001c 144B     		ldr	r3, .L71
 1293 001e FB60     		str	r3, [r7, #12]
 312:.\DisplayUtils.c ****         ClearEepromBuffer();
 1294              		.loc 1 312 0
 1295 0020 FFF7FEFF 		bl	ClearEepromBuffer
 313:.\DisplayUtils.c ****         LoadEepromPage(EEPROM_CONFIGURATION_PAGE7);
 1296              		.loc 1 313 0
 1297 0024 4FF4E070 		mov	r0, #448
 1298 0028 FFF7FEFF 		bl	LoadEepromPage
 314:.\DisplayUtils.c ****         //This EEPROM's page location is used to store the four digit ASCII password
 315:.\DisplayUtils.c ****         if(!strncmp(pdisplay->_bufferinfo._buffer, StringPass, 0x04))
 1299              		.loc 1 315 0
 1300 002c 3B69     		ldr	r3, [r7, #16]
 1301 002e 1D33     		adds	r3, r3, #29
 1302 0030 1846     		mov	r0, r3
 1303 0032 F968     		ldr	r1, [r7, #12]
 1304 0034 0422     		movs	r2, #4
 1305 0036 FFF7FEFF 		bl	strncmp
 1306 003a 0346     		mov	r3, r0
 1307 003c 002B     		cmp	r3, #0
 1308 003e 11D1     		bne	.L68
 316:.\DisplayUtils.c ****         {
 317:.\DisplayUtils.c ****             if(pdisplay->_bufferinfo._buffer[0x04] == 0x2C)
 1309              		.loc 1 317 0
ARM GAS  C:\Users\RECEPC~1\AppData\Local\Temp\ccfwlgn1.s 			page 30


 1310 0040 3B69     		ldr	r3, [r7, #16]
 1311 0042 93F82130 		ldrb	r3, [r3, #33]	@ zero_extendqisi2
 1312 0046 2C2B     		cmp	r3, #44
 1313 0048 06D1     		bne	.L69
 318:.\DisplayUtils.c ****             {
 319:.\DisplayUtils.c ****                 pdisplay->_currscrcode = 0x1E;
 1314              		.loc 1 319 0
 1315 004a 3B69     		ldr	r3, [r7, #16]
 1316 004c 1E22     		movs	r2, #30
 1317 004e DA70     		strb	r2, [r3, #3]
 320:.\DisplayUtils.c ****                 pdisplay->_nextscrid = DISPLAY_NUEVO_PASSWORD;
 1318              		.loc 1 320 0
 1319 0050 3B69     		ldr	r3, [r7, #16]
 1320 0052 2F22     		movs	r2, #47
 1321 0054 9A70     		strb	r2, [r3, #2]
 1322 0056 05E0     		b	.L68
 1323              	.L69:
 321:.\DisplayUtils.c ****             }
 322:.\DisplayUtils.c ****             else
 323:.\DisplayUtils.c ****             {
 324:.\DisplayUtils.c ****                 pdisplay->_currscrcode = 0x1D;
 1324              		.loc 1 324 0
 1325 0058 3B69     		ldr	r3, [r7, #16]
 1326 005a 1D22     		movs	r2, #29
 1327 005c DA70     		strb	r2, [r3, #3]
 325:.\DisplayUtils.c ****                 pdisplay->_nextscrid = DISPLAY_PASSWORD_VALIDO;
 1328              		.loc 1 325 0
 1329 005e 3B69     		ldr	r3, [r7, #16]
 1330 0060 2622     		movs	r2, #38
 1331 0062 9A70     		strb	r2, [r3, #2]
 1332              	.L68:
 1333              	.LBE4:
 326:.\DisplayUtils.c ****             }
 327:.\DisplayUtils.c ****         }
 328:.\DisplayUtils.c ****     }
 329:.\DisplayUtils.c ****     
 330:.\DisplayUtils.c ****     return retval;
 1334              		.loc 1 330 0
 1335 0064 FB7D     		ldrb	r3, [r7, #23]	@ zero_extendqisi2
 331:.\DisplayUtils.c **** }
 1336              		.loc 1 331 0
 1337 0066 1846     		mov	r0, r3
 1338 0068 1837     		adds	r7, r7, #24
 1339              		.cfi_def_cfa_offset 8
 1340 006a BD46     		mov	sp, r7
 1341              		.cfi_def_cfa_register 13
 1342              		@ sp needed
 1343 006c 80BD     		pop	{r7, pc}
 1344              	.L72:
 1345 006e 00BF     		.align	2
 1346              	.L71:
 1347 0070 0C000000 		.word	.LC2
 1348              		.cfi_endproc
 1349              	.LFE74:
 1350              		.size	SecureConfigurationValidator, .-SecureConfigurationValidator
 1351              		.section	.text.SaveNewPassword,"ax",%progbits
 1352              		.align	2
ARM GAS  C:\Users\RECEPC~1\AppData\Local\Temp\ccfwlgn1.s 			page 31


 1353              		.global	SaveNewPassword
 1354              		.thumb
 1355              		.thumb_func
 1356              		.type	SaveNewPassword, %function
 1357              	SaveNewPassword:
 1358              	.LFB75:
 332:.\DisplayUtils.c **** 
 333:.\DisplayUtils.c **** //@Created by: HIJH
 334:.\DisplayUtils.c **** //@Date: Septembre de 2016
 335:.\DisplayUtils.c **** void SaveNewPassword(void *pparam)
 336:.\DisplayUtils.c **** {
 1359              		.loc 1 336 0
 1360              		.cfi_startproc
 1361              		@ args = 0, pretend = 0, frame = 16
 1362              		@ frame_needed = 1, uses_anonymous_args = 0
 1363 0000 80B5     		push	{r7, lr}
 1364              		.cfi_def_cfa_offset 8
 1365              		.cfi_offset 7, -8
 1366              		.cfi_offset 14, -4
 1367 0002 84B0     		sub	sp, sp, #16
 1368              		.cfi_def_cfa_offset 24
 1369 0004 00AF     		add	r7, sp, #0
 1370              		.cfi_def_cfa_register 7
 1371 0006 7860     		str	r0, [r7, #4]
 337:.\DisplayUtils.c ****     DisplayLayout *pdisplay = (DisplayLayout*)pparam;
 1372              		.loc 1 337 0
 1373 0008 7B68     		ldr	r3, [r7, #4]
 1374 000a FB60     		str	r3, [r7, #12]
 338:.\DisplayUtils.c ****     if(pdisplay->_bufferinfo._bufferindex > 0)
 1375              		.loc 1 338 0
 1376 000c FB68     		ldr	r3, [r7, #12]
 1377 000e 1B7F     		ldrb	r3, [r3, #28]	@ zero_extendqisi2
 1378 0010 002B     		cmp	r3, #0
 1379 0012 15D0     		beq	.L73
 339:.\DisplayUtils.c ****     {
 340:.\DisplayUtils.c ****         ClearEepromBuffer();
 1380              		.loc 1 340 0
 1381 0014 FFF7FEFF 		bl	ClearEepromBuffer
 341:.\DisplayUtils.c ****         LoadEepromPage(EEPROM_CONFIGURATION_PAGE7);
 1382              		.loc 1 341 0
 1383 0018 4FF4E070 		mov	r0, #448
 1384 001c FFF7FEFF 		bl	LoadEepromPage
 342:.\DisplayUtils.c ****         memcpy(&GetEepromBuffer()[0x0D], pdisplay->_bufferinfo._buffer, 0x04);
 1385              		.loc 1 342 0
 1386 0020 FFF7FEFF 		bl	GetEepromBuffer
 1387 0024 0346     		mov	r3, r0
 1388 0026 03F10D02 		add	r2, r3, #13
 1389 002a FB68     		ldr	r3, [r7, #12]
 1390 002c 1D33     		adds	r3, r3, #29
 1391 002e 1046     		mov	r0, r2
 1392 0030 1946     		mov	r1, r3
 1393 0032 0422     		movs	r2, #4
 1394 0034 FFF7FEFF 		bl	memcpy
 343:.\DisplayUtils.c ****         StoreEepromPage(EEPROM_CONFIGURATION_PAGE7);
 1395              		.loc 1 343 0
 1396 0038 4FF4E070 		mov	r0, #448
 1397 003c FFF7FEFF 		bl	StoreEepromPage
ARM GAS  C:\Users\RECEPC~1\AppData\Local\Temp\ccfwlgn1.s 			page 32


 1398              	.L73:
 344:.\DisplayUtils.c ****     }
 345:.\DisplayUtils.c **** }
 1399              		.loc 1 345 0
 1400 0040 1037     		adds	r7, r7, #16
 1401              		.cfi_def_cfa_offset 8
 1402 0042 BD46     		mov	sp, r7
 1403              		.cfi_def_cfa_register 13
 1404              		@ sp needed
 1405 0044 80BD     		pop	{r7, pc}
 1406              		.cfi_endproc
 1407              	.LFE75:
 1408              		.size	SaveNewPassword, .-SaveNewPassword
 1409 0046 00BF     		.section	.text.NonEmptyMoneyValidator,"ax",%progbits
 1410              		.align	2
 1411              		.global	NonEmptyMoneyValidator
 1412              		.thumb
 1413              		.thumb_func
 1414              		.type	NonEmptyMoneyValidator, %function
 1415              	NonEmptyMoneyValidator:
 1416              	.LFB76:
 346:.\DisplayUtils.c **** 
 347:.\DisplayUtils.c **** //@Created by: HIJH
 348:.\DisplayUtils.c **** //@Date: Septembre de 2016
 349:.\DisplayUtils.c **** //This method validates that the capture buffer for the current display
 350:.\DisplayUtils.c **** //has received the required information and is not empty
 351:.\DisplayUtils.c **** bool NonEmptyMoneyValidator(void *pparam)
 352:.\DisplayUtils.c **** {
 1417              		.loc 1 352 0
 1418              		.cfi_startproc
 1419              		@ args = 0, pretend = 0, frame = 48
 1420              		@ frame_needed = 1, uses_anonymous_args = 0
 1421 0000 90B5     		push	{r4, r7, lr}
 1422              		.cfi_def_cfa_offset 12
 1423              		.cfi_offset 4, -12
 1424              		.cfi_offset 7, -8
 1425              		.cfi_offset 14, -4
 1426 0002 8DB0     		sub	sp, sp, #52
 1427              		.cfi_def_cfa_offset 64
 1428 0004 00AF     		add	r7, sp, #0
 1429              		.cfi_def_cfa_register 7
 1430 0006 7860     		str	r0, [r7, #4]
 353:.\DisplayUtils.c ****     bool retval = false;
 1431              		.loc 1 353 0
 1432 0008 0023     		movs	r3, #0
 1433 000a 87F82F30 		strb	r3, [r7, #47]
 354:.\DisplayUtils.c ****     char8 tempbuffer[_DISPLAY_BUFFER_SIZE_];
 355:.\DisplayUtils.c ****     DisplayLayout *pdisplay = (DisplayLayout*)pparam;
 1434              		.loc 1 355 0
 1435 000e 7B68     		ldr	r3, [r7, #4]
 1436 0010 BB62     		str	r3, [r7, #40]
 356:.\DisplayUtils.c ****     
 357:.\DisplayUtils.c ****     if(pdisplay->_bufferinfo._bufferindex > 0)
 1437              		.loc 1 357 0
 1438 0012 BB6A     		ldr	r3, [r7, #40]
 1439 0014 1B7F     		ldrb	r3, [r3, #28]	@ zero_extendqisi2
 1440 0016 002B     		cmp	r3, #0
ARM GAS  C:\Users\RECEPC~1\AppData\Local\Temp\ccfwlgn1.s 			page 33


 1441 0018 03D0     		beq	.L76
 358:.\DisplayUtils.c ****         retval = true;
 1442              		.loc 1 358 0
 1443 001a 0123     		movs	r3, #1
 1444 001c 87F82F30 		strb	r3, [r7, #47]
 1445 0020 02E0     		b	.L77
 1446              	.L76:
 359:.\DisplayUtils.c ****     else
 360:.\DisplayUtils.c ****         retval = false;    
 1447              		.loc 1 360 0
 1448 0022 0023     		movs	r3, #0
 1449 0024 87F82F30 		strb	r3, [r7, #47]
 1450              	.L77:
 361:.\DisplayUtils.c ****     
 362:.\DisplayUtils.c ****     if(retval)
 1451              		.loc 1 362 0
 1452 0028 97F82F30 		ldrb	r3, [r7, #47]	@ zero_extendqisi2
 1453 002c 002B     		cmp	r3, #0
 1454 002e 00F08280 		beq	.L78
 1455              	.LBB5:
 363:.\DisplayUtils.c ****     {
 364:.\DisplayUtils.c ****         uint8 remplaces = _DISPLAY_BUFFER_SIZE_ - pdisplay->_bufferinfo._bufferindex;
 1456              		.loc 1 364 0
 1457 0032 BB6A     		ldr	r3, [r7, #40]
 1458 0034 1B7F     		ldrb	r3, [r3, #28]	@ zero_extendqisi2
 1459 0036 C3F11003 		rsb	r3, r3, #16
 1460 003a 87F82730 		strb	r3, [r7, #39]
 365:.\DisplayUtils.c ****         memcpy(tempbuffer, pdisplay->_bufferinfo._buffer, _DISPLAY_BUFFER_SIZE_);
 1461              		.loc 1 365 0
 1462 003e BB6A     		ldr	r3, [r7, #40]
 1463 0040 07F10C04 		add	r4, r7, #12
 1464 0044 1D33     		adds	r3, r3, #29
 1465 0046 1868     		ldr	r0, [r3]	@ unaligned
 1466 0048 5968     		ldr	r1, [r3, #4]	@ unaligned
 1467 004a 9A68     		ldr	r2, [r3, #8]	@ unaligned
 1468 004c DB68     		ldr	r3, [r3, #12]	@ unaligned
 1469 004e 0FC4     		stmia	r4!, {r0, r1, r2, r3}
 366:.\DisplayUtils.c ****         FOR(int8 index = pdisplay->_bufferinfo._bufferindex, index < _DISPLAY_BUFFER_SIZE_, index++
 1470              		.loc 1 366 0
 1471 0050 BB6A     		ldr	r3, [r7, #40]
 1472 0052 1B7F     		ldrb	r3, [r3, #28]	@ zero_extendqisi2
 1473 0054 87F82E30 		strb	r3, [r7, #46]
 1474 0058 0EE0     		b	.L79
 1475              	.L80:
 367:.\DisplayUtils.c ****             tempbuffer[index] = 0x00;
 1476              		.loc 1 367 0 discriminator 3
 1477 005a 97F92E30 		ldrsb	r3, [r7, #46]
 1478 005e 07F13002 		add	r2, r7, #48
 1479 0062 1344     		add	r3, r3, r2
 1480 0064 0022     		movs	r2, #0
 1481 0066 03F8242C 		strb	r2, [r3, #-36]
 366:.\DisplayUtils.c ****         FOR(int8 index = pdisplay->_bufferinfo._bufferindex, index < _DISPLAY_BUFFER_SIZE_, index++
 1482              		.loc 1 366 0 discriminator 3
 1483 006a 97F82E30 		ldrb	r3, [r7, #46]	@ zero_extendqisi2
 1484 006e DBB2     		uxtb	r3, r3
 1485 0070 0133     		adds	r3, r3, #1
 1486 0072 DBB2     		uxtb	r3, r3
ARM GAS  C:\Users\RECEPC~1\AppData\Local\Temp\ccfwlgn1.s 			page 34


 1487 0074 87F82E30 		strb	r3, [r7, #46]
 1488              	.L79:
 366:.\DisplayUtils.c ****         FOR(int8 index = pdisplay->_bufferinfo._bufferindex, index < _DISPLAY_BUFFER_SIZE_, index++
 1489              		.loc 1 366 0 is_stmt 0 discriminator 1
 1490 0078 97F92E30 		ldrsb	r3, [r7, #46]
 1491 007c 0F2B     		cmp	r3, #15
 1492 007e ECDD     		ble	.L80
 368:.\DisplayUtils.c ****         
 369:.\DisplayUtils.c ****         FOR(index = (pdisplay->_bufferinfo._bufferindex - 1), index >= 0, index--)
 1493              		.loc 1 369 0 is_stmt 1
 1494 0080 BB6A     		ldr	r3, [r7, #40]
 1495 0082 1B7F     		ldrb	r3, [r3, #28]	@ zero_extendqisi2
 1496 0084 013B     		subs	r3, r3, #1
 1497 0086 DBB2     		uxtb	r3, r3
 1498 0088 87F82E30 		strb	r3, [r7, #46]
 1499 008c 22E0     		b	.L81
 1500              	.L82:
 370:.\DisplayUtils.c ****         {
 371:.\DisplayUtils.c ****             tempbuffer[index + remplaces] = tempbuffer[index] & 0x0F;
 1501              		.loc 1 371 0 discriminator 3
 1502 008e 97F92E20 		ldrsb	r2, [r7, #46]
 1503 0092 97F82730 		ldrb	r3, [r7, #39]	@ zero_extendqisi2
 1504 0096 1344     		add	r3, r3, r2
 1505 0098 97F92E20 		ldrsb	r2, [r7, #46]
 1506 009c 07F13001 		add	r1, r7, #48
 1507 00a0 0A44     		add	r2, r2, r1
 1508 00a2 12F8242C 		ldrb	r2, [r2, #-36]	@ zero_extendqisi2
 1509 00a6 02F00F02 		and	r2, r2, #15
 1510 00aa D2B2     		uxtb	r2, r2
 1511 00ac 07F13001 		add	r1, r7, #48
 1512 00b0 0B44     		add	r3, r3, r1
 1513 00b2 03F8242C 		strb	r2, [r3, #-36]
 372:.\DisplayUtils.c ****             tempbuffer[index] = 0x00;
 1514              		.loc 1 372 0 discriminator 3
 1515 00b6 97F92E30 		ldrsb	r3, [r7, #46]
 1516 00ba 07F13002 		add	r2, r7, #48
 1517 00be 1344     		add	r3, r3, r2
 1518 00c0 0022     		movs	r2, #0
 1519 00c2 03F8242C 		strb	r2, [r3, #-36]
 369:.\DisplayUtils.c ****         {
 1520              		.loc 1 369 0 discriminator 3
 1521 00c6 97F82E30 		ldrb	r3, [r7, #46]	@ zero_extendqisi2
 1522 00ca DBB2     		uxtb	r3, r3
 1523 00cc 013B     		subs	r3, r3, #1
 1524 00ce DBB2     		uxtb	r3, r3
 1525 00d0 87F82E30 		strb	r3, [r7, #46]
 1526              	.L81:
 369:.\DisplayUtils.c ****         {
 1527              		.loc 1 369 0 is_stmt 0 discriminator 1
 1528 00d4 97F92E30 		ldrsb	r3, [r7, #46]
 1529 00d8 002B     		cmp	r3, #0
 1530 00da D8DA     		bge	.L82
 373:.\DisplayUtils.c ****         }    
 374:.\DisplayUtils.c ****         CastMoneyValue(tempbuffer, _DISPLAY_BUFFER_SIZE_);
 1531              		.loc 1 374 0 is_stmt 1
 1532 00dc 07F10C03 		add	r3, r7, #12
 1533 00e0 1846     		mov	r0, r3
ARM GAS  C:\Users\RECEPC~1\AppData\Local\Temp\ccfwlgn1.s 			page 35


 1534 00e2 1021     		movs	r1, #16
 1535 00e4 FFF7FEFF 		bl	CastMoneyValue
 375:.\DisplayUtils.c ****         PSTRBUFFTOGG((PNEAR_BYTE_PTR)tempbuffer, _DISPLAY_BUFFER_SIZE_);
 1536              		.loc 1 375 0
 1537 00e8 07F10C03 		add	r3, r7, #12
 1538 00ec 1846     		mov	r0, r3
 1539 00ee 1021     		movs	r1, #16
 1540 00f0 FFF7FEFF 		bl	PSTRBUFFTOGG
 376:.\DisplayUtils.c ****         uint32 datavalue = LSDBCDBUFF2HEX((PNEAR_BYTE_PTR)tempbuffer, _DISPLAY_BUFFER_SIZE_);
 1541              		.loc 1 376 0
 1542 00f4 07F10C03 		add	r3, r7, #12
 1543 00f8 1846     		mov	r0, r3
 1544 00fa 1021     		movs	r1, #16
 1545 00fc FFF7FEFF 		bl	LSDBCDBUFF2HEX
 1546 0100 3862     		str	r0, [r7, #32]
 377:.\DisplayUtils.c ****         
 378:.\DisplayUtils.c ****         I2CBusLock();
 1547              		.loc 1 378 0
 1548 0102 FFF7FEFF 		bl	I2CBusLock
 379:.\DisplayUtils.c ****         ClearEepromBuffer();
 1549              		.loc 1 379 0
 1550 0106 FFF7FEFF 		bl	ClearEepromBuffer
 380:.\DisplayUtils.c ****         LoadEepromPage(EEPROM_CONFIGURATION_PAGE5);
 1551              		.loc 1 380 0
 1552 010a 4FF4A070 		mov	r0, #320
 1553 010e FFF7FEFF 		bl	LoadEepromPage
 381:.\DisplayUtils.c ****         uint32 refvalue = LSDBCDBUFF2HEX((PNEAR_BYTE_PTR)&GetEepromBuffer()[0x02], 0x10);          
 1554              		.loc 1 381 0
 1555 0112 FFF7FEFF 		bl	GetEepromBuffer
 1556 0116 0346     		mov	r3, r0
 1557 0118 0233     		adds	r3, r3, #2
 1558 011a 1846     		mov	r0, r3
 1559 011c 1021     		movs	r1, #16
 1560 011e FFF7FEFF 		bl	LSDBCDBUFF2HEX
 1561 0122 F861     		str	r0, [r7, #28]
 382:.\DisplayUtils.c ****         I2CBusUnlock();
 1562              		.loc 1 382 0
 1563 0124 FFF7FEFF 		bl	I2CBusUnlock
 383:.\DisplayUtils.c ****         
 384:.\DisplayUtils.c ****         if(datavalue < refvalue)
 1564              		.loc 1 384 0
 1565 0128 3A6A     		ldr	r2, [r7, #32]
 1566 012a FB69     		ldr	r3, [r7, #28]
 1567 012c 9A42     		cmp	r2, r3
 1568 012e 02D2     		bcs	.L78
 385:.\DisplayUtils.c ****             retval = false;
 1569              		.loc 1 385 0
 1570 0130 0023     		movs	r3, #0
 1571 0132 87F82F30 		strb	r3, [r7, #47]
 1572              	.L78:
 1573              	.LBE5:
 386:.\DisplayUtils.c ****     }
 387:.\DisplayUtils.c ****         
 388:.\DisplayUtils.c ****     return retval;
 1574              		.loc 1 388 0
 1575 0136 97F82F30 		ldrb	r3, [r7, #47]	@ zero_extendqisi2
 389:.\DisplayUtils.c **** }
ARM GAS  C:\Users\RECEPC~1\AppData\Local\Temp\ccfwlgn1.s 			page 36


 1576              		.loc 1 389 0
 1577 013a 1846     		mov	r0, r3
 1578 013c 3437     		adds	r7, r7, #52
 1579              		.cfi_def_cfa_offset 12
 1580 013e BD46     		mov	sp, r7
 1581              		.cfi_def_cfa_register 13
 1582              		@ sp needed
 1583 0140 90BD     		pop	{r4, r7, pc}
 1584              		.cfi_endproc
 1585              	.LFE76:
 1586              		.size	NonEmptyMoneyValidator, .-NonEmptyMoneyValidator
 1587 0142 00BF     		.section	.text.NonEmptyVolumeValidator,"ax",%progbits
 1588              		.align	2
 1589              		.global	NonEmptyVolumeValidator
 1590              		.thumb
 1591              		.thumb_func
 1592              		.type	NonEmptyVolumeValidator, %function
 1593              	NonEmptyVolumeValidator:
 1594              	.LFB77:
 390:.\DisplayUtils.c **** 
 391:.\DisplayUtils.c **** //@Created by: HIJH
 392:.\DisplayUtils.c **** //@Date: Septembre de 2016
 393:.\DisplayUtils.c **** //This method validates that the capture buffer for the current display
 394:.\DisplayUtils.c **** //has received the required information and is not empty
 395:.\DisplayUtils.c **** bool NonEmptyVolumeValidator(void *pparam)
 396:.\DisplayUtils.c **** {
 1595              		.loc 1 396 0
 1596              		.cfi_startproc
 1597              		@ args = 0, pretend = 0, frame = 48
 1598              		@ frame_needed = 1, uses_anonymous_args = 0
 1599 0000 90B5     		push	{r4, r7, lr}
 1600              		.cfi_def_cfa_offset 12
 1601              		.cfi_offset 4, -12
 1602              		.cfi_offset 7, -8
 1603              		.cfi_offset 14, -4
 1604 0002 8DB0     		sub	sp, sp, #52
 1605              		.cfi_def_cfa_offset 64
 1606 0004 00AF     		add	r7, sp, #0
 1607              		.cfi_def_cfa_register 7
 1608 0006 7860     		str	r0, [r7, #4]
 397:.\DisplayUtils.c ****     bool retval = false;
 1609              		.loc 1 397 0
 1610 0008 0023     		movs	r3, #0
 1611 000a 87F82F30 		strb	r3, [r7, #47]
 398:.\DisplayUtils.c ****     char8 tempbuffer[_DISPLAY_BUFFER_SIZE_];
 399:.\DisplayUtils.c ****     DisplayLayout *pdisplay = (DisplayLayout*)pparam;
 1612              		.loc 1 399 0
 1613 000e 7B68     		ldr	r3, [r7, #4]
 1614 0010 BB62     		str	r3, [r7, #40]
 400:.\DisplayUtils.c ****     
 401:.\DisplayUtils.c ****     if(pdisplay->_bufferinfo._bufferindex > 0)
 1615              		.loc 1 401 0
 1616 0012 BB6A     		ldr	r3, [r7, #40]
 1617 0014 1B7F     		ldrb	r3, [r3, #28]	@ zero_extendqisi2
 1618 0016 002B     		cmp	r3, #0
 1619 0018 03D0     		beq	.L85
 402:.\DisplayUtils.c ****         retval = true;
ARM GAS  C:\Users\RECEPC~1\AppData\Local\Temp\ccfwlgn1.s 			page 37


 1620              		.loc 1 402 0
 1621 001a 0123     		movs	r3, #1
 1622 001c 87F82F30 		strb	r3, [r7, #47]
 1623 0020 02E0     		b	.L86
 1624              	.L85:
 403:.\DisplayUtils.c ****     else
 404:.\DisplayUtils.c ****         retval = false;    
 1625              		.loc 1 404 0
 1626 0022 0023     		movs	r3, #0
 1627 0024 87F82F30 		strb	r3, [r7, #47]
 1628              	.L86:
 405:.\DisplayUtils.c ****     
 406:.\DisplayUtils.c ****     if(retval)
 1629              		.loc 1 406 0
 1630 0028 97F82F30 		ldrb	r3, [r7, #47]	@ zero_extendqisi2
 1631 002c 002B     		cmp	r3, #0
 1632 002e 00F08180 		beq	.L87
 1633              	.LBB6:
 407:.\DisplayUtils.c ****     {
 408:.\DisplayUtils.c ****         uint8 remplaces = _DISPLAY_BUFFER_SIZE_ - pdisplay->_bufferinfo._bufferindex;
 1634              		.loc 1 408 0
 1635 0032 BB6A     		ldr	r3, [r7, #40]
 1636 0034 1B7F     		ldrb	r3, [r3, #28]	@ zero_extendqisi2
 1637 0036 C3F11003 		rsb	r3, r3, #16
 1638 003a 87F82730 		strb	r3, [r7, #39]
 409:.\DisplayUtils.c ****         memcpy(tempbuffer, pdisplay->_bufferinfo._buffer, _DISPLAY_BUFFER_SIZE_);
 1639              		.loc 1 409 0
 1640 003e BB6A     		ldr	r3, [r7, #40]
 1641 0040 07F10C04 		add	r4, r7, #12
 1642 0044 1D33     		adds	r3, r3, #29
 1643 0046 1868     		ldr	r0, [r3]	@ unaligned
 1644 0048 5968     		ldr	r1, [r3, #4]	@ unaligned
 1645 004a 9A68     		ldr	r2, [r3, #8]	@ unaligned
 1646 004c DB68     		ldr	r3, [r3, #12]	@ unaligned
 1647 004e 0FC4     		stmia	r4!, {r0, r1, r2, r3}
 410:.\DisplayUtils.c ****         FOR(int8 index = pdisplay->_bufferinfo._bufferindex, index < _DISPLAY_BUFFER_SIZE_, index++
 1648              		.loc 1 410 0
 1649 0050 BB6A     		ldr	r3, [r7, #40]
 1650 0052 1B7F     		ldrb	r3, [r3, #28]	@ zero_extendqisi2
 1651 0054 87F82E30 		strb	r3, [r7, #46]
 1652 0058 0EE0     		b	.L88
 1653              	.L89:
 411:.\DisplayUtils.c ****             tempbuffer[index] = 0x00;
 1654              		.loc 1 411 0 discriminator 3
 1655 005a 97F92E30 		ldrsb	r3, [r7, #46]
 1656 005e 07F13002 		add	r2, r7, #48
 1657 0062 1344     		add	r3, r3, r2
 1658 0064 0022     		movs	r2, #0
 1659 0066 03F8242C 		strb	r2, [r3, #-36]
 410:.\DisplayUtils.c ****         FOR(int8 index = pdisplay->_bufferinfo._bufferindex, index < _DISPLAY_BUFFER_SIZE_, index++
 1660              		.loc 1 410 0 discriminator 3
 1661 006a 97F82E30 		ldrb	r3, [r7, #46]	@ zero_extendqisi2
 1662 006e DBB2     		uxtb	r3, r3
 1663 0070 0133     		adds	r3, r3, #1
 1664 0072 DBB2     		uxtb	r3, r3
 1665 0074 87F82E30 		strb	r3, [r7, #46]
 1666              	.L88:
ARM GAS  C:\Users\RECEPC~1\AppData\Local\Temp\ccfwlgn1.s 			page 38


 410:.\DisplayUtils.c ****         FOR(int8 index = pdisplay->_bufferinfo._bufferindex, index < _DISPLAY_BUFFER_SIZE_, index++
 1667              		.loc 1 410 0 is_stmt 0 discriminator 1
 1668 0078 97F92E30 		ldrsb	r3, [r7, #46]
 1669 007c 0F2B     		cmp	r3, #15
 1670 007e ECDD     		ble	.L89
 412:.\DisplayUtils.c ****         
 413:.\DisplayUtils.c ****         FOR(index = (pdisplay->_bufferinfo._bufferindex - 1), index >= 0, index--)
 1671              		.loc 1 413 0 is_stmt 1
 1672 0080 BB6A     		ldr	r3, [r7, #40]
 1673 0082 1B7F     		ldrb	r3, [r3, #28]	@ zero_extendqisi2
 1674 0084 013B     		subs	r3, r3, #1
 1675 0086 DBB2     		uxtb	r3, r3
 1676 0088 87F82E30 		strb	r3, [r7, #46]
 1677 008c 22E0     		b	.L90
 1678              	.L91:
 414:.\DisplayUtils.c ****         {
 415:.\DisplayUtils.c ****             tempbuffer[index + remplaces] = tempbuffer[index] & 0x0F;
 1679              		.loc 1 415 0 discriminator 3
 1680 008e 97F92E20 		ldrsb	r2, [r7, #46]
 1681 0092 97F82730 		ldrb	r3, [r7, #39]	@ zero_extendqisi2
 1682 0096 1344     		add	r3, r3, r2
 1683 0098 97F92E20 		ldrsb	r2, [r7, #46]
 1684 009c 07F13001 		add	r1, r7, #48
 1685 00a0 0A44     		add	r2, r2, r1
 1686 00a2 12F8242C 		ldrb	r2, [r2, #-36]	@ zero_extendqisi2
 1687 00a6 02F00F02 		and	r2, r2, #15
 1688 00aa D2B2     		uxtb	r2, r2
 1689 00ac 07F13001 		add	r1, r7, #48
 1690 00b0 0B44     		add	r3, r3, r1
 1691 00b2 03F8242C 		strb	r2, [r3, #-36]
 416:.\DisplayUtils.c ****             tempbuffer[index] = 0x00;
 1692              		.loc 1 416 0 discriminator 3
 1693 00b6 97F92E30 		ldrsb	r3, [r7, #46]
 1694 00ba 07F13002 		add	r2, r7, #48
 1695 00be 1344     		add	r3, r3, r2
 1696 00c0 0022     		movs	r2, #0
 1697 00c2 03F8242C 		strb	r2, [r3, #-36]
 413:.\DisplayUtils.c ****         {
 1698              		.loc 1 413 0 discriminator 3
 1699 00c6 97F82E30 		ldrb	r3, [r7, #46]	@ zero_extendqisi2
 1700 00ca DBB2     		uxtb	r3, r3
 1701 00cc 013B     		subs	r3, r3, #1
 1702 00ce DBB2     		uxtb	r3, r3
 1703 00d0 87F82E30 		strb	r3, [r7, #46]
 1704              	.L90:
 413:.\DisplayUtils.c ****         {
 1705              		.loc 1 413 0 is_stmt 0 discriminator 1
 1706 00d4 97F92E30 		ldrsb	r3, [r7, #46]
 1707 00d8 002B     		cmp	r3, #0
 1708 00da D8DA     		bge	.L91
 417:.\DisplayUtils.c ****         }    
 418:.\DisplayUtils.c ****         CastVolumeValue(tempbuffer, _DISPLAY_BUFFER_SIZE_);
 1709              		.loc 1 418 0 is_stmt 1
 1710 00dc 07F10C03 		add	r3, r7, #12
 1711 00e0 1846     		mov	r0, r3
 1712 00e2 1021     		movs	r1, #16
 1713 00e4 FFF7FEFF 		bl	CastVolumeValue
ARM GAS  C:\Users\RECEPC~1\AppData\Local\Temp\ccfwlgn1.s 			page 39


 419:.\DisplayUtils.c ****         PSTRBUFFTOGG((PNEAR_BYTE_PTR)tempbuffer, _DISPLAY_BUFFER_SIZE_);
 1714              		.loc 1 419 0
 1715 00e8 07F10C03 		add	r3, r7, #12
 1716 00ec 1846     		mov	r0, r3
 1717 00ee 1021     		movs	r1, #16
 1718 00f0 FFF7FEFF 		bl	PSTRBUFFTOGG
 420:.\DisplayUtils.c ****         uint32 datavalue = LSDBCDBUFF2HEX((PNEAR_BYTE_PTR)tempbuffer, _DISPLAY_BUFFER_SIZE_);
 1719              		.loc 1 420 0
 1720 00f4 07F10C03 		add	r3, r7, #12
 1721 00f8 1846     		mov	r0, r3
 1722 00fa 1021     		movs	r1, #16
 1723 00fc FFF7FEFF 		bl	LSDBCDBUFF2HEX
 1724 0100 3862     		str	r0, [r7, #32]
 421:.\DisplayUtils.c ****         
 422:.\DisplayUtils.c ****         I2CBusLock();
 1725              		.loc 1 422 0
 1726 0102 FFF7FEFF 		bl	I2CBusLock
 423:.\DisplayUtils.c ****         ClearEepromBuffer();
 1727              		.loc 1 423 0
 1728 0106 FFF7FEFF 		bl	ClearEepromBuffer
 424:.\DisplayUtils.c ****         LoadEepromPage(EEPROM_CONFIGURATION_PAGE6);
 1729              		.loc 1 424 0
 1730 010a 4FF4C070 		mov	r0, #384
 1731 010e FFF7FEFF 		bl	LoadEepromPage
 425:.\DisplayUtils.c ****         uint32 refvalue = LSDBCDBUFF2HEX((PNEAR_BYTE_PTR)&GetEepromBuffer()[0x00], 0x10);          
 1732              		.loc 1 425 0
 1733 0112 FFF7FEFF 		bl	GetEepromBuffer
 1734 0116 0346     		mov	r3, r0
 1735 0118 1846     		mov	r0, r3
 1736 011a 1021     		movs	r1, #16
 1737 011c FFF7FEFF 		bl	LSDBCDBUFF2HEX
 1738 0120 F861     		str	r0, [r7, #28]
 426:.\DisplayUtils.c ****         I2CBusUnlock();
 1739              		.loc 1 426 0
 1740 0122 FFF7FEFF 		bl	I2CBusUnlock
 427:.\DisplayUtils.c ****         
 428:.\DisplayUtils.c ****         if(datavalue < refvalue)
 1741              		.loc 1 428 0
 1742 0126 3A6A     		ldr	r2, [r7, #32]
 1743 0128 FB69     		ldr	r3, [r7, #28]
 1744 012a 9A42     		cmp	r2, r3
 1745 012c 02D2     		bcs	.L87
 429:.\DisplayUtils.c ****             retval = false;
 1746              		.loc 1 429 0
 1747 012e 0023     		movs	r3, #0
 1748 0130 87F82F30 		strb	r3, [r7, #47]
 1749              	.L87:
 1750              	.LBE6:
 430:.\DisplayUtils.c ****     }
 431:.\DisplayUtils.c ****     
 432:.\DisplayUtils.c ****     return retval;
 1751              		.loc 1 432 0
 1752 0134 97F82F30 		ldrb	r3, [r7, #47]	@ zero_extendqisi2
 433:.\DisplayUtils.c **** }
 1753              		.loc 1 433 0
 1754 0138 1846     		mov	r0, r3
 1755 013a 3437     		adds	r7, r7, #52
ARM GAS  C:\Users\RECEPC~1\AppData\Local\Temp\ccfwlgn1.s 			page 40


 1756              		.cfi_def_cfa_offset 12
 1757 013c BD46     		mov	sp, r7
 1758              		.cfi_def_cfa_register 13
 1759              		@ sp needed
 1760 013e 90BD     		pop	{r4, r7, pc}
 1761              		.cfi_endproc
 1762              	.LFE77:
 1763              		.size	NonEmptyVolumeValidator, .-NonEmptyVolumeValidator
 1764              		.section	.text.NonEmpty15ModuloValidator,"ax",%progbits
 1765              		.align	2
 1766              		.global	NonEmpty15ModuloValidator
 1767              		.thumb
 1768              		.thumb_func
 1769              		.type	NonEmpty15ModuloValidator, %function
 1770              	NonEmpty15ModuloValidator:
 1771              	.LFB78:
 434:.\DisplayUtils.c **** 
 435:.\DisplayUtils.c **** //@Created by: HIJH
 436:.\DisplayUtils.c **** //@Date: Septembre de 2016
 437:.\DisplayUtils.c **** //This method validates that the capture buffer for the current display
 438:.\DisplayUtils.c **** //has received a fifteen modulo value
 439:.\DisplayUtils.c **** bool NonEmpty15ModuloValidator(void *pparam)
 440:.\DisplayUtils.c **** {
 1772              		.loc 1 440 0
 1773              		.cfi_startproc
 1774              		@ args = 0, pretend = 0, frame = 40
 1775              		@ frame_needed = 1, uses_anonymous_args = 0
 1776 0000 90B5     		push	{r4, r7, lr}
 1777              		.cfi_def_cfa_offset 12
 1778              		.cfi_offset 4, -12
 1779              		.cfi_offset 7, -8
 1780              		.cfi_offset 14, -4
 1781 0002 8BB0     		sub	sp, sp, #44
 1782              		.cfi_def_cfa_offset 56
 1783 0004 00AF     		add	r7, sp, #0
 1784              		.cfi_def_cfa_register 7
 1785 0006 7860     		str	r0, [r7, #4]
 441:.\DisplayUtils.c ****     bool retval = false;
 1786              		.loc 1 441 0
 1787 0008 0023     		movs	r3, #0
 1788 000a 87F82730 		strb	r3, [r7, #39]
 442:.\DisplayUtils.c ****     char8 tempbuffer[_DISPLAY_BUFFER_SIZE_];
 443:.\DisplayUtils.c ****     DisplayLayout *pdisplay = (DisplayLayout*)pparam;
 1789              		.loc 1 443 0
 1790 000e 7B68     		ldr	r3, [r7, #4]
 1791 0010 3B62     		str	r3, [r7, #32]
 444:.\DisplayUtils.c ****     
 445:.\DisplayUtils.c ****     if(pdisplay->_bufferinfo._bufferindex > 0)
 1792              		.loc 1 445 0
 1793 0012 3B6A     		ldr	r3, [r7, #32]
 1794 0014 1B7F     		ldrb	r3, [r3, #28]	@ zero_extendqisi2
 1795 0016 002B     		cmp	r3, #0
 1796 0018 03D0     		beq	.L94
 446:.\DisplayUtils.c ****         retval = true;
 1797              		.loc 1 446 0
 1798 001a 0123     		movs	r3, #1
 1799 001c 87F82730 		strb	r3, [r7, #39]
ARM GAS  C:\Users\RECEPC~1\AppData\Local\Temp\ccfwlgn1.s 			page 41


 1800 0020 02E0     		b	.L95
 1801              	.L94:
 447:.\DisplayUtils.c ****     else
 448:.\DisplayUtils.c ****         retval = false;    
 1802              		.loc 1 448 0
 1803 0022 0023     		movs	r3, #0
 1804 0024 87F82730 		strb	r3, [r7, #39]
 1805              	.L95:
 449:.\DisplayUtils.c ****     
 450:.\DisplayUtils.c ****     if(retval)
 1806              		.loc 1 450 0
 1807 0028 97F82730 		ldrb	r3, [r7, #39]	@ zero_extendqisi2
 1808 002c 002B     		cmp	r3, #0
 1809 002e 6DD0     		beq	.L96
 1810              	.LBB7:
 451:.\DisplayUtils.c ****     {
 452:.\DisplayUtils.c ****         uint8 remplaces = _DISPLAY_BUFFER_SIZE_ - pdisplay->_bufferinfo._bufferindex;
 1811              		.loc 1 452 0
 1812 0030 3B6A     		ldr	r3, [r7, #32]
 1813 0032 1B7F     		ldrb	r3, [r3, #28]	@ zero_extendqisi2
 1814 0034 C3F11003 		rsb	r3, r3, #16
 1815 0038 FB77     		strb	r3, [r7, #31]
 453:.\DisplayUtils.c ****         memcpy(tempbuffer, pdisplay->_bufferinfo._buffer, _DISPLAY_BUFFER_SIZE_);
 1816              		.loc 1 453 0
 1817 003a 3B6A     		ldr	r3, [r7, #32]
 1818 003c 07F10804 		add	r4, r7, #8
 1819 0040 1D33     		adds	r3, r3, #29
 1820 0042 1868     		ldr	r0, [r3]	@ unaligned
 1821 0044 5968     		ldr	r1, [r3, #4]	@ unaligned
 1822 0046 9A68     		ldr	r2, [r3, #8]	@ unaligned
 1823 0048 DB68     		ldr	r3, [r3, #12]	@ unaligned
 1824 004a 0FC4     		stmia	r4!, {r0, r1, r2, r3}
 454:.\DisplayUtils.c ****         FOR(int8 index = pdisplay->_bufferinfo._bufferindex, index < _DISPLAY_BUFFER_SIZE_, index++
 1825              		.loc 1 454 0
 1826 004c 3B6A     		ldr	r3, [r7, #32]
 1827 004e 1B7F     		ldrb	r3, [r3, #28]	@ zero_extendqisi2
 1828 0050 87F82630 		strb	r3, [r7, #38]
 1829 0054 0EE0     		b	.L97
 1830              	.L98:
 455:.\DisplayUtils.c ****             tempbuffer[index] = 0x00;
 1831              		.loc 1 455 0 discriminator 3
 1832 0056 97F92630 		ldrsb	r3, [r7, #38]
 1833 005a 07F12802 		add	r2, r7, #40
 1834 005e 1344     		add	r3, r3, r2
 1835 0060 0022     		movs	r2, #0
 1836 0062 03F8202C 		strb	r2, [r3, #-32]
 454:.\DisplayUtils.c ****         FOR(int8 index = pdisplay->_bufferinfo._bufferindex, index < _DISPLAY_BUFFER_SIZE_, index++
 1837              		.loc 1 454 0 discriminator 3
 1838 0066 97F82630 		ldrb	r3, [r7, #38]	@ zero_extendqisi2
 1839 006a DBB2     		uxtb	r3, r3
 1840 006c 0133     		adds	r3, r3, #1
 1841 006e DBB2     		uxtb	r3, r3
 1842 0070 87F82630 		strb	r3, [r7, #38]
 1843              	.L97:
 454:.\DisplayUtils.c ****         FOR(int8 index = pdisplay->_bufferinfo._bufferindex, index < _DISPLAY_BUFFER_SIZE_, index++
 1844              		.loc 1 454 0 is_stmt 0 discriminator 1
 1845 0074 97F92630 		ldrsb	r3, [r7, #38]
ARM GAS  C:\Users\RECEPC~1\AppData\Local\Temp\ccfwlgn1.s 			page 42


 1846 0078 0F2B     		cmp	r3, #15
 1847 007a ECDD     		ble	.L98
 456:.\DisplayUtils.c ****         
 457:.\DisplayUtils.c ****         FOR(index = (pdisplay->_bufferinfo._bufferindex - 1), index >= 0, index--)
 1848              		.loc 1 457 0 is_stmt 1
 1849 007c 3B6A     		ldr	r3, [r7, #32]
 1850 007e 1B7F     		ldrb	r3, [r3, #28]	@ zero_extendqisi2
 1851 0080 013B     		subs	r3, r3, #1
 1852 0082 DBB2     		uxtb	r3, r3
 1853 0084 87F82630 		strb	r3, [r7, #38]
 1854 0088 21E0     		b	.L99
 1855              	.L100:
 458:.\DisplayUtils.c ****         {
 459:.\DisplayUtils.c ****             tempbuffer[index + remplaces] = tempbuffer[index] & 0x0F;
 1856              		.loc 1 459 0 discriminator 3
 1857 008a 97F92620 		ldrsb	r2, [r7, #38]
 1858 008e FB7F     		ldrb	r3, [r7, #31]	@ zero_extendqisi2
 1859 0090 1344     		add	r3, r3, r2
 1860 0092 97F92620 		ldrsb	r2, [r7, #38]
 1861 0096 07F12801 		add	r1, r7, #40
 1862 009a 0A44     		add	r2, r2, r1
 1863 009c 12F8202C 		ldrb	r2, [r2, #-32]	@ zero_extendqisi2
 1864 00a0 02F00F02 		and	r2, r2, #15
 1865 00a4 D2B2     		uxtb	r2, r2
 1866 00a6 07F12801 		add	r1, r7, #40
 1867 00aa 0B44     		add	r3, r3, r1
 1868 00ac 03F8202C 		strb	r2, [r3, #-32]
 460:.\DisplayUtils.c ****             tempbuffer[index] = 0x00;
 1869              		.loc 1 460 0 discriminator 3
 1870 00b0 97F92630 		ldrsb	r3, [r7, #38]
 1871 00b4 07F12802 		add	r2, r7, #40
 1872 00b8 1344     		add	r3, r3, r2
 1873 00ba 0022     		movs	r2, #0
 1874 00bc 03F8202C 		strb	r2, [r3, #-32]
 457:.\DisplayUtils.c ****         {
 1875              		.loc 1 457 0 discriminator 3
 1876 00c0 97F82630 		ldrb	r3, [r7, #38]	@ zero_extendqisi2
 1877 00c4 DBB2     		uxtb	r3, r3
 1878 00c6 013B     		subs	r3, r3, #1
 1879 00c8 DBB2     		uxtb	r3, r3
 1880 00ca 87F82630 		strb	r3, [r7, #38]
 1881              	.L99:
 457:.\DisplayUtils.c ****         {
 1882              		.loc 1 457 0 is_stmt 0 discriminator 1
 1883 00ce 97F92630 		ldrsb	r3, [r7, #38]
 1884 00d2 002B     		cmp	r3, #0
 1885 00d4 D9DA     		bge	.L100
 461:.\DisplayUtils.c ****         }    
 462:.\DisplayUtils.c ****         PSTRBUFFTOGG((PNEAR_BYTE_PTR)tempbuffer, _DISPLAY_BUFFER_SIZE_);
 1886              		.loc 1 462 0 is_stmt 1
 1887 00d6 07F10803 		add	r3, r7, #8
 1888 00da 1846     		mov	r0, r3
 1889 00dc 1021     		movs	r1, #16
 1890 00de FFF7FEFF 		bl	PSTRBUFFTOGG
 463:.\DisplayUtils.c ****         uint32 datavalue = LSDBCDBUFF2HEX((PNEAR_BYTE_PTR)tempbuffer, _DISPLAY_BUFFER_SIZE_);
 1891              		.loc 1 463 0
 1892 00e2 07F10803 		add	r3, r7, #8
ARM GAS  C:\Users\RECEPC~1\AppData\Local\Temp\ccfwlgn1.s 			page 43


 1893 00e6 1846     		mov	r0, r3
 1894 00e8 1021     		movs	r1, #16
 1895 00ea FFF7FEFF 		bl	LSDBCDBUFF2HEX
 1896 00ee B861     		str	r0, [r7, #24]
 464:.\DisplayUtils.c ****                 
 465:.\DisplayUtils.c ****         if((datavalue % 15) != 0)
 1897              		.loc 1 465 0
 1898 00f0 B969     		ldr	r1, [r7, #24]
 1899 00f2 094B     		ldr	r3, .L102
 1900 00f4 A3FB0123 		umull	r2, r3, r3, r1
 1901 00f8 DA08     		lsrs	r2, r3, #3
 1902 00fa 1346     		mov	r3, r2
 1903 00fc 1B01     		lsls	r3, r3, #4
 1904 00fe 9B1A     		subs	r3, r3, r2
 1905 0100 CA1A     		subs	r2, r1, r3
 1906 0102 002A     		cmp	r2, #0
 1907 0104 02D0     		beq	.L96
 466:.\DisplayUtils.c ****             retval = false;
 1908              		.loc 1 466 0
 1909 0106 0023     		movs	r3, #0
 1910 0108 87F82730 		strb	r3, [r7, #39]
 1911              	.L96:
 1912              	.LBE7:
 467:.\DisplayUtils.c ****     }
 468:.\DisplayUtils.c ****         
 469:.\DisplayUtils.c ****     return retval;
 1913              		.loc 1 469 0
 1914 010c 97F82730 		ldrb	r3, [r7, #39]	@ zero_extendqisi2
 470:.\DisplayUtils.c **** }
 1915              		.loc 1 470 0
 1916 0110 1846     		mov	r0, r3
 1917 0112 2C37     		adds	r7, r7, #44
 1918              		.cfi_def_cfa_offset 12
 1919 0114 BD46     		mov	sp, r7
 1920              		.cfi_def_cfa_register 13
 1921              		@ sp needed
 1922 0116 90BD     		pop	{r4, r7, pc}
 1923              	.L103:
 1924              		.align	2
 1925              	.L102:
 1926 0118 89888888 		.word	-2004318071
 1927              		.cfi_endproc
 1928              	.LFE78:
 1929              		.size	NonEmpty15ModuloValidator, .-NonEmpty15ModuloValidator
 1930              		.section	.text.ValidatePumpAvailability4Positions,"ax",%progbits
 1931              		.align	2
 1932              		.global	ValidatePumpAvailability4Positions
 1933              		.thumb
 1934              		.thumb_func
 1935              		.type	ValidatePumpAvailability4Positions, %function
 1936              	ValidatePumpAvailability4Positions:
 1937              	.LFB79:
 471:.\DisplayUtils.c **** 
 472:.\DisplayUtils.c **** bool ValidatePumpAvailability4Positions(void *pparam)
 473:.\DisplayUtils.c **** {
 1938              		.loc 1 473 0
 1939              		.cfi_startproc
ARM GAS  C:\Users\RECEPC~1\AppData\Local\Temp\ccfwlgn1.s 			page 44


 1940              		@ args = 0, pretend = 0, frame = 16
 1941              		@ frame_needed = 1, uses_anonymous_args = 0
 1942 0000 80B5     		push	{r7, lr}
 1943              		.cfi_def_cfa_offset 8
 1944              		.cfi_offset 7, -8
 1945              		.cfi_offset 14, -4
 1946 0002 84B0     		sub	sp, sp, #16
 1947              		.cfi_def_cfa_offset 24
 1948 0004 00AF     		add	r7, sp, #0
 1949              		.cfi_def_cfa_register 7
 1950 0006 7860     		str	r0, [r7, #4]
 474:.\DisplayUtils.c ****     bool retval = true;
 1951              		.loc 1 474 0
 1952 0008 0123     		movs	r3, #1
 1953 000a FB73     		strb	r3, [r7, #15]
 475:.\DisplayUtils.c ****     DisplayLayout *pdisplay = (DisplayLayout*)pparam;
 1954              		.loc 1 475 0
 1955 000c 7B68     		ldr	r3, [r7, #4]
 1956 000e BB60     		str	r3, [r7, #8]
 476:.\DisplayUtils.c ****     if(_g_dispenserlayoutinfo._numpositions == 0x04)
 1957              		.loc 1 476 0
 1958 0010 614B     		ldr	r3, .L126
 1959 0012 9B78     		ldrb	r3, [r3, #2]	@ zero_extendqisi2
 1960 0014 042B     		cmp	r3, #4
 1961 0016 40F0BA80 		bne	.L105
 477:.\DisplayUtils.c ****     {
 478:.\DisplayUtils.c ****         if(pdisplay->_dispid == DISPLAY1)
 1962              		.loc 1 478 0
 1963 001a BB68     		ldr	r3, [r7, #8]
 1964 001c 1B78     		ldrb	r3, [r3]	@ zero_extendqisi2
 1965 001e 002B     		cmp	r3, #0
 1966 0020 57D1     		bne	.L106
 479:.\DisplayUtils.c ****         {
 480:.\DisplayUtils.c ****             switch(pdisplay->_currscrcode)
 1967              		.loc 1 480 0
 1968 0022 BB68     		ldr	r3, [r7, #8]
 1969 0024 DB78     		ldrb	r3, [r3, #3]	@ zero_extendqisi2
 1970 0026 562B     		cmp	r3, #86
 1971 0028 02D0     		beq	.L108
 1972 002a 572B     		cmp	r3, #87
 1973 002c 1BD0     		beq	.L109
 1974 002e 3EE0     		b	.L107
 1975              	.L108:
 481:.\DisplayUtils.c ****             {
 482:.\DisplayUtils.c ****                 case POSITIONA://PUMP #1
 483:.\DisplayUtils.c ****                 retval = (((_g_pumps[0x00]._pumpstate == PUMP_IDLE) || (_g_pumps[0x00]._pumpstate =
 1976              		.loc 1 483 0
 1977 0030 5A4B     		ldr	r3, .L126+4
 1978 0032 9B78     		ldrb	r3, [r3, #2]
 1979 0034 DBB2     		uxtb	r3, r3
 1980 0036 062B     		cmp	r3, #6
 1981 0038 04D0     		beq	.L110
 1982              		.loc 1 483 0 is_stmt 0 discriminator 2
 1983 003a 584B     		ldr	r3, .L126+4
 1984 003c 9B78     		ldrb	r3, [r3, #2]
 1985 003e DBB2     		uxtb	r3, r3
 1986 0040 072B     		cmp	r3, #7
ARM GAS  C:\Users\RECEPC~1\AppData\Local\Temp\ccfwlgn1.s 			page 45


 1987 0042 09D1     		bne	.L111
 1988              	.L110:
 1989              		.loc 1 483 0 discriminator 3
 1990 0044 554B     		ldr	r3, .L126+4
 1991 0046 DB7A     		ldrb	r3, [r3, #11]
 1992 0048 DBB2     		uxtb	r3, r3
 1993 004a 83F00103 		eor	r3, r3, #1
 1994 004e DBB2     		uxtb	r3, r3
 1995 0050 002B     		cmp	r3, #0
 1996 0052 01D0     		beq	.L111
 1997              		.loc 1 483 0 discriminator 5
 1998 0054 0123     		movs	r3, #1
 1999 0056 00E0     		b	.L112
 2000              	.L111:
 2001              		.loc 1 483 0 discriminator 6
 2002 0058 0023     		movs	r3, #0
 2003              	.L112:
 2004              		.loc 1 483 0 discriminator 8
 2005 005a FB73     		strb	r3, [r7, #15]
 2006 005c FB7B     		ldrb	r3, [r7, #15]
 2007 005e 03F00103 		and	r3, r3, #1
 2008 0062 FB73     		strb	r3, [r7, #15]
 484:.\DisplayUtils.c ****                 break;
 2009              		.loc 1 484 0 is_stmt 1 discriminator 8
 2010 0064 23E0     		b	.L107
 2011              	.L109:
 485:.\DisplayUtils.c ****                 case POSITIONB://PUMP #3
 486:.\DisplayUtils.c ****                 retval = (((_g_pumps[0x02]._pumpstate == PUMP_IDLE) || (_g_pumps[0x02]._pumpstate =
 2012              		.loc 1 486 0
 2013 0066 4D4B     		ldr	r3, .L126+4
 2014 0068 03F59953 		add	r3, r3, #4896
 2015 006c 0233     		adds	r3, r3, #2
 2016 006e 1B78     		ldrb	r3, [r3]
 2017 0070 DBB2     		uxtb	r3, r3
 2018 0072 062B     		cmp	r3, #6
 2019 0074 07D0     		beq	.L113
 2020              		.loc 1 486 0 is_stmt 0 discriminator 2
 2021 0076 494B     		ldr	r3, .L126+4
 2022 0078 03F59953 		add	r3, r3, #4896
 2023 007c 0233     		adds	r3, r3, #2
 2024 007e 1B78     		ldrb	r3, [r3]
 2025 0080 DBB2     		uxtb	r3, r3
 2026 0082 072B     		cmp	r3, #7
 2027 0084 0CD1     		bne	.L114
 2028              	.L113:
 2029              		.loc 1 486 0 discriminator 3
 2030 0086 454B     		ldr	r3, .L126+4
 2031 0088 03F59953 		add	r3, r3, #4896
 2032 008c 0B33     		adds	r3, r3, #11
 2033 008e 1B78     		ldrb	r3, [r3]
 2034 0090 DBB2     		uxtb	r3, r3
 2035 0092 83F00103 		eor	r3, r3, #1
 2036 0096 DBB2     		uxtb	r3, r3
 2037 0098 002B     		cmp	r3, #0
 2038 009a 01D0     		beq	.L114
 2039              		.loc 1 486 0 discriminator 5
 2040 009c 0123     		movs	r3, #1
ARM GAS  C:\Users\RECEPC~1\AppData\Local\Temp\ccfwlgn1.s 			page 46


 2041 009e 00E0     		b	.L115
 2042              	.L114:
 2043              		.loc 1 486 0 discriminator 6
 2044 00a0 0023     		movs	r3, #0
 2045              	.L115:
 2046              		.loc 1 486 0 discriminator 8
 2047 00a2 FB73     		strb	r3, [r7, #15]
 2048 00a4 FB7B     		ldrb	r3, [r7, #15]
 2049 00a6 03F00103 		and	r3, r3, #1
 2050 00aa FB73     		strb	r3, [r7, #15]
 487:.\DisplayUtils.c ****                 break;
 2051              		.loc 1 487 0 is_stmt 1 discriminator 8
 2052 00ac 00BF     		nop
 2053              	.L107:
 488:.\DisplayUtils.c ****             }
 489:.\DisplayUtils.c ****             
 490:.\DisplayUtils.c ****             retval &= !FindSinkMessage(_g_printerlayout._printerportside1);
 2054              		.loc 1 490 0
 2055 00ae 3C4B     		ldr	r3, .L126+8
 2056 00b0 1B78     		ldrb	r3, [r3]	@ zero_extendqisi2
 2057 00b2 1846     		mov	r0, r3
 2058 00b4 FFF7FEFF 		bl	FindSinkMessage
 2059 00b8 0346     		mov	r3, r0
 2060 00ba 83F00103 		eor	r3, r3, #1
 2061 00be DBB2     		uxtb	r3, r3
 2062 00c0 1A46     		mov	r2, r3
 2063 00c2 FB7B     		ldrb	r3, [r7, #15]	@ zero_extendqisi2
 2064 00c4 1340     		ands	r3, r3, r2
 2065 00c6 002B     		cmp	r3, #0
 2066 00c8 14BF     		ite	ne
 2067 00ca 0123     		movne	r3, #1
 2068 00cc 0023     		moveq	r3, #0
 2069 00ce FB73     		strb	r3, [r7, #15]
 2070 00d0 5DE0     		b	.L105
 2071              	.L106:
 491:.\DisplayUtils.c ****         }
 492:.\DisplayUtils.c ****         else if(pdisplay->_dispid == DISPLAY2)
 2072              		.loc 1 492 0
 2073 00d2 BB68     		ldr	r3, [r7, #8]
 2074 00d4 1B78     		ldrb	r3, [r3]	@ zero_extendqisi2
 2075 00d6 012B     		cmp	r3, #1
 2076 00d8 59D1     		bne	.L105
 493:.\DisplayUtils.c ****         {
 494:.\DisplayUtils.c ****             switch(pdisplay->_currscrcode)
 2077              		.loc 1 494 0
 2078 00da BB68     		ldr	r3, [r7, #8]
 2079 00dc DB78     		ldrb	r3, [r3, #3]	@ zero_extendqisi2
 2080 00de 562B     		cmp	r3, #86
 2081 00e0 02D0     		beq	.L117
 2082 00e2 572B     		cmp	r3, #87
 2083 00e4 24D0     		beq	.L118
 2084 00e6 41E0     		b	.L116
 2085              	.L117:
 495:.\DisplayUtils.c ****             {
 496:.\DisplayUtils.c ****                 case POSITIONA://PUMP #4
 497:.\DisplayUtils.c ****                 retval = (((_g_pumps[0x03]._pumpstate == PUMP_IDLE) || (_g_pumps[0x03]._pumpstate =
 2086              		.loc 1 497 0
ARM GAS  C:\Users\RECEPC~1\AppData\Local\Temp\ccfwlgn1.s 			page 47


 2087 00e8 2C4B     		ldr	r3, .L126+4
 2088 00ea 03F5E553 		add	r3, r3, #7328
 2089 00ee 1233     		adds	r3, r3, #18
 2090 00f0 1B78     		ldrb	r3, [r3]
 2091 00f2 DBB2     		uxtb	r3, r3
 2092 00f4 062B     		cmp	r3, #6
 2093 00f6 07D0     		beq	.L119
 2094              		.loc 1 497 0 is_stmt 0 discriminator 2
 2095 00f8 284B     		ldr	r3, .L126+4
 2096 00fa 03F5E553 		add	r3, r3, #7328
 2097 00fe 1233     		adds	r3, r3, #18
 2098 0100 1B78     		ldrb	r3, [r3]
 2099 0102 DBB2     		uxtb	r3, r3
 2100 0104 072B     		cmp	r3, #7
 2101 0106 0CD1     		bne	.L120
 2102              	.L119:
 2103              		.loc 1 497 0 discriminator 3
 2104 0108 244B     		ldr	r3, .L126+4
 2105 010a 03F5E553 		add	r3, r3, #7328
 2106 010e 1B33     		adds	r3, r3, #27
 2107 0110 1B78     		ldrb	r3, [r3]
 2108 0112 DBB2     		uxtb	r3, r3
 2109 0114 83F00103 		eor	r3, r3, #1
 2110 0118 DBB2     		uxtb	r3, r3
 2111 011a 002B     		cmp	r3, #0
 2112 011c 01D0     		beq	.L120
 2113              		.loc 1 497 0 discriminator 5
 2114 011e 0123     		movs	r3, #1
 2115 0120 00E0     		b	.L121
 2116              	.L120:
 2117              		.loc 1 497 0 discriminator 6
 2118 0122 0023     		movs	r3, #0
 2119              	.L121:
 2120              		.loc 1 497 0 discriminator 8
 2121 0124 FB73     		strb	r3, [r7, #15]
 2122 0126 FB7B     		ldrb	r3, [r7, #15]
 2123 0128 03F00103 		and	r3, r3, #1
 2124 012c FB73     		strb	r3, [r7, #15]
 498:.\DisplayUtils.c ****                 break;
 2125              		.loc 1 498 0 is_stmt 1 discriminator 8
 2126 012e 1DE0     		b	.L116
 2127              	.L118:
 499:.\DisplayUtils.c ****                 case POSITIONB://PUMP #2
 500:.\DisplayUtils.c ****                 retval = (((_g_pumps[0x01]._pumpstate == PUMP_IDLE) || (_g_pumps[0x01]._pumpstate =
 2128              		.loc 1 500 0
 2129 0130 1A4B     		ldr	r3, .L126+4
 2130 0132 93F89239 		ldrb	r3, [r3, #2450]
 2131 0136 DBB2     		uxtb	r3, r3
 2132 0138 062B     		cmp	r3, #6
 2133 013a 05D0     		beq	.L122
 2134              		.loc 1 500 0 is_stmt 0 discriminator 2
 2135 013c 174B     		ldr	r3, .L126+4
 2136 013e 93F89239 		ldrb	r3, [r3, #2450]
 2137 0142 DBB2     		uxtb	r3, r3
 2138 0144 072B     		cmp	r3, #7
 2139 0146 0AD1     		bne	.L123
 2140              	.L122:
ARM GAS  C:\Users\RECEPC~1\AppData\Local\Temp\ccfwlgn1.s 			page 48


 2141              		.loc 1 500 0 discriminator 3
 2142 0148 144B     		ldr	r3, .L126+4
 2143 014a 93F89B39 		ldrb	r3, [r3, #2459]
 2144 014e DBB2     		uxtb	r3, r3
 2145 0150 83F00103 		eor	r3, r3, #1
 2146 0154 DBB2     		uxtb	r3, r3
 2147 0156 002B     		cmp	r3, #0
 2148 0158 01D0     		beq	.L123
 2149              		.loc 1 500 0 discriminator 5
 2150 015a 0123     		movs	r3, #1
 2151 015c 00E0     		b	.L124
 2152              	.L123:
 2153              		.loc 1 500 0 discriminator 6
 2154 015e 0023     		movs	r3, #0
 2155              	.L124:
 2156              		.loc 1 500 0 discriminator 8
 2157 0160 FB73     		strb	r3, [r7, #15]
 2158 0162 FB7B     		ldrb	r3, [r7, #15]
 2159 0164 03F00103 		and	r3, r3, #1
 2160 0168 FB73     		strb	r3, [r7, #15]
 501:.\DisplayUtils.c ****                 break;
 2161              		.loc 1 501 0 is_stmt 1 discriminator 8
 2162 016a 00BF     		nop
 2163              	.L116:
 502:.\DisplayUtils.c ****             }
 503:.\DisplayUtils.c ****             
 504:.\DisplayUtils.c ****             retval &= !FindSinkMessage(_g_printerlayout._printerportside2);
 2164              		.loc 1 504 0
 2165 016c 0C4B     		ldr	r3, .L126+8
 2166 016e 5B78     		ldrb	r3, [r3, #1]	@ zero_extendqisi2
 2167 0170 1846     		mov	r0, r3
 2168 0172 FFF7FEFF 		bl	FindSinkMessage
 2169 0176 0346     		mov	r3, r0
 2170 0178 83F00103 		eor	r3, r3, #1
 2171 017c DBB2     		uxtb	r3, r3
 2172 017e 1A46     		mov	r2, r3
 2173 0180 FB7B     		ldrb	r3, [r7, #15]	@ zero_extendqisi2
 2174 0182 1340     		ands	r3, r3, r2
 2175 0184 002B     		cmp	r3, #0
 2176 0186 14BF     		ite	ne
 2177 0188 0123     		movne	r3, #1
 2178 018a 0023     		moveq	r3, #0
 2179 018c FB73     		strb	r3, [r7, #15]
 2180              	.L105:
 505:.\DisplayUtils.c ****         }
 506:.\DisplayUtils.c ****     }
 507:.\DisplayUtils.c ****     
 508:.\DisplayUtils.c ****     return retval;
 2181              		.loc 1 508 0
 2182 018e FB7B     		ldrb	r3, [r7, #15]	@ zero_extendqisi2
 509:.\DisplayUtils.c **** }
 2183              		.loc 1 509 0
 2184 0190 1846     		mov	r0, r3
 2185 0192 1037     		adds	r7, r7, #16
 2186              		.cfi_def_cfa_offset 8
 2187 0194 BD46     		mov	sp, r7
 2188              		.cfi_def_cfa_register 13
ARM GAS  C:\Users\RECEPC~1\AppData\Local\Temp\ccfwlgn1.s 			page 49


 2189              		@ sp needed
 2190 0196 80BD     		pop	{r7, pc}
 2191              	.L127:
 2192              		.align	2
 2193              	.L126:
 2194 0198 00000000 		.word	_g_dispenserlayoutinfo
 2195 019c 00000000 		.word	_g_pumps
 2196 01a0 00000000 		.word	_g_printerlayout
 2197              		.cfi_endproc
 2198              	.LFE79:
 2199              		.size	ValidatePumpAvailability4Positions, .-ValidatePumpAvailability4Positions
 2200              		.section	.text.ValidatePumpAvailability21Positions,"ax",%progbits
 2201              		.align	2
 2202              		.global	ValidatePumpAvailability21Positions
 2203              		.thumb
 2204              		.thumb_func
 2205              		.type	ValidatePumpAvailability21Positions, %function
 2206              	ValidatePumpAvailability21Positions:
 2207              	.LFB80:
 510:.\DisplayUtils.c **** 
 511:.\DisplayUtils.c **** bool ValidatePumpAvailability21Positions(void *pparam)
 512:.\DisplayUtils.c **** {
 2208              		.loc 1 512 0
 2209              		.cfi_startproc
 2210              		@ args = 0, pretend = 0, frame = 16
 2211              		@ frame_needed = 1, uses_anonymous_args = 0
 2212 0000 80B5     		push	{r7, lr}
 2213              		.cfi_def_cfa_offset 8
 2214              		.cfi_offset 7, -8
 2215              		.cfi_offset 14, -4
 2216 0002 84B0     		sub	sp, sp, #16
 2217              		.cfi_def_cfa_offset 24
 2218 0004 00AF     		add	r7, sp, #0
 2219              		.cfi_def_cfa_register 7
 2220 0006 7860     		str	r0, [r7, #4]
 513:.\DisplayUtils.c ****     bool retval = true;
 2221              		.loc 1 513 0
 2222 0008 0123     		movs	r3, #1
 2223 000a FB73     		strb	r3, [r7, #15]
 514:.\DisplayUtils.c ****     DisplayLayout *pdisplay = (DisplayLayout*)pparam;
 2224              		.loc 1 514 0
 2225 000c 7B68     		ldr	r3, [r7, #4]
 2226 000e BB60     		str	r3, [r7, #8]
 515:.\DisplayUtils.c ****     if(_g_dispenserlayoutinfo._numpositions == 0x02)
 2227              		.loc 1 515 0
 2228 0010 4F4B     		ldr	r3, .L143
 2229 0012 9B78     		ldrb	r3, [r3, #2]	@ zero_extendqisi2
 2230 0014 022B     		cmp	r3, #2
 2231 0016 62D1     		bne	.L129
 516:.\DisplayUtils.c ****     {
 517:.\DisplayUtils.c ****         if(pdisplay->_dispid == DISPLAY1)
 2232              		.loc 1 517 0
 2233 0018 BB68     		ldr	r3, [r7, #8]
 2234 001a 1B78     		ldrb	r3, [r3]	@ zero_extendqisi2
 2235 001c 002B     		cmp	r3, #0
 2236 001e 2BD1     		bne	.L130
 518:.\DisplayUtils.c ****         {
ARM GAS  C:\Users\RECEPC~1\AppData\Local\Temp\ccfwlgn1.s 			page 50


 519:.\DisplayUtils.c ****             retval = (((_g_pumps[0x00]._pumpstate == PUMP_IDLE) || (_g_pumps[0x00]._pumpstate == PU
 2237              		.loc 1 519 0
 2238 0020 4C4B     		ldr	r3, .L143+4
 2239 0022 9B78     		ldrb	r3, [r3, #2]
 2240 0024 DBB2     		uxtb	r3, r3
 2241 0026 062B     		cmp	r3, #6
 2242 0028 04D0     		beq	.L131
 2243              		.loc 1 519 0 is_stmt 0 discriminator 2
 2244 002a 4A4B     		ldr	r3, .L143+4
 2245 002c 9B78     		ldrb	r3, [r3, #2]
 2246 002e DBB2     		uxtb	r3, r3
 2247 0030 072B     		cmp	r3, #7
 2248 0032 09D1     		bne	.L132
 2249              	.L131:
 2250              		.loc 1 519 0 discriminator 3
 2251 0034 474B     		ldr	r3, .L143+4
 2252 0036 DB7A     		ldrb	r3, [r3, #11]
 2253 0038 DBB2     		uxtb	r3, r3
 2254 003a 83F00103 		eor	r3, r3, #1
 2255 003e DBB2     		uxtb	r3, r3
 2256 0040 002B     		cmp	r3, #0
 2257 0042 01D0     		beq	.L132
 2258              		.loc 1 519 0 discriminator 5
 2259 0044 0123     		movs	r3, #1
 2260 0046 00E0     		b	.L133
 2261              	.L132:
 2262              		.loc 1 519 0 discriminator 6
 2263 0048 0023     		movs	r3, #0
 2264              	.L133:
 2265              		.loc 1 519 0 discriminator 8
 2266 004a FB73     		strb	r3, [r7, #15]
 2267 004c FB7B     		ldrb	r3, [r7, #15]
 2268 004e 03F00103 		and	r3, r3, #1
 2269 0052 FB73     		strb	r3, [r7, #15]
 520:.\DisplayUtils.c ****             retval &= !FindSinkMessage(_g_printerlayout._printerportside1);
 2270              		.loc 1 520 0 is_stmt 1 discriminator 8
 2271 0054 404B     		ldr	r3, .L143+8
 2272 0056 1B78     		ldrb	r3, [r3]	@ zero_extendqisi2
 2273 0058 1846     		mov	r0, r3
 2274 005a FFF7FEFF 		bl	FindSinkMessage
 2275 005e 0346     		mov	r3, r0
 2276 0060 83F00103 		eor	r3, r3, #1
 2277 0064 DBB2     		uxtb	r3, r3
 2278 0066 1A46     		mov	r2, r3
 2279 0068 FB7B     		ldrb	r3, [r7, #15]	@ zero_extendqisi2
 2280 006a 1340     		ands	r3, r3, r2
 2281 006c 002B     		cmp	r3, #0
 2282 006e 14BF     		ite	ne
 2283 0070 0123     		movne	r3, #1
 2284 0072 0023     		moveq	r3, #0
 2285 0074 FB73     		strb	r3, [r7, #15]
 2286 0076 65E0     		b	.L138
 2287              	.L130:
 521:.\DisplayUtils.c ****         }
 522:.\DisplayUtils.c ****         else if(pdisplay->_dispid == DISPLAY2)
 2288              		.loc 1 522 0
 2289 0078 BB68     		ldr	r3, [r7, #8]
ARM GAS  C:\Users\RECEPC~1\AppData\Local\Temp\ccfwlgn1.s 			page 51


 2290 007a 1B78     		ldrb	r3, [r3]	@ zero_extendqisi2
 2291 007c 012B     		cmp	r3, #1
 2292 007e 61D1     		bne	.L138
 523:.\DisplayUtils.c ****         {
 524:.\DisplayUtils.c ****             retval = (((_g_pumps[0x01]._pumpstate == PUMP_IDLE) || (_g_pumps[0x01]._pumpstate == PU
 2293              		.loc 1 524 0
 2294 0080 344B     		ldr	r3, .L143+4
 2295 0082 93F89239 		ldrb	r3, [r3, #2450]
 2296 0086 DBB2     		uxtb	r3, r3
 2297 0088 062B     		cmp	r3, #6
 2298 008a 05D0     		beq	.L135
 2299              		.loc 1 524 0 is_stmt 0 discriminator 2
 2300 008c 314B     		ldr	r3, .L143+4
 2301 008e 93F89239 		ldrb	r3, [r3, #2450]
 2302 0092 DBB2     		uxtb	r3, r3
 2303 0094 072B     		cmp	r3, #7
 2304 0096 0AD1     		bne	.L136
 2305              	.L135:
 2306              		.loc 1 524 0 discriminator 3
 2307 0098 2E4B     		ldr	r3, .L143+4
 2308 009a 93F89B39 		ldrb	r3, [r3, #2459]
 2309 009e DBB2     		uxtb	r3, r3
 2310 00a0 83F00103 		eor	r3, r3, #1
 2311 00a4 DBB2     		uxtb	r3, r3
 2312 00a6 002B     		cmp	r3, #0
 2313 00a8 01D0     		beq	.L136
 2314              		.loc 1 524 0 discriminator 5
 2315 00aa 0123     		movs	r3, #1
 2316 00ac 00E0     		b	.L137
 2317              	.L136:
 2318              		.loc 1 524 0 discriminator 6
 2319 00ae 0023     		movs	r3, #0
 2320              	.L137:
 2321              		.loc 1 524 0 discriminator 8
 2322 00b0 FB73     		strb	r3, [r7, #15]
 2323 00b2 FB7B     		ldrb	r3, [r7, #15]
 2324 00b4 03F00103 		and	r3, r3, #1
 2325 00b8 FB73     		strb	r3, [r7, #15]
 525:.\DisplayUtils.c ****             retval &= !FindSinkMessage(_g_printerlayout._printerportside2);
 2326              		.loc 1 525 0 is_stmt 1 discriminator 8
 2327 00ba 274B     		ldr	r3, .L143+8
 2328 00bc 5B78     		ldrb	r3, [r3, #1]	@ zero_extendqisi2
 2329 00be 1846     		mov	r0, r3
 2330 00c0 FFF7FEFF 		bl	FindSinkMessage
 2331 00c4 0346     		mov	r3, r0
 2332 00c6 83F00103 		eor	r3, r3, #1
 2333 00ca DBB2     		uxtb	r3, r3
 2334 00cc 1A46     		mov	r2, r3
 2335 00ce FB7B     		ldrb	r3, [r7, #15]	@ zero_extendqisi2
 2336 00d0 1340     		ands	r3, r3, r2
 2337 00d2 002B     		cmp	r3, #0
 2338 00d4 14BF     		ite	ne
 2339 00d6 0123     		movne	r3, #1
 2340 00d8 0023     		moveq	r3, #0
 2341 00da FB73     		strb	r3, [r7, #15]
 2342 00dc 32E0     		b	.L138
 2343              	.L129:
ARM GAS  C:\Users\RECEPC~1\AppData\Local\Temp\ccfwlgn1.s 			page 52


 526:.\DisplayUtils.c ****         }
 527:.\DisplayUtils.c ****     }
 528:.\DisplayUtils.c ****     else if(_g_dispenserlayoutinfo._numpositions == 0x01)
 2344              		.loc 1 528 0
 2345 00de 1C4B     		ldr	r3, .L143
 2346 00e0 9B78     		ldrb	r3, [r3, #2]	@ zero_extendqisi2
 2347 00e2 012B     		cmp	r3, #1
 2348 00e4 2ED1     		bne	.L138
 529:.\DisplayUtils.c ****     {
 530:.\DisplayUtils.c ****         if(pdisplay->_dispid == DISPLAY1)
 2349              		.loc 1 530 0
 2350 00e6 BB68     		ldr	r3, [r7, #8]
 2351 00e8 1B78     		ldrb	r3, [r3]	@ zero_extendqisi2
 2352 00ea 002B     		cmp	r3, #0
 2353 00ec 2AD1     		bne	.L138
 531:.\DisplayUtils.c ****         {
 532:.\DisplayUtils.c ****             retval = (((_g_pumps[0x00]._pumpstate == PUMP_IDLE) || (_g_pumps[0x00]._pumpstate == PU
 2354              		.loc 1 532 0
 2355 00ee 194B     		ldr	r3, .L143+4
 2356 00f0 9B78     		ldrb	r3, [r3, #2]
 2357 00f2 DBB2     		uxtb	r3, r3
 2358 00f4 062B     		cmp	r3, #6
 2359 00f6 04D0     		beq	.L139
 2360              		.loc 1 532 0 is_stmt 0 discriminator 2
 2361 00f8 164B     		ldr	r3, .L143+4
 2362 00fa 9B78     		ldrb	r3, [r3, #2]
 2363 00fc DBB2     		uxtb	r3, r3
 2364 00fe 072B     		cmp	r3, #7
 2365 0100 09D1     		bne	.L140
 2366              	.L139:
 2367              		.loc 1 532 0 discriminator 3
 2368 0102 144B     		ldr	r3, .L143+4
 2369 0104 DB7A     		ldrb	r3, [r3, #11]
 2370 0106 DBB2     		uxtb	r3, r3
 2371 0108 83F00103 		eor	r3, r3, #1
 2372 010c DBB2     		uxtb	r3, r3
 2373 010e 002B     		cmp	r3, #0
 2374 0110 01D0     		beq	.L140
 2375              		.loc 1 532 0 discriminator 5
 2376 0112 0123     		movs	r3, #1
 2377 0114 00E0     		b	.L141
 2378              	.L140:
 2379              		.loc 1 532 0 discriminator 6
 2380 0116 0023     		movs	r3, #0
 2381              	.L141:
 2382              		.loc 1 532 0 discriminator 8
 2383 0118 FB73     		strb	r3, [r7, #15]
 2384 011a FB7B     		ldrb	r3, [r7, #15]
 2385 011c 03F00103 		and	r3, r3, #1
 2386 0120 FB73     		strb	r3, [r7, #15]
 533:.\DisplayUtils.c ****             retval &= !FindSinkMessage(_g_printerlayout._printerportside1);
 2387              		.loc 1 533 0 is_stmt 1 discriminator 8
 2388 0122 0D4B     		ldr	r3, .L143+8
 2389 0124 1B78     		ldrb	r3, [r3]	@ zero_extendqisi2
 2390 0126 1846     		mov	r0, r3
 2391 0128 FFF7FEFF 		bl	FindSinkMessage
 2392 012c 0346     		mov	r3, r0
ARM GAS  C:\Users\RECEPC~1\AppData\Local\Temp\ccfwlgn1.s 			page 53


 2393 012e 83F00103 		eor	r3, r3, #1
 2394 0132 DBB2     		uxtb	r3, r3
 2395 0134 1A46     		mov	r2, r3
 2396 0136 FB7B     		ldrb	r3, [r7, #15]	@ zero_extendqisi2
 2397 0138 1340     		ands	r3, r3, r2
 2398 013a 002B     		cmp	r3, #0
 2399 013c 14BF     		ite	ne
 2400 013e 0123     		movne	r3, #1
 2401 0140 0023     		moveq	r3, #0
 2402 0142 FB73     		strb	r3, [r7, #15]
 2403              	.L138:
 534:.\DisplayUtils.c ****         }
 535:.\DisplayUtils.c ****     }
 536:.\DisplayUtils.c ****     
 537:.\DisplayUtils.c ****     return retval;
 2404              		.loc 1 537 0
 2405 0144 FB7B     		ldrb	r3, [r7, #15]	@ zero_extendqisi2
 538:.\DisplayUtils.c **** }
 2406              		.loc 1 538 0
 2407 0146 1846     		mov	r0, r3
 2408 0148 1037     		adds	r7, r7, #16
 2409              		.cfi_def_cfa_offset 8
 2410 014a BD46     		mov	sp, r7
 2411              		.cfi_def_cfa_register 13
 2412              		@ sp needed
 2413 014c 80BD     		pop	{r7, pc}
 2414              	.L144:
 2415 014e 00BF     		.align	2
 2416              	.L143:
 2417 0150 00000000 		.word	_g_dispenserlayoutinfo
 2418 0154 00000000 		.word	_g_pumps
 2419 0158 00000000 		.word	_g_printerlayout
 2420              		.cfi_endproc
 2421              	.LFE80:
 2422              		.size	ValidatePumpAvailability21Positions, .-ValidatePumpAvailability21Positions
 2423              		.section	.text.GetPumpsAvailability,"ax",%progbits
 2424              		.align	2
 2425              		.global	GetPumpsAvailability
 2426              		.thumb
 2427              		.thumb_func
 2428              		.type	GetPumpsAvailability, %function
 2429              	GetPumpsAvailability:
 2430              	.LFB81:
 539:.\DisplayUtils.c **** 
 540:.\DisplayUtils.c **** void GetPumpsAvailability(void *pparam, uint8 *pvalues)
 541:.\DisplayUtils.c **** {
 2431              		.loc 1 541 0
 2432              		.cfi_startproc
 2433              		@ args = 0, pretend = 0, frame = 16
 2434              		@ frame_needed = 1, uses_anonymous_args = 0
 2435              		@ link register save eliminated.
 2436 0000 80B4     		push	{r7}
 2437              		.cfi_def_cfa_offset 4
 2438              		.cfi_offset 7, -4
 2439 0002 85B0     		sub	sp, sp, #20
 2440              		.cfi_def_cfa_offset 24
 2441 0004 00AF     		add	r7, sp, #0
ARM GAS  C:\Users\RECEPC~1\AppData\Local\Temp\ccfwlgn1.s 			page 54


 2442              		.cfi_def_cfa_register 7
 2443 0006 7860     		str	r0, [r7, #4]
 2444 0008 3960     		str	r1, [r7]
 542:.\DisplayUtils.c ****     DisplayLayout *pdisplay = (DisplayLayout*)pparam;
 2445              		.loc 1 542 0
 2446 000a 7B68     		ldr	r3, [r7, #4]
 2447 000c FB60     		str	r3, [r7, #12]
 543:.\DisplayUtils.c ****     if(_g_dispenserlayoutinfo._numpositions == 0x04)
 2448              		.loc 1 543 0
 2449 000e 9D4B     		ldr	r3, .L183
 2450 0010 9B78     		ldrb	r3, [r3, #2]	@ zero_extendqisi2
 2451 0012 042B     		cmp	r3, #4
 2452 0014 40F08280 		bne	.L146
 544:.\DisplayUtils.c ****     {
 545:.\DisplayUtils.c ****         if(pdisplay->_dispid == DISPLAY1)
 2453              		.loc 1 545 0
 2454 0018 FB68     		ldr	r3, [r7, #12]
 2455 001a 1B78     		ldrb	r3, [r3]	@ zero_extendqisi2
 2456 001c 002B     		cmp	r3, #0
 2457 001e 3AD1     		bne	.L147
 546:.\DisplayUtils.c ****         {
 547:.\DisplayUtils.c ****             pvalues[0x00] = (((_g_pumps[0x00]._pumpstate == PUMP_IDLE) || (_g_pumps[0x00]._pumpstat
 2458              		.loc 1 547 0
 2459 0020 994B     		ldr	r3, .L183+4
 2460 0022 9B78     		ldrb	r3, [r3, #2]
 2461 0024 DBB2     		uxtb	r3, r3
 2462 0026 062B     		cmp	r3, #6
 2463 0028 04D0     		beq	.L148
 2464              		.loc 1 547 0 is_stmt 0 discriminator 2
 2465 002a 974B     		ldr	r3, .L183+4
 2466 002c 9B78     		ldrb	r3, [r3, #2]
 2467 002e DBB2     		uxtb	r3, r3
 2468 0030 072B     		cmp	r3, #7
 2469 0032 09D1     		bne	.L149
 2470              	.L148:
 2471              		.loc 1 547 0 discriminator 3
 2472 0034 944B     		ldr	r3, .L183+4
 2473 0036 DB7A     		ldrb	r3, [r3, #11]
 2474 0038 DBB2     		uxtb	r3, r3
 2475 003a 83F00103 		eor	r3, r3, #1
 2476 003e DBB2     		uxtb	r3, r3
 2477 0040 002B     		cmp	r3, #0
 2478 0042 01D0     		beq	.L149
 2479              		.loc 1 547 0 discriminator 5
 2480 0044 0123     		movs	r3, #1
 2481 0046 00E0     		b	.L150
 2482              	.L149:
 2483              		.loc 1 547 0 discriminator 6
 2484 0048 0023     		movs	r3, #0
 2485              	.L150:
 2486              		.loc 1 547 0 discriminator 8
 2487 004a DAB2     		uxtb	r2, r3
 2488 004c 3B68     		ldr	r3, [r7]
 2489 004e 1A70     		strb	r2, [r3]
 548:.\DisplayUtils.c ****             pvalues[0x01] = (((_g_pumps[0x02]._pumpstate == PUMP_IDLE) || (_g_pumps[0x02]._pumpstat
 2490              		.loc 1 548 0 is_stmt 1 discriminator 8
 2491 0050 3B68     		ldr	r3, [r7]
ARM GAS  C:\Users\RECEPC~1\AppData\Local\Temp\ccfwlgn1.s 			page 55


 2492 0052 5A1C     		adds	r2, r3, #1
 2493 0054 8C4B     		ldr	r3, .L183+4
 2494 0056 03F59953 		add	r3, r3, #4896
 2495 005a 0233     		adds	r3, r3, #2
 2496 005c 1B78     		ldrb	r3, [r3]
 2497 005e DBB2     		uxtb	r3, r3
 2498 0060 062B     		cmp	r3, #6
 2499 0062 07D0     		beq	.L151
 2500              		.loc 1 548 0 is_stmt 0 discriminator 2
 2501 0064 884B     		ldr	r3, .L183+4
 2502 0066 03F59953 		add	r3, r3, #4896
 2503 006a 0233     		adds	r3, r3, #2
 2504 006c 1B78     		ldrb	r3, [r3]
 2505 006e DBB2     		uxtb	r3, r3
 2506 0070 072B     		cmp	r3, #7
 2507 0072 0CD1     		bne	.L152
 2508              	.L151:
 2509              		.loc 1 548 0 discriminator 3
 2510 0074 844B     		ldr	r3, .L183+4
 2511 0076 03F59953 		add	r3, r3, #4896
 2512 007a 0B33     		adds	r3, r3, #11
 2513 007c 1B78     		ldrb	r3, [r3]
 2514 007e DBB2     		uxtb	r3, r3
 2515 0080 83F00103 		eor	r3, r3, #1
 2516 0084 DBB2     		uxtb	r3, r3
 2517 0086 002B     		cmp	r3, #0
 2518 0088 01D0     		beq	.L152
 2519              		.loc 1 548 0 discriminator 5
 2520 008a 0123     		movs	r3, #1
 2521 008c 00E0     		b	.L153
 2522              	.L152:
 2523              		.loc 1 548 0 discriminator 6
 2524 008e 0023     		movs	r3, #0
 2525              	.L153:
 2526              		.loc 1 548 0 discriminator 8
 2527 0090 DBB2     		uxtb	r3, r3
 2528 0092 1370     		strb	r3, [r2]
 2529 0094 F1E0     		b	.L145
 2530              	.L147:
 549:.\DisplayUtils.c ****             
 550:.\DisplayUtils.c ****         }
 551:.\DisplayUtils.c ****         else if(pdisplay->_dispid == DISPLAY2)
 2531              		.loc 1 551 0 is_stmt 1
 2532 0096 FB68     		ldr	r3, [r7, #12]
 2533 0098 1B78     		ldrb	r3, [r3]	@ zero_extendqisi2
 2534 009a 012B     		cmp	r3, #1
 2535 009c 40F0ED80 		bne	.L145
 552:.\DisplayUtils.c ****         {
 553:.\DisplayUtils.c ****             pvalues[0x00] = (((_g_pumps[0x03]._pumpstate == PUMP_IDLE) || (_g_pumps[0x03]._pumpstat
 2536              		.loc 1 553 0
 2537 00a0 794B     		ldr	r3, .L183+4
 2538 00a2 03F5E553 		add	r3, r3, #7328
 2539 00a6 1233     		adds	r3, r3, #18
 2540 00a8 1B78     		ldrb	r3, [r3]
 2541 00aa DBB2     		uxtb	r3, r3
 2542 00ac 062B     		cmp	r3, #6
 2543 00ae 07D0     		beq	.L155
ARM GAS  C:\Users\RECEPC~1\AppData\Local\Temp\ccfwlgn1.s 			page 56


 2544              		.loc 1 553 0 is_stmt 0 discriminator 2
 2545 00b0 754B     		ldr	r3, .L183+4
 2546 00b2 03F5E553 		add	r3, r3, #7328
 2547 00b6 1233     		adds	r3, r3, #18
 2548 00b8 1B78     		ldrb	r3, [r3]
 2549 00ba DBB2     		uxtb	r3, r3
 2550 00bc 072B     		cmp	r3, #7
 2551 00be 0CD1     		bne	.L156
 2552              	.L155:
 2553              		.loc 1 553 0 discriminator 3
 2554 00c0 714B     		ldr	r3, .L183+4
 2555 00c2 03F5E553 		add	r3, r3, #7328
 2556 00c6 1B33     		adds	r3, r3, #27
 2557 00c8 1B78     		ldrb	r3, [r3]
 2558 00ca DBB2     		uxtb	r3, r3
 2559 00cc 83F00103 		eor	r3, r3, #1
 2560 00d0 DBB2     		uxtb	r3, r3
 2561 00d2 002B     		cmp	r3, #0
 2562 00d4 01D0     		beq	.L156
 2563              		.loc 1 553 0 discriminator 5
 2564 00d6 0123     		movs	r3, #1
 2565 00d8 00E0     		b	.L157
 2566              	.L156:
 2567              		.loc 1 553 0 discriminator 6
 2568 00da 0023     		movs	r3, #0
 2569              	.L157:
 2570              		.loc 1 553 0 discriminator 8
 2571 00dc DAB2     		uxtb	r2, r3
 2572 00de 3B68     		ldr	r3, [r7]
 2573 00e0 1A70     		strb	r2, [r3]
 554:.\DisplayUtils.c ****             pvalues[0x01] = (((_g_pumps[0x01]._pumpstate == PUMP_IDLE) || (_g_pumps[0x01]._pumpstat
 2574              		.loc 1 554 0 is_stmt 1 discriminator 8
 2575 00e2 3B68     		ldr	r3, [r7]
 2576 00e4 0133     		adds	r3, r3, #1
 2577 00e6 684A     		ldr	r2, .L183+4
 2578 00e8 92F89229 		ldrb	r2, [r2, #2450]
 2579 00ec D2B2     		uxtb	r2, r2
 2580 00ee 062A     		cmp	r2, #6
 2581 00f0 05D0     		beq	.L158
 2582              		.loc 1 554 0 is_stmt 0 discriminator 2
 2583 00f2 654A     		ldr	r2, .L183+4
 2584 00f4 92F89229 		ldrb	r2, [r2, #2450]
 2585 00f8 D2B2     		uxtb	r2, r2
 2586 00fa 072A     		cmp	r2, #7
 2587 00fc 0AD1     		bne	.L159
 2588              	.L158:
 2589              		.loc 1 554 0 discriminator 3
 2590 00fe 624A     		ldr	r2, .L183+4
 2591 0100 92F89B29 		ldrb	r2, [r2, #2459]
 2592 0104 D2B2     		uxtb	r2, r2
 2593 0106 82F00102 		eor	r2, r2, #1
 2594 010a D2B2     		uxtb	r2, r2
 2595 010c 002A     		cmp	r2, #0
 2596 010e 01D0     		beq	.L159
 2597              		.loc 1 554 0 discriminator 5
 2598 0110 0122     		movs	r2, #1
 2599 0112 00E0     		b	.L160
ARM GAS  C:\Users\RECEPC~1\AppData\Local\Temp\ccfwlgn1.s 			page 57


 2600              	.L159:
 2601              		.loc 1 554 0 discriminator 6
 2602 0114 0022     		movs	r2, #0
 2603              	.L160:
 2604              		.loc 1 554 0 discriminator 8
 2605 0116 D2B2     		uxtb	r2, r2
 2606 0118 1A70     		strb	r2, [r3]
 2607 011a AEE0     		b	.L145
 2608              	.L146:
 555:.\DisplayUtils.c ****             
 556:.\DisplayUtils.c ****         }
 557:.\DisplayUtils.c ****     }
 558:.\DisplayUtils.c ****     else if(_g_dispenserlayoutinfo._numpositions == 0x02)
 2609              		.loc 1 558 0 is_stmt 1
 2610 011c 594B     		ldr	r3, .L183
 2611 011e 9B78     		ldrb	r3, [r3, #2]	@ zero_extendqisi2
 2612 0120 022B     		cmp	r3, #2
 2613 0122 71D1     		bne	.L162
 559:.\DisplayUtils.c ****     {
 560:.\DisplayUtils.c ****         if(pdisplay->_dispid == DISPLAY1)
 2614              		.loc 1 560 0
 2615 0124 FB68     		ldr	r3, [r7, #12]
 2616 0126 1B78     		ldrb	r3, [r3]	@ zero_extendqisi2
 2617 0128 002B     		cmp	r3, #0
 2618 012a 31D1     		bne	.L163
 561:.\DisplayUtils.c ****         {
 562:.\DisplayUtils.c ****             pvalues[0x00] = (((_g_pumps[0x00]._pumpstate == PUMP_IDLE) || (_g_pumps[0x00]._pumpstat
 2619              		.loc 1 562 0
 2620 012c 564B     		ldr	r3, .L183+4
 2621 012e 9B78     		ldrb	r3, [r3, #2]
 2622 0130 DBB2     		uxtb	r3, r3
 2623 0132 062B     		cmp	r3, #6
 2624 0134 04D0     		beq	.L164
 2625              		.loc 1 562 0 is_stmt 0 discriminator 2
 2626 0136 544B     		ldr	r3, .L183+4
 2627 0138 9B78     		ldrb	r3, [r3, #2]
 2628 013a DBB2     		uxtb	r3, r3
 2629 013c 072B     		cmp	r3, #7
 2630 013e 09D1     		bne	.L165
 2631              	.L164:
 2632              		.loc 1 562 0 discriminator 3
 2633 0140 514B     		ldr	r3, .L183+4
 2634 0142 DB7A     		ldrb	r3, [r3, #11]
 2635 0144 DBB2     		uxtb	r3, r3
 2636 0146 83F00103 		eor	r3, r3, #1
 2637 014a DBB2     		uxtb	r3, r3
 2638 014c 002B     		cmp	r3, #0
 2639 014e 01D0     		beq	.L165
 2640              		.loc 1 562 0 discriminator 5
 2641 0150 0123     		movs	r3, #1
 2642 0152 00E0     		b	.L166
 2643              	.L165:
 2644              		.loc 1 562 0 discriminator 6
 2645 0154 0023     		movs	r3, #0
 2646              	.L166:
 2647              		.loc 1 562 0 discriminator 8
 2648 0156 DAB2     		uxtb	r2, r3
ARM GAS  C:\Users\RECEPC~1\AppData\Local\Temp\ccfwlgn1.s 			page 58


 2649 0158 3B68     		ldr	r3, [r7]
 2650 015a 1A70     		strb	r2, [r3]
 563:.\DisplayUtils.c ****             pvalues[0x01] = (((_g_pumps[0x00]._pumpstate == PUMP_IDLE) || (_g_pumps[0x00]._pumpstat
 2651              		.loc 1 563 0 is_stmt 1 discriminator 8
 2652 015c 3B68     		ldr	r3, [r7]
 2653 015e 0133     		adds	r3, r3, #1
 2654 0160 494A     		ldr	r2, .L183+4
 2655 0162 9278     		ldrb	r2, [r2, #2]
 2656 0164 D2B2     		uxtb	r2, r2
 2657 0166 062A     		cmp	r2, #6
 2658 0168 04D0     		beq	.L167
 2659              		.loc 1 563 0 is_stmt 0 discriminator 2
 2660 016a 474A     		ldr	r2, .L183+4
 2661 016c 9278     		ldrb	r2, [r2, #2]
 2662 016e D2B2     		uxtb	r2, r2
 2663 0170 072A     		cmp	r2, #7
 2664 0172 09D1     		bne	.L168
 2665              	.L167:
 2666              		.loc 1 563 0 discriminator 3
 2667 0174 444A     		ldr	r2, .L183+4
 2668 0176 D27A     		ldrb	r2, [r2, #11]
 2669 0178 D2B2     		uxtb	r2, r2
 2670 017a 82F00102 		eor	r2, r2, #1
 2671 017e D2B2     		uxtb	r2, r2
 2672 0180 002A     		cmp	r2, #0
 2673 0182 01D0     		beq	.L168
 2674              		.loc 1 563 0 discriminator 5
 2675 0184 0122     		movs	r2, #1
 2676 0186 00E0     		b	.L169
 2677              	.L168:
 2678              		.loc 1 563 0 discriminator 6
 2679 0188 0022     		movs	r2, #0
 2680              	.L169:
 2681              		.loc 1 563 0 discriminator 8
 2682 018a D2B2     		uxtb	r2, r2
 2683 018c 1A70     		strb	r2, [r3]
 2684 018e 74E0     		b	.L145
 2685              	.L163:
 564:.\DisplayUtils.c ****             
 565:.\DisplayUtils.c ****         }
 566:.\DisplayUtils.c ****         else if(pdisplay->_dispid == DISPLAY2)
 2686              		.loc 1 566 0 is_stmt 1
 2687 0190 FB68     		ldr	r3, [r7, #12]
 2688 0192 1B78     		ldrb	r3, [r3]	@ zero_extendqisi2
 2689 0194 012B     		cmp	r3, #1
 2690 0196 70D1     		bne	.L145
 567:.\DisplayUtils.c ****         {
 568:.\DisplayUtils.c ****             pvalues[0x00] = (((_g_pumps[0x01]._pumpstate == PUMP_IDLE) || (_g_pumps[0x01]._pumpstat
 2691              		.loc 1 568 0
 2692 0198 3B4B     		ldr	r3, .L183+4
 2693 019a 93F89239 		ldrb	r3, [r3, #2450]
 2694 019e DBB2     		uxtb	r3, r3
 2695 01a0 062B     		cmp	r3, #6
 2696 01a2 05D0     		beq	.L171
 2697              		.loc 1 568 0 is_stmt 0 discriminator 2
 2698 01a4 384B     		ldr	r3, .L183+4
 2699 01a6 93F89239 		ldrb	r3, [r3, #2450]
ARM GAS  C:\Users\RECEPC~1\AppData\Local\Temp\ccfwlgn1.s 			page 59


 2700 01aa DBB2     		uxtb	r3, r3
 2701 01ac 072B     		cmp	r3, #7
 2702 01ae 0AD1     		bne	.L172
 2703              	.L171:
 2704              		.loc 1 568 0 discriminator 3
 2705 01b0 354B     		ldr	r3, .L183+4
 2706 01b2 93F89B39 		ldrb	r3, [r3, #2459]
 2707 01b6 DBB2     		uxtb	r3, r3
 2708 01b8 83F00103 		eor	r3, r3, #1
 2709 01bc DBB2     		uxtb	r3, r3
 2710 01be 002B     		cmp	r3, #0
 2711 01c0 01D0     		beq	.L172
 2712              		.loc 1 568 0 discriminator 5
 2713 01c2 0123     		movs	r3, #1
 2714 01c4 00E0     		b	.L173
 2715              	.L172:
 2716              		.loc 1 568 0 discriminator 6
 2717 01c6 0023     		movs	r3, #0
 2718              	.L173:
 2719              		.loc 1 568 0 discriminator 8
 2720 01c8 DAB2     		uxtb	r2, r3
 2721 01ca 3B68     		ldr	r3, [r7]
 2722 01cc 1A70     		strb	r2, [r3]
 569:.\DisplayUtils.c ****             pvalues[0x01] = (((_g_pumps[0x01]._pumpstate == PUMP_IDLE) || (_g_pumps[0x01]._pumpstat
 2723              		.loc 1 569 0 is_stmt 1 discriminator 8
 2724 01ce 3B68     		ldr	r3, [r7]
 2725 01d0 0133     		adds	r3, r3, #1
 2726 01d2 2D4A     		ldr	r2, .L183+4
 2727 01d4 92F89229 		ldrb	r2, [r2, #2450]
 2728 01d8 D2B2     		uxtb	r2, r2
 2729 01da 062A     		cmp	r2, #6
 2730 01dc 05D0     		beq	.L174
 2731              		.loc 1 569 0 is_stmt 0 discriminator 2
 2732 01de 2A4A     		ldr	r2, .L183+4
 2733 01e0 92F89229 		ldrb	r2, [r2, #2450]
 2734 01e4 D2B2     		uxtb	r2, r2
 2735 01e6 072A     		cmp	r2, #7
 2736 01e8 0AD1     		bne	.L175
 2737              	.L174:
 2738              		.loc 1 569 0 discriminator 3
 2739 01ea 274A     		ldr	r2, .L183+4
 2740 01ec 92F89B29 		ldrb	r2, [r2, #2459]
 2741 01f0 D2B2     		uxtb	r2, r2
 2742 01f2 82F00102 		eor	r2, r2, #1
 2743 01f6 D2B2     		uxtb	r2, r2
 2744 01f8 002A     		cmp	r2, #0
 2745 01fa 01D0     		beq	.L175
 2746              		.loc 1 569 0 discriminator 5
 2747 01fc 0122     		movs	r2, #1
 2748 01fe 00E0     		b	.L176
 2749              	.L175:
 2750              		.loc 1 569 0 discriminator 6
 2751 0200 0022     		movs	r2, #0
 2752              	.L176:
 2753              		.loc 1 569 0 discriminator 8
 2754 0202 D2B2     		uxtb	r2, r2
 2755 0204 1A70     		strb	r2, [r3]
ARM GAS  C:\Users\RECEPC~1\AppData\Local\Temp\ccfwlgn1.s 			page 60


 2756 0206 38E0     		b	.L145
 2757              	.L162:
 570:.\DisplayUtils.c ****             
 571:.\DisplayUtils.c ****         }
 572:.\DisplayUtils.c ****     }
 573:.\DisplayUtils.c ****     else if(_g_dispenserlayoutinfo._numpositions == 0x01)
 2758              		.loc 1 573 0 is_stmt 1
 2759 0208 1E4B     		ldr	r3, .L183
 2760 020a 9B78     		ldrb	r3, [r3, #2]	@ zero_extendqisi2
 2761 020c 012B     		cmp	r3, #1
 2762 020e 34D1     		bne	.L145
 574:.\DisplayUtils.c ****     {
 575:.\DisplayUtils.c ****         if(pdisplay->_dispid == DISPLAY1)
 2763              		.loc 1 575 0
 2764 0210 FB68     		ldr	r3, [r7, #12]
 2765 0212 1B78     		ldrb	r3, [r3]	@ zero_extendqisi2
 2766 0214 002B     		cmp	r3, #0
 2767 0216 30D1     		bne	.L145
 576:.\DisplayUtils.c ****         {
 577:.\DisplayUtils.c ****             pvalues[0x00] = (((_g_pumps[0x00]._pumpstate == PUMP_IDLE) || (_g_pumps[0x00]._pumpstat
 2768              		.loc 1 577 0
 2769 0218 1B4B     		ldr	r3, .L183+4
 2770 021a 9B78     		ldrb	r3, [r3, #2]
 2771 021c DBB2     		uxtb	r3, r3
 2772 021e 062B     		cmp	r3, #6
 2773 0220 04D0     		beq	.L177
 2774              		.loc 1 577 0 is_stmt 0 discriminator 2
 2775 0222 194B     		ldr	r3, .L183+4
 2776 0224 9B78     		ldrb	r3, [r3, #2]
 2777 0226 DBB2     		uxtb	r3, r3
 2778 0228 072B     		cmp	r3, #7
 2779 022a 09D1     		bne	.L178
 2780              	.L177:
 2781              		.loc 1 577 0 discriminator 3
 2782 022c 164B     		ldr	r3, .L183+4
 2783 022e DB7A     		ldrb	r3, [r3, #11]
 2784 0230 DBB2     		uxtb	r3, r3
 2785 0232 83F00103 		eor	r3, r3, #1
 2786 0236 DBB2     		uxtb	r3, r3
 2787 0238 002B     		cmp	r3, #0
 2788 023a 01D0     		beq	.L178
 2789              		.loc 1 577 0 discriminator 5
 2790 023c 0123     		movs	r3, #1
 2791 023e 00E0     		b	.L179
 2792              	.L178:
 2793              		.loc 1 577 0 discriminator 6
 2794 0240 0023     		movs	r3, #0
 2795              	.L179:
 2796              		.loc 1 577 0 discriminator 8
 2797 0242 DAB2     		uxtb	r2, r3
 2798 0244 3B68     		ldr	r3, [r7]
 2799 0246 1A70     		strb	r2, [r3]
 578:.\DisplayUtils.c ****             pvalues[0x01] = (((_g_pumps[0x00]._pumpstate == PUMP_IDLE) || (_g_pumps[0x00]._pumpstat
 2800              		.loc 1 578 0 is_stmt 1 discriminator 8
 2801 0248 3B68     		ldr	r3, [r7]
 2802 024a 0133     		adds	r3, r3, #1
 2803 024c 0E4A     		ldr	r2, .L183+4
ARM GAS  C:\Users\RECEPC~1\AppData\Local\Temp\ccfwlgn1.s 			page 61


 2804 024e 9278     		ldrb	r2, [r2, #2]
 2805 0250 D2B2     		uxtb	r2, r2
 2806 0252 062A     		cmp	r2, #6
 2807 0254 04D0     		beq	.L180
 2808              		.loc 1 578 0 is_stmt 0 discriminator 2
 2809 0256 0C4A     		ldr	r2, .L183+4
 2810 0258 9278     		ldrb	r2, [r2, #2]
 2811 025a D2B2     		uxtb	r2, r2
 2812 025c 072A     		cmp	r2, #7
 2813 025e 09D1     		bne	.L181
 2814              	.L180:
 2815              		.loc 1 578 0 discriminator 3
 2816 0260 094A     		ldr	r2, .L183+4
 2817 0262 D27A     		ldrb	r2, [r2, #11]
 2818 0264 D2B2     		uxtb	r2, r2
 2819 0266 82F00102 		eor	r2, r2, #1
 2820 026a D2B2     		uxtb	r2, r2
 2821 026c 002A     		cmp	r2, #0
 2822 026e 01D0     		beq	.L181
 2823              		.loc 1 578 0 discriminator 5
 2824 0270 0122     		movs	r2, #1
 2825 0272 00E0     		b	.L182
 2826              	.L181:
 2827              		.loc 1 578 0 discriminator 6
 2828 0274 0022     		movs	r2, #0
 2829              	.L182:
 2830              		.loc 1 578 0 discriminator 8
 2831 0276 D2B2     		uxtb	r2, r2
 2832 0278 1A70     		strb	r2, [r3]
 2833              	.L145:
 579:.\DisplayUtils.c ****             
 580:.\DisplayUtils.c ****         }
 581:.\DisplayUtils.c ****     }
 582:.\DisplayUtils.c **** }
 2834              		.loc 1 582 0 is_stmt 1
 2835 027a 1437     		adds	r7, r7, #20
 2836              		.cfi_def_cfa_offset 4
 2837 027c BD46     		mov	sp, r7
 2838              		.cfi_def_cfa_register 13
 2839              		@ sp needed
 2840 027e 5DF8047B 		ldr	r7, [sp], #4
 2841              		.cfi_restore 7
 2842              		.cfi_def_cfa_offset 0
 2843 0282 7047     		bx	lr
 2844              	.L184:
 2845              		.align	2
 2846              	.L183:
 2847 0284 00000000 		.word	_g_dispenserlayoutinfo
 2848 0288 00000000 		.word	_g_pumps
 2849              		.cfi_endproc
 2850              	.LFE81:
 2851              		.size	GetPumpsAvailability, .-GetPumpsAvailability
 2852              		.section	.text.GetPumpsPrintState,"ax",%progbits
 2853              		.align	2
 2854              		.global	GetPumpsPrintState
 2855              		.thumb
 2856              		.thumb_func
ARM GAS  C:\Users\RECEPC~1\AppData\Local\Temp\ccfwlgn1.s 			page 62


 2857              		.type	GetPumpsPrintState, %function
 2858              	GetPumpsPrintState:
 2859              	.LFB82:
 583:.\DisplayUtils.c **** 
 584:.\DisplayUtils.c **** void GetPumpsPrintState(void *pparam, bool *pvalues)
 585:.\DisplayUtils.c **** {
 2860              		.loc 1 585 0
 2861              		.cfi_startproc
 2862              		@ args = 0, pretend = 0, frame = 16
 2863              		@ frame_needed = 1, uses_anonymous_args = 0
 2864              		@ link register save eliminated.
 2865 0000 80B4     		push	{r7}
 2866              		.cfi_def_cfa_offset 4
 2867              		.cfi_offset 7, -4
 2868 0002 85B0     		sub	sp, sp, #20
 2869              		.cfi_def_cfa_offset 24
 2870 0004 00AF     		add	r7, sp, #0
 2871              		.cfi_def_cfa_register 7
 2872 0006 7860     		str	r0, [r7, #4]
 2873 0008 3960     		str	r1, [r7]
 586:.\DisplayUtils.c ****     DisplayLayout *pdisplay = (DisplayLayout*)pparam;
 2874              		.loc 1 586 0
 2875 000a 7B68     		ldr	r3, [r7, #4]
 2876 000c FB60     		str	r3, [r7, #12]
 587:.\DisplayUtils.c ****     if(_g_dispenserlayoutinfo._numpositions == 0x04)
 2877              		.loc 1 587 0
 2878 000e 344B     		ldr	r3, .L193
 2879 0010 9B78     		ldrb	r3, [r3, #2]	@ zero_extendqisi2
 2880 0012 042B     		cmp	r3, #4
 2881 0014 26D1     		bne	.L186
 588:.\DisplayUtils.c ****     {
 589:.\DisplayUtils.c ****         if(pdisplay->_dispid == DISPLAY1)
 2882              		.loc 1 589 0
 2883 0016 FB68     		ldr	r3, [r7, #12]
 2884 0018 1B78     		ldrb	r3, [r3]	@ zero_extendqisi2
 2885 001a 002B     		cmp	r3, #0
 2886 001c 0ED1     		bne	.L187
 590:.\DisplayUtils.c ****         {
 591:.\DisplayUtils.c ****             pvalues[0x00] = _g_pumps[0x00]._print;
 2887              		.loc 1 591 0
 2888 001e 314B     		ldr	r3, .L193+4
 2889 0020 DB7B     		ldrb	r3, [r3, #15]
 2890 0022 DAB2     		uxtb	r2, r3
 2891 0024 3B68     		ldr	r3, [r7]
 2892 0026 1A70     		strb	r2, [r3]
 592:.\DisplayUtils.c ****             pvalues[0x01] = _g_pumps[0x02]._print;
 2893              		.loc 1 592 0
 2894 0028 3B68     		ldr	r3, [r7]
 2895 002a 5A1C     		adds	r2, r3, #1
 2896 002c 2D4B     		ldr	r3, .L193+4
 2897 002e 03F59953 		add	r3, r3, #4896
 2898 0032 0F33     		adds	r3, r3, #15
 2899 0034 1B78     		ldrb	r3, [r3]
 2900 0036 DBB2     		uxtb	r3, r3
 2901 0038 1370     		strb	r3, [r2]
 2902 003a 4CE0     		b	.L185
 2903              	.L187:
ARM GAS  C:\Users\RECEPC~1\AppData\Local\Temp\ccfwlgn1.s 			page 63


 593:.\DisplayUtils.c ****             
 594:.\DisplayUtils.c ****         }
 595:.\DisplayUtils.c ****         else if(pdisplay->_dispid == DISPLAY2)
 2904              		.loc 1 595 0
 2905 003c FB68     		ldr	r3, [r7, #12]
 2906 003e 1B78     		ldrb	r3, [r3]	@ zero_extendqisi2
 2907 0040 012B     		cmp	r3, #1
 2908 0042 48D1     		bne	.L185
 596:.\DisplayUtils.c ****         {
 597:.\DisplayUtils.c ****             pvalues[0x00] = _g_pumps[0x03]._print;
 2909              		.loc 1 597 0
 2910 0044 274B     		ldr	r3, .L193+4
 2911 0046 03F5E553 		add	r3, r3, #7328
 2912 004a 1F33     		adds	r3, r3, #31
 2913 004c 1B78     		ldrb	r3, [r3]
 2914 004e DAB2     		uxtb	r2, r3
 2915 0050 3B68     		ldr	r3, [r7]
 2916 0052 1A70     		strb	r2, [r3]
 598:.\DisplayUtils.c ****             pvalues[0x01] = _g_pumps[0x01]._print;
 2917              		.loc 1 598 0
 2918 0054 3B68     		ldr	r3, [r7]
 2919 0056 0133     		adds	r3, r3, #1
 2920 0058 224A     		ldr	r2, .L193+4
 2921 005a 92F89F29 		ldrb	r2, [r2, #2463]
 2922 005e D2B2     		uxtb	r2, r2
 2923 0060 1A70     		strb	r2, [r3]
 2924 0062 38E0     		b	.L185
 2925              	.L186:
 599:.\DisplayUtils.c ****             
 600:.\DisplayUtils.c ****         }
 601:.\DisplayUtils.c ****     }
 602:.\DisplayUtils.c ****     else if(_g_dispenserlayoutinfo._numpositions == 0x02)
 2926              		.loc 1 602 0
 2927 0064 1E4B     		ldr	r3, .L193
 2928 0066 9B78     		ldrb	r3, [r3, #2]	@ zero_extendqisi2
 2929 0068 022B     		cmp	r3, #2
 2930 006a 21D1     		bne	.L190
 603:.\DisplayUtils.c ****     {
 604:.\DisplayUtils.c ****         if(pdisplay->_dispid == DISPLAY1)
 2931              		.loc 1 604 0
 2932 006c FB68     		ldr	r3, [r7, #12]
 2933 006e 1B78     		ldrb	r3, [r3]	@ zero_extendqisi2
 2934 0070 002B     		cmp	r3, #0
 2935 0072 0BD1     		bne	.L191
 605:.\DisplayUtils.c ****         {
 606:.\DisplayUtils.c ****             pvalues[0x00] = _g_pumps[0x00]._print;
 2936              		.loc 1 606 0
 2937 0074 1B4B     		ldr	r3, .L193+4
 2938 0076 DB7B     		ldrb	r3, [r3, #15]
 2939 0078 DAB2     		uxtb	r2, r3
 2940 007a 3B68     		ldr	r3, [r7]
 2941 007c 1A70     		strb	r2, [r3]
 607:.\DisplayUtils.c ****             pvalues[0x01] = _g_pumps[0x00]._print;
 2942              		.loc 1 607 0
 2943 007e 3B68     		ldr	r3, [r7]
 2944 0080 0133     		adds	r3, r3, #1
 2945 0082 184A     		ldr	r2, .L193+4
ARM GAS  C:\Users\RECEPC~1\AppData\Local\Temp\ccfwlgn1.s 			page 64


 2946 0084 D27B     		ldrb	r2, [r2, #15]
 2947 0086 D2B2     		uxtb	r2, r2
 2948 0088 1A70     		strb	r2, [r3]
 2949 008a 24E0     		b	.L185
 2950              	.L191:
 608:.\DisplayUtils.c ****             
 609:.\DisplayUtils.c ****         }
 610:.\DisplayUtils.c ****         else if(pdisplay->_dispid == DISPLAY2)
 2951              		.loc 1 610 0
 2952 008c FB68     		ldr	r3, [r7, #12]
 2953 008e 1B78     		ldrb	r3, [r3]	@ zero_extendqisi2
 2954 0090 012B     		cmp	r3, #1
 2955 0092 20D1     		bne	.L185
 611:.\DisplayUtils.c ****         {
 612:.\DisplayUtils.c ****             pvalues[0x00] = _g_pumps[0x01]._print;
 2956              		.loc 1 612 0
 2957 0094 134B     		ldr	r3, .L193+4
 2958 0096 93F89F39 		ldrb	r3, [r3, #2463]
 2959 009a DAB2     		uxtb	r2, r3
 2960 009c 3B68     		ldr	r3, [r7]
 2961 009e 1A70     		strb	r2, [r3]
 613:.\DisplayUtils.c ****             pvalues[0x01] = _g_pumps[0x01]._print;
 2962              		.loc 1 613 0
 2963 00a0 3B68     		ldr	r3, [r7]
 2964 00a2 0133     		adds	r3, r3, #1
 2965 00a4 0F4A     		ldr	r2, .L193+4
 2966 00a6 92F89F29 		ldrb	r2, [r2, #2463]
 2967 00aa D2B2     		uxtb	r2, r2
 2968 00ac 1A70     		strb	r2, [r3]
 2969 00ae 12E0     		b	.L185
 2970              	.L190:
 614:.\DisplayUtils.c ****             
 615:.\DisplayUtils.c ****         }
 616:.\DisplayUtils.c ****     }
 617:.\DisplayUtils.c ****     else if(_g_dispenserlayoutinfo._numpositions == 0x01)
 2971              		.loc 1 617 0
 2972 00b0 0B4B     		ldr	r3, .L193
 2973 00b2 9B78     		ldrb	r3, [r3, #2]	@ zero_extendqisi2
 2974 00b4 012B     		cmp	r3, #1
 2975 00b6 0ED1     		bne	.L185
 618:.\DisplayUtils.c ****     {
 619:.\DisplayUtils.c ****         if(pdisplay->_dispid == DISPLAY1)
 2976              		.loc 1 619 0
 2977 00b8 FB68     		ldr	r3, [r7, #12]
 2978 00ba 1B78     		ldrb	r3, [r3]	@ zero_extendqisi2
 2979 00bc 002B     		cmp	r3, #0
 2980 00be 0AD1     		bne	.L185
 620:.\DisplayUtils.c ****         {
 621:.\DisplayUtils.c ****             pvalues[0x00] = _g_pumps[0x00]._print;
 2981              		.loc 1 621 0
 2982 00c0 084B     		ldr	r3, .L193+4
 2983 00c2 DB7B     		ldrb	r3, [r3, #15]
 2984 00c4 DAB2     		uxtb	r2, r3
 2985 00c6 3B68     		ldr	r3, [r7]
 2986 00c8 1A70     		strb	r2, [r3]
 622:.\DisplayUtils.c ****             pvalues[0x01] = _g_pumps[0x00]._print;
 2987              		.loc 1 622 0
ARM GAS  C:\Users\RECEPC~1\AppData\Local\Temp\ccfwlgn1.s 			page 65


 2988 00ca 3B68     		ldr	r3, [r7]
 2989 00cc 0133     		adds	r3, r3, #1
 2990 00ce 054A     		ldr	r2, .L193+4
 2991 00d0 D27B     		ldrb	r2, [r2, #15]
 2992 00d2 D2B2     		uxtb	r2, r2
 2993 00d4 1A70     		strb	r2, [r3]
 2994              	.L185:
 623:.\DisplayUtils.c ****             
 624:.\DisplayUtils.c ****         }
 625:.\DisplayUtils.c ****     }
 626:.\DisplayUtils.c **** }
 2995              		.loc 1 626 0
 2996 00d6 1437     		adds	r7, r7, #20
 2997              		.cfi_def_cfa_offset 4
 2998 00d8 BD46     		mov	sp, r7
 2999              		.cfi_def_cfa_register 13
 3000              		@ sp needed
 3001 00da 5DF8047B 		ldr	r7, [sp], #4
 3002              		.cfi_restore 7
 3003              		.cfi_def_cfa_offset 0
 3004 00de 7047     		bx	lr
 3005              	.L194:
 3006              		.align	2
 3007              	.L193:
 3008 00e0 00000000 		.word	_g_dispenserlayoutinfo
 3009 00e4 00000000 		.word	_g_pumps
 3010              		.cfi_endproc
 3011              	.LFE82:
 3012              		.size	GetPumpsPrintState, .-GetPumpsPrintState
 3013              		.section	.text.DisplayProductSelectionInputHandler,"ax",%progbits
 3014              		.align	2
 3015              		.global	DisplayProductSelectionInputHandler
 3016              		.thumb
 3017              		.thumb_func
 3018              		.type	DisplayProductSelectionInputHandler, %function
 3019              	DisplayProductSelectionInputHandler:
 3020              	.LFB83:
 627:.\DisplayUtils.c **** 
 628:.\DisplayUtils.c **** //@Created by: HIJH
 629:.\DisplayUtils.c **** //@Date: Septembre de 2016
 630:.\DisplayUtils.c **** //This method handles the selected product on a credit sale
 631:.\DisplayUtils.c **** void DisplayProductSelectionInputHandler(void *pparam)
 632:.\DisplayUtils.c **** {
 3021              		.loc 1 632 0
 3022              		.cfi_startproc
 3023              		@ args = 0, pretend = 0, frame = 24
 3024              		@ frame_needed = 1, uses_anonymous_args = 0
 3025 0000 90B5     		push	{r4, r7, lr}
 3026              		.cfi_def_cfa_offset 12
 3027              		.cfi_offset 4, -12
 3028              		.cfi_offset 7, -8
 3029              		.cfi_offset 14, -4
 3030 0002 87B0     		sub	sp, sp, #28
 3031              		.cfi_def_cfa_offset 40
 3032 0004 00AF     		add	r7, sp, #0
 3033              		.cfi_def_cfa_register 7
 3034 0006 7860     		str	r0, [r7, #4]
ARM GAS  C:\Users\RECEPC~1\AppData\Local\Temp\ccfwlgn1.s 			page 66


 633:.\DisplayUtils.c ****     PDISPLAYLAYOUTPTR pdisplay = (PDISPLAYLAYOUTPTR)pparam;
 3035              		.loc 1 633 0
 3036 0008 7B68     		ldr	r3, [r7, #4]
 3037 000a FB60     		str	r3, [r7, #12]
 634:.\DisplayUtils.c ****     if(pdisplay)
 3038              		.loc 1 634 0
 3039 000c FB68     		ldr	r3, [r7, #12]
 3040 000e 002B     		cmp	r3, #0
 3041 0010 49D0     		beq	.L195
 3042              	.LBB8:
 635:.\DisplayUtils.c ****     {
 636:.\DisplayUtils.c ****         uint8  numhoses = 0x00;
 3043              		.loc 1 636 0
 3044 0012 0023     		movs	r3, #0
 3045 0014 FB75     		strb	r3, [r7, #23]
 637:.\DisplayUtils.c ****         PDISPLAYLAYOUTPTR pdisplay = (PDISPLAYLAYOUTPTR)pparam;
 3046              		.loc 1 637 0
 3047 0016 7B68     		ldr	r3, [r7, #4]
 3048 0018 BB60     		str	r3, [r7, #8]
 638:.\DisplayUtils.c ****         switch(GetPumpIndexFromDisplay(pdisplay))
 3049              		.loc 1 638 0
 3050 001a B868     		ldr	r0, [r7, #8]
 3051 001c FFF7FEFF 		bl	GetPumpIndexFromDisplay
 3052 0020 0346     		mov	r3, r0
 3053 0022 032B     		cmp	r3, #3
 3054 0024 1AD8     		bhi	.L197
 3055 0026 01A2     		adr	r2, .L199
 3056 0028 52F823F0 		ldr	pc, [r2, r3, lsl #2]
 3057              		.p2align 2
 3058              	.L199:
 3059 002c 3D000000 		.word	.L198+1
 3060 0030 45000000 		.word	.L200+1
 3061 0034 4D000000 		.word	.L201+1
 3062 0038 55000000 		.word	.L202+1
 3063              		.p2align 1
 3064              	.L198:
 639:.\DisplayUtils.c ****         {
 640:.\DisplayUtils.c ****             case 0x00:
 641:.\DisplayUtils.c ****                 numhoses = _g_dispenserlayoutinfo._hosesposition1;
 3065              		.loc 1 641 0
 3066 003c 1B4B     		ldr	r3, .L206
 3067 003e DB78     		ldrb	r3, [r3, #3]
 3068 0040 FB75     		strb	r3, [r7, #23]
 642:.\DisplayUtils.c ****                 break;
 3069              		.loc 1 642 0
 3070 0042 0BE0     		b	.L197
 3071              	.L200:
 643:.\DisplayUtils.c ****             case 0x01:
 644:.\DisplayUtils.c ****                 numhoses = _g_dispenserlayoutinfo._hosesposition2;
 3072              		.loc 1 644 0
 3073 0044 194B     		ldr	r3, .L206
 3074 0046 1B79     		ldrb	r3, [r3, #4]
 3075 0048 FB75     		strb	r3, [r7, #23]
 645:.\DisplayUtils.c ****                 break;
 3076              		.loc 1 645 0
 3077 004a 07E0     		b	.L197
 3078              	.L201:
ARM GAS  C:\Users\RECEPC~1\AppData\Local\Temp\ccfwlgn1.s 			page 67


 646:.\DisplayUtils.c ****             case 0x02:
 647:.\DisplayUtils.c ****                 numhoses = _g_dispenserlayoutinfo._hosesposition3;
 3079              		.loc 1 647 0
 3080 004c 174B     		ldr	r3, .L206
 3081 004e 5B79     		ldrb	r3, [r3, #5]
 3082 0050 FB75     		strb	r3, [r7, #23]
 648:.\DisplayUtils.c ****                 break;
 3083              		.loc 1 648 0
 3084 0052 03E0     		b	.L197
 3085              	.L202:
 649:.\DisplayUtils.c ****             case 0x03:
 650:.\DisplayUtils.c ****                 numhoses = _g_dispenserlayoutinfo._hosesposition4;
 3086              		.loc 1 650 0
 3087 0054 154B     		ldr	r3, .L206
 3088 0056 9B79     		ldrb	r3, [r3, #6]
 3089 0058 FB75     		strb	r3, [r7, #23]
 651:.\DisplayUtils.c ****                 break;
 3090              		.loc 1 651 0
 3091 005a 00BF     		nop
 3092              	.L197:
 652:.\DisplayUtils.c ****         }    
 653:.\DisplayUtils.c ****         DisplayCharacterMap *pdispcharmap = _g_productbuttonmap;
 3093              		.loc 1 653 0
 3094 005c 144B     		ldr	r3, .L206+4
 3095 005e 3B61     		str	r3, [r7, #16]
 654:.\DisplayUtils.c ****         while(pdispcharmap->_refchar != 0x00)
 3096              		.loc 1 654 0
 3097 0060 1DE0     		b	.L203
 3098              	.L205:
 655:.\DisplayUtils.c ****         {
 656:.\DisplayUtils.c ****             if((pdispcharmap->_refchar == pdisplay->_currscrcode) && ((pdispcharmap->_mappedto + 1)
 3099              		.loc 1 656 0
 3100 0062 3B69     		ldr	r3, [r7, #16]
 3101 0064 1A78     		ldrb	r2, [r3]	@ zero_extendqisi2
 3102 0066 BB68     		ldr	r3, [r7, #8]
 3103 0068 DB78     		ldrb	r3, [r3, #3]	@ zero_extendqisi2
 3104 006a 9A42     		cmp	r2, r3
 3105 006c 14D1     		bne	.L204
 3106              		.loc 1 656 0 is_stmt 0 discriminator 1
 3107 006e 3B69     		ldr	r3, [r7, #16]
 3108 0070 5B78     		ldrb	r3, [r3, #1]	@ zero_extendqisi2
 3109 0072 5A1C     		adds	r2, r3, #1
 3110 0074 FB7D     		ldrb	r3, [r7, #23]	@ zero_extendqisi2
 3111 0076 9A42     		cmp	r2, r3
 3112 0078 0EDC     		bgt	.L204
 657:.\DisplayUtils.c ****             {
 658:.\DisplayUtils.c ****                 ((PSINKMESSAGEPTR)pdisplay->_psequesteredmessagesink)->_buffer[GetBufferIndexFromDi
 3113              		.loc 1 658 0 is_stmt 1
 3114 007a BB68     		ldr	r3, [r7, #8]
 3115 007c 1C6B     		ldr	r4, [r3, #48]
 3116 007e 0720     		movs	r0, #7
 3117 0080 FFF7FEFF 		bl	GetBufferIndexFromDisplayID
 3118 0084 0346     		mov	r3, r0
 3119 0086 1946     		mov	r1, r3
 3120 0088 3B69     		ldr	r3, [r7, #16]
 3121 008a 5A78     		ldrb	r2, [r3, #1]	@ zero_extendqisi2
 3122 008c 6318     		adds	r3, r4, r1
ARM GAS  C:\Users\RECEPC~1\AppData\Local\Temp\ccfwlgn1.s 			page 68


 3123 008e 1A73     		strb	r2, [r3, #12]
 659:.\DisplayUtils.c ****                 pdisplay->_currentstate = DISPLAY_HOSE_ACTIVATED;
 3124              		.loc 1 659 0
 3125 0090 BB68     		ldr	r3, [r7, #8]
 3126 0092 A322     		movs	r2, #163
 3127 0094 1A71     		strb	r2, [r3, #4]
 660:.\DisplayUtils.c ****                 break;
 3128              		.loc 1 660 0
 3129 0096 06E0     		b	.L195
 3130              	.L204:
 661:.\DisplayUtils.c ****             }
 662:.\DisplayUtils.c ****             pdispcharmap++;
 3131              		.loc 1 662 0
 3132 0098 3B69     		ldr	r3, [r7, #16]
 3133 009a 0233     		adds	r3, r3, #2
 3134 009c 3B61     		str	r3, [r7, #16]
 3135              	.L203:
 654:.\DisplayUtils.c ****         {
 3136              		.loc 1 654 0
 3137 009e 3B69     		ldr	r3, [r7, #16]
 3138 00a0 1B78     		ldrb	r3, [r3]	@ zero_extendqisi2
 3139 00a2 002B     		cmp	r3, #0
 3140 00a4 DDD1     		bne	.L205
 3141              	.L195:
 3142              	.LBE8:
 663:.\DisplayUtils.c ****         }
 664:.\DisplayUtils.c ****     }
 665:.\DisplayUtils.c **** }
 3143              		.loc 1 665 0
 3144 00a6 1C37     		adds	r7, r7, #28
 3145              		.cfi_def_cfa_offset 12
 3146 00a8 BD46     		mov	sp, r7
 3147              		.cfi_def_cfa_register 13
 3148              		@ sp needed
 3149 00aa 90BD     		pop	{r4, r7, pc}
 3150              	.L207:
 3151              		.align	2
 3152              	.L206:
 3153 00ac 00000000 		.word	_g_dispenserlayoutinfo
 3154 00b0 00000000 		.word	_g_productbuttonmap
 3155              		.cfi_endproc
 3156              	.LFE83:
 3157              		.size	DisplayProductSelectionInputHandler, .-DisplayProductSelectionInputHandler
 3158              		.section	.text.DisplayInputHandler,"ax",%progbits
 3159              		.align	2
 3160              		.global	DisplayInputHandler
 3161              		.thumb
 3162              		.thumb_func
 3163              		.type	DisplayInputHandler, %function
 3164              	DisplayInputHandler:
 3165              	.LFB84:
 666:.\DisplayUtils.c **** 
 667:.\DisplayUtils.c **** //@Created by: HIJH
 668:.\DisplayUtils.c **** //@Date: Septembre de 2016
 669:.\DisplayUtils.c **** //This method handles the input data typed 
 670:.\DisplayUtils.c **** //in the screen
 671:.\DisplayUtils.c **** void DisplayInputHandler(void *pparam)
ARM GAS  C:\Users\RECEPC~1\AppData\Local\Temp\ccfwlgn1.s 			page 69


 672:.\DisplayUtils.c **** {
 3166              		.loc 1 672 0
 3167              		.cfi_startproc
 3168              		@ args = 0, pretend = 0, frame = 24
 3169              		@ frame_needed = 1, uses_anonymous_args = 0
 3170 0000 F0B5     		push	{r4, r5, r6, r7, lr}
 3171              		.cfi_def_cfa_offset 20
 3172              		.cfi_offset 4, -20
 3173              		.cfi_offset 5, -16
 3174              		.cfi_offset 6, -12
 3175              		.cfi_offset 7, -8
 3176              		.cfi_offset 14, -4
 3177 0002 8BB0     		sub	sp, sp, #44
 3178              		.cfi_def_cfa_offset 64
 3179 0004 04AF     		add	r7, sp, #16
 3180              		.cfi_def_cfa 7, 48
 3181 0006 7860     		str	r0, [r7, #4]
 673:.\DisplayUtils.c ****     DisplayLayout *pdisplay = (DisplayLayout*)pparam;
 3182              		.loc 1 673 0
 3183 0008 7B68     		ldr	r3, [r7, #4]
 3184 000a 3B61     		str	r3, [r7, #16]
 674:.\DisplayUtils.c ****     if(pdisplay)
 3185              		.loc 1 674 0
 3186 000c 3B69     		ldr	r3, [r7, #16]
 3187 000e 002B     		cmp	r3, #0
 3188 0010 00F09980 		beq	.L208
 3189              	.LBB9:
 675:.\DisplayUtils.c ****     {
 676:.\DisplayUtils.c ****         char8 mappedchar = 0x00;
 3190              		.loc 1 676 0
 3191 0014 0023     		movs	r3, #0
 3192 0016 FB75     		strb	r3, [r7, #23]
 677:.\DisplayUtils.c ****         //This is since 0x0B has been defined as "Cancel" in the keypad
 678:.\DisplayUtils.c ****         if(pdisplay->_currscrcode == 0x0B)
 3193              		.loc 1 678 0
 3194 0018 3B69     		ldr	r3, [r7, #16]
 3195 001a DB78     		ldrb	r3, [r3, #3]	@ zero_extendqisi2
 3196 001c 0B2B     		cmp	r3, #11
 3197 001e 03D1     		bne	.L210
 679:.\DisplayUtils.c ****             pdisplay->_bufferinfo._bufferindex = 0;
 3198              		.loc 1 679 0
 3199 0020 3B69     		ldr	r3, [r7, #16]
 3200 0022 0022     		movs	r2, #0
 3201 0024 1A77     		strb	r2, [r3, #28]
 3202 0026 06E0     		b	.L211
 3203              	.L210:
 680:.\DisplayUtils.c ****         else
 681:.\DisplayUtils.c ****             mappedchar = UnmapCode(pdisplay->_currscrcode);
 3204              		.loc 1 681 0
 3205 0028 3B69     		ldr	r3, [r7, #16]
 3206 002a DB78     		ldrb	r3, [r3, #3]	@ zero_extendqisi2
 3207 002c 1846     		mov	r0, r3
 3208 002e FFF7FEFF 		bl	UnmapCode
 3209 0032 0346     		mov	r3, r0
 3210 0034 FB75     		strb	r3, [r7, #23]
 3211              	.L211:
 682:.\DisplayUtils.c ****         
ARM GAS  C:\Users\RECEPC~1\AppData\Local\Temp\ccfwlgn1.s 			page 70


 683:.\DisplayUtils.c ****         if(pdisplay->_bufferinfo._bufferindex == 0)
 3212              		.loc 1 683 0
 3213 0036 3B69     		ldr	r3, [r7, #16]
 3214 0038 1B7F     		ldrb	r3, [r3, #28]	@ zero_extendqisi2
 3215 003a 002B     		cmp	r3, #0
 3216 003c 10D1     		bne	.L212
 684:.\DisplayUtils.c ****         {
 685:.\DisplayUtils.c ****             pdisplay->_bufferinfo._xpos = pdisplay->_pcurrflow->_inputboxinfo._xdefpos;
 3217              		.loc 1 685 0
 3218 003e 3B69     		ldr	r3, [r7, #16]
 3219 0040 1B69     		ldr	r3, [r3, #16]
 3220 0042 9A8D     		ldrh	r2, [r3, #44]
 3221 0044 3B69     		ldr	r3, [r7, #16]
 3222 0046 1A83     		strh	r2, [r3, #24]	@ movhi
 686:.\DisplayUtils.c ****             pdisplay->_bufferinfo._ypos = pdisplay->_pcurrflow->_inputboxinfo._ydefpos;
 3223              		.loc 1 686 0
 3224 0048 3B69     		ldr	r3, [r7, #16]
 3225 004a 1B69     		ldr	r3, [r3, #16]
 3226 004c DA8D     		ldrh	r2, [r3, #46]
 3227 004e 3B69     		ldr	r3, [r7, #16]
 3228 0050 5A83     		strh	r2, [r3, #26]	@ movhi
 687:.\DisplayUtils.c ****             memset(pdisplay->_bufferinfo._buffer, ' ', _DISPLAY_BUFFER_SIZE_);
 3229              		.loc 1 687 0
 3230 0052 3B69     		ldr	r3, [r7, #16]
 3231 0054 1D33     		adds	r3, r3, #29
 3232 0056 1846     		mov	r0, r3
 3233 0058 2021     		movs	r1, #32
 3234 005a 1022     		movs	r2, #16
 3235 005c FFF7FEFF 		bl	memset
 3236              	.L212:
 688:.\DisplayUtils.c ****         }
 689:.\DisplayUtils.c ****         //The InputBox is already filled up!
 690:.\DisplayUtils.c ****         if(pdisplay->_bufferinfo._bufferindex >= pdisplay->_pcurrflow->_inputboxinfo._maxchars)
 3237              		.loc 1 690 0
 3238 0060 3B69     		ldr	r3, [r7, #16]
 3239 0062 1A7F     		ldrb	r2, [r3, #28]	@ zero_extendqisi2
 3240 0064 3B69     		ldr	r3, [r7, #16]
 3241 0066 1B69     		ldr	r3, [r3, #16]
 3242 0068 93F83030 		ldrb	r3, [r3, #48]	@ zero_extendqisi2
 3243 006c 9A42     		cmp	r2, r3
 3244 006e 00D3     		bcc	.L213
 691:.\DisplayUtils.c ****             return;
 3245              		.loc 1 691 0
 3246 0070 69E0     		b	.L208
 3247              	.L213:
 692:.\DisplayUtils.c ****         
 693:.\DisplayUtils.c ****         //There's nothing new to show up since the unmapper didn't find anything to map to
 694:.\DisplayUtils.c ****         if(mappedchar != 0x00)
 3248              		.loc 1 694 0
 3249 0072 FB7D     		ldrb	r3, [r7, #23]	@ zero_extendqisi2
 3250 0074 002B     		cmp	r3, #0
 3251 0076 0AD0     		beq	.L214
 695:.\DisplayUtils.c ****             pdisplay->_bufferinfo._buffer[pdisplay->_bufferinfo._bufferindex++] = mappedchar;
 3252              		.loc 1 695 0
 3253 0078 3B69     		ldr	r3, [r7, #16]
 3254 007a 1B7F     		ldrb	r3, [r3, #28]	@ zero_extendqisi2
 3255 007c 5A1C     		adds	r2, r3, #1
ARM GAS  C:\Users\RECEPC~1\AppData\Local\Temp\ccfwlgn1.s 			page 71


 3256 007e D1B2     		uxtb	r1, r2
 3257 0080 3A69     		ldr	r2, [r7, #16]
 3258 0082 1177     		strb	r1, [r2, #28]
 3259 0084 1A46     		mov	r2, r3
 3260 0086 3B69     		ldr	r3, [r7, #16]
 3261 0088 1344     		add	r3, r3, r2
 3262 008a FA7D     		ldrb	r2, [r7, #23]
 3263 008c 5A77     		strb	r2, [r3, #29]
 3264              	.L214:
 696:.\DisplayUtils.c ****         
 697:.\DisplayUtils.c ****         if(pdisplay->_dispid == DISPLAY1)
 3265              		.loc 1 697 0
 3266 008e 3B69     		ldr	r3, [r7, #16]
 3267 0090 1B78     		ldrb	r3, [r3]	@ zero_extendqisi2
 3268 0092 002B     		cmp	r3, #0
 3269 0094 2CD1     		bne	.L215
 3270              	.LBB10:
 698:.\DisplayUtils.c ****         {
 699:.\DisplayUtils.c ****             UARTMessage *puartdisp = GetUARTMessageSlot(UART_DISPLAY1);
 3271              		.loc 1 699 0
 3272 0096 A320     		movs	r0, #163
 3273 0098 FFF7FEFF 		bl	GetUARTMessageSlot
 3274 009c F860     		str	r0, [r7, #12]
 700:.\DisplayUtils.c ****             if(puartdisp)
 3275              		.loc 1 700 0
 3276 009e FB68     		ldr	r3, [r7, #12]
 3277 00a0 002B     		cmp	r3, #0
 3278 00a2 24D0     		beq	.L216
 701:.\DisplayUtils.c ****             {
 702:.\DisplayUtils.c ****                 puartdisp->_messagelength = DisplayOutputString(pdisplay->_bufferinfo._xpos, pdispl
 3279              		.loc 1 702 0
 3280 00a4 3B69     		ldr	r3, [r7, #16]
 3281 00a6 B3F818E0 		ldrh	lr, [r3, #24]
 3282 00aa 3B69     		ldr	r3, [r7, #16]
 3283 00ac 5E8B     		ldrh	r6, [r3, #26]
 3284 00ae FB68     		ldr	r3, [r7, #12]
 3285 00b0 1D1D     		adds	r5, r3, #4
 3286 00b2 3B69     		ldr	r3, [r7, #16]
 3287 00b4 03F11D04 		add	r4, r3, #29
 3288 00b8 3B69     		ldr	r3, [r7, #16]
 3289 00ba 1B69     		ldr	r3, [r3, #16]
 3290 00bc 93F83030 		ldrb	r3, [r3, #48]	@ zero_extendqisi2
 3291 00c0 9BB2     		uxth	r3, r3
 3292 00c2 3A69     		ldr	r2, [r7, #16]
 3293 00c4 1269     		ldr	r2, [r2, #16]
 3294 00c6 0093     		str	r3, [sp]
 3295 00c8 01AB     		add	r3, sp, #4
 3296 00ca 3232     		adds	r2, r2, #50
 3297 00cc 1068     		ldr	r0, [r2]	@ unaligned
 3298 00ce 5168     		ldr	r1, [r2, #4]	@ unaligned
 3299 00d0 03C3     		stmia	r3!, {r0, r1}
 3300 00d2 7046     		mov	r0, lr
 3301 00d4 3146     		mov	r1, r6
 3302 00d6 2A46     		mov	r2, r5
 3303 00d8 2346     		mov	r3, r4
 3304 00da FFF7FEFF 		bl	DisplayOutputString
 3305 00de 0346     		mov	r3, r0
ARM GAS  C:\Users\RECEPC~1\AppData\Local\Temp\ccfwlgn1.s 			page 72


 3306 00e0 1A46     		mov	r2, r3
 3307 00e2 FB68     		ldr	r3, [r7, #12]
 3308 00e4 5A80     		strh	r2, [r3, #2]	@ movhi
 703:.\DisplayUtils.c ****                 puartdisp->_messagestate = PENDING;
 3309              		.loc 1 703 0
 3310 00e6 FB68     		ldr	r3, [r7, #12]
 3311 00e8 C222     		movs	r2, #194
 3312 00ea 1A70     		strb	r2, [r3]
 3313              	.LBE10:
 3314 00ec 2BE0     		b	.L208
 3315              	.L216:
 3316 00ee 2AE0     		b	.L208
 3317              	.L215:
 3318              	.LBB11:
 704:.\DisplayUtils.c ****             }
 705:.\DisplayUtils.c ****         }
 706:.\DisplayUtils.c ****         else
 707:.\DisplayUtils.c ****         {
 708:.\DisplayUtils.c ****             UARTMessage *puartdisp = GetUARTMessageSlot(UART_DISPLAY2);
 3319              		.loc 1 708 0
 3320 00f0 A420     		movs	r0, #164
 3321 00f2 FFF7FEFF 		bl	GetUARTMessageSlot
 3322 00f6 B860     		str	r0, [r7, #8]
 709:.\DisplayUtils.c ****             if(puartdisp)
 3323              		.loc 1 709 0
 3324 00f8 BB68     		ldr	r3, [r7, #8]
 3325 00fa 002B     		cmp	r3, #0
 3326 00fc 23D0     		beq	.L208
 710:.\DisplayUtils.c ****             {
 711:.\DisplayUtils.c ****                 puartdisp->_messagelength = DisplayOutputString(pdisplay->_bufferinfo._xpos, pdispl
 3327              		.loc 1 711 0
 3328 00fe 3B69     		ldr	r3, [r7, #16]
 3329 0100 B3F818E0 		ldrh	lr, [r3, #24]
 3330 0104 3B69     		ldr	r3, [r7, #16]
 3331 0106 5E8B     		ldrh	r6, [r3, #26]
 3332 0108 BB68     		ldr	r3, [r7, #8]
 3333 010a 1D1D     		adds	r5, r3, #4
 3334 010c 3B69     		ldr	r3, [r7, #16]
 3335 010e 03F11D04 		add	r4, r3, #29
 3336 0112 3B69     		ldr	r3, [r7, #16]
 3337 0114 1B69     		ldr	r3, [r3, #16]
 3338 0116 93F83030 		ldrb	r3, [r3, #48]	@ zero_extendqisi2
 3339 011a 9BB2     		uxth	r3, r3
 3340 011c 3A69     		ldr	r2, [r7, #16]
 3341 011e 1269     		ldr	r2, [r2, #16]
 3342 0120 0093     		str	r3, [sp]
 3343 0122 01AB     		add	r3, sp, #4
 3344 0124 3232     		adds	r2, r2, #50
 3345 0126 1068     		ldr	r0, [r2]	@ unaligned
 3346 0128 5168     		ldr	r1, [r2, #4]	@ unaligned
 3347 012a 03C3     		stmia	r3!, {r0, r1}
 3348 012c 7046     		mov	r0, lr
 3349 012e 3146     		mov	r1, r6
 3350 0130 2A46     		mov	r2, r5
 3351 0132 2346     		mov	r3, r4
 3352 0134 FFF7FEFF 		bl	DisplayOutputString
 3353 0138 0346     		mov	r3, r0
ARM GAS  C:\Users\RECEPC~1\AppData\Local\Temp\ccfwlgn1.s 			page 73


 3354 013a 1A46     		mov	r2, r3
 3355 013c BB68     		ldr	r3, [r7, #8]
 3356 013e 5A80     		strh	r2, [r3, #2]	@ movhi
 712:.\DisplayUtils.c ****                 puartdisp->_messagestate = PENDING;
 3357              		.loc 1 712 0
 3358 0140 BB68     		ldr	r3, [r7, #8]
 3359 0142 C222     		movs	r2, #194
 3360 0144 1A70     		strb	r2, [r3]
 3361              	.L208:
 3362              	.LBE11:
 3363              	.LBE9:
 713:.\DisplayUtils.c ****             }
 714:.\DisplayUtils.c ****         }
 715:.\DisplayUtils.c ****         
 716:.\DisplayUtils.c ****     }
 717:.\DisplayUtils.c **** }
 3364              		.loc 1 717 0
 3365 0146 1C37     		adds	r7, r7, #28
 3366              		.cfi_def_cfa_offset 20
 3367 0148 BD46     		mov	sp, r7
 3368              		.cfi_def_cfa_register 13
 3369              		@ sp needed
 3370 014a F0BD     		pop	{r4, r5, r6, r7, pc}
 3371              		.cfi_endproc
 3372              	.LFE84:
 3373              		.size	DisplayInputHandler, .-DisplayInputHandler
 3374              		.section	.text.DisplayIDInputHandler,"ax",%progbits
 3375              		.align	2
 3376              		.global	DisplayIDInputHandler
 3377              		.thumb
 3378              		.thumb_func
 3379              		.type	DisplayIDInputHandler, %function
 3380              	DisplayIDInputHandler:
 3381              	.LFB85:
 718:.\DisplayUtils.c **** 
 719:.\DisplayUtils.c **** void DisplayIDInputHandler(void *pparam)
 720:.\DisplayUtils.c **** {
 3382              		.loc 1 720 0
 3383              		.cfi_startproc
 3384              		@ args = 0, pretend = 0, frame = 24
 3385              		@ frame_needed = 1, uses_anonymous_args = 0
 3386 0000 F0B5     		push	{r4, r5, r6, r7, lr}
 3387              		.cfi_def_cfa_offset 20
 3388              		.cfi_offset 4, -20
 3389              		.cfi_offset 5, -16
 3390              		.cfi_offset 6, -12
 3391              		.cfi_offset 7, -8
 3392              		.cfi_offset 14, -4
 3393 0002 8BB0     		sub	sp, sp, #44
 3394              		.cfi_def_cfa_offset 64
 3395 0004 04AF     		add	r7, sp, #16
 3396              		.cfi_def_cfa 7, 48
 3397 0006 7860     		str	r0, [r7, #4]
 721:.\DisplayUtils.c ****     DisplayLayout *pdisplay = (DisplayLayout*)pparam;
 3398              		.loc 1 721 0
 3399 0008 7B68     		ldr	r3, [r7, #4]
 3400 000a 3B61     		str	r3, [r7, #16]
ARM GAS  C:\Users\RECEPC~1\AppData\Local\Temp\ccfwlgn1.s 			page 74


 722:.\DisplayUtils.c ****     if(pdisplay)
 3401              		.loc 1 722 0
 3402 000c 3B69     		ldr	r3, [r7, #16]
 3403 000e 002B     		cmp	r3, #0
 3404 0010 00F0A480 		beq	.L217
 3405              	.LBB12:
 723:.\DisplayUtils.c ****     {
 724:.\DisplayUtils.c ****         char8 mappedchar = 0x00;
 3406              		.loc 1 724 0
 3407 0014 0023     		movs	r3, #0
 3408 0016 FB75     		strb	r3, [r7, #23]
 725:.\DisplayUtils.c ****         //This is since 0x0B has been defined as "Cancel" in the keypad
 726:.\DisplayUtils.c ****         if(pdisplay->_currscrcode == 0x0B)
 3409              		.loc 1 726 0
 3410 0018 3B69     		ldr	r3, [r7, #16]
 3411 001a DB78     		ldrb	r3, [r3, #3]	@ zero_extendqisi2
 3412 001c 0B2B     		cmp	r3, #11
 3413 001e 03D1     		bne	.L219
 727:.\DisplayUtils.c ****             pdisplay->_bufferinfo._bufferindex = 0;
 3414              		.loc 1 727 0
 3415 0020 3B69     		ldr	r3, [r7, #16]
 3416 0022 0022     		movs	r2, #0
 3417 0024 1A77     		strb	r2, [r3, #28]
 3418 0026 11E0     		b	.L220
 3419              	.L219:
 728:.\DisplayUtils.c ****         else
 729:.\DisplayUtils.c ****         {
 730:.\DisplayUtils.c ****             mappedchar = UnmapCode(pdisplay->_currscrcode);
 3420              		.loc 1 730 0
 3421 0028 3B69     		ldr	r3, [r7, #16]
 3422 002a DB78     		ldrb	r3, [r3, #3]	@ zero_extendqisi2
 3423 002c 1846     		mov	r0, r3
 3424 002e FFF7FEFF 		bl	UnmapCode
 3425 0032 0346     		mov	r3, r0
 3426 0034 FB75     		strb	r3, [r7, #23]
 731:.\DisplayUtils.c ****             
 732:.\DisplayUtils.c ****             //No zeros allowed as left most significant digits
 733:.\DisplayUtils.c ****             if((mappedchar < 0x30 || mappedchar > 0x39) && (pdisplay->_bufferinfo._bufferindex == 0
 3427              		.loc 1 733 0
 3428 0036 FB7D     		ldrb	r3, [r7, #23]	@ zero_extendqisi2
 3429 0038 2F2B     		cmp	r3, #47
 3430 003a 02D9     		bls	.L221
 3431              		.loc 1 733 0 is_stmt 0 discriminator 2
 3432 003c FB7D     		ldrb	r3, [r7, #23]	@ zero_extendqisi2
 3433 003e 392B     		cmp	r3, #57
 3434 0040 04D9     		bls	.L220
 3435              	.L221:
 3436              		.loc 1 733 0 discriminator 3
 3437 0042 3B69     		ldr	r3, [r7, #16]
 3438 0044 1B7F     		ldrb	r3, [r3, #28]	@ zero_extendqisi2
 3439 0046 002B     		cmp	r3, #0
 3440 0048 00D1     		bne	.L220
 734:.\DisplayUtils.c ****                 return;
 3441              		.loc 1 734 0 is_stmt 1
 3442 004a 87E0     		b	.L217
 3443              	.L220:
 735:.\DisplayUtils.c ****         }
ARM GAS  C:\Users\RECEPC~1\AppData\Local\Temp\ccfwlgn1.s 			page 75


 736:.\DisplayUtils.c ****         
 737:.\DisplayUtils.c ****         if(pdisplay->_bufferinfo._bufferindex == 0)
 3444              		.loc 1 737 0
 3445 004c 3B69     		ldr	r3, [r7, #16]
 3446 004e 1B7F     		ldrb	r3, [r3, #28]	@ zero_extendqisi2
 3447 0050 002B     		cmp	r3, #0
 3448 0052 10D1     		bne	.L222
 738:.\DisplayUtils.c ****         {
 739:.\DisplayUtils.c ****             pdisplay->_bufferinfo._xpos = pdisplay->_pcurrflow->_inputboxinfo._xdefpos;
 3449              		.loc 1 739 0
 3450 0054 3B69     		ldr	r3, [r7, #16]
 3451 0056 1B69     		ldr	r3, [r3, #16]
 3452 0058 9A8D     		ldrh	r2, [r3, #44]
 3453 005a 3B69     		ldr	r3, [r7, #16]
 3454 005c 1A83     		strh	r2, [r3, #24]	@ movhi
 740:.\DisplayUtils.c ****             pdisplay->_bufferinfo._ypos = pdisplay->_pcurrflow->_inputboxinfo._ydefpos;
 3455              		.loc 1 740 0
 3456 005e 3B69     		ldr	r3, [r7, #16]
 3457 0060 1B69     		ldr	r3, [r3, #16]
 3458 0062 DA8D     		ldrh	r2, [r3, #46]
 3459 0064 3B69     		ldr	r3, [r7, #16]
 3460 0066 5A83     		strh	r2, [r3, #26]	@ movhi
 741:.\DisplayUtils.c ****             memset(pdisplay->_bufferinfo._buffer, ' ', _DISPLAY_BUFFER_SIZE_);
 3461              		.loc 1 741 0
 3462 0068 3B69     		ldr	r3, [r7, #16]
 3463 006a 1D33     		adds	r3, r3, #29
 3464 006c 1846     		mov	r0, r3
 3465 006e 2021     		movs	r1, #32
 3466 0070 1022     		movs	r2, #16
 3467 0072 FFF7FEFF 		bl	memset
 3468              	.L222:
 742:.\DisplayUtils.c ****         }
 743:.\DisplayUtils.c ****         //The InputBox is already filled up!
 744:.\DisplayUtils.c ****         if(pdisplay->_bufferinfo._bufferindex >= pdisplay->_pcurrflow->_inputboxinfo._maxchars)
 3469              		.loc 1 744 0
 3470 0076 3B69     		ldr	r3, [r7, #16]
 3471 0078 1A7F     		ldrb	r2, [r3, #28]	@ zero_extendqisi2
 3472 007a 3B69     		ldr	r3, [r7, #16]
 3473 007c 1B69     		ldr	r3, [r3, #16]
 3474 007e 93F83030 		ldrb	r3, [r3, #48]	@ zero_extendqisi2
 3475 0082 9A42     		cmp	r2, r3
 3476 0084 00D3     		bcc	.L223
 745:.\DisplayUtils.c ****             return;
 3477              		.loc 1 745 0 discriminator 2
 3478 0086 69E0     		b	.L217
 3479              	.L223:
 746:.\DisplayUtils.c ****         
 747:.\DisplayUtils.c ****         //There's nothing new to show up since the unmapper didn't find anything to map to
 748:.\DisplayUtils.c ****         if(mappedchar != 0x00)
 3480              		.loc 1 748 0
 3481 0088 FB7D     		ldrb	r3, [r7, #23]	@ zero_extendqisi2
 3482 008a 002B     		cmp	r3, #0
 3483 008c 0AD0     		beq	.L224
 749:.\DisplayUtils.c ****             pdisplay->_bufferinfo._buffer[pdisplay->_bufferinfo._bufferindex++] = mappedchar;
 3484              		.loc 1 749 0
 3485 008e 3B69     		ldr	r3, [r7, #16]
 3486 0090 1B7F     		ldrb	r3, [r3, #28]	@ zero_extendqisi2
ARM GAS  C:\Users\RECEPC~1\AppData\Local\Temp\ccfwlgn1.s 			page 76


 3487 0092 5A1C     		adds	r2, r3, #1
 3488 0094 D1B2     		uxtb	r1, r2
 3489 0096 3A69     		ldr	r2, [r7, #16]
 3490 0098 1177     		strb	r1, [r2, #28]
 3491 009a 1A46     		mov	r2, r3
 3492 009c 3B69     		ldr	r3, [r7, #16]
 3493 009e 1344     		add	r3, r3, r2
 3494 00a0 FA7D     		ldrb	r2, [r7, #23]
 3495 00a2 5A77     		strb	r2, [r3, #29]
 3496              	.L224:
 750:.\DisplayUtils.c ****         
 751:.\DisplayUtils.c ****         if(pdisplay->_dispid == DISPLAY1)
 3497              		.loc 1 751 0
 3498 00a4 3B69     		ldr	r3, [r7, #16]
 3499 00a6 1B78     		ldrb	r3, [r3]	@ zero_extendqisi2
 3500 00a8 002B     		cmp	r3, #0
 3501 00aa 2CD1     		bne	.L225
 3502              	.LBB13:
 752:.\DisplayUtils.c ****         {
 753:.\DisplayUtils.c ****             UARTMessage *puartdisp = GetUARTMessageSlot(UART_DISPLAY1);
 3503              		.loc 1 753 0
 3504 00ac A320     		movs	r0, #163
 3505 00ae FFF7FEFF 		bl	GetUARTMessageSlot
 3506 00b2 F860     		str	r0, [r7, #12]
 754:.\DisplayUtils.c ****             if(puartdisp)
 3507              		.loc 1 754 0
 3508 00b4 FB68     		ldr	r3, [r7, #12]
 3509 00b6 002B     		cmp	r3, #0
 3510 00b8 24D0     		beq	.L226
 755:.\DisplayUtils.c ****             {
 756:.\DisplayUtils.c ****                 puartdisp->_messagelength = DisplayOutputString(pdisplay->_bufferinfo._xpos, pdispl
 3511              		.loc 1 756 0
 3512 00ba 3B69     		ldr	r3, [r7, #16]
 3513 00bc B3F818E0 		ldrh	lr, [r3, #24]
 3514 00c0 3B69     		ldr	r3, [r7, #16]
 3515 00c2 5E8B     		ldrh	r6, [r3, #26]
 3516 00c4 FB68     		ldr	r3, [r7, #12]
 3517 00c6 1D1D     		adds	r5, r3, #4
 3518 00c8 3B69     		ldr	r3, [r7, #16]
 3519 00ca 03F11D04 		add	r4, r3, #29
 3520 00ce 3B69     		ldr	r3, [r7, #16]
 3521 00d0 1B69     		ldr	r3, [r3, #16]
 3522 00d2 93F83030 		ldrb	r3, [r3, #48]	@ zero_extendqisi2
 3523 00d6 9BB2     		uxth	r3, r3
 3524 00d8 3A69     		ldr	r2, [r7, #16]
 3525 00da 1269     		ldr	r2, [r2, #16]
 3526 00dc 0093     		str	r3, [sp]
 3527 00de 01AB     		add	r3, sp, #4
 3528 00e0 3232     		adds	r2, r2, #50
 3529 00e2 1068     		ldr	r0, [r2]	@ unaligned
 3530 00e4 5168     		ldr	r1, [r2, #4]	@ unaligned
 3531 00e6 03C3     		stmia	r3!, {r0, r1}
 3532 00e8 7046     		mov	r0, lr
 3533 00ea 3146     		mov	r1, r6
 3534 00ec 2A46     		mov	r2, r5
 3535 00ee 2346     		mov	r3, r4
 3536 00f0 FFF7FEFF 		bl	DisplayOutputString
ARM GAS  C:\Users\RECEPC~1\AppData\Local\Temp\ccfwlgn1.s 			page 77


 3537 00f4 0346     		mov	r3, r0
 3538 00f6 1A46     		mov	r2, r3
 3539 00f8 FB68     		ldr	r3, [r7, #12]
 3540 00fa 5A80     		strh	r2, [r3, #2]	@ movhi
 757:.\DisplayUtils.c ****                 puartdisp->_messagestate = PENDING;
 3541              		.loc 1 757 0
 3542 00fc FB68     		ldr	r3, [r7, #12]
 3543 00fe C222     		movs	r2, #194
 3544 0100 1A70     		strb	r2, [r3]
 3545              	.LBE13:
 3546 0102 2BE0     		b	.L217
 3547              	.L226:
 3548 0104 2AE0     		b	.L217
 3549              	.L225:
 3550              	.LBB14:
 758:.\DisplayUtils.c ****             }
 759:.\DisplayUtils.c ****         }
 760:.\DisplayUtils.c ****         else
 761:.\DisplayUtils.c ****         {
 762:.\DisplayUtils.c ****             UARTMessage *puartdisp = GetUARTMessageSlot(UART_DISPLAY2);
 3551              		.loc 1 762 0
 3552 0106 A420     		movs	r0, #164
 3553 0108 FFF7FEFF 		bl	GetUARTMessageSlot
 3554 010c B860     		str	r0, [r7, #8]
 763:.\DisplayUtils.c ****             if(puartdisp)
 3555              		.loc 1 763 0
 3556 010e BB68     		ldr	r3, [r7, #8]
 3557 0110 002B     		cmp	r3, #0
 3558 0112 23D0     		beq	.L217
 764:.\DisplayUtils.c ****             {
 765:.\DisplayUtils.c ****                 puartdisp->_messagelength = DisplayOutputString(pdisplay->_bufferinfo._xpos, pdispl
 3559              		.loc 1 765 0
 3560 0114 3B69     		ldr	r3, [r7, #16]
 3561 0116 B3F818E0 		ldrh	lr, [r3, #24]
 3562 011a 3B69     		ldr	r3, [r7, #16]
 3563 011c 5E8B     		ldrh	r6, [r3, #26]
 3564 011e BB68     		ldr	r3, [r7, #8]
 3565 0120 1D1D     		adds	r5, r3, #4
 3566 0122 3B69     		ldr	r3, [r7, #16]
 3567 0124 03F11D04 		add	r4, r3, #29
 3568 0128 3B69     		ldr	r3, [r7, #16]
 3569 012a 1B69     		ldr	r3, [r3, #16]
 3570 012c 93F83030 		ldrb	r3, [r3, #48]	@ zero_extendqisi2
 3571 0130 9BB2     		uxth	r3, r3
 3572 0132 3A69     		ldr	r2, [r7, #16]
 3573 0134 1269     		ldr	r2, [r2, #16]
 3574 0136 0093     		str	r3, [sp]
 3575 0138 01AB     		add	r3, sp, #4
 3576 013a 3232     		adds	r2, r2, #50
 3577 013c 1068     		ldr	r0, [r2]	@ unaligned
 3578 013e 5168     		ldr	r1, [r2, #4]	@ unaligned
 3579 0140 03C3     		stmia	r3!, {r0, r1}
 3580 0142 7046     		mov	r0, lr
 3581 0144 3146     		mov	r1, r6
 3582 0146 2A46     		mov	r2, r5
 3583 0148 2346     		mov	r3, r4
 3584 014a FFF7FEFF 		bl	DisplayOutputString
ARM GAS  C:\Users\RECEPC~1\AppData\Local\Temp\ccfwlgn1.s 			page 78


 3585 014e 0346     		mov	r3, r0
 3586 0150 1A46     		mov	r2, r3
 3587 0152 BB68     		ldr	r3, [r7, #8]
 3588 0154 5A80     		strh	r2, [r3, #2]	@ movhi
 766:.\DisplayUtils.c ****                 puartdisp->_messagestate = PENDING;
 3589              		.loc 1 766 0
 3590 0156 BB68     		ldr	r3, [r7, #8]
 3591 0158 C222     		movs	r2, #194
 3592 015a 1A70     		strb	r2, [r3]
 3593              	.L217:
 3594              	.LBE14:
 3595              	.LBE12:
 767:.\DisplayUtils.c ****             }
 768:.\DisplayUtils.c ****         }
 769:.\DisplayUtils.c ****         
 770:.\DisplayUtils.c ****     }
 771:.\DisplayUtils.c **** }
 3596              		.loc 1 771 0
 3597 015c 1C37     		adds	r7, r7, #28
 3598              		.cfi_def_cfa_offset 20
 3599 015e BD46     		mov	sp, r7
 3600              		.cfi_def_cfa_register 13
 3601              		@ sp needed
 3602 0160 F0BD     		pop	{r4, r5, r6, r7, pc}
 3603              		.cfi_endproc
 3604              	.LFE85:
 3605              		.size	DisplayIDInputHandler, .-DisplayIDInputHandler
 3606 0162 00BF     		.section	.text.DisplayNumericInputHandler,"ax",%progbits
 3607              		.align	2
 3608              		.global	DisplayNumericInputHandler
 3609              		.thumb
 3610              		.thumb_func
 3611              		.type	DisplayNumericInputHandler, %function
 3612              	DisplayNumericInputHandler:
 3613              	.LFB86:
 772:.\DisplayUtils.c **** 
 773:.\DisplayUtils.c **** //@Created by: HIJH
 774:.\DisplayUtils.c **** //@Date: Septembre de 2016
 775:.\DisplayUtils.c **** //This method handles numeric input data typed in a InputBox
 776:.\DisplayUtils.c **** void DisplayNumericInputHandler(void *pparam)
 777:.\DisplayUtils.c **** {
 3614              		.loc 1 777 0
 3615              		.cfi_startproc
 3616              		@ args = 0, pretend = 0, frame = 48
 3617              		@ frame_needed = 1, uses_anonymous_args = 0
 3618 0000 F0B5     		push	{r4, r5, r6, r7, lr}
 3619              		.cfi_def_cfa_offset 20
 3620              		.cfi_offset 4, -20
 3621              		.cfi_offset 5, -16
 3622              		.cfi_offset 6, -12
 3623              		.cfi_offset 7, -8
 3624              		.cfi_offset 14, -4
 3625 0002 91B0     		sub	sp, sp, #68
 3626              		.cfi_def_cfa_offset 88
 3627 0004 04AF     		add	r7, sp, #16
 3628              		.cfi_def_cfa 7, 72
 3629 0006 7860     		str	r0, [r7, #4]
ARM GAS  C:\Users\RECEPC~1\AppData\Local\Temp\ccfwlgn1.s 			page 79


 778:.\DisplayUtils.c ****     DisplayLayout *pdisplay = (DisplayLayout*)pparam;
 3630              		.loc 1 778 0
 3631 0008 7B68     		ldr	r3, [r7, #4]
 3632 000a BB62     		str	r3, [r7, #40]
 779:.\DisplayUtils.c ****     if(pdisplay)
 3633              		.loc 1 779 0
 3634 000c BB6A     		ldr	r3, [r7, #40]
 3635 000e 002B     		cmp	r3, #0
 3636 0010 00F0E580 		beq	.L227
 3637              	.LBB15:
 780:.\DisplayUtils.c ****     {
 781:.\DisplayUtils.c ****         char8 mappedchar = 0x00;
 3638              		.loc 1 781 0
 3639 0014 0023     		movs	r3, #0
 3640 0016 87F82F30 		strb	r3, [r7, #47]
 782:.\DisplayUtils.c ****         //This is since 0x0B has been defined as "Cancel" in the keypad
 783:.\DisplayUtils.c ****         if(pdisplay->_currscrcode == 0x0B)
 3641              		.loc 1 783 0
 3642 001a BB6A     		ldr	r3, [r7, #40]
 3643 001c DB78     		ldrb	r3, [r3, #3]	@ zero_extendqisi2
 3644 001e 0B2B     		cmp	r3, #11
 3645 0020 0AD1     		bne	.L229
 784:.\DisplayUtils.c ****         {
 785:.\DisplayUtils.c ****             pdisplay->_bufferinfo._bufferindex = 0;
 3646              		.loc 1 785 0
 3647 0022 BB6A     		ldr	r3, [r7, #40]
 3648 0024 0022     		movs	r2, #0
 3649 0026 1A77     		strb	r2, [r3, #28]
 786:.\DisplayUtils.c ****             memset(pdisplay->_bufferinfo._buffer, 0x00, _DISPLAY_BUFFER_SIZE_);
 3650              		.loc 1 786 0
 3651 0028 BB6A     		ldr	r3, [r7, #40]
 3652 002a 1D33     		adds	r3, r3, #29
 3653 002c 1846     		mov	r0, r3
 3654 002e 0021     		movs	r1, #0
 3655 0030 1022     		movs	r2, #16
 3656 0032 FFF7FEFF 		bl	memset
 3657 0036 48E0     		b	.L230
 3658              	.L229:
 3659              	.LBB16:
 787:.\DisplayUtils.c ****         }
 788:.\DisplayUtils.c ****         else
 789:.\DisplayUtils.c ****         {
 790:.\DisplayUtils.c ****             mappedchar = UnmapCode(pdisplay->_currscrcode);
 3660              		.loc 1 790 0
 3661 0038 BB6A     		ldr	r3, [r7, #40]
 3662 003a DB78     		ldrb	r3, [r3, #3]	@ zero_extendqisi2
 3663 003c 1846     		mov	r0, r3
 3664 003e FFF7FEFF 		bl	UnmapCode
 3665 0042 0346     		mov	r3, r0
 3666 0044 87F82F30 		strb	r3, [r7, #47]
 791:.\DisplayUtils.c ****             
 792:.\DisplayUtils.c ****             //No zeros allowed as left most significant digits
 793:.\DisplayUtils.c ****             if((mappedchar <= 0x30 || mappedchar > 0x39) && (pdisplay->_bufferinfo._bufferindex == 
 3667              		.loc 1 793 0
 3668 0048 97F82F30 		ldrb	r3, [r7, #47]	@ zero_extendqisi2
 3669 004c 302B     		cmp	r3, #48
 3670 004e 03D9     		bls	.L231
ARM GAS  C:\Users\RECEPC~1\AppData\Local\Temp\ccfwlgn1.s 			page 80


 3671              		.loc 1 793 0 is_stmt 0 discriminator 2
 3672 0050 97F82F30 		ldrb	r3, [r7, #47]	@ zero_extendqisi2
 3673 0054 392B     		cmp	r3, #57
 3674 0056 04D9     		bls	.L232
 3675              	.L231:
 3676              		.loc 1 793 0 discriminator 3
 3677 0058 BB6A     		ldr	r3, [r7, #40]
 3678 005a 1B7F     		ldrb	r3, [r3, #28]	@ zero_extendqisi2
 3679 005c 002B     		cmp	r3, #0
 3680 005e 00D1     		bne	.L232
 794:.\DisplayUtils.c ****                 return;
 3681              		.loc 1 794 0 is_stmt 1
 3682 0060 BDE0     		b	.L227
 3683              	.L232:
 795:.\DisplayUtils.c ****             
 796:.\DisplayUtils.c ****             //Just one decimal delimiter allowed
 797:.\DisplayUtils.c ****             if(strchr(pdisplay->_bufferinfo._buffer, (char8)',') && (mappedchar == (char8)','))
 3684              		.loc 1 797 0
 3685 0062 BB6A     		ldr	r3, [r7, #40]
 3686 0064 1D33     		adds	r3, r3, #29
 3687 0066 1846     		mov	r0, r3
 3688 0068 2C21     		movs	r1, #44
 3689 006a FFF7FEFF 		bl	strchr
 3690 006e 0346     		mov	r3, r0
 3691 0070 002B     		cmp	r3, #0
 3692 0072 04D0     		beq	.L234
 3693              		.loc 1 797 0 is_stmt 0 discriminator 1
 3694 0074 97F82F30 		ldrb	r3, [r7, #47]	@ zero_extendqisi2
 3695 0078 2C2B     		cmp	r3, #44
 3696 007a 00D1     		bne	.L234
 798:.\DisplayUtils.c ****                 return;
 3697              		.loc 1 798 0 is_stmt 1
 3698 007c AFE0     		b	.L227
 3699              	.L234:
 799:.\DisplayUtils.c **** 
 800:.\DisplayUtils.c ****             //Just _MAX_DECIMALS_ decimals allowed
 801:.\DisplayUtils.c ****             char tempbuffer[16];
 802:.\DisplayUtils.c ****             memset(tempbuffer, 0x00, 16);
 3700              		.loc 1 802 0
 3701 007e 07F10C03 		add	r3, r7, #12
 3702 0082 1846     		mov	r0, r3
 3703 0084 0021     		movs	r1, #0
 3704 0086 1022     		movs	r2, #16
 3705 0088 FFF7FEFF 		bl	memset
 803:.\DisplayUtils.c ****             memcpy(tempbuffer, pdisplay->_bufferinfo._buffer, pdisplay->_bufferinfo._bufferindex);
 3706              		.loc 1 803 0
 3707 008c BB6A     		ldr	r3, [r7, #40]
 3708 008e 03F11D02 		add	r2, r3, #29
 3709 0092 BB6A     		ldr	r3, [r7, #40]
 3710 0094 1B7F     		ldrb	r3, [r3, #28]	@ zero_extendqisi2
 3711 0096 1C46     		mov	r4, r3
 3712 0098 07F10C03 		add	r3, r7, #12
 3713 009c 1846     		mov	r0, r3
 3714 009e 1146     		mov	r1, r2
 3715 00a0 2246     		mov	r2, r4
 3716 00a2 FFF7FEFF 		bl	memcpy
 804:.\DisplayUtils.c ****             char *ptrpos = strchr(tempbuffer, (char8)',');
ARM GAS  C:\Users\RECEPC~1\AppData\Local\Temp\ccfwlgn1.s 			page 81


 3717              		.loc 1 804 0
 3718 00a6 07F10C03 		add	r3, r7, #12
 3719 00aa 1846     		mov	r0, r3
 3720 00ac 2C21     		movs	r1, #44
 3721 00ae FFF7FEFF 		bl	strchr
 3722 00b2 7862     		str	r0, [r7, #36]
 805:.\DisplayUtils.c ****             if(ptrpos)
 3723              		.loc 1 805 0
 3724 00b4 7B6A     		ldr	r3, [r7, #36]
 3725 00b6 002B     		cmp	r3, #0
 3726 00b8 07D0     		beq	.L230
 806:.\DisplayUtils.c ****                 if(strlen(ptrpos) > _MAX_DECIMALS_)
 3727              		.loc 1 806 0
 3728 00ba 786A     		ldr	r0, [r7, #36]
 3729 00bc FFF7FEFF 		bl	strlen
 3730 00c0 0346     		mov	r3, r0
 3731 00c2 012B     		cmp	r3, #1
 3732 00c4 01D9     		bls	.L230
 807:.\DisplayUtils.c ****                     return;
 3733              		.loc 1 807 0
 3734 00c6 00BF     		nop
 3735 00c8 89E0     		b	.L227
 3736              	.L230:
 3737              	.LBE16:
 808:.\DisplayUtils.c ****         }
 809:.\DisplayUtils.c ****         
 810:.\DisplayUtils.c ****         if(pdisplay->_bufferinfo._bufferindex == 0)
 3738              		.loc 1 810 0
 3739 00ca BB6A     		ldr	r3, [r7, #40]
 3740 00cc 1B7F     		ldrb	r3, [r3, #28]	@ zero_extendqisi2
 3741 00ce 002B     		cmp	r3, #0
 3742 00d0 10D1     		bne	.L236
 811:.\DisplayUtils.c ****         {
 812:.\DisplayUtils.c ****             pdisplay->_bufferinfo._xpos = pdisplay->_pcurrflow->_inputboxinfo._xdefpos;
 3743              		.loc 1 812 0
 3744 00d2 BB6A     		ldr	r3, [r7, #40]
 3745 00d4 1B69     		ldr	r3, [r3, #16]
 3746 00d6 9A8D     		ldrh	r2, [r3, #44]
 3747 00d8 BB6A     		ldr	r3, [r7, #40]
 3748 00da 1A83     		strh	r2, [r3, #24]	@ movhi
 813:.\DisplayUtils.c ****             pdisplay->_bufferinfo._ypos = pdisplay->_pcurrflow->_inputboxinfo._ydefpos;
 3749              		.loc 1 813 0
 3750 00dc BB6A     		ldr	r3, [r7, #40]
 3751 00de 1B69     		ldr	r3, [r3, #16]
 3752 00e0 DA8D     		ldrh	r2, [r3, #46]
 3753 00e2 BB6A     		ldr	r3, [r7, #40]
 3754 00e4 5A83     		strh	r2, [r3, #26]	@ movhi
 814:.\DisplayUtils.c ****             memset(pdisplay->_bufferinfo._buffer, ' ', _DISPLAY_BUFFER_SIZE_);
 3755              		.loc 1 814 0
 3756 00e6 BB6A     		ldr	r3, [r7, #40]
 3757 00e8 1D33     		adds	r3, r3, #29
 3758 00ea 1846     		mov	r0, r3
 3759 00ec 2021     		movs	r1, #32
 3760 00ee 1022     		movs	r2, #16
 3761 00f0 FFF7FEFF 		bl	memset
 3762              	.L236:
 815:.\DisplayUtils.c ****         }
ARM GAS  C:\Users\RECEPC~1\AppData\Local\Temp\ccfwlgn1.s 			page 82


 816:.\DisplayUtils.c ****         //The InputBox is already filled up!
 817:.\DisplayUtils.c ****         if(pdisplay->_bufferinfo._bufferindex >= pdisplay->_pcurrflow->_inputboxinfo._maxchars)
 3763              		.loc 1 817 0
 3764 00f4 BB6A     		ldr	r3, [r7, #40]
 3765 00f6 1A7F     		ldrb	r2, [r3, #28]	@ zero_extendqisi2
 3766 00f8 BB6A     		ldr	r3, [r7, #40]
 3767 00fa 1B69     		ldr	r3, [r3, #16]
 3768 00fc 93F83030 		ldrb	r3, [r3, #48]	@ zero_extendqisi2
 3769 0100 9A42     		cmp	r2, r3
 3770 0102 00D3     		bcc	.L237
 818:.\DisplayUtils.c ****             return;
 3771              		.loc 1 818 0
 3772 0104 6BE0     		b	.L227
 3773              	.L237:
 819:.\DisplayUtils.c ****         
 820:.\DisplayUtils.c ****         //There's nothing new to show up since the unmapper didn't find anything to map to
 821:.\DisplayUtils.c ****         if(mappedchar != 0x00)
 3774              		.loc 1 821 0
 3775 0106 97F82F30 		ldrb	r3, [r7, #47]	@ zero_extendqisi2
 3776 010a 002B     		cmp	r3, #0
 3777 010c 0BD0     		beq	.L238
 822:.\DisplayUtils.c ****             pdisplay->_bufferinfo._buffer[pdisplay->_bufferinfo._bufferindex++] = mappedchar;
 3778              		.loc 1 822 0
 3779 010e BB6A     		ldr	r3, [r7, #40]
 3780 0110 1B7F     		ldrb	r3, [r3, #28]	@ zero_extendqisi2
 3781 0112 5A1C     		adds	r2, r3, #1
 3782 0114 D1B2     		uxtb	r1, r2
 3783 0116 BA6A     		ldr	r2, [r7, #40]
 3784 0118 1177     		strb	r1, [r2, #28]
 3785 011a 1A46     		mov	r2, r3
 3786 011c BB6A     		ldr	r3, [r7, #40]
 3787 011e 1344     		add	r3, r3, r2
 3788 0120 97F82F20 		ldrb	r2, [r7, #47]
 3789 0124 5A77     		strb	r2, [r3, #29]
 3790              	.L238:
 823:.\DisplayUtils.c ****         
 824:.\DisplayUtils.c ****         if(pdisplay->_dispid == DISPLAY1)
 3791              		.loc 1 824 0
 3792 0126 BB6A     		ldr	r3, [r7, #40]
 3793 0128 1B78     		ldrb	r3, [r3]	@ zero_extendqisi2
 3794 012a 002B     		cmp	r3, #0
 3795 012c 2CD1     		bne	.L239
 3796              	.LBB17:
 825:.\DisplayUtils.c ****         {
 826:.\DisplayUtils.c ****             UARTMessage *puartdisp = GetUARTMessageSlot(UART_DISPLAY1);
 3797              		.loc 1 826 0
 3798 012e A320     		movs	r0, #163
 3799 0130 FFF7FEFF 		bl	GetUARTMessageSlot
 3800 0134 3862     		str	r0, [r7, #32]
 827:.\DisplayUtils.c ****             if(puartdisp)
 3801              		.loc 1 827 0
 3802 0136 3B6A     		ldr	r3, [r7, #32]
 3803 0138 002B     		cmp	r3, #0
 3804 013a 24D0     		beq	.L240
 828:.\DisplayUtils.c ****             {
 829:.\DisplayUtils.c ****                 puartdisp->_messagelength = DisplayOutputString(pdisplay->_bufferinfo._xpos, pdispl
 3805              		.loc 1 829 0
ARM GAS  C:\Users\RECEPC~1\AppData\Local\Temp\ccfwlgn1.s 			page 83


 3806 013c BB6A     		ldr	r3, [r7, #40]
 3807 013e B3F818E0 		ldrh	lr, [r3, #24]
 3808 0142 BB6A     		ldr	r3, [r7, #40]
 3809 0144 5E8B     		ldrh	r6, [r3, #26]
 3810 0146 3B6A     		ldr	r3, [r7, #32]
 3811 0148 1D1D     		adds	r5, r3, #4
 3812 014a BB6A     		ldr	r3, [r7, #40]
 3813 014c 03F11D04 		add	r4, r3, #29
 3814 0150 BB6A     		ldr	r3, [r7, #40]
 3815 0152 1B69     		ldr	r3, [r3, #16]
 3816 0154 93F83030 		ldrb	r3, [r3, #48]	@ zero_extendqisi2
 3817 0158 9BB2     		uxth	r3, r3
 3818 015a BA6A     		ldr	r2, [r7, #40]
 3819 015c 1269     		ldr	r2, [r2, #16]
 3820 015e 0093     		str	r3, [sp]
 3821 0160 01AB     		add	r3, sp, #4
 3822 0162 3232     		adds	r2, r2, #50
 3823 0164 1068     		ldr	r0, [r2]	@ unaligned
 3824 0166 5168     		ldr	r1, [r2, #4]	@ unaligned
 3825 0168 03C3     		stmia	r3!, {r0, r1}
 3826 016a 7046     		mov	r0, lr
 3827 016c 3146     		mov	r1, r6
 3828 016e 2A46     		mov	r2, r5
 3829 0170 2346     		mov	r3, r4
 3830 0172 FFF7FEFF 		bl	DisplayOutputString
 3831 0176 0346     		mov	r3, r0
 3832 0178 1A46     		mov	r2, r3
 3833 017a 3B6A     		ldr	r3, [r7, #32]
 3834 017c 5A80     		strh	r2, [r3, #2]	@ movhi
 830:.\DisplayUtils.c ****                 puartdisp->_messagestate = PENDING;
 3835              		.loc 1 830 0
 3836 017e 3B6A     		ldr	r3, [r7, #32]
 3837 0180 C222     		movs	r2, #194
 3838 0182 1A70     		strb	r2, [r3]
 3839              	.LBE17:
 3840 0184 2BE0     		b	.L227
 3841              	.L240:
 3842 0186 2AE0     		b	.L227
 3843              	.L239:
 3844              	.LBB18:
 831:.\DisplayUtils.c ****             }
 832:.\DisplayUtils.c ****         }
 833:.\DisplayUtils.c ****         else
 834:.\DisplayUtils.c ****         {
 835:.\DisplayUtils.c ****             UARTMessage *puartdisp = GetUARTMessageSlot(UART_DISPLAY2);
 3845              		.loc 1 835 0
 3846 0188 A420     		movs	r0, #164
 3847 018a FFF7FEFF 		bl	GetUARTMessageSlot
 3848 018e F861     		str	r0, [r7, #28]
 836:.\DisplayUtils.c ****             if(puartdisp)
 3849              		.loc 1 836 0
 3850 0190 FB69     		ldr	r3, [r7, #28]
 3851 0192 002B     		cmp	r3, #0
 3852 0194 23D0     		beq	.L227
 837:.\DisplayUtils.c ****             {
 838:.\DisplayUtils.c ****                 puartdisp->_messagelength = DisplayOutputString(pdisplay->_bufferinfo._xpos, pdispl
 3853              		.loc 1 838 0
ARM GAS  C:\Users\RECEPC~1\AppData\Local\Temp\ccfwlgn1.s 			page 84


 3854 0196 BB6A     		ldr	r3, [r7, #40]
 3855 0198 B3F818E0 		ldrh	lr, [r3, #24]
 3856 019c BB6A     		ldr	r3, [r7, #40]
 3857 019e 5E8B     		ldrh	r6, [r3, #26]
 3858 01a0 FB69     		ldr	r3, [r7, #28]
 3859 01a2 1D1D     		adds	r5, r3, #4
 3860 01a4 BB6A     		ldr	r3, [r7, #40]
 3861 01a6 03F11D04 		add	r4, r3, #29
 3862 01aa BB6A     		ldr	r3, [r7, #40]
 3863 01ac 1B69     		ldr	r3, [r3, #16]
 3864 01ae 93F83030 		ldrb	r3, [r3, #48]	@ zero_extendqisi2
 3865 01b2 9BB2     		uxth	r3, r3
 3866 01b4 BA6A     		ldr	r2, [r7, #40]
 3867 01b6 1269     		ldr	r2, [r2, #16]
 3868 01b8 0093     		str	r3, [sp]
 3869 01ba 01AB     		add	r3, sp, #4
 3870 01bc 3232     		adds	r2, r2, #50
 3871 01be 1068     		ldr	r0, [r2]	@ unaligned
 3872 01c0 5168     		ldr	r1, [r2, #4]	@ unaligned
 3873 01c2 03C3     		stmia	r3!, {r0, r1}
 3874 01c4 7046     		mov	r0, lr
 3875 01c6 3146     		mov	r1, r6
 3876 01c8 2A46     		mov	r2, r5
 3877 01ca 2346     		mov	r3, r4
 3878 01cc FFF7FEFF 		bl	DisplayOutputString
 3879 01d0 0346     		mov	r3, r0
 3880 01d2 1A46     		mov	r2, r3
 3881 01d4 FB69     		ldr	r3, [r7, #28]
 3882 01d6 5A80     		strh	r2, [r3, #2]	@ movhi
 839:.\DisplayUtils.c ****                 puartdisp->_messagestate = PENDING;
 3883              		.loc 1 839 0
 3884 01d8 FB69     		ldr	r3, [r7, #28]
 3885 01da C222     		movs	r2, #194
 3886 01dc 1A70     		strb	r2, [r3]
 3887              	.L227:
 3888              	.LBE18:
 3889              	.LBE15:
 840:.\DisplayUtils.c ****             }
 841:.\DisplayUtils.c ****         }
 842:.\DisplayUtils.c ****         
 843:.\DisplayUtils.c ****     }
 844:.\DisplayUtils.c **** }
 3890              		.loc 1 844 0
 3891 01de 3437     		adds	r7, r7, #52
 3892              		.cfi_def_cfa_offset 20
 3893 01e0 BD46     		mov	sp, r7
 3894              		.cfi_def_cfa_register 13
 3895              		@ sp needed
 3896 01e2 F0BD     		pop	{r4, r5, r6, r7, pc}
 3897              		.cfi_endproc
 3898              	.LFE86:
 3899              		.size	DisplayNumericInputHandler, .-DisplayNumericInputHandler
 3900              		.section	.text.DisplayIntegerInputHandler,"ax",%progbits
 3901              		.align	2
 3902              		.global	DisplayIntegerInputHandler
 3903              		.thumb
 3904              		.thumb_func
ARM GAS  C:\Users\RECEPC~1\AppData\Local\Temp\ccfwlgn1.s 			page 85


 3905              		.type	DisplayIntegerInputHandler, %function
 3906              	DisplayIntegerInputHandler:
 3907              	.LFB87:
 845:.\DisplayUtils.c **** 
 846:.\DisplayUtils.c **** //@Created by: HIJH
 847:.\DisplayUtils.c **** //@Date: Septembre de 2016
 848:.\DisplayUtils.c **** //This method handles numeric input data typed in a InputBox
 849:.\DisplayUtils.c **** void DisplayIntegerInputHandler(void *pparam)
 850:.\DisplayUtils.c **** {
 3908              		.loc 1 850 0
 3909              		.cfi_startproc
 3910              		@ args = 0, pretend = 0, frame = 24
 3911              		@ frame_needed = 1, uses_anonymous_args = 0
 3912 0000 F0B5     		push	{r4, r5, r6, r7, lr}
 3913              		.cfi_def_cfa_offset 20
 3914              		.cfi_offset 4, -20
 3915              		.cfi_offset 5, -16
 3916              		.cfi_offset 6, -12
 3917              		.cfi_offset 7, -8
 3918              		.cfi_offset 14, -4
 3919 0002 8BB0     		sub	sp, sp, #44
 3920              		.cfi_def_cfa_offset 64
 3921 0004 04AF     		add	r7, sp, #16
 3922              		.cfi_def_cfa 7, 48
 3923 0006 7860     		str	r0, [r7, #4]
 851:.\DisplayUtils.c ****     DisplayLayout *pdisplay = (DisplayLayout*)pparam;
 3924              		.loc 1 851 0
 3925 0008 7B68     		ldr	r3, [r7, #4]
 3926 000a 3B61     		str	r3, [r7, #16]
 852:.\DisplayUtils.c ****     if(pdisplay)
 3927              		.loc 1 852 0
 3928 000c 3B69     		ldr	r3, [r7, #16]
 3929 000e 002B     		cmp	r3, #0
 3930 0010 00F0A880 		beq	.L241
 3931              	.LBB19:
 853:.\DisplayUtils.c ****     {
 854:.\DisplayUtils.c ****         char8 mappedchar = 0x00;
 3932              		.loc 1 854 0
 3933 0014 0023     		movs	r3, #0
 3934 0016 FB75     		strb	r3, [r7, #23]
 855:.\DisplayUtils.c ****         //This is since 0x0B has been defined as "Cancel" in the keypad
 856:.\DisplayUtils.c ****         if(pdisplay->_currscrcode == 0x0B)
 3935              		.loc 1 856 0
 3936 0018 3B69     		ldr	r3, [r7, #16]
 3937 001a DB78     		ldrb	r3, [r3, #3]	@ zero_extendqisi2
 3938 001c 0B2B     		cmp	r3, #11
 3939 001e 03D1     		bne	.L243
 857:.\DisplayUtils.c ****             pdisplay->_bufferinfo._bufferindex = 0;
 3940              		.loc 1 857 0
 3941 0020 3B69     		ldr	r3, [r7, #16]
 3942 0022 0022     		movs	r2, #0
 3943 0024 1A77     		strb	r2, [r3, #28]
 3944 0026 15E0     		b	.L244
 3945              	.L243:
 858:.\DisplayUtils.c ****         else
 859:.\DisplayUtils.c ****         {
 860:.\DisplayUtils.c ****             mappedchar = UnmapCode(pdisplay->_currscrcode);
ARM GAS  C:\Users\RECEPC~1\AppData\Local\Temp\ccfwlgn1.s 			page 86


 3946              		.loc 1 860 0
 3947 0028 3B69     		ldr	r3, [r7, #16]
 3948 002a DB78     		ldrb	r3, [r3, #3]	@ zero_extendqisi2
 3949 002c 1846     		mov	r0, r3
 3950 002e FFF7FEFF 		bl	UnmapCode
 3951 0032 0346     		mov	r3, r0
 3952 0034 FB75     		strb	r3, [r7, #23]
 861:.\DisplayUtils.c ****             
 862:.\DisplayUtils.c ****             //No zeros allowed as left most significant digits
 863:.\DisplayUtils.c ****             if((mappedchar <= 0x30 || mappedchar > 0x39) && (pdisplay->_bufferinfo._bufferindex == 
 3953              		.loc 1 863 0
 3954 0036 FB7D     		ldrb	r3, [r7, #23]	@ zero_extendqisi2
 3955 0038 302B     		cmp	r3, #48
 3956 003a 02D9     		bls	.L245
 3957              		.loc 1 863 0 is_stmt 0 discriminator 2
 3958 003c FB7D     		ldrb	r3, [r7, #23]	@ zero_extendqisi2
 3959 003e 392B     		cmp	r3, #57
 3960 0040 04D9     		bls	.L246
 3961              	.L245:
 3962              		.loc 1 863 0 discriminator 3
 3963 0042 3B69     		ldr	r3, [r7, #16]
 3964 0044 1B7F     		ldrb	r3, [r3, #28]	@ zero_extendqisi2
 3965 0046 002B     		cmp	r3, #0
 3966 0048 00D1     		bne	.L246
 864:.\DisplayUtils.c ****                 return;
 3967              		.loc 1 864 0 is_stmt 1
 3968 004a 8BE0     		b	.L241
 3969              	.L246:
 865:.\DisplayUtils.c ****             
 866:.\DisplayUtils.c ****             //Just one decimal delimiter allowed
 867:.\DisplayUtils.c ****             if(mappedchar == (char8)',')
 3970              		.loc 1 867 0
 3971 004c FB7D     		ldrb	r3, [r7, #23]	@ zero_extendqisi2
 3972 004e 2C2B     		cmp	r3, #44
 3973 0050 00D1     		bne	.L244
 868:.\DisplayUtils.c ****                 return;
 3974              		.loc 1 868 0 discriminator 2
 3975 0052 87E0     		b	.L241
 3976              	.L244:
 869:.\DisplayUtils.c **** 
 870:.\DisplayUtils.c ****         }
 871:.\DisplayUtils.c ****         
 872:.\DisplayUtils.c ****         if(pdisplay->_bufferinfo._bufferindex == 0)
 3977              		.loc 1 872 0
 3978 0054 3B69     		ldr	r3, [r7, #16]
 3979 0056 1B7F     		ldrb	r3, [r3, #28]	@ zero_extendqisi2
 3980 0058 002B     		cmp	r3, #0
 3981 005a 10D1     		bne	.L247
 873:.\DisplayUtils.c ****         {
 874:.\DisplayUtils.c ****             pdisplay->_bufferinfo._xpos = pdisplay->_pcurrflow->_inputboxinfo._xdefpos;
 3982              		.loc 1 874 0
 3983 005c 3B69     		ldr	r3, [r7, #16]
 3984 005e 1B69     		ldr	r3, [r3, #16]
 3985 0060 9A8D     		ldrh	r2, [r3, #44]
 3986 0062 3B69     		ldr	r3, [r7, #16]
 3987 0064 1A83     		strh	r2, [r3, #24]	@ movhi
 875:.\DisplayUtils.c ****             pdisplay->_bufferinfo._ypos = pdisplay->_pcurrflow->_inputboxinfo._ydefpos;
ARM GAS  C:\Users\RECEPC~1\AppData\Local\Temp\ccfwlgn1.s 			page 87


 3988              		.loc 1 875 0
 3989 0066 3B69     		ldr	r3, [r7, #16]
 3990 0068 1B69     		ldr	r3, [r3, #16]
 3991 006a DA8D     		ldrh	r2, [r3, #46]
 3992 006c 3B69     		ldr	r3, [r7, #16]
 3993 006e 5A83     		strh	r2, [r3, #26]	@ movhi
 876:.\DisplayUtils.c ****             memset(pdisplay->_bufferinfo._buffer, ' ', _DISPLAY_BUFFER_SIZE_);
 3994              		.loc 1 876 0
 3995 0070 3B69     		ldr	r3, [r7, #16]
 3996 0072 1D33     		adds	r3, r3, #29
 3997 0074 1846     		mov	r0, r3
 3998 0076 2021     		movs	r1, #32
 3999 0078 1022     		movs	r2, #16
 4000 007a FFF7FEFF 		bl	memset
 4001              	.L247:
 877:.\DisplayUtils.c ****         }
 878:.\DisplayUtils.c ****         //The InputBox is already filled up!
 879:.\DisplayUtils.c ****         if(pdisplay->_bufferinfo._bufferindex >= pdisplay->_pcurrflow->_inputboxinfo._maxchars)
 4002              		.loc 1 879 0
 4003 007e 3B69     		ldr	r3, [r7, #16]
 4004 0080 1A7F     		ldrb	r2, [r3, #28]	@ zero_extendqisi2
 4005 0082 3B69     		ldr	r3, [r7, #16]
 4006 0084 1B69     		ldr	r3, [r3, #16]
 4007 0086 93F83030 		ldrb	r3, [r3, #48]	@ zero_extendqisi2
 4008 008a 9A42     		cmp	r2, r3
 4009 008c 00D3     		bcc	.L248
 880:.\DisplayUtils.c ****             return;
 4010              		.loc 1 880 0 discriminator 3
 4011 008e 69E0     		b	.L241
 4012              	.L248:
 881:.\DisplayUtils.c ****         
 882:.\DisplayUtils.c ****         //There's nothing new to show up since the unmapper didn't find anything to map to
 883:.\DisplayUtils.c ****         if(mappedchar != 0x00)
 4013              		.loc 1 883 0
 4014 0090 FB7D     		ldrb	r3, [r7, #23]	@ zero_extendqisi2
 4015 0092 002B     		cmp	r3, #0
 4016 0094 0AD0     		beq	.L249
 884:.\DisplayUtils.c ****             pdisplay->_bufferinfo._buffer[pdisplay->_bufferinfo._bufferindex++] = mappedchar;
 4017              		.loc 1 884 0
 4018 0096 3B69     		ldr	r3, [r7, #16]
 4019 0098 1B7F     		ldrb	r3, [r3, #28]	@ zero_extendqisi2
 4020 009a 5A1C     		adds	r2, r3, #1
 4021 009c D1B2     		uxtb	r1, r2
 4022 009e 3A69     		ldr	r2, [r7, #16]
 4023 00a0 1177     		strb	r1, [r2, #28]
 4024 00a2 1A46     		mov	r2, r3
 4025 00a4 3B69     		ldr	r3, [r7, #16]
 4026 00a6 1344     		add	r3, r3, r2
 4027 00a8 FA7D     		ldrb	r2, [r7, #23]
 4028 00aa 5A77     		strb	r2, [r3, #29]
 4029              	.L249:
 885:.\DisplayUtils.c ****         
 886:.\DisplayUtils.c ****         if(pdisplay->_dispid == DISPLAY1)
 4030              		.loc 1 886 0
 4031 00ac 3B69     		ldr	r3, [r7, #16]
 4032 00ae 1B78     		ldrb	r3, [r3]	@ zero_extendqisi2
 4033 00b0 002B     		cmp	r3, #0
ARM GAS  C:\Users\RECEPC~1\AppData\Local\Temp\ccfwlgn1.s 			page 88


 4034 00b2 2CD1     		bne	.L250
 4035              	.LBB20:
 887:.\DisplayUtils.c ****         {
 888:.\DisplayUtils.c ****             UARTMessage *puartdisp = GetUARTMessageSlot(UART_DISPLAY1);
 4036              		.loc 1 888 0
 4037 00b4 A320     		movs	r0, #163
 4038 00b6 FFF7FEFF 		bl	GetUARTMessageSlot
 4039 00ba F860     		str	r0, [r7, #12]
 889:.\DisplayUtils.c ****             if(puartdisp)
 4040              		.loc 1 889 0
 4041 00bc FB68     		ldr	r3, [r7, #12]
 4042 00be 002B     		cmp	r3, #0
 4043 00c0 24D0     		beq	.L251
 890:.\DisplayUtils.c ****             {
 891:.\DisplayUtils.c ****                 puartdisp->_messagelength = DisplayOutputString(pdisplay->_bufferinfo._xpos, pdispl
 4044              		.loc 1 891 0
 4045 00c2 3B69     		ldr	r3, [r7, #16]
 4046 00c4 B3F818E0 		ldrh	lr, [r3, #24]
 4047 00c8 3B69     		ldr	r3, [r7, #16]
 4048 00ca 5E8B     		ldrh	r6, [r3, #26]
 4049 00cc FB68     		ldr	r3, [r7, #12]
 4050 00ce 1D1D     		adds	r5, r3, #4
 4051 00d0 3B69     		ldr	r3, [r7, #16]
 4052 00d2 03F11D04 		add	r4, r3, #29
 4053 00d6 3B69     		ldr	r3, [r7, #16]
 4054 00d8 1B69     		ldr	r3, [r3, #16]
 4055 00da 93F83030 		ldrb	r3, [r3, #48]	@ zero_extendqisi2
 4056 00de 9BB2     		uxth	r3, r3
 4057 00e0 3A69     		ldr	r2, [r7, #16]
 4058 00e2 1269     		ldr	r2, [r2, #16]
 4059 00e4 0093     		str	r3, [sp]
 4060 00e6 01AB     		add	r3, sp, #4
 4061 00e8 3232     		adds	r2, r2, #50
 4062 00ea 1068     		ldr	r0, [r2]	@ unaligned
 4063 00ec 5168     		ldr	r1, [r2, #4]	@ unaligned
 4064 00ee 03C3     		stmia	r3!, {r0, r1}
 4065 00f0 7046     		mov	r0, lr
 4066 00f2 3146     		mov	r1, r6
 4067 00f4 2A46     		mov	r2, r5
 4068 00f6 2346     		mov	r3, r4
 4069 00f8 FFF7FEFF 		bl	DisplayOutputString
 4070 00fc 0346     		mov	r3, r0
 4071 00fe 1A46     		mov	r2, r3
 4072 0100 FB68     		ldr	r3, [r7, #12]
 4073 0102 5A80     		strh	r2, [r3, #2]	@ movhi
 892:.\DisplayUtils.c ****                 puartdisp->_messagestate = PENDING;
 4074              		.loc 1 892 0
 4075 0104 FB68     		ldr	r3, [r7, #12]
 4076 0106 C222     		movs	r2, #194
 4077 0108 1A70     		strb	r2, [r3]
 4078              	.LBE20:
 4079 010a 2BE0     		b	.L241
 4080              	.L251:
 4081 010c 2AE0     		b	.L241
 4082              	.L250:
 4083              	.LBB21:
 893:.\DisplayUtils.c ****             }
ARM GAS  C:\Users\RECEPC~1\AppData\Local\Temp\ccfwlgn1.s 			page 89


 894:.\DisplayUtils.c ****         }
 895:.\DisplayUtils.c ****         else
 896:.\DisplayUtils.c ****         {
 897:.\DisplayUtils.c ****             UARTMessage *puartdisp = GetUARTMessageSlot(UART_DISPLAY2);
 4084              		.loc 1 897 0
 4085 010e A420     		movs	r0, #164
 4086 0110 FFF7FEFF 		bl	GetUARTMessageSlot
 4087 0114 B860     		str	r0, [r7, #8]
 898:.\DisplayUtils.c ****             if(puartdisp)
 4088              		.loc 1 898 0
 4089 0116 BB68     		ldr	r3, [r7, #8]
 4090 0118 002B     		cmp	r3, #0
 4091 011a 23D0     		beq	.L241
 899:.\DisplayUtils.c ****             {
 900:.\DisplayUtils.c ****                 puartdisp->_messagelength = DisplayOutputString(pdisplay->_bufferinfo._xpos, pdispl
 4092              		.loc 1 900 0
 4093 011c 3B69     		ldr	r3, [r7, #16]
 4094 011e B3F818E0 		ldrh	lr, [r3, #24]
 4095 0122 3B69     		ldr	r3, [r7, #16]
 4096 0124 5E8B     		ldrh	r6, [r3, #26]
 4097 0126 BB68     		ldr	r3, [r7, #8]
 4098 0128 1D1D     		adds	r5, r3, #4
 4099 012a 3B69     		ldr	r3, [r7, #16]
 4100 012c 03F11D04 		add	r4, r3, #29
 4101 0130 3B69     		ldr	r3, [r7, #16]
 4102 0132 1B69     		ldr	r3, [r3, #16]
 4103 0134 93F83030 		ldrb	r3, [r3, #48]	@ zero_extendqisi2
 4104 0138 9BB2     		uxth	r3, r3
 4105 013a 3A69     		ldr	r2, [r7, #16]
 4106 013c 1269     		ldr	r2, [r2, #16]
 4107 013e 0093     		str	r3, [sp]
 4108 0140 01AB     		add	r3, sp, #4
 4109 0142 3232     		adds	r2, r2, #50
 4110 0144 1068     		ldr	r0, [r2]	@ unaligned
 4111 0146 5168     		ldr	r1, [r2, #4]	@ unaligned
 4112 0148 03C3     		stmia	r3!, {r0, r1}
 4113 014a 7046     		mov	r0, lr
 4114 014c 3146     		mov	r1, r6
 4115 014e 2A46     		mov	r2, r5
 4116 0150 2346     		mov	r3, r4
 4117 0152 FFF7FEFF 		bl	DisplayOutputString
 4118 0156 0346     		mov	r3, r0
 4119 0158 1A46     		mov	r2, r3
 4120 015a BB68     		ldr	r3, [r7, #8]
 4121 015c 5A80     		strh	r2, [r3, #2]	@ movhi
 901:.\DisplayUtils.c ****                 puartdisp->_messagestate = PENDING;
 4122              		.loc 1 901 0
 4123 015e BB68     		ldr	r3, [r7, #8]
 4124 0160 C222     		movs	r2, #194
 4125 0162 1A70     		strb	r2, [r3]
 4126              	.L241:
 4127              	.LBE21:
 4128              	.LBE19:
 902:.\DisplayUtils.c ****             }
 903:.\DisplayUtils.c ****         }
 904:.\DisplayUtils.c ****         
 905:.\DisplayUtils.c ****     }
ARM GAS  C:\Users\RECEPC~1\AppData\Local\Temp\ccfwlgn1.s 			page 90


 906:.\DisplayUtils.c **** }
 4129              		.loc 1 906 0
 4130 0164 1C37     		adds	r7, r7, #28
 4131              		.cfi_def_cfa_offset 20
 4132 0166 BD46     		mov	sp, r7
 4133              		.cfi_def_cfa_register 13
 4134              		@ sp needed
 4135 0168 F0BD     		pop	{r4, r5, r6, r7, pc}
 4136              		.cfi_endproc
 4137              	.LFE87:
 4138              		.size	DisplayIntegerInputHandler, .-DisplayIntegerInputHandler
 4139 016a 00BF     		.section	.text.DisplayMoneyInputHandler,"ax",%progbits
 4140              		.align	2
 4141              		.global	DisplayMoneyInputHandler
 4142              		.thumb
 4143              		.thumb_func
 4144              		.type	DisplayMoneyInputHandler, %function
 4145              	DisplayMoneyInputHandler:
 4146              	.LFB88:
 907:.\DisplayUtils.c **** 
 908:.\DisplayUtils.c **** //@Created by: HIJH
 909:.\DisplayUtils.c **** //@Date: Septembre de 2016
 910:.\DisplayUtils.c **** //This method handles numeric input data typed in a InputBox
 911:.\DisplayUtils.c **** void DisplayMoneyInputHandler(void *pparam)
 912:.\DisplayUtils.c **** {
 4147              		.loc 1 912 0
 4148              		.cfi_startproc
 4149              		@ args = 0, pretend = 0, frame = 48
 4150              		@ frame_needed = 1, uses_anonymous_args = 0
 4151 0000 F0B5     		push	{r4, r5, r6, r7, lr}
 4152              		.cfi_def_cfa_offset 20
 4153              		.cfi_offset 4, -20
 4154              		.cfi_offset 5, -16
 4155              		.cfi_offset 6, -12
 4156              		.cfi_offset 7, -8
 4157              		.cfi_offset 14, -4
 4158 0002 91B0     		sub	sp, sp, #68
 4159              		.cfi_def_cfa_offset 88
 4160 0004 04AF     		add	r7, sp, #16
 4161              		.cfi_def_cfa 7, 72
 4162 0006 7860     		str	r0, [r7, #4]
 913:.\DisplayUtils.c ****     DisplayLayout *pdisplay = (DisplayLayout*)pparam;
 4163              		.loc 1 913 0
 4164 0008 7B68     		ldr	r3, [r7, #4]
 4165 000a BB62     		str	r3, [r7, #40]
 914:.\DisplayUtils.c ****     if(pdisplay)
 4166              		.loc 1 914 0
 4167 000c BB6A     		ldr	r3, [r7, #40]
 4168 000e 002B     		cmp	r3, #0
 4169 0010 00F0F280 		beq	.L252
 4170              	.LBB22:
 915:.\DisplayUtils.c ****     {
 916:.\DisplayUtils.c ****         char8 mappedchar = 0x00;
 4171              		.loc 1 916 0
 4172 0014 0023     		movs	r3, #0
 4173 0016 87F82F30 		strb	r3, [r7, #47]
 917:.\DisplayUtils.c ****         //This is since 0x0B has been defined as "Cancel" in the keypad
ARM GAS  C:\Users\RECEPC~1\AppData\Local\Temp\ccfwlgn1.s 			page 91


 918:.\DisplayUtils.c ****         if(pdisplay->_currscrcode == 0x0B)
 4174              		.loc 1 918 0
 4175 001a BB6A     		ldr	r3, [r7, #40]
 4176 001c DB78     		ldrb	r3, [r3, #3]	@ zero_extendqisi2
 4177 001e 0B2B     		cmp	r3, #11
 4178 0020 0AD1     		bne	.L254
 919:.\DisplayUtils.c ****         {
 920:.\DisplayUtils.c ****             pdisplay->_bufferinfo._bufferindex = 0;
 4179              		.loc 1 920 0
 4180 0022 BB6A     		ldr	r3, [r7, #40]
 4181 0024 0022     		movs	r2, #0
 4182 0026 1A77     		strb	r2, [r3, #28]
 921:.\DisplayUtils.c ****             memset(pdisplay->_bufferinfo._buffer, 0x00, _DISPLAY_BUFFER_SIZE_);
 4183              		.loc 1 921 0
 4184 0028 BB6A     		ldr	r3, [r7, #40]
 4185 002a 1D33     		adds	r3, r3, #29
 4186 002c 1846     		mov	r0, r3
 4187 002e 0021     		movs	r1, #0
 4188 0030 1022     		movs	r2, #16
 4189 0032 FFF7FEFF 		bl	memset
 4190 0036 4FE0     		b	.L255
 4191              	.L254:
 4192              	.LBB23:
 922:.\DisplayUtils.c ****         }
 923:.\DisplayUtils.c ****         else
 924:.\DisplayUtils.c ****         {
 925:.\DisplayUtils.c ****             mappedchar = UnmapCode(pdisplay->_currscrcode);
 4193              		.loc 1 925 0
 4194 0038 BB6A     		ldr	r3, [r7, #40]
 4195 003a DB78     		ldrb	r3, [r3, #3]	@ zero_extendqisi2
 4196 003c 1846     		mov	r0, r3
 4197 003e FFF7FEFF 		bl	UnmapCode
 4198 0042 0346     		mov	r3, r0
 4199 0044 87F82F30 		strb	r3, [r7, #47]
 926:.\DisplayUtils.c ****             
 927:.\DisplayUtils.c ****             //No zeros allowed as left most significant digits
 928:.\DisplayUtils.c ****             if((mappedchar <= 0x30 || mappedchar > 0x39) && (pdisplay->_bufferinfo._bufferindex == 
 4200              		.loc 1 928 0
 4201 0048 97F82F30 		ldrb	r3, [r7, #47]	@ zero_extendqisi2
 4202 004c 302B     		cmp	r3, #48
 4203 004e 03D9     		bls	.L256
 4204              		.loc 1 928 0 is_stmt 0 discriminator 2
 4205 0050 97F82F30 		ldrb	r3, [r7, #47]	@ zero_extendqisi2
 4206 0054 392B     		cmp	r3, #57
 4207 0056 04D9     		bls	.L257
 4208              	.L256:
 4209              		.loc 1 928 0 discriminator 3
 4210 0058 BB6A     		ldr	r3, [r7, #40]
 4211 005a 1B7F     		ldrb	r3, [r3, #28]	@ zero_extendqisi2
 4212 005c 002B     		cmp	r3, #0
 4213 005e 00D1     		bne	.L257
 929:.\DisplayUtils.c ****                 return;
 4214              		.loc 1 929 0 is_stmt 1
 4215 0060 CAE0     		b	.L252
 4216              	.L257:
 930:.\DisplayUtils.c ****             
 931:.\DisplayUtils.c ****             //Just one decimal delimiter allowed
ARM GAS  C:\Users\RECEPC~1\AppData\Local\Temp\ccfwlgn1.s 			page 92


 932:.\DisplayUtils.c ****             if(strchr(pdisplay->_bufferinfo._buffer, (char8)',') && (mappedchar == (char8)','))
 4217              		.loc 1 932 0
 4218 0062 BB6A     		ldr	r3, [r7, #40]
 4219 0064 1D33     		adds	r3, r3, #29
 4220 0066 1846     		mov	r0, r3
 4221 0068 2C21     		movs	r1, #44
 4222 006a FFF7FEFF 		bl	strchr
 4223 006e 0346     		mov	r3, r0
 4224 0070 002B     		cmp	r3, #0
 4225 0072 04D0     		beq	.L259
 4226              		.loc 1 932 0 is_stmt 0 discriminator 1
 4227 0074 97F82F30 		ldrb	r3, [r7, #47]	@ zero_extendqisi2
 4228 0078 2C2B     		cmp	r3, #44
 4229 007a 00D1     		bne	.L259
 933:.\DisplayUtils.c ****                 return;
 4230              		.loc 1 933 0 is_stmt 1
 4231 007c BCE0     		b	.L252
 4232              	.L259:
 934:.\DisplayUtils.c **** 
 935:.\DisplayUtils.c ****             //If no decimals are allowed, just return
 936:.\DisplayUtils.c ****             if((_g_dispenserlayoutinfo._moneydecimals == 0) && (mappedchar == (char8)','))
 4233              		.loc 1 936 0
 4234 007e 604B     		ldr	r3, .L268
 4235 0080 DB79     		ldrb	r3, [r3, #7]	@ zero_extendqisi2
 4236 0082 002B     		cmp	r3, #0
 4237 0084 04D1     		bne	.L260
 4238              		.loc 1 936 0 is_stmt 0 discriminator 1
 4239 0086 97F82F30 		ldrb	r3, [r7, #47]	@ zero_extendqisi2
 4240 008a 2C2B     		cmp	r3, #44
 4241 008c 00D1     		bne	.L260
 937:.\DisplayUtils.c ****                 return;
 4242              		.loc 1 937 0 is_stmt 1
 4243 008e B3E0     		b	.L252
 4244              	.L260:
 938:.\DisplayUtils.c ****                         
 939:.\DisplayUtils.c ****             char tempbuffer[16];
 940:.\DisplayUtils.c ****             memset(tempbuffer, 0x00, 16);
 4245              		.loc 1 940 0
 4246 0090 07F10C03 		add	r3, r7, #12
 4247 0094 1846     		mov	r0, r3
 4248 0096 0021     		movs	r1, #0
 4249 0098 1022     		movs	r2, #16
 4250 009a FFF7FEFF 		bl	memset
 941:.\DisplayUtils.c ****             memcpy(tempbuffer, pdisplay->_bufferinfo._buffer, pdisplay->_bufferinfo._bufferindex);
 4251              		.loc 1 941 0
 4252 009e BB6A     		ldr	r3, [r7, #40]
 4253 00a0 03F11D02 		add	r2, r3, #29
 4254 00a4 BB6A     		ldr	r3, [r7, #40]
 4255 00a6 1B7F     		ldrb	r3, [r3, #28]	@ zero_extendqisi2
 4256 00a8 1C46     		mov	r4, r3
 4257 00aa 07F10C03 		add	r3, r7, #12
 4258 00ae 1846     		mov	r0, r3
 4259 00b0 1146     		mov	r1, r2
 4260 00b2 2246     		mov	r2, r4
 4261 00b4 FFF7FEFF 		bl	memcpy
 942:.\DisplayUtils.c ****             char *ptrpos = strchr(tempbuffer, (char8)',');
 4262              		.loc 1 942 0
ARM GAS  C:\Users\RECEPC~1\AppData\Local\Temp\ccfwlgn1.s 			page 93


 4263 00b8 07F10C03 		add	r3, r7, #12
 4264 00bc 1846     		mov	r0, r3
 4265 00be 2C21     		movs	r1, #44
 4266 00c0 FFF7FEFF 		bl	strchr
 4267 00c4 7862     		str	r0, [r7, #36]
 943:.\DisplayUtils.c ****             if(ptrpos)
 4268              		.loc 1 943 0
 4269 00c6 7B6A     		ldr	r3, [r7, #36]
 4270 00c8 002B     		cmp	r3, #0
 4271 00ca 05D0     		beq	.L255
 944:.\DisplayUtils.c ****                 if(strlen(ptrpos) > 0)//_g_dispenserlayoutinfo._moneydecimals)
 4272              		.loc 1 944 0
 4273 00cc 7B6A     		ldr	r3, [r7, #36]
 4274 00ce 1B78     		ldrb	r3, [r3]	@ zero_extendqisi2
 4275 00d0 002B     		cmp	r3, #0
 4276 00d2 01D0     		beq	.L255
 945:.\DisplayUtils.c ****                     return;
 4277              		.loc 1 945 0
 4278 00d4 00BF     		nop
 4279 00d6 8FE0     		b	.L252
 4280              	.L255:
 4281              	.LBE23:
 946:.\DisplayUtils.c ****         }
 947:.\DisplayUtils.c ****         
 948:.\DisplayUtils.c ****         if(pdisplay->_bufferinfo._bufferindex == 0)
 4282              		.loc 1 948 0
 4283 00d8 BB6A     		ldr	r3, [r7, #40]
 4284 00da 1B7F     		ldrb	r3, [r3, #28]	@ zero_extendqisi2
 4285 00dc 002B     		cmp	r3, #0
 4286 00de 10D1     		bne	.L262
 949:.\DisplayUtils.c ****         {
 950:.\DisplayUtils.c ****             pdisplay->_bufferinfo._xpos = pdisplay->_pcurrflow->_inputboxinfo._xdefpos;
 4287              		.loc 1 950 0
 4288 00e0 BB6A     		ldr	r3, [r7, #40]
 4289 00e2 1B69     		ldr	r3, [r3, #16]
 4290 00e4 9A8D     		ldrh	r2, [r3, #44]
 4291 00e6 BB6A     		ldr	r3, [r7, #40]
 4292 00e8 1A83     		strh	r2, [r3, #24]	@ movhi
 951:.\DisplayUtils.c ****             pdisplay->_bufferinfo._ypos = pdisplay->_pcurrflow->_inputboxinfo._ydefpos;
 4293              		.loc 1 951 0
 4294 00ea BB6A     		ldr	r3, [r7, #40]
 4295 00ec 1B69     		ldr	r3, [r3, #16]
 4296 00ee DA8D     		ldrh	r2, [r3, #46]
 4297 00f0 BB6A     		ldr	r3, [r7, #40]
 4298 00f2 5A83     		strh	r2, [r3, #26]	@ movhi
 952:.\DisplayUtils.c ****             memset(pdisplay->_bufferinfo._buffer, ' ', _DISPLAY_BUFFER_SIZE_);
 4299              		.loc 1 952 0
 4300 00f4 BB6A     		ldr	r3, [r7, #40]
 4301 00f6 1D33     		adds	r3, r3, #29
 4302 00f8 1846     		mov	r0, r3
 4303 00fa 2021     		movs	r1, #32
 4304 00fc 1022     		movs	r2, #16
 4305 00fe FFF7FEFF 		bl	memset
 4306              	.L262:
 953:.\DisplayUtils.c ****         }
 954:.\DisplayUtils.c ****         //The InputBox is already filled up!
 955:.\DisplayUtils.c ****         if(pdisplay->_bufferinfo._bufferindex >= pdisplay->_pcurrflow->_inputboxinfo._maxchars || p
ARM GAS  C:\Users\RECEPC~1\AppData\Local\Temp\ccfwlgn1.s 			page 94


 4307              		.loc 1 955 0
 4308 0102 BB6A     		ldr	r3, [r7, #40]
 4309 0104 1A7F     		ldrb	r2, [r3, #28]	@ zero_extendqisi2
 4310 0106 BB6A     		ldr	r3, [r7, #40]
 4311 0108 1B69     		ldr	r3, [r3, #16]
 4312 010a 93F83030 		ldrb	r3, [r3, #48]	@ zero_extendqisi2
 4313 010e 9A42     		cmp	r2, r3
 4314 0110 05D2     		bcs	.L263
 4315              		.loc 1 955 0 is_stmt 0 discriminator 1
 4316 0112 BB6A     		ldr	r3, [r7, #40]
 4317 0114 1A7F     		ldrb	r2, [r3, #28]	@ zero_extendqisi2
 4318 0116 3A4B     		ldr	r3, .L268
 4319 0118 1B7C     		ldrb	r3, [r3, #16]	@ zero_extendqisi2
 4320 011a 9A42     		cmp	r2, r3
 4321 011c 00D3     		bcc	.L264
 4322              	.L263:
 956:.\DisplayUtils.c ****             return;
 4323              		.loc 1 956 0 is_stmt 1
 4324 011e 6BE0     		b	.L252
 4325              	.L264:
 957:.\DisplayUtils.c ****         
 958:.\DisplayUtils.c ****         //There's nothing new to show up since the unmapper didn't find anything to map to
 959:.\DisplayUtils.c ****         if(mappedchar != 0x00)
 4326              		.loc 1 959 0
 4327 0120 97F82F30 		ldrb	r3, [r7, #47]	@ zero_extendqisi2
 4328 0124 002B     		cmp	r3, #0
 4329 0126 0BD0     		beq	.L265
 960:.\DisplayUtils.c ****             pdisplay->_bufferinfo._buffer[pdisplay->_bufferinfo._bufferindex++] = mappedchar;
 4330              		.loc 1 960 0
 4331 0128 BB6A     		ldr	r3, [r7, #40]
 4332 012a 1B7F     		ldrb	r3, [r3, #28]	@ zero_extendqisi2
 4333 012c 5A1C     		adds	r2, r3, #1
 4334 012e D1B2     		uxtb	r1, r2
 4335 0130 BA6A     		ldr	r2, [r7, #40]
 4336 0132 1177     		strb	r1, [r2, #28]
 4337 0134 1A46     		mov	r2, r3
 4338 0136 BB6A     		ldr	r3, [r7, #40]
 4339 0138 1344     		add	r3, r3, r2
 4340 013a 97F82F20 		ldrb	r2, [r7, #47]
 4341 013e 5A77     		strb	r2, [r3, #29]
 4342              	.L265:
 961:.\DisplayUtils.c ****         
 962:.\DisplayUtils.c ****         if(pdisplay->_dispid == DISPLAY1)
 4343              		.loc 1 962 0
 4344 0140 BB6A     		ldr	r3, [r7, #40]
 4345 0142 1B78     		ldrb	r3, [r3]	@ zero_extendqisi2
 4346 0144 002B     		cmp	r3, #0
 4347 0146 2CD1     		bne	.L266
 4348              	.LBB24:
 963:.\DisplayUtils.c ****         {
 964:.\DisplayUtils.c ****             UARTMessage *puartdisp = GetUARTMessageSlot(UART_DISPLAY1);
 4349              		.loc 1 964 0
 4350 0148 A320     		movs	r0, #163
 4351 014a FFF7FEFF 		bl	GetUARTMessageSlot
 4352 014e 3862     		str	r0, [r7, #32]
 965:.\DisplayUtils.c ****             if(puartdisp)
 4353              		.loc 1 965 0
ARM GAS  C:\Users\RECEPC~1\AppData\Local\Temp\ccfwlgn1.s 			page 95


 4354 0150 3B6A     		ldr	r3, [r7, #32]
 4355 0152 002B     		cmp	r3, #0
 4356 0154 24D0     		beq	.L267
 966:.\DisplayUtils.c ****             {
 967:.\DisplayUtils.c ****                 puartdisp->_messagelength = DisplayOutputString(pdisplay->_bufferinfo._xpos, pdispl
 4357              		.loc 1 967 0
 4358 0156 BB6A     		ldr	r3, [r7, #40]
 4359 0158 B3F818E0 		ldrh	lr, [r3, #24]
 4360 015c BB6A     		ldr	r3, [r7, #40]
 4361 015e 5E8B     		ldrh	r6, [r3, #26]
 4362 0160 3B6A     		ldr	r3, [r7, #32]
 4363 0162 1D1D     		adds	r5, r3, #4
 4364 0164 BB6A     		ldr	r3, [r7, #40]
 4365 0166 03F11D04 		add	r4, r3, #29
 4366 016a BB6A     		ldr	r3, [r7, #40]
 4367 016c 1B69     		ldr	r3, [r3, #16]
 4368 016e 93F83030 		ldrb	r3, [r3, #48]	@ zero_extendqisi2
 4369 0172 9BB2     		uxth	r3, r3
 4370 0174 BA6A     		ldr	r2, [r7, #40]
 4371 0176 1269     		ldr	r2, [r2, #16]
 4372 0178 0093     		str	r3, [sp]
 4373 017a 01AB     		add	r3, sp, #4
 4374 017c 3232     		adds	r2, r2, #50
 4375 017e 1068     		ldr	r0, [r2]	@ unaligned
 4376 0180 5168     		ldr	r1, [r2, #4]	@ unaligned
 4377 0182 03C3     		stmia	r3!, {r0, r1}
 4378 0184 7046     		mov	r0, lr
 4379 0186 3146     		mov	r1, r6
 4380 0188 2A46     		mov	r2, r5
 4381 018a 2346     		mov	r3, r4
 4382 018c FFF7FEFF 		bl	DisplayOutputString
 4383 0190 0346     		mov	r3, r0
 4384 0192 1A46     		mov	r2, r3
 4385 0194 3B6A     		ldr	r3, [r7, #32]
 4386 0196 5A80     		strh	r2, [r3, #2]	@ movhi
 968:.\DisplayUtils.c ****                 puartdisp->_messagestate = PENDING;
 4387              		.loc 1 968 0
 4388 0198 3B6A     		ldr	r3, [r7, #32]
 4389 019a C222     		movs	r2, #194
 4390 019c 1A70     		strb	r2, [r3]
 4391              	.LBE24:
 4392 019e 2BE0     		b	.L252
 4393              	.L267:
 4394 01a0 2AE0     		b	.L252
 4395              	.L266:
 4396              	.LBB25:
 969:.\DisplayUtils.c ****             }
 970:.\DisplayUtils.c ****         }
 971:.\DisplayUtils.c ****         else
 972:.\DisplayUtils.c ****         {
 973:.\DisplayUtils.c ****             UARTMessage *puartdisp = GetUARTMessageSlot(UART_DISPLAY2);
 4397              		.loc 1 973 0
 4398 01a2 A420     		movs	r0, #164
 4399 01a4 FFF7FEFF 		bl	GetUARTMessageSlot
 4400 01a8 F861     		str	r0, [r7, #28]
 974:.\DisplayUtils.c ****             if(puartdisp)
 4401              		.loc 1 974 0
ARM GAS  C:\Users\RECEPC~1\AppData\Local\Temp\ccfwlgn1.s 			page 96


 4402 01aa FB69     		ldr	r3, [r7, #28]
 4403 01ac 002B     		cmp	r3, #0
 4404 01ae 23D0     		beq	.L252
 975:.\DisplayUtils.c ****             {
 976:.\DisplayUtils.c ****                 puartdisp->_messagelength = DisplayOutputString(pdisplay->_bufferinfo._xpos, pdispl
 4405              		.loc 1 976 0
 4406 01b0 BB6A     		ldr	r3, [r7, #40]
 4407 01b2 B3F818E0 		ldrh	lr, [r3, #24]
 4408 01b6 BB6A     		ldr	r3, [r7, #40]
 4409 01b8 5E8B     		ldrh	r6, [r3, #26]
 4410 01ba FB69     		ldr	r3, [r7, #28]
 4411 01bc 1D1D     		adds	r5, r3, #4
 4412 01be BB6A     		ldr	r3, [r7, #40]
 4413 01c0 03F11D04 		add	r4, r3, #29
 4414 01c4 BB6A     		ldr	r3, [r7, #40]
 4415 01c6 1B69     		ldr	r3, [r3, #16]
 4416 01c8 93F83030 		ldrb	r3, [r3, #48]	@ zero_extendqisi2
 4417 01cc 9BB2     		uxth	r3, r3
 4418 01ce BA6A     		ldr	r2, [r7, #40]
 4419 01d0 1269     		ldr	r2, [r2, #16]
 4420 01d2 0093     		str	r3, [sp]
 4421 01d4 01AB     		add	r3, sp, #4
 4422 01d6 3232     		adds	r2, r2, #50
 4423 01d8 1068     		ldr	r0, [r2]	@ unaligned
 4424 01da 5168     		ldr	r1, [r2, #4]	@ unaligned
 4425 01dc 03C3     		stmia	r3!, {r0, r1}
 4426 01de 7046     		mov	r0, lr
 4427 01e0 3146     		mov	r1, r6
 4428 01e2 2A46     		mov	r2, r5
 4429 01e4 2346     		mov	r3, r4
 4430 01e6 FFF7FEFF 		bl	DisplayOutputString
 4431 01ea 0346     		mov	r3, r0
 4432 01ec 1A46     		mov	r2, r3
 4433 01ee FB69     		ldr	r3, [r7, #28]
 4434 01f0 5A80     		strh	r2, [r3, #2]	@ movhi
 977:.\DisplayUtils.c ****                 puartdisp->_messagestate = PENDING;
 4435              		.loc 1 977 0
 4436 01f2 FB69     		ldr	r3, [r7, #28]
 4437 01f4 C222     		movs	r2, #194
 4438 01f6 1A70     		strb	r2, [r3]
 4439              	.L252:
 4440              	.LBE25:
 4441              	.LBE22:
 978:.\DisplayUtils.c ****             }
 979:.\DisplayUtils.c ****         }
 980:.\DisplayUtils.c ****         
 981:.\DisplayUtils.c ****     }
 982:.\DisplayUtils.c **** }
 4442              		.loc 1 982 0
 4443 01f8 3437     		adds	r7, r7, #52
 4444              		.cfi_def_cfa_offset 20
 4445 01fa BD46     		mov	sp, r7
 4446              		.cfi_def_cfa_register 13
 4447              		@ sp needed
 4448 01fc F0BD     		pop	{r4, r5, r6, r7, pc}
 4449              	.L269:
 4450 01fe 00BF     		.align	2
ARM GAS  C:\Users\RECEPC~1\AppData\Local\Temp\ccfwlgn1.s 			page 97


 4451              	.L268:
 4452 0200 00000000 		.word	_g_dispenserlayoutinfo
 4453              		.cfi_endproc
 4454              	.LFE88:
 4455              		.size	DisplayMoneyInputHandler, .-DisplayMoneyInputHandler
 4456              		.section	.text.DisplayVolumeInputHandler,"ax",%progbits
 4457              		.align	2
 4458              		.global	DisplayVolumeInputHandler
 4459              		.thumb
 4460              		.thumb_func
 4461              		.type	DisplayVolumeInputHandler, %function
 4462              	DisplayVolumeInputHandler:
 4463              	.LFB89:
 983:.\DisplayUtils.c **** 
 984:.\DisplayUtils.c **** //@Created by: HIJH
 985:.\DisplayUtils.c **** //@Date: Septembre de 2016
 986:.\DisplayUtils.c **** //This method handles numeric input data typed in a InputBox
 987:.\DisplayUtils.c **** void DisplayVolumeInputHandler(void *pparam)
 988:.\DisplayUtils.c **** {
 4464              		.loc 1 988 0
 4465              		.cfi_startproc
 4466              		@ args = 0, pretend = 0, frame = 48
 4467              		@ frame_needed = 1, uses_anonymous_args = 0
 4468 0000 F0B5     		push	{r4, r5, r6, r7, lr}
 4469              		.cfi_def_cfa_offset 20
 4470              		.cfi_offset 4, -20
 4471              		.cfi_offset 5, -16
 4472              		.cfi_offset 6, -12
 4473              		.cfi_offset 7, -8
 4474              		.cfi_offset 14, -4
 4475 0002 91B0     		sub	sp, sp, #68
 4476              		.cfi_def_cfa_offset 88
 4477 0004 04AF     		add	r7, sp, #16
 4478              		.cfi_def_cfa 7, 72
 4479 0006 7860     		str	r0, [r7, #4]
 989:.\DisplayUtils.c ****     DisplayLayout *pdisplay = (DisplayLayout*)pparam;
 4480              		.loc 1 989 0
 4481 0008 7B68     		ldr	r3, [r7, #4]
 4482 000a BB62     		str	r3, [r7, #40]
 990:.\DisplayUtils.c ****     if(pdisplay)
 4483              		.loc 1 990 0
 4484 000c BB6A     		ldr	r3, [r7, #40]
 4485 000e 002B     		cmp	r3, #0
 4486 0010 00F00D81 		beq	.L270
 4487              	.LBB26:
 991:.\DisplayUtils.c ****     {
 992:.\DisplayUtils.c ****         char8 mappedchar = 0x00;
 4488              		.loc 1 992 0
 4489 0014 0023     		movs	r3, #0
 4490 0016 87F82F30 		strb	r3, [r7, #47]
 993:.\DisplayUtils.c ****         //This is since 0x0B has been defined as "Cancel" in the keypad
 994:.\DisplayUtils.c ****         if(pdisplay->_currscrcode == 0x0B)
 4491              		.loc 1 994 0
 4492 001a BB6A     		ldr	r3, [r7, #40]
 4493 001c DB78     		ldrb	r3, [r3, #3]	@ zero_extendqisi2
 4494 001e 0B2B     		cmp	r3, #11
 4495 0020 0AD1     		bne	.L272
ARM GAS  C:\Users\RECEPC~1\AppData\Local\Temp\ccfwlgn1.s 			page 98


 995:.\DisplayUtils.c ****         {
 996:.\DisplayUtils.c ****             pdisplay->_bufferinfo._bufferindex = 0;
 4496              		.loc 1 996 0
 4497 0022 BB6A     		ldr	r3, [r7, #40]
 4498 0024 0022     		movs	r2, #0
 4499 0026 1A77     		strb	r2, [r3, #28]
 997:.\DisplayUtils.c ****             memset(pdisplay->_bufferinfo._buffer, 0x00, _DISPLAY_BUFFER_SIZE_);
 4500              		.loc 1 997 0
 4501 0028 BB6A     		ldr	r3, [r7, #40]
 4502 002a 1D33     		adds	r3, r3, #29
 4503 002c 1846     		mov	r0, r3
 4504 002e 0021     		movs	r1, #0
 4505 0030 1022     		movs	r2, #16
 4506 0032 FFF7FEFF 		bl	memset
 4507 0036 68E0     		b	.L273
 4508              	.L272:
 4509              	.LBB27:
 998:.\DisplayUtils.c ****         }
 999:.\DisplayUtils.c ****         else
1000:.\DisplayUtils.c ****         {
1001:.\DisplayUtils.c ****             mappedchar = UnmapCode(pdisplay->_currscrcode);
 4510              		.loc 1 1001 0
 4511 0038 BB6A     		ldr	r3, [r7, #40]
 4512 003a DB78     		ldrb	r3, [r3, #3]	@ zero_extendqisi2
 4513 003c 1846     		mov	r0, r3
 4514 003e FFF7FEFF 		bl	UnmapCode
 4515 0042 0346     		mov	r3, r0
 4516 0044 87F82F30 		strb	r3, [r7, #47]
1002:.\DisplayUtils.c ****             
1003:.\DisplayUtils.c ****             //No zeros allowed as left most significant digits
1004:.\DisplayUtils.c ****             if((mappedchar < 0x30 || mappedchar > 0x39) && (pdisplay->_bufferinfo._bufferindex == 0
 4517              		.loc 1 1004 0
 4518 0048 97F82F30 		ldrb	r3, [r7, #47]	@ zero_extendqisi2
 4519 004c 2F2B     		cmp	r3, #47
 4520 004e 03D9     		bls	.L274
 4521              		.loc 1 1004 0 is_stmt 0 discriminator 2
 4522 0050 97F82F30 		ldrb	r3, [r7, #47]	@ zero_extendqisi2
 4523 0054 392B     		cmp	r3, #57
 4524 0056 04D9     		bls	.L275
 4525              	.L274:
 4526              		.loc 1 1004 0 discriminator 3
 4527 0058 BB6A     		ldr	r3, [r7, #40]
 4528 005a 1B7F     		ldrb	r3, [r3, #28]	@ zero_extendqisi2
 4529 005c 002B     		cmp	r3, #0
 4530 005e 00D1     		bne	.L275
1005:.\DisplayUtils.c ****                 return;
 4531              		.loc 1 1005 0 is_stmt 1
 4532 0060 E5E0     		b	.L270
 4533              	.L275:
1006:.\DisplayUtils.c ****             
1007:.\DisplayUtils.c ****             //Just one decimal delimiter allowed
1008:.\DisplayUtils.c ****             if(strchr(pdisplay->_bufferinfo._buffer, (char8)',') && (mappedchar == (char8)','))
 4534              		.loc 1 1008 0
 4535 0062 BB6A     		ldr	r3, [r7, #40]
 4536 0064 1D33     		adds	r3, r3, #29
 4537 0066 1846     		mov	r0, r3
 4538 0068 2C21     		movs	r1, #44
ARM GAS  C:\Users\RECEPC~1\AppData\Local\Temp\ccfwlgn1.s 			page 99


 4539 006a FFF7FEFF 		bl	strchr
 4540 006e 0346     		mov	r3, r0
 4541 0070 002B     		cmp	r3, #0
 4542 0072 04D0     		beq	.L277
 4543              		.loc 1 1008 0 is_stmt 0 discriminator 1
 4544 0074 97F82F30 		ldrb	r3, [r7, #47]	@ zero_extendqisi2
 4545 0078 2C2B     		cmp	r3, #44
 4546 007a 00D1     		bne	.L277
1009:.\DisplayUtils.c ****                 return;
 4547              		.loc 1 1009 0 is_stmt 1
 4548 007c D7E0     		b	.L270
 4549              	.L277:
1010:.\DisplayUtils.c **** 
1011:.\DisplayUtils.c ****             //Just one zero before the decimal delimiter allowed
1012:.\DisplayUtils.c ****             if(pdisplay->_bufferinfo._buffer[0] == 0x30 && (mappedchar == (char8)',' && pdisplay->_
 4550              		.loc 1 1012 0
 4551 007e BB6A     		ldr	r3, [r7, #40]
 4552 0080 5B7F     		ldrb	r3, [r3, #29]	@ zero_extendqisi2
 4553 0082 302B     		cmp	r3, #48
 4554 0084 08D1     		bne	.L278
 4555              		.loc 1 1012 0 is_stmt 0 discriminator 1
 4556 0086 97F82F30 		ldrb	r3, [r7, #47]	@ zero_extendqisi2
 4557 008a 2C2B     		cmp	r3, #44
 4558 008c 04D1     		bne	.L278
 4559              		.loc 1 1012 0 discriminator 2
 4560 008e BB6A     		ldr	r3, [r7, #40]
 4561 0090 9B7F     		ldrb	r3, [r3, #30]	@ zero_extendqisi2
 4562 0092 2C2B     		cmp	r3, #44
 4563 0094 00D1     		bne	.L278
1013:.\DisplayUtils.c ****                 return;
 4564              		.loc 1 1013 0 is_stmt 1
 4565 0096 CAE0     		b	.L270
 4566              	.L278:
1014:.\DisplayUtils.c ****             
1015:.\DisplayUtils.c ****             //If no decimals allowed just return
