ARM GAS  C:\Users\RECEPC~1\AppData\Local\Temp\ccBSLvba.s 			page 1


   1              		.syntax unified
   2              		.cpu cortex-m3
   3              		.fpu softvfp
   4              		.eabi_attribute 20, 1
   5              		.eabi_attribute 21, 1
   6              		.eabi_attribute 23, 3
   7              		.eabi_attribute 24, 1
   8              		.eabi_attribute 25, 1
   9              		.eabi_attribute 26, 1
  10              		.eabi_attribute 30, 6
  11              		.eabi_attribute 34, 1
  12              		.eabi_attribute 18, 4
  13              		.thumb
  14              		.file	"DisplayBLL.c"
  15              		.text
  16              	.Ltext0:
  17              		.cfi_sections	.debug_frame
  18              		.global	_g_dispvalcodes
  19              		.data
  20              		.align	2
  21              		.type	_g_dispvalcodes, %object
  22              		.size	_g_dispvalcodes, 3
  23              	_g_dispvalcodes:
  24 0000 94       		.byte	-108
  25 0001 7E       		.byte	126
  26 0002 FF       		.byte	-1
  27              		.global	_g_configured
  28              		.bss
  29              		.align	2
  30              		.type	_g_configured, %object
  31              		.size	_g_configured, 2
  32              	_g_configured:
  33 0000 0000     		.space	2
  34              		.global	_g_display1
  35 0002 0000     		.data
  36 0003 00       		.align	2
  37              		.type	_g_display1, %object
  38              		.size	_g_display1, 60
  39              	_g_display1:
  40 0004 00       		.byte	0
  41 0005 20       		.byte	32
  42 0006 00       		.byte	0
  43 0007 00       		.byte	0
  44 0008 00       		.byte	0
  45 0009 00       		.byte	0
  46 000a 0000     		.short	0
  47 000c 0000     		.short	0
  48 000e 00       		.byte	0
  49 000f 00       		.byte	0
  50 0010 00       		.byte	0
  51 0011 01       		.byte	1
  52 0012 0000     		.space	2
  53 0014 00000000 		.word	_g_displayflow
  54 0018 00000000 		.word	_g_displayflow
  55 001c 0000     		.short	0
  56 001e 0000     		.short	0
  57 0020 00       		.byte	0
ARM GAS  C:\Users\RECEPC~1\AppData\Local\Temp\ccBSLvba.s 			page 2


  58 0021 00000000 		.space	16
  58      00000000 
  58      00000000 
  58      00000000 
  59 0031 00       		.space	1
  60 0032 0000     		.space	2
  61 0034 00000000 		.word	0
  62 0038 00000000 		.word	0
  63 003c 00000000 		.word	DisplayGenericValidator
  64              		.global	_g_display2
  65              		.align	2
  66              		.type	_g_display2, %object
  67              		.size	_g_display2, 60
  68              	_g_display2:
  69 0040 01       		.byte	1
  70 0041 24       		.byte	36
  71 0042 00       		.byte	0
  72 0043 00       		.byte	0
  73 0044 00       		.byte	0
  74 0045 00       		.byte	0
  75 0046 0000     		.short	0
  76 0048 0000     		.short	0
  77 004a 00       		.byte	0
  78 004b 00       		.byte	0
  79 004c 00       		.byte	0
  80 004d 01       		.byte	1
  81 004e 0000     		.space	2
  82 0050 00000000 		.word	_g_displayflow
  83 0054 00000000 		.word	_g_displayflow
  84 0058 0000     		.short	0
  85 005a 0000     		.short	0
  86 005c 00       		.byte	0
  87 005d 00000000 		.space	16
  87      00000000 
  87      00000000 
  87      00000000 
  88 006d 00       		.space	1
  89 006e 0000     		.space	2
  90 0070 00000000 		.word	0
  91 0074 00000000 		.word	0
  92 0078 00000000 		.word	DisplayGenericValidator
  93              		.global	_g_homeanimarray
  94              		.align	2
  95              		.type	_g_homeanimarray, %object
  96              		.size	_g_homeanimarray, 14
  97              	_g_homeanimarray:
  98 007c 00       		.byte	0
  99 007d 01       		.byte	1
 100 007e 00       		.byte	0
 101 007f 5C       		.byte	92
 102 0080 7C       		.byte	124
 103 0081 2F       		.byte	47
 104 0082 2D       		.byte	45
 105 0083 00       		.byte	0
 106 0084 01       		.byte	1
 107 0085 00       		.byte	0
 108 0086 5C       		.byte	92
ARM GAS  C:\Users\RECEPC~1\AppData\Local\Temp\ccBSLvba.s 			page 3


 109 0087 7C       		.byte	124
 110 0088 2F       		.byte	47
 111 0089 2D       		.byte	45
 112              		.global	_g_productscreenpos
 113 008a 0000     		.align	2
 114              		.type	_g_productscreenpos, %object
 115              		.size	_g_productscreenpos, 20
 116              	_g_productscreenpos:
 117 008c 1501     		.short	277
 118 008e 9500     		.short	149
 119 0090 2501     		.short	293
 120 0092 E900     		.short	233
 121 0094 3901     		.short	313
 122 0096 4201     		.short	322
 123 0098 4A01     		.short	330
 124 009a 9201     		.short	402
 125 009c 0000     		.short	0
 126 009e 0000     		.short	0
 127              		.section	.rodata
 128              		.align	2
 129              	.LC11:
 130 0000 56616C69 		.ascii	"Validando turno, por favor espere...\000"
 130      64616E64 
 130      6F207475 
 130      726E6F2C 
 130      20706F72 
 131              		.section	.text.WorkShiftDecorator,"ax",%progbits
 132              		.align	2
 133              		.global	WorkShiftDecorator
 134              		.thumb
 135              		.thumb_func
 136              		.type	WorkShiftDecorator, %function
 137              	WorkShiftDecorator:
 138              	.LFB63:
 139              		.file 1 ".\\DisplayBLL.c"
   1:.\DisplayBLL.c **** /* ========================================
   2:.\DisplayBLL.c ****  *
   3:.\DisplayBLL.c ****  * Copyright INSEPET SISTEMAS, 2016
   4:.\DisplayBLL.c ****  * All Rights Reserved
   5:.\DisplayBLL.c ****  * UNPUBLISHED, LICENSED SOFTWARE.
   6:.\DisplayBLL.c ****  *
   7:.\DisplayBLL.c ****  * CONFIDENTIAL AND PROPRIETARY INFORMATION
   8:.\DisplayBLL.c ****  * WHICH IS THE PROPERTY OF your company.
   9:.\DisplayBLL.c ****  *
  10:.\DisplayBLL.c ****  * ========================================
  11:.\DisplayBLL.c **** @Created By: HIJH
  12:.\DisplayBLL.c **** @Date: Septembre de 2016
  13:.\DisplayBLL.c **** */
  14:.\DisplayBLL.c **** #include <project.h>
  15:.\DisplayBLL.c **** #include "GlobalDefinitions.h"
  16:.\DisplayBLL.c **** #include "UARTManager.h"
  17:.\DisplayBLL.c **** #include "SinkManager.h"
  18:.\DisplayBLL.c **** #include "SinkObservables.h"
  19:.\DisplayBLL.c **** #include "Configuration.h"
  20:.\DisplayBLL.c **** #include "Dispenser.h"
  21:.\DisplayBLL.c **** #include "Display.h"
  22:.\DisplayBLL.c **** #include "RFLink.h"
ARM GAS  C:\Users\RECEPC~1\AppData\Local\Temp\ccBSLvba.s 			page 4


  23:.\DisplayBLL.c **** #include "iButton.h"
  24:.\DisplayBLL.c **** #include "Printer.h"
  25:.\DisplayBLL.c **** #include "Eeprom.h"
  26:.\DisplayBLL.c **** #include "Rtc.h"
  27:.\DisplayBLL.c **** 
  28:.\DisplayBLL.c **** uint8 _g_dispvalcodes[] = { 0x94, 0x7E, 0xFF };
  29:.\DisplayBLL.c **** 
  30:.\DisplayBLL.c **** void CastCreditVolumeValue(char8 *pbuffer, uint8 buffersize);
  31:.\DisplayBLL.c **** bool DisplayGenericValidator(LPVOID pparam);
  32:.\DisplayBLL.c **** 
  33:.\DisplayBLL.c **** bool _g_configured[] = { false, false };
  34:.\DisplayBLL.c **** //Screen #1 Handler (for further information on its initialization parameters, see its definition i
  35:.\DisplayBLL.c **** DisplayLayout _g_display1 = { DISPLAY1, DISPLAY1_MESSAGE, 0x00, 0x00, 0x00, 0x00, 0, 0, 0x00, 0, 0,
  36:.\DisplayBLL.c **** //Screen #2 Handler  (for further information on its initialization parameters, see its definition 
  37:.\DisplayBLL.c **** DisplayLayout _g_display2 = { DISPLAY2, DISPLAY2_MESSAGE, 0x00, 0x00, 0x00, 0x00, 0, 0, 0x00, 0, 0,
  38:.\DisplayBLL.c **** 
  39:.\DisplayBLL.c **** DisplayHomeAnimation _g_homeanimarray[] =
  40:.\DisplayBLL.c **** {
  41:.\DisplayBLL.c ****     { 0x00, true, 0x00, { 0x5C, 0x7C, 0x2F, 0x2D } },//Display #1
  42:.\DisplayBLL.c ****     { 0x00, true, 0x00, { 0x5C, 0x7C, 0x2F, 0x2D } },//Display #2
  43:.\DisplayBLL.c **** };
  44:.\DisplayBLL.c **** 
  45:.\DisplayBLL.c **** uint16 _g_productscreenpos[][2] =
  46:.\DisplayBLL.c **** {
  47:.\DisplayBLL.c ****     { 0x0115, 0x0095 },
  48:.\DisplayBLL.c ****     { 0x0125, 0x00E9 },
  49:.\DisplayBLL.c ****     { 0x0139, 0x0142 },
  50:.\DisplayBLL.c ****     { 0x014A, 0x0192 },
  51:.\DisplayBLL.c ****     { 0x0000, 0x0000 },
  52:.\DisplayBLL.c **** };
  53:.\DisplayBLL.c **** 
  54:.\DisplayBLL.c **** 
  55:.\DisplayBLL.c **** ///////////////////////////////////////////////////////////////////////////////////////////////////
  56:.\DisplayBLL.c **** // *********************************************  PURE BLL FUNCTIONS NEXT
  57:.\DisplayBLL.c **** ///////////////////////////////////////////////////////////////////////////////////////////////////
  58:.\DisplayBLL.c **** 
  59:.\DisplayBLL.c **** void WorkShiftDecorator(void *pparam)
  60:.\DisplayBLL.c **** {
 140              		.loc 1 60 0
 141              		.cfi_startproc
 142              		@ args = 0, pretend = 0, frame = 32
 143              		@ frame_needed = 1, uses_anonymous_args = 0
 144 0000 90B5     		push	{r4, r7, lr}
 145              		.cfi_def_cfa_offset 12
 146              		.cfi_offset 4, -12
 147              		.cfi_offset 7, -8
 148              		.cfi_offset 14, -4
 149 0002 8DB0     		sub	sp, sp, #52
 150              		.cfi_def_cfa_offset 64
 151 0004 04AF     		add	r7, sp, #16
 152              		.cfi_def_cfa 7, 48
 153 0006 7860     		str	r0, [r7, #4]
  61:.\DisplayBLL.c ****     FontData fontdata;
  62:.\DisplayBLL.c ****     fontdata._size = 0x03;
 154              		.loc 1 62 0
 155 0008 0323     		movs	r3, #3
 156 000a 3B72     		strb	r3, [r7, #8]
ARM GAS  C:\Users\RECEPC~1\AppData\Local\Temp\ccBSLvba.s 			page 5


  63:.\DisplayBLL.c ****     fontdata._backcolor = 0xFFFF;
 157              		.loc 1 63 0
 158 000c 4FF6FF73 		movw	r3, #65535
 159 0010 BB81     		strh	r3, [r7, #12]	@ movhi
  64:.\DisplayBLL.c ****     fontdata._forecolor = 0x0000;
 160              		.loc 1 64 0
 161 0012 0023     		movs	r3, #0
 162 0014 FB81     		strh	r3, [r7, #14]	@ movhi
  65:.\DisplayBLL.c ****     fontdata._opaquebackground = DISP_TEXT_OPAQUE;
 163              		.loc 1 65 0
 164 0016 C523     		movs	r3, #197
 165 0018 BB72     		strb	r3, [r7, #10]
  66:.\DisplayBLL.c ****     //MOVE ALL OF THESE TEXTS TO THE EEPROM
  67:.\DisplayBLL.c ****     char8 *pmessage = "Validando turno, por favor espere...";
 166              		.loc 1 67 0
 167 001a 294B     		ldr	r3, .L5
 168 001c FB61     		str	r3, [r7, #28]
  68:.\DisplayBLL.c ****     DisplayLayout *pdisplay = (DisplayLayout*)pparam;
 169              		.loc 1 68 0
 170 001e 7B68     		ldr	r3, [r7, #4]
 171 0020 BB61     		str	r3, [r7, #24]
  69:.\DisplayBLL.c ****     if(pdisplay->_dispid == DISPLAY1)
 172              		.loc 1 69 0
 173 0022 BB69     		ldr	r3, [r7, #24]
 174 0024 1B78     		ldrb	r3, [r3]	@ zero_extendqisi2
 175 0026 002B     		cmp	r3, #0
 176 0028 24D1     		bne	.L2
 177              	.LBB2:
  70:.\DisplayBLL.c ****     {
  71:.\DisplayBLL.c ****         UARTMessage *puartdisp = GetUARTMessageSlot(UART_DISPLAY1);
 178              		.loc 1 71 0
 179 002a A320     		movs	r0, #163
 180 002c FFF7FEFF 		bl	GetUARTMessageSlot
 181 0030 7861     		str	r0, [r7, #20]
  72:.\DisplayBLL.c ****         if(puartdisp)
 182              		.loc 1 72 0
 183 0032 7B69     		ldr	r3, [r7, #20]
 184 0034 002B     		cmp	r3, #0
 185 0036 1CD0     		beq	.L3
  73:.\DisplayBLL.c ****         {
  74:.\DisplayBLL.c ****             puartdisp->_messagelength = DisplayOutputString(0x0020, 0x00EA, puartdisp->_messagetx, 
 186              		.loc 1 74 0
 187 0038 7B69     		ldr	r3, [r7, #20]
 188 003a 1C1D     		adds	r4, r3, #4
 189 003c F869     		ldr	r0, [r7, #28]
 190 003e FFF7FEFF 		bl	strlen
 191 0042 0346     		mov	r3, r0
 192 0044 9BB2     		uxth	r3, r3
 193 0046 0093     		str	r3, [sp]
 194 0048 01AA     		add	r2, sp, #4
 195 004a 07F10803 		add	r3, r7, #8
 196 004e 93E80300 		ldmia	r3, {r0, r1}
 197 0052 82E80300 		stmia	r2, {r0, r1}
 198 0056 2020     		movs	r0, #32
 199 0058 EA21     		movs	r1, #234
 200 005a 2246     		mov	r2, r4
 201 005c FB69     		ldr	r3, [r7, #28]
ARM GAS  C:\Users\RECEPC~1\AppData\Local\Temp\ccBSLvba.s 			page 6


 202 005e FFF7FEFF 		bl	DisplayOutputString
 203 0062 0346     		mov	r3, r0
 204 0064 1A46     		mov	r2, r3
 205 0066 7B69     		ldr	r3, [r7, #20]
 206 0068 5A80     		strh	r2, [r3, #2]	@ movhi
  75:.\DisplayBLL.c ****             puartdisp->_messagestate = PENDING;
 207              		.loc 1 75 0
 208 006a 7B69     		ldr	r3, [r7, #20]
 209 006c C222     		movs	r2, #194
 210 006e 1A70     		strb	r2, [r3]
 211              	.LBE2:
 212 0070 23E0     		b	.L1
 213              	.L3:
 214 0072 22E0     		b	.L1
 215              	.L2:
 216              	.LBB3:
  76:.\DisplayBLL.c ****         }
  77:.\DisplayBLL.c ****     }
  78:.\DisplayBLL.c ****     else
  79:.\DisplayBLL.c ****     {
  80:.\DisplayBLL.c ****         UARTMessage *puartdisp = GetUARTMessageSlot(UART_DISPLAY2);
 217              		.loc 1 80 0
 218 0074 A420     		movs	r0, #164
 219 0076 FFF7FEFF 		bl	GetUARTMessageSlot
 220 007a 3861     		str	r0, [r7, #16]
  81:.\DisplayBLL.c ****         if(puartdisp)
 221              		.loc 1 81 0
 222 007c 3B69     		ldr	r3, [r7, #16]
 223 007e 002B     		cmp	r3, #0
 224 0080 1BD0     		beq	.L1
  82:.\DisplayBLL.c ****         {
  83:.\DisplayBLL.c ****             puartdisp->_messagelength = DisplayOutputString(0x0020, 0x00EA, puartdisp->_messagetx, 
 225              		.loc 1 83 0
 226 0082 3B69     		ldr	r3, [r7, #16]
 227 0084 1C1D     		adds	r4, r3, #4
 228 0086 F869     		ldr	r0, [r7, #28]
 229 0088 FFF7FEFF 		bl	strlen
 230 008c 0346     		mov	r3, r0
 231 008e 9BB2     		uxth	r3, r3
 232 0090 0093     		str	r3, [sp]
 233 0092 01AA     		add	r2, sp, #4
 234 0094 07F10803 		add	r3, r7, #8
 235 0098 93E80300 		ldmia	r3, {r0, r1}
 236 009c 82E80300 		stmia	r2, {r0, r1}
 237 00a0 2020     		movs	r0, #32
 238 00a2 EA21     		movs	r1, #234
 239 00a4 2246     		mov	r2, r4
 240 00a6 FB69     		ldr	r3, [r7, #28]
 241 00a8 FFF7FEFF 		bl	DisplayOutputString
 242 00ac 0346     		mov	r3, r0
 243 00ae 1A46     		mov	r2, r3
 244 00b0 3B69     		ldr	r3, [r7, #16]
 245 00b2 5A80     		strh	r2, [r3, #2]	@ movhi
  84:.\DisplayBLL.c ****             puartdisp->_messagestate = PENDING;
 246              		.loc 1 84 0
 247 00b4 3B69     		ldr	r3, [r7, #16]
 248 00b6 C222     		movs	r2, #194
ARM GAS  C:\Users\RECEPC~1\AppData\Local\Temp\ccBSLvba.s 			page 7


 249 00b8 1A70     		strb	r2, [r3]
 250              	.L1:
 251              	.LBE3:
  85:.\DisplayBLL.c ****         }
  86:.\DisplayBLL.c ****     }
  87:.\DisplayBLL.c **** }
 252              		.loc 1 87 0
 253 00ba 2437     		adds	r7, r7, #36
 254              		.cfi_def_cfa_offset 12
 255 00bc BD46     		mov	sp, r7
 256              		.cfi_def_cfa_register 13
 257              		@ sp needed
 258 00be 90BD     		pop	{r4, r7, pc}
 259              	.L6:
 260              		.align	2
 261              	.L5:
 262 00c0 00000000 		.word	.LC11
 263              		.cfi_endproc
 264              	.LFE63:
 265              		.size	WorkShiftDecorator, .-WorkShiftDecorator
 266              		.section	.text.InitiateWorkShiftValidation,"ax",%progbits
 267              		.align	2
 268              		.global	InitiateWorkShiftValidation
 269              		.thumb
 270              		.thumb_func
 271              		.type	InitiateWorkShiftValidation, %function
 272              	InitiateWorkShiftValidation:
 273              	.LFB64:
  88:.\DisplayBLL.c **** 
  89:.\DisplayBLL.c **** void InitiateWorkShiftValidation(void *pparam)
  90:.\DisplayBLL.c **** {
 274              		.loc 1 90 0
 275              		.cfi_startproc
 276              		@ args = 0, pretend = 0, frame = 16
 277              		@ frame_needed = 1, uses_anonymous_args = 0
 278 0000 90B5     		push	{r4, r7, lr}
 279              		.cfi_def_cfa_offset 12
 280              		.cfi_offset 4, -12
 281              		.cfi_offset 7, -8
 282              		.cfi_offset 14, -4
 283 0002 85B0     		sub	sp, sp, #20
 284              		.cfi_def_cfa_offset 32
 285 0004 00AF     		add	r7, sp, #0
 286              		.cfi_def_cfa_register 7
 287 0006 7860     		str	r0, [r7, #4]
  91:.\DisplayBLL.c ****     PDISPLAYLAYOUTPTR pdisplay = (PDISPLAYLAYOUTPTR)pparam;
 288              		.loc 1 91 0
 289 0008 7B68     		ldr	r3, [r7, #4]
 290 000a FB60     		str	r3, [r7, #12]
  92:.\DisplayBLL.c ****     if(pdisplay->_dispid == DISPLAY1)
 291              		.loc 1 92 0
 292 000c FB68     		ldr	r3, [r7, #12]
 293 000e 1B78     		ldrb	r3, [r3]	@ zero_extendqisi2
 294 0010 002B     		cmp	r3, #0
 295 0012 48D1     		bne	.L8
  93:.\DisplayBLL.c ****     {
  94:.\DisplayBLL.c ****         if(((PSINKMESSAGEPTR)pdisplay->_psequesteredmessagesink)->_buffer[GetBufferIndexFromDisplay
ARM GAS  C:\Users\RECEPC~1\AppData\Local\Temp\ccBSLvba.s 			page 8


 296              		.loc 1 94 0
 297 0014 FB68     		ldr	r3, [r7, #12]
 298 0016 1C6B     		ldr	r4, [r3, #48]
 299 0018 2E20     		movs	r0, #46
 300 001a FFF7FEFF 		bl	GetBufferIndexFromDisplayID
 301 001e 0346     		mov	r3, r0
 302 0020 2344     		add	r3, r3, r4
 303 0022 1B7B     		ldrb	r3, [r3, #12]	@ zero_extendqisi2
 304 0024 562B     		cmp	r3, #86
 305 0026 19D1     		bne	.L9
 306              	.LBB4:
  95:.\DisplayBLL.c ****         {
  96:.\DisplayBLL.c ****             I2CBusLock();
 307              		.loc 1 96 0
 308 0028 FFF7FEFF 		bl	I2CBusLock
  97:.\DisplayBLL.c ****             ClearEepromBuffer();
 309              		.loc 1 97 0
 310 002c FFF7FEFF 		bl	ClearEepromBuffer
  98:.\DisplayBLL.c ****             LoadEepromPage(EEPROM_DISPENSER_PUMP1_LAYOUT_PAGE);
 311              		.loc 1 98 0
 312 0030 4FF40070 		mov	r0, #512
 313 0034 FFF7FEFF 		bl	LoadEepromPage
  99:.\DisplayBLL.c ****             uint8 wsvalue = GetEepromBuffer()[0x05];
 314              		.loc 1 99 0
 315 0038 FFF7FEFF 		bl	GetEepromBuffer
 316 003c 0346     		mov	r3, r0
 317 003e 5B79     		ldrb	r3, [r3, #5]
 318 0040 FB72     		strb	r3, [r7, #11]
 100:.\DisplayBLL.c ****             I2CBusUnlock();
 319              		.loc 1 100 0
 320 0042 FFF7FEFF 		bl	I2CBusUnlock
 101:.\DisplayBLL.c ****             if(wsvalue == 0x00)
 321              		.loc 1 101 0
 322 0046 FB7A     		ldrb	r3, [r7, #11]	@ zero_extendqisi2
 323 0048 002B     		cmp	r3, #0
 324 004a 03D1     		bne	.L10
 102:.\DisplayBLL.c ****                 pdisplay->_currentstate = DISPLAY_OPEN_WORK_SHIFT;
 325              		.loc 1 102 0
 326 004c FB68     		ldr	r3, [r7, #12]
 327 004e A522     		movs	r2, #165
 328 0050 1A71     		strb	r2, [r3, #4]
 329 0052 73E0     		b	.L7
 330              	.L10:
 103:.\DisplayBLL.c ****             else
 104:.\DisplayBLL.c ****                 pdisplay->_currentstate = DISPLAY_CLOSE_WORK_SHIFT;
 331              		.loc 1 104 0
 332 0054 FB68     		ldr	r3, [r7, #12]
 333 0056 A622     		movs	r2, #166
 334 0058 1A71     		strb	r2, [r3, #4]
 335              	.LBE4:
 336 005a 6FE0     		b	.L7
 337              	.L9:
 105:.\DisplayBLL.c ****         }
 106:.\DisplayBLL.c ****         else if(((PSINKMESSAGEPTR)pdisplay->_psequesteredmessagesink)->_buffer[GetBufferIndexFromDi
 338              		.loc 1 106 0
 339 005c FB68     		ldr	r3, [r7, #12]
 340 005e 1C6B     		ldr	r4, [r3, #48]
ARM GAS  C:\Users\RECEPC~1\AppData\Local\Temp\ccBSLvba.s 			page 9


 341 0060 2E20     		movs	r0, #46
 342 0062 FFF7FEFF 		bl	GetBufferIndexFromDisplayID
 343 0066 0346     		mov	r3, r0
 344 0068 2344     		add	r3, r3, r4
 345 006a 1B7B     		ldrb	r3, [r3, #12]	@ zero_extendqisi2
 346 006c 572B     		cmp	r3, #87
 347 006e 19D1     		bne	.L12
 348              	.LBB5:
 107:.\DisplayBLL.c ****         {
 108:.\DisplayBLL.c ****             I2CBusLock();
 349              		.loc 1 108 0
 350 0070 FFF7FEFF 		bl	I2CBusLock
 109:.\DisplayBLL.c ****             ClearEepromBuffer();
 351              		.loc 1 109 0
 352 0074 FFF7FEFF 		bl	ClearEepromBuffer
 110:.\DisplayBLL.c ****             LoadEepromPage(EEPROM_DISPENSER_PUMP3_LAYOUT_PAGE);
 353              		.loc 1 110 0
 354 0078 4FF42070 		mov	r0, #640
 355 007c FFF7FEFF 		bl	LoadEepromPage
 111:.\DisplayBLL.c ****             uint8 wsvalue = GetEepromBuffer()[0x05];
 356              		.loc 1 111 0
 357 0080 FFF7FEFF 		bl	GetEepromBuffer
 358 0084 0346     		mov	r3, r0
 359 0086 5B79     		ldrb	r3, [r3, #5]
 360 0088 BB72     		strb	r3, [r7, #10]
 112:.\DisplayBLL.c ****             I2CBusUnlock();
 361              		.loc 1 112 0
 362 008a FFF7FEFF 		bl	I2CBusUnlock
 113:.\DisplayBLL.c ****             if(wsvalue == 0x00)
 363              		.loc 1 113 0
 364 008e BB7A     		ldrb	r3, [r7, #10]	@ zero_extendqisi2
 365 0090 002B     		cmp	r3, #0
 366 0092 03D1     		bne	.L13
 114:.\DisplayBLL.c ****                 pdisplay->_currentstate = DISPLAY_OPEN_WORK_SHIFT;
 367              		.loc 1 114 0
 368 0094 FB68     		ldr	r3, [r7, #12]
 369 0096 A522     		movs	r2, #165
 370 0098 1A71     		strb	r2, [r3, #4]
 371 009a 03E0     		b	.L12
 372              	.L13:
 115:.\DisplayBLL.c ****             else
 116:.\DisplayBLL.c ****                 pdisplay->_currentstate = DISPLAY_CLOSE_WORK_SHIFT;
 373              		.loc 1 116 0
 374 009c FB68     		ldr	r3, [r7, #12]
 375 009e A622     		movs	r2, #166
 376 00a0 1A71     		strb	r2, [r3, #4]
 377              	.LBE5:
 378 00a2 4BE0     		b	.L7
 379              	.L12:
 380 00a4 4AE0     		b	.L7
 381              	.L8:
 117:.\DisplayBLL.c ****         }
 118:.\DisplayBLL.c ****     }
 119:.\DisplayBLL.c ****     else if(pdisplay->_dispid == DISPLAY2)
 382              		.loc 1 119 0
 383 00a6 FB68     		ldr	r3, [r7, #12]
 384 00a8 1B78     		ldrb	r3, [r3]	@ zero_extendqisi2
ARM GAS  C:\Users\RECEPC~1\AppData\Local\Temp\ccBSLvba.s 			page 10


 385 00aa 012B     		cmp	r3, #1
 386 00ac 46D1     		bne	.L7
 120:.\DisplayBLL.c ****     {
 121:.\DisplayBLL.c ****         if(((PSINKMESSAGEPTR)pdisplay->_psequesteredmessagesink)->_buffer[GetBufferIndexFromDisplay
 387              		.loc 1 121 0
 388 00ae FB68     		ldr	r3, [r7, #12]
 389 00b0 1C6B     		ldr	r4, [r3, #48]
 390 00b2 2E20     		movs	r0, #46
 391 00b4 FFF7FEFF 		bl	GetBufferIndexFromDisplayID
 392 00b8 0346     		mov	r3, r0
 393 00ba 2344     		add	r3, r3, r4
 394 00bc 1B7B     		ldrb	r3, [r3, #12]	@ zero_extendqisi2
 395 00be 562B     		cmp	r3, #86
 396 00c0 19D1     		bne	.L15
 397              	.LBB6:
 122:.\DisplayBLL.c ****         {
 123:.\DisplayBLL.c ****             I2CBusLock();
 398              		.loc 1 123 0
 399 00c2 FFF7FEFF 		bl	I2CBusLock
 124:.\DisplayBLL.c ****             ClearEepromBuffer();
 400              		.loc 1 124 0
 401 00c6 FFF7FEFF 		bl	ClearEepromBuffer
 125:.\DisplayBLL.c ****             LoadEepromPage(EEPROM_DISPENSER_PUMP4_LAYOUT_PAGE);
 402              		.loc 1 125 0
 403 00ca 4FF43070 		mov	r0, #704
 404 00ce FFF7FEFF 		bl	LoadEepromPage
 126:.\DisplayBLL.c ****             uint8 wsvalue = GetEepromBuffer()[0x05];
 405              		.loc 1 126 0
 406 00d2 FFF7FEFF 		bl	GetEepromBuffer
 407 00d6 0346     		mov	r3, r0
 408 00d8 5B79     		ldrb	r3, [r3, #5]
 409 00da 7B72     		strb	r3, [r7, #9]
 127:.\DisplayBLL.c ****             I2CBusUnlock();
 410              		.loc 1 127 0
 411 00dc FFF7FEFF 		bl	I2CBusUnlock
 128:.\DisplayBLL.c ****             if(wsvalue == 0x00)
 412              		.loc 1 128 0
 413 00e0 7B7A     		ldrb	r3, [r7, #9]	@ zero_extendqisi2
 414 00e2 002B     		cmp	r3, #0
 415 00e4 03D1     		bne	.L16
 129:.\DisplayBLL.c ****                 pdisplay->_currentstate = DISPLAY_OPEN_WORK_SHIFT;
 416              		.loc 1 129 0
 417 00e6 FB68     		ldr	r3, [r7, #12]
 418 00e8 A522     		movs	r2, #165
 419 00ea 1A71     		strb	r2, [r3, #4]
 420 00ec 26E0     		b	.L7
 421              	.L16:
 130:.\DisplayBLL.c ****             else
 131:.\DisplayBLL.c ****                 pdisplay->_currentstate = DISPLAY_CLOSE_WORK_SHIFT;
 422              		.loc 1 131 0
 423 00ee FB68     		ldr	r3, [r7, #12]
 424 00f0 A622     		movs	r2, #166
 425 00f2 1A71     		strb	r2, [r3, #4]
 426              	.LBE6:
 427 00f4 22E0     		b	.L7
 428              	.L15:
 132:.\DisplayBLL.c ****         }
ARM GAS  C:\Users\RECEPC~1\AppData\Local\Temp\ccBSLvba.s 			page 11


 133:.\DisplayBLL.c ****         else if(((PSINKMESSAGEPTR)pdisplay->_psequesteredmessagesink)->_buffer[GetBufferIndexFromDi
 429              		.loc 1 133 0
 430 00f6 FB68     		ldr	r3, [r7, #12]
 431 00f8 1C6B     		ldr	r4, [r3, #48]
 432 00fa 2E20     		movs	r0, #46
 433 00fc FFF7FEFF 		bl	GetBufferIndexFromDisplayID
 434 0100 0346     		mov	r3, r0
 435 0102 2344     		add	r3, r3, r4
 436 0104 1B7B     		ldrb	r3, [r3, #12]	@ zero_extendqisi2
 437 0106 572B     		cmp	r3, #87
 438 0108 18D1     		bne	.L7
 439              	.LBB7:
 134:.\DisplayBLL.c ****         {
 135:.\DisplayBLL.c ****             I2CBusLock();
 440              		.loc 1 135 0
 441 010a FFF7FEFF 		bl	I2CBusLock
 136:.\DisplayBLL.c ****             ClearEepromBuffer();
 442              		.loc 1 136 0
 443 010e FFF7FEFF 		bl	ClearEepromBuffer
 137:.\DisplayBLL.c ****             LoadEepromPage(EEPROM_DISPENSER_PUMP2_LAYOUT_PAGE);
 444              		.loc 1 137 0
 445 0112 4FF41070 		mov	r0, #576
 446 0116 FFF7FEFF 		bl	LoadEepromPage
 138:.\DisplayBLL.c ****             uint8 wsvalue = GetEepromBuffer()[0x05];
 447              		.loc 1 138 0
 448 011a FFF7FEFF 		bl	GetEepromBuffer
 449 011e 0346     		mov	r3, r0
 450 0120 5B79     		ldrb	r3, [r3, #5]
 451 0122 3B72     		strb	r3, [r7, #8]
 139:.\DisplayBLL.c ****             I2CBusUnlock();
 452              		.loc 1 139 0
 453 0124 FFF7FEFF 		bl	I2CBusUnlock
 140:.\DisplayBLL.c ****             if(wsvalue == 0x00)
 454              		.loc 1 140 0
 455 0128 3B7A     		ldrb	r3, [r7, #8]	@ zero_extendqisi2
 456 012a 002B     		cmp	r3, #0
 457 012c 03D1     		bne	.L18
 141:.\DisplayBLL.c ****                 pdisplay->_currentstate = DISPLAY_OPEN_WORK_SHIFT;
 458              		.loc 1 141 0
 459 012e FB68     		ldr	r3, [r7, #12]
 460 0130 A522     		movs	r2, #165
 461 0132 1A71     		strb	r2, [r3, #4]
 462 0134 02E0     		b	.L7
 463              	.L18:
 142:.\DisplayBLL.c ****             else
 143:.\DisplayBLL.c ****                 pdisplay->_currentstate = DISPLAY_CLOSE_WORK_SHIFT;
 464              		.loc 1 143 0
 465 0136 FB68     		ldr	r3, [r7, #12]
 466 0138 A622     		movs	r2, #166
 467 013a 1A71     		strb	r2, [r3, #4]
 468              	.L7:
 469              	.LBE7:
 144:.\DisplayBLL.c ****         }
 145:.\DisplayBLL.c ****     }
 146:.\DisplayBLL.c **** }
 470              		.loc 1 146 0
 471 013c 1437     		adds	r7, r7, #20
ARM GAS  C:\Users\RECEPC~1\AppData\Local\Temp\ccBSLvba.s 			page 12


 472              		.cfi_def_cfa_offset 12
 473 013e BD46     		mov	sp, r7
 474              		.cfi_def_cfa_register 13
 475              		@ sp needed
 476 0140 90BD     		pop	{r4, r7, pc}
 477              		.cfi_endproc
 478              	.LFE64:
 479              		.size	InitiateWorkShiftValidation, .-InitiateWorkShiftValidation
 480 0142 00BF     		.section	.text.RequestWorkShiftOperAuthorization,"ax",%progbits
 481              		.align	2
 482              		.global	RequestWorkShiftOperAuthorization
 483              		.thumb
 484              		.thumb_func
 485              		.type	RequestWorkShiftOperAuthorization, %function
 486              	RequestWorkShiftOperAuthorization:
 487              	.LFB65:
 147:.\DisplayBLL.c **** 
 148:.\DisplayBLL.c **** void RequestWorkShiftOperAuthorization(void *pparam)
 149:.\DisplayBLL.c **** {
 488              		.loc 1 149 0
 489              		.cfi_startproc
 490              		@ args = 0, pretend = 0, frame = 24
 491              		@ frame_needed = 1, uses_anonymous_args = 0
 492 0000 B0B5     		push	{r4, r5, r7, lr}
 493              		.cfi_def_cfa_offset 16
 494              		.cfi_offset 4, -16
 495              		.cfi_offset 5, -12
 496              		.cfi_offset 7, -8
 497              		.cfi_offset 14, -4
 498 0002 86B0     		sub	sp, sp, #24
 499              		.cfi_def_cfa_offset 40
 500 0004 00AF     		add	r7, sp, #0
 501              		.cfi_def_cfa_register 7
 502 0006 7860     		str	r0, [r7, #4]
 150:.\DisplayBLL.c ****     PDISPLAYLAYOUTPTR pdisplay = (PDISPLAYLAYOUTPTR)pparam;
 503              		.loc 1 150 0
 504 0008 7B68     		ldr	r3, [r7, #4]
 505 000a 7B61     		str	r3, [r7, #20]
 151:.\DisplayBLL.c ****     //HERE WE ATTEMPT TO PUSH THE TRANSACTION INTO THE PUMP'S TRANSACTIONAL QUEUE.
 152:.\DisplayBLL.c ****     //THIS IS DONE ONLY IF THERE IS ROOM IN THE QUEUE, OTHERWISE THIS STATE WON'T
 153:.\DisplayBLL.c ****     //BE REPORTED TO THE REMOTE PEER.
 154:.\DisplayBLL.c ****     PNEAR_PUMPPTR ppumpptr = &_g_pumps[GetPumpIndexFromDisplay(pdisplay)];
 506              		.loc 1 154 0
 507 000c 7869     		ldr	r0, [r7, #20]
 508 000e FFF7FEFF 		bl	GetPumpIndexFromDisplay
 509 0012 0346     		mov	r3, r0
 510 0014 1A46     		mov	r2, r3
 511 0016 40F69833 		movw	r3, #2968
 512 001a 03FB02F3 		mul	r3, r3, r2
 513 001e 464A     		ldr	r2, .L21
 514 0020 1344     		add	r3, r3, r2
 515 0022 3B61     		str	r3, [r7, #16]
 155:.\DisplayBLL.c ****     if(ppumpptr)
 516              		.loc 1 155 0
 517 0024 3B69     		ldr	r3, [r7, #16]
 518 0026 002B     		cmp	r3, #0
 519 0028 00F08380 		beq	.L19
ARM GAS  C:\Users\RECEPC~1\AppData\Local\Temp\ccBSLvba.s 			page 13


 520              	.LBB8:
 156:.\DisplayBLL.c ****     {
 157:.\DisplayBLL.c ****         ppumpptr->PumpTransQueueLock(ppumpptr);
 521              		.loc 1 157 0
 522 002c 3B69     		ldr	r3, [r7, #16]
 523 002e D3F8143B 		ldr	r3, [r3, #2836]
 524 0032 3869     		ldr	r0, [r7, #16]
 525 0034 9847     		blx	r3
 158:.\DisplayBLL.c ****         PNEAR_PUMPTRANSACTIONALSTATEPTR pts = ppumpptr->PumpTransQueueAllocate(ppumpptr);
 526              		.loc 1 158 0
 527 0036 3B69     		ldr	r3, [r7, #16]
 528 0038 D3F8283B 		ldr	r3, [r3, #2856]
 529 003c 3869     		ldr	r0, [r7, #16]
 530 003e 9847     		blx	r3
 531 0040 F860     		str	r0, [r7, #12]
 159:.\DisplayBLL.c ****         ppumpptr->PumpTransQueueUnlock(ppumpptr);
 532              		.loc 1 159 0
 533 0042 3B69     		ldr	r3, [r7, #16]
 534 0044 D3F8183B 		ldr	r3, [r3, #2840]
 535 0048 3869     		ldr	r0, [r7, #16]
 536 004a 9847     		blx	r3
 160:.\DisplayBLL.c ****         if(pts)
 537              		.loc 1 160 0
 538 004c FB68     		ldr	r3, [r7, #12]
 539 004e 002B     		cmp	r3, #0
 540 0050 6FD0     		beq	.L19
 541              	.LBB9:
 161:.\DisplayBLL.c ****         {
 162:.\DisplayBLL.c ****             uint8 index = 0;
 542              		.loc 1 162 0
 543 0052 0023     		movs	r3, #0
 544 0054 FB72     		strb	r3, [r7, #11]
 163:.\DisplayBLL.c ****             pts->_transtate = RF_MUX_ISLAND_OPER_DATA_REQUEST;
 545              		.loc 1 163 0
 546 0056 FB68     		ldr	r3, [r7, #12]
 547 0058 E322     		movs	r2, #227
 548 005a 5A70     		strb	r2, [r3, #1]
 164:.\DisplayBLL.c ****             //Pump ID always comes in the first position (0x00)
 165:.\DisplayBLL.c ****             pts->_buffer[index++] = ppumpptr->_pumpid;
 549              		.loc 1 165 0
 550 005c FB7A     		ldrb	r3, [r7, #11]	@ zero_extendqisi2
 551 005e 5A1C     		adds	r2, r3, #1
 552 0060 FA72     		strb	r2, [r7, #11]
 553 0062 1946     		mov	r1, r3
 554 0064 3B69     		ldr	r3, [r7, #16]
 555 0066 1A78     		ldrb	r2, [r3]	@ zero_extendqisi2
 556 0068 FB68     		ldr	r3, [r7, #12]
 557 006a 0B44     		add	r3, r3, r1
 558 006c 9A70     		strb	r2, [r3, #2]
 166:.\DisplayBLL.c ****             
 167:.\DisplayBLL.c ****             memcpy(&pts->_buffer[index], &((PSINKMESSAGEPTR)pdisplay->_psequesteredmessagesink)->_b
 559              		.loc 1 167 0
 560 006e FB7A     		ldrb	r3, [r7, #11]	@ zero_extendqisi2
 561 0070 FA68     		ldr	r2, [r7, #12]
 562 0072 1344     		add	r3, r3, r2
 563 0074 9D1C     		adds	r5, r3, #2
 564 0076 7B69     		ldr	r3, [r7, #20]
ARM GAS  C:\Users\RECEPC~1\AppData\Local\Temp\ccBSLvba.s 			page 14


 565 0078 1C6B     		ldr	r4, [r3, #48]
 566 007a 2420     		movs	r0, #36
 567 007c FFF7FEFF 		bl	GetBufferIndexFromDisplayID
 568 0080 0346     		mov	r3, r0
 569 0082 0833     		adds	r3, r3, #8
 570 0084 2344     		add	r3, r3, r4
 571 0086 1C1D     		adds	r4, r3, #4
 572 0088 2420     		movs	r0, #36
 573 008a FFF7FEFF 		bl	GetBufferLengthFromDisplayID
 574 008e 0346     		mov	r3, r0
 575 0090 2846     		mov	r0, r5
 576 0092 2146     		mov	r1, r4
 577 0094 1A46     		mov	r2, r3
 578 0096 FFF7FEFF 		bl	memcpy
 168:.\DisplayBLL.c ****             //PSTRBUFFTOGG((PNEAR_BYTE_PTR)&pts->_buffer[index], GetBufferLengthFromDisplayID(DISPL
 169:.\DisplayBLL.c ****             index += GetBufferLengthFromDisplayID(DISPLAY_INTRODUZCA_CEDULA);
 579              		.loc 1 169 0
 580 009a 2420     		movs	r0, #36
 581 009c FFF7FEFF 		bl	GetBufferLengthFromDisplayID
 582 00a0 0346     		mov	r3, r0
 583 00a2 1A46     		mov	r2, r3
 584 00a4 FB7A     		ldrb	r3, [r7, #11]
 585 00a6 1344     		add	r3, r3, r2
 586 00a8 FB72     		strb	r3, [r7, #11]
 170:.\DisplayBLL.c ****             
 171:.\DisplayBLL.c ****             memcpy(&pts->_buffer[index], &((PSINKMESSAGEPTR)pdisplay->_psequesteredmessagesink)->_b
 587              		.loc 1 171 0
 588 00aa FB7A     		ldrb	r3, [r7, #11]	@ zero_extendqisi2
 589 00ac FA68     		ldr	r2, [r7, #12]
 590 00ae 1344     		add	r3, r3, r2
 591 00b0 9D1C     		adds	r5, r3, #2
 592 00b2 7B69     		ldr	r3, [r7, #20]
 593 00b4 1C6B     		ldr	r4, [r3, #48]
 594 00b6 2520     		movs	r0, #37
 595 00b8 FFF7FEFF 		bl	GetBufferIndexFromDisplayID
 596 00bc 0346     		mov	r3, r0
 597 00be 0833     		adds	r3, r3, #8
 598 00c0 2344     		add	r3, r3, r4
 599 00c2 1C1D     		adds	r4, r3, #4
 600 00c4 2520     		movs	r0, #37
 601 00c6 FFF7FEFF 		bl	GetBufferLengthFromDisplayID
 602 00ca 0346     		mov	r3, r0
 603 00cc 2846     		mov	r0, r5
 604 00ce 2146     		mov	r1, r4
 605 00d0 1A46     		mov	r2, r3
 606 00d2 FFF7FEFF 		bl	memcpy
 172:.\DisplayBLL.c ****             PSTRBUFFTOGG((PNEAR_BYTE_PTR)&pts->_buffer[index], strlen(&pts->_buffer[index]));
 607              		.loc 1 172 0
 608 00d6 FB7A     		ldrb	r3, [r7, #11]	@ zero_extendqisi2
 609 00d8 FA68     		ldr	r2, [r7, #12]
 610 00da 1344     		add	r3, r3, r2
 611 00dc 9C1C     		adds	r4, r3, #2
 612 00de FB7A     		ldrb	r3, [r7, #11]	@ zero_extendqisi2
 613 00e0 FA68     		ldr	r2, [r7, #12]
 614 00e2 1344     		add	r3, r3, r2
 615 00e4 0233     		adds	r3, r3, #2
 616 00e6 1846     		mov	r0, r3
ARM GAS  C:\Users\RECEPC~1\AppData\Local\Temp\ccBSLvba.s 			page 15


 617 00e8 FFF7FEFF 		bl	strlen
 618 00ec 0346     		mov	r3, r0
 619 00ee DBB2     		uxtb	r3, r3
 620 00f0 2046     		mov	r0, r4
 621 00f2 1946     		mov	r1, r3
 622 00f4 FFF7FEFF 		bl	PSTRBUFFTOGG
 173:.\DisplayBLL.c ****             index += GetBufferLengthFromDisplayID(DISPLAY_INGRESE_PASSWORD);
 623              		.loc 1 173 0
 624 00f8 2520     		movs	r0, #37
 625 00fa FFF7FEFF 		bl	GetBufferLengthFromDisplayID
 626 00fe 0346     		mov	r3, r0
 627 0100 1A46     		mov	r2, r3
 628 0102 FB7A     		ldrb	r3, [r7, #11]
 629 0104 1344     		add	r3, r3, r2
 630 0106 FB72     		strb	r3, [r7, #11]
 174:.\DisplayBLL.c ****             
 175:.\DisplayBLL.c ****             pts->_buffersize = index;
 631              		.loc 1 175 0
 632 0108 FB7A     		ldrb	r3, [r7, #11]	@ zero_extendqisi2
 633 010a 9AB2     		uxth	r2, r3
 634 010c FB68     		ldr	r3, [r7, #12]
 635 010e A3F80221 		strh	r2, [r3, #258]	@ movhi
 176:.\DisplayBLL.c **** 
 177:.\DisplayBLL.c ****             ppumpptr->PumpTransQueueLock(ppumpptr);
 636              		.loc 1 177 0
 637 0112 3B69     		ldr	r3, [r7, #16]
 638 0114 D3F8143B 		ldr	r3, [r3, #2836]
 639 0118 3869     		ldr	r0, [r7, #16]
 640 011a 9847     		blx	r3
 178:.\DisplayBLL.c ****             ppumpptr->PumpTransQueueEnqueue(ppumpptr, pts);
 641              		.loc 1 178 0
 642 011c 3B69     		ldr	r3, [r7, #16]
 643 011e D3F8203B 		ldr	r3, [r3, #2848]
 644 0122 3869     		ldr	r0, [r7, #16]
 645 0124 F968     		ldr	r1, [r7, #12]
 646 0126 9847     		blx	r3
 179:.\DisplayBLL.c ****             ppumpptr->PumpTransQueueUnlock(ppumpptr);
 647              		.loc 1 179 0
 648 0128 3B69     		ldr	r3, [r7, #16]
 649 012a D3F8183B 		ldr	r3, [r3, #2840]
 650 012e 3869     		ldr	r0, [r7, #16]
 651 0130 9847     		blx	r3
 652              	.L19:
 653              	.LBE9:
 654              	.LBE8:
 180:.\DisplayBLL.c ****         }
 181:.\DisplayBLL.c ****     }
 182:.\DisplayBLL.c **** }
 655              		.loc 1 182 0
 656 0132 1837     		adds	r7, r7, #24
 657              		.cfi_def_cfa_offset 16
 658 0134 BD46     		mov	sp, r7
 659              		.cfi_def_cfa_register 13
 660              		@ sp needed
 661 0136 B0BD     		pop	{r4, r5, r7, pc}
 662              	.L22:
 663              		.align	2
ARM GAS  C:\Users\RECEPC~1\AppData\Local\Temp\ccBSLvba.s 			page 16


 664              	.L21:
 665 0138 00000000 		.word	_g_pumps
 666              		.cfi_endproc
 667              	.LFE65:
 668              		.size	RequestWorkShiftOperAuthorization, .-RequestWorkShiftOperAuthorization
 669              		.section	.rodata
 670 0025 000000   		.align	2
 671              	.LC12:
 672 0028 28256420 		.ascii	"(%d Copia)\000"
 672      436F7069 
 672      612900
 673 0033 00       		.align	2
 674              	.LC13:
 675 0034 28256420 		.ascii	"(%d Copias)\000"
 675      436F7069 
 675      61732900 
 676              		.section	.text.DrawNumberOfCopies,"ax",%progbits
 677              		.align	2
 678              		.global	DrawNumberOfCopies
 679              		.thumb
 680              		.thumb_func
 681              		.type	DrawNumberOfCopies, %function
 682              	DrawNumberOfCopies:
 683              	.LFB66:
 183:.\DisplayBLL.c **** 
 184:.\DisplayBLL.c **** void DrawNumberOfCopies(void *pparam)
 185:.\DisplayBLL.c **** {
 684              		.loc 1 185 0
 685              		.cfi_startproc
 686              		@ args = 0, pretend = 0, frame = 48
 687              		@ frame_needed = 1, uses_anonymous_args = 0
 688 0000 B0B5     		push	{r4, r5, r7, lr}
 689              		.cfi_def_cfa_offset 16
 690              		.cfi_offset 4, -16
 691              		.cfi_offset 5, -12
 692              		.cfi_offset 7, -8
 693              		.cfi_offset 14, -4
 694 0002 90B0     		sub	sp, sp, #64
 695              		.cfi_def_cfa_offset 80
 696 0004 04AF     		add	r7, sp, #16
 697              		.cfi_def_cfa 7, 64
 698 0006 7860     		str	r0, [r7, #4]
 186:.\DisplayBLL.c ****     char8 buffer[16];
 187:.\DisplayBLL.c ****     FontData fontdata;
 188:.\DisplayBLL.c ****     fontdata._size = 0x03;
 699              		.loc 1 188 0
 700 0008 0323     		movs	r3, #3
 701 000a 3B72     		strb	r3, [r7, #8]
 189:.\DisplayBLL.c ****     fontdata._backcolor = 0xFFFF;
 702              		.loc 1 189 0
 703 000c 4FF6FF73 		movw	r3, #65535
 704 0010 BB81     		strh	r3, [r7, #12]	@ movhi
 190:.\DisplayBLL.c ****     fontdata._forecolor = 0x0000;
 705              		.loc 1 190 0
 706 0012 0023     		movs	r3, #0
 707 0014 FB81     		strh	r3, [r7, #14]	@ movhi
 191:.\DisplayBLL.c ****     fontdata._opaquebackground = DISP_TEXT_TRANSP;
ARM GAS  C:\Users\RECEPC~1\AppData\Local\Temp\ccBSLvba.s 			page 17


 708              		.loc 1 191 0
 709 0016 8523     		movs	r3, #133
 710 0018 BB72     		strb	r3, [r7, #10]
 192:.\DisplayBLL.c ****     DisplayLayout *pdisplay = (DisplayLayout*)pparam;
 711              		.loc 1 192 0
 712 001a 7B68     		ldr	r3, [r7, #4]
 713 001c FB62     		str	r3, [r7, #44]
 193:.\DisplayBLL.c ****     
 194:.\DisplayBLL.c ****     I2CBusLock();
 714              		.loc 1 194 0
 715 001e FFF7FEFF 		bl	I2CBusLock
 195:.\DisplayBLL.c ****     ClearEepromBuffer();
 716              		.loc 1 195 0
 717 0022 FFF7FEFF 		bl	ClearEepromBuffer
 196:.\DisplayBLL.c ****     LoadEepromPage(EEPROM_CONFIGURATION_PAGE7);
 718              		.loc 1 196 0
 719 0026 4FF4E070 		mov	r0, #448
 720 002a FFF7FEFF 		bl	LoadEepromPage
 197:.\DisplayBLL.c ****     uint8 numberofprintedcopies = GetEepromBuffer()[0x08];
 721              		.loc 1 197 0
 722 002e FFF7FEFF 		bl	GetEepromBuffer
 723 0032 0346     		mov	r3, r0
 724 0034 1B7A     		ldrb	r3, [r3, #8]
 725 0036 87F82B30 		strb	r3, [r7, #43]
 198:.\DisplayBLL.c ****     I2CBusUnlock();
 726              		.loc 1 198 0
 727 003a FFF7FEFF 		bl	I2CBusUnlock
 199:.\DisplayBLL.c ****     
 200:.\DisplayBLL.c ****     if(pdisplay->_dispid == DISPLAY1)
 728              		.loc 1 200 0
 729 003e FB6A     		ldr	r3, [r7, #44]
 730 0040 1B78     		ldrb	r3, [r3]	@ zero_extendqisi2
 731 0042 002B     		cmp	r3, #0
 732 0044 47D1     		bne	.L24
 733              	.LBB10:
 201:.\DisplayBLL.c ****     {
 202:.\DisplayBLL.c ****         UARTMessage *puartdisp = GetUARTMessageSlot(UART_DISPLAY1);
 734              		.loc 1 202 0
 735 0046 A320     		movs	r0, #163
 736 0048 FFF7FEFF 		bl	GetUARTMessageSlot
 737 004c 7862     		str	r0, [r7, #36]
 203:.\DisplayBLL.c ****         if(puartdisp)
 738              		.loc 1 203 0
 739 004e 7B6A     		ldr	r3, [r7, #36]
 740 0050 002B     		cmp	r3, #0
 741 0052 3FD0     		beq	.L25
 204:.\DisplayBLL.c ****         {
 205:.\DisplayBLL.c ****             memset(buffer, 0x00, sizeof(buffer));
 742              		.loc 1 205 0
 743 0054 07F11003 		add	r3, r7, #16
 744 0058 1846     		mov	r0, r3
 745 005a 0021     		movs	r1, #0
 746 005c 1022     		movs	r2, #16
 747 005e FFF7FEFF 		bl	memset
 206:.\DisplayBLL.c ****             if(numberofprintedcopies == 0x01)
 748              		.loc 1 206 0
 749 0062 97F82B30 		ldrb	r3, [r7, #43]	@ zero_extendqisi2
ARM GAS  C:\Users\RECEPC~1\AppData\Local\Temp\ccBSLvba.s 			page 18


 750 0066 012B     		cmp	r3, #1
 751 0068 09D1     		bne	.L26
 207:.\DisplayBLL.c ****                 sprintf(buffer, "(%d Copia)", numberofprintedcopies);
 752              		.loc 1 207 0
 753 006a 97F82B30 		ldrb	r3, [r7, #43]	@ zero_extendqisi2
 754 006e 07F11002 		add	r2, r7, #16
 755 0072 1046     		mov	r0, r2
 756 0074 3C49     		ldr	r1, .L31
 757 0076 1A46     		mov	r2, r3
 758 0078 FFF7FEFF 		bl	sprintf
 759 007c 08E0     		b	.L27
 760              	.L26:
 208:.\DisplayBLL.c ****             else
 209:.\DisplayBLL.c ****                 sprintf(buffer, "(%d Copias)", numberofprintedcopies);
 761              		.loc 1 209 0
 762 007e 97F82B30 		ldrb	r3, [r7, #43]	@ zero_extendqisi2
 763 0082 07F11002 		add	r2, r7, #16
 764 0086 1046     		mov	r0, r2
 765 0088 3849     		ldr	r1, .L31+4
 766 008a 1A46     		mov	r2, r3
 767 008c FFF7FEFF 		bl	sprintf
 768              	.L27:
 210:.\DisplayBLL.c ****                 
 211:.\DisplayBLL.c ****             //MOVE ALL OF THESE TEXTS TO THE EEPROM
 212:.\DisplayBLL.c ****             puartdisp->_messagelength = DisplayOutputString(0x0F0, 0x12A, puartdisp->_messagetx, bu
 769              		.loc 1 212 0
 770 0090 7B6A     		ldr	r3, [r7, #36]
 771 0092 1D1D     		adds	r5, r3, #4
 772 0094 07F11003 		add	r3, r7, #16
 773 0098 1846     		mov	r0, r3
 774 009a FFF7FEFF 		bl	strlen
 775 009e 0346     		mov	r3, r0
 776 00a0 9BB2     		uxth	r3, r3
 777 00a2 07F11004 		add	r4, r7, #16
 778 00a6 0093     		str	r3, [sp]
 779 00a8 01AA     		add	r2, sp, #4
 780 00aa 07F10803 		add	r3, r7, #8
 781 00ae 93E80300 		ldmia	r3, {r0, r1}
 782 00b2 82E80300 		stmia	r2, {r0, r1}
 783 00b6 F020     		movs	r0, #240
 784 00b8 4FF49571 		mov	r1, #298
 785 00bc 2A46     		mov	r2, r5
 786 00be 2346     		mov	r3, r4
 787 00c0 FFF7FEFF 		bl	DisplayOutputString
 788 00c4 0346     		mov	r3, r0
 789 00c6 1A46     		mov	r2, r3
 790 00c8 7B6A     		ldr	r3, [r7, #36]
 791 00ca 5A80     		strh	r2, [r3, #2]	@ movhi
 213:.\DisplayBLL.c ****             puartdisp->_messagestate = PENDING;
 792              		.loc 1 213 0
 793 00cc 7B6A     		ldr	r3, [r7, #36]
 794 00ce C222     		movs	r2, #194
 795 00d0 1A70     		strb	r2, [r3]
 796              	.LBE10:
 797 00d2 46E0     		b	.L23
 798              	.L25:
 799 00d4 45E0     		b	.L23
ARM GAS  C:\Users\RECEPC~1\AppData\Local\Temp\ccBSLvba.s 			page 19


 800              	.L24:
 801              	.LBB11:
 214:.\DisplayBLL.c ****         }
 215:.\DisplayBLL.c ****     }
 216:.\DisplayBLL.c ****     else
 217:.\DisplayBLL.c ****     {
 218:.\DisplayBLL.c ****         UARTMessage *puartdisp = GetUARTMessageSlot(UART_DISPLAY2);
 802              		.loc 1 218 0
 803 00d6 A420     		movs	r0, #164
 804 00d8 FFF7FEFF 		bl	GetUARTMessageSlot
 805 00dc 3862     		str	r0, [r7, #32]
 219:.\DisplayBLL.c ****         if(puartdisp)
 806              		.loc 1 219 0
 807 00de 3B6A     		ldr	r3, [r7, #32]
 808 00e0 002B     		cmp	r3, #0
 809 00e2 3ED0     		beq	.L23
 220:.\DisplayBLL.c ****         {
 221:.\DisplayBLL.c ****             memset(buffer, 0x00, sizeof(buffer));
 810              		.loc 1 221 0
 811 00e4 07F11003 		add	r3, r7, #16
 812 00e8 1846     		mov	r0, r3
 813 00ea 0021     		movs	r1, #0
 814 00ec 1022     		movs	r2, #16
 815 00ee FFF7FEFF 		bl	memset
 222:.\DisplayBLL.c ****             if(numberofprintedcopies == 0x01)
 816              		.loc 1 222 0
 817 00f2 97F82B30 		ldrb	r3, [r7, #43]	@ zero_extendqisi2
 818 00f6 012B     		cmp	r3, #1
 819 00f8 09D1     		bne	.L29
 223:.\DisplayBLL.c ****                 sprintf(buffer, "(%d Copia)", numberofprintedcopies);
 820              		.loc 1 223 0
 821 00fa 97F82B30 		ldrb	r3, [r7, #43]	@ zero_extendqisi2
 822 00fe 07F11002 		add	r2, r7, #16
 823 0102 1046     		mov	r0, r2
 824 0104 1849     		ldr	r1, .L31
 825 0106 1A46     		mov	r2, r3
 826 0108 FFF7FEFF 		bl	sprintf
 827 010c 08E0     		b	.L30
 828              	.L29:
 224:.\DisplayBLL.c ****             else
 225:.\DisplayBLL.c ****                 sprintf(buffer, "(%d Copias)", numberofprintedcopies);
 829              		.loc 1 225 0
 830 010e 97F82B30 		ldrb	r3, [r7, #43]	@ zero_extendqisi2
 831 0112 07F11002 		add	r2, r7, #16
 832 0116 1046     		mov	r0, r2
 833 0118 1449     		ldr	r1, .L31+4
 834 011a 1A46     		mov	r2, r3
 835 011c FFF7FEFF 		bl	sprintf
 836              	.L30:
 226:.\DisplayBLL.c ****                 
 227:.\DisplayBLL.c ****             puartdisp->_messagelength = DisplayOutputString(0x0F0, 0x12A, puartdisp->_messagetx, bu
 837              		.loc 1 227 0
 838 0120 3B6A     		ldr	r3, [r7, #32]
 839 0122 1D1D     		adds	r5, r3, #4
 840 0124 07F11003 		add	r3, r7, #16
 841 0128 1846     		mov	r0, r3
 842 012a FFF7FEFF 		bl	strlen
ARM GAS  C:\Users\RECEPC~1\AppData\Local\Temp\ccBSLvba.s 			page 20


 843 012e 0346     		mov	r3, r0
 844 0130 9BB2     		uxth	r3, r3
 845 0132 07F11004 		add	r4, r7, #16
 846 0136 0093     		str	r3, [sp]
 847 0138 01AA     		add	r2, sp, #4
 848 013a 07F10803 		add	r3, r7, #8
 849 013e 93E80300 		ldmia	r3, {r0, r1}
 850 0142 82E80300 		stmia	r2, {r0, r1}
 851 0146 F020     		movs	r0, #240
 852 0148 4FF49571 		mov	r1, #298
 853 014c 2A46     		mov	r2, r5
 854 014e 2346     		mov	r3, r4
 855 0150 FFF7FEFF 		bl	DisplayOutputString
 856 0154 0346     		mov	r3, r0
 857 0156 1A46     		mov	r2, r3
 858 0158 3B6A     		ldr	r3, [r7, #32]
 859 015a 5A80     		strh	r2, [r3, #2]	@ movhi
 228:.\DisplayBLL.c ****             puartdisp->_messagestate = PENDING;
 860              		.loc 1 228 0
 861 015c 3B6A     		ldr	r3, [r7, #32]
 862 015e C222     		movs	r2, #194
 863 0160 1A70     		strb	r2, [r3]
 864              	.L23:
 865              	.LBE11:
 229:.\DisplayBLL.c ****         }
 230:.\DisplayBLL.c ****     }
 231:.\DisplayBLL.c **** }
 866              		.loc 1 231 0
 867 0162 3037     		adds	r7, r7, #48
 868              		.cfi_def_cfa_offset 16
 869 0164 BD46     		mov	sp, r7
 870              		.cfi_def_cfa_register 13
 871              		@ sp needed
 872 0166 B0BD     		pop	{r4, r5, r7, pc}
 873              	.L32:
 874              		.align	2
 875              	.L31:
 876 0168 28000000 		.word	.LC12
 877 016c 34000000 		.word	.LC13
 878              		.cfi_endproc
 879              	.LFE66:
 880              		.size	DrawNumberOfCopies, .-DrawNumberOfCopies
 881              		.section	.rodata
 882              		.align	2
 883              	.LC14:
 884 0040 2A2A2A2A 		.ascii	"**** OPERACION CANCELADA ****\000"
 884      204F5045 
 884      52414349 
 884      4F4E2043 
 884      414E4345 
 885              		.section	.text.CancelMessageDecorator,"ax",%progbits
 886              		.align	2
 887              		.global	CancelMessageDecorator
 888              		.thumb
 889              		.thumb_func
 890              		.type	CancelMessageDecorator, %function
 891              	CancelMessageDecorator:
ARM GAS  C:\Users\RECEPC~1\AppData\Local\Temp\ccBSLvba.s 			page 21


 892              	.LFB67:
 232:.\DisplayBLL.c **** 
 233:.\DisplayBLL.c **** void CancelMessageDecorator(void *pparam)
 234:.\DisplayBLL.c **** {
 893              		.loc 1 234 0
 894              		.cfi_startproc
 895              		@ args = 0, pretend = 0, frame = 32
 896              		@ frame_needed = 1, uses_anonymous_args = 0
 897 0000 90B5     		push	{r4, r7, lr}
 898              		.cfi_def_cfa_offset 12
 899              		.cfi_offset 4, -12
 900              		.cfi_offset 7, -8
 901              		.cfi_offset 14, -4
 902 0002 8DB0     		sub	sp, sp, #52
 903              		.cfi_def_cfa_offset 64
 904 0004 04AF     		add	r7, sp, #16
 905              		.cfi_def_cfa 7, 48
 906 0006 7860     		str	r0, [r7, #4]
 235:.\DisplayBLL.c ****     FontData fontdata;
 236:.\DisplayBLL.c ****     fontdata._size = 0x03;
 907              		.loc 1 236 0
 908 0008 0323     		movs	r3, #3
 909 000a 3B72     		strb	r3, [r7, #8]
 237:.\DisplayBLL.c ****     fontdata._backcolor = 0xFFFF;
 910              		.loc 1 237 0
 911 000c 4FF6FF73 		movw	r3, #65535
 912 0010 BB81     		strh	r3, [r7, #12]	@ movhi
 238:.\DisplayBLL.c ****     fontdata._forecolor = 0x0000;
 913              		.loc 1 238 0
 914 0012 0023     		movs	r3, #0
 915 0014 FB81     		strh	r3, [r7, #14]	@ movhi
 239:.\DisplayBLL.c ****     fontdata._opaquebackground = DISP_TEXT_OPAQUE;
 916              		.loc 1 239 0
 917 0016 C523     		movs	r3, #197
 918 0018 BB72     		strb	r3, [r7, #10]
 240:.\DisplayBLL.c ****     //MOVE ALL OF THESE TEXTS TO THE EEPROM
 241:.\DisplayBLL.c ****     char8 *pmessage = "**** OPERACION CANCELADA ****";    
 919              		.loc 1 241 0
 920 001a 294B     		ldr	r3, .L37
 921 001c FB61     		str	r3, [r7, #28]
 242:.\DisplayBLL.c ****     DisplayLayout *pdisplay = (DisplayLayout*)pparam;
 922              		.loc 1 242 0
 923 001e 7B68     		ldr	r3, [r7, #4]
 924 0020 BB61     		str	r3, [r7, #24]
 243:.\DisplayBLL.c ****     if(pdisplay->_dispid == DISPLAY1)
 925              		.loc 1 243 0
 926 0022 BB69     		ldr	r3, [r7, #24]
 927 0024 1B78     		ldrb	r3, [r3]	@ zero_extendqisi2
 928 0026 002B     		cmp	r3, #0
 929 0028 24D1     		bne	.L34
 930              	.LBB12:
 244:.\DisplayBLL.c ****     {
 245:.\DisplayBLL.c ****         UARTMessage *puartdisp = GetUARTMessageSlot(UART_DISPLAY1);
 931              		.loc 1 245 0
 932 002a A320     		movs	r0, #163
 933 002c FFF7FEFF 		bl	GetUARTMessageSlot
 934 0030 7861     		str	r0, [r7, #20]
ARM GAS  C:\Users\RECEPC~1\AppData\Local\Temp\ccBSLvba.s 			page 22


 246:.\DisplayBLL.c ****         if(puartdisp)
 935              		.loc 1 246 0
 936 0032 7B69     		ldr	r3, [r7, #20]
 937 0034 002B     		cmp	r3, #0
 938 0036 1CD0     		beq	.L35
 247:.\DisplayBLL.c ****         {
 248:.\DisplayBLL.c ****             puartdisp->_messagelength = DisplayOutputString(0x0060, 0x00EA, puartdisp->_messagetx, 
 939              		.loc 1 248 0
 940 0038 7B69     		ldr	r3, [r7, #20]
 941 003a 1C1D     		adds	r4, r3, #4
 942 003c F869     		ldr	r0, [r7, #28]
 943 003e FFF7FEFF 		bl	strlen
 944 0042 0346     		mov	r3, r0
 945 0044 9BB2     		uxth	r3, r3
 946 0046 0093     		str	r3, [sp]
 947 0048 01AA     		add	r2, sp, #4
 948 004a 07F10803 		add	r3, r7, #8
 949 004e 93E80300 		ldmia	r3, {r0, r1}
 950 0052 82E80300 		stmia	r2, {r0, r1}
 951 0056 6020     		movs	r0, #96
 952 0058 EA21     		movs	r1, #234
 953 005a 2246     		mov	r2, r4
 954 005c FB69     		ldr	r3, [r7, #28]
 955 005e FFF7FEFF 		bl	DisplayOutputString
 956 0062 0346     		mov	r3, r0
 957 0064 1A46     		mov	r2, r3
 958 0066 7B69     		ldr	r3, [r7, #20]
 959 0068 5A80     		strh	r2, [r3, #2]	@ movhi
 249:.\DisplayBLL.c ****             puartdisp->_messagestate = PENDING;
 960              		.loc 1 249 0
 961 006a 7B69     		ldr	r3, [r7, #20]
 962 006c C222     		movs	r2, #194
 963 006e 1A70     		strb	r2, [r3]
 964              	.LBE12:
 965 0070 23E0     		b	.L33
 966              	.L35:
 967 0072 22E0     		b	.L33
 968              	.L34:
 969              	.LBB13:
 250:.\DisplayBLL.c ****         }
 251:.\DisplayBLL.c ****     }
 252:.\DisplayBLL.c ****     else
 253:.\DisplayBLL.c ****     {
 254:.\DisplayBLL.c ****         UARTMessage *puartdisp = GetUARTMessageSlot(UART_DISPLAY2);
 970              		.loc 1 254 0
 971 0074 A420     		movs	r0, #164
 972 0076 FFF7FEFF 		bl	GetUARTMessageSlot
 973 007a 3861     		str	r0, [r7, #16]
 255:.\DisplayBLL.c ****         if(puartdisp)
 974              		.loc 1 255 0
 975 007c 3B69     		ldr	r3, [r7, #16]
 976 007e 002B     		cmp	r3, #0
 977 0080 1BD0     		beq	.L33
 256:.\DisplayBLL.c ****         {
 257:.\DisplayBLL.c ****             puartdisp->_messagelength = DisplayOutputString(0x0060, 0x00EA, puartdisp->_messagetx, 
 978              		.loc 1 257 0
 979 0082 3B69     		ldr	r3, [r7, #16]
ARM GAS  C:\Users\RECEPC~1\AppData\Local\Temp\ccBSLvba.s 			page 23


 980 0084 1C1D     		adds	r4, r3, #4
 981 0086 F869     		ldr	r0, [r7, #28]
 982 0088 FFF7FEFF 		bl	strlen
 983 008c 0346     		mov	r3, r0
 984 008e 9BB2     		uxth	r3, r3
 985 0090 0093     		str	r3, [sp]
 986 0092 01AA     		add	r2, sp, #4
 987 0094 07F10803 		add	r3, r7, #8
 988 0098 93E80300 		ldmia	r3, {r0, r1}
 989 009c 82E80300 		stmia	r2, {r0, r1}
 990 00a0 6020     		movs	r0, #96
 991 00a2 EA21     		movs	r1, #234
 992 00a4 2246     		mov	r2, r4
 993 00a6 FB69     		ldr	r3, [r7, #28]
 994 00a8 FFF7FEFF 		bl	DisplayOutputString
 995 00ac 0346     		mov	r3, r0
 996 00ae 1A46     		mov	r2, r3
 997 00b0 3B69     		ldr	r3, [r7, #16]
 998 00b2 5A80     		strh	r2, [r3, #2]	@ movhi
 258:.\DisplayBLL.c ****             puartdisp->_messagestate = PENDING;
 999              		.loc 1 258 0
 1000 00b4 3B69     		ldr	r3, [r7, #16]
 1001 00b6 C222     		movs	r2, #194
 1002 00b8 1A70     		strb	r2, [r3]
 1003              	.L33:
 1004              	.LBE13:
 259:.\DisplayBLL.c ****         }
 260:.\DisplayBLL.c ****     }
 261:.\DisplayBLL.c **** }
 1005              		.loc 1 261 0
 1006 00ba 2437     		adds	r7, r7, #36
 1007              		.cfi_def_cfa_offset 12
 1008 00bc BD46     		mov	sp, r7
 1009              		.cfi_def_cfa_register 13
 1010              		@ sp needed
 1011 00be 90BD     		pop	{r4, r7, pc}
 1012              	.L38:
 1013              		.align	2
 1014              	.L37:
 1015 00c0 40000000 		.word	.LC14
 1016              		.cfi_endproc
 1017              	.LFE67:
 1018              		.size	CancelMessageDecorator, .-CancelMessageDecorator
 1019              		.section	.rodata
 1020 005e 0000     		.align	2
 1021              	.LC0:
 1022 0060 AA       		.byte	-86
 1023 0061 40       		.byte	64
 1024 0062 FF       		.byte	-1
 1025 0063 FF       		.byte	-1
 1026 0064 FF       		.byte	-1
 1027 0065 FF       		.byte	-1
 1028 0066 CC       		.byte	-52
 1029 0067 33       		.byte	51
 1030 0068 C3       		.byte	-61
 1031 0069 3C       		.byte	60
 1032 006a 0000     		.align	2
ARM GAS  C:\Users\RECEPC~1\AppData\Local\Temp\ccBSLvba.s 			page 24


 1033              	.LC1:
 1034 006c AA       		.byte	-86
 1035 006d 5B       		.byte	91
 1036 006e 01       		.byte	1
 1037 006f 00       		.byte	0
 1038 0070 01       		.byte	1
 1039 0071 4A       		.byte	74
 1040 0072 02       		.byte	2
 1041 0073 70       		.byte	112
 1042 0074 01       		.byte	1
 1043 0075 90       		.byte	-112
 1044 0076 CC       		.byte	-52
 1045 0077 33       		.byte	51
 1046 0078 C3       		.byte	-61
 1047 0079 3C       		.byte	60
 1048              		.section	.text.MaskoutOptionDecorator,"ax",%progbits
 1049              		.align	2
 1050              		.global	MaskoutOptionDecorator
 1051              		.thumb
 1052              		.thumb_func
 1053              		.type	MaskoutOptionDecorator, %function
 1054              	MaskoutOptionDecorator:
 1055              	.LFB68:
 262:.\DisplayBLL.c **** 
 263:.\DisplayBLL.c **** void MaskoutOptionDecorator(void *pparam)
 264:.\DisplayBLL.c **** {
 1056              		.loc 1 264 0
 1057              		.cfi_startproc
 1058              		@ args = 0, pretend = 0, frame = 80
 1059              		@ frame_needed = 1, uses_anonymous_args = 0
 1060 0000 90B5     		push	{r4, r7, lr}
 1061              		.cfi_def_cfa_offset 12
 1062              		.cfi_offset 4, -12
 1063              		.cfi_offset 7, -8
 1064              		.cfi_offset 14, -4
 1065 0002 95B0     		sub	sp, sp, #84
 1066              		.cfi_def_cfa_offset 96
 1067 0004 00AF     		add	r7, sp, #0
 1068              		.cfi_def_cfa_register 7
 1069 0006 7860     		str	r0, [r7, #4]
 265:.\DisplayBLL.c ****     PDISPLAYLAYOUTPTR pdisplay = (PDISPLAYLAYOUTPTR)pparam;
 1070              		.loc 1 265 0
 1071 0008 7B68     		ldr	r3, [r7, #4]
 1072 000a FB64     		str	r3, [r7, #76]
 266:.\DisplayBLL.c ****     if(pdisplay->_dispid == DISPLAY1)
 1073              		.loc 1 266 0
 1074 000c FB6C     		ldr	r3, [r7, #76]
 1075 000e 1B78     		ldrb	r3, [r3]	@ zero_extendqisi2
 1076 0010 002B     		cmp	r3, #0
 1077 0012 42D1     		bne	.L40
 1078              	.LBB14:
 267:.\DisplayBLL.c ****     {
 268:.\DisplayBLL.c ****         PUARTMESSAGEPTR puartdisp = GetUARTMessageSlot(UART_DISPLAY1);
 1079              		.loc 1 268 0
 1080 0014 A320     		movs	r0, #163
 1081 0016 FFF7FEFF 		bl	GetUARTMessageSlot
 1082 001a B864     		str	r0, [r7, #72]
ARM GAS  C:\Users\RECEPC~1\AppData\Local\Temp\ccBSLvba.s 			page 25


 269:.\DisplayBLL.c ****         if(puartdisp)
 1083              		.loc 1 269 0
 1084 001c BB6C     		ldr	r3, [r7, #72]
 1085 001e 002B     		cmp	r3, #0
 1086 0020 17D0     		beq	.L41
 1087              	.LBB15:
 270:.\DisplayBLL.c ****         {
 271:.\DisplayBLL.c ****             //SET FC BC COLORS (WHITE)
 272:.\DisplayBLL.c ****             uint8 buff[] = { 0xAA, 0x40, 0xFF, 0xFF, 0xFF, 0xFF, 0xCC, 0x33, 0xC3, 0x3C };
 1088              		.loc 1 272 0
 1089 0022 424A     		ldr	r2, .L45
 1090 0024 07F13803 		add	r3, r7, #56
 1091 0028 1068     		ldr	r0, [r2]	@ unaligned
 1092 002a 5168     		ldr	r1, [r2, #4]	@ unaligned
 1093 002c 03C3     		stmia	r3!, {r0, r1}
 1094 002e 1289     		ldrh	r2, [r2, #8]	@ unaligned
 1095 0030 1A80     		strh	r2, [r3]	@ unaligned
 273:.\DisplayBLL.c ****             memcpy(puartdisp->_messagetx, buff, sizeof(buff));
 1096              		.loc 1 273 0
 1097 0032 BB6C     		ldr	r3, [r7, #72]
 1098 0034 0433     		adds	r3, r3, #4
 1099 0036 1A46     		mov	r2, r3
 1100 0038 07F13803 		add	r3, r7, #56
 1101 003c 03CB     		ldmia	r3!, {r0, r1}
 1102 003e 1060     		str	r0, [r2]	@ unaligned
 1103 0040 5160     		str	r1, [r2, #4]	@ unaligned
 1104 0042 1B88     		ldrh	r3, [r3]	@ unaligned
 1105 0044 1381     		strh	r3, [r2, #8]	@ unaligned
 274:.\DisplayBLL.c ****             puartdisp->_messagelength = sizeof(buff);
 1106              		.loc 1 274 0
 1107 0046 BB6C     		ldr	r3, [r7, #72]
 1108 0048 0A22     		movs	r2, #10
 1109 004a 5A80     		strh	r2, [r3, #2]	@ movhi
 275:.\DisplayBLL.c ****             puartdisp->_messagestate = PENDING;
 1110              		.loc 1 275 0
 1111 004c BB6C     		ldr	r3, [r7, #72]
 1112 004e C222     		movs	r2, #194
 1113 0050 1A70     		strb	r2, [r3]
 1114              	.L41:
 1115              	.LBE15:
 276:.\DisplayBLL.c ****         }
 277:.\DisplayBLL.c ****         
 278:.\DisplayBLL.c ****         puartdisp = GetUARTMessageSlot(UART_DISPLAY1);
 1116              		.loc 1 278 0
 1117 0052 A320     		movs	r0, #163
 1118 0054 FFF7FEFF 		bl	GetUARTMessageSlot
 1119 0058 B864     		str	r0, [r7, #72]
 279:.\DisplayBLL.c ****         if(puartdisp)
 1120              		.loc 1 279 0
 1121 005a BB6C     		ldr	r3, [r7, #72]
 1122 005c 002B     		cmp	r3, #0
 1123 005e 1BD0     		beq	.L42
 1124              	.LBB16:
 280:.\DisplayBLL.c ****         {
 281:.\DisplayBLL.c ****             uint8 buff[] = { 0xAA, 0x5B, 0x01, 0x00, 0x01, 0x4A, 0x02, 0x70, 0x01, 0x90, 0xCC, 0x33
 1125              		.loc 1 281 0
 1126 0060 334A     		ldr	r2, .L45+4
ARM GAS  C:\Users\RECEPC~1\AppData\Local\Temp\ccBSLvba.s 			page 26


 1127 0062 07F12803 		add	r3, r7, #40
 1128 0066 1446     		mov	r4, r2
 1129 0068 2068     		ldr	r0, [r4]	@ unaligned
 1130 006a 6168     		ldr	r1, [r4, #4]	@ unaligned
 1131 006c A268     		ldr	r2, [r4, #8]	@ unaligned
 1132 006e 07C3     		stmia	r3!, {r0, r1, r2}
 1133 0070 A289     		ldrh	r2, [r4, #12]	@ unaligned
 1134 0072 1A80     		strh	r2, [r3]	@ unaligned
 282:.\DisplayBLL.c ****             memcpy(puartdisp->_messagetx, buff, sizeof(buff));
 1135              		.loc 1 282 0
 1136 0074 BB6C     		ldr	r3, [r7, #72]
 1137 0076 0433     		adds	r3, r3, #4
 1138 0078 1C46     		mov	r4, r3
 1139 007a 07F12803 		add	r3, r7, #40
 1140 007e 07CB     		ldmia	r3!, {r0, r1, r2}
 1141 0080 2060     		str	r0, [r4]	@ unaligned
 1142 0082 6160     		str	r1, [r4, #4]	@ unaligned
 1143 0084 A260     		str	r2, [r4, #8]	@ unaligned
 1144 0086 1B88     		ldrh	r3, [r3]	@ unaligned
 1145 0088 A381     		strh	r3, [r4, #12]	@ unaligned
 283:.\DisplayBLL.c ****             puartdisp->_messagelength = sizeof(buff);
 1146              		.loc 1 283 0
 1147 008a BB6C     		ldr	r3, [r7, #72]
 1148 008c 0E22     		movs	r2, #14
 1149 008e 5A80     		strh	r2, [r3, #2]	@ movhi
 284:.\DisplayBLL.c ****             puartdisp->_messagestate = PENDING;
 1150              		.loc 1 284 0
 1151 0090 BB6C     		ldr	r3, [r7, #72]
 1152 0092 C222     		movs	r2, #194
 1153 0094 1A70     		strb	r2, [r3]
 1154              	.LBE16:
 1155              	.LBE14:
 1156 0096 45E0     		b	.L39
 1157              	.L42:
 1158 0098 44E0     		b	.L39
 1159              	.L40:
 285:.\DisplayBLL.c ****         }    
 286:.\DisplayBLL.c ****     }
 287:.\DisplayBLL.c ****     else if(pdisplay->_dispid == DISPLAY2)
 1160              		.loc 1 287 0
 1161 009a FB6C     		ldr	r3, [r7, #76]
 1162 009c 1B78     		ldrb	r3, [r3]	@ zero_extendqisi2
 1163 009e 012B     		cmp	r3, #1
 1164 00a0 40D1     		bne	.L39
 1165              	.LBB17:
 288:.\DisplayBLL.c ****     {
 289:.\DisplayBLL.c ****         PUARTMESSAGEPTR puartdisp = GetUARTMessageSlot(UART_DISPLAY2);
 1166              		.loc 1 289 0
 1167 00a2 A420     		movs	r0, #164
 1168 00a4 FFF7FEFF 		bl	GetUARTMessageSlot
 1169 00a8 7864     		str	r0, [r7, #68]
 290:.\DisplayBLL.c ****         if(puartdisp)
 1170              		.loc 1 290 0
 1171 00aa 7B6C     		ldr	r3, [r7, #68]
 1172 00ac 002B     		cmp	r3, #0
 1173 00ae 17D0     		beq	.L44
 1174              	.LBB18:
ARM GAS  C:\Users\RECEPC~1\AppData\Local\Temp\ccBSLvba.s 			page 27


 291:.\DisplayBLL.c ****         {
 292:.\DisplayBLL.c ****             //SET FC BC COLORS (WHITE)
 293:.\DisplayBLL.c ****             uint8 buff[] = { 0xAA, 0x40, 0xFF, 0xFF, 0xFF, 0xFF, 0xCC, 0x33, 0xC3, 0x3C };
 1175              		.loc 1 293 0
 1176 00b0 1E4A     		ldr	r2, .L45
 1177 00b2 07F11C03 		add	r3, r7, #28
 1178 00b6 1068     		ldr	r0, [r2]	@ unaligned
 1179 00b8 5168     		ldr	r1, [r2, #4]	@ unaligned
 1180 00ba 03C3     		stmia	r3!, {r0, r1}
 1181 00bc 1289     		ldrh	r2, [r2, #8]	@ unaligned
 1182 00be 1A80     		strh	r2, [r3]	@ unaligned
 294:.\DisplayBLL.c ****             memcpy(puartdisp->_messagetx, buff, sizeof(buff));
 1183              		.loc 1 294 0
 1184 00c0 7B6C     		ldr	r3, [r7, #68]
 1185 00c2 0433     		adds	r3, r3, #4
 1186 00c4 1A46     		mov	r2, r3
 1187 00c6 07F11C03 		add	r3, r7, #28
 1188 00ca 03CB     		ldmia	r3!, {r0, r1}
 1189 00cc 1060     		str	r0, [r2]	@ unaligned
 1190 00ce 5160     		str	r1, [r2, #4]	@ unaligned
 1191 00d0 1B88     		ldrh	r3, [r3]	@ unaligned
 1192 00d2 1381     		strh	r3, [r2, #8]	@ unaligned
 295:.\DisplayBLL.c ****             puartdisp->_messagelength = sizeof(buff);
 1193              		.loc 1 295 0
 1194 00d4 7B6C     		ldr	r3, [r7, #68]
 1195 00d6 0A22     		movs	r2, #10
 1196 00d8 5A80     		strh	r2, [r3, #2]	@ movhi
 296:.\DisplayBLL.c ****             puartdisp->_messagestate = PENDING;
 1197              		.loc 1 296 0
 1198 00da 7B6C     		ldr	r3, [r7, #68]
 1199 00dc C222     		movs	r2, #194
 1200 00de 1A70     		strb	r2, [r3]
 1201              	.L44:
 1202              	.LBE18:
 297:.\DisplayBLL.c ****         }
 298:.\DisplayBLL.c ****         
 299:.\DisplayBLL.c ****         puartdisp = GetUARTMessageSlot(UART_DISPLAY2);
 1203              		.loc 1 299 0
 1204 00e0 A420     		movs	r0, #164
 1205 00e2 FFF7FEFF 		bl	GetUARTMessageSlot
 1206 00e6 7864     		str	r0, [r7, #68]
 300:.\DisplayBLL.c ****         if(puartdisp)
 1207              		.loc 1 300 0
 1208 00e8 7B6C     		ldr	r3, [r7, #68]
 1209 00ea 002B     		cmp	r3, #0
 1210 00ec 1AD0     		beq	.L39
 1211              	.LBB19:
 301:.\DisplayBLL.c ****         {
 302:.\DisplayBLL.c ****             uint8 buff[] = { 0xAA, 0x5B, 0x01, 0x00, 0x01, 0x4A, 0x02, 0x70, 0x01, 0x90, 0xCC, 0x33
 1212              		.loc 1 302 0
 1213 00ee 104A     		ldr	r2, .L45+4
 1214 00f0 07F10C03 		add	r3, r7, #12
 1215 00f4 1446     		mov	r4, r2
 1216 00f6 2068     		ldr	r0, [r4]	@ unaligned
 1217 00f8 6168     		ldr	r1, [r4, #4]	@ unaligned
 1218 00fa A268     		ldr	r2, [r4, #8]	@ unaligned
 1219 00fc 07C3     		stmia	r3!, {r0, r1, r2}
ARM GAS  C:\Users\RECEPC~1\AppData\Local\Temp\ccBSLvba.s 			page 28


 1220 00fe A289     		ldrh	r2, [r4, #12]	@ unaligned
 1221 0100 1A80     		strh	r2, [r3]	@ unaligned
 303:.\DisplayBLL.c ****             memcpy(puartdisp->_messagetx, buff, sizeof(buff));
 1222              		.loc 1 303 0
 1223 0102 7B6C     		ldr	r3, [r7, #68]
 1224 0104 0433     		adds	r3, r3, #4
 1225 0106 1C46     		mov	r4, r3
 1226 0108 07F10C03 		add	r3, r7, #12
 1227 010c 07CB     		ldmia	r3!, {r0, r1, r2}
 1228 010e 2060     		str	r0, [r4]	@ unaligned
 1229 0110 6160     		str	r1, [r4, #4]	@ unaligned
 1230 0112 A260     		str	r2, [r4, #8]	@ unaligned
 1231 0114 1B88     		ldrh	r3, [r3]	@ unaligned
 1232 0116 A381     		strh	r3, [r4, #12]	@ unaligned
 304:.\DisplayBLL.c ****             puartdisp->_messagelength = sizeof(buff);
 1233              		.loc 1 304 0
 1234 0118 7B6C     		ldr	r3, [r7, #68]
 1235 011a 0E22     		movs	r2, #14
 1236 011c 5A80     		strh	r2, [r3, #2]	@ movhi
 305:.\DisplayBLL.c ****             puartdisp->_messagestate = PENDING;
 1237              		.loc 1 305 0
 1238 011e 7B6C     		ldr	r3, [r7, #68]
 1239 0120 C222     		movs	r2, #194
 1240 0122 1A70     		strb	r2, [r3]
 1241              	.L39:
 1242              	.LBE19:
 1243              	.LBE17:
 306:.\DisplayBLL.c ****         }    
 307:.\DisplayBLL.c ****     }
 308:.\DisplayBLL.c **** }
 1244              		.loc 1 308 0
 1245 0124 5437     		adds	r7, r7, #84
 1246              		.cfi_def_cfa_offset 12
 1247 0126 BD46     		mov	sp, r7
 1248              		.cfi_def_cfa_register 13
 1249              		@ sp needed
 1250 0128 90BD     		pop	{r4, r7, pc}
 1251              	.L46:
 1252 012a 00BF     		.align	2
 1253              	.L45:
 1254 012c 60000000 		.word	.LC0
 1255 0130 6C000000 		.word	.LC1
 1256              		.cfi_endproc
 1257              	.LFE68:
 1258              		.size	MaskoutOptionDecorator, .-MaskoutOptionDecorator
 1259              		.section	.rodata
 1260 007a 0000     		.align	2
 1261              	.LC2:
 1262 007c 454E5649 		.ascii	"ENVIANDO LA SOLICITUD DE AUTORIZACION,\000"
 1262      414E444F 
 1262      204C4120 
 1262      534F4C49 
 1262      43495455 
 1263 00a3 00       		.align	2
 1264              	.LC3:
 1265 00a4 20202020 		.ascii	"                                      \000"
 1265      20202020 
ARM GAS  C:\Users\RECEPC~1\AppData\Local\Temp\ccBSLvba.s 			page 29


 1265      20202020 
 1265      20202020 
 1265      20202020 
 1266 00cb 00       		.align	2
 1267              	.LC4:
 1268 00cc 3C3C3C20 		.ascii	"<<<       POR FAVOR ESPERE ...     >>>\000"
 1268      20202020 
 1268      2020504F 
 1268      52204641 
 1268      564F5220 
 1269 00f3 00       		.align	2
 1270              	.LC15:
 1271 00f4 7C000000 		.word	.LC2
 1272 00f8 A4000000 		.word	.LC3
 1273 00fc CC000000 		.word	.LC4
 1274              		.section	.text.AuthorizationMessageDecorator,"ax",%progbits
 1275              		.align	2
 1276              		.global	AuthorizationMessageDecorator
 1277              		.thumb
 1278              		.thumb_func
 1279              		.type	AuthorizationMessageDecorator, %function
 1280              	AuthorizationMessageDecorator:
 1281              	.LFB69:
 309:.\DisplayBLL.c **** 
 310:.\DisplayBLL.c **** void AuthorizationMessageDecorator(LPVOID pparam)
 311:.\DisplayBLL.c **** {
 1282              		.loc 1 311 0
 1283              		.cfi_startproc
 1284              		@ args = 0, pretend = 0, frame = 48
 1285              		@ frame_needed = 1, uses_anonymous_args = 0
 1286 0000 F0B5     		push	{r4, r5, r6, r7, lr}
 1287              		.cfi_def_cfa_offset 20
 1288              		.cfi_offset 4, -20
 1289              		.cfi_offset 5, -16
 1290              		.cfi_offset 6, -12
 1291              		.cfi_offset 7, -8
 1292              		.cfi_offset 14, -4
 1293 0002 91B0     		sub	sp, sp, #68
 1294              		.cfi_def_cfa_offset 88
 1295 0004 04AF     		add	r7, sp, #16
 1296              		.cfi_def_cfa 7, 72
 1297 0006 7860     		str	r0, [r7, #4]
 312:.\DisplayBLL.c ****     FontData fontdata;
 313:.\DisplayBLL.c ****     fontdata._size = 0x03;
 1298              		.loc 1 313 0
 1299 0008 0323     		movs	r3, #3
 1300 000a 3B75     		strb	r3, [r7, #20]
 314:.\DisplayBLL.c ****     fontdata._backcolor = 0xFFFF;
 1301              		.loc 1 314 0
 1302 000c 4FF6FF73 		movw	r3, #65535
 1303 0010 3B83     		strh	r3, [r7, #24]	@ movhi
 315:.\DisplayBLL.c ****     fontdata._forecolor = 0x0000;
 1304              		.loc 1 315 0
 1305 0012 0023     		movs	r3, #0
 1306 0014 7B83     		strh	r3, [r7, #26]	@ movhi
 316:.\DisplayBLL.c ****     fontdata._opaquebackground = DISP_TEXT_OPAQUE;
 1307              		.loc 1 316 0
ARM GAS  C:\Users\RECEPC~1\AppData\Local\Temp\ccBSLvba.s 			page 30


 1308 0016 C523     		movs	r3, #197
 1309 0018 BB75     		strb	r3, [r7, #22]
 317:.\DisplayBLL.c ****     //MOVE ALL OF THESE TEXTS TO THE EEPROM
 318:.\DisplayBLL.c ****     char8 *pmessage[] = 
 1310              		.loc 1 318 0
 1311 001a 6B4A     		ldr	r2, .L51
 1312 001c 07F10803 		add	r3, r7, #8
 1313 0020 07CA     		ldmia	r2, {r0, r1, r2}
 1314 0022 83E80700 		stmia	r3, {r0, r1, r2}
 319:.\DisplayBLL.c ****     {
 320:.\DisplayBLL.c ****         "ENVIANDO LA SOLICITUD DE AUTORIZACION,",
 321:.\DisplayBLL.c ****         "                                      ",
 322:.\DisplayBLL.c ****         "<<<       POR FAVOR ESPERE ...     >>>",
 323:.\DisplayBLL.c ****     };
 324:.\DisplayBLL.c ****     DisplayLayout *pdisplay = (DisplayLayout*)pparam;
 1315              		.loc 1 324 0
 1316 0026 7B68     		ldr	r3, [r7, #4]
 1317 0028 FB62     		str	r3, [r7, #44]
 325:.\DisplayBLL.c ****     if(pdisplay->_dispid == DISPLAY1)
 1318              		.loc 1 325 0
 1319 002a FB6A     		ldr	r3, [r7, #44]
 1320 002c 1B78     		ldrb	r3, [r3]	@ zero_extendqisi2
 1321 002e 002B     		cmp	r3, #0
 1322 0030 40F0CC80 		bne	.L48
 1323              	.LBB20:
 326:.\DisplayBLL.c ****     {
 327:.\DisplayBLL.c ****         UARTMessage *puartdisp = GetUARTMessageSlot(UART_DISPLAY1);
 1324              		.loc 1 327 0
 1325 0034 A320     		movs	r0, #163
 1326 0036 FFF7FEFF 		bl	GetUARTMessageSlot
 1327 003a B862     		str	r0, [r7, #40]
 328:.\DisplayBLL.c ****         if(puartdisp)
 1328              		.loc 1 328 0
 1329 003c BB6A     		ldr	r3, [r7, #40]
 1330 003e 002B     		cmp	r3, #0
 1331 0040 00F0C080 		beq	.L49
 1332              	.LBB21:
 329:.\DisplayBLL.c ****         {
 330:.\DisplayBLL.c ****             uint8 index = 0;
 1333              		.loc 1 330 0
 1334 0044 0023     		movs	r3, #0
 1335 0046 87F82730 		strb	r3, [r7, #39]
 331:.\DisplayBLL.c ****             uint16 ypos = 0x00BA;
 1336              		.loc 1 331 0
 1337 004a BA23     		movs	r3, #186
 1338 004c BB84     		strh	r3, [r7, #36]	@ movhi
 332:.\DisplayBLL.c ****             puartdisp->_messagelength = 0;
 1339              		.loc 1 332 0
 1340 004e BB6A     		ldr	r3, [r7, #40]
 1341 0050 0022     		movs	r2, #0
 1342 0052 5A80     		strh	r2, [r3, #2]	@ movhi
 333:.\DisplayBLL.c ****             puartdisp->_messagelength += DisplayOutputString(0x001A, ypos, &puartdisp->_messagetx[p
 1343              		.loc 1 333 0
 1344 0054 BB6A     		ldr	r3, [r7, #40]
 1345 0056 5B88     		ldrh	r3, [r3, #2]	@ movhi
 1346 0058 9BB2     		uxth	r3, r3
 1347 005a 1A46     		mov	r2, r3
ARM GAS  C:\Users\RECEPC~1\AppData\Local\Temp\ccBSLvba.s 			page 31


 1348 005c BB6A     		ldr	r3, [r7, #40]
 1349 005e 1344     		add	r3, r3, r2
 1350 0060 1D1D     		adds	r5, r3, #4
 1351 0062 97F82730 		ldrb	r3, [r7, #39]	@ zero_extendqisi2
 1352 0066 9B00     		lsls	r3, r3, #2
 1353 0068 07F13002 		add	r2, r7, #48
 1354 006c 1344     		add	r3, r3, r2
 1355 006e 53F8284C 		ldr	r4, [r3, #-40]
 1356 0072 97F82730 		ldrb	r3, [r7, #39]	@ zero_extendqisi2
 1357 0076 9B00     		lsls	r3, r3, #2
 1358 0078 07F13002 		add	r2, r7, #48
 1359 007c 1344     		add	r3, r3, r2
 1360 007e 53F8283C 		ldr	r3, [r3, #-40]
 1361 0082 1846     		mov	r0, r3
 1362 0084 FFF7FEFF 		bl	strlen
 1363 0088 0346     		mov	r3, r0
 1364 008a 9BB2     		uxth	r3, r3
 1365 008c BE8C     		ldrh	r6, [r7, #36]
 1366 008e 0093     		str	r3, [sp]
 1367 0090 01AA     		add	r2, sp, #4
 1368 0092 07F11403 		add	r3, r7, #20
 1369 0096 93E80300 		ldmia	r3, {r0, r1}
 1370 009a 82E80300 		stmia	r2, {r0, r1}
 1371 009e 1A20     		movs	r0, #26
 1372 00a0 3146     		mov	r1, r6
 1373 00a2 2A46     		mov	r2, r5
 1374 00a4 2346     		mov	r3, r4
 1375 00a6 FFF7FEFF 		bl	DisplayOutputString
 1376 00aa 0346     		mov	r3, r0
 1377 00ac 1A46     		mov	r2, r3
 1378 00ae BB6A     		ldr	r3, [r7, #40]
 1379 00b0 5B88     		ldrh	r3, [r3, #2]	@ movhi
 1380 00b2 9BB2     		uxth	r3, r3
 1381 00b4 1344     		add	r3, r3, r2
 1382 00b6 9AB2     		uxth	r2, r3
 1383 00b8 BB6A     		ldr	r3, [r7, #40]
 1384 00ba 5A80     		strh	r2, [r3, #2]	@ movhi
 334:.\DisplayBLL.c ****             ypos += 0x0020;index++;
 1385              		.loc 1 334 0
 1386 00bc BB8C     		ldrh	r3, [r7, #36]	@ movhi
 1387 00be 2033     		adds	r3, r3, #32
 1388 00c0 BB84     		strh	r3, [r7, #36]	@ movhi
 1389 00c2 97F82730 		ldrb	r3, [r7, #39]	@ zero_extendqisi2
 1390 00c6 0133     		adds	r3, r3, #1
 1391 00c8 87F82730 		strb	r3, [r7, #39]
 335:.\DisplayBLL.c ****             puartdisp->_messagelength += DisplayOutputString(0x001A, ypos, &puartdisp->_messagetx[p
 1392              		.loc 1 335 0
 1393 00cc BB6A     		ldr	r3, [r7, #40]
 1394 00ce 5B88     		ldrh	r3, [r3, #2]	@ movhi
 1395 00d0 9BB2     		uxth	r3, r3
 1396 00d2 1A46     		mov	r2, r3
 1397 00d4 BB6A     		ldr	r3, [r7, #40]
 1398 00d6 1344     		add	r3, r3, r2
 1399 00d8 1D1D     		adds	r5, r3, #4
 1400 00da 97F82730 		ldrb	r3, [r7, #39]	@ zero_extendqisi2
 1401 00de 9B00     		lsls	r3, r3, #2
 1402 00e0 07F13002 		add	r2, r7, #48
ARM GAS  C:\Users\RECEPC~1\AppData\Local\Temp\ccBSLvba.s 			page 32


 1403 00e4 1344     		add	r3, r3, r2
 1404 00e6 53F8284C 		ldr	r4, [r3, #-40]
 1405 00ea 97F82730 		ldrb	r3, [r7, #39]	@ zero_extendqisi2
 1406 00ee 9B00     		lsls	r3, r3, #2
 1407 00f0 07F13002 		add	r2, r7, #48
 1408 00f4 1344     		add	r3, r3, r2
 1409 00f6 53F8283C 		ldr	r3, [r3, #-40]
 1410 00fa 1846     		mov	r0, r3
 1411 00fc FFF7FEFF 		bl	strlen
 1412 0100 0346     		mov	r3, r0
 1413 0102 9BB2     		uxth	r3, r3
 1414 0104 BE8C     		ldrh	r6, [r7, #36]
 1415 0106 0093     		str	r3, [sp]
 1416 0108 01AA     		add	r2, sp, #4
 1417 010a 07F11403 		add	r3, r7, #20
 1418 010e 93E80300 		ldmia	r3, {r0, r1}
 1419 0112 82E80300 		stmia	r2, {r0, r1}
 1420 0116 1A20     		movs	r0, #26
 1421 0118 3146     		mov	r1, r6
 1422 011a 2A46     		mov	r2, r5
 1423 011c 2346     		mov	r3, r4
 1424 011e FFF7FEFF 		bl	DisplayOutputString
 1425 0122 0346     		mov	r3, r0
 1426 0124 1A46     		mov	r2, r3
 1427 0126 BB6A     		ldr	r3, [r7, #40]
 1428 0128 5B88     		ldrh	r3, [r3, #2]	@ movhi
 1429 012a 9BB2     		uxth	r3, r3
 1430 012c 1344     		add	r3, r3, r2
 1431 012e 9AB2     		uxth	r2, r3
 1432 0130 BB6A     		ldr	r3, [r7, #40]
 1433 0132 5A80     		strh	r2, [r3, #2]	@ movhi
 336:.\DisplayBLL.c ****             ypos += 0x0020;index++;
 1434              		.loc 1 336 0
 1435 0134 BB8C     		ldrh	r3, [r7, #36]	@ movhi
 1436 0136 2033     		adds	r3, r3, #32
 1437 0138 BB84     		strh	r3, [r7, #36]	@ movhi
 1438 013a 97F82730 		ldrb	r3, [r7, #39]	@ zero_extendqisi2
 1439 013e 0133     		adds	r3, r3, #1
 1440 0140 87F82730 		strb	r3, [r7, #39]
 337:.\DisplayBLL.c ****             puartdisp->_messagelength += DisplayOutputString(0x001A, ypos, &puartdisp->_messagetx[p
 1441              		.loc 1 337 0
 1442 0144 BB6A     		ldr	r3, [r7, #40]
 1443 0146 5B88     		ldrh	r3, [r3, #2]	@ movhi
 1444 0148 9BB2     		uxth	r3, r3
 1445 014a 1A46     		mov	r2, r3
 1446 014c BB6A     		ldr	r3, [r7, #40]
 1447 014e 1344     		add	r3, r3, r2
 1448 0150 1D1D     		adds	r5, r3, #4
 1449 0152 97F82730 		ldrb	r3, [r7, #39]	@ zero_extendqisi2
 1450 0156 9B00     		lsls	r3, r3, #2
 1451 0158 07F13002 		add	r2, r7, #48
 1452 015c 1344     		add	r3, r3, r2
 1453 015e 53F8284C 		ldr	r4, [r3, #-40]
 1454 0162 97F82730 		ldrb	r3, [r7, #39]	@ zero_extendqisi2
 1455 0166 9B00     		lsls	r3, r3, #2
 1456 0168 07F13002 		add	r2, r7, #48
 1457 016c 1344     		add	r3, r3, r2
ARM GAS  C:\Users\RECEPC~1\AppData\Local\Temp\ccBSLvba.s 			page 33


 1458 016e 53F8283C 		ldr	r3, [r3, #-40]
 1459 0172 1846     		mov	r0, r3
 1460 0174 FFF7FEFF 		bl	strlen
 1461 0178 0346     		mov	r3, r0
 1462 017a 9BB2     		uxth	r3, r3
 1463 017c BE8C     		ldrh	r6, [r7, #36]
 1464 017e 0093     		str	r3, [sp]
 1465 0180 01AA     		add	r2, sp, #4
 1466 0182 07F11403 		add	r3, r7, #20
 1467 0186 93E80300 		ldmia	r3, {r0, r1}
 1468 018a 82E80300 		stmia	r2, {r0, r1}
 1469 018e 1A20     		movs	r0, #26
 1470 0190 3146     		mov	r1, r6
 1471 0192 2A46     		mov	r2, r5
 1472 0194 2346     		mov	r3, r4
 1473 0196 FFF7FEFF 		bl	DisplayOutputString
 1474 019a 0346     		mov	r3, r0
 1475 019c 1A46     		mov	r2, r3
 1476 019e BB6A     		ldr	r3, [r7, #40]
 1477 01a0 5B88     		ldrh	r3, [r3, #2]	@ movhi
 1478 01a2 9BB2     		uxth	r3, r3
 1479 01a4 1344     		add	r3, r3, r2
 1480 01a6 9AB2     		uxth	r2, r3
 1481 01a8 BB6A     		ldr	r3, [r7, #40]
 1482 01aa 5A80     		strh	r2, [r3, #2]	@ movhi
 338:.\DisplayBLL.c ****             ypos += 0x0020;index++;
 1483              		.loc 1 338 0
 1484 01ac BB8C     		ldrh	r3, [r7, #36]	@ movhi
 1485 01ae 2033     		adds	r3, r3, #32
 1486 01b0 BB84     		strh	r3, [r7, #36]	@ movhi
 1487 01b2 97F82730 		ldrb	r3, [r7, #39]	@ zero_extendqisi2
 1488 01b6 0133     		adds	r3, r3, #1
 1489 01b8 87F82730 		strb	r3, [r7, #39]
 339:.\DisplayBLL.c **** 
 340:.\DisplayBLL.c ****             puartdisp->_messagestate = PENDING;
 1490              		.loc 1 340 0
 1491 01bc BB6A     		ldr	r3, [r7, #40]
 1492 01be C222     		movs	r2, #194
 1493 01c0 1A70     		strb	r2, [r3]
 1494              	.LBE21:
 1495              	.LBE20:
 1496 01c2 BDE0     		b	.L47
 1497              	.L49:
 1498 01c4 BCE0     		b	.L47
 1499              	.L52:
 1500 01c6 00BF     		.align	2
 1501              	.L51:
 1502 01c8 F4000000 		.word	.LC15
 1503              	.L48:
 1504              	.LBB22:
 341:.\DisplayBLL.c ****         }
 342:.\DisplayBLL.c ****     }
 343:.\DisplayBLL.c ****     else
 344:.\DisplayBLL.c ****     {
 345:.\DisplayBLL.c ****         UARTMessage *puartdisp = GetUARTMessageSlot(UART_DISPLAY2);
 1505              		.loc 1 345 0
 1506 01cc A420     		movs	r0, #164
ARM GAS  C:\Users\RECEPC~1\AppData\Local\Temp\ccBSLvba.s 			page 34


 1507 01ce FFF7FEFF 		bl	GetUARTMessageSlot
 1508 01d2 3862     		str	r0, [r7, #32]
 346:.\DisplayBLL.c ****         if(puartdisp)
 1509              		.loc 1 346 0
 1510 01d4 3B6A     		ldr	r3, [r7, #32]
 1511 01d6 002B     		cmp	r3, #0
 1512 01d8 00F0B280 		beq	.L47
 1513              	.LBB23:
 347:.\DisplayBLL.c ****         {
 348:.\DisplayBLL.c ****             uint8 index = 0;
 1514              		.loc 1 348 0
 1515 01dc 0023     		movs	r3, #0
 1516 01de FB77     		strb	r3, [r7, #31]
 349:.\DisplayBLL.c ****             uint16 ypos = 0x00BA;
 1517              		.loc 1 349 0
 1518 01e0 BA23     		movs	r3, #186
 1519 01e2 BB83     		strh	r3, [r7, #28]	@ movhi
 350:.\DisplayBLL.c ****             puartdisp->_messagelength = 0;
 1520              		.loc 1 350 0
 1521 01e4 3B6A     		ldr	r3, [r7, #32]
 1522 01e6 0022     		movs	r2, #0
 1523 01e8 5A80     		strh	r2, [r3, #2]	@ movhi
 351:.\DisplayBLL.c ****             puartdisp->_messagelength += DisplayOutputString(0x001A, ypos, &puartdisp->_messagetx[p
 1524              		.loc 1 351 0
 1525 01ea 3B6A     		ldr	r3, [r7, #32]
 1526 01ec 5B88     		ldrh	r3, [r3, #2]	@ movhi
 1527 01ee 9BB2     		uxth	r3, r3
 1528 01f0 1A46     		mov	r2, r3
 1529 01f2 3B6A     		ldr	r3, [r7, #32]
 1530 01f4 1344     		add	r3, r3, r2
 1531 01f6 1D1D     		adds	r5, r3, #4
 1532 01f8 FB7F     		ldrb	r3, [r7, #31]	@ zero_extendqisi2
 1533 01fa 9B00     		lsls	r3, r3, #2
 1534 01fc 07F13002 		add	r2, r7, #48
 1535 0200 1344     		add	r3, r3, r2
 1536 0202 53F8284C 		ldr	r4, [r3, #-40]
 1537 0206 FB7F     		ldrb	r3, [r7, #31]	@ zero_extendqisi2
 1538 0208 9B00     		lsls	r3, r3, #2
 1539 020a 07F13002 		add	r2, r7, #48
 1540 020e 1344     		add	r3, r3, r2
 1541 0210 53F8283C 		ldr	r3, [r3, #-40]
 1542 0214 1846     		mov	r0, r3
 1543 0216 FFF7FEFF 		bl	strlen
 1544 021a 0346     		mov	r3, r0
 1545 021c 9BB2     		uxth	r3, r3
 1546 021e BE8B     		ldrh	r6, [r7, #28]
 1547 0220 0093     		str	r3, [sp]
 1548 0222 01AA     		add	r2, sp, #4
 1549 0224 07F11403 		add	r3, r7, #20
 1550 0228 93E80300 		ldmia	r3, {r0, r1}
 1551 022c 82E80300 		stmia	r2, {r0, r1}
 1552 0230 1A20     		movs	r0, #26
 1553 0232 3146     		mov	r1, r6
 1554 0234 2A46     		mov	r2, r5
 1555 0236 2346     		mov	r3, r4
 1556 0238 FFF7FEFF 		bl	DisplayOutputString
 1557 023c 0346     		mov	r3, r0
ARM GAS  C:\Users\RECEPC~1\AppData\Local\Temp\ccBSLvba.s 			page 35


 1558 023e 1A46     		mov	r2, r3
 1559 0240 3B6A     		ldr	r3, [r7, #32]
 1560 0242 5B88     		ldrh	r3, [r3, #2]	@ movhi
 1561 0244 9BB2     		uxth	r3, r3
 1562 0246 1344     		add	r3, r3, r2
 1563 0248 9AB2     		uxth	r2, r3
 1564 024a 3B6A     		ldr	r3, [r7, #32]
 1565 024c 5A80     		strh	r2, [r3, #2]	@ movhi
 352:.\DisplayBLL.c ****             ypos += 0x0020;index++;
 1566              		.loc 1 352 0
 1567 024e BB8B     		ldrh	r3, [r7, #28]	@ movhi
 1568 0250 2033     		adds	r3, r3, #32
 1569 0252 BB83     		strh	r3, [r7, #28]	@ movhi
 1570 0254 FB7F     		ldrb	r3, [r7, #31]	@ zero_extendqisi2
 1571 0256 0133     		adds	r3, r3, #1
 1572 0258 FB77     		strb	r3, [r7, #31]
 353:.\DisplayBLL.c ****             puartdisp->_messagelength += DisplayOutputString(0x001A, ypos, &puartdisp->_messagetx[p
 1573              		.loc 1 353 0
 1574 025a 3B6A     		ldr	r3, [r7, #32]
 1575 025c 5B88     		ldrh	r3, [r3, #2]	@ movhi
 1576 025e 9BB2     		uxth	r3, r3
 1577 0260 1A46     		mov	r2, r3
 1578 0262 3B6A     		ldr	r3, [r7, #32]
 1579 0264 1344     		add	r3, r3, r2
 1580 0266 1D1D     		adds	r5, r3, #4
 1581 0268 FB7F     		ldrb	r3, [r7, #31]	@ zero_extendqisi2
 1582 026a 9B00     		lsls	r3, r3, #2
 1583 026c 07F13002 		add	r2, r7, #48
 1584 0270 1344     		add	r3, r3, r2
 1585 0272 53F8284C 		ldr	r4, [r3, #-40]
 1586 0276 FB7F     		ldrb	r3, [r7, #31]	@ zero_extendqisi2
 1587 0278 9B00     		lsls	r3, r3, #2
 1588 027a 07F13002 		add	r2, r7, #48
 1589 027e 1344     		add	r3, r3, r2
 1590 0280 53F8283C 		ldr	r3, [r3, #-40]
 1591 0284 1846     		mov	r0, r3
 1592 0286 FFF7FEFF 		bl	strlen
 1593 028a 0346     		mov	r3, r0
 1594 028c 9BB2     		uxth	r3, r3
 1595 028e BE8B     		ldrh	r6, [r7, #28]
 1596 0290 0093     		str	r3, [sp]
 1597 0292 01AA     		add	r2, sp, #4
 1598 0294 07F11403 		add	r3, r7, #20
 1599 0298 93E80300 		ldmia	r3, {r0, r1}
 1600 029c 82E80300 		stmia	r2, {r0, r1}
 1601 02a0 1A20     		movs	r0, #26
 1602 02a2 3146     		mov	r1, r6
 1603 02a4 2A46     		mov	r2, r5
 1604 02a6 2346     		mov	r3, r4
 1605 02a8 FFF7FEFF 		bl	DisplayOutputString
 1606 02ac 0346     		mov	r3, r0
 1607 02ae 1A46     		mov	r2, r3
 1608 02b0 3B6A     		ldr	r3, [r7, #32]
 1609 02b2 5B88     		ldrh	r3, [r3, #2]	@ movhi
 1610 02b4 9BB2     		uxth	r3, r3
 1611 02b6 1344     		add	r3, r3, r2
 1612 02b8 9AB2     		uxth	r2, r3
ARM GAS  C:\Users\RECEPC~1\AppData\Local\Temp\ccBSLvba.s 			page 36


 1613 02ba 3B6A     		ldr	r3, [r7, #32]
 1614 02bc 5A80     		strh	r2, [r3, #2]	@ movhi
 354:.\DisplayBLL.c ****             ypos += 0x0020;index++;
 1615              		.loc 1 354 0
 1616 02be BB8B     		ldrh	r3, [r7, #28]	@ movhi
 1617 02c0 2033     		adds	r3, r3, #32
 1618 02c2 BB83     		strh	r3, [r7, #28]	@ movhi
 1619 02c4 FB7F     		ldrb	r3, [r7, #31]	@ zero_extendqisi2
 1620 02c6 0133     		adds	r3, r3, #1
 1621 02c8 FB77     		strb	r3, [r7, #31]
 355:.\DisplayBLL.c ****             puartdisp->_messagelength += DisplayOutputString(0x001A, ypos, &puartdisp->_messagetx[p
 1622              		.loc 1 355 0
 1623 02ca 3B6A     		ldr	r3, [r7, #32]
 1624 02cc 5B88     		ldrh	r3, [r3, #2]	@ movhi
 1625 02ce 9BB2     		uxth	r3, r3
 1626 02d0 1A46     		mov	r2, r3
 1627 02d2 3B6A     		ldr	r3, [r7, #32]
 1628 02d4 1344     		add	r3, r3, r2
 1629 02d6 1D1D     		adds	r5, r3, #4
 1630 02d8 FB7F     		ldrb	r3, [r7, #31]	@ zero_extendqisi2
 1631 02da 9B00     		lsls	r3, r3, #2
 1632 02dc 07F13002 		add	r2, r7, #48
 1633 02e0 1344     		add	r3, r3, r2
 1634 02e2 53F8284C 		ldr	r4, [r3, #-40]
 1635 02e6 FB7F     		ldrb	r3, [r7, #31]	@ zero_extendqisi2
 1636 02e8 9B00     		lsls	r3, r3, #2
 1637 02ea 07F13002 		add	r2, r7, #48
 1638 02ee 1344     		add	r3, r3, r2
 1639 02f0 53F8283C 		ldr	r3, [r3, #-40]
 1640 02f4 1846     		mov	r0, r3
 1641 02f6 FFF7FEFF 		bl	strlen
 1642 02fa 0346     		mov	r3, r0
 1643 02fc 9BB2     		uxth	r3, r3
 1644 02fe BE8B     		ldrh	r6, [r7, #28]
 1645 0300 0093     		str	r3, [sp]
 1646 0302 01AA     		add	r2, sp, #4
 1647 0304 07F11403 		add	r3, r7, #20
 1648 0308 93E80300 		ldmia	r3, {r0, r1}
 1649 030c 82E80300 		stmia	r2, {r0, r1}
 1650 0310 1A20     		movs	r0, #26
 1651 0312 3146     		mov	r1, r6
 1652 0314 2A46     		mov	r2, r5
 1653 0316 2346     		mov	r3, r4
 1654 0318 FFF7FEFF 		bl	DisplayOutputString
 1655 031c 0346     		mov	r3, r0
 1656 031e 1A46     		mov	r2, r3
 1657 0320 3B6A     		ldr	r3, [r7, #32]
 1658 0322 5B88     		ldrh	r3, [r3, #2]	@ movhi
 1659 0324 9BB2     		uxth	r3, r3
 1660 0326 1344     		add	r3, r3, r2
 1661 0328 9AB2     		uxth	r2, r3
 1662 032a 3B6A     		ldr	r3, [r7, #32]
 1663 032c 5A80     		strh	r2, [r3, #2]	@ movhi
 356:.\DisplayBLL.c ****             ypos += 0x0020;index++;
 1664              		.loc 1 356 0
 1665 032e BB8B     		ldrh	r3, [r7, #28]	@ movhi
 1666 0330 2033     		adds	r3, r3, #32
ARM GAS  C:\Users\RECEPC~1\AppData\Local\Temp\ccBSLvba.s 			page 37


 1667 0332 BB83     		strh	r3, [r7, #28]	@ movhi
 1668 0334 FB7F     		ldrb	r3, [r7, #31]	@ zero_extendqisi2
 1669 0336 0133     		adds	r3, r3, #1
 1670 0338 FB77     		strb	r3, [r7, #31]
 357:.\DisplayBLL.c ****             
 358:.\DisplayBLL.c ****             puartdisp->_messagestate = PENDING;
 1671              		.loc 1 358 0
 1672 033a 3B6A     		ldr	r3, [r7, #32]
 1673 033c C222     		movs	r2, #194
 1674 033e 1A70     		strb	r2, [r3]
 1675              	.L47:
 1676              	.LBE23:
 1677              	.LBE22:
 359:.\DisplayBLL.c ****         }
 360:.\DisplayBLL.c ****     }
 361:.\DisplayBLL.c **** }
 1678              		.loc 1 361 0
 1679 0340 3437     		adds	r7, r7, #52
 1680              		.cfi_def_cfa_offset 20
 1681 0342 BD46     		mov	sp, r7
 1682              		.cfi_def_cfa_register 13
 1683              		@ sp needed
 1684 0344 F0BD     		pop	{r4, r5, r6, r7, pc}
 1685              		.cfi_endproc
 1686              	.LFE69:
 1687              		.size	AuthorizationMessageDecorator, .-AuthorizationMessageDecorator
 1688 0346 00BF     		.section	.rodata
 1689              		.align	2
 1690              	.LC16:
 1691 0100 20205045 		.ascii	"  PETICION DE AUTORIZACION ACEPTADA!  \000"
 1691      54494349 
 1691      4F4E2044 
 1691      45204155 
 1691      544F5249 
 1692              		.section	.text.AcceptedAuthorizationMessageDecorator,"ax",%progbits
 1693              		.align	2
 1694              		.global	AcceptedAuthorizationMessageDecorator
 1695              		.thumb
 1696              		.thumb_func
 1697              		.type	AcceptedAuthorizationMessageDecorator, %function
 1698              	AcceptedAuthorizationMessageDecorator:
 1699              	.LFB70:
 362:.\DisplayBLL.c **** 
 363:.\DisplayBLL.c **** void AcceptedAuthorizationMessageDecorator(LPVOID pparam)
 364:.\DisplayBLL.c **** {
 1700              		.loc 1 364 0
 1701              		.cfi_startproc
 1702              		@ args = 0, pretend = 0, frame = 40
 1703              		@ frame_needed = 1, uses_anonymous_args = 0
 1704 0000 F0B5     		push	{r4, r5, r6, r7, lr}
 1705              		.cfi_def_cfa_offset 20
 1706              		.cfi_offset 4, -20
 1707              		.cfi_offset 5, -16
 1708              		.cfi_offset 6, -12
 1709              		.cfi_offset 7, -8
 1710              		.cfi_offset 14, -4
 1711 0002 8FB0     		sub	sp, sp, #60
ARM GAS  C:\Users\RECEPC~1\AppData\Local\Temp\ccBSLvba.s 			page 38


 1712              		.cfi_def_cfa_offset 80
 1713 0004 04AF     		add	r7, sp, #16
 1714              		.cfi_def_cfa 7, 64
 1715 0006 7860     		str	r0, [r7, #4]
 365:.\DisplayBLL.c ****     FontData fontdata;
 366:.\DisplayBLL.c ****     fontdata._size = 0x03;
 1716              		.loc 1 366 0
 1717 0008 0323     		movs	r3, #3
 1718 000a 3B73     		strb	r3, [r7, #12]
 367:.\DisplayBLL.c ****     fontdata._backcolor = 0xFFFF;
 1719              		.loc 1 367 0
 1720 000c 4FF6FF73 		movw	r3, #65535
 1721 0010 3B82     		strh	r3, [r7, #16]	@ movhi
 368:.\DisplayBLL.c ****     fontdata._forecolor = 0x0000;
 1722              		.loc 1 368 0
 1723 0012 0023     		movs	r3, #0
 1724 0014 7B82     		strh	r3, [r7, #18]	@ movhi
 369:.\DisplayBLL.c ****     fontdata._opaquebackground = DISP_TEXT_OPAQUE;
 1725              		.loc 1 369 0
 1726 0016 C523     		movs	r3, #197
 1727 0018 BB73     		strb	r3, [r7, #14]
 370:.\DisplayBLL.c ****     //MOVE ALL OF THESE TEXTS TO THE EEPROM
 371:.\DisplayBLL.c ****     char8 *pmessage[] = 
 1728              		.loc 1 371 0
 1729 001a 4F4B     		ldr	r3, .L57
 1730 001c BB60     		str	r3, [r7, #8]
 372:.\DisplayBLL.c ****     {
 373:.\DisplayBLL.c ****         "  PETICION DE AUTORIZACION ACEPTADA!  ",
 374:.\DisplayBLL.c ****     };
 375:.\DisplayBLL.c ****     DisplayLayout *pdisplay = (DisplayLayout*)pparam;
 1731              		.loc 1 375 0
 1732 001e 7B68     		ldr	r3, [r7, #4]
 1733 0020 7B62     		str	r3, [r7, #36]
 376:.\DisplayBLL.c ****     if(pdisplay->_dispid == DISPLAY1)
 1734              		.loc 1 376 0
 1735 0022 7B6A     		ldr	r3, [r7, #36]
 1736 0024 1B78     		ldrb	r3, [r3]	@ zero_extendqisi2
 1737 0026 002B     		cmp	r3, #0
 1738 0028 4AD1     		bne	.L54
 1739              	.LBB24:
 377:.\DisplayBLL.c ****     {
 378:.\DisplayBLL.c ****         UARTMessage *puartdisp = GetUARTMessageSlot(UART_DISPLAY1);
 1740              		.loc 1 378 0
 1741 002a A320     		movs	r0, #163
 1742 002c FFF7FEFF 		bl	GetUARTMessageSlot
 1743 0030 3862     		str	r0, [r7, #32]
 379:.\DisplayBLL.c ****         if(puartdisp)
 1744              		.loc 1 379 0
 1745 0032 3B6A     		ldr	r3, [r7, #32]
 1746 0034 002B     		cmp	r3, #0
 1747 0036 42D0     		beq	.L55
 1748              	.LBB25:
 380:.\DisplayBLL.c ****         {
 381:.\DisplayBLL.c ****             uint8 index = 0;
 1749              		.loc 1 381 0
 1750 0038 0023     		movs	r3, #0
 1751 003a FB77     		strb	r3, [r7, #31]
ARM GAS  C:\Users\RECEPC~1\AppData\Local\Temp\ccBSLvba.s 			page 39


 382:.\DisplayBLL.c ****             uint16 ypos = 0x00BA;
 1752              		.loc 1 382 0
 1753 003c BA23     		movs	r3, #186
 1754 003e BB83     		strh	r3, [r7, #28]	@ movhi
 383:.\DisplayBLL.c ****             puartdisp->_messagelength = 0;
 1755              		.loc 1 383 0
 1756 0040 3B6A     		ldr	r3, [r7, #32]
 1757 0042 0022     		movs	r2, #0
 1758 0044 5A80     		strh	r2, [r3, #2]	@ movhi
 384:.\DisplayBLL.c ****             puartdisp->_messagelength += DisplayOutputString(0x001A, ypos, &puartdisp->_messagetx[p
 1759              		.loc 1 384 0
 1760 0046 3B6A     		ldr	r3, [r7, #32]
 1761 0048 5B88     		ldrh	r3, [r3, #2]	@ movhi
 1762 004a 9BB2     		uxth	r3, r3
 1763 004c 1A46     		mov	r2, r3
 1764 004e 3B6A     		ldr	r3, [r7, #32]
 1765 0050 1344     		add	r3, r3, r2
 1766 0052 1D1D     		adds	r5, r3, #4
 1767 0054 FB7F     		ldrb	r3, [r7, #31]	@ zero_extendqisi2
 1768 0056 9B00     		lsls	r3, r3, #2
 1769 0058 07F12802 		add	r2, r7, #40
 1770 005c 1344     		add	r3, r3, r2
 1771 005e 53F8204C 		ldr	r4, [r3, #-32]
 1772 0062 FB7F     		ldrb	r3, [r7, #31]	@ zero_extendqisi2
 1773 0064 9B00     		lsls	r3, r3, #2
 1774 0066 07F12802 		add	r2, r7, #40
 1775 006a 1344     		add	r3, r3, r2
 1776 006c 53F8203C 		ldr	r3, [r3, #-32]
 1777 0070 1846     		mov	r0, r3
 1778 0072 FFF7FEFF 		bl	strlen
 1779 0076 0346     		mov	r3, r0
 1780 0078 9BB2     		uxth	r3, r3
 1781 007a BE8B     		ldrh	r6, [r7, #28]
 1782 007c 0093     		str	r3, [sp]
 1783 007e 01AA     		add	r2, sp, #4
 1784 0080 07F10C03 		add	r3, r7, #12
 1785 0084 93E80300 		ldmia	r3, {r0, r1}
 1786 0088 82E80300 		stmia	r2, {r0, r1}
 1787 008c 1A20     		movs	r0, #26
 1788 008e 3146     		mov	r1, r6
 1789 0090 2A46     		mov	r2, r5
 1790 0092 2346     		mov	r3, r4
 1791 0094 FFF7FEFF 		bl	DisplayOutputString
 1792 0098 0346     		mov	r3, r0
 1793 009a 1A46     		mov	r2, r3
 1794 009c 3B6A     		ldr	r3, [r7, #32]
 1795 009e 5B88     		ldrh	r3, [r3, #2]	@ movhi
 1796 00a0 9BB2     		uxth	r3, r3
 1797 00a2 1344     		add	r3, r3, r2
 1798 00a4 9AB2     		uxth	r2, r3
 1799 00a6 3B6A     		ldr	r3, [r7, #32]
 1800 00a8 5A80     		strh	r2, [r3, #2]	@ movhi
 385:.\DisplayBLL.c ****             ypos += 0x0020;index++;
 1801              		.loc 1 385 0
 1802 00aa BB8B     		ldrh	r3, [r7, #28]	@ movhi
 1803 00ac 2033     		adds	r3, r3, #32
 1804 00ae BB83     		strh	r3, [r7, #28]	@ movhi
ARM GAS  C:\Users\RECEPC~1\AppData\Local\Temp\ccBSLvba.s 			page 40


 1805 00b0 FB7F     		ldrb	r3, [r7, #31]	@ zero_extendqisi2
 1806 00b2 0133     		adds	r3, r3, #1
 1807 00b4 FB77     		strb	r3, [r7, #31]
 386:.\DisplayBLL.c **** 
 387:.\DisplayBLL.c ****             puartdisp->_messagestate = PENDING;
 1808              		.loc 1 387 0
 1809 00b6 3B6A     		ldr	r3, [r7, #32]
 1810 00b8 C222     		movs	r2, #194
 1811 00ba 1A70     		strb	r2, [r3]
 1812              	.LBE25:
 1813              	.LBE24:
 1814 00bc 49E0     		b	.L53
 1815              	.L55:
 1816 00be 48E0     		b	.L53
 1817              	.L54:
 1818              	.LBB26:
 388:.\DisplayBLL.c ****         }
 389:.\DisplayBLL.c ****     }
 390:.\DisplayBLL.c ****     else
 391:.\DisplayBLL.c ****     {
 392:.\DisplayBLL.c ****         UARTMessage *puartdisp = GetUARTMessageSlot(UART_DISPLAY2);
 1819              		.loc 1 392 0
 1820 00c0 A420     		movs	r0, #164
 1821 00c2 FFF7FEFF 		bl	GetUARTMessageSlot
 1822 00c6 B861     		str	r0, [r7, #24]
 393:.\DisplayBLL.c ****         if(puartdisp)
 1823              		.loc 1 393 0
 1824 00c8 BB69     		ldr	r3, [r7, #24]
 1825 00ca 002B     		cmp	r3, #0
 1826 00cc 41D0     		beq	.L53
 1827              	.LBB27:
 394:.\DisplayBLL.c ****         {
 395:.\DisplayBLL.c ****             uint8 index = 0;
 1828              		.loc 1 395 0
 1829 00ce 0023     		movs	r3, #0
 1830 00d0 FB75     		strb	r3, [r7, #23]
 396:.\DisplayBLL.c ****             uint16 ypos = 0x00BA;
 1831              		.loc 1 396 0
 1832 00d2 BA23     		movs	r3, #186
 1833 00d4 BB82     		strh	r3, [r7, #20]	@ movhi
 397:.\DisplayBLL.c ****             puartdisp->_messagelength = 0;
 1834              		.loc 1 397 0
 1835 00d6 BB69     		ldr	r3, [r7, #24]
 1836 00d8 0022     		movs	r2, #0
 1837 00da 5A80     		strh	r2, [r3, #2]	@ movhi
 398:.\DisplayBLL.c ****             puartdisp->_messagelength += DisplayOutputString(0x001A, ypos, &puartdisp->_messagetx[p
 1838              		.loc 1 398 0
 1839 00dc BB69     		ldr	r3, [r7, #24]
 1840 00de 5B88     		ldrh	r3, [r3, #2]	@ movhi
 1841 00e0 9BB2     		uxth	r3, r3
 1842 00e2 1A46     		mov	r2, r3
 1843 00e4 BB69     		ldr	r3, [r7, #24]
 1844 00e6 1344     		add	r3, r3, r2
 1845 00e8 1D1D     		adds	r5, r3, #4
 1846 00ea FB7D     		ldrb	r3, [r7, #23]	@ zero_extendqisi2
 1847 00ec 9B00     		lsls	r3, r3, #2
 1848 00ee 07F12802 		add	r2, r7, #40
ARM GAS  C:\Users\RECEPC~1\AppData\Local\Temp\ccBSLvba.s 			page 41


 1849 00f2 1344     		add	r3, r3, r2
 1850 00f4 53F8204C 		ldr	r4, [r3, #-32]
 1851 00f8 FB7D     		ldrb	r3, [r7, #23]	@ zero_extendqisi2
 1852 00fa 9B00     		lsls	r3, r3, #2
 1853 00fc 07F12802 		add	r2, r7, #40
 1854 0100 1344     		add	r3, r3, r2
 1855 0102 53F8203C 		ldr	r3, [r3, #-32]
 1856 0106 1846     		mov	r0, r3
 1857 0108 FFF7FEFF 		bl	strlen
 1858 010c 0346     		mov	r3, r0
 1859 010e 9BB2     		uxth	r3, r3
 1860 0110 BE8A     		ldrh	r6, [r7, #20]
 1861 0112 0093     		str	r3, [sp]
 1862 0114 01AA     		add	r2, sp, #4
 1863 0116 07F10C03 		add	r3, r7, #12
 1864 011a 93E80300 		ldmia	r3, {r0, r1}
 1865 011e 82E80300 		stmia	r2, {r0, r1}
 1866 0122 1A20     		movs	r0, #26
 1867 0124 3146     		mov	r1, r6
 1868 0126 2A46     		mov	r2, r5
 1869 0128 2346     		mov	r3, r4
 1870 012a FFF7FEFF 		bl	DisplayOutputString
 1871 012e 0346     		mov	r3, r0
 1872 0130 1A46     		mov	r2, r3
 1873 0132 BB69     		ldr	r3, [r7, #24]
 1874 0134 5B88     		ldrh	r3, [r3, #2]	@ movhi
 1875 0136 9BB2     		uxth	r3, r3
 1876 0138 1344     		add	r3, r3, r2
 1877 013a 9AB2     		uxth	r2, r3
 1878 013c BB69     		ldr	r3, [r7, #24]
 1879 013e 5A80     		strh	r2, [r3, #2]	@ movhi
 399:.\DisplayBLL.c ****             ypos += 0x0020;index++;
 1880              		.loc 1 399 0
 1881 0140 BB8A     		ldrh	r3, [r7, #20]	@ movhi
 1882 0142 2033     		adds	r3, r3, #32
 1883 0144 BB82     		strh	r3, [r7, #20]	@ movhi
 1884 0146 FB7D     		ldrb	r3, [r7, #23]	@ zero_extendqisi2
 1885 0148 0133     		adds	r3, r3, #1
 1886 014a FB75     		strb	r3, [r7, #23]
 400:.\DisplayBLL.c ****             
 401:.\DisplayBLL.c ****             puartdisp->_messagestate = PENDING;
 1887              		.loc 1 401 0
 1888 014c BB69     		ldr	r3, [r7, #24]
 1889 014e C222     		movs	r2, #194
 1890 0150 1A70     		strb	r2, [r3]
 1891              	.L53:
 1892              	.LBE27:
 1893              	.LBE26:
 402:.\DisplayBLL.c ****         }
 403:.\DisplayBLL.c ****     }
 404:.\DisplayBLL.c **** }
 1894              		.loc 1 404 0
 1895 0152 2C37     		adds	r7, r7, #44
 1896              		.cfi_def_cfa_offset 20
 1897 0154 BD46     		mov	sp, r7
 1898              		.cfi_def_cfa_register 13
 1899              		@ sp needed
ARM GAS  C:\Users\RECEPC~1\AppData\Local\Temp\ccBSLvba.s 			page 42


 1900 0156 F0BD     		pop	{r4, r5, r6, r7, pc}
 1901              	.L58:
 1902              		.align	2
 1903              	.L57:
 1904 0158 00010000 		.word	.LC16
 1905              		.cfi_endproc
 1906              	.LFE70:
 1907              		.size	AcceptedAuthorizationMessageDecorator, .-AcceptedAuthorizationMessageDecorator
 1908              		.section	.text.ProductNameSelectionDecorator,"ax",%progbits
 1909              		.align	2
 1910              		.global	ProductNameSelectionDecorator
 1911              		.thumb
 1912              		.thumb_func
 1913              		.type	ProductNameSelectionDecorator, %function
 1914              	ProductNameSelectionDecorator:
 1915              	.LFB71:
 405:.\DisplayBLL.c **** 
 406:.\DisplayBLL.c **** void ProductNameSelectionDecorator(LPVOID pparam)
 407:.\DisplayBLL.c **** {
 1916              		.loc 1 407 0
 1917              		.cfi_startproc
 1918              		@ args = 0, pretend = 0, frame = 72
 1919              		@ frame_needed = 1, uses_anonymous_args = 0
 1920 0000 2DE9F041 		push	{r4, r5, r6, r7, r8, lr}
 1921              		.cfi_def_cfa_offset 24
 1922              		.cfi_offset 4, -24
 1923              		.cfi_offset 5, -20
 1924              		.cfi_offset 6, -16
 1925              		.cfi_offset 7, -12
 1926              		.cfi_offset 8, -8
 1927              		.cfi_offset 14, -4
 1928 0004 96B0     		sub	sp, sp, #88
 1929              		.cfi_def_cfa_offset 112
 1930 0006 04AF     		add	r7, sp, #16
 1931              		.cfi_def_cfa 7, 96
 1932 0008 7860     		str	r0, [r7, #4]
 408:.\DisplayBLL.c ****     FontData fontdata;
 409:.\DisplayBLL.c ****     fontdata._size = 0x03;
 1933              		.loc 1 409 0
 1934 000a 0323     		movs	r3, #3
 1935 000c 3B75     		strb	r3, [r7, #20]
 410:.\DisplayBLL.c ****     fontdata._backcolor = 0x0000;
 1936              		.loc 1 410 0
 1937 000e 0023     		movs	r3, #0
 1938 0010 3B83     		strh	r3, [r7, #24]	@ movhi
 411:.\DisplayBLL.c ****     fontdata._forecolor = 0xFFFF;
 1939              		.loc 1 411 0
 1940 0012 4FF6FF73 		movw	r3, #65535
 1941 0016 7B83     		strh	r3, [r7, #26]	@ movhi
 412:.\DisplayBLL.c ****     fontdata._opaquebackground = DISP_TEXT_TRANSP;
 1942              		.loc 1 412 0
 1943 0018 8523     		movs	r3, #133
 1944 001a BB75     		strb	r3, [r7, #22]
 413:.\DisplayBLL.c ****     uint8  numhoses = 0x00;
 1945              		.loc 1 413 0
 1946 001c 0023     		movs	r3, #0
 1947 001e 87F84730 		strb	r3, [r7, #71]
ARM GAS  C:\Users\RECEPC~1\AppData\Local\Temp\ccBSLvba.s 			page 43


 414:.\DisplayBLL.c ****     uint16 eepromcardpage = 0x00;
 1948              		.loc 1 414 0
 1949 0022 0023     		movs	r3, #0
 1950 0024 A7F84430 		strh	r3, [r7, #68]	@ movhi
 415:.\DisplayBLL.c ****     uint16 eepromprodpage = 0x00;
 1951              		.loc 1 415 0
 1952 0028 0023     		movs	r3, #0
 1953 002a A7F84230 		strh	r3, [r7, #66]	@ movhi
 416:.\DisplayBLL.c ****     PDISPLAYLAYOUTPTR pdisplay = (PDISPLAYLAYOUTPTR)pparam;
 1954              		.loc 1 416 0
 1955 002e 7B68     		ldr	r3, [r7, #4]
 1956 0030 FB63     		str	r3, [r7, #60]
 417:.\DisplayBLL.c ****     switch(GetPumpIndexFromDisplay(pdisplay))
 1957              		.loc 1 417 0
 1958 0032 F86B     		ldr	r0, [r7, #60]
 1959 0034 FFF7FEFF 		bl	GetPumpIndexFromDisplay
 1960 0038 0346     		mov	r3, r0
 1961 003a 032B     		cmp	r3, #3
 1962 003c 3ED8     		bhi	.L60
 1963 003e 01A2     		adr	r2, .L62
 1964 0040 52F823F0 		ldr	pc, [r2, r3, lsl #2]
 1965              		.p2align 2
 1966              	.L62:
 1967 0044 55000000 		.word	.L61+1
 1968 0048 6F000000 		.word	.L63+1
 1969 004c 89000000 		.word	.L64+1
 1970 0050 A3000000 		.word	.L65+1
 1971              		.p2align 1
 1972              	.L61:
 418:.\DisplayBLL.c ****     {
 419:.\DisplayBLL.c ****         case 0x00:
 420:.\DisplayBLL.c ****             numhoses = _g_dispenserlayoutinfo._hosesposition1;
 1973              		.loc 1 420 0
 1974 0054 BD4B     		ldr	r3, .L94
 1975 0056 DB78     		ldrb	r3, [r3, #3]
 1976 0058 87F84730 		strb	r3, [r7, #71]
 421:.\DisplayBLL.c ****             eepromcardpage = (uint16)EEPROM_DISPENSER_PUMP1_LAYOUT_PAGE;
 1977              		.loc 1 421 0
 1978 005c 4FF40073 		mov	r3, #512
 1979 0060 A7F84430 		strh	r3, [r7, #68]	@ movhi
 422:.\DisplayBLL.c ****             eepromprodpage = (uint16)EEPROM_DISPENSER_PUMP1_PRODUCT_NAMES_PAGE;
 1980              		.loc 1 422 0
 1981 0064 4FF44073 		mov	r3, #768
 1982 0068 A7F84230 		strh	r3, [r7, #66]	@ movhi
 423:.\DisplayBLL.c ****             break;
 1983              		.loc 1 423 0
 1984 006c 26E0     		b	.L60
 1985              	.L63:
 424:.\DisplayBLL.c ****         case 0x01:
 425:.\DisplayBLL.c ****             numhoses = _g_dispenserlayoutinfo._hosesposition2;
 1986              		.loc 1 425 0
 1987 006e B74B     		ldr	r3, .L94
 1988 0070 1B79     		ldrb	r3, [r3, #4]
 1989 0072 87F84730 		strb	r3, [r7, #71]
 426:.\DisplayBLL.c ****             eepromcardpage = (uint16)EEPROM_DISPENSER_PUMP2_LAYOUT_PAGE;
 1990              		.loc 1 426 0
 1991 0076 4FF41073 		mov	r3, #576
ARM GAS  C:\Users\RECEPC~1\AppData\Local\Temp\ccBSLvba.s 			page 44


 1992 007a A7F84430 		strh	r3, [r7, #68]	@ movhi
 427:.\DisplayBLL.c ****             eepromprodpage = (uint16)EEPROM_DISPENSER_PUMP2_PRODUCT_NAMES_PAGE;
 1993              		.loc 1 427 0
 1994 007e 4FF45073 		mov	r3, #832
 1995 0082 A7F84230 		strh	r3, [r7, #66]	@ movhi
 428:.\DisplayBLL.c ****             break;
 1996              		.loc 1 428 0
 1997 0086 19E0     		b	.L60
 1998              	.L64:
 429:.\DisplayBLL.c ****         case 0x02:
 430:.\DisplayBLL.c ****             numhoses = _g_dispenserlayoutinfo._hosesposition3;
 1999              		.loc 1 430 0
 2000 0088 B04B     		ldr	r3, .L94
 2001 008a 5B79     		ldrb	r3, [r3, #5]
 2002 008c 87F84730 		strb	r3, [r7, #71]
 431:.\DisplayBLL.c ****             eepromcardpage = (uint16)EEPROM_DISPENSER_PUMP3_LAYOUT_PAGE;
 2003              		.loc 1 431 0
 2004 0090 4FF42073 		mov	r3, #640
 2005 0094 A7F84430 		strh	r3, [r7, #68]	@ movhi
 432:.\DisplayBLL.c ****             eepromprodpage = (uint16)EEPROM_DISPENSER_PUMP3_PRODUCT_NAMES_PAGE;
 2006              		.loc 1 432 0
 2007 0098 4FF46073 		mov	r3, #896
 2008 009c A7F84230 		strh	r3, [r7, #66]	@ movhi
 433:.\DisplayBLL.c ****             break;
 2009              		.loc 1 433 0
 2010 00a0 0CE0     		b	.L60
 2011              	.L65:
 434:.\DisplayBLL.c ****         case 0x03:
 435:.\DisplayBLL.c ****             numhoses = _g_dispenserlayoutinfo._hosesposition4;
 2012              		.loc 1 435 0
 2013 00a2 AA4B     		ldr	r3, .L94
 2014 00a4 9B79     		ldrb	r3, [r3, #6]
 2015 00a6 87F84730 		strb	r3, [r7, #71]
 436:.\DisplayBLL.c ****             eepromcardpage = (uint16)EEPROM_DISPENSER_PUMP4_LAYOUT_PAGE;
 2016              		.loc 1 436 0
 2017 00aa 4FF43073 		mov	r3, #704
 2018 00ae A7F84430 		strh	r3, [r7, #68]	@ movhi
 437:.\DisplayBLL.c ****             eepromprodpage = (uint16)EEPROM_DISPENSER_PUMP4_PRODUCT_NAMES_PAGE;
 2019              		.loc 1 437 0
 2020 00b2 4FF47073 		mov	r3, #960
 2021 00b6 A7F84230 		strh	r3, [r7, #66]	@ movhi
 438:.\DisplayBLL.c ****             break;
 2022              		.loc 1 438 0
 2023 00ba 00BF     		nop
 2024              	.L60:
 439:.\DisplayBLL.c ****     }    
 440:.\DisplayBLL.c ****     if(pdisplay->_dispid == DISPLAY1)
 2025              		.loc 1 440 0
 2026 00bc FB6B     		ldr	r3, [r7, #60]
 2027 00be 1B78     		ldrb	r3, [r3]	@ zero_extendqisi2
 2028 00c0 002B     		cmp	r3, #0
 2029 00c2 40F00881 		bne	.L66
 2030              	.LBB28:
 441:.\DisplayBLL.c ****     {
 442:.\DisplayBLL.c ****         uint8 cardinals[0x04];
 443:.\DisplayBLL.c ****         
 444:.\DisplayBLL.c ****         I2CBusLock();
ARM GAS  C:\Users\RECEPC~1\AppData\Local\Temp\ccBSLvba.s 			page 45


 2031              		.loc 1 444 0
 2032 00c6 FFF7FEFF 		bl	I2CBusLock
 445:.\DisplayBLL.c ****         ClearEepromBuffer();
 2033              		.loc 1 445 0
 2034 00ca FFF7FEFF 		bl	ClearEepromBuffer
 446:.\DisplayBLL.c ****         LoadEepromPage(eepromcardpage);
 2035              		.loc 1 446 0
 2036 00ce B7F84430 		ldrh	r3, [r7, #68]
 2037 00d2 1846     		mov	r0, r3
 2038 00d4 FFF7FEFF 		bl	LoadEepromPage
 447:.\DisplayBLL.c ****         memcpy(cardinals, &(GetEepromBuffer()[0x01]), 0x04);
 2039              		.loc 1 447 0
 2040 00d8 FFF7FEFF 		bl	GetEepromBuffer
 2041 00dc 0346     		mov	r3, r0
 2042 00de 5A1C     		adds	r2, r3, #1
 2043 00e0 07F11003 		add	r3, r7, #16
 2044 00e4 1068     		ldr	r0, [r2]	@ unaligned
 2045 00e6 1860     		str	r0, [r3]	@ unaligned
 448:.\DisplayBLL.c ****         I2CBusUnlock();
 2046              		.loc 1 448 0
 2047 00e8 FFF7FEFF 		bl	I2CBusUnlock
 449:.\DisplayBLL.c ****         
 450:.\DisplayBLL.c ****         I2CBusLock();
 2048              		.loc 1 450 0
 2049 00ec FFF7FEFF 		bl	I2CBusLock
 451:.\DisplayBLL.c ****         ClearEepromBuffer();
 2050              		.loc 1 451 0
 2051 00f0 FFF7FEFF 		bl	ClearEepromBuffer
 452:.\DisplayBLL.c ****         LoadEepromPage(eepromprodpage);
 2052              		.loc 1 452 0
 2053 00f4 B7F84230 		ldrh	r3, [r7, #66]
 2054 00f8 1846     		mov	r0, r3
 2055 00fa FFF7FEFF 		bl	LoadEepromPage
 453:.\DisplayBLL.c ****         FOR(uint8 index = 0, index < numhoses, index++)
 2056              		.loc 1 453 0
 2057 00fe 0023     		movs	r3, #0
 2058 0100 87F84130 		strb	r3, [r7, #65]
 2059 0104 DDE0     		b	.L67
 2060              	.L78:
 454:.\DisplayBLL.c ****         {
 455:.\DisplayBLL.c ****             switch(cardinals[index])
 2061              		.loc 1 455 0
 2062 0106 97F84130 		ldrb	r3, [r7, #65]	@ zero_extendqisi2
 2063 010a 07F14802 		add	r2, r7, #72
 2064 010e 1344     		add	r3, r3, r2
 2065 0110 13F8383C 		ldrb	r3, [r3, #-56]	@ zero_extendqisi2
 2066 0114 013B     		subs	r3, r3, #1
 2067 0116 032B     		cmp	r3, #3
 2068 0118 00F2CE80 		bhi	.L68
 2069 011c 01A2     		adr	r2, .L70
 2070 011e 52F823F0 		ldr	pc, [r2, r3, lsl #2]
 2071 0122 00BF     		.p2align 2
 2072              	.L70:
 2073 0124 35010000 		.word	.L69+1
 2074 0128 93010000 		.word	.L71+1
 2075 012c F5010000 		.word	.L72+1
 2076 0130 57020000 		.word	.L73+1
ARM GAS  C:\Users\RECEPC~1\AppData\Local\Temp\ccBSLvba.s 			page 46


 2077              		.p2align 1
 2078              	.L69:
 2079              	.LBB29:
 456:.\DisplayBLL.c ****             {
 457:.\DisplayBLL.c ****                 case 0x01:
 458:.\DisplayBLL.c ****                 {
 459:.\DisplayBLL.c ****                     PUARTMESSAGEPTR puartdisp = GetUARTMessageSlot(UART_DISPLAY1);
 2080              		.loc 1 459 0
 2081 0134 A320     		movs	r0, #163
 2082 0136 FFF7FEFF 		bl	GetUARTMessageSlot
 2083 013a B863     		str	r0, [r7, #56]
 460:.\DisplayBLL.c ****                     if(puartdisp)
 2084              		.loc 1 460 0
 2085 013c BB6B     		ldr	r3, [r7, #56]
 2086 013e 002B     		cmp	r3, #0
 2087 0140 26D0     		beq	.L74
 461:.\DisplayBLL.c ****                     {
 462:.\DisplayBLL.c ****                         puartdisp->_messagelength = DisplayOutputString(_g_productscreenpos[index][
 2088              		.loc 1 462 0
 2089 0142 97F84130 		ldrb	r3, [r7, #65]	@ zero_extendqisi2
 2090 0146 824A     		ldr	r2, .L94+4
 2091 0148 32F82360 		ldrh	r6, [r2, r3, lsl #2]
 2092 014c 97F84130 		ldrb	r3, [r7, #65]	@ zero_extendqisi2
 2093 0150 7F4A     		ldr	r2, .L94+4
 2094 0152 9B00     		lsls	r3, r3, #2
 2095 0154 1344     		add	r3, r3, r2
 2096 0156 5D88     		ldrh	r5, [r3, #2]
 2097 0158 BB6B     		ldr	r3, [r7, #56]
 2098 015a 1C1D     		adds	r4, r3, #4
 2099 015c FFF7FEFF 		bl	GetEepromBuffer
 2100 0160 8646     		mov	lr, r0
 2101 0162 1023     		movs	r3, #16
 2102 0164 0093     		str	r3, [sp]
 2103 0166 01AA     		add	r2, sp, #4
 2104 0168 07F11403 		add	r3, r7, #20
 2105 016c 93E80300 		ldmia	r3, {r0, r1}
 2106 0170 82E80300 		stmia	r2, {r0, r1}
 2107 0174 3046     		mov	r0, r6
 2108 0176 2946     		mov	r1, r5
 2109 0178 2246     		mov	r2, r4
 2110 017a 7346     		mov	r3, lr
 2111 017c FFF7FEFF 		bl	DisplayOutputString
 2112 0180 0346     		mov	r3, r0
 2113 0182 1A46     		mov	r2, r3
 2114 0184 BB6B     		ldr	r3, [r7, #56]
 2115 0186 5A80     		strh	r2, [r3, #2]	@ movhi
 463:.\DisplayBLL.c ****                         puartdisp->_messagestate = PENDING;
 2116              		.loc 1 463 0
 2117 0188 BB6B     		ldr	r3, [r7, #56]
 2118 018a C222     		movs	r2, #194
 2119 018c 1A70     		strb	r2, [r3]
 464:.\DisplayBLL.c ****                     }
 465:.\DisplayBLL.c ****                     break;
 2120              		.loc 1 465 0
 2121 018e 93E0     		b	.L68
 2122              	.L74:
 2123 0190 92E0     		b	.L68
ARM GAS  C:\Users\RECEPC~1\AppData\Local\Temp\ccBSLvba.s 			page 47


 2124              	.L71:
 2125              	.LBE29:
 2126              	.LBB30:
 466:.\DisplayBLL.c ****                 }
 467:.\DisplayBLL.c ****                 case 0x02:
 468:.\DisplayBLL.c ****                 {
 469:.\DisplayBLL.c ****                     PUARTMESSAGEPTR puartdisp = GetUARTMessageSlot(UART_DISPLAY1);
 2127              		.loc 1 469 0
 2128 0192 A320     		movs	r0, #163
 2129 0194 FFF7FEFF 		bl	GetUARTMessageSlot
 2130 0198 7863     		str	r0, [r7, #52]
 470:.\DisplayBLL.c ****                     if(puartdisp)
 2131              		.loc 1 470 0
 2132 019a 7B6B     		ldr	r3, [r7, #52]
 2133 019c 002B     		cmp	r3, #0
 2134 019e 28D0     		beq	.L75
 471:.\DisplayBLL.c ****                     {
 472:.\DisplayBLL.c ****                         puartdisp->_messagelength = DisplayOutputString(_g_productscreenpos[index][
 2135              		.loc 1 472 0
 2136 01a0 97F84130 		ldrb	r3, [r7, #65]	@ zero_extendqisi2
 2137 01a4 6A4A     		ldr	r2, .L94+4
 2138 01a6 32F82380 		ldrh	r8, [r2, r3, lsl #2]
 2139 01aa 97F84130 		ldrb	r3, [r7, #65]	@ zero_extendqisi2
 2140 01ae 684A     		ldr	r2, .L94+4
 2141 01b0 9B00     		lsls	r3, r3, #2
 2142 01b2 1344     		add	r3, r3, r2
 2143 01b4 5E88     		ldrh	r6, [r3, #2]
 2144 01b6 7B6B     		ldr	r3, [r7, #52]
 2145 01b8 1D1D     		adds	r5, r3, #4
 2146 01ba FFF7FEFF 		bl	GetEepromBuffer
 2147 01be 0346     		mov	r3, r0
 2148 01c0 03F11004 		add	r4, r3, #16
 2149 01c4 1023     		movs	r3, #16
 2150 01c6 0093     		str	r3, [sp]
 2151 01c8 01AA     		add	r2, sp, #4
 2152 01ca 07F11403 		add	r3, r7, #20
 2153 01ce 93E80300 		ldmia	r3, {r0, r1}
 2154 01d2 82E80300 		stmia	r2, {r0, r1}
 2155 01d6 4046     		mov	r0, r8
 2156 01d8 3146     		mov	r1, r6
 2157 01da 2A46     		mov	r2, r5
 2158 01dc 2346     		mov	r3, r4
 2159 01de FFF7FEFF 		bl	DisplayOutputString
 2160 01e2 0346     		mov	r3, r0
 2161 01e4 1A46     		mov	r2, r3
 2162 01e6 7B6B     		ldr	r3, [r7, #52]
 2163 01e8 5A80     		strh	r2, [r3, #2]	@ movhi
 473:.\DisplayBLL.c ****                         puartdisp->_messagestate = PENDING;
 2164              		.loc 1 473 0
 2165 01ea 7B6B     		ldr	r3, [r7, #52]
 2166 01ec C222     		movs	r2, #194
 2167 01ee 1A70     		strb	r2, [r3]
 474:.\DisplayBLL.c ****                     }
 475:.\DisplayBLL.c ****                     break;
 2168              		.loc 1 475 0
 2169 01f0 62E0     		b	.L68
 2170              	.L75:
ARM GAS  C:\Users\RECEPC~1\AppData\Local\Temp\ccBSLvba.s 			page 48


 2171 01f2 61E0     		b	.L68
 2172              	.L72:
 2173              	.LBE30:
 2174              	.LBB31:
 476:.\DisplayBLL.c ****                 }
 477:.\DisplayBLL.c ****                 case 0x03:
 478:.\DisplayBLL.c ****                 {
 479:.\DisplayBLL.c ****                     PUARTMESSAGEPTR puartdisp = GetUARTMessageSlot(UART_DISPLAY1);
 2175              		.loc 1 479 0
 2176 01f4 A320     		movs	r0, #163
 2177 01f6 FFF7FEFF 		bl	GetUARTMessageSlot
 2178 01fa 3863     		str	r0, [r7, #48]
 480:.\DisplayBLL.c ****                     if(puartdisp)
 2179              		.loc 1 480 0
 2180 01fc 3B6B     		ldr	r3, [r7, #48]
 2181 01fe 002B     		cmp	r3, #0
 2182 0200 28D0     		beq	.L76
 481:.\DisplayBLL.c ****                     {
 482:.\DisplayBLL.c ****                         puartdisp->_messagelength = DisplayOutputString(_g_productscreenpos[index][
 2183              		.loc 1 482 0
 2184 0202 97F84130 		ldrb	r3, [r7, #65]	@ zero_extendqisi2
 2185 0206 524A     		ldr	r2, .L94+4
 2186 0208 32F82380 		ldrh	r8, [r2, r3, lsl #2]
 2187 020c 97F84130 		ldrb	r3, [r7, #65]	@ zero_extendqisi2
 2188 0210 4F4A     		ldr	r2, .L94+4
 2189 0212 9B00     		lsls	r3, r3, #2
 2190 0214 1344     		add	r3, r3, r2
 2191 0216 5E88     		ldrh	r6, [r3, #2]
 2192 0218 3B6B     		ldr	r3, [r7, #48]
 2193 021a 1D1D     		adds	r5, r3, #4
 2194 021c FFF7FEFF 		bl	GetEepromBuffer
 2195 0220 0346     		mov	r3, r0
 2196 0222 03F12004 		add	r4, r3, #32
 2197 0226 1023     		movs	r3, #16
 2198 0228 0093     		str	r3, [sp]
 2199 022a 01AA     		add	r2, sp, #4
 2200 022c 07F11403 		add	r3, r7, #20
 2201 0230 93E80300 		ldmia	r3, {r0, r1}
 2202 0234 82E80300 		stmia	r2, {r0, r1}
 2203 0238 4046     		mov	r0, r8
 2204 023a 3146     		mov	r1, r6
 2205 023c 2A46     		mov	r2, r5
 2206 023e 2346     		mov	r3, r4
 2207 0240 FFF7FEFF 		bl	DisplayOutputString
 2208 0244 0346     		mov	r3, r0
 2209 0246 1A46     		mov	r2, r3
 2210 0248 3B6B     		ldr	r3, [r7, #48]
 2211 024a 5A80     		strh	r2, [r3, #2]	@ movhi
 483:.\DisplayBLL.c ****                         puartdisp->_messagestate = PENDING;
 2212              		.loc 1 483 0
 2213 024c 3B6B     		ldr	r3, [r7, #48]
 2214 024e C222     		movs	r2, #194
 2215 0250 1A70     		strb	r2, [r3]
 484:.\DisplayBLL.c ****                     }
 485:.\DisplayBLL.c ****                     break;
 2216              		.loc 1 485 0
 2217 0252 31E0     		b	.L68
ARM GAS  C:\Users\RECEPC~1\AppData\Local\Temp\ccBSLvba.s 			page 49


 2218              	.L76:
 2219 0254 30E0     		b	.L68
 2220              	.L73:
 2221              	.LBE31:
 2222              	.LBB32:
 486:.\DisplayBLL.c ****                 }
 487:.\DisplayBLL.c ****                 case 0x04:
 488:.\DisplayBLL.c ****                 {
 489:.\DisplayBLL.c ****                     PUARTMESSAGEPTR puartdisp = GetUARTMessageSlot(UART_DISPLAY1);
 2223              		.loc 1 489 0
 2224 0256 A320     		movs	r0, #163
 2225 0258 FFF7FEFF 		bl	GetUARTMessageSlot
 2226 025c F862     		str	r0, [r7, #44]
 490:.\DisplayBLL.c ****                     if(puartdisp)
 2227              		.loc 1 490 0
 2228 025e FB6A     		ldr	r3, [r7, #44]
 2229 0260 002B     		cmp	r3, #0
 2230 0262 28D0     		beq	.L77
 491:.\DisplayBLL.c ****                     {
 492:.\DisplayBLL.c ****                         puartdisp->_messagelength = DisplayOutputString(_g_productscreenpos[index][
 2231              		.loc 1 492 0
 2232 0264 97F84130 		ldrb	r3, [r7, #65]	@ zero_extendqisi2
 2233 0268 394A     		ldr	r2, .L94+4
 2234 026a 32F82380 		ldrh	r8, [r2, r3, lsl #2]
 2235 026e 97F84130 		ldrb	r3, [r7, #65]	@ zero_extendqisi2
 2236 0272 374A     		ldr	r2, .L94+4
 2237 0274 9B00     		lsls	r3, r3, #2
 2238 0276 1344     		add	r3, r3, r2
 2239 0278 5E88     		ldrh	r6, [r3, #2]
 2240 027a FB6A     		ldr	r3, [r7, #44]
 2241 027c 1D1D     		adds	r5, r3, #4
 2242 027e FFF7FEFF 		bl	GetEepromBuffer
 2243 0282 0346     		mov	r3, r0
 2244 0284 03F13004 		add	r4, r3, #48
 2245 0288 1023     		movs	r3, #16
 2246 028a 0093     		str	r3, [sp]
 2247 028c 01AA     		add	r2, sp, #4
 2248 028e 07F11403 		add	r3, r7, #20
 2249 0292 93E80300 		ldmia	r3, {r0, r1}
 2250 0296 82E80300 		stmia	r2, {r0, r1}
 2251 029a 4046     		mov	r0, r8
 2252 029c 3146     		mov	r1, r6
 2253 029e 2A46     		mov	r2, r5
 2254 02a0 2346     		mov	r3, r4
 2255 02a2 FFF7FEFF 		bl	DisplayOutputString
 2256 02a6 0346     		mov	r3, r0
 2257 02a8 1A46     		mov	r2, r3
 2258 02aa FB6A     		ldr	r3, [r7, #44]
 2259 02ac 5A80     		strh	r2, [r3, #2]	@ movhi
 493:.\DisplayBLL.c ****                         puartdisp->_messagestate = PENDING;
 2260              		.loc 1 493 0
 2261 02ae FB6A     		ldr	r3, [r7, #44]
 2262 02b0 C222     		movs	r2, #194
 2263 02b2 1A70     		strb	r2, [r3]
 494:.\DisplayBLL.c ****                     }
 495:.\DisplayBLL.c ****                     break;
 2264              		.loc 1 495 0
ARM GAS  C:\Users\RECEPC~1\AppData\Local\Temp\ccBSLvba.s 			page 50


 2265 02b4 FFE7     		b	.L92
 2266              	.L77:
 2267              	.L92:
 2268 02b6 00BF     		nop
 2269              	.L68:
 2270              	.LBE32:
 453:.\DisplayBLL.c ****         {
 2271              		.loc 1 453 0 discriminator 2
 2272 02b8 97F84130 		ldrb	r3, [r7, #65]	@ zero_extendqisi2
 2273 02bc 0133     		adds	r3, r3, #1
 2274 02be 87F84130 		strb	r3, [r7, #65]
 2275              	.L67:
 453:.\DisplayBLL.c ****         {
 2276              		.loc 1 453 0 is_stmt 0 discriminator 1
 2277 02c2 97F84120 		ldrb	r2, [r7, #65]	@ zero_extendqisi2
 2278 02c6 97F84730 		ldrb	r3, [r7, #71]	@ zero_extendqisi2
 2279 02ca 9A42     		cmp	r2, r3
 2280 02cc FFF41BAF 		bcc	.L78
 496:.\DisplayBLL.c ****                 }
 497:.\DisplayBLL.c ****             }
 498:.\DisplayBLL.c ****         }
 499:.\DisplayBLL.c ****         I2CBusUnlock();
 2281              		.loc 1 499 0 is_stmt 1
 2282 02d0 FFF7FEFF 		bl	I2CBusUnlock
 2283              	.LBE28:
 2284 02d4 0EE1     		b	.L59
 2285              	.L66:
 500:.\DisplayBLL.c ****     }
 501:.\DisplayBLL.c ****     else if(pdisplay->_dispid == DISPLAY2)
 2286              		.loc 1 501 0
 2287 02d6 FB6B     		ldr	r3, [r7, #60]
 2288 02d8 1B78     		ldrb	r3, [r3]	@ zero_extendqisi2
 2289 02da 012B     		cmp	r3, #1
 2290 02dc 40F00A81 		bne	.L59
 2291              	.LBB33:
 502:.\DisplayBLL.c ****     {
 503:.\DisplayBLL.c ****         uint8 cardinals[0x04];
 504:.\DisplayBLL.c ****         
 505:.\DisplayBLL.c ****         I2CBusLock();
 2292              		.loc 1 505 0
 2293 02e0 FFF7FEFF 		bl	I2CBusLock
 506:.\DisplayBLL.c ****         ClearEepromBuffer();
 2294              		.loc 1 506 0
 2295 02e4 FFF7FEFF 		bl	ClearEepromBuffer
 507:.\DisplayBLL.c ****         LoadEepromPage(eepromcardpage);
 2296              		.loc 1 507 0
 2297 02e8 B7F84430 		ldrh	r3, [r7, #68]
 2298 02ec 1846     		mov	r0, r3
 2299 02ee FFF7FEFF 		bl	LoadEepromPage
 508:.\DisplayBLL.c ****         memcpy(cardinals, &GetEepromBuffer()[0x01], 0x04);
 2300              		.loc 1 508 0
 2301 02f2 FFF7FEFF 		bl	GetEepromBuffer
 2302 02f6 0346     		mov	r3, r0
 2303 02f8 5A1C     		adds	r2, r3, #1
 2304 02fa 07F10C03 		add	r3, r7, #12
 2305 02fe 1068     		ldr	r0, [r2]	@ unaligned
 2306 0300 1860     		str	r0, [r3]	@ unaligned
ARM GAS  C:\Users\RECEPC~1\AppData\Local\Temp\ccBSLvba.s 			page 51


 509:.\DisplayBLL.c ****         I2CBusUnlock();
 2307              		.loc 1 509 0
 2308 0302 FFF7FEFF 		bl	I2CBusUnlock
 510:.\DisplayBLL.c ****         
 511:.\DisplayBLL.c ****         I2CBusLock();
 2309              		.loc 1 511 0
 2310 0306 FFF7FEFF 		bl	I2CBusLock
 512:.\DisplayBLL.c ****         ClearEepromBuffer();
 2311              		.loc 1 512 0
 2312 030a FFF7FEFF 		bl	ClearEepromBuffer
 513:.\DisplayBLL.c ****         LoadEepromPage(eepromprodpage);
 2313              		.loc 1 513 0
 2314 030e B7F84230 		ldrh	r3, [r7, #66]
 2315 0312 1846     		mov	r0, r3
 2316 0314 FFF7FEFF 		bl	LoadEepromPage
 514:.\DisplayBLL.c ****         FOR(uint8 index = 0, index < numhoses, index++)
 2317              		.loc 1 514 0
 2318 0318 0023     		movs	r3, #0
 2319 031a 87F84030 		strb	r3, [r7, #64]
 2320 031e E0E0     		b	.L80
 2321              	.L91:
 515:.\DisplayBLL.c ****         {
 516:.\DisplayBLL.c ****             switch(cardinals[index])
 2322              		.loc 1 516 0
 2323 0320 97F84030 		ldrb	r3, [r7, #64]	@ zero_extendqisi2
 2324 0324 07F14802 		add	r2, r7, #72
 2325 0328 1344     		add	r3, r3, r2
 2326 032a 13F83C3C 		ldrb	r3, [r3, #-60]	@ zero_extendqisi2
 2327 032e 013B     		subs	r3, r3, #1
 2328 0330 032B     		cmp	r3, #3
 2329 0332 00F2D180 		bhi	.L81
 2330 0336 01A2     		adr	r2, .L83
 2331 0338 52F823F0 		ldr	pc, [r2, r3, lsl #2]
 2332              		.p2align 2
 2333              	.L83:
 2334 033c 55030000 		.word	.L82+1
 2335 0340 B3030000 		.word	.L84+1
 2336 0344 15040000 		.word	.L85+1
 2337 0348 77040000 		.word	.L86+1
 2338              		.p2align 1
 2339              	.L95:
 2340              		.align	2
 2341              	.L94:
 2342 034c 00000000 		.word	_g_dispenserlayoutinfo
 2343 0350 00000000 		.word	_g_productscreenpos
 2344              	.L82:
 2345              	.LBB34:
 517:.\DisplayBLL.c ****             {
 518:.\DisplayBLL.c ****                 case 0x01:
 519:.\DisplayBLL.c ****                 {
 520:.\DisplayBLL.c ****                     PUARTMESSAGEPTR puartdisp = GetUARTMessageSlot(UART_DISPLAY2);
 2346              		.loc 1 520 0
 2347 0354 A420     		movs	r0, #164
 2348 0356 FFF7FEFF 		bl	GetUARTMessageSlot
 2349 035a B862     		str	r0, [r7, #40]
 521:.\DisplayBLL.c ****                     if(puartdisp)
 2350              		.loc 1 521 0
ARM GAS  C:\Users\RECEPC~1\AppData\Local\Temp\ccBSLvba.s 			page 52


 2351 035c BB6A     		ldr	r3, [r7, #40]
 2352 035e 002B     		cmp	r3, #0
 2353 0360 26D0     		beq	.L87
 522:.\DisplayBLL.c ****                     {
 523:.\DisplayBLL.c ****                         puartdisp->_messagelength = DisplayOutputString(_g_productscreenpos[index][
 2354              		.loc 1 523 0
 2355 0362 97F84030 		ldrb	r3, [r7, #64]	@ zero_extendqisi2
 2356 0366 654A     		ldr	r2, .L96
 2357 0368 32F82360 		ldrh	r6, [r2, r3, lsl #2]
 2358 036c 97F84030 		ldrb	r3, [r7, #64]	@ zero_extendqisi2
 2359 0370 624A     		ldr	r2, .L96
 2360 0372 9B00     		lsls	r3, r3, #2
 2361 0374 1344     		add	r3, r3, r2
 2362 0376 5D88     		ldrh	r5, [r3, #2]
 2363 0378 BB6A     		ldr	r3, [r7, #40]
 2364 037a 1C1D     		adds	r4, r3, #4
 2365 037c FFF7FEFF 		bl	GetEepromBuffer
 2366 0380 8646     		mov	lr, r0
 2367 0382 1023     		movs	r3, #16
 2368 0384 0093     		str	r3, [sp]
 2369 0386 01AA     		add	r2, sp, #4
 2370 0388 07F11403 		add	r3, r7, #20
 2371 038c 93E80300 		ldmia	r3, {r0, r1}
 2372 0390 82E80300 		stmia	r2, {r0, r1}
 2373 0394 3046     		mov	r0, r6
 2374 0396 2946     		mov	r1, r5
 2375 0398 2246     		mov	r2, r4
 2376 039a 7346     		mov	r3, lr
 2377 039c FFF7FEFF 		bl	DisplayOutputString
 2378 03a0 0346     		mov	r3, r0
 2379 03a2 1A46     		mov	r2, r3
 2380 03a4 BB6A     		ldr	r3, [r7, #40]
 2381 03a6 5A80     		strh	r2, [r3, #2]	@ movhi
 524:.\DisplayBLL.c ****                         puartdisp->_messagestate = PENDING;
 2382              		.loc 1 524 0
 2383 03a8 BB6A     		ldr	r3, [r7, #40]
 2384 03aa C222     		movs	r2, #194
 2385 03ac 1A70     		strb	r2, [r3]
 525:.\DisplayBLL.c ****                     }
 526:.\DisplayBLL.c ****                     break;
 2386              		.loc 1 526 0
 2387 03ae 93E0     		b	.L81
 2388              	.L87:
 2389 03b0 92E0     		b	.L81
 2390              	.L84:
 2391              	.LBE34:
 2392              	.LBB35:
 527:.\DisplayBLL.c ****                 }
 528:.\DisplayBLL.c ****                 case 0x02:
 529:.\DisplayBLL.c ****                 {
 530:.\DisplayBLL.c ****                     PUARTMESSAGEPTR puartdisp = GetUARTMessageSlot(UART_DISPLAY2);
 2393              		.loc 1 530 0
 2394 03b2 A420     		movs	r0, #164
 2395 03b4 FFF7FEFF 		bl	GetUARTMessageSlot
 2396 03b8 7862     		str	r0, [r7, #36]
 531:.\DisplayBLL.c ****                     if(puartdisp)
 2397              		.loc 1 531 0
ARM GAS  C:\Users\RECEPC~1\AppData\Local\Temp\ccBSLvba.s 			page 53


 2398 03ba 7B6A     		ldr	r3, [r7, #36]
 2399 03bc 002B     		cmp	r3, #0
 2400 03be 28D0     		beq	.L88
 532:.\DisplayBLL.c ****                     {
 533:.\DisplayBLL.c ****                         puartdisp->_messagelength = DisplayOutputString(_g_productscreenpos[index][
 2401              		.loc 1 533 0
 2402 03c0 97F84030 		ldrb	r3, [r7, #64]	@ zero_extendqisi2
 2403 03c4 4D4A     		ldr	r2, .L96
 2404 03c6 32F82380 		ldrh	r8, [r2, r3, lsl #2]
 2405 03ca 97F84030 		ldrb	r3, [r7, #64]	@ zero_extendqisi2
 2406 03ce 4B4A     		ldr	r2, .L96
 2407 03d0 9B00     		lsls	r3, r3, #2
 2408 03d2 1344     		add	r3, r3, r2
 2409 03d4 5E88     		ldrh	r6, [r3, #2]
 2410 03d6 7B6A     		ldr	r3, [r7, #36]
 2411 03d8 1D1D     		adds	r5, r3, #4
 2412 03da FFF7FEFF 		bl	GetEepromBuffer
 2413 03de 0346     		mov	r3, r0
 2414 03e0 03F11004 		add	r4, r3, #16
 2415 03e4 1023     		movs	r3, #16
 2416 03e6 0093     		str	r3, [sp]
 2417 03e8 01AA     		add	r2, sp, #4
 2418 03ea 07F11403 		add	r3, r7, #20
 2419 03ee 93E80300 		ldmia	r3, {r0, r1}
 2420 03f2 82E80300 		stmia	r2, {r0, r1}
 2421 03f6 4046     		mov	r0, r8
 2422 03f8 3146     		mov	r1, r6
 2423 03fa 2A46     		mov	r2, r5
 2424 03fc 2346     		mov	r3, r4
 2425 03fe FFF7FEFF 		bl	DisplayOutputString
 2426 0402 0346     		mov	r3, r0
 2427 0404 1A46     		mov	r2, r3
 2428 0406 7B6A     		ldr	r3, [r7, #36]
 2429 0408 5A80     		strh	r2, [r3, #2]	@ movhi
 534:.\DisplayBLL.c ****                         puartdisp->_messagestate = PENDING;
 2430              		.loc 1 534 0
 2431 040a 7B6A     		ldr	r3, [r7, #36]
 2432 040c C222     		movs	r2, #194
 2433 040e 1A70     		strb	r2, [r3]
 535:.\DisplayBLL.c ****                     }
 536:.\DisplayBLL.c ****                     break;
 2434              		.loc 1 536 0
 2435 0410 62E0     		b	.L81
 2436              	.L88:
 2437 0412 61E0     		b	.L81
 2438              	.L85:
 2439              	.LBE35:
 2440              	.LBB36:
 537:.\DisplayBLL.c ****                 }
 538:.\DisplayBLL.c ****                 case 0x03:
 539:.\DisplayBLL.c ****                 {
 540:.\DisplayBLL.c ****                     PUARTMESSAGEPTR puartdisp = GetUARTMessageSlot(UART_DISPLAY2);
 2441              		.loc 1 540 0
 2442 0414 A420     		movs	r0, #164
 2443 0416 FFF7FEFF 		bl	GetUARTMessageSlot
 2444 041a 3862     		str	r0, [r7, #32]
 541:.\DisplayBLL.c ****                     if(puartdisp)
ARM GAS  C:\Users\RECEPC~1\AppData\Local\Temp\ccBSLvba.s 			page 54


 2445              		.loc 1 541 0
 2446 041c 3B6A     		ldr	r3, [r7, #32]
 2447 041e 002B     		cmp	r3, #0
 2448 0420 28D0     		beq	.L89
 542:.\DisplayBLL.c ****                     {
 543:.\DisplayBLL.c ****                         puartdisp->_messagelength = DisplayOutputString(_g_productscreenpos[index][
 2449              		.loc 1 543 0
 2450 0422 97F84030 		ldrb	r3, [r7, #64]	@ zero_extendqisi2
 2451 0426 354A     		ldr	r2, .L96
 2452 0428 32F82380 		ldrh	r8, [r2, r3, lsl #2]
 2453 042c 97F84030 		ldrb	r3, [r7, #64]	@ zero_extendqisi2
 2454 0430 324A     		ldr	r2, .L96
 2455 0432 9B00     		lsls	r3, r3, #2
 2456 0434 1344     		add	r3, r3, r2
 2457 0436 5E88     		ldrh	r6, [r3, #2]
 2458 0438 3B6A     		ldr	r3, [r7, #32]
 2459 043a 1D1D     		adds	r5, r3, #4
 2460 043c FFF7FEFF 		bl	GetEepromBuffer
 2461 0440 0346     		mov	r3, r0
 2462 0442 03F12004 		add	r4, r3, #32
 2463 0446 1023     		movs	r3, #16
 2464 0448 0093     		str	r3, [sp]
 2465 044a 01AA     		add	r2, sp, #4
 2466 044c 07F11403 		add	r3, r7, #20
 2467 0450 93E80300 		ldmia	r3, {r0, r1}
 2468 0454 82E80300 		stmia	r2, {r0, r1}
 2469 0458 4046     		mov	r0, r8
 2470 045a 3146     		mov	r1, r6
 2471 045c 2A46     		mov	r2, r5
 2472 045e 2346     		mov	r3, r4
 2473 0460 FFF7FEFF 		bl	DisplayOutputString
 2474 0464 0346     		mov	r3, r0
 2475 0466 1A46     		mov	r2, r3
 2476 0468 3B6A     		ldr	r3, [r7, #32]
 2477 046a 5A80     		strh	r2, [r3, #2]	@ movhi
 544:.\DisplayBLL.c ****                         puartdisp->_messagestate = PENDING;
 2478              		.loc 1 544 0
 2479 046c 3B6A     		ldr	r3, [r7, #32]
 2480 046e C222     		movs	r2, #194
 2481 0470 1A70     		strb	r2, [r3]
 545:.\DisplayBLL.c ****                     }
 546:.\DisplayBLL.c ****                     break;
 2482              		.loc 1 546 0
 2483 0472 31E0     		b	.L81
 2484              	.L89:
 2485 0474 30E0     		b	.L81
 2486              	.L86:
 2487              	.LBE36:
 2488              	.LBB37:
 547:.\DisplayBLL.c ****                 }
 548:.\DisplayBLL.c ****                 case 0x04:
 549:.\DisplayBLL.c ****                 {
 550:.\DisplayBLL.c ****                     PUARTMESSAGEPTR puartdisp = GetUARTMessageSlot(UART_DISPLAY2);
 2489              		.loc 1 550 0
 2490 0476 A420     		movs	r0, #164
 2491 0478 FFF7FEFF 		bl	GetUARTMessageSlot
 2492 047c F861     		str	r0, [r7, #28]
ARM GAS  C:\Users\RECEPC~1\AppData\Local\Temp\ccBSLvba.s 			page 55


 551:.\DisplayBLL.c ****                     if(puartdisp)
 2493              		.loc 1 551 0
 2494 047e FB69     		ldr	r3, [r7, #28]
 2495 0480 002B     		cmp	r3, #0
 2496 0482 28D0     		beq	.L90
 552:.\DisplayBLL.c ****                     {
 553:.\DisplayBLL.c ****                         puartdisp->_messagelength = DisplayOutputString(_g_productscreenpos[index][
 2497              		.loc 1 553 0
 2498 0484 97F84030 		ldrb	r3, [r7, #64]	@ zero_extendqisi2
 2499 0488 1C4A     		ldr	r2, .L96
 2500 048a 32F82380 		ldrh	r8, [r2, r3, lsl #2]
 2501 048e 97F84030 		ldrb	r3, [r7, #64]	@ zero_extendqisi2
 2502 0492 1A4A     		ldr	r2, .L96
 2503 0494 9B00     		lsls	r3, r3, #2
 2504 0496 1344     		add	r3, r3, r2
 2505 0498 5E88     		ldrh	r6, [r3, #2]
 2506 049a FB69     		ldr	r3, [r7, #28]
 2507 049c 1D1D     		adds	r5, r3, #4
 2508 049e FFF7FEFF 		bl	GetEepromBuffer
 2509 04a2 0346     		mov	r3, r0
 2510 04a4 03F13004 		add	r4, r3, #48
 2511 04a8 1023     		movs	r3, #16
 2512 04aa 0093     		str	r3, [sp]
 2513 04ac 01AA     		add	r2, sp, #4
 2514 04ae 07F11403 		add	r3, r7, #20
 2515 04b2 93E80300 		ldmia	r3, {r0, r1}
 2516 04b6 82E80300 		stmia	r2, {r0, r1}
 2517 04ba 4046     		mov	r0, r8
 2518 04bc 3146     		mov	r1, r6
 2519 04be 2A46     		mov	r2, r5
 2520 04c0 2346     		mov	r3, r4
 2521 04c2 FFF7FEFF 		bl	DisplayOutputString
 2522 04c6 0346     		mov	r3, r0
 2523 04c8 1A46     		mov	r2, r3
 2524 04ca FB69     		ldr	r3, [r7, #28]
 2525 04cc 5A80     		strh	r2, [r3, #2]	@ movhi
 554:.\DisplayBLL.c ****                         puartdisp->_messagestate = PENDING;
 2526              		.loc 1 554 0
 2527 04ce FB69     		ldr	r3, [r7, #28]
 2528 04d0 C222     		movs	r2, #194
 2529 04d2 1A70     		strb	r2, [r3]
 555:.\DisplayBLL.c ****                     }
 556:.\DisplayBLL.c ****                     break;
 2530              		.loc 1 556 0
 2531 04d4 FFE7     		b	.L93
 2532              	.L90:
 2533              	.L93:
 2534 04d6 00BF     		nop
 2535              	.L81:
 2536              	.LBE37:
 514:.\DisplayBLL.c ****         {
 2537              		.loc 1 514 0 discriminator 2
 2538 04d8 97F84030 		ldrb	r3, [r7, #64]	@ zero_extendqisi2
 2539 04dc 0133     		adds	r3, r3, #1
 2540 04de 87F84030 		strb	r3, [r7, #64]
 2541              	.L80:
 514:.\DisplayBLL.c ****         {
ARM GAS  C:\Users\RECEPC~1\AppData\Local\Temp\ccBSLvba.s 			page 56


 2542              		.loc 1 514 0 is_stmt 0 discriminator 1
 2543 04e2 97F84020 		ldrb	r2, [r7, #64]	@ zero_extendqisi2
 2544 04e6 97F84730 		ldrb	r3, [r7, #71]	@ zero_extendqisi2
 2545 04ea 9A42     		cmp	r2, r3
 2546 04ec FFF418AF 		bcc	.L91
 557:.\DisplayBLL.c ****                 }
 558:.\DisplayBLL.c ****             }
 559:.\DisplayBLL.c ****         }
 560:.\DisplayBLL.c ****         I2CBusUnlock();
 2547              		.loc 1 560 0 is_stmt 1 discriminator 2
 2548 04f0 FFF7FEFF 		bl	I2CBusUnlock
 2549              	.L59:
 2550              	.LBE33:
 561:.\DisplayBLL.c ****     }
 562:.\DisplayBLL.c **** }
 2551              		.loc 1 562 0
 2552 04f4 4837     		adds	r7, r7, #72
 2553              		.cfi_def_cfa_offset 24
 2554 04f6 BD46     		mov	sp, r7
 2555              		.cfi_def_cfa_register 13
 2556              		@ sp needed
 2557 04f8 BDE8F081 		pop	{r4, r5, r6, r7, r8, pc}
 2558              	.L97:
 2559              		.align	2
 2560              	.L96:
 2561 04fc 00000000 		.word	_g_productscreenpos
 2562              		.cfi_endproc
 2563              	.LFE71:
 2564              		.size	ProductNameSelectionDecorator, .-ProductNameSelectionDecorator
 2565              		.section	.rodata
 2566 0127 00       		.align	2
 2567              	.LC17:
 2568 0128 20205045 		.ascii	"  PETICION DE AUTORIZACION RECHAZADA! \000"
 2568      54494349 
 2568      4F4E2044 
 2568      45204155 
 2568      544F5249 
 2569              		.section	.text.RejectedAuthorizationMessageDecorator,"ax",%progbits
 2570              		.align	2
 2571              		.global	RejectedAuthorizationMessageDecorator
 2572              		.thumb
 2573              		.thumb_func
 2574              		.type	RejectedAuthorizationMessageDecorator, %function
 2575              	RejectedAuthorizationMessageDecorator:
 2576              	.LFB72:
 563:.\DisplayBLL.c **** 
 564:.\DisplayBLL.c **** void RejectedAuthorizationMessageDecorator(LPVOID pparam)
 565:.\DisplayBLL.c **** {
 2577              		.loc 1 565 0
 2578              		.cfi_startproc
 2579              		@ args = 0, pretend = 0, frame = 40
 2580              		@ frame_needed = 1, uses_anonymous_args = 0
 2581 0000 F0B5     		push	{r4, r5, r6, r7, lr}
 2582              		.cfi_def_cfa_offset 20
 2583              		.cfi_offset 4, -20
 2584              		.cfi_offset 5, -16
 2585              		.cfi_offset 6, -12
ARM GAS  C:\Users\RECEPC~1\AppData\Local\Temp\ccBSLvba.s 			page 57


 2586              		.cfi_offset 7, -8
 2587              		.cfi_offset 14, -4
 2588 0002 8FB0     		sub	sp, sp, #60
 2589              		.cfi_def_cfa_offset 80
 2590 0004 04AF     		add	r7, sp, #16
 2591              		.cfi_def_cfa 7, 64
 2592 0006 7860     		str	r0, [r7, #4]
 566:.\DisplayBLL.c ****     FontData fontdata;
 567:.\DisplayBLL.c ****     fontdata._size = 0x03;
 2593              		.loc 1 567 0
 2594 0008 0323     		movs	r3, #3
 2595 000a 3B73     		strb	r3, [r7, #12]
 568:.\DisplayBLL.c ****     fontdata._backcolor = 0xFFFF;
 2596              		.loc 1 568 0
 2597 000c 4FF6FF73 		movw	r3, #65535
 2598 0010 3B82     		strh	r3, [r7, #16]	@ movhi
 569:.\DisplayBLL.c ****     fontdata._forecolor = 0x0000;
 2599              		.loc 1 569 0
 2600 0012 0023     		movs	r3, #0
 2601 0014 7B82     		strh	r3, [r7, #18]	@ movhi
 570:.\DisplayBLL.c ****     fontdata._opaquebackground = DISP_TEXT_OPAQUE;
 2602              		.loc 1 570 0
 2603 0016 C523     		movs	r3, #197
 2604 0018 BB73     		strb	r3, [r7, #14]
 571:.\DisplayBLL.c ****     //MOVE ALL OF THESE TEXTS TO THE EEPROM
 572:.\DisplayBLL.c ****     char8 *pmessage[] = 
 2605              		.loc 1 572 0
 2606 001a 4F4B     		ldr	r3, .L102
 2607 001c BB60     		str	r3, [r7, #8]
 573:.\DisplayBLL.c ****     {
 574:.\DisplayBLL.c ****         "  PETICION DE AUTORIZACION RECHAZADA! ",
 575:.\DisplayBLL.c ****     };
 576:.\DisplayBLL.c ****     DisplayLayout *pdisplay = (DisplayLayout*)pparam;
 2608              		.loc 1 576 0
 2609 001e 7B68     		ldr	r3, [r7, #4]
 2610 0020 7B62     		str	r3, [r7, #36]
 577:.\DisplayBLL.c ****     if(pdisplay->_dispid == DISPLAY1)
 2611              		.loc 1 577 0
 2612 0022 7B6A     		ldr	r3, [r7, #36]
 2613 0024 1B78     		ldrb	r3, [r3]	@ zero_extendqisi2
 2614 0026 002B     		cmp	r3, #0
 2615 0028 4AD1     		bne	.L99
 2616              	.LBB38:
 578:.\DisplayBLL.c ****     {
 579:.\DisplayBLL.c ****         UARTMessage *puartdisp = GetUARTMessageSlot(UART_DISPLAY1);
 2617              		.loc 1 579 0
 2618 002a A320     		movs	r0, #163
 2619 002c FFF7FEFF 		bl	GetUARTMessageSlot
 2620 0030 3862     		str	r0, [r7, #32]
 580:.\DisplayBLL.c ****         if(puartdisp)
 2621              		.loc 1 580 0
 2622 0032 3B6A     		ldr	r3, [r7, #32]
 2623 0034 002B     		cmp	r3, #0
 2624 0036 42D0     		beq	.L100
 2625              	.LBB39:
 581:.\DisplayBLL.c ****         {
 582:.\DisplayBLL.c ****             uint8 index = 0;
ARM GAS  C:\Users\RECEPC~1\AppData\Local\Temp\ccBSLvba.s 			page 58


 2626              		.loc 1 582 0
 2627 0038 0023     		movs	r3, #0
 2628 003a FB77     		strb	r3, [r7, #31]
 583:.\DisplayBLL.c ****             uint16 ypos = 0x00BA;
 2629              		.loc 1 583 0
 2630 003c BA23     		movs	r3, #186
 2631 003e BB83     		strh	r3, [r7, #28]	@ movhi
 584:.\DisplayBLL.c ****             puartdisp->_messagelength = 0;
 2632              		.loc 1 584 0
 2633 0040 3B6A     		ldr	r3, [r7, #32]
 2634 0042 0022     		movs	r2, #0
 2635 0044 5A80     		strh	r2, [r3, #2]	@ movhi
 585:.\DisplayBLL.c ****             puartdisp->_messagelength += DisplayOutputString(0x001A, ypos, &puartdisp->_messagetx[p
 2636              		.loc 1 585 0
 2637 0046 3B6A     		ldr	r3, [r7, #32]
 2638 0048 5B88     		ldrh	r3, [r3, #2]	@ movhi
 2639 004a 9BB2     		uxth	r3, r3
 2640 004c 1A46     		mov	r2, r3
 2641 004e 3B6A     		ldr	r3, [r7, #32]
 2642 0050 1344     		add	r3, r3, r2
 2643 0052 1D1D     		adds	r5, r3, #4
 2644 0054 FB7F     		ldrb	r3, [r7, #31]	@ zero_extendqisi2
 2645 0056 9B00     		lsls	r3, r3, #2
 2646 0058 07F12802 		add	r2, r7, #40
 2647 005c 1344     		add	r3, r3, r2
 2648 005e 53F8204C 		ldr	r4, [r3, #-32]
 2649 0062 FB7F     		ldrb	r3, [r7, #31]	@ zero_extendqisi2
 2650 0064 9B00     		lsls	r3, r3, #2
 2651 0066 07F12802 		add	r2, r7, #40
 2652 006a 1344     		add	r3, r3, r2
 2653 006c 53F8203C 		ldr	r3, [r3, #-32]
 2654 0070 1846     		mov	r0, r3
 2655 0072 FFF7FEFF 		bl	strlen
 2656 0076 0346     		mov	r3, r0
 2657 0078 9BB2     		uxth	r3, r3
 2658 007a BE8B     		ldrh	r6, [r7, #28]
 2659 007c 0093     		str	r3, [sp]
 2660 007e 01AA     		add	r2, sp, #4
 2661 0080 07F10C03 		add	r3, r7, #12
 2662 0084 93E80300 		ldmia	r3, {r0, r1}
 2663 0088 82E80300 		stmia	r2, {r0, r1}
 2664 008c 1A20     		movs	r0, #26
 2665 008e 3146     		mov	r1, r6
 2666 0090 2A46     		mov	r2, r5
 2667 0092 2346     		mov	r3, r4
 2668 0094 FFF7FEFF 		bl	DisplayOutputString
 2669 0098 0346     		mov	r3, r0
 2670 009a 1A46     		mov	r2, r3
 2671 009c 3B6A     		ldr	r3, [r7, #32]
 2672 009e 5B88     		ldrh	r3, [r3, #2]	@ movhi
 2673 00a0 9BB2     		uxth	r3, r3
 2674 00a2 1344     		add	r3, r3, r2
 2675 00a4 9AB2     		uxth	r2, r3
 2676 00a6 3B6A     		ldr	r3, [r7, #32]
 2677 00a8 5A80     		strh	r2, [r3, #2]	@ movhi
 586:.\DisplayBLL.c ****             ypos += 0x0020;index++;
 2678              		.loc 1 586 0
ARM GAS  C:\Users\RECEPC~1\AppData\Local\Temp\ccBSLvba.s 			page 59


 2679 00aa BB8B     		ldrh	r3, [r7, #28]	@ movhi
 2680 00ac 2033     		adds	r3, r3, #32
 2681 00ae BB83     		strh	r3, [r7, #28]	@ movhi
 2682 00b0 FB7F     		ldrb	r3, [r7, #31]	@ zero_extendqisi2
 2683 00b2 0133     		adds	r3, r3, #1
 2684 00b4 FB77     		strb	r3, [r7, #31]
 587:.\DisplayBLL.c **** 
 588:.\DisplayBLL.c ****             puartdisp->_messagestate = PENDING;
 2685              		.loc 1 588 0
 2686 00b6 3B6A     		ldr	r3, [r7, #32]
 2687 00b8 C222     		movs	r2, #194
 2688 00ba 1A70     		strb	r2, [r3]
 2689              	.LBE39:
 2690              	.LBE38:
 2691 00bc 49E0     		b	.L98
 2692              	.L100:
 2693 00be 48E0     		b	.L98
 2694              	.L99:
 2695              	.LBB40:
 589:.\DisplayBLL.c ****         }
 590:.\DisplayBLL.c ****     }
 591:.\DisplayBLL.c ****     else
 592:.\DisplayBLL.c ****     {
 593:.\DisplayBLL.c ****         UARTMessage *puartdisp = GetUARTMessageSlot(UART_DISPLAY2);
 2696              		.loc 1 593 0
 2697 00c0 A420     		movs	r0, #164
 2698 00c2 FFF7FEFF 		bl	GetUARTMessageSlot
 2699 00c6 B861     		str	r0, [r7, #24]
 594:.\DisplayBLL.c ****         if(puartdisp)
 2700              		.loc 1 594 0
 2701 00c8 BB69     		ldr	r3, [r7, #24]
 2702 00ca 002B     		cmp	r3, #0
 2703 00cc 41D0     		beq	.L98
 2704              	.LBB41:
 595:.\DisplayBLL.c ****         {
 596:.\DisplayBLL.c ****             uint8 index = 0;
 2705              		.loc 1 596 0
 2706 00ce 0023     		movs	r3, #0
 2707 00d0 FB75     		strb	r3, [r7, #23]
 597:.\DisplayBLL.c ****             uint16 ypos = 0x00BA;
 2708              		.loc 1 597 0
 2709 00d2 BA23     		movs	r3, #186
 2710 00d4 BB82     		strh	r3, [r7, #20]	@ movhi
 598:.\DisplayBLL.c ****             puartdisp->_messagelength = 0;
 2711              		.loc 1 598 0
 2712 00d6 BB69     		ldr	r3, [r7, #24]
 2713 00d8 0022     		movs	r2, #0
 2714 00da 5A80     		strh	r2, [r3, #2]	@ movhi
 599:.\DisplayBLL.c ****             puartdisp->_messagelength += DisplayOutputString(0x001A, ypos, &puartdisp->_messagetx[p
 2715              		.loc 1 599 0
 2716 00dc BB69     		ldr	r3, [r7, #24]
 2717 00de 5B88     		ldrh	r3, [r3, #2]	@ movhi
 2718 00e0 9BB2     		uxth	r3, r3
 2719 00e2 1A46     		mov	r2, r3
 2720 00e4 BB69     		ldr	r3, [r7, #24]
 2721 00e6 1344     		add	r3, r3, r2
 2722 00e8 1D1D     		adds	r5, r3, #4
ARM GAS  C:\Users\RECEPC~1\AppData\Local\Temp\ccBSLvba.s 			page 60


 2723 00ea FB7D     		ldrb	r3, [r7, #23]	@ zero_extendqisi2
 2724 00ec 9B00     		lsls	r3, r3, #2
 2725 00ee 07F12802 		add	r2, r7, #40
 2726 00f2 1344     		add	r3, r3, r2
 2727 00f4 53F8204C 		ldr	r4, [r3, #-32]
 2728 00f8 FB7D     		ldrb	r3, [r7, #23]	@ zero_extendqisi2
 2729 00fa 9B00     		lsls	r3, r3, #2
 2730 00fc 07F12802 		add	r2, r7, #40
 2731 0100 1344     		add	r3, r3, r2
 2732 0102 53F8203C 		ldr	r3, [r3, #-32]
 2733 0106 1846     		mov	r0, r3
 2734 0108 FFF7FEFF 		bl	strlen
 2735 010c 0346     		mov	r3, r0
 2736 010e 9BB2     		uxth	r3, r3
 2737 0110 BE8A     		ldrh	r6, [r7, #20]
 2738 0112 0093     		str	r3, [sp]
 2739 0114 01AA     		add	r2, sp, #4
 2740 0116 07F10C03 		add	r3, r7, #12
 2741 011a 93E80300 		ldmia	r3, {r0, r1}
 2742 011e 82E80300 		stmia	r2, {r0, r1}
 2743 0122 1A20     		movs	r0, #26
 2744 0124 3146     		mov	r1, r6
 2745 0126 2A46     		mov	r2, r5
 2746 0128 2346     		mov	r3, r4
 2747 012a FFF7FEFF 		bl	DisplayOutputString
 2748 012e 0346     		mov	r3, r0
 2749 0130 1A46     		mov	r2, r3
 2750 0132 BB69     		ldr	r3, [r7, #24]
 2751 0134 5B88     		ldrh	r3, [r3, #2]	@ movhi
 2752 0136 9BB2     		uxth	r3, r3
 2753 0138 1344     		add	r3, r3, r2
 2754 013a 9AB2     		uxth	r2, r3
 2755 013c BB69     		ldr	r3, [r7, #24]
 2756 013e 5A80     		strh	r2, [r3, #2]	@ movhi
 600:.\DisplayBLL.c ****             ypos += 0x0020;index++;
 2757              		.loc 1 600 0
 2758 0140 BB8A     		ldrh	r3, [r7, #20]	@ movhi
 2759 0142 2033     		adds	r3, r3, #32
 2760 0144 BB82     		strh	r3, [r7, #20]	@ movhi
 2761 0146 FB7D     		ldrb	r3, [r7, #23]	@ zero_extendqisi2
 2762 0148 0133     		adds	r3, r3, #1
 2763 014a FB75     		strb	r3, [r7, #23]
 601:.\DisplayBLL.c ****             
 602:.\DisplayBLL.c ****             puartdisp->_messagestate = PENDING;
 2764              		.loc 1 602 0
 2765 014c BB69     		ldr	r3, [r7, #24]
 2766 014e C222     		movs	r2, #194
 2767 0150 1A70     		strb	r2, [r3]
 2768              	.L98:
 2769              	.LBE41:
 2770              	.LBE40:
 603:.\DisplayBLL.c ****         }
 604:.\DisplayBLL.c ****     }
 605:.\DisplayBLL.c **** }
 2771              		.loc 1 605 0
 2772 0152 2C37     		adds	r7, r7, #44
 2773              		.cfi_def_cfa_offset 20
ARM GAS  C:\Users\RECEPC~1\AppData\Local\Temp\ccBSLvba.s 			page 61


 2774 0154 BD46     		mov	sp, r7
 2775              		.cfi_def_cfa_register 13
 2776              		@ sp needed
 2777 0156 F0BD     		pop	{r4, r5, r6, r7, pc}
 2778              	.L103:
 2779              		.align	2
 2780              	.L102:
 2781 0158 28010000 		.word	.LC17
 2782              		.cfi_endproc
 2783              	.LFE72:
 2784              		.size	RejectedAuthorizationMessageDecorator, .-RejectedAuthorizationMessageDecorator
 2785              		.section	.text.ValidateAuthorizationResponse4Credit,"ax",%progbits
 2786              		.align	2
 2787              		.global	ValidateAuthorizationResponse4Credit
 2788              		.thumb
 2789              		.thumb_func
 2790              		.type	ValidateAuthorizationResponse4Credit, %function
 2791              	ValidateAuthorizationResponse4Credit:
 2792              	.LFB73:
 606:.\DisplayBLL.c **** 
 607:.\DisplayBLL.c **** void ValidateAuthorizationResponse4Credit(LPVOID pparam)
 608:.\DisplayBLL.c **** {
 2793              		.loc 1 608 0
 2794              		.cfi_startproc
 2795              		@ args = 0, pretend = 0, frame = 16
 2796              		@ frame_needed = 1, uses_anonymous_args = 0
 2797 0000 90B5     		push	{r4, r7, lr}
 2798              		.cfi_def_cfa_offset 12
 2799              		.cfi_offset 4, -12
 2800              		.cfi_offset 7, -8
 2801              		.cfi_offset 14, -4
 2802 0002 85B0     		sub	sp, sp, #20
 2803              		.cfi_def_cfa_offset 32
 2804 0004 00AF     		add	r7, sp, #0
 2805              		.cfi_def_cfa_register 7
 2806 0006 7860     		str	r0, [r7, #4]
 609:.\DisplayBLL.c ****     PDISPLAYLAYOUTPTR pdisplay = (PDISPLAYLAYOUTPTR)pparam;
 2807              		.loc 1 609 0
 2808 0008 7B68     		ldr	r3, [r7, #4]
 2809 000a FB60     		str	r3, [r7, #12]
 610:.\DisplayBLL.c ****     PNEAR_PUMPPTR ppumpptr = &_g_pumps[GetPumpIndexFromDisplay(pdisplay)];
 2810              		.loc 1 610 0
 2811 000c F868     		ldr	r0, [r7, #12]
 2812 000e FFF7FEFF 		bl	GetPumpIndexFromDisplay
 2813 0012 0346     		mov	r3, r0
 2814 0014 1A46     		mov	r2, r3
 2815 0016 40F69833 		movw	r3, #2968
 2816 001a 03FB02F3 		mul	r3, r3, r2
 2817 001e 1C4A     		ldr	r2, .L107
 2818 0020 1344     		add	r3, r3, r2
 2819 0022 BB60     		str	r3, [r7, #8]
 611:.\DisplayBLL.c ****     if(ppumpptr->_authorizationinfo._authorized)
 2820              		.loc 1 611 0
 2821 0024 BB68     		ldr	r3, [r7, #8]
 2822 0026 93F8783B 		ldrb	r3, [r3, #2936]
 2823 002a DBB2     		uxtb	r3, r3
 2824 002c 002B     		cmp	r3, #0
ARM GAS  C:\Users\RECEPC~1\AppData\Local\Temp\ccBSLvba.s 			page 62


 2825 002e 28D0     		beq	.L105
 612:.\DisplayBLL.c ****     {
 613:.\DisplayBLL.c ****         //THE AUTHORIZATION INFORMATION IS READY IN THE "PUMPAUTHORIZATIONINFO" STRUCTURE
 614:.\DisplayBLL.c ****         //SO HERE WE ONLY NEED TO CONTINUE THE "DISPLAY FLOW" TO ITS END AND THEN POST THE
 615:.\DisplayBLL.c ****         //INFORMATION TO THE "PRIME FLOW".        
 616:.\DisplayBLL.c ****         ppumpptr->_authorizationinfo._authorized = false;
 2826              		.loc 1 616 0
 2827 0030 BB68     		ldr	r3, [r7, #8]
 2828 0032 0022     		movs	r2, #0
 2829 0034 83F8782B 		strb	r2, [r3, #2936]
 617:.\DisplayBLL.c ****         //Select printing the default number of copies        
 618:.\DisplayBLL.c ****         memset(&((PSINKMESSAGEPTR)pdisplay->_psequesteredmessagesink)->_buffer[GetBufferIndexFromDi
 2830              		.loc 1 618 0
 2831 0038 FB68     		ldr	r3, [r7, #12]
 2832 003a 1C6B     		ldr	r4, [r3, #48]
 2833 003c 0B20     		movs	r0, #11
 2834 003e FFF7FEFF 		bl	GetBufferIndexFromDisplayID
 2835 0042 0346     		mov	r3, r0
 2836 0044 0833     		adds	r3, r3, #8
 2837 0046 2344     		add	r3, r3, r4
 2838 0048 1C1D     		adds	r4, r3, #4
 2839 004a 0B20     		movs	r0, #11
 2840 004c FFF7FEFF 		bl	GetBufferLengthFromDisplayID
 2841 0050 0346     		mov	r3, r0
 2842 0052 2046     		mov	r0, r4
 2843 0054 0021     		movs	r1, #0
 2844 0056 1A46     		mov	r2, r3
 2845 0058 FFF7FEFF 		bl	memset
 619:.\DisplayBLL.c ****         ((PSINKMESSAGEPTR)pdisplay->_psequesteredmessagesink)->_buffer[GetBufferIndexFromDisplayID(
 2846              		.loc 1 619 0
 2847 005c FB68     		ldr	r3, [r7, #12]
 2848 005e 1C6B     		ldr	r4, [r3, #48]
 2849 0060 0B20     		movs	r0, #11
 2850 0062 FFF7FEFF 		bl	GetBufferIndexFromDisplayID
 2851 0066 0346     		mov	r3, r0
 2852 0068 2344     		add	r3, r3, r4
 2853 006a 3922     		movs	r2, #57
 2854 006c 1A73     		strb	r2, [r3, #12]
 620:.\DisplayBLL.c ****         ((PSINKMESSAGEPTR)pdisplay->_psequesteredmessagesink)->_buffer[GetBufferIndexFromDisplayID(
 2855              		.loc 1 620 0
 2856 006e FB68     		ldr	r3, [r7, #12]
 2857 0070 1C6B     		ldr	r4, [r3, #48]
 2858 0072 0520     		movs	r0, #5
 2859 0074 FFF7FEFF 		bl	GetBufferIndexFromDisplayID
 2860 0078 0346     		mov	r3, r0
 2861 007a 2344     		add	r3, r3, r4
 2862 007c 4422     		movs	r2, #68
 2863 007e 1A73     		strb	r2, [r3, #12]
 2864 0080 02E0     		b	.L104
 2865              	.L105:
 621:.\DisplayBLL.c ****         
 622:.\DisplayBLL.c ****     }else//If no authorization has been acquired, then return to IDLE state
 623:.\DisplayBLL.c ****         ppumpptr->_pumprftransstate = RF_IDLE;
 2866              		.loc 1 623 0
 2867 0082 BB68     		ldr	r3, [r7, #8]
 2868 0084 0822     		movs	r2, #8
 2869 0086 9A73     		strb	r2, [r3, #14]
ARM GAS  C:\Users\RECEPC~1\AppData\Local\Temp\ccBSLvba.s 			page 63


 2870              	.L104:
 624:.\DisplayBLL.c **** }
 2871              		.loc 1 624 0
 2872 0088 1437     		adds	r7, r7, #20
 2873              		.cfi_def_cfa_offset 12
 2874 008a BD46     		mov	sp, r7
 2875              		.cfi_def_cfa_register 13
 2876              		@ sp needed
 2877 008c 90BD     		pop	{r4, r7, pc}
 2878              	.L108:
 2879 008e 00BF     		.align	2
 2880              	.L107:
 2881 0090 00000000 		.word	_g_pumps
 2882              		.cfi_endproc
 2883              	.LFE73:
 2884              		.size	ValidateAuthorizationResponse4Credit, .-ValidateAuthorizationResponse4Credit
 2885              		.section	.text.SendAuthorizationRequest4Credit,"ax",%progbits
 2886              		.align	2
 2887              		.global	SendAuthorizationRequest4Credit
 2888              		.thumb
 2889              		.thumb_func
 2890              		.type	SendAuthorizationRequest4Credit, %function
 2891              	SendAuthorizationRequest4Credit:
 2892              	.LFB74:
 625:.\DisplayBLL.c **** 
 626:.\DisplayBLL.c **** void SendAuthorizationRequest4Credit(LPVOID pparam)
 627:.\DisplayBLL.c **** {
 2893              		.loc 1 627 0
 2894              		.cfi_startproc
 2895              		@ args = 0, pretend = 0, frame = 32
 2896              		@ frame_needed = 1, uses_anonymous_args = 0
 2897 0000 B0B5     		push	{r4, r5, r7, lr}
 2898              		.cfi_def_cfa_offset 16
 2899              		.cfi_offset 4, -16
 2900              		.cfi_offset 5, -12
 2901              		.cfi_offset 7, -8
 2902              		.cfi_offset 14, -4
 2903 0002 88B0     		sub	sp, sp, #32
 2904              		.cfi_def_cfa_offset 48
 2905 0004 00AF     		add	r7, sp, #0
 2906              		.cfi_def_cfa_register 7
 2907 0006 7860     		str	r0, [r7, #4]
 628:.\DisplayBLL.c ****     PDISPLAYLAYOUTPTR pdisplay = (PDISPLAYLAYOUTPTR)pparam;
 2908              		.loc 1 628 0
 2909 0008 7B68     		ldr	r3, [r7, #4]
 2910 000a BB61     		str	r3, [r7, #24]
 629:.\DisplayBLL.c ****     //HERE WE ATTEMPT TO PUSH THE TRANSACTION INTO THE PUMP'S TRANSACTIONAL QUEUE.
 630:.\DisplayBLL.c ****     //THIS IS DONE ONLY IF THERE IS ROOM IN THE QUEUE, OTHERWISE THIS STATE WON'T
 631:.\DisplayBLL.c ****     //BE REPORTED TO THE REMOTE PEER.
 632:.\DisplayBLL.c ****     PNEAR_PUMPPTR ppumpptr = &_g_pumps[GetPumpIndexFromDisplay(pdisplay)];
 2911              		.loc 1 632 0
 2912 000c B869     		ldr	r0, [r7, #24]
 2913 000e FFF7FEFF 		bl	GetPumpIndexFromDisplay
 2914 0012 0346     		mov	r3, r0
 2915 0014 1A46     		mov	r2, r3
 2916 0016 40F69833 		movw	r3, #2968
 2917 001a 03FB02F3 		mul	r3, r3, r2
ARM GAS  C:\Users\RECEPC~1\AppData\Local\Temp\ccBSLvba.s 			page 64


 2918 001e 844A     		ldr	r2, .L116
 2919 0020 1344     		add	r3, r3, r2
 2920 0022 7B61     		str	r3, [r7, #20]
 633:.\DisplayBLL.c ****     
 634:.\DisplayBLL.c ****     #ifndef _ALLOW_CREDIT_SALE_TESTING_
 635:.\DisplayBLL.c ****     ppumpptr->PumpTransQueueLock(ppumpptr);
 2921              		.loc 1 635 0
 2922 0024 7B69     		ldr	r3, [r7, #20]
 2923 0026 D3F8143B 		ldr	r3, [r3, #2836]
 2924 002a 7869     		ldr	r0, [r7, #20]
 2925 002c 9847     		blx	r3
 636:.\DisplayBLL.c ****     PNEAR_PUMPTRANSACTIONALSTATEPTR pts = ppumpptr->PumpTransQueueAllocate(ppumpptr);
 2926              		.loc 1 636 0
 2927 002e 7B69     		ldr	r3, [r7, #20]
 2928 0030 D3F8283B 		ldr	r3, [r3, #2856]
 2929 0034 7869     		ldr	r0, [r7, #20]
 2930 0036 9847     		blx	r3
 2931 0038 3861     		str	r0, [r7, #16]
 637:.\DisplayBLL.c ****     ppumpptr->PumpTransQueueUnlock(ppumpptr);
 2932              		.loc 1 637 0
 2933 003a 7B69     		ldr	r3, [r7, #20]
 2934 003c D3F8183B 		ldr	r3, [r3, #2840]
 2935 0040 7869     		ldr	r0, [r7, #20]
 2936 0042 9847     		blx	r3
 638:.\DisplayBLL.c ****     if(pts)
 2937              		.loc 1 638 0
 2938 0044 3B69     		ldr	r3, [r7, #16]
 2939 0046 002B     		cmp	r3, #0
 2940 0048 00F0EE80 		beq	.L109
 2941              	.LBB42:
 639:.\DisplayBLL.c ****     {
 640:.\DisplayBLL.c ****         
 641:.\DisplayBLL.c ****         uint8 index = 0;
 2942              		.loc 1 641 0
 2943 004c 0023     		movs	r3, #0
 2944 004e FB77     		strb	r3, [r7, #31]
 642:.\DisplayBLL.c ****         pts->_transtate = RF_MUX_CREDIT_SERIAL_AUTH_RESPONSE;
 2945              		.loc 1 642 0
 2946 0050 3B69     		ldr	r3, [r7, #16]
 2947 0052 A222     		movs	r2, #162
 2948 0054 5A70     		strb	r2, [r3, #1]
 643:.\DisplayBLL.c ****         //Pump ID always comes in the first position (0x00)
 644:.\DisplayBLL.c ****         pts->_buffer[index++] = ppumpptr->_pumpid;
 2949              		.loc 1 644 0
 2950 0056 FB7F     		ldrb	r3, [r7, #31]	@ zero_extendqisi2
 2951 0058 5A1C     		adds	r2, r3, #1
 2952 005a FA77     		strb	r2, [r7, #31]
 2953 005c 1946     		mov	r1, r3
 2954 005e 7B69     		ldr	r3, [r7, #20]
 2955 0060 1A78     		ldrb	r2, [r3]	@ zero_extendqisi2
 2956 0062 3B69     		ldr	r3, [r7, #16]
 2957 0064 0B44     		add	r3, r3, r1
 2958 0066 9A70     		strb	r2, [r3, #2]
 645:.\DisplayBLL.c ****         //This is the Hose ID
 646:.\DisplayBLL.c ****         pts->_buffer[index++] = ((PSINKMESSAGEPTR)pdisplay->_psequesteredmessagesink)->_buffer[GetB
 2959              		.loc 1 646 0
 2960 0068 FB7F     		ldrb	r3, [r7, #31]	@ zero_extendqisi2
ARM GAS  C:\Users\RECEPC~1\AppData\Local\Temp\ccBSLvba.s 			page 65


 2961 006a 5A1C     		adds	r2, r3, #1
 2962 006c FA77     		strb	r2, [r7, #31]
 2963 006e 1D46     		mov	r5, r3
 2964 0070 BB69     		ldr	r3, [r7, #24]
 2965 0072 1C6B     		ldr	r4, [r3, #48]
 2966 0074 0720     		movs	r0, #7
 2967 0076 FFF7FEFF 		bl	GetBufferIndexFromDisplayID
 2968 007a 0346     		mov	r3, r0
 2969 007c 2344     		add	r3, r3, r4
 2970 007e 1A7B     		ldrb	r2, [r3, #12]	@ zero_extendqisi2
 2971 0080 3B69     		ldr	r3, [r7, #16]
 2972 0082 2B44     		add	r3, r3, r5
 2973 0084 9A70     		strb	r2, [r3, #2]
 647:.\DisplayBLL.c ****         //This is the Serial (iButton) data
 648:.\DisplayBLL.c ****         memcpy(&pts->_buffer[index], &((PSINKMESSAGEPTR)pdisplay->_psequesteredmessagesink)->_buffe
 2974              		.loc 1 648 0
 2975 0086 FB7F     		ldrb	r3, [r7, #31]	@ zero_extendqisi2
 2976 0088 3A69     		ldr	r2, [r7, #16]
 2977 008a 1344     		add	r3, r3, r2
 2978 008c 9D1C     		adds	r5, r3, #2
 2979 008e BB69     		ldr	r3, [r7, #24]
 2980 0090 1C6B     		ldr	r4, [r3, #48]
 2981 0092 1220     		movs	r0, #18
 2982 0094 FFF7FEFF 		bl	GetBufferIndexFromDisplayID
 2983 0098 0346     		mov	r3, r0
 2984 009a 0833     		adds	r3, r3, #8
 2985 009c 2344     		add	r3, r3, r4
 2986 009e 1C1D     		adds	r4, r3, #4
 2987 00a0 1220     		movs	r0, #18
 2988 00a2 FFF7FEFF 		bl	GetBufferLengthFromDisplayID
 2989 00a6 0346     		mov	r3, r0
 2990 00a8 2846     		mov	r0, r5
 2991 00aa 2146     		mov	r1, r4
 2992 00ac 1A46     		mov	r2, r3
 2993 00ae FFF7FEFF 		bl	memcpy
 649:.\DisplayBLL.c ****         PSTRBUFFTOGG((PNEAR_BYTE_PTR)&pts->_buffer[index], GetBufferLengthFromDisplayID(DISPLAY_ESP
 2994              		.loc 1 649 0
 2995 00b2 FB7F     		ldrb	r3, [r7, #31]	@ zero_extendqisi2
 2996 00b4 3A69     		ldr	r2, [r7, #16]
 2997 00b6 1344     		add	r3, r3, r2
 2998 00b8 9C1C     		adds	r4, r3, #2
 2999 00ba 1220     		movs	r0, #18
 3000 00bc FFF7FEFF 		bl	GetBufferLengthFromDisplayID
 3001 00c0 0346     		mov	r3, r0
 3002 00c2 2046     		mov	r0, r4
 3003 00c4 1946     		mov	r1, r3
 3004 00c6 FFF7FEFF 		bl	PSTRBUFFTOGG
 650:.\DisplayBLL.c ****         index += GetBufferLengthFromDisplayID(DISPLAY_ESPERANDO_ID);
 3005              		.loc 1 650 0
 3006 00ca 1220     		movs	r0, #18
 3007 00cc FFF7FEFF 		bl	GetBufferLengthFromDisplayID
 3008 00d0 0346     		mov	r3, r0
 3009 00d2 1A46     		mov	r2, r3
 3010 00d4 FB7F     		ldrb	r3, [r7, #31]
 3011 00d6 1344     		add	r3, r3, r2
 3012 00d8 FB77     		strb	r3, [r7, #31]
 651:.\DisplayBLL.c ****         //This is the milleage
ARM GAS  C:\Users\RECEPC~1\AppData\Local\Temp\ccBSLvba.s 			page 66


 652:.\DisplayBLL.c ****         //PSTRBUFFTOGG((PNEAR_BYTE_PTR)&((PSINKMESSAGEPTR)pdisplay->_psequesteredmessagesink)->_buf
 653:.\DisplayBLL.c ****         index += 0x01;//Since the allocated buffer space for the milleage is 10 bytes length
 3013              		.loc 1 653 0
 3014 00da FB7F     		ldrb	r3, [r7, #31]
 3015 00dc 0133     		adds	r3, r3, #1
 3016 00de FB77     		strb	r3, [r7, #31]
 654:.\DisplayBLL.c ****         memcpy(&pts->_buffer[index], &((PSINKMESSAGEPTR)pdisplay->_psequesteredmessagesink)->_buffe
 3017              		.loc 1 654 0
 3018 00e0 FB7F     		ldrb	r3, [r7, #31]	@ zero_extendqisi2
 3019 00e2 3A69     		ldr	r2, [r7, #16]
 3020 00e4 1344     		add	r3, r3, r2
 3021 00e6 9D1C     		adds	r5, r3, #2
 3022 00e8 BB69     		ldr	r3, [r7, #24]
 3023 00ea 1C6B     		ldr	r4, [r3, #48]
 3024 00ec 0E20     		movs	r0, #14
 3025 00ee FFF7FEFF 		bl	GetBufferIndexFromDisplayID
 3026 00f2 0346     		mov	r3, r0
 3027 00f4 0833     		adds	r3, r3, #8
 3028 00f6 2344     		add	r3, r3, r4
 3029 00f8 1C1D     		adds	r4, r3, #4
 3030 00fa 0E20     		movs	r0, #14
 3031 00fc FFF7FEFF 		bl	GetBufferLengthFromDisplayID
 3032 0100 0346     		mov	r3, r0
 3033 0102 2846     		mov	r0, r5
 3034 0104 2146     		mov	r1, r4
 3035 0106 1A46     		mov	r2, r3
 3036 0108 FFF7FEFF 		bl	memcpy
 655:.\DisplayBLL.c ****         PSTRBUFFTOGG((PNEAR_BYTE_PTR)&pts->_buffer[index], GetBufferLengthFromDisplayID(DISPLAY_INT
 3037              		.loc 1 655 0
 3038 010c FB7F     		ldrb	r3, [r7, #31]	@ zero_extendqisi2
 3039 010e 3A69     		ldr	r2, [r7, #16]
 3040 0110 1344     		add	r3, r3, r2
 3041 0112 9C1C     		adds	r4, r3, #2
 3042 0114 0E20     		movs	r0, #14
 3043 0116 FFF7FEFF 		bl	GetBufferLengthFromDisplayID
 3044 011a 0346     		mov	r3, r0
 3045 011c 2046     		mov	r0, r4
 3046 011e 1946     		mov	r1, r3
 3047 0120 FFF7FEFF 		bl	PSTRBUFFTOGG
 656:.\DisplayBLL.c ****         index += GetBufferLengthFromDisplayID(DISPLAY_INTRODUZCA_KILOMETRAJE);
 3048              		.loc 1 656 0
 3049 0124 0E20     		movs	r0, #14
 3050 0126 FFF7FEFF 		bl	GetBufferLengthFromDisplayID
 3051 012a 0346     		mov	r3, r0
 3052 012c 1A46     		mov	r2, r3
 3053 012e FB7F     		ldrb	r3, [r7, #31]
 3054 0130 1344     		add	r3, r3, r2
 3055 0132 FB77     		strb	r3, [r7, #31]
 657:.\DisplayBLL.c **** 
 658:.\DisplayBLL.c ****         //Program mode (Money / Volume)
 659:.\DisplayBLL.c ****         uint8 value = ((PSINKMESSAGEPTR)pdisplay->_psequesteredmessagesink)->_buffer[GetBufferIndex
 3056              		.loc 1 659 0
 3057 0134 BB69     		ldr	r3, [r7, #24]
 3058 0136 1C6B     		ldr	r4, [r3, #48]
 3059 0138 0520     		movs	r0, #5
 3060 013a FFF7FEFF 		bl	GetBufferIndexFromDisplayID
 3061 013e 0346     		mov	r3, r0
ARM GAS  C:\Users\RECEPC~1\AppData\Local\Temp\ccBSLvba.s 			page 67


 3062 0140 2344     		add	r3, r3, r4
 3063 0142 1B7B     		ldrb	r3, [r3, #12]
 3064 0144 FB73     		strb	r3, [r7, #15]
 660:.\DisplayBLL.c ****         switch(value)
 3065              		.loc 1 660 0
 3066 0146 FB7B     		ldrb	r3, [r7, #15]	@ zero_extendqisi2
 3067 0148 102B     		cmp	r3, #16
 3068 014a 0CD0     		beq	.L112
 3069 014c 432B     		cmp	r3, #67
 3070 014e 13D0     		beq	.L113
 3071 0150 0F2B     		cmp	r3, #15
 3072 0152 1AD1     		bne	.L111
 661:.\DisplayBLL.c ****         {
 662:.\DisplayBLL.c ****             case 0x0F:
 663:.\DisplayBLL.c ****             pts->_buffer[index++] = 0x02;//Money Preset
 3073              		.loc 1 663 0
 3074 0154 FB7F     		ldrb	r3, [r7, #31]	@ zero_extendqisi2
 3075 0156 5A1C     		adds	r2, r3, #1
 3076 0158 FA77     		strb	r2, [r7, #31]
 3077 015a 1A46     		mov	r2, r3
 3078 015c 3B69     		ldr	r3, [r7, #16]
 3079 015e 1344     		add	r3, r3, r2
 3080 0160 0222     		movs	r2, #2
 3081 0162 9A70     		strb	r2, [r3, #2]
 664:.\DisplayBLL.c ****             break;
 3082              		.loc 1 664 0
 3083 0164 11E0     		b	.L111
 3084              	.L112:
 665:.\DisplayBLL.c ****             case 0x10:
 666:.\DisplayBLL.c ****             pts->_buffer[index++] = 0x01;//Volume Preset
 3085              		.loc 1 666 0
 3086 0166 FB7F     		ldrb	r3, [r7, #31]	@ zero_extendqisi2
 3087 0168 5A1C     		adds	r2, r3, #1
 3088 016a FA77     		strb	r2, [r7, #31]
 3089 016c 1A46     		mov	r2, r3
 3090 016e 3B69     		ldr	r3, [r7, #16]
 3091 0170 1344     		add	r3, r3, r2
 3092 0172 0122     		movs	r2, #1
 3093 0174 9A70     		strb	r2, [r3, #2]
 667:.\DisplayBLL.c ****             break;
 3094              		.loc 1 667 0
 3095 0176 08E0     		b	.L111
 3096              	.L113:
 668:.\DisplayBLL.c ****             case 0x43:
 669:.\DisplayBLL.c ****             pts->_buffer[index++] = 0x03;//Full Preset
 3097              		.loc 1 669 0
 3098 0178 FB7F     		ldrb	r3, [r7, #31]	@ zero_extendqisi2
 3099 017a 5A1C     		adds	r2, r3, #1
 3100 017c FA77     		strb	r2, [r7, #31]
 3101 017e 1A46     		mov	r2, r3
 3102 0180 3B69     		ldr	r3, [r7, #16]
 3103 0182 1344     		add	r3, r3, r2
 3104 0184 0322     		movs	r2, #3
 3105 0186 9A70     		strb	r2, [r3, #2]
 670:.\DisplayBLL.c ****             break;
 3106              		.loc 1 670 0
 3107 0188 00BF     		nop
ARM GAS  C:\Users\RECEPC~1\AppData\Local\Temp\ccBSLvba.s 			page 68


 3108              	.L111:
 671:.\DisplayBLL.c ****         }
 672:.\DisplayBLL.c ****         
 673:.\DisplayBLL.c ****         //Value for the selected program mode
 674:.\DisplayBLL.c ****         memcpy(&pts->_buffer[index], &((PSINKMESSAGEPTR)pdisplay->_psequesteredmessagesink)->_buffe
 3109              		.loc 1 674 0
 3110 018a FB7F     		ldrb	r3, [r7, #31]	@ zero_extendqisi2
 3111 018c 3A69     		ldr	r2, [r7, #16]
 3112 018e 1344     		add	r3, r3, r2
 3113 0190 9D1C     		adds	r5, r3, #2
 3114 0192 BB69     		ldr	r3, [r7, #24]
 3115 0194 1C6B     		ldr	r4, [r3, #48]
 3116 0196 0620     		movs	r0, #6
 3117 0198 FFF7FEFF 		bl	GetBufferIndexFromDisplayID
 3118 019c 0346     		mov	r3, r0
 3119 019e 0833     		adds	r3, r3, #8
 3120 01a0 2344     		add	r3, r3, r4
 3121 01a2 0433     		adds	r3, r3, #4
 3122 01a4 2846     		mov	r0, r5
 3123 01a6 1946     		mov	r1, r3
 3124 01a8 0822     		movs	r2, #8
 3125 01aa FFF7FEFF 		bl	memcpy
 675:.\DisplayBLL.c ****         if(value == 0x10)
 3126              		.loc 1 675 0
 3127 01ae FB7B     		ldrb	r3, [r7, #15]	@ zero_extendqisi2
 3128 01b0 102B     		cmp	r3, #16
 3129 01b2 07D1     		bne	.L115
 676:.\DisplayBLL.c ****             CastCreditVolumeValue(&pts->_buffer[index], 0x08);
 3130              		.loc 1 676 0
 3131 01b4 FB7F     		ldrb	r3, [r7, #31]	@ zero_extendqisi2
 3132 01b6 3A69     		ldr	r2, [r7, #16]
 3133 01b8 1344     		add	r3, r3, r2
 3134 01ba 0233     		adds	r3, r3, #2
 3135 01bc 1846     		mov	r0, r3
 3136 01be 0821     		movs	r1, #8
 3137 01c0 FFF7FEFF 		bl	CastCreditVolumeValue
 3138              	.L115:
 677:.\DisplayBLL.c ****         
 678:.\DisplayBLL.c ****         PSTRBUFFTOGG((PNEAR_BYTE_PTR)&pts->_buffer[index], 0x08);
 3139              		.loc 1 678 0
 3140 01c4 FB7F     		ldrb	r3, [r7, #31]	@ zero_extendqisi2
 3141 01c6 3A69     		ldr	r2, [r7, #16]
 3142 01c8 1344     		add	r3, r3, r2
 3143 01ca 0233     		adds	r3, r3, #2
 3144 01cc 1846     		mov	r0, r3
 3145 01ce 0821     		movs	r1, #8
 3146 01d0 FFF7FEFF 		bl	PSTRBUFFTOGG
 679:.\DisplayBLL.c ****         index += 0x08;
 3147              		.loc 1 679 0
 3148 01d4 FB7F     		ldrb	r3, [r7, #31]
 3149 01d6 0833     		adds	r3, r3, #8
 3150 01d8 FB77     		strb	r3, [r7, #31]
 680:.\DisplayBLL.c **** 
 681:.\DisplayBLL.c ****         memset(&((PSINKMESSAGEPTR)pdisplay->_psequesteredmessagesink)->_buffer[GetBufferIndexFromDi
 3151              		.loc 1 681 0
 3152 01da BB69     		ldr	r3, [r7, #24]
 3153 01dc 1C6B     		ldr	r4, [r3, #48]
ARM GAS  C:\Users\RECEPC~1\AppData\Local\Temp\ccBSLvba.s 			page 69


 3154 01de 0620     		movs	r0, #6
 3155 01e0 FFF7FEFF 		bl	GetBufferIndexFromDisplayID
 3156 01e4 0346     		mov	r3, r0
 3157 01e6 0833     		adds	r3, r3, #8
 3158 01e8 2344     		add	r3, r3, r4
 3159 01ea 0433     		adds	r3, r3, #4
 3160 01ec 1846     		mov	r0, r3
 3161 01ee 0021     		movs	r1, #0
 3162 01f0 0822     		movs	r2, #8
 3163 01f2 FFF7FEFF 		bl	memset
 682:.\DisplayBLL.c ****         
 683:.\DisplayBLL.c ****         pts->_buffersize = index;
 3164              		.loc 1 683 0
 3165 01f6 FB7F     		ldrb	r3, [r7, #31]	@ zero_extendqisi2
 3166 01f8 9AB2     		uxth	r2, r3
 3167 01fa 3B69     		ldr	r3, [r7, #16]
 3168 01fc A3F80221 		strh	r2, [r3, #258]	@ movhi
 684:.\DisplayBLL.c ****         //This flag will be checked to inquiry about the authorization state.
 685:.\DisplayBLL.c ****         ppumpptr->_authorizationinfo._authorized = false;
 3169              		.loc 1 685 0
 3170 0200 7B69     		ldr	r3, [r7, #20]
 3171 0202 0022     		movs	r2, #0
 3172 0204 83F8782B 		strb	r2, [r3, #2936]
 686:.\DisplayBLL.c ****         
 687:.\DisplayBLL.c ****         ppumpptr->PumpTransQueueLock(ppumpptr);
 3173              		.loc 1 687 0
 3174 0208 7B69     		ldr	r3, [r7, #20]
 3175 020a D3F8143B 		ldr	r3, [r3, #2836]
 3176 020e 7869     		ldr	r0, [r7, #20]
 3177 0210 9847     		blx	r3
 688:.\DisplayBLL.c ****         ppumpptr->PumpTransQueueEnqueue(ppumpptr, pts);
 3178              		.loc 1 688 0
 3179 0212 7B69     		ldr	r3, [r7, #20]
 3180 0214 D3F8203B 		ldr	r3, [r3, #2848]
 3181 0218 7869     		ldr	r0, [r7, #20]
 3182 021a 3969     		ldr	r1, [r7, #16]
 3183 021c 9847     		blx	r3
 689:.\DisplayBLL.c ****         ppumpptr->PumpTransQueueUnlock(ppumpptr);
 3184              		.loc 1 689 0
 3185 021e 7B69     		ldr	r3, [r7, #20]
 3186 0220 D3F8183B 		ldr	r3, [r3, #2840]
 3187 0224 7869     		ldr	r0, [r7, #20]
 3188 0226 9847     		blx	r3
 3189              	.L109:
 3190              	.LBE42:
 690:.\DisplayBLL.c ****     }
 691:.\DisplayBLL.c ****     #endif
 692:.\DisplayBLL.c ****     
 693:.\DisplayBLL.c ****     #ifdef _ALLOW_CREDIT_SALE_TESTING_
 694:.\DisplayBLL.c ****     //Authorization information
 695:.\DisplayBLL.c ****     ppumpptr->_authorizationinfo._authorized = true;
 696:.\DisplayBLL.c **** 
 697:.\DisplayBLL.c ****     //See the protocol description file to understand the applied indexes 
 698:.\DisplayBLL.c ****     ppumpptr->_authorizationinfo._presettype = 0x02;
 699:.\DisplayBLL.c ****     ppumpptr->_authorizationinfo._presetamount  = 0x3DB8;
 700:.\DisplayBLL.c ****     ppumpptr->_authorizationinfo._hoseid = ((PSINKMESSAGEPTR)pdisplay->_psequesteredmessagesink)->_
 701:.\DisplayBLL.c ****     
ARM GAS  C:\Users\RECEPC~1\AppData\Local\Temp\ccBSLvba.s 			page 70


 702:.\DisplayBLL.c ****     uint16 price = 0x3232;
 703:.\DisplayBLL.c ****     if(_g_dispenserlayoutinfo._moneydecimals == 0x03 && _g_dispenserlayoutinfo._ppudecimals == 0x02
 704:.\DisplayBLL.c ****         ppumpptr->_authorizationinfo._price = price / 10;
 705:.\DisplayBLL.c ****     else
 706:.\DisplayBLL.c ****         ppumpptr->_authorizationinfo._price = price;
 707:.\DisplayBLL.c ****                     
 708:.\DisplayBLL.c ****     if(pdisplay)
 709:.\DisplayBLL.c ****     {
 710:.\DisplayBLL.c ****         if(ppumpptr->_authorizationinfo._authorized)
 711:.\DisplayBLL.c ****             pdisplay->_currentstate = DISPLAY_CREDIT_AUTHORIZATION_ACCEPTED;
 712:.\DisplayBLL.c ****     }
 713:.\DisplayBLL.c ****     #endif
 714:.\DisplayBLL.c **** }
 3191              		.loc 1 714 0
 3192 0228 2037     		adds	r7, r7, #32
 3193              		.cfi_def_cfa_offset 16
 3194 022a BD46     		mov	sp, r7
 3195              		.cfi_def_cfa_register 13
 3196              		@ sp needed
 3197 022c B0BD     		pop	{r4, r5, r7, pc}
 3198              	.L117:
 3199 022e 00BF     		.align	2
 3200              	.L116:
 3201 0230 00000000 		.word	_g_pumps
 3202              		.cfi_endproc
 3203              	.LFE74:
 3204              		.size	SendAuthorizationRequest4Credit, .-SendAuthorizationRequest4Credit
 3205              		.section	.text.KillHosePositionStateValidation,"ax",%progbits
 3206              		.align	2
 3207              		.global	KillHosePositionStateValidation
 3208              		.thumb
 3209              		.thumb_func
 3210              		.type	KillHosePositionStateValidation, %function
 3211              	KillHosePositionStateValidation:
 3212              	.LFB75:
 715:.\DisplayBLL.c **** 
 716:.\DisplayBLL.c **** void KillHosePositionStateValidation(LPVOID pparam)
 717:.\DisplayBLL.c **** {
 3213              		.loc 1 717 0
 3214              		.cfi_startproc
 3215              		@ args = 0, pretend = 0, frame = 16
 3216              		@ frame_needed = 1, uses_anonymous_args = 0
 3217              		@ link register save eliminated.
 3218 0000 80B4     		push	{r7}
 3219              		.cfi_def_cfa_offset 4
 3220              		.cfi_offset 7, -4
 3221 0002 85B0     		sub	sp, sp, #20
 3222              		.cfi_def_cfa_offset 24
 3223 0004 00AF     		add	r7, sp, #0
 3224              		.cfi_def_cfa_register 7
 3225 0006 7860     		str	r0, [r7, #4]
 718:.\DisplayBLL.c ****     PDISPLAYLAYOUTPTR pdisplay = (PDISPLAYLAYOUTPTR)pparam;
 3226              		.loc 1 718 0
 3227 0008 7B68     		ldr	r3, [r7, #4]
 3228 000a FB60     		str	r3, [r7, #12]
 719:.\DisplayBLL.c ****     if(pdisplay->_pdata)
 3229              		.loc 1 719 0
ARM GAS  C:\Users\RECEPC~1\AppData\Local\Temp\ccBSLvba.s 			page 71


 3230 000c FB68     		ldr	r3, [r7, #12]
 3231 000e 5B6B     		ldr	r3, [r3, #52]
 3232 0010 002B     		cmp	r3, #0
 3233 0012 06D0     		beq	.L118
 720:.\DisplayBLL.c ****     {
 721:.\DisplayBLL.c ****         ((PSINKMESSAGEPTR)pdisplay->_pdata)->_selfkill = true;
 3234              		.loc 1 721 0
 3235 0014 FB68     		ldr	r3, [r7, #12]
 3236 0016 5B6B     		ldr	r3, [r3, #52]
 3237 0018 0122     		movs	r2, #1
 3238 001a 1A70     		strb	r2, [r3]
 722:.\DisplayBLL.c ****         pdisplay->_pdata = PNEAR_NULLPTR;
 3239              		.loc 1 722 0
 3240 001c FB68     		ldr	r3, [r7, #12]
 3241 001e 0022     		movs	r2, #0
 3242 0020 5A63     		str	r2, [r3, #52]
 3243              	.L118:
 723:.\DisplayBLL.c ****     }
 724:.\DisplayBLL.c **** }
 3244              		.loc 1 724 0
 3245 0022 1437     		adds	r7, r7, #20
 3246              		.cfi_def_cfa_offset 4
 3247 0024 BD46     		mov	sp, r7
 3248              		.cfi_def_cfa_register 13
 3249              		@ sp needed
 3250 0026 5DF8047B 		ldr	r7, [sp], #4
 3251              		.cfi_restore 7
 3252              		.cfi_def_cfa_offset 0
 3253 002a 7047     		bx	lr
 3254              		.cfi_endproc
 3255              	.LFE75:
 3256              		.size	KillHosePositionStateValidation, .-KillHosePositionStateValidation
 3257              		.section	.text.DisplayStationIDDecorator,"ax",%progbits
 3258              		.align	2
 3259              		.global	DisplayStationIDDecorator
 3260              		.thumb
 3261              		.thumb_func
 3262              		.type	DisplayStationIDDecorator, %function
 3263              	DisplayStationIDDecorator:
 3264              	.LFB76:
 725:.\DisplayBLL.c **** 
 726:.\DisplayBLL.c **** void DisplayStationIDDecorator(void *pparam)
 727:.\DisplayBLL.c **** {
 3265              		.loc 1 727 0
 3266              		.cfi_startproc
 3267              		@ args = 0, pretend = 0, frame = 24
 3268              		@ frame_needed = 1, uses_anonymous_args = 0
 3269 0000 F0B5     		push	{r4, r5, r6, r7, lr}
 3270              		.cfi_def_cfa_offset 20
 3271              		.cfi_offset 4, -20
 3272              		.cfi_offset 5, -16
 3273              		.cfi_offset 6, -12
 3274              		.cfi_offset 7, -8
 3275              		.cfi_offset 14, -4
 3276 0002 8BB0     		sub	sp, sp, #44
 3277              		.cfi_def_cfa_offset 64
 3278 0004 04AF     		add	r7, sp, #16
ARM GAS  C:\Users\RECEPC~1\AppData\Local\Temp\ccBSLvba.s 			page 72


 3279              		.cfi_def_cfa 7, 48
 3280 0006 7860     		str	r0, [r7, #4]
 728:.\DisplayBLL.c ****     PDISPLAYLAYOUTPTR pdisplay = (PDISPLAYLAYOUTPTR)pparam;
 3281              		.loc 1 728 0
 3282 0008 7B68     		ldr	r3, [r7, #4]
 3283 000a 7B61     		str	r3, [r7, #20]
 729:.\DisplayBLL.c ****     if(pdisplay)
 3284              		.loc 1 729 0
 3285 000c 7B69     		ldr	r3, [r7, #20]
 3286 000e 002B     		cmp	r3, #0
 3287 0010 65D0     		beq	.L120
 730:.\DisplayBLL.c ****     {
 731:.\DisplayBLL.c ****         pdisplay->_bufferinfo._xpos = pdisplay->_pcurrflow->_inputboxinfo._xdefpos;
 3288              		.loc 1 731 0
 3289 0012 7B69     		ldr	r3, [r7, #20]
 3290 0014 1B69     		ldr	r3, [r3, #16]
 3291 0016 9A8D     		ldrh	r2, [r3, #44]
 3292 0018 7B69     		ldr	r3, [r7, #20]
 3293 001a 1A83     		strh	r2, [r3, #24]	@ movhi
 732:.\DisplayBLL.c ****         pdisplay->_bufferinfo._ypos = pdisplay->_pcurrflow->_inputboxinfo._ydefpos;
 3294              		.loc 1 732 0
 3295 001c 7B69     		ldr	r3, [r7, #20]
 3296 001e 1B69     		ldr	r3, [r3, #16]
 3297 0020 DA8D     		ldrh	r2, [r3, #46]
 3298 0022 7B69     		ldr	r3, [r7, #20]
 3299 0024 5A83     		strh	r2, [r3, #26]	@ movhi
 733:.\DisplayBLL.c ****         if(pdisplay->_dispid == DISPLAY1)
 3300              		.loc 1 733 0
 3301 0026 7B69     		ldr	r3, [r7, #20]
 3302 0028 1B78     		ldrb	r3, [r3]	@ zero_extendqisi2
 3303 002a 002B     		cmp	r3, #0
 3304 002c 2CD1     		bne	.L122
 3305              	.LBB43:
 734:.\DisplayBLL.c ****         {
 735:.\DisplayBLL.c ****             UARTMessage *puartdisp = GetUARTMessageSlot(UART_DISPLAY1);
 3306              		.loc 1 735 0
 3307 002e A320     		movs	r0, #163
 3308 0030 FFF7FEFF 		bl	GetUARTMessageSlot
 3309 0034 3861     		str	r0, [r7, #16]
 736:.\DisplayBLL.c ****             if(puartdisp)
 3310              		.loc 1 736 0
 3311 0036 3B69     		ldr	r3, [r7, #16]
 3312 0038 002B     		cmp	r3, #0
 3313 003a 24D0     		beq	.L123
 737:.\DisplayBLL.c ****             {
 738:.\DisplayBLL.c ****                 puartdisp->_messagelength = DisplayOutputString(pdisplay->_bufferinfo._xpos, pdispl
 3314              		.loc 1 738 0
 3315 003c 7B69     		ldr	r3, [r7, #20]
 3316 003e B3F818E0 		ldrh	lr, [r3, #24]
 3317 0042 7B69     		ldr	r3, [r7, #20]
 3318 0044 5E8B     		ldrh	r6, [r3, #26]
 3319 0046 3B69     		ldr	r3, [r7, #16]
 3320 0048 1D1D     		adds	r5, r3, #4
 3321 004a 7B69     		ldr	r3, [r7, #20]
 3322 004c 03F11D04 		add	r4, r3, #29
 3323 0050 7B69     		ldr	r3, [r7, #20]
 3324 0052 1B69     		ldr	r3, [r3, #16]
ARM GAS  C:\Users\RECEPC~1\AppData\Local\Temp\ccBSLvba.s 			page 73


 3325 0054 93F83030 		ldrb	r3, [r3, #48]	@ zero_extendqisi2
 3326 0058 9BB2     		uxth	r3, r3
 3327 005a 7A69     		ldr	r2, [r7, #20]
 3328 005c 1269     		ldr	r2, [r2, #16]
 3329 005e 0093     		str	r3, [sp]
 3330 0060 01AB     		add	r3, sp, #4
 3331 0062 3232     		adds	r2, r2, #50
 3332 0064 1068     		ldr	r0, [r2]	@ unaligned
 3333 0066 5168     		ldr	r1, [r2, #4]	@ unaligned
 3334 0068 03C3     		stmia	r3!, {r0, r1}
 3335 006a 7046     		mov	r0, lr
 3336 006c 3146     		mov	r1, r6
 3337 006e 2A46     		mov	r2, r5
 3338 0070 2346     		mov	r3, r4
 3339 0072 FFF7FEFF 		bl	DisplayOutputString
 3340 0076 0346     		mov	r3, r0
 3341 0078 1A46     		mov	r2, r3
 3342 007a 3B69     		ldr	r3, [r7, #16]
 3343 007c 5A80     		strh	r2, [r3, #2]	@ movhi
 739:.\DisplayBLL.c ****                 puartdisp->_messagestate = PENDING;
 3344              		.loc 1 739 0
 3345 007e 3B69     		ldr	r3, [r7, #16]
 3346 0080 C222     		movs	r2, #194
 3347 0082 1A70     		strb	r2, [r3]
 3348              	.LBE43:
 3349 0084 2BE0     		b	.L120
 3350              	.L123:
 3351 0086 2AE0     		b	.L120
 3352              	.L122:
 3353              	.LBB44:
 740:.\DisplayBLL.c ****             }
 741:.\DisplayBLL.c ****         }
 742:.\DisplayBLL.c ****         else
 743:.\DisplayBLL.c ****         {
 744:.\DisplayBLL.c ****             UARTMessage *puartdisp = GetUARTMessageSlot(UART_DISPLAY2);
 3354              		.loc 1 744 0
 3355 0088 A420     		movs	r0, #164
 3356 008a FFF7FEFF 		bl	GetUARTMessageSlot
 3357 008e F860     		str	r0, [r7, #12]
 745:.\DisplayBLL.c ****             if(puartdisp)
 3358              		.loc 1 745 0
 3359 0090 FB68     		ldr	r3, [r7, #12]
 3360 0092 002B     		cmp	r3, #0
 3361 0094 23D0     		beq	.L120
 746:.\DisplayBLL.c ****             {
 747:.\DisplayBLL.c ****                 puartdisp->_messagelength = DisplayOutputString(pdisplay->_bufferinfo._xpos, pdispl
 3362              		.loc 1 747 0
 3363 0096 7B69     		ldr	r3, [r7, #20]
 3364 0098 B3F818E0 		ldrh	lr, [r3, #24]
 3365 009c 7B69     		ldr	r3, [r7, #20]
 3366 009e 5E8B     		ldrh	r6, [r3, #26]
 3367 00a0 FB68     		ldr	r3, [r7, #12]
 3368 00a2 1D1D     		adds	r5, r3, #4
 3369 00a4 7B69     		ldr	r3, [r7, #20]
 3370 00a6 03F11D04 		add	r4, r3, #29
 3371 00aa 7B69     		ldr	r3, [r7, #20]
 3372 00ac 1B69     		ldr	r3, [r3, #16]
ARM GAS  C:\Users\RECEPC~1\AppData\Local\Temp\ccBSLvba.s 			page 74


 3373 00ae 93F83030 		ldrb	r3, [r3, #48]	@ zero_extendqisi2
 3374 00b2 9BB2     		uxth	r3, r3
 3375 00b4 7A69     		ldr	r2, [r7, #20]
 3376 00b6 1269     		ldr	r2, [r2, #16]
 3377 00b8 0093     		str	r3, [sp]
 3378 00ba 01AB     		add	r3, sp, #4
 3379 00bc 3232     		adds	r2, r2, #50
 3380 00be 1068     		ldr	r0, [r2]	@ unaligned
 3381 00c0 5168     		ldr	r1, [r2, #4]	@ unaligned
 3382 00c2 03C3     		stmia	r3!, {r0, r1}
 3383 00c4 7046     		mov	r0, lr
 3384 00c6 3146     		mov	r1, r6
 3385 00c8 2A46     		mov	r2, r5
 3386 00ca 2346     		mov	r3, r4
 3387 00cc FFF7FEFF 		bl	DisplayOutputString
 3388 00d0 0346     		mov	r3, r0
 3389 00d2 1A46     		mov	r2, r3
 3390 00d4 FB68     		ldr	r3, [r7, #12]
 3391 00d6 5A80     		strh	r2, [r3, #2]	@ movhi
 748:.\DisplayBLL.c ****                 puartdisp->_messagestate = PENDING;
 3392              		.loc 1 748 0
 3393 00d8 FB68     		ldr	r3, [r7, #12]
 3394 00da C222     		movs	r2, #194
 3395 00dc 1A70     		strb	r2, [r3]
 3396              	.L120:
 3397              	.LBE44:
 749:.\DisplayBLL.c ****             }
 750:.\DisplayBLL.c ****         }
 751:.\DisplayBLL.c ****     }
 752:.\DisplayBLL.c **** }
 3398              		.loc 1 752 0
 3399 00de 1C37     		adds	r7, r7, #28
 3400              		.cfi_def_cfa_offset 20
 3401 00e0 BD46     		mov	sp, r7
 3402              		.cfi_def_cfa_register 13
 3403              		@ sp needed
 3404 00e2 F0BD     		pop	{r4, r5, r6, r7, pc}
 3405              		.cfi_endproc
 3406              	.LFE76:
 3407              		.size	DisplayStationIDDecorator, .-DisplayStationIDDecorator
 3408              		.global	__aeabi_i2d
 3409              		.global	__aeabi_dmul
 3410              		.global	__aeabi_d2uiz
 3411              		.section	.text.DisplayStationIDStore,"ax",%progbits
 3412              		.align	2
 3413              		.global	DisplayStationIDStore
 3414              		.thumb
 3415              		.thumb_func
 3416              		.type	DisplayStationIDStore, %function
 3417              	DisplayStationIDStore:
 3418              	.LFB77:
 753:.\DisplayBLL.c **** 
 754:.\DisplayBLL.c **** void DisplayStationIDStore(void *pparam)
 755:.\DisplayBLL.c **** {
 3419              		.loc 1 755 0
 3420              		.cfi_startproc
 3421              		@ args = 0, pretend = 0, frame = 16
ARM GAS  C:\Users\RECEPC~1\AppData\Local\Temp\ccBSLvba.s 			page 75


 3422              		@ frame_needed = 1, uses_anonymous_args = 0
 3423 0000 B0B5     		push	{r4, r5, r7, lr}
 3424              		.cfi_def_cfa_offset 16
 3425              		.cfi_offset 4, -16
 3426              		.cfi_offset 5, -12
 3427              		.cfi_offset 7, -8
 3428              		.cfi_offset 14, -4
 3429 0002 84B0     		sub	sp, sp, #16
 3430              		.cfi_def_cfa_offset 32
 3431 0004 00AF     		add	r7, sp, #0
 3432              		.cfi_def_cfa_register 7
 3433 0006 7860     		str	r0, [r7, #4]
 756:.\DisplayBLL.c ****     PDISPLAYLAYOUTPTR pdisplay = (PDISPLAYLAYOUTPTR)pparam;
 3434              		.loc 1 756 0
 3435 0008 7B68     		ldr	r3, [r7, #4]
 3436 000a BB60     		str	r3, [r7, #8]
 757:.\DisplayBLL.c ****     if(pdisplay)
 3437              		.loc 1 757 0
 3438 000c BB68     		ldr	r3, [r7, #8]
 3439 000e 002B     		cmp	r3, #0
 3440 0010 58D0     		beq	.L124
 3441              	.LBB45:
 758:.\DisplayBLL.c ****     {
 759:.\DisplayBLL.c ****         uint16 stationid = 0x0000;
 3442              		.loc 1 759 0
 3443 0012 0023     		movs	r3, #0
 3444 0014 FB81     		strh	r3, [r7, #14]	@ movhi
 760:.\DisplayBLL.c ****         FOR(uint8 index = 0, index < pdisplay->_bufferinfo._bufferindex, index++)
 3445              		.loc 1 760 0
 3446 0016 0023     		movs	r3, #0
 3447 0018 7B73     		strb	r3, [r7, #13]
 3448 001a 2EE0     		b	.L126
 3449              	.L127:
 761:.\DisplayBLL.c ****             stationid += (uint16)(pow(10, pdisplay->_bufferinfo._bufferindex - index - 1)*(pdisplay
 3450              		.loc 1 761 0 discriminator 3
 3451 001c BB68     		ldr	r3, [r7, #8]
 3452 001e 1B7F     		ldrb	r3, [r3, #28]	@ zero_extendqisi2
 3453 0020 1A46     		mov	r2, r3
 3454 0022 7B7B     		ldrb	r3, [r7, #13]	@ zero_extendqisi2
 3455 0024 D31A     		subs	r3, r2, r3
 3456 0026 013B     		subs	r3, r3, #1
 3457 0028 1846     		mov	r0, r3
 3458 002a FFF7FEFF 		bl	__aeabi_i2d
 3459 002e 0246     		mov	r2, r0
 3460 0030 0B46     		mov	r3, r1
 3461 0032 4FF00000 		mov	r0, #0
 3462 0036 2549     		ldr	r1, .L128
 3463 0038 FFF7FEFF 		bl	pow
 3464 003c 0446     		mov	r4, r0
 3465 003e 0D46     		mov	r5, r1
 3466 0040 7B7B     		ldrb	r3, [r7, #13]	@ zero_extendqisi2
 3467 0042 BA68     		ldr	r2, [r7, #8]
 3468 0044 1344     		add	r3, r3, r2
 3469 0046 5B7F     		ldrb	r3, [r3, #29]	@ zero_extendqisi2
 3470 0048 03F00F03 		and	r3, r3, #15
 3471 004c 1846     		mov	r0, r3
 3472 004e FFF7FEFF 		bl	__aeabi_i2d
ARM GAS  C:\Users\RECEPC~1\AppData\Local\Temp\ccBSLvba.s 			page 76


 3473 0052 0246     		mov	r2, r0
 3474 0054 0B46     		mov	r3, r1
 3475 0056 2046     		mov	r0, r4
 3476 0058 2946     		mov	r1, r5
 3477 005a FFF7FEFF 		bl	__aeabi_dmul
 3478 005e 0246     		mov	r2, r0
 3479 0060 0B46     		mov	r3, r1
 3480 0062 1046     		mov	r0, r2
 3481 0064 1946     		mov	r1, r3
 3482 0066 FFF7FEFF 		bl	__aeabi_d2uiz
 3483 006a 0346     		mov	r3, r0
 3484 006c 9AB2     		uxth	r2, r3
 3485 006e FB89     		ldrh	r3, [r7, #14]	@ movhi
 3486 0070 1344     		add	r3, r3, r2
 3487 0072 FB81     		strh	r3, [r7, #14]	@ movhi
 760:.\DisplayBLL.c ****         FOR(uint8 index = 0, index < pdisplay->_bufferinfo._bufferindex, index++)
 3488              		.loc 1 760 0 discriminator 3
 3489 0074 7B7B     		ldrb	r3, [r7, #13]	@ zero_extendqisi2
 3490 0076 0133     		adds	r3, r3, #1
 3491 0078 7B73     		strb	r3, [r7, #13]
 3492              	.L126:
 760:.\DisplayBLL.c ****         FOR(uint8 index = 0, index < pdisplay->_bufferinfo._bufferindex, index++)
 3493              		.loc 1 760 0 is_stmt 0 discriminator 1
 3494 007a BB68     		ldr	r3, [r7, #8]
 3495 007c 1B7F     		ldrb	r3, [r3, #28]	@ zero_extendqisi2
 3496 007e 7A7B     		ldrb	r2, [r7, #13]	@ zero_extendqisi2
 3497 0080 9A42     		cmp	r2, r3
 3498 0082 CBD3     		bcc	.L127
 762:.\DisplayBLL.c ****             
 763:.\DisplayBLL.c ****         //CAREFUL WITH RETURNS BETWEEN THE LOCK/UNLOCK CALLS
 764:.\DisplayBLL.c ****         //AND RECURSIVE CALLS THAT WOULD DEADLOCK!
 765:.\DisplayBLL.c ****         I2CBusLock();
 3499              		.loc 1 765 0 is_stmt 1
 3500 0084 FFF7FEFF 		bl	I2CBusLock
 766:.\DisplayBLL.c ****         ClearEepromBuffer();
 3501              		.loc 1 766 0
 3502 0088 FFF7FEFF 		bl	ClearEepromBuffer
 767:.\DisplayBLL.c ****         
 768:.\DisplayBLL.c ****         LoadEepromPage(EEPROM_CONFIGURATION_PAGE5);
 3503              		.loc 1 768 0
 3504 008c 4FF4A070 		mov	r0, #320
 3505 0090 FFF7FEFF 		bl	LoadEepromPage
 769:.\DisplayBLL.c ****         GetEepromBuffer()[0x00] = (uint8)(stationid & 0x00FF);
 3506              		.loc 1 769 0
 3507 0094 FFF7FEFF 		bl	GetEepromBuffer
 3508 0098 0346     		mov	r3, r0
 3509 009a FA89     		ldrh	r2, [r7, #14]	@ movhi
 3510 009c D2B2     		uxtb	r2, r2
 3511 009e 1A70     		strb	r2, [r3]
 770:.\DisplayBLL.c ****         GetEepromBuffer()[0x01] = (uint8)((stationid >> 8) & 0x00FF);
 3512              		.loc 1 770 0
 3513 00a0 FFF7FEFF 		bl	GetEepromBuffer
 3514 00a4 0346     		mov	r3, r0
 3515 00a6 0133     		adds	r3, r3, #1
 3516 00a8 FA89     		ldrh	r2, [r7, #14]
 3517 00aa 120A     		lsrs	r2, r2, #8
 3518 00ac 92B2     		uxth	r2, r2
ARM GAS  C:\Users\RECEPC~1\AppData\Local\Temp\ccBSLvba.s 			page 77


 3519 00ae D2B2     		uxtb	r2, r2
 3520 00b0 1A70     		strb	r2, [r3]
 771:.\DisplayBLL.c ****         StoreEepromPage(EEPROM_CONFIGURATION_PAGE5);
 3521              		.loc 1 771 0
 3522 00b2 4FF4A070 		mov	r0, #320
 3523 00b6 FFF7FEFF 		bl	StoreEepromPage
 772:.\DisplayBLL.c ****         
 773:.\DisplayBLL.c ****         _g_stationidentifier = stationid;
 3524              		.loc 1 773 0
 3525 00ba 054A     		ldr	r2, .L128+4
 3526 00bc FB89     		ldrh	r3, [r7, #14]	@ movhi
 3527 00be 1380     		strh	r3, [r2]	@ movhi
 774:.\DisplayBLL.c ****         
 775:.\DisplayBLL.c ****         I2CBusUnlock();
 3528              		.loc 1 775 0
 3529 00c0 FFF7FEFF 		bl	I2CBusUnlock
 3530              	.L124:
 3531              	.LBE45:
 776:.\DisplayBLL.c ****         
 777:.\DisplayBLL.c ****     }
 778:.\DisplayBLL.c **** }
 3532              		.loc 1 778 0
 3533 00c4 1037     		adds	r7, r7, #16
 3534              		.cfi_def_cfa_offset 16
 3535 00c6 BD46     		mov	sp, r7
 3536              		.cfi_def_cfa_register 13
 3537              		@ sp needed
 3538 00c8 B0BD     		pop	{r4, r5, r7, pc}
 3539              	.L129:
 3540 00ca 00BF     		.align	2
 3541              	.L128:
 3542 00cc 00002440 		.word	1076101120
 3543 00d0 00000000 		.word	_g_stationidentifier
 3544              		.cfi_endproc
 3545              	.LFE77:
 3546              		.size	DisplayStationIDStore, .-DisplayStationIDStore
 3547              		.section	.text.DisplayStationIDLoad,"ax",%progbits
 3548              		.align	2
 3549              		.global	DisplayStationIDLoad
 3550              		.thumb
 3551              		.thumb_func
 3552              		.type	DisplayStationIDLoad, %function
 3553              	DisplayStationIDLoad:
 3554              	.LFB78:
 779:.\DisplayBLL.c **** 
 780:.\DisplayBLL.c **** void DisplayStationIDLoad(void *pparam)
 781:.\DisplayBLL.c **** {
 3555              		.loc 1 781 0
 3556              		.cfi_startproc
 3557              		@ args = 0, pretend = 0, frame = 16
 3558              		@ frame_needed = 1, uses_anonymous_args = 0
 3559 0000 90B5     		push	{r4, r7, lr}
 3560              		.cfi_def_cfa_offset 12
 3561              		.cfi_offset 4, -12
 3562              		.cfi_offset 7, -8
 3563              		.cfi_offset 14, -4
 3564 0002 85B0     		sub	sp, sp, #20
ARM GAS  C:\Users\RECEPC~1\AppData\Local\Temp\ccBSLvba.s 			page 78


 3565              		.cfi_def_cfa_offset 32
 3566 0004 00AF     		add	r7, sp, #0
 3567              		.cfi_def_cfa_register 7
 3568 0006 7860     		str	r0, [r7, #4]
 782:.\DisplayBLL.c ****     PDISPLAYLAYOUTPTR pdisplay = (PDISPLAYLAYOUTPTR)pparam;
 3569              		.loc 1 782 0
 3570 0008 7B68     		ldr	r3, [r7, #4]
 3571 000a FB60     		str	r3, [r7, #12]
 783:.\DisplayBLL.c ****     if(pdisplay)
 3572              		.loc 1 783 0
 3573 000c FB68     		ldr	r3, [r7, #12]
 3574 000e 002B     		cmp	r3, #0
 3575 0010 3DD0     		beq	.L130
 3576              	.LBB46:
 784:.\DisplayBLL.c ****     {
 785:.\DisplayBLL.c ****         //CAREFUL WITH RETURNS BETWEEN THE LOCK/UNLOCK CALLS
 786:.\DisplayBLL.c ****         //AND RECURSIVE CALLS THAT WOULD DEADLOCK!
 787:.\DisplayBLL.c ****         I2CBusLock();
 3577              		.loc 1 787 0
 3578 0012 FFF7FEFF 		bl	I2CBusLock
 788:.\DisplayBLL.c ****         ClearEepromBuffer();
 3579              		.loc 1 788 0
 3580 0016 FFF7FEFF 		bl	ClearEepromBuffer
 789:.\DisplayBLL.c ****         
 790:.\DisplayBLL.c ****         LoadEepromPage(EEPROM_CONFIGURATION_PAGE5);
 3581              		.loc 1 790 0
 3582 001a 4FF4A070 		mov	r0, #320
 3583 001e FFF7FEFF 		bl	LoadEepromPage
 791:.\DisplayBLL.c ****         uint16 stationid = (((uint16)GetEepromBuffer()[0x01] << 8) & 0xFF00) | ((uint16)GetEepromBu
 3584              		.loc 1 791 0
 3585 0022 FFF7FEFF 		bl	GetEepromBuffer
 3586 0026 0346     		mov	r3, r0
 3587 0028 0133     		adds	r3, r3, #1
 3588 002a 1B78     		ldrb	r3, [r3]	@ zero_extendqisi2
 3589 002c 1B02     		lsls	r3, r3, #8
 3590 002e 9CB2     		uxth	r4, r3
 3591 0030 FFF7FEFF 		bl	GetEepromBuffer
 3592 0034 0346     		mov	r3, r0
 3593 0036 1B78     		ldrb	r3, [r3]	@ zero_extendqisi2
 3594 0038 9BB2     		uxth	r3, r3
 3595 003a 2246     		mov	r2, r4	@ movhi
 3596 003c 1343     		orrs	r3, r3, r2
 3597 003e 9BB2     		uxth	r3, r3
 3598 0040 7B81     		strh	r3, [r7, #10]	@ movhi
 792:.\DisplayBLL.c ****         I2CBusUnlock();
 3599              		.loc 1 792 0
 3600 0042 FFF7FEFF 		bl	I2CBusUnlock
 793:.\DisplayBLL.c ****         
 794:.\DisplayBLL.c ****         memset(pdisplay->_bufferinfo._buffer, 0x00, _DISPLAY_BUFFER_SIZE_);
 3601              		.loc 1 794 0
 3602 0046 FB68     		ldr	r3, [r7, #12]
 3603 0048 1D33     		adds	r3, r3, #29
 3604 004a 1846     		mov	r0, r3
 3605 004c 0021     		movs	r1, #0
 3606 004e 1022     		movs	r2, #16
 3607 0050 FFF7FEFF 		bl	memset
 795:.\DisplayBLL.c ****         B78AD90CF552D9B30A(stationid, PBYTECAST(pdisplay->_bufferinfo._buffer));
ARM GAS  C:\Users\RECEPC~1\AppData\Local\Temp\ccBSLvba.s 			page 79


 3608              		.loc 1 795 0
 3609 0054 7A89     		ldrh	r2, [r7, #10]
 3610 0056 4FF00003 		mov	r3, #0
 3611 005a F968     		ldr	r1, [r7, #12]
 3612 005c 01F11D04 		add	r4, r1, #29
 3613 0060 1046     		mov	r0, r2
 3614 0062 1946     		mov	r1, r3
 3615 0064 2246     		mov	r2, r4
 3616 0066 FFF7FEFF 		bl	B78AD90CF552D9B30A
 796:.\DisplayBLL.c ****         pdisplay->_bufferinfo._bufferindex = strlen(pdisplay->_bufferinfo._buffer);
 3617              		.loc 1 796 0
 3618 006a FB68     		ldr	r3, [r7, #12]
 3619 006c 1D33     		adds	r3, r3, #29
 3620 006e 1846     		mov	r0, r3
 3621 0070 FFF7FEFF 		bl	strlen
 3622 0074 0346     		mov	r3, r0
 3623 0076 DAB2     		uxtb	r2, r3
 3624 0078 FB68     		ldr	r3, [r7, #12]
 3625 007a 1A77     		strb	r2, [r3, #28]
 797:.\DisplayBLL.c ****         PSTRBUFFTOGG(PBYTECAST(pdisplay->_bufferinfo._buffer), pdisplay->_bufferinfo._bufferindex);
 3626              		.loc 1 797 0
 3627 007c FB68     		ldr	r3, [r7, #12]
 3628 007e 03F11D02 		add	r2, r3, #29
 3629 0082 FB68     		ldr	r3, [r7, #12]
 3630 0084 1B7F     		ldrb	r3, [r3, #28]	@ zero_extendqisi2
 3631 0086 1046     		mov	r0, r2
 3632 0088 1946     		mov	r1, r3
 3633 008a FFF7FEFF 		bl	PSTRBUFFTOGG
 3634              	.L130:
 3635              	.LBE46:
 798:.\DisplayBLL.c ****     }
 799:.\DisplayBLL.c **** }
 3636              		.loc 1 799 0
 3637 008e 1437     		adds	r7, r7, #20
 3638              		.cfi_def_cfa_offset 12
 3639 0090 BD46     		mov	sp, r7
 3640              		.cfi_def_cfa_register 13
 3641              		@ sp needed
 3642 0092 90BD     		pop	{r4, r7, pc}
 3643              		.cfi_endproc
 3644              	.LFE78:
 3645              		.size	DisplayStationIDLoad, .-DisplayStationIDLoad
 3646              		.section	.text.DisplayPumpIDOffsetLoad,"ax",%progbits
 3647              		.align	2
 3648              		.global	DisplayPumpIDOffsetLoad
 3649              		.thumb
 3650              		.thumb_func
 3651              		.type	DisplayPumpIDOffsetLoad, %function
 3652              	DisplayPumpIDOffsetLoad:
 3653              	.LFB79:
 800:.\DisplayBLL.c **** 
 801:.\DisplayBLL.c **** void DisplayPumpIDOffsetLoad(void *pparam)
 802:.\DisplayBLL.c **** {
 3654              		.loc 1 802 0
 3655              		.cfi_startproc
 3656              		@ args = 0, pretend = 0, frame = 16
 3657              		@ frame_needed = 1, uses_anonymous_args = 0
ARM GAS  C:\Users\RECEPC~1\AppData\Local\Temp\ccBSLvba.s 			page 80


 3658 0000 90B5     		push	{r4, r7, lr}
 3659              		.cfi_def_cfa_offset 12
 3660              		.cfi_offset 4, -12
 3661              		.cfi_offset 7, -8
 3662              		.cfi_offset 14, -4
 3663 0002 85B0     		sub	sp, sp, #20
 3664              		.cfi_def_cfa_offset 32
 3665 0004 00AF     		add	r7, sp, #0
 3666              		.cfi_def_cfa_register 7
 3667 0006 7860     		str	r0, [r7, #4]
 803:.\DisplayBLL.c ****     PDISPLAYLAYOUTPTR pdisplay = (PDISPLAYLAYOUTPTR)pparam;
 3668              		.loc 1 803 0
 3669 0008 7B68     		ldr	r3, [r7, #4]
 3670 000a FB60     		str	r3, [r7, #12]
 804:.\DisplayBLL.c ****     if(pdisplay)
 3671              		.loc 1 804 0
 3672 000c FB68     		ldr	r3, [r7, #12]
 3673 000e 002B     		cmp	r3, #0
 3674 0010 32D0     		beq	.L132
 3675              	.LBB47:
 805:.\DisplayBLL.c ****     {
 806:.\DisplayBLL.c ****         //CAREFUL WITH RETURNS BETWEEN THE LOCK/UNLOCK CALLS
 807:.\DisplayBLL.c ****         //AND RECURSIVE CALLS THAT WOULD DEADLOCK!
 808:.\DisplayBLL.c ****         I2CBusLock();
 3676              		.loc 1 808 0
 3677 0012 FFF7FEFF 		bl	I2CBusLock
 809:.\DisplayBLL.c ****         ClearEepromBuffer();
 3678              		.loc 1 809 0
 3679 0016 FFF7FEFF 		bl	ClearEepromBuffer
 810:.\DisplayBLL.c ****         
 811:.\DisplayBLL.c ****         LoadEepromPage(EEPROM_CONFIGURATION_PAGE7);
 3680              		.loc 1 811 0
 3681 001a 4FF4E070 		mov	r0, #448
 3682 001e FFF7FEFF 		bl	LoadEepromPage
 812:.\DisplayBLL.c ****         uint8 pumpoffset = ((uint8)GetEepromBuffer()[0x09]);
 3683              		.loc 1 812 0
 3684 0022 FFF7FEFF 		bl	GetEepromBuffer
 3685 0026 0346     		mov	r3, r0
 3686 0028 5B7A     		ldrb	r3, [r3, #9]
 3687 002a FB72     		strb	r3, [r7, #11]
 813:.\DisplayBLL.c ****         I2CBusUnlock();
 3688              		.loc 1 813 0
 3689 002c FFF7FEFF 		bl	I2CBusUnlock
 814:.\DisplayBLL.c ****         
 815:.\DisplayBLL.c ****         memset(pdisplay->_bufferinfo._buffer, 0x00, _DISPLAY_BUFFER_SIZE_);
 3690              		.loc 1 815 0
 3691 0030 FB68     		ldr	r3, [r7, #12]
 3692 0032 1D33     		adds	r3, r3, #29
 3693 0034 1846     		mov	r0, r3
 3694 0036 0021     		movs	r1, #0
 3695 0038 1022     		movs	r2, #16
 3696 003a FFF7FEFF 		bl	memset
 816:.\DisplayBLL.c ****         B78AD90CF552D9B30A(pumpoffset, PBYTECAST(pdisplay->_bufferinfo._buffer));
 3697              		.loc 1 816 0
 3698 003e FA7A     		ldrb	r2, [r7, #11]	@ zero_extendqisi2
 3699 0040 4FF00003 		mov	r3, #0
 3700 0044 F968     		ldr	r1, [r7, #12]
ARM GAS  C:\Users\RECEPC~1\AppData\Local\Temp\ccBSLvba.s 			page 81


 3701 0046 01F11D04 		add	r4, r1, #29
 3702 004a 1046     		mov	r0, r2
 3703 004c 1946     		mov	r1, r3
 3704 004e 2246     		mov	r2, r4
 3705 0050 FFF7FEFF 		bl	B78AD90CF552D9B30A
 817:.\DisplayBLL.c ****         pdisplay->_bufferinfo._bufferindex = strlen(pdisplay->_bufferinfo._buffer);
 3706              		.loc 1 817 0
 3707 0054 FB68     		ldr	r3, [r7, #12]
 3708 0056 1D33     		adds	r3, r3, #29
 3709 0058 1846     		mov	r0, r3
 3710 005a FFF7FEFF 		bl	strlen
 3711 005e 0346     		mov	r3, r0
 3712 0060 DAB2     		uxtb	r2, r3
 3713 0062 FB68     		ldr	r3, [r7, #12]
 3714 0064 1A77     		strb	r2, [r3, #28]
 818:.\DisplayBLL.c ****         PSTRBUFFTOGG(PBYTECAST(pdisplay->_bufferinfo._buffer), pdisplay->_bufferinfo._bufferindex);
 3715              		.loc 1 818 0
 3716 0066 FB68     		ldr	r3, [r7, #12]
 3717 0068 03F11D02 		add	r2, r3, #29
 3718 006c FB68     		ldr	r3, [r7, #12]
 3719 006e 1B7F     		ldrb	r3, [r3, #28]	@ zero_extendqisi2
 3720 0070 1046     		mov	r0, r2
 3721 0072 1946     		mov	r1, r3
 3722 0074 FFF7FEFF 		bl	PSTRBUFFTOGG
 3723              	.L132:
 3724              	.LBE47:
 819:.\DisplayBLL.c ****     }
 820:.\DisplayBLL.c **** }
 3725              		.loc 1 820 0
 3726 0078 1437     		adds	r7, r7, #20
 3727              		.cfi_def_cfa_offset 12
 3728 007a BD46     		mov	sp, r7
 3729              		.cfi_def_cfa_register 13
 3730              		@ sp needed
 3731 007c 90BD     		pop	{r4, r7, pc}
 3732              		.cfi_endproc
 3733              	.LFE79:
 3734              		.size	DisplayPumpIDOffsetLoad, .-DisplayPumpIDOffsetLoad
 3735 007e 00BF     		.section	.text.DisplayPumpIDOffsetDecorator,"ax",%progbits
 3736              		.align	2
 3737              		.global	DisplayPumpIDOffsetDecorator
 3738              		.thumb
 3739              		.thumb_func
 3740              		.type	DisplayPumpIDOffsetDecorator, %function
 3741              	DisplayPumpIDOffsetDecorator:
 3742              	.LFB80:
 821:.\DisplayBLL.c **** 
 822:.\DisplayBLL.c **** void DisplayPumpIDOffsetDecorator(void *pparam)
 823:.\DisplayBLL.c **** {
 3743              		.loc 1 823 0
 3744              		.cfi_startproc
 3745              		@ args = 0, pretend = 0, frame = 24
 3746              		@ frame_needed = 1, uses_anonymous_args = 0
 3747 0000 F0B5     		push	{r4, r5, r6, r7, lr}
 3748              		.cfi_def_cfa_offset 20
 3749              		.cfi_offset 4, -20
 3750              		.cfi_offset 5, -16
ARM GAS  C:\Users\RECEPC~1\AppData\Local\Temp\ccBSLvba.s 			page 82


 3751              		.cfi_offset 6, -12
 3752              		.cfi_offset 7, -8
 3753              		.cfi_offset 14, -4
 3754 0002 8BB0     		sub	sp, sp, #44
 3755              		.cfi_def_cfa_offset 64
 3756 0004 04AF     		add	r7, sp, #16
 3757              		.cfi_def_cfa 7, 48
 3758 0006 7860     		str	r0, [r7, #4]
 824:.\DisplayBLL.c ****     PDISPLAYLAYOUTPTR pdisplay = (PDISPLAYLAYOUTPTR)pparam;
 3759              		.loc 1 824 0
 3760 0008 7B68     		ldr	r3, [r7, #4]
 3761 000a 7B61     		str	r3, [r7, #20]
 825:.\DisplayBLL.c ****     if(pdisplay)
 3762              		.loc 1 825 0
 3763 000c 7B69     		ldr	r3, [r7, #20]
 3764 000e 002B     		cmp	r3, #0
 3765 0010 65D0     		beq	.L134
 826:.\DisplayBLL.c ****     {
 827:.\DisplayBLL.c ****         pdisplay->_bufferinfo._xpos = pdisplay->_pcurrflow->_inputboxinfo._xdefpos;
 3766              		.loc 1 827 0
 3767 0012 7B69     		ldr	r3, [r7, #20]
 3768 0014 1B69     		ldr	r3, [r3, #16]
 3769 0016 9A8D     		ldrh	r2, [r3, #44]
 3770 0018 7B69     		ldr	r3, [r7, #20]
 3771 001a 1A83     		strh	r2, [r3, #24]	@ movhi
 828:.\DisplayBLL.c ****         pdisplay->_bufferinfo._ypos = pdisplay->_pcurrflow->_inputboxinfo._ydefpos;
 3772              		.loc 1 828 0
 3773 001c 7B69     		ldr	r3, [r7, #20]
 3774 001e 1B69     		ldr	r3, [r3, #16]
 3775 0020 DA8D     		ldrh	r2, [r3, #46]
 3776 0022 7B69     		ldr	r3, [r7, #20]
 3777 0024 5A83     		strh	r2, [r3, #26]	@ movhi
 829:.\DisplayBLL.c ****         if(pdisplay->_dispid == DISPLAY1)
 3778              		.loc 1 829 0
 3779 0026 7B69     		ldr	r3, [r7, #20]
 3780 0028 1B78     		ldrb	r3, [r3]	@ zero_extendqisi2
 3781 002a 002B     		cmp	r3, #0
 3782 002c 2CD1     		bne	.L136
 3783              	.LBB48:
 830:.\DisplayBLL.c ****         {
 831:.\DisplayBLL.c ****             UARTMessage *puartdisp = GetUARTMessageSlot(UART_DISPLAY1);
 3784              		.loc 1 831 0
 3785 002e A320     		movs	r0, #163
 3786 0030 FFF7FEFF 		bl	GetUARTMessageSlot
 3787 0034 3861     		str	r0, [r7, #16]
 832:.\DisplayBLL.c ****             if(puartdisp)
 3788              		.loc 1 832 0
 3789 0036 3B69     		ldr	r3, [r7, #16]
 3790 0038 002B     		cmp	r3, #0
 3791 003a 24D0     		beq	.L137
 833:.\DisplayBLL.c ****             {
 834:.\DisplayBLL.c ****                 puartdisp->_messagelength = DisplayOutputString(pdisplay->_bufferinfo._xpos, pdispl
 3792              		.loc 1 834 0
 3793 003c 7B69     		ldr	r3, [r7, #20]
 3794 003e B3F818E0 		ldrh	lr, [r3, #24]
 3795 0042 7B69     		ldr	r3, [r7, #20]
 3796 0044 5E8B     		ldrh	r6, [r3, #26]
ARM GAS  C:\Users\RECEPC~1\AppData\Local\Temp\ccBSLvba.s 			page 83


 3797 0046 3B69     		ldr	r3, [r7, #16]
 3798 0048 1D1D     		adds	r5, r3, #4
 3799 004a 7B69     		ldr	r3, [r7, #20]
 3800 004c 03F11D04 		add	r4, r3, #29
 3801 0050 7B69     		ldr	r3, [r7, #20]
 3802 0052 1B69     		ldr	r3, [r3, #16]
 3803 0054 93F83030 		ldrb	r3, [r3, #48]	@ zero_extendqisi2
 3804 0058 9BB2     		uxth	r3, r3
 3805 005a 7A69     		ldr	r2, [r7, #20]
 3806 005c 1269     		ldr	r2, [r2, #16]
 3807 005e 0093     		str	r3, [sp]
 3808 0060 01AB     		add	r3, sp, #4
 3809 0062 3232     		adds	r2, r2, #50
 3810 0064 1068     		ldr	r0, [r2]	@ unaligned
 3811 0066 5168     		ldr	r1, [r2, #4]	@ unaligned
 3812 0068 03C3     		stmia	r3!, {r0, r1}
 3813 006a 7046     		mov	r0, lr
 3814 006c 3146     		mov	r1, r6
 3815 006e 2A46     		mov	r2, r5
 3816 0070 2346     		mov	r3, r4
 3817 0072 FFF7FEFF 		bl	DisplayOutputString
 3818 0076 0346     		mov	r3, r0
 3819 0078 1A46     		mov	r2, r3
 3820 007a 3B69     		ldr	r3, [r7, #16]
 3821 007c 5A80     		strh	r2, [r3, #2]	@ movhi
 835:.\DisplayBLL.c ****                 puartdisp->_messagestate = PENDING;
 3822              		.loc 1 835 0
 3823 007e 3B69     		ldr	r3, [r7, #16]
 3824 0080 C222     		movs	r2, #194
 3825 0082 1A70     		strb	r2, [r3]
 3826              	.LBE48:
 3827 0084 2BE0     		b	.L134
 3828              	.L137:
 3829 0086 2AE0     		b	.L134
 3830              	.L136:
 3831              	.LBB49:
 836:.\DisplayBLL.c ****             }
 837:.\DisplayBLL.c ****         }
 838:.\DisplayBLL.c ****         else
 839:.\DisplayBLL.c ****         {
 840:.\DisplayBLL.c ****             UARTMessage *puartdisp = GetUARTMessageSlot(UART_DISPLAY2);
 3832              		.loc 1 840 0
 3833 0088 A420     		movs	r0, #164
 3834 008a FFF7FEFF 		bl	GetUARTMessageSlot
 3835 008e F860     		str	r0, [r7, #12]
 841:.\DisplayBLL.c ****             if(puartdisp)
 3836              		.loc 1 841 0
 3837 0090 FB68     		ldr	r3, [r7, #12]
 3838 0092 002B     		cmp	r3, #0
 3839 0094 23D0     		beq	.L134
 842:.\DisplayBLL.c ****             {
 843:.\DisplayBLL.c ****                 puartdisp->_messagelength = DisplayOutputString(pdisplay->_bufferinfo._xpos, pdispl
 3840              		.loc 1 843 0
 3841 0096 7B69     		ldr	r3, [r7, #20]
 3842 0098 B3F818E0 		ldrh	lr, [r3, #24]
 3843 009c 7B69     		ldr	r3, [r7, #20]
 3844 009e 5E8B     		ldrh	r6, [r3, #26]
ARM GAS  C:\Users\RECEPC~1\AppData\Local\Temp\ccBSLvba.s 			page 84


 3845 00a0 FB68     		ldr	r3, [r7, #12]
 3846 00a2 1D1D     		adds	r5, r3, #4
 3847 00a4 7B69     		ldr	r3, [r7, #20]
 3848 00a6 03F11D04 		add	r4, r3, #29
 3849 00aa 7B69     		ldr	r3, [r7, #20]
 3850 00ac 1B69     		ldr	r3, [r3, #16]
 3851 00ae 93F83030 		ldrb	r3, [r3, #48]	@ zero_extendqisi2
 3852 00b2 9BB2     		uxth	r3, r3
 3853 00b4 7A69     		ldr	r2, [r7, #20]
 3854 00b6 1269     		ldr	r2, [r2, #16]
 3855 00b8 0093     		str	r3, [sp]
 3856 00ba 01AB     		add	r3, sp, #4
 3857 00bc 3232     		adds	r2, r2, #50
 3858 00be 1068     		ldr	r0, [r2]	@ unaligned
 3859 00c0 5168     		ldr	r1, [r2, #4]	@ unaligned
 3860 00c2 03C3     		stmia	r3!, {r0, r1}
 3861 00c4 7046     		mov	r0, lr
 3862 00c6 3146     		mov	r1, r6
 3863 00c8 2A46     		mov	r2, r5
 3864 00ca 2346     		mov	r3, r4
 3865 00cc FFF7FEFF 		bl	DisplayOutputString
 3866 00d0 0346     		mov	r3, r0
 3867 00d2 1A46     		mov	r2, r3
 3868 00d4 FB68     		ldr	r3, [r7, #12]
 3869 00d6 5A80     		strh	r2, [r3, #2]	@ movhi
 844:.\DisplayBLL.c ****                 puartdisp->_messagestate = PENDING;
 3870              		.loc 1 844 0
 3871 00d8 FB68     		ldr	r3, [r7, #12]
 3872 00da C222     		movs	r2, #194
 3873 00dc 1A70     		strb	r2, [r3]
 3874              	.L134:
 3875              	.LBE49:
 845:.\DisplayBLL.c ****             }
 846:.\DisplayBLL.c ****         }
 847:.\DisplayBLL.c ****     }
 848:.\DisplayBLL.c **** }
 3876              		.loc 1 848 0
 3877 00de 1C37     		adds	r7, r7, #28
 3878              		.cfi_def_cfa_offset 20
 3879 00e0 BD46     		mov	sp, r7
 3880              		.cfi_def_cfa_register 13
 3881              		@ sp needed
 3882 00e2 F0BD     		pop	{r4, r5, r6, r7, pc}
 3883              		.cfi_endproc
 3884              	.LFE80:
 3885              		.size	DisplayPumpIDOffsetDecorator, .-DisplayPumpIDOffsetDecorator
 3886              		.section	.text.DisplayPumpIDOffsetStore,"ax",%progbits
 3887              		.align	2
 3888              		.global	DisplayPumpIDOffsetStore
 3889              		.thumb
 3890              		.thumb_func
 3891              		.type	DisplayPumpIDOffsetStore, %function
 3892              	DisplayPumpIDOffsetStore:
 3893              	.LFB81:
 849:.\DisplayBLL.c **** 
 850:.\DisplayBLL.c **** void DisplayPumpIDOffsetStore(void *pparam)
 851:.\DisplayBLL.c **** {
ARM GAS  C:\Users\RECEPC~1\AppData\Local\Temp\ccBSLvba.s 			page 85


 3894              		.loc 1 851 0
 3895              		.cfi_startproc
 3896              		@ args = 0, pretend = 0, frame = 16
 3897              		@ frame_needed = 1, uses_anonymous_args = 0
 3898 0000 B0B5     		push	{r4, r5, r7, lr}
 3899              		.cfi_def_cfa_offset 16
 3900              		.cfi_offset 4, -16
 3901              		.cfi_offset 5, -12
 3902              		.cfi_offset 7, -8
 3903              		.cfi_offset 14, -4
 3904 0002 84B0     		sub	sp, sp, #16
 3905              		.cfi_def_cfa_offset 32
 3906 0004 00AF     		add	r7, sp, #0
 3907              		.cfi_def_cfa_register 7
 3908 0006 7860     		str	r0, [r7, #4]
 852:.\DisplayBLL.c ****     PDISPLAYLAYOUTPTR pdisplay = (PDISPLAYLAYOUTPTR)pparam;
 3909              		.loc 1 852 0
 3910 0008 7B68     		ldr	r3, [r7, #4]
 3911 000a BB60     		str	r3, [r7, #8]
 853:.\DisplayBLL.c ****     if(pdisplay)
 3912              		.loc 1 853 0
 3913 000c BB68     		ldr	r3, [r7, #8]
 3914 000e 002B     		cmp	r3, #0
 3915 0010 50D0     		beq	.L138
 3916              	.LBB50:
 854:.\DisplayBLL.c ****     {
 855:.\DisplayBLL.c ****         //CAREFUL WITH RETURNS BETWEEN THE LOCK/UNLOCK CALLS
 856:.\DisplayBLL.c ****         //AND RECURSIVE CALLS THAT WOULD DEADLOCK!
 857:.\DisplayBLL.c ****         uint8 pumpidoffset = 0x00;
 3917              		.loc 1 857 0
 3918 0012 0023     		movs	r3, #0
 3919 0014 FB73     		strb	r3, [r7, #15]
 858:.\DisplayBLL.c ****         FOR(uint8 index = 0, index < pdisplay->_bufferinfo._bufferindex, index++)
 3920              		.loc 1 858 0
 3921 0016 0023     		movs	r3, #0
 3922 0018 BB73     		strb	r3, [r7, #14]
 3923 001a 2FE0     		b	.L140
 3924              	.L141:
 859:.\DisplayBLL.c ****             pumpidoffset += (uint16)(pow(10, pdisplay->_bufferinfo._bufferindex - index - 1)*(pdisp
 3925              		.loc 1 859 0 discriminator 3
 3926 001c BB68     		ldr	r3, [r7, #8]
 3927 001e 1B7F     		ldrb	r3, [r3, #28]	@ zero_extendqisi2
 3928 0020 1A46     		mov	r2, r3
 3929 0022 BB7B     		ldrb	r3, [r7, #14]	@ zero_extendqisi2
 3930 0024 D31A     		subs	r3, r2, r3
 3931 0026 013B     		subs	r3, r3, #1
 3932 0028 1846     		mov	r0, r3
 3933 002a FFF7FEFF 		bl	__aeabi_i2d
 3934 002e 0246     		mov	r2, r0
 3935 0030 0B46     		mov	r3, r1
 3936 0032 4FF00000 		mov	r0, #0
 3937 0036 2149     		ldr	r1, .L142
 3938 0038 FFF7FEFF 		bl	pow
 3939 003c 0446     		mov	r4, r0
 3940 003e 0D46     		mov	r5, r1
 3941 0040 BB7B     		ldrb	r3, [r7, #14]	@ zero_extendqisi2
 3942 0042 BA68     		ldr	r2, [r7, #8]
ARM GAS  C:\Users\RECEPC~1\AppData\Local\Temp\ccBSLvba.s 			page 86


 3943 0044 1344     		add	r3, r3, r2
 3944 0046 5B7F     		ldrb	r3, [r3, #29]	@ zero_extendqisi2
 3945 0048 03F00F03 		and	r3, r3, #15
 3946 004c 1846     		mov	r0, r3
 3947 004e FFF7FEFF 		bl	__aeabi_i2d
 3948 0052 0246     		mov	r2, r0
 3949 0054 0B46     		mov	r3, r1
 3950 0056 2046     		mov	r0, r4
 3951 0058 2946     		mov	r1, r5
 3952 005a FFF7FEFF 		bl	__aeabi_dmul
 3953 005e 0246     		mov	r2, r0
 3954 0060 0B46     		mov	r3, r1
 3955 0062 1046     		mov	r0, r2
 3956 0064 1946     		mov	r1, r3
 3957 0066 FFF7FEFF 		bl	__aeabi_d2uiz
 3958 006a 0346     		mov	r3, r0
 3959 006c 9BB2     		uxth	r3, r3
 3960 006e DAB2     		uxtb	r2, r3
 3961 0070 FB7B     		ldrb	r3, [r7, #15]
 3962 0072 1344     		add	r3, r3, r2
 3963 0074 FB73     		strb	r3, [r7, #15]
 858:.\DisplayBLL.c ****         FOR(uint8 index = 0, index < pdisplay->_bufferinfo._bufferindex, index++)
 3964              		.loc 1 858 0 discriminator 3
 3965 0076 BB7B     		ldrb	r3, [r7, #14]	@ zero_extendqisi2
 3966 0078 0133     		adds	r3, r3, #1
 3967 007a BB73     		strb	r3, [r7, #14]
 3968              	.L140:
 858:.\DisplayBLL.c ****         FOR(uint8 index = 0, index < pdisplay->_bufferinfo._bufferindex, index++)
 3969              		.loc 1 858 0 is_stmt 0 discriminator 1
 3970 007c BB68     		ldr	r3, [r7, #8]
 3971 007e 1B7F     		ldrb	r3, [r3, #28]	@ zero_extendqisi2
 3972 0080 BA7B     		ldrb	r2, [r7, #14]	@ zero_extendqisi2
 3973 0082 9A42     		cmp	r2, r3
 3974 0084 CAD3     		bcc	.L141
 860:.\DisplayBLL.c ****             
 861:.\DisplayBLL.c ****         I2CBusLock();
 3975              		.loc 1 861 0 is_stmt 1
 3976 0086 FFF7FEFF 		bl	I2CBusLock
 862:.\DisplayBLL.c ****         ClearEepromBuffer();
 3977              		.loc 1 862 0
 3978 008a FFF7FEFF 		bl	ClearEepromBuffer
 863:.\DisplayBLL.c ****         
 864:.\DisplayBLL.c ****         LoadEepromPage(EEPROM_CONFIGURATION_PAGE7);
 3979              		.loc 1 864 0
 3980 008e 4FF4E070 		mov	r0, #448
 3981 0092 FFF7FEFF 		bl	LoadEepromPage
 865:.\DisplayBLL.c ****         GetEepromBuffer()[0x09] = (uint8)pumpidoffset;
 3982              		.loc 1 865 0
 3983 0096 FFF7FEFF 		bl	GetEepromBuffer
 3984 009a 0346     		mov	r3, r0
 3985 009c 0933     		adds	r3, r3, #9
 3986 009e FA7B     		ldrb	r2, [r7, #15]
 3987 00a0 1A70     		strb	r2, [r3]
 866:.\DisplayBLL.c ****         StoreEepromPage(EEPROM_CONFIGURATION_PAGE7);
 3988              		.loc 1 866 0
 3989 00a2 4FF4E070 		mov	r0, #448
 3990 00a6 FFF7FEFF 		bl	StoreEepromPage
ARM GAS  C:\Users\RECEPC~1\AppData\Local\Temp\ccBSLvba.s 			page 87


 867:.\DisplayBLL.c ****         
 868:.\DisplayBLL.c ****         _g_dispenserlayoutinfo._positionoffset = (uint8)pumpidoffset;
 3991              		.loc 1 868 0
 3992 00aa 054A     		ldr	r2, .L142+4
 3993 00ac FB7B     		ldrb	r3, [r7, #15]
 3994 00ae 9374     		strb	r3, [r2, #18]
 869:.\DisplayBLL.c ****         
 870:.\DisplayBLL.c ****         I2CBusUnlock();
 3995              		.loc 1 870 0
 3996 00b0 FFF7FEFF 		bl	I2CBusUnlock
 3997              	.L138:
 3998              	.LBE50:
 871:.\DisplayBLL.c ****         
 872:.\DisplayBLL.c ****     }
 873:.\DisplayBLL.c **** }
 3999              		.loc 1 873 0
 4000 00b4 1037     		adds	r7, r7, #16
 4001              		.cfi_def_cfa_offset 16
 4002 00b6 BD46     		mov	sp, r7
 4003              		.cfi_def_cfa_register 13
 4004              		@ sp needed
 4005 00b8 B0BD     		pop	{r4, r5, r7, pc}
 4006              	.L143:
 4007 00ba 00BF     		.align	2
 4008              	.L142:
 4009 00bc 00002440 		.word	1076101120
 4010 00c0 00000000 		.word	_g_dispenserlayoutinfo
 4011              		.cfi_endproc
 4012              	.LFE81:
 4013              		.size	DisplayPumpIDOffsetStore, .-DisplayPumpIDOffsetStore
 4014              		.section	.rodata
 4015 014f 00       		.align	2
 4016              	.LC6:
 4017 0150 AA       		.byte	-86
 4018 0151 00       		.byte	0
 4019 0152 00       		.byte	0
 4020 0153 FF       		.byte	-1
 4021 0154 CC       		.byte	-52
 4022 0155 33       		.byte	51
 4023 0156 C3       		.byte	-61
 4024 0157 3C       		.byte	60
 4025              		.section	.text.iButtonScreenNotification,"ax",%progbits
 4026              		.align	2
 4027              		.global	iButtonScreenNotification
 4028              		.thumb
 4029              		.thumb_func
 4030              		.type	iButtonScreenNotification, %function
 4031              	iButtonScreenNotification:
 4032              	.LFB82:
 874:.\DisplayBLL.c **** 
 875:.\DisplayBLL.c **** //@Created By: HIJH
 876:.\DisplayBLL.c **** //@Septembre de 2016
 877:.\DisplayBLL.c **** void iButtonScreenNotification(LPVOID pparam)
 878:.\DisplayBLL.c **** {
 4033              		.loc 1 878 0
 4034              		.cfi_startproc
 4035              		@ args = 0, pretend = 0, frame = 32
ARM GAS  C:\Users\RECEPC~1\AppData\Local\Temp\ccBSLvba.s 			page 88


 4036              		@ frame_needed = 1, uses_anonymous_args = 0
 4037 0000 80B5     		push	{r7, lr}
 4038              		.cfi_def_cfa_offset 8
 4039              		.cfi_offset 7, -8
 4040              		.cfi_offset 14, -4
 4041 0002 88B0     		sub	sp, sp, #32
 4042              		.cfi_def_cfa_offset 40
 4043 0004 00AF     		add	r7, sp, #0
 4044              		.cfi_def_cfa_register 7
 4045 0006 7860     		str	r0, [r7, #4]
 879:.\DisplayBLL.c ****     PSINKMESSAGEPTR pmsg = (PSINKMESSAGEPTR)pparam;
 4046              		.loc 1 879 0
 4047 0008 7B68     		ldr	r3, [r7, #4]
 4048 000a FB61     		str	r3, [r7, #28]
 880:.\DisplayBLL.c ****     PDISPLAYLAYOUTPTR pdisplay = (PDISPLAYLAYOUTPTR)pmsg->_pdata;
 4049              		.loc 1 880 0
 4050 000c FB69     		ldr	r3, [r7, #28]
 4051 000e D3F89031 		ldr	r3, [r3, #400]
 4052 0012 BB61     		str	r3, [r7, #24]
 881:.\DisplayBLL.c ****     if(pdisplay)
 4053              		.loc 1 881 0
 4054 0014 BB69     		ldr	r3, [r7, #24]
 4055 0016 002B     		cmp	r3, #0
 4056 0018 38D0     		beq	.L144
 4057              	.LBB51:
 882:.\DisplayBLL.c ****     {
 883:.\DisplayBLL.c ****         pdisplay->_timeoutscrid = DISPLAY_ID_RECONOCIDO;
 4058              		.loc 1 883 0
 4059 001a BB69     		ldr	r3, [r7, #24]
 4060 001c 1322     		movs	r2, #19
 4061 001e 9A72     		strb	r2, [r3, #10]
 884:.\DisplayBLL.c ****         //Here we are storing the serial identifier read from the iButton device
 885:.\DisplayBLL.c ****         memcpy(pdisplay->_bufferinfo._buffer, pmsg->_buffer, _IBUTTON_PAYLOAD_LENGTH_);
 4062              		.loc 1 885 0
 4063 0020 BB69     		ldr	r3, [r7, #24]
 4064 0022 03F11D02 		add	r2, r3, #29
 4065 0026 FB69     		ldr	r3, [r7, #28]
 4066 0028 0C33     		adds	r3, r3, #12
 4067 002a 1046     		mov	r0, r2
 4068 002c 1946     		mov	r1, r3
 4069 002e 0822     		movs	r2, #8
 4070 0030 FFF7FEFF 		bl	memcpy
 886:.\DisplayBLL.c ****         pdisplay->_bufferinfo._bufferindex = _IBUTTON_PAYLOAD_LENGTH_;
 4071              		.loc 1 886 0
 4072 0034 BB69     		ldr	r3, [r7, #24]
 4073 0036 0822     		movs	r2, #8
 4074 0038 1A77     		strb	r2, [r3, #28]
 887:.\DisplayBLL.c ****         
 888:.\DisplayBLL.c ****         _ALLOCATE_SINKMESSAGE_SLOT(psinkmsg);
 4075              		.loc 1 888 0
 4076 003a FFF7FEFF 		bl	AllocateMessageSlot
 4077 003e 7861     		str	r0, [r7, #20]
 889:.\DisplayBLL.c ****         if(psinkmsg)
 4078              		.loc 1 889 0
 4079 0040 7B69     		ldr	r3, [r7, #20]
 4080 0042 002B     		cmp	r3, #0
 4081 0044 22D0     		beq	.L144
ARM GAS  C:\Users\RECEPC~1\AppData\Local\Temp\ccBSLvba.s 			page 89


 4082              	.LBB52:
 890:.\DisplayBLL.c ****         {
 891:.\DisplayBLL.c ****             
 892:.\DisplayBLL.c ****             char8 pdummybuffer[] = { 0xAA, 0x00, 0x00, 0xFF, 0xCC, 0x33, 0xC3, 0x3C };
 4083              		.loc 1 892 0
 4084 0046 134A     		ldr	r2, .L148
 4085 0048 07F10C03 		add	r3, r7, #12
 4086 004c 1068     		ldr	r0, [r2]	@ unaligned
 4087 004e 5168     		ldr	r1, [r2, #4]	@ unaligned
 4088 0050 03C3     		stmia	r3!, {r0, r1}
 893:.\DisplayBLL.c ****             if(pdisplay->_dispid == DISPLAY1)
 4089              		.loc 1 893 0
 4090 0052 BB69     		ldr	r3, [r7, #24]
 4091 0054 1B78     		ldrb	r3, [r3]	@ zero_extendqisi2
 4092 0056 002B     		cmp	r3, #0
 4093 0058 03D1     		bne	.L146
 894:.\DisplayBLL.c ****                 psinkmsg->_messageid = DISPLAY1_RECEPTION;
 4094              		.loc 1 894 0
 4095 005a 7B69     		ldr	r3, [r7, #20]
 4096 005c 1F22     		movs	r2, #31
 4097 005e 5A70     		strb	r2, [r3, #1]
 4098 0060 02E0     		b	.L147
 4099              	.L146:
 895:.\DisplayBLL.c ****             else
 896:.\DisplayBLL.c ****                 psinkmsg->_messageid = DISPLAY2_RECEPTION;
 4100              		.loc 1 896 0
 4101 0062 7B69     		ldr	r3, [r7, #20]
 4102 0064 2322     		movs	r2, #35
 4103 0066 5A70     		strb	r2, [r3, #1]
 4104              	.L147:
 897:.\DisplayBLL.c ****             
 898:.\DisplayBLL.c ****             psinkmsg->_messagetype = FIRSTFOUND;
 4105              		.loc 1 898 0
 4106 0068 7B69     		ldr	r3, [r7, #20]
 4107 006a 0322     		movs	r2, #3
 4108 006c 9A70     		strb	r2, [r3, #2]
 899:.\DisplayBLL.c ****             memcpy(psinkmsg->_buffer, (const void*)pdummybuffer, sizeof(pdummybuffer));
 4109              		.loc 1 899 0
 4110 006e 7B69     		ldr	r3, [r7, #20]
 4111 0070 0C33     		adds	r3, r3, #12
 4112 0072 1A46     		mov	r2, r3
 4113 0074 07F10C03 		add	r3, r7, #12
 4114 0078 03CB     		ldmia	r3!, {r0, r1}
 4115 007a 1060     		str	r0, [r2]	@ unaligned
 4116 007c 5160     		str	r1, [r2, #4]	@ unaligned
 900:.\DisplayBLL.c ****             psinkmsg->_buffersize = sizeof(pdummybuffer);
 4117              		.loc 1 900 0
 4118 007e 7B69     		ldr	r3, [r7, #20]
 4119 0080 0822     		movs	r2, #8
 4120 0082 A3F88C21 		strh	r2, [r3, #396]	@ movhi
 901:.\DisplayBLL.c ****             psinkmsg->_messagestate = SINK_BUSY;
 4121              		.loc 1 901 0
 4122 0086 7B69     		ldr	r3, [r7, #20]
 4123 0088 0322     		movs	r2, #3
 4124 008a DA70     		strb	r2, [r3, #3]
 4125              	.L144:
 4126              	.LBE52:
ARM GAS  C:\Users\RECEPC~1\AppData\Local\Temp\ccBSLvba.s 			page 90


 4127              	.LBE51:
 902:.\DisplayBLL.c ****             
 903:.\DisplayBLL.c ****         }
 904:.\DisplayBLL.c ****     }
 905:.\DisplayBLL.c **** }
 4128              		.loc 1 905 0
 4129 008c 2037     		adds	r7, r7, #32
 4130              		.cfi_def_cfa_offset 8
 4131 008e BD46     		mov	sp, r7
 4132              		.cfi_def_cfa_register 13
 4133              		@ sp needed
 4134 0090 80BD     		pop	{r7, pc}
 4135              	.L149:
 4136 0092 00BF     		.align	2
 4137              	.L148:
 4138 0094 50010000 		.word	.LC6
 4139              		.cfi_endproc
 4140              	.LFE82:
 4141              		.size	iButtonScreenNotification, .-iButtonScreenNotification
 4142              		.section	.text.TerminateiButtonScan,"ax",%progbits
 4143              		.align	2
 4144              		.global	TerminateiButtonScan
 4145              		.thumb
 4146              		.thumb_func
 4147              		.type	TerminateiButtonScan, %function
 4148              	TerminateiButtonScan:
 4149              	.LFB83:
 906:.\DisplayBLL.c **** 
 907:.\DisplayBLL.c **** //@Created By: HIJH
 908:.\DisplayBLL.c **** //@Septembre de 2016
 909:.\DisplayBLL.c **** void TerminateiButtonScan(void *pparam)
 910:.\DisplayBLL.c **** {
 4150              		.loc 1 910 0
 4151              		.cfi_startproc
 4152              		@ args = 0, pretend = 0, frame = 16
 4153              		@ frame_needed = 1, uses_anonymous_args = 0
 4154              		@ link register save eliminated.
 4155 0000 80B4     		push	{r7}
 4156              		.cfi_def_cfa_offset 4
 4157              		.cfi_offset 7, -4
 4158 0002 85B0     		sub	sp, sp, #20
 4159              		.cfi_def_cfa_offset 24
 4160 0004 00AF     		add	r7, sp, #0
 4161              		.cfi_def_cfa_register 7
 4162 0006 7860     		str	r0, [r7, #4]
 911:.\DisplayBLL.c ****     PDISPLAYLAYOUTPTR pdisplay = (PDISPLAYLAYOUTPTR)pparam;
 4163              		.loc 1 911 0
 4164 0008 7B68     		ldr	r3, [r7, #4]
 4165 000a FB60     		str	r3, [r7, #12]
 912:.\DisplayBLL.c ****     if(pdisplay->_pdata)
 4166              		.loc 1 912 0
 4167 000c FB68     		ldr	r3, [r7, #12]
 4168 000e 5B6B     		ldr	r3, [r3, #52]
 4169 0010 002B     		cmp	r3, #0
 4170 0012 0AD0     		beq	.L150
 913:.\DisplayBLL.c ****     {
 914:.\DisplayBLL.c ****         if((PSINKMESSAGEPTR)pdisplay->_pdata)
ARM GAS  C:\Users\RECEPC~1\AppData\Local\Temp\ccBSLvba.s 			page 91


 4171              		.loc 1 914 0
 4172 0014 FB68     		ldr	r3, [r7, #12]
 4173 0016 5B6B     		ldr	r3, [r3, #52]
 4174 0018 002B     		cmp	r3, #0
 4175 001a 03D0     		beq	.L152
 915:.\DisplayBLL.c ****             ((PSINKMESSAGEPTR)pdisplay->_pdata)->_selfkill = true;
 4176              		.loc 1 915 0
 4177 001c FB68     		ldr	r3, [r7, #12]
 4178 001e 5B6B     		ldr	r3, [r3, #52]
 4179 0020 0122     		movs	r2, #1
 4180 0022 1A70     		strb	r2, [r3]
 4181              	.L152:
 916:.\DisplayBLL.c ****             
 917:.\DisplayBLL.c ****         pdisplay->_pdata = PNEAR_NULLPTR;
 4182              		.loc 1 917 0
 4183 0024 FB68     		ldr	r3, [r7, #12]
 4184 0026 0022     		movs	r2, #0
 4185 0028 5A63     		str	r2, [r3, #52]
 4186              	.L150:
 918:.\DisplayBLL.c ****     }
 919:.\DisplayBLL.c **** }
 4187              		.loc 1 919 0
 4188 002a 1437     		adds	r7, r7, #20
 4189              		.cfi_def_cfa_offset 4
 4190 002c BD46     		mov	sp, r7
 4191              		.cfi_def_cfa_register 13
 4192              		@ sp needed
 4193 002e 5DF8047B 		ldr	r7, [sp], #4
 4194              		.cfi_restore 7
 4195              		.cfi_def_cfa_offset 0
 4196 0032 7047     		bx	lr
 4197              		.cfi_endproc
 4198              	.LFE83:
 4199              		.size	TerminateiButtonScan, .-TerminateiButtonScan
 4200              		.section	.text.InitiateiButtonScan,"ax",%progbits
 4201              		.align	2
 4202              		.global	InitiateiButtonScan
 4203              		.thumb
 4204              		.thumb_func
 4205              		.type	InitiateiButtonScan, %function
 4206              	InitiateiButtonScan:
 4207              	.LFB84:
 920:.\DisplayBLL.c **** 
 921:.\DisplayBLL.c **** //@Created By: HIJH
 922:.\DisplayBLL.c **** //@Septembre de 2016
 923:.\DisplayBLL.c **** void InitiateiButtonScan(void *pparam)
 924:.\DisplayBLL.c **** {
 4208              		.loc 1 924 0
 4209              		.cfi_startproc
 4210              		@ args = 0, pretend = 0, frame = 24
 4211              		@ frame_needed = 1, uses_anonymous_args = 0
 4212 0000 80B5     		push	{r7, lr}
 4213              		.cfi_def_cfa_offset 8
 4214              		.cfi_offset 7, -8
 4215              		.cfi_offset 14, -4
 4216 0002 86B0     		sub	sp, sp, #24
 4217              		.cfi_def_cfa_offset 32
ARM GAS  C:\Users\RECEPC~1\AppData\Local\Temp\ccBSLvba.s 			page 92


 4218 0004 00AF     		add	r7, sp, #0
 4219              		.cfi_def_cfa_register 7
 4220 0006 7860     		str	r0, [r7, #4]
 925:.\DisplayBLL.c ****     PDISPLAYLAYOUTPTR pdisplay = (PDISPLAYLAYOUTPTR)pparam;
 4221              		.loc 1 925 0
 4222 0008 7B68     		ldr	r3, [r7, #4]
 4223 000a 7B61     		str	r3, [r7, #20]
 926:.\DisplayBLL.c ****     if(pdisplay->_dispid == DISPLAY1)
 4224              		.loc 1 926 0
 4225 000c 7B69     		ldr	r3, [r7, #20]
 4226 000e 1B78     		ldrb	r3, [r3]	@ zero_extendqisi2
 4227 0010 002B     		cmp	r3, #0
 4228 0012 22D1     		bne	.L154
 4229              	.LBB53:
 927:.\DisplayBLL.c ****     {
 928:.\DisplayBLL.c ****         PSINKMESSAGEPTR psinkmsg = AllocateMessageSlot();
 4230              		.loc 1 928 0
 4231 0014 FFF7FEFF 		bl	AllocateMessageSlot
 4232 0018 3861     		str	r0, [r7, #16]
 929:.\DisplayBLL.c ****         if(psinkmsg)
 4233              		.loc 1 929 0
 4234 001a 3B69     		ldr	r3, [r7, #16]
 4235 001c 002B     		cmp	r3, #0
 4236 001e 1BD0     		beq	.L155
 930:.\DisplayBLL.c ****         {
 931:.\DisplayBLL.c ****             pdisplay->_pdata = psinkmsg;
 4237              		.loc 1 931 0
 4238 0020 7B69     		ldr	r3, [r7, #20]
 4239 0022 3A69     		ldr	r2, [r7, #16]
 4240 0024 5A63     		str	r2, [r3, #52]
 932:.\DisplayBLL.c ****             psinkmsg->_pdata = pdisplay;
 4241              		.loc 1 932 0
 4242 0026 3B69     		ldr	r3, [r7, #16]
 4243 0028 7A69     		ldr	r2, [r7, #20]
 4244 002a C3F89021 		str	r2, [r3, #400]
 933:.\DisplayBLL.c ****             psinkmsg->_messageid = IBUTTON1_SCAN;
 4245              		.loc 1 933 0
 4246 002e 3B69     		ldr	r3, [r7, #16]
 4247 0030 2722     		movs	r2, #39
 4248 0032 5A70     		strb	r2, [r3, #1]
 934:.\DisplayBLL.c ****             psinkmsg->_messagetimeoutlimit = _SINK_TIMEOUT_50MS_;
 4249              		.loc 1 934 0
 4250 0034 3B69     		ldr	r3, [r7, #16]
 4251 0036 3222     		movs	r2, #50
 4252 0038 5A81     		strh	r2, [r3, #10]	@ movhi
 935:.\DisplayBLL.c ****             psinkmsg->_messagedelay = _SINK_TIMEOUT_1S_;
 4253              		.loc 1 935 0
 4254 003a 3B69     		ldr	r3, [r7, #16]
 4255 003c 4FF47A72 		mov	r2, #1000
 4256 0040 9A80     		strh	r2, [r3, #4]	@ movhi
 936:.\DisplayBLL.c ****             psinkmsg->Callback = iButtonScreenNotification;
 4257              		.loc 1 936 0
 4258 0042 3B69     		ldr	r3, [r7, #16]
 4259 0044 194A     		ldr	r2, .L157
 4260 0046 C3F89421 		str	r2, [r3, #404]
 937:.\DisplayBLL.c ****             psinkmsg->_messagetype = FIRSTFOUNDFOREVER;
 4261              		.loc 1 937 0
ARM GAS  C:\Users\RECEPC~1\AppData\Local\Temp\ccBSLvba.s 			page 93


 4262 004a 3B69     		ldr	r3, [r7, #16]
 4263 004c 0622     		movs	r2, #6
 4264 004e 9A70     		strb	r2, [r3, #2]
 938:.\DisplayBLL.c ****             psinkmsg->_messagestate = SINK_BUSY;
 4265              		.loc 1 938 0
 4266 0050 3B69     		ldr	r3, [r7, #16]
 4267 0052 0322     		movs	r2, #3
 4268 0054 DA70     		strb	r2, [r3, #3]
 4269              	.LBE53:
 4270 0056 25E0     		b	.L153
 4271              	.L155:
 4272 0058 24E0     		b	.L153
 4273              	.L154:
 939:.\DisplayBLL.c ****         }        
 940:.\DisplayBLL.c ****     }
 941:.\DisplayBLL.c ****     else if(pdisplay->_dispid == DISPLAY2)
 4274              		.loc 1 941 0
 4275 005a 7B69     		ldr	r3, [r7, #20]
 4276 005c 1B78     		ldrb	r3, [r3]	@ zero_extendqisi2
 4277 005e 012B     		cmp	r3, #1
 4278 0060 20D1     		bne	.L153
 4279              	.LBB54:
 942:.\DisplayBLL.c ****     {
 943:.\DisplayBLL.c ****         PSINKMESSAGEPTR psinkmsg = AllocateMessageSlot();
 4280              		.loc 1 943 0
 4281 0062 FFF7FEFF 		bl	AllocateMessageSlot
 4282 0066 F860     		str	r0, [r7, #12]
 944:.\DisplayBLL.c ****         if(psinkmsg)
 4283              		.loc 1 944 0
 4284 0068 FB68     		ldr	r3, [r7, #12]
 4285 006a 002B     		cmp	r3, #0
 4286 006c 1AD0     		beq	.L153
 945:.\DisplayBLL.c ****         {
 946:.\DisplayBLL.c ****             pdisplay->_pdata = psinkmsg;
 4287              		.loc 1 946 0
 4288 006e 7B69     		ldr	r3, [r7, #20]
 4289 0070 FA68     		ldr	r2, [r7, #12]
 4290 0072 5A63     		str	r2, [r3, #52]
 947:.\DisplayBLL.c ****             psinkmsg->_pdata = pdisplay;
 4291              		.loc 1 947 0
 4292 0074 FB68     		ldr	r3, [r7, #12]
 4293 0076 7A69     		ldr	r2, [r7, #20]
 4294 0078 C3F89021 		str	r2, [r3, #400]
 948:.\DisplayBLL.c ****             psinkmsg->_messageid = IBUTTON2_SCAN;
 4295              		.loc 1 948 0
 4296 007c FB68     		ldr	r3, [r7, #12]
 4297 007e 2822     		movs	r2, #40
 4298 0080 5A70     		strb	r2, [r3, #1]
 949:.\DisplayBLL.c ****             psinkmsg->_messagetimeoutlimit = _SINK_TIMEOUT_50MS_;
 4299              		.loc 1 949 0
 4300 0082 FB68     		ldr	r3, [r7, #12]
 4301 0084 3222     		movs	r2, #50
 4302 0086 5A81     		strh	r2, [r3, #10]	@ movhi
 950:.\DisplayBLL.c ****             psinkmsg->_messagedelay = _SINK_TIMEOUT_1S_;
 4303              		.loc 1 950 0
 4304 0088 FB68     		ldr	r3, [r7, #12]
 4305 008a 4FF47A72 		mov	r2, #1000
ARM GAS  C:\Users\RECEPC~1\AppData\Local\Temp\ccBSLvba.s 			page 94


 4306 008e 9A80     		strh	r2, [r3, #4]	@ movhi
 951:.\DisplayBLL.c ****             psinkmsg->Callback = iButtonScreenNotification;
 4307              		.loc 1 951 0
 4308 0090 FB68     		ldr	r3, [r7, #12]
 4309 0092 064A     		ldr	r2, .L157
 4310 0094 C3F89421 		str	r2, [r3, #404]
 952:.\DisplayBLL.c ****             psinkmsg->_messagetype = FIRSTFOUNDFOREVER;
 4311              		.loc 1 952 0
 4312 0098 FB68     		ldr	r3, [r7, #12]
 4313 009a 0622     		movs	r2, #6
 4314 009c 9A70     		strb	r2, [r3, #2]
 953:.\DisplayBLL.c ****             psinkmsg->_messagestate = SINK_BUSY;
 4315              		.loc 1 953 0
 4316 009e FB68     		ldr	r3, [r7, #12]
 4317 00a0 0322     		movs	r2, #3
 4318 00a2 DA70     		strb	r2, [r3, #3]
 4319              	.L153:
 4320              	.LBE54:
 954:.\DisplayBLL.c ****         }
 955:.\DisplayBLL.c ****     }
 956:.\DisplayBLL.c **** }
 4321              		.loc 1 956 0
 4322 00a4 1837     		adds	r7, r7, #24
 4323              		.cfi_def_cfa_offset 8
 4324 00a6 BD46     		mov	sp, r7
 4325              		.cfi_def_cfa_register 13
 4326              		@ sp needed
 4327 00a8 80BD     		pop	{r7, pc}
 4328              	.L158:
 4329 00aa 00BF     		.align	2
 4330              	.L157:
 4331 00ac 00000000 		.word	iButtonScreenNotification
 4332              		.cfi_endproc
 4333              	.LFE84:
 4334              		.size	InitiateiButtonScan, .-InitiateiButtonScan
 4335              		.section	.text.DrawDateTime,"ax",%progbits
 4336              		.align	2
 4337              		.global	DrawDateTime
 4338              		.thumb
 4339              		.thumb_func
 4340              		.type	DrawDateTime, %function
 4341              	DrawDateTime:
 4342              	.LFB85:
 957:.\DisplayBLL.c **** 
 958:.\DisplayBLL.c **** 
 959:.\DisplayBLL.c **** void DrawDateTime(void *pparam)
 960:.\DisplayBLL.c **** {
 4343              		.loc 1 960 0
 4344              		.cfi_startproc
 4345              		@ args = 0, pretend = 0, frame = 48
 4346              		@ frame_needed = 1, uses_anonymous_args = 0
 4347 0000 B0B5     		push	{r4, r5, r7, lr}
 4348              		.cfi_def_cfa_offset 16
 4349              		.cfi_offset 4, -16
 4350              		.cfi_offset 5, -12
 4351              		.cfi_offset 7, -8
 4352              		.cfi_offset 14, -4
ARM GAS  C:\Users\RECEPC~1\AppData\Local\Temp\ccBSLvba.s 			page 95


 4353 0002 90B0     		sub	sp, sp, #64
 4354              		.cfi_def_cfa_offset 80
 4355 0004 04AF     		add	r7, sp, #16
 4356              		.cfi_def_cfa 7, 64
 4357 0006 7860     		str	r0, [r7, #4]
 961:.\DisplayBLL.c ****     char8 buffer[8];
 962:.\DisplayBLL.c ****     FontData fontdata;
 963:.\DisplayBLL.c ****     fontdata._size = 0x04;
 4358              		.loc 1 963 0
 4359 0008 0423     		movs	r3, #4
 4360 000a 3B72     		strb	r3, [r7, #8]
 964:.\DisplayBLL.c ****     fontdata._backcolor = 0xFFFF;
 4361              		.loc 1 964 0
 4362 000c 4FF6FF73 		movw	r3, #65535
 4363 0010 BB81     		strh	r3, [r7, #12]	@ movhi
 965:.\DisplayBLL.c ****     fontdata._forecolor = 0x0000;
 4364              		.loc 1 965 0
 4365 0012 0023     		movs	r3, #0
 4366 0014 FB81     		strh	r3, [r7, #14]	@ movhi
 966:.\DisplayBLL.c ****     fontdata._opaquebackground = DISP_TEXT_OPAQUE;
 4367              		.loc 1 966 0
 4368 0016 C523     		movs	r3, #197
 4369 0018 BB72     		strb	r3, [r7, #10]
 967:.\DisplayBLL.c ****     DisplayLayout *pdisplay = (DisplayLayout*)pparam;
 4370              		.loc 1 967 0
 4371 001a 7B68     		ldr	r3, [r7, #4]
 4372 001c BB62     		str	r3, [r7, #40]
 968:.\DisplayBLL.c ****     if(pdisplay->_dispid == DISPLAY1 && ((PDISPLAYFLOWPTR)pdisplay->_pcurrflow)->_scrid == DISPLAY_
 4373              		.loc 1 968 0
 4374 001e BB6A     		ldr	r3, [r7, #40]
 4375 0020 1B78     		ldrb	r3, [r3]	@ zero_extendqisi2
 4376 0022 002B     		cmp	r3, #0
 4377 0024 40F00482 		bne	.L160
 4378              		.loc 1 968 0 is_stmt 0 discriminator 1
 4379 0028 BB6A     		ldr	r3, [r7, #40]
 4380 002a 1B69     		ldr	r3, [r3, #16]
 4381 002c 1B78     		ldrb	r3, [r3]	@ zero_extendqisi2
 4382 002e 3E2B     		cmp	r3, #62
 4383 0030 40F0FE81 		bne	.L160
 4384              	.LBB55:
 969:.\DisplayBLL.c ****     {
 970:.\DisplayBLL.c ****         UARTMessage *puartdisp = GetUARTMessageSlot(UART_DISPLAY1);
 4385              		.loc 1 970 0 is_stmt 1
 4386 0034 A320     		movs	r0, #163
 4387 0036 FFF7FEFF 		bl	GetUARTMessageSlot
 4388 003a 7862     		str	r0, [r7, #36]
 971:.\DisplayBLL.c ****         if(puartdisp)
 4389              		.loc 1 971 0
 4390 003c 7B6A     		ldr	r3, [r7, #36]
 4391 003e 002B     		cmp	r3, #0
 4392 0040 00F01481 		beq	.L161
 4393              	.LBB56:
 972:.\DisplayBLL.c ****         {
 973:.\DisplayBLL.c ****             uint8 index = 0;
 4394              		.loc 1 973 0
 4395 0044 0023     		movs	r3, #0
 4396 0046 87F82F30 		strb	r3, [r7, #47]
ARM GAS  C:\Users\RECEPC~1\AppData\Local\Temp\ccBSLvba.s 			page 96


 974:.\DisplayBLL.c ****             
 975:.\DisplayBLL.c ****             //CAREFUL WITH RETURNS BETWEEN THE LOCK/UNLOCK CALLS
 976:.\DisplayBLL.c ****             //AND RECURSIVE CALLS THAT WOULD DEADLOCK!
 977:.\DisplayBLL.c ****             I2CBusLock();
 4397              		.loc 1 977 0
 4398 004a FFF7FEFF 		bl	I2CBusLock
 978:.\DisplayBLL.c ****             
 979:.\DisplayBLL.c ****             ClearRtcBuffer();
 4399              		.loc 1 979 0
 4400 004e FFF7FEFF 		bl	ClearRtcBuffer
 980:.\DisplayBLL.c ****             ReadRTC();                           
 4401              		.loc 1 980 0
 4402 0052 FFF7FEFF 		bl	ReadRTC
 981:.\DisplayBLL.c ****             memset(buffer, 0x00, sizeof(buffer));            
 4403              		.loc 1 981 0
 4404 0056 07F11003 		add	r3, r7, #16
 4405 005a 1846     		mov	r0, r3
 4406 005c 0021     		movs	r1, #0
 4407 005e 0822     		movs	r2, #8
 4408 0060 FFF7FEFF 		bl	memset
 982:.\DisplayBLL.c ****             
 983:.\DisplayBLL.c ****             if(GetRtcBuffer()[RTC_HOUR] & 0b01000000){
 4409              		.loc 1 983 0
 4410 0064 FFF7FEFF 		bl	GetRtcBuffer
 4411 0068 0346     		mov	r3, r0
 4412 006a 0233     		adds	r3, r3, #2
 4413 006c 1B78     		ldrb	r3, [r3]	@ zero_extendqisi2
 4414 006e 03F04003 		and	r3, r3, #64
 4415 0072 002B     		cmp	r3, #0
 4416 0074 32D0     		beq	.L162
 984:.\DisplayBLL.c ****                 buffer[index++] = ((GetRtcBuffer()[RTC_HOUR] >> 4) & 0x01) | 0x30;
 4417              		.loc 1 984 0
 4418 0076 97F82F30 		ldrb	r3, [r7, #47]	@ zero_extendqisi2
 4419 007a 5A1C     		adds	r2, r3, #1
 4420 007c 87F82F20 		strb	r2, [r7, #47]
 4421 0080 1C46     		mov	r4, r3
 4422 0082 FFF7FEFF 		bl	GetRtcBuffer
 4423 0086 0346     		mov	r3, r0
 4424 0088 0233     		adds	r3, r3, #2
 4425 008a 1B78     		ldrb	r3, [r3]	@ zero_extendqisi2
 4426 008c 1B09     		lsrs	r3, r3, #4
 4427 008e DBB2     		uxtb	r3, r3
 4428 0090 DBB2     		uxtb	r3, r3
 4429 0092 03F00103 		and	r3, r3, #1
 4430 0096 DBB2     		uxtb	r3, r3
 4431 0098 43F03003 		orr	r3, r3, #48
 4432 009c DBB2     		uxtb	r3, r3
 4433 009e DAB2     		uxtb	r2, r3
 4434 00a0 07F13003 		add	r3, r7, #48
 4435 00a4 2344     		add	r3, r3, r4
 4436 00a6 03F8202C 		strb	r2, [r3, #-32]
 985:.\DisplayBLL.c ****                 buffer[index++] = (GetRtcBuffer()[RTC_HOUR] & 0x0F) | 0x30;
 4437              		.loc 1 985 0
 4438 00aa 97F82F30 		ldrb	r3, [r7, #47]	@ zero_extendqisi2
 4439 00ae 5A1C     		adds	r2, r3, #1
 4440 00b0 87F82F20 		strb	r2, [r7, #47]
 4441 00b4 1C46     		mov	r4, r3
ARM GAS  C:\Users\RECEPC~1\AppData\Local\Temp\ccBSLvba.s 			page 97


 4442 00b6 FFF7FEFF 		bl	GetRtcBuffer
 4443 00ba 0346     		mov	r3, r0
 4444 00bc 0233     		adds	r3, r3, #2
 4445 00be 1B78     		ldrb	r3, [r3]	@ zero_extendqisi2
 4446 00c0 DBB2     		uxtb	r3, r3
 4447 00c2 03F00F03 		and	r3, r3, #15
 4448 00c6 DBB2     		uxtb	r3, r3
 4449 00c8 43F03003 		orr	r3, r3, #48
 4450 00cc DBB2     		uxtb	r3, r3
 4451 00ce DAB2     		uxtb	r2, r3
 4452 00d0 07F13003 		add	r3, r7, #48
 4453 00d4 2344     		add	r3, r3, r4
 4454 00d6 03F8202C 		strb	r2, [r3, #-32]
 4455 00da 31E0     		b	.L163
 4456              	.L162:
 986:.\DisplayBLL.c ****             }else{
 987:.\DisplayBLL.c ****                 buffer[index++] = ((GetRtcBuffer()[RTC_HOUR] >> 4) & 0x03) | 0x30;
 4457              		.loc 1 987 0
 4458 00dc 97F82F30 		ldrb	r3, [r7, #47]	@ zero_extendqisi2
 4459 00e0 5A1C     		adds	r2, r3, #1
 4460 00e2 87F82F20 		strb	r2, [r7, #47]
 4461 00e6 1C46     		mov	r4, r3
 4462 00e8 FFF7FEFF 		bl	GetRtcBuffer
 4463 00ec 0346     		mov	r3, r0
 4464 00ee 0233     		adds	r3, r3, #2
 4465 00f0 1B78     		ldrb	r3, [r3]	@ zero_extendqisi2
 4466 00f2 1B09     		lsrs	r3, r3, #4
 4467 00f4 DBB2     		uxtb	r3, r3
 4468 00f6 DBB2     		uxtb	r3, r3
 4469 00f8 03F00303 		and	r3, r3, #3
 4470 00fc DBB2     		uxtb	r3, r3
 4471 00fe 43F03003 		orr	r3, r3, #48
 4472 0102 DBB2     		uxtb	r3, r3
 4473 0104 DAB2     		uxtb	r2, r3
 4474 0106 07F13003 		add	r3, r7, #48
 4475 010a 2344     		add	r3, r3, r4
 4476 010c 03F8202C 		strb	r2, [r3, #-32]
 988:.\DisplayBLL.c ****                 buffer[index++] = (GetRtcBuffer()[RTC_HOUR] & 0x0F) | 0x30;
 4477              		.loc 1 988 0
 4478 0110 97F82F30 		ldrb	r3, [r7, #47]	@ zero_extendqisi2
 4479 0114 5A1C     		adds	r2, r3, #1
 4480 0116 87F82F20 		strb	r2, [r7, #47]
 4481 011a 1C46     		mov	r4, r3
 4482 011c FFF7FEFF 		bl	GetRtcBuffer
 4483 0120 0346     		mov	r3, r0
 4484 0122 0233     		adds	r3, r3, #2
 4485 0124 1B78     		ldrb	r3, [r3]	@ zero_extendqisi2
 4486 0126 DBB2     		uxtb	r3, r3
 4487 0128 03F00F03 		and	r3, r3, #15
 4488 012c DBB2     		uxtb	r3, r3
 4489 012e 43F03003 		orr	r3, r3, #48
 4490 0132 DBB2     		uxtb	r3, r3
 4491 0134 DAB2     		uxtb	r2, r3
 4492 0136 07F13003 		add	r3, r7, #48
 4493 013a 2344     		add	r3, r3, r4
 4494 013c 03F8202C 		strb	r2, [r3, #-32]
 4495              	.L163:
ARM GAS  C:\Users\RECEPC~1\AppData\Local\Temp\ccBSLvba.s 			page 98


 989:.\DisplayBLL.c ****             }
 990:.\DisplayBLL.c ****             
 991:.\DisplayBLL.c ****             buffer[index++] = 0x3A;
 4496              		.loc 1 991 0
 4497 0140 97F82F30 		ldrb	r3, [r7, #47]	@ zero_extendqisi2
 4498 0144 5A1C     		adds	r2, r3, #1
 4499 0146 87F82F20 		strb	r2, [r7, #47]
 4500 014a 07F13002 		add	r2, r7, #48
 4501 014e 1344     		add	r3, r3, r2
 4502 0150 3A22     		movs	r2, #58
 4503 0152 03F8202C 		strb	r2, [r3, #-32]
 992:.\DisplayBLL.c ****             buffer[index++] = ((GetRtcBuffer()[RTC_MINUTES] >> 4) & 0x07) | 0x30;
 4504              		.loc 1 992 0
 4505 0156 97F82F30 		ldrb	r3, [r7, #47]	@ zero_extendqisi2
 4506 015a 5A1C     		adds	r2, r3, #1
 4507 015c 87F82F20 		strb	r2, [r7, #47]
 4508 0160 1C46     		mov	r4, r3
 4509 0162 FFF7FEFF 		bl	GetRtcBuffer
 4510 0166 0346     		mov	r3, r0
 4511 0168 0133     		adds	r3, r3, #1
 4512 016a 1B78     		ldrb	r3, [r3]	@ zero_extendqisi2
 4513 016c 1B09     		lsrs	r3, r3, #4
 4514 016e DBB2     		uxtb	r3, r3
 4515 0170 DBB2     		uxtb	r3, r3
 4516 0172 03F00703 		and	r3, r3, #7
 4517 0176 DBB2     		uxtb	r3, r3
 4518 0178 43F03003 		orr	r3, r3, #48
 4519 017c DBB2     		uxtb	r3, r3
 4520 017e DAB2     		uxtb	r2, r3
 4521 0180 07F13003 		add	r3, r7, #48
 4522 0184 2344     		add	r3, r3, r4
 4523 0186 03F8202C 		strb	r2, [r3, #-32]
 993:.\DisplayBLL.c ****             buffer[index++] = (GetRtcBuffer()[RTC_MINUTES] & 0x0F) | 0x30;
 4524              		.loc 1 993 0
 4525 018a 97F82F30 		ldrb	r3, [r7, #47]	@ zero_extendqisi2
 4526 018e 5A1C     		adds	r2, r3, #1
 4527 0190 87F82F20 		strb	r2, [r7, #47]
 4528 0194 1C46     		mov	r4, r3
 4529 0196 FFF7FEFF 		bl	GetRtcBuffer
 4530 019a 0346     		mov	r3, r0
 4531 019c 0133     		adds	r3, r3, #1
 4532 019e 1B78     		ldrb	r3, [r3]	@ zero_extendqisi2
 4533 01a0 DBB2     		uxtb	r3, r3
 4534 01a2 03F00F03 		and	r3, r3, #15
 4535 01a6 DBB2     		uxtb	r3, r3
 4536 01a8 43F03003 		orr	r3, r3, #48
 4537 01ac DBB2     		uxtb	r3, r3
 4538 01ae DAB2     		uxtb	r2, r3
 4539 01b0 07F13003 		add	r3, r7, #48
 4540 01b4 2344     		add	r3, r3, r4
 4541 01b6 03F8202C 		strb	r2, [r3, #-32]
 994:.\DisplayBLL.c ****             buffer[index++] = 0x3A;
 4542              		.loc 1 994 0
 4543 01ba 97F82F30 		ldrb	r3, [r7, #47]	@ zero_extendqisi2
 4544 01be 5A1C     		adds	r2, r3, #1
 4545 01c0 87F82F20 		strb	r2, [r7, #47]
 4546 01c4 07F13002 		add	r2, r7, #48
ARM GAS  C:\Users\RECEPC~1\AppData\Local\Temp\ccBSLvba.s 			page 99


 4547 01c8 1344     		add	r3, r3, r2
 4548 01ca 3A22     		movs	r2, #58
 4549 01cc 03F8202C 		strb	r2, [r3, #-32]
 995:.\DisplayBLL.c ****             buffer[index++] = ((GetRtcBuffer()[RTC_SECONDS] >> 4) & 0x07) | 0x30;
 4550              		.loc 1 995 0
 4551 01d0 97F82F30 		ldrb	r3, [r7, #47]	@ zero_extendqisi2
 4552 01d4 5A1C     		adds	r2, r3, #1
 4553 01d6 87F82F20 		strb	r2, [r7, #47]
 4554 01da 1C46     		mov	r4, r3
 4555 01dc FFF7FEFF 		bl	GetRtcBuffer
 4556 01e0 0346     		mov	r3, r0
 4557 01e2 1B78     		ldrb	r3, [r3]	@ zero_extendqisi2
 4558 01e4 1B09     		lsrs	r3, r3, #4
 4559 01e6 DBB2     		uxtb	r3, r3
 4560 01e8 DBB2     		uxtb	r3, r3
 4561 01ea 03F00703 		and	r3, r3, #7
 4562 01ee DBB2     		uxtb	r3, r3
 4563 01f0 43F03003 		orr	r3, r3, #48
 4564 01f4 DBB2     		uxtb	r3, r3
 4565 01f6 DAB2     		uxtb	r2, r3
 4566 01f8 07F13003 		add	r3, r7, #48
 4567 01fc 2344     		add	r3, r3, r4
 4568 01fe 03F8202C 		strb	r2, [r3, #-32]
 996:.\DisplayBLL.c ****             buffer[index++] = (GetRtcBuffer()[RTC_SECONDS] & 0x0F) | 0x30;
 4569              		.loc 1 996 0
 4570 0202 97F82F30 		ldrb	r3, [r7, #47]	@ zero_extendqisi2
 4571 0206 5A1C     		adds	r2, r3, #1
 4572 0208 87F82F20 		strb	r2, [r7, #47]
 4573 020c 1C46     		mov	r4, r3
 4574 020e FFF7FEFF 		bl	GetRtcBuffer
 4575 0212 0346     		mov	r3, r0
 4576 0214 1B78     		ldrb	r3, [r3]	@ zero_extendqisi2
 4577 0216 DBB2     		uxtb	r3, r3
 4578 0218 03F00F03 		and	r3, r3, #15
 4579 021c DBB2     		uxtb	r3, r3
 4580 021e 43F03003 		orr	r3, r3, #48
 4581 0222 DBB2     		uxtb	r3, r3
 4582 0224 DAB2     		uxtb	r2, r3
 4583 0226 07F13003 		add	r3, r7, #48
 4584 022a 2344     		add	r3, r3, r4
 4585 022c 03F8202C 		strb	r2, [r3, #-32]
 997:.\DisplayBLL.c ****             
 998:.\DisplayBLL.c ****             I2CBusUnlock();
 4586              		.loc 1 998 0
 4587 0230 FFF7FEFF 		bl	I2CBusUnlock
 999:.\DisplayBLL.c ****             
1000:.\DisplayBLL.c ****             puartdisp->_messagelength = DisplayOutputString(0x0C9, 0x0BA, puartdisp->_messagetx, bu
 4588              		.loc 1 1000 0
 4589 0234 7B6A     		ldr	r3, [r7, #36]
 4590 0236 1D1D     		adds	r5, r3, #4
 4591 0238 97F82F30 		ldrb	r3, [r7, #47]	@ zero_extendqisi2
 4592 023c 9BB2     		uxth	r3, r3
 4593 023e 07F11004 		add	r4, r7, #16
 4594 0242 0093     		str	r3, [sp]
 4595 0244 01AA     		add	r2, sp, #4
 4596 0246 07F10803 		add	r3, r7, #8
 4597 024a 93E80300 		ldmia	r3, {r0, r1}
ARM GAS  C:\Users\RECEPC~1\AppData\Local\Temp\ccBSLvba.s 			page 100


 4598 024e 82E80300 		stmia	r2, {r0, r1}
 4599 0252 C920     		movs	r0, #201
 4600 0254 BA21     		movs	r1, #186
 4601 0256 2A46     		mov	r2, r5
 4602 0258 2346     		mov	r3, r4
 4603 025a FFF7FEFF 		bl	DisplayOutputString
 4604 025e 0346     		mov	r3, r0
 4605 0260 1A46     		mov	r2, r3
 4606 0262 7B6A     		ldr	r3, [r7, #36]
 4607 0264 5A80     		strh	r2, [r3, #2]	@ movhi
1001:.\DisplayBLL.c ****             puartdisp->_messagestate = PENDING;
 4608              		.loc 1 1001 0
 4609 0266 7B6A     		ldr	r3, [r7, #36]
 4610 0268 C222     		movs	r2, #194
 4611 026a 1A70     		strb	r2, [r3]
 4612              	.L161:
 4613              	.LBE56:
1002:.\DisplayBLL.c ****         }
1003:.\DisplayBLL.c ****         
1004:.\DisplayBLL.c ****         puartdisp = GetUARTMessageSlot(UART_DISPLAY1);
 4614              		.loc 1 1004 0
 4615 026c A320     		movs	r0, #163
 4616 026e FFF7FEFF 		bl	GetUARTMessageSlot
 4617 0272 7862     		str	r0, [r7, #36]
1005:.\DisplayBLL.c ****         if(puartdisp)
 4618              		.loc 1 1005 0
 4619 0274 7B6A     		ldr	r3, [r7, #36]
 4620 0276 002B     		cmp	r3, #0
 4621 0278 00F0D980 		beq	.L164
 4622              	.LBB57:
1006:.\DisplayBLL.c ****         {
1007:.\DisplayBLL.c ****             uint8 index = 0;
 4623              		.loc 1 1007 0
 4624 027c 0023     		movs	r3, #0
 4625 027e 87F82330 		strb	r3, [r7, #35]
1008:.\DisplayBLL.c ****             
1009:.\DisplayBLL.c ****             //CAREFUL WITH RETURNS BETWEEN THE LOCK/UNLOCK CALLS
1010:.\DisplayBLL.c ****             //AND RECURSIVE CALLS THAT WOULD DEADLOCK!
1011:.\DisplayBLL.c ****             I2CBusLock();
 4626              		.loc 1 1011 0
 4627 0282 FFF7FEFF 		bl	I2CBusLock
1012:.\DisplayBLL.c ****             
1013:.\DisplayBLL.c ****             ClearRtcBuffer();
 4628              		.loc 1 1013 0
 4629 0286 FFF7FEFF 		bl	ClearRtcBuffer
1014:.\DisplayBLL.c ****             ReadRTC();                           
 4630              		.loc 1 1014 0
 4631 028a FFF7FEFF 		bl	ReadRTC
1015:.\DisplayBLL.c ****             memset(buffer, 0x00, sizeof(buffer));            
 4632              		.loc 1 1015 0
 4633 028e 07F11003 		add	r3, r7, #16
 4634 0292 1846     		mov	r0, r3
 4635 0294 0021     		movs	r1, #0
 4636 0296 0822     		movs	r2, #8
 4637 0298 FFF7FEFF 		bl	memset
1016:.\DisplayBLL.c ****             
1017:.\DisplayBLL.c ****             buffer[index++] = ((GetRtcBuffer()[RTC_DAY] >> 4) & 0x03) | 0x30;
ARM GAS  C:\Users\RECEPC~1\AppData\Local\Temp\ccBSLvba.s 			page 101


 4638              		.loc 1 1017 0
 4639 029c 97F82330 		ldrb	r3, [r7, #35]	@ zero_extendqisi2
 4640 02a0 5A1C     		adds	r2, r3, #1
 4641 02a2 87F82320 		strb	r2, [r7, #35]
 4642 02a6 1C46     		mov	r4, r3
 4643 02a8 FFF7FEFF 		bl	GetRtcBuffer
 4644 02ac 0346     		mov	r3, r0
 4645 02ae 0433     		adds	r3, r3, #4
 4646 02b0 1B78     		ldrb	r3, [r3]	@ zero_extendqisi2
 4647 02b2 1B09     		lsrs	r3, r3, #4
 4648 02b4 DBB2     		uxtb	r3, r3
 4649 02b6 DBB2     		uxtb	r3, r3
 4650 02b8 03F00303 		and	r3, r3, #3
 4651 02bc DBB2     		uxtb	r3, r3
 4652 02be 43F03003 		orr	r3, r3, #48
 4653 02c2 DBB2     		uxtb	r3, r3
 4654 02c4 DAB2     		uxtb	r2, r3
 4655 02c6 07F13003 		add	r3, r7, #48
 4656 02ca 2344     		add	r3, r3, r4
 4657 02cc 03F8202C 		strb	r2, [r3, #-32]
1018:.\DisplayBLL.c ****             buffer[index++] = (GetRtcBuffer()[RTC_DAY] & 0x0F) | 0x30;
 4658              		.loc 1 1018 0
 4659 02d0 97F82330 		ldrb	r3, [r7, #35]	@ zero_extendqisi2
 4660 02d4 5A1C     		adds	r2, r3, #1
 4661 02d6 87F82320 		strb	r2, [r7, #35]
 4662 02da 1C46     		mov	r4, r3
 4663 02dc FFF7FEFF 		bl	GetRtcBuffer
 4664 02e0 0346     		mov	r3, r0
 4665 02e2 0433     		adds	r3, r3, #4
 4666 02e4 1B78     		ldrb	r3, [r3]	@ zero_extendqisi2
 4667 02e6 DBB2     		uxtb	r3, r3
 4668 02e8 03F00F03 		and	r3, r3, #15
 4669 02ec DBB2     		uxtb	r3, r3
 4670 02ee 43F03003 		orr	r3, r3, #48
 4671 02f2 DBB2     		uxtb	r3, r3
 4672 02f4 DAB2     		uxtb	r2, r3
 4673 02f6 07F13003 		add	r3, r7, #48
 4674 02fa 2344     		add	r3, r3, r4
 4675 02fc 03F8202C 		strb	r2, [r3, #-32]
1019:.\DisplayBLL.c ****             buffer[index++] = 0x2F;
 4676              		.loc 1 1019 0
 4677 0300 97F82330 		ldrb	r3, [r7, #35]	@ zero_extendqisi2
 4678 0304 5A1C     		adds	r2, r3, #1
 4679 0306 87F82320 		strb	r2, [r7, #35]
 4680 030a 07F13002 		add	r2, r7, #48
 4681 030e 1344     		add	r3, r3, r2
 4682 0310 2F22     		movs	r2, #47
 4683 0312 03F8202C 		strb	r2, [r3, #-32]
1020:.\DisplayBLL.c ****             buffer[index++] = ((GetRtcBuffer()[RTC_MONTH] >> 4) & 0x01) | 0x30;
 4684              		.loc 1 1020 0
 4685 0316 97F82330 		ldrb	r3, [r7, #35]	@ zero_extendqisi2
 4686 031a 5A1C     		adds	r2, r3, #1
 4687 031c 87F82320 		strb	r2, [r7, #35]
 4688 0320 1C46     		mov	r4, r3
 4689 0322 FFF7FEFF 		bl	GetRtcBuffer
 4690 0326 0346     		mov	r3, r0
