ARM GAS  C:\Users\RECEPC~1\AppData\Local\Temp\cc14VPUN.s 			page 1


   1              		.syntax unified
   2              		.cpu cortex-m3
   3              		.fpu softvfp
   4              		.eabi_attribute 20, 1
   5              		.eabi_attribute 21, 1
   6              		.eabi_attribute 23, 3
   7              		.eabi_attribute 24, 1
   8              		.eabi_attribute 25, 1
   9              		.eabi_attribute 26, 1
  10              		.eabi_attribute 30, 6
  11              		.eabi_attribute 34, 1
  12              		.eabi_attribute 18, 4
  13              		.thumb
  14              		.file	"DispenserSink.c"
  15              		.text
  16              	.Ltext0:
  17              		.cfi_sections	.debug_frame
  18              		.global	_g_dispenserupdatetimeout
  19              		.bss
  20              		.align	1
  21              		.type	_g_dispenserupdatetimeout, %object
  22              		.size	_g_dispenserupdatetimeout, 2
  23              	_g_dispenserupdatetimeout:
  24 0000 0000     		.space	2
  25              		.global	_g_dispenserupdatetimeoutmultiplier
  26              		.align	1
  27              		.type	_g_dispenserupdatetimeoutmultiplier, %object
  28              		.size	_g_dispenserupdatetimeoutmultiplier, 2
  29              	_g_dispenserupdatetimeoutmultiplier:
  30 0002 0000     		.space	2
  31              		.global	__aeabi_i2d
  32              		.global	__aeabi_ddiv
  33              		.global	__aeabi_dcmpgt
  34              		.section	.text.DispenserTimeoutHandler,"ax",%progbits
  35              		.align	2
  36              		.global	DispenserTimeoutHandler
  37              		.thumb
  38              		.thumb_func
  39              		.type	DispenserTimeoutHandler, %function
  40              	DispenserTimeoutHandler:
  41              	.LFB63:
  42              		.file 1 ".\\DispenserSink.c"
   1:.\DispenserSink.c **** /* ========================================
   2:.\DispenserSink.c ****  *
   3:.\DispenserSink.c ****  * Copyright INSEPET SISTEMAS, 2016
   4:.\DispenserSink.c ****  * All Rights Reserved
   5:.\DispenserSink.c ****  * UNPUBLISHED, LICENSED SOFTWARE.
   6:.\DispenserSink.c ****  *
   7:.\DispenserSink.c ****  * CONFIDENTIAL AND PROPRIETARY INFORMATION
   8:.\DispenserSink.c ****  * WHICH IS THE PROPERTY OF your company.
   9:.\DispenserSink.c ****  *
  10:.\DispenserSink.c ****  * ========================================
  11:.\DispenserSink.c **** @Created By: HIJH
  12:.\DispenserSink.c **** @Date: Septembre de 2016
  13:.\DispenserSink.c **** */
  14:.\DispenserSink.c **** 
  15:.\DispenserSink.c **** #include <project.h>
ARM GAS  C:\Users\RECEPC~1\AppData\Local\Temp\cc14VPUN.s 			page 2


  16:.\DispenserSink.c **** #include "SinkObservables.h"
  17:.\DispenserSink.c **** #include "SinkManager.h"
  18:.\DispenserSink.c **** #include "GlobalDefinitions.h"
  19:.\DispenserSink.c **** 
  20:.\DispenserSink.c **** #include "Dispenser.h"
  21:.\DispenserSink.c **** 
  22:.\DispenserSink.c **** extern PumpResponseContext _g_respctxt;
  23:.\DispenserSink.c **** 
  24:.\DispenserSink.c **** void InitProtocol();
  25:.\DispenserSink.c **** void DispenserHandler();
  26:.\DispenserSink.c **** void DispenserTimeoutHandler();
  27:.\DispenserSink.c **** void DispenserUpdateTimeouts(void *pparam);
  28:.\DispenserSink.c **** void DispenserDataReceptionHandler();
  29:.\DispenserSink.c **** 
  30:.\DispenserSink.c **** uint16 _g_dispenserupdatetimeout = 0x0000;
  31:.\DispenserSink.c **** uint16 _g_dispenserupdatetimeoutmultiplier = 0x0000;
  32:.\DispenserSink.c **** 
  33:.\DispenserSink.c **** //Messages coming from the Displays
  34:.\DispenserSink.c **** void DispenserSide1Listener(void *pparam);
  35:.\DispenserSink.c **** void DispenserSide2Listener(void *pparam);
  36:.\DispenserSink.c **** //Invoked once on MUX startup. This call is delayed a few seconds to allow for the general initiali
  37:.\DispenserSink.c **** void DispenserEnumeratePumps(LPVOID pparam);
  38:.\DispenserSink.c **** void DispenserLoadEEPROMSettings(LPVOID pparam);
  39:.\DispenserSink.c **** void DispenserPriceRestore(LPVOID pparam);
  40:.\DispenserSink.c **** void DispenserRestorePrices(LPVOID pparam);
  41:.\DispenserSink.c **** void DispenserUnlockPumpsOnEOT(LPVOID pparam);
  42:.\DispenserSink.c **** void DispenserAcquireConfiguration(LPVOID pparam);
  43:.\DispenserSink.c **** void DispenserConfigurePrices(LPVOID pparam);
  44:.\DispenserSink.c **** void DispenserConfigureSinglePrice(LPVOID pparam);
  45:.\DispenserSink.c **** void DispenserAcquireTotals(LPVOID pparam);
  46:.\DispenserSink.c **** void DispenserDaylyRestart(LPVOID pparam);
  47:.\DispenserSink.c **** void DispenserHoseActiveState(LPVOID pparam);
  48:.\DispenserSink.c **** void DispenserExecuteCreditTransaction(LPVOID pparam);
  49:.\DispenserSink.c **** void DispenserExecuteCashTransaction(LPVOID pparam);
  50:.\DispenserSink.c **** void DispenserBeepWarning(LPVOID pparam);
  51:.\DispenserSink.c **** 
  52:.\DispenserSink.c **** 
  53:.\DispenserSink.c **** //@Create by: HIJH
  54:.\DispenserSink.c **** //@Date: Septembre de 2016
  55:.\DispenserSink.c **** //This handler checks the transactional queue for pending job requests to execute.
  56:.\DispenserSink.c **** //Once a job is executed, the response is awaited (if required) and monitored for 
  57:.\DispenserSink.c **** //timeouts and retries. The handler also validates a set of pre conditions to 
  58:.\DispenserSink.c **** //execute the job.
  59:.\DispenserSink.c **** void DispenserTimeoutHandler()
  60:.\DispenserSink.c **** {
  43              		.loc 1 60 0
  44              		.cfi_startproc
  45              		@ args = 0, pretend = 0, frame = 8
  46              		@ frame_needed = 1, uses_anonymous_args = 0
  47 0000 B0B5     		push	{r4, r5, r7, lr}
  48              		.cfi_def_cfa_offset 16
  49              		.cfi_offset 4, -16
  50              		.cfi_offset 5, -12
  51              		.cfi_offset 7, -8
  52              		.cfi_offset 14, -4
  53 0002 82B0     		sub	sp, sp, #8
  54              		.cfi_def_cfa_offset 24
ARM GAS  C:\Users\RECEPC~1\AppData\Local\Temp\cc14VPUN.s 			page 3


  55 0004 00AF     		add	r7, sp, #0
  56              		.cfi_def_cfa_register 7
  61:.\DispenserSink.c ****     PPUMPTRANSACTIONJOBCONTEXTPTR pjob = _g_pumpjobqueue.Peek(&_g_pumpjobqueue);
  57              		.loc 1 61 0
  58 0006 3A4B     		ldr	r3, .L8
  59 0008 D3F85038 		ldr	r3, [r3, #2128]
  60 000c 3848     		ldr	r0, .L8
  61 000e 9847     		blx	r3
  62 0010 7860     		str	r0, [r7, #4]
  62:.\DispenserSink.c ****     //Timeout handling
  63:.\DispenserSink.c ****     if(pjob && pjob->_presponse)
  63              		.loc 1 63 0
  64 0012 7B68     		ldr	r3, [r7, #4]
  65 0014 002B     		cmp	r3, #0
  66 0016 68D0     		beq	.L1
  67              		.loc 1 63 0 is_stmt 0 discriminator 1
  68 0018 7B68     		ldr	r3, [r7, #4]
  69 001a 9B69     		ldr	r3, [r3, #24]
  70 001c 002B     		cmp	r3, #0
  71 001e 64D0     		beq	.L1
  64:.\DispenserSink.c ****     {
  65:.\DispenserSink.c ****         if(pjob->_presponse->_responsetimeoutlimit != _NO_TIMEOUT_)
  72              		.loc 1 65 0 is_stmt 1
  73 0020 7B68     		ldr	r3, [r7, #4]
  74 0022 9B69     		ldr	r3, [r3, #24]
  75 0024 1B8A     		ldrh	r3, [r3, #16]
  76 0026 002B     		cmp	r3, #0
  77 0028 5FD0     		beq	.L1
  78              	.LBB2:
  66:.\DispenserSink.c ****         {
  67:.\DispenserSink.c ****             int32 timespan = ((Timer_DispenserState_ReadCounter() + _TIMEOUT_BASE_TIME_*pjob->_time
  79              		.loc 1 67 0
  80 002a FFF7FEFF 		bl	Timer_DispenserState_ReadCounter
  81 002e 0346     		mov	r3, r0
  82 0030 1A46     		mov	r2, r3
  83 0032 7B68     		ldr	r3, [r7, #4]
  84 0034 5B8A     		ldrh	r3, [r3, #18]	@ movhi
  85 0036 9BB2     		uxth	r3, r3
  86 0038 1946     		mov	r1, r3
  87 003a 4FF47A73 		mov	r3, #1000
  88 003e 03FB01F3 		mul	r3, r3, r1
  89 0042 1344     		add	r3, r3, r2
  90 0044 7A68     		ldr	r2, [r7, #4]
  91 0046 128A     		ldrh	r2, [r2, #16]	@ movhi
  92 0048 92B2     		uxth	r2, r2
  93 004a 9B1A     		subs	r3, r3, r2
  94 004c 3B60     		str	r3, [r7]
  68:.\DispenserSink.c ****             if(((double)timespan / (double)_TIMEOUT_BASE_TIME_) > pjob->_presponse->_responsetimeou
  95              		.loc 1 68 0
  96 004e 3868     		ldr	r0, [r7]
  97 0050 FFF7FEFF 		bl	__aeabi_i2d
  98 0054 0246     		mov	r2, r0
  99 0056 0B46     		mov	r3, r1
 100 0058 1046     		mov	r0, r2
 101 005a 1946     		mov	r1, r3
 102 005c 4FF00002 		mov	r2, #0
 103 0060 244B     		ldr	r3, .L8+4
ARM GAS  C:\Users\RECEPC~1\AppData\Local\Temp\cc14VPUN.s 			page 4


 104 0062 FFF7FEFF 		bl	__aeabi_ddiv
 105 0066 0246     		mov	r2, r0
 106 0068 0B46     		mov	r3, r1
 107 006a 1446     		mov	r4, r2
 108 006c 1D46     		mov	r5, r3
 109 006e 7B68     		ldr	r3, [r7, #4]
 110 0070 9B69     		ldr	r3, [r3, #24]
 111 0072 1B8A     		ldrh	r3, [r3, #16]
 112 0074 1846     		mov	r0, r3
 113 0076 FFF7FEFF 		bl	__aeabi_i2d
 114 007a 0246     		mov	r2, r0
 115 007c 0B46     		mov	r3, r1
 116 007e 2046     		mov	r0, r4
 117 0080 2946     		mov	r1, r5
 118 0082 FFF7FEFF 		bl	__aeabi_dcmpgt
 119 0086 0346     		mov	r3, r0
 120 0088 002B     		cmp	r3, #0
 121 008a 2ED0     		beq	.L1
  69:.\DispenserSink.c ****             {
  70:.\DispenserSink.c ****                 ///TURNING IT INTO A REQUEST AGAIN FOR A LIMITED NUMBER OF RETRIES!
  71:.\DispenserSink.c ****                 pjob->_timeoutmultiplier = 0x0000;
 122              		.loc 1 71 0
 123 008c 7B68     		ldr	r3, [r7, #4]
 124 008e 0022     		movs	r2, #0
 125 0090 5A82     		strh	r2, [r3, #18]	@ movhi
  72:.\DispenserSink.c ****                 pjob->_timeoutseed = 0x0000;
 126              		.loc 1 72 0
 127 0092 7B68     		ldr	r3, [r7, #4]
 128 0094 0022     		movs	r2, #0
 129 0096 1A82     		strh	r2, [r3, #16]	@ movhi
  73:.\DispenserSink.c ****                 
  74:.\DispenserSink.c ****                 pjob->_retriescounter++;
 130              		.loc 1 74 0
 131 0098 7B68     		ldr	r3, [r7, #4]
 132 009a DB89     		ldrh	r3, [r3, #14]	@ movhi
 133 009c 9BB2     		uxth	r3, r3
 134 009e 0133     		adds	r3, r3, #1
 135 00a0 9AB2     		uxth	r2, r3
 136 00a2 7B68     		ldr	r3, [r7, #4]
 137 00a4 DA81     		strh	r2, [r3, #14]	@ movhi
  75:.\DispenserSink.c ****                 //We invoke the timeout Callback if it has been defined
  76:.\DispenserSink.c ****                 if(pjob->_presponse->TimeoutCallback)
 138              		.loc 1 76 0
 139 00a6 7B68     		ldr	r3, [r7, #4]
 140 00a8 9B69     		ldr	r3, [r3, #24]
 141 00aa 9B68     		ldr	r3, [r3, #8]
 142 00ac 002B     		cmp	r3, #0
 143 00ae 04D0     		beq	.L4
  77:.\DispenserSink.c ****                     pjob->_presponse->TimeoutCallback(pjob);
 144              		.loc 1 77 0
 145 00b0 7B68     		ldr	r3, [r7, #4]
 146 00b2 9B69     		ldr	r3, [r3, #24]
 147 00b4 9B68     		ldr	r3, [r3, #8]
 148 00b6 7868     		ldr	r0, [r7, #4]
 149 00b8 9847     		blx	r3
 150              	.L4:
  78:.\DispenserSink.c **** 
ARM GAS  C:\Users\RECEPC~1\AppData\Local\Temp\cc14VPUN.s 			page 5


  79:.\DispenserSink.c ****                 if(pjob->_retriescounter > _MAX_RETRIES_){
 151              		.loc 1 79 0
 152 00ba 7B68     		ldr	r3, [r7, #4]
 153 00bc DB89     		ldrh	r3, [r3, #14]	@ movhi
 154 00be 9BB2     		uxth	r3, r3
 155 00c0 142B     		cmp	r3, #20
 156 00c2 07D9     		bls	.L5
  80:.\DispenserSink.c ****                     _g_pumpjobqueue.Dequeue(&_g_pumpjobqueue);
 157              		.loc 1 80 0
 158 00c4 0A4B     		ldr	r3, .L8
 159 00c6 D3F85438 		ldr	r3, [r3, #2132]
 160 00ca 0948     		ldr	r0, .L8
 161 00cc 9847     		blx	r3
  81:.\DispenserSink.c ****                     pjob = NULL;
 162              		.loc 1 81 0
 163 00ce 0023     		movs	r3, #0
 164 00d0 7B60     		str	r3, [r7, #4]
 165 00d2 06E0     		b	.L6
 166              	.L5:
  82:.\DispenserSink.c ****                 }else{
  83:.\DispenserSink.c ****                     pjob->_prequest = pjob->_presponse;
 167              		.loc 1 83 0
 168 00d4 7B68     		ldr	r3, [r7, #4]
 169 00d6 9A69     		ldr	r2, [r3, #24]
 170 00d8 7B68     		ldr	r3, [r7, #4]
 171 00da 5A61     		str	r2, [r3, #20]
  84:.\DispenserSink.c ****                     pjob->_presponse = NULL;
 172              		.loc 1 84 0
 173 00dc 7B68     		ldr	r3, [r7, #4]
 174 00de 0022     		movs	r2, #0
 175 00e0 9A61     		str	r2, [r3, #24]
 176              	.L6:
  85:.\DispenserSink.c ****                 }
  86:.\DispenserSink.c ****                 
  87:.\DispenserSink.c ****                 Dispenser_ClearRxBuffer();
 177              		.loc 1 87 0
 178 00e2 FFF7FEFF 		bl	Dispenser_ClearRxBuffer
  88:.\DispenserSink.c ****                 Dispenser_Enable();
 179              		.loc 1 88 0
 180 00e6 FFF7FEFF 		bl	Dispenser_Enable
 181              	.L1:
 182              	.LBE2:
  89:.\DispenserSink.c ****             }
  90:.\DispenserSink.c ****         }
  91:.\DispenserSink.c ****     }
  92:.\DispenserSink.c **** }
 183              		.loc 1 92 0
 184 00ea 0837     		adds	r7, r7, #8
 185              		.cfi_def_cfa_offset 16
 186 00ec BD46     		mov	sp, r7
 187              		.cfi_def_cfa_register 13
 188              		@ sp needed
 189 00ee B0BD     		pop	{r4, r5, r7, pc}
 190              	.L9:
 191              		.align	2
 192              	.L8:
 193 00f0 00000000 		.word	_g_pumpjobqueue
ARM GAS  C:\Users\RECEPC~1\AppData\Local\Temp\cc14VPUN.s 			page 6


 194 00f4 00408F40 		.word	1083129856
 195              		.cfi_endproc
 196              	.LFE63:
 197              		.size	DispenserTimeoutHandler, .-DispenserTimeoutHandler
 198              		.section	.text.DispenserDataReceptionHandler,"ax",%progbits
 199              		.align	2
 200              		.global	DispenserDataReceptionHandler
 201              		.thumb
 202              		.thumb_func
 203              		.type	DispenserDataReceptionHandler, %function
 204              	DispenserDataReceptionHandler:
 205              	.LFB64:
  93:.\DispenserSink.c **** 
  94:.\DispenserSink.c **** //@Create by: HIJH
  95:.\DispenserSink.c **** //@Date: Septembre de 2016
  96:.\DispenserSink.c **** //This handler receives the responses from the pump to job requests on top of the queue.
  97:.\DispenserSink.c **** //Once a job is executed, the response is awaited (if required) and monitored for 
  98:.\DispenserSink.c **** //timeouts and retries. The handler also validates a set of post conditions to 
  99:.\DispenserSink.c **** //answer the job.
 100:.\DispenserSink.c **** //void DispenserDataReceptionHandler(void *pparam)
 101:.\DispenserSink.c **** void DispenserDataReceptionHandler()
 102:.\DispenserSink.c **** {
 206              		.loc 1 102 0
 207              		.cfi_startproc
 208              		@ args = 0, pretend = 0, frame = 8
 209              		@ frame_needed = 1, uses_anonymous_args = 0
 210 0000 80B5     		push	{r7, lr}
 211              		.cfi_def_cfa_offset 8
 212              		.cfi_offset 7, -8
 213              		.cfi_offset 14, -4
 214 0002 82B0     		sub	sp, sp, #8
 215              		.cfi_def_cfa_offset 16
 216 0004 00AF     		add	r7, sp, #0
 217              		.cfi_def_cfa_register 7
 103:.\DispenserSink.c ****     if(!_g_respctxt._bufferready)
 218              		.loc 1 103 0
 219 0006 8A4B     		ldr	r3, .L34
 220 0008 1B79     		ldrb	r3, [r3, #4]
 221 000a DBB2     		uxtb	r3, r3
 222 000c 83F00103 		eor	r3, r3, #1
 223 0010 DBB2     		uxtb	r3, r3
 224 0012 002B     		cmp	r3, #0
 225 0014 00D0     		beq	.L11
 104:.\DispenserSink.c ****         return;
 226              		.loc 1 104 0
 227 0016 42E1     		b	.L10
 228              	.L11:
 105:.\DispenserSink.c **** 
 106:.\DispenserSink.c ****     //SinkMessage *psinkmsg = (SinkMessage*)pparam;
 107:.\DispenserSink.c ****     /////////////////////////////////////////////////////////////////////////////////////////
 108:.\DispenserSink.c ****     //TODO: PLACE HERE ALL THE NECESSARY CODE TO RESOLVE THE COMPLETENESS OF THE ARRIVED STREAM
 109:.\DispenserSink.c ****     /////////////////////////////////////////////////////////////////////////////////////////
 110:.\DispenserSink.c ****     PPUMPTRANSACTIONJOBCONTEXTPTR pjob = _g_pumpjobqueue.Peek(&_g_pumpjobqueue);
 229              		.loc 1 110 0
 230 0018 864B     		ldr	r3, .L34+4
 231 001a D3F85038 		ldr	r3, [r3, #2128]
 232 001e 8548     		ldr	r0, .L34+4
ARM GAS  C:\Users\RECEPC~1\AppData\Local\Temp\cc14VPUN.s 			page 7


 233 0020 9847     		blx	r3
 234 0022 7860     		str	r0, [r7, #4]
 111:.\DispenserSink.c ****     if(pjob && pjob->_presponse)
 235              		.loc 1 111 0
 236 0024 7B68     		ldr	r3, [r7, #4]
 237 0026 002B     		cmp	r3, #0
 238 0028 00F01F81 		beq	.L13
 239              		.loc 1 111 0 is_stmt 0 discriminator 1
 240 002c 7B68     		ldr	r3, [r7, #4]
 241 002e 9B69     		ldr	r3, [r3, #24]
 242 0030 002B     		cmp	r3, #0
 243 0032 00F01A81 		beq	.L13
 244              	.LBB3:
 112:.\DispenserSink.c ****     {
 113:.\DispenserSink.c ****         pjob->_timeoutmultiplier = 0x0000;
 245              		.loc 1 113 0 is_stmt 1
 246 0036 7B68     		ldr	r3, [r7, #4]
 247 0038 0022     		movs	r2, #0
 248 003a 5A82     		strh	r2, [r3, #18]	@ movhi
 114:.\DispenserSink.c ****         pjob->_timeoutseed = 0x0000;
 249              		.loc 1 114 0
 250 003c 7B68     		ldr	r3, [r7, #4]
 251 003e 0022     		movs	r2, #0
 252 0040 1A82     		strh	r2, [r3, #16]	@ movhi
 115:.\DispenserSink.c ****         memcpy(pjob->_ppump->_rxbuffer, _g_respctxt._rxbuffer, _g_respctxt._responsesize);
 253              		.loc 1 115 0
 254 0042 7B68     		ldr	r3, [r7, #4]
 255 0044 DB69     		ldr	r3, [r3, #28]
 256 0046 03F5D072 		add	r2, r3, #416
 257 004a 794B     		ldr	r3, .L34
 258 004c DB88     		ldrh	r3, [r3, #6]	@ movhi
 259 004e 9BB2     		uxth	r3, r3
 260 0050 1046     		mov	r0, r2
 261 0052 7949     		ldr	r1, .L34+8
 262 0054 1A46     		mov	r2, r3
 263 0056 FFF7FEFF 		bl	memcpy
 116:.\DispenserSink.c ****         pjob->_ppump->_rxbuffersize = _g_respctxt._responsesize;
 264              		.loc 1 116 0
 265 005a 7B68     		ldr	r3, [r7, #4]
 266 005c DB69     		ldr	r3, [r3, #28]
 267 005e 744A     		ldr	r2, .L34
 268 0060 D288     		ldrh	r2, [r2, #6]	@ movhi
 269 0062 92B2     		uxth	r2, r2
 270 0064 A3F82023 		strh	r2, [r3, #800]	@ movhi
 117:.\DispenserSink.c ****         
 118:.\DispenserSink.c ****         bool oneshot = false;
 271              		.loc 1 118 0
 272 0068 0023     		movs	r3, #0
 273 006a FB70     		strb	r3, [r7, #3]
 119:.\DispenserSink.c ****         bool postconditions = false;
 274              		.loc 1 119 0
 275 006c 0023     		movs	r3, #0
 276 006e BB70     		strb	r3, [r7, #2]
 120:.\DispenserSink.c ****         bool postcondexecuted = false;
 277              		.loc 1 120 0
 278 0070 0023     		movs	r3, #0
 279 0072 7B70     		strb	r3, [r7, #1]
ARM GAS  C:\Users\RECEPC~1\AppData\Local\Temp\cc14VPUN.s 			page 8


 121:.\DispenserSink.c ****         FOR(uint8 index = 0, index < _MAX_CONDITION_CODES_, index++)
 280              		.loc 1 121 0
 281 0074 0023     		movs	r3, #0
 282 0076 3B70     		strb	r3, [r7]
 283 0078 66E0     		b	.L14
 284              	.L23:
 122:.\DispenserSink.c ****         {
 123:.\DispenserSink.c ****             //If none the post conditions are met, then this job item MUST timeout
 124:.\DispenserSink.c ****             //so it will be launched again for a predefined number of retries (see the code in the 
 125:.\DispenserSink.c ****             if(pjob->_presponse->_postconditions[index] != 0xFF)
 285              		.loc 1 125 0
 286 007a 7B68     		ldr	r3, [r7, #4]
 287 007c 9A69     		ldr	r2, [r3, #24]
 288 007e 3B78     		ldrb	r3, [r7]	@ zero_extendqisi2
 289 0080 1344     		add	r3, r3, r2
 290 0082 93F82630 		ldrb	r3, [r3, #38]	@ zero_extendqisi2
 291 0086 FF2B     		cmp	r3, #255
 292 0088 5AD0     		beq	.L15
 126:.\DispenserSink.c ****             {
 127:.\DispenserSink.c ****                 postconditions = true;
 293              		.loc 1 127 0
 294 008a 0123     		movs	r3, #1
 295 008c BB70     		strb	r3, [r7, #2]
 128:.\DispenserSink.c ****                 if(!oneshot)
 296              		.loc 1 128 0
 297 008e FB78     		ldrb	r3, [r7, #3]
 298 0090 83F00103 		eor	r3, r3, #1
 299 0094 DBB2     		uxtb	r3, r3
 300 0096 002B     		cmp	r3, #0
 301 0098 06D0     		beq	.L16
 129:.\DispenserSink.c ****                     oneshot = pjob->_presponse->_oneshotpostconditions[index];
 302              		.loc 1 129 0
 303 009a 7B68     		ldr	r3, [r7, #4]
 304 009c 9A69     		ldr	r2, [r3, #24]
 305 009e 3B78     		ldrb	r3, [r7]	@ zero_extendqisi2
 306 00a0 1344     		add	r3, r3, r2
 307 00a2 93F82230 		ldrb	r3, [r3, #34]
 308 00a6 FB70     		strb	r3, [r7, #3]
 309              	.L16:
 130:.\DispenserSink.c ****                  
 131:.\DispenserSink.c ****                 pjob->_presponse->Response(pjob);
 310              		.loc 1 131 0
 311 00a8 7B68     		ldr	r3, [r7, #4]
 312 00aa 9B69     		ldr	r3, [r3, #24]
 313 00ac 5B68     		ldr	r3, [r3, #4]
 314 00ae 7868     		ldr	r0, [r7, #4]
 315 00b0 9847     		blx	r3
 132:.\DispenserSink.c ****                 //If the condition is met then execute the response Callback
 133:.\DispenserSink.c ****                 if(pjob->_ppump->_pumpstate == pjob->_presponse->_postconditions[index])
 316              		.loc 1 133 0
 317 00b2 7B68     		ldr	r3, [r7, #4]
 318 00b4 DB69     		ldr	r3, [r3, #28]
 319 00b6 9B78     		ldrb	r3, [r3, #2]
 320 00b8 DAB2     		uxtb	r2, r3
 321 00ba 7B68     		ldr	r3, [r7, #4]
 322 00bc 9969     		ldr	r1, [r3, #24]
 323 00be 3B78     		ldrb	r3, [r7]	@ zero_extendqisi2
ARM GAS  C:\Users\RECEPC~1\AppData\Local\Temp\cc14VPUN.s 			page 9


 324 00c0 0B44     		add	r3, r3, r1
 325 00c2 93F82630 		ldrb	r3, [r3, #38]	@ zero_extendqisi2
 326 00c6 9A42     		cmp	r2, r3
 327 00c8 3BD1     		bne	.L17
 134:.\DispenserSink.c ****                 {
 135:.\DispenserSink.c ****                     if(!pjob->_reenqueue)
 328              		.loc 1 135 0
 329 00ca 7B68     		ldr	r3, [r7, #4]
 330 00cc 1B78     		ldrb	r3, [r3]
 331 00ce DBB2     		uxtb	r3, r3
 332 00d0 83F00103 		eor	r3, r3, #1
 333 00d4 DBB2     		uxtb	r3, r3
 334 00d6 002B     		cmp	r3, #0
 335 00d8 13D0     		beq	.L18
 136:.\DispenserSink.c ****                     {
 137:.\DispenserSink.c ****                         if(pjob->_presponse->Finalization)
 336              		.loc 1 137 0
 337 00da 7B68     		ldr	r3, [r7, #4]
 338 00dc 9B69     		ldr	r3, [r3, #24]
 339 00de 1B6B     		ldr	r3, [r3, #48]
 340 00e0 002B     		cmp	r3, #0
 341 00e2 04D0     		beq	.L19
 138:.\DispenserSink.c ****                             pjob->_presponse->Finalization(pjob);
 342              		.loc 1 138 0
 343 00e4 7B68     		ldr	r3, [r7, #4]
 344 00e6 9B69     		ldr	r3, [r3, #24]
 345 00e8 1B6B     		ldr	r3, [r3, #48]
 346 00ea 7868     		ldr	r0, [r7, #4]
 347 00ec 9847     		blx	r3
 348              	.L19:
 139:.\DispenserSink.c ****                             
 140:.\DispenserSink.c ****                         if(pjob->Callback)
 349              		.loc 1 140 0
 350 00ee 7B68     		ldr	r3, [r7, #4]
 351 00f0 1B6A     		ldr	r3, [r3, #32]
 352 00f2 002B     		cmp	r3, #0
 353 00f4 05D0     		beq	.L18
 141:.\DispenserSink.c ****                             pjob->Callback(pjob->_pdata);
 354              		.loc 1 141 0
 355 00f6 7B68     		ldr	r3, [r7, #4]
 356 00f8 1B6A     		ldr	r3, [r3, #32]
 357 00fa 7A68     		ldr	r2, [r7, #4]
 358 00fc 526A     		ldr	r2, [r2, #36]
 359 00fe 1046     		mov	r0, r2
 360 0100 9847     		blx	r3
 361              	.L18:
 142:.\DispenserSink.c ****                     }
 143:.\DispenserSink.c ****                     
 144:.\DispenserSink.c ****                     if(!pjob->_reenqueue)
 362              		.loc 1 144 0
 363 0102 7B68     		ldr	r3, [r7, #4]
 364 0104 1B78     		ldrb	r3, [r3]
 365 0106 DBB2     		uxtb	r3, r3
 366 0108 83F00103 		eor	r3, r3, #1
 367 010c DBB2     		uxtb	r3, r3
 368 010e 002B     		cmp	r3, #0
 369 0110 07D0     		beq	.L20
ARM GAS  C:\Users\RECEPC~1\AppData\Local\Temp\cc14VPUN.s 			page 10


 145:.\DispenserSink.c ****                     {
 146:.\DispenserSink.c ****                         _g_pumpjobqueue.Dequeue(&_g_pumpjobqueue);
 370              		.loc 1 146 0
 371 0112 484B     		ldr	r3, .L34+4
 372 0114 D3F85438 		ldr	r3, [r3, #2132]
 373 0118 4648     		ldr	r0, .L34+4
 374 011a 9847     		blx	r3
 147:.\DispenserSink.c ****                         pjob = NULL;
 375              		.loc 1 147 0
 376 011c 0023     		movs	r3, #0
 377 011e 7B60     		str	r3, [r7, #4]
 378 0120 0BE0     		b	.L21
 379              	.L20:
 148:.\DispenserSink.c ****                     }else{
 149:.\DispenserSink.c ****                         pjob->_prequest = pjob->_presponse;
 380              		.loc 1 149 0
 381 0122 7B68     		ldr	r3, [r7, #4]
 382 0124 9A69     		ldr	r2, [r3, #24]
 383 0126 7B68     		ldr	r3, [r7, #4]
 384 0128 5A61     		str	r2, [r3, #20]
 150:.\DispenserSink.c ****                         pjob->_presponse = NULL;
 385              		.loc 1 150 0
 386 012a 7B68     		ldr	r3, [r7, #4]
 387 012c 0022     		movs	r2, #0
 388 012e 9A61     		str	r2, [r3, #24]
 151:.\DispenserSink.c ****                         _g_pumpjobqueue.Rotate(&_g_pumpjobqueue);
 389              		.loc 1 151 0
 390 0130 404B     		ldr	r3, .L34+4
 391 0132 D3F84438 		ldr	r3, [r3, #2116]
 392 0136 3F48     		ldr	r0, .L34+4
 393 0138 9847     		blx	r3
 394              	.L21:
 152:.\DispenserSink.c ****                     }
 153:.\DispenserSink.c ****                     postcondexecuted = true;
 395              		.loc 1 153 0
 396 013a 0123     		movs	r3, #1
 397 013c 7B70     		strb	r3, [r7, #1]
 154:.\DispenserSink.c ****                     break;
 398              		.loc 1 154 0
 399 013e 06E0     		b	.L22
 400              	.L15:
 155:.\DispenserSink.c ****                 }
 156:.\DispenserSink.c ****             }else
 157:.\DispenserSink.c ****                 break;
 401              		.loc 1 157 0
 402 0140 05E0     		b	.L22
 403              	.L17:
 121:.\DispenserSink.c ****         {
 404              		.loc 1 121 0 discriminator 2
 405 0142 3B78     		ldrb	r3, [r7]	@ zero_extendqisi2
 406 0144 0133     		adds	r3, r3, #1
 407 0146 3B70     		strb	r3, [r7]
 408              	.L14:
 121:.\DispenserSink.c ****         {
 409              		.loc 1 121 0 is_stmt 0 discriminator 1
 410 0148 3B78     		ldrb	r3, [r7]	@ zero_extendqisi2
 411 014a 032B     		cmp	r3, #3
ARM GAS  C:\Users\RECEPC~1\AppData\Local\Temp\cc14VPUN.s 			page 11


 412 014c 95D9     		bls	.L23
 413              	.L22:
 158:.\DispenserSink.c ****         }
 159:.\DispenserSink.c ****         if(!postconditions)
 414              		.loc 1 159 0 is_stmt 1
 415 014e BB78     		ldrb	r3, [r7, #2]
 416 0150 83F00103 		eor	r3, r3, #1
 417 0154 DBB2     		uxtb	r3, r3
 418 0156 002B     		cmp	r3, #0
 419 0158 38D0     		beq	.L24
 160:.\DispenserSink.c ****         {                
 161:.\DispenserSink.c ****             pjob->_presponse->Response(pjob);
 420              		.loc 1 161 0
 421 015a 7B68     		ldr	r3, [r7, #4]
 422 015c 9B69     		ldr	r3, [r3, #24]
 423 015e 5B68     		ldr	r3, [r3, #4]
 424 0160 7868     		ldr	r0, [r7, #4]
 425 0162 9847     		blx	r3
 162:.\DispenserSink.c ****             
 163:.\DispenserSink.c ****             if(!pjob->_reenqueue)
 426              		.loc 1 163 0
 427 0164 7B68     		ldr	r3, [r7, #4]
 428 0166 1B78     		ldrb	r3, [r3]
 429 0168 DBB2     		uxtb	r3, r3
 430 016a 83F00103 		eor	r3, r3, #1
 431 016e DBB2     		uxtb	r3, r3
 432 0170 002B     		cmp	r3, #0
 433 0172 13D0     		beq	.L25
 164:.\DispenserSink.c ****             {
 165:.\DispenserSink.c ****                 if(pjob->_presponse->Finalization)
 434              		.loc 1 165 0
 435 0174 7B68     		ldr	r3, [r7, #4]
 436 0176 9B69     		ldr	r3, [r3, #24]
 437 0178 1B6B     		ldr	r3, [r3, #48]
 438 017a 002B     		cmp	r3, #0
 439 017c 04D0     		beq	.L26
 166:.\DispenserSink.c ****                     pjob->_presponse->Finalization(pjob);
 440              		.loc 1 166 0
 441 017e 7B68     		ldr	r3, [r7, #4]
 442 0180 9B69     		ldr	r3, [r3, #24]
 443 0182 1B6B     		ldr	r3, [r3, #48]
 444 0184 7868     		ldr	r0, [r7, #4]
 445 0186 9847     		blx	r3
 446              	.L26:
 167:.\DispenserSink.c ****                 
 168:.\DispenserSink.c ****                 if(pjob->Callback)
 447              		.loc 1 168 0
 448 0188 7B68     		ldr	r3, [r7, #4]
 449 018a 1B6A     		ldr	r3, [r3, #32]
 450 018c 002B     		cmp	r3, #0
 451 018e 05D0     		beq	.L25
 169:.\DispenserSink.c ****                     pjob->Callback(pjob->_pdata);
 452              		.loc 1 169 0
 453 0190 7B68     		ldr	r3, [r7, #4]
 454 0192 1B6A     		ldr	r3, [r3, #32]
 455 0194 7A68     		ldr	r2, [r7, #4]
 456 0196 526A     		ldr	r2, [r2, #36]
ARM GAS  C:\Users\RECEPC~1\AppData\Local\Temp\cc14VPUN.s 			page 12


 457 0198 1046     		mov	r0, r2
 458 019a 9847     		blx	r3
 459              	.L25:
 170:.\DispenserSink.c ****             }
 171:.\DispenserSink.c ****             
 172:.\DispenserSink.c ****             //This is required for the enumeration model
 173:.\DispenserSink.c ****             if(!pjob->_reenqueue)
 460              		.loc 1 173 0
 461 019c 7B68     		ldr	r3, [r7, #4]
 462 019e 1B78     		ldrb	r3, [r3]
 463 01a0 DBB2     		uxtb	r3, r3
 464 01a2 83F00103 		eor	r3, r3, #1
 465 01a6 DBB2     		uxtb	r3, r3
 466 01a8 002B     		cmp	r3, #0
 467 01aa 07D0     		beq	.L27
 174:.\DispenserSink.c ****             {
 175:.\DispenserSink.c ****                 _g_pumpjobqueue.Dequeue(&_g_pumpjobqueue);
 468              		.loc 1 175 0
 469 01ac 214B     		ldr	r3, .L34+4
 470 01ae D3F85438 		ldr	r3, [r3, #2132]
 471 01b2 2048     		ldr	r0, .L34+4
 472 01b4 9847     		blx	r3
 176:.\DispenserSink.c ****                 pjob = NULL;
 473              		.loc 1 176 0
 474 01b6 0023     		movs	r3, #0
 475 01b8 7B60     		str	r3, [r7, #4]
 476 01ba 56E0     		b	.L13
 477              	.L27:
 177:.\DispenserSink.c ****             }else{
 178:.\DispenserSink.c ****                 pjob->_prequest = pjob->_presponse;
 478              		.loc 1 178 0
 479 01bc 7B68     		ldr	r3, [r7, #4]
 480 01be 9A69     		ldr	r2, [r3, #24]
 481 01c0 7B68     		ldr	r3, [r7, #4]
 482 01c2 5A61     		str	r2, [r3, #20]
 179:.\DispenserSink.c ****                 pjob->_presponse = PNEAR_NULLPTR;
 483              		.loc 1 179 0
 484 01c4 7B68     		ldr	r3, [r7, #4]
 485 01c6 0022     		movs	r2, #0
 486 01c8 9A61     		str	r2, [r3, #24]
 487 01ca 4EE0     		b	.L13
 488              	.L24:
 180:.\DispenserSink.c ****             }
 181:.\DispenserSink.c ****         }
 182:.\DispenserSink.c ****         else if(!postcondexecuted)
 489              		.loc 1 182 0
 490 01cc 7B78     		ldrb	r3, [r7, #1]
 491 01ce 83F00103 		eor	r3, r3, #1
 492 01d2 DBB2     		uxtb	r3, r3
 493 01d4 002B     		cmp	r3, #0
 494 01d6 48D0     		beq	.L13
 183:.\DispenserSink.c ****         {
 184:.\DispenserSink.c ****             if(oneshot)
 495              		.loc 1 184 0
 496 01d8 FB78     		ldrb	r3, [r7, #3]	@ zero_extendqisi2
 497 01da 002B     		cmp	r3, #0
 498 01dc 07D0     		beq	.L29
ARM GAS  C:\Users\RECEPC~1\AppData\Local\Temp\cc14VPUN.s 			page 13


 185:.\DispenserSink.c ****             {
 186:.\DispenserSink.c ****                 _g_pumpjobqueue.Dequeue(&_g_pumpjobqueue);
 499              		.loc 1 186 0
 500 01de 154B     		ldr	r3, .L34+4
 501 01e0 D3F85438 		ldr	r3, [r3, #2132]
 502 01e4 1348     		ldr	r0, .L34+4
 503 01e6 9847     		blx	r3
 187:.\DispenserSink.c ****                 pjob = NULL;
 504              		.loc 1 187 0
 505 01e8 0023     		movs	r3, #0
 506 01ea 7B60     		str	r3, [r7, #4]
 507 01ec 3DE0     		b	.L13
 508              	.L29:
 188:.\DispenserSink.c ****             }
 189:.\DispenserSink.c ****             else
 190:.\DispenserSink.c ****             {
 191:.\DispenserSink.c ****                 if(pjob->_presponse->_retryinsteadofrepush)
 509              		.loc 1 191 0
 510 01ee 7B68     		ldr	r3, [r7, #4]
 511 01f0 9B69     		ldr	r3, [r3, #24]
 512 01f2 5B7E     		ldrb	r3, [r3, #25]	@ zero_extendqisi2
 513 01f4 002B     		cmp	r3, #0
 514 01f6 21D0     		beq	.L30
 192:.\DispenserSink.c ****                 {
 193:.\DispenserSink.c ****                     if(pjob->_repushretriescounter >= _MAX_RETRIES_)
 515              		.loc 1 193 0
 516 01f8 7B68     		ldr	r3, [r7, #4]
 517 01fa 1B89     		ldrh	r3, [r3, #8]	@ movhi
 518 01fc 9BB2     		uxth	r3, r3
 519 01fe 132B     		cmp	r3, #19
 520 0200 07D9     		bls	.L31
 194:.\DispenserSink.c ****                     {
 195:.\DispenserSink.c ****                         _g_pumpjobqueue.Dequeue(&_g_pumpjobqueue);
 521              		.loc 1 195 0
 522 0202 0C4B     		ldr	r3, .L34+4
 523 0204 D3F85438 		ldr	r3, [r3, #2132]
 524 0208 0A48     		ldr	r0, .L34+4
 525 020a 9847     		blx	r3
 196:.\DispenserSink.c ****                         pjob = NULL;
 526              		.loc 1 196 0
 527 020c 0023     		movs	r3, #0
 528 020e 7B60     		str	r3, [r7, #4]
 529 0210 2BE0     		b	.L13
 530              	.L31:
 197:.\DispenserSink.c ****                     }
 198:.\DispenserSink.c ****                     else
 199:.\DispenserSink.c ****                     {
 200:.\DispenserSink.c ****                         pjob->_repushretriescounter++;
 531              		.loc 1 200 0
 532 0212 7B68     		ldr	r3, [r7, #4]
 533 0214 1B89     		ldrh	r3, [r3, #8]	@ movhi
 534 0216 9BB2     		uxth	r3, r3
 535 0218 0133     		adds	r3, r3, #1
 536 021a 9AB2     		uxth	r2, r3
 537 021c 7B68     		ldr	r3, [r7, #4]
 538 021e 1A81     		strh	r2, [r3, #8]	@ movhi
 201:.\DispenserSink.c ****                         pjob->_prequest = pjob->_presponse;
ARM GAS  C:\Users\RECEPC~1\AppData\Local\Temp\cc14VPUN.s 			page 14


 539              		.loc 1 201 0
 540 0220 7B68     		ldr	r3, [r7, #4]
 541 0222 9A69     		ldr	r2, [r3, #24]
 542 0224 7B68     		ldr	r3, [r7, #4]
 543 0226 5A61     		str	r2, [r3, #20]
 202:.\DispenserSink.c ****                         pjob->_presponse = NULL;
 544              		.loc 1 202 0
 545 0228 7B68     		ldr	r3, [r7, #4]
 546 022a 0022     		movs	r2, #0
 547 022c 9A61     		str	r2, [r3, #24]
 548 022e 1CE0     		b	.L13
 549              	.L35:
 550              		.align	2
 551              	.L34:
 552 0230 00000000 		.word	_g_respctxt
 553 0234 00000000 		.word	_g_pumpjobqueue
 554 0238 0C000000 		.word	_g_respctxt+12
 555              	.L30:
 203:.\DispenserSink.c ****                     }
 204:.\DispenserSink.c ****                 }
 205:.\DispenserSink.c ****                 else
 206:.\DispenserSink.c ****                 {
 207:.\DispenserSink.c ****                     //If none of the postconditions are met, then "Re-push" until there is a match
 208:.\DispenserSink.c ****                     //This is pretty useful for the "EOT" state since once the delivery starts, 
 209:.\DispenserSink.c ****                     //the transaction needs to wait for the "EOT" or "IDLE" condition on the pump.
 210:.\DispenserSink.c ****                     if(pjob->_repushtimeoutseed == 0x0000)
 556              		.loc 1 210 0
 557 023c 7B68     		ldr	r3, [r7, #4]
 558 023e 5B89     		ldrh	r3, [r3, #10]	@ movhi
 559 0240 9BB2     		uxth	r3, r3
 560 0242 002B     		cmp	r3, #0
 561 0244 05D1     		bne	.L33
 211:.\DispenserSink.c ****                         pjob->_repushtimeoutseed = Timer_DispenserState_ReadCounter();
 562              		.loc 1 211 0
 563 0246 FFF7FEFF 		bl	Timer_DispenserState_ReadCounter
 564 024a 0346     		mov	r3, r0
 565 024c 1A46     		mov	r2, r3
 566 024e 7B68     		ldr	r3, [r7, #4]
 567 0250 5A81     		strh	r2, [r3, #10]	@ movhi
 568              	.L33:
 212:.\DispenserSink.c **** 
 213:.\DispenserSink.c ****                     //This pointer is NULL but just for the sake of clarity
 214:.\DispenserSink.c ****                     pjob->_prequest = pjob->_presponse;
 569              		.loc 1 214 0
 570 0252 7B68     		ldr	r3, [r7, #4]
 571 0254 9A69     		ldr	r2, [r3, #24]
 572 0256 7B68     		ldr	r3, [r7, #4]
 573 0258 5A61     		str	r2, [r3, #20]
 215:.\DispenserSink.c ****                     pjob->_presponse = PNEAR_NULLPTR;
 574              		.loc 1 215 0
 575 025a 7B68     		ldr	r3, [r7, #4]
 576 025c 0022     		movs	r2, #0
 577 025e 9A61     		str	r2, [r3, #24]
 216:.\DispenserSink.c ****                     _g_pumpjobqueue.Rotate(&_g_pumpjobqueue);
 578              		.loc 1 216 0
 579 0260 104B     		ldr	r3, .L36
 580 0262 D3F84438 		ldr	r3, [r3, #2116]
ARM GAS  C:\Users\RECEPC~1\AppData\Local\Temp\cc14VPUN.s 			page 15


 581 0266 0F48     		ldr	r0, .L36
 582 0268 9847     		blx	r3
 583              	.L13:
 584              	.LBE3:
 217:.\DispenserSink.c **** 
 218:.\DispenserSink.c ****                 }
 219:.\DispenserSink.c ****             }
 220:.\DispenserSink.c ****         }
 221:.\DispenserSink.c ****     }
 222:.\DispenserSink.c ****     //CHANGE BY HIJH
 223:.\DispenserSink.c ****     //NOV 18 2016
 224:.\DispenserSink.c ****     //PLACEMENT OF THIS BLOCK OUT OF THE MAIN IF
 225:.\DispenserSink.c ****     _g_respctxt._bufferready = false;
 585              		.loc 1 225 0
 586 026a 0F4B     		ldr	r3, .L36+4
 587 026c 0022     		movs	r2, #0
 588 026e 1A71     		strb	r2, [r3, #4]
 226:.\DispenserSink.c ****     _g_respctxt._responsesize = 0x00;
 589              		.loc 1 226 0
 590 0270 0D4B     		ldr	r3, .L36+4
 591 0272 0022     		movs	r2, #0
 592 0274 DA80     		strh	r2, [r3, #6]	@ movhi
 227:.\DispenserSink.c ****     memset(_g_respctxt._rxbuffer, 0x00, 512);
 593              		.loc 1 227 0
 594 0276 0D48     		ldr	r0, .L36+8
 595 0278 0021     		movs	r1, #0
 596 027a 4FF40072 		mov	r2, #512
 597 027e FFF7FEFF 		bl	memset
 228:.\DispenserSink.c ****     memset(pjob->_ppump->_rxbuffer, 0x00, _PUMP_RX_BUFFER_SIZE_);
 598              		.loc 1 228 0
 599 0282 7B68     		ldr	r3, [r7, #4]
 600 0284 DB69     		ldr	r3, [r3, #28]
 601 0286 03F5D073 		add	r3, r3, #416
 602 028a 1846     		mov	r0, r3
 603 028c 0021     		movs	r1, #0
 604 028e 4FF4C072 		mov	r2, #384
 605 0292 FFF7FEFF 		bl	memset
 229:.\DispenserSink.c ****     
 230:.\DispenserSink.c ****     Dispenser_ClearRxBuffer();
 606              		.loc 1 230 0
 607 0296 FFF7FEFF 		bl	Dispenser_ClearRxBuffer
 231:.\DispenserSink.c ****     Dispenser_Enable();
 608              		.loc 1 231 0
 609 029a FFF7FEFF 		bl	Dispenser_Enable
 610              	.L10:
 232:.\DispenserSink.c **** }
 611              		.loc 1 232 0
 612 029e 0837     		adds	r7, r7, #8
 613              		.cfi_def_cfa_offset 8
 614 02a0 BD46     		mov	sp, r7
 615              		.cfi_def_cfa_register 13
 616              		@ sp needed
 617 02a2 80BD     		pop	{r7, pc}
 618              	.L37:
 619              		.align	2
 620              	.L36:
 621 02a4 00000000 		.word	_g_pumpjobqueue
ARM GAS  C:\Users\RECEPC~1\AppData\Local\Temp\cc14VPUN.s 			page 16


 622 02a8 00000000 		.word	_g_respctxt
 623 02ac 0C000000 		.word	_g_respctxt+12
 624              		.cfi_endproc
 625              	.LFE64:
 626              		.size	DispenserDataReceptionHandler, .-DispenserDataReceptionHandler
 627              		.section	.text.DispenserUpdateTimeouts,"ax",%progbits
 628              		.align	2
 629              		.global	DispenserUpdateTimeouts
 630              		.thumb
 631              		.thumb_func
 632              		.type	DispenserUpdateTimeouts, %function
 633              	DispenserUpdateTimeouts:
 634              	.LFB65:
 233:.\DispenserSink.c **** 
 234:.\DispenserSink.c **** //This updater is invoked every millisecond, so the multiplier counts per elapsed millisecond
 235:.\DispenserSink.c **** void DispenserUpdateTimeouts(void *pparam)
 236:.\DispenserSink.c **** {
 635              		.loc 1 236 0
 636              		.cfi_startproc
 637              		@ args = 0, pretend = 0, frame = 16
 638              		@ frame_needed = 1, uses_anonymous_args = 0
 639 0000 80B5     		push	{r7, lr}
 640              		.cfi_def_cfa_offset 8
 641              		.cfi_offset 7, -8
 642              		.cfi_offset 14, -4
 643 0002 84B0     		sub	sp, sp, #16
 644              		.cfi_def_cfa_offset 24
 645 0004 00AF     		add	r7, sp, #0
 646              		.cfi_def_cfa_register 7
 647 0006 7860     		str	r0, [r7, #4]
 237:.\DispenserSink.c ****     _g_dispenserupdatetimeoutmultiplier++;
 648              		.loc 1 237 0
 649 0008 1B4B     		ldr	r3, .L41
 650 000a 1B88     		ldrh	r3, [r3]
 651 000c 0133     		adds	r3, r3, #1
 652 000e 9AB2     		uxth	r2, r3
 653 0010 194B     		ldr	r3, .L41
 654 0012 1A80     		strh	r2, [r3]	@ movhi
 238:.\DispenserSink.c ****     //Update of the transaction timeouts every 10 milliseconds
 239:.\DispenserSink.c ****         
 240:.\DispenserSink.c ****     PPUMPTRANSACTIONJOBCONTEXTPTR pjob = _g_pumpjobqueue.Peek(&_g_pumpjobqueue);
 655              		.loc 1 240 0
 656 0014 194B     		ldr	r3, .L41+4
 657 0016 D3F85038 		ldr	r3, [r3, #2128]
 658 001a 1848     		ldr	r0, .L41+4
 659 001c 9847     		blx	r3
 660 001e F860     		str	r0, [r7, #12]
 241:.\DispenserSink.c ****     if(pjob && pjob->_presponse)
 661              		.loc 1 241 0
 662 0020 FB68     		ldr	r3, [r7, #12]
 663 0022 002B     		cmp	r3, #0
 664 0024 1BD0     		beq	.L39
 665              		.loc 1 241 0 is_stmt 0 discriminator 1
 666 0026 FB68     		ldr	r3, [r7, #12]
 667 0028 9B69     		ldr	r3, [r3, #24]
 668 002a 002B     		cmp	r3, #0
 669 002c 17D0     		beq	.L39
ARM GAS  C:\Users\RECEPC~1\AppData\Local\Temp\cc14VPUN.s 			page 17


 242:.\DispenserSink.c ****     {
 243:.\DispenserSink.c ****         if(pjob->_presponse->_responsetimeoutlimit != _NO_TIMEOUT_)
 670              		.loc 1 243 0 is_stmt 1
 671 002e FB68     		ldr	r3, [r7, #12]
 672 0030 9B69     		ldr	r3, [r3, #24]
 673 0032 1B8A     		ldrh	r3, [r3, #16]
 674 0034 002B     		cmp	r3, #0
 675 0036 06D0     		beq	.L40
 244:.\DispenserSink.c ****             pjob->_timeoutmultiplier++;
 676              		.loc 1 244 0
 677 0038 FB68     		ldr	r3, [r7, #12]
 678 003a 5B8A     		ldrh	r3, [r3, #18]	@ movhi
 679 003c 9BB2     		uxth	r3, r3
 680 003e 0133     		adds	r3, r3, #1
 681 0040 9AB2     		uxth	r2, r3
 682 0042 FB68     		ldr	r3, [r7, #12]
 683 0044 5A82     		strh	r2, [r3, #18]	@ movhi
 684              	.L40:
 245:.\DispenserSink.c ****             
 246:.\DispenserSink.c ****         if(pjob->_presponse->_repushtimeoutlimit != _NO_TIMEOUT_)
 685              		.loc 1 246 0
 686 0046 FB68     		ldr	r3, [r7, #12]
 687 0048 9B69     		ldr	r3, [r3, #24]
 688 004a 5B69     		ldr	r3, [r3, #20]
 689 004c 002B     		cmp	r3, #0
 690 004e 06D0     		beq	.L39
 247:.\DispenserSink.c ****             pjob->_repushtimeoutmultiplier++;
 691              		.loc 1 247 0
 692 0050 FB68     		ldr	r3, [r7, #12]
 693 0052 9B89     		ldrh	r3, [r3, #12]	@ movhi
 694 0054 9BB2     		uxth	r3, r3
 695 0056 0133     		adds	r3, r3, #1
 696 0058 9AB2     		uxth	r2, r3
 697 005a FB68     		ldr	r3, [r7, #12]
 698 005c 9A81     		strh	r2, [r3, #12]	@ movhi
 699              	.L39:
 248:.\DispenserSink.c ****     }
 249:.\DispenserSink.c ****         
 250:.\DispenserSink.c ****     _g_dispenserupdatetimeout = Timer_DispenserState_ReadCounter();
 700              		.loc 1 250 0
 701 005e FFF7FEFF 		bl	Timer_DispenserState_ReadCounter
 702 0062 0346     		mov	r3, r0
 703 0064 1A46     		mov	r2, r3
 704 0066 064B     		ldr	r3, .L41+8
 705 0068 1A80     		strh	r2, [r3]	@ movhi
 251:.\DispenserSink.c ****     _g_dispenserupdatetimeoutmultiplier = 0x0000;   
 706              		.loc 1 251 0
 707 006a 034B     		ldr	r3, .L41
 708 006c 0022     		movs	r2, #0
 709 006e 1A80     		strh	r2, [r3]	@ movhi
 252:.\DispenserSink.c **** }
 710              		.loc 1 252 0
 711 0070 1037     		adds	r7, r7, #16
 712              		.cfi_def_cfa_offset 8
 713 0072 BD46     		mov	sp, r7
 714              		.cfi_def_cfa_register 13
 715              		@ sp needed
ARM GAS  C:\Users\RECEPC~1\AppData\Local\Temp\cc14VPUN.s 			page 18


 716 0074 80BD     		pop	{r7, pc}
 717              	.L42:
 718 0076 00BF     		.align	2
 719              	.L41:
 720 0078 00000000 		.word	_g_dispenserupdatetimeoutmultiplier
 721 007c 00000000 		.word	_g_pumpjobqueue
 722 0080 00000000 		.word	_g_dispenserupdatetimeout
 723              		.cfi_endproc
 724              	.LFE65:
 725              		.size	DispenserUpdateTimeouts, .-DispenserUpdateTimeouts
 726              		.section	.text.DispenserHandler,"ax",%progbits
 727              		.align	2
 728              		.global	DispenserHandler
 729              		.thumb
 730              		.thumb_func
 731              		.type	DispenserHandler, %function
 732              	DispenserHandler:
 733              	.LFB66:
 253:.\DispenserSink.c **** 
 254:.\DispenserSink.c **** //@Create by: HIJH
 255:.\DispenserSink.c **** //@Date: Septembre de 2016
 256:.\DispenserSink.c **** //This handler checks the transactional queue for pending job requests to execute.
 257:.\DispenserSink.c **** //Once a job is executed, the response is awaited (if required) and monitored for 
 258:.\DispenserSink.c **** //timeouts and retries. It also validates a set of pre-conditions before
 259:.\DispenserSink.c **** //executing the job.
 260:.\DispenserSink.c **** void DispenserHandler()
 261:.\DispenserSink.c **** {
 734              		.loc 1 261 0
 735              		.cfi_startproc
 736              		@ args = 0, pretend = 0, frame = 8
 737              		@ frame_needed = 1, uses_anonymous_args = 0
 738 0000 80B5     		push	{r7, lr}
 739              		.cfi_def_cfa_offset 8
 740              		.cfi_offset 7, -8
 741              		.cfi_offset 14, -4
 742 0002 82B0     		sub	sp, sp, #8
 743              		.cfi_def_cfa_offset 16
 744 0004 00AF     		add	r7, sp, #0
 745              		.cfi_def_cfa_register 7
 262:.\DispenserSink.c ****     PPUMPTRANSACTIONJOBCONTEXTPTR pjob = _g_pumpjobqueue.Peek(&_g_pumpjobqueue);
 746              		.loc 1 262 0
 747 0006 8F4B     		ldr	r3, .L65
 748 0008 D3F85038 		ldr	r3, [r3, #2128]
 749 000c 8D48     		ldr	r0, .L65
 750 000e 9847     		blx	r3
 751 0010 7860     		str	r0, [r7, #4]
 263:.\DispenserSink.c ****     if(pjob && pjob->_prequest)
 752              		.loc 1 263 0
 753 0012 7B68     		ldr	r3, [r7, #4]
 754 0014 002B     		cmp	r3, #0
 755 0016 00F01181 		beq	.L43
 756              		.loc 1 263 0 is_stmt 0 discriminator 1
 757 001a 7B68     		ldr	r3, [r7, #4]
 758 001c 5B69     		ldr	r3, [r3, #20]
 759 001e 002B     		cmp	r3, #0
 760 0020 00F00C81 		beq	.L43
 761              	.LBB4:
ARM GAS  C:\Users\RECEPC~1\AppData\Local\Temp\cc14VPUN.s 			page 19


 264:.\DispenserSink.c ****     {
 265:.\DispenserSink.c ****         bool oneshot = false;
 762              		.loc 1 265 0 is_stmt 1
 763 0024 0023     		movs	r3, #0
 764 0026 FB70     		strb	r3, [r7, #3]
 266:.\DispenserSink.c ****         bool preconditions = false;
 765              		.loc 1 266 0
 766 0028 0023     		movs	r3, #0
 767 002a BB70     		strb	r3, [r7, #2]
 267:.\DispenserSink.c ****         bool precondexecuted = false;
 768              		.loc 1 267 0
 769 002c 0023     		movs	r3, #0
 770 002e 7B70     		strb	r3, [r7, #1]
 268:.\DispenserSink.c ****         
 269:.\DispenserSink.c ****         _g_respctxt._bufferready = false;
 771              		.loc 1 269 0
 772 0030 854B     		ldr	r3, .L65+4
 773 0032 0022     		movs	r2, #0
 774 0034 1A71     		strb	r2, [r3, #4]
 270:.\DispenserSink.c ****         _g_respctxt._responsesize = 0x00;
 775              		.loc 1 270 0
 776 0036 844B     		ldr	r3, .L65+4
 777 0038 0022     		movs	r2, #0
 778 003a DA80     		strh	r2, [r3, #6]	@ movhi
 271:.\DispenserSink.c ****         memset(_g_respctxt._rxbuffer, 0x00, 512);
 779              		.loc 1 271 0
 780 003c 8348     		ldr	r0, .L65+8
 781 003e 0021     		movs	r1, #0
 782 0040 4FF40072 		mov	r2, #512
 783 0044 FFF7FEFF 		bl	memset
 272:.\DispenserSink.c ****         memset(pjob->_ppump->_rxbuffer, 0x00, _PUMP_RX_BUFFER_SIZE_);
 784              		.loc 1 272 0
 785 0048 7B68     		ldr	r3, [r7, #4]
 786 004a DB69     		ldr	r3, [r3, #28]
 787 004c 03F5D073 		add	r3, r3, #416
 788 0050 1846     		mov	r0, r3
 789 0052 0021     		movs	r1, #0
 790 0054 4FF4C072 		mov	r2, #384
 791 0058 FFF7FEFF 		bl	memset
 273:.\DispenserSink.c ****         
 274:.\DispenserSink.c ****         FOR(uint8 index = 0, index < _MAX_CONDITION_CODES_, index++)
 792              		.loc 1 274 0
 793 005c 0023     		movs	r3, #0
 794 005e 3B70     		strb	r3, [r7]
 795 0060 79E0     		b	.L45
 796              	.L56:
 275:.\DispenserSink.c ****         {
 276:.\DispenserSink.c ****             if(pjob->_prequest->_preconditions[index] != 0xFF)
 797              		.loc 1 276 0
 798 0062 7B68     		ldr	r3, [r7, #4]
 799 0064 5A69     		ldr	r2, [r3, #20]
 800 0066 3B78     		ldrb	r3, [r7]	@ zero_extendqisi2
 801 0068 1344     		add	r3, r3, r2
 802 006a 9B7F     		ldrb	r3, [r3, #30]	@ zero_extendqisi2
 803 006c FF2B     		cmp	r3, #255
 804 006e 6ED0     		beq	.L46
 277:.\DispenserSink.c ****             {
ARM GAS  C:\Users\RECEPC~1\AppData\Local\Temp\cc14VPUN.s 			page 20


 278:.\DispenserSink.c ****                 //If the precondition is marked as "One Shot", it will be evaluated only once
 279:.\DispenserSink.c ****                 preconditions = true;
 805              		.loc 1 279 0
 806 0070 0123     		movs	r3, #1
 807 0072 BB70     		strb	r3, [r7, #2]
 280:.\DispenserSink.c ****                 
 281:.\DispenserSink.c ****                 if(!oneshot)
 808              		.loc 1 281 0
 809 0074 FB78     		ldrb	r3, [r7, #3]
 810 0076 83F00103 		eor	r3, r3, #1
 811 007a DBB2     		uxtb	r3, r3
 812 007c 002B     		cmp	r3, #0
 813 007e 05D0     		beq	.L47
 282:.\DispenserSink.c ****                     oneshot = pjob->_prequest->_oneshotpreconditions[index];
 814              		.loc 1 282 0
 815 0080 7B68     		ldr	r3, [r7, #4]
 816 0082 5A69     		ldr	r2, [r3, #20]
 817 0084 3B78     		ldrb	r3, [r7]	@ zero_extendqisi2
 818 0086 1344     		add	r3, r3, r2
 819 0088 9B7E     		ldrb	r3, [r3, #26]
 820 008a FB70     		strb	r3, [r7, #3]
 821              	.L47:
 283:.\DispenserSink.c ****                     
 284:.\DispenserSink.c ****                 //If the condition is met then execute the Request
 285:.\DispenserSink.c ****                 if(pjob->_ppump->_pumpstate == pjob->_prequest->_preconditions[index])
 822              		.loc 1 285 0
 823 008c 7B68     		ldr	r3, [r7, #4]
 824 008e DB69     		ldr	r3, [r3, #28]
 825 0090 9B78     		ldrb	r3, [r3, #2]
 826 0092 DAB2     		uxtb	r2, r3
 827 0094 7B68     		ldr	r3, [r7, #4]
 828 0096 5969     		ldr	r1, [r3, #20]
 829 0098 3B78     		ldrb	r3, [r7]	@ zero_extendqisi2
 830 009a 0B44     		add	r3, r3, r1
 831 009c 9B7F     		ldrb	r3, [r3, #30]	@ zero_extendqisi2
 832 009e 9A42     		cmp	r2, r3
 833 00a0 56D1     		bne	.L48
 286:.\DispenserSink.c ****                 {
 287:.\DispenserSink.c ****                     if(pjob->_prequest->Initialization)
 834              		.loc 1 287 0
 835 00a2 7B68     		ldr	r3, [r7, #4]
 836 00a4 5B69     		ldr	r3, [r3, #20]
 837 00a6 DB6A     		ldr	r3, [r3, #44]
 838 00a8 002B     		cmp	r3, #0
 839 00aa 06D0     		beq	.L49
 288:.\DispenserSink.c ****                         pjob->_prequest->Initialization(pjob->_ppump);                    
 840              		.loc 1 288 0
 841 00ac 7B68     		ldr	r3, [r7, #4]
 842 00ae 5B69     		ldr	r3, [r3, #20]
 843 00b0 DB6A     		ldr	r3, [r3, #44]
 844 00b2 7A68     		ldr	r2, [r7, #4]
 845 00b4 D269     		ldr	r2, [r2, #28]
 846 00b6 1046     		mov	r0, r2
 847 00b8 9847     		blx	r3
 848              	.L49:
 289:.\DispenserSink.c ****                     
 290:.\DispenserSink.c ****                     if(pjob->_prequest->Response)
ARM GAS  C:\Users\RECEPC~1\AppData\Local\Temp\cc14VPUN.s 			page 21


 849              		.loc 1 290 0
 850 00ba 7B68     		ldr	r3, [r7, #4]
 851 00bc 5B69     		ldr	r3, [r3, #20]
 852 00be 5B68     		ldr	r3, [r3, #4]
 853 00c0 002B     		cmp	r3, #0
 854 00c2 29D0     		beq	.L50
 291:.\DispenserSink.c ****                     {
 292:.\DispenserSink.c ****                         _g_respctxt._pparam = pjob->_ppump;
 855              		.loc 1 292 0
 856 00c4 7B68     		ldr	r3, [r7, #4]
 857 00c6 DB69     		ldr	r3, [r3, #28]
 858 00c8 5F4A     		ldr	r2, .L65+4
 859 00ca 1360     		str	r3, [r2]
 293:.\DispenserSink.c ****                         ///////////////////////////////////////////////////////////////////
 294:.\DispenserSink.c ****                         //This variable holds the expected buffer size for the response
 295:.\DispenserSink.c ****                         if(pjob->_prequest->_responsesize > 0)
 860              		.loc 1 295 0
 861 00cc 7B68     		ldr	r3, [r7, #4]
 862 00ce 5B69     		ldr	r3, [r3, #20]
 863 00d0 1B7E     		ldrb	r3, [r3, #24]	@ zero_extendqisi2
 864 00d2 002B     		cmp	r3, #0
 865 00d4 06D0     		beq	.L51
 296:.\DispenserSink.c ****                             _g_respctxt._responsesize = pjob->_prequest->_responsesize;
 866              		.loc 1 296 0
 867 00d6 7B68     		ldr	r3, [r7, #4]
 868 00d8 5B69     		ldr	r3, [r3, #20]
 869 00da 1B7E     		ldrb	r3, [r3, #24]	@ zero_extendqisi2
 870 00dc 9AB2     		uxth	r2, r3
 871 00de 5A4B     		ldr	r3, .L65+4
 872 00e0 DA80     		strh	r2, [r3, #6]	@ movhi
 873 00e2 04E0     		b	.L52
 874              	.L51:
 297:.\DispenserSink.c ****                         else
 298:.\DispenserSink.c ****                             _g_respctxt.ResponseSizeResolver = pjob->_prequest->ResponseSizeResolve
 875              		.loc 1 298 0
 876 00e4 7B68     		ldr	r3, [r7, #4]
 877 00e6 5B69     		ldr	r3, [r3, #20]
 878 00e8 DB68     		ldr	r3, [r3, #12]
 879 00ea 574A     		ldr	r2, .L65+4
 880 00ec 9360     		str	r3, [r2, #8]
 881              	.L52:
 299:.\DispenserSink.c ****                         ///////////////////////////////////////////////////////////////////
 300:.\DispenserSink.c ****                         pjob->_prequest->Request(pjob->_ppump);
 882              		.loc 1 300 0
 883 00ee 7B68     		ldr	r3, [r7, #4]
 884 00f0 5B69     		ldr	r3, [r3, #20]
 885 00f2 1B68     		ldr	r3, [r3]
 886 00f4 7A68     		ldr	r2, [r7, #4]
 887 00f6 D269     		ldr	r2, [r2, #28]
 888 00f8 1046     		mov	r0, r2
 889 00fa 9847     		blx	r3
 301:.\DispenserSink.c ****                         pjob->_presponse = pjob->_prequest;
 890              		.loc 1 301 0
 891 00fc 7B68     		ldr	r3, [r7, #4]
 892 00fe 5A69     		ldr	r2, [r3, #20]
 893 0100 7B68     		ldr	r3, [r7, #4]
 894 0102 9A61     		str	r2, [r3, #24]
ARM GAS  C:\Users\RECEPC~1\AppData\Local\Temp\cc14VPUN.s 			page 22


 302:.\DispenserSink.c ****                         pjob->_prequest = NULL;
 895              		.loc 1 302 0
 896 0104 7B68     		ldr	r3, [r7, #4]
 897 0106 0022     		movs	r2, #0
 898 0108 5A61     		str	r2, [r3, #20]
 303:.\DispenserSink.c ****                         
 304:.\DispenserSink.c ****                         //Initialize the reference tick if it has not yet been initialized
 305:.\DispenserSink.c ****                         pjob->_timeoutseed = Timer_DispenserState_ReadCounter();
 899              		.loc 1 305 0
 900 010a FFF7FEFF 		bl	Timer_DispenserState_ReadCounter
 901 010e 0346     		mov	r3, r0
 902 0110 1A46     		mov	r2, r3
 903 0112 7B68     		ldr	r3, [r7, #4]
 904 0114 1A82     		strh	r2, [r3, #16]	@ movhi
 905 0116 17E0     		b	.L53
 906              	.L50:
 306:.\DispenserSink.c ****                         
 307:.\DispenserSink.c ****                     }else{//Dequeue since no response is required for this request
 308:.\DispenserSink.c ****                         pjob->_prequest->Request(pjob->_ppump);
 907              		.loc 1 308 0
 908 0118 7B68     		ldr	r3, [r7, #4]
 909 011a 5B69     		ldr	r3, [r3, #20]
 910 011c 1B68     		ldr	r3, [r3]
 911 011e 7A68     		ldr	r2, [r7, #4]
 912 0120 D269     		ldr	r2, [r2, #28]
 913 0122 1046     		mov	r0, r2
 914 0124 9847     		blx	r3
 309:.\DispenserSink.c ****                         if(pjob->Callback)
 915              		.loc 1 309 0
 916 0126 7B68     		ldr	r3, [r7, #4]
 917 0128 1B6A     		ldr	r3, [r3, #32]
 918 012a 002B     		cmp	r3, #0
 919 012c 05D0     		beq	.L54
 310:.\DispenserSink.c ****                             pjob->Callback(pjob->_pdata);
 920              		.loc 1 310 0
 921 012e 7B68     		ldr	r3, [r7, #4]
 922 0130 1B6A     		ldr	r3, [r3, #32]
 923 0132 7A68     		ldr	r2, [r7, #4]
 924 0134 526A     		ldr	r2, [r2, #36]
 925 0136 1046     		mov	r0, r2
 926 0138 9847     		blx	r3
 927              	.L54:
 311:.\DispenserSink.c ****                         
 312:.\DispenserSink.c ****                         _g_pumpjobqueue.Dequeue(&_g_pumpjobqueue);
 928              		.loc 1 312 0
 929 013a 424B     		ldr	r3, .L65
 930 013c D3F85438 		ldr	r3, [r3, #2132]
 931 0140 4048     		ldr	r0, .L65
 932 0142 9847     		blx	r3
 313:.\DispenserSink.c ****                         pjob = NULL;
 933              		.loc 1 313 0
 934 0144 0023     		movs	r3, #0
 935 0146 7B60     		str	r3, [r7, #4]
 936              	.L53:
 314:.\DispenserSink.c ****                     }
 315:.\DispenserSink.c ****                     precondexecuted = true;
 937              		.loc 1 315 0
ARM GAS  C:\Users\RECEPC~1\AppData\Local\Temp\cc14VPUN.s 			page 23


 938 0148 0123     		movs	r3, #1
 939 014a 7B70     		strb	r3, [r7, #1]
 316:.\DispenserSink.c ****                     break;
 940              		.loc 1 316 0
 941 014c 06E0     		b	.L55
 942              	.L46:
 317:.\DispenserSink.c ****                 }
 318:.\DispenserSink.c ****             }else
 319:.\DispenserSink.c ****                 break;
 943              		.loc 1 319 0
 944 014e 05E0     		b	.L55
 945              	.L48:
 274:.\DispenserSink.c ****         {
 946              		.loc 1 274 0 discriminator 2
 947 0150 3B78     		ldrb	r3, [r7]	@ zero_extendqisi2
 948 0152 0133     		adds	r3, r3, #1
 949 0154 3B70     		strb	r3, [r7]
 950              	.L45:
 274:.\DispenserSink.c ****         {
 951              		.loc 1 274 0 is_stmt 0 discriminator 1
 952 0156 3B78     		ldrb	r3, [r7]	@ zero_extendqisi2
 953 0158 032B     		cmp	r3, #3
 954 015a 82D9     		bls	.L56
 955              	.L55:
 320:.\DispenserSink.c ****         }
 321:.\DispenserSink.c ****         if(!preconditions)
 956              		.loc 1 321 0 is_stmt 1
 957 015c BB78     		ldrb	r3, [r7, #2]
 958 015e 83F00103 		eor	r3, r3, #1
 959 0162 DBB2     		uxtb	r3, r3
 960 0164 002B     		cmp	r3, #0
 961 0166 53D0     		beq	.L57
 322:.\DispenserSink.c ****         {
 323:.\DispenserSink.c ****             if(pjob->_prequest->Initialization)
 962              		.loc 1 323 0
 963 0168 7B68     		ldr	r3, [r7, #4]
 964 016a 5B69     		ldr	r3, [r3, #20]
 965 016c DB6A     		ldr	r3, [r3, #44]
 966 016e 002B     		cmp	r3, #0
 967 0170 06D0     		beq	.L58
 324:.\DispenserSink.c ****                 pjob->_prequest->Initialization(pjob->_ppump);                    
 968              		.loc 1 324 0
 969 0172 7B68     		ldr	r3, [r7, #4]
 970 0174 5B69     		ldr	r3, [r3, #20]
 971 0176 DB6A     		ldr	r3, [r3, #44]
 972 0178 7A68     		ldr	r2, [r7, #4]
 973 017a D269     		ldr	r2, [r2, #28]
 974 017c 1046     		mov	r0, r2
 975 017e 9847     		blx	r3
 976              	.L58:
 325:.\DispenserSink.c ****             
 326:.\DispenserSink.c ****             if(pjob->_prequest->Response)
 977              		.loc 1 326 0
 978 0180 7B68     		ldr	r3, [r7, #4]
 979 0182 5B69     		ldr	r3, [r3, #20]
 980 0184 5B68     		ldr	r3, [r3, #4]
 981 0186 002B     		cmp	r3, #0
ARM GAS  C:\Users\RECEPC~1\AppData\Local\Temp\cc14VPUN.s 			page 24


 982 0188 29D0     		beq	.L59
 327:.\DispenserSink.c ****             {
 328:.\DispenserSink.c ****                 _g_respctxt._pparam = pjob->_ppump;
 983              		.loc 1 328 0
 984 018a 7B68     		ldr	r3, [r7, #4]
 985 018c DB69     		ldr	r3, [r3, #28]
 986 018e 2E4A     		ldr	r2, .L65+4
 987 0190 1360     		str	r3, [r2]
 329:.\DispenserSink.c ****                 ///////////////////////////////////////////////////////////////////
 330:.\DispenserSink.c ****                 //This variable holds the expected buffer size for the response
 331:.\DispenserSink.c ****                 if(pjob->_prequest->_responsesize > 0)
 988              		.loc 1 331 0
 989 0192 7B68     		ldr	r3, [r7, #4]
 990 0194 5B69     		ldr	r3, [r3, #20]
 991 0196 1B7E     		ldrb	r3, [r3, #24]	@ zero_extendqisi2
 992 0198 002B     		cmp	r3, #0
 993 019a 06D0     		beq	.L60
 332:.\DispenserSink.c ****                     _g_respctxt._responsesize = pjob->_prequest->_responsesize;
 994              		.loc 1 332 0
 995 019c 7B68     		ldr	r3, [r7, #4]
 996 019e 5B69     		ldr	r3, [r3, #20]
 997 01a0 1B7E     		ldrb	r3, [r3, #24]	@ zero_extendqisi2
 998 01a2 9AB2     		uxth	r2, r3
 999 01a4 284B     		ldr	r3, .L65+4
 1000 01a6 DA80     		strh	r2, [r3, #6]	@ movhi
 1001 01a8 04E0     		b	.L61
 1002              	.L60:
 333:.\DispenserSink.c ****                 else
 334:.\DispenserSink.c ****                     _g_respctxt.ResponseSizeResolver = pjob->_prequest->ResponseSizeResolver;
 1003              		.loc 1 334 0
 1004 01aa 7B68     		ldr	r3, [r7, #4]
 1005 01ac 5B69     		ldr	r3, [r3, #20]
 1006 01ae DB68     		ldr	r3, [r3, #12]
 1007 01b0 254A     		ldr	r2, .L65+4
 1008 01b2 9360     		str	r3, [r2, #8]
 1009              	.L61:
 335:.\DispenserSink.c ****                 ///////////////////////////////////////////////////////////////////
 336:.\DispenserSink.c ****                 pjob->_prequest->Request(pjob->_ppump);
 1010              		.loc 1 336 0
 1011 01b4 7B68     		ldr	r3, [r7, #4]
 1012 01b6 5B69     		ldr	r3, [r3, #20]
 1013 01b8 1B68     		ldr	r3, [r3]
 1014 01ba 7A68     		ldr	r2, [r7, #4]
 1015 01bc D269     		ldr	r2, [r2, #28]
 1016 01be 1046     		mov	r0, r2
 1017 01c0 9847     		blx	r3
 337:.\DispenserSink.c ****                 pjob->_presponse = pjob->_prequest;
 1018              		.loc 1 337 0
 1019 01c2 7B68     		ldr	r3, [r7, #4]
 1020 01c4 5A69     		ldr	r2, [r3, #20]
 1021 01c6 7B68     		ldr	r3, [r7, #4]
 1022 01c8 9A61     		str	r2, [r3, #24]
 338:.\DispenserSink.c ****                 pjob->_prequest = NULL;
 1023              		.loc 1 338 0
 1024 01ca 7B68     		ldr	r3, [r7, #4]
 1025 01cc 0022     		movs	r2, #0
 1026 01ce 5A61     		str	r2, [r3, #20]
ARM GAS  C:\Users\RECEPC~1\AppData\Local\Temp\cc14VPUN.s 			page 25


 339:.\DispenserSink.c **** 
 340:.\DispenserSink.c ****                 //Initialize the reference tick if it has not yet been initialized
 341:.\DispenserSink.c ****                 pjob->_timeoutseed = Timer_DispenserState_ReadCounter();
 1027              		.loc 1 341 0
 1028 01d0 FFF7FEFF 		bl	Timer_DispenserState_ReadCounter
 1029 01d4 0346     		mov	r3, r0
 1030 01d6 1A46     		mov	r2, r3
 1031 01d8 7B68     		ldr	r3, [r7, #4]
 1032 01da 1A82     		strh	r2, [r3, #16]	@ movhi
 1033 01dc 2EE0     		b	.L43
 1034              	.L59:
 342:.\DispenserSink.c ****                 
 343:.\DispenserSink.c ****             }else{//Since no response is required for this request!!
 344:.\DispenserSink.c ****                 pjob->_prequest->Request(pjob->_ppump);
 1035              		.loc 1 344 0
 1036 01de 7B68     		ldr	r3, [r7, #4]
 1037 01e0 5B69     		ldr	r3, [r3, #20]
 1038 01e2 1B68     		ldr	r3, [r3]
 1039 01e4 7A68     		ldr	r2, [r7, #4]
 1040 01e6 D269     		ldr	r2, [r2, #28]
 1041 01e8 1046     		mov	r0, r2
 1042 01ea 9847     		blx	r3
 345:.\DispenserSink.c ****                 if(pjob->Callback)
 1043              		.loc 1 345 0
 1044 01ec 7B68     		ldr	r3, [r7, #4]
 1045 01ee 1B6A     		ldr	r3, [r3, #32]
 1046 01f0 002B     		cmp	r3, #0
 1047 01f2 05D0     		beq	.L63
 346:.\DispenserSink.c ****                     pjob->Callback(pjob->_pdata);
 1048              		.loc 1 346 0
 1049 01f4 7B68     		ldr	r3, [r7, #4]
 1050 01f6 1B6A     		ldr	r3, [r3, #32]
 1051 01f8 7A68     		ldr	r2, [r7, #4]
 1052 01fa 526A     		ldr	r2, [r2, #36]
 1053 01fc 1046     		mov	r0, r2
 1054 01fe 9847     		blx	r3
 1055              	.L63:
 347:.\DispenserSink.c ****                     
 348:.\DispenserSink.c ****                 _g_pumpjobqueue.Dequeue(&_g_pumpjobqueue);
 1056              		.loc 1 348 0
 1057 0200 104B     		ldr	r3, .L65
 1058 0202 D3F85438 		ldr	r3, [r3, #2132]
 1059 0206 0F48     		ldr	r0, .L65
 1060 0208 9847     		blx	r3
 349:.\DispenserSink.c ****                 pjob = NULL;
 1061              		.loc 1 349 0
 1062 020a 0023     		movs	r3, #0
 1063 020c 7B60     		str	r3, [r7, #4]
 1064 020e 15E0     		b	.L43
 1065              	.L57:
 350:.\DispenserSink.c ****             }
 351:.\DispenserSink.c ****         }
 352:.\DispenserSink.c ****         else if(!precondexecuted)
 1066              		.loc 1 352 0
 1067 0210 7B78     		ldrb	r3, [r7, #1]
 1068 0212 83F00103 		eor	r3, r3, #1
 1069 0216 DBB2     		uxtb	r3, r3
ARM GAS  C:\Users\RECEPC~1\AppData\Local\Temp\cc14VPUN.s 			page 26


 1070 0218 002B     		cmp	r3, #0
 1071 021a 0FD0     		beq	.L43
 353:.\DispenserSink.c ****         {
 354:.\DispenserSink.c ****             //If the precondition is marked as "One Shot", it will be evaluated only once
 355:.\DispenserSink.c ****             if(oneshot)
 1072              		.loc 1 355 0
 1073 021c FB78     		ldrb	r3, [r7, #3]	@ zero_extendqisi2
 1074 021e 002B     		cmp	r3, #0
 1075 0220 07D0     		beq	.L64
 356:.\DispenserSink.c ****             {
 357:.\DispenserSink.c ****                 _g_pumpjobqueue.Dequeue(&_g_pumpjobqueue);
 1076              		.loc 1 357 0
 1077 0222 084B     		ldr	r3, .L65
 1078 0224 D3F85438 		ldr	r3, [r3, #2132]
 1079 0228 0648     		ldr	r0, .L65
 1080 022a 9847     		blx	r3
 358:.\DispenserSink.c ****                 pjob = NULL;
 1081              		.loc 1 358 0
 1082 022c 0023     		movs	r3, #0
 1083 022e 7B60     		str	r3, [r7, #4]
 1084 0230 04E0     		b	.L43
 1085              	.L64:
 359:.\DispenserSink.c ****             }
 360:.\DispenserSink.c ****             else
 361:.\DispenserSink.c ****             {
 362:.\DispenserSink.c ****                 //If none of the preconditions are met, then "Re-push" until there is a match
 363:.\DispenserSink.c ****                 //This is pretty useful for the "EOT" state since once the delivery starts, 
 364:.\DispenserSink.c ****                 //the transaction needs to wait for the "EOT" or "IDLE" condition on the pump.
 365:.\DispenserSink.c ****                 _g_pumpjobqueue.Rotate(&_g_pumpjobqueue);
 1086              		.loc 1 365 0
 1087 0232 044B     		ldr	r3, .L65
 1088 0234 D3F84438 		ldr	r3, [r3, #2116]
 1089 0238 0248     		ldr	r0, .L65
 1090 023a 9847     		blx	r3
 1091              	.L43:
 1092              	.LBE4:
 366:.\DispenserSink.c ****             }
 367:.\DispenserSink.c ****         }
 368:.\DispenserSink.c ****     }
 369:.\DispenserSink.c **** }
 1093              		.loc 1 369 0
 1094 023c 0837     		adds	r7, r7, #8
 1095              		.cfi_def_cfa_offset 8
 1096 023e BD46     		mov	sp, r7
 1097              		.cfi_def_cfa_register 13
 1098              		@ sp needed
 1099 0240 80BD     		pop	{r7, pc}
 1100              	.L66:
 1101 0242 00BF     		.align	2
 1102              	.L65:
 1103 0244 00000000 		.word	_g_pumpjobqueue
 1104 0248 00000000 		.word	_g_respctxt
 1105 024c 0C000000 		.word	_g_respctxt+12
 1106              		.cfi_endproc
 1107              	.LFE66:
 1108              		.size	DispenserHandler, .-DispenserHandler
 1109              		.section	.text.DispenserSinkRegistration,"ax",%progbits
ARM GAS  C:\Users\RECEPC~1\AppData\Local\Temp\cc14VPUN.s 			page 27


 1110              		.align	2
 1111              		.global	DispenserSinkRegistration
 1112              		.thumb
 1113              		.thumb_func
 1114              		.type	DispenserSinkRegistration, %function
 1115              	DispenserSinkRegistration:
 1116              	.LFB67:
 370:.\DispenserSink.c **** 
 371:.\DispenserSink.c **** 
 372:.\DispenserSink.c **** void DispenserSinkRegistration()
 373:.\DispenserSink.c **** {
 1117              		.loc 1 373 0
 1118              		.cfi_startproc
 1119              		@ args = 0, pretend = 0, frame = 16
 1120              		@ frame_needed = 1, uses_anonymous_args = 0
 1121 0000 80B5     		push	{r7, lr}
 1122              		.cfi_def_cfa_offset 8
 1123              		.cfi_offset 7, -8
 1124              		.cfi_offset 14, -4
 1125 0002 84B0     		sub	sp, sp, #16
 1126              		.cfi_def_cfa_offset 24
 1127 0004 00AF     		add	r7, sp, #0
 1128              		.cfi_def_cfa_register 7
 374:.\DispenserSink.c ****     InitProtocol();
 1129              		.loc 1 374 0
 1130 0006 FFF7FEFF 		bl	InitProtocol
 375:.\DispenserSink.c ****     
 376:.\DispenserSink.c ****     PSINKSUBSCRIBERPTR psubscriber = AllocateSubscriberSlot();
 1131              		.loc 1 376 0
 1132 000a FFF7FEFF 		bl	AllocateSubscriberSlot
 1133 000e F860     		str	r0, [r7, #12]
 377:.\DispenserSink.c ****     if(psubscriber)
 1134              		.loc 1 377 0
 1135 0010 FB68     		ldr	r3, [r7, #12]
 1136 0012 002B     		cmp	r3, #0
 1137 0014 47D0     		beq	.L68
 1138              	.LBB5:
 378:.\DispenserSink.c ****     {
 379:.\DispenserSink.c ****         uint8 index = 0;
 1139              		.loc 1 379 0
 1140 0016 0023     		movs	r3, #0
 1141 0018 FB72     		strb	r3, [r7, #11]
 380:.\DispenserSink.c ****         //The maximum number of observable identifiers is _OBSERVED_IDENTIFIERS_
 381:.\DispenserSink.c ****         //located in the header file "SinkManager.h"
 382:.\DispenserSink.c ****         //Every identifier is paired with its respective Callback method pointer
 383:.\DispenserSink.c ****         
 384:.\DispenserSink.c ****         psubscriber->_arrmsgid[index] = DISPLAY1_MESSAGE;
 1142              		.loc 1 384 0
 1143 001a FB7A     		ldrb	r3, [r7, #11]	@ zero_extendqisi2
 1144 001c FA68     		ldr	r2, [r7, #12]
 1145 001e 1344     		add	r3, r3, r2
 1146 0020 2022     		movs	r2, #32
 1147 0022 5A70     		strb	r2, [r3, #1]
 385:.\DispenserSink.c ****         psubscriber->Callback[index++] = DispenserSide1Listener;
 1148              		.loc 1 385 0
 1149 0024 FB7A     		ldrb	r3, [r7, #11]	@ zero_extendqisi2
 1150 0026 5A1C     		adds	r2, r3, #1
ARM GAS  C:\Users\RECEPC~1\AppData\Local\Temp\cc14VPUN.s 			page 28


 1151 0028 FA72     		strb	r2, [r7, #11]
 1152 002a FA68     		ldr	r2, [r7, #12]
 1153 002c 0233     		adds	r3, r3, #2
 1154 002e 9B00     		lsls	r3, r3, #2
 1155 0030 1344     		add	r3, r3, r2
 1156 0032 924A     		ldr	r2, .L75
 1157 0034 5A60     		str	r2, [r3, #4]
 386:.\DispenserSink.c **** 
 387:.\DispenserSink.c ****         psubscriber->_arrmsgid[index] = DISPLAY2_MESSAGE;
 1158              		.loc 1 387 0
 1159 0036 FB7A     		ldrb	r3, [r7, #11]	@ zero_extendqisi2
 1160 0038 FA68     		ldr	r2, [r7, #12]
 1161 003a 1344     		add	r3, r3, r2
 1162 003c 2422     		movs	r2, #36
 1163 003e 5A70     		strb	r2, [r3, #1]
 388:.\DispenserSink.c ****         psubscriber->Callback[index++] = DispenserSide2Listener;
 1164              		.loc 1 388 0
 1165 0040 FB7A     		ldrb	r3, [r7, #11]	@ zero_extendqisi2
 1166 0042 5A1C     		adds	r2, r3, #1
 1167 0044 FA72     		strb	r2, [r7, #11]
 1168 0046 FA68     		ldr	r2, [r7, #12]
 1169 0048 0233     		adds	r3, r3, #2
 1170 004a 9B00     		lsls	r3, r3, #2
 1171 004c 1344     		add	r3, r3, r2
 1172 004e 8C4A     		ldr	r2, .L75+4
 1173 0050 5A60     		str	r2, [r3, #4]
 389:.\DispenserSink.c **** 
 390:.\DispenserSink.c ****         psubscriber->_arrmsgid[index] = DISPENSER_UPDATE_PUMP_TRANSACTION_TIMEOUTS;
 1174              		.loc 1 390 0
 1175 0052 FB7A     		ldrb	r3, [r7, #11]	@ zero_extendqisi2
 1176 0054 FA68     		ldr	r2, [r7, #12]
 1177 0056 1344     		add	r3, r3, r2
 1178 0058 0722     		movs	r2, #7
 1179 005a 5A70     		strb	r2, [r3, #1]
 391:.\DispenserSink.c ****         psubscriber->Callback[index++] = DispenserUpdateTimeouts;
 1180              		.loc 1 391 0
 1181 005c FB7A     		ldrb	r3, [r7, #11]	@ zero_extendqisi2
 1182 005e 5A1C     		adds	r2, r3, #1
 1183 0060 FA72     		strb	r2, [r7, #11]
 1184 0062 FA68     		ldr	r2, [r7, #12]
 1185 0064 0233     		adds	r3, r3, #2
 1186 0066 9B00     		lsls	r3, r3, #2
 1187 0068 1344     		add	r3, r3, r2
 1188 006a 864A     		ldr	r2, .L75+8
 1189 006c 5A60     		str	r2, [r3, #4]
 392:.\DispenserSink.c **** 
 393:.\DispenserSink.c ****         psubscriber->_arrmsgid[index] = DISPENSER_ACQUIRE_PUMP_STATE;
 1190              		.loc 1 393 0
 1191 006e FB7A     		ldrb	r3, [r7, #11]	@ zero_extendqisi2
 1192 0070 FA68     		ldr	r2, [r7, #12]
 1193 0072 1344     		add	r3, r3, r2
 1194 0074 0822     		movs	r2, #8
 1195 0076 5A70     		strb	r2, [r3, #1]
 394:.\DispenserSink.c ****         psubscriber->Callback[index++] = DispenserUpdatePumpState;
 1196              		.loc 1 394 0
 1197 0078 FB7A     		ldrb	r3, [r7, #11]	@ zero_extendqisi2
 1198 007a 5A1C     		adds	r2, r3, #1
ARM GAS  C:\Users\RECEPC~1\AppData\Local\Temp\cc14VPUN.s 			page 29


 1199 007c FA72     		strb	r2, [r7, #11]
 1200 007e FA68     		ldr	r2, [r7, #12]
 1201 0080 0233     		adds	r3, r3, #2
 1202 0082 9B00     		lsls	r3, r3, #2
 1203 0084 1344     		add	r3, r3, r2
 1204 0086 804A     		ldr	r2, .L75+12
 1205 0088 5A60     		str	r2, [r3, #4]
 395:.\DispenserSink.c **** 
 396:.\DispenserSink.c ****         psubscriber->_arrmsgid[index] = DISPENSER_LOAD_EEPROM_SETTINGS;
 1206              		.loc 1 396 0
 1207 008a FB7A     		ldrb	r3, [r7, #11]	@ zero_extendqisi2
 1208 008c FA68     		ldr	r2, [r7, #12]
 1209 008e 1344     		add	r3, r3, r2
 1210 0090 0D22     		movs	r2, #13
 1211 0092 5A70     		strb	r2, [r3, #1]
 397:.\DispenserSink.c ****         psubscriber->Callback[index++] = DispenserLoadEEPROMSettings;
 1212              		.loc 1 397 0
 1213 0094 FB7A     		ldrb	r3, [r7, #11]	@ zero_extendqisi2
 1214 0096 5A1C     		adds	r2, r3, #1
 1215 0098 FA72     		strb	r2, [r7, #11]
 1216 009a FA68     		ldr	r2, [r7, #12]
 1217 009c 0233     		adds	r3, r3, #2
 1218 009e 9B00     		lsls	r3, r3, #2
 1219 00a0 1344     		add	r3, r3, r2
 1220 00a2 7A4A     		ldr	r2, .L75+16
 1221 00a4 5A60     		str	r2, [r3, #4]
 1222              	.L68:
 1223              	.LBE5:
 398:.\DispenserSink.c **** 
 399:.\DispenserSink.c ****         #ifdef PRIME_PROTOCOL
 400:.\DispenserSink.c ****         psubscriber->_arrmsgid[index] = DISPENSER_ACQUIRE_PUMP_HOSE;
 401:.\DispenserSink.c ****         psubscriber->Callback[index++] = DispenserHoseActiveState;
 402:.\DispenserSink.c **** 
 403:.\DispenserSink.c ****         psubscriber->_arrmsgid[index] = DISPENSER_EXECUTE_CASH_TRANSACTION;
 404:.\DispenserSink.c ****         psubscriber->Callback[index++] = DispenserExecuteCashTransaction;
 405:.\DispenserSink.c **** 
 406:.\DispenserSink.c ****         psubscriber->_arrmsgid[index] = DISPENSER_EXECUTE_CREDIT_TRANSACTION;
 407:.\DispenserSink.c ****         psubscriber->Callback[index++] = DispenserExecuteCreditTransaction;
 408:.\DispenserSink.c ****         #endif
 409:.\DispenserSink.c ****         
 410:.\DispenserSink.c ****     }
 411:.\DispenserSink.c **** 
 412:.\DispenserSink.c ****     psubscriber = AllocateSubscriberSlot();
 1224              		.loc 1 412 0
 1225 00a6 FFF7FEFF 		bl	AllocateSubscriberSlot
 1226 00aa F860     		str	r0, [r7, #12]
 413:.\DispenserSink.c ****     if(psubscriber)
 1227              		.loc 1 413 0
 1228 00ac FB68     		ldr	r3, [r7, #12]
 1229 00ae 002B     		cmp	r3, #0
 1230 00b0 71D0     		beq	.L69
 1231              	.LBB6:
 414:.\DispenserSink.c ****     {
 415:.\DispenserSink.c ****         uint8 index = 0;
 1232              		.loc 1 415 0
 1233 00b2 0023     		movs	r3, #0
 1234 00b4 BB72     		strb	r3, [r7, #10]
ARM GAS  C:\Users\RECEPC~1\AppData\Local\Temp\cc14VPUN.s 			page 30


 416:.\DispenserSink.c ****         
 417:.\DispenserSink.c ****         psubscriber->_arrmsgid[index] = DISPENSER_ENUMERATE_VISIBLE_PUMPS;
 1235              		.loc 1 417 0
 1236 00b6 BB7A     		ldrb	r3, [r7, #10]	@ zero_extendqisi2
 1237 00b8 FA68     		ldr	r2, [r7, #12]
 1238 00ba 1344     		add	r3, r3, r2
 1239 00bc 0E22     		movs	r2, #14
 1240 00be 5A70     		strb	r2, [r3, #1]
 418:.\DispenserSink.c ****         psubscriber->Callback[index++] = DispenserEnumeratePumps;
 1241              		.loc 1 418 0
 1242 00c0 BB7A     		ldrb	r3, [r7, #10]	@ zero_extendqisi2
 1243 00c2 5A1C     		adds	r2, r3, #1
 1244 00c4 BA72     		strb	r2, [r7, #10]
 1245 00c6 FA68     		ldr	r2, [r7, #12]
 1246 00c8 0233     		adds	r3, r3, #2
 1247 00ca 9B00     		lsls	r3, r3, #2
 1248 00cc 1344     		add	r3, r3, r2
 1249 00ce 704A     		ldr	r2, .L75+20
 1250 00d0 5A60     		str	r2, [r3, #4]
 419:.\DispenserSink.c ****         
 420:.\DispenserSink.c ****         psubscriber->_arrmsgid[index] = DISPENSER_ACQUIRE_CONFIGURATION_INFORMATION;
 1251              		.loc 1 420 0
 1252 00d2 BB7A     		ldrb	r3, [r7, #10]	@ zero_extendqisi2
 1253 00d4 FA68     		ldr	r2, [r7, #12]
 1254 00d6 1344     		add	r3, r3, r2
 1255 00d8 0F22     		movs	r2, #15
 1256 00da 5A70     		strb	r2, [r3, #1]
 421:.\DispenserSink.c ****         psubscriber->Callback[index++] = DispenserAcquireConfiguration;
 1257              		.loc 1 421 0
 1258 00dc BB7A     		ldrb	r3, [r7, #10]	@ zero_extendqisi2
 1259 00de 5A1C     		adds	r2, r3, #1
 1260 00e0 BA72     		strb	r2, [r7, #10]
 1261 00e2 FA68     		ldr	r2, [r7, #12]
 1262 00e4 0233     		adds	r3, r3, #2
 1263 00e6 9B00     		lsls	r3, r3, #2
 1264 00e8 1344     		add	r3, r3, r2
 1265 00ea 6A4A     		ldr	r2, .L75+24
 1266 00ec 5A60     		str	r2, [r3, #4]
 422:.\DispenserSink.c ****         
 423:.\DispenserSink.c ****         psubscriber->_arrmsgid[index] = DISPENSER_CONFIGURE_PRICES;
 1267              		.loc 1 423 0
 1268 00ee BB7A     		ldrb	r3, [r7, #10]	@ zero_extendqisi2
 1269 00f0 FA68     		ldr	r2, [r7, #12]
 1270 00f2 1344     		add	r3, r3, r2
 1271 00f4 1022     		movs	r2, #16
 1272 00f6 5A70     		strb	r2, [r3, #1]
 424:.\DispenserSink.c ****         psubscriber->Callback[index++] = DispenserConfigurePrices;
 1273              		.loc 1 424 0
 1274 00f8 BB7A     		ldrb	r3, [r7, #10]	@ zero_extendqisi2
 1275 00fa 5A1C     		adds	r2, r3, #1
 1276 00fc BA72     		strb	r2, [r7, #10]
 1277 00fe FA68     		ldr	r2, [r7, #12]
 1278 0100 0233     		adds	r3, r3, #2
 1279 0102 9B00     		lsls	r3, r3, #2
 1280 0104 1344     		add	r3, r3, r2
 1281 0106 644A     		ldr	r2, .L75+28
 1282 0108 5A60     		str	r2, [r3, #4]
ARM GAS  C:\Users\RECEPC~1\AppData\Local\Temp\cc14VPUN.s 			page 31


 425:.\DispenserSink.c ****         
 426:.\DispenserSink.c ****         psubscriber->_arrmsgid[index] = DISPENSER_CONFIGURE_SINGLE_PRICE;
 1283              		.loc 1 426 0
 1284 010a BB7A     		ldrb	r3, [r7, #10]	@ zero_extendqisi2
 1285 010c FA68     		ldr	r2, [r7, #12]
 1286 010e 1344     		add	r3, r3, r2
 1287 0110 1222     		movs	r2, #18
 1288 0112 5A70     		strb	r2, [r3, #1]
 427:.\DispenserSink.c ****         psubscriber->Callback[index++] = DispenserConfigureSinglePrice;
 1289              		.loc 1 427 0
 1290 0114 BB7A     		ldrb	r3, [r7, #10]	@ zero_extendqisi2
 1291 0116 5A1C     		adds	r2, r3, #1
 1292 0118 BA72     		strb	r2, [r7, #10]
 1293 011a FA68     		ldr	r2, [r7, #12]
 1294 011c 0233     		adds	r3, r3, #2
 1295 011e 9B00     		lsls	r3, r3, #2
 1296 0120 1344     		add	r3, r3, r2
 1297 0122 5E4A     		ldr	r2, .L75+32
 1298 0124 5A60     		str	r2, [r3, #4]
 428:.\DispenserSink.c ****         
 429:.\DispenserSink.c ****         psubscriber->_arrmsgid[index] = DISPENSER_ACQUIRE_TOTALS;
 1299              		.loc 1 429 0
 1300 0126 BB7A     		ldrb	r3, [r7, #10]	@ zero_extendqisi2
 1301 0128 FA68     		ldr	r2, [r7, #12]
 1302 012a 1344     		add	r3, r3, r2
 1303 012c 1322     		movs	r2, #19
 1304 012e 5A70     		strb	r2, [r3, #1]
 430:.\DispenserSink.c ****         psubscriber->Callback[index++] = DispenserAcquireTotals;
 1305              		.loc 1 430 0
 1306 0130 BB7A     		ldrb	r3, [r7, #10]	@ zero_extendqisi2
 1307 0132 5A1C     		adds	r2, r3, #1
 1308 0134 BA72     		strb	r2, [r7, #10]
 1309 0136 FA68     		ldr	r2, [r7, #12]
 1310 0138 0233     		adds	r3, r3, #2
 1311 013a 9B00     		lsls	r3, r3, #2
 1312 013c 1344     		add	r3, r3, r2
 1313 013e 584A     		ldr	r2, .L75+36
 1314 0140 5A60     		str	r2, [r3, #4]
 431:.\DispenserSink.c **** 
 432:.\DispenserSink.c ****         psubscriber->_arrmsgid[index] = DISPENSER_RESTORE_PRICES;
 1315              		.loc 1 432 0
 1316 0142 BB7A     		ldrb	r3, [r7, #10]	@ zero_extendqisi2
 1317 0144 FA68     		ldr	r2, [r7, #12]
 1318 0146 1344     		add	r3, r3, r2
 1319 0148 1122     		movs	r2, #17
 1320 014a 5A70     		strb	r2, [r3, #1]
 433:.\DispenserSink.c ****         psubscriber->Callback[index++] = DispenserRestorePrices;
 1321              		.loc 1 433 0
 1322 014c BB7A     		ldrb	r3, [r7, #10]	@ zero_extendqisi2
 1323 014e 5A1C     		adds	r2, r3, #1
 1324 0150 BA72     		strb	r2, [r7, #10]
 1325 0152 FA68     		ldr	r2, [r7, #12]
 1326 0154 0233     		adds	r3, r3, #2
 1327 0156 9B00     		lsls	r3, r3, #2
 1328 0158 1344     		add	r3, r3, r2
 1329 015a 524A     		ldr	r2, .L75+40
 1330 015c 5A60     		str	r2, [r3, #4]
ARM GAS  C:\Users\RECEPC~1\AppData\Local\Temp\cc14VPUN.s 			page 32


 434:.\DispenserSink.c ****         
 435:.\DispenserSink.c ****         psubscriber->_arrmsgid[index] = DISPENSER_PUMP_HANDLER;
 1331              		.loc 1 435 0
 1332 015e BB7A     		ldrb	r3, [r7, #10]	@ zero_extendqisi2
 1333 0160 FA68     		ldr	r2, [r7, #12]
 1334 0162 1344     		add	r3, r3, r2
 1335 0164 1422     		movs	r2, #20
 1336 0166 5A70     		strb	r2, [r3, #1]
 436:.\DispenserSink.c ****         psubscriber->Callback[index++] = DispenserHandler;
 1337              		.loc 1 436 0
 1338 0168 BB7A     		ldrb	r3, [r7, #10]	@ zero_extendqisi2
 1339 016a 5A1C     		adds	r2, r3, #1
 1340 016c BA72     		strb	r2, [r7, #10]
 1341 016e FA68     		ldr	r2, [r7, #12]
 1342 0170 0233     		adds	r3, r3, #2
 1343 0172 9B00     		lsls	r3, r3, #2
 1344 0174 1344     		add	r3, r3, r2
 1345 0176 4C4A     		ldr	r2, .L75+44
 1346 0178 5A60     		str	r2, [r3, #4]
 437:.\DispenserSink.c **** 
 438:.\DispenserSink.c ****         psubscriber->_arrmsgid[index] = DISPENSER_PUMP_BEEP_WARNING;
 1347              		.loc 1 438 0
 1348 017a BB7A     		ldrb	r3, [r7, #10]	@ zero_extendqisi2
 1349 017c FA68     		ldr	r2, [r7, #12]
 1350 017e 1344     		add	r3, r3, r2
 1351 0180 1522     		movs	r2, #21
 1352 0182 5A70     		strb	r2, [r3, #1]
 439:.\DispenserSink.c ****         psubscriber->Callback[index++] = DispenserBeepWarning;
 1353              		.loc 1 439 0
 1354 0184 BB7A     		ldrb	r3, [r7, #10]	@ zero_extendqisi2
 1355 0186 5A1C     		adds	r2, r3, #1
 1356 0188 BA72     		strb	r2, [r7, #10]
 1357 018a FA68     		ldr	r2, [r7, #12]
 1358 018c 0233     		adds	r3, r3, #2
 1359 018e 9B00     		lsls	r3, r3, #2
 1360 0190 1344     		add	r3, r3, r2
 1361 0192 464A     		ldr	r2, .L75+48
 1362 0194 5A60     		str	r2, [r3, #4]
 1363              	.L69:
 1364              	.LBE6:
 440:.\DispenserSink.c ****     }    
 441:.\DispenserSink.c ****     //This perpetual call is in charge of updating the global pump state array
 442:.\DispenserSink.c ****     //so the different modules could inquiry on those states
 443:.\DispenserSink.c ****     //This one-shot call is in charge of loading the current dispenser configuration regarding
 444:.\DispenserSink.c ****     //money, volume and ppu decimal formats, pump layout, pump model, display type, volume unit etc
 445:.\DispenserSink.c **** 
 446:.\DispenserSink.c ****     #ifdef FAST_STARTUP
 447:.\DispenserSink.c ****     _ALLOCATE_SINKMESSAGE_SLOT(psinkmsg);
 448:.\DispenserSink.c ****     if(psinkmsg)
 449:.\DispenserSink.c ****     {
 450:.\DispenserSink.c ****         psinkmsg->_messageid = DISPENSER_ENUMERATE_VISIBLE_PUMPS;
 451:.\DispenserSink.c ****         psinkmsg->_messagedelay = _SINK_TIMEOUT_10S_;
 452:.\DispenserSink.c ****         psinkmsg->_messagetype = DELAYEDALLINTERESTED;
 453:.\DispenserSink.c ****         psinkmsg->_messagestate = SINK_BUSY;
 454:.\DispenserSink.c ****     }    
 455:.\DispenserSink.c ****     _REALLOCATE_SINKMESSAGE_SLOT(psinkmsg);
 456:.\DispenserSink.c ****     if(psinkmsg)
ARM GAS  C:\Users\RECEPC~1\AppData\Local\Temp\cc14VPUN.s 			page 33


 457:.\DispenserSink.c ****     {
 458:.\DispenserSink.c ****         psinkmsg->_messageid = DISPENSER_ACQUIRE_CONFIGURATION_INFORMATION;
 459:.\DispenserSink.c ****         psinkmsg->_messagedelay = _SINK_TIMEOUT_15S_;
 460:.\DispenserSink.c ****         psinkmsg->_messagetype = DELAYEDALLINTERESTED;
 461:.\DispenserSink.c ****         psinkmsg->_messagestate = SINK_BUSY;
 462:.\DispenserSink.c ****     }
 463:.\DispenserSink.c ****     _REALLOCATE_SINKMESSAGE_SLOT(psinkmsg);
 464:.\DispenserSink.c ****     if(psinkmsg)
 465:.\DispenserSink.c ****     {
 466:.\DispenserSink.c ****         psinkmsg->_messageid = WATCHDOG_STARTUP;
 467:.\DispenserSink.c ****         psinkmsg->_messagedelay = _SINK_TIMEOUT_20S_;
 468:.\DispenserSink.c ****         psinkmsg->_messagetype = DELAYEDALLINTERESTED;
 469:.\DispenserSink.c ****         psinkmsg->_messagestate = SINK_BUSY;
 470:.\DispenserSink.c ****     }
 471:.\DispenserSink.c ****     _REALLOCATE_SINKMESSAGE_SLOT(psinkmsg);
 472:.\DispenserSink.c ****     if(psinkmsg)
 473:.\DispenserSink.c ****     {
 474:.\DispenserSink.c ****         psinkmsg->_messageid = DISPENSER_ACQUIRE_PUMP_STATE;
 475:.\DispenserSink.c ****         psinkmsg->_messagedelay = _SINK_TIMEOUT_20S_;
 476:.\DispenserSink.c ****         #ifndef ADVANTAGE_PROTOCOL
 477:.\DispenserSink.c ****         psinkmsg->_messagetimeoutlimit = _SINK_TIMEOUT_250MS_;
 478:.\DispenserSink.c ****         #endif
 479:.\DispenserSink.c ****         #ifdef ADVANTAGE_PROTOCOL
 480:.\DispenserSink.c ****         psinkmsg->_messagetimeoutlimit = _SINK_TIMEOUT_500MS_;
 481:.\DispenserSink.c ****         #endif
 482:.\DispenserSink.c ****         psinkmsg->_messagetype = FIRSTFOUNDFOREVER;
 483:.\DispenserSink.c ****         psinkmsg->_messagestate = SINK_BUSY;
 484:.\DispenserSink.c ****     }
 485:.\DispenserSink.c ****     #endif
 486:.\DispenserSink.c ****     #ifdef SLOW_STARTUP
 487:.\DispenserSink.c ****     _ALLOCATE_SINKMESSAGE_SLOT(psinkmsg);
 1365              		.loc 1 487 0
 1366 0196 FFF7FEFF 		bl	AllocateMessageSlot
 1367 019a 7860     		str	r0, [r7, #4]
 488:.\DispenserSink.c ****     if(psinkmsg)
 1368              		.loc 1 488 0
 1369 019c 7B68     		ldr	r3, [r7, #4]
 1370 019e 002B     		cmp	r3, #0
 1371 01a0 0CD0     		beq	.L70
 489:.\DispenserSink.c ****     {
 490:.\DispenserSink.c ****         psinkmsg->_messageid = DISPENSER_ENUMERATE_VISIBLE_PUMPS;
 1372              		.loc 1 490 0
 1373 01a2 7B68     		ldr	r3, [r7, #4]
 1374 01a4 0E22     		movs	r2, #14
 1375 01a6 5A70     		strb	r2, [r3, #1]
 491:.\DispenserSink.c ****         psinkmsg->_messagedelay = _SINK_TIMEOUT_40S_;
 1376              		.loc 1 491 0
 1377 01a8 7B68     		ldr	r3, [r7, #4]
 1378 01aa 49F64042 		movw	r2, #40000
 1379 01ae 9A80     		strh	r2, [r3, #4]	@ movhi
 492:.\DispenserSink.c ****         psinkmsg->_messagetype = DELAYEDALLINTERESTED;
 1380              		.loc 1 492 0
 1381 01b0 7B68     		ldr	r3, [r7, #4]
 1382 01b2 0522     		movs	r2, #5
 1383 01b4 9A70     		strb	r2, [r3, #2]
 493:.\DispenserSink.c ****         psinkmsg->_messagestate = SINK_BUSY;
 1384              		.loc 1 493 0
ARM GAS  C:\Users\RECEPC~1\AppData\Local\Temp\cc14VPUN.s 			page 34


 1385 01b6 7B68     		ldr	r3, [r7, #4]
 1386 01b8 0322     		movs	r2, #3
 1387 01ba DA70     		strb	r2, [r3, #3]
 1388              	.L70:
 494:.\DispenserSink.c ****     }
 495:.\DispenserSink.c ****     
 496:.\DispenserSink.c ****     _REALLOCATE_SINKMESSAGE_SLOT(psinkmsg);
 1389              		.loc 1 496 0
 1390 01bc FFF7FEFF 		bl	AllocateMessageSlot
 1391 01c0 7860     		str	r0, [r7, #4]
 497:.\DispenserSink.c ****     if(psinkmsg)
 1392              		.loc 1 497 0
 1393 01c2 7B68     		ldr	r3, [r7, #4]
 1394 01c4 002B     		cmp	r3, #0
 1395 01c6 0CD0     		beq	.L71
 498:.\DispenserSink.c ****     {
 499:.\DispenserSink.c ****         psinkmsg->_messageid = DISPENSER_ACQUIRE_CONFIGURATION_INFORMATION;
 1396              		.loc 1 499 0
 1397 01c8 7B68     		ldr	r3, [r7, #4]
 1398 01ca 0F22     		movs	r2, #15
 1399 01cc 5A70     		strb	r2, [r3, #1]
 500:.\DispenserSink.c ****         psinkmsg->_messagedelay = _SINK_TIMEOUT_45S_;
 1400              		.loc 1 500 0
 1401 01ce 7B68     		ldr	r3, [r7, #4]
 1402 01d0 4AF6C872 		movw	r2, #45000
 1403 01d4 9A80     		strh	r2, [r3, #4]	@ movhi
 501:.\DispenserSink.c ****         psinkmsg->_messagetype = DELAYEDALLINTERESTED;
 1404              		.loc 1 501 0
 1405 01d6 7B68     		ldr	r3, [r7, #4]
 1406 01d8 0522     		movs	r2, #5
 1407 01da 9A70     		strb	r2, [r3, #2]
 502:.\DispenserSink.c ****         psinkmsg->_messagestate = SINK_BUSY;
 1408              		.loc 1 502 0
 1409 01dc 7B68     		ldr	r3, [r7, #4]
 1410 01de 0322     		movs	r2, #3
 1411 01e0 DA70     		strb	r2, [r3, #3]
 1412              	.L71:
 503:.\DispenserSink.c ****     }
 504:.\DispenserSink.c ****     _REALLOCATE_SINKMESSAGE_SLOT(psinkmsg);
 1413              		.loc 1 504 0
 1414 01e2 FFF7FEFF 		bl	AllocateMessageSlot
 1415 01e6 7860     		str	r0, [r7, #4]
 505:.\DispenserSink.c ****     if(psinkmsg)
 1416              		.loc 1 505 0
 1417 01e8 7B68     		ldr	r3, [r7, #4]
 1418 01ea 002B     		cmp	r3, #0
 1419 01ec 0CD0     		beq	.L72
 506:.\DispenserSink.c ****     {
 507:.\DispenserSink.c ****         psinkmsg->_messageid = WATCHDOG_STARTUP;
 1420              		.loc 1 507 0
 1421 01ee 7B68     		ldr	r3, [r7, #4]
 1422 01f0 2B22     		movs	r2, #43
 1423 01f2 5A70     		strb	r2, [r3, #1]
 508:.\DispenserSink.c ****         psinkmsg->_messagedelay = _SINK_TIMEOUT_50S_;
 1424              		.loc 1 508 0
 1425 01f4 7B68     		ldr	r3, [r7, #4]
 1426 01f6 4CF25032 		movw	r2, #50000
ARM GAS  C:\Users\RECEPC~1\AppData\Local\Temp\cc14VPUN.s 			page 35


 1427 01fa 9A80     		strh	r2, [r3, #4]	@ movhi
 509:.\DispenserSink.c ****         psinkmsg->_messagetype = DELAYEDALLINTERESTED;
 1428              		.loc 1 509 0
 1429 01fc 7B68     		ldr	r3, [r7, #4]
 1430 01fe 0522     		movs	r2, #5
 1431 0200 9A70     		strb	r2, [r3, #2]
 510:.\DispenserSink.c ****         psinkmsg->_messagestate = SINK_BUSY;
 1432              		.loc 1 510 0
 1433 0202 7B68     		ldr	r3, [r7, #4]
 1434 0204 0322     		movs	r2, #3
 1435 0206 DA70     		strb	r2, [r3, #3]
 1436              	.L72:
 511:.\DispenserSink.c ****     }
 512:.\DispenserSink.c ****     _REALLOCATE_SINKMESSAGE_SLOT(psinkmsg);
 1437              		.loc 1 512 0
 1438 0208 FFF7FEFF 		bl	AllocateMessageSlot
 1439 020c 7860     		str	r0, [r7, #4]
 513:.\DispenserSink.c ****     if(psinkmsg)
 1440              		.loc 1 513 0
 1441 020e 7B68     		ldr	r3, [r7, #4]
 1442 0210 002B     		cmp	r3, #0
 1443 0212 0FD0     		beq	.L73
 514:.\DispenserSink.c ****     {
 515:.\DispenserSink.c ****         psinkmsg->_messageid = DISPENSER_ACQUIRE_PUMP_STATE;
 1444              		.loc 1 515 0
 1445 0214 7B68     		ldr	r3, [r7, #4]
 1446 0216 0822     		movs	r2, #8
 1447 0218 5A70     		strb	r2, [r3, #1]
 516:.\DispenserSink.c ****         psinkmsg->_messagedelay = _SINK_TIMEOUT_50S_;
 1448              		.loc 1 516 0
 1449 021a 7B68     		ldr	r3, [r7, #4]
 1450 021c 4CF25032 		movw	r2, #50000
 1451 0220 9A80     		strh	r2, [r3, #4]	@ movhi
 517:.\DispenserSink.c ****         psinkmsg->_messagetimeoutlimit = _SINK_TIMEOUT_250MS_;
 1452              		.loc 1 517 0
 1453 0222 7B68     		ldr	r3, [r7, #4]
 1454 0224 FA22     		movs	r2, #250
 1455 0226 5A81     		strh	r2, [r3, #10]	@ movhi
 518:.\DispenserSink.c ****         psinkmsg->_messagetype = FIRSTFOUNDFOREVER;
 1456              		.loc 1 518 0
 1457 0228 7B68     		ldr	r3, [r7, #4]
 1458 022a 0622     		movs	r2, #6
 1459 022c 9A70     		strb	r2, [r3, #2]
 519:.\DispenserSink.c ****         psinkmsg->_messagestate = SINK_BUSY;
 1460              		.loc 1 519 0
 1461 022e 7B68     		ldr	r3, [r7, #4]
 1462 0230 0322     		movs	r2, #3
 1463 0232 DA70     		strb	r2, [r3, #3]
 1464              	.L73:
 520:.\DispenserSink.c ****     }
 521:.\DispenserSink.c ****     #endif
 522:.\DispenserSink.c **** 
 523:.\DispenserSink.c ****     _REALLOCATE_SINKMESSAGE_SLOT(psinkmsg);
 1465              		.loc 1 523 0
 1466 0234 FFF7FEFF 		bl	AllocateMessageSlot
 1467 0238 7860     		str	r0, [r7, #4]
 524:.\DispenserSink.c ****     if(psinkmsg)
ARM GAS  C:\Users\RECEPC~1\AppData\Local\Temp\cc14VPUN.s 			page 36


 1468              		.loc 1 524 0
 1469 023a 7B68     		ldr	r3, [r7, #4]
 1470 023c 002B     		cmp	r3, #0
 1471 023e 0ED0     		beq	.L74
 525:.\DispenserSink.c ****     {
 526:.\DispenserSink.c ****         psinkmsg->_messageid = DISPENSER_PUMP_HANDLER;
 1472              		.loc 1 526 0
 1473 0240 7B68     		ldr	r3, [r7, #4]
 1474 0242 1422     		movs	r2, #20
 1475 0244 5A70     		strb	r2, [r3, #1]
 527:.\DispenserSink.c ****         psinkmsg->_messagedelay = 0x0000;
 1476              		.loc 1 527 0
 1477 0246 7B68     		ldr	r3, [r7, #4]
 1478 0248 0022     		movs	r2, #0
 1479 024a 9A80     		strh	r2, [r3, #4]	@ movhi
 528:.\DispenserSink.c ****         #ifndef ADVANTAGE_PROTOCOL
 529:.\DispenserSink.c ****         psinkmsg->_messagetimeoutlimit = _SINK_TIMEOUT_20MS_;
 1480              		.loc 1 529 0
 1481 024c 7B68     		ldr	r3, [r7, #4]
 1482 024e 1422     		movs	r2, #20
 1483 0250 5A81     		strh	r2, [r3, #10]	@ movhi
 530:.\DispenserSink.c ****         #endif
 531:.\DispenserSink.c ****         #ifdef ADVANTAGE_PROTOCOL
 532:.\DispenserSink.c ****         psinkmsg->_messagetimeoutlimit = _SINK_TIMEOUT_30MS_;
 533:.\DispenserSink.c ****         #endif
 534:.\DispenserSink.c ****         psinkmsg->_messagetype = FIRSTFOUNDFOREVER;
 1484              		.loc 1 534 0
 1485 0252 7B68     		ldr	r3, [r7, #4]
 1486 0254 0622     		movs	r2, #6
 1487 0256 9A70     		strb	r2, [r3, #2]
 535:.\DispenserSink.c ****         psinkmsg->_messagestate = SINK_BUSY;
 1488              		.loc 1 535 0
 1489 0258 7B68     		ldr	r3, [r7, #4]
 1490 025a 0322     		movs	r2, #3
 1491 025c DA70     		strb	r2, [r3, #3]
 1492              	.L74:
 536:.\DispenserSink.c ****     }
 537:.\DispenserSink.c ****             
 538:.\DispenserSink.c ****     _g_dispenserupdatetimeout = Timer_DispenserState_ReadCounter();
 1493              		.loc 1 538 0
 1494 025e FFF7FEFF 		bl	Timer_DispenserState_ReadCounter
 1495 0262 0346     		mov	r3, r0
 1496 0264 1A46     		mov	r2, r3
 1497 0266 124B     		ldr	r3, .L75+52
 1498 0268 1A80     		strh	r2, [r3]	@ movhi
 539:.\DispenserSink.c ****     
 540:.\DispenserSink.c ****     GLOBAL_LOOP_PUSH(DispenserTimeoutHandler);
 1499              		.loc 1 540 0
 1500 026a 1248     		ldr	r0, .L75+56
 1501 026c FFF7FEFF 		bl	loop_push
 541:.\DispenserSink.c ****     GLOBAL_LOOP_PUSH(DispenserDataReceptionHandler);
 1502              		.loc 1 541 0
 1503 0270 1148     		ldr	r0, .L75+60
 1504 0272 FFF7FEFF 		bl	loop_push
 542:.\DispenserSink.c **** }
 1505              		.loc 1 542 0
 1506 0276 1037     		adds	r7, r7, #16
ARM GAS  C:\Users\RECEPC~1\AppData\Local\Temp\cc14VPUN.s 			page 37


 1507              		.cfi_def_cfa_offset 8
 1508 0278 BD46     		mov	sp, r7
 1509              		.cfi_def_cfa_register 13
 1510              		@ sp needed
 1511 027a 80BD     		pop	{r7, pc}
 1512              	.L76:
 1513              		.align	2
 1514              	.L75:
 1515 027c 00000000 		.word	DispenserSide1Listener
 1516 0280 00000000 		.word	DispenserSide2Listener
 1517 0284 00000000 		.word	DispenserUpdateTimeouts
 1518 0288 00000000 		.word	DispenserUpdatePumpState
 1519 028c 00000000 		.word	DispenserLoadEEPROMSettings
 1520 0290 00000000 		.word	DispenserEnumeratePumps
 1521 0294 00000000 		.word	DispenserAcquireConfiguration
 1522 0298 00000000 		.word	DispenserConfigurePrices
 1523 029c 00000000 		.word	DispenserConfigureSinglePrice
 1524 02a0 00000000 		.word	DispenserAcquireTotals
 1525 02a4 00000000 		.word	DispenserRestorePrices
 1526 02a8 00000000 		.word	DispenserHandler
 1527 02ac 00000000 		.word	DispenserBeepWarning
 1528 02b0 00000000 		.word	_g_dispenserupdatetimeout
 1529 02b4 00000000 		.word	DispenserTimeoutHandler
 1530 02b8 00000000 		.word	DispenserDataReceptionHandler
 1531              		.cfi_endproc
 1532              	.LFE67:
 1533              		.size	DispenserSinkRegistration, .-DispenserSinkRegistration
 1534              		.text
 1535              	.Letext0:
 1536              		.file 2 "c:\\program files (x86)\\cypress\\psoc creator\\3.3\\psoc creator\\import\\gnu\\arm\\4.9.
 1537              		.file 3 "c:\\program files (x86)\\cypress\\psoc creator\\3.3\\psoc creator\\import\\gnu\\arm\\4.9.
 1538              		.file 4 "Generated_Source\\PSoC5/cytypes.h"
 1539              		.file 5 ".\\SinkObservables.h"
 1540              		.file 6 ".\\SinkManager.h"
 1541              		.file 7 ".\\Encore.h"
 1542              		.file 8 "Generated_Source\\PSoC5/core_cm3.h"
 1543              		.section	.debug_info,"",%progbits
 1544              	.Ldebug_info0:
 1545 0000 060D0000 		.4byte	0xd06
 1546 0004 0400     		.2byte	0x4
 1547 0006 00000000 		.4byte	.Ldebug_abbrev0
 1548 000a 04       		.byte	0x4
 1549 000b 01       		.uleb128 0x1
 1550 000c F1070000 		.4byte	.LASF221
 1551 0010 01       		.byte	0x1
 1552 0011 7F060000 		.4byte	.LASF222
 1553 0015 8E090000 		.4byte	.LASF223
 1554 0019 00000000 		.4byte	.Ldebug_ranges0+0
 1555 001d 00000000 		.4byte	0
 1556 0021 00000000 		.4byte	.Ldebug_line0
 1557 0025 02       		.uleb128 0x2
 1558 0026 01       		.byte	0x1
 1559 0027 06       		.byte	0x6
 1560 0028 1E020000 		.4byte	.LASF0
 1561 002c 02       		.uleb128 0x2
 1562 002d 01       		.byte	0x1
 1563 002e 08       		.byte	0x8
ARM GAS  C:\Users\RECEPC~1\AppData\Local\Temp\cc14VPUN.s 			page 38


 1564 002f FB090000 		.4byte	.LASF1
 1565 0033 02       		.uleb128 0x2
 1566 0034 02       		.byte	0x2
 1567 0035 05       		.byte	0x5
 1568 0036 4B060000 		.4byte	.LASF2
 1569 003a 02       		.uleb128 0x2
 1570 003b 02       		.byte	0x2
 1571 003c 07       		.byte	0x7
 1572 003d 61050000 		.4byte	.LASF3
 1573 0041 03       		.uleb128 0x3
 1574 0042 B00C0000 		.4byte	.LASF9
 1575 0046 02       		.byte	0x2
 1576 0047 3F       		.byte	0x3f
 1577 0048 4C000000 		.4byte	0x4c
 1578 004c 02       		.uleb128 0x2
 1579 004d 04       		.byte	0x4
 1580 004e 05       		.byte	0x5
 1581 004f B9020000 		.4byte	.LASF4
 1582 0053 02       		.uleb128 0x2
 1583 0054 04       		.byte	0x4
 1584 0055 07       		.byte	0x7
 1585 0056 1F0C0000 		.4byte	.LASF5
 1586 005a 02       		.uleb128 0x2
 1587 005b 08       		.byte	0x8
 1588 005c 05       		.byte	0x5
 1589 005d 10020000 		.4byte	.LASF6
 1590 0061 02       		.uleb128 0x2
 1591 0062 08       		.byte	0x8
 1592 0063 07       		.byte	0x7
 1593 0064 0D010000 		.4byte	.LASF7
 1594 0068 04       		.uleb128 0x4
 1595 0069 04       		.byte	0x4
 1596 006a 05       		.byte	0x5
 1597 006b 696E7400 		.ascii	"int\000"
 1598 006f 02       		.uleb128 0x2
 1599 0070 04       		.byte	0x4
 1600 0071 07       		.byte	0x7
 1601 0072 48040000 		.4byte	.LASF8
 1602 0076 03       		.uleb128 0x3
 1603 0077 F3090000 		.4byte	.LASF10
 1604 007b 03       		.byte	0x3
 1605 007c 2C       		.byte	0x2c
 1606 007d 41000000 		.4byte	0x41
 1607 0081 05       		.uleb128 0x5
 1608 0082 3B050000 		.4byte	.LASF11
 1609 0086 04       		.byte	0x4
 1610 0087 3801     		.2byte	0x138
 1611 0089 2C000000 		.4byte	0x2c
 1612 008d 05       		.uleb128 0x5
 1613 008e 650E0000 		.4byte	.LASF12
 1614 0092 04       		.byte	0x4
 1615 0093 3901     		.2byte	0x139
 1616 0095 3A000000 		.4byte	0x3a
 1617 0099 05       		.uleb128 0x5
 1618 009a 74030000 		.4byte	.LASF13
 1619 009e 04       		.byte	0x4
 1620 009f 3A01     		.2byte	0x13a
ARM GAS  C:\Users\RECEPC~1\AppData\Local\Temp\cc14VPUN.s 			page 39


 1621 00a1 53000000 		.4byte	0x53
 1622 00a5 05       		.uleb128 0x5
 1623 00a6 90020000 		.4byte	.LASF14
 1624 00aa 04       		.byte	0x4
 1625 00ab 3D01     		.2byte	0x13d
 1626 00ad 4C000000 		.4byte	0x4c
 1627 00b1 02       		.uleb128 0x2
 1628 00b2 04       		.byte	0x4
 1629 00b3 04       		.byte	0x4
 1630 00b4 5F0E0000 		.4byte	.LASF15
 1631 00b8 02       		.uleb128 0x2
 1632 00b9 08       		.byte	0x8
 1633 00ba 04       		.byte	0x4
 1634 00bb 2A030000 		.4byte	.LASF16
 1635 00bf 05       		.uleb128 0x5
 1636 00c0 5C0A0000 		.4byte	.LASF17
 1637 00c4 04       		.byte	0x4
 1638 00c5 4401     		.2byte	0x144
 1639 00c7 61000000 		.4byte	0x61
 1640 00cb 05       		.uleb128 0x5
 1641 00cc BA0C0000 		.4byte	.LASF18
 1642 00d0 04       		.byte	0x4
 1643 00d1 4901     		.2byte	0x149
 1644 00d3 D7000000 		.4byte	0xd7
 1645 00d7 02       		.uleb128 0x2
 1646 00d8 01       		.byte	0x1
 1647 00d9 08       		.byte	0x8
 1648 00da 3D0C0000 		.4byte	.LASF19
 1649 00de 06       		.uleb128 0x6
 1650 00df 81000000 		.4byte	0x81
 1651 00e3 06       		.uleb128 0x6
 1652 00e4 8D000000 		.4byte	0x8d
 1653 00e8 06       		.uleb128 0x6
 1654 00e9 99000000 		.4byte	0x99
 1655 00ed 02       		.uleb128 0x2
 1656 00ee 04       		.byte	0x4
 1657 00ef 07       		.byte	0x7
 1658 00f0 EA060000 		.4byte	.LASF20
 1659 00f4 07       		.uleb128 0x7
 1660 00f5 04       		.byte	0x4
 1661 00f6 08       		.uleb128 0x8
 1662 00f7 81000000 		.4byte	0x81
 1663 00fb 06010000 		.4byte	0x106
 1664 00ff 09       		.uleb128 0x9
 1665 0100 ED000000 		.4byte	0xed
 1666 0104 03       		.byte	0x3
 1667 0105 00       		.byte	0
 1668 0106 0A       		.uleb128 0xa
 1669 0107 2A020000 		.4byte	.LASF65
 1670 010b 01       		.byte	0x1
 1671 010c 05       		.byte	0x5
 1672 010d 0F       		.byte	0xf
 1673 010e 15020000 		.4byte	0x215
 1674 0112 0B       		.uleb128 0xb
 1675 0113 7D0D0000 		.4byte	.LASF21
 1676 0117 01       		.sleb128 1
 1677 0118 0B       		.uleb128 0xb
ARM GAS  C:\Users\RECEPC~1\AppData\Local\Temp\cc14VPUN.s 			page 40


 1678 0119 3B040000 		.4byte	.LASF22
 1679 011d 02       		.sleb128 2
 1680 011e 0B       		.uleb128 0xb
 1681 011f 24010000 		.4byte	.LASF23
 1682 0123 03       		.sleb128 3
 1683 0124 0B       		.uleb128 0xb
 1684 0125 F8000000 		.4byte	.LASF24
 1685 0129 04       		.sleb128 4
 1686 012a 0B       		.uleb128 0xb
 1687 012b 3B0E0000 		.4byte	.LASF25
 1688 012f 05       		.sleb128 5
 1689 0130 0B       		.uleb128 0xb
 1690 0131 6B060000 		.4byte	.LASF26
 1691 0135 06       		.sleb128 6
 1692 0136 0B       		.uleb128 0xb
 1693 0137 CE0A0000 		.4byte	.LASF27
 1694 013b 07       		.sleb128 7
 1695 013c 0B       		.uleb128 0xb
 1696 013d 340D0000 		.4byte	.LASF28
 1697 0141 08       		.sleb128 8
 1698 0142 0B       		.uleb128 0xb
 1699 0143 5C090000 		.4byte	.LASF29
 1700 0147 09       		.sleb128 9
 1701 0148 0B       		.uleb128 0xb
 1702 0149 B2050000 		.4byte	.LASF30
 1703 014d 0A       		.sleb128 10
 1704 014e 0B       		.uleb128 0xb
 1705 014f EC040000 		.4byte	.LASF31
 1706 0153 0B       		.sleb128 11
 1707 0154 0B       		.uleb128 0xb
 1708 0155 D5050000 		.4byte	.LASF32
 1709 0159 0C       		.sleb128 12
 1710 015a 0B       		.uleb128 0xb
 1711 015b E9010000 		.4byte	.LASF33
 1712 015f 0D       		.sleb128 13
 1713 0160 0B       		.uleb128 0xb
 1714 0161 7B0B0000 		.4byte	.LASF34
 1715 0165 0E       		.sleb128 14
 1716 0166 0B       		.uleb128 0xb
 1717 0167 A20D0000 		.4byte	.LASF35
 1718 016b 0F       		.sleb128 15
 1719 016c 0B       		.uleb128 0xb
 1720 016d D6070000 		.4byte	.LASF36
 1721 0171 10       		.sleb128 16
 1722 0172 0B       		.uleb128 0xb
 1723 0173 2A0B0000 		.4byte	.LASF37
 1724 0177 11       		.sleb128 17
 1725 0178 0B       		.uleb128 0xb
 1726 0179 7B030000 		.4byte	.LASF38
 1727 017d 12       		.sleb128 18
 1728 017e 0B       		.uleb128 0xb
 1729 017f F90A0000 		.4byte	.LASF39
 1730 0183 13       		.sleb128 19
 1731 0184 0B       		.uleb128 0xb
 1732 0185 23060000 		.4byte	.LASF40
 1733 0189 14       		.sleb128 20
 1734 018a 0B       		.uleb128 0xb
ARM GAS  C:\Users\RECEPC~1\AppData\Local\Temp\cc14VPUN.s 			page 41


 1735 018b 6B0C0000 		.4byte	.LASF41
 1736 018f 15       		.sleb128 21
 1737 0190 0B       		.uleb128 0xb
 1738 0191 CE030000 		.4byte	.LASF42
 1739 0195 16       		.sleb128 22
 1740 0196 0B       		.uleb128 0xb
 1741 0197 50070000 		.4byte	.LASF43
 1742 019b 17       		.sleb128 23
 1743 019c 0B       		.uleb128 0xb
 1744 019d 2D000000 		.4byte	.LASF44
 1745 01a1 18       		.sleb128 24
 1746 01a2 0B       		.uleb128 0xb
 1747 01a3 55040000 		.4byte	.LASF45
 1748 01a7 19       		.sleb128 25
 1749 01a8 0B       		.uleb128 0xb
 1750 01a9 99010000 		.4byte	.LASF46
 1751 01ad 1A       		.sleb128 26
 1752 01ae 0B       		.uleb128 0xb
 1753 01af F0050000 		.4byte	.LASF47
 1754 01b3 1B       		.sleb128 27
 1755 01b4 0B       		.uleb128 0xb
 1756 01b5 CB000000 		.4byte	.LASF48
 1757 01b9 1C       		.sleb128 28
 1758 01ba 0B       		.uleb128 0xb
 1759 01bb EE020000 		.4byte	.LASF49
 1760 01bf 1D       		.sleb128 29
 1761 01c0 0B       		.uleb128 0xb
 1762 01c1 AE010000 		.4byte	.LASF50
 1763 01c5 1E       		.sleb128 30
 1764 01c6 0B       		.uleb128 0xb
 1765 01c7 920C0000 		.4byte	.LASF51
 1766 01cb 1F       		.sleb128 31
 1767 01cc 0B       		.uleb128 0xb
 1768 01cd 3A060000 		.4byte	.LASF52
 1769 01d1 20       		.sleb128 32
 1770 01d2 0B       		.uleb128 0xb
 1771 01d3 63040000 		.4byte	.LASF53
 1772 01d7 21       		.sleb128 33
 1773 01d8 0B       		.uleb128 0xb
 1774 01d9 D4060000 		.4byte	.LASF54
 1775 01dd 22       		.sleb128 34
 1776 01de 0B       		.uleb128 0xb
 1777 01df B3060000 		.4byte	.LASF55
 1778 01e3 23       		.sleb128 35
 1779 01e4 0B       		.uleb128 0xb
 1780 01e5 E8080000 		.4byte	.LASF56
 1781 01e9 24       		.sleb128 36
 1782 01ea 0B       		.uleb128 0xb
 1783 01eb FC0D0000 		.4byte	.LASF57
 1784 01ef 25       		.sleb128 37
 1785 01f0 0B       		.uleb128 0xb
 1786 01f1 7C040000 		.4byte	.LASF58
 1787 01f5 26       		.sleb128 38
 1788 01f6 0B       		.uleb128 0xb
 1789 01f7 1F0D0000 		.4byte	.LASF59
 1790 01fb 27       		.sleb128 39
 1791 01fc 0B       		.uleb128 0xb
ARM GAS  C:\Users\RECEPC~1\AppData\Local\Temp\cc14VPUN.s 			page 42


 1792 01fd 55030000 		.4byte	.LASF60
 1793 0201 28       		.sleb128 40
 1794 0202 0B       		.uleb128 0xb
 1795 0203 9D0A0000 		.4byte	.LASF61
 1796 0207 29       		.sleb128 41
 1797 0208 0B       		.uleb128 0xb
 1798 0209 AC040000 		.4byte	.LASF62
 1799 020d 2A       		.sleb128 42
 1800 020e 0B       		.uleb128 0xb
 1801 020f EF0B0000 		.4byte	.LASF63
 1802 0213 2B       		.sleb128 43
 1803 0214 00       		.byte	0
 1804 0215 02       		.uleb128 0x2
 1805 0216 08       		.byte	0x8
 1806 0217 04       		.byte	0x4
 1807 0218 FF060000 		.4byte	.LASF64
 1808 021c 0A       		.uleb128 0xa
 1809 021d 4D090000 		.4byte	.LASF66
 1810 0221 01       		.byte	0x1
 1811 0222 06       		.byte	0x6
 1812 0223 3F       		.byte	0x3f
 1813 0224 59020000 		.4byte	0x259
 1814 0228 0B       		.uleb128 0xb
 1815 0229 00000000 		.4byte	.LASF67
 1816 022d 01       		.sleb128 1
 1817 022e 0B       		.uleb128 0xb
 1818 022f 310E0000 		.4byte	.LASF68
 1819 0233 02       		.sleb128 2
 1820 0234 0B       		.uleb128 0xb
 1821 0235 B7080000 		.4byte	.LASF69
 1822 0239 03       		.sleb128 3
 1823 023a 0B       		.uleb128 0xb
 1824 023b 430B0000 		.4byte	.LASF70
 1825 023f 04       		.sleb128 4
 1826 0240 0B       		.uleb128 0xb
 1827 0241 510B0000 		.4byte	.LASF71
 1828 0245 05       		.sleb128 5
 1829 0246 0B       		.uleb128 0xb
 1830 0247 9A040000 		.4byte	.LASF72
 1831 024b 06       		.sleb128 6
 1832 024c 0B       		.uleb128 0xb
 1833 024d 0E0D0000 		.4byte	.LASF73
 1834 0251 07       		.sleb128 7
 1835 0252 0B       		.uleb128 0xb
 1836 0253 52010000 		.4byte	.LASF74
 1837 0257 08       		.sleb128 8
 1838 0258 00       		.byte	0
 1839 0259 0A       		.uleb128 0xa
 1840 025a 00040000 		.4byte	.LASF75
 1841 025e 01       		.byte	0x1
 1842 025f 06       		.byte	0x6
 1843 0260 4C       		.byte	0x4c
 1844 0261 78020000 		.4byte	0x278
 1845 0265 0B       		.uleb128 0xb
 1846 0266 E2040000 		.4byte	.LASF76
 1847 026a 01       		.sleb128 1
 1848 026b 0B       		.uleb128 0xb
ARM GAS  C:\Users\RECEPC~1\AppData\Local\Temp\cc14VPUN.s 			page 43


 1849 026c 17090000 		.4byte	.LASF77
 1850 0270 02       		.sleb128 2
 1851 0271 0B       		.uleb128 0xb
 1852 0272 3D020000 		.4byte	.LASF78
 1853 0276 03       		.sleb128 3
 1854 0277 00       		.byte	0
 1855 0278 0C       		.uleb128 0xc
 1856 0279 6C0B0000 		.4byte	.LASF93
 1857 027d 9801     		.2byte	0x198
 1858 027f 06       		.byte	0x6
 1859 0280 53       		.byte	0x53
 1860 0281 19030000 		.4byte	0x319
 1861 0285 0D       		.uleb128 0xd
 1862 0286 8D070000 		.4byte	.LASF79
 1863 028a 06       		.byte	0x6
 1864 028b 55       		.byte	0x55
 1865 028c 19030000 		.4byte	0x319
 1866 0290 00       		.byte	0
 1867 0291 0D       		.uleb128 0xd
 1868 0292 D7040000 		.4byte	.LASF80
 1869 0296 06       		.byte	0x6
 1870 0297 56       		.byte	0x56
 1871 0298 DE000000 		.4byte	0xde
 1872 029c 01       		.byte	0x1
 1873 029d 0D       		.uleb128 0xd
 1874 029e AF000000 		.4byte	.LASF81
 1875 02a2 06       		.byte	0x6
 1876 02a3 57       		.byte	0x57
 1877 02a4 DE000000 		.4byte	0xde
 1878 02a8 02       		.byte	0x2
 1879 02a9 0D       		.uleb128 0xd
 1880 02aa 09090000 		.4byte	.LASF82
 1881 02ae 06       		.byte	0x6
 1882 02af 58       		.byte	0x58
 1883 02b0 DE000000 		.4byte	0xde
 1884 02b4 03       		.byte	0x3
 1885 02b5 0D       		.uleb128 0xd
 1886 02b6 C9040000 		.4byte	.LASF83
 1887 02ba 06       		.byte	0x6
 1888 02bb 5A       		.byte	0x5a
 1889 02bc E3000000 		.4byte	0xe3
 1890 02c0 04       		.byte	0x4
 1891 02c1 0D       		.uleb128 0xd
 1892 02c2 13060000 		.4byte	.LASF84
 1893 02c6 06       		.byte	0x6
 1894 02c7 5B       		.byte	0x5b
 1895 02c8 E3000000 		.4byte	0xe3
 1896 02cc 06       		.byte	0x6
 1897 02cd 0D       		.uleb128 0xd
 1898 02ce 1C070000 		.4byte	.LASF85
 1899 02d2 06       		.byte	0x6
 1900 02d3 5C       		.byte	0x5c
 1901 02d4 E3000000 		.4byte	0xe3
 1902 02d8 08       		.byte	0x8
 1903 02d9 0D       		.uleb128 0xd
 1904 02da 880A0000 		.4byte	.LASF86
 1905 02de 06       		.byte	0x6
ARM GAS  C:\Users\RECEPC~1\AppData\Local\Temp\cc14VPUN.s 			page 44


 1906 02df 5D       		.byte	0x5d
 1907 02e0 E3000000 		.4byte	0xe3
 1908 02e4 0A       		.byte	0xa
 1909 02e5 0D       		.uleb128 0xd
 1910 02e6 08030000 		.4byte	.LASF87
 1911 02ea 06       		.byte	0x6
 1912 02eb 5E       		.byte	0x5e
 1913 02ec 25030000 		.4byte	0x325
 1914 02f0 0C       		.byte	0xc
 1915 02f1 0E       		.uleb128 0xe
 1916 02f2 84020000 		.4byte	.LASF88
 1917 02f6 06       		.byte	0x6
 1918 02f7 5F       		.byte	0x5f
 1919 02f8 E3000000 		.4byte	0xe3
 1920 02fc 8C01     		.2byte	0x18c
 1921 02fe 0E       		.uleb128 0xe
 1922 02ff BC000000 		.4byte	.LASF89
 1923 0303 06       		.byte	0x6
 1924 0304 62       		.byte	0x62
 1925 0305 F4000000 		.4byte	0xf4
 1926 0309 9001     		.2byte	0x190
 1927 030b 0E       		.uleb128 0xe
 1928 030c 150E0000 		.4byte	.LASF90
 1929 0310 06       		.byte	0x6
 1930 0311 63       		.byte	0x63
 1931 0312 41030000 		.4byte	0x341
 1932 0316 9401     		.2byte	0x194
 1933 0318 00       		.byte	0
 1934 0319 06       		.uleb128 0x6
 1935 031a 1E030000 		.4byte	0x31e
 1936 031e 02       		.uleb128 0x2
 1937 031f 01       		.byte	0x1
 1938 0320 02       		.byte	0x2
 1939 0321 ED090000 		.4byte	.LASF91
 1940 0325 08       		.uleb128 0x8
 1941 0326 CB000000 		.4byte	0xcb
 1942 032a 36030000 		.4byte	0x336
 1943 032e 0F       		.uleb128 0xf
 1944 032f ED000000 		.4byte	0xed
 1945 0333 7F01     		.2byte	0x17f
 1946 0335 00       		.byte	0
 1947 0336 10       		.uleb128 0x10
 1948 0337 41030000 		.4byte	0x341
 1949 033b 11       		.uleb128 0x11
 1950 033c F4000000 		.4byte	0xf4
 1951 0340 00       		.byte	0
 1952 0341 12       		.uleb128 0x12
 1953 0342 04       		.byte	0x4
 1954 0343 36030000 		.4byte	0x336
 1955 0347 03       		.uleb128 0x3
 1956 0348 500C0000 		.4byte	.LASF92
 1957 034c 06       		.byte	0x6
 1958 034d 64       		.byte	0x64
 1959 034e 52030000 		.4byte	0x352
 1960 0352 12       		.uleb128 0x12
 1961 0353 04       		.byte	0x4
 1962 0354 78020000 		.4byte	0x278
ARM GAS  C:\Users\RECEPC~1\AppData\Local\Temp\cc14VPUN.s 			page 45


 1963 0358 13       		.uleb128 0x13
 1964 0359 760A0000 		.4byte	.LASF94
 1965 035d 2C       		.byte	0x2c
 1966 035e 06       		.byte	0x6
 1967 035f 66       		.byte	0x66
 1968 0360 89030000 		.4byte	0x389
 1969 0364 0D       		.uleb128 0xd
 1970 0365 A0020000 		.4byte	.LASF95
 1971 0369 06       		.byte	0x6
 1972 036a 68       		.byte	0x68
 1973 036b DE000000 		.4byte	0xde
 1974 036f 00       		.byte	0
 1975 0370 0D       		.uleb128 0xd
 1976 0371 96020000 		.4byte	.LASF96
 1977 0375 06       		.byte	0x6
 1978 0376 6A       		.byte	0x6a
 1979 0377 89030000 		.4byte	0x389
 1980 037b 01       		.byte	0x1
 1981 037c 0D       		.uleb128 0xd
 1982 037d 150E0000 		.4byte	.LASF90
 1983 0381 06       		.byte	0x6
 1984 0382 6B       		.byte	0x6b
 1985 0383 99030000 		.4byte	0x399
 1986 0387 0C       		.byte	0xc
 1987 0388 00       		.byte	0
 1988 0389 08       		.uleb128 0x8
 1989 038a 81000000 		.4byte	0x81
 1990 038e 99030000 		.4byte	0x399
 1991 0392 09       		.uleb128 0x9
 1992 0393 ED000000 		.4byte	0xed
 1993 0397 07       		.byte	0x7
 1994 0398 00       		.byte	0
 1995 0399 08       		.uleb128 0x8
 1996 039a 41030000 		.4byte	0x341
 1997 039e A9030000 		.4byte	0x3a9
 1998 03a2 09       		.uleb128 0x9
 1999 03a3 ED000000 		.4byte	0xed
 2000 03a7 07       		.byte	0x7
 2001 03a8 00       		.byte	0
 2002 03a9 03       		.uleb128 0x3
 2003 03aa 5E070000 		.4byte	.LASF97
 2004 03ae 06       		.byte	0x6
 2005 03af 6C       		.byte	0x6c
 2006 03b0 B4030000 		.4byte	0x3b4
 2007 03b4 12       		.uleb128 0x12
 2008 03b5 04       		.byte	0x4
 2009 03b6 58030000 		.4byte	0x358
 2010 03ba 14       		.uleb128 0x14
 2011 03bb 0401     		.2byte	0x104
 2012 03bd 07       		.byte	0x7
 2013 03be 1C01     		.2byte	0x11c
 2014 03c0 FA030000 		.4byte	0x3fa
 2015 03c4 15       		.uleb128 0x15
 2016 03c5 A0020000 		.4byte	.LASF95
 2017 03c9 07       		.byte	0x7
 2018 03ca 1E01     		.2byte	0x11e
 2019 03cc 81000000 		.4byte	0x81
ARM GAS  C:\Users\RECEPC~1\AppData\Local\Temp\cc14VPUN.s 			page 46


 2020 03d0 00       		.byte	0
 2021 03d1 15       		.uleb128 0x15
 2022 03d2 B6030000 		.4byte	.LASF98
 2023 03d6 07       		.byte	0x7
 2024 03d7 1F01     		.2byte	0x11f
 2025 03d9 81000000 		.4byte	0x81
 2026 03dd 01       		.byte	0x1
 2027 03de 15       		.uleb128 0x15
 2028 03df 08030000 		.4byte	.LASF87
 2029 03e3 07       		.byte	0x7
 2030 03e4 2001     		.2byte	0x120
 2031 03e6 FA030000 		.4byte	0x3fa
 2032 03ea 02       		.byte	0x2
 2033 03eb 16       		.uleb128 0x16
 2034 03ec 84020000 		.4byte	.LASF88
 2035 03f0 07       		.byte	0x7
 2036 03f1 2101     		.2byte	0x121
 2037 03f3 8D000000 		.4byte	0x8d
 2038 03f7 0201     		.2byte	0x102
 2039 03f9 00       		.byte	0
 2040 03fa 08       		.uleb128 0x8
 2041 03fb D7000000 		.4byte	0xd7
 2042 03ff 0A040000 		.4byte	0x40a
 2043 0403 09       		.uleb128 0x9
 2044 0404 ED000000 		.4byte	0xed
 2045 0408 FF       		.byte	0xff
 2046 0409 00       		.byte	0
 2047 040a 05       		.uleb128 0x5
 2048 040b 7F080000 		.4byte	.LASF99
 2049 040f 07       		.byte	0x7
 2050 0410 2301     		.2byte	0x123
 2051 0412 BA030000 		.4byte	0x3ba
 2052 0416 05       		.uleb128 0x5
 2053 0417 C00C0000 		.4byte	.LASF100
 2054 041b 07       		.byte	0x7
 2055 041c 2301     		.2byte	0x123
 2056 041e 22040000 		.4byte	0x422
 2057 0422 12       		.uleb128 0x12
 2058 0423 04       		.byte	0x4
 2059 0424 BA030000 		.4byte	0x3ba
 2060 0428 17       		.uleb128 0x17
 2061 0429 40       		.byte	0x40
 2062 042a 07       		.byte	0x7
 2063 042b 2501     		.2byte	0x125
 2064 042d CE040000 		.4byte	0x4ce
 2065 0431 15       		.uleb128 0x15
 2066 0432 BF0B0000 		.4byte	.LASF101
 2067 0436 07       		.byte	0x7
 2068 0437 2701     		.2byte	0x127
 2069 0439 DE000000 		.4byte	0xde
 2070 043d 00       		.byte	0
 2071 043e 15       		.uleb128 0x15
 2072 043f C50B0000 		.4byte	.LASF102
 2073 0443 07       		.byte	0x7
 2074 0444 2801     		.2byte	0x128
 2075 0446 DE000000 		.4byte	0xde
 2076 044a 01       		.byte	0x1
ARM GAS  C:\Users\RECEPC~1\AppData\Local\Temp\cc14VPUN.s 			page 47


 2077 044b 15       		.uleb128 0x15
 2078 044c CB0B0000 		.4byte	.LASF103
 2079 0450 07       		.byte	0x7
 2080 0451 2A01     		.2byte	0x12a
 2081 0453 E3000000 		.4byte	0xe3
 2082 0457 02       		.byte	0x2
 2083 0458 15       		.uleb128 0x15
 2084 0459 D10B0000 		.4byte	.LASF104
 2085 045d 07       		.byte	0x7
 2086 045e 2B01     		.2byte	0x12b
 2087 0460 E3000000 		.4byte	0xe3
 2088 0464 04       		.byte	0x4
 2089 0465 15       		.uleb128 0x15
 2090 0466 D70B0000 		.4byte	.LASF105
 2091 046a 07       		.byte	0x7
 2092 046b 2D01     		.2byte	0x12d
 2093 046d E8000000 		.4byte	0xe8
 2094 0471 08       		.byte	0x8
 2095 0472 15       		.uleb128 0x15
 2096 0473 630A0000 		.4byte	.LASF106
 2097 0477 07       		.byte	0x7
 2098 0478 2E01     		.2byte	0x12e
 2099 047a E8000000 		.4byte	0xe8
 2100 047e 0C       		.byte	0xc
 2101 047f 15       		.uleb128 0x15
 2102 0480 E90B0000 		.4byte	.LASF107
 2103 0484 07       		.byte	0x7
 2104 0485 3301     		.2byte	0x133
 2105 0487 CE040000 		.4byte	0x4ce
 2106 048b 10       		.byte	0x10
 2107 048c 15       		.uleb128 0x15
 2108 048d 87070000 		.4byte	.LASF108
 2109 0491 07       		.byte	0x7
 2110 0492 3401     		.2byte	0x134
 2111 0494 CE040000 		.4byte	0x4ce
 2112 0498 18       		.byte	0x18
 2113 0499 15       		.uleb128 0x15
 2114 049a 000C0000 		.4byte	.LASF109
 2115 049e 07       		.byte	0x7
 2116 049f 3501     		.2byte	0x135
 2117 04a1 CE040000 		.4byte	0x4ce
 2118 04a5 20       		.byte	0x20
 2119 04a6 15       		.uleb128 0x15
 2120 04a7 060C0000 		.4byte	.LASF110
 2121 04ab 07       		.byte	0x7
 2122 04ac 3601     		.2byte	0x136
 2123 04ae CE040000 		.4byte	0x4ce
 2124 04b2 28       		.byte	0x28
 2125 04b3 15       		.uleb128 0x15
 2126 04b4 660B0000 		.4byte	.LASF111
 2127 04b8 07       		.byte	0x7
 2128 04b9 3801     		.2byte	0x138
 2129 04bb D3040000 		.4byte	0x4d3
 2130 04bf 30       		.byte	0x30
 2131 04c0 15       		.uleb128 0x15
 2132 04c1 420C0000 		.4byte	.LASF112
 2133 04c5 07       		.byte	0x7
ARM GAS  C:\Users\RECEPC~1\AppData\Local\Temp\cc14VPUN.s 			page 48


 2134 04c6 3901     		.2byte	0x139
 2135 04c8 D3040000 		.4byte	0x4d3
 2136 04cc 38       		.byte	0x38
 2137 04cd 00       		.byte	0
 2138 04ce 06       		.uleb128 0x6
 2139 04cf BF000000 		.4byte	0xbf
 2140 04d3 06       		.uleb128 0x6
 2141 04d4 B8000000 		.4byte	0xb8
 2142 04d8 05       		.uleb128 0x5
 2143 04d9 96080000 		.4byte	.LASF113
 2144 04dd 07       		.byte	0x7
 2145 04de 3B01     		.2byte	0x13b
 2146 04e0 28040000 		.4byte	0x428
 2147 04e4 17       		.uleb128 0x17
 2148 04e5 18       		.byte	0x18
 2149 04e6 07       		.byte	0x7
 2150 04e7 4301     		.2byte	0x143
 2151 04e9 49050000 		.4byte	0x549
 2152 04ed 15       		.uleb128 0x15
 2153 04ee CE0D0000 		.4byte	.LASF114
 2154 04f2 07       		.byte	0x7
 2155 04f3 4601     		.2byte	0x146
 2156 04f5 19030000 		.4byte	0x319
 2157 04f9 00       		.byte	0
 2158 04fa 15       		.uleb128 0x15
 2159 04fb 530E0000 		.4byte	.LASF115
 2160 04ff 07       		.byte	0x7
 2161 0500 4701     		.2byte	0x147
 2162 0502 DE000000 		.4byte	0xde
 2163 0506 01       		.byte	0x1
 2164 0507 15       		.uleb128 0x15
 2165 0508 08020000 		.4byte	.LASF116
 2166 050c 07       		.byte	0x7
 2167 050d 4801     		.2byte	0x148
 2168 050f DE000000 		.4byte	0xde
 2169 0513 02       		.byte	0x2
 2170 0514 15       		.uleb128 0x15
 2171 0515 2D0D0000 		.4byte	.LASF117
 2172 0519 07       		.byte	0x7
 2173 051a 4901     		.2byte	0x149
 2174 051c E3000000 		.4byte	0xe3
 2175 0520 04       		.byte	0x4
 2176 0521 15       		.uleb128 0x15
 2177 0522 EF0C0000 		.4byte	.LASF118
 2178 0526 07       		.byte	0x7
 2179 0527 4A01     		.2byte	0x14a
 2180 0529 E8000000 		.4byte	0xe8
 2181 052d 08       		.byte	0x8
 2182 052e 15       		.uleb128 0x15
 2183 052f C6060000 		.4byte	.LASF119
 2184 0533 07       		.byte	0x7
 2185 0534 4B01     		.2byte	0x14b
 2186 0536 E8000000 		.4byte	0xe8
 2187 053a 0C       		.byte	0xc
 2188 053b 15       		.uleb128 0x15
 2189 053c 92040000 		.4byte	.LASF120
 2190 0540 07       		.byte	0x7
ARM GAS  C:\Users\RECEPC~1\AppData\Local\Temp\cc14VPUN.s 			page 49


 2191 0541 4C01     		.2byte	0x14c
 2192 0543 49050000 		.4byte	0x549
 2193 0547 10       		.byte	0x10
 2194 0548 00       		.byte	0
 2195 0549 08       		.uleb128 0x8
 2196 054a CB000000 		.4byte	0xcb
 2197 054e 59050000 		.4byte	0x559
 2198 0552 09       		.uleb128 0x9
 2199 0553 ED000000 		.4byte	0xed
 2200 0557 07       		.byte	0x7
 2201 0558 00       		.byte	0
 2202 0559 05       		.uleb128 0x5
 2203 055a 71070000 		.4byte	.LASF121
 2204 055e 07       		.byte	0x7
 2205 055f 4E01     		.2byte	0x14e
 2206 0561 E4040000 		.4byte	0x4e4
 2207 0565 18       		.uleb128 0x18
 2208 0566 B10B0000 		.4byte	.LASF122
 2209 056a C80B     		.2byte	0xbc8
 2210 056c 07       		.byte	0x7
 2211 056d 5101     		.2byte	0x151
 2212 056f 4A070000 		.4byte	0x74a
 2213 0573 15       		.uleb128 0x15
 2214 0574 C3000000 		.4byte	.LASF123
 2215 0578 07       		.byte	0x7
 2216 0579 5301     		.2byte	0x153
 2217 057b 81000000 		.4byte	0x81
 2218 057f 00       		.byte	0
 2219 0580 15       		.uleb128 0x15
 2220 0581 600C0000 		.4byte	.LASF124
 2221 0585 07       		.byte	0x7
 2222 0586 5401     		.2byte	0x154
 2223 0588 81000000 		.4byte	0x81
 2224 058c 01       		.byte	0x1
 2225 058d 15       		.uleb128 0x15
 2226 058e F10D0000 		.4byte	.LASF125
 2227 0592 07       		.byte	0x7
 2228 0593 5601     		.2byte	0x156
 2229 0595 DE000000 		.4byte	0xde
 2230 0599 02       		.byte	0x2
 2231 059a 15       		.uleb128 0x15
 2232 059b 2E040000 		.4byte	.LASF126
 2233 059f 07       		.byte	0x7
 2234 05a0 5701     		.2byte	0x157
 2235 05a2 DE000000 		.4byte	0xde
 2236 05a6 03       		.byte	0x3
 2237 05a7 15       		.uleb128 0x15
 2238 05a8 63030000 		.4byte	.LASF127
 2239 05ac 07       		.byte	0x7
 2240 05ad 5801     		.2byte	0x158
 2241 05af DE000000 		.4byte	0xde
 2242 05b3 04       		.byte	0x4
 2243 05b4 15       		.uleb128 0x15
 2244 05b5 74020000 		.4byte	.LASF128
 2245 05b9 07       		.byte	0x7
 2246 05ba 5901     		.2byte	0x159
 2247 05bc 19030000 		.4byte	0x319
ARM GAS  C:\Users\RECEPC~1\AppData\Local\Temp\cc14VPUN.s 			page 50


 2248 05c0 05       		.byte	0x5
 2249 05c1 15       		.uleb128 0x15
 2250 05c2 CE0D0000 		.4byte	.LASF114
 2251 05c6 07       		.byte	0x7
 2252 05c7 5C01     		.2byte	0x15c
 2253 05c9 19030000 		.4byte	0x319
 2254 05cd 06       		.byte	0x6
 2255 05ce 15       		.uleb128 0x15
 2256 05cf 6C0E0000 		.4byte	.LASF129
 2257 05d3 07       		.byte	0x7
 2258 05d4 5D01     		.2byte	0x15d
 2259 05d6 19030000 		.4byte	0x319
 2260 05da 07       		.byte	0x7
 2261 05db 15       		.uleb128 0x15
 2262 05dc D0020000 		.4byte	.LASF130
 2263 05e0 07       		.byte	0x7
 2264 05e1 5E01     		.2byte	0x15e
 2265 05e3 19030000 		.4byte	0x319
 2266 05e7 08       		.byte	0x8
 2267 05e8 15       		.uleb128 0x15
 2268 05e9 F3060000 		.4byte	.LASF131
 2269 05ed 07       		.byte	0x7
 2270 05ee 5F01     		.2byte	0x15f
 2271 05f0 19030000 		.4byte	0x319
 2272 05f4 09       		.byte	0x9
 2273 05f5 15       		.uleb128 0x15
 2274 05f6 90050000 		.4byte	.LASF132
 2275 05fa 07       		.byte	0x7
 2276 05fb 6001     		.2byte	0x160
 2277 05fd DE000000 		.4byte	0xde
 2278 0601 0A       		.byte	0xa
 2279 0602 15       		.uleb128 0x15
 2280 0603 390A0000 		.4byte	.LASF133
 2281 0607 07       		.byte	0x7
 2282 0608 6101     		.2byte	0x161
 2283 060a 19030000 		.4byte	0x319
 2284 060e 0B       		.byte	0xb
 2285 060f 15       		.uleb128 0x15
 2286 0610 270A0000 		.4byte	.LASF134
 2287 0614 07       		.byte	0x7
 2288 0615 6201     		.2byte	0x162
 2289 0617 DE000000 		.4byte	0xde
 2290 061b 0C       		.byte	0xc
 2291 061c 15       		.uleb128 0x15
 2292 061d 10040000 		.4byte	.LASF135
 2293 0621 07       		.byte	0x7
 2294 0622 6401     		.2byte	0x164
 2295 0624 19030000 		.4byte	0x319
 2296 0628 0D       		.byte	0xd
 2297 0629 15       		.uleb128 0x15
 2298 062a 6C000000 		.4byte	.LASF136
 2299 062e 07       		.byte	0x7
 2300 062f 6601     		.2byte	0x166
 2301 0631 E8000000 		.4byte	0xe8
 2302 0635 10       		.byte	0x10
 2303 0636 15       		.uleb128 0x15
 2304 0637 F9080000 		.4byte	.LASF137
ARM GAS  C:\Users\RECEPC~1\AppData\Local\Temp\cc14VPUN.s 			page 51


 2305 063b 07       		.byte	0x7
 2306 063c 6701     		.2byte	0x167
 2307 063e E8000000 		.4byte	0xe8
 2308 0642 14       		.byte	0x14
 2309 0643 15       		.uleb128 0x15
 2310 0644 5F000000 		.4byte	.LASF138
 2311 0648 07       		.byte	0x7
 2312 0649 6A01     		.2byte	0x16a
 2313 064b DE000000 		.4byte	0xde
 2314 064f 18       		.byte	0x18
 2315 0650 15       		.uleb128 0x15
 2316 0651 B6030000 		.4byte	.LASF98
 2317 0655 07       		.byte	0x7
 2318 0656 6B01     		.2byte	0x16b
 2319 0658 DE000000 		.4byte	0xde
 2320 065c 19       		.byte	0x19
 2321 065d 15       		.uleb128 0x15
 2322 065e C2080000 		.4byte	.LASF139
 2323 0662 07       		.byte	0x7
 2324 0663 6D01     		.2byte	0x16d
 2325 0665 F4000000 		.4byte	0xf4
 2326 0669 1C       		.byte	0x1c
 2327 066a 15       		.uleb128 0x15
 2328 066b A4030000 		.4byte	.LASF140
 2329 066f 07       		.byte	0x7
 2330 0670 6E01     		.2byte	0x16e
 2331 0672 25030000 		.4byte	0x325
 2332 0676 20       		.byte	0x20
 2333 0677 16       		.uleb128 0x16
 2334 0678 A1050000 		.4byte	.LASF141
 2335 067c 07       		.byte	0x7
 2336 067d 7001     		.2byte	0x170
 2337 067f 25030000 		.4byte	0x325
 2338 0683 A001     		.2byte	0x1a0
 2339 0685 16       		.uleb128 0x16
 2340 0686 EA000000 		.4byte	.LASF142
 2341 068a 07       		.byte	0x7
 2342 068b 7101     		.2byte	0x171
 2343 068d 8D000000 		.4byte	0x8d
 2344 0691 2003     		.2byte	0x320
 2345 0693 16       		.uleb128 0x16
 2346 0694 55060000 		.4byte	.LASF143
 2347 0698 07       		.byte	0x7
 2348 0699 7501     		.2byte	0x175
 2349 069b 4A070000 		.4byte	0x74a
 2350 069f 2203     		.2byte	0x322
 2351 06a1 16       		.uleb128 0x16
 2352 06a2 EE030000 		.4byte	.LASF144
 2353 06a6 07       		.byte	0x7
 2354 06a7 7701     		.2byte	0x177
 2355 06a9 19030000 		.4byte	0x319
 2356 06ad 420B     		.2byte	0xb42
 2357 06af 16       		.uleb128 0x16
 2358 06b0 1E0E0000 		.4byte	.LASF145
 2359 06b4 07       		.byte	0x7
 2360 06b5 7901     		.2byte	0x179
 2361 06b7 41030000 		.4byte	0x341
ARM GAS  C:\Users\RECEPC~1\AppData\Local\Temp\cc14VPUN.s 			page 52


 2362 06bb 440B     		.2byte	0xb44
 2363 06bd 16       		.uleb128 0x16
 2364 06be C1070000 		.4byte	.LASF146
 2365 06c2 07       		.byte	0x7
 2366 06c3 7A01     		.2byte	0x17a
 2367 06c5 41030000 		.4byte	0x341
 2368 06c9 480B     		.2byte	0xb48
 2369 06cb 16       		.uleb128 0x16
 2370 06cc 490A0000 		.4byte	.LASF147
 2371 06d0 07       		.byte	0x7
 2372 06d1 7B01     		.2byte	0x17b
 2373 06d3 6E070000 		.4byte	0x76e
 2374 06d7 4C0B     		.2byte	0xb4c
 2375 06d9 16       		.uleb128 0x16
 2376 06da 31030000 		.4byte	.LASF148
 2377 06de 07       		.byte	0x7
 2378 06df 7C01     		.2byte	0x17c
 2379 06e1 84070000 		.4byte	0x784
 2380 06e5 500B     		.2byte	0xb50
 2381 06e7 16       		.uleb128 0x16
 2382 06e8 67010000 		.4byte	.LASF149
 2383 06ec 07       		.byte	0x7
 2384 06ed 7D01     		.2byte	0x17d
 2385 06ef 84070000 		.4byte	0x784
 2386 06f3 540B     		.2byte	0xb54
 2387 06f5 16       		.uleb128 0x16
 2388 06f6 3B000000 		.4byte	.LASF150
 2389 06fa 07       		.byte	0x7
 2390 06fb 7E01     		.2byte	0x17e
 2391 06fd 99070000 		.4byte	0x799
 2392 0701 580B     		.2byte	0xb58
 2393 0703 16       		.uleb128 0x16
 2394 0704 A10E0000 		.4byte	.LASF151
 2395 0708 07       		.byte	0x7
 2396 0709 7F01     		.2byte	0x17f
 2397 070b 99070000 		.4byte	0x799
 2398 070f 5C0B     		.2byte	0xb5c
 2399 0711 16       		.uleb128 0x16
 2400 0712 7B000000 		.4byte	.LASF152
 2401 0716 07       		.byte	0x7
 2402 0717 8101     		.2byte	0x181
 2403 0719 AE070000 		.4byte	0x7ae
 2404 071d 600B     		.2byte	0xb60
 2405 071f 16       		.uleb128 0x16
 2406 0720 A8080000 		.4byte	.LASF153
 2407 0724 07       		.byte	0x7
 2408 0725 8301     		.2byte	0x183
 2409 0727 D8040000 		.4byte	0x4d8
 2410 072b 680B     		.2byte	0xb68
 2411 072d 16       		.uleb128 0x16
 2412 072e 1A000000 		.4byte	.LASF154
 2413 0732 07       		.byte	0x7
 2414 0733 8401     		.2byte	0x184
 2415 0735 59050000 		.4byte	0x559
 2416 0739 A80B     		.2byte	0xba8
 2417 073b 16       		.uleb128 0x16
 2418 073c 9C030000 		.4byte	.LASF155
ARM GAS  C:\Users\RECEPC~1\AppData\Local\Temp\cc14VPUN.s 			page 53


 2419 0740 07       		.byte	0x7
 2420 0741 8601     		.2byte	0x186
 2421 0743 41030000 		.4byte	0x341
 2422 0747 C00B     		.2byte	0xbc0
 2423 0749 00       		.byte	0
 2424 074a 08       		.uleb128 0x8
 2425 074b 0A040000 		.4byte	0x40a
 2426 074f 5A070000 		.4byte	0x75a
 2427 0753 09       		.uleb128 0x9
 2428 0754 ED000000 		.4byte	0xed
 2429 0758 07       		.byte	0x7
 2430 0759 00       		.byte	0
 2431 075a 19       		.uleb128 0x19
 2432 075b 1E030000 		.4byte	0x31e
 2433 075f 6E070000 		.4byte	0x76e
 2434 0763 11       		.uleb128 0x11
 2435 0764 F4000000 		.4byte	0xf4
 2436 0768 11       		.uleb128 0x11
 2437 0769 81000000 		.4byte	0x81
 2438 076d 00       		.byte	0
 2439 076e 12       		.uleb128 0x12
 2440 076f 04       		.byte	0x4
 2441 0770 5A070000 		.4byte	0x75a
 2442 0774 10       		.uleb128 0x10
 2443 0775 84070000 		.4byte	0x784
 2444 0779 11       		.uleb128 0x11
 2445 077a F4000000 		.4byte	0xf4
 2446 077e 11       		.uleb128 0x11
 2447 077f 16040000 		.4byte	0x416
 2448 0783 00       		.byte	0
 2449 0784 12       		.uleb128 0x12
 2450 0785 04       		.byte	0x4
 2451 0786 74070000 		.4byte	0x774
 2452 078a 19       		.uleb128 0x19
 2453 078b 16040000 		.4byte	0x416
 2454 078f 99070000 		.4byte	0x799
 2455 0793 11       		.uleb128 0x11
 2456 0794 F4000000 		.4byte	0xf4
 2457 0798 00       		.byte	0
 2458 0799 12       		.uleb128 0x12
 2459 079a 04       		.byte	0x4
 2460 079b 8A070000 		.4byte	0x78a
 2461 079f 19       		.uleb128 0x19
 2462 07a0 1E030000 		.4byte	0x31e
 2463 07a4 AE070000 		.4byte	0x7ae
 2464 07a8 11       		.uleb128 0x11
 2465 07a9 F4000000 		.4byte	0xf4
 2466 07ad 00       		.byte	0
 2467 07ae 12       		.uleb128 0x12
 2468 07af 04       		.byte	0x4
 2469 07b0 9F070000 		.4byte	0x79f
 2470 07b4 05       		.uleb128 0x5
 2471 07b5 E5000000 		.4byte	.LASF156
 2472 07b9 07       		.byte	0x7
 2473 07ba 8801     		.2byte	0x188
 2474 07bc 65050000 		.4byte	0x565
 2475 07c0 1A       		.uleb128 0x1a
ARM GAS  C:\Users\RECEPC~1\AppData\Local\Temp\cc14VPUN.s 			page 54


 2476 07c1 17040000 		.4byte	.LASF157
 2477 07c5 34       		.byte	0x34
 2478 07c6 07       		.byte	0x7
 2479 07c7 8D01     		.2byte	0x18d
 2480 07c9 84080000 		.4byte	0x884
 2481 07cd 15       		.uleb128 0x15
 2482 07ce 480C0000 		.4byte	.LASF158
 2483 07d2 07       		.byte	0x7
 2484 07d3 8F01     		.2byte	0x18f
 2485 07d5 41030000 		.4byte	0x341
 2486 07d9 00       		.byte	0
 2487 07da 15       		.uleb128 0x15
 2488 07db 2E090000 		.4byte	.LASF159
 2489 07df 07       		.byte	0x7
 2490 07e0 9001     		.2byte	0x190
 2491 07e2 41030000 		.4byte	0x341
 2492 07e6 04       		.byte	0x4
 2493 07e7 15       		.uleb128 0x15
 2494 07e8 DA0D0000 		.4byte	.LASF160
 2495 07ec 07       		.byte	0x7
 2496 07ed 9101     		.2byte	0x191
 2497 07ef 41030000 		.4byte	0x341
 2498 07f3 08       		.byte	0x8
 2499 07f4 15       		.uleb128 0x15
 2500 07f5 8A000000 		.4byte	.LASF161
 2501 07f9 07       		.byte	0x7
 2502 07fa 9201     		.2byte	0x192
 2503 07fc 9D080000 		.4byte	0x89d
 2504 0800 0C       		.byte	0xc
 2505 0801 15       		.uleb128 0x15
 2506 0802 7A050000 		.4byte	.LASF162
 2507 0806 07       		.byte	0x7
 2508 0807 9301     		.2byte	0x193
 2509 0809 8D000000 		.4byte	0x8d
 2510 080d 10       		.byte	0x10
 2511 080e 15       		.uleb128 0x15
 2512 080f 9D0B0000 		.4byte	.LASF163
 2513 0813 07       		.byte	0x7
 2514 0814 9401     		.2byte	0x194
 2515 0816 99000000 		.4byte	0x99
 2516 081a 14       		.byte	0x14
 2517 081b 15       		.uleb128 0x15
 2518 081c C2020000 		.4byte	.LASF164
 2519 0820 07       		.byte	0x7
 2520 0821 9501     		.2byte	0x195
 2521 0823 81000000 		.4byte	0x81
 2522 0827 18       		.byte	0x18
 2523 0828 15       		.uleb128 0x15
 2524 0829 37090000 		.4byte	.LASF165
 2525 082d 07       		.byte	0x7
 2526 082e 9701     		.2byte	0x197
 2527 0830 1E030000 		.4byte	0x31e
 2528 0834 19       		.byte	0x19
 2529 0835 15       		.uleb128 0x15
 2530 0836 78090000 		.4byte	.LASF166
 2531 083a 07       		.byte	0x7
 2532 083b 9B01     		.2byte	0x19b
ARM GAS  C:\Users\RECEPC~1\AppData\Local\Temp\cc14VPUN.s 			page 55


 2533 083d A3080000 		.4byte	0x8a3
 2534 0841 1A       		.byte	0x1a
 2535 0842 15       		.uleb128 0x15
 2536 0843 E00C0000 		.4byte	.LASF167
 2537 0847 07       		.byte	0x7
 2538 0848 9D01     		.2byte	0x19d
 2539 084a F6000000 		.4byte	0xf6
 2540 084e 1E       		.byte	0x1e
 2541 084f 15       		.uleb128 0x15
 2542 0850 47020000 		.4byte	.LASF168
 2543 0854 07       		.byte	0x7
 2544 0855 A101     		.2byte	0x1a1
 2545 0857 A3080000 		.4byte	0x8a3
 2546 085b 22       		.byte	0x22
 2547 085c 15       		.uleb128 0x15
 2548 085d 41050000 		.4byte	.LASF169
 2549 0861 07       		.byte	0x7
 2550 0862 A301     		.2byte	0x1a3
 2551 0864 F6000000 		.4byte	0xf6
 2552 0868 26       		.byte	0x26
 2553 0869 15       		.uleb128 0x15
 2554 086a B70E0000 		.4byte	.LASF170
 2555 086e 07       		.byte	0x7
 2556 086f A501     		.2byte	0x1a5
 2557 0871 41030000 		.4byte	0x341
 2558 0875 2C       		.byte	0x2c
 2559 0876 15       		.uleb128 0x15
 2560 0877 05000000 		.4byte	.LASF171
 2561 087b 07       		.byte	0x7
 2562 087c A601     		.2byte	0x1a6
 2563 087e 41030000 		.4byte	0x341
 2564 0882 30       		.byte	0x30
 2565 0883 00       		.byte	0
 2566 0884 19       		.uleb128 0x19
 2567 0885 1E030000 		.4byte	0x31e
 2568 0889 9D080000 		.4byte	0x89d
 2569 088d 11       		.uleb128 0x11
 2570 088e F4000000 		.4byte	0xf4
 2571 0892 11       		.uleb128 0x11
 2572 0893 F4000000 		.4byte	0xf4
 2573 0897 11       		.uleb128 0x11
 2574 0898 8D000000 		.4byte	0x8d
 2575 089c 00       		.byte	0
 2576 089d 12       		.uleb128 0x12
 2577 089e 04       		.byte	0x4
 2578 089f 84080000 		.4byte	0x884
 2579 08a3 08       		.uleb128 0x8
 2580 08a4 1E030000 		.4byte	0x31e
 2581 08a8 B3080000 		.4byte	0x8b3
 2582 08ac 09       		.uleb128 0x9
 2583 08ad ED000000 		.4byte	0xed
 2584 08b1 03       		.byte	0x3
 2585 08b2 00       		.byte	0
 2586 08b3 05       		.uleb128 0x5
 2587 08b4 8F0D0000 		.4byte	.LASF172
 2588 08b8 07       		.byte	0x7
 2589 08b9 A701     		.2byte	0x1a7
ARM GAS  C:\Users\RECEPC~1\AppData\Local\Temp\cc14VPUN.s 			page 56


 2590 08bb C0070000 		.4byte	0x7c0
 2591 08bf 17       		.uleb128 0x17
 2592 08c0 28       		.byte	0x28
 2593 08c1 07       		.byte	0x7
 2594 08c2 B601     		.2byte	0x1b6
 2595 08c4 99090000 		.4byte	0x999
 2596 08c8 15       		.uleb128 0x15
 2597 08c9 A50C0000 		.4byte	.LASF173
 2598 08cd 07       		.byte	0x7
 2599 08ce B801     		.2byte	0x1b8
 2600 08d0 19030000 		.4byte	0x319
 2601 08d4 00       		.byte	0
 2602 08d5 15       		.uleb128 0x15
 2603 08d6 DC030000 		.4byte	.LASF174
 2604 08da 07       		.byte	0x7
 2605 08db B901     		.2byte	0x1b9
 2606 08dd DE000000 		.4byte	0xde
 2607 08e1 01       		.byte	0x1
 2608 08e2 15       		.uleb128 0x15
 2609 08e3 A0020000 		.4byte	.LASF95
 2610 08e7 07       		.byte	0x7
 2611 08e8 BC01     		.2byte	0x1bc
 2612 08ea DE000000 		.4byte	0xde
 2613 08ee 02       		.byte	0x2
 2614 08ef 15       		.uleb128 0x15
 2615 08f0 7A0E0000 		.4byte	.LASF175
 2616 08f4 07       		.byte	0x7
 2617 08f5 BE01     		.2byte	0x1be
 2618 08f7 E3000000 		.4byte	0xe3
 2619 08fb 04       		.byte	0x4
 2620 08fc 15       		.uleb128 0x15
 2621 08fd FD0C0000 		.4byte	.LASF176
 2622 0901 07       		.byte	0x7
 2623 0902 BF01     		.2byte	0x1bf
 2624 0904 E3000000 		.4byte	0xe3
 2625 0908 06       		.byte	0x6
 2626 0909 15       		.uleb128 0x15
 2627 090a 5E020000 		.4byte	.LASF177
 2628 090e 07       		.byte	0x7
 2629 090f C101     		.2byte	0x1c1
 2630 0911 E3000000 		.4byte	0xe3
 2631 0915 08       		.byte	0x8
 2632 0916 15       		.uleb128 0x15
 2633 0917 3F010000 		.4byte	.LASF178
 2634 091b 07       		.byte	0x7
 2635 091c C201     		.2byte	0x1c2
 2636 091e E3000000 		.4byte	0xe3
 2637 0922 0A       		.byte	0xa
 2638 0923 15       		.uleb128 0x15
 2639 0924 80010000 		.4byte	.LASF179
 2640 0928 07       		.byte	0x7
 2641 0929 C301     		.2byte	0x1c3
 2642 092b E3000000 		.4byte	0xe3
 2643 092f 0C       		.byte	0xc
 2644 0930 15       		.uleb128 0x15
 2645 0931 51050000 		.4byte	.LASF180
 2646 0935 07       		.byte	0x7
ARM GAS  C:\Users\RECEPC~1\AppData\Local\Temp\cc14VPUN.s 			page 57


 2647 0936 C501     		.2byte	0x1c5
 2648 0938 E3000000 		.4byte	0xe3
 2649 093c 0E       		.byte	0xe
 2650 093d 15       		.uleb128 0x15
 2651 093e 690A0000 		.4byte	.LASF181
 2652 0942 07       		.byte	0x7
 2653 0943 C601     		.2byte	0x1c6
 2654 0945 E3000000 		.4byte	0xe3
 2655 0949 10       		.byte	0x10
 2656 094a 15       		.uleb128 0x15
 2657 094b 0C0C0000 		.4byte	.LASF182
 2658 094f 07       		.byte	0x7
 2659 0950 C701     		.2byte	0x1c7
 2660 0952 E3000000 		.4byte	0xe3
 2661 0956 12       		.byte	0x12
 2662 0957 15       		.uleb128 0x15
 2663 0958 61060000 		.4byte	.LASF183
 2664 095c 07       		.byte	0x7
 2665 095d C901     		.2byte	0x1c9
 2666 095f 99090000 		.4byte	0x999
 2667 0963 14       		.byte	0x14
 2668 0964 15       		.uleb128 0x15
 2669 0965 DC020000 		.4byte	.LASF184
 2670 0969 07       		.byte	0x7
 2671 096a CA01     		.2byte	0x1ca
 2672 096c 99090000 		.4byte	0x999
 2673 0970 18       		.byte	0x18
 2674 0971 15       		.uleb128 0x15
 2675 0972 E7020000 		.4byte	.LASF185
 2676 0976 07       		.byte	0x7
 2677 0977 CB01     		.2byte	0x1cb
 2678 0979 9F090000 		.4byte	0x99f
 2679 097d 1C       		.byte	0x1c
 2680 097e 15       		.uleb128 0x15
 2681 097f 150E0000 		.4byte	.LASF90
 2682 0983 07       		.byte	0x7
 2683 0984 CD01     		.2byte	0x1cd
 2684 0986 41030000 		.4byte	0x341
 2685 098a 20       		.byte	0x20
 2686 098b 15       		.uleb128 0x15
 2687 098c BC000000 		.4byte	.LASF89
 2688 0990 07       		.byte	0x7
 2689 0991 CE01     		.2byte	0x1ce
 2690 0993 F4000000 		.4byte	0xf4
 2691 0997 24       		.byte	0x24
 2692 0998 00       		.byte	0
 2693 0999 12       		.uleb128 0x12
 2694 099a 04       		.byte	0x4
 2695 099b B3080000 		.4byte	0x8b3
 2696 099f 12       		.uleb128 0x12
 2697 09a0 04       		.byte	0x4
 2698 09a1 B4070000 		.4byte	0x7b4
 2699 09a5 05       		.uleb128 0x5
 2700 09a6 36070000 		.4byte	.LASF186
 2701 09aa 07       		.byte	0x7
 2702 09ab D001     		.2byte	0x1d0
 2703 09ad BF080000 		.4byte	0x8bf
ARM GAS  C:\Users\RECEPC~1\AppData\Local\Temp\cc14VPUN.s 			page 58


 2704 09b1 05       		.uleb128 0x5
 2705 09b2 97070000 		.4byte	.LASF187
 2706 09b6 07       		.byte	0x7
 2707 09b7 D001     		.2byte	0x1d0
 2708 09b9 BD090000 		.4byte	0x9bd
 2709 09bd 12       		.uleb128 0x12
 2710 09be 04       		.byte	0x4
 2711 09bf BF080000 		.4byte	0x8bf
 2712 09c3 18       		.uleb128 0x18
 2713 09c4 810E0000 		.4byte	.LASF188
 2714 09c8 5C08     		.2byte	0x85c
 2715 09ca 07       		.byte	0x7
 2716 09cb D201     		.2byte	0x1d2
 2717 09cd 4E0A0000 		.4byte	0xa4e
 2718 09d1 15       		.uleb128 0x15
 2719 09d2 DD0B0000 		.4byte	.LASF189
 2720 09d6 07       		.byte	0x7
 2721 09d7 D401     		.2byte	0x1d4
 2722 09d9 E3000000 		.4byte	0xe3
 2723 09dd 00       		.byte	0
 2724 09de 15       		.uleb128 0x15
 2725 09df 05060000 		.4byte	.LASF190
 2726 09e3 07       		.byte	0x7
 2727 09e4 D601     		.2byte	0x1d6
 2728 09e6 4E0A0000 		.4byte	0xa4e
 2729 09ea 04       		.byte	0x4
 2730 09eb 16       		.uleb128 0x16
 2731 09ec D4080000 		.4byte	.LASF191
 2732 09f0 07       		.byte	0x7
 2733 09f1 D701     		.2byte	0x1d7
 2734 09f3 5E0A0000 		.4byte	0xa5e
 2735 09f7 8407     		.2byte	0x784
 2736 09f9 16       		.uleb128 0x16
 2737 09fa EA0D0000 		.4byte	.LASF192
 2738 09fe 07       		.byte	0x7
 2739 09ff D901     		.2byte	0x1d9
 2740 0a01 41030000 		.4byte	0x341
 2741 0a05 4408     		.2byte	0x844
 2742 0a07 16       		.uleb128 0x16
 2743 0a08 91060000 		.4byte	.LASF193
 2744 0a0c 07       		.byte	0x7
 2745 0a0d DA01     		.2byte	0x1da
 2746 0a0f 830A0000 		.4byte	0xa83
 2747 0a13 4808     		.2byte	0x848
 2748 0a15 16       		.uleb128 0x16
 2749 0a16 12000000 		.4byte	.LASF194
 2750 0a1a 07       		.byte	0x7
 2751 0a1b DB01     		.2byte	0x1db
 2752 0a1d 990A0000 		.4byte	0xa99
 2753 0a21 4C08     		.2byte	0x84c
 2754 0a23 16       		.uleb128 0x16
 2755 0a24 4E0E0000 		.4byte	.LASF195
 2756 0a28 07       		.byte	0x7
 2757 0a29 DC01     		.2byte	0x1dc
 2758 0a2b 830A0000 		.4byte	0xa83
 2759 0a2f 5008     		.2byte	0x850
 2760 0a31 16       		.uleb128 0x16
ARM GAS  C:\Users\RECEPC~1\AppData\Local\Temp\cc14VPUN.s 			page 59


 2761 0a32 AB060000 		.4byte	.LASF196
 2762 0a36 07       		.byte	0x7
 2763 0a37 DD01     		.2byte	0x1dd
 2764 0a39 41030000 		.4byte	0x341
 2765 0a3d 5408     		.2byte	0x854
 2766 0a3f 16       		.uleb128 0x16
 2767 0a40 74050000 		.4byte	.LASF197
 2768 0a44 07       		.byte	0x7
 2769 0a45 DE01     		.2byte	0x1de
 2770 0a47 41030000 		.4byte	0x341
 2771 0a4b 5808     		.2byte	0x858
 2772 0a4d 00       		.byte	0
 2773 0a4e 08       		.uleb128 0x8
 2774 0a4f A5090000 		.4byte	0x9a5
 2775 0a53 5E0A0000 		.4byte	0xa5e
 2776 0a57 09       		.uleb128 0x9
 2777 0a58 ED000000 		.4byte	0xed
 2778 0a5c 2F       		.byte	0x2f
 2779 0a5d 00       		.byte	0
 2780 0a5e 08       		.uleb128 0x8
 2781 0a5f 6E0A0000 		.4byte	0xa6e
 2782 0a63 6E0A0000 		.4byte	0xa6e
 2783 0a67 09       		.uleb128 0x9
 2784 0a68 ED000000 		.4byte	0xed
 2785 0a6c 2F       		.byte	0x2f
 2786 0a6d 00       		.byte	0
 2787 0a6e 12       		.uleb128 0x12
 2788 0a6f 04       		.byte	0x4
 2789 0a70 A5090000 		.4byte	0x9a5
 2790 0a74 19       		.uleb128 0x19
 2791 0a75 6E0A0000 		.4byte	0xa6e
 2792 0a79 830A0000 		.4byte	0xa83
 2793 0a7d 11       		.uleb128 0x11
 2794 0a7e F4000000 		.4byte	0xf4
 2795 0a82 00       		.byte	0
 2796 0a83 12       		.uleb128 0x12
 2797 0a84 04       		.byte	0x4
 2798 0a85 740A0000 		.4byte	0xa74
 2799 0a89 10       		.uleb128 0x10
 2800 0a8a 990A0000 		.4byte	0xa99
 2801 0a8e 11       		.uleb128 0x11
 2802 0a8f F4000000 		.4byte	0xf4
 2803 0a93 11       		.uleb128 0x11
 2804 0a94 6E0A0000 		.4byte	0xa6e
 2805 0a98 00       		.byte	0
 2806 0a99 12       		.uleb128 0x12
 2807 0a9a 04       		.byte	0x4
 2808 0a9b 890A0000 		.4byte	0xa89
 2809 0a9f 05       		.uleb128 0x5
 2810 0aa0 52000000 		.4byte	.LASF198
 2811 0aa4 07       		.byte	0x7
 2812 0aa5 E001     		.2byte	0x1e0
 2813 0aa7 C3090000 		.4byte	0x9c3
 2814 0aab 14       		.uleb128 0x14
 2815 0aac 0C02     		.2byte	0x20c
 2816 0aae 07       		.byte	0x7
 2817 0aaf E201     		.2byte	0x1e2
ARM GAS  C:\Users\RECEPC~1\AppData\Local\Temp\cc14VPUN.s 			page 60


 2818 0ab1 F70A0000 		.4byte	0xaf7
 2819 0ab5 15       		.uleb128 0x15
 2820 0ab6 750D0000 		.4byte	.LASF199
 2821 0aba 07       		.byte	0x7
 2822 0abb E401     		.2byte	0x1e4
 2823 0abd F4000000 		.4byte	0xf4
 2824 0ac1 00       		.byte	0
 2825 0ac2 15       		.uleb128 0x15
 2826 0ac3 C1030000 		.4byte	.LASF200
 2827 0ac7 07       		.byte	0x7
 2828 0ac8 E501     		.2byte	0x1e5
 2829 0aca 19030000 		.4byte	0x319
 2830 0ace 04       		.byte	0x4
 2831 0acf 15       		.uleb128 0x15
 2832 0ad0 C2020000 		.4byte	.LASF164
 2833 0ad4 07       		.byte	0x7
 2834 0ad5 E601     		.2byte	0x1e6
 2835 0ad7 E3000000 		.4byte	0xe3
 2836 0adb 06       		.byte	0x6
 2837 0adc 15       		.uleb128 0x15
 2838 0add 8A000000 		.4byte	.LASF161
 2839 0ae1 07       		.byte	0x7
 2840 0ae2 E701     		.2byte	0x1e7
 2841 0ae4 9D080000 		.4byte	0x89d
 2842 0ae8 08       		.byte	0x8
 2843 0ae9 15       		.uleb128 0x15
 2844 0aea A1050000 		.4byte	.LASF141
 2845 0aee 07       		.byte	0x7
 2846 0aef E801     		.2byte	0x1e8
 2847 0af1 F70A0000 		.4byte	0xaf7
 2848 0af5 0C       		.byte	0xc
 2849 0af6 00       		.byte	0
 2850 0af7 08       		.uleb128 0x8
 2851 0af8 CB000000 		.4byte	0xcb
 2852 0afc 080B0000 		.4byte	0xb08
 2853 0b00 0F       		.uleb128 0xf
 2854 0b01 ED000000 		.4byte	0xed
 2855 0b05 FF01     		.2byte	0x1ff
 2856 0b07 00       		.byte	0
 2857 0b08 05       		.uleb128 0x5
 2858 0b09 D5010000 		.4byte	.LASF201
 2859 0b0d 07       		.byte	0x7
 2860 0b0e EA01     		.2byte	0x1ea
 2861 0b10 AB0A0000 		.4byte	0xaab
 2862 0b14 1B       		.uleb128 0x1b
 2863 0b15 120B0000 		.4byte	.LASF204
 2864 0b19 01       		.byte	0x1
 2865 0b1a 3B       		.byte	0x3b
 2866 0b1b 00000000 		.4byte	.LFB63
 2867 0b1f F8000000 		.4byte	.LFE63-.LFB63
 2868 0b23 01       		.uleb128 0x1
 2869 0b24 9C       		.byte	0x9c
 2870 0b25 500B0000 		.4byte	0xb50
 2871 0b29 1C       		.uleb128 0x1c
 2872 0b2a 870C0000 		.4byte	.LASF202
 2873 0b2e 01       		.byte	0x1
 2874 0b2f 3D       		.byte	0x3d
ARM GAS  C:\Users\RECEPC~1\AppData\Local\Temp\cc14VPUN.s 			page 61


 2875 0b30 B1090000 		.4byte	0x9b1
 2876 0b34 02       		.uleb128 0x2
 2877 0b35 91       		.byte	0x91
 2878 0b36 6C       		.sleb128 -20
 2879 0b37 1D       		.uleb128 0x1d
 2880 0b38 2A000000 		.4byte	.LBB2
 2881 0b3c C0000000 		.4byte	.LBE2-.LBB2
 2882 0b40 1C       		.uleb128 0x1c
 2883 0b41 A7020000 		.4byte	.LASF203
 2884 0b45 01       		.byte	0x1
 2885 0b46 43       		.byte	0x43
 2886 0b47 A5000000 		.4byte	0xa5
 2887 0b4b 02       		.uleb128 0x2
 2888 0b4c 91       		.byte	0x91
 2889 0b4d 68       		.sleb128 -24
 2890 0b4e 00       		.byte	0
 2891 0b4f 00       		.byte	0
 2892 0b50 1B       		.uleb128 0x1b
 2893 0b51 090A0000 		.4byte	.LASF205
 2894 0b55 01       		.byte	0x1
 2895 0b56 65       		.byte	0x65
 2896 0b57 00000000 		.4byte	.LFB64
 2897 0b5b B0020000 		.4byte	.LFE64-.LFB64
 2898 0b5f 01       		.uleb128 0x1
 2899 0b60 9C       		.byte	0x9c
 2900 0b61 B60B0000 		.4byte	0xbb6
 2901 0b65 1C       		.uleb128 0x1c
 2902 0b66 870C0000 		.4byte	.LASF202
 2903 0b6a 01       		.byte	0x1
 2904 0b6b 6E       		.byte	0x6e
 2905 0b6c B1090000 		.4byte	0x9b1
 2906 0b70 02       		.uleb128 0x2
 2907 0b71 91       		.byte	0x91
 2908 0b72 74       		.sleb128 -12
 2909 0b73 1D       		.uleb128 0x1d
 2910 0b74 36000000 		.4byte	.LBB3
 2911 0b78 34020000 		.4byte	.LBE3-.LBB3
 2912 0b7c 1C       		.uleb128 0x1c
 2913 0b7d 26090000 		.4byte	.LASF206
 2914 0b81 01       		.byte	0x1
 2915 0b82 76       		.byte	0x76
 2916 0b83 1E030000 		.4byte	0x31e
 2917 0b87 02       		.uleb128 0x2
 2918 0b88 91       		.byte	0x91
 2919 0b89 73       		.sleb128 -13
 2920 0b8a 1C       		.uleb128 0x1c
 2921 0b8b 920E0000 		.4byte	.LASF207
 2922 0b8f 01       		.byte	0x1
 2923 0b90 77       		.byte	0x77
 2924 0b91 1E030000 		.4byte	0x31e
 2925 0b95 02       		.uleb128 0x2
 2926 0b96 91       		.byte	0x91
 2927 0b97 72       		.sleb128 -14
 2928 0b98 1C       		.uleb128 0x1c
 2929 0b99 9A060000 		.4byte	.LASF208
 2930 0b9d 01       		.byte	0x1
 2931 0b9e 78       		.byte	0x78
ARM GAS  C:\Users\RECEPC~1\AppData\Local\Temp\cc14VPUN.s 			page 62


 2932 0b9f 1E030000 		.4byte	0x31e
 2933 0ba3 02       		.uleb128 0x2
 2934 0ba4 91       		.byte	0x91
 2935 0ba5 71       		.sleb128 -15
 2936 0ba6 1C       		.uleb128 0x1c
 2937 0ba7 8C0C0000 		.4byte	.LASF209
 2938 0bab 01       		.byte	0x1
 2939 0bac 79       		.byte	0x79
 2940 0bad 81000000 		.4byte	0x81
 2941 0bb1 02       		.uleb128 0x2
 2942 0bb2 91       		.byte	0x91
 2943 0bb3 70       		.sleb128 -16
 2944 0bb4 00       		.byte	0
 2945 0bb5 00       		.byte	0
 2946 0bb6 1E       		.uleb128 0x1e
 2947 0bb7 B60A0000 		.4byte	.LASF224
 2948 0bbb 01       		.byte	0x1
 2949 0bbc EB       		.byte	0xeb
 2950 0bbd 00000000 		.4byte	.LFB65
 2951 0bc1 84000000 		.4byte	.LFE65-.LFB65
 2952 0bc5 01       		.uleb128 0x1
 2953 0bc6 9C       		.byte	0x9c
 2954 0bc7 E80B0000 		.4byte	0xbe8
 2955 0bcb 1F       		.uleb128 0x1f
 2956 0bcc AB050000 		.4byte	.LASF225
 2957 0bd0 01       		.byte	0x1
 2958 0bd1 EB       		.byte	0xeb
 2959 0bd2 F4000000 		.4byte	0xf4
 2960 0bd6 02       		.uleb128 0x2
 2961 0bd7 91       		.byte	0x91
 2962 0bd8 6C       		.sleb128 -20
 2963 0bd9 1C       		.uleb128 0x1c
 2964 0bda 870C0000 		.4byte	.LASF202
 2965 0bde 01       		.byte	0x1
 2966 0bdf F0       		.byte	0xf0
 2967 0be0 B1090000 		.4byte	0x9b1
 2968 0be4 02       		.uleb128 0x2
 2969 0be5 91       		.byte	0x91
 2970 0be6 74       		.sleb128 -12
 2971 0be7 00       		.byte	0
 2972 0be8 20       		.uleb128 0x20
 2973 0be9 0B070000 		.4byte	.LASF210
 2974 0bed 01       		.byte	0x1
 2975 0bee 0401     		.2byte	0x104
 2976 0bf0 00000000 		.4byte	.LFB66
 2977 0bf4 50020000 		.4byte	.LFE66-.LFB66
 2978 0bf8 01       		.uleb128 0x1
 2979 0bf9 9C       		.byte	0x9c
 2980 0bfa 540C0000 		.4byte	0xc54
 2981 0bfe 21       		.uleb128 0x21
 2982 0bff 870C0000 		.4byte	.LASF202
 2983 0c03 01       		.byte	0x1
 2984 0c04 0601     		.2byte	0x106
 2985 0c06 B1090000 		.4byte	0x9b1
 2986 0c0a 02       		.uleb128 0x2
 2987 0c0b 91       		.byte	0x91
 2988 0c0c 74       		.sleb128 -12
ARM GAS  C:\Users\RECEPC~1\AppData\Local\Temp\cc14VPUN.s 			page 63


 2989 0c0d 1D       		.uleb128 0x1d
 2990 0c0e 24000000 		.4byte	.LBB4
 2991 0c12 18020000 		.4byte	.LBE4-.LBB4
 2992 0c16 21       		.uleb128 0x21
 2993 0c17 26090000 		.4byte	.LASF206
 2994 0c1b 01       		.byte	0x1
 2995 0c1c 0901     		.2byte	0x109
 2996 0c1e 1E030000 		.4byte	0x31e
 2997 0c22 02       		.uleb128 0x2
 2998 0c23 91       		.byte	0x91
 2999 0c24 73       		.sleb128 -13
 3000 0c25 21       		.uleb128 0x21
 3001 0c26 47030000 		.4byte	.LASF211
 3002 0c2a 01       		.byte	0x1
 3003 0c2b 0A01     		.2byte	0x10a
 3004 0c2d 1E030000 		.4byte	0x31e
 3005 0c31 02       		.uleb128 0x2
 3006 0c32 91       		.byte	0x91
 3007 0c33 72       		.sleb128 -14
 3008 0c34 21       		.uleb128 0x21
 3009 0c35 2B050000 		.4byte	.LASF212
 3010 0c39 01       		.byte	0x1
 3011 0c3a 0B01     		.2byte	0x10b
 3012 0c3c 1E030000 		.4byte	0x31e
 3013 0c40 02       		.uleb128 0x2
 3014 0c41 91       		.byte	0x91
 3015 0c42 71       		.sleb128 -15
 3016 0c43 21       		.uleb128 0x21
 3017 0c44 8C0C0000 		.4byte	.LASF209
 3018 0c48 01       		.byte	0x1
 3019 0c49 1201     		.2byte	0x112
 3020 0c4b 81000000 		.4byte	0x81
 3021 0c4f 02       		.uleb128 0x2
 3022 0c50 91       		.byte	0x91
 3023 0c51 70       		.sleb128 -16
 3024 0c52 00       		.byte	0
 3025 0c53 00       		.byte	0
 3026 0c54 20       		.uleb128 0x20
 3027 0c55 11050000 		.4byte	.LASF213
 3028 0c59 01       		.byte	0x1
 3029 0c5a 7401     		.2byte	0x174
 3030 0c5c 00000000 		.4byte	.LFB67
 3031 0c60 BC020000 		.4byte	.LFE67-.LFB67
 3032 0c64 01       		.uleb128 0x1
 3033 0c65 9C       		.byte	0x9c
 3034 0c66 BF0C0000 		.4byte	0xcbf
 3035 0c6a 21       		.uleb128 0x21
 3036 0c6b B5070000 		.4byte	.LASF214
 3037 0c6f 01       		.byte	0x1
 3038 0c70 7801     		.2byte	0x178
 3039 0c72 A9030000 		.4byte	0x3a9
 3040 0c76 02       		.uleb128 0x2
 3041 0c77 91       		.byte	0x91
 3042 0c78 74       		.sleb128 -12
 3043 0c79 21       		.uleb128 0x21
 3044 0c7a B0020000 		.4byte	.LASF215
 3045 0c7e 01       		.byte	0x1
ARM GAS  C:\Users\RECEPC~1\AppData\Local\Temp\cc14VPUN.s 			page 64


 3046 0c7f E701     		.2byte	0x1e7
 3047 0c81 47030000 		.4byte	0x347
 3048 0c85 02       		.uleb128 0x2
 3049 0c86 91       		.byte	0x91
 3050 0c87 6C       		.sleb128 -20
 3051 0c88 22       		.uleb128 0x22
 3052 0c89 16000000 		.4byte	.LBB5
 3053 0c8d 90000000 		.4byte	.LBE5-.LBB5
 3054 0c91 A50C0000 		.4byte	0xca5
 3055 0c95 21       		.uleb128 0x21
 3056 0c96 8C0C0000 		.4byte	.LASF209
 3057 0c9a 01       		.byte	0x1
 3058 0c9b 7B01     		.2byte	0x17b
 3059 0c9d 81000000 		.4byte	0x81
 3060 0ca1 02       		.uleb128 0x2
 3061 0ca2 91       		.byte	0x91
 3062 0ca3 73       		.sleb128 -13
 3063 0ca4 00       		.byte	0
 3064 0ca5 1D       		.uleb128 0x1d
 3065 0ca6 B2000000 		.4byte	.LBB6
 3066 0caa E4000000 		.4byte	.LBE6-.LBB6
 3067 0cae 21       		.uleb128 0x21
 3068 0caf 8C0C0000 		.4byte	.LASF209
 3069 0cb3 01       		.byte	0x1
 3070 0cb4 9F01     		.2byte	0x19f
 3071 0cb6 81000000 		.4byte	0x81
 3072 0cba 02       		.uleb128 0x2
 3073 0cbb 91       		.byte	0x91
 3074 0cbc 72       		.sleb128 -14
 3075 0cbd 00       		.byte	0
 3076 0cbe 00       		.byte	0
 3077 0cbf 23       		.uleb128 0x23
 3078 0cc0 C8010000 		.4byte	.LASF216
 3079 0cc4 08       		.byte	0x8
 3080 0cc5 5506     		.2byte	0x655
 3081 0cc7 CB0C0000 		.4byte	0xccb
 3082 0ccb 06       		.uleb128 0x6
 3083 0ccc 76000000 		.4byte	0x76
 3084 0cd0 23       		.uleb128 0x23
 3085 0cd1 9F000000 		.4byte	.LASF217
 3086 0cd5 07       		.byte	0x7
 3087 0cd6 4F02     		.2byte	0x24f
 3088 0cd8 9F0A0000 		.4byte	0xa9f
 3089 0cdc 24       		.uleb128 0x24
 3090 0cdd 310C0000 		.4byte	.LASF218
 3091 0ce1 01       		.byte	0x1
 3092 0ce2 16       		.byte	0x16
 3093 0ce3 080B0000 		.4byte	0xb08
 3094 0ce7 25       		.uleb128 0x25
 3095 0ce8 10030000 		.4byte	.LASF219
 3096 0cec 01       		.byte	0x1
 3097 0ced 1E       		.byte	0x1e
 3098 0cee 8D000000 		.4byte	0x8d
 3099 0cf2 05       		.uleb128 0x5
 3100 0cf3 03       		.byte	0x3
 3101 0cf4 00000000 		.4byte	_g_dispenserupdatetimeout
 3102 0cf8 25       		.uleb128 0x25
ARM GAS  C:\Users\RECEPC~1\AppData\Local\Temp\cc14VPUN.s 			page 65


 3103 0cf9 510D0000 		.4byte	.LASF220
 3104 0cfd 01       		.byte	0x1
 3105 0cfe 1F       		.byte	0x1f
 3106 0cff 8D000000 		.4byte	0x8d
 3107 0d03 05       		.uleb128 0x5
 3108 0d04 03       		.byte	0x3
 3109 0d05 00000000 		.4byte	_g_dispenserupdatetimeoutmultiplier
 3110 0d09 00       		.byte	0
 3111              		.section	.debug_abbrev,"",%progbits
 3112              	.Ldebug_abbrev0:
 3113 0000 01       		.uleb128 0x1
 3114 0001 11       		.uleb128 0x11
 3115 0002 01       		.byte	0x1
 3116 0003 25       		.uleb128 0x25
 3117 0004 0E       		.uleb128 0xe
 3118 0005 13       		.uleb128 0x13
 3119 0006 0B       		.uleb128 0xb
 3120 0007 03       		.uleb128 0x3
 3121 0008 0E       		.uleb128 0xe
 3122 0009 1B       		.uleb128 0x1b
 3123 000a 0E       		.uleb128 0xe
 3124 000b 55       		.uleb128 0x55
 3125 000c 17       		.uleb128 0x17
 3126 000d 11       		.uleb128 0x11
 3127 000e 01       		.uleb128 0x1
 3128 000f 10       		.uleb128 0x10
 3129 0010 17       		.uleb128 0x17
 3130 0011 00       		.byte	0
 3131 0012 00       		.byte	0
 3132 0013 02       		.uleb128 0x2
 3133 0014 24       		.uleb128 0x24
 3134 0015 00       		.byte	0
 3135 0016 0B       		.uleb128 0xb
 3136 0017 0B       		.uleb128 0xb
 3137 0018 3E       		.uleb128 0x3e
 3138 0019 0B       		.uleb128 0xb
 3139 001a 03       		.uleb128 0x3
 3140 001b 0E       		.uleb128 0xe
 3141 001c 00       		.byte	0
 3142 001d 00       		.byte	0
 3143 001e 03       		.uleb128 0x3
 3144 001f 16       		.uleb128 0x16
 3145 0020 00       		.byte	0
 3146 0021 03       		.uleb128 0x3
 3147 0022 0E       		.uleb128 0xe
 3148 0023 3A       		.uleb128 0x3a
 3149 0024 0B       		.uleb128 0xb
 3150 0025 3B       		.uleb128 0x3b
 3151 0026 0B       		.uleb128 0xb
 3152 0027 49       		.uleb128 0x49
 3153 0028 13       		.uleb128 0x13
 3154 0029 00       		.byte	0
 3155 002a 00       		.byte	0
 3156 002b 04       		.uleb128 0x4
 3157 002c 24       		.uleb128 0x24
 3158 002d 00       		.byte	0
 3159 002e 0B       		.uleb128 0xb
ARM GAS  C:\Users\RECEPC~1\AppData\Local\Temp\cc14VPUN.s 			page 66


 3160 002f 0B       		.uleb128 0xb
 3161 0030 3E       		.uleb128 0x3e
 3162 0031 0B       		.uleb128 0xb
 3163 0032 03       		.uleb128 0x3
 3164 0033 08       		.uleb128 0x8
 3165 0034 00       		.byte	0
 3166 0035 00       		.byte	0
 3167 0036 05       		.uleb128 0x5
 3168 0037 16       		.uleb128 0x16
 3169 0038 00       		.byte	0
 3170 0039 03       		.uleb128 0x3
 3171 003a 0E       		.uleb128 0xe
 3172 003b 3A       		.uleb128 0x3a
 3173 003c 0B       		.uleb128 0xb
 3174 003d 3B       		.uleb128 0x3b
 3175 003e 05       		.uleb128 0x5
 3176 003f 49       		.uleb128 0x49
 3177 0040 13       		.uleb128 0x13
 3178 0041 00       		.byte	0
 3179 0042 00       		.byte	0
 3180 0043 06       		.uleb128 0x6
 3181 0044 35       		.uleb128 0x35
 3182 0045 00       		.byte	0
 3183 0046 49       		.uleb128 0x49
 3184 0047 13       		.uleb128 0x13
 3185 0048 00       		.byte	0
 3186 0049 00       		.byte	0
 3187 004a 07       		.uleb128 0x7
 3188 004b 0F       		.uleb128 0xf
 3189 004c 00       		.byte	0
 3190 004d 0B       		.uleb128 0xb
 3191 004e 0B       		.uleb128 0xb
 3192 004f 00       		.byte	0
 3193 0050 00       		.byte	0
 3194 0051 08       		.uleb128 0x8
 3195 0052 01       		.uleb128 0x1
 3196 0053 01       		.byte	0x1
 3197 0054 49       		.uleb128 0x49
 3198 0055 13       		.uleb128 0x13
 3199 0056 01       		.uleb128 0x1
 3200 0057 13       		.uleb128 0x13
 3201 0058 00       		.byte	0
 3202 0059 00       		.byte	0
 3203 005a 09       		.uleb128 0x9
 3204 005b 21       		.uleb128 0x21
 3205 005c 00       		.byte	0
 3206 005d 49       		.uleb128 0x49
 3207 005e 13       		.uleb128 0x13
 3208 005f 2F       		.uleb128 0x2f
 3209 0060 0B       		.uleb128 0xb
 3210 0061 00       		.byte	0
 3211 0062 00       		.byte	0
 3212 0063 0A       		.uleb128 0xa
 3213 0064 04       		.uleb128 0x4
 3214 0065 01       		.byte	0x1
 3215 0066 03       		.uleb128 0x3
 3216 0067 0E       		.uleb128 0xe
ARM GAS  C:\Users\RECEPC~1\AppData\Local\Temp\cc14VPUN.s 			page 67


 3217 0068 0B       		.uleb128 0xb
 3218 0069 0B       		.uleb128 0xb
 3219 006a 3A       		.uleb128 0x3a
 3220 006b 0B       		.uleb128 0xb
 3221 006c 3B       		.uleb128 0x3b
 3222 006d 0B       		.uleb128 0xb
 3223 006e 01       		.uleb128 0x1
 3224 006f 13       		.uleb128 0x13
 3225 0070 00       		.byte	0
 3226 0071 00       		.byte	0
 3227 0072 0B       		.uleb128 0xb
 3228 0073 28       		.uleb128 0x28
 3229 0074 00       		.byte	0
 3230 0075 03       		.uleb128 0x3
 3231 0076 0E       		.uleb128 0xe
 3232 0077 1C       		.uleb128 0x1c
 3233 0078 0D       		.uleb128 0xd
 3234 0079 00       		.byte	0
 3235 007a 00       		.byte	0
 3236 007b 0C       		.uleb128 0xc
 3237 007c 13       		.uleb128 0x13
 3238 007d 01       		.byte	0x1
 3239 007e 03       		.uleb128 0x3
 3240 007f 0E       		.uleb128 0xe
 3241 0080 0B       		.uleb128 0xb
 3242 0081 05       		.uleb128 0x5
 3243 0082 3A       		.uleb128 0x3a
 3244 0083 0B       		.uleb128 0xb
 3245 0084 3B       		.uleb128 0x3b
 3246 0085 0B       		.uleb128 0xb
 3247 0086 01       		.uleb128 0x1
 3248 0087 13       		.uleb128 0x13
 3249 0088 00       		.byte	0
 3250 0089 00       		.byte	0
 3251 008a 0D       		.uleb128 0xd
 3252 008b 0D       		.uleb128 0xd
 3253 008c 00       		.byte	0
 3254 008d 03       		.uleb128 0x3
 3255 008e 0E       		.uleb128 0xe
 3256 008f 3A       		.uleb128 0x3a
 3257 0090 0B       		.uleb128 0xb
 3258 0091 3B       		.uleb128 0x3b
 3259 0092 0B       		.uleb128 0xb
 3260 0093 49       		.uleb128 0x49
 3261 0094 13       		.uleb128 0x13
 3262 0095 38       		.uleb128 0x38
 3263 0096 0B       		.uleb128 0xb
 3264 0097 00       		.byte	0
 3265 0098 00       		.byte	0
 3266 0099 0E       		.uleb128 0xe
 3267 009a 0D       		.uleb128 0xd
 3268 009b 00       		.byte	0
 3269 009c 03       		.uleb128 0x3
 3270 009d 0E       		.uleb128 0xe
 3271 009e 3A       		.uleb128 0x3a
 3272 009f 0B       		.uleb128 0xb
 3273 00a0 3B       		.uleb128 0x3b
ARM GAS  C:\Users\RECEPC~1\AppData\Local\Temp\cc14VPUN.s 			page 68


 3274 00a1 0B       		.uleb128 0xb
 3275 00a2 49       		.uleb128 0x49
 3276 00a3 13       		.uleb128 0x13
 3277 00a4 38       		.uleb128 0x38
 3278 00a5 05       		.uleb128 0x5
 3279 00a6 00       		.byte	0
 3280 00a7 00       		.byte	0
 3281 00a8 0F       		.uleb128 0xf
 3282 00a9 21       		.uleb128 0x21
 3283 00aa 00       		.byte	0
 3284 00ab 49       		.uleb128 0x49
 3285 00ac 13       		.uleb128 0x13
 3286 00ad 2F       		.uleb128 0x2f
 3287 00ae 05       		.uleb128 0x5
 3288 00af 00       		.byte	0
 3289 00b0 00       		.byte	0
 3290 00b1 10       		.uleb128 0x10
 3291 00b2 15       		.uleb128 0x15
 3292 00b3 01       		.byte	0x1
 3293 00b4 27       		.uleb128 0x27
 3294 00b5 19       		.uleb128 0x19
 3295 00b6 01       		.uleb128 0x1
 3296 00b7 13       		.uleb128 0x13
 3297 00b8 00       		.byte	0
 3298 00b9 00       		.byte	0
 3299 00ba 11       		.uleb128 0x11
 3300 00bb 05       		.uleb128 0x5
 3301 00bc 00       		.byte	0
 3302 00bd 49       		.uleb128 0x49
 3303 00be 13       		.uleb128 0x13
 3304 00bf 00       		.byte	0
 3305 00c0 00       		.byte	0
 3306 00c1 12       		.uleb128 0x12
 3307 00c2 0F       		.uleb128 0xf
 3308 00c3 00       		.byte	0
 3309 00c4 0B       		.uleb128 0xb
 3310 00c5 0B       		.uleb128 0xb
 3311 00c6 49       		.uleb128 0x49
 3312 00c7 13       		.uleb128 0x13
 3313 00c8 00       		.byte	0
 3314 00c9 00       		.byte	0
 3315 00ca 13       		.uleb128 0x13
 3316 00cb 13       		.uleb128 0x13
 3317 00cc 01       		.byte	0x1
 3318 00cd 03       		.uleb128 0x3
 3319 00ce 0E       		.uleb128 0xe
 3320 00cf 0B       		.uleb128 0xb
 3321 00d0 0B       		.uleb128 0xb
 3322 00d1 3A       		.uleb128 0x3a
 3323 00d2 0B       		.uleb128 0xb
 3324 00d3 3B       		.uleb128 0x3b
 3325 00d4 0B       		.uleb128 0xb
 3326 00d5 01       		.uleb128 0x1
 3327 00d6 13       		.uleb128 0x13
 3328 00d7 00       		.byte	0
 3329 00d8 00       		.byte	0
 3330 00d9 14       		.uleb128 0x14
ARM GAS  C:\Users\RECEPC~1\AppData\Local\Temp\cc14VPUN.s 			page 69


 3331 00da 13       		.uleb128 0x13
 3332 00db 01       		.byte	0x1
 3333 00dc 0B       		.uleb128 0xb
 3334 00dd 05       		.uleb128 0x5
 3335 00de 3A       		.uleb128 0x3a
 3336 00df 0B       		.uleb128 0xb
 3337 00e0 3B       		.uleb128 0x3b
 3338 00e1 05       		.uleb128 0x5
 3339 00e2 01       		.uleb128 0x1
 3340 00e3 13       		.uleb128 0x13
 3341 00e4 00       		.byte	0
 3342 00e5 00       		.byte	0
 3343 00e6 15       		.uleb128 0x15
 3344 00e7 0D       		.uleb128 0xd
 3345 00e8 00       		.byte	0
 3346 00e9 03       		.uleb128 0x3
 3347 00ea 0E       		.uleb128 0xe
 3348 00eb 3A       		.uleb128 0x3a
 3349 00ec 0B       		.uleb128 0xb
 3350 00ed 3B       		.uleb128 0x3b
 3351 00ee 05       		.uleb128 0x5
 3352 00ef 49       		.uleb128 0x49
 3353 00f0 13       		.uleb128 0x13
 3354 00f1 38       		.uleb128 0x38
 3355 00f2 0B       		.uleb128 0xb
 3356 00f3 00       		.byte	0
 3357 00f4 00       		.byte	0
 3358 00f5 16       		.uleb128 0x16
 3359 00f6 0D       		.uleb128 0xd
 3360 00f7 00       		.byte	0
 3361 00f8 03       		.uleb128 0x3
 3362 00f9 0E       		.uleb128 0xe
 3363 00fa 3A       		.uleb128 0x3a
 3364 00fb 0B       		.uleb128 0xb
 3365 00fc 3B       		.uleb128 0x3b
 3366 00fd 05       		.uleb128 0x5
 3367 00fe 49       		.uleb128 0x49
 3368 00ff 13       		.uleb128 0x13
 3369 0100 38       		.uleb128 0x38
 3370 0101 05       		.uleb128 0x5
 3371 0102 00       		.byte	0
 3372 0103 00       		.byte	0
 3373 0104 17       		.uleb128 0x17
 3374 0105 13       		.uleb128 0x13
 3375 0106 01       		.byte	0x1
 3376 0107 0B       		.uleb128 0xb
 3377 0108 0B       		.uleb128 0xb
 3378 0109 3A       		.uleb128 0x3a
 3379 010a 0B       		.uleb128 0xb
 3380 010b 3B       		.uleb128 0x3b
 3381 010c 05       		.uleb128 0x5
 3382 010d 01       		.uleb128 0x1
 3383 010e 13       		.uleb128 0x13
 3384 010f 00       		.byte	0
 3385 0110 00       		.byte	0
 3386 0111 18       		.uleb128 0x18
 3387 0112 13       		.uleb128 0x13
ARM GAS  C:\Users\RECEPC~1\AppData\Local\Temp\cc14VPUN.s 			page 70


 3388 0113 01       		.byte	0x1
 3389 0114 03       		.uleb128 0x3
 3390 0115 0E       		.uleb128 0xe
 3391 0116 0B       		.uleb128 0xb
 3392 0117 05       		.uleb128 0x5
 3393 0118 3A       		.uleb128 0x3a
 3394 0119 0B       		.uleb128 0xb
 3395 011a 3B       		.uleb128 0x3b
 3396 011b 05       		.uleb128 0x5
 3397 011c 01       		.uleb128 0x1
 3398 011d 13       		.uleb128 0x13
 3399 011e 00       		.byte	0
 3400 011f 00       		.byte	0
 3401 0120 19       		.uleb128 0x19
 3402 0121 15       		.uleb128 0x15
 3403 0122 01       		.byte	0x1
 3404 0123 27       		.uleb128 0x27
 3405 0124 19       		.uleb128 0x19
 3406 0125 49       		.uleb128 0x49
 3407 0126 13       		.uleb128 0x13
 3408 0127 01       		.uleb128 0x1
 3409 0128 13       		.uleb128 0x13
 3410 0129 00       		.byte	0
 3411 012a 00       		.byte	0
 3412 012b 1A       		.uleb128 0x1a
 3413 012c 13       		.uleb128 0x13
 3414 012d 01       		.byte	0x1
 3415 012e 03       		.uleb128 0x3
 3416 012f 0E       		.uleb128 0xe
 3417 0130 0B       		.uleb128 0xb
 3418 0131 0B       		.uleb128 0xb
 3419 0132 3A       		.uleb128 0x3a
 3420 0133 0B       		.uleb128 0xb
 3421 0134 3B       		.uleb128 0x3b
 3422 0135 05       		.uleb128 0x5
 3423 0136 01       		.uleb128 0x1
 3424 0137 13       		.uleb128 0x13
 3425 0138 00       		.byte	0
 3426 0139 00       		.byte	0
 3427 013a 1B       		.uleb128 0x1b
 3428 013b 2E       		.uleb128 0x2e
 3429 013c 01       		.byte	0x1
 3430 013d 3F       		.uleb128 0x3f
 3431 013e 19       		.uleb128 0x19
 3432 013f 03       		.uleb128 0x3
 3433 0140 0E       		.uleb128 0xe
 3434 0141 3A       		.uleb128 0x3a
 3435 0142 0B       		.uleb128 0xb
 3436 0143 3B       		.uleb128 0x3b
 3437 0144 0B       		.uleb128 0xb
 3438 0145 11       		.uleb128 0x11
 3439 0146 01       		.uleb128 0x1
 3440 0147 12       		.uleb128 0x12
 3441 0148 06       		.uleb128 0x6
 3442 0149 40       		.uleb128 0x40
 3443 014a 18       		.uleb128 0x18
 3444 014b 9642     		.uleb128 0x2116
ARM GAS  C:\Users\RECEPC~1\AppData\Local\Temp\cc14VPUN.s 			page 71


 3445 014d 19       		.uleb128 0x19
 3446 014e 01       		.uleb128 0x1
 3447 014f 13       		.uleb128 0x13
 3448 0150 00       		.byte	0
 3449 0151 00       		.byte	0
 3450 0152 1C       		.uleb128 0x1c
 3451 0153 34       		.uleb128 0x34
 3452 0154 00       		.byte	0
 3453 0155 03       		.uleb128 0x3
 3454 0156 0E       		.uleb128 0xe
 3455 0157 3A       		.uleb128 0x3a
 3456 0158 0B       		.uleb128 0xb
 3457 0159 3B       		.uleb128 0x3b
 3458 015a 0B       		.uleb128 0xb
 3459 015b 49       		.uleb128 0x49
 3460 015c 13       		.uleb128 0x13
 3461 015d 02       		.uleb128 0x2
 3462 015e 18       		.uleb128 0x18
 3463 015f 00       		.byte	0
 3464 0160 00       		.byte	0
 3465 0161 1D       		.uleb128 0x1d
 3466 0162 0B       		.uleb128 0xb
 3467 0163 01       		.byte	0x1
 3468 0164 11       		.uleb128 0x11
 3469 0165 01       		.uleb128 0x1
 3470 0166 12       		.uleb128 0x12
 3471 0167 06       		.uleb128 0x6
 3472 0168 00       		.byte	0
 3473 0169 00       		.byte	0
 3474 016a 1E       		.uleb128 0x1e
 3475 016b 2E       		.uleb128 0x2e
 3476 016c 01       		.byte	0x1
 3477 016d 3F       		.uleb128 0x3f
 3478 016e 19       		.uleb128 0x19
 3479 016f 03       		.uleb128 0x3
 3480 0170 0E       		.uleb128 0xe
 3481 0171 3A       		.uleb128 0x3a
 3482 0172 0B       		.uleb128 0xb
 3483 0173 3B       		.uleb128 0x3b
 3484 0174 0B       		.uleb128 0xb
 3485 0175 27       		.uleb128 0x27
 3486 0176 19       		.uleb128 0x19
 3487 0177 11       		.uleb128 0x11
 3488 0178 01       		.uleb128 0x1
 3489 0179 12       		.uleb128 0x12
 3490 017a 06       		.uleb128 0x6
 3491 017b 40       		.uleb128 0x40
 3492 017c 18       		.uleb128 0x18
 3493 017d 9642     		.uleb128 0x2116
 3494 017f 19       		.uleb128 0x19
 3495 0180 01       		.uleb128 0x1
 3496 0181 13       		.uleb128 0x13
 3497 0182 00       		.byte	0
 3498 0183 00       		.byte	0
 3499 0184 1F       		.uleb128 0x1f
 3500 0185 05       		.uleb128 0x5
 3501 0186 00       		.byte	0
ARM GAS  C:\Users\RECEPC~1\AppData\Local\Temp\cc14VPUN.s 			page 72


 3502 0187 03       		.uleb128 0x3
 3503 0188 0E       		.uleb128 0xe
 3504 0189 3A       		.uleb128 0x3a
 3505 018a 0B       		.uleb128 0xb
 3506 018b 3B       		.uleb128 0x3b
 3507 018c 0B       		.uleb128 0xb
 3508 018d 49       		.uleb128 0x49
 3509 018e 13       		.uleb128 0x13
 3510 018f 02       		.uleb128 0x2
 3511 0190 18       		.uleb128 0x18
 3512 0191 00       		.byte	0
 3513 0192 00       		.byte	0
 3514 0193 20       		.uleb128 0x20
 3515 0194 2E       		.uleb128 0x2e
 3516 0195 01       		.byte	0x1
 3517 0196 3F       		.uleb128 0x3f
 3518 0197 19       		.uleb128 0x19
 3519 0198 03       		.uleb128 0x3
 3520 0199 0E       		.uleb128 0xe
 3521 019a 3A       		.uleb128 0x3a
 3522 019b 0B       		.uleb128 0xb
 3523 019c 3B       		.uleb128 0x3b
 3524 019d 05       		.uleb128 0x5
 3525 019e 11       		.uleb128 0x11
 3526 019f 01       		.uleb128 0x1
 3527 01a0 12       		.uleb128 0x12
 3528 01a1 06       		.uleb128 0x6
 3529 01a2 40       		.uleb128 0x40
 3530 01a3 18       		.uleb128 0x18
 3531 01a4 9642     		.uleb128 0x2116
 3532 01a6 19       		.uleb128 0x19
 3533 01a7 01       		.uleb128 0x1
 3534 01a8 13       		.uleb128 0x13
 3535 01a9 00       		.byte	0
 3536 01aa 00       		.byte	0
 3537 01ab 21       		.uleb128 0x21
 3538 01ac 34       		.uleb128 0x34
 3539 01ad 00       		.byte	0
 3540 01ae 03       		.uleb128 0x3
 3541 01af 0E       		.uleb128 0xe
 3542 01b0 3A       		.uleb128 0x3a
 3543 01b1 0B       		.uleb128 0xb
 3544 01b2 3B       		.uleb128 0x3b
 3545 01b3 05       		.uleb128 0x5
 3546 01b4 49       		.uleb128 0x49
 3547 01b5 13       		.uleb128 0x13
 3548 01b6 02       		.uleb128 0x2
 3549 01b7 18       		.uleb128 0x18
 3550 01b8 00       		.byte	0
 3551 01b9 00       		.byte	0
 3552 01ba 22       		.uleb128 0x22
 3553 01bb 0B       		.uleb128 0xb
 3554 01bc 01       		.byte	0x1
 3555 01bd 11       		.uleb128 0x11
 3556 01be 01       		.uleb128 0x1
 3557 01bf 12       		.uleb128 0x12
 3558 01c0 06       		.uleb128 0x6
ARM GAS  C:\Users\RECEPC~1\AppData\Local\Temp\cc14VPUN.s 			page 73


 3559 01c1 01       		.uleb128 0x1
 3560 01c2 13       		.uleb128 0x13
 3561 01c3 00       		.byte	0
 3562 01c4 00       		.byte	0
 3563 01c5 23       		.uleb128 0x23
 3564 01c6 34       		.uleb128 0x34
 3565 01c7 00       		.byte	0
 3566 01c8 03       		.uleb128 0x3
 3567 01c9 0E       		.uleb128 0xe
 3568 01ca 3A       		.uleb128 0x3a
 3569 01cb 0B       		.uleb128 0xb
 3570 01cc 3B       		.uleb128 0x3b
 3571 01cd 05       		.uleb128 0x5
 3572 01ce 49       		.uleb128 0x49
 3573 01cf 13       		.uleb128 0x13
 3574 01d0 3F       		.uleb128 0x3f
 3575 01d1 19       		.uleb128 0x19
 3576 01d2 3C       		.uleb128 0x3c
 3577 01d3 19       		.uleb128 0x19
 3578 01d4 00       		.byte	0
 3579 01d5 00       		.byte	0
 3580 01d6 24       		.uleb128 0x24
 3581 01d7 34       		.uleb128 0x34
 3582 01d8 00       		.byte	0
 3583 01d9 03       		.uleb128 0x3
 3584 01da 0E       		.uleb128 0xe
 3585 01db 3A       		.uleb128 0x3a
 3586 01dc 0B       		.uleb128 0xb
 3587 01dd 3B       		.uleb128 0x3b
 3588 01de 0B       		.uleb128 0xb
 3589 01df 49       		.uleb128 0x49
 3590 01e0 13       		.uleb128 0x13
 3591 01e1 3F       		.uleb128 0x3f
 3592 01e2 19       		.uleb128 0x19
 3593 01e3 3C       		.uleb128 0x3c
 3594 01e4 19       		.uleb128 0x19
 3595 01e5 00       		.byte	0
 3596 01e6 00       		.byte	0
 3597 01e7 25       		.uleb128 0x25
 3598 01e8 34       		.uleb128 0x34
 3599 01e9 00       		.byte	0
 3600 01ea 03       		.uleb128 0x3
 3601 01eb 0E       		.uleb128 0xe
 3602 01ec 3A       		.uleb128 0x3a
 3603 01ed 0B       		.uleb128 0xb
 3604 01ee 3B       		.uleb128 0x3b
 3605 01ef 0B       		.uleb128 0xb
 3606 01f0 49       		.uleb128 0x49
 3607 01f1 13       		.uleb128 0x13
 3608 01f2 3F       		.uleb128 0x3f
 3609 01f3 19       		.uleb128 0x19
 3610 01f4 02       		.uleb128 0x2
 3611 01f5 18       		.uleb128 0x18
 3612 01f6 00       		.byte	0
 3613 01f7 00       		.byte	0
 3614 01f8 00       		.byte	0
 3615              		.section	.debug_aranges,"",%progbits
ARM GAS  C:\Users\RECEPC~1\AppData\Local\Temp\cc14VPUN.s 			page 74


 3616 0000 3C000000 		.4byte	0x3c
 3617 0004 0200     		.2byte	0x2
 3618 0006 00000000 		.4byte	.Ldebug_info0
 3619 000a 04       		.byte	0x4
 3620 000b 00       		.byte	0
 3621 000c 0000     		.2byte	0
 3622 000e 0000     		.2byte	0
 3623 0010 00000000 		.4byte	.LFB63
 3624 0014 F8000000 		.4byte	.LFE63-.LFB63
 3625 0018 00000000 		.4byte	.LFB64
 3626 001c B0020000 		.4byte	.LFE64-.LFB64
 3627 0020 00000000 		.4byte	.LFB65
 3628 0024 84000000 		.4byte	.LFE65-.LFB65
 3629 0028 00000000 		.4byte	.LFB66
 3630 002c 50020000 		.4byte	.LFE66-.LFB66
 3631 0030 00000000 		.4byte	.LFB67
 3632 0034 BC020000 		.4byte	.LFE67-.LFB67
 3633 0038 00000000 		.4byte	0
 3634 003c 00000000 		.4byte	0
 3635              		.section	.debug_ranges,"",%progbits
 3636              	.Ldebug_ranges0:
 3637 0000 00000000 		.4byte	.LFB63
 3638 0004 F8000000 		.4byte	.LFE63
 3639 0008 00000000 		.4byte	.LFB64
 3640 000c B0020000 		.4byte	.LFE64
 3641 0010 00000000 		.4byte	.LFB65
 3642 0014 84000000 		.4byte	.LFE65
 3643 0018 00000000 		.4byte	.LFB66
 3644 001c 50020000 		.4byte	.LFE66
 3645 0020 00000000 		.4byte	.LFB67
 3646 0024 BC020000 		.4byte	.LFE67
 3647 0028 00000000 		.4byte	0
 3648 002c 00000000 		.4byte	0
 3649              		.section	.debug_line,"",%progbits
 3650              	.Ldebug_line0:
 3651 0000 00030000 		.section	.debug_str,"MS",%progbits,1
 3651      02008A01 
 3651      00000201 
 3651      FB0E0D00 
 3651      01010101 
 3652              	.LASF67:
 3653 0000 4E4F4E45 		.ascii	"NONE\000"
 3653      00
 3654              	.LASF171:
 3655 0005 46696E61 		.ascii	"Finalization\000"
 3655      6C697A61 
 3655      74696F6E 
 3655      00
 3656              	.LASF194:
 3657 0012 456E7175 		.ascii	"Enqueue\000"
 3657      65756500 
 3658              	.LASF154:
 3659 001a 5F617574 		.ascii	"_authorizationinfo\000"
 3659      686F7269 
 3659      7A617469 
 3659      6F6E696E 
 3659      666F00
ARM GAS  C:\Users\RECEPC~1\AppData\Local\Temp\cc14VPUN.s 			page 75


 3660              	.LASF44:
 3661 002d 5052494E 		.ascii	"PRINTER21_JOB\000"
 3661      54455232 
 3661      315F4A4F 
 3661      4200
 3662              	.LASF150:
 3663 003b 50756D70 		.ascii	"PumpTransQueueAllocate\000"
 3663      5472616E 
 3663      73517565 
 3663      7565416C 
 3663      6C6F6361 
 3664              	.LASF198:
 3665 0052 50756D70 		.ascii	"PumpJobQueue\000"
 3665      4A6F6251 
 3665      75657565 
 3665      00
 3666              	.LASF138:
 3667 005f 5F747261 		.ascii	"_transhealth\000"
 3667      6E736865 
 3667      616C7468 
 3667      00
 3668              	.LASF136:
 3669 006c 5F72746D 		.ascii	"_rtmoneyamount\000"
 3669      6F6E6579 
 3669      616D6F75 
 3669      6E7400
 3670              	.LASF152:
 3671 007b 50756D70 		.ascii	"PumpValidState\000"
 3671      56616C69 
 3671      64537461 
 3671      746500
 3672              	.LASF161:
 3673 008a 52657370 		.ascii	"ResponseSizeResolver\000"
 3673      6F6E7365 
 3673      53697A65 
 3673      5265736F 
 3673      6C766572 
 3674              	.LASF217:
 3675 009f 5F675F70 		.ascii	"_g_pumpjobqueue\000"
 3675      756D706A 
 3675      6F627175 
 3675      65756500 
 3676              	.LASF81:
 3677 00af 5F6D6573 		.ascii	"_messagetype\000"
 3677      73616765 
 3677      74797065 
 3677      00
 3678              	.LASF89:
 3679 00bc 5F706461 		.ascii	"_pdata\000"
 3679      746100
 3680              	.LASF123:
 3681 00c3 5F70756D 		.ascii	"_pumpid\000"
 3681      70696400 
 3682              	.LASF48:
 3683 00cb 5052494E 		.ascii	"PRINTER1_GENERIC_JOB_LOGO\000"
 3683      54455231 
 3683      5F47454E 
ARM GAS  C:\Users\RECEPC~1\AppData\Local\Temp\cc14VPUN.s 			page 76


 3683      45524943 
 3683      5F4A4F42 
 3684              	.LASF156:
 3685 00e5 50756D70 		.ascii	"Pump\000"
 3685      00
 3686              	.LASF142:
 3687 00ea 5F727862 		.ascii	"_rxbuffersize\000"
 3687      75666665 
 3687      7273697A 
 3687      6500
 3688              	.LASF24:
 3689 00f8 53494E4B 		.ascii	"SINK_UPDATE_COUNTERS\000"
 3689      5F555044 
 3689      4154455F 
 3689      434F554E 
 3689      54455253 
 3690              	.LASF7:
 3691 010d 6C6F6E67 		.ascii	"long long unsigned int\000"
 3691      206C6F6E 
 3691      6720756E 
 3691      7369676E 
 3691      65642069 
 3692              	.LASF23:
 3693 0124 55415254 		.ascii	"UART_RF_AUTONOMOUS_MONITOR\000"
 3693      5F52465F 
 3693      4155544F 
 3693      4E4F4D4F 
 3693      55535F4D 
 3694              	.LASF178:
 3695 013f 5F726570 		.ascii	"_repushtimeoutseed\000"
 3695      75736874 
 3695      696D656F 
 3695      75747365 
 3695      656400
 3696              	.LASF74:
 3697 0152 414C4C49 		.ascii	"ALLINTERESTEDFOREVER\000"
 3697      4E544552 
 3697      45535445 
 3697      44464F52 
 3697      45564552 
 3698              	.LASF149:
 3699 0167 50756D70 		.ascii	"PumpTransQueueDeallocate\000"
 3699      5472616E 
 3699      73517565 
 3699      75654465 
 3699      616C6C6F 
 3700              	.LASF179:
 3701 0180 5F726570 		.ascii	"_repushtimeoutmultiplier\000"
 3701      75736874 
 3701      696D656F 
 3701      75746D75 
 3701      6C746970 
 3702              	.LASF46:
 3703 0199 5052494E 		.ascii	"PRINTER1_GENERIC_JOB\000"
 3703      54455231 
 3703      5F47454E 
 3703      45524943 
ARM GAS  C:\Users\RECEPC~1\AppData\Local\Temp\cc14VPUN.s 			page 77


 3703      5F4A4F42 
 3704              	.LASF50:
 3705 01ae 44495350 		.ascii	"DISPLAY_UPDATE_PUMP_STATE\000"
 3705      4C41595F 
 3705      55504441 
 3705      54455F50 
 3705      554D505F 
 3706              	.LASF216:
 3707 01c8 49544D5F 		.ascii	"ITM_RxBuffer\000"
 3707      52784275 
 3707      66666572 
 3707      00
 3708              	.LASF201:
 3709 01d5 50756D70 		.ascii	"PumpResponseContext\000"
 3709      52657370 
 3709      6F6E7365 
 3709      436F6E74 
 3709      65787400 
 3710              	.LASF33:
 3711 01e9 44495350 		.ascii	"DISPENSER_LOAD_EEPROM_SETTINGS\000"
 3711      454E5345 
 3711      525F4C4F 
 3711      41445F45 
 3711      4550524F 
 3712              	.LASF116:
 3713 0208 5F686F73 		.ascii	"_hoseid\000"
 3713      65696400 
 3714              	.LASF6:
 3715 0210 6C6F6E67 		.ascii	"long long int\000"
 3715      206C6F6E 
 3715      6720696E 
 3715      7400
 3716              	.LASF0:
 3717 021e 7369676E 		.ascii	"signed char\000"
 3717      65642063 
 3717      68617200 
 3718              	.LASF65:
 3719 022a 5F53494E 		.ascii	"_SINK_OBSERVABLES_\000"
 3719      4B5F4F42 
 3719      53455256 
 3719      41424C45 
 3719      535F00
 3720              	.LASF78:
 3721 023d 53494E4B 		.ascii	"SINK_BUSY\000"
 3721      5F425553 
 3721      5900
 3722              	.LASF168:
 3723 0247 5F6F6E65 		.ascii	"_oneshotpostconditions\000"
 3723      73686F74 
 3723      706F7374 
 3723      636F6E64 
 3723      6974696F 
 3724              	.LASF177:
 3725 025e 5F726570 		.ascii	"_repushretriescounter\000"
 3725      75736872 
 3725      65747269 
 3725      6573636F 
ARM GAS  C:\Users\RECEPC~1\AppData\Local\Temp\cc14VPUN.s 			page 78


 3725      756E7465 
 3726              	.LASF128:
 3727 0274 5F616371 		.ascii	"_acquiringstate\000"
 3727      75697269 
 3727      6E677374 
 3727      61746500 
 3728              	.LASF88:
 3729 0284 5F627566 		.ascii	"_buffersize\000"
 3729      66657273 
 3729      697A6500 
 3730              	.LASF14:
 3731 0290 696E7433 		.ascii	"int32\000"
 3731      3200
 3732              	.LASF96:
 3733 0296 5F617272 		.ascii	"_arrmsgid\000"
 3733      6D736769 
 3733      6400
 3734              	.LASF95:
 3735 02a0 5F737461 		.ascii	"_state\000"
 3735      746500
 3736              	.LASF203:
 3737 02a7 74696D65 		.ascii	"timespan\000"
 3737      7370616E 
 3737      00
 3738              	.LASF215:
 3739 02b0 7073696E 		.ascii	"psinkmsg\000"
 3739      6B6D7367 
 3739      00
 3740              	.LASF4:
 3741 02b9 6C6F6E67 		.ascii	"long int\000"
 3741      20696E74 
 3741      00
 3742              	.LASF164:
 3743 02c2 5F726573 		.ascii	"_responsesize\000"
 3743      706F6E73 
 3743      6573697A 
 3743      6500
 3744              	.LASF130:
 3745 02d0 5F707265 		.ascii	"_presetdone\000"
 3745      73657464 
 3745      6F6E6500 
 3746              	.LASF184:
 3747 02dc 5F707265 		.ascii	"_presponse\000"
 3747      73706F6E 
 3747      736500
 3748              	.LASF185:
 3749 02e7 5F707075 		.ascii	"_ppump\000"
 3749      6D7000
 3750              	.LASF49:
 3751 02ee 5052494E 		.ascii	"PRINTER2_GENERIC_JOB_LOGO\000"
 3751      54455232 
 3751      5F47454E 
 3751      45524943 
 3751      5F4A4F42 
 3752              	.LASF87:
 3753 0308 5F627566 		.ascii	"_buffer\000"
 3753      66657200 
ARM GAS  C:\Users\RECEPC~1\AppData\Local\Temp\cc14VPUN.s 			page 79


 3754              	.LASF219:
 3755 0310 5F675F64 		.ascii	"_g_dispenserupdatetimeout\000"
 3755      69737065 
 3755      6E736572 
 3755      75706461 
 3755      74657469 
 3756              	.LASF16:
 3757 032a 646F7562 		.ascii	"double\000"
 3757      6C6500
 3758              	.LASF148:
 3759 0331 50756D70 		.ascii	"PumpTransQueueEnqueue\000"
 3759      5472616E 
 3759      73517565 
 3759      7565456E 
 3759      71756575 
 3760              	.LASF211:
 3761 0347 70726563 		.ascii	"preconditions\000"
 3761      6F6E6469 
 3761      74696F6E 
 3761      7300
 3762              	.LASF60:
 3763 0355 49425554 		.ascii	"IBUTTON2_SCAN\000"
 3763      544F4E32 
 3763      5F534341 
 3763      4E00
 3764              	.LASF127:
 3765 0363 5F686F73 		.ascii	"_hoseactivestate\000"
 3765      65616374 
 3765      69766573 
 3765      74617465 
 3765      00
 3766              	.LASF13:
 3767 0374 75696E74 		.ascii	"uint32\000"
 3767      333200
 3768              	.LASF38:
 3769 037b 44495350 		.ascii	"DISPENSER_CONFIGURE_SINGLE_PRICE\000"
 3769      454E5345 
 3769      525F434F 
 3769      4E464947 
 3769      5552455F 
 3770              	.LASF155:
 3771 039c 436C6561 		.ascii	"CleanUp\000"
 3771      6E557000 
 3772              	.LASF140:
 3773 03a4 5F747261 		.ascii	"_trasactionbuffer\000"
 3773      73616374 
 3773      696F6E62 
 3773      75666665 
 3773      7200
 3774              	.LASF98:
 3775 03b6 5F747261 		.ascii	"_transtate\000"
 3775      6E737461 
 3775      746500
 3776              	.LASF200:
 3777 03c1 5F627566 		.ascii	"_bufferready\000"
 3777      66657272 
 3777      65616479 
ARM GAS  C:\Users\RECEPC~1\AppData\Local\Temp\cc14VPUN.s 			page 80


 3777      00
 3778              	.LASF42:
 3779 03ce 5052494E 		.ascii	"PRINTER11_JOB\000"
 3779      54455231 
 3779      315F4A4F 
 3779      4200
 3780              	.LASF174:
 3781 03dc 5F726565 		.ascii	"_reenqueuecounter\000"
 3781      6E717565 
 3781      7565636F 
 3781      756E7465 
 3781      7200
 3782              	.LASF144:
 3783 03ee 5F747261 		.ascii	"_transqueuelocked\000"
 3783      6E737175 
 3783      6575656C 
 3783      6F636B65 
 3783      6400
 3784              	.LASF75:
 3785 0400 5F4D4553 		.ascii	"_MESSAGE_STATE_\000"
 3785      53414745 
 3785      5F535441 
 3785      54455F00 
 3786              	.LASF135:
 3787 0410 5F707269 		.ascii	"_print\000"
 3787      6E7400
 3788              	.LASF157:
 3789 0417 5F50554D 		.ascii	"_PUMP_TRANSACTION_JOB_\000"
 3789      505F5452 
 3789      414E5341 
 3789      4354494F 
 3789      4E5F4A4F 
 3790              	.LASF126:
 3791 042e 5F637572 		.ascii	"_currenthose\000"
 3791      72656E74 
 3791      686F7365 
 3791      00
 3792              	.LASF22:
 3793 043b 55415254 		.ascii	"UART_RF_TEST\000"
 3793      5F52465F 
 3793      54455354 
 3793      00
 3794              	.LASF8:
 3795 0448 756E7369 		.ascii	"unsigned int\000"
 3795      676E6564 
 3795      20696E74 
 3795      00
 3796              	.LASF45:
 3797 0455 5052494E 		.ascii	"PRINTER22_JOB\000"
 3797      54455232 
 3797      325F4A4F 
 3797      4200
 3798              	.LASF53:
 3799 0463 44495350 		.ascii	"DISPLAY1_UPDATE_DATETIME\000"
 3799      4C415931 
 3799      5F555044 
 3799      4154455F 
ARM GAS  C:\Users\RECEPC~1\AppData\Local\Temp\cc14VPUN.s 			page 81


 3799      44415445 
 3800              	.LASF58:
 3801 047c 44495350 		.ascii	"DISPLAY2_ANIMATE_HOME\000"
 3801      4C415932 
 3801      5F414E49 
 3801      4D415445 
 3801      5F484F4D 
 3802              	.LASF120:
 3803 0492 5F736572 		.ascii	"_serial\000"
 3803      69616C00 
 3804              	.LASF72:
 3805 049a 46495253 		.ascii	"FIRSTFOUNDFOREVER\000"
 3805      54464F55 
 3805      4E44464F 
 3805      52455645 
 3805      5200
 3806              	.LASF62:
 3807 04ac 544F4747 		.ascii	"TOGGLE_SCREEN_AND_WRITE_TEST\000"
 3807      4C455F53 
 3807      43524545 
 3807      4E5F414E 
 3807      445F5752 
 3808              	.LASF83:
 3809 04c9 5F6D6573 		.ascii	"_messagedelay\000"
 3809      73616765 
 3809      64656C61 
 3809      7900
 3810              	.LASF80:
 3811 04d7 5F6D6573 		.ascii	"_messageid\000"
 3811      73616765 
 3811      696400
 3812              	.LASF76:
 3813 04e2 53494E4B 		.ascii	"SINK_FREE\000"
 3813      5F465245 
 3813      4500
 3814              	.LASF31:
 3815 04ec 44495350 		.ascii	"DISPENSER_EXECUTE_CREDIT_TRANSACTION\000"
 3815      454E5345 
 3815      525F4558 
 3815      45435554 
 3815      455F4352 
 3816              	.LASF213:
 3817 0511 44697370 		.ascii	"DispenserSinkRegistration\000"
 3817      656E7365 
 3817      7253696E 
 3817      6B526567 
 3817      69737472 
 3818              	.LASF212:
 3819 052b 70726563 		.ascii	"precondexecuted\000"
 3819      6F6E6465 
 3819      78656375 
 3819      74656400 
 3820              	.LASF11:
 3821 053b 75696E74 		.ascii	"uint8\000"
 3821      3800
 3822              	.LASF169:
 3823 0541 5F706F73 		.ascii	"_postconditions\000"
ARM GAS  C:\Users\RECEPC~1\AppData\Local\Temp\cc14VPUN.s 			page 82


 3823      74636F6E 
 3823      64697469 
 3823      6F6E7300 
 3824              	.LASF180:
 3825 0551 5F726574 		.ascii	"_retriescounter\000"
 3825      72696573 
 3825      636F756E 
 3825      74657200 
 3826              	.LASF3:
 3827 0561 73686F72 		.ascii	"short unsigned int\000"
 3827      7420756E 
 3827      7369676E 
 3827      65642069 
 3827      6E7400
 3828              	.LASF197:
 3829 0574 436C6561 		.ascii	"Clear\000"
 3829      7200
 3830              	.LASF162:
 3831 057a 5F726573 		.ascii	"_responsetimeoutlimit\000"
 3831      706F6E73 
 3831      6574696D 
 3831      656F7574 
 3831      6C696D69 
 3832              	.LASF132:
 3833 0590 5F726F75 		.ascii	"_roundrobinstate\000"
 3833      6E64726F 
 3833      62696E73 
 3833      74617465 
 3833      00
 3834              	.LASF141:
 3835 05a1 5F727862 		.ascii	"_rxbuffer\000"
 3835      75666665 
 3835      7200
 3836              	.LASF225:
 3837 05ab 70706172 		.ascii	"pparam\000"
 3837      616D00
 3838              	.LASF30:
 3839 05b2 44495350 		.ascii	"DISPENSER_EXECUTE_CASH_TRANSACTION\000"
 3839      454E5345 
 3839      525F4558 
 3839      45435554 
 3839      455F4341 
 3840              	.LASF32:
 3841 05d5 44495350 		.ascii	"DISPENSER_UNLOCK_EOT_PUMPS\000"
 3841      454E5345 
 3841      525F554E 
 3841      4C4F434B 
 3841      5F454F54 
 3842              	.LASF47:
 3843 05f0 5052494E 		.ascii	"PRINTER2_GENERIC_JOB\000"
 3843      54455232 
 3843      5F47454E 
 3843      45524943 
 3843      5F4A4F42 
 3844              	.LASF190:
 3845 0605 5F6A6F62 		.ascii	"_jobqueueheap\000"
 3845      71756575 
ARM GAS  C:\Users\RECEPC~1\AppData\Local\Temp\cc14VPUN.s 			page 83


 3845      65686561 
 3845      7000
 3846              	.LASF84:
 3847 0613 5F6D6573 		.ascii	"_messagetimeout\000"
 3847      73616765 
 3847      74696D65 
 3847      6F757400 
 3848              	.LASF40:
 3849 0623 44495350 		.ascii	"DISPENSER_PUMP_HANDLER\000"
 3849      454E5345 
 3849      525F5055 
 3849      4D505F48 
 3849      414E444C 
 3850              	.LASF52:
 3851 063a 44495350 		.ascii	"DISPLAY1_MESSAGE\000"
 3851      4C415931 
 3851      5F4D4553 
 3851      53414745 
 3851      00
 3852              	.LASF2:
 3853 064b 73686F72 		.ascii	"short int\000"
 3853      7420696E 
 3853      7400
 3854              	.LASF143:
 3855 0655 5F747261 		.ascii	"_transqueue\000"
 3855      6E737175 
 3855      65756500 
 3856              	.LASF183:
 3857 0661 5F707265 		.ascii	"_prequest\000"
 3857      71756573 
 3857      7400
 3858              	.LASF26:
 3859 066b 53494E4B 		.ascii	"SINK_RELEASE_BY_PTR\000"
 3859      5F52454C 
 3859      45415345 
 3859      5F42595F 
 3859      50545200 
 3860              	.LASF222:
 3861 067f 2E5C4469 		.ascii	".\\DispenserSink.c\000"
 3861      7370656E 
 3861      73657253 
 3861      696E6B2E 
 3861      6300
 3862              	.LASF193:
 3863 0691 416C6C6F 		.ascii	"Allocate\000"
 3863      63617465 
 3863      00
 3864              	.LASF208:
 3865 069a 706F7374 		.ascii	"postcondexecuted\000"
 3865      636F6E64 
 3865      65786563 
 3865      75746564 
 3865      00
 3866              	.LASF196:
 3867 06ab 44657175 		.ascii	"Dequeue\000"
 3867      65756500 
 3868              	.LASF55:
ARM GAS  C:\Users\RECEPC~1\AppData\Local\Temp\cc14VPUN.s 			page 84


 3869 06b3 44495350 		.ascii	"DISPLAY2_RECEPTION\000"
 3869      4C415932 
 3869      5F524543 
 3869      45505449 
 3869      4F4E00
 3870              	.LASF119:
 3871 06c6 5F766F6C 		.ascii	"_volumeamount\000"
 3871      756D6561 
 3871      6D6F756E 
 3871      7400
 3872              	.LASF54:
 3873 06d4 44495350 		.ascii	"DISPLAY1_ANIMATE_HOME\000"
 3873      4C415931 
 3873      5F414E49 
 3873      4D415445 
 3873      5F484F4D 
 3874              	.LASF20:
 3875 06ea 73697A65 		.ascii	"sizetype\000"
 3875      74797065 
 3875      00
 3876              	.LASF131:
 3877 06f3 5F70756D 		.ascii	"_pumplocked\000"
 3877      706C6F63 
 3877      6B656400 
 3878              	.LASF64:
 3879 06ff 6C6F6E67 		.ascii	"long double\000"
 3879      20646F75 
 3879      626C6500 
 3880              	.LASF210:
 3881 070b 44697370 		.ascii	"DispenserHandler\000"
 3881      656E7365 
 3881      7248616E 
 3881      646C6572 
 3881      00
 3882              	.LASF85:
 3883 071c 5F6D6573 		.ascii	"_messagetimeoutmultiplier\000"
 3883      73616765 
 3883      74696D65 
 3883      6F75746D 
 3883      756C7469 
 3884              	.LASF186:
 3885 0736 50756D70 		.ascii	"PumpTransactionJobContext\000"
 3885      5472616E 
 3885      73616374 
 3885      696F6E4A 
 3885      6F62436F 
 3886              	.LASF43:
 3887 0750 5052494E 		.ascii	"PRINTER12_JOB\000"
 3887      54455231 
 3887      325F4A4F 
 3887      4200
 3888              	.LASF97:
 3889 075e 5053494E 		.ascii	"PSINKSUBSCRIBERPTR\000"
 3889      4B535542 
 3889      53435249 
 3889      42455250 
 3889      545200
ARM GAS  C:\Users\RECEPC~1\AppData\Local\Temp\cc14VPUN.s 			page 85


 3890              	.LASF121:
 3891 0771 50756D70 		.ascii	"PumpAuthorizationInfo\000"
 3891      41757468 
 3891      6F72697A 
 3891      6174696F 
 3891      6E496E66 
 3892              	.LASF108:
 3893 0787 5F766172 		.ascii	"_var7\000"
 3893      3700
 3894              	.LASF79:
 3895 078d 5F73656C 		.ascii	"_selfkill\000"
 3895      666B696C 
 3895      6C00
 3896              	.LASF187:
 3897 0797 5050554D 		.ascii	"PPUMPTRANSACTIONJOBCONTEXTPTR\000"
 3897      50545241 
 3897      4E534143 
 3897      54494F4E 
 3897      4A4F4243 
 3898              	.LASF214:
 3899 07b5 70737562 		.ascii	"psubscriber\000"
 3899      73637269 
 3899      62657200 
 3900              	.LASF146:
 3901 07c1 50756D70 		.ascii	"PumpTransQueueUnlock\000"
 3901      5472616E 
 3901      73517565 
 3901      7565556E 
 3901      6C6F636B 
 3902              	.LASF36:
 3903 07d6 44495350 		.ascii	"DISPENSER_CONFIGURE_PRICES\000"
 3903      454E5345 
 3903      525F434F 
 3903      4E464947 
 3903      5552455F 
 3904              	.LASF221:
 3905 07f1 474E5520 		.ascii	"GNU C 4.9.3 20150303 (release) [ARM/embedded-4_9-br"
 3905      4320342E 
 3905      392E3320 
 3905      32303135 
 3905      30333033 
 3906 0824 616E6368 		.ascii	"anch revision 221220] -mcpu=cortex-m3 -mthumb -g -O"
 3906      20726576 
 3906      6973696F 
 3906      6E203232 
 3906      31323230 
 3907 0857 30202D66 		.ascii	"0 -ffunction-sections -ffat-lto-objects\000"
 3907      66756E63 
 3907      74696F6E 
 3907      2D736563 
 3907      74696F6E 
 3908              	.LASF99:
 3909 087f 50756D70 		.ascii	"PumpTransactionalState\000"
 3909      5472616E 
 3909      73616374 
 3909      696F6E61 
 3909      6C537461 
ARM GAS  C:\Users\RECEPC~1\AppData\Local\Temp\cc14VPUN.s 			page 86


 3910              	.LASF113:
 3911 0896 50756D70 		.ascii	"PumpDataContainer\000"
 3911      44617461 
 3911      436F6E74 
 3911      61696E65 
 3911      7200
 3912              	.LASF153:
 3913 08a8 5F646174 		.ascii	"_datacontainer\000"
 3913      61636F6E 
 3913      7461696E 
 3913      657200
 3914              	.LASF69:
 3915 08b7 46495253 		.ascii	"FIRSTFOUND\000"
 3915      54464F55 
 3915      4E4400
 3916              	.LASF139:
 3917 08c2 5F706375 		.ascii	"_pcurrtransaction\000"
 3917      72727472 
 3917      616E7361 
 3917      6374696F 
 3917      6E00
 3918              	.LASF191:
 3919 08d4 5F706A6F 		.ascii	"_pjobqueueallocated\000"
 3919      62717565 
 3919      7565616C 
 3919      6C6F6361 
 3919      74656400 
 3920              	.LASF56:
 3921 08e8 44495350 		.ascii	"DISPLAY2_MESSAGE\000"
 3921      4C415932 
 3921      5F4D4553 
 3921      53414745 
 3921      00
 3922              	.LASF137:
 3923 08f9 5F727476 		.ascii	"_rtvolumeamount\000"
 3923      6F6C756D 
 3923      65616D6F 
 3923      756E7400 
 3924              	.LASF82:
 3925 0909 5F6D6573 		.ascii	"_messagestate\000"
 3925      73616765 
 3925      73746174 
 3925      6500
 3926              	.LASF77:
 3927 0917 53494E4B 		.ascii	"SINK_ALLOCATED\000"
 3927      5F414C4C 
 3927      4F434154 
 3927      454400
 3928              	.LASF206:
 3929 0926 6F6E6573 		.ascii	"oneshot\000"
 3929      686F7400 
 3930              	.LASF159:
 3931 092e 52657370 		.ascii	"Response\000"
 3931      6F6E7365 
 3931      00
 3932              	.LASF165:
 3933 0937 5F726574 		.ascii	"_retryinsteadofrepush\000"
ARM GAS  C:\Users\RECEPC~1\AppData\Local\Temp\cc14VPUN.s 			page 87


 3933      7279696E 
 3933      73746561 
 3933      646F6672 
 3933      65707573 
 3934              	.LASF66:
 3935 094d 5F4D4553 		.ascii	"_MESSAGE_TYPE_\000"
 3935      53414745 
 3935      5F545950 
 3935      455F00
 3936              	.LASF29:
 3937 095c 44495350 		.ascii	"DISPENSER_ACQUIRE_PUMP_HOSE\000"
 3937      454E5345 
 3937      525F4143 
 3937      51554952 
 3937      455F5055 
 3938              	.LASF166:
 3939 0978 5F6F6E65 		.ascii	"_oneshotpreconditions\000"
 3939      73686F74 
 3939      70726563 
 3939      6F6E6469 
 3939      74696F6E 
 3940              	.LASF223:
 3941 098e 433A5C54 		.ascii	"C:\\TeamInsepet\\NSX-Prime\\Hardware\\CorEx-MUX-Ker"
 3941      65616D49 
 3941      6E736570 
 3941      65745C4E 
 3941      53582D50 
 3942 09bd 6E656C2D 		.ascii	"nel-Enhanced\\Workspace01\\CorEx-Mux-Kernel.cydsn\000"
 3942      456E6861 
 3942      6E636564 
 3942      5C576F72 
 3942      6B737061 
 3943              	.LASF91:
 3944 09ed 5F426F6F 		.ascii	"_Bool\000"
 3944      6C00
 3945              	.LASF10:
 3946 09f3 696E7433 		.ascii	"int32_t\000"
 3946      325F7400 
 3947              	.LASF1:
 3948 09fb 756E7369 		.ascii	"unsigned char\000"
 3948      676E6564 
 3948      20636861 
 3948      7200
 3949              	.LASF205:
 3950 0a09 44697370 		.ascii	"DispenserDataReceptionHandler\000"
 3950      656E7365 
 3950      72446174 
 3950      61526563 
 3950      65707469 
 3951              	.LASF134:
 3952 0a27 5F70756D 		.ascii	"_pumprftransstate\000"
 3952      70726674 
 3952      72616E73 
 3952      73746174 
 3952      6500
 3953              	.LASF133:
 3954 0a39 5F706F73 		.ascii	"_positionlocked\000"
ARM GAS  C:\Users\RECEPC~1\AppData\Local\Temp\cc14VPUN.s 			page 88


 3954      6974696F 
 3954      6E6C6F63 
 3954      6B656400 
 3955              	.LASF147:
 3956 0a49 50756D70 		.ascii	"PumpTransQueueFind\000"
 3956      5472616E 
 3956      73517565 
 3956      75654669 
 3956      6E6400
 3957              	.LASF17:
 3958 0a5c 75696E74 		.ascii	"uint64\000"
 3958      363400
 3959              	.LASF106:
 3960 0a63 5F766172 		.ascii	"_var5\000"
 3960      3500
 3961              	.LASF181:
 3962 0a69 5F74696D 		.ascii	"_timeoutseed\000"
 3962      656F7574 
 3962      73656564 
 3962      00
 3963              	.LASF94:
 3964 0a76 5F53494E 		.ascii	"_SINK_SUBSCRIBER_\000"
 3964      4B5F5355 
 3964      42534352 
 3964      49424552 
 3964      5F00
 3965              	.LASF86:
 3966 0a88 5F6D6573 		.ascii	"_messagetimeoutlimit\000"
 3966      73616765 
 3966      74696D65 
 3966      6F75746C 
 3966      696D6974 
 3967              	.LASF61:
 3968 0a9d 474C4F42 		.ascii	"GLOBAL_TICK_NOTIFICATION\000"
 3968      414C5F54 
 3968      49434B5F 
 3968      4E4F5449 
 3968      46494341 
 3969              	.LASF224:
 3970 0ab6 44697370 		.ascii	"DispenserUpdateTimeouts\000"
 3970      656E7365 
 3970      72557064 
 3970      61746554 
 3970      696D656F 
 3971              	.LASF27:
 3972 0ace 44495350 		.ascii	"DISPENSER_UPDATE_PUMP_TRANSACTION_TIMEOUTS\000"
 3972      454E5345 
 3972      525F5550 
 3972      44415445 
 3972      5F50554D 
 3973              	.LASF39:
 3974 0af9 44495350 		.ascii	"DISPENSER_ACQUIRE_TOTALS\000"
 3974      454E5345 
 3974      525F4143 
 3974      51554952 
 3974      455F544F 
 3975              	.LASF204:
ARM GAS  C:\Users\RECEPC~1\AppData\Local\Temp\cc14VPUN.s 			page 89


 3976 0b12 44697370 		.ascii	"DispenserTimeoutHandler\000"
 3976      656E7365 
 3976      7254696D 
 3976      656F7574 
 3976      48616E64 
 3977              	.LASF37:
 3978 0b2a 44495350 		.ascii	"DISPENSER_RESTORE_PRICES\000"
 3978      454E5345 
 3978      525F5245 
 3978      53544F52 
 3978      455F5052 
 3979              	.LASF70:
 3980 0b43 414C4C49 		.ascii	"ALLINTERESTED\000"
 3980      4E544552 
 3980      45535445 
 3980      4400
 3981              	.LASF71:
 3982 0b51 44454C41 		.ascii	"DELAYEDALLINTERESTED\000"
 3982      59454441 
 3982      4C4C494E 
 3982      54455245 
 3982      53544544 
 3983              	.LASF111:
 3984 0b66 5F766172 		.ascii	"_varA\000"
 3984      4100
 3985              	.LASF93:
 3986 0b6c 5F53494E 		.ascii	"_SINK_MESSAGE_\000"
 3986      4B5F4D45 
 3986      53534147 
 3986      455F00
 3987              	.LASF34:
 3988 0b7b 44495350 		.ascii	"DISPENSER_ENUMERATE_VISIBLE_PUMPS\000"
 3988      454E5345 
 3988      525F454E 
 3988      554D4552 
 3988      4154455F 
 3989              	.LASF163:
 3990 0b9d 5F726570 		.ascii	"_repushtimeoutlimit\000"
 3990      75736874 
 3990      696D656F 
 3990      75746C69 
 3990      6D697400 
 3991              	.LASF122:
 3992 0bb1 5F50554D 		.ascii	"_PUMP_LAYOUT_\000"
 3992      505F4C41 
 3992      594F5554 
 3992      5F00
 3993              	.LASF101:
 3994 0bbf 5F766172 		.ascii	"_var0\000"
 3994      3000
 3995              	.LASF102:
 3996 0bc5 5F766172 		.ascii	"_var1\000"
 3996      3100
 3997              	.LASF103:
 3998 0bcb 5F766172 		.ascii	"_var2\000"
 3998      3200
 3999              	.LASF104:
ARM GAS  C:\Users\RECEPC~1\AppData\Local\Temp\cc14VPUN.s 			page 90


 4000 0bd1 5F766172 		.ascii	"_var3\000"
 4000      3300
 4001              	.LASF105:
 4002 0bd7 5F766172 		.ascii	"_var4\000"
 4002      3400
 4003              	.LASF189:
 4004 0bdd 5F717565 		.ascii	"_queueindex\000"
 4004      7565696E 
 4004      64657800 
 4005              	.LASF107:
 4006 0be9 5F766172 		.ascii	"_var6\000"
 4006      3600
 4007              	.LASF63:
 4008 0bef 57415443 		.ascii	"WATCHDOG_STARTUP\000"
 4008      48444F47 
 4008      5F535441 
 4008      52545550 
 4008      00
 4009              	.LASF109:
 4010 0c00 5F766172 		.ascii	"_var8\000"
 4010      3800
 4011              	.LASF110:
 4012 0c06 5F766172 		.ascii	"_var9\000"
 4012      3900
 4013              	.LASF182:
 4014 0c0c 5F74696D 		.ascii	"_timeoutmultiplier\000"
 4014      656F7574 
 4014      6D756C74 
 4014      69706C69 
 4014      657200
 4015              	.LASF5:
 4016 0c1f 6C6F6E67 		.ascii	"long unsigned int\000"
 4016      20756E73 
 4016      69676E65 
 4016      6420696E 
 4016      7400
 4017              	.LASF218:
 4018 0c31 5F675F72 		.ascii	"_g_respctxt\000"
 4018      65737063 
 4018      74787400 
 4019              	.LASF19:
 4020 0c3d 63686172 		.ascii	"char\000"
 4020      00
 4021              	.LASF112:
 4022 0c42 5F766172 		.ascii	"_varB\000"
 4022      4200
 4023              	.LASF158:
 4024 0c48 52657175 		.ascii	"Request\000"
 4024      65737400 
 4025              	.LASF92:
 4026 0c50 5053494E 		.ascii	"PSINKMESSAGEPTR\000"
 4026      4B4D4553 
 4026      53414745 
 4026      50545200 
 4027              	.LASF124:
 4028 0c60 5F70756D 		.ascii	"_pumpindex\000"
 4028      70696E64 
ARM GAS  C:\Users\RECEPC~1\AppData\Local\Temp\cc14VPUN.s 			page 91


 4028      657800
 4029              	.LASF41:
 4030 0c6b 44495350 		.ascii	"DISPENSER_PUMP_BEEP_WARNING\000"
 4030      454E5345 
 4030      525F5055 
 4030      4D505F42 
 4030      4545505F 
 4031              	.LASF202:
 4032 0c87 706A6F62 		.ascii	"pjob\000"
 4032      00
 4033              	.LASF209:
 4034 0c8c 696E6465 		.ascii	"index\000"
 4034      7800
 4035              	.LASF51:
 4036 0c92 44495350 		.ascii	"DISPLAY1_RECEPTION\000"
 4036      4C415931 
 4036      5F524543 
 4036      45505449 
 4036      4F4E00
 4037              	.LASF173:
 4038 0ca5 5F726565 		.ascii	"_reenqueue\000"
 4038      6E717565 
 4038      756500
 4039              	.LASF9:
 4040 0cb0 5F5F696E 		.ascii	"__int32_t\000"
 4040      7433325F 
 4040      7400
 4041              	.LASF18:
 4042 0cba 63686172 		.ascii	"char8\000"
 4042      3800
 4043              	.LASF100:
 4044 0cc0 504E4541 		.ascii	"PNEAR_PUMPTRANSACTIONALSTATEPTR\000"
 4044      525F5055 
 4044      4D505452 
 4044      414E5341 
 4044      4354494F 
 4045              	.LASF167:
 4046 0ce0 5F707265 		.ascii	"_preconditions\000"
 4046      636F6E64 
 4046      6974696F 
 4046      6E7300
 4047              	.LASF118:
 4048 0cef 5F707265 		.ascii	"_presetamount\000"
 4048      73657461 
 4048      6D6F756E 
 4048      7400
 4049              	.LASF176:
 4050 0cfd 5F64656C 		.ascii	"_delaymultiplier\000"
 4050      61796D75 
 4050      6C746970 
 4050      6C696572 
 4050      00
 4051              	.LASF73:
 4052 0d0e 42524F41 		.ascii	"BROADCASTFOREVER\000"
 4052      44434153 
 4052      54464F52 
 4052      45564552 
ARM GAS  C:\Users\RECEPC~1\AppData\Local\Temp\cc14VPUN.s 			page 92


 4052      00
 4053              	.LASF59:
 4054 0d1f 49425554 		.ascii	"IBUTTON1_SCAN\000"
 4054      544F4E31 
 4054      5F534341 
 4054      4E00
 4055              	.LASF117:
 4056 0d2d 5F707269 		.ascii	"_price\000"
 4056      636500
 4057              	.LASF28:
 4058 0d34 44495350 		.ascii	"DISPENSER_ACQUIRE_PUMP_STATE\000"
 4058      454E5345 
 4058      525F4143 
 4058      51554952 
 4058      455F5055 
 4059              	.LASF220:
 4060 0d51 5F675F64 		.ascii	"_g_dispenserupdatetimeoutmultiplier\000"
 4060      69737065 
 4060      6E736572 
 4060      75706461 
 4060      74657469 
 4061              	.LASF199:
 4062 0d75 5F707061 		.ascii	"_pparam\000"
 4062      72616D00 
 4063              	.LASF21:
 4064 0d7d 55415254 		.ascii	"UART_RF_RECEPTION\000"
 4064      5F52465F 
 4064      52454345 
 4064      5054494F 
 4064      4E00
 4065              	.LASF172:
 4066 0d8f 50756D70 		.ascii	"PumpTransactionJob\000"
 4066      5472616E 
 4066      73616374 
 4066      696F6E4A 
 4066      6F6200
 4067              	.LASF35:
 4068 0da2 44495350 		.ascii	"DISPENSER_ACQUIRE_CONFIGURATION_INFORMATION\000"
 4068      454E5345 
 4068      525F4143 
 4068      51554952 
 4068      455F434F 
 4069              	.LASF114:
 4070 0dce 5F617574 		.ascii	"_authorized\000"
 4070      686F7269 
 4070      7A656400 
 4071              	.LASF160:
 4072 0dda 54696D65 		.ascii	"TimeoutCallback\000"
 4072      6F757443 
 4072      616C6C62 
 4072      61636B00 
 4073              	.LASF192:
 4074 0dea 526F7461 		.ascii	"Rotate\000"
 4074      746500
 4075              	.LASF125:
 4076 0df1 5F70756D 		.ascii	"_pumpstate\000"
 4076      70737461 
ARM GAS  C:\Users\RECEPC~1\AppData\Local\Temp\cc14VPUN.s 			page 93


 4076      746500
 4077              	.LASF57:
 4078 0dfc 44495350 		.ascii	"DISPLAY2_UPDATE_DATETIME\000"
 4078      4C415932 
 4078      5F555044 
 4078      4154455F 
 4078      44415445 
 4079              	.LASF90:
 4080 0e15 43616C6C 		.ascii	"Callback\000"
 4080      6261636B 
 4080      00
 4081              	.LASF145:
 4082 0e1e 50756D70 		.ascii	"PumpTransQueueLock\000"
 4082      5472616E 
 4082      73517565 
 4082      75654C6F 
 4082      636B00
 4083              	.LASF68:
 4084 0e31 42524F41 		.ascii	"BROADCAST\000"
 4084      44434153 
 4084      5400
 4085              	.LASF25:
 4086 0e3b 53494E4B 		.ascii	"SINK_RELEASE_BY_ID\000"
 4086      5F52454C 
 4086      45415345 
 4086      5F42595F 
 4086      494400
 4087              	.LASF195:
 4088 0e4e 5065656B 		.ascii	"Peek\000"
 4088      00
 4089              	.LASF115:
 4090 0e53 5F707265 		.ascii	"_presettype\000"
 4090      73657474 
 4090      79706500 
 4091              	.LASF15:
 4092 0e5f 666C6F61 		.ascii	"float\000"
 4092      7400
 4093              	.LASF12:
 4094 0e65 75696E74 		.ascii	"uint16\000"
 4094      313600
 4095              	.LASF129:
 4096 0e6c 5F726573 		.ascii	"_restoreprice\000"
 4096      746F7265 
 4096      70726963 
 4096      6500
 4097              	.LASF175:
 4098 0e7a 5F64656C 		.ascii	"_delay\000"
 4098      617900
 4099              	.LASF188:
 4100 0e81 5F50554D 		.ascii	"_PUMP_JOB_QUEUE_\000"
 4100      505F4A4F 
 4100      425F5155 
 4100      4555455F 
 4100      00
 4101              	.LASF207:
 4102 0e92 706F7374 		.ascii	"postconditions\000"
 4102      636F6E64 
ARM GAS  C:\Users\RECEPC~1\AppData\Local\Temp\cc14VPUN.s 			page 94


 4102      6974696F 
 4102      6E7300
 4103              	.LASF151:
 4104 0ea1 50756D70 		.ascii	"PumpTransQueueDequeue\000"
 4104      5472616E 
 4104      73517565 
 4104      75654465 
 4104      71756575 
 4105              	.LASF170:
 4106 0eb7 496E6974 		.ascii	"Initialization\000"
 4106      69616C69 
 4106      7A617469 
 4106      6F6E00
 4107              		.ident	"GCC: (GNU Tools for ARM Embedded Processors) 4.9.3 20150303 (release) [ARM/embedded-4_9-br
