ARM GAS  C:\Users\RECEPC~1\AppData\Local\Temp\ccNQpeOs.s 			page 1


   1              		.syntax unified
   2              		.cpu cortex-m3
   3              		.fpu softvfp
   4              		.eabi_attribute 20, 1
   5              		.eabi_attribute 21, 1
   6              		.eabi_attribute 23, 3
   7              		.eabi_attribute 24, 1
   8              		.eabi_attribute 25, 1
   9              		.eabi_attribute 26, 1
  10              		.eabi_attribute 30, 6
  11              		.eabi_attribute 34, 1
  12              		.eabi_attribute 18, 4
  13              		.thumb
  14              		.file	"DisplayBLL.c"
  15              		.text
  16              	.Ltext0:
  17              		.cfi_sections	.debug_frame
  18              		.global	_g_dispvalcodes
  19              		.data
  20              		.align	2
  21              		.type	_g_dispvalcodes, %object
  22              		.size	_g_dispvalcodes, 3
  23              	_g_dispvalcodes:
  24 0000 94       		.byte	-108
  25 0001 7E       		.byte	126
  26 0002 FF       		.byte	-1
  27              		.global	_g_configured
  28              		.bss
  29              		.align	2
  30              		.type	_g_configured, %object
  31              		.size	_g_configured, 2
  32              	_g_configured:
  33 0000 0000     		.space	2
  34              		.global	_g_display1
  35 0002 0000     		.data
  36 0003 00       		.align	2
  37              		.type	_g_display1, %object
  38              		.size	_g_display1, 60
  39              	_g_display1:
  40 0004 00       		.byte	0
  41 0005 20       		.byte	32
  42 0006 00       		.byte	0
  43 0007 00       		.byte	0
  44 0008 00       		.byte	0
  45 0009 00       		.byte	0
  46 000a 0000     		.short	0
  47 000c 0000     		.short	0
  48 000e 00       		.byte	0
  49 000f 00       		.byte	0
  50 0010 00       		.byte	0
  51 0011 01       		.byte	1
  52 0012 0000     		.space	2
  53 0014 00000000 		.word	_g_displayflow
  54 0018 00000000 		.word	_g_displayflow
  55 001c 0000     		.short	0
  56 001e 0000     		.short	0
  57 0020 00       		.byte	0
ARM GAS  C:\Users\RECEPC~1\AppData\Local\Temp\ccNQpeOs.s 			page 2


  58 0021 00000000 		.space	16
  58      00000000 
  58      00000000 
  58      00000000 
  59 0031 00       		.space	1
  60 0032 0000     		.space	2
  61 0034 00000000 		.word	0
  62 0038 00000000 		.word	0
  63 003c 00000000 		.word	DisplayGenericValidator
  64              		.global	_g_display2
  65              		.align	2
  66              		.type	_g_display2, %object
  67              		.size	_g_display2, 60
  68              	_g_display2:
  69 0040 01       		.byte	1
  70 0041 24       		.byte	36
  71 0042 00       		.byte	0
  72 0043 00       		.byte	0
  73 0044 00       		.byte	0
  74 0045 00       		.byte	0
  75 0046 0000     		.short	0
  76 0048 0000     		.short	0
  77 004a 00       		.byte	0
  78 004b 00       		.byte	0
  79 004c 00       		.byte	0
  80 004d 01       		.byte	1
  81 004e 0000     		.space	2
  82 0050 00000000 		.word	_g_displayflow
  83 0054 00000000 		.word	_g_displayflow
  84 0058 0000     		.short	0
  85 005a 0000     		.short	0
  86 005c 00       		.byte	0
  87 005d 00000000 		.space	16
  87      00000000 
  87      00000000 
  87      00000000 
  88 006d 00       		.space	1
  89 006e 0000     		.space	2
  90 0070 00000000 		.word	0
  91 0074 00000000 		.word	0
  92 0078 00000000 		.word	DisplayGenericValidator
  93              		.global	_g_homeanimarray
  94              		.align	2
  95              		.type	_g_homeanimarray, %object
  96              		.size	_g_homeanimarray, 14
  97              	_g_homeanimarray:
  98 007c 00       		.byte	0
  99 007d 01       		.byte	1
 100 007e 00       		.byte	0
 101 007f 5C       		.byte	92
 102 0080 7C       		.byte	124
 103 0081 2F       		.byte	47
 104 0082 2D       		.byte	45
 105 0083 00       		.byte	0
 106 0084 01       		.byte	1
 107 0085 00       		.byte	0
 108 0086 5C       		.byte	92
ARM GAS  C:\Users\RECEPC~1\AppData\Local\Temp\ccNQpeOs.s 			page 3


 109 0087 7C       		.byte	124
 110 0088 2F       		.byte	47
 111 0089 2D       		.byte	45
 112              		.global	_g_productscreenpos
 113 008a 0000     		.align	2
 114              		.type	_g_productscreenpos, %object
 115              		.size	_g_productscreenpos, 20
 116              	_g_productscreenpos:
 117 008c 1501     		.short	277
 118 008e 9500     		.short	149
 119 0090 2501     		.short	293
 120 0092 E900     		.short	233
 121 0094 3901     		.short	313
 122 0096 4201     		.short	322
 123 0098 4A01     		.short	330
 124 009a 9201     		.short	402
 125 009c 0000     		.short	0
 126 009e 0000     		.short	0
 127              		.section	.rodata
 128              		.align	2
 129              	.LC11:
 130 0000 56616C69 		.ascii	"Validando turno, por favor espere...\000"
 130      64616E64 
 130      6F207475 
 130      726E6F2C 
 130      20706F72 
 131              		.section	.text.WorkShiftDecorator,"ax",%progbits
 132              		.align	2
 133              		.global	WorkShiftDecorator
 134              		.thumb
 135              		.thumb_func
 136              		.type	WorkShiftDecorator, %function
 137              	WorkShiftDecorator:
 138              	.LFB63:
 139              		.file 1 ".\\DisplayBLL.c"
   1:.\DisplayBLL.c **** /* ========================================
   2:.\DisplayBLL.c ****  *
   3:.\DisplayBLL.c ****  * Copyright INSEPET SISTEMAS, 2016
   4:.\DisplayBLL.c ****  * All Rights Reserved
   5:.\DisplayBLL.c ****  * UNPUBLISHED, LICENSED SOFTWARE.
   6:.\DisplayBLL.c ****  *
   7:.\DisplayBLL.c ****  * CONFIDENTIAL AND PROPRIETARY INFORMATION
   8:.\DisplayBLL.c ****  * WHICH IS THE PROPERTY OF your company.
   9:.\DisplayBLL.c ****  *
  10:.\DisplayBLL.c ****  * ========================================
  11:.\DisplayBLL.c **** @Created By: HIJH
  12:.\DisplayBLL.c **** @Date: Septembre de 2016
  13:.\DisplayBLL.c **** */
  14:.\DisplayBLL.c **** #include <project.h>
  15:.\DisplayBLL.c **** #include "GlobalDefinitions.h"
  16:.\DisplayBLL.c **** #include "UARTManager.h"
  17:.\DisplayBLL.c **** #include "SinkManager.h"
  18:.\DisplayBLL.c **** #include "SinkObservables.h"
  19:.\DisplayBLL.c **** #include "Configuration.h"
  20:.\DisplayBLL.c **** #include "Dispenser.h"
  21:.\DisplayBLL.c **** #include "Display.h"
  22:.\DisplayBLL.c **** #include "RFLink.h"
ARM GAS  C:\Users\RECEPC~1\AppData\Local\Temp\ccNQpeOs.s 			page 4


  23:.\DisplayBLL.c **** #include "iButton.h"
  24:.\DisplayBLL.c **** #include "Printer.h"
  25:.\DisplayBLL.c **** #include "Eeprom.h"
  26:.\DisplayBLL.c **** #include "Rtc.h"
  27:.\DisplayBLL.c **** 
  28:.\DisplayBLL.c **** uint8 _g_dispvalcodes[] = { 0x94, 0x7E, 0xFF };
  29:.\DisplayBLL.c **** 
  30:.\DisplayBLL.c **** void CastCreditVolumeValue(char8 *pbuffer, uint8 buffersize);
  31:.\DisplayBLL.c **** bool DisplayGenericValidator(LPVOID pparam);
  32:.\DisplayBLL.c **** 
  33:.\DisplayBLL.c **** bool _g_configured[] = { false, false };
  34:.\DisplayBLL.c **** //Screen #1 Handler (for further information on its initialization parameters, see its definition i
  35:.\DisplayBLL.c **** DisplayLayout _g_display1 = { DISPLAY1, DISPLAY1_MESSAGE, 0x00, 0x00, 0x00, 0x00, 0, 0, 0x00, 0, 0,
  36:.\DisplayBLL.c **** //Screen #2 Handler  (for further information on its initialization parameters, see its definition 
  37:.\DisplayBLL.c **** DisplayLayout _g_display2 = { DISPLAY2, DISPLAY2_MESSAGE, 0x00, 0x00, 0x00, 0x00, 0, 0, 0x00, 0, 0,
  38:.\DisplayBLL.c **** 
  39:.\DisplayBLL.c **** DisplayHomeAnimation _g_homeanimarray[] =
  40:.\DisplayBLL.c **** {
  41:.\DisplayBLL.c ****     { 0x00, true, 0x00, { 0x5C, 0x7C, 0x2F, 0x2D } },//Display #1
  42:.\DisplayBLL.c ****     { 0x00, true, 0x00, { 0x5C, 0x7C, 0x2F, 0x2D } },//Display #2
  43:.\DisplayBLL.c **** };
  44:.\DisplayBLL.c **** 
  45:.\DisplayBLL.c **** uint16 _g_productscreenpos[][2] =
  46:.\DisplayBLL.c **** {
  47:.\DisplayBLL.c ****     { 0x0115, 0x0095 },
  48:.\DisplayBLL.c ****     { 0x0125, 0x00E9 },
  49:.\DisplayBLL.c ****     { 0x0139, 0x0142 },
  50:.\DisplayBLL.c ****     { 0x014A, 0x0192 },
  51:.\DisplayBLL.c ****     { 0x0000, 0x0000 },
  52:.\DisplayBLL.c **** };
  53:.\DisplayBLL.c **** 
  54:.\DisplayBLL.c **** 
  55:.\DisplayBLL.c **** ///////////////////////////////////////////////////////////////////////////////////////////////////
  56:.\DisplayBLL.c **** // *********************************************  PURE BLL FUNCTIONS NEXT
  57:.\DisplayBLL.c **** ///////////////////////////////////////////////////////////////////////////////////////////////////
  58:.\DisplayBLL.c **** 
  59:.\DisplayBLL.c **** void WorkShiftDecorator(void *pparam)
  60:.\DisplayBLL.c **** {
 140              		.loc 1 60 0
 141              		.cfi_startproc
 142              		@ args = 0, pretend = 0, frame = 32
 143              		@ frame_needed = 1, uses_anonymous_args = 0
 144 0000 90B5     		push	{r4, r7, lr}
 145              		.cfi_def_cfa_offset 12
 146              		.cfi_offset 4, -12
 147              		.cfi_offset 7, -8
 148              		.cfi_offset 14, -4
 149 0002 8DB0     		sub	sp, sp, #52
 150              		.cfi_def_cfa_offset 64
 151 0004 04AF     		add	r7, sp, #16
 152              		.cfi_def_cfa 7, 48
 153 0006 7860     		str	r0, [r7, #4]
  61:.\DisplayBLL.c ****     FontData fontdata;
  62:.\DisplayBLL.c ****     fontdata._size = 0x03;
 154              		.loc 1 62 0
 155 0008 0323     		movs	r3, #3
 156 000a 3B72     		strb	r3, [r7, #8]
ARM GAS  C:\Users\RECEPC~1\AppData\Local\Temp\ccNQpeOs.s 			page 5


  63:.\DisplayBLL.c ****     fontdata._backcolor = 0xFFFF;
 157              		.loc 1 63 0
 158 000c 4FF6FF73 		movw	r3, #65535
 159 0010 BB81     		strh	r3, [r7, #12]	@ movhi
  64:.\DisplayBLL.c ****     fontdata._forecolor = 0x0000;
 160              		.loc 1 64 0
 161 0012 0023     		movs	r3, #0
 162 0014 FB81     		strh	r3, [r7, #14]	@ movhi
  65:.\DisplayBLL.c ****     fontdata._opaquebackground = DISP_TEXT_OPAQUE;
 163              		.loc 1 65 0
 164 0016 C523     		movs	r3, #197
 165 0018 BB72     		strb	r3, [r7, #10]
  66:.\DisplayBLL.c ****     //MOVE ALL OF THESE TEXTS TO THE EEPROM
  67:.\DisplayBLL.c ****     char8 *pmessage = "Validando turno, por favor espere...";
 166              		.loc 1 67 0
 167 001a 294B     		ldr	r3, .L5
 168 001c FB61     		str	r3, [r7, #28]
  68:.\DisplayBLL.c ****     DisplayLayout *pdisplay = (DisplayLayout*)pparam;
 169              		.loc 1 68 0
 170 001e 7B68     		ldr	r3, [r7, #4]
 171 0020 BB61     		str	r3, [r7, #24]
  69:.\DisplayBLL.c ****     if(pdisplay->_dispid == DISPLAY1)
 172              		.loc 1 69 0
 173 0022 BB69     		ldr	r3, [r7, #24]
 174 0024 1B78     		ldrb	r3, [r3]	@ zero_extendqisi2
 175 0026 002B     		cmp	r3, #0
 176 0028 24D1     		bne	.L2
 177              	.LBB2:
  70:.\DisplayBLL.c ****     {
  71:.\DisplayBLL.c ****         UARTMessage *puartdisp = GetUARTMessageSlot(UART_DISPLAY1);
 178              		.loc 1 71 0
 179 002a A320     		movs	r0, #163
 180 002c FFF7FEFF 		bl	GetUARTMessageSlot
 181 0030 7861     		str	r0, [r7, #20]
  72:.\DisplayBLL.c ****         if(puartdisp)
 182              		.loc 1 72 0
 183 0032 7B69     		ldr	r3, [r7, #20]
 184 0034 002B     		cmp	r3, #0
 185 0036 1CD0     		beq	.L3
  73:.\DisplayBLL.c ****         {
  74:.\DisplayBLL.c ****             puartdisp->_messagelength = DisplayOutputString(0x0020, 0x00EA, puartdisp->_messagetx, 
 186              		.loc 1 74 0
 187 0038 7B69     		ldr	r3, [r7, #20]
 188 003a 1C1D     		adds	r4, r3, #4
 189 003c F869     		ldr	r0, [r7, #28]
 190 003e FFF7FEFF 		bl	strlen
 191 0042 0346     		mov	r3, r0
 192 0044 9BB2     		uxth	r3, r3
 193 0046 0093     		str	r3, [sp]
 194 0048 01AA     		add	r2, sp, #4
 195 004a 07F10803 		add	r3, r7, #8
 196 004e 93E80300 		ldmia	r3, {r0, r1}
 197 0052 82E80300 		stmia	r2, {r0, r1}
 198 0056 2020     		movs	r0, #32
 199 0058 EA21     		movs	r1, #234
 200 005a 2246     		mov	r2, r4
 201 005c FB69     		ldr	r3, [r7, #28]
ARM GAS  C:\Users\RECEPC~1\AppData\Local\Temp\ccNQpeOs.s 			page 6


 202 005e FFF7FEFF 		bl	DisplayOutputString
 203 0062 0346     		mov	r3, r0
 204 0064 1A46     		mov	r2, r3
 205 0066 7B69     		ldr	r3, [r7, #20]
 206 0068 5A80     		strh	r2, [r3, #2]	@ movhi
  75:.\DisplayBLL.c ****             puartdisp->_messagestate = PENDING;
 207              		.loc 1 75 0
 208 006a 7B69     		ldr	r3, [r7, #20]
 209 006c C222     		movs	r2, #194
 210 006e 1A70     		strb	r2, [r3]
 211              	.LBE2:
 212 0070 23E0     		b	.L1
 213              	.L3:
 214 0072 22E0     		b	.L1
 215              	.L2:
 216              	.LBB3:
  76:.\DisplayBLL.c ****         }
  77:.\DisplayBLL.c ****     }
  78:.\DisplayBLL.c ****     else
  79:.\DisplayBLL.c ****     {
  80:.\DisplayBLL.c ****         UARTMessage *puartdisp = GetUARTMessageSlot(UART_DISPLAY2);
 217              		.loc 1 80 0
 218 0074 A420     		movs	r0, #164
 219 0076 FFF7FEFF 		bl	GetUARTMessageSlot
 220 007a 3861     		str	r0, [r7, #16]
  81:.\DisplayBLL.c ****         if(puartdisp)
 221              		.loc 1 81 0
 222 007c 3B69     		ldr	r3, [r7, #16]
 223 007e 002B     		cmp	r3, #0
 224 0080 1BD0     		beq	.L1
  82:.\DisplayBLL.c ****         {
  83:.\DisplayBLL.c ****             puartdisp->_messagelength = DisplayOutputString(0x0020, 0x00EA, puartdisp->_messagetx, 
 225              		.loc 1 83 0
 226 0082 3B69     		ldr	r3, [r7, #16]
 227 0084 1C1D     		adds	r4, r3, #4
 228 0086 F869     		ldr	r0, [r7, #28]
 229 0088 FFF7FEFF 		bl	strlen
 230 008c 0346     		mov	r3, r0
 231 008e 9BB2     		uxth	r3, r3
 232 0090 0093     		str	r3, [sp]
 233 0092 01AA     		add	r2, sp, #4
 234 0094 07F10803 		add	r3, r7, #8
 235 0098 93E80300 		ldmia	r3, {r0, r1}
 236 009c 82E80300 		stmia	r2, {r0, r1}
 237 00a0 2020     		movs	r0, #32
 238 00a2 EA21     		movs	r1, #234
 239 00a4 2246     		mov	r2, r4
 240 00a6 FB69     		ldr	r3, [r7, #28]
 241 00a8 FFF7FEFF 		bl	DisplayOutputString
 242 00ac 0346     		mov	r3, r0
 243 00ae 1A46     		mov	r2, r3
 244 00b0 3B69     		ldr	r3, [r7, #16]
 245 00b2 5A80     		strh	r2, [r3, #2]	@ movhi
  84:.\DisplayBLL.c ****             puartdisp->_messagestate = PENDING;
 246              		.loc 1 84 0
 247 00b4 3B69     		ldr	r3, [r7, #16]
 248 00b6 C222     		movs	r2, #194
ARM GAS  C:\Users\RECEPC~1\AppData\Local\Temp\ccNQpeOs.s 			page 7


 249 00b8 1A70     		strb	r2, [r3]
 250              	.L1:
 251              	.LBE3:
  85:.\DisplayBLL.c ****         }
  86:.\DisplayBLL.c ****     }
  87:.\DisplayBLL.c **** }
 252              		.loc 1 87 0
 253 00ba 2437     		adds	r7, r7, #36
 254              		.cfi_def_cfa_offset 12
 255 00bc BD46     		mov	sp, r7
 256              		.cfi_def_cfa_register 13
 257              		@ sp needed
 258 00be 90BD     		pop	{r4, r7, pc}
 259              	.L6:
 260              		.align	2
 261              	.L5:
 262 00c0 00000000 		.word	.LC11
 263              		.cfi_endproc
 264              	.LFE63:
 265              		.size	WorkShiftDecorator, .-WorkShiftDecorator
 266              		.section	.text.InitiateWorkShiftValidation,"ax",%progbits
 267              		.align	2
 268              		.global	InitiateWorkShiftValidation
 269              		.thumb
 270              		.thumb_func
 271              		.type	InitiateWorkShiftValidation, %function
 272              	InitiateWorkShiftValidation:
 273              	.LFB64:
  88:.\DisplayBLL.c **** 
  89:.\DisplayBLL.c **** void InitiateWorkShiftValidation(void *pparam)
  90:.\DisplayBLL.c **** {
 274              		.loc 1 90 0
 275              		.cfi_startproc
 276              		@ args = 0, pretend = 0, frame = 16
 277              		@ frame_needed = 1, uses_anonymous_args = 0
 278 0000 90B5     		push	{r4, r7, lr}
 279              		.cfi_def_cfa_offset 12
 280              		.cfi_offset 4, -12
 281              		.cfi_offset 7, -8
 282              		.cfi_offset 14, -4
 283 0002 85B0     		sub	sp, sp, #20
 284              		.cfi_def_cfa_offset 32
 285 0004 00AF     		add	r7, sp, #0
 286              		.cfi_def_cfa_register 7
 287 0006 7860     		str	r0, [r7, #4]
  91:.\DisplayBLL.c ****     PDISPLAYLAYOUTPTR pdisplay = (PDISPLAYLAYOUTPTR)pparam;
 288              		.loc 1 91 0
 289 0008 7B68     		ldr	r3, [r7, #4]
 290 000a FB60     		str	r3, [r7, #12]
  92:.\DisplayBLL.c ****     if(pdisplay->_dispid == DISPLAY1)
 291              		.loc 1 92 0
 292 000c FB68     		ldr	r3, [r7, #12]
 293 000e 1B78     		ldrb	r3, [r3]	@ zero_extendqisi2
 294 0010 002B     		cmp	r3, #0
 295 0012 48D1     		bne	.L8
  93:.\DisplayBLL.c ****     {
  94:.\DisplayBLL.c ****         if(((PSINKMESSAGEPTR)pdisplay->_psequesteredmessagesink)->_buffer[GetBufferIndexFromDisplay
ARM GAS  C:\Users\RECEPC~1\AppData\Local\Temp\ccNQpeOs.s 			page 8


 296              		.loc 1 94 0
 297 0014 FB68     		ldr	r3, [r7, #12]
 298 0016 1C6B     		ldr	r4, [r3, #48]
 299 0018 2E20     		movs	r0, #46
 300 001a FFF7FEFF 		bl	GetBufferIndexFromDisplayID
 301 001e 0346     		mov	r3, r0
 302 0020 2344     		add	r3, r3, r4
 303 0022 1B7B     		ldrb	r3, [r3, #12]	@ zero_extendqisi2
 304 0024 562B     		cmp	r3, #86
 305 0026 19D1     		bne	.L9
 306              	.LBB4:
  95:.\DisplayBLL.c ****         {
  96:.\DisplayBLL.c ****             I2CBusLock();
 307              		.loc 1 96 0
 308 0028 FFF7FEFF 		bl	I2CBusLock
  97:.\DisplayBLL.c ****             ClearEepromBuffer();
 309              		.loc 1 97 0
 310 002c FFF7FEFF 		bl	ClearEepromBuffer
  98:.\DisplayBLL.c ****             LoadEepromPage(EEPROM_DISPENSER_PUMP1_LAYOUT_PAGE);
 311              		.loc 1 98 0
 312 0030 4FF40070 		mov	r0, #512
 313 0034 FFF7FEFF 		bl	LoadEepromPage
  99:.\DisplayBLL.c ****             uint8 wsvalue = GetEepromBuffer()[0x05];
 314              		.loc 1 99 0
 315 0038 FFF7FEFF 		bl	GetEepromBuffer
 316 003c 0346     		mov	r3, r0
 317 003e 5B79     		ldrb	r3, [r3, #5]
 318 0040 FB72     		strb	r3, [r7, #11]
 100:.\DisplayBLL.c ****             I2CBusUnlock();
 319              		.loc 1 100 0
 320 0042 FFF7FEFF 		bl	I2CBusUnlock
 101:.\DisplayBLL.c ****             if(wsvalue == 0x00)
 321              		.loc 1 101 0
 322 0046 FB7A     		ldrb	r3, [r7, #11]	@ zero_extendqisi2
 323 0048 002B     		cmp	r3, #0
 324 004a 03D1     		bne	.L10
 102:.\DisplayBLL.c ****                 pdisplay->_currentstate = DISPLAY_OPEN_WORK_SHIFT;
 325              		.loc 1 102 0
 326 004c FB68     		ldr	r3, [r7, #12]
 327 004e A522     		movs	r2, #165
 328 0050 1A71     		strb	r2, [r3, #4]
 329 0052 73E0     		b	.L7
 330              	.L10:
 103:.\DisplayBLL.c ****             else
 104:.\DisplayBLL.c ****                 pdisplay->_currentstate = DISPLAY_CLOSE_WORK_SHIFT;
 331              		.loc 1 104 0
 332 0054 FB68     		ldr	r3, [r7, #12]
 333 0056 A622     		movs	r2, #166
 334 0058 1A71     		strb	r2, [r3, #4]
 335              	.LBE4:
 336 005a 6FE0     		b	.L7
 337              	.L9:
 105:.\DisplayBLL.c ****         }
 106:.\DisplayBLL.c ****         else if(((PSINKMESSAGEPTR)pdisplay->_psequesteredmessagesink)->_buffer[GetBufferIndexFromDi
 338              		.loc 1 106 0
 339 005c FB68     		ldr	r3, [r7, #12]
 340 005e 1C6B     		ldr	r4, [r3, #48]
ARM GAS  C:\Users\RECEPC~1\AppData\Local\Temp\ccNQpeOs.s 			page 9


 341 0060 2E20     		movs	r0, #46
 342 0062 FFF7FEFF 		bl	GetBufferIndexFromDisplayID
 343 0066 0346     		mov	r3, r0
 344 0068 2344     		add	r3, r3, r4
 345 006a 1B7B     		ldrb	r3, [r3, #12]	@ zero_extendqisi2
 346 006c 572B     		cmp	r3, #87
 347 006e 19D1     		bne	.L12
 348              	.LBB5:
 107:.\DisplayBLL.c ****         {
 108:.\DisplayBLL.c ****             I2CBusLock();
 349              		.loc 1 108 0
 350 0070 FFF7FEFF 		bl	I2CBusLock
 109:.\DisplayBLL.c ****             ClearEepromBuffer();
 351              		.loc 1 109 0
 352 0074 FFF7FEFF 		bl	ClearEepromBuffer
 110:.\DisplayBLL.c ****             LoadEepromPage(EEPROM_DISPENSER_PUMP3_LAYOUT_PAGE);
 353              		.loc 1 110 0
 354 0078 4FF42070 		mov	r0, #640
 355 007c FFF7FEFF 		bl	LoadEepromPage
 111:.\DisplayBLL.c ****             uint8 wsvalue = GetEepromBuffer()[0x05];
 356              		.loc 1 111 0
 357 0080 FFF7FEFF 		bl	GetEepromBuffer
 358 0084 0346     		mov	r3, r0
 359 0086 5B79     		ldrb	r3, [r3, #5]
 360 0088 BB72     		strb	r3, [r7, #10]
 112:.\DisplayBLL.c ****             I2CBusUnlock();
 361              		.loc 1 112 0
 362 008a FFF7FEFF 		bl	I2CBusUnlock
 113:.\DisplayBLL.c ****             if(wsvalue == 0x00)
 363              		.loc 1 113 0
 364 008e BB7A     		ldrb	r3, [r7, #10]	@ zero_extendqisi2
 365 0090 002B     		cmp	r3, #0
 366 0092 03D1     		bne	.L13
 114:.\DisplayBLL.c ****                 pdisplay->_currentstate = DISPLAY_OPEN_WORK_SHIFT;
 367              		.loc 1 114 0
 368 0094 FB68     		ldr	r3, [r7, #12]
 369 0096 A522     		movs	r2, #165
 370 0098 1A71     		strb	r2, [r3, #4]
 371 009a 03E0     		b	.L12
 372              	.L13:
 115:.\DisplayBLL.c ****             else
 116:.\DisplayBLL.c ****                 pdisplay->_currentstate = DISPLAY_CLOSE_WORK_SHIFT;
 373              		.loc 1 116 0
 374 009c FB68     		ldr	r3, [r7, #12]
 375 009e A622     		movs	r2, #166
 376 00a0 1A71     		strb	r2, [r3, #4]
 377              	.LBE5:
 378 00a2 4BE0     		b	.L7
 379              	.L12:
 380 00a4 4AE0     		b	.L7
 381              	.L8:
 117:.\DisplayBLL.c ****         }
 118:.\DisplayBLL.c ****     }
 119:.\DisplayBLL.c ****     else if(pdisplay->_dispid == DISPLAY2)
 382              		.loc 1 119 0
 383 00a6 FB68     		ldr	r3, [r7, #12]
 384 00a8 1B78     		ldrb	r3, [r3]	@ zero_extendqisi2
ARM GAS  C:\Users\RECEPC~1\AppData\Local\Temp\ccNQpeOs.s 			page 10


 385 00aa 012B     		cmp	r3, #1
 386 00ac 46D1     		bne	.L7
 120:.\DisplayBLL.c ****     {
 121:.\DisplayBLL.c ****         if(((PSINKMESSAGEPTR)pdisplay->_psequesteredmessagesink)->_buffer[GetBufferIndexFromDisplay
 387              		.loc 1 121 0
 388 00ae FB68     		ldr	r3, [r7, #12]
 389 00b0 1C6B     		ldr	r4, [r3, #48]
 390 00b2 2E20     		movs	r0, #46
 391 00b4 FFF7FEFF 		bl	GetBufferIndexFromDisplayID
 392 00b8 0346     		mov	r3, r0
 393 00ba 2344     		add	r3, r3, r4
 394 00bc 1B7B     		ldrb	r3, [r3, #12]	@ zero_extendqisi2
 395 00be 562B     		cmp	r3, #86
 396 00c0 19D1     		bne	.L15
 397              	.LBB6:
 122:.\DisplayBLL.c ****         {
 123:.\DisplayBLL.c ****             I2CBusLock();
 398              		.loc 1 123 0
 399 00c2 FFF7FEFF 		bl	I2CBusLock
 124:.\DisplayBLL.c ****             ClearEepromBuffer();
 400              		.loc 1 124 0
 401 00c6 FFF7FEFF 		bl	ClearEepromBuffer
 125:.\DisplayBLL.c ****             LoadEepromPage(EEPROM_DISPENSER_PUMP4_LAYOUT_PAGE);
 402              		.loc 1 125 0
 403 00ca 4FF43070 		mov	r0, #704
 404 00ce FFF7FEFF 		bl	LoadEepromPage
 126:.\DisplayBLL.c ****             uint8 wsvalue = GetEepromBuffer()[0x05];
 405              		.loc 1 126 0
 406 00d2 FFF7FEFF 		bl	GetEepromBuffer
 407 00d6 0346     		mov	r3, r0
 408 00d8 5B79     		ldrb	r3, [r3, #5]
 409 00da 7B72     		strb	r3, [r7, #9]
 127:.\DisplayBLL.c ****             I2CBusUnlock();
 410              		.loc 1 127 0
 411 00dc FFF7FEFF 		bl	I2CBusUnlock
 128:.\DisplayBLL.c ****             if(wsvalue == 0x00)
 412              		.loc 1 128 0
 413 00e0 7B7A     		ldrb	r3, [r7, #9]	@ zero_extendqisi2
 414 00e2 002B     		cmp	r3, #0
 415 00e4 03D1     		bne	.L16
 129:.\DisplayBLL.c ****                 pdisplay->_currentstate = DISPLAY_OPEN_WORK_SHIFT;
 416              		.loc 1 129 0
 417 00e6 FB68     		ldr	r3, [r7, #12]
 418 00e8 A522     		movs	r2, #165
 419 00ea 1A71     		strb	r2, [r3, #4]
 420 00ec 26E0     		b	.L7
 421              	.L16:
 130:.\DisplayBLL.c ****             else
 131:.\DisplayBLL.c ****                 pdisplay->_currentstate = DISPLAY_CLOSE_WORK_SHIFT;
 422              		.loc 1 131 0
 423 00ee FB68     		ldr	r3, [r7, #12]
 424 00f0 A622     		movs	r2, #166
 425 00f2 1A71     		strb	r2, [r3, #4]
 426              	.LBE6:
 427 00f4 22E0     		b	.L7
 428              	.L15:
 132:.\DisplayBLL.c ****         }
ARM GAS  C:\Users\RECEPC~1\AppData\Local\Temp\ccNQpeOs.s 			page 11


 133:.\DisplayBLL.c ****         else if(((PSINKMESSAGEPTR)pdisplay->_psequesteredmessagesink)->_buffer[GetBufferIndexFromDi
 429              		.loc 1 133 0
 430 00f6 FB68     		ldr	r3, [r7, #12]
 431 00f8 1C6B     		ldr	r4, [r3, #48]
 432 00fa 2E20     		movs	r0, #46
 433 00fc FFF7FEFF 		bl	GetBufferIndexFromDisplayID
 434 0100 0346     		mov	r3, r0
 435 0102 2344     		add	r3, r3, r4
 436 0104 1B7B     		ldrb	r3, [r3, #12]	@ zero_extendqisi2
 437 0106 572B     		cmp	r3, #87
 438 0108 18D1     		bne	.L7
 439              	.LBB7:
 134:.\DisplayBLL.c ****         {
 135:.\DisplayBLL.c ****             I2CBusLock();
 440              		.loc 1 135 0
 441 010a FFF7FEFF 		bl	I2CBusLock
 136:.\DisplayBLL.c ****             ClearEepromBuffer();
 442              		.loc 1 136 0
 443 010e FFF7FEFF 		bl	ClearEepromBuffer
 137:.\DisplayBLL.c ****             LoadEepromPage(EEPROM_DISPENSER_PUMP2_LAYOUT_PAGE);
 444              		.loc 1 137 0
 445 0112 4FF41070 		mov	r0, #576
 446 0116 FFF7FEFF 		bl	LoadEepromPage
 138:.\DisplayBLL.c ****             uint8 wsvalue = GetEepromBuffer()[0x05];
 447              		.loc 1 138 0
 448 011a FFF7FEFF 		bl	GetEepromBuffer
 449 011e 0346     		mov	r3, r0
 450 0120 5B79     		ldrb	r3, [r3, #5]
 451 0122 3B72     		strb	r3, [r7, #8]
 139:.\DisplayBLL.c ****             I2CBusUnlock();
 452              		.loc 1 139 0
 453 0124 FFF7FEFF 		bl	I2CBusUnlock
 140:.\DisplayBLL.c ****             if(wsvalue == 0x00)
 454              		.loc 1 140 0
 455 0128 3B7A     		ldrb	r3, [r7, #8]	@ zero_extendqisi2
 456 012a 002B     		cmp	r3, #0
 457 012c 03D1     		bne	.L18
 141:.\DisplayBLL.c ****                 pdisplay->_currentstate = DISPLAY_OPEN_WORK_SHIFT;
 458              		.loc 1 141 0
 459 012e FB68     		ldr	r3, [r7, #12]
 460 0130 A522     		movs	r2, #165
 461 0132 1A71     		strb	r2, [r3, #4]
 462 0134 02E0     		b	.L7
 463              	.L18:
 142:.\DisplayBLL.c ****             else
 143:.\DisplayBLL.c ****                 pdisplay->_currentstate = DISPLAY_CLOSE_WORK_SHIFT;
 464              		.loc 1 143 0
 465 0136 FB68     		ldr	r3, [r7, #12]
 466 0138 A622     		movs	r2, #166
 467 013a 1A71     		strb	r2, [r3, #4]
 468              	.L7:
 469              	.LBE7:
 144:.\DisplayBLL.c ****         }
 145:.\DisplayBLL.c ****     }
 146:.\DisplayBLL.c **** }
 470              		.loc 1 146 0
 471 013c 1437     		adds	r7, r7, #20
ARM GAS  C:\Users\RECEPC~1\AppData\Local\Temp\ccNQpeOs.s 			page 12


 472              		.cfi_def_cfa_offset 12
 473 013e BD46     		mov	sp, r7
 474              		.cfi_def_cfa_register 13
 475              		@ sp needed
 476 0140 90BD     		pop	{r4, r7, pc}
 477              		.cfi_endproc
 478              	.LFE64:
 479              		.size	InitiateWorkShiftValidation, .-InitiateWorkShiftValidation
 480 0142 00BF     		.section	.text.RequestWorkShiftOperAuthorization,"ax",%progbits
 481              		.align	2
 482              		.global	RequestWorkShiftOperAuthorization
 483              		.thumb
 484              		.thumb_func
 485              		.type	RequestWorkShiftOperAuthorization, %function
 486              	RequestWorkShiftOperAuthorization:
 487              	.LFB65:
 147:.\DisplayBLL.c **** 
 148:.\DisplayBLL.c **** void RequestWorkShiftOperAuthorization(void *pparam)
 149:.\DisplayBLL.c **** {
 488              		.loc 1 149 0
 489              		.cfi_startproc
 490              		@ args = 0, pretend = 0, frame = 24
 491              		@ frame_needed = 1, uses_anonymous_args = 0
 492 0000 B0B5     		push	{r4, r5, r7, lr}
 493              		.cfi_def_cfa_offset 16
 494              		.cfi_offset 4, -16
 495              		.cfi_offset 5, -12
 496              		.cfi_offset 7, -8
 497              		.cfi_offset 14, -4
 498 0002 86B0     		sub	sp, sp, #24
 499              		.cfi_def_cfa_offset 40
 500 0004 00AF     		add	r7, sp, #0
 501              		.cfi_def_cfa_register 7
 502 0006 7860     		str	r0, [r7, #4]
 150:.\DisplayBLL.c ****     PDISPLAYLAYOUTPTR pdisplay = (PDISPLAYLAYOUTPTR)pparam;
 503              		.loc 1 150 0
 504 0008 7B68     		ldr	r3, [r7, #4]
 505 000a 7B61     		str	r3, [r7, #20]
 151:.\DisplayBLL.c ****     //HERE WE ATTEMPT TO PUSH THE TRANSACTION INTO THE PUMP'S TRANSACTIONAL QUEUE.
 152:.\DisplayBLL.c ****     //THIS IS DONE ONLY IF THERE IS ROOM IN THE QUEUE, OTHERWISE THIS STATE WON'T
 153:.\DisplayBLL.c ****     //BE REPORTED TO THE REMOTE PEER.
 154:.\DisplayBLL.c ****     PNEAR_PUMPPTR ppumpptr = &_g_pumps[GetPumpIndexFromDisplay(pdisplay)];
 506              		.loc 1 154 0
 507 000c 7869     		ldr	r0, [r7, #20]
 508 000e FFF7FEFF 		bl	GetPumpIndexFromDisplay
 509 0012 0346     		mov	r3, r0
 510 0014 1A46     		mov	r2, r3
 511 0016 40F6C833 		movw	r3, #3016
 512 001a 03FB02F3 		mul	r3, r3, r2
 513 001e 464A     		ldr	r2, .L21
 514 0020 1344     		add	r3, r3, r2
 515 0022 3B61     		str	r3, [r7, #16]
 155:.\DisplayBLL.c ****     if(ppumpptr)
 516              		.loc 1 155 0
 517 0024 3B69     		ldr	r3, [r7, #16]
 518 0026 002B     		cmp	r3, #0
 519 0028 00F08380 		beq	.L19
ARM GAS  C:\Users\RECEPC~1\AppData\Local\Temp\ccNQpeOs.s 			page 13


 520              	.LBB8:
 156:.\DisplayBLL.c ****     {
 157:.\DisplayBLL.c ****         ppumpptr->PumpTransQueueLock(ppumpptr);
 521              		.loc 1 157 0
 522 002c 3B69     		ldr	r3, [r7, #16]
 523 002e D3F8443B 		ldr	r3, [r3, #2884]
 524 0032 3869     		ldr	r0, [r7, #16]
 525 0034 9847     		blx	r3
 158:.\DisplayBLL.c ****         PNEAR_PUMPTRANSACTIONALSTATEPTR pts = ppumpptr->PumpTransQueueAllocate(ppumpptr);
 526              		.loc 1 158 0
 527 0036 3B69     		ldr	r3, [r7, #16]
 528 0038 D3F8583B 		ldr	r3, [r3, #2904]
 529 003c 3869     		ldr	r0, [r7, #16]
 530 003e 9847     		blx	r3
 531 0040 F860     		str	r0, [r7, #12]
 159:.\DisplayBLL.c ****         ppumpptr->PumpTransQueueUnlock(ppumpptr);
 532              		.loc 1 159 0
 533 0042 3B69     		ldr	r3, [r7, #16]
 534 0044 D3F8483B 		ldr	r3, [r3, #2888]
 535 0048 3869     		ldr	r0, [r7, #16]
 536 004a 9847     		blx	r3
 160:.\DisplayBLL.c ****         if(pts)
 537              		.loc 1 160 0
 538 004c FB68     		ldr	r3, [r7, #12]
 539 004e 002B     		cmp	r3, #0
 540 0050 6FD0     		beq	.L19
 541              	.LBB9:
 161:.\DisplayBLL.c ****         {
 162:.\DisplayBLL.c ****             uint8 index = 0;
 542              		.loc 1 162 0
 543 0052 0023     		movs	r3, #0
 544 0054 FB72     		strb	r3, [r7, #11]
 163:.\DisplayBLL.c ****             pts->_transtate = RF_MUX_ISLAND_OPER_DATA_REQUEST;
 545              		.loc 1 163 0
 546 0056 FB68     		ldr	r3, [r7, #12]
 547 0058 E322     		movs	r2, #227
 548 005a 5A70     		strb	r2, [r3, #1]
 164:.\DisplayBLL.c ****             //Pump ID always comes in the first position (0x00)
 165:.\DisplayBLL.c ****             pts->_buffer[index++] = ppumpptr->_pumpid;
 549              		.loc 1 165 0
 550 005c FB7A     		ldrb	r3, [r7, #11]	@ zero_extendqisi2
 551 005e 5A1C     		adds	r2, r3, #1
 552 0060 FA72     		strb	r2, [r7, #11]
 553 0062 1946     		mov	r1, r3
 554 0064 3B69     		ldr	r3, [r7, #16]
 555 0066 1A78     		ldrb	r2, [r3]	@ zero_extendqisi2
 556 0068 FB68     		ldr	r3, [r7, #12]
 557 006a 0B44     		add	r3, r3, r1
 558 006c 9A70     		strb	r2, [r3, #2]
 166:.\DisplayBLL.c ****             
 167:.\DisplayBLL.c ****             memcpy(&pts->_buffer[index], &((PSINKMESSAGEPTR)pdisplay->_psequesteredmessagesink)->_b
 559              		.loc 1 167 0
 560 006e FB7A     		ldrb	r3, [r7, #11]	@ zero_extendqisi2
 561 0070 FA68     		ldr	r2, [r7, #12]
 562 0072 1344     		add	r3, r3, r2
 563 0074 9D1C     		adds	r5, r3, #2
 564 0076 7B69     		ldr	r3, [r7, #20]
ARM GAS  C:\Users\RECEPC~1\AppData\Local\Temp\ccNQpeOs.s 			page 14


 565 0078 1C6B     		ldr	r4, [r3, #48]
 566 007a 2420     		movs	r0, #36
 567 007c FFF7FEFF 		bl	GetBufferIndexFromDisplayID
 568 0080 0346     		mov	r3, r0
 569 0082 0833     		adds	r3, r3, #8
 570 0084 2344     		add	r3, r3, r4
 571 0086 1C1D     		adds	r4, r3, #4
 572 0088 2420     		movs	r0, #36
 573 008a FFF7FEFF 		bl	GetBufferLengthFromDisplayID
 574 008e 0346     		mov	r3, r0
 575 0090 2846     		mov	r0, r5
 576 0092 2146     		mov	r1, r4
 577 0094 1A46     		mov	r2, r3
 578 0096 FFF7FEFF 		bl	memcpy
 168:.\DisplayBLL.c ****             //PSTRBUFFTOGG((PNEAR_BYTE_PTR)&pts->_buffer[index], GetBufferLengthFromDisplayID(DISPL
 169:.\DisplayBLL.c ****             index += GetBufferLengthFromDisplayID(DISPLAY_INTRODUZCA_CEDULA);
 579              		.loc 1 169 0
 580 009a 2420     		movs	r0, #36
 581 009c FFF7FEFF 		bl	GetBufferLengthFromDisplayID
 582 00a0 0346     		mov	r3, r0
 583 00a2 1A46     		mov	r2, r3
 584 00a4 FB7A     		ldrb	r3, [r7, #11]
 585 00a6 1344     		add	r3, r3, r2
 586 00a8 FB72     		strb	r3, [r7, #11]
 170:.\DisplayBLL.c ****             
 171:.\DisplayBLL.c ****             memcpy(&pts->_buffer[index], &((PSINKMESSAGEPTR)pdisplay->_psequesteredmessagesink)->_b
 587              		.loc 1 171 0
 588 00aa FB7A     		ldrb	r3, [r7, #11]	@ zero_extendqisi2
 589 00ac FA68     		ldr	r2, [r7, #12]
 590 00ae 1344     		add	r3, r3, r2
 591 00b0 9D1C     		adds	r5, r3, #2
 592 00b2 7B69     		ldr	r3, [r7, #20]
 593 00b4 1C6B     		ldr	r4, [r3, #48]
 594 00b6 2520     		movs	r0, #37
 595 00b8 FFF7FEFF 		bl	GetBufferIndexFromDisplayID
 596 00bc 0346     		mov	r3, r0
 597 00be 0833     		adds	r3, r3, #8
 598 00c0 2344     		add	r3, r3, r4
 599 00c2 1C1D     		adds	r4, r3, #4
 600 00c4 2520     		movs	r0, #37
 601 00c6 FFF7FEFF 		bl	GetBufferLengthFromDisplayID
 602 00ca 0346     		mov	r3, r0
 603 00cc 2846     		mov	r0, r5
 604 00ce 2146     		mov	r1, r4
 605 00d0 1A46     		mov	r2, r3
 606 00d2 FFF7FEFF 		bl	memcpy
 172:.\DisplayBLL.c ****             PSTRBUFFTOGG((PNEAR_BYTE_PTR)&pts->_buffer[index], strlen(&pts->_buffer[index]));
 607              		.loc 1 172 0
 608 00d6 FB7A     		ldrb	r3, [r7, #11]	@ zero_extendqisi2
 609 00d8 FA68     		ldr	r2, [r7, #12]
 610 00da 1344     		add	r3, r3, r2
 611 00dc 9C1C     		adds	r4, r3, #2
 612 00de FB7A     		ldrb	r3, [r7, #11]	@ zero_extendqisi2
 613 00e0 FA68     		ldr	r2, [r7, #12]
 614 00e2 1344     		add	r3, r3, r2
 615 00e4 0233     		adds	r3, r3, #2
 616 00e6 1846     		mov	r0, r3
ARM GAS  C:\Users\RECEPC~1\AppData\Local\Temp\ccNQpeOs.s 			page 15


 617 00e8 FFF7FEFF 		bl	strlen
 618 00ec 0346     		mov	r3, r0
 619 00ee DBB2     		uxtb	r3, r3
 620 00f0 2046     		mov	r0, r4
 621 00f2 1946     		mov	r1, r3
 622 00f4 FFF7FEFF 		bl	PSTRBUFFTOGG
 173:.\DisplayBLL.c ****             index += GetBufferLengthFromDisplayID(DISPLAY_INGRESE_PASSWORD);
 623              		.loc 1 173 0
 624 00f8 2520     		movs	r0, #37
 625 00fa FFF7FEFF 		bl	GetBufferLengthFromDisplayID
 626 00fe 0346     		mov	r3, r0
 627 0100 1A46     		mov	r2, r3
 628 0102 FB7A     		ldrb	r3, [r7, #11]
 629 0104 1344     		add	r3, r3, r2
 630 0106 FB72     		strb	r3, [r7, #11]
 174:.\DisplayBLL.c ****             
 175:.\DisplayBLL.c ****             pts->_buffersize = index;
 631              		.loc 1 175 0
 632 0108 FB7A     		ldrb	r3, [r7, #11]	@ zero_extendqisi2
 633 010a 9AB2     		uxth	r2, r3
 634 010c FB68     		ldr	r3, [r7, #12]
 635 010e A3F80221 		strh	r2, [r3, #258]	@ movhi
 176:.\DisplayBLL.c **** 
 177:.\DisplayBLL.c ****             ppumpptr->PumpTransQueueLock(ppumpptr);
 636              		.loc 1 177 0
 637 0112 3B69     		ldr	r3, [r7, #16]
 638 0114 D3F8443B 		ldr	r3, [r3, #2884]
 639 0118 3869     		ldr	r0, [r7, #16]
 640 011a 9847     		blx	r3
 178:.\DisplayBLL.c ****             ppumpptr->PumpTransQueueEnqueue(ppumpptr, pts);
 641              		.loc 1 178 0
 642 011c 3B69     		ldr	r3, [r7, #16]
 643 011e D3F8503B 		ldr	r3, [r3, #2896]
 644 0122 3869     		ldr	r0, [r7, #16]
 645 0124 F968     		ldr	r1, [r7, #12]
 646 0126 9847     		blx	r3
 179:.\DisplayBLL.c ****             ppumpptr->PumpTransQueueUnlock(ppumpptr);
 647              		.loc 1 179 0
 648 0128 3B69     		ldr	r3, [r7, #16]
 649 012a D3F8483B 		ldr	r3, [r3, #2888]
 650 012e 3869     		ldr	r0, [r7, #16]
 651 0130 9847     		blx	r3
 652              	.L19:
 653              	.LBE9:
 654              	.LBE8:
 180:.\DisplayBLL.c ****         }
 181:.\DisplayBLL.c ****     }
 182:.\DisplayBLL.c **** }
 655              		.loc 1 182 0
 656 0132 1837     		adds	r7, r7, #24
 657              		.cfi_def_cfa_offset 16
 658 0134 BD46     		mov	sp, r7
 659              		.cfi_def_cfa_register 13
 660              		@ sp needed
 661 0136 B0BD     		pop	{r4, r5, r7, pc}
 662              	.L22:
 663              		.align	2
ARM GAS  C:\Users\RECEPC~1\AppData\Local\Temp\ccNQpeOs.s 			page 16


 664              	.L21:
 665 0138 00000000 		.word	_g_pumps
 666              		.cfi_endproc
 667              	.LFE65:
 668              		.size	RequestWorkShiftOperAuthorization, .-RequestWorkShiftOperAuthorization
 669              		.section	.rodata
 670 0025 000000   		.align	2
 671              	.LC12:
 672 0028 28256420 		.ascii	"(%d Copia)\000"
 672      436F7069 
 672      612900
 673 0033 00       		.align	2
 674              	.LC13:
 675 0034 28256420 		.ascii	"(%d Copias)\000"
 675      436F7069 
 675      61732900 
 676              		.section	.text.DrawNumberOfCopies,"ax",%progbits
 677              		.align	2
 678              		.global	DrawNumberOfCopies
 679              		.thumb
 680              		.thumb_func
 681              		.type	DrawNumberOfCopies, %function
 682              	DrawNumberOfCopies:
 683              	.LFB66:
 183:.\DisplayBLL.c **** 
 184:.\DisplayBLL.c **** void DrawNumberOfCopies(void *pparam)
 185:.\DisplayBLL.c **** {
 684              		.loc 1 185 0
 685              		.cfi_startproc
 686              		@ args = 0, pretend = 0, frame = 48
 687              		@ frame_needed = 1, uses_anonymous_args = 0
 688 0000 B0B5     		push	{r4, r5, r7, lr}
 689              		.cfi_def_cfa_offset 16
 690              		.cfi_offset 4, -16
 691              		.cfi_offset 5, -12
 692              		.cfi_offset 7, -8
 693              		.cfi_offset 14, -4
 694 0002 90B0     		sub	sp, sp, #64
 695              		.cfi_def_cfa_offset 80
 696 0004 04AF     		add	r7, sp, #16
 697              		.cfi_def_cfa 7, 64
 698 0006 7860     		str	r0, [r7, #4]
 186:.\DisplayBLL.c ****     char8 buffer[16];
 187:.\DisplayBLL.c ****     FontData fontdata;
 188:.\DisplayBLL.c ****     fontdata._size = 0x03;
 699              		.loc 1 188 0
 700 0008 0323     		movs	r3, #3
 701 000a 3B72     		strb	r3, [r7, #8]
 189:.\DisplayBLL.c ****     fontdata._backcolor = 0xFFFF;
 702              		.loc 1 189 0
 703 000c 4FF6FF73 		movw	r3, #65535
 704 0010 BB81     		strh	r3, [r7, #12]	@ movhi
 190:.\DisplayBLL.c ****     fontdata._forecolor = 0x0000;
 705              		.loc 1 190 0
 706 0012 0023     		movs	r3, #0
 707 0014 FB81     		strh	r3, [r7, #14]	@ movhi
 191:.\DisplayBLL.c ****     fontdata._opaquebackground = DISP_TEXT_TRANSP;
ARM GAS  C:\Users\RECEPC~1\AppData\Local\Temp\ccNQpeOs.s 			page 17


 708              		.loc 1 191 0
 709 0016 8523     		movs	r3, #133
 710 0018 BB72     		strb	r3, [r7, #10]
 192:.\DisplayBLL.c ****     DisplayLayout *pdisplay = (DisplayLayout*)pparam;
 711              		.loc 1 192 0
 712 001a 7B68     		ldr	r3, [r7, #4]
 713 001c FB62     		str	r3, [r7, #44]
 193:.\DisplayBLL.c ****     
 194:.\DisplayBLL.c ****     I2CBusLock();
 714              		.loc 1 194 0
 715 001e FFF7FEFF 		bl	I2CBusLock
 195:.\DisplayBLL.c ****     ClearEepromBuffer();
 716              		.loc 1 195 0
 717 0022 FFF7FEFF 		bl	ClearEepromBuffer
 196:.\DisplayBLL.c ****     LoadEepromPage(EEPROM_CONFIGURATION_PAGE7);
 718              		.loc 1 196 0
 719 0026 4FF4E070 		mov	r0, #448
 720 002a FFF7FEFF 		bl	LoadEepromPage
 197:.\DisplayBLL.c ****     uint8 numberofprintedcopies = GetEepromBuffer()[0x08];
 721              		.loc 1 197 0
 722 002e FFF7FEFF 		bl	GetEepromBuffer
 723 0032 0346     		mov	r3, r0
 724 0034 1B7A     		ldrb	r3, [r3, #8]
 725 0036 87F82B30 		strb	r3, [r7, #43]
 198:.\DisplayBLL.c ****     I2CBusUnlock();
 726              		.loc 1 198 0
 727 003a FFF7FEFF 		bl	I2CBusUnlock
 199:.\DisplayBLL.c ****     
 200:.\DisplayBLL.c ****     if(pdisplay->_dispid == DISPLAY1)
 728              		.loc 1 200 0
 729 003e FB6A     		ldr	r3, [r7, #44]
 730 0040 1B78     		ldrb	r3, [r3]	@ zero_extendqisi2
 731 0042 002B     		cmp	r3, #0
 732 0044 47D1     		bne	.L24
 733              	.LBB10:
 201:.\DisplayBLL.c ****     {
 202:.\DisplayBLL.c ****         UARTMessage *puartdisp = GetUARTMessageSlot(UART_DISPLAY1);
 734              		.loc 1 202 0
 735 0046 A320     		movs	r0, #163
 736 0048 FFF7FEFF 		bl	GetUARTMessageSlot
 737 004c 7862     		str	r0, [r7, #36]
 203:.\DisplayBLL.c ****         if(puartdisp)
 738              		.loc 1 203 0
 739 004e 7B6A     		ldr	r3, [r7, #36]
 740 0050 002B     		cmp	r3, #0
 741 0052 3FD0     		beq	.L25
 204:.\DisplayBLL.c ****         {
 205:.\DisplayBLL.c ****             memset(buffer, 0x00, sizeof(buffer));
 742              		.loc 1 205 0
 743 0054 07F11003 		add	r3, r7, #16
 744 0058 1846     		mov	r0, r3
 745 005a 0021     		movs	r1, #0
 746 005c 1022     		movs	r2, #16
 747 005e FFF7FEFF 		bl	memset
 206:.\DisplayBLL.c ****             if(numberofprintedcopies == 0x01)
 748              		.loc 1 206 0
 749 0062 97F82B30 		ldrb	r3, [r7, #43]	@ zero_extendqisi2
ARM GAS  C:\Users\RECEPC~1\AppData\Local\Temp\ccNQpeOs.s 			page 18


 750 0066 012B     		cmp	r3, #1
 751 0068 09D1     		bne	.L26
 207:.\DisplayBLL.c ****                 sprintf(buffer, "(%d Copia)", numberofprintedcopies);
 752              		.loc 1 207 0
 753 006a 97F82B30 		ldrb	r3, [r7, #43]	@ zero_extendqisi2
 754 006e 07F11002 		add	r2, r7, #16
 755 0072 1046     		mov	r0, r2
 756 0074 3C49     		ldr	r1, .L31
 757 0076 1A46     		mov	r2, r3
 758 0078 FFF7FEFF 		bl	sprintf
 759 007c 08E0     		b	.L27
 760              	.L26:
 208:.\DisplayBLL.c ****             else
 209:.\DisplayBLL.c ****                 sprintf(buffer, "(%d Copias)", numberofprintedcopies);
 761              		.loc 1 209 0
 762 007e 97F82B30 		ldrb	r3, [r7, #43]	@ zero_extendqisi2
 763 0082 07F11002 		add	r2, r7, #16
 764 0086 1046     		mov	r0, r2
 765 0088 3849     		ldr	r1, .L31+4
 766 008a 1A46     		mov	r2, r3
 767 008c FFF7FEFF 		bl	sprintf
 768              	.L27:
 210:.\DisplayBLL.c ****                 
 211:.\DisplayBLL.c ****             //MOVE ALL OF THESE TEXTS TO THE EEPROM
 212:.\DisplayBLL.c ****             puartdisp->_messagelength = DisplayOutputString(0x0F0, 0x12A, puartdisp->_messagetx, bu
 769              		.loc 1 212 0
 770 0090 7B6A     		ldr	r3, [r7, #36]
 771 0092 1D1D     		adds	r5, r3, #4
 772 0094 07F11003 		add	r3, r7, #16
 773 0098 1846     		mov	r0, r3
 774 009a FFF7FEFF 		bl	strlen
 775 009e 0346     		mov	r3, r0
 776 00a0 9BB2     		uxth	r3, r3
 777 00a2 07F11004 		add	r4, r7, #16
 778 00a6 0093     		str	r3, [sp]
 779 00a8 01AA     		add	r2, sp, #4
 780 00aa 07F10803 		add	r3, r7, #8
 781 00ae 93E80300 		ldmia	r3, {r0, r1}
 782 00b2 82E80300 		stmia	r2, {r0, r1}
 783 00b6 F020     		movs	r0, #240
 784 00b8 4FF49571 		mov	r1, #298
 785 00bc 2A46     		mov	r2, r5
 786 00be 2346     		mov	r3, r4
 787 00c0 FFF7FEFF 		bl	DisplayOutputString
 788 00c4 0346     		mov	r3, r0
 789 00c6 1A46     		mov	r2, r3
 790 00c8 7B6A     		ldr	r3, [r7, #36]
 791 00ca 5A80     		strh	r2, [r3, #2]	@ movhi
 213:.\DisplayBLL.c ****             puartdisp->_messagestate = PENDING;
 792              		.loc 1 213 0
 793 00cc 7B6A     		ldr	r3, [r7, #36]
 794 00ce C222     		movs	r2, #194
 795 00d0 1A70     		strb	r2, [r3]
 796              	.LBE10:
 797 00d2 46E0     		b	.L23
 798              	.L25:
 799 00d4 45E0     		b	.L23
ARM GAS  C:\Users\RECEPC~1\AppData\Local\Temp\ccNQpeOs.s 			page 19


 800              	.L24:
 801              	.LBB11:
 214:.\DisplayBLL.c ****         }
 215:.\DisplayBLL.c ****     }
 216:.\DisplayBLL.c ****     else
 217:.\DisplayBLL.c ****     {
 218:.\DisplayBLL.c ****         UARTMessage *puartdisp = GetUARTMessageSlot(UART_DISPLAY2);
 802              		.loc 1 218 0
 803 00d6 A420     		movs	r0, #164
 804 00d8 FFF7FEFF 		bl	GetUARTMessageSlot
 805 00dc 3862     		str	r0, [r7, #32]
 219:.\DisplayBLL.c ****         if(puartdisp)
 806              		.loc 1 219 0
 807 00de 3B6A     		ldr	r3, [r7, #32]
 808 00e0 002B     		cmp	r3, #0
 809 00e2 3ED0     		beq	.L23
 220:.\DisplayBLL.c ****         {
 221:.\DisplayBLL.c ****             memset(buffer, 0x00, sizeof(buffer));
 810              		.loc 1 221 0
 811 00e4 07F11003 		add	r3, r7, #16
 812 00e8 1846     		mov	r0, r3
 813 00ea 0021     		movs	r1, #0
 814 00ec 1022     		movs	r2, #16
 815 00ee FFF7FEFF 		bl	memset
 222:.\DisplayBLL.c ****             if(numberofprintedcopies == 0x01)
 816              		.loc 1 222 0
 817 00f2 97F82B30 		ldrb	r3, [r7, #43]	@ zero_extendqisi2
 818 00f6 012B     		cmp	r3, #1
 819 00f8 09D1     		bne	.L29
 223:.\DisplayBLL.c ****                 sprintf(buffer, "(%d Copia)", numberofprintedcopies);
 820              		.loc 1 223 0
 821 00fa 97F82B30 		ldrb	r3, [r7, #43]	@ zero_extendqisi2
 822 00fe 07F11002 		add	r2, r7, #16
 823 0102 1046     		mov	r0, r2
 824 0104 1849     		ldr	r1, .L31
 825 0106 1A46     		mov	r2, r3
 826 0108 FFF7FEFF 		bl	sprintf
 827 010c 08E0     		b	.L30
 828              	.L29:
 224:.\DisplayBLL.c ****             else
 225:.\DisplayBLL.c ****                 sprintf(buffer, "(%d Copias)", numberofprintedcopies);
 829              		.loc 1 225 0
 830 010e 97F82B30 		ldrb	r3, [r7, #43]	@ zero_extendqisi2
 831 0112 07F11002 		add	r2, r7, #16
 832 0116 1046     		mov	r0, r2
 833 0118 1449     		ldr	r1, .L31+4
 834 011a 1A46     		mov	r2, r3
 835 011c FFF7FEFF 		bl	sprintf
 836              	.L30:
 226:.\DisplayBLL.c ****                 
 227:.\DisplayBLL.c ****             puartdisp->_messagelength = DisplayOutputString(0x0F0, 0x12A, puartdisp->_messagetx, bu
 837              		.loc 1 227 0
 838 0120 3B6A     		ldr	r3, [r7, #32]
 839 0122 1D1D     		adds	r5, r3, #4
 840 0124 07F11003 		add	r3, r7, #16
 841 0128 1846     		mov	r0, r3
 842 012a FFF7FEFF 		bl	strlen
ARM GAS  C:\Users\RECEPC~1\AppData\Local\Temp\ccNQpeOs.s 			page 20


 843 012e 0346     		mov	r3, r0
 844 0130 9BB2     		uxth	r3, r3
 845 0132 07F11004 		add	r4, r7, #16
 846 0136 0093     		str	r3, [sp]
 847 0138 01AA     		add	r2, sp, #4
 848 013a 07F10803 		add	r3, r7, #8
 849 013e 93E80300 		ldmia	r3, {r0, r1}
 850 0142 82E80300 		stmia	r2, {r0, r1}
 851 0146 F020     		movs	r0, #240
 852 0148 4FF49571 		mov	r1, #298
 853 014c 2A46     		mov	r2, r5
 854 014e 2346     		mov	r3, r4
 855 0150 FFF7FEFF 		bl	DisplayOutputString
 856 0154 0346     		mov	r3, r0
 857 0156 1A46     		mov	r2, r3
 858 0158 3B6A     		ldr	r3, [r7, #32]
 859 015a 5A80     		strh	r2, [r3, #2]	@ movhi
 228:.\DisplayBLL.c ****             puartdisp->_messagestate = PENDING;
 860              		.loc 1 228 0
 861 015c 3B6A     		ldr	r3, [r7, #32]
 862 015e C222     		movs	r2, #194
 863 0160 1A70     		strb	r2, [r3]
 864              	.L23:
 865              	.LBE11:
 229:.\DisplayBLL.c ****         }
 230:.\DisplayBLL.c ****     }
 231:.\DisplayBLL.c **** }
 866              		.loc 1 231 0
 867 0162 3037     		adds	r7, r7, #48
 868              		.cfi_def_cfa_offset 16
 869 0164 BD46     		mov	sp, r7
 870              		.cfi_def_cfa_register 13
 871              		@ sp needed
 872 0166 B0BD     		pop	{r4, r5, r7, pc}
 873              	.L32:
 874              		.align	2
 875              	.L31:
 876 0168 28000000 		.word	.LC12
 877 016c 34000000 		.word	.LC13
 878              		.cfi_endproc
 879              	.LFE66:
 880              		.size	DrawNumberOfCopies, .-DrawNumberOfCopies
 881              		.section	.rodata
 882              		.align	2
 883              	.LC14:
 884 0040 2A2A2A2A 		.ascii	"**** OPERACION CANCELADA ****\000"
 884      204F5045 
 884      52414349 
 884      4F4E2043 
 884      414E4345 
 885              		.section	.text.CancelMessageDecorator,"ax",%progbits
 886              		.align	2
 887              		.global	CancelMessageDecorator
 888              		.thumb
 889              		.thumb_func
 890              		.type	CancelMessageDecorator, %function
 891              	CancelMessageDecorator:
ARM GAS  C:\Users\RECEPC~1\AppData\Local\Temp\ccNQpeOs.s 			page 21


 892              	.LFB67:
 232:.\DisplayBLL.c **** 
 233:.\DisplayBLL.c **** void CancelMessageDecorator(void *pparam)
 234:.\DisplayBLL.c **** {
 893              		.loc 1 234 0
 894              		.cfi_startproc
 895              		@ args = 0, pretend = 0, frame = 32
 896              		@ frame_needed = 1, uses_anonymous_args = 0
 897 0000 90B5     		push	{r4, r7, lr}
 898              		.cfi_def_cfa_offset 12
 899              		.cfi_offset 4, -12
 900              		.cfi_offset 7, -8
 901              		.cfi_offset 14, -4
 902 0002 8DB0     		sub	sp, sp, #52
 903              		.cfi_def_cfa_offset 64
 904 0004 04AF     		add	r7, sp, #16
 905              		.cfi_def_cfa 7, 48
 906 0006 7860     		str	r0, [r7, #4]
 235:.\DisplayBLL.c ****     FontData fontdata;
 236:.\DisplayBLL.c ****     fontdata._size = 0x03;
 907              		.loc 1 236 0
 908 0008 0323     		movs	r3, #3
 909 000a 3B72     		strb	r3, [r7, #8]
 237:.\DisplayBLL.c ****     fontdata._backcolor = 0xFFFF;
 910              		.loc 1 237 0
 911 000c 4FF6FF73 		movw	r3, #65535
 912 0010 BB81     		strh	r3, [r7, #12]	@ movhi
 238:.\DisplayBLL.c ****     fontdata._forecolor = 0x0000;
 913              		.loc 1 238 0
 914 0012 0023     		movs	r3, #0
 915 0014 FB81     		strh	r3, [r7, #14]	@ movhi
 239:.\DisplayBLL.c ****     fontdata._opaquebackground = DISP_TEXT_OPAQUE;
 916              		.loc 1 239 0
 917 0016 C523     		movs	r3, #197
 918 0018 BB72     		strb	r3, [r7, #10]
 240:.\DisplayBLL.c ****     //MOVE ALL OF THESE TEXTS TO THE EEPROM
 241:.\DisplayBLL.c ****     char8 *pmessage = "**** OPERACION CANCELADA ****";    
 919              		.loc 1 241 0
 920 001a 294B     		ldr	r3, .L37
 921 001c FB61     		str	r3, [r7, #28]
 242:.\DisplayBLL.c ****     DisplayLayout *pdisplay = (DisplayLayout*)pparam;
 922              		.loc 1 242 0
 923 001e 7B68     		ldr	r3, [r7, #4]
 924 0020 BB61     		str	r3, [r7, #24]
 243:.\DisplayBLL.c ****     if(pdisplay->_dispid == DISPLAY1)
 925              		.loc 1 243 0
 926 0022 BB69     		ldr	r3, [r7, #24]
 927 0024 1B78     		ldrb	r3, [r3]	@ zero_extendqisi2
 928 0026 002B     		cmp	r3, #0
 929 0028 24D1     		bne	.L34
 930              	.LBB12:
 244:.\DisplayBLL.c ****     {
 245:.\DisplayBLL.c ****         UARTMessage *puartdisp = GetUARTMessageSlot(UART_DISPLAY1);
 931              		.loc 1 245 0
 932 002a A320     		movs	r0, #163
 933 002c FFF7FEFF 		bl	GetUARTMessageSlot
 934 0030 7861     		str	r0, [r7, #20]
ARM GAS  C:\Users\RECEPC~1\AppData\Local\Temp\ccNQpeOs.s 			page 22


 246:.\DisplayBLL.c ****         if(puartdisp)
 935              		.loc 1 246 0
 936 0032 7B69     		ldr	r3, [r7, #20]
 937 0034 002B     		cmp	r3, #0
 938 0036 1CD0     		beq	.L35
 247:.\DisplayBLL.c ****         {
 248:.\DisplayBLL.c ****             puartdisp->_messagelength = DisplayOutputString(0x0060, 0x00EA, puartdisp->_messagetx, 
 939              		.loc 1 248 0
 940 0038 7B69     		ldr	r3, [r7, #20]
 941 003a 1C1D     		adds	r4, r3, #4
 942 003c F869     		ldr	r0, [r7, #28]
 943 003e FFF7FEFF 		bl	strlen
 944 0042 0346     		mov	r3, r0
 945 0044 9BB2     		uxth	r3, r3
 946 0046 0093     		str	r3, [sp]
 947 0048 01AA     		add	r2, sp, #4
 948 004a 07F10803 		add	r3, r7, #8
 949 004e 93E80300 		ldmia	r3, {r0, r1}
 950 0052 82E80300 		stmia	r2, {r0, r1}
 951 0056 6020     		movs	r0, #96
 952 0058 EA21     		movs	r1, #234
 953 005a 2246     		mov	r2, r4
 954 005c FB69     		ldr	r3, [r7, #28]
 955 005e FFF7FEFF 		bl	DisplayOutputString
 956 0062 0346     		mov	r3, r0
 957 0064 1A46     		mov	r2, r3
 958 0066 7B69     		ldr	r3, [r7, #20]
 959 0068 5A80     		strh	r2, [r3, #2]	@ movhi
 249:.\DisplayBLL.c ****             puartdisp->_messagestate = PENDING;
 960              		.loc 1 249 0
 961 006a 7B69     		ldr	r3, [r7, #20]
 962 006c C222     		movs	r2, #194
 963 006e 1A70     		strb	r2, [r3]
 964              	.LBE12:
 965 0070 23E0     		b	.L33
 966              	.L35:
 967 0072 22E0     		b	.L33
 968              	.L34:
 969              	.LBB13:
 250:.\DisplayBLL.c ****         }
 251:.\DisplayBLL.c ****     }
 252:.\DisplayBLL.c ****     else
 253:.\DisplayBLL.c ****     {
 254:.\DisplayBLL.c ****         UARTMessage *puartdisp = GetUARTMessageSlot(UART_DISPLAY2);
 970              		.loc 1 254 0
 971 0074 A420     		movs	r0, #164
 972 0076 FFF7FEFF 		bl	GetUARTMessageSlot
 973 007a 3861     		str	r0, [r7, #16]
 255:.\DisplayBLL.c ****         if(puartdisp)
 974              		.loc 1 255 0
 975 007c 3B69     		ldr	r3, [r7, #16]
 976 007e 002B     		cmp	r3, #0
 977 0080 1BD0     		beq	.L33
 256:.\DisplayBLL.c ****         {
 257:.\DisplayBLL.c ****             puartdisp->_messagelength = DisplayOutputString(0x0060, 0x00EA, puartdisp->_messagetx, 
 978              		.loc 1 257 0
 979 0082 3B69     		ldr	r3, [r7, #16]
ARM GAS  C:\Users\RECEPC~1\AppData\Local\Temp\ccNQpeOs.s 			page 23


 980 0084 1C1D     		adds	r4, r3, #4
 981 0086 F869     		ldr	r0, [r7, #28]
 982 0088 FFF7FEFF 		bl	strlen
 983 008c 0346     		mov	r3, r0
 984 008e 9BB2     		uxth	r3, r3
 985 0090 0093     		str	r3, [sp]
 986 0092 01AA     		add	r2, sp, #4
 987 0094 07F10803 		add	r3, r7, #8
 988 0098 93E80300 		ldmia	r3, {r0, r1}
 989 009c 82E80300 		stmia	r2, {r0, r1}
 990 00a0 6020     		movs	r0, #96
 991 00a2 EA21     		movs	r1, #234
 992 00a4 2246     		mov	r2, r4
 993 00a6 FB69     		ldr	r3, [r7, #28]
 994 00a8 FFF7FEFF 		bl	DisplayOutputString
 995 00ac 0346     		mov	r3, r0
 996 00ae 1A46     		mov	r2, r3
 997 00b0 3B69     		ldr	r3, [r7, #16]
 998 00b2 5A80     		strh	r2, [r3, #2]	@ movhi
 258:.\DisplayBLL.c ****             puartdisp->_messagestate = PENDING;
 999              		.loc 1 258 0
 1000 00b4 3B69     		ldr	r3, [r7, #16]
 1001 00b6 C222     		movs	r2, #194
 1002 00b8 1A70     		strb	r2, [r3]
 1003              	.L33:
 1004              	.LBE13:
 259:.\DisplayBLL.c ****         }
 260:.\DisplayBLL.c ****     }
 261:.\DisplayBLL.c **** }
 1005              		.loc 1 261 0
 1006 00ba 2437     		adds	r7, r7, #36
 1007              		.cfi_def_cfa_offset 12
 1008 00bc BD46     		mov	sp, r7
 1009              		.cfi_def_cfa_register 13
 1010              		@ sp needed
 1011 00be 90BD     		pop	{r4, r7, pc}
 1012              	.L38:
 1013              		.align	2
 1014              	.L37:
 1015 00c0 40000000 		.word	.LC14
 1016              		.cfi_endproc
 1017              	.LFE67:
 1018              		.size	CancelMessageDecorator, .-CancelMessageDecorator
 1019              		.section	.rodata
 1020 005e 0000     		.align	2
 1021              	.LC0:
 1022 0060 AA       		.byte	-86
 1023 0061 40       		.byte	64
 1024 0062 FF       		.byte	-1
 1025 0063 FF       		.byte	-1
 1026 0064 FF       		.byte	-1
 1027 0065 FF       		.byte	-1
 1028 0066 CC       		.byte	-52
 1029 0067 33       		.byte	51
 1030 0068 C3       		.byte	-61
 1031 0069 3C       		.byte	60
 1032 006a 0000     		.align	2
ARM GAS  C:\Users\RECEPC~1\AppData\Local\Temp\ccNQpeOs.s 			page 24


 1033              	.LC1:
 1034 006c AA       		.byte	-86
 1035 006d 5B       		.byte	91
 1036 006e 01       		.byte	1
 1037 006f 00       		.byte	0
 1038 0070 01       		.byte	1
 1039 0071 4A       		.byte	74
 1040 0072 02       		.byte	2
 1041 0073 70       		.byte	112
 1042 0074 01       		.byte	1
 1043 0075 90       		.byte	-112
 1044 0076 CC       		.byte	-52
 1045 0077 33       		.byte	51
 1046 0078 C3       		.byte	-61
 1047 0079 3C       		.byte	60
 1048              		.section	.text.MaskoutOptionDecorator,"ax",%progbits
 1049              		.align	2
 1050              		.global	MaskoutOptionDecorator
 1051              		.thumb
 1052              		.thumb_func
 1053              		.type	MaskoutOptionDecorator, %function
 1054              	MaskoutOptionDecorator:
 1055              	.LFB68:
 262:.\DisplayBLL.c **** 
 263:.\DisplayBLL.c **** void MaskoutOptionDecorator(void *pparam)
 264:.\DisplayBLL.c **** {
 1056              		.loc 1 264 0
 1057              		.cfi_startproc
 1058              		@ args = 0, pretend = 0, frame = 80
 1059              		@ frame_needed = 1, uses_anonymous_args = 0
 1060 0000 90B5     		push	{r4, r7, lr}
 1061              		.cfi_def_cfa_offset 12
 1062              		.cfi_offset 4, -12
 1063              		.cfi_offset 7, -8
 1064              		.cfi_offset 14, -4
 1065 0002 95B0     		sub	sp, sp, #84
 1066              		.cfi_def_cfa_offset 96
 1067 0004 00AF     		add	r7, sp, #0
 1068              		.cfi_def_cfa_register 7
 1069 0006 7860     		str	r0, [r7, #4]
 265:.\DisplayBLL.c ****     PDISPLAYLAYOUTPTR pdisplay = (PDISPLAYLAYOUTPTR)pparam;
 1070              		.loc 1 265 0
 1071 0008 7B68     		ldr	r3, [r7, #4]
 1072 000a FB64     		str	r3, [r7, #76]
 266:.\DisplayBLL.c ****     if(pdisplay->_dispid == DISPLAY1)
 1073              		.loc 1 266 0
 1074 000c FB6C     		ldr	r3, [r7, #76]
 1075 000e 1B78     		ldrb	r3, [r3]	@ zero_extendqisi2
 1076 0010 002B     		cmp	r3, #0
 1077 0012 42D1     		bne	.L40
 1078              	.LBB14:
 267:.\DisplayBLL.c ****     {
 268:.\DisplayBLL.c ****         PUARTMESSAGEPTR puartdisp = GetUARTMessageSlot(UART_DISPLAY1);
 1079              		.loc 1 268 0
 1080 0014 A320     		movs	r0, #163
 1081 0016 FFF7FEFF 		bl	GetUARTMessageSlot
 1082 001a B864     		str	r0, [r7, #72]
ARM GAS  C:\Users\RECEPC~1\AppData\Local\Temp\ccNQpeOs.s 			page 25


 269:.\DisplayBLL.c ****         if(puartdisp)
 1083              		.loc 1 269 0
 1084 001c BB6C     		ldr	r3, [r7, #72]
 1085 001e 002B     		cmp	r3, #0
 1086 0020 17D0     		beq	.L41
 1087              	.LBB15:
 270:.\DisplayBLL.c ****         {
 271:.\DisplayBLL.c ****             //SET FC BC COLORS (WHITE)
 272:.\DisplayBLL.c ****             uint8 buff[] = { 0xAA, 0x40, 0xFF, 0xFF, 0xFF, 0xFF, 0xCC, 0x33, 0xC3, 0x3C };
 1088              		.loc 1 272 0
 1089 0022 424A     		ldr	r2, .L45
 1090 0024 07F13803 		add	r3, r7, #56
 1091 0028 1068     		ldr	r0, [r2]	@ unaligned
 1092 002a 5168     		ldr	r1, [r2, #4]	@ unaligned
 1093 002c 03C3     		stmia	r3!, {r0, r1}
 1094 002e 1289     		ldrh	r2, [r2, #8]	@ unaligned
 1095 0030 1A80     		strh	r2, [r3]	@ unaligned
 273:.\DisplayBLL.c ****             memcpy(puartdisp->_messagetx, buff, sizeof(buff));
 1096              		.loc 1 273 0
 1097 0032 BB6C     		ldr	r3, [r7, #72]
 1098 0034 0433     		adds	r3, r3, #4
 1099 0036 1A46     		mov	r2, r3
 1100 0038 07F13803 		add	r3, r7, #56
 1101 003c 03CB     		ldmia	r3!, {r0, r1}
 1102 003e 1060     		str	r0, [r2]	@ unaligned
 1103 0040 5160     		str	r1, [r2, #4]	@ unaligned
 1104 0042 1B88     		ldrh	r3, [r3]	@ unaligned
 1105 0044 1381     		strh	r3, [r2, #8]	@ unaligned
 274:.\DisplayBLL.c ****             puartdisp->_messagelength = sizeof(buff);
 1106              		.loc 1 274 0
 1107 0046 BB6C     		ldr	r3, [r7, #72]
 1108 0048 0A22     		movs	r2, #10
 1109 004a 5A80     		strh	r2, [r3, #2]	@ movhi
 275:.\DisplayBLL.c ****             puartdisp->_messagestate = PENDING;
 1110              		.loc 1 275 0
 1111 004c BB6C     		ldr	r3, [r7, #72]
 1112 004e C222     		movs	r2, #194
 1113 0050 1A70     		strb	r2, [r3]
 1114              	.L41:
 1115              	.LBE15:
 276:.\DisplayBLL.c ****         }
 277:.\DisplayBLL.c ****         
 278:.\DisplayBLL.c ****         puartdisp = GetUARTMessageSlot(UART_DISPLAY1);
 1116              		.loc 1 278 0
 1117 0052 A320     		movs	r0, #163
 1118 0054 FFF7FEFF 		bl	GetUARTMessageSlot
 1119 0058 B864     		str	r0, [r7, #72]
 279:.\DisplayBLL.c ****         if(puartdisp)
 1120              		.loc 1 279 0
 1121 005a BB6C     		ldr	r3, [r7, #72]
 1122 005c 002B     		cmp	r3, #0
 1123 005e 1BD0     		beq	.L42
 1124              	.LBB16:
 280:.\DisplayBLL.c ****         {
 281:.\DisplayBLL.c ****             uint8 buff[] = { 0xAA, 0x5B, 0x01, 0x00, 0x01, 0x4A, 0x02, 0x70, 0x01, 0x90, 0xCC, 0x33
 1125              		.loc 1 281 0
 1126 0060 334A     		ldr	r2, .L45+4
ARM GAS  C:\Users\RECEPC~1\AppData\Local\Temp\ccNQpeOs.s 			page 26


 1127 0062 07F12803 		add	r3, r7, #40
 1128 0066 1446     		mov	r4, r2
 1129 0068 2068     		ldr	r0, [r4]	@ unaligned
 1130 006a 6168     		ldr	r1, [r4, #4]	@ unaligned
 1131 006c A268     		ldr	r2, [r4, #8]	@ unaligned
 1132 006e 07C3     		stmia	r3!, {r0, r1, r2}
 1133 0070 A289     		ldrh	r2, [r4, #12]	@ unaligned
 1134 0072 1A80     		strh	r2, [r3]	@ unaligned
 282:.\DisplayBLL.c ****             memcpy(puartdisp->_messagetx, buff, sizeof(buff));
 1135              		.loc 1 282 0
 1136 0074 BB6C     		ldr	r3, [r7, #72]
 1137 0076 0433     		adds	r3, r3, #4
 1138 0078 1C46     		mov	r4, r3
 1139 007a 07F12803 		add	r3, r7, #40
 1140 007e 07CB     		ldmia	r3!, {r0, r1, r2}
 1141 0080 2060     		str	r0, [r4]	@ unaligned
 1142 0082 6160     		str	r1, [r4, #4]	@ unaligned
 1143 0084 A260     		str	r2, [r4, #8]	@ unaligned
 1144 0086 1B88     		ldrh	r3, [r3]	@ unaligned
 1145 0088 A381     		strh	r3, [r4, #12]	@ unaligned
 283:.\DisplayBLL.c ****             puartdisp->_messagelength = sizeof(buff);
 1146              		.loc 1 283 0
 1147 008a BB6C     		ldr	r3, [r7, #72]
 1148 008c 0E22     		movs	r2, #14
 1149 008e 5A80     		strh	r2, [r3, #2]	@ movhi
 284:.\DisplayBLL.c ****             puartdisp->_messagestate = PENDING;
 1150              		.loc 1 284 0
 1151 0090 BB6C     		ldr	r3, [r7, #72]
 1152 0092 C222     		movs	r2, #194
 1153 0094 1A70     		strb	r2, [r3]
 1154              	.LBE16:
 1155              	.LBE14:
 1156 0096 45E0     		b	.L39
 1157              	.L42:
 1158 0098 44E0     		b	.L39
 1159              	.L40:
 285:.\DisplayBLL.c ****         }    
 286:.\DisplayBLL.c ****     }
 287:.\DisplayBLL.c ****     else if(pdisplay->_dispid == DISPLAY2)
 1160              		.loc 1 287 0
 1161 009a FB6C     		ldr	r3, [r7, #76]
 1162 009c 1B78     		ldrb	r3, [r3]	@ zero_extendqisi2
 1163 009e 012B     		cmp	r3, #1
 1164 00a0 40D1     		bne	.L39
 1165              	.LBB17:
 288:.\DisplayBLL.c ****     {
 289:.\DisplayBLL.c ****         PUARTMESSAGEPTR puartdisp = GetUARTMessageSlot(UART_DISPLAY2);
 1166              		.loc 1 289 0
 1167 00a2 A420     		movs	r0, #164
 1168 00a4 FFF7FEFF 		bl	GetUARTMessageSlot
 1169 00a8 7864     		str	r0, [r7, #68]
 290:.\DisplayBLL.c ****         if(puartdisp)
 1170              		.loc 1 290 0
 1171 00aa 7B6C     		ldr	r3, [r7, #68]
 1172 00ac 002B     		cmp	r3, #0
 1173 00ae 17D0     		beq	.L44
 1174              	.LBB18:
ARM GAS  C:\Users\RECEPC~1\AppData\Local\Temp\ccNQpeOs.s 			page 27


 291:.\DisplayBLL.c ****         {
 292:.\DisplayBLL.c ****             //SET FC BC COLORS (WHITE)
 293:.\DisplayBLL.c ****             uint8 buff[] = { 0xAA, 0x40, 0xFF, 0xFF, 0xFF, 0xFF, 0xCC, 0x33, 0xC3, 0x3C };
 1175              		.loc 1 293 0
 1176 00b0 1E4A     		ldr	r2, .L45
 1177 00b2 07F11C03 		add	r3, r7, #28
 1178 00b6 1068     		ldr	r0, [r2]	@ unaligned
 1179 00b8 5168     		ldr	r1, [r2, #4]	@ unaligned
 1180 00ba 03C3     		stmia	r3!, {r0, r1}
 1181 00bc 1289     		ldrh	r2, [r2, #8]	@ unaligned
 1182 00be 1A80     		strh	r2, [r3]	@ unaligned
 294:.\DisplayBLL.c ****             memcpy(puartdisp->_messagetx, buff, sizeof(buff));
 1183              		.loc 1 294 0
 1184 00c0 7B6C     		ldr	r3, [r7, #68]
 1185 00c2 0433     		adds	r3, r3, #4
 1186 00c4 1A46     		mov	r2, r3
 1187 00c6 07F11C03 		add	r3, r7, #28
 1188 00ca 03CB     		ldmia	r3!, {r0, r1}
 1189 00cc 1060     		str	r0, [r2]	@ unaligned
 1190 00ce 5160     		str	r1, [r2, #4]	@ unaligned
 1191 00d0 1B88     		ldrh	r3, [r3]	@ unaligned
 1192 00d2 1381     		strh	r3, [r2, #8]	@ unaligned
 295:.\DisplayBLL.c ****             puartdisp->_messagelength = sizeof(buff);
 1193              		.loc 1 295 0
 1194 00d4 7B6C     		ldr	r3, [r7, #68]
 1195 00d6 0A22     		movs	r2, #10
 1196 00d8 5A80     		strh	r2, [r3, #2]	@ movhi
 296:.\DisplayBLL.c ****             puartdisp->_messagestate = PENDING;
 1197              		.loc 1 296 0
 1198 00da 7B6C     		ldr	r3, [r7, #68]
 1199 00dc C222     		movs	r2, #194
 1200 00de 1A70     		strb	r2, [r3]
 1201              	.L44:
 1202              	.LBE18:
 297:.\DisplayBLL.c ****         }
 298:.\DisplayBLL.c ****         
 299:.\DisplayBLL.c ****         puartdisp = GetUARTMessageSlot(UART_DISPLAY2);
 1203              		.loc 1 299 0
 1204 00e0 A420     		movs	r0, #164
 1205 00e2 FFF7FEFF 		bl	GetUARTMessageSlot
 1206 00e6 7864     		str	r0, [r7, #68]
 300:.\DisplayBLL.c ****         if(puartdisp)
 1207              		.loc 1 300 0
 1208 00e8 7B6C     		ldr	r3, [r7, #68]
 1209 00ea 002B     		cmp	r3, #0
 1210 00ec 1AD0     		beq	.L39
 1211              	.LBB19:
 301:.\DisplayBLL.c ****         {
 302:.\DisplayBLL.c ****             uint8 buff[] = { 0xAA, 0x5B, 0x01, 0x00, 0x01, 0x4A, 0x02, 0x70, 0x01, 0x90, 0xCC, 0x33
 1212              		.loc 1 302 0
 1213 00ee 104A     		ldr	r2, .L45+4
 1214 00f0 07F10C03 		add	r3, r7, #12
 1215 00f4 1446     		mov	r4, r2
 1216 00f6 2068     		ldr	r0, [r4]	@ unaligned
 1217 00f8 6168     		ldr	r1, [r4, #4]	@ unaligned
 1218 00fa A268     		ldr	r2, [r4, #8]	@ unaligned
 1219 00fc 07C3     		stmia	r3!, {r0, r1, r2}
ARM GAS  C:\Users\RECEPC~1\AppData\Local\Temp\ccNQpeOs.s 			page 28


 1220 00fe A289     		ldrh	r2, [r4, #12]	@ unaligned
 1221 0100 1A80     		strh	r2, [r3]	@ unaligned
 303:.\DisplayBLL.c ****             memcpy(puartdisp->_messagetx, buff, sizeof(buff));
 1222              		.loc 1 303 0
 1223 0102 7B6C     		ldr	r3, [r7, #68]
 1224 0104 0433     		adds	r3, r3, #4
 1225 0106 1C46     		mov	r4, r3
 1226 0108 07F10C03 		add	r3, r7, #12
 1227 010c 07CB     		ldmia	r3!, {r0, r1, r2}
 1228 010e 2060     		str	r0, [r4]	@ unaligned
 1229 0110 6160     		str	r1, [r4, #4]	@ unaligned
 1230 0112 A260     		str	r2, [r4, #8]	@ unaligned
 1231 0114 1B88     		ldrh	r3, [r3]	@ unaligned
 1232 0116 A381     		strh	r3, [r4, #12]	@ unaligned
 304:.\DisplayBLL.c ****             puartdisp->_messagelength = sizeof(buff);
 1233              		.loc 1 304 0
 1234 0118 7B6C     		ldr	r3, [r7, #68]
 1235 011a 0E22     		movs	r2, #14
 1236 011c 5A80     		strh	r2, [r3, #2]	@ movhi
 305:.\DisplayBLL.c ****             puartdisp->_messagestate = PENDING;
 1237              		.loc 1 305 0
 1238 011e 7B6C     		ldr	r3, [r7, #68]
 1239 0120 C222     		movs	r2, #194
 1240 0122 1A70     		strb	r2, [r3]
 1241              	.L39:
 1242              	.LBE19:
 1243              	.LBE17:
 306:.\DisplayBLL.c ****         }    
 307:.\DisplayBLL.c ****     }
 308:.\DisplayBLL.c **** }
 1244              		.loc 1 308 0
 1245 0124 5437     		adds	r7, r7, #84
 1246              		.cfi_def_cfa_offset 12
 1247 0126 BD46     		mov	sp, r7
 1248              		.cfi_def_cfa_register 13
 1249              		@ sp needed
 1250 0128 90BD     		pop	{r4, r7, pc}
 1251              	.L46:
 1252 012a 00BF     		.align	2
 1253              	.L45:
 1254 012c 60000000 		.word	.LC0
 1255 0130 6C000000 		.word	.LC1
 1256              		.cfi_endproc
 1257              	.LFE68:
 1258              		.size	MaskoutOptionDecorator, .-MaskoutOptionDecorator
 1259              		.section	.rodata
 1260 007a 0000     		.align	2
 1261              	.LC2:
 1262 007c 454E5649 		.ascii	"ENVIANDO LA SOLICITUD DE AUTORIZACION,\000"
 1262      414E444F 
 1262      204C4120 
 1262      534F4C49 
 1262      43495455 
 1263 00a3 00       		.align	2
 1264              	.LC3:
 1265 00a4 20202020 		.ascii	"                                      \000"
 1265      20202020 
ARM GAS  C:\Users\RECEPC~1\AppData\Local\Temp\ccNQpeOs.s 			page 29


 1265      20202020 
 1265      20202020 
 1265      20202020 
 1266 00cb 00       		.align	2
 1267              	.LC4:
 1268 00cc 3C3C3C20 		.ascii	"<<<       POR FAVOR ESPERE ...     >>>\000"
 1268      20202020 
 1268      2020504F 
 1268      52204641 
 1268      564F5220 
 1269 00f3 00       		.align	2
 1270              	.LC15:
 1271 00f4 7C000000 		.word	.LC2
 1272 00f8 A4000000 		.word	.LC3
 1273 00fc CC000000 		.word	.LC4
 1274              		.section	.text.AuthorizationMessageDecorator,"ax",%progbits
 1275              		.align	2
 1276              		.global	AuthorizationMessageDecorator
 1277              		.thumb
 1278              		.thumb_func
 1279              		.type	AuthorizationMessageDecorator, %function
 1280              	AuthorizationMessageDecorator:
 1281              	.LFB69:
 309:.\DisplayBLL.c **** 
 310:.\DisplayBLL.c **** void AuthorizationMessageDecorator(LPVOID pparam)
 311:.\DisplayBLL.c **** {
 1282              		.loc 1 311 0
 1283              		.cfi_startproc
 1284              		@ args = 0, pretend = 0, frame = 48
 1285              		@ frame_needed = 1, uses_anonymous_args = 0
 1286 0000 F0B5     		push	{r4, r5, r6, r7, lr}
 1287              		.cfi_def_cfa_offset 20
 1288              		.cfi_offset 4, -20
 1289              		.cfi_offset 5, -16
 1290              		.cfi_offset 6, -12
 1291              		.cfi_offset 7, -8
 1292              		.cfi_offset 14, -4
 1293 0002 91B0     		sub	sp, sp, #68
 1294              		.cfi_def_cfa_offset 88
 1295 0004 04AF     		add	r7, sp, #16
 1296              		.cfi_def_cfa 7, 72
 1297 0006 7860     		str	r0, [r7, #4]
 312:.\DisplayBLL.c ****     FontData fontdata;
 313:.\DisplayBLL.c ****     fontdata._size = 0x03;
 1298              		.loc 1 313 0
 1299 0008 0323     		movs	r3, #3
 1300 000a 3B75     		strb	r3, [r7, #20]
 314:.\DisplayBLL.c ****     fontdata._backcolor = 0xFFFF;
 1301              		.loc 1 314 0
 1302 000c 4FF6FF73 		movw	r3, #65535
 1303 0010 3B83     		strh	r3, [r7, #24]	@ movhi
 315:.\DisplayBLL.c ****     fontdata._forecolor = 0x0000;
 1304              		.loc 1 315 0
 1305 0012 0023     		movs	r3, #0
 1306 0014 7B83     		strh	r3, [r7, #26]	@ movhi
 316:.\DisplayBLL.c ****     fontdata._opaquebackground = DISP_TEXT_OPAQUE;
 1307              		.loc 1 316 0
ARM GAS  C:\Users\RECEPC~1\AppData\Local\Temp\ccNQpeOs.s 			page 30


 1308 0016 C523     		movs	r3, #197
 1309 0018 BB75     		strb	r3, [r7, #22]
 317:.\DisplayBLL.c ****     //MOVE ALL OF THESE TEXTS TO THE EEPROM
 318:.\DisplayBLL.c ****     char8 *pmessage[] = 
 1310              		.loc 1 318 0
 1311 001a 6B4A     		ldr	r2, .L51
 1312 001c 07F10803 		add	r3, r7, #8
 1313 0020 07CA     		ldmia	r2, {r0, r1, r2}
 1314 0022 83E80700 		stmia	r3, {r0, r1, r2}
 319:.\DisplayBLL.c ****     {
 320:.\DisplayBLL.c ****         "ENVIANDO LA SOLICITUD DE AUTORIZACION,",
 321:.\DisplayBLL.c ****         "                                      ",
 322:.\DisplayBLL.c ****         "<<<       POR FAVOR ESPERE ...     >>>",
 323:.\DisplayBLL.c ****     };
 324:.\DisplayBLL.c ****     DisplayLayout *pdisplay = (DisplayLayout*)pparam;
 1315              		.loc 1 324 0
 1316 0026 7B68     		ldr	r3, [r7, #4]
 1317 0028 FB62     		str	r3, [r7, #44]
 325:.\DisplayBLL.c ****     if(pdisplay->_dispid == DISPLAY1)
 1318              		.loc 1 325 0
 1319 002a FB6A     		ldr	r3, [r7, #44]
 1320 002c 1B78     		ldrb	r3, [r3]	@ zero_extendqisi2
 1321 002e 002B     		cmp	r3, #0
 1322 0030 40F0CC80 		bne	.L48
 1323              	.LBB20:
 326:.\DisplayBLL.c ****     {
 327:.\DisplayBLL.c ****         UARTMessage *puartdisp = GetUARTMessageSlot(UART_DISPLAY1);
 1324              		.loc 1 327 0
 1325 0034 A320     		movs	r0, #163
 1326 0036 FFF7FEFF 		bl	GetUARTMessageSlot
 1327 003a B862     		str	r0, [r7, #40]
 328:.\DisplayBLL.c ****         if(puartdisp)
 1328              		.loc 1 328 0
 1329 003c BB6A     		ldr	r3, [r7, #40]
 1330 003e 002B     		cmp	r3, #0
 1331 0040 00F0C080 		beq	.L49
 1332              	.LBB21:
 329:.\DisplayBLL.c ****         {
 330:.\DisplayBLL.c ****             uint8 index = 0;
 1333              		.loc 1 330 0
 1334 0044 0023     		movs	r3, #0
 1335 0046 87F82730 		strb	r3, [r7, #39]
 331:.\DisplayBLL.c ****             uint16 ypos = 0x00BA;
 1336              		.loc 1 331 0
 1337 004a BA23     		movs	r3, #186
 1338 004c BB84     		strh	r3, [r7, #36]	@ movhi
 332:.\DisplayBLL.c ****             puartdisp->_messagelength = 0;
 1339              		.loc 1 332 0
 1340 004e BB6A     		ldr	r3, [r7, #40]
 1341 0050 0022     		movs	r2, #0
 1342 0052 5A80     		strh	r2, [r3, #2]	@ movhi
 333:.\DisplayBLL.c ****             puartdisp->_messagelength += DisplayOutputString(0x001A, ypos, &puartdisp->_messagetx[p
 1343              		.loc 1 333 0
 1344 0054 BB6A     		ldr	r3, [r7, #40]
 1345 0056 5B88     		ldrh	r3, [r3, #2]	@ movhi
 1346 0058 9BB2     		uxth	r3, r3
 1347 005a 1A46     		mov	r2, r3
ARM GAS  C:\Users\RECEPC~1\AppData\Local\Temp\ccNQpeOs.s 			page 31


 1348 005c BB6A     		ldr	r3, [r7, #40]
 1349 005e 1344     		add	r3, r3, r2
 1350 0060 1D1D     		adds	r5, r3, #4
 1351 0062 97F82730 		ldrb	r3, [r7, #39]	@ zero_extendqisi2
 1352 0066 9B00     		lsls	r3, r3, #2
 1353 0068 07F13002 		add	r2, r7, #48
 1354 006c 1344     		add	r3, r3, r2
 1355 006e 53F8284C 		ldr	r4, [r3, #-40]
 1356 0072 97F82730 		ldrb	r3, [r7, #39]	@ zero_extendqisi2
 1357 0076 9B00     		lsls	r3, r3, #2
 1358 0078 07F13002 		add	r2, r7, #48
 1359 007c 1344     		add	r3, r3, r2
 1360 007e 53F8283C 		ldr	r3, [r3, #-40]
 1361 0082 1846     		mov	r0, r3
 1362 0084 FFF7FEFF 		bl	strlen
 1363 0088 0346     		mov	r3, r0
 1364 008a 9BB2     		uxth	r3, r3
 1365 008c BE8C     		ldrh	r6, [r7, #36]
 1366 008e 0093     		str	r3, [sp]
 1367 0090 01AA     		add	r2, sp, #4
 1368 0092 07F11403 		add	r3, r7, #20
 1369 0096 93E80300 		ldmia	r3, {r0, r1}
 1370 009a 82E80300 		stmia	r2, {r0, r1}
 1371 009e 1A20     		movs	r0, #26
 1372 00a0 3146     		mov	r1, r6
 1373 00a2 2A46     		mov	r2, r5
 1374 00a4 2346     		mov	r3, r4
 1375 00a6 FFF7FEFF 		bl	DisplayOutputString
 1376 00aa 0346     		mov	r3, r0
 1377 00ac 1A46     		mov	r2, r3
 1378 00ae BB6A     		ldr	r3, [r7, #40]
 1379 00b0 5B88     		ldrh	r3, [r3, #2]	@ movhi
 1380 00b2 9BB2     		uxth	r3, r3
 1381 00b4 1344     		add	r3, r3, r2
 1382 00b6 9AB2     		uxth	r2, r3
 1383 00b8 BB6A     		ldr	r3, [r7, #40]
 1384 00ba 5A80     		strh	r2, [r3, #2]	@ movhi
 334:.\DisplayBLL.c ****             ypos += 0x0020;index++;
 1385              		.loc 1 334 0
 1386 00bc BB8C     		ldrh	r3, [r7, #36]	@ movhi
 1387 00be 2033     		adds	r3, r3, #32
 1388 00c0 BB84     		strh	r3, [r7, #36]	@ movhi
 1389 00c2 97F82730 		ldrb	r3, [r7, #39]	@ zero_extendqisi2
 1390 00c6 0133     		adds	r3, r3, #1
 1391 00c8 87F82730 		strb	r3, [r7, #39]
 335:.\DisplayBLL.c ****             puartdisp->_messagelength += DisplayOutputString(0x001A, ypos, &puartdisp->_messagetx[p
 1392              		.loc 1 335 0
 1393 00cc BB6A     		ldr	r3, [r7, #40]
 1394 00ce 5B88     		ldrh	r3, [r3, #2]	@ movhi
 1395 00d0 9BB2     		uxth	r3, r3
 1396 00d2 1A46     		mov	r2, r3
 1397 00d4 BB6A     		ldr	r3, [r7, #40]
 1398 00d6 1344     		add	r3, r3, r2
 1399 00d8 1D1D     		adds	r5, r3, #4
 1400 00da 97F82730 		ldrb	r3, [r7, #39]	@ zero_extendqisi2
 1401 00de 9B00     		lsls	r3, r3, #2
 1402 00e0 07F13002 		add	r2, r7, #48
ARM GAS  C:\Users\RECEPC~1\AppData\Local\Temp\ccNQpeOs.s 			page 32


 1403 00e4 1344     		add	r3, r3, r2
 1404 00e6 53F8284C 		ldr	r4, [r3, #-40]
 1405 00ea 97F82730 		ldrb	r3, [r7, #39]	@ zero_extendqisi2
 1406 00ee 9B00     		lsls	r3, r3, #2
 1407 00f0 07F13002 		add	r2, r7, #48
 1408 00f4 1344     		add	r3, r3, r2
 1409 00f6 53F8283C 		ldr	r3, [r3, #-40]
 1410 00fa 1846     		mov	r0, r3
 1411 00fc FFF7FEFF 		bl	strlen
 1412 0100 0346     		mov	r3, r0
 1413 0102 9BB2     		uxth	r3, r3
 1414 0104 BE8C     		ldrh	r6, [r7, #36]
 1415 0106 0093     		str	r3, [sp]
 1416 0108 01AA     		add	r2, sp, #4
 1417 010a 07F11403 		add	r3, r7, #20
 1418 010e 93E80300 		ldmia	r3, {r0, r1}
 1419 0112 82E80300 		stmia	r2, {r0, r1}
 1420 0116 1A20     		movs	r0, #26
 1421 0118 3146     		mov	r1, r6
 1422 011a 2A46     		mov	r2, r5
 1423 011c 2346     		mov	r3, r4
 1424 011e FFF7FEFF 		bl	DisplayOutputString
 1425 0122 0346     		mov	r3, r0
 1426 0124 1A46     		mov	r2, r3
 1427 0126 BB6A     		ldr	r3, [r7, #40]
 1428 0128 5B88     		ldrh	r3, [r3, #2]	@ movhi
 1429 012a 9BB2     		uxth	r3, r3
 1430 012c 1344     		add	r3, r3, r2
 1431 012e 9AB2     		uxth	r2, r3
 1432 0130 BB6A     		ldr	r3, [r7, #40]
 1433 0132 5A80     		strh	r2, [r3, #2]	@ movhi
 336:.\DisplayBLL.c ****             ypos += 0x0020;index++;
 1434              		.loc 1 336 0
 1435 0134 BB8C     		ldrh	r3, [r7, #36]	@ movhi
 1436 0136 2033     		adds	r3, r3, #32
 1437 0138 BB84     		strh	r3, [r7, #36]	@ movhi
 1438 013a 97F82730 		ldrb	r3, [r7, #39]	@ zero_extendqisi2
 1439 013e 0133     		adds	r3, r3, #1
 1440 0140 87F82730 		strb	r3, [r7, #39]
 337:.\DisplayBLL.c ****             puartdisp->_messagelength += DisplayOutputString(0x001A, ypos, &puartdisp->_messagetx[p
 1441              		.loc 1 337 0
 1442 0144 BB6A     		ldr	r3, [r7, #40]
 1443 0146 5B88     		ldrh	r3, [r3, #2]	@ movhi
 1444 0148 9BB2     		uxth	r3, r3
 1445 014a 1A46     		mov	r2, r3
 1446 014c BB6A     		ldr	r3, [r7, #40]
 1447 014e 1344     		add	r3, r3, r2
 1448 0150 1D1D     		adds	r5, r3, #4
 1449 0152 97F82730 		ldrb	r3, [r7, #39]	@ zero_extendqisi2
 1450 0156 9B00     		lsls	r3, r3, #2
 1451 0158 07F13002 		add	r2, r7, #48
 1452 015c 1344     		add	r3, r3, r2
 1453 015e 53F8284C 		ldr	r4, [r3, #-40]
 1454 0162 97F82730 		ldrb	r3, [r7, #39]	@ zero_extendqisi2
 1455 0166 9B00     		lsls	r3, r3, #2
 1456 0168 07F13002 		add	r2, r7, #48
 1457 016c 1344     		add	r3, r3, r2
ARM GAS  C:\Users\RECEPC~1\AppData\Local\Temp\ccNQpeOs.s 			page 33


 1458 016e 53F8283C 		ldr	r3, [r3, #-40]
 1459 0172 1846     		mov	r0, r3
 1460 0174 FFF7FEFF 		bl	strlen
 1461 0178 0346     		mov	r3, r0
 1462 017a 9BB2     		uxth	r3, r3
 1463 017c BE8C     		ldrh	r6, [r7, #36]
 1464 017e 0093     		str	r3, [sp]
 1465 0180 01AA     		add	r2, sp, #4
 1466 0182 07F11403 		add	r3, r7, #20
 1467 0186 93E80300 		ldmia	r3, {r0, r1}
 1468 018a 82E80300 		stmia	r2, {r0, r1}
 1469 018e 1A20     		movs	r0, #26
 1470 0190 3146     		mov	r1, r6
 1471 0192 2A46     		mov	r2, r5
 1472 0194 2346     		mov	r3, r4
 1473 0196 FFF7FEFF 		bl	DisplayOutputString
 1474 019a 0346     		mov	r3, r0
 1475 019c 1A46     		mov	r2, r3
 1476 019e BB6A     		ldr	r3, [r7, #40]
 1477 01a0 5B88     		ldrh	r3, [r3, #2]	@ movhi
 1478 01a2 9BB2     		uxth	r3, r3
 1479 01a4 1344     		add	r3, r3, r2
 1480 01a6 9AB2     		uxth	r2, r3
 1481 01a8 BB6A     		ldr	r3, [r7, #40]
 1482 01aa 5A80     		strh	r2, [r3, #2]	@ movhi
 338:.\DisplayBLL.c ****             ypos += 0x0020;index++;
 1483              		.loc 1 338 0
 1484 01ac BB8C     		ldrh	r3, [r7, #36]	@ movhi
 1485 01ae 2033     		adds	r3, r3, #32
 1486 01b0 BB84     		strh	r3, [r7, #36]	@ movhi
 1487 01b2 97F82730 		ldrb	r3, [r7, #39]	@ zero_extendqisi2
 1488 01b6 0133     		adds	r3, r3, #1
 1489 01b8 87F82730 		strb	r3, [r7, #39]
 339:.\DisplayBLL.c **** 
 340:.\DisplayBLL.c ****             puartdisp->_messagestate = PENDING;
 1490              		.loc 1 340 0
 1491 01bc BB6A     		ldr	r3, [r7, #40]
 1492 01be C222     		movs	r2, #194
 1493 01c0 1A70     		strb	r2, [r3]
 1494              	.LBE21:
 1495              	.LBE20:
 1496 01c2 BDE0     		b	.L47
 1497              	.L49:
 1498 01c4 BCE0     		b	.L47
 1499              	.L52:
 1500 01c6 00BF     		.align	2
 1501              	.L51:
 1502 01c8 F4000000 		.word	.LC15
 1503              	.L48:
 1504              	.LBB22:
 341:.\DisplayBLL.c ****         }
 342:.\DisplayBLL.c ****     }
 343:.\DisplayBLL.c ****     else
 344:.\DisplayBLL.c ****     {
 345:.\DisplayBLL.c ****         UARTMessage *puartdisp = GetUARTMessageSlot(UART_DISPLAY2);
 1505              		.loc 1 345 0
 1506 01cc A420     		movs	r0, #164
ARM GAS  C:\Users\RECEPC~1\AppData\Local\Temp\ccNQpeOs.s 			page 34


 1507 01ce FFF7FEFF 		bl	GetUARTMessageSlot
 1508 01d2 3862     		str	r0, [r7, #32]
 346:.\DisplayBLL.c ****         if(puartdisp)
 1509              		.loc 1 346 0
 1510 01d4 3B6A     		ldr	r3, [r7, #32]
 1511 01d6 002B     		cmp	r3, #0
 1512 01d8 00F0B280 		beq	.L47
 1513              	.LBB23:
 347:.\DisplayBLL.c ****         {
 348:.\DisplayBLL.c ****             uint8 index = 0;
 1514              		.loc 1 348 0
 1515 01dc 0023     		movs	r3, #0
 1516 01de FB77     		strb	r3, [r7, #31]
 349:.\DisplayBLL.c ****             uint16 ypos = 0x00BA;
 1517              		.loc 1 349 0
 1518 01e0 BA23     		movs	r3, #186
 1519 01e2 BB83     		strh	r3, [r7, #28]	@ movhi
 350:.\DisplayBLL.c ****             puartdisp->_messagelength = 0;
 1520              		.loc 1 350 0
 1521 01e4 3B6A     		ldr	r3, [r7, #32]
 1522 01e6 0022     		movs	r2, #0
 1523 01e8 5A80     		strh	r2, [r3, #2]	@ movhi
 351:.\DisplayBLL.c ****             puartdisp->_messagelength += DisplayOutputString(0x001A, ypos, &puartdisp->_messagetx[p
 1524              		.loc 1 351 0
 1525 01ea 3B6A     		ldr	r3, [r7, #32]
 1526 01ec 5B88     		ldrh	r3, [r3, #2]	@ movhi
 1527 01ee 9BB2     		uxth	r3, r3
 1528 01f0 1A46     		mov	r2, r3
 1529 01f2 3B6A     		ldr	r3, [r7, #32]
 1530 01f4 1344     		add	r3, r3, r2
 1531 01f6 1D1D     		adds	r5, r3, #4
 1532 01f8 FB7F     		ldrb	r3, [r7, #31]	@ zero_extendqisi2
 1533 01fa 9B00     		lsls	r3, r3, #2
 1534 01fc 07F13002 		add	r2, r7, #48
 1535 0200 1344     		add	r3, r3, r2
 1536 0202 53F8284C 		ldr	r4, [r3, #-40]
 1537 0206 FB7F     		ldrb	r3, [r7, #31]	@ zero_extendqisi2
 1538 0208 9B00     		lsls	r3, r3, #2
 1539 020a 07F13002 		add	r2, r7, #48
 1540 020e 1344     		add	r3, r3, r2
 1541 0210 53F8283C 		ldr	r3, [r3, #-40]
 1542 0214 1846     		mov	r0, r3
 1543 0216 FFF7FEFF 		bl	strlen
 1544 021a 0346     		mov	r3, r0
 1545 021c 9BB2     		uxth	r3, r3
 1546 021e BE8B     		ldrh	r6, [r7, #28]
 1547 0220 0093     		str	r3, [sp]
 1548 0222 01AA     		add	r2, sp, #4
 1549 0224 07F11403 		add	r3, r7, #20
 1550 0228 93E80300 		ldmia	r3, {r0, r1}
 1551 022c 82E80300 		stmia	r2, {r0, r1}
 1552 0230 1A20     		movs	r0, #26
 1553 0232 3146     		mov	r1, r6
 1554 0234 2A46     		mov	r2, r5
 1555 0236 2346     		mov	r3, r4
 1556 0238 FFF7FEFF 		bl	DisplayOutputString
 1557 023c 0346     		mov	r3, r0
ARM GAS  C:\Users\RECEPC~1\AppData\Local\Temp\ccNQpeOs.s 			page 35


 1558 023e 1A46     		mov	r2, r3
 1559 0240 3B6A     		ldr	r3, [r7, #32]
 1560 0242 5B88     		ldrh	r3, [r3, #2]	@ movhi
 1561 0244 9BB2     		uxth	r3, r3
 1562 0246 1344     		add	r3, r3, r2
 1563 0248 9AB2     		uxth	r2, r3
 1564 024a 3B6A     		ldr	r3, [r7, #32]
 1565 024c 5A80     		strh	r2, [r3, #2]	@ movhi
 352:.\DisplayBLL.c ****             ypos += 0x0020;index++;
 1566              		.loc 1 352 0
 1567 024e BB8B     		ldrh	r3, [r7, #28]	@ movhi
 1568 0250 2033     		adds	r3, r3, #32
 1569 0252 BB83     		strh	r3, [r7, #28]	@ movhi
 1570 0254 FB7F     		ldrb	r3, [r7, #31]	@ zero_extendqisi2
 1571 0256 0133     		adds	r3, r3, #1
 1572 0258 FB77     		strb	r3, [r7, #31]
 353:.\DisplayBLL.c ****             puartdisp->_messagelength += DisplayOutputString(0x001A, ypos, &puartdisp->_messagetx[p
 1573              		.loc 1 353 0
 1574 025a 3B6A     		ldr	r3, [r7, #32]
 1575 025c 5B88     		ldrh	r3, [r3, #2]	@ movhi
 1576 025e 9BB2     		uxth	r3, r3
 1577 0260 1A46     		mov	r2, r3
 1578 0262 3B6A     		ldr	r3, [r7, #32]
 1579 0264 1344     		add	r3, r3, r2
 1580 0266 1D1D     		adds	r5, r3, #4
 1581 0268 FB7F     		ldrb	r3, [r7, #31]	@ zero_extendqisi2
 1582 026a 9B00     		lsls	r3, r3, #2
 1583 026c 07F13002 		add	r2, r7, #48
 1584 0270 1344     		add	r3, r3, r2
 1585 0272 53F8284C 		ldr	r4, [r3, #-40]
 1586 0276 FB7F     		ldrb	r3, [r7, #31]	@ zero_extendqisi2
 1587 0278 9B00     		lsls	r3, r3, #2
 1588 027a 07F13002 		add	r2, r7, #48
 1589 027e 1344     		add	r3, r3, r2
 1590 0280 53F8283C 		ldr	r3, [r3, #-40]
 1591 0284 1846     		mov	r0, r3
 1592 0286 FFF7FEFF 		bl	strlen
 1593 028a 0346     		mov	r3, r0
 1594 028c 9BB2     		uxth	r3, r3
 1595 028e BE8B     		ldrh	r6, [r7, #28]
 1596 0290 0093     		str	r3, [sp]
 1597 0292 01AA     		add	r2, sp, #4
 1598 0294 07F11403 		add	r3, r7, #20
 1599 0298 93E80300 		ldmia	r3, {r0, r1}
 1600 029c 82E80300 		stmia	r2, {r0, r1}
 1601 02a0 1A20     		movs	r0, #26
 1602 02a2 3146     		mov	r1, r6
 1603 02a4 2A46     		mov	r2, r5
 1604 02a6 2346     		mov	r3, r4
 1605 02a8 FFF7FEFF 		bl	DisplayOutputString
 1606 02ac 0346     		mov	r3, r0
 1607 02ae 1A46     		mov	r2, r3
 1608 02b0 3B6A     		ldr	r3, [r7, #32]
 1609 02b2 5B88     		ldrh	r3, [r3, #2]	@ movhi
 1610 02b4 9BB2     		uxth	r3, r3
 1611 02b6 1344     		add	r3, r3, r2
 1612 02b8 9AB2     		uxth	r2, r3
ARM GAS  C:\Users\RECEPC~1\AppData\Local\Temp\ccNQpeOs.s 			page 36


 1613 02ba 3B6A     		ldr	r3, [r7, #32]
 1614 02bc 5A80     		strh	r2, [r3, #2]	@ movhi
 354:.\DisplayBLL.c ****             ypos += 0x0020;index++;
 1615              		.loc 1 354 0
 1616 02be BB8B     		ldrh	r3, [r7, #28]	@ movhi
 1617 02c0 2033     		adds	r3, r3, #32
 1618 02c2 BB83     		strh	r3, [r7, #28]	@ movhi
 1619 02c4 FB7F     		ldrb	r3, [r7, #31]	@ zero_extendqisi2
 1620 02c6 0133     		adds	r3, r3, #1
 1621 02c8 FB77     		strb	r3, [r7, #31]
 355:.\DisplayBLL.c ****             puartdisp->_messagelength += DisplayOutputString(0x001A, ypos, &puartdisp->_messagetx[p
 1622              		.loc 1 355 0
 1623 02ca 3B6A     		ldr	r3, [r7, #32]
 1624 02cc 5B88     		ldrh	r3, [r3, #2]	@ movhi
 1625 02ce 9BB2     		uxth	r3, r3
 1626 02d0 1A46     		mov	r2, r3
 1627 02d2 3B6A     		ldr	r3, [r7, #32]
 1628 02d4 1344     		add	r3, r3, r2
 1629 02d6 1D1D     		adds	r5, r3, #4
 1630 02d8 FB7F     		ldrb	r3, [r7, #31]	@ zero_extendqisi2
 1631 02da 9B00     		lsls	r3, r3, #2
 1632 02dc 07F13002 		add	r2, r7, #48
 1633 02e0 1344     		add	r3, r3, r2
 1634 02e2 53F8284C 		ldr	r4, [r3, #-40]
 1635 02e6 FB7F     		ldrb	r3, [r7, #31]	@ zero_extendqisi2
 1636 02e8 9B00     		lsls	r3, r3, #2
 1637 02ea 07F13002 		add	r2, r7, #48
 1638 02ee 1344     		add	r3, r3, r2
 1639 02f0 53F8283C 		ldr	r3, [r3, #-40]
 1640 02f4 1846     		mov	r0, r3
 1641 02f6 FFF7FEFF 		bl	strlen
 1642 02fa 0346     		mov	r3, r0
 1643 02fc 9BB2     		uxth	r3, r3
 1644 02fe BE8B     		ldrh	r6, [r7, #28]
 1645 0300 0093     		str	r3, [sp]
 1646 0302 01AA     		add	r2, sp, #4
 1647 0304 07F11403 		add	r3, r7, #20
 1648 0308 93E80300 		ldmia	r3, {r0, r1}
 1649 030c 82E80300 		stmia	r2, {r0, r1}
 1650 0310 1A20     		movs	r0, #26
 1651 0312 3146     		mov	r1, r6
 1652 0314 2A46     		mov	r2, r5
 1653 0316 2346     		mov	r3, r4
 1654 0318 FFF7FEFF 		bl	DisplayOutputString
 1655 031c 0346     		mov	r3, r0
 1656 031e 1A46     		mov	r2, r3
 1657 0320 3B6A     		ldr	r3, [r7, #32]
 1658 0322 5B88     		ldrh	r3, [r3, #2]	@ movhi
 1659 0324 9BB2     		uxth	r3, r3
 1660 0326 1344     		add	r3, r3, r2
 1661 0328 9AB2     		uxth	r2, r3
 1662 032a 3B6A     		ldr	r3, [r7, #32]
 1663 032c 5A80     		strh	r2, [r3, #2]	@ movhi
 356:.\DisplayBLL.c ****             ypos += 0x0020;index++;
 1664              		.loc 1 356 0
 1665 032e BB8B     		ldrh	r3, [r7, #28]	@ movhi
 1666 0330 2033     		adds	r3, r3, #32
ARM GAS  C:\Users\RECEPC~1\AppData\Local\Temp\ccNQpeOs.s 			page 37


 1667 0332 BB83     		strh	r3, [r7, #28]	@ movhi
 1668 0334 FB7F     		ldrb	r3, [r7, #31]	@ zero_extendqisi2
 1669 0336 0133     		adds	r3, r3, #1
 1670 0338 FB77     		strb	r3, [r7, #31]
 357:.\DisplayBLL.c ****             
 358:.\DisplayBLL.c ****             puartdisp->_messagestate = PENDING;
 1671              		.loc 1 358 0
 1672 033a 3B6A     		ldr	r3, [r7, #32]
 1673 033c C222     		movs	r2, #194
 1674 033e 1A70     		strb	r2, [r3]
 1675              	.L47:
 1676              	.LBE23:
 1677              	.LBE22:
 359:.\DisplayBLL.c ****         }
 360:.\DisplayBLL.c ****     }
 361:.\DisplayBLL.c **** }
 1678              		.loc 1 361 0
 1679 0340 3437     		adds	r7, r7, #52
 1680              		.cfi_def_cfa_offset 20
 1681 0342 BD46     		mov	sp, r7
 1682              		.cfi_def_cfa_register 13
 1683              		@ sp needed
 1684 0344 F0BD     		pop	{r4, r5, r6, r7, pc}
 1685              		.cfi_endproc
 1686              	.LFE69:
 1687              		.size	AuthorizationMessageDecorator, .-AuthorizationMessageDecorator
 1688 0346 00BF     		.section	.rodata
 1689              		.align	2
 1690              	.LC16:
 1691 0100 20205045 		.ascii	"  PETICION DE AUTORIZACION ACEPTADA!  \000"
 1691      54494349 
 1691      4F4E2044 
 1691      45204155 
 1691      544F5249 
 1692              		.section	.text.AcceptedAuthorizationMessageDecorator,"ax",%progbits
 1693              		.align	2
 1694              		.global	AcceptedAuthorizationMessageDecorator
 1695              		.thumb
 1696              		.thumb_func
 1697              		.type	AcceptedAuthorizationMessageDecorator, %function
 1698              	AcceptedAuthorizationMessageDecorator:
 1699              	.LFB70:
 362:.\DisplayBLL.c **** 
 363:.\DisplayBLL.c **** void AcceptedAuthorizationMessageDecorator(LPVOID pparam)
 364:.\DisplayBLL.c **** {
 1700              		.loc 1 364 0
 1701              		.cfi_startproc
 1702              		@ args = 0, pretend = 0, frame = 40
 1703              		@ frame_needed = 1, uses_anonymous_args = 0
 1704 0000 F0B5     		push	{r4, r5, r6, r7, lr}
 1705              		.cfi_def_cfa_offset 20
 1706              		.cfi_offset 4, -20
 1707              		.cfi_offset 5, -16
 1708              		.cfi_offset 6, -12
 1709              		.cfi_offset 7, -8
 1710              		.cfi_offset 14, -4
 1711 0002 8FB0     		sub	sp, sp, #60
ARM GAS  C:\Users\RECEPC~1\AppData\Local\Temp\ccNQpeOs.s 			page 38


 1712              		.cfi_def_cfa_offset 80
 1713 0004 04AF     		add	r7, sp, #16
 1714              		.cfi_def_cfa 7, 64
 1715 0006 7860     		str	r0, [r7, #4]
 365:.\DisplayBLL.c ****     FontData fontdata;
 366:.\DisplayBLL.c ****     fontdata._size = 0x03;
 1716              		.loc 1 366 0
 1717 0008 0323     		movs	r3, #3
 1718 000a 3B73     		strb	r3, [r7, #12]
 367:.\DisplayBLL.c ****     fontdata._backcolor = 0xFFFF;
 1719              		.loc 1 367 0
 1720 000c 4FF6FF73 		movw	r3, #65535
 1721 0010 3B82     		strh	r3, [r7, #16]	@ movhi
 368:.\DisplayBLL.c ****     fontdata._forecolor = 0x0000;
 1722              		.loc 1 368 0
 1723 0012 0023     		movs	r3, #0
 1724 0014 7B82     		strh	r3, [r7, #18]	@ movhi
 369:.\DisplayBLL.c ****     fontdata._opaquebackground = DISP_TEXT_OPAQUE;
 1725              		.loc 1 369 0
 1726 0016 C523     		movs	r3, #197
 1727 0018 BB73     		strb	r3, [r7, #14]
 370:.\DisplayBLL.c ****     //MOVE ALL OF THESE TEXTS TO THE EEPROM
 371:.\DisplayBLL.c ****     char8 *pmessage[] = 
 1728              		.loc 1 371 0
 1729 001a 4F4B     		ldr	r3, .L57
 1730 001c BB60     		str	r3, [r7, #8]
 372:.\DisplayBLL.c ****     {
 373:.\DisplayBLL.c ****         "  PETICION DE AUTORIZACION ACEPTADA!  ",
 374:.\DisplayBLL.c ****     };
 375:.\DisplayBLL.c ****     DisplayLayout *pdisplay = (DisplayLayout*)pparam;
 1731              		.loc 1 375 0
 1732 001e 7B68     		ldr	r3, [r7, #4]
 1733 0020 7B62     		str	r3, [r7, #36]
 376:.\DisplayBLL.c ****     if(pdisplay->_dispid == DISPLAY1)
 1734              		.loc 1 376 0
 1735 0022 7B6A     		ldr	r3, [r7, #36]
 1736 0024 1B78     		ldrb	r3, [r3]	@ zero_extendqisi2
 1737 0026 002B     		cmp	r3, #0
 1738 0028 4AD1     		bne	.L54
 1739              	.LBB24:
 377:.\DisplayBLL.c ****     {
 378:.\DisplayBLL.c ****         UARTMessage *puartdisp = GetUARTMessageSlot(UART_DISPLAY1);
 1740              		.loc 1 378 0
 1741 002a A320     		movs	r0, #163
 1742 002c FFF7FEFF 		bl	GetUARTMessageSlot
 1743 0030 3862     		str	r0, [r7, #32]
 379:.\DisplayBLL.c ****         if(puartdisp)
 1744              		.loc 1 379 0
 1745 0032 3B6A     		ldr	r3, [r7, #32]
 1746 0034 002B     		cmp	r3, #0
 1747 0036 42D0     		beq	.L55
 1748              	.LBB25:
 380:.\DisplayBLL.c ****         {
 381:.\DisplayBLL.c ****             uint8 index = 0;
 1749              		.loc 1 381 0
 1750 0038 0023     		movs	r3, #0
 1751 003a FB77     		strb	r3, [r7, #31]
ARM GAS  C:\Users\RECEPC~1\AppData\Local\Temp\ccNQpeOs.s 			page 39


 382:.\DisplayBLL.c ****             uint16 ypos = 0x00BA;
 1752              		.loc 1 382 0
 1753 003c BA23     		movs	r3, #186
 1754 003e BB83     		strh	r3, [r7, #28]	@ movhi
 383:.\DisplayBLL.c ****             puartdisp->_messagelength = 0;
 1755              		.loc 1 383 0
 1756 0040 3B6A     		ldr	r3, [r7, #32]
 1757 0042 0022     		movs	r2, #0
 1758 0044 5A80     		strh	r2, [r3, #2]	@ movhi
 384:.\DisplayBLL.c ****             puartdisp->_messagelength += DisplayOutputString(0x001A, ypos, &puartdisp->_messagetx[p
 1759              		.loc 1 384 0
 1760 0046 3B6A     		ldr	r3, [r7, #32]
 1761 0048 5B88     		ldrh	r3, [r3, #2]	@ movhi
 1762 004a 9BB2     		uxth	r3, r3
 1763 004c 1A46     		mov	r2, r3
 1764 004e 3B6A     		ldr	r3, [r7, #32]
 1765 0050 1344     		add	r3, r3, r2
 1766 0052 1D1D     		adds	r5, r3, #4
 1767 0054 FB7F     		ldrb	r3, [r7, #31]	@ zero_extendqisi2
 1768 0056 9B00     		lsls	r3, r3, #2
 1769 0058 07F12802 		add	r2, r7, #40
 1770 005c 1344     		add	r3, r3, r2
 1771 005e 53F8204C 		ldr	r4, [r3, #-32]
 1772 0062 FB7F     		ldrb	r3, [r7, #31]	@ zero_extendqisi2
 1773 0064 9B00     		lsls	r3, r3, #2
 1774 0066 07F12802 		add	r2, r7, #40
 1775 006a 1344     		add	r3, r3, r2
 1776 006c 53F8203C 		ldr	r3, [r3, #-32]
 1777 0070 1846     		mov	r0, r3
 1778 0072 FFF7FEFF 		bl	strlen
 1779 0076 0346     		mov	r3, r0
 1780 0078 9BB2     		uxth	r3, r3
 1781 007a BE8B     		ldrh	r6, [r7, #28]
 1782 007c 0093     		str	r3, [sp]
 1783 007e 01AA     		add	r2, sp, #4
 1784 0080 07F10C03 		add	r3, r7, #12
 1785 0084 93E80300 		ldmia	r3, {r0, r1}
 1786 0088 82E80300 		stmia	r2, {r0, r1}
 1787 008c 1A20     		movs	r0, #26
 1788 008e 3146     		mov	r1, r6
 1789 0090 2A46     		mov	r2, r5
 1790 0092 2346     		mov	r3, r4
 1791 0094 FFF7FEFF 		bl	DisplayOutputString
 1792 0098 0346     		mov	r3, r0
 1793 009a 1A46     		mov	r2, r3
 1794 009c 3B6A     		ldr	r3, [r7, #32]
 1795 009e 5B88     		ldrh	r3, [r3, #2]	@ movhi
 1796 00a0 9BB2     		uxth	r3, r3
 1797 00a2 1344     		add	r3, r3, r2
 1798 00a4 9AB2     		uxth	r2, r3
 1799 00a6 3B6A     		ldr	r3, [r7, #32]
 1800 00a8 5A80     		strh	r2, [r3, #2]	@ movhi
 385:.\DisplayBLL.c ****             ypos += 0x0020;index++;
 1801              		.loc 1 385 0
 1802 00aa BB8B     		ldrh	r3, [r7, #28]	@ movhi
 1803 00ac 2033     		adds	r3, r3, #32
 1804 00ae BB83     		strh	r3, [r7, #28]	@ movhi
ARM GAS  C:\Users\RECEPC~1\AppData\Local\Temp\ccNQpeOs.s 			page 40


 1805 00b0 FB7F     		ldrb	r3, [r7, #31]	@ zero_extendqisi2
 1806 00b2 0133     		adds	r3, r3, #1
 1807 00b4 FB77     		strb	r3, [r7, #31]
 386:.\DisplayBLL.c **** 
 387:.\DisplayBLL.c ****             puartdisp->_messagestate = PENDING;
 1808              		.loc 1 387 0
 1809 00b6 3B6A     		ldr	r3, [r7, #32]
 1810 00b8 C222     		movs	r2, #194
 1811 00ba 1A70     		strb	r2, [r3]
 1812              	.LBE25:
 1813              	.LBE24:
 1814 00bc 49E0     		b	.L53
 1815              	.L55:
 1816 00be 48E0     		b	.L53
 1817              	.L54:
 1818              	.LBB26:
 388:.\DisplayBLL.c ****         }
 389:.\DisplayBLL.c ****     }
 390:.\DisplayBLL.c ****     else
 391:.\DisplayBLL.c ****     {
 392:.\DisplayBLL.c ****         UARTMessage *puartdisp = GetUARTMessageSlot(UART_DISPLAY2);
 1819              		.loc 1 392 0
 1820 00c0 A420     		movs	r0, #164
 1821 00c2 FFF7FEFF 		bl	GetUARTMessageSlot
 1822 00c6 B861     		str	r0, [r7, #24]
 393:.\DisplayBLL.c ****         if(puartdisp)
 1823              		.loc 1 393 0
 1824 00c8 BB69     		ldr	r3, [r7, #24]
 1825 00ca 002B     		cmp	r3, #0
 1826 00cc 41D0     		beq	.L53
 1827              	.LBB27:
 394:.\DisplayBLL.c ****         {
 395:.\DisplayBLL.c ****             uint8 index = 0;
 1828              		.loc 1 395 0
 1829 00ce 0023     		movs	r3, #0
 1830 00d0 FB75     		strb	r3, [r7, #23]
 396:.\DisplayBLL.c ****             uint16 ypos = 0x00BA;
 1831              		.loc 1 396 0
 1832 00d2 BA23     		movs	r3, #186
 1833 00d4 BB82     		strh	r3, [r7, #20]	@ movhi
 397:.\DisplayBLL.c ****             puartdisp->_messagelength = 0;
 1834              		.loc 1 397 0
 1835 00d6 BB69     		ldr	r3, [r7, #24]
 1836 00d8 0022     		movs	r2, #0
 1837 00da 5A80     		strh	r2, [r3, #2]	@ movhi
 398:.\DisplayBLL.c ****             puartdisp->_messagelength += DisplayOutputString(0x001A, ypos, &puartdisp->_messagetx[p
 1838              		.loc 1 398 0
 1839 00dc BB69     		ldr	r3, [r7, #24]
 1840 00de 5B88     		ldrh	r3, [r3, #2]	@ movhi
 1841 00e0 9BB2     		uxth	r3, r3
 1842 00e2 1A46     		mov	r2, r3
 1843 00e4 BB69     		ldr	r3, [r7, #24]
 1844 00e6 1344     		add	r3, r3, r2
 1845 00e8 1D1D     		adds	r5, r3, #4
 1846 00ea FB7D     		ldrb	r3, [r7, #23]	@ zero_extendqisi2
 1847 00ec 9B00     		lsls	r3, r3, #2
 1848 00ee 07F12802 		add	r2, r7, #40
ARM GAS  C:\Users\RECEPC~1\AppData\Local\Temp\ccNQpeOs.s 			page 41


 1849 00f2 1344     		add	r3, r3, r2
 1850 00f4 53F8204C 		ldr	r4, [r3, #-32]
 1851 00f8 FB7D     		ldrb	r3, [r7, #23]	@ zero_extendqisi2
 1852 00fa 9B00     		lsls	r3, r3, #2
 1853 00fc 07F12802 		add	r2, r7, #40
 1854 0100 1344     		add	r3, r3, r2
 1855 0102 53F8203C 		ldr	r3, [r3, #-32]
 1856 0106 1846     		mov	r0, r3
 1857 0108 FFF7FEFF 		bl	strlen
 1858 010c 0346     		mov	r3, r0
 1859 010e 9BB2     		uxth	r3, r3
 1860 0110 BE8A     		ldrh	r6, [r7, #20]
 1861 0112 0093     		str	r3, [sp]
 1862 0114 01AA     		add	r2, sp, #4
 1863 0116 07F10C03 		add	r3, r7, #12
 1864 011a 93E80300 		ldmia	r3, {r0, r1}
 1865 011e 82E80300 		stmia	r2, {r0, r1}
 1866 0122 1A20     		movs	r0, #26
 1867 0124 3146     		mov	r1, r6
 1868 0126 2A46     		mov	r2, r5
 1869 0128 2346     		mov	r3, r4
 1870 012a FFF7FEFF 		bl	DisplayOutputString
 1871 012e 0346     		mov	r3, r0
 1872 0130 1A46     		mov	r2, r3
 1873 0132 BB69     		ldr	r3, [r7, #24]
 1874 0134 5B88     		ldrh	r3, [r3, #2]	@ movhi
 1875 0136 9BB2     		uxth	r3, r3
 1876 0138 1344     		add	r3, r3, r2
 1877 013a 9AB2     		uxth	r2, r3
 1878 013c BB69     		ldr	r3, [r7, #24]
 1879 013e 5A80     		strh	r2, [r3, #2]	@ movhi
 399:.\DisplayBLL.c ****             ypos += 0x0020;index++;
 1880              		.loc 1 399 0
 1881 0140 BB8A     		ldrh	r3, [r7, #20]	@ movhi
 1882 0142 2033     		adds	r3, r3, #32
 1883 0144 BB82     		strh	r3, [r7, #20]	@ movhi
 1884 0146 FB7D     		ldrb	r3, [r7, #23]	@ zero_extendqisi2
 1885 0148 0133     		adds	r3, r3, #1
 1886 014a FB75     		strb	r3, [r7, #23]
 400:.\DisplayBLL.c ****             
 401:.\DisplayBLL.c ****             puartdisp->_messagestate = PENDING;
 1887              		.loc 1 401 0
 1888 014c BB69     		ldr	r3, [r7, #24]
 1889 014e C222     		movs	r2, #194
 1890 0150 1A70     		strb	r2, [r3]
 1891              	.L53:
 1892              	.LBE27:
 1893              	.LBE26:
 402:.\DisplayBLL.c ****         }
 403:.\DisplayBLL.c ****     }
 404:.\DisplayBLL.c **** }
 1894              		.loc 1 404 0
 1895 0152 2C37     		adds	r7, r7, #44
 1896              		.cfi_def_cfa_offset 20
 1897 0154 BD46     		mov	sp, r7
 1898              		.cfi_def_cfa_register 13
 1899              		@ sp needed
ARM GAS  C:\Users\RECEPC~1\AppData\Local\Temp\ccNQpeOs.s 			page 42


 1900 0156 F0BD     		pop	{r4, r5, r6, r7, pc}
 1901              	.L58:
 1902              		.align	2
 1903              	.L57:
 1904 0158 00010000 		.word	.LC16
 1905              		.cfi_endproc
 1906              	.LFE70:
 1907              		.size	AcceptedAuthorizationMessageDecorator, .-AcceptedAuthorizationMessageDecorator
 1908              		.section	.text.ProductNameSelectionDecorator,"ax",%progbits
 1909              		.align	2
 1910              		.global	ProductNameSelectionDecorator
 1911              		.thumb
 1912              		.thumb_func
 1913              		.type	ProductNameSelectionDecorator, %function
 1914              	ProductNameSelectionDecorator:
 1915              	.LFB71:
 405:.\DisplayBLL.c **** 
 406:.\DisplayBLL.c **** void ProductNameSelectionDecorator(LPVOID pparam)
 407:.\DisplayBLL.c **** {
 1916              		.loc 1 407 0
 1917              		.cfi_startproc
 1918              		@ args = 0, pretend = 0, frame = 72
 1919              		@ frame_needed = 1, uses_anonymous_args = 0
 1920 0000 2DE9F041 		push	{r4, r5, r6, r7, r8, lr}
 1921              		.cfi_def_cfa_offset 24
 1922              		.cfi_offset 4, -24
 1923              		.cfi_offset 5, -20
 1924              		.cfi_offset 6, -16
 1925              		.cfi_offset 7, -12
 1926              		.cfi_offset 8, -8
 1927              		.cfi_offset 14, -4
 1928 0004 96B0     		sub	sp, sp, #88
 1929              		.cfi_def_cfa_offset 112
 1930 0006 04AF     		add	r7, sp, #16
 1931              		.cfi_def_cfa 7, 96
 1932 0008 7860     		str	r0, [r7, #4]
 408:.\DisplayBLL.c ****     FontData fontdata;
 409:.\DisplayBLL.c ****     fontdata._size = 0x03;
 1933              		.loc 1 409 0
 1934 000a 0323     		movs	r3, #3
 1935 000c 3B75     		strb	r3, [r7, #20]
 410:.\DisplayBLL.c ****     fontdata._backcolor = 0x0000;
 1936              		.loc 1 410 0
 1937 000e 0023     		movs	r3, #0
 1938 0010 3B83     		strh	r3, [r7, #24]	@ movhi
 411:.\DisplayBLL.c ****     fontdata._forecolor = 0xFFFF;
 1939              		.loc 1 411 0
 1940 0012 4FF6FF73 		movw	r3, #65535
 1941 0016 7B83     		strh	r3, [r7, #26]	@ movhi
 412:.\DisplayBLL.c ****     fontdata._opaquebackground = DISP_TEXT_TRANSP;
 1942              		.loc 1 412 0
 1943 0018 8523     		movs	r3, #133
 1944 001a BB75     		strb	r3, [r7, #22]
 413:.\DisplayBLL.c ****     uint8  numhoses = 0x00;
 1945              		.loc 1 413 0
 1946 001c 0023     		movs	r3, #0
 1947 001e 87F84730 		strb	r3, [r7, #71]
ARM GAS  C:\Users\RECEPC~1\AppData\Local\Temp\ccNQpeOs.s 			page 43


 414:.\DisplayBLL.c ****     uint16 eepromcardpage = 0x00;
 1948              		.loc 1 414 0
 1949 0022 0023     		movs	r3, #0
 1950 0024 A7F84430 		strh	r3, [r7, #68]	@ movhi
 415:.\DisplayBLL.c ****     uint16 eepromprodpage = 0x00;
 1951              		.loc 1 415 0
 1952 0028 0023     		movs	r3, #0
 1953 002a A7F84230 		strh	r3, [r7, #66]	@ movhi
 416:.\DisplayBLL.c ****     PDISPLAYLAYOUTPTR pdisplay = (PDISPLAYLAYOUTPTR)pparam;
 1954              		.loc 1 416 0
 1955 002e 7B68     		ldr	r3, [r7, #4]
 1956 0030 FB63     		str	r3, [r7, #60]
 417:.\DisplayBLL.c ****     switch(GetPumpIndexFromDisplay(pdisplay))
 1957              		.loc 1 417 0
 1958 0032 F86B     		ldr	r0, [r7, #60]
 1959 0034 FFF7FEFF 		bl	GetPumpIndexFromDisplay
 1960 0038 0346     		mov	r3, r0
 1961 003a 032B     		cmp	r3, #3
 1962 003c 3ED8     		bhi	.L60
 1963 003e 01A2     		adr	r2, .L62
 1964 0040 52F823F0 		ldr	pc, [r2, r3, lsl #2]
 1965              		.p2align 2
 1966              	.L62:
 1967 0044 55000000 		.word	.L61+1
 1968 0048 6F000000 		.word	.L63+1
 1969 004c 89000000 		.word	.L64+1
 1970 0050 A3000000 		.word	.L65+1
 1971              		.p2align 1
 1972              	.L61:
 418:.\DisplayBLL.c ****     {
 419:.\DisplayBLL.c ****         case 0x00:
 420:.\DisplayBLL.c ****             numhoses = _g_dispenserlayoutinfo._hosesposition1;
 1973              		.loc 1 420 0
 1974 0054 BD4B     		ldr	r3, .L94
 1975 0056 DB78     		ldrb	r3, [r3, #3]
 1976 0058 87F84730 		strb	r3, [r7, #71]
 421:.\DisplayBLL.c ****             eepromcardpage = (uint16)EEPROM_DISPENSER_PUMP1_LAYOUT_PAGE;
 1977              		.loc 1 421 0
 1978 005c 4FF40073 		mov	r3, #512
 1979 0060 A7F84430 		strh	r3, [r7, #68]	@ movhi
 422:.\DisplayBLL.c ****             eepromprodpage = (uint16)EEPROM_DISPENSER_PUMP1_PRODUCT_NAMES_PAGE;
 1980              		.loc 1 422 0
 1981 0064 4FF44073 		mov	r3, #768
 1982 0068 A7F84230 		strh	r3, [r7, #66]	@ movhi
 423:.\DisplayBLL.c ****             break;
 1983              		.loc 1 423 0
 1984 006c 26E0     		b	.L60
 1985              	.L63:
 424:.\DisplayBLL.c ****         case 0x01:
 425:.\DisplayBLL.c ****             numhoses = _g_dispenserlayoutinfo._hosesposition2;
 1986              		.loc 1 425 0
 1987 006e B74B     		ldr	r3, .L94
 1988 0070 1B79     		ldrb	r3, [r3, #4]
 1989 0072 87F84730 		strb	r3, [r7, #71]
 426:.\DisplayBLL.c ****             eepromcardpage = (uint16)EEPROM_DISPENSER_PUMP2_LAYOUT_PAGE;
 1990              		.loc 1 426 0
 1991 0076 4FF41073 		mov	r3, #576
ARM GAS  C:\Users\RECEPC~1\AppData\Local\Temp\ccNQpeOs.s 			page 44


 1992 007a A7F84430 		strh	r3, [r7, #68]	@ movhi
 427:.\DisplayBLL.c ****             eepromprodpage = (uint16)EEPROM_DISPENSER_PUMP2_PRODUCT_NAMES_PAGE;
 1993              		.loc 1 427 0
 1994 007e 4FF45073 		mov	r3, #832
 1995 0082 A7F84230 		strh	r3, [r7, #66]	@ movhi
 428:.\DisplayBLL.c ****             break;
 1996              		.loc 1 428 0
 1997 0086 19E0     		b	.L60
 1998              	.L64:
 429:.\DisplayBLL.c ****         case 0x02:
 430:.\DisplayBLL.c ****             numhoses = _g_dispenserlayoutinfo._hosesposition3;
 1999              		.loc 1 430 0
 2000 0088 B04B     		ldr	r3, .L94
 2001 008a 5B79     		ldrb	r3, [r3, #5]
 2002 008c 87F84730 		strb	r3, [r7, #71]
 431:.\DisplayBLL.c ****             eepromcardpage = (uint16)EEPROM_DISPENSER_PUMP3_LAYOUT_PAGE;
 2003              		.loc 1 431 0
 2004 0090 4FF42073 		mov	r3, #640
 2005 0094 A7F84430 		strh	r3, [r7, #68]	@ movhi
 432:.\DisplayBLL.c ****             eepromprodpage = (uint16)EEPROM_DISPENSER_PUMP3_PRODUCT_NAMES_PAGE;
 2006              		.loc 1 432 0
 2007 0098 4FF46073 		mov	r3, #896
 2008 009c A7F84230 		strh	r3, [r7, #66]	@ movhi
 433:.\DisplayBLL.c ****             break;
 2009              		.loc 1 433 0
 2010 00a0 0CE0     		b	.L60
 2011              	.L65:
 434:.\DisplayBLL.c ****         case 0x03:
 435:.\DisplayBLL.c ****             numhoses = _g_dispenserlayoutinfo._hosesposition4;
 2012              		.loc 1 435 0
 2013 00a2 AA4B     		ldr	r3, .L94
 2014 00a4 9B79     		ldrb	r3, [r3, #6]
 2015 00a6 87F84730 		strb	r3, [r7, #71]
 436:.\DisplayBLL.c ****             eepromcardpage = (uint16)EEPROM_DISPENSER_PUMP4_LAYOUT_PAGE;
 2016              		.loc 1 436 0
 2017 00aa 4FF43073 		mov	r3, #704
 2018 00ae A7F84430 		strh	r3, [r7, #68]	@ movhi
 437:.\DisplayBLL.c ****             eepromprodpage = (uint16)EEPROM_DISPENSER_PUMP4_PRODUCT_NAMES_PAGE;
 2019              		.loc 1 437 0
 2020 00b2 4FF47073 		mov	r3, #960
 2021 00b6 A7F84230 		strh	r3, [r7, #66]	@ movhi
 438:.\DisplayBLL.c ****             break;
 2022              		.loc 1 438 0
 2023 00ba 00BF     		nop
 2024              	.L60:
 439:.\DisplayBLL.c ****     }    
 440:.\DisplayBLL.c ****     if(pdisplay->_dispid == DISPLAY1)
 2025              		.loc 1 440 0
 2026 00bc FB6B     		ldr	r3, [r7, #60]
 2027 00be 1B78     		ldrb	r3, [r3]	@ zero_extendqisi2
 2028 00c0 002B     		cmp	r3, #0
 2029 00c2 40F00881 		bne	.L66
 2030              	.LBB28:
 441:.\DisplayBLL.c ****     {
 442:.\DisplayBLL.c ****         uint8 cardinals[0x04];
 443:.\DisplayBLL.c ****         
 444:.\DisplayBLL.c ****         I2CBusLock();
ARM GAS  C:\Users\RECEPC~1\AppData\Local\Temp\ccNQpeOs.s 			page 45


 2031              		.loc 1 444 0
 2032 00c6 FFF7FEFF 		bl	I2CBusLock
 445:.\DisplayBLL.c ****         ClearEepromBuffer();
 2033              		.loc 1 445 0
 2034 00ca FFF7FEFF 		bl	ClearEepromBuffer
 446:.\DisplayBLL.c ****         LoadEepromPage(eepromcardpage);
 2035              		.loc 1 446 0
 2036 00ce B7F84430 		ldrh	r3, [r7, #68]
 2037 00d2 1846     		mov	r0, r3
 2038 00d4 FFF7FEFF 		bl	LoadEepromPage
 447:.\DisplayBLL.c ****         memcpy(cardinals, &(GetEepromBuffer()[0x01]), 0x04);
 2039              		.loc 1 447 0
 2040 00d8 FFF7FEFF 		bl	GetEepromBuffer
 2041 00dc 0346     		mov	r3, r0
 2042 00de 5A1C     		adds	r2, r3, #1
 2043 00e0 07F11003 		add	r3, r7, #16
 2044 00e4 1068     		ldr	r0, [r2]	@ unaligned
 2045 00e6 1860     		str	r0, [r3]	@ unaligned
 448:.\DisplayBLL.c ****         I2CBusUnlock();
 2046              		.loc 1 448 0
 2047 00e8 FFF7FEFF 		bl	I2CBusUnlock
 449:.\DisplayBLL.c ****         
 450:.\DisplayBLL.c ****         I2CBusLock();
 2048              		.loc 1 450 0
 2049 00ec FFF7FEFF 		bl	I2CBusLock
 451:.\DisplayBLL.c ****         ClearEepromBuffer();
 2050              		.loc 1 451 0
 2051 00f0 FFF7FEFF 		bl	ClearEepromBuffer
 452:.\DisplayBLL.c ****         LoadEepromPage(eepromprodpage);
 2052              		.loc 1 452 0
 2053 00f4 B7F84230 		ldrh	r3, [r7, #66]
 2054 00f8 1846     		mov	r0, r3
 2055 00fa FFF7FEFF 		bl	LoadEepromPage
 453:.\DisplayBLL.c ****         FOR(uint8 index = 0, index < numhoses, index++)
 2056              		.loc 1 453 0
 2057 00fe 0023     		movs	r3, #0
 2058 0100 87F84130 		strb	r3, [r7, #65]
 2059 0104 DDE0     		b	.L67
 2060              	.L78:
 454:.\DisplayBLL.c ****         {
 455:.\DisplayBLL.c ****             switch(cardinals[index])
 2061              		.loc 1 455 0
 2062 0106 97F84130 		ldrb	r3, [r7, #65]	@ zero_extendqisi2
 2063 010a 07F14802 		add	r2, r7, #72
 2064 010e 1344     		add	r3, r3, r2
 2065 0110 13F8383C 		ldrb	r3, [r3, #-56]	@ zero_extendqisi2
 2066 0114 013B     		subs	r3, r3, #1
 2067 0116 032B     		cmp	r3, #3
 2068 0118 00F2CE80 		bhi	.L68
 2069 011c 01A2     		adr	r2, .L70
 2070 011e 52F823F0 		ldr	pc, [r2, r3, lsl #2]
 2071 0122 00BF     		.p2align 2
 2072              	.L70:
 2073 0124 35010000 		.word	.L69+1
 2074 0128 93010000 		.word	.L71+1
 2075 012c F5010000 		.word	.L72+1
 2076 0130 57020000 		.word	.L73+1
ARM GAS  C:\Users\RECEPC~1\AppData\Local\Temp\ccNQpeOs.s 			page 46


 2077              		.p2align 1
 2078              	.L69:
 2079              	.LBB29:
 456:.\DisplayBLL.c ****             {
 457:.\DisplayBLL.c ****                 case 0x01:
 458:.\DisplayBLL.c ****                 {
 459:.\DisplayBLL.c ****                     PUARTMESSAGEPTR puartdisp = GetUARTMessageSlot(UART_DISPLAY1);
 2080              		.loc 1 459 0
 2081 0134 A320     		movs	r0, #163
 2082 0136 FFF7FEFF 		bl	GetUARTMessageSlot
 2083 013a B863     		str	r0, [r7, #56]
 460:.\DisplayBLL.c ****                     if(puartdisp)
 2084              		.loc 1 460 0
 2085 013c BB6B     		ldr	r3, [r7, #56]
 2086 013e 002B     		cmp	r3, #0
 2087 0140 26D0     		beq	.L74
 461:.\DisplayBLL.c ****                     {
 462:.\DisplayBLL.c ****                         puartdisp->_messagelength = DisplayOutputString(_g_productscreenpos[index][
 2088              		.loc 1 462 0
 2089 0142 97F84130 		ldrb	r3, [r7, #65]	@ zero_extendqisi2
 2090 0146 824A     		ldr	r2, .L94+4
 2091 0148 32F82360 		ldrh	r6, [r2, r3, lsl #2]
 2092 014c 97F84130 		ldrb	r3, [r7, #65]	@ zero_extendqisi2
 2093 0150 7F4A     		ldr	r2, .L94+4
 2094 0152 9B00     		lsls	r3, r3, #2
 2095 0154 1344     		add	r3, r3, r2
 2096 0156 5D88     		ldrh	r5, [r3, #2]
 2097 0158 BB6B     		ldr	r3, [r7, #56]
 2098 015a 1C1D     		adds	r4, r3, #4
 2099 015c FFF7FEFF 		bl	GetEepromBuffer
 2100 0160 8646     		mov	lr, r0
 2101 0162 1023     		movs	r3, #16
 2102 0164 0093     		str	r3, [sp]
 2103 0166 01AA     		add	r2, sp, #4
 2104 0168 07F11403 		add	r3, r7, #20
 2105 016c 93E80300 		ldmia	r3, {r0, r1}
 2106 0170 82E80300 		stmia	r2, {r0, r1}
 2107 0174 3046     		mov	r0, r6
 2108 0176 2946     		mov	r1, r5
 2109 0178 2246     		mov	r2, r4
 2110 017a 7346     		mov	r3, lr
 2111 017c FFF7FEFF 		bl	DisplayOutputString
 2112 0180 0346     		mov	r3, r0
 2113 0182 1A46     		mov	r2, r3
 2114 0184 BB6B     		ldr	r3, [r7, #56]
 2115 0186 5A80     		strh	r2, [r3, #2]	@ movhi
 463:.\DisplayBLL.c ****                         puartdisp->_messagestate = PENDING;
 2116              		.loc 1 463 0
 2117 0188 BB6B     		ldr	r3, [r7, #56]
 2118 018a C222     		movs	r2, #194
 2119 018c 1A70     		strb	r2, [r3]
 464:.\DisplayBLL.c ****                     }
 465:.\DisplayBLL.c ****                     break;
 2120              		.loc 1 465 0
 2121 018e 93E0     		b	.L68
 2122              	.L74:
 2123 0190 92E0     		b	.L68
ARM GAS  C:\Users\RECEPC~1\AppData\Local\Temp\ccNQpeOs.s 			page 47


 2124              	.L71:
 2125              	.LBE29:
 2126              	.LBB30:
 466:.\DisplayBLL.c ****                 }
 467:.\DisplayBLL.c ****                 case 0x02:
 468:.\DisplayBLL.c ****                 {
 469:.\DisplayBLL.c ****                     PUARTMESSAGEPTR puartdisp = GetUARTMessageSlot(UART_DISPLAY1);
 2127              		.loc 1 469 0
 2128 0192 A320     		movs	r0, #163
 2129 0194 FFF7FEFF 		bl	GetUARTMessageSlot
 2130 0198 7863     		str	r0, [r7, #52]
 470:.\DisplayBLL.c ****                     if(puartdisp)
 2131              		.loc 1 470 0
 2132 019a 7B6B     		ldr	r3, [r7, #52]
 2133 019c 002B     		cmp	r3, #0
 2134 019e 28D0     		beq	.L75
 471:.\DisplayBLL.c ****                     {
 472:.\DisplayBLL.c ****                         puartdisp->_messagelength = DisplayOutputString(_g_productscreenpos[index][
 2135              		.loc 1 472 0
 2136 01a0 97F84130 		ldrb	r3, [r7, #65]	@ zero_extendqisi2
 2137 01a4 6A4A     		ldr	r2, .L94+4
 2138 01a6 32F82380 		ldrh	r8, [r2, r3, lsl #2]
 2139 01aa 97F84130 		ldrb	r3, [r7, #65]	@ zero_extendqisi2
 2140 01ae 684A     		ldr	r2, .L94+4
 2141 01b0 9B00     		lsls	r3, r3, #2
 2142 01b2 1344     		add	r3, r3, r2
 2143 01b4 5E88     		ldrh	r6, [r3, #2]
 2144 01b6 7B6B     		ldr	r3, [r7, #52]
 2145 01b8 1D1D     		adds	r5, r3, #4
 2146 01ba FFF7FEFF 		bl	GetEepromBuffer
 2147 01be 0346     		mov	r3, r0
 2148 01c0 03F11004 		add	r4, r3, #16
 2149 01c4 1023     		movs	r3, #16
 2150 01c6 0093     		str	r3, [sp]
 2151 01c8 01AA     		add	r2, sp, #4
 2152 01ca 07F11403 		add	r3, r7, #20
 2153 01ce 93E80300 		ldmia	r3, {r0, r1}
 2154 01d2 82E80300 		stmia	r2, {r0, r1}
 2155 01d6 4046     		mov	r0, r8
 2156 01d8 3146     		mov	r1, r6
 2157 01da 2A46     		mov	r2, r5
 2158 01dc 2346     		mov	r3, r4
 2159 01de FFF7FEFF 		bl	DisplayOutputString
 2160 01e2 0346     		mov	r3, r0
 2161 01e4 1A46     		mov	r2, r3
 2162 01e6 7B6B     		ldr	r3, [r7, #52]
 2163 01e8 5A80     		strh	r2, [r3, #2]	@ movhi
 473:.\DisplayBLL.c ****                         puartdisp->_messagestate = PENDING;
 2164              		.loc 1 473 0
 2165 01ea 7B6B     		ldr	r3, [r7, #52]
 2166 01ec C222     		movs	r2, #194
 2167 01ee 1A70     		strb	r2, [r3]
 474:.\DisplayBLL.c ****                     }
 475:.\DisplayBLL.c ****                     break;
 2168              		.loc 1 475 0
 2169 01f0 62E0     		b	.L68
 2170              	.L75:
ARM GAS  C:\Users\RECEPC~1\AppData\Local\Temp\ccNQpeOs.s 			page 48


 2171 01f2 61E0     		b	.L68
 2172              	.L72:
 2173              	.LBE30:
 2174              	.LBB31:
 476:.\DisplayBLL.c ****                 }
 477:.\DisplayBLL.c ****                 case 0x03:
 478:.\DisplayBLL.c ****                 {
 479:.\DisplayBLL.c ****                     PUARTMESSAGEPTR puartdisp = GetUARTMessageSlot(UART_DISPLAY1);
 2175              		.loc 1 479 0
 2176 01f4 A320     		movs	r0, #163
 2177 01f6 FFF7FEFF 		bl	GetUARTMessageSlot
 2178 01fa 3863     		str	r0, [r7, #48]
 480:.\DisplayBLL.c ****                     if(puartdisp)
 2179              		.loc 1 480 0
 2180 01fc 3B6B     		ldr	r3, [r7, #48]
 2181 01fe 002B     		cmp	r3, #0
 2182 0200 28D0     		beq	.L76
 481:.\DisplayBLL.c ****                     {
 482:.\DisplayBLL.c ****                         puartdisp->_messagelength = DisplayOutputString(_g_productscreenpos[index][
 2183              		.loc 1 482 0
 2184 0202 97F84130 		ldrb	r3, [r7, #65]	@ zero_extendqisi2
 2185 0206 524A     		ldr	r2, .L94+4
 2186 0208 32F82380 		ldrh	r8, [r2, r3, lsl #2]
 2187 020c 97F84130 		ldrb	r3, [r7, #65]	@ zero_extendqisi2
 2188 0210 4F4A     		ldr	r2, .L94+4
 2189 0212 9B00     		lsls	r3, r3, #2
 2190 0214 1344     		add	r3, r3, r2
 2191 0216 5E88     		ldrh	r6, [r3, #2]
 2192 0218 3B6B     		ldr	r3, [r7, #48]
 2193 021a 1D1D     		adds	r5, r3, #4
 2194 021c FFF7FEFF 		bl	GetEepromBuffer
 2195 0220 0346     		mov	r3, r0
 2196 0222 03F12004 		add	r4, r3, #32
 2197 0226 1023     		movs	r3, #16
 2198 0228 0093     		str	r3, [sp]
 2199 022a 01AA     		add	r2, sp, #4
 2200 022c 07F11403 		add	r3, r7, #20
 2201 0230 93E80300 		ldmia	r3, {r0, r1}
 2202 0234 82E80300 		stmia	r2, {r0, r1}
 2203 0238 4046     		mov	r0, r8
 2204 023a 3146     		mov	r1, r6
 2205 023c 2A46     		mov	r2, r5
 2206 023e 2346     		mov	r3, r4
 2207 0240 FFF7FEFF 		bl	DisplayOutputString
 2208 0244 0346     		mov	r3, r0
 2209 0246 1A46     		mov	r2, r3
 2210 0248 3B6B     		ldr	r3, [r7, #48]
 2211 024a 5A80     		strh	r2, [r3, #2]	@ movhi
 483:.\DisplayBLL.c ****                         puartdisp->_messagestate = PENDING;
 2212              		.loc 1 483 0
 2213 024c 3B6B     		ldr	r3, [r7, #48]
 2214 024e C222     		movs	r2, #194
 2215 0250 1A70     		strb	r2, [r3]
 484:.\DisplayBLL.c ****                     }
 485:.\DisplayBLL.c ****                     break;
 2216              		.loc 1 485 0
 2217 0252 31E0     		b	.L68
ARM GAS  C:\Users\RECEPC~1\AppData\Local\Temp\ccNQpeOs.s 			page 49


 2218              	.L76:
 2219 0254 30E0     		b	.L68
 2220              	.L73:
 2221              	.LBE31:
 2222              	.LBB32:
 486:.\DisplayBLL.c ****                 }
 487:.\DisplayBLL.c ****                 case 0x04:
 488:.\DisplayBLL.c ****                 {
 489:.\DisplayBLL.c ****                     PUARTMESSAGEPTR puartdisp = GetUARTMessageSlot(UART_DISPLAY1);
 2223              		.loc 1 489 0
 2224 0256 A320     		movs	r0, #163
 2225 0258 FFF7FEFF 		bl	GetUARTMessageSlot
 2226 025c F862     		str	r0, [r7, #44]
 490:.\DisplayBLL.c ****                     if(puartdisp)
 2227              		.loc 1 490 0
 2228 025e FB6A     		ldr	r3, [r7, #44]
 2229 0260 002B     		cmp	r3, #0
 2230 0262 28D0     		beq	.L77
 491:.\DisplayBLL.c ****                     {
 492:.\DisplayBLL.c ****                         puartdisp->_messagelength = DisplayOutputString(_g_productscreenpos[index][
 2231              		.loc 1 492 0
 2232 0264 97F84130 		ldrb	r3, [r7, #65]	@ zero_extendqisi2
 2233 0268 394A     		ldr	r2, .L94+4
 2234 026a 32F82380 		ldrh	r8, [r2, r3, lsl #2]
 2235 026e 97F84130 		ldrb	r3, [r7, #65]	@ zero_extendqisi2
 2236 0272 374A     		ldr	r2, .L94+4
 2237 0274 9B00     		lsls	r3, r3, #2
 2238 0276 1344     		add	r3, r3, r2
 2239 0278 5E88     		ldrh	r6, [r3, #2]
 2240 027a FB6A     		ldr	r3, [r7, #44]
 2241 027c 1D1D     		adds	r5, r3, #4
 2242 027e FFF7FEFF 		bl	GetEepromBuffer
 2243 0282 0346     		mov	r3, r0
 2244 0284 03F13004 		add	r4, r3, #48
 2245 0288 1023     		movs	r3, #16
 2246 028a 0093     		str	r3, [sp]
 2247 028c 01AA     		add	r2, sp, #4
 2248 028e 07F11403 		add	r3, r7, #20
 2249 0292 93E80300 		ldmia	r3, {r0, r1}
 2250 0296 82E80300 		stmia	r2, {r0, r1}
 2251 029a 4046     		mov	r0, r8
 2252 029c 3146     		mov	r1, r6
 2253 029e 2A46     		mov	r2, r5
 2254 02a0 2346     		mov	r3, r4
 2255 02a2 FFF7FEFF 		bl	DisplayOutputString
 2256 02a6 0346     		mov	r3, r0
 2257 02a8 1A46     		mov	r2, r3
 2258 02aa FB6A     		ldr	r3, [r7, #44]
 2259 02ac 5A80     		strh	r2, [r3, #2]	@ movhi
 493:.\DisplayBLL.c ****                         puartdisp->_messagestate = PENDING;
 2260              		.loc 1 493 0
 2261 02ae FB6A     		ldr	r3, [r7, #44]
 2262 02b0 C222     		movs	r2, #194
 2263 02b2 1A70     		strb	r2, [r3]
 494:.\DisplayBLL.c ****                     }
 495:.\DisplayBLL.c ****                     break;
 2264              		.loc 1 495 0
ARM GAS  C:\Users\RECEPC~1\AppData\Local\Temp\ccNQpeOs.s 			page 50


 2265 02b4 FFE7     		b	.L92
 2266              	.L77:
 2267              	.L92:
 2268 02b6 00BF     		nop
 2269              	.L68:
 2270              	.LBE32:
 453:.\DisplayBLL.c ****         {
 2271              		.loc 1 453 0 discriminator 2
 2272 02b8 97F84130 		ldrb	r3, [r7, #65]	@ zero_extendqisi2
 2273 02bc 0133     		adds	r3, r3, #1
 2274 02be 87F84130 		strb	r3, [r7, #65]
 2275              	.L67:
 453:.\DisplayBLL.c ****         {
 2276              		.loc 1 453 0 is_stmt 0 discriminator 1
 2277 02c2 97F84120 		ldrb	r2, [r7, #65]	@ zero_extendqisi2
 2278 02c6 97F84730 		ldrb	r3, [r7, #71]	@ zero_extendqisi2
 2279 02ca 9A42     		cmp	r2, r3
 2280 02cc FFF41BAF 		bcc	.L78
 496:.\DisplayBLL.c ****                 }
 497:.\DisplayBLL.c ****             }
 498:.\DisplayBLL.c ****         }
 499:.\DisplayBLL.c ****         I2CBusUnlock();
 2281              		.loc 1 499 0 is_stmt 1
 2282 02d0 FFF7FEFF 		bl	I2CBusUnlock
 2283              	.LBE28:
 2284 02d4 0EE1     		b	.L59
 2285              	.L66:
 500:.\DisplayBLL.c ****     }
 501:.\DisplayBLL.c ****     else if(pdisplay->_dispid == DISPLAY2)
 2286              		.loc 1 501 0
 2287 02d6 FB6B     		ldr	r3, [r7, #60]
 2288 02d8 1B78     		ldrb	r3, [r3]	@ zero_extendqisi2
 2289 02da 012B     		cmp	r3, #1
 2290 02dc 40F00A81 		bne	.L59
 2291              	.LBB33:
 502:.\DisplayBLL.c ****     {
 503:.\DisplayBLL.c ****         uint8 cardinals[0x04];
 504:.\DisplayBLL.c ****         
 505:.\DisplayBLL.c ****         I2CBusLock();
 2292              		.loc 1 505 0
 2293 02e0 FFF7FEFF 		bl	I2CBusLock
 506:.\DisplayBLL.c ****         ClearEepromBuffer();
 2294              		.loc 1 506 0
 2295 02e4 FFF7FEFF 		bl	ClearEepromBuffer
 507:.\DisplayBLL.c ****         LoadEepromPage(eepromcardpage);
 2296              		.loc 1 507 0
 2297 02e8 B7F84430 		ldrh	r3, [r7, #68]
 2298 02ec 1846     		mov	r0, r3
 2299 02ee FFF7FEFF 		bl	LoadEepromPage
 508:.\DisplayBLL.c ****         memcpy(cardinals, &GetEepromBuffer()[0x01], 0x04);
 2300              		.loc 1 508 0
 2301 02f2 FFF7FEFF 		bl	GetEepromBuffer
 2302 02f6 0346     		mov	r3, r0
 2303 02f8 5A1C     		adds	r2, r3, #1
 2304 02fa 07F10C03 		add	r3, r7, #12
 2305 02fe 1068     		ldr	r0, [r2]	@ unaligned
 2306 0300 1860     		str	r0, [r3]	@ unaligned
ARM GAS  C:\Users\RECEPC~1\AppData\Local\Temp\ccNQpeOs.s 			page 51


 509:.\DisplayBLL.c ****         I2CBusUnlock();
 2307              		.loc 1 509 0
 2308 0302 FFF7FEFF 		bl	I2CBusUnlock
 510:.\DisplayBLL.c ****         
 511:.\DisplayBLL.c ****         I2CBusLock();
 2309              		.loc 1 511 0
 2310 0306 FFF7FEFF 		bl	I2CBusLock
 512:.\DisplayBLL.c ****         ClearEepromBuffer();
 2311              		.loc 1 512 0
 2312 030a FFF7FEFF 		bl	ClearEepromBuffer
 513:.\DisplayBLL.c ****         LoadEepromPage(eepromprodpage);
 2313              		.loc 1 513 0
 2314 030e B7F84230 		ldrh	r3, [r7, #66]
 2315 0312 1846     		mov	r0, r3
 2316 0314 FFF7FEFF 		bl	LoadEepromPage
 514:.\DisplayBLL.c ****         FOR(uint8 index = 0, index < numhoses, index++)
 2317              		.loc 1 514 0
 2318 0318 0023     		movs	r3, #0
 2319 031a 87F84030 		strb	r3, [r7, #64]
 2320 031e E0E0     		b	.L80
 2321              	.L91:
 515:.\DisplayBLL.c ****         {
 516:.\DisplayBLL.c ****             switch(cardinals[index])
 2322              		.loc 1 516 0
 2323 0320 97F84030 		ldrb	r3, [r7, #64]	@ zero_extendqisi2
 2324 0324 07F14802 		add	r2, r7, #72
 2325 0328 1344     		add	r3, r3, r2
 2326 032a 13F83C3C 		ldrb	r3, [r3, #-60]	@ zero_extendqisi2
 2327 032e 013B     		subs	r3, r3, #1
 2328 0330 032B     		cmp	r3, #3
 2329 0332 00F2D180 		bhi	.L81
 2330 0336 01A2     		adr	r2, .L83
 2331 0338 52F823F0 		ldr	pc, [r2, r3, lsl #2]
 2332              		.p2align 2
 2333              	.L83:
 2334 033c 55030000 		.word	.L82+1
 2335 0340 B3030000 		.word	.L84+1
 2336 0344 15040000 		.word	.L85+1
 2337 0348 77040000 		.word	.L86+1
 2338              		.p2align 1
 2339              	.L95:
 2340              		.align	2
 2341              	.L94:
 2342 034c 00000000 		.word	_g_dispenserlayoutinfo
 2343 0350 00000000 		.word	_g_productscreenpos
 2344              	.L82:
 2345              	.LBB34:
 517:.\DisplayBLL.c ****             {
 518:.\DisplayBLL.c ****                 case 0x01:
 519:.\DisplayBLL.c ****                 {
 520:.\DisplayBLL.c ****                     PUARTMESSAGEPTR puartdisp = GetUARTMessageSlot(UART_DISPLAY2);
 2346              		.loc 1 520 0
 2347 0354 A420     		movs	r0, #164
 2348 0356 FFF7FEFF 		bl	GetUARTMessageSlot
 2349 035a B862     		str	r0, [r7, #40]
 521:.\DisplayBLL.c ****                     if(puartdisp)
 2350              		.loc 1 521 0
ARM GAS  C:\Users\RECEPC~1\AppData\Local\Temp\ccNQpeOs.s 			page 52


 2351 035c BB6A     		ldr	r3, [r7, #40]
 2352 035e 002B     		cmp	r3, #0
 2353 0360 26D0     		beq	.L87
 522:.\DisplayBLL.c ****                     {
 523:.\DisplayBLL.c ****                         puartdisp->_messagelength = DisplayOutputString(_g_productscreenpos[index][
 2354              		.loc 1 523 0
 2355 0362 97F84030 		ldrb	r3, [r7, #64]	@ zero_extendqisi2
 2356 0366 654A     		ldr	r2, .L96
 2357 0368 32F82360 		ldrh	r6, [r2, r3, lsl #2]
 2358 036c 97F84030 		ldrb	r3, [r7, #64]	@ zero_extendqisi2
 2359 0370 624A     		ldr	r2, .L96
 2360 0372 9B00     		lsls	r3, r3, #2
 2361 0374 1344     		add	r3, r3, r2
 2362 0376 5D88     		ldrh	r5, [r3, #2]
 2363 0378 BB6A     		ldr	r3, [r7, #40]
 2364 037a 1C1D     		adds	r4, r3, #4
 2365 037c FFF7FEFF 		bl	GetEepromBuffer
 2366 0380 8646     		mov	lr, r0
 2367 0382 1023     		movs	r3, #16
 2368 0384 0093     		str	r3, [sp]
 2369 0386 01AA     		add	r2, sp, #4
 2370 0388 07F11403 		add	r3, r7, #20
 2371 038c 93E80300 		ldmia	r3, {r0, r1}
 2372 0390 82E80300 		stmia	r2, {r0, r1}
 2373 0394 3046     		mov	r0, r6
 2374 0396 2946     		mov	r1, r5
 2375 0398 2246     		mov	r2, r4
 2376 039a 7346     		mov	r3, lr
 2377 039c FFF7FEFF 		bl	DisplayOutputString
 2378 03a0 0346     		mov	r3, r0
 2379 03a2 1A46     		mov	r2, r3
 2380 03a4 BB6A     		ldr	r3, [r7, #40]
 2381 03a6 5A80     		strh	r2, [r3, #2]	@ movhi
 524:.\DisplayBLL.c ****                         puartdisp->_messagestate = PENDING;
 2382              		.loc 1 524 0
 2383 03a8 BB6A     		ldr	r3, [r7, #40]
 2384 03aa C222     		movs	r2, #194
 2385 03ac 1A70     		strb	r2, [r3]
 525:.\DisplayBLL.c ****                     }
 526:.\DisplayBLL.c ****                     break;
 2386              		.loc 1 526 0
 2387 03ae 93E0     		b	.L81
 2388              	.L87:
 2389 03b0 92E0     		b	.L81
 2390              	.L84:
 2391              	.LBE34:
 2392              	.LBB35:
 527:.\DisplayBLL.c ****                 }
 528:.\DisplayBLL.c ****                 case 0x02:
 529:.\DisplayBLL.c ****                 {
 530:.\DisplayBLL.c ****                     PUARTMESSAGEPTR puartdisp = GetUARTMessageSlot(UART_DISPLAY2);
 2393              		.loc 1 530 0
 2394 03b2 A420     		movs	r0, #164
 2395 03b4 FFF7FEFF 		bl	GetUARTMessageSlot
 2396 03b8 7862     		str	r0, [r7, #36]
 531:.\DisplayBLL.c ****                     if(puartdisp)
 2397              		.loc 1 531 0
ARM GAS  C:\Users\RECEPC~1\AppData\Local\Temp\ccNQpeOs.s 			page 53


 2398 03ba 7B6A     		ldr	r3, [r7, #36]
 2399 03bc 002B     		cmp	r3, #0
 2400 03be 28D0     		beq	.L88
 532:.\DisplayBLL.c ****                     {
 533:.\DisplayBLL.c ****                         puartdisp->_messagelength = DisplayOutputString(_g_productscreenpos[index][
 2401              		.loc 1 533 0
 2402 03c0 97F84030 		ldrb	r3, [r7, #64]	@ zero_extendqisi2
 2403 03c4 4D4A     		ldr	r2, .L96
 2404 03c6 32F82380 		ldrh	r8, [r2, r3, lsl #2]
 2405 03ca 97F84030 		ldrb	r3, [r7, #64]	@ zero_extendqisi2
 2406 03ce 4B4A     		ldr	r2, .L96
 2407 03d0 9B00     		lsls	r3, r3, #2
 2408 03d2 1344     		add	r3, r3, r2
 2409 03d4 5E88     		ldrh	r6, [r3, #2]
 2410 03d6 7B6A     		ldr	r3, [r7, #36]
 2411 03d8 1D1D     		adds	r5, r3, #4
 2412 03da FFF7FEFF 		bl	GetEepromBuffer
 2413 03de 0346     		mov	r3, r0
 2414 03e0 03F11004 		add	r4, r3, #16
 2415 03e4 1023     		movs	r3, #16
 2416 03e6 0093     		str	r3, [sp]
 2417 03e8 01AA     		add	r2, sp, #4
 2418 03ea 07F11403 		add	r3, r7, #20
 2419 03ee 93E80300 		ldmia	r3, {r0, r1}
 2420 03f2 82E80300 		stmia	r2, {r0, r1}
 2421 03f6 4046     		mov	r0, r8
 2422 03f8 3146     		mov	r1, r6
 2423 03fa 2A46     		mov	r2, r5
 2424 03fc 2346     		mov	r3, r4
 2425 03fe FFF7FEFF 		bl	DisplayOutputString
 2426 0402 0346     		mov	r3, r0
 2427 0404 1A46     		mov	r2, r3
 2428 0406 7B6A     		ldr	r3, [r7, #36]
 2429 0408 5A80     		strh	r2, [r3, #2]	@ movhi
 534:.\DisplayBLL.c ****                         puartdisp->_messagestate = PENDING;
 2430              		.loc 1 534 0
 2431 040a 7B6A     		ldr	r3, [r7, #36]
 2432 040c C222     		movs	r2, #194
 2433 040e 1A70     		strb	r2, [r3]
 535:.\DisplayBLL.c ****                     }
 536:.\DisplayBLL.c ****                     break;
 2434              		.loc 1 536 0
 2435 0410 62E0     		b	.L81
 2436              	.L88:
 2437 0412 61E0     		b	.L81
 2438              	.L85:
 2439              	.LBE35:
 2440              	.LBB36:
 537:.\DisplayBLL.c ****                 }
 538:.\DisplayBLL.c ****                 case 0x03:
 539:.\DisplayBLL.c ****                 {
 540:.\DisplayBLL.c ****                     PUARTMESSAGEPTR puartdisp = GetUARTMessageSlot(UART_DISPLAY2);
 2441              		.loc 1 540 0
 2442 0414 A420     		movs	r0, #164
 2443 0416 FFF7FEFF 		bl	GetUARTMessageSlot
 2444 041a 3862     		str	r0, [r7, #32]
 541:.\DisplayBLL.c ****                     if(puartdisp)
ARM GAS  C:\Users\RECEPC~1\AppData\Local\Temp\ccNQpeOs.s 			page 54


 2445              		.loc 1 541 0
 2446 041c 3B6A     		ldr	r3, [r7, #32]
 2447 041e 002B     		cmp	r3, #0
 2448 0420 28D0     		beq	.L89
 542:.\DisplayBLL.c ****                     {
 543:.\DisplayBLL.c ****                         puartdisp->_messagelength = DisplayOutputString(_g_productscreenpos[index][
 2449              		.loc 1 543 0
 2450 0422 97F84030 		ldrb	r3, [r7, #64]	@ zero_extendqisi2
 2451 0426 354A     		ldr	r2, .L96
 2452 0428 32F82380 		ldrh	r8, [r2, r3, lsl #2]
 2453 042c 97F84030 		ldrb	r3, [r7, #64]	@ zero_extendqisi2
 2454 0430 324A     		ldr	r2, .L96
 2455 0432 9B00     		lsls	r3, r3, #2
 2456 0434 1344     		add	r3, r3, r2
 2457 0436 5E88     		ldrh	r6, [r3, #2]
 2458 0438 3B6A     		ldr	r3, [r7, #32]
 2459 043a 1D1D     		adds	r5, r3, #4
 2460 043c FFF7FEFF 		bl	GetEepromBuffer
 2461 0440 0346     		mov	r3, r0
 2462 0442 03F12004 		add	r4, r3, #32
 2463 0446 1023     		movs	r3, #16
 2464 0448 0093     		str	r3, [sp]
 2465 044a 01AA     		add	r2, sp, #4
 2466 044c 07F11403 		add	r3, r7, #20
 2467 0450 93E80300 		ldmia	r3, {r0, r1}
 2468 0454 82E80300 		stmia	r2, {r0, r1}
 2469 0458 4046     		mov	r0, r8
 2470 045a 3146     		mov	r1, r6
 2471 045c 2A46     		mov	r2, r5
 2472 045e 2346     		mov	r3, r4
 2473 0460 FFF7FEFF 		bl	DisplayOutputString
 2474 0464 0346     		mov	r3, r0
 2475 0466 1A46     		mov	r2, r3
 2476 0468 3B6A     		ldr	r3, [r7, #32]
 2477 046a 5A80     		strh	r2, [r3, #2]	@ movhi
 544:.\DisplayBLL.c ****                         puartdisp->_messagestate = PENDING;
 2478              		.loc 1 544 0
 2479 046c 3B6A     		ldr	r3, [r7, #32]
 2480 046e C222     		movs	r2, #194
 2481 0470 1A70     		strb	r2, [r3]
 545:.\DisplayBLL.c ****                     }
 546:.\DisplayBLL.c ****                     break;
 2482              		.loc 1 546 0
 2483 0472 31E0     		b	.L81
 2484              	.L89:
 2485 0474 30E0     		b	.L81
 2486              	.L86:
 2487              	.LBE36:
 2488              	.LBB37:
 547:.\DisplayBLL.c ****                 }
 548:.\DisplayBLL.c ****                 case 0x04:
 549:.\DisplayBLL.c ****                 {
 550:.\DisplayBLL.c ****                     PUARTMESSAGEPTR puartdisp = GetUARTMessageSlot(UART_DISPLAY2);
 2489              		.loc 1 550 0
 2490 0476 A420     		movs	r0, #164
 2491 0478 FFF7FEFF 		bl	GetUARTMessageSlot
 2492 047c F861     		str	r0, [r7, #28]
ARM GAS  C:\Users\RECEPC~1\AppData\Local\Temp\ccNQpeOs.s 			page 55


 551:.\DisplayBLL.c ****                     if(puartdisp)
 2493              		.loc 1 551 0
 2494 047e FB69     		ldr	r3, [r7, #28]
 2495 0480 002B     		cmp	r3, #0
 2496 0482 28D0     		beq	.L90
 552:.\DisplayBLL.c ****                     {
 553:.\DisplayBLL.c ****                         puartdisp->_messagelength = DisplayOutputString(_g_productscreenpos[index][
 2497              		.loc 1 553 0
 2498 0484 97F84030 		ldrb	r3, [r7, #64]	@ zero_extendqisi2
 2499 0488 1C4A     		ldr	r2, .L96
 2500 048a 32F82380 		ldrh	r8, [r2, r3, lsl #2]
 2501 048e 97F84030 		ldrb	r3, [r7, #64]	@ zero_extendqisi2
 2502 0492 1A4A     		ldr	r2, .L96
 2503 0494 9B00     		lsls	r3, r3, #2
 2504 0496 1344     		add	r3, r3, r2
 2505 0498 5E88     		ldrh	r6, [r3, #2]
 2506 049a FB69     		ldr	r3, [r7, #28]
 2507 049c 1D1D     		adds	r5, r3, #4
 2508 049e FFF7FEFF 		bl	GetEepromBuffer
 2509 04a2 0346     		mov	r3, r0
 2510 04a4 03F13004 		add	r4, r3, #48
 2511 04a8 1023     		movs	r3, #16
 2512 04aa 0093     		str	r3, [sp]
 2513 04ac 01AA     		add	r2, sp, #4
 2514 04ae 07F11403 		add	r3, r7, #20
 2515 04b2 93E80300 		ldmia	r3, {r0, r1}
 2516 04b6 82E80300 		stmia	r2, {r0, r1}
 2517 04ba 4046     		mov	r0, r8
 2518 04bc 3146     		mov	r1, r6
 2519 04be 2A46     		mov	r2, r5
 2520 04c0 2346     		mov	r3, r4
 2521 04c2 FFF7FEFF 		bl	DisplayOutputString
 2522 04c6 0346     		mov	r3, r0
 2523 04c8 1A46     		mov	r2, r3
 2524 04ca FB69     		ldr	r3, [r7, #28]
 2525 04cc 5A80     		strh	r2, [r3, #2]	@ movhi
 554:.\DisplayBLL.c ****                         puartdisp->_messagestate = PENDING;
 2526              		.loc 1 554 0
 2527 04ce FB69     		ldr	r3, [r7, #28]
 2528 04d0 C222     		movs	r2, #194
 2529 04d2 1A70     		strb	r2, [r3]
 555:.\DisplayBLL.c ****                     }
 556:.\DisplayBLL.c ****                     break;
 2530              		.loc 1 556 0
 2531 04d4 FFE7     		b	.L93
 2532              	.L90:
 2533              	.L93:
 2534 04d6 00BF     		nop
 2535              	.L81:
 2536              	.LBE37:
 514:.\DisplayBLL.c ****         {
 2537              		.loc 1 514 0 discriminator 2
 2538 04d8 97F84030 		ldrb	r3, [r7, #64]	@ zero_extendqisi2
 2539 04dc 0133     		adds	r3, r3, #1
 2540 04de 87F84030 		strb	r3, [r7, #64]
 2541              	.L80:
 514:.\DisplayBLL.c ****         {
ARM GAS  C:\Users\RECEPC~1\AppData\Local\Temp\ccNQpeOs.s 			page 56


 2542              		.loc 1 514 0 is_stmt 0 discriminator 1
 2543 04e2 97F84020 		ldrb	r2, [r7, #64]	@ zero_extendqisi2
 2544 04e6 97F84730 		ldrb	r3, [r7, #71]	@ zero_extendqisi2
 2545 04ea 9A42     		cmp	r2, r3
 2546 04ec FFF418AF 		bcc	.L91
 557:.\DisplayBLL.c ****                 }
 558:.\DisplayBLL.c ****             }
 559:.\DisplayBLL.c ****         }
 560:.\DisplayBLL.c ****         I2CBusUnlock();
 2547              		.loc 1 560 0 is_stmt 1 discriminator 2
 2548 04f0 FFF7FEFF 		bl	I2CBusUnlock
 2549              	.L59:
 2550              	.LBE33:
 561:.\DisplayBLL.c ****     }
 562:.\DisplayBLL.c **** }
 2551              		.loc 1 562 0
 2552 04f4 4837     		adds	r7, r7, #72
 2553              		.cfi_def_cfa_offset 24
 2554 04f6 BD46     		mov	sp, r7
 2555              		.cfi_def_cfa_register 13
 2556              		@ sp needed
 2557 04f8 BDE8F081 		pop	{r4, r5, r6, r7, r8, pc}
 2558              	.L97:
 2559              		.align	2
 2560              	.L96:
 2561 04fc 00000000 		.word	_g_productscreenpos
 2562              		.cfi_endproc
 2563              	.LFE71:
 2564              		.size	ProductNameSelectionDecorator, .-ProductNameSelectionDecorator
 2565              		.section	.rodata
 2566 0127 00       		.align	2
 2567              	.LC17:
 2568 0128 20205045 		.ascii	"  PETICION DE AUTORIZACION RECHAZADA! \000"
 2568      54494349 
 2568      4F4E2044 
 2568      45204155 
 2568      544F5249 
 2569              		.section	.text.RejectedAuthorizationMessageDecorator,"ax",%progbits
 2570              		.align	2
 2571              		.global	RejectedAuthorizationMessageDecorator
 2572              		.thumb
 2573              		.thumb_func
 2574              		.type	RejectedAuthorizationMessageDecorator, %function
 2575              	RejectedAuthorizationMessageDecorator:
 2576              	.LFB72:
 563:.\DisplayBLL.c **** 
 564:.\DisplayBLL.c **** void RejectedAuthorizationMessageDecorator(LPVOID pparam)
 565:.\DisplayBLL.c **** {
 2577              		.loc 1 565 0
 2578              		.cfi_startproc
 2579              		@ args = 0, pretend = 0, frame = 40
 2580              		@ frame_needed = 1, uses_anonymous_args = 0
 2581 0000 F0B5     		push	{r4, r5, r6, r7, lr}
 2582              		.cfi_def_cfa_offset 20
 2583              		.cfi_offset 4, -20
 2584              		.cfi_offset 5, -16
 2585              		.cfi_offset 6, -12
ARM GAS  C:\Users\RECEPC~1\AppData\Local\Temp\ccNQpeOs.s 			page 57


 2586              		.cfi_offset 7, -8
 2587              		.cfi_offset 14, -4
 2588 0002 8FB0     		sub	sp, sp, #60
 2589              		.cfi_def_cfa_offset 80
 2590 0004 04AF     		add	r7, sp, #16
 2591              		.cfi_def_cfa 7, 64
 2592 0006 7860     		str	r0, [r7, #4]
 566:.\DisplayBLL.c ****     FontData fontdata;
 567:.\DisplayBLL.c ****     fontdata._size = 0x03;
 2593              		.loc 1 567 0
 2594 0008 0323     		movs	r3, #3
 2595 000a 3B73     		strb	r3, [r7, #12]
 568:.\DisplayBLL.c ****     fontdata._backcolor = 0xFFFF;
 2596              		.loc 1 568 0
 2597 000c 4FF6FF73 		movw	r3, #65535
 2598 0010 3B82     		strh	r3, [r7, #16]	@ movhi
 569:.\DisplayBLL.c ****     fontdata._forecolor = 0x0000;
 2599              		.loc 1 569 0
 2600 0012 0023     		movs	r3, #0
 2601 0014 7B82     		strh	r3, [r7, #18]	@ movhi
 570:.\DisplayBLL.c ****     fontdata._opaquebackground = DISP_TEXT_OPAQUE;
 2602              		.loc 1 570 0
 2603 0016 C523     		movs	r3, #197
 2604 0018 BB73     		strb	r3, [r7, #14]
 571:.\DisplayBLL.c ****     //MOVE ALL OF THESE TEXTS TO THE EEPROM
 572:.\DisplayBLL.c ****     char8 *pmessage[] = 
 2605              		.loc 1 572 0
 2606 001a 4F4B     		ldr	r3, .L102
 2607 001c BB60     		str	r3, [r7, #8]
 573:.\DisplayBLL.c ****     {
 574:.\DisplayBLL.c ****         "  PETICION DE AUTORIZACION RECHAZADA! ",
 575:.\DisplayBLL.c ****     };
 576:.\DisplayBLL.c ****     DisplayLayout *pdisplay = (DisplayLayout*)pparam;
 2608              		.loc 1 576 0
 2609 001e 7B68     		ldr	r3, [r7, #4]
 2610 0020 7B62     		str	r3, [r7, #36]
 577:.\DisplayBLL.c ****     if(pdisplay->_dispid == DISPLAY1)
 2611              		.loc 1 577 0
 2612 0022 7B6A     		ldr	r3, [r7, #36]
 2613 0024 1B78     		ldrb	r3, [r3]	@ zero_extendqisi2
 2614 0026 002B     		cmp	r3, #0
 2615 0028 4AD1     		bne	.L99
 2616              	.LBB38:
 578:.\DisplayBLL.c ****     {
 579:.\DisplayBLL.c ****         UARTMessage *puartdisp = GetUARTMessageSlot(UART_DISPLAY1);
 2617              		.loc 1 579 0
 2618 002a A320     		movs	r0, #163
 2619 002c FFF7FEFF 		bl	GetUARTMessageSlot
 2620 0030 3862     		str	r0, [r7, #32]
 580:.\DisplayBLL.c ****         if(puartdisp)
 2621              		.loc 1 580 0
 2622 0032 3B6A     		ldr	r3, [r7, #32]
 2623 0034 002B     		cmp	r3, #0
 2624 0036 42D0     		beq	.L100
 2625              	.LBB39:
 581:.\DisplayBLL.c ****         {
 582:.\DisplayBLL.c ****             uint8 index = 0;
ARM GAS  C:\Users\RECEPC~1\AppData\Local\Temp\ccNQpeOs.s 			page 58


 2626              		.loc 1 582 0
 2627 0038 0023     		movs	r3, #0
 2628 003a FB77     		strb	r3, [r7, #31]
 583:.\DisplayBLL.c ****             uint16 ypos = 0x00BA;
 2629              		.loc 1 583 0
 2630 003c BA23     		movs	r3, #186
 2631 003e BB83     		strh	r3, [r7, #28]	@ movhi
 584:.\DisplayBLL.c ****             puartdisp->_messagelength = 0;
 2632              		.loc 1 584 0
 2633 0040 3B6A     		ldr	r3, [r7, #32]
 2634 0042 0022     		movs	r2, #0
 2635 0044 5A80     		strh	r2, [r3, #2]	@ movhi
 585:.\DisplayBLL.c ****             puartdisp->_messagelength += DisplayOutputString(0x001A, ypos, &puartdisp->_messagetx[p
 2636              		.loc 1 585 0
 2637 0046 3B6A     		ldr	r3, [r7, #32]
 2638 0048 5B88     		ldrh	r3, [r3, #2]	@ movhi
 2639 004a 9BB2     		uxth	r3, r3
 2640 004c 1A46     		mov	r2, r3
 2641 004e 3B6A     		ldr	r3, [r7, #32]
 2642 0050 1344     		add	r3, r3, r2
 2643 0052 1D1D     		adds	r5, r3, #4
 2644 0054 FB7F     		ldrb	r3, [r7, #31]	@ zero_extendqisi2
 2645 0056 9B00     		lsls	r3, r3, #2
 2646 0058 07F12802 		add	r2, r7, #40
 2647 005c 1344     		add	r3, r3, r2
 2648 005e 53F8204C 		ldr	r4, [r3, #-32]
 2649 0062 FB7F     		ldrb	r3, [r7, #31]	@ zero_extendqisi2
 2650 0064 9B00     		lsls	r3, r3, #2
 2651 0066 07F12802 		add	r2, r7, #40
 2652 006a 1344     		add	r3, r3, r2
 2653 006c 53F8203C 		ldr	r3, [r3, #-32]
 2654 0070 1846     		mov	r0, r3
 2655 0072 FFF7FEFF 		bl	strlen
 2656 0076 0346     		mov	r3, r0
 2657 0078 9BB2     		uxth	r3, r3
 2658 007a BE8B     		ldrh	r6, [r7, #28]
 2659 007c 0093     		str	r3, [sp]
 2660 007e 01AA     		add	r2, sp, #4
 2661 0080 07F10C03 		add	r3, r7, #12
 2662 0084 93E80300 		ldmia	r3, {r0, r1}
 2663 0088 82E80300 		stmia	r2, {r0, r1}
 2664 008c 1A20     		movs	r0, #26
 2665 008e 3146     		mov	r1, r6
 2666 0090 2A46     		mov	r2, r5
 2667 0092 2346     		mov	r3, r4
 2668 0094 FFF7FEFF 		bl	DisplayOutputString
 2669 0098 0346     		mov	r3, r0
 2670 009a 1A46     		mov	r2, r3
 2671 009c 3B6A     		ldr	r3, [r7, #32]
 2672 009e 5B88     		ldrh	r3, [r3, #2]	@ movhi
 2673 00a0 9BB2     		uxth	r3, r3
 2674 00a2 1344     		add	r3, r3, r2
 2675 00a4 9AB2     		uxth	r2, r3
 2676 00a6 3B6A     		ldr	r3, [r7, #32]
 2677 00a8 5A80     		strh	r2, [r3, #2]	@ movhi
 586:.\DisplayBLL.c ****             ypos += 0x0020;index++;
 2678              		.loc 1 586 0
ARM GAS  C:\Users\RECEPC~1\AppData\Local\Temp\ccNQpeOs.s 			page 59


 2679 00aa BB8B     		ldrh	r3, [r7, #28]	@ movhi
 2680 00ac 2033     		adds	r3, r3, #32
 2681 00ae BB83     		strh	r3, [r7, #28]	@ movhi
 2682 00b0 FB7F     		ldrb	r3, [r7, #31]	@ zero_extendqisi2
 2683 00b2 0133     		adds	r3, r3, #1
 2684 00b4 FB77     		strb	r3, [r7, #31]
 587:.\DisplayBLL.c **** 
 588:.\DisplayBLL.c ****             puartdisp->_messagestate = PENDING;
 2685              		.loc 1 588 0
 2686 00b6 3B6A     		ldr	r3, [r7, #32]
 2687 00b8 C222     		movs	r2, #194
 2688 00ba 1A70     		strb	r2, [r3]
 2689              	.LBE39:
 2690              	.LBE38:
 2691 00bc 49E0     		b	.L98
 2692              	.L100:
 2693 00be 48E0     		b	.L98
 2694              	.L99:
 2695              	.LBB40:
 589:.\DisplayBLL.c ****         }
 590:.\DisplayBLL.c ****     }
 591:.\DisplayBLL.c ****     else
 592:.\DisplayBLL.c ****     {
 593:.\DisplayBLL.c ****         UARTMessage *puartdisp = GetUARTMessageSlot(UART_DISPLAY2);
 2696              		.loc 1 593 0
 2697 00c0 A420     		movs	r0, #164
 2698 00c2 FFF7FEFF 		bl	GetUARTMessageSlot
 2699 00c6 B861     		str	r0, [r7, #24]
 594:.\DisplayBLL.c ****         if(puartdisp)
 2700              		.loc 1 594 0
 2701 00c8 BB69     		ldr	r3, [r7, #24]
 2702 00ca 002B     		cmp	r3, #0
 2703 00cc 41D0     		beq	.L98
 2704              	.LBB41:
 595:.\DisplayBLL.c ****         {
 596:.\DisplayBLL.c ****             uint8 index = 0;
 2705              		.loc 1 596 0
 2706 00ce 0023     		movs	r3, #0
 2707 00d0 FB75     		strb	r3, [r7, #23]
 597:.\DisplayBLL.c ****             uint16 ypos = 0x00BA;
 2708              		.loc 1 597 0
 2709 00d2 BA23     		movs	r3, #186
 2710 00d4 BB82     		strh	r3, [r7, #20]	@ movhi
 598:.\DisplayBLL.c ****             puartdisp->_messagelength = 0;
 2711              		.loc 1 598 0
 2712 00d6 BB69     		ldr	r3, [r7, #24]
 2713 00d8 0022     		movs	r2, #0
 2714 00da 5A80     		strh	r2, [r3, #2]	@ movhi
 599:.\DisplayBLL.c ****             puartdisp->_messagelength += DisplayOutputString(0x001A, ypos, &puartdisp->_messagetx[p
 2715              		.loc 1 599 0
 2716 00dc BB69     		ldr	r3, [r7, #24]
 2717 00de 5B88     		ldrh	r3, [r3, #2]	@ movhi
 2718 00e0 9BB2     		uxth	r3, r3
 2719 00e2 1A46     		mov	r2, r3
 2720 00e4 BB69     		ldr	r3, [r7, #24]
 2721 00e6 1344     		add	r3, r3, r2
 2722 00e8 1D1D     		adds	r5, r3, #4
ARM GAS  C:\Users\RECEPC~1\AppData\Local\Temp\ccNQpeOs.s 			page 60


 2723 00ea FB7D     		ldrb	r3, [r7, #23]	@ zero_extendqisi2
 2724 00ec 9B00     		lsls	r3, r3, #2
 2725 00ee 07F12802 		add	r2, r7, #40
 2726 00f2 1344     		add	r3, r3, r2
 2727 00f4 53F8204C 		ldr	r4, [r3, #-32]
 2728 00f8 FB7D     		ldrb	r3, [r7, #23]	@ zero_extendqisi2
 2729 00fa 9B00     		lsls	r3, r3, #2
 2730 00fc 07F12802 		add	r2, r7, #40
 2731 0100 1344     		add	r3, r3, r2
 2732 0102 53F8203C 		ldr	r3, [r3, #-32]
 2733 0106 1846     		mov	r0, r3
 2734 0108 FFF7FEFF 		bl	strlen
 2735 010c 0346     		mov	r3, r0
 2736 010e 9BB2     		uxth	r3, r3
 2737 0110 BE8A     		ldrh	r6, [r7, #20]
 2738 0112 0093     		str	r3, [sp]
 2739 0114 01AA     		add	r2, sp, #4
 2740 0116 07F10C03 		add	r3, r7, #12
 2741 011a 93E80300 		ldmia	r3, {r0, r1}
 2742 011e 82E80300 		stmia	r2, {r0, r1}
 2743 0122 1A20     		movs	r0, #26
 2744 0124 3146     		mov	r1, r6
 2745 0126 2A46     		mov	r2, r5
 2746 0128 2346     		mov	r3, r4
 2747 012a FFF7FEFF 		bl	DisplayOutputString
 2748 012e 0346     		mov	r3, r0
 2749 0130 1A46     		mov	r2, r3
 2750 0132 BB69     		ldr	r3, [r7, #24]
 2751 0134 5B88     		ldrh	r3, [r3, #2]	@ movhi
 2752 0136 9BB2     		uxth	r3, r3
 2753 0138 1344     		add	r3, r3, r2
 2754 013a 9AB2     		uxth	r2, r3
 2755 013c BB69     		ldr	r3, [r7, #24]
 2756 013e 5A80     		strh	r2, [r3, #2]	@ movhi
 600:.\DisplayBLL.c ****             ypos += 0x0020;index++;
 2757              		.loc 1 600 0
 2758 0140 BB8A     		ldrh	r3, [r7, #20]	@ movhi
 2759 0142 2033     		adds	r3, r3, #32
 2760 0144 BB82     		strh	r3, [r7, #20]	@ movhi
 2761 0146 FB7D     		ldrb	r3, [r7, #23]	@ zero_extendqisi2
 2762 0148 0133     		adds	r3, r3, #1
 2763 014a FB75     		strb	r3, [r7, #23]
 601:.\DisplayBLL.c ****             
 602:.\DisplayBLL.c ****             puartdisp->_messagestate = PENDING;
 2764              		.loc 1 602 0
 2765 014c BB69     		ldr	r3, [r7, #24]
 2766 014e C222     		movs	r2, #194
 2767 0150 1A70     		strb	r2, [r3]
 2768              	.L98:
 2769              	.LBE41:
 2770              	.LBE40:
 603:.\DisplayBLL.c ****         }
 604:.\DisplayBLL.c ****     }
 605:.\DisplayBLL.c **** }
 2771              		.loc 1 605 0
 2772 0152 2C37     		adds	r7, r7, #44
 2773              		.cfi_def_cfa_offset 20
ARM GAS  C:\Users\RECEPC~1\AppData\Local\Temp\ccNQpeOs.s 			page 61


 2774 0154 BD46     		mov	sp, r7
 2775              		.cfi_def_cfa_register 13
 2776              		@ sp needed
 2777 0156 F0BD     		pop	{r4, r5, r6, r7, pc}
 2778              	.L103:
 2779              		.align	2
 2780              	.L102:
 2781 0158 28010000 		.word	.LC17
 2782              		.cfi_endproc
 2783              	.LFE72:
 2784              		.size	RejectedAuthorizationMessageDecorator, .-RejectedAuthorizationMessageDecorator
 2785              		.section	.text.ValidateAuthorizationResponse4Credit,"ax",%progbits
 2786              		.align	2
 2787              		.global	ValidateAuthorizationResponse4Credit
 2788              		.thumb
 2789              		.thumb_func
 2790              		.type	ValidateAuthorizationResponse4Credit, %function
 2791              	ValidateAuthorizationResponse4Credit:
 2792              	.LFB73:
 606:.\DisplayBLL.c **** 
 607:.\DisplayBLL.c **** void ValidateAuthorizationResponse4Credit(LPVOID pparam)
 608:.\DisplayBLL.c **** {
 2793              		.loc 1 608 0
 2794              		.cfi_startproc
 2795              		@ args = 0, pretend = 0, frame = 16
 2796              		@ frame_needed = 1, uses_anonymous_args = 0
 2797 0000 90B5     		push	{r4, r7, lr}
 2798              		.cfi_def_cfa_offset 12
 2799              		.cfi_offset 4, -12
 2800              		.cfi_offset 7, -8
 2801              		.cfi_offset 14, -4
 2802 0002 85B0     		sub	sp, sp, #20
 2803              		.cfi_def_cfa_offset 32
 2804 0004 00AF     		add	r7, sp, #0
 2805              		.cfi_def_cfa_register 7
 2806 0006 7860     		str	r0, [r7, #4]
 609:.\DisplayBLL.c ****     PDISPLAYLAYOUTPTR pdisplay = (PDISPLAYLAYOUTPTR)pparam;
 2807              		.loc 1 609 0
 2808 0008 7B68     		ldr	r3, [r7, #4]
 2809 000a FB60     		str	r3, [r7, #12]
 610:.\DisplayBLL.c ****     PNEAR_PUMPPTR ppumpptr = &_g_pumps[GetPumpIndexFromDisplay(pdisplay)];
 2810              		.loc 1 610 0
 2811 000c F868     		ldr	r0, [r7, #12]
 2812 000e FFF7FEFF 		bl	GetPumpIndexFromDisplay
 2813 0012 0346     		mov	r3, r0
 2814 0014 1A46     		mov	r2, r3
 2815 0016 40F6C833 		movw	r3, #3016
 2816 001a 03FB02F3 		mul	r3, r3, r2
 2817 001e 1C4A     		ldr	r2, .L107
 2818 0020 1344     		add	r3, r3, r2
 2819 0022 BB60     		str	r3, [r7, #8]
 611:.\DisplayBLL.c ****     if(ppumpptr->_authorizationinfo._authorized)
 2820              		.loc 1 611 0
 2821 0024 BB68     		ldr	r3, [r7, #8]
 2822 0026 93F8A83B 		ldrb	r3, [r3, #2984]
 2823 002a DBB2     		uxtb	r3, r3
 2824 002c 002B     		cmp	r3, #0
ARM GAS  C:\Users\RECEPC~1\AppData\Local\Temp\ccNQpeOs.s 			page 62


 2825 002e 28D0     		beq	.L105
 612:.\DisplayBLL.c ****     {
 613:.\DisplayBLL.c ****         //THE AUTHORIZATION INFORMATION IS READY IN THE "PUMPAUTHORIZATIONINFO" STRUCTURE
 614:.\DisplayBLL.c ****         //SO HERE WE ONLY NEED TO CONTINUE THE "DISPLAY FLOW" TO ITS END AND THEN POST THE
 615:.\DisplayBLL.c ****         //INFORMATION TO THE "PRIME FLOW".        
 616:.\DisplayBLL.c ****         ppumpptr->_authorizationinfo._authorized = false;
 2826              		.loc 1 616 0
 2827 0030 BB68     		ldr	r3, [r7, #8]
 2828 0032 0022     		movs	r2, #0
 2829 0034 83F8A82B 		strb	r2, [r3, #2984]
 617:.\DisplayBLL.c ****         //Select printing the default number of copies        
 618:.\DisplayBLL.c ****         memset(&((PSINKMESSAGEPTR)pdisplay->_psequesteredmessagesink)->_buffer[GetBufferIndexFromDi
 2830              		.loc 1 618 0
 2831 0038 FB68     		ldr	r3, [r7, #12]
 2832 003a 1C6B     		ldr	r4, [r3, #48]
 2833 003c 0B20     		movs	r0, #11
 2834 003e FFF7FEFF 		bl	GetBufferIndexFromDisplayID
 2835 0042 0346     		mov	r3, r0
 2836 0044 0833     		adds	r3, r3, #8
 2837 0046 2344     		add	r3, r3, r4
 2838 0048 1C1D     		adds	r4, r3, #4
 2839 004a 0B20     		movs	r0, #11
 2840 004c FFF7FEFF 		bl	GetBufferLengthFromDisplayID
 2841 0050 0346     		mov	r3, r0
 2842 0052 2046     		mov	r0, r4
 2843 0054 0021     		movs	r1, #0
 2844 0056 1A46     		mov	r2, r3
 2845 0058 FFF7FEFF 		bl	memset
 619:.\DisplayBLL.c ****         ((PSINKMESSAGEPTR)pdisplay->_psequesteredmessagesink)->_buffer[GetBufferIndexFromDisplayID(
 2846              		.loc 1 619 0
 2847 005c FB68     		ldr	r3, [r7, #12]
 2848 005e 1C6B     		ldr	r4, [r3, #48]
 2849 0060 0B20     		movs	r0, #11
 2850 0062 FFF7FEFF 		bl	GetBufferIndexFromDisplayID
 2851 0066 0346     		mov	r3, r0
 2852 0068 2344     		add	r3, r3, r4
 2853 006a 3922     		movs	r2, #57
 2854 006c 1A73     		strb	r2, [r3, #12]
 620:.\DisplayBLL.c ****         ((PSINKMESSAGEPTR)pdisplay->_psequesteredmessagesink)->_buffer[GetBufferIndexFromDisplayID(
 2855              		.loc 1 620 0
 2856 006e FB68     		ldr	r3, [r7, #12]
 2857 0070 1C6B     		ldr	r4, [r3, #48]
 2858 0072 0520     		movs	r0, #5
 2859 0074 FFF7FEFF 		bl	GetBufferIndexFromDisplayID
 2860 0078 0346     		mov	r3, r0
 2861 007a 2344     		add	r3, r3, r4
 2862 007c 4422     		movs	r2, #68
 2863 007e 1A73     		strb	r2, [r3, #12]
 2864 0080 02E0     		b	.L104
 2865              	.L105:
 621:.\DisplayBLL.c ****         
 622:.\DisplayBLL.c ****     }else//If no authorization has been acquired, then return to IDLE state
 623:.\DisplayBLL.c ****         ppumpptr->_pumprftransstate = RF_IDLE;
 2866              		.loc 1 623 0
 2867 0082 BB68     		ldr	r3, [r7, #8]
 2868 0084 0822     		movs	r2, #8
 2869 0086 1A73     		strb	r2, [r3, #12]
ARM GAS  C:\Users\RECEPC~1\AppData\Local\Temp\ccNQpeOs.s 			page 63


 2870              	.L104:
 624:.\DisplayBLL.c **** }
 2871              		.loc 1 624 0
 2872 0088 1437     		adds	r7, r7, #20
 2873              		.cfi_def_cfa_offset 12
 2874 008a BD46     		mov	sp, r7
 2875              		.cfi_def_cfa_register 13
 2876              		@ sp needed
 2877 008c 90BD     		pop	{r4, r7, pc}
 2878              	.L108:
 2879 008e 00BF     		.align	2
 2880              	.L107:
 2881 0090 00000000 		.word	_g_pumps
 2882              		.cfi_endproc
 2883              	.LFE73:
 2884              		.size	ValidateAuthorizationResponse4Credit, .-ValidateAuthorizationResponse4Credit
 2885              		.section	.text.SendAuthorizationRequest4Credit,"ax",%progbits
 2886              		.align	2
 2887              		.global	SendAuthorizationRequest4Credit
 2888              		.thumb
 2889              		.thumb_func
 2890              		.type	SendAuthorizationRequest4Credit, %function
 2891              	SendAuthorizationRequest4Credit:
 2892              	.LFB74:
 625:.\DisplayBLL.c **** 
 626:.\DisplayBLL.c **** void SendAuthorizationRequest4Credit(LPVOID pparam)
 627:.\DisplayBLL.c **** {
 2893              		.loc 1 627 0
 2894              		.cfi_startproc
 2895              		@ args = 0, pretend = 0, frame = 32
 2896              		@ frame_needed = 1, uses_anonymous_args = 0
 2897 0000 B0B5     		push	{r4, r5, r7, lr}
 2898              		.cfi_def_cfa_offset 16
 2899              		.cfi_offset 4, -16
 2900              		.cfi_offset 5, -12
 2901              		.cfi_offset 7, -8
 2902              		.cfi_offset 14, -4
 2903 0002 88B0     		sub	sp, sp, #32
 2904              		.cfi_def_cfa_offset 48
 2905 0004 00AF     		add	r7, sp, #0
 2906              		.cfi_def_cfa_register 7
 2907 0006 7860     		str	r0, [r7, #4]
 628:.\DisplayBLL.c ****     PDISPLAYLAYOUTPTR pdisplay = (PDISPLAYLAYOUTPTR)pparam;
 2908              		.loc 1 628 0
 2909 0008 7B68     		ldr	r3, [r7, #4]
 2910 000a BB61     		str	r3, [r7, #24]
 629:.\DisplayBLL.c ****     //HERE WE ATTEMPT TO PUSH THE TRANSACTION INTO THE PUMP'S TRANSACTIONAL QUEUE.
 630:.\DisplayBLL.c ****     //THIS IS DONE ONLY IF THERE IS ROOM IN THE QUEUE, OTHERWISE THIS STATE WON'T
 631:.\DisplayBLL.c ****     //BE REPORTED TO THE REMOTE PEER.
 632:.\DisplayBLL.c ****     PNEAR_PUMPPTR ppumpptr = &_g_pumps[GetPumpIndexFromDisplay(pdisplay)];
 2911              		.loc 1 632 0
 2912 000c B869     		ldr	r0, [r7, #24]
 2913 000e FFF7FEFF 		bl	GetPumpIndexFromDisplay
 2914 0012 0346     		mov	r3, r0
 2915 0014 1A46     		mov	r2, r3
 2916 0016 40F6C833 		movw	r3, #3016
 2917 001a 03FB02F3 		mul	r3, r3, r2
ARM GAS  C:\Users\RECEPC~1\AppData\Local\Temp\ccNQpeOs.s 			page 64


 2918 001e 844A     		ldr	r2, .L116
 2919 0020 1344     		add	r3, r3, r2
 2920 0022 7B61     		str	r3, [r7, #20]
 633:.\DisplayBLL.c ****     
 634:.\DisplayBLL.c ****     #ifndef _ALLOW_CREDIT_SALE_TESTING_
 635:.\DisplayBLL.c ****     ppumpptr->PumpTransQueueLock(ppumpptr);
 2921              		.loc 1 635 0
 2922 0024 7B69     		ldr	r3, [r7, #20]
 2923 0026 D3F8443B 		ldr	r3, [r3, #2884]
 2924 002a 7869     		ldr	r0, [r7, #20]
 2925 002c 9847     		blx	r3
 636:.\DisplayBLL.c ****     PNEAR_PUMPTRANSACTIONALSTATEPTR pts = ppumpptr->PumpTransQueueAllocate(ppumpptr);
 2926              		.loc 1 636 0
 2927 002e 7B69     		ldr	r3, [r7, #20]
 2928 0030 D3F8583B 		ldr	r3, [r3, #2904]
 2929 0034 7869     		ldr	r0, [r7, #20]
 2930 0036 9847     		blx	r3
 2931 0038 3861     		str	r0, [r7, #16]
 637:.\DisplayBLL.c ****     ppumpptr->PumpTransQueueUnlock(ppumpptr);
 2932              		.loc 1 637 0
 2933 003a 7B69     		ldr	r3, [r7, #20]
 2934 003c D3F8483B 		ldr	r3, [r3, #2888]
 2935 0040 7869     		ldr	r0, [r7, #20]
 2936 0042 9847     		blx	r3
 638:.\DisplayBLL.c ****     if(pts)
 2937              		.loc 1 638 0
 2938 0044 3B69     		ldr	r3, [r7, #16]
 2939 0046 002B     		cmp	r3, #0
 2940 0048 00F0EE80 		beq	.L109
 2941              	.LBB42:
 639:.\DisplayBLL.c ****     {
 640:.\DisplayBLL.c ****         
 641:.\DisplayBLL.c ****         uint8 index = 0;
 2942              		.loc 1 641 0
 2943 004c 0023     		movs	r3, #0
 2944 004e FB77     		strb	r3, [r7, #31]
 642:.\DisplayBLL.c ****         pts->_transtate = RF_MUX_CREDIT_SERIAL_AUTH_RESPONSE;
 2945              		.loc 1 642 0
 2946 0050 3B69     		ldr	r3, [r7, #16]
 2947 0052 A222     		movs	r2, #162
 2948 0054 5A70     		strb	r2, [r3, #1]
 643:.\DisplayBLL.c ****         //Pump ID always comes in the first position (0x00)
 644:.\DisplayBLL.c ****         pts->_buffer[index++] = ppumpptr->_pumpid;
 2949              		.loc 1 644 0
 2950 0056 FB7F     		ldrb	r3, [r7, #31]	@ zero_extendqisi2
 2951 0058 5A1C     		adds	r2, r3, #1
 2952 005a FA77     		strb	r2, [r7, #31]
 2953 005c 1946     		mov	r1, r3
 2954 005e 7B69     		ldr	r3, [r7, #20]
 2955 0060 1A78     		ldrb	r2, [r3]	@ zero_extendqisi2
 2956 0062 3B69     		ldr	r3, [r7, #16]
 2957 0064 0B44     		add	r3, r3, r1
 2958 0066 9A70     		strb	r2, [r3, #2]
 645:.\DisplayBLL.c ****         //This is the Hose ID
 646:.\DisplayBLL.c ****         pts->_buffer[index++] = ((PSINKMESSAGEPTR)pdisplay->_psequesteredmessagesink)->_buffer[GetB
 2959              		.loc 1 646 0
 2960 0068 FB7F     		ldrb	r3, [r7, #31]	@ zero_extendqisi2
ARM GAS  C:\Users\RECEPC~1\AppData\Local\Temp\ccNQpeOs.s 			page 65


 2961 006a 5A1C     		adds	r2, r3, #1
 2962 006c FA77     		strb	r2, [r7, #31]
 2963 006e 1D46     		mov	r5, r3
 2964 0070 BB69     		ldr	r3, [r7, #24]
 2965 0072 1C6B     		ldr	r4, [r3, #48]
 2966 0074 0720     		movs	r0, #7
 2967 0076 FFF7FEFF 		bl	GetBufferIndexFromDisplayID
 2968 007a 0346     		mov	r3, r0
 2969 007c 2344     		add	r3, r3, r4
 2970 007e 1A7B     		ldrb	r2, [r3, #12]	@ zero_extendqisi2
 2971 0080 3B69     		ldr	r3, [r7, #16]
 2972 0082 2B44     		add	r3, r3, r5
 2973 0084 9A70     		strb	r2, [r3, #2]
 647:.\DisplayBLL.c ****         //This is the Serial (iButton) data
 648:.\DisplayBLL.c ****         memcpy(&pts->_buffer[index], &((PSINKMESSAGEPTR)pdisplay->_psequesteredmessagesink)->_buffe
 2974              		.loc 1 648 0
 2975 0086 FB7F     		ldrb	r3, [r7, #31]	@ zero_extendqisi2
 2976 0088 3A69     		ldr	r2, [r7, #16]
 2977 008a 1344     		add	r3, r3, r2
 2978 008c 9D1C     		adds	r5, r3, #2
 2979 008e BB69     		ldr	r3, [r7, #24]
 2980 0090 1C6B     		ldr	r4, [r3, #48]
 2981 0092 1220     		movs	r0, #18
 2982 0094 FFF7FEFF 		bl	GetBufferIndexFromDisplayID
 2983 0098 0346     		mov	r3, r0
 2984 009a 0833     		adds	r3, r3, #8
 2985 009c 2344     		add	r3, r3, r4
 2986 009e 1C1D     		adds	r4, r3, #4
 2987 00a0 1220     		movs	r0, #18
 2988 00a2 FFF7FEFF 		bl	GetBufferLengthFromDisplayID
 2989 00a6 0346     		mov	r3, r0
 2990 00a8 2846     		mov	r0, r5
 2991 00aa 2146     		mov	r1, r4
 2992 00ac 1A46     		mov	r2, r3
 2993 00ae FFF7FEFF 		bl	memcpy
 649:.\DisplayBLL.c ****         PSTRBUFFTOGG((PNEAR_BYTE_PTR)&pts->_buffer[index], GetBufferLengthFromDisplayID(DISPLAY_ESP
 2994              		.loc 1 649 0
 2995 00b2 FB7F     		ldrb	r3, [r7, #31]	@ zero_extendqisi2
 2996 00b4 3A69     		ldr	r2, [r7, #16]
 2997 00b6 1344     		add	r3, r3, r2
 2998 00b8 9C1C     		adds	r4, r3, #2
 2999 00ba 1220     		movs	r0, #18
 3000 00bc FFF7FEFF 		bl	GetBufferLengthFromDisplayID
 3001 00c0 0346     		mov	r3, r0
 3002 00c2 2046     		mov	r0, r4
 3003 00c4 1946     		mov	r1, r3
 3004 00c6 FFF7FEFF 		bl	PSTRBUFFTOGG
 650:.\DisplayBLL.c ****         index += GetBufferLengthFromDisplayID(DISPLAY_ESPERANDO_ID);
 3005              		.loc 1 650 0
 3006 00ca 1220     		movs	r0, #18
 3007 00cc FFF7FEFF 		bl	GetBufferLengthFromDisplayID
 3008 00d0 0346     		mov	r3, r0
 3009 00d2 1A46     		mov	r2, r3
 3010 00d4 FB7F     		ldrb	r3, [r7, #31]
 3011 00d6 1344     		add	r3, r3, r2
 3012 00d8 FB77     		strb	r3, [r7, #31]
 651:.\DisplayBLL.c ****         //This is the milleage
ARM GAS  C:\Users\RECEPC~1\AppData\Local\Temp\ccNQpeOs.s 			page 66


 652:.\DisplayBLL.c ****         //PSTRBUFFTOGG((PNEAR_BYTE_PTR)&((PSINKMESSAGEPTR)pdisplay->_psequesteredmessagesink)->_buf
 653:.\DisplayBLL.c ****         index += 0x01;//Since the allocated buffer space for the milleage is 10 bytes length
 3013              		.loc 1 653 0
 3014 00da FB7F     		ldrb	r3, [r7, #31]
 3015 00dc 0133     		adds	r3, r3, #1
 3016 00de FB77     		strb	r3, [r7, #31]
 654:.\DisplayBLL.c ****         memcpy(&pts->_buffer[index], &((PSINKMESSAGEPTR)pdisplay->_psequesteredmessagesink)->_buffe
 3017              		.loc 1 654 0
 3018 00e0 FB7F     		ldrb	r3, [r7, #31]	@ zero_extendqisi2
 3019 00e2 3A69     		ldr	r2, [r7, #16]
 3020 00e4 1344     		add	r3, r3, r2
 3021 00e6 9D1C     		adds	r5, r3, #2
 3022 00e8 BB69     		ldr	r3, [r7, #24]
 3023 00ea 1C6B     		ldr	r4, [r3, #48]
 3024 00ec 0E20     		movs	r0, #14
 3025 00ee FFF7FEFF 		bl	GetBufferIndexFromDisplayID
 3026 00f2 0346     		mov	r3, r0
 3027 00f4 0833     		adds	r3, r3, #8
 3028 00f6 2344     		add	r3, r3, r4
 3029 00f8 1C1D     		adds	r4, r3, #4
 3030 00fa 0E20     		movs	r0, #14
 3031 00fc FFF7FEFF 		bl	GetBufferLengthFromDisplayID
 3032 0100 0346     		mov	r3, r0
 3033 0102 2846     		mov	r0, r5
 3034 0104 2146     		mov	r1, r4
 3035 0106 1A46     		mov	r2, r3
 3036 0108 FFF7FEFF 		bl	memcpy
 655:.\DisplayBLL.c ****         PSTRBUFFTOGG((PNEAR_BYTE_PTR)&pts->_buffer[index], GetBufferLengthFromDisplayID(DISPLAY_INT
 3037              		.loc 1 655 0
 3038 010c FB7F     		ldrb	r3, [r7, #31]	@ zero_extendqisi2
 3039 010e 3A69     		ldr	r2, [r7, #16]
 3040 0110 1344     		add	r3, r3, r2
 3041 0112 9C1C     		adds	r4, r3, #2
 3042 0114 0E20     		movs	r0, #14
 3043 0116 FFF7FEFF 		bl	GetBufferLengthFromDisplayID
 3044 011a 0346     		mov	r3, r0
 3045 011c 2046     		mov	r0, r4
 3046 011e 1946     		mov	r1, r3
 3047 0120 FFF7FEFF 		bl	PSTRBUFFTOGG
 656:.\DisplayBLL.c ****         index += GetBufferLengthFromDisplayID(DISPLAY_INTRODUZCA_KILOMETRAJE);
 3048              		.loc 1 656 0
 3049 0124 0E20     		movs	r0, #14
 3050 0126 FFF7FEFF 		bl	GetBufferLengthFromDisplayID
 3051 012a 0346     		mov	r3, r0
 3052 012c 1A46     		mov	r2, r3
 3053 012e FB7F     		ldrb	r3, [r7, #31]
 3054 0130 1344     		add	r3, r3, r2
 3055 0132 FB77     		strb	r3, [r7, #31]
 657:.\DisplayBLL.c **** 
 658:.\DisplayBLL.c ****         //Program mode (Money / Volume)
 659:.\DisplayBLL.c ****         uint8 value = ((PSINKMESSAGEPTR)pdisplay->_psequesteredmessagesink)->_buffer[GetBufferIndex
 3056              		.loc 1 659 0
 3057 0134 BB69     		ldr	r3, [r7, #24]
 3058 0136 1C6B     		ldr	r4, [r3, #48]
 3059 0138 0520     		movs	r0, #5
 3060 013a FFF7FEFF 		bl	GetBufferIndexFromDisplayID
 3061 013e 0346     		mov	r3, r0
ARM GAS  C:\Users\RECEPC~1\AppData\Local\Temp\ccNQpeOs.s 			page 67


 3062 0140 2344     		add	r3, r3, r4
 3063 0142 1B7B     		ldrb	r3, [r3, #12]
 3064 0144 FB73     		strb	r3, [r7, #15]
 660:.\DisplayBLL.c ****         switch(value)
 3065              		.loc 1 660 0
 3066 0146 FB7B     		ldrb	r3, [r7, #15]	@ zero_extendqisi2
 3067 0148 102B     		cmp	r3, #16
 3068 014a 0CD0     		beq	.L112
 3069 014c 432B     		cmp	r3, #67
 3070 014e 13D0     		beq	.L113
 3071 0150 0F2B     		cmp	r3, #15
 3072 0152 1AD1     		bne	.L111
 661:.\DisplayBLL.c ****         {
 662:.\DisplayBLL.c ****             case 0x0F:
 663:.\DisplayBLL.c ****             pts->_buffer[index++] = 0x02;//Money Preset
 3073              		.loc 1 663 0
 3074 0154 FB7F     		ldrb	r3, [r7, #31]	@ zero_extendqisi2
 3075 0156 5A1C     		adds	r2, r3, #1
 3076 0158 FA77     		strb	r2, [r7, #31]
 3077 015a 1A46     		mov	r2, r3
 3078 015c 3B69     		ldr	r3, [r7, #16]
 3079 015e 1344     		add	r3, r3, r2
 3080 0160 0222     		movs	r2, #2
 3081 0162 9A70     		strb	r2, [r3, #2]
 664:.\DisplayBLL.c ****             break;
 3082              		.loc 1 664 0
 3083 0164 11E0     		b	.L111
 3084              	.L112:
 665:.\DisplayBLL.c ****             case 0x10:
 666:.\DisplayBLL.c ****             pts->_buffer[index++] = 0x01;//Volume Preset
 3085              		.loc 1 666 0
 3086 0166 FB7F     		ldrb	r3, [r7, #31]	@ zero_extendqisi2
 3087 0168 5A1C     		adds	r2, r3, #1
 3088 016a FA77     		strb	r2, [r7, #31]
 3089 016c 1A46     		mov	r2, r3
 3090 016e 3B69     		ldr	r3, [r7, #16]
 3091 0170 1344     		add	r3, r3, r2
 3092 0172 0122     		movs	r2, #1
 3093 0174 9A70     		strb	r2, [r3, #2]
 667:.\DisplayBLL.c ****             break;
 3094              		.loc 1 667 0
 3095 0176 08E0     		b	.L111
 3096              	.L113:
 668:.\DisplayBLL.c ****             case 0x43:
 669:.\DisplayBLL.c ****             pts->_buffer[index++] = 0x03;//Full Preset
 3097              		.loc 1 669 0
 3098 0178 FB7F     		ldrb	r3, [r7, #31]	@ zero_extendqisi2
 3099 017a 5A1C     		adds	r2, r3, #1
 3100 017c FA77     		strb	r2, [r7, #31]
 3101 017e 1A46     		mov	r2, r3
 3102 0180 3B69     		ldr	r3, [r7, #16]
 3103 0182 1344     		add	r3, r3, r2
 3104 0184 0322     		movs	r2, #3
 3105 0186 9A70     		strb	r2, [r3, #2]
 670:.\DisplayBLL.c ****             break;
 3106              		.loc 1 670 0
 3107 0188 00BF     		nop
ARM GAS  C:\Users\RECEPC~1\AppData\Local\Temp\ccNQpeOs.s 			page 68


 3108              	.L111:
 671:.\DisplayBLL.c ****         }
 672:.\DisplayBLL.c ****         
 673:.\DisplayBLL.c ****         //Value for the selected program mode
 674:.\DisplayBLL.c ****         memcpy(&pts->_buffer[index], &((PSINKMESSAGEPTR)pdisplay->_psequesteredmessagesink)->_buffe
 3109              		.loc 1 674 0
 3110 018a FB7F     		ldrb	r3, [r7, #31]	@ zero_extendqisi2
 3111 018c 3A69     		ldr	r2, [r7, #16]
 3112 018e 1344     		add	r3, r3, r2
 3113 0190 9D1C     		adds	r5, r3, #2
 3114 0192 BB69     		ldr	r3, [r7, #24]
 3115 0194 1C6B     		ldr	r4, [r3, #48]
 3116 0196 0620     		movs	r0, #6
 3117 0198 FFF7FEFF 		bl	GetBufferIndexFromDisplayID
 3118 019c 0346     		mov	r3, r0
 3119 019e 0833     		adds	r3, r3, #8
 3120 01a0 2344     		add	r3, r3, r4
 3121 01a2 0433     		adds	r3, r3, #4
 3122 01a4 2846     		mov	r0, r5
 3123 01a6 1946     		mov	r1, r3
 3124 01a8 0822     		movs	r2, #8
 3125 01aa FFF7FEFF 		bl	memcpy
 675:.\DisplayBLL.c ****         if(value == 0x10)
 3126              		.loc 1 675 0
 3127 01ae FB7B     		ldrb	r3, [r7, #15]	@ zero_extendqisi2
 3128 01b0 102B     		cmp	r3, #16
 3129 01b2 07D1     		bne	.L115
 676:.\DisplayBLL.c ****             CastCreditVolumeValue(&pts->_buffer[index], 0x08);
 3130              		.loc 1 676 0
 3131 01b4 FB7F     		ldrb	r3, [r7, #31]	@ zero_extendqisi2
 3132 01b6 3A69     		ldr	r2, [r7, #16]
 3133 01b8 1344     		add	r3, r3, r2
 3134 01ba 0233     		adds	r3, r3, #2
 3135 01bc 1846     		mov	r0, r3
 3136 01be 0821     		movs	r1, #8
 3137 01c0 FFF7FEFF 		bl	CastCreditVolumeValue
 3138              	.L115:
 677:.\DisplayBLL.c ****         
 678:.\DisplayBLL.c ****         PSTRBUFFTOGG((PNEAR_BYTE_PTR)&pts->_buffer[index], 0x08);
 3139              		.loc 1 678 0
 3140 01c4 FB7F     		ldrb	r3, [r7, #31]	@ zero_extendqisi2
 3141 01c6 3A69     		ldr	r2, [r7, #16]
 3142 01c8 1344     		add	r3, r3, r2
 3143 01ca 0233     		adds	r3, r3, #2
 3144 01cc 1846     		mov	r0, r3
 3145 01ce 0821     		movs	r1, #8
 3146 01d0 FFF7FEFF 		bl	PSTRBUFFTOGG
 679:.\DisplayBLL.c ****         index += 0x08;
 3147              		.loc 1 679 0
 3148 01d4 FB7F     		ldrb	r3, [r7, #31]
 3149 01d6 0833     		adds	r3, r3, #8
 3150 01d8 FB77     		strb	r3, [r7, #31]
 680:.\DisplayBLL.c **** 
 681:.\DisplayBLL.c ****         memset(&((PSINKMESSAGEPTR)pdisplay->_psequesteredmessagesink)->_buffer[GetBufferIndexFromDi
 3151              		.loc 1 681 0
 3152 01da BB69     		ldr	r3, [r7, #24]
 3153 01dc 1C6B     		ldr	r4, [r3, #48]
ARM GAS  C:\Users\RECEPC~1\AppData\Local\Temp\ccNQpeOs.s 			page 69


 3154 01de 0620     		movs	r0, #6
 3155 01e0 FFF7FEFF 		bl	GetBufferIndexFromDisplayID
 3156 01e4 0346     		mov	r3, r0
 3157 01e6 0833     		adds	r3, r3, #8
 3158 01e8 2344     		add	r3, r3, r4
 3159 01ea 0433     		adds	r3, r3, #4
 3160 01ec 1846     		mov	r0, r3
 3161 01ee 0021     		movs	r1, #0
 3162 01f0 0822     		movs	r2, #8
 3163 01f2 FFF7FEFF 		bl	memset
 682:.\DisplayBLL.c ****         
 683:.\DisplayBLL.c ****         pts->_buffersize = index;
 3164              		.loc 1 683 0
 3165 01f6 FB7F     		ldrb	r3, [r7, #31]	@ zero_extendqisi2
 3166 01f8 9AB2     		uxth	r2, r3
 3167 01fa 3B69     		ldr	r3, [r7, #16]
 3168 01fc A3F80221 		strh	r2, [r3, #258]	@ movhi
 684:.\DisplayBLL.c ****         //This flag will be checked to inquiry about the authorization state.
 685:.\DisplayBLL.c ****         ppumpptr->_authorizationinfo._authorized = false;
 3169              		.loc 1 685 0
 3170 0200 7B69     		ldr	r3, [r7, #20]
 3171 0202 0022     		movs	r2, #0
 3172 0204 83F8A82B 		strb	r2, [r3, #2984]
 686:.\DisplayBLL.c ****         
 687:.\DisplayBLL.c ****         ppumpptr->PumpTransQueueLock(ppumpptr);
 3173              		.loc 1 687 0
 3174 0208 7B69     		ldr	r3, [r7, #20]
 3175 020a D3F8443B 		ldr	r3, [r3, #2884]
 3176 020e 7869     		ldr	r0, [r7, #20]
 3177 0210 9847     		blx	r3
 688:.\DisplayBLL.c ****         ppumpptr->PumpTransQueueEnqueue(ppumpptr, pts);
 3178              		.loc 1 688 0
 3179 0212 7B69     		ldr	r3, [r7, #20]
 3180 0214 D3F8503B 		ldr	r3, [r3, #2896]
 3181 0218 7869     		ldr	r0, [r7, #20]
 3182 021a 3969     		ldr	r1, [r7, #16]
 3183 021c 9847     		blx	r3
 689:.\DisplayBLL.c ****         ppumpptr->PumpTransQueueUnlock(ppumpptr);
 3184              		.loc 1 689 0
 3185 021e 7B69     		ldr	r3, [r7, #20]
 3186 0220 D3F8483B 		ldr	r3, [r3, #2888]
 3187 0224 7869     		ldr	r0, [r7, #20]
 3188 0226 9847     		blx	r3
 3189              	.L109:
 3190              	.LBE42:
 690:.\DisplayBLL.c ****     }
 691:.\DisplayBLL.c ****     #endif
 692:.\DisplayBLL.c ****     
 693:.\DisplayBLL.c ****     #ifdef _ALLOW_CREDIT_SALE_TESTING_
 694:.\DisplayBLL.c ****     //Authorization information
 695:.\DisplayBLL.c ****     ppumpptr->_authorizationinfo._authorized = true;
 696:.\DisplayBLL.c **** 
 697:.\DisplayBLL.c ****     //See the protocol description file to understand the applied indexes 
 698:.\DisplayBLL.c ****     ppumpptr->_authorizationinfo._presettype = 0x02;
 699:.\DisplayBLL.c ****     ppumpptr->_authorizationinfo._presetamount  = 0x3DB8;
 700:.\DisplayBLL.c ****     ppumpptr->_authorizationinfo._hoseid = ((PSINKMESSAGEPTR)pdisplay->_psequesteredmessagesink)->_
 701:.\DisplayBLL.c ****     
ARM GAS  C:\Users\RECEPC~1\AppData\Local\Temp\ccNQpeOs.s 			page 70


 702:.\DisplayBLL.c ****     uint16 price = 0x3232;
 703:.\DisplayBLL.c ****     if(_g_dispenserlayoutinfo._moneydecimals == 0x03 && _g_dispenserlayoutinfo._ppudecimals == 0x02
 704:.\DisplayBLL.c ****         ppumpptr->_authorizationinfo._price = price / 10;
 705:.\DisplayBLL.c ****     else
 706:.\DisplayBLL.c ****         ppumpptr->_authorizationinfo._price = price;
 707:.\DisplayBLL.c ****                     
 708:.\DisplayBLL.c ****     if(pdisplay)
 709:.\DisplayBLL.c ****     {
 710:.\DisplayBLL.c ****         if(ppumpptr->_authorizationinfo._authorized)
 711:.\DisplayBLL.c ****             pdisplay->_currentstate = DISPLAY_CREDIT_AUTHORIZATION_ACCEPTED;
 712:.\DisplayBLL.c ****     }
 713:.\DisplayBLL.c ****     #endif
 714:.\DisplayBLL.c **** }
 3191              		.loc 1 714 0
 3192 0228 2037     		adds	r7, r7, #32
 3193              		.cfi_def_cfa_offset 16
 3194 022a BD46     		mov	sp, r7
 3195              		.cfi_def_cfa_register 13
 3196              		@ sp needed
 3197 022c B0BD     		pop	{r4, r5, r7, pc}
 3198              	.L117:
 3199 022e 00BF     		.align	2
 3200              	.L116:
 3201 0230 00000000 		.word	_g_pumps
 3202              		.cfi_endproc
 3203              	.LFE74:
 3204              		.size	SendAuthorizationRequest4Credit, .-SendAuthorizationRequest4Credit
 3205              		.section	.text.KillHosePositionStateValidation,"ax",%progbits
 3206              		.align	2
 3207              		.global	KillHosePositionStateValidation
 3208              		.thumb
 3209              		.thumb_func
 3210              		.type	KillHosePositionStateValidation, %function
 3211              	KillHosePositionStateValidation:
 3212              	.LFB75:
 715:.\DisplayBLL.c **** 
 716:.\DisplayBLL.c **** void KillHosePositionStateValidation(LPVOID pparam)
 717:.\DisplayBLL.c **** {
 3213              		.loc 1 717 0
 3214              		.cfi_startproc
 3215              		@ args = 0, pretend = 0, frame = 16
 3216              		@ frame_needed = 1, uses_anonymous_args = 0
 3217              		@ link register save eliminated.
 3218 0000 80B4     		push	{r7}
 3219              		.cfi_def_cfa_offset 4
 3220              		.cfi_offset 7, -4
 3221 0002 85B0     		sub	sp, sp, #20
 3222              		.cfi_def_cfa_offset 24
 3223 0004 00AF     		add	r7, sp, #0
 3224              		.cfi_def_cfa_register 7
 3225 0006 7860     		str	r0, [r7, #4]
 718:.\DisplayBLL.c ****     PDISPLAYLAYOUTPTR pdisplay = (PDISPLAYLAYOUTPTR)pparam;
 3226              		.loc 1 718 0
 3227 0008 7B68     		ldr	r3, [r7, #4]
 3228 000a FB60     		str	r3, [r7, #12]
 719:.\DisplayBLL.c ****     if(pdisplay->_pdata)
 3229              		.loc 1 719 0
ARM GAS  C:\Users\RECEPC~1\AppData\Local\Temp\ccNQpeOs.s 			page 71


 3230 000c FB68     		ldr	r3, [r7, #12]
 3231 000e 5B6B     		ldr	r3, [r3, #52]
 3232 0010 002B     		cmp	r3, #0
 3233 0012 06D0     		beq	.L118
 720:.\DisplayBLL.c ****     {
 721:.\DisplayBLL.c ****         ((PSINKMESSAGEPTR)pdisplay->_pdata)->_selfkill = true;
 3234              		.loc 1 721 0
 3235 0014 FB68     		ldr	r3, [r7, #12]
 3236 0016 5B6B     		ldr	r3, [r3, #52]
 3237 0018 0122     		movs	r2, #1
 3238 001a 1A70     		strb	r2, [r3]
 722:.\DisplayBLL.c ****         pdisplay->_pdata = PNEAR_NULLPTR;
 3239              		.loc 1 722 0
 3240 001c FB68     		ldr	r3, [r7, #12]
 3241 001e 0022     		movs	r2, #0
 3242 0020 5A63     		str	r2, [r3, #52]
 3243              	.L118:
 723:.\DisplayBLL.c ****     }
 724:.\DisplayBLL.c **** }
 3244              		.loc 1 724 0
 3245 0022 1437     		adds	r7, r7, #20
 3246              		.cfi_def_cfa_offset 4
 3247 0024 BD46     		mov	sp, r7
 3248              		.cfi_def_cfa_register 13
 3249              		@ sp needed
 3250 0026 5DF8047B 		ldr	r7, [sp], #4
 3251              		.cfi_restore 7
 3252              		.cfi_def_cfa_offset 0
 3253 002a 7047     		bx	lr
 3254              		.cfi_endproc
 3255              	.LFE75:
 3256              		.size	KillHosePositionStateValidation, .-KillHosePositionStateValidation
 3257              		.section	.text.DisplayStationIDDecorator,"ax",%progbits
 3258              		.align	2
 3259              		.global	DisplayStationIDDecorator
 3260              		.thumb
 3261              		.thumb_func
 3262              		.type	DisplayStationIDDecorator, %function
 3263              	DisplayStationIDDecorator:
 3264              	.LFB76:
 725:.\DisplayBLL.c **** 
 726:.\DisplayBLL.c **** void DisplayStationIDDecorator(void *pparam)
 727:.\DisplayBLL.c **** {
 3265              		.loc 1 727 0
 3266              		.cfi_startproc
 3267              		@ args = 0, pretend = 0, frame = 24
 3268              		@ frame_needed = 1, uses_anonymous_args = 0
 3269 0000 F0B5     		push	{r4, r5, r6, r7, lr}
 3270              		.cfi_def_cfa_offset 20
 3271              		.cfi_offset 4, -20
 3272              		.cfi_offset 5, -16
 3273              		.cfi_offset 6, -12
 3274              		.cfi_offset 7, -8
 3275              		.cfi_offset 14, -4
 3276 0002 8BB0     		sub	sp, sp, #44
 3277              		.cfi_def_cfa_offset 64
 3278 0004 04AF     		add	r7, sp, #16
ARM GAS  C:\Users\RECEPC~1\AppData\Local\Temp\ccNQpeOs.s 			page 72


 3279              		.cfi_def_cfa 7, 48
 3280 0006 7860     		str	r0, [r7, #4]
 728:.\DisplayBLL.c ****     PDISPLAYLAYOUTPTR pdisplay = (PDISPLAYLAYOUTPTR)pparam;
 3281              		.loc 1 728 0
 3282 0008 7B68     		ldr	r3, [r7, #4]
 3283 000a 7B61     		str	r3, [r7, #20]
 729:.\DisplayBLL.c ****     if(pdisplay)
 3284              		.loc 1 729 0
 3285 000c 7B69     		ldr	r3, [r7, #20]
 3286 000e 002B     		cmp	r3, #0
 3287 0010 65D0     		beq	.L120
 730:.\DisplayBLL.c ****     {
 731:.\DisplayBLL.c ****         pdisplay->_bufferinfo._xpos = pdisplay->_pcurrflow->_inputboxinfo._xdefpos;
 3288              		.loc 1 731 0
 3289 0012 7B69     		ldr	r3, [r7, #20]
 3290 0014 1B69     		ldr	r3, [r3, #16]
 3291 0016 9A8D     		ldrh	r2, [r3, #44]
 3292 0018 7B69     		ldr	r3, [r7, #20]
 3293 001a 1A83     		strh	r2, [r3, #24]	@ movhi
 732:.\DisplayBLL.c ****         pdisplay->_bufferinfo._ypos = pdisplay->_pcurrflow->_inputboxinfo._ydefpos;
 3294              		.loc 1 732 0
 3295 001c 7B69     		ldr	r3, [r7, #20]
 3296 001e 1B69     		ldr	r3, [r3, #16]
 3297 0020 DA8D     		ldrh	r2, [r3, #46]
 3298 0022 7B69     		ldr	r3, [r7, #20]
 3299 0024 5A83     		strh	r2, [r3, #26]	@ movhi
 733:.\DisplayBLL.c ****         if(pdisplay->_dispid == DISPLAY1)
 3300              		.loc 1 733 0
 3301 0026 7B69     		ldr	r3, [r7, #20]
 3302 0028 1B78     		ldrb	r3, [r3]	@ zero_extendqisi2
 3303 002a 002B     		cmp	r3, #0
 3304 002c 2CD1     		bne	.L122
 3305              	.LBB43:
 734:.\DisplayBLL.c ****         {
 735:.\DisplayBLL.c ****             UARTMessage *puartdisp = GetUARTMessageSlot(UART_DISPLAY1);
 3306              		.loc 1 735 0
 3307 002e A320     		movs	r0, #163
 3308 0030 FFF7FEFF 		bl	GetUARTMessageSlot
 3309 0034 3861     		str	r0, [r7, #16]
 736:.\DisplayBLL.c ****             if(puartdisp)
 3310              		.loc 1 736 0
 3311 0036 3B69     		ldr	r3, [r7, #16]
 3312 0038 002B     		cmp	r3, #0
 3313 003a 24D0     		beq	.L123
 737:.\DisplayBLL.c ****             {
 738:.\DisplayBLL.c ****                 puartdisp->_messagelength = DisplayOutputString(pdisplay->_bufferinfo._xpos, pdispl
 3314              		.loc 1 738 0
 3315 003c 7B69     		ldr	r3, [r7, #20]
 3316 003e B3F818E0 		ldrh	lr, [r3, #24]
 3317 0042 7B69     		ldr	r3, [r7, #20]
 3318 0044 5E8B     		ldrh	r6, [r3, #26]
 3319 0046 3B69     		ldr	r3, [r7, #16]
 3320 0048 1D1D     		adds	r5, r3, #4
 3321 004a 7B69     		ldr	r3, [r7, #20]
 3322 004c 03F11D04 		add	r4, r3, #29
 3323 0050 7B69     		ldr	r3, [r7, #20]
 3324 0052 1B69     		ldr	r3, [r3, #16]
ARM GAS  C:\Users\RECEPC~1\AppData\Local\Temp\ccNQpeOs.s 			page 73


 3325 0054 93F83030 		ldrb	r3, [r3, #48]	@ zero_extendqisi2
 3326 0058 9BB2     		uxth	r3, r3
 3327 005a 7A69     		ldr	r2, [r7, #20]
 3328 005c 1269     		ldr	r2, [r2, #16]
 3329 005e 0093     		str	r3, [sp]
 3330 0060 01AB     		add	r3, sp, #4
 3331 0062 3232     		adds	r2, r2, #50
 3332 0064 1068     		ldr	r0, [r2]	@ unaligned
 3333 0066 5168     		ldr	r1, [r2, #4]	@ unaligned
 3334 0068 03C3     		stmia	r3!, {r0, r1}
 3335 006a 7046     		mov	r0, lr
 3336 006c 3146     		mov	r1, r6
 3337 006e 2A46     		mov	r2, r5
 3338 0070 2346     		mov	r3, r4
 3339 0072 FFF7FEFF 		bl	DisplayOutputString
 3340 0076 0346     		mov	r3, r0
 3341 0078 1A46     		mov	r2, r3
 3342 007a 3B69     		ldr	r3, [r7, #16]
 3343 007c 5A80     		strh	r2, [r3, #2]	@ movhi
 739:.\DisplayBLL.c ****                 puartdisp->_messagestate = PENDING;
 3344              		.loc 1 739 0
 3345 007e 3B69     		ldr	r3, [r7, #16]
 3346 0080 C222     		movs	r2, #194
 3347 0082 1A70     		strb	r2, [r3]
 3348              	.LBE43:
 3349 0084 2BE0     		b	.L120
 3350              	.L123:
 3351 0086 2AE0     		b	.L120
 3352              	.L122:
 3353              	.LBB44:
 740:.\DisplayBLL.c ****             }
 741:.\DisplayBLL.c ****         }
 742:.\DisplayBLL.c ****         else
 743:.\DisplayBLL.c ****         {
 744:.\DisplayBLL.c ****             UARTMessage *puartdisp = GetUARTMessageSlot(UART_DISPLAY2);
 3354              		.loc 1 744 0
 3355 0088 A420     		movs	r0, #164
 3356 008a FFF7FEFF 		bl	GetUARTMessageSlot
 3357 008e F860     		str	r0, [r7, #12]
 745:.\DisplayBLL.c ****             if(puartdisp)
 3358              		.loc 1 745 0
 3359 0090 FB68     		ldr	r3, [r7, #12]
 3360 0092 002B     		cmp	r3, #0
 3361 0094 23D0     		beq	.L120
 746:.\DisplayBLL.c ****             {
 747:.\DisplayBLL.c ****                 puartdisp->_messagelength = DisplayOutputString(pdisplay->_bufferinfo._xpos, pdispl
 3362              		.loc 1 747 0
 3363 0096 7B69     		ldr	r3, [r7, #20]
 3364 0098 B3F818E0 		ldrh	lr, [r3, #24]
 3365 009c 7B69     		ldr	r3, [r7, #20]
 3366 009e 5E8B     		ldrh	r6, [r3, #26]
 3367 00a0 FB68     		ldr	r3, [r7, #12]
 3368 00a2 1D1D     		adds	r5, r3, #4
 3369 00a4 7B69     		ldr	r3, [r7, #20]
 3370 00a6 03F11D04 		add	r4, r3, #29
 3371 00aa 7B69     		ldr	r3, [r7, #20]
 3372 00ac 1B69     		ldr	r3, [r3, #16]
ARM GAS  C:\Users\RECEPC~1\AppData\Local\Temp\ccNQpeOs.s 			page 74


 3373 00ae 93F83030 		ldrb	r3, [r3, #48]	@ zero_extendqisi2
 3374 00b2 9BB2     		uxth	r3, r3
 3375 00b4 7A69     		ldr	r2, [r7, #20]
 3376 00b6 1269     		ldr	r2, [r2, #16]
 3377 00b8 0093     		str	r3, [sp]
 3378 00ba 01AB     		add	r3, sp, #4
 3379 00bc 3232     		adds	r2, r2, #50
 3380 00be 1068     		ldr	r0, [r2]	@ unaligned
 3381 00c0 5168     		ldr	r1, [r2, #4]	@ unaligned
 3382 00c2 03C3     		stmia	r3!, {r0, r1}
 3383 00c4 7046     		mov	r0, lr
 3384 00c6 3146     		mov	r1, r6
 3385 00c8 2A46     		mov	r2, r5
 3386 00ca 2346     		mov	r3, r4
 3387 00cc FFF7FEFF 		bl	DisplayOutputString
 3388 00d0 0346     		mov	r3, r0
 3389 00d2 1A46     		mov	r2, r3
 3390 00d4 FB68     		ldr	r3, [r7, #12]
 3391 00d6 5A80     		strh	r2, [r3, #2]	@ movhi
 748:.\DisplayBLL.c ****                 puartdisp->_messagestate = PENDING;
 3392              		.loc 1 748 0
 3393 00d8 FB68     		ldr	r3, [r7, #12]
 3394 00da C222     		movs	r2, #194
 3395 00dc 1A70     		strb	r2, [r3]
 3396              	.L120:
 3397              	.LBE44:
 749:.\DisplayBLL.c ****             }
 750:.\DisplayBLL.c ****         }
 751:.\DisplayBLL.c ****     }
 752:.\DisplayBLL.c **** }
 3398              		.loc 1 752 0
 3399 00de 1C37     		adds	r7, r7, #28
 3400              		.cfi_def_cfa_offset 20
 3401 00e0 BD46     		mov	sp, r7
 3402              		.cfi_def_cfa_register 13
 3403              		@ sp needed
 3404 00e2 F0BD     		pop	{r4, r5, r6, r7, pc}
 3405              		.cfi_endproc
 3406              	.LFE76:
 3407              		.size	DisplayStationIDDecorator, .-DisplayStationIDDecorator
 3408              		.global	__aeabi_i2d
 3409              		.global	__aeabi_dmul
 3410              		.global	__aeabi_d2uiz
 3411              		.section	.text.DisplayStationIDStore,"ax",%progbits
 3412              		.align	2
 3413              		.global	DisplayStationIDStore
 3414              		.thumb
 3415              		.thumb_func
 3416              		.type	DisplayStationIDStore, %function
 3417              	DisplayStationIDStore:
 3418              	.LFB77:
 753:.\DisplayBLL.c **** 
 754:.\DisplayBLL.c **** void DisplayStationIDStore(void *pparam)
 755:.\DisplayBLL.c **** {
 3419              		.loc 1 755 0
 3420              		.cfi_startproc
 3421              		@ args = 0, pretend = 0, frame = 16
ARM GAS  C:\Users\RECEPC~1\AppData\Local\Temp\ccNQpeOs.s 			page 75


 3422              		@ frame_needed = 1, uses_anonymous_args = 0
 3423 0000 B0B5     		push	{r4, r5, r7, lr}
 3424              		.cfi_def_cfa_offset 16
 3425              		.cfi_offset 4, -16
 3426              		.cfi_offset 5, -12
 3427              		.cfi_offset 7, -8
 3428              		.cfi_offset 14, -4
 3429 0002 84B0     		sub	sp, sp, #16
 3430              		.cfi_def_cfa_offset 32
 3431 0004 00AF     		add	r7, sp, #0
 3432              		.cfi_def_cfa_register 7
 3433 0006 7860     		str	r0, [r7, #4]
 756:.\DisplayBLL.c ****     PDISPLAYLAYOUTPTR pdisplay = (PDISPLAYLAYOUTPTR)pparam;
 3434              		.loc 1 756 0
 3435 0008 7B68     		ldr	r3, [r7, #4]
 3436 000a BB60     		str	r3, [r7, #8]
 757:.\DisplayBLL.c ****     if(pdisplay)
 3437              		.loc 1 757 0
 3438 000c BB68     		ldr	r3, [r7, #8]
 3439 000e 002B     		cmp	r3, #0
 3440 0010 58D0     		beq	.L124
 3441              	.LBB45:
 758:.\DisplayBLL.c ****     {
 759:.\DisplayBLL.c ****         uint16 stationid = 0x0000;
 3442              		.loc 1 759 0
 3443 0012 0023     		movs	r3, #0
 3444 0014 FB81     		strh	r3, [r7, #14]	@ movhi
 760:.\DisplayBLL.c ****         FOR(uint8 index = 0, index < pdisplay->_bufferinfo._bufferindex, index++)
 3445              		.loc 1 760 0
 3446 0016 0023     		movs	r3, #0
 3447 0018 7B73     		strb	r3, [r7, #13]
 3448 001a 2EE0     		b	.L126
 3449              	.L127:
 761:.\DisplayBLL.c ****             stationid += (uint16)(pow(10, pdisplay->_bufferinfo._bufferindex - index - 1)*(pdisplay
 3450              		.loc 1 761 0 discriminator 3
 3451 001c BB68     		ldr	r3, [r7, #8]
 3452 001e 1B7F     		ldrb	r3, [r3, #28]	@ zero_extendqisi2
 3453 0020 1A46     		mov	r2, r3
 3454 0022 7B7B     		ldrb	r3, [r7, #13]	@ zero_extendqisi2
 3455 0024 D31A     		subs	r3, r2, r3
 3456 0026 013B     		subs	r3, r3, #1
 3457 0028 1846     		mov	r0, r3
 3458 002a FFF7FEFF 		bl	__aeabi_i2d
 3459 002e 0246     		mov	r2, r0
 3460 0030 0B46     		mov	r3, r1
 3461 0032 4FF00000 		mov	r0, #0
 3462 0036 2549     		ldr	r1, .L128
 3463 0038 FFF7FEFF 		bl	pow
 3464 003c 0446     		mov	r4, r0
 3465 003e 0D46     		mov	r5, r1
 3466 0040 7B7B     		ldrb	r3, [r7, #13]	@ zero_extendqisi2
 3467 0042 BA68     		ldr	r2, [r7, #8]
 3468 0044 1344     		add	r3, r3, r2
 3469 0046 5B7F     		ldrb	r3, [r3, #29]	@ zero_extendqisi2
 3470 0048 03F00F03 		and	r3, r3, #15
 3471 004c 1846     		mov	r0, r3
 3472 004e FFF7FEFF 		bl	__aeabi_i2d
ARM GAS  C:\Users\RECEPC~1\AppData\Local\Temp\ccNQpeOs.s 			page 76


 3473 0052 0246     		mov	r2, r0
 3474 0054 0B46     		mov	r3, r1
 3475 0056 2046     		mov	r0, r4
 3476 0058 2946     		mov	r1, r5
 3477 005a FFF7FEFF 		bl	__aeabi_dmul
 3478 005e 0246     		mov	r2, r0
 3479 0060 0B46     		mov	r3, r1
 3480 0062 1046     		mov	r0, r2
 3481 0064 1946     		mov	r1, r3
 3482 0066 FFF7FEFF 		bl	__aeabi_d2uiz
 3483 006a 0346     		mov	r3, r0
 3484 006c 9AB2     		uxth	r2, r3
 3485 006e FB89     		ldrh	r3, [r7, #14]	@ movhi
 3486 0070 1344     		add	r3, r3, r2
 3487 0072 FB81     		strh	r3, [r7, #14]	@ movhi
 760:.\DisplayBLL.c ****         FOR(uint8 index = 0, index < pdisplay->_bufferinfo._bufferindex, index++)
 3488              		.loc 1 760 0 discriminator 3
 3489 0074 7B7B     		ldrb	r3, [r7, #13]	@ zero_extendqisi2
 3490 0076 0133     		adds	r3, r3, #1
 3491 0078 7B73     		strb	r3, [r7, #13]
 3492              	.L126:
 760:.\DisplayBLL.c ****         FOR(uint8 index = 0, index < pdisplay->_bufferinfo._bufferindex, index++)
 3493              		.loc 1 760 0 is_stmt 0 discriminator 1
 3494 007a BB68     		ldr	r3, [r7, #8]
 3495 007c 1B7F     		ldrb	r3, [r3, #28]	@ zero_extendqisi2
 3496 007e 7A7B     		ldrb	r2, [r7, #13]	@ zero_extendqisi2
 3497 0080 9A42     		cmp	r2, r3
 3498 0082 CBD3     		bcc	.L127
 762:.\DisplayBLL.c ****             
 763:.\DisplayBLL.c ****         //CAREFUL WITH RETURNS BETWEEN THE LOCK/UNLOCK CALLS
 764:.\DisplayBLL.c ****         //AND RECURSIVE CALLS THAT WOULD DEADLOCK!
 765:.\DisplayBLL.c ****         I2CBusLock();
 3499              		.loc 1 765 0 is_stmt 1
 3500 0084 FFF7FEFF 		bl	I2CBusLock
 766:.\DisplayBLL.c ****         ClearEepromBuffer();
 3501              		.loc 1 766 0
 3502 0088 FFF7FEFF 		bl	ClearEepromBuffer
 767:.\DisplayBLL.c ****         
 768:.\DisplayBLL.c ****         LoadEepromPage(EEPROM_CONFIGURATION_PAGE5);
 3503              		.loc 1 768 0
 3504 008c 4FF4A070 		mov	r0, #320
 3505 0090 FFF7FEFF 		bl	LoadEepromPage
 769:.\DisplayBLL.c ****         GetEepromBuffer()[0x00] = (uint8)(stationid & 0x00FF);
 3506              		.loc 1 769 0
 3507 0094 FFF7FEFF 		bl	GetEepromBuffer
 3508 0098 0346     		mov	r3, r0
 3509 009a FA89     		ldrh	r2, [r7, #14]	@ movhi
 3510 009c D2B2     		uxtb	r2, r2
 3511 009e 1A70     		strb	r2, [r3]
 770:.\DisplayBLL.c ****         GetEepromBuffer()[0x01] = (uint8)((stationid >> 8) & 0x00FF);
 3512              		.loc 1 770 0
 3513 00a0 FFF7FEFF 		bl	GetEepromBuffer
 3514 00a4 0346     		mov	r3, r0
 3515 00a6 0133     		adds	r3, r3, #1
 3516 00a8 FA89     		ldrh	r2, [r7, #14]
 3517 00aa 120A     		lsrs	r2, r2, #8
 3518 00ac 92B2     		uxth	r2, r2
ARM GAS  C:\Users\RECEPC~1\AppData\Local\Temp\ccNQpeOs.s 			page 77


 3519 00ae D2B2     		uxtb	r2, r2
 3520 00b0 1A70     		strb	r2, [r3]
 771:.\DisplayBLL.c ****         StoreEepromPage(EEPROM_CONFIGURATION_PAGE5);
 3521              		.loc 1 771 0
 3522 00b2 4FF4A070 		mov	r0, #320
 3523 00b6 FFF7FEFF 		bl	StoreEepromPage
 772:.\DisplayBLL.c ****         
 773:.\DisplayBLL.c ****         _g_stationidentifier = stationid;
 3524              		.loc 1 773 0
 3525 00ba 054A     		ldr	r2, .L128+4
 3526 00bc FB89     		ldrh	r3, [r7, #14]	@ movhi
 3527 00be 1380     		strh	r3, [r2]	@ movhi
 774:.\DisplayBLL.c ****         
 775:.\DisplayBLL.c ****         I2CBusUnlock();
 3528              		.loc 1 775 0
 3529 00c0 FFF7FEFF 		bl	I2CBusUnlock
 3530              	.L124:
 3531              	.LBE45:
 776:.\DisplayBLL.c ****         
 777:.\DisplayBLL.c ****     }
 778:.\DisplayBLL.c **** }
 3532              		.loc 1 778 0
 3533 00c4 1037     		adds	r7, r7, #16
 3534              		.cfi_def_cfa_offset 16
 3535 00c6 BD46     		mov	sp, r7
 3536              		.cfi_def_cfa_register 13
 3537              		@ sp needed
 3538 00c8 B0BD     		pop	{r4, r5, r7, pc}
 3539              	.L129:
 3540 00ca 00BF     		.align	2
 3541              	.L128:
 3542 00cc 00002440 		.word	1076101120
 3543 00d0 00000000 		.word	_g_stationidentifier
 3544              		.cfi_endproc
 3545              	.LFE77:
 3546              		.size	DisplayStationIDStore, .-DisplayStationIDStore
 3547              		.section	.text.DisplayStationIDLoad,"ax",%progbits
 3548              		.align	2
 3549              		.global	DisplayStationIDLoad
 3550              		.thumb
 3551              		.thumb_func
 3552              		.type	DisplayStationIDLoad, %function
 3553              	DisplayStationIDLoad:
 3554              	.LFB78:
 779:.\DisplayBLL.c **** 
 780:.\DisplayBLL.c **** void DisplayStationIDLoad(void *pparam)
 781:.\DisplayBLL.c **** {
 3555              		.loc 1 781 0
 3556              		.cfi_startproc
 3557              		@ args = 0, pretend = 0, frame = 16
 3558              		@ frame_needed = 1, uses_anonymous_args = 0
 3559 0000 90B5     		push	{r4, r7, lr}
 3560              		.cfi_def_cfa_offset 12
 3561              		.cfi_offset 4, -12
 3562              		.cfi_offset 7, -8
 3563              		.cfi_offset 14, -4
 3564 0002 85B0     		sub	sp, sp, #20
ARM GAS  C:\Users\RECEPC~1\AppData\Local\Temp\ccNQpeOs.s 			page 78


 3565              		.cfi_def_cfa_offset 32
 3566 0004 00AF     		add	r7, sp, #0
 3567              		.cfi_def_cfa_register 7
 3568 0006 7860     		str	r0, [r7, #4]
 782:.\DisplayBLL.c ****     PDISPLAYLAYOUTPTR pdisplay = (PDISPLAYLAYOUTPTR)pparam;
 3569              		.loc 1 782 0
 3570 0008 7B68     		ldr	r3, [r7, #4]
 3571 000a FB60     		str	r3, [r7, #12]
 783:.\DisplayBLL.c ****     if(pdisplay)
 3572              		.loc 1 783 0
 3573 000c FB68     		ldr	r3, [r7, #12]
 3574 000e 002B     		cmp	r3, #0
 3575 0010 3DD0     		beq	.L130
 3576              	.LBB46:
 784:.\DisplayBLL.c ****     {
 785:.\DisplayBLL.c ****         //CAREFUL WITH RETURNS BETWEEN THE LOCK/UNLOCK CALLS
 786:.\DisplayBLL.c ****         //AND RECURSIVE CALLS THAT WOULD DEADLOCK!
 787:.\DisplayBLL.c ****         I2CBusLock();
 3577              		.loc 1 787 0
 3578 0012 FFF7FEFF 		bl	I2CBusLock
 788:.\DisplayBLL.c ****         ClearEepromBuffer();
 3579              		.loc 1 788 0
 3580 0016 FFF7FEFF 		bl	ClearEepromBuffer
 789:.\DisplayBLL.c ****         
 790:.\DisplayBLL.c ****         LoadEepromPage(EEPROM_CONFIGURATION_PAGE5);
 3581              		.loc 1 790 0
 3582 001a 4FF4A070 		mov	r0, #320
 3583 001e FFF7FEFF 		bl	LoadEepromPage
 791:.\DisplayBLL.c ****         uint16 stationid = (((uint16)GetEepromBuffer()[0x01] << 8) & 0xFF00) | ((uint16)GetEepromBu
 3584              		.loc 1 791 0
 3585 0022 FFF7FEFF 		bl	GetEepromBuffer
 3586 0026 0346     		mov	r3, r0
 3587 0028 0133     		adds	r3, r3, #1
 3588 002a 1B78     		ldrb	r3, [r3]	@ zero_extendqisi2
 3589 002c 1B02     		lsls	r3, r3, #8
 3590 002e 9CB2     		uxth	r4, r3
 3591 0030 FFF7FEFF 		bl	GetEepromBuffer
 3592 0034 0346     		mov	r3, r0
 3593 0036 1B78     		ldrb	r3, [r3]	@ zero_extendqisi2
 3594 0038 9BB2     		uxth	r3, r3
 3595 003a 2246     		mov	r2, r4	@ movhi
 3596 003c 1343     		orrs	r3, r3, r2
 3597 003e 9BB2     		uxth	r3, r3
 3598 0040 7B81     		strh	r3, [r7, #10]	@ movhi
 792:.\DisplayBLL.c ****         I2CBusUnlock();
 3599              		.loc 1 792 0
 3600 0042 FFF7FEFF 		bl	I2CBusUnlock
 793:.\DisplayBLL.c ****         
 794:.\DisplayBLL.c ****         memset(pdisplay->_bufferinfo._buffer, 0x00, _DISPLAY_BUFFER_SIZE_);
 3601              		.loc 1 794 0
 3602 0046 FB68     		ldr	r3, [r7, #12]
 3603 0048 1D33     		adds	r3, r3, #29
 3604 004a 1846     		mov	r0, r3
 3605 004c 0021     		movs	r1, #0
 3606 004e 1022     		movs	r2, #16
 3607 0050 FFF7FEFF 		bl	memset
 795:.\DisplayBLL.c ****         B78AD90CF552D9B30A(stationid, PBYTECAST(pdisplay->_bufferinfo._buffer));
ARM GAS  C:\Users\RECEPC~1\AppData\Local\Temp\ccNQpeOs.s 			page 79


 3608              		.loc 1 795 0
 3609 0054 7A89     		ldrh	r2, [r7, #10]
 3610 0056 4FF00003 		mov	r3, #0
 3611 005a F968     		ldr	r1, [r7, #12]
 3612 005c 01F11D04 		add	r4, r1, #29
 3613 0060 1046     		mov	r0, r2
 3614 0062 1946     		mov	r1, r3
 3615 0064 2246     		mov	r2, r4
 3616 0066 FFF7FEFF 		bl	B78AD90CF552D9B30A
 796:.\DisplayBLL.c ****         pdisplay->_bufferinfo._bufferindex = strlen(pdisplay->_bufferinfo._buffer);
 3617              		.loc 1 796 0
 3618 006a FB68     		ldr	r3, [r7, #12]
 3619 006c 1D33     		adds	r3, r3, #29
 3620 006e 1846     		mov	r0, r3
 3621 0070 FFF7FEFF 		bl	strlen
 3622 0074 0346     		mov	r3, r0
 3623 0076 DAB2     		uxtb	r2, r3
 3624 0078 FB68     		ldr	r3, [r7, #12]
 3625 007a 1A77     		strb	r2, [r3, #28]
 797:.\DisplayBLL.c ****         PSTRBUFFTOGG(PBYTECAST(pdisplay->_bufferinfo._buffer), pdisplay->_bufferinfo._bufferindex);
 3626              		.loc 1 797 0
 3627 007c FB68     		ldr	r3, [r7, #12]
 3628 007e 03F11D02 		add	r2, r3, #29
 3629 0082 FB68     		ldr	r3, [r7, #12]
 3630 0084 1B7F     		ldrb	r3, [r3, #28]	@ zero_extendqisi2
 3631 0086 1046     		mov	r0, r2
 3632 0088 1946     		mov	r1, r3
 3633 008a FFF7FEFF 		bl	PSTRBUFFTOGG
 3634              	.L130:
 3635              	.LBE46:
 798:.\DisplayBLL.c ****     }
 799:.\DisplayBLL.c **** }
 3636              		.loc 1 799 0
 3637 008e 1437     		adds	r7, r7, #20
 3638              		.cfi_def_cfa_offset 12
 3639 0090 BD46     		mov	sp, r7
 3640              		.cfi_def_cfa_register 13
 3641              		@ sp needed
 3642 0092 90BD     		pop	{r4, r7, pc}
 3643              		.cfi_endproc
 3644              	.LFE78:
 3645              		.size	DisplayStationIDLoad, .-DisplayStationIDLoad
 3646              		.section	.text.DisplayPumpIDOffsetLoad,"ax",%progbits
 3647              		.align	2
 3648              		.global	DisplayPumpIDOffsetLoad
 3649              		.thumb
 3650              		.thumb_func
 3651              		.type	DisplayPumpIDOffsetLoad, %function
 3652              	DisplayPumpIDOffsetLoad:
 3653              	.LFB79:
 800:.\DisplayBLL.c **** 
 801:.\DisplayBLL.c **** void DisplayPumpIDOffsetLoad(void *pparam)
 802:.\DisplayBLL.c **** {
 3654              		.loc 1 802 0
 3655              		.cfi_startproc
 3656              		@ args = 0, pretend = 0, frame = 16
 3657              		@ frame_needed = 1, uses_anonymous_args = 0
ARM GAS  C:\Users\RECEPC~1\AppData\Local\Temp\ccNQpeOs.s 			page 80


 3658 0000 90B5     		push	{r4, r7, lr}
 3659              		.cfi_def_cfa_offset 12
 3660              		.cfi_offset 4, -12
 3661              		.cfi_offset 7, -8
 3662              		.cfi_offset 14, -4
 3663 0002 85B0     		sub	sp, sp, #20
 3664              		.cfi_def_cfa_offset 32
 3665 0004 00AF     		add	r7, sp, #0
 3666              		.cfi_def_cfa_register 7
 3667 0006 7860     		str	r0, [r7, #4]
 803:.\DisplayBLL.c ****     PDISPLAYLAYOUTPTR pdisplay = (PDISPLAYLAYOUTPTR)pparam;
 3668              		.loc 1 803 0
 3669 0008 7B68     		ldr	r3, [r7, #4]
 3670 000a FB60     		str	r3, [r7, #12]
 804:.\DisplayBLL.c ****     if(pdisplay)
 3671              		.loc 1 804 0
 3672 000c FB68     		ldr	r3, [r7, #12]
 3673 000e 002B     		cmp	r3, #0
 3674 0010 32D0     		beq	.L132
 3675              	.LBB47:
 805:.\DisplayBLL.c ****     {
 806:.\DisplayBLL.c ****         //CAREFUL WITH RETURNS BETWEEN THE LOCK/UNLOCK CALLS
 807:.\DisplayBLL.c ****         //AND RECURSIVE CALLS THAT WOULD DEADLOCK!
 808:.\DisplayBLL.c ****         I2CBusLock();
 3676              		.loc 1 808 0
 3677 0012 FFF7FEFF 		bl	I2CBusLock
 809:.\DisplayBLL.c ****         ClearEepromBuffer();
 3678              		.loc 1 809 0
 3679 0016 FFF7FEFF 		bl	ClearEepromBuffer
 810:.\DisplayBLL.c ****         
 811:.\DisplayBLL.c ****         LoadEepromPage(EEPROM_CONFIGURATION_PAGE7);
 3680              		.loc 1 811 0
 3681 001a 4FF4E070 		mov	r0, #448
 3682 001e FFF7FEFF 		bl	LoadEepromPage
 812:.\DisplayBLL.c ****         uint8 pumpoffset = ((uint8)GetEepromBuffer()[0x09]);
 3683              		.loc 1 812 0
 3684 0022 FFF7FEFF 		bl	GetEepromBuffer
 3685 0026 0346     		mov	r3, r0
 3686 0028 5B7A     		ldrb	r3, [r3, #9]
 3687 002a FB72     		strb	r3, [r7, #11]
 813:.\DisplayBLL.c ****         I2CBusUnlock();
 3688              		.loc 1 813 0
 3689 002c FFF7FEFF 		bl	I2CBusUnlock
 814:.\DisplayBLL.c ****         
 815:.\DisplayBLL.c ****         memset(pdisplay->_bufferinfo._buffer, 0x00, _DISPLAY_BUFFER_SIZE_);
 3690              		.loc 1 815 0
 3691 0030 FB68     		ldr	r3, [r7, #12]
 3692 0032 1D33     		adds	r3, r3, #29
 3693 0034 1846     		mov	r0, r3
 3694 0036 0021     		movs	r1, #0
 3695 0038 1022     		movs	r2, #16
 3696 003a FFF7FEFF 		bl	memset
 816:.\DisplayBLL.c ****         B78AD90CF552D9B30A(pumpoffset, PBYTECAST(pdisplay->_bufferinfo._buffer));
 3697              		.loc 1 816 0
 3698 003e FA7A     		ldrb	r2, [r7, #11]	@ zero_extendqisi2
 3699 0040 4FF00003 		mov	r3, #0
 3700 0044 F968     		ldr	r1, [r7, #12]
ARM GAS  C:\Users\RECEPC~1\AppData\Local\Temp\ccNQpeOs.s 			page 81


 3701 0046 01F11D04 		add	r4, r1, #29
 3702 004a 1046     		mov	r0, r2
 3703 004c 1946     		mov	r1, r3
 3704 004e 2246     		mov	r2, r4
 3705 0050 FFF7FEFF 		bl	B78AD90CF552D9B30A
 817:.\DisplayBLL.c ****         pdisplay->_bufferinfo._bufferindex = strlen(pdisplay->_bufferinfo._buffer);
 3706              		.loc 1 817 0
 3707 0054 FB68     		ldr	r3, [r7, #12]
 3708 0056 1D33     		adds	r3, r3, #29
 3709 0058 1846     		mov	r0, r3
 3710 005a FFF7FEFF 		bl	strlen
 3711 005e 0346     		mov	r3, r0
 3712 0060 DAB2     		uxtb	r2, r3
 3713 0062 FB68     		ldr	r3, [r7, #12]
 3714 0064 1A77     		strb	r2, [r3, #28]
 818:.\DisplayBLL.c ****         PSTRBUFFTOGG(PBYTECAST(pdisplay->_bufferinfo._buffer), pdisplay->_bufferinfo._bufferindex);
 3715              		.loc 1 818 0
 3716 0066 FB68     		ldr	r3, [r7, #12]
 3717 0068 03F11D02 		add	r2, r3, #29
 3718 006c FB68     		ldr	r3, [r7, #12]
 3719 006e 1B7F     		ldrb	r3, [r3, #28]	@ zero_extendqisi2
 3720 0070 1046     		mov	r0, r2
 3721 0072 1946     		mov	r1, r3
 3722 0074 FFF7FEFF 		bl	PSTRBUFFTOGG
 3723              	.L132:
 3724              	.LBE47:
 819:.\DisplayBLL.c ****     }
 820:.\DisplayBLL.c **** }
 3725              		.loc 1 820 0
 3726 0078 1437     		adds	r7, r7, #20
 3727              		.cfi_def_cfa_offset 12
 3728 007a BD46     		mov	sp, r7
 3729              		.cfi_def_cfa_register 13
 3730              		@ sp needed
 3731 007c 90BD     		pop	{r4, r7, pc}
 3732              		.cfi_endproc
 3733              	.LFE79:
 3734              		.size	DisplayPumpIDOffsetLoad, .-DisplayPumpIDOffsetLoad
 3735 007e 00BF     		.section	.text.DisplayPumpIDOffsetDecorator,"ax",%progbits
 3736              		.align	2
 3737              		.global	DisplayPumpIDOffsetDecorator
 3738              		.thumb
 3739              		.thumb_func
 3740              		.type	DisplayPumpIDOffsetDecorator, %function
 3741              	DisplayPumpIDOffsetDecorator:
 3742              	.LFB80:
 821:.\DisplayBLL.c **** 
 822:.\DisplayBLL.c **** void DisplayPumpIDOffsetDecorator(void *pparam)
 823:.\DisplayBLL.c **** {
 3743              		.loc 1 823 0
 3744              		.cfi_startproc
 3745              		@ args = 0, pretend = 0, frame = 24
 3746              		@ frame_needed = 1, uses_anonymous_args = 0
 3747 0000 F0B5     		push	{r4, r5, r6, r7, lr}
 3748              		.cfi_def_cfa_offset 20
 3749              		.cfi_offset 4, -20
 3750              		.cfi_offset 5, -16
ARM GAS  C:\Users\RECEPC~1\AppData\Local\Temp\ccNQpeOs.s 			page 82


 3751              		.cfi_offset 6, -12
 3752              		.cfi_offset 7, -8
 3753              		.cfi_offset 14, -4
 3754 0002 8BB0     		sub	sp, sp, #44
 3755              		.cfi_def_cfa_offset 64
 3756 0004 04AF     		add	r7, sp, #16
 3757              		.cfi_def_cfa 7, 48
 3758 0006 7860     		str	r0, [r7, #4]
 824:.\DisplayBLL.c ****     PDISPLAYLAYOUTPTR pdisplay = (PDISPLAYLAYOUTPTR)pparam;
 3759              		.loc 1 824 0
 3760 0008 7B68     		ldr	r3, [r7, #4]
 3761 000a 7B61     		str	r3, [r7, #20]
 825:.\DisplayBLL.c ****     if(pdisplay)
 3762              		.loc 1 825 0
 3763 000c 7B69     		ldr	r3, [r7, #20]
 3764 000e 002B     		cmp	r3, #0
 3765 0010 65D0     		beq	.L134
 826:.\DisplayBLL.c ****     {
 827:.\DisplayBLL.c ****         pdisplay->_bufferinfo._xpos = pdisplay->_pcurrflow->_inputboxinfo._xdefpos;
 3766              		.loc 1 827 0
 3767 0012 7B69     		ldr	r3, [r7, #20]
 3768 0014 1B69     		ldr	r3, [r3, #16]
 3769 0016 9A8D     		ldrh	r2, [r3, #44]
 3770 0018 7B69     		ldr	r3, [r7, #20]
 3771 001a 1A83     		strh	r2, [r3, #24]	@ movhi
 828:.\DisplayBLL.c ****         pdisplay->_bufferinfo._ypos = pdisplay->_pcurrflow->_inputboxinfo._ydefpos;
 3772              		.loc 1 828 0
 3773 001c 7B69     		ldr	r3, [r7, #20]
 3774 001e 1B69     		ldr	r3, [r3, #16]
 3775 0020 DA8D     		ldrh	r2, [r3, #46]
 3776 0022 7B69     		ldr	r3, [r7, #20]
 3777 0024 5A83     		strh	r2, [r3, #26]	@ movhi
 829:.\DisplayBLL.c ****         if(pdisplay->_dispid == DISPLAY1)
 3778              		.loc 1 829 0
 3779 0026 7B69     		ldr	r3, [r7, #20]
 3780 0028 1B78     		ldrb	r3, [r3]	@ zero_extendqisi2
 3781 002a 002B     		cmp	r3, #0
 3782 002c 2CD1     		bne	.L136
 3783              	.LBB48:
 830:.\DisplayBLL.c ****         {
 831:.\DisplayBLL.c ****             UARTMessage *puartdisp = GetUARTMessageSlot(UART_DISPLAY1);
 3784              		.loc 1 831 0
 3785 002e A320     		movs	r0, #163
 3786 0030 FFF7FEFF 		bl	GetUARTMessageSlot
 3787 0034 3861     		str	r0, [r7, #16]
 832:.\DisplayBLL.c ****             if(puartdisp)
 3788              		.loc 1 832 0
 3789 0036 3B69     		ldr	r3, [r7, #16]
 3790 0038 002B     		cmp	r3, #0
 3791 003a 24D0     		beq	.L137
 833:.\DisplayBLL.c ****             {
 834:.\DisplayBLL.c ****                 puartdisp->_messagelength = DisplayOutputString(pdisplay->_bufferinfo._xpos, pdispl
 3792              		.loc 1 834 0
 3793 003c 7B69     		ldr	r3, [r7, #20]
 3794 003e B3F818E0 		ldrh	lr, [r3, #24]
 3795 0042 7B69     		ldr	r3, [r7, #20]
 3796 0044 5E8B     		ldrh	r6, [r3, #26]
ARM GAS  C:\Users\RECEPC~1\AppData\Local\Temp\ccNQpeOs.s 			page 83


 3797 0046 3B69     		ldr	r3, [r7, #16]
 3798 0048 1D1D     		adds	r5, r3, #4
 3799 004a 7B69     		ldr	r3, [r7, #20]
 3800 004c 03F11D04 		add	r4, r3, #29
 3801 0050 7B69     		ldr	r3, [r7, #20]
 3802 0052 1B69     		ldr	r3, [r3, #16]
 3803 0054 93F83030 		ldrb	r3, [r3, #48]	@ zero_extendqisi2
 3804 0058 9BB2     		uxth	r3, r3
 3805 005a 7A69     		ldr	r2, [r7, #20]
 3806 005c 1269     		ldr	r2, [r2, #16]
 3807 005e 0093     		str	r3, [sp]
 3808 0060 01AB     		add	r3, sp, #4
 3809 0062 3232     		adds	r2, r2, #50
 3810 0064 1068     		ldr	r0, [r2]	@ unaligned
 3811 0066 5168     		ldr	r1, [r2, #4]	@ unaligned
 3812 0068 03C3     		stmia	r3!, {r0, r1}
 3813 006a 7046     		mov	r0, lr
 3814 006c 3146     		mov	r1, r6
 3815 006e 2A46     		mov	r2, r5
 3816 0070 2346     		mov	r3, r4
 3817 0072 FFF7FEFF 		bl	DisplayOutputString
 3818 0076 0346     		mov	r3, r0
 3819 0078 1A46     		mov	r2, r3
 3820 007a 3B69     		ldr	r3, [r7, #16]
 3821 007c 5A80     		strh	r2, [r3, #2]	@ movhi
 835:.\DisplayBLL.c ****                 puartdisp->_messagestate = PENDING;
 3822              		.loc 1 835 0
 3823 007e 3B69     		ldr	r3, [r7, #16]
 3824 0080 C222     		movs	r2, #194
 3825 0082 1A70     		strb	r2, [r3]
 3826              	.LBE48:
 3827 0084 2BE0     		b	.L134
 3828              	.L137:
 3829 0086 2AE0     		b	.L134
 3830              	.L136:
 3831              	.LBB49:
 836:.\DisplayBLL.c ****             }
 837:.\DisplayBLL.c ****         }
 838:.\DisplayBLL.c ****         else
 839:.\DisplayBLL.c ****         {
 840:.\DisplayBLL.c ****             UARTMessage *puartdisp = GetUARTMessageSlot(UART_DISPLAY2);
 3832              		.loc 1 840 0
 3833 0088 A420     		movs	r0, #164
 3834 008a FFF7FEFF 		bl	GetUARTMessageSlot
 3835 008e F860     		str	r0, [r7, #12]
 841:.\DisplayBLL.c ****             if(puartdisp)
 3836              		.loc 1 841 0
 3837 0090 FB68     		ldr	r3, [r7, #12]
 3838 0092 002B     		cmp	r3, #0
 3839 0094 23D0     		beq	.L134
 842:.\DisplayBLL.c ****             {
 843:.\DisplayBLL.c ****                 puartdisp->_messagelength = DisplayOutputString(pdisplay->_bufferinfo._xpos, pdispl
 3840              		.loc 1 843 0
 3841 0096 7B69     		ldr	r3, [r7, #20]
 3842 0098 B3F818E0 		ldrh	lr, [r3, #24]
 3843 009c 7B69     		ldr	r3, [r7, #20]
 3844 009e 5E8B     		ldrh	r6, [r3, #26]
ARM GAS  C:\Users\RECEPC~1\AppData\Local\Temp\ccNQpeOs.s 			page 84


 3845 00a0 FB68     		ldr	r3, [r7, #12]
 3846 00a2 1D1D     		adds	r5, r3, #4
 3847 00a4 7B69     		ldr	r3, [r7, #20]
 3848 00a6 03F11D04 		add	r4, r3, #29
 3849 00aa 7B69     		ldr	r3, [r7, #20]
 3850 00ac 1B69     		ldr	r3, [r3, #16]
 3851 00ae 93F83030 		ldrb	r3, [r3, #48]	@ zero_extendqisi2
 3852 00b2 9BB2     		uxth	r3, r3
 3853 00b4 7A69     		ldr	r2, [r7, #20]
 3854 00b6 1269     		ldr	r2, [r2, #16]
 3855 00b8 0093     		str	r3, [sp]
 3856 00ba 01AB     		add	r3, sp, #4
 3857 00bc 3232     		adds	r2, r2, #50
 3858 00be 1068     		ldr	r0, [r2]	@ unaligned
 3859 00c0 5168     		ldr	r1, [r2, #4]	@ unaligned
 3860 00c2 03C3     		stmia	r3!, {r0, r1}
 3861 00c4 7046     		mov	r0, lr
 3862 00c6 3146     		mov	r1, r6
 3863 00c8 2A46     		mov	r2, r5
 3864 00ca 2346     		mov	r3, r4
 3865 00cc FFF7FEFF 		bl	DisplayOutputString
 3866 00d0 0346     		mov	r3, r0
 3867 00d2 1A46     		mov	r2, r3
 3868 00d4 FB68     		ldr	r3, [r7, #12]
 3869 00d6 5A80     		strh	r2, [r3, #2]	@ movhi
 844:.\DisplayBLL.c ****                 puartdisp->_messagestate = PENDING;
 3870              		.loc 1 844 0
 3871 00d8 FB68     		ldr	r3, [r7, #12]
 3872 00da C222     		movs	r2, #194
 3873 00dc 1A70     		strb	r2, [r3]
 3874              	.L134:
 3875              	.LBE49:
 845:.\DisplayBLL.c ****             }
 846:.\DisplayBLL.c ****         }
 847:.\DisplayBLL.c ****     }
 848:.\DisplayBLL.c **** }
 3876              		.loc 1 848 0
 3877 00de 1C37     		adds	r7, r7, #28
 3878              		.cfi_def_cfa_offset 20
 3879 00e0 BD46     		mov	sp, r7
 3880              		.cfi_def_cfa_register 13
 3881              		@ sp needed
 3882 00e2 F0BD     		pop	{r4, r5, r6, r7, pc}
 3883              		.cfi_endproc
 3884              	.LFE80:
 3885              		.size	DisplayPumpIDOffsetDecorator, .-DisplayPumpIDOffsetDecorator
 3886              		.section	.text.DisplayPumpIDOffsetStore,"ax",%progbits
 3887              		.align	2
 3888              		.global	DisplayPumpIDOffsetStore
 3889              		.thumb
 3890              		.thumb_func
 3891              		.type	DisplayPumpIDOffsetStore, %function
 3892              	DisplayPumpIDOffsetStore:
 3893              	.LFB81:
 849:.\DisplayBLL.c **** 
 850:.\DisplayBLL.c **** void DisplayPumpIDOffsetStore(void *pparam)
 851:.\DisplayBLL.c **** {
ARM GAS  C:\Users\RECEPC~1\AppData\Local\Temp\ccNQpeOs.s 			page 85


 3894              		.loc 1 851 0
 3895              		.cfi_startproc
 3896              		@ args = 0, pretend = 0, frame = 16
 3897              		@ frame_needed = 1, uses_anonymous_args = 0
 3898 0000 B0B5     		push	{r4, r5, r7, lr}
 3899              		.cfi_def_cfa_offset 16
 3900              		.cfi_offset 4, -16
 3901              		.cfi_offset 5, -12
 3902              		.cfi_offset 7, -8
 3903              		.cfi_offset 14, -4
 3904 0002 84B0     		sub	sp, sp, #16
 3905              		.cfi_def_cfa_offset 32
 3906 0004 00AF     		add	r7, sp, #0
 3907              		.cfi_def_cfa_register 7
 3908 0006 7860     		str	r0, [r7, #4]
 852:.\DisplayBLL.c ****     PDISPLAYLAYOUTPTR pdisplay = (PDISPLAYLAYOUTPTR)pparam;
 3909              		.loc 1 852 0
 3910 0008 7B68     		ldr	r3, [r7, #4]
 3911 000a BB60     		str	r3, [r7, #8]
 853:.\DisplayBLL.c ****     if(pdisplay)
 3912              		.loc 1 853 0
 3913 000c BB68     		ldr	r3, [r7, #8]
 3914 000e 002B     		cmp	r3, #0
 3915 0010 50D0     		beq	.L138
 3916              	.LBB50:
 854:.\DisplayBLL.c ****     {
 855:.\DisplayBLL.c ****         //CAREFUL WITH RETURNS BETWEEN THE LOCK/UNLOCK CALLS
 856:.\DisplayBLL.c ****         //AND RECURSIVE CALLS THAT WOULD DEADLOCK!
 857:.\DisplayBLL.c ****         uint8 pumpidoffset = 0x00;
 3917              		.loc 1 857 0
 3918 0012 0023     		movs	r3, #0
 3919 0014 FB73     		strb	r3, [r7, #15]
 858:.\DisplayBLL.c ****         FOR(uint8 index = 0, index < pdisplay->_bufferinfo._bufferindex, index++)
 3920              		.loc 1 858 0
 3921 0016 0023     		movs	r3, #0
 3922 0018 BB73     		strb	r3, [r7, #14]
 3923 001a 2FE0     		b	.L140
 3924              	.L141:
 859:.\DisplayBLL.c ****             pumpidoffset += (uint16)(pow(10, pdisplay->_bufferinfo._bufferindex - index - 1)*(pdisp
 3925              		.loc 1 859 0 discriminator 3
 3926 001c BB68     		ldr	r3, [r7, #8]
 3927 001e 1B7F     		ldrb	r3, [r3, #28]	@ zero_extendqisi2
 3928 0020 1A46     		mov	r2, r3
 3929 0022 BB7B     		ldrb	r3, [r7, #14]	@ zero_extendqisi2
 3930 0024 D31A     		subs	r3, r2, r3
 3931 0026 013B     		subs	r3, r3, #1
 3932 0028 1846     		mov	r0, r3
 3933 002a FFF7FEFF 		bl	__aeabi_i2d
 3934 002e 0246     		mov	r2, r0
 3935 0030 0B46     		mov	r3, r1
 3936 0032 4FF00000 		mov	r0, #0
 3937 0036 2149     		ldr	r1, .L142
 3938 0038 FFF7FEFF 		bl	pow
 3939 003c 0446     		mov	r4, r0
 3940 003e 0D46     		mov	r5, r1
 3941 0040 BB7B     		ldrb	r3, [r7, #14]	@ zero_extendqisi2
 3942 0042 BA68     		ldr	r2, [r7, #8]
ARM GAS  C:\Users\RECEPC~1\AppData\Local\Temp\ccNQpeOs.s 			page 86


 3943 0044 1344     		add	r3, r3, r2
 3944 0046 5B7F     		ldrb	r3, [r3, #29]	@ zero_extendqisi2
 3945 0048 03F00F03 		and	r3, r3, #15
 3946 004c 1846     		mov	r0, r3
 3947 004e FFF7FEFF 		bl	__aeabi_i2d
 3948 0052 0246     		mov	r2, r0
 3949 0054 0B46     		mov	r3, r1
 3950 0056 2046     		mov	r0, r4
 3951 0058 2946     		mov	r1, r5
 3952 005a FFF7FEFF 		bl	__aeabi_dmul
 3953 005e 0246     		mov	r2, r0
 3954 0060 0B46     		mov	r3, r1
 3955 0062 1046     		mov	r0, r2
 3956 0064 1946     		mov	r1, r3
 3957 0066 FFF7FEFF 		bl	__aeabi_d2uiz
 3958 006a 0346     		mov	r3, r0
 3959 006c 9BB2     		uxth	r3, r3
 3960 006e DAB2     		uxtb	r2, r3
 3961 0070 FB7B     		ldrb	r3, [r7, #15]
 3962 0072 1344     		add	r3, r3, r2
 3963 0074 FB73     		strb	r3, [r7, #15]
 858:.\DisplayBLL.c ****         FOR(uint8 index = 0, index < pdisplay->_bufferinfo._bufferindex, index++)
 3964              		.loc 1 858 0 discriminator 3
 3965 0076 BB7B     		ldrb	r3, [r7, #14]	@ zero_extendqisi2
 3966 0078 0133     		adds	r3, r3, #1
 3967 007a BB73     		strb	r3, [r7, #14]
 3968              	.L140:
 858:.\DisplayBLL.c ****         FOR(uint8 index = 0, index < pdisplay->_bufferinfo._bufferindex, index++)
 3969              		.loc 1 858 0 is_stmt 0 discriminator 1
 3970 007c BB68     		ldr	r3, [r7, #8]
 3971 007e 1B7F     		ldrb	r3, [r3, #28]	@ zero_extendqisi2
 3972 0080 BA7B     		ldrb	r2, [r7, #14]	@ zero_extendqisi2
 3973 0082 9A42     		cmp	r2, r3
 3974 0084 CAD3     		bcc	.L141
 860:.\DisplayBLL.c ****             
 861:.\DisplayBLL.c ****         I2CBusLock();
 3975              		.loc 1 861 0 is_stmt 1
 3976 0086 FFF7FEFF 		bl	I2CBusLock
 862:.\DisplayBLL.c ****         ClearEepromBuffer();
 3977              		.loc 1 862 0
 3978 008a FFF7FEFF 		bl	ClearEepromBuffer
 863:.\DisplayBLL.c ****         
 864:.\DisplayBLL.c ****         LoadEepromPage(EEPROM_CONFIGURATION_PAGE7);
 3979              		.loc 1 864 0
 3980 008e 4FF4E070 		mov	r0, #448
 3981 0092 FFF7FEFF 		bl	LoadEepromPage
 865:.\DisplayBLL.c ****         GetEepromBuffer()[0x09] = (uint8)pumpidoffset;
 3982              		.loc 1 865 0
 3983 0096 FFF7FEFF 		bl	GetEepromBuffer
 3984 009a 0346     		mov	r3, r0
 3985 009c 0933     		adds	r3, r3, #9
 3986 009e FA7B     		ldrb	r2, [r7, #15]
 3987 00a0 1A70     		strb	r2, [r3]
 866:.\DisplayBLL.c ****         StoreEepromPage(EEPROM_CONFIGURATION_PAGE7);
 3988              		.loc 1 866 0
 3989 00a2 4FF4E070 		mov	r0, #448
 3990 00a6 FFF7FEFF 		bl	StoreEepromPage
ARM GAS  C:\Users\RECEPC~1\AppData\Local\Temp\ccNQpeOs.s 			page 87


 867:.\DisplayBLL.c ****         
 868:.\DisplayBLL.c ****         _g_dispenserlayoutinfo._positionoffset = (uint8)pumpidoffset;
 3991              		.loc 1 868 0
 3992 00aa 054A     		ldr	r2, .L142+4
 3993 00ac FB7B     		ldrb	r3, [r7, #15]
 3994 00ae 9374     		strb	r3, [r2, #18]
 869:.\DisplayBLL.c ****         
 870:.\DisplayBLL.c ****         I2CBusUnlock();
 3995              		.loc 1 870 0
 3996 00b0 FFF7FEFF 		bl	I2CBusUnlock
 3997              	.L138:
 3998              	.LBE50:
 871:.\DisplayBLL.c ****         
 872:.\DisplayBLL.c ****     }
 873:.\DisplayBLL.c **** }
 3999              		.loc 1 873 0
 4000 00b4 1037     		adds	r7, r7, #16
 4001              		.cfi_def_cfa_offset 16
 4002 00b6 BD46     		mov	sp, r7
 4003              		.cfi_def_cfa_register 13
 4004              		@ sp needed
 4005 00b8 B0BD     		pop	{r4, r5, r7, pc}
 4006              	.L143:
 4007 00ba 00BF     		.align	2
 4008              	.L142:
 4009 00bc 00002440 		.word	1076101120
 4010 00c0 00000000 		.word	_g_dispenserlayoutinfo
 4011              		.cfi_endproc
 4012              	.LFE81:
 4013              		.size	DisplayPumpIDOffsetStore, .-DisplayPumpIDOffsetStore
 4014              		.section	.rodata
 4015 014f 00       		.align	2
 4016              	.LC6:
 4017 0150 AA       		.byte	-86
 4018 0151 00       		.byte	0
 4019 0152 00       		.byte	0
 4020 0153 FF       		.byte	-1
 4021 0154 CC       		.byte	-52
 4022 0155 33       		.byte	51
 4023 0156 C3       		.byte	-61
 4024 0157 3C       		.byte	60
 4025              		.section	.text.iButtonScreenNotification,"ax",%progbits
 4026              		.align	2
 4027              		.global	iButtonScreenNotification
 4028              		.thumb
 4029              		.thumb_func
 4030              		.type	iButtonScreenNotification, %function
 4031              	iButtonScreenNotification:
 4032              	.LFB82:
 874:.\DisplayBLL.c **** 
 875:.\DisplayBLL.c **** //@Created By: HIJH
 876:.\DisplayBLL.c **** //@Septembre de 2016
 877:.\DisplayBLL.c **** void iButtonScreenNotification(LPVOID pparam)
 878:.\DisplayBLL.c **** {
 4033              		.loc 1 878 0
 4034              		.cfi_startproc
 4035              		@ args = 0, pretend = 0, frame = 32
ARM GAS  C:\Users\RECEPC~1\AppData\Local\Temp\ccNQpeOs.s 			page 88


 4036              		@ frame_needed = 1, uses_anonymous_args = 0
 4037 0000 80B5     		push	{r7, lr}
 4038              		.cfi_def_cfa_offset 8
 4039              		.cfi_offset 7, -8
 4040              		.cfi_offset 14, -4
 4041 0002 88B0     		sub	sp, sp, #32
 4042              		.cfi_def_cfa_offset 40
 4043 0004 00AF     		add	r7, sp, #0
 4044              		.cfi_def_cfa_register 7
 4045 0006 7860     		str	r0, [r7, #4]
 879:.\DisplayBLL.c ****     PSINKMESSAGEPTR pmsg = (PSINKMESSAGEPTR)pparam;
 4046              		.loc 1 879 0
 4047 0008 7B68     		ldr	r3, [r7, #4]
 4048 000a FB61     		str	r3, [r7, #28]
 880:.\DisplayBLL.c ****     PDISPLAYLAYOUTPTR pdisplay = (PDISPLAYLAYOUTPTR)pmsg->_pdata;
 4049              		.loc 1 880 0
 4050 000c FB69     		ldr	r3, [r7, #28]
 4051 000e D3F89031 		ldr	r3, [r3, #400]
 4052 0012 BB61     		str	r3, [r7, #24]
 881:.\DisplayBLL.c ****     if(pdisplay)
 4053              		.loc 1 881 0
 4054 0014 BB69     		ldr	r3, [r7, #24]
 4055 0016 002B     		cmp	r3, #0
 4056 0018 38D0     		beq	.L144
 4057              	.LBB51:
 882:.\DisplayBLL.c ****     {
 883:.\DisplayBLL.c ****         pdisplay->_timeoutscrid = DISPLAY_ID_RECONOCIDO;
 4058              		.loc 1 883 0
 4059 001a BB69     		ldr	r3, [r7, #24]
 4060 001c 1322     		movs	r2, #19
 4061 001e 9A72     		strb	r2, [r3, #10]
 884:.\DisplayBLL.c ****         //Here we are storing the serial identifier read from the iButton device
 885:.\DisplayBLL.c ****         memcpy(pdisplay->_bufferinfo._buffer, pmsg->_buffer, _IBUTTON_PAYLOAD_LENGTH_);
 4062              		.loc 1 885 0
 4063 0020 BB69     		ldr	r3, [r7, #24]
 4064 0022 03F11D02 		add	r2, r3, #29
 4065 0026 FB69     		ldr	r3, [r7, #28]
 4066 0028 0C33     		adds	r3, r3, #12
 4067 002a 1046     		mov	r0, r2
 4068 002c 1946     		mov	r1, r3
 4069 002e 0822     		movs	r2, #8
 4070 0030 FFF7FEFF 		bl	memcpy
 886:.\DisplayBLL.c ****         pdisplay->_bufferinfo._bufferindex = _IBUTTON_PAYLOAD_LENGTH_;
 4071              		.loc 1 886 0
 4072 0034 BB69     		ldr	r3, [r7, #24]
 4073 0036 0822     		movs	r2, #8
 4074 0038 1A77     		strb	r2, [r3, #28]
 887:.\DisplayBLL.c ****         
 888:.\DisplayBLL.c ****         _ALLOCATE_SINKMESSAGE_SLOT(psinkmsg);
 4075              		.loc 1 888 0
 4076 003a FFF7FEFF 		bl	AllocateMessageSlot
 4077 003e 7861     		str	r0, [r7, #20]
 889:.\DisplayBLL.c ****         if(psinkmsg)
 4078              		.loc 1 889 0
 4079 0040 7B69     		ldr	r3, [r7, #20]
 4080 0042 002B     		cmp	r3, #0
 4081 0044 22D0     		beq	.L144
ARM GAS  C:\Users\RECEPC~1\AppData\Local\Temp\ccNQpeOs.s 			page 89


 4082              	.LBB52:
 890:.\DisplayBLL.c ****         {
 891:.\DisplayBLL.c ****             
 892:.\DisplayBLL.c ****             char8 pdummybuffer[] = { 0xAA, 0x00, 0x00, 0xFF, 0xCC, 0x33, 0xC3, 0x3C };
 4083              		.loc 1 892 0
 4084 0046 134A     		ldr	r2, .L148
 4085 0048 07F10C03 		add	r3, r7, #12
 4086 004c 1068     		ldr	r0, [r2]	@ unaligned
 4087 004e 5168     		ldr	r1, [r2, #4]	@ unaligned
 4088 0050 03C3     		stmia	r3!, {r0, r1}
 893:.\DisplayBLL.c ****             if(pdisplay->_dispid == DISPLAY1)
 4089              		.loc 1 893 0
 4090 0052 BB69     		ldr	r3, [r7, #24]
 4091 0054 1B78     		ldrb	r3, [r3]	@ zero_extendqisi2
 4092 0056 002B     		cmp	r3, #0
 4093 0058 03D1     		bne	.L146
 894:.\DisplayBLL.c ****                 psinkmsg->_messageid = DISPLAY1_RECEPTION;
 4094              		.loc 1 894 0
 4095 005a 7B69     		ldr	r3, [r7, #20]
 4096 005c 1F22     		movs	r2, #31
 4097 005e 5A70     		strb	r2, [r3, #1]
 4098 0060 02E0     		b	.L147
 4099              	.L146:
 895:.\DisplayBLL.c ****             else
 896:.\DisplayBLL.c ****                 psinkmsg->_messageid = DISPLAY2_RECEPTION;
 4100              		.loc 1 896 0
 4101 0062 7B69     		ldr	r3, [r7, #20]
 4102 0064 2322     		movs	r2, #35
 4103 0066 5A70     		strb	r2, [r3, #1]
 4104              	.L147:
 897:.\DisplayBLL.c ****             
 898:.\DisplayBLL.c ****             psinkmsg->_messagetype = FIRSTFOUND;
 4105              		.loc 1 898 0
 4106 0068 7B69     		ldr	r3, [r7, #20]
 4107 006a 0322     		movs	r2, #3
 4108 006c 9A70     		strb	r2, [r3, #2]
 899:.\DisplayBLL.c ****             memcpy(psinkmsg->_buffer, (const void*)pdummybuffer, sizeof(pdummybuffer));
 4109              		.loc 1 899 0
 4110 006e 7B69     		ldr	r3, [r7, #20]
 4111 0070 0C33     		adds	r3, r3, #12
 4112 0072 1A46     		mov	r2, r3
 4113 0074 07F10C03 		add	r3, r7, #12
 4114 0078 03CB     		ldmia	r3!, {r0, r1}
 4115 007a 1060     		str	r0, [r2]	@ unaligned
 4116 007c 5160     		str	r1, [r2, #4]	@ unaligned
 900:.\DisplayBLL.c ****             psinkmsg->_buffersize = sizeof(pdummybuffer);
 4117              		.loc 1 900 0
 4118 007e 7B69     		ldr	r3, [r7, #20]
 4119 0080 0822     		movs	r2, #8
 4120 0082 A3F88C21 		strh	r2, [r3, #396]	@ movhi
 901:.\DisplayBLL.c ****             psinkmsg->_messagestate = SINK_BUSY;
 4121              		.loc 1 901 0
 4122 0086 7B69     		ldr	r3, [r7, #20]
 4123 0088 0322     		movs	r2, #3
 4124 008a DA70     		strb	r2, [r3, #3]
 4125              	.L144:
 4126              	.LBE52:
ARM GAS  C:\Users\RECEPC~1\AppData\Local\Temp\ccNQpeOs.s 			page 90


 4127              	.LBE51:
 902:.\DisplayBLL.c ****             
 903:.\DisplayBLL.c ****         }
 904:.\DisplayBLL.c ****     }
 905:.\DisplayBLL.c **** }
 4128              		.loc 1 905 0
 4129 008c 2037     		adds	r7, r7, #32
 4130              		.cfi_def_cfa_offset 8
 4131 008e BD46     		mov	sp, r7
 4132              		.cfi_def_cfa_register 13
 4133              		@ sp needed
 4134 0090 80BD     		pop	{r7, pc}
 4135              	.L149:
 4136 0092 00BF     		.align	2
 4137              	.L148:
 4138 0094 50010000 		.word	.LC6
 4139              		.cfi_endproc
 4140              	.LFE82:
 4141              		.size	iButtonScreenNotification, .-iButtonScreenNotification
 4142              		.section	.text.TerminateiButtonScan,"ax",%progbits
 4143              		.align	2
 4144              		.global	TerminateiButtonScan
 4145              		.thumb
 4146              		.thumb_func
 4147              		.type	TerminateiButtonScan, %function
 4148              	TerminateiButtonScan:
 4149              	.LFB83:
 906:.\DisplayBLL.c **** 
 907:.\DisplayBLL.c **** //@Created By: HIJH
 908:.\DisplayBLL.c **** //@Septembre de 2016
 909:.\DisplayBLL.c **** void TerminateiButtonScan(void *pparam)
 910:.\DisplayBLL.c **** {
 4150              		.loc 1 910 0
 4151              		.cfi_startproc
 4152              		@ args = 0, pretend = 0, frame = 16
 4153              		@ frame_needed = 1, uses_anonymous_args = 0
 4154              		@ link register save eliminated.
 4155 0000 80B4     		push	{r7}
 4156              		.cfi_def_cfa_offset 4
 4157              		.cfi_offset 7, -4
 4158 0002 85B0     		sub	sp, sp, #20
 4159              		.cfi_def_cfa_offset 24
 4160 0004 00AF     		add	r7, sp, #0
 4161              		.cfi_def_cfa_register 7
 4162 0006 7860     		str	r0, [r7, #4]
 911:.\DisplayBLL.c ****     PDISPLAYLAYOUTPTR pdisplay = (PDISPLAYLAYOUTPTR)pparam;
 4163              		.loc 1 911 0
 4164 0008 7B68     		ldr	r3, [r7, #4]
 4165 000a FB60     		str	r3, [r7, #12]
 912:.\DisplayBLL.c ****     if(pdisplay->_pdata)
 4166              		.loc 1 912 0
 4167 000c FB68     		ldr	r3, [r7, #12]
 4168 000e 5B6B     		ldr	r3, [r3, #52]
 4169 0010 002B     		cmp	r3, #0
 4170 0012 0AD0     		beq	.L150
 913:.\DisplayBLL.c ****     {
 914:.\DisplayBLL.c ****         if((PSINKMESSAGEPTR)pdisplay->_pdata)
ARM GAS  C:\Users\RECEPC~1\AppData\Local\Temp\ccNQpeOs.s 			page 91


 4171              		.loc 1 914 0
 4172 0014 FB68     		ldr	r3, [r7, #12]
 4173 0016 5B6B     		ldr	r3, [r3, #52]
 4174 0018 002B     		cmp	r3, #0
 4175 001a 03D0     		beq	.L152
 915:.\DisplayBLL.c ****             ((PSINKMESSAGEPTR)pdisplay->_pdata)->_selfkill = true;
 4176              		.loc 1 915 0
 4177 001c FB68     		ldr	r3, [r7, #12]
 4178 001e 5B6B     		ldr	r3, [r3, #52]
 4179 0020 0122     		movs	r2, #1
 4180 0022 1A70     		strb	r2, [r3]
 4181              	.L152:
 916:.\DisplayBLL.c ****             
 917:.\DisplayBLL.c ****         pdisplay->_pdata = PNEAR_NULLPTR;
 4182              		.loc 1 917 0
 4183 0024 FB68     		ldr	r3, [r7, #12]
 4184 0026 0022     		movs	r2, #0
 4185 0028 5A63     		str	r2, [r3, #52]
 4186              	.L150:
 918:.\DisplayBLL.c ****     }
 919:.\DisplayBLL.c **** }
 4187              		.loc 1 919 0
 4188 002a 1437     		adds	r7, r7, #20
 4189              		.cfi_def_cfa_offset 4
 4190 002c BD46     		mov	sp, r7
 4191              		.cfi_def_cfa_register 13
 4192              		@ sp needed
 4193 002e 5DF8047B 		ldr	r7, [sp], #4
 4194              		.cfi_restore 7
 4195              		.cfi_def_cfa_offset 0
 4196 0032 7047     		bx	lr
 4197              		.cfi_endproc
 4198              	.LFE83:
 4199              		.size	TerminateiButtonScan, .-TerminateiButtonScan
 4200              		.section	.text.InitiateiButtonScan,"ax",%progbits
 4201              		.align	2
 4202              		.global	InitiateiButtonScan
 4203              		.thumb
 4204              		.thumb_func
 4205              		.type	InitiateiButtonScan, %function
 4206              	InitiateiButtonScan:
 4207              	.LFB84:
 920:.\DisplayBLL.c **** 
 921:.\DisplayBLL.c **** //@Created By: HIJH
 922:.\DisplayBLL.c **** //@Septembre de 2016
 923:.\DisplayBLL.c **** void InitiateiButtonScan(void *pparam)
 924:.\DisplayBLL.c **** {
 4208              		.loc 1 924 0
 4209              		.cfi_startproc
 4210              		@ args = 0, pretend = 0, frame = 24
 4211              		@ frame_needed = 1, uses_anonymous_args = 0
 4212 0000 80B5     		push	{r7, lr}
 4213              		.cfi_def_cfa_offset 8
 4214              		.cfi_offset 7, -8
 4215              		.cfi_offset 14, -4
 4216 0002 86B0     		sub	sp, sp, #24
 4217              		.cfi_def_cfa_offset 32
ARM GAS  C:\Users\RECEPC~1\AppData\Local\Temp\ccNQpeOs.s 			page 92


 4218 0004 00AF     		add	r7, sp, #0
 4219              		.cfi_def_cfa_register 7
 4220 0006 7860     		str	r0, [r7, #4]
 925:.\DisplayBLL.c ****     PDISPLAYLAYOUTPTR pdisplay = (PDISPLAYLAYOUTPTR)pparam;
 4221              		.loc 1 925 0
 4222 0008 7B68     		ldr	r3, [r7, #4]
 4223 000a 7B61     		str	r3, [r7, #20]
 926:.\DisplayBLL.c ****     if(pdisplay->_dispid == DISPLAY1)
 4224              		.loc 1 926 0
 4225 000c 7B69     		ldr	r3, [r7, #20]
 4226 000e 1B78     		ldrb	r3, [r3]	@ zero_extendqisi2
 4227 0010 002B     		cmp	r3, #0
 4228 0012 22D1     		bne	.L154
 4229              	.LBB53:
 927:.\DisplayBLL.c ****     {
 928:.\DisplayBLL.c ****         PSINKMESSAGEPTR psinkmsg = AllocateMessageSlot();
 4230              		.loc 1 928 0
 4231 0014 FFF7FEFF 		bl	AllocateMessageSlot
 4232 0018 3861     		str	r0, [r7, #16]
 929:.\DisplayBLL.c ****         if(psinkmsg)
 4233              		.loc 1 929 0
 4234 001a 3B69     		ldr	r3, [r7, #16]
 4235 001c 002B     		cmp	r3, #0
 4236 001e 1BD0     		beq	.L155
 930:.\DisplayBLL.c ****         {
 931:.\DisplayBLL.c ****             pdisplay->_pdata = psinkmsg;
 4237              		.loc 1 931 0
 4238 0020 7B69     		ldr	r3, [r7, #20]
 4239 0022 3A69     		ldr	r2, [r7, #16]
 4240 0024 5A63     		str	r2, [r3, #52]
 932:.\DisplayBLL.c ****             psinkmsg->_pdata = pdisplay;
 4241              		.loc 1 932 0
 4242 0026 3B69     		ldr	r3, [r7, #16]
 4243 0028 7A69     		ldr	r2, [r7, #20]
 4244 002a C3F89021 		str	r2, [r3, #400]
 933:.\DisplayBLL.c ****             psinkmsg->_messageid = IBUTTON1_SCAN;
 4245              		.loc 1 933 0
 4246 002e 3B69     		ldr	r3, [r7, #16]
 4247 0030 2722     		movs	r2, #39
 4248 0032 5A70     		strb	r2, [r3, #1]
 934:.\DisplayBLL.c ****             psinkmsg->_messagetimeoutlimit = _SINK_TIMEOUT_50MS_;
 4249              		.loc 1 934 0
 4250 0034 3B69     		ldr	r3, [r7, #16]
 4251 0036 3222     		movs	r2, #50
 4252 0038 5A81     		strh	r2, [r3, #10]	@ movhi
 935:.\DisplayBLL.c ****             psinkmsg->_messagedelay = _SINK_TIMEOUT_1S_;
 4253              		.loc 1 935 0
 4254 003a 3B69     		ldr	r3, [r7, #16]
 4255 003c 4FF47A72 		mov	r2, #1000
 4256 0040 9A80     		strh	r2, [r3, #4]	@ movhi
 936:.\DisplayBLL.c ****             psinkmsg->Callback = iButtonScreenNotification;
 4257              		.loc 1 936 0
 4258 0042 3B69     		ldr	r3, [r7, #16]
 4259 0044 194A     		ldr	r2, .L157
 4260 0046 C3F89421 		str	r2, [r3, #404]
 937:.\DisplayBLL.c ****             psinkmsg->_messagetype = FIRSTFOUNDFOREVER;
 4261              		.loc 1 937 0
ARM GAS  C:\Users\RECEPC~1\AppData\Local\Temp\ccNQpeOs.s 			page 93


 4262 004a 3B69     		ldr	r3, [r7, #16]
 4263 004c 0622     		movs	r2, #6
 4264 004e 9A70     		strb	r2, [r3, #2]
 938:.\DisplayBLL.c ****             psinkmsg->_messagestate = SINK_BUSY;
 4265              		.loc 1 938 0
 4266 0050 3B69     		ldr	r3, [r7, #16]
 4267 0052 0322     		movs	r2, #3
 4268 0054 DA70     		strb	r2, [r3, #3]
 4269              	.LBE53:
 4270 0056 25E0     		b	.L153
 4271              	.L155:
 4272 0058 24E0     		b	.L153
 4273              	.L154:
 939:.\DisplayBLL.c ****         }        
 940:.\DisplayBLL.c ****     }
 941:.\DisplayBLL.c ****     else if(pdisplay->_dispid == DISPLAY2)
 4274              		.loc 1 941 0
 4275 005a 7B69     		ldr	r3, [r7, #20]
 4276 005c 1B78     		ldrb	r3, [r3]	@ zero_extendqisi2
 4277 005e 012B     		cmp	r3, #1
 4278 0060 20D1     		bne	.L153
 4279              	.LBB54:
 942:.\DisplayBLL.c ****     {
 943:.\DisplayBLL.c ****         PSINKMESSAGEPTR psinkmsg = AllocateMessageSlot();
 4280              		.loc 1 943 0
 4281 0062 FFF7FEFF 		bl	AllocateMessageSlot
 4282 0066 F860     		str	r0, [r7, #12]
 944:.\DisplayBLL.c ****         if(psinkmsg)
 4283              		.loc 1 944 0
 4284 0068 FB68     		ldr	r3, [r7, #12]
 4285 006a 002B     		cmp	r3, #0
 4286 006c 1AD0     		beq	.L153
 945:.\DisplayBLL.c ****         {
 946:.\DisplayBLL.c ****             pdisplay->_pdata = psinkmsg;
 4287              		.loc 1 946 0
 4288 006e 7B69     		ldr	r3, [r7, #20]
 4289 0070 FA68     		ldr	r2, [r7, #12]
 4290 0072 5A63     		str	r2, [r3, #52]
 947:.\DisplayBLL.c ****             psinkmsg->_pdata = pdisplay;
 4291              		.loc 1 947 0
 4292 0074 FB68     		ldr	r3, [r7, #12]
 4293 0076 7A69     		ldr	r2, [r7, #20]
 4294 0078 C3F89021 		str	r2, [r3, #400]
 948:.\DisplayBLL.c ****             psinkmsg->_messageid = IBUTTON2_SCAN;
 4295              		.loc 1 948 0
 4296 007c FB68     		ldr	r3, [r7, #12]
 4297 007e 2822     		movs	r2, #40
 4298 0080 5A70     		strb	r2, [r3, #1]
 949:.\DisplayBLL.c ****             psinkmsg->_messagetimeoutlimit = _SINK_TIMEOUT_50MS_;
 4299              		.loc 1 949 0
 4300 0082 FB68     		ldr	r3, [r7, #12]
 4301 0084 3222     		movs	r2, #50
 4302 0086 5A81     		strh	r2, [r3, #10]	@ movhi
 950:.\DisplayBLL.c ****             psinkmsg->_messagedelay = _SINK_TIMEOUT_1S_;
 4303              		.loc 1 950 0
 4304 0088 FB68     		ldr	r3, [r7, #12]
 4305 008a 4FF47A72 		mov	r2, #1000
ARM GAS  C:\Users\RECEPC~1\AppData\Local\Temp\ccNQpeOs.s 			page 94


 4306 008e 9A80     		strh	r2, [r3, #4]	@ movhi
 951:.\DisplayBLL.c ****             psinkmsg->Callback = iButtonScreenNotification;
 4307              		.loc 1 951 0
 4308 0090 FB68     		ldr	r3, [r7, #12]
 4309 0092 064A     		ldr	r2, .L157
 4310 0094 C3F89421 		str	r2, [r3, #404]
 952:.\DisplayBLL.c ****             psinkmsg->_messagetype = FIRSTFOUNDFOREVER;
 4311              		.loc 1 952 0
 4312 0098 FB68     		ldr	r3, [r7, #12]
 4313 009a 0622     		movs	r2, #6
 4314 009c 9A70     		strb	r2, [r3, #2]
 953:.\DisplayBLL.c ****             psinkmsg->_messagestate = SINK_BUSY;
 4315              		.loc 1 953 0
 4316 009e FB68     		ldr	r3, [r7, #12]
 4317 00a0 0322     		movs	r2, #3
 4318 00a2 DA70     		strb	r2, [r3, #3]
 4319              	.L153:
 4320              	.LBE54:
 954:.\DisplayBLL.c ****         }
 955:.\DisplayBLL.c ****     }
 956:.\DisplayBLL.c **** }
 4321              		.loc 1 956 0
 4322 00a4 1837     		adds	r7, r7, #24
 4323              		.cfi_def_cfa_offset 8
 4324 00a6 BD46     		mov	sp, r7
 4325              		.cfi_def_cfa_register 13
 4326              		@ sp needed
 4327 00a8 80BD     		pop	{r7, pc}
 4328              	.L158:
 4329 00aa 00BF     		.align	2
 4330              	.L157:
 4331 00ac 00000000 		.word	iButtonScreenNotification
 4332              		.cfi_endproc
 4333              	.LFE84:
 4334              		.size	InitiateiButtonScan, .-InitiateiButtonScan
 4335              		.section	.text.DrawDateTime,"ax",%progbits
 4336              		.align	2
 4337              		.global	DrawDateTime
 4338              		.thumb
 4339              		.thumb_func
 4340              		.type	DrawDateTime, %function
 4341              	DrawDateTime:
 4342              	.LFB85:
 957:.\DisplayBLL.c **** 
 958:.\DisplayBLL.c **** 
 959:.\DisplayBLL.c **** void DrawDateTime(void *pparam)
 960:.\DisplayBLL.c **** {
 4343              		.loc 1 960 0
 4344              		.cfi_startproc
 4345              		@ args = 0, pretend = 0, frame = 48
 4346              		@ frame_needed = 1, uses_anonymous_args = 0
 4347 0000 B0B5     		push	{r4, r5, r7, lr}
 4348              		.cfi_def_cfa_offset 16
 4349              		.cfi_offset 4, -16
 4350              		.cfi_offset 5, -12
 4351              		.cfi_offset 7, -8
 4352              		.cfi_offset 14, -4
ARM GAS  C:\Users\RECEPC~1\AppData\Local\Temp\ccNQpeOs.s 			page 95


 4353 0002 90B0     		sub	sp, sp, #64
 4354              		.cfi_def_cfa_offset 80
 4355 0004 04AF     		add	r7, sp, #16
 4356              		.cfi_def_cfa 7, 64
 4357 0006 7860     		str	r0, [r7, #4]
 961:.\DisplayBLL.c ****     char8 buffer[8];
 962:.\DisplayBLL.c ****     FontData fontdata;
 963:.\DisplayBLL.c ****     fontdata._size = 0x04;
 4358              		.loc 1 963 0
 4359 0008 0423     		movs	r3, #4
 4360 000a 3B72     		strb	r3, [r7, #8]
 964:.\DisplayBLL.c ****     fontdata._backcolor = 0xFFFF;
 4361              		.loc 1 964 0
 4362 000c 4FF6FF73 		movw	r3, #65535
 4363 0010 BB81     		strh	r3, [r7, #12]	@ movhi
 965:.\DisplayBLL.c ****     fontdata._forecolor = 0x0000;
 4364              		.loc 1 965 0
 4365 0012 0023     		movs	r3, #0
 4366 0014 FB81     		strh	r3, [r7, #14]	@ movhi
 966:.\DisplayBLL.c ****     fontdata._opaquebackground = DISP_TEXT_OPAQUE;
 4367              		.loc 1 966 0
 4368 0016 C523     		movs	r3, #197
 4369 0018 BB72     		strb	r3, [r7, #10]
 967:.\DisplayBLL.c ****     DisplayLayout *pdisplay = (DisplayLayout*)pparam;
 4370              		.loc 1 967 0
 4371 001a 7B68     		ldr	r3, [r7, #4]
 4372 001c BB62     		str	r3, [r7, #40]
 968:.\DisplayBLL.c ****     if(pdisplay->_dispid == DISPLAY1 && ((PDISPLAYFLOWPTR)pdisplay->_pcurrflow)->_scrid == DISPLAY_
 4373              		.loc 1 968 0
 4374 001e BB6A     		ldr	r3, [r7, #40]
 4375 0020 1B78     		ldrb	r3, [r3]	@ zero_extendqisi2
 4376 0022 002B     		cmp	r3, #0
 4377 0024 40F00482 		bne	.L160
 4378              		.loc 1 968 0 is_stmt 0 discriminator 1
 4379 0028 BB6A     		ldr	r3, [r7, #40]
 4380 002a 1B69     		ldr	r3, [r3, #16]
 4381 002c 1B78     		ldrb	r3, [r3]	@ zero_extendqisi2
 4382 002e 3E2B     		cmp	r3, #62
 4383 0030 40F0FE81 		bne	.L160
 4384              	.LBB55:
 969:.\DisplayBLL.c ****     {
 970:.\DisplayBLL.c ****         UARTMessage *puartdisp = GetUARTMessageSlot(UART_DISPLAY1);
 4385              		.loc 1 970 0 is_stmt 1
 4386 0034 A320     		movs	r0, #163
 4387 0036 FFF7FEFF 		bl	GetUARTMessageSlot
 4388 003a 7862     		str	r0, [r7, #36]
 971:.\DisplayBLL.c ****         if(puartdisp)
 4389              		.loc 1 971 0
 4390 003c 7B6A     		ldr	r3, [r7, #36]
 4391 003e 002B     		cmp	r3, #0
 4392 0040 00F01481 		beq	.L161
 4393              	.LBB56:
 972:.\DisplayBLL.c ****         {
 973:.\DisplayBLL.c ****             uint8 index = 0;
 4394              		.loc 1 973 0
 4395 0044 0023     		movs	r3, #0
 4396 0046 87F82F30 		strb	r3, [r7, #47]
ARM GAS  C:\Users\RECEPC~1\AppData\Local\Temp\ccNQpeOs.s 			page 96


 974:.\DisplayBLL.c ****             
 975:.\DisplayBLL.c ****             //CAREFUL WITH RETURNS BETWEEN THE LOCK/UNLOCK CALLS
 976:.\DisplayBLL.c ****             //AND RECURSIVE CALLS THAT WOULD DEADLOCK!
 977:.\DisplayBLL.c ****             I2CBusLock();
 4397              		.loc 1 977 0
 4398 004a FFF7FEFF 		bl	I2CBusLock
 978:.\DisplayBLL.c ****             
 979:.\DisplayBLL.c ****             ClearRtcBuffer();
 4399              		.loc 1 979 0
 4400 004e FFF7FEFF 		bl	ClearRtcBuffer
 980:.\DisplayBLL.c ****             ReadRTC();                           
 4401              		.loc 1 980 0
 4402 0052 FFF7FEFF 		bl	ReadRTC
 981:.\DisplayBLL.c ****             memset(buffer, 0x00, sizeof(buffer));            
 4403              		.loc 1 981 0
 4404 0056 07F11003 		add	r3, r7, #16
 4405 005a 1846     		mov	r0, r3
 4406 005c 0021     		movs	r1, #0
 4407 005e 0822     		movs	r2, #8
 4408 0060 FFF7FEFF 		bl	memset
 982:.\DisplayBLL.c ****             
 983:.\DisplayBLL.c ****             if(GetRtcBuffer()[RTC_HOUR] & 0b01000000){
 4409              		.loc 1 983 0
 4410 0064 FFF7FEFF 		bl	GetRtcBuffer
 4411 0068 0346     		mov	r3, r0
 4412 006a 0233     		adds	r3, r3, #2
 4413 006c 1B78     		ldrb	r3, [r3]	@ zero_extendqisi2
 4414 006e 03F04003 		and	r3, r3, #64
 4415 0072 002B     		cmp	r3, #0
 4416 0074 32D0     		beq	.L162
 984:.\DisplayBLL.c ****                 buffer[index++] = ((GetRtcBuffer()[RTC_HOUR] >> 4) & 0x01) | 0x30;
 4417              		.loc 1 984 0
 4418 0076 97F82F30 		ldrb	r3, [r7, #47]	@ zero_extendqisi2
 4419 007a 5A1C     		adds	r2, r3, #1
 4420 007c 87F82F20 		strb	r2, [r7, #47]
 4421 0080 1C46     		mov	r4, r3
 4422 0082 FFF7FEFF 		bl	GetRtcBuffer
 4423 0086 0346     		mov	r3, r0
 4424 0088 0233     		adds	r3, r3, #2
 4425 008a 1B78     		ldrb	r3, [r3]	@ zero_extendqisi2
 4426 008c 1B09     		lsrs	r3, r3, #4
 4427 008e DBB2     		uxtb	r3, r3
 4428 0090 DBB2     		uxtb	r3, r3
 4429 0092 03F00103 		and	r3, r3, #1
 4430 0096 DBB2     		uxtb	r3, r3
 4431 0098 43F03003 		orr	r3, r3, #48
 4432 009c DBB2     		uxtb	r3, r3
 4433 009e DAB2     		uxtb	r2, r3
 4434 00a0 07F13003 		add	r3, r7, #48
 4435 00a4 2344     		add	r3, r3, r4
 4436 00a6 03F8202C 		strb	r2, [r3, #-32]
 985:.\DisplayBLL.c ****                 buffer[index++] = (GetRtcBuffer()[RTC_HOUR] & 0x0F) | 0x30;
 4437              		.loc 1 985 0
 4438 00aa 97F82F30 		ldrb	r3, [r7, #47]	@ zero_extendqisi2
 4439 00ae 5A1C     		adds	r2, r3, #1
 4440 00b0 87F82F20 		strb	r2, [r7, #47]
 4441 00b4 1C46     		mov	r4, r3
ARM GAS  C:\Users\RECEPC~1\AppData\Local\Temp\ccNQpeOs.s 			page 97


 4442 00b6 FFF7FEFF 		bl	GetRtcBuffer
 4443 00ba 0346     		mov	r3, r0
 4444 00bc 0233     		adds	r3, r3, #2
 4445 00be 1B78     		ldrb	r3, [r3]	@ zero_extendqisi2
 4446 00c0 DBB2     		uxtb	r3, r3
 4447 00c2 03F00F03 		and	r3, r3, #15
 4448 00c6 DBB2     		uxtb	r3, r3
 4449 00c8 43F03003 		orr	r3, r3, #48
 4450 00cc DBB2     		uxtb	r3, r3
 4451 00ce DAB2     		uxtb	r2, r3
 4452 00d0 07F13003 		add	r3, r7, #48
 4453 00d4 2344     		add	r3, r3, r4
 4454 00d6 03F8202C 		strb	r2, [r3, #-32]
 4455 00da 31E0     		b	.L163
 4456              	.L162:
 986:.\DisplayBLL.c ****             }else{
 987:.\DisplayBLL.c ****                 buffer[index++] = ((GetRtcBuffer()[RTC_HOUR] >> 4) & 0x03) | 0x30;
 4457              		.loc 1 987 0
 4458 00dc 97F82F30 		ldrb	r3, [r7, #47]	@ zero_extendqisi2
 4459 00e0 5A1C     		adds	r2, r3, #1
 4460 00e2 87F82F20 		strb	r2, [r7, #47]
 4461 00e6 1C46     		mov	r4, r3
 4462 00e8 FFF7FEFF 		bl	GetRtcBuffer
 4463 00ec 0346     		mov	r3, r0
 4464 00ee 0233     		adds	r3, r3, #2
 4465 00f0 1B78     		ldrb	r3, [r3]	@ zero_extendqisi2
 4466 00f2 1B09     		lsrs	r3, r3, #4
 4467 00f4 DBB2     		uxtb	r3, r3
 4468 00f6 DBB2     		uxtb	r3, r3
 4469 00f8 03F00303 		and	r3, r3, #3
 4470 00fc DBB2     		uxtb	r3, r3
 4471 00fe 43F03003 		orr	r3, r3, #48
 4472 0102 DBB2     		uxtb	r3, r3
 4473 0104 DAB2     		uxtb	r2, r3
 4474 0106 07F13003 		add	r3, r7, #48
 4475 010a 2344     		add	r3, r3, r4
 4476 010c 03F8202C 		strb	r2, [r3, #-32]
 988:.\DisplayBLL.c ****                 buffer[index++] = (GetRtcBuffer()[RTC_HOUR] & 0x0F) | 0x30;
 4477              		.loc 1 988 0
 4478 0110 97F82F30 		ldrb	r3, [r7, #47]	@ zero_extendqisi2
 4479 0114 5A1C     		adds	r2, r3, #1
 4480 0116 87F82F20 		strb	r2, [r7, #47]
 4481 011a 1C46     		mov	r4, r3
 4482 011c FFF7FEFF 		bl	GetRtcBuffer
 4483 0120 0346     		mov	r3, r0
 4484 0122 0233     		adds	r3, r3, #2
 4485 0124 1B78     		ldrb	r3, [r3]	@ zero_extendqisi2
 4486 0126 DBB2     		uxtb	r3, r3
 4487 0128 03F00F03 		and	r3, r3, #15
 4488 012c DBB2     		uxtb	r3, r3
 4489 012e 43F03003 		orr	r3, r3, #48
 4490 0132 DBB2     		uxtb	r3, r3
 4491 0134 DAB2     		uxtb	r2, r3
 4492 0136 07F13003 		add	r3, r7, #48
 4493 013a 2344     		add	r3, r3, r4
 4494 013c 03F8202C 		strb	r2, [r3, #-32]
 4495              	.L163:
ARM GAS  C:\Users\RECEPC~1\AppData\Local\Temp\ccNQpeOs.s 			page 98


 989:.\DisplayBLL.c ****             }
 990:.\DisplayBLL.c ****             
 991:.\DisplayBLL.c ****             buffer[index++] = 0x3A;
 4496              		.loc 1 991 0
 4497 0140 97F82F30 		ldrb	r3, [r7, #47]	@ zero_extendqisi2
 4498 0144 5A1C     		adds	r2, r3, #1
 4499 0146 87F82F20 		strb	r2, [r7, #47]
 4500 014a 07F13002 		add	r2, r7, #48
 4501 014e 1344     		add	r3, r3, r2
 4502 0150 3A22     		movs	r2, #58
 4503 0152 03F8202C 		strb	r2, [r3, #-32]
 992:.\DisplayBLL.c ****             buffer[index++] = ((GetRtcBuffer()[RTC_MINUTES] >> 4) & 0x07) | 0x30;
 4504              		.loc 1 992 0
 4505 0156 97F82F30 		ldrb	r3, [r7, #47]	@ zero_extendqisi2
 4506 015a 5A1C     		adds	r2, r3, #1
 4507 015c 87F82F20 		strb	r2, [r7, #47]
 4508 0160 1C46     		mov	r4, r3
 4509 0162 FFF7FEFF 		bl	GetRtcBuffer
 4510 0166 0346     		mov	r3, r0
 4511 0168 0133     		adds	r3, r3, #1
 4512 016a 1B78     		ldrb	r3, [r3]	@ zero_extendqisi2
 4513 016c 1B09     		lsrs	r3, r3, #4
 4514 016e DBB2     		uxtb	r3, r3
 4515 0170 DBB2     		uxtb	r3, r3
 4516 0172 03F00703 		and	r3, r3, #7
 4517 0176 DBB2     		uxtb	r3, r3
 4518 0178 43F03003 		orr	r3, r3, #48
 4519 017c DBB2     		uxtb	r3, r3
 4520 017e DAB2     		uxtb	r2, r3
 4521 0180 07F13003 		add	r3, r7, #48
 4522 0184 2344     		add	r3, r3, r4
 4523 0186 03F8202C 		strb	r2, [r3, #-32]
 993:.\DisplayBLL.c ****             buffer[index++] = (GetRtcBuffer()[RTC_MINUTES] & 0x0F) | 0x30;
 4524              		.loc 1 993 0
 4525 018a 97F82F30 		ldrb	r3, [r7, #47]	@ zero_extendqisi2
 4526 018e 5A1C     		adds	r2, r3, #1
 4527 0190 87F82F20 		strb	r2, [r7, #47]
 4528 0194 1C46     		mov	r4, r3
 4529 0196 FFF7FEFF 		bl	GetRtcBuffer
 4530 019a 0346     		mov	r3, r0
 4531 019c 0133     		adds	r3, r3, #1
 4532 019e 1B78     		ldrb	r3, [r3]	@ zero_extendqisi2
 4533 01a0 DBB2     		uxtb	r3, r3
 4534 01a2 03F00F03 		and	r3, r3, #15
 4535 01a6 DBB2     		uxtb	r3, r3
 4536 01a8 43F03003 		orr	r3, r3, #48
 4537 01ac DBB2     		uxtb	r3, r3
 4538 01ae DAB2     		uxtb	r2, r3
 4539 01b0 07F13003 		add	r3, r7, #48
 4540 01b4 2344     		add	r3, r3, r4
 4541 01b6 03F8202C 		strb	r2, [r3, #-32]
 994:.\DisplayBLL.c ****             buffer[index++] = 0x3A;
 4542              		.loc 1 994 0
 4543 01ba 97F82F30 		ldrb	r3, [r7, #47]	@ zero_extendqisi2
 4544 01be 5A1C     		adds	r2, r3, #1
 4545 01c0 87F82F20 		strb	r2, [r7, #47]
 4546 01c4 07F13002 		add	r2, r7, #48
ARM GAS  C:\Users\RECEPC~1\AppData\Local\Temp\ccNQpeOs.s 			page 99


 4547 01c8 1344     		add	r3, r3, r2
 4548 01ca 3A22     		movs	r2, #58
 4549 01cc 03F8202C 		strb	r2, [r3, #-32]
 995:.\DisplayBLL.c ****             buffer[index++] = ((GetRtcBuffer()[RTC_SECONDS] >> 4) & 0x07) | 0x30;
 4550              		.loc 1 995 0
 4551 01d0 97F82F30 		ldrb	r3, [r7, #47]	@ zero_extendqisi2
 4552 01d4 5A1C     		adds	r2, r3, #1
 4553 01d6 87F82F20 		strb	r2, [r7, #47]
 4554 01da 1C46     		mov	r4, r3
 4555 01dc FFF7FEFF 		bl	GetRtcBuffer
 4556 01e0 0346     		mov	r3, r0
 4557 01e2 1B78     		ldrb	r3, [r3]	@ zero_extendqisi2
 4558 01e4 1B09     		lsrs	r3, r3, #4
 4559 01e6 DBB2     		uxtb	r3, r3
 4560 01e8 DBB2     		uxtb	r3, r3
 4561 01ea 03F00703 		and	r3, r3, #7
 4562 01ee DBB2     		uxtb	r3, r3
 4563 01f0 43F03003 		orr	r3, r3, #48
 4564 01f4 DBB2     		uxtb	r3, r3
 4565 01f6 DAB2     		uxtb	r2, r3
 4566 01f8 07F13003 		add	r3, r7, #48
 4567 01fc 2344     		add	r3, r3, r4
 4568 01fe 03F8202C 		strb	r2, [r3, #-32]
 996:.\DisplayBLL.c ****             buffer[index++] = (GetRtcBuffer()[RTC_SECONDS] & 0x0F) | 0x30;
 4569              		.loc 1 996 0
 4570 0202 97F82F30 		ldrb	r3, [r7, #47]	@ zero_extendqisi2
 4571 0206 5A1C     		adds	r2, r3, #1
 4572 0208 87F82F20 		strb	r2, [r7, #47]
 4573 020c 1C46     		mov	r4, r3
 4574 020e FFF7FEFF 		bl	GetRtcBuffer
 4575 0212 0346     		mov	r3, r0
 4576 0214 1B78     		ldrb	r3, [r3]	@ zero_extendqisi2
 4577 0216 DBB2     		uxtb	r3, r3
 4578 0218 03F00F03 		and	r3, r3, #15
 4579 021c DBB2     		uxtb	r3, r3
 4580 021e 43F03003 		orr	r3, r3, #48
 4581 0222 DBB2     		uxtb	r3, r3
 4582 0224 DAB2     		uxtb	r2, r3
 4583 0226 07F13003 		add	r3, r7, #48
 4584 022a 2344     		add	r3, r3, r4
 4585 022c 03F8202C 		strb	r2, [r3, #-32]
 997:.\DisplayBLL.c ****             
 998:.\DisplayBLL.c ****             I2CBusUnlock();
 4586              		.loc 1 998 0
 4587 0230 FFF7FEFF 		bl	I2CBusUnlock
 999:.\DisplayBLL.c ****             
1000:.\DisplayBLL.c ****             puartdisp->_messagelength = DisplayOutputString(0x0C9, 0x0BA, puartdisp->_messagetx, bu
 4588              		.loc 1 1000 0
 4589 0234 7B6A     		ldr	r3, [r7, #36]
 4590 0236 1D1D     		adds	r5, r3, #4
 4591 0238 97F82F30 		ldrb	r3, [r7, #47]	@ zero_extendqisi2
 4592 023c 9BB2     		uxth	r3, r3
 4593 023e 07F11004 		add	r4, r7, #16
 4594 0242 0093     		str	r3, [sp]
 4595 0244 01AA     		add	r2, sp, #4
 4596 0246 07F10803 		add	r3, r7, #8
 4597 024a 93E80300 		ldmia	r3, {r0, r1}
ARM GAS  C:\Users\RECEPC~1\AppData\Local\Temp\ccNQpeOs.s 			page 100


 4598 024e 82E80300 		stmia	r2, {r0, r1}
 4599 0252 C920     		movs	r0, #201
 4600 0254 BA21     		movs	r1, #186
 4601 0256 2A46     		mov	r2, r5
 4602 0258 2346     		mov	r3, r4
 4603 025a FFF7FEFF 		bl	DisplayOutputString
 4604 025e 0346     		mov	r3, r0
 4605 0260 1A46     		mov	r2, r3
 4606 0262 7B6A     		ldr	r3, [r7, #36]
 4607 0264 5A80     		strh	r2, [r3, #2]	@ movhi
1001:.\DisplayBLL.c ****             puartdisp->_messagestate = PENDING;
 4608              		.loc 1 1001 0
 4609 0266 7B6A     		ldr	r3, [r7, #36]
 4610 0268 C222     		movs	r2, #194
 4611 026a 1A70     		strb	r2, [r3]
 4612              	.L161:
 4613              	.LBE56:
1002:.\DisplayBLL.c ****         }
1003:.\DisplayBLL.c ****         
1004:.\DisplayBLL.c ****         puartdisp = GetUARTMessageSlot(UART_DISPLAY1);
 4614              		.loc 1 1004 0
 4615 026c A320     		movs	r0, #163
 4616 026e FFF7FEFF 		bl	GetUARTMessageSlot
 4617 0272 7862     		str	r0, [r7, #36]
1005:.\DisplayBLL.c ****         if(puartdisp)
 4618              		.loc 1 1005 0
 4619 0274 7B6A     		ldr	r3, [r7, #36]
 4620 0276 002B     		cmp	r3, #0
 4621 0278 00F0D980 		beq	.L164
 4622              	.LBB57:
1006:.\DisplayBLL.c ****         {
1007:.\DisplayBLL.c ****             uint8 index = 0;
 4623              		.loc 1 1007 0
 4624 027c 0023     		movs	r3, #0
 4625 027e 87F82330 		strb	r3, [r7, #35]
1008:.\DisplayBLL.c ****             
1009:.\DisplayBLL.c ****             //CAREFUL WITH RETURNS BETWEEN THE LOCK/UNLOCK CALLS
1010:.\DisplayBLL.c ****             //AND RECURSIVE CALLS THAT WOULD DEADLOCK!
1011:.\DisplayBLL.c ****             I2CBusLock();
 4626              		.loc 1 1011 0
 4627 0282 FFF7FEFF 		bl	I2CBusLock
1012:.\DisplayBLL.c ****             
1013:.\DisplayBLL.c ****             ClearRtcBuffer();
 4628              		.loc 1 1013 0
 4629 0286 FFF7FEFF 		bl	ClearRtcBuffer
1014:.\DisplayBLL.c ****             ReadRTC();                           
 4630              		.loc 1 1014 0
 4631 028a FFF7FEFF 		bl	ReadRTC
1015:.\DisplayBLL.c ****             memset(buffer, 0x00, sizeof(buffer));            
 4632              		.loc 1 1015 0
 4633 028e 07F11003 		add	r3, r7, #16
 4634 0292 1846     		mov	r0, r3
 4635 0294 0021     		movs	r1, #0
 4636 0296 0822     		movs	r2, #8
 4637 0298 FFF7FEFF 		bl	memset
1016:.\DisplayBLL.c ****             
1017:.\DisplayBLL.c ****             buffer[index++] = ((GetRtcBuffer()[RTC_DAY] >> 4) & 0x03) | 0x30;
ARM GAS  C:\Users\RECEPC~1\AppData\Local\Temp\ccNQpeOs.s 			page 101


 4638              		.loc 1 1017 0
 4639 029c 97F82330 		ldrb	r3, [r7, #35]	@ zero_extendqisi2
 4640 02a0 5A1C     		adds	r2, r3, #1
 4641 02a2 87F82320 		strb	r2, [r7, #35]
 4642 02a6 1C46     		mov	r4, r3
 4643 02a8 FFF7FEFF 		bl	GetRtcBuffer
 4644 02ac 0346     		mov	r3, r0
 4645 02ae 0433     		adds	r3, r3, #4
 4646 02b0 1B78     		ldrb	r3, [r3]	@ zero_extendqisi2
 4647 02b2 1B09     		lsrs	r3, r3, #4
 4648 02b4 DBB2     		uxtb	r3, r3
 4649 02b6 DBB2     		uxtb	r3, r3
 4650 02b8 03F00303 		and	r3, r3, #3
 4651 02bc DBB2     		uxtb	r3, r3
 4652 02be 43F03003 		orr	r3, r3, #48
 4653 02c2 DBB2     		uxtb	r3, r3
 4654 02c4 DAB2     		uxtb	r2, r3
 4655 02c6 07F13003 		add	r3, r7, #48
 4656 02ca 2344     		add	r3, r3, r4
 4657 02cc 03F8202C 		strb	r2, [r3, #-32]
1018:.\DisplayBLL.c ****             buffer[index++] = (GetRtcBuffer()[RTC_DAY] & 0x0F) | 0x30;
 4658              		.loc 1 1018 0
 4659 02d0 97F82330 		ldrb	r3, [r7, #35]	@ zero_extendqisi2
 4660 02d4 5A1C     		adds	r2, r3, #1
 4661 02d6 87F82320 		strb	r2, [r7, #35]
 4662 02da 1C46     		mov	r4, r3
 4663 02dc FFF7FEFF 		bl	GetRtcBuffer
 4664 02e0 0346     		mov	r3, r0
 4665 02e2 0433     		adds	r3, r3, #4
 4666 02e4 1B78     		ldrb	r3, [r3]	@ zero_extendqisi2
 4667 02e6 DBB2     		uxtb	r3, r3
 4668 02e8 03F00F03 		and	r3, r3, #15
 4669 02ec DBB2     		uxtb	r3, r3
 4670 02ee 43F03003 		orr	r3, r3, #48
 4671 02f2 DBB2     		uxtb	r3, r3
 4672 02f4 DAB2     		uxtb	r2, r3
 4673 02f6 07F13003 		add	r3, r7, #48
 4674 02fa 2344     		add	r3, r3, r4
 4675 02fc 03F8202C 		strb	r2, [r3, #-32]
1019:.\DisplayBLL.c ****             buffer[index++] = 0x2F;
 4676              		.loc 1 1019 0
 4677 0300 97F82330 		ldrb	r3, [r7, #35]	@ zero_extendqisi2
 4678 0304 5A1C     		adds	r2, r3, #1
 4679 0306 87F82320 		strb	r2, [r7, #35]
 4680 030a 07F13002 		add	r2, r7, #48
 4681 030e 1344     		add	r3, r3, r2
 4682 0310 2F22     		movs	r2, #47
 4683 0312 03F8202C 		strb	r2, [r3, #-32]
1020:.\DisplayBLL.c ****             buffer[index++] = ((GetRtcBuffer()[RTC_MONTH] >> 4) & 0x01) | 0x30;
 4684              		.loc 1 1020 0
 4685 0316 97F82330 		ldrb	r3, [r7, #35]	@ zero_extendqisi2
 4686 031a 5A1C     		adds	r2, r3, #1
 4687 031c 87F82320 		strb	r2, [r7, #35]
 4688 0320 1C46     		mov	r4, r3
 4689 0322 FFF7FEFF 		bl	GetRtcBuffer
 4690 0326 0346     		mov	r3, r0
 4691 0328 0533     		adds	r3, r3, #5
ARM GAS  C:\Users\RECEPC~1\AppData\Local\Temp\ccNQpeOs.s 			page 102


 4692 032a 1B78     		ldrb	r3, [r3]	@ zero_extendqisi2
 4693 032c 1B09     		lsrs	r3, r3, #4
 4694 032e DBB2     		uxtb	r3, r3
 4695 0330 DBB2     		uxtb	r3, r3
 4696 0332 03F00103 		and	r3, r3, #1
 4697 0336 DBB2     		uxtb	r3, r3
 4698 0338 43F03003 		orr	r3, r3, #48
 4699 033c DBB2     		uxtb	r3, r3
 4700 033e DAB2     		uxtb	r2, r3
 4701 0340 07F13003 		add	r3, r7, #48
 4702 0344 2344     		add	r3, r3, r4
 4703 0346 03F8202C 		strb	r2, [r3, #-32]
1021:.\DisplayBLL.c ****             buffer[index++] = (GetRtcBuffer()[RTC_MONTH] & 0x0F) | 0x30;
 4704              		.loc 1 1021 0
 4705 034a 97F82330 		ldrb	r3, [r7, #35]	@ zero_extendqisi2
 4706 034e 5A1C     		adds	r2, r3, #1
 4707 0350 87F82320 		strb	r2, [r7, #35]
 4708 0354 1C46     		mov	r4, r3
 4709 0356 FFF7FEFF 		bl	GetRtcBuffer
 4710 035a 0346     		mov	r3, r0
 4711 035c 0533     		adds	r3, r3, #5
 4712 035e 1B78     		ldrb	r3, [r3]	@ zero_extendqisi2
 4713 0360 DBB2     		uxtb	r3, r3
 4714 0362 03F00F03 		and	r3, r3, #15
 4715 0366 DBB2     		uxtb	r3, r3
 4716 0368 43F03003 		orr	r3, r3, #48
 4717 036c DBB2     		uxtb	r3, r3
 4718 036e DAB2     		uxtb	r2, r3
 4719 0370 07F13003 		add	r3, r7, #48
 4720 0374 2344     		add	r3, r3, r4
 4721 0376 03F8202C 		strb	r2, [r3, #-32]
1022:.\DisplayBLL.c ****             buffer[index++] = 0x2F;
 4722              		.loc 1 1022 0
 4723 037a 97F82330 		ldrb	r3, [r7, #35]	@ zero_extendqisi2
 4724 037e 5A1C     		adds	r2, r3, #1
 4725 0380 87F82320 		strb	r2, [r7, #35]
 4726 0384 07F13002 		add	r2, r7, #48
 4727 0388 1344     		add	r3, r3, r2
 4728 038a 2F22     		movs	r2, #47
 4729 038c 03F8202C 		strb	r2, [r3, #-32]
1023:.\DisplayBLL.c ****             buffer[index++] = ((GetRtcBuffer()[RTC_YEAR] >> 4) & 0x0F) | 0x30;
 4730              		.loc 1 1023 0
 4731 0390 97F82330 		ldrb	r3, [r7, #35]	@ zero_extendqisi2
 4732 0394 5A1C     		adds	r2, r3, #1
 4733 0396 87F82320 		strb	r2, [r7, #35]
 4734 039a 1C46     		mov	r4, r3
 4735 039c FFF7FEFF 		bl	GetRtcBuffer
 4736 03a0 0346     		mov	r3, r0
 4737 03a2 0633     		adds	r3, r3, #6
 4738 03a4 1B78     		ldrb	r3, [r3]	@ zero_extendqisi2
 4739 03a6 1B09     		lsrs	r3, r3, #4
 4740 03a8 DBB2     		uxtb	r3, r3
 4741 03aa DBB2     		uxtb	r3, r3
 4742 03ac 43F03003 		orr	r3, r3, #48
 4743 03b0 DBB2     		uxtb	r3, r3
 4744 03b2 DAB2     		uxtb	r2, r3
 4745 03b4 07F13003 		add	r3, r7, #48
ARM GAS  C:\Users\RECEPC~1\AppData\Local\Temp\ccNQpeOs.s 			page 103


 4746 03b8 2344     		add	r3, r3, r4
 4747 03ba 03F8202C 		strb	r2, [r3, #-32]
1024:.\DisplayBLL.c ****             buffer[index++] = (GetRtcBuffer()[RTC_YEAR] & 0x0F) | 0x30;
 4748              		.loc 1 1024 0
 4749 03be 97F82330 		ldrb	r3, [r7, #35]	@ zero_extendqisi2
 4750 03c2 5A1C     		adds	r2, r3, #1
 4751 03c4 87F82320 		strb	r2, [r7, #35]
 4752 03c8 1C46     		mov	r4, r3
 4753 03ca FFF7FEFF 		bl	GetRtcBuffer
 4754 03ce 0346     		mov	r3, r0
 4755 03d0 0633     		adds	r3, r3, #6
 4756 03d2 1B78     		ldrb	r3, [r3]	@ zero_extendqisi2
 4757 03d4 DBB2     		uxtb	r3, r3
 4758 03d6 03F00F03 		and	r3, r3, #15
 4759 03da DBB2     		uxtb	r3, r3
 4760 03dc 43F03003 		orr	r3, r3, #48
 4761 03e0 DBB2     		uxtb	r3, r3
 4762 03e2 DAB2     		uxtb	r2, r3
 4763 03e4 07F13003 		add	r3, r7, #48
 4764 03e8 2344     		add	r3, r3, r4
 4765 03ea 03F8202C 		strb	r2, [r3, #-32]
1025:.\DisplayBLL.c **** 
1026:.\DisplayBLL.c ****             I2CBusUnlock();
 4766              		.loc 1 1026 0
 4767 03ee FFF7FEFF 		bl	I2CBusUnlock
1027:.\DisplayBLL.c ****             
1028:.\DisplayBLL.c ****             puartdisp->_messagelength = DisplayOutputString(0x0C9, 0x12A, puartdisp->_messagetx, bu
 4768              		.loc 1 1028 0
 4769 03f2 7B6A     		ldr	r3, [r7, #36]
 4770 03f4 1D1D     		adds	r5, r3, #4
 4771 03f6 97F82330 		ldrb	r3, [r7, #35]	@ zero_extendqisi2
 4772 03fa 9BB2     		uxth	r3, r3
 4773 03fc 07F11004 		add	r4, r7, #16
 4774 0400 0093     		str	r3, [sp]
 4775 0402 01AA     		add	r2, sp, #4
 4776 0404 07F10803 		add	r3, r7, #8
 4777 0408 93E80300 		ldmia	r3, {r0, r1}
 4778 040c 82E80300 		stmia	r2, {r0, r1}
 4779 0410 C920     		movs	r0, #201
 4780 0412 4FF49571 		mov	r1, #298
 4781 0416 2A46     		mov	r2, r5
 4782 0418 2346     		mov	r3, r4
 4783 041a FFF7FEFF 		bl	DisplayOutputString
 4784 041e 0346     		mov	r3, r0
 4785 0420 1A46     		mov	r2, r3
 4786 0422 7B6A     		ldr	r3, [r7, #36]
 4787 0424 5A80     		strh	r2, [r3, #2]	@ movhi
1029:.\DisplayBLL.c ****             puartdisp->_messagestate = PENDING;
 4788              		.loc 1 1029 0
 4789 0426 7B6A     		ldr	r3, [r7, #36]
 4790 0428 C222     		movs	r2, #194
 4791 042a 1A70     		strb	r2, [r3]
 4792              	.LBE57:
 4793              	.LBE55:
 969:.\DisplayBLL.c ****         UARTMessage *puartdisp = GetUARTMessageSlot(UART_DISPLAY1);
 4794              		.loc 1 969 0
 4795 042c F5E1     		b	.L159
ARM GAS  C:\Users\RECEPC~1\AppData\Local\Temp\ccNQpeOs.s 			page 104


 4796              	.L164:
 4797 042e F4E1     		b	.L159
 4798              	.L160:
1030:.\DisplayBLL.c ****         }
1031:.\DisplayBLL.c ****         
1032:.\DisplayBLL.c ****     }
1033:.\DisplayBLL.c ****     else if(pdisplay->_dispid == DISPLAY2 && ((PDISPLAYFLOWPTR)pdisplay->_pcurrflow)->_scrid == DIS
 4799              		.loc 1 1033 0
 4800 0430 BB6A     		ldr	r3, [r7, #40]
 4801 0432 1B78     		ldrb	r3, [r3]	@ zero_extendqisi2
 4802 0434 012B     		cmp	r3, #1
 4803 0436 40F0F081 		bne	.L159
 4804              		.loc 1 1033 0 is_stmt 0 discriminator 1
 4805 043a BB6A     		ldr	r3, [r7, #40]
 4806 043c 1B69     		ldr	r3, [r3, #16]
 4807 043e 1B78     		ldrb	r3, [r3]	@ zero_extendqisi2
 4808 0440 3E2B     		cmp	r3, #62
 4809 0442 40F0EA81 		bne	.L159
 4810              	.LBB58:
1034:.\DisplayBLL.c ****     {
1035:.\DisplayBLL.c ****         UARTMessage *puartdisp = GetUARTMessageSlot(UART_DISPLAY2);
 4811              		.loc 1 1035 0 is_stmt 1
 4812 0446 A420     		movs	r0, #164
 4813 0448 FFF7FEFF 		bl	GetUARTMessageSlot
 4814 044c F861     		str	r0, [r7, #28]
1036:.\DisplayBLL.c ****         if(puartdisp)
 4815              		.loc 1 1036 0
 4816 044e FB69     		ldr	r3, [r7, #28]
 4817 0450 002B     		cmp	r3, #0
 4818 0452 00F01481 		beq	.L166
 4819              	.LBB59:
1037:.\DisplayBLL.c ****         {
1038:.\DisplayBLL.c ****             uint8 index = 0;
 4820              		.loc 1 1038 0
 4821 0456 0023     		movs	r3, #0
 4822 0458 87F82E30 		strb	r3, [r7, #46]
1039:.\DisplayBLL.c ****             
1040:.\DisplayBLL.c ****             //CAREFUL WITH RETURNS BETWEEN THE LOCK/UNLOCK CALLS
1041:.\DisplayBLL.c ****             //AND RECURSIVE CALLS THAT WOULD DEADLOCK!
1042:.\DisplayBLL.c ****             I2CBusLock();
 4823              		.loc 1 1042 0
 4824 045c FFF7FEFF 		bl	I2CBusLock
1043:.\DisplayBLL.c ****             
1044:.\DisplayBLL.c ****             ClearRtcBuffer();
 4825              		.loc 1 1044 0
 4826 0460 FFF7FEFF 		bl	ClearRtcBuffer
1045:.\DisplayBLL.c ****             ReadRTC();                           
 4827              		.loc 1 1045 0
 4828 0464 FFF7FEFF 		bl	ReadRTC
1046:.\DisplayBLL.c ****             memset(buffer, 0x00, sizeof(buffer));            
 4829              		.loc 1 1046 0
 4830 0468 07F11003 		add	r3, r7, #16
 4831 046c 1846     		mov	r0, r3
 4832 046e 0021     		movs	r1, #0
 4833 0470 0822     		movs	r2, #8
 4834 0472 FFF7FEFF 		bl	memset
1047:.\DisplayBLL.c ****             
ARM GAS  C:\Users\RECEPC~1\AppData\Local\Temp\ccNQpeOs.s 			page 105


1048:.\DisplayBLL.c ****             if(GetRtcBuffer()[RTC_HOUR] & 0b01000000){
 4835              		.loc 1 1048 0
 4836 0476 FFF7FEFF 		bl	GetRtcBuffer
 4837 047a 0346     		mov	r3, r0
 4838 047c 0233     		adds	r3, r3, #2
 4839 047e 1B78     		ldrb	r3, [r3]	@ zero_extendqisi2
 4840 0480 03F04003 		and	r3, r3, #64
 4841 0484 002B     		cmp	r3, #0
 4842 0486 32D0     		beq	.L167
1049:.\DisplayBLL.c ****                 buffer[index++] = ((GetRtcBuffer()[RTC_HOUR] >> 4) & 0x01) | 0x30;
 4843              		.loc 1 1049 0
 4844 0488 97F82E30 		ldrb	r3, [r7, #46]	@ zero_extendqisi2
 4845 048c 5A1C     		adds	r2, r3, #1
 4846 048e 87F82E20 		strb	r2, [r7, #46]
 4847 0492 1C46     		mov	r4, r3
 4848 0494 FFF7FEFF 		bl	GetRtcBuffer
 4849 0498 0346     		mov	r3, r0
 4850 049a 0233     		adds	r3, r3, #2
 4851 049c 1B78     		ldrb	r3, [r3]	@ zero_extendqisi2
 4852 049e 1B09     		lsrs	r3, r3, #4
 4853 04a0 DBB2     		uxtb	r3, r3
 4854 04a2 DBB2     		uxtb	r3, r3
 4855 04a4 03F00103 		and	r3, r3, #1
 4856 04a8 DBB2     		uxtb	r3, r3
 4857 04aa 43F03003 		orr	r3, r3, #48
 4858 04ae DBB2     		uxtb	r3, r3
 4859 04b0 DAB2     		uxtb	r2, r3
 4860 04b2 07F13003 		add	r3, r7, #48
 4861 04b6 2344     		add	r3, r3, r4
 4862 04b8 03F8202C 		strb	r2, [r3, #-32]
1050:.\DisplayBLL.c ****                 buffer[index++] = (GetRtcBuffer()[RTC_HOUR] & 0x0F) | 0x30;
 4863              		.loc 1 1050 0
 4864 04bc 97F82E30 		ldrb	r3, [r7, #46]	@ zero_extendqisi2
 4865 04c0 5A1C     		adds	r2, r3, #1
 4866 04c2 87F82E20 		strb	r2, [r7, #46]
 4867 04c6 1C46     		mov	r4, r3
 4868 04c8 FFF7FEFF 		bl	GetRtcBuffer
 4869 04cc 0346     		mov	r3, r0
 4870 04ce 0233     		adds	r3, r3, #2
 4871 04d0 1B78     		ldrb	r3, [r3]	@ zero_extendqisi2
 4872 04d2 DBB2     		uxtb	r3, r3
 4873 04d4 03F00F03 		and	r3, r3, #15
 4874 04d8 DBB2     		uxtb	r3, r3
 4875 04da 43F03003 		orr	r3, r3, #48
 4876 04de DBB2     		uxtb	r3, r3
 4877 04e0 DAB2     		uxtb	r2, r3
 4878 04e2 07F13003 		add	r3, r7, #48
 4879 04e6 2344     		add	r3, r3, r4
 4880 04e8 03F8202C 		strb	r2, [r3, #-32]
 4881 04ec 31E0     		b	.L168
 4882              	.L167:
1051:.\DisplayBLL.c ****             }else{
1052:.\DisplayBLL.c ****                 buffer[index++] = ((GetRtcBuffer()[RTC_HOUR] >> 4) & 0x03) | 0x30;
 4883              		.loc 1 1052 0
 4884 04ee 97F82E30 		ldrb	r3, [r7, #46]	@ zero_extendqisi2
 4885 04f2 5A1C     		adds	r2, r3, #1
 4886 04f4 87F82E20 		strb	r2, [r7, #46]
ARM GAS  C:\Users\RECEPC~1\AppData\Local\Temp\ccNQpeOs.s 			page 106


 4887 04f8 1C46     		mov	r4, r3
 4888 04fa FFF7FEFF 		bl	GetRtcBuffer
 4889 04fe 0346     		mov	r3, r0
 4890 0500 0233     		adds	r3, r3, #2
 4891 0502 1B78     		ldrb	r3, [r3]	@ zero_extendqisi2
 4892 0504 1B09     		lsrs	r3, r3, #4
 4893 0506 DBB2     		uxtb	r3, r3
 4894 0508 DBB2     		uxtb	r3, r3
 4895 050a 03F00303 		and	r3, r3, #3
 4896 050e DBB2     		uxtb	r3, r3
 4897 0510 43F03003 		orr	r3, r3, #48
 4898 0514 DBB2     		uxtb	r3, r3
 4899 0516 DAB2     		uxtb	r2, r3
 4900 0518 07F13003 		add	r3, r7, #48
 4901 051c 2344     		add	r3, r3, r4
 4902 051e 03F8202C 		strb	r2, [r3, #-32]
1053:.\DisplayBLL.c ****                 buffer[index++] = (GetRtcBuffer()[RTC_HOUR] & 0x0F) | 0x30;
 4903              		.loc 1 1053 0
 4904 0522 97F82E30 		ldrb	r3, [r7, #46]	@ zero_extendqisi2
 4905 0526 5A1C     		adds	r2, r3, #1
 4906 0528 87F82E20 		strb	r2, [r7, #46]
 4907 052c 1C46     		mov	r4, r3
 4908 052e FFF7FEFF 		bl	GetRtcBuffer
 4909 0532 0346     		mov	r3, r0
 4910 0534 0233     		adds	r3, r3, #2
 4911 0536 1B78     		ldrb	r3, [r3]	@ zero_extendqisi2
 4912 0538 DBB2     		uxtb	r3, r3
 4913 053a 03F00F03 		and	r3, r3, #15
 4914 053e DBB2     		uxtb	r3, r3
 4915 0540 43F03003 		orr	r3, r3, #48
 4916 0544 DBB2     		uxtb	r3, r3
 4917 0546 DAB2     		uxtb	r2, r3
 4918 0548 07F13003 		add	r3, r7, #48
 4919 054c 2344     		add	r3, r3, r4
 4920 054e 03F8202C 		strb	r2, [r3, #-32]
 4921              	.L168:
1054:.\DisplayBLL.c ****             }
1055:.\DisplayBLL.c ****             
1056:.\DisplayBLL.c ****             buffer[index++] = 0x3A;
 4922              		.loc 1 1056 0
 4923 0552 97F82E30 		ldrb	r3, [r7, #46]	@ zero_extendqisi2
 4924 0556 5A1C     		adds	r2, r3, #1
 4925 0558 87F82E20 		strb	r2, [r7, #46]
 4926 055c 07F13002 		add	r2, r7, #48
 4927 0560 1344     		add	r3, r3, r2
 4928 0562 3A22     		movs	r2, #58
 4929 0564 03F8202C 		strb	r2, [r3, #-32]
1057:.\DisplayBLL.c ****             buffer[index++] = ((GetRtcBuffer()[RTC_MINUTES] >> 4) & 0x07) | 0x30;
 4930              		.loc 1 1057 0
 4931 0568 97F82E30 		ldrb	r3, [r7, #46]	@ zero_extendqisi2
 4932 056c 5A1C     		adds	r2, r3, #1
 4933 056e 87F82E20 		strb	r2, [r7, #46]
 4934 0572 1C46     		mov	r4, r3
 4935 0574 FFF7FEFF 		bl	GetRtcBuffer
 4936 0578 0346     		mov	r3, r0
 4937 057a 0133     		adds	r3, r3, #1
 4938 057c 1B78     		ldrb	r3, [r3]	@ zero_extendqisi2
ARM GAS  C:\Users\RECEPC~1\AppData\Local\Temp\ccNQpeOs.s 			page 107


 4939 057e 1B09     		lsrs	r3, r3, #4
 4940 0580 DBB2     		uxtb	r3, r3
 4941 0582 DBB2     		uxtb	r3, r3
 4942 0584 03F00703 		and	r3, r3, #7
 4943 0588 DBB2     		uxtb	r3, r3
 4944 058a 43F03003 		orr	r3, r3, #48
 4945 058e DBB2     		uxtb	r3, r3
 4946 0590 DAB2     		uxtb	r2, r3
 4947 0592 07F13003 		add	r3, r7, #48
 4948 0596 2344     		add	r3, r3, r4
 4949 0598 03F8202C 		strb	r2, [r3, #-32]
1058:.\DisplayBLL.c ****             buffer[index++] = (GetRtcBuffer()[RTC_MINUTES] & 0x0F) | 0x30;
 4950              		.loc 1 1058 0
 4951 059c 97F82E30 		ldrb	r3, [r7, #46]	@ zero_extendqisi2
 4952 05a0 5A1C     		adds	r2, r3, #1
 4953 05a2 87F82E20 		strb	r2, [r7, #46]
 4954 05a6 1C46     		mov	r4, r3
 4955 05a8 FFF7FEFF 		bl	GetRtcBuffer
 4956 05ac 0346     		mov	r3, r0
 4957 05ae 0133     		adds	r3, r3, #1
 4958 05b0 1B78     		ldrb	r3, [r3]	@ zero_extendqisi2
 4959 05b2 DBB2     		uxtb	r3, r3
 4960 05b4 03F00F03 		and	r3, r3, #15
 4961 05b8 DBB2     		uxtb	r3, r3
 4962 05ba 43F03003 		orr	r3, r3, #48
 4963 05be DBB2     		uxtb	r3, r3
 4964 05c0 DAB2     		uxtb	r2, r3
 4965 05c2 07F13003 		add	r3, r7, #48
 4966 05c6 2344     		add	r3, r3, r4
 4967 05c8 03F8202C 		strb	r2, [r3, #-32]
1059:.\DisplayBLL.c ****             buffer[index++] = 0x3A;
 4968              		.loc 1 1059 0
 4969 05cc 97F82E30 		ldrb	r3, [r7, #46]	@ zero_extendqisi2
 4970 05d0 5A1C     		adds	r2, r3, #1
 4971 05d2 87F82E20 		strb	r2, [r7, #46]
 4972 05d6 07F13002 		add	r2, r7, #48
 4973 05da 1344     		add	r3, r3, r2
 4974 05dc 3A22     		movs	r2, #58
 4975 05de 03F8202C 		strb	r2, [r3, #-32]
1060:.\DisplayBLL.c ****             buffer[index++] = ((GetRtcBuffer()[RTC_SECONDS] >> 4) & 0x07) | 0x30;
 4976              		.loc 1 1060 0
 4977 05e2 97F82E30 		ldrb	r3, [r7, #46]	@ zero_extendqisi2
 4978 05e6 5A1C     		adds	r2, r3, #1
 4979 05e8 87F82E20 		strb	r2, [r7, #46]
 4980 05ec 1C46     		mov	r4, r3
 4981 05ee FFF7FEFF 		bl	GetRtcBuffer
 4982 05f2 0346     		mov	r3, r0
 4983 05f4 1B78     		ldrb	r3, [r3]	@ zero_extendqisi2
 4984 05f6 1B09     		lsrs	r3, r3, #4
 4985 05f8 DBB2     		uxtb	r3, r3
 4986 05fa DBB2     		uxtb	r3, r3
 4987 05fc 03F00703 		and	r3, r3, #7
 4988 0600 DBB2     		uxtb	r3, r3
 4989 0602 43F03003 		orr	r3, r3, #48
 4990 0606 DBB2     		uxtb	r3, r3
 4991 0608 DAB2     		uxtb	r2, r3
 4992 060a 07F13003 		add	r3, r7, #48
ARM GAS  C:\Users\RECEPC~1\AppData\Local\Temp\ccNQpeOs.s 			page 108


 4993 060e 2344     		add	r3, r3, r4
 4994 0610 03F8202C 		strb	r2, [r3, #-32]
1061:.\DisplayBLL.c ****             buffer[index++] = (GetRtcBuffer()[RTC_SECONDS] & 0x0F) | 0x30;
 4995              		.loc 1 1061 0
 4996 0614 97F82E30 		ldrb	r3, [r7, #46]	@ zero_extendqisi2
 4997 0618 5A1C     		adds	r2, r3, #1
 4998 061a 87F82E20 		strb	r2, [r7, #46]
 4999 061e 1C46     		mov	r4, r3
 5000 0620 FFF7FEFF 		bl	GetRtcBuffer
 5001 0624 0346     		mov	r3, r0
 5002 0626 1B78     		ldrb	r3, [r3]	@ zero_extendqisi2
 5003 0628 DBB2     		uxtb	r3, r3
 5004 062a 03F00F03 		and	r3, r3, #15
 5005 062e DBB2     		uxtb	r3, r3
 5006 0630 43F03003 		orr	r3, r3, #48
 5007 0634 DBB2     		uxtb	r3, r3
 5008 0636 DAB2     		uxtb	r2, r3
 5009 0638 07F13003 		add	r3, r7, #48
 5010 063c 2344     		add	r3, r3, r4
 5011 063e 03F8202C 		strb	r2, [r3, #-32]
1062:.\DisplayBLL.c ****             
1063:.\DisplayBLL.c ****             I2CBusUnlock();
 5012              		.loc 1 1063 0
 5013 0642 FFF7FEFF 		bl	I2CBusUnlock
1064:.\DisplayBLL.c ****             
1065:.\DisplayBLL.c ****             puartdisp->_messagelength = DisplayOutputString(0x0C9, 0x0BA, puartdisp->_messagetx, bu
 5014              		.loc 1 1065 0
 5015 0646 FB69     		ldr	r3, [r7, #28]
 5016 0648 1D1D     		adds	r5, r3, #4
 5017 064a 97F82E30 		ldrb	r3, [r7, #46]	@ zero_extendqisi2
 5018 064e 9BB2     		uxth	r3, r3
 5019 0650 07F11004 		add	r4, r7, #16
 5020 0654 0093     		str	r3, [sp]
 5021 0656 01AA     		add	r2, sp, #4
 5022 0658 07F10803 		add	r3, r7, #8
 5023 065c 93E80300 		ldmia	r3, {r0, r1}
 5024 0660 82E80300 		stmia	r2, {r0, r1}
 5025 0664 C920     		movs	r0, #201
 5026 0666 BA21     		movs	r1, #186
 5027 0668 2A46     		mov	r2, r5
 5028 066a 2346     		mov	r3, r4
 5029 066c FFF7FEFF 		bl	DisplayOutputString
 5030 0670 0346     		mov	r3, r0
 5031 0672 1A46     		mov	r2, r3
 5032 0674 FB69     		ldr	r3, [r7, #28]
 5033 0676 5A80     		strh	r2, [r3, #2]	@ movhi
1066:.\DisplayBLL.c ****             puartdisp->_messagestate = PENDING;
 5034              		.loc 1 1066 0
 5035 0678 FB69     		ldr	r3, [r7, #28]
 5036 067a C222     		movs	r2, #194
 5037 067c 1A70     		strb	r2, [r3]
 5038              	.L166:
 5039              	.LBE59:
1067:.\DisplayBLL.c ****         }
1068:.\DisplayBLL.c ****         
1069:.\DisplayBLL.c ****         puartdisp = GetUARTMessageSlot(UART_DISPLAY2);
 5040              		.loc 1 1069 0
ARM GAS  C:\Users\RECEPC~1\AppData\Local\Temp\ccNQpeOs.s 			page 109


 5041 067e A420     		movs	r0, #164
 5042 0680 FFF7FEFF 		bl	GetUARTMessageSlot
 5043 0684 F861     		str	r0, [r7, #28]
1070:.\DisplayBLL.c ****         if(puartdisp)
 5044              		.loc 1 1070 0
 5045 0686 FB69     		ldr	r3, [r7, #28]
 5046 0688 002B     		cmp	r3, #0
 5047 068a 00F0C680 		beq	.L159
 5048              	.LBB60:
1071:.\DisplayBLL.c ****         {
1072:.\DisplayBLL.c ****             uint8 index = 0;
 5049              		.loc 1 1072 0
 5050 068e 0023     		movs	r3, #0
 5051 0690 FB76     		strb	r3, [r7, #27]
1073:.\DisplayBLL.c ****             
1074:.\DisplayBLL.c ****             //CAREFUL WITH RETURNS BETWEEN THE LOCK/UNLOCK CALLS
1075:.\DisplayBLL.c ****             //AND RECURSIVE CALLS THAT WOULD DEADLOCK!
1076:.\DisplayBLL.c ****             I2CBusLock();
 5052              		.loc 1 1076 0
 5053 0692 FFF7FEFF 		bl	I2CBusLock
1077:.\DisplayBLL.c ****             
1078:.\DisplayBLL.c ****             ClearRtcBuffer();
 5054              		.loc 1 1078 0
 5055 0696 FFF7FEFF 		bl	ClearRtcBuffer
1079:.\DisplayBLL.c ****             ReadRTC();                           
 5056              		.loc 1 1079 0
 5057 069a FFF7FEFF 		bl	ReadRTC
1080:.\DisplayBLL.c ****             memset(buffer, 0x00, sizeof(buffer));            
 5058              		.loc 1 1080 0
 5059 069e 07F11003 		add	r3, r7, #16
 5060 06a2 1846     		mov	r0, r3
 5061 06a4 0021     		movs	r1, #0
 5062 06a6 0822     		movs	r2, #8
 5063 06a8 FFF7FEFF 		bl	memset
1081:.\DisplayBLL.c ****             
1082:.\DisplayBLL.c ****             buffer[index++] = ((GetRtcBuffer()[RTC_DAY] >> 4) & 0x03) | 0x30;
 5064              		.loc 1 1082 0
 5065 06ac FB7E     		ldrb	r3, [r7, #27]	@ zero_extendqisi2
 5066 06ae 5A1C     		adds	r2, r3, #1
 5067 06b0 FA76     		strb	r2, [r7, #27]
 5068 06b2 1C46     		mov	r4, r3
 5069 06b4 FFF7FEFF 		bl	GetRtcBuffer
 5070 06b8 0346     		mov	r3, r0
 5071 06ba 0433     		adds	r3, r3, #4
 5072 06bc 1B78     		ldrb	r3, [r3]	@ zero_extendqisi2
 5073 06be 1B09     		lsrs	r3, r3, #4
 5074 06c0 DBB2     		uxtb	r3, r3
 5075 06c2 DBB2     		uxtb	r3, r3
 5076 06c4 03F00303 		and	r3, r3, #3
 5077 06c8 DBB2     		uxtb	r3, r3
 5078 06ca 43F03003 		orr	r3, r3, #48
 5079 06ce DBB2     		uxtb	r3, r3
 5080 06d0 DAB2     		uxtb	r2, r3
 5081 06d2 07F13003 		add	r3, r7, #48
 5082 06d6 2344     		add	r3, r3, r4
 5083 06d8 03F8202C 		strb	r2, [r3, #-32]
1083:.\DisplayBLL.c ****             buffer[index++] = (GetRtcBuffer()[RTC_DAY] & 0x0F) | 0x30;
ARM GAS  C:\Users\RECEPC~1\AppData\Local\Temp\ccNQpeOs.s 			page 110


 5084              		.loc 1 1083 0
 5085 06dc FB7E     		ldrb	r3, [r7, #27]	@ zero_extendqisi2
 5086 06de 5A1C     		adds	r2, r3, #1
 5087 06e0 FA76     		strb	r2, [r7, #27]
 5088 06e2 1C46     		mov	r4, r3
 5089 06e4 FFF7FEFF 		bl	GetRtcBuffer
 5090 06e8 0346     		mov	r3, r0
 5091 06ea 0433     		adds	r3, r3, #4
 5092 06ec 1B78     		ldrb	r3, [r3]	@ zero_extendqisi2
 5093 06ee DBB2     		uxtb	r3, r3
 5094 06f0 03F00F03 		and	r3, r3, #15
 5095 06f4 DBB2     		uxtb	r3, r3
 5096 06f6 43F03003 		orr	r3, r3, #48
 5097 06fa DBB2     		uxtb	r3, r3
 5098 06fc DAB2     		uxtb	r2, r3
 5099 06fe 07F13003 		add	r3, r7, #48
 5100 0702 2344     		add	r3, r3, r4
 5101 0704 03F8202C 		strb	r2, [r3, #-32]
1084:.\DisplayBLL.c ****             buffer[index++] = 0x2F;
 5102              		.loc 1 1084 0
 5103 0708 FB7E     		ldrb	r3, [r7, #27]	@ zero_extendqisi2
 5104 070a 5A1C     		adds	r2, r3, #1
 5105 070c FA76     		strb	r2, [r7, #27]
 5106 070e 07F13002 		add	r2, r7, #48
 5107 0712 1344     		add	r3, r3, r2
 5108 0714 2F22     		movs	r2, #47
 5109 0716 03F8202C 		strb	r2, [r3, #-32]
1085:.\DisplayBLL.c ****             buffer[index++] = ((GetRtcBuffer()[RTC_MONTH] >> 4) & 0x01) | 0x30;
 5110              		.loc 1 1085 0
 5111 071a FB7E     		ldrb	r3, [r7, #27]	@ zero_extendqisi2
 5112 071c 5A1C     		adds	r2, r3, #1
 5113 071e FA76     		strb	r2, [r7, #27]
 5114 0720 1C46     		mov	r4, r3
 5115 0722 FFF7FEFF 		bl	GetRtcBuffer
 5116 0726 0346     		mov	r3, r0
 5117 0728 0533     		adds	r3, r3, #5
 5118 072a 1B78     		ldrb	r3, [r3]	@ zero_extendqisi2
 5119 072c 1B09     		lsrs	r3, r3, #4
 5120 072e DBB2     		uxtb	r3, r3
 5121 0730 DBB2     		uxtb	r3, r3
 5122 0732 03F00103 		and	r3, r3, #1
 5123 0736 DBB2     		uxtb	r3, r3
 5124 0738 43F03003 		orr	r3, r3, #48
 5125 073c DBB2     		uxtb	r3, r3
 5126 073e DAB2     		uxtb	r2, r3
 5127 0740 07F13003 		add	r3, r7, #48
 5128 0744 2344     		add	r3, r3, r4
 5129 0746 03F8202C 		strb	r2, [r3, #-32]
1086:.\DisplayBLL.c ****             buffer[index++] = (GetRtcBuffer()[RTC_MONTH] & 0x0F) | 0x30;
 5130              		.loc 1 1086 0
 5131 074a FB7E     		ldrb	r3, [r7, #27]	@ zero_extendqisi2
 5132 074c 5A1C     		adds	r2, r3, #1
 5133 074e FA76     		strb	r2, [r7, #27]
 5134 0750 1C46     		mov	r4, r3
 5135 0752 FFF7FEFF 		bl	GetRtcBuffer
 5136 0756 0346     		mov	r3, r0
 5137 0758 0533     		adds	r3, r3, #5
ARM GAS  C:\Users\RECEPC~1\AppData\Local\Temp\ccNQpeOs.s 			page 111


 5138 075a 1B78     		ldrb	r3, [r3]	@ zero_extendqisi2
 5139 075c DBB2     		uxtb	r3, r3
 5140 075e 03F00F03 		and	r3, r3, #15
 5141 0762 DBB2     		uxtb	r3, r3
 5142 0764 43F03003 		orr	r3, r3, #48
 5143 0768 DBB2     		uxtb	r3, r3
 5144 076a DAB2     		uxtb	r2, r3
 5145 076c 07F13003 		add	r3, r7, #48
 5146 0770 2344     		add	r3, r3, r4
 5147 0772 03F8202C 		strb	r2, [r3, #-32]
1087:.\DisplayBLL.c ****             buffer[index++] = 0x2F;
 5148              		.loc 1 1087 0
 5149 0776 FB7E     		ldrb	r3, [r7, #27]	@ zero_extendqisi2
 5150 0778 5A1C     		adds	r2, r3, #1
 5151 077a FA76     		strb	r2, [r7, #27]
 5152 077c 07F13002 		add	r2, r7, #48
 5153 0780 1344     		add	r3, r3, r2
 5154 0782 2F22     		movs	r2, #47
 5155 0784 03F8202C 		strb	r2, [r3, #-32]
1088:.\DisplayBLL.c ****             buffer[index++] = ((GetRtcBuffer()[RTC_YEAR] >> 4) & 0x0F) | 0x30;
 5156              		.loc 1 1088 0
 5157 0788 FB7E     		ldrb	r3, [r7, #27]	@ zero_extendqisi2
 5158 078a 5A1C     		adds	r2, r3, #1
 5159 078c FA76     		strb	r2, [r7, #27]
 5160 078e 1C46     		mov	r4, r3
 5161 0790 FFF7FEFF 		bl	GetRtcBuffer
 5162 0794 0346     		mov	r3, r0
 5163 0796 0633     		adds	r3, r3, #6
 5164 0798 1B78     		ldrb	r3, [r3]	@ zero_extendqisi2
 5165 079a 1B09     		lsrs	r3, r3, #4
 5166 079c DBB2     		uxtb	r3, r3
 5167 079e DBB2     		uxtb	r3, r3
 5168 07a0 43F03003 		orr	r3, r3, #48
 5169 07a4 DBB2     		uxtb	r3, r3
 5170 07a6 DAB2     		uxtb	r2, r3
 5171 07a8 07F13003 		add	r3, r7, #48
 5172 07ac 2344     		add	r3, r3, r4
 5173 07ae 03F8202C 		strb	r2, [r3, #-32]
1089:.\DisplayBLL.c ****             buffer[index++] = (GetRtcBuffer()[RTC_YEAR] & 0x0F) | 0x30;
 5174              		.loc 1 1089 0
 5175 07b2 FB7E     		ldrb	r3, [r7, #27]	@ zero_extendqisi2
 5176 07b4 5A1C     		adds	r2, r3, #1
 5177 07b6 FA76     		strb	r2, [r7, #27]
 5178 07b8 1C46     		mov	r4, r3
 5179 07ba FFF7FEFF 		bl	GetRtcBuffer
 5180 07be 0346     		mov	r3, r0
 5181 07c0 0633     		adds	r3, r3, #6
 5182 07c2 1B78     		ldrb	r3, [r3]	@ zero_extendqisi2
 5183 07c4 DBB2     		uxtb	r3, r3
 5184 07c6 03F00F03 		and	r3, r3, #15
 5185 07ca DBB2     		uxtb	r3, r3
 5186 07cc 43F03003 		orr	r3, r3, #48
 5187 07d0 DBB2     		uxtb	r3, r3
 5188 07d2 DAB2     		uxtb	r2, r3
 5189 07d4 07F13003 		add	r3, r7, #48
 5190 07d8 2344     		add	r3, r3, r4
 5191 07da 03F8202C 		strb	r2, [r3, #-32]
ARM GAS  C:\Users\RECEPC~1\AppData\Local\Temp\ccNQpeOs.s 			page 112


1090:.\DisplayBLL.c **** 
1091:.\DisplayBLL.c ****             I2CBusUnlock();
 5192              		.loc 1 1091 0
 5193 07de FFF7FEFF 		bl	I2CBusUnlock
1092:.\DisplayBLL.c ****             
1093:.\DisplayBLL.c ****             puartdisp->_messagelength = DisplayOutputString(0x0C9, 0x12A, puartdisp->_messagetx, bu
 5194              		.loc 1 1093 0
 5195 07e2 FB69     		ldr	r3, [r7, #28]
 5196 07e4 1D1D     		adds	r5, r3, #4
 5197 07e6 FB7E     		ldrb	r3, [r7, #27]	@ zero_extendqisi2
 5198 07e8 9BB2     		uxth	r3, r3
 5199 07ea 07F11004 		add	r4, r7, #16
 5200 07ee 0093     		str	r3, [sp]
 5201 07f0 01AA     		add	r2, sp, #4
 5202 07f2 07F10803 		add	r3, r7, #8
 5203 07f6 93E80300 		ldmia	r3, {r0, r1}
 5204 07fa 82E80300 		stmia	r2, {r0, r1}
 5205 07fe C920     		movs	r0, #201
 5206 0800 4FF49571 		mov	r1, #298
 5207 0804 2A46     		mov	r2, r5
 5208 0806 2346     		mov	r3, r4
 5209 0808 FFF7FEFF 		bl	DisplayOutputString
 5210 080c 0346     		mov	r3, r0
 5211 080e 1A46     		mov	r2, r3
 5212 0810 FB69     		ldr	r3, [r7, #28]
 5213 0812 5A80     		strh	r2, [r3, #2]	@ movhi
1094:.\DisplayBLL.c ****             puartdisp->_messagestate = PENDING;
 5214              		.loc 1 1094 0
 5215 0814 FB69     		ldr	r3, [r7, #28]
 5216 0816 C222     		movs	r2, #194
 5217 0818 1A70     		strb	r2, [r3]
 5218              	.L159:
 5219              	.LBE60:
 5220              	.LBE58:
1095:.\DisplayBLL.c ****         }
1096:.\DisplayBLL.c ****     }
1097:.\DisplayBLL.c **** }
 5221              		.loc 1 1097 0
 5222 081a 3037     		adds	r7, r7, #48
 5223              		.cfi_def_cfa_offset 16
 5224 081c BD46     		mov	sp, r7
 5225              		.cfi_def_cfa_register 13
 5226              		@ sp needed
 5227 081e B0BD     		pop	{r4, r5, r7, pc}
 5228              		.cfi_endproc
 5229              	.LFE85:
 5230              		.size	DrawDateTime, .-DrawDateTime
 5231              		.section	.text.DrawHomeDateTime,"ax",%progbits
 5232              		.align	2
 5233              		.global	DrawHomeDateTime
 5234              		.thumb
 5235              		.thumb_func
 5236              		.type	DrawHomeDateTime, %function
 5237              	DrawHomeDateTime:
 5238              	.LFB86:
1098:.\DisplayBLL.c **** 
1099:.\DisplayBLL.c **** void DrawHomeDateTime(void *pparam)
ARM GAS  C:\Users\RECEPC~1\AppData\Local\Temp\ccNQpeOs.s 			page 113


1100:.\DisplayBLL.c **** {
 5239              		.loc 1 1100 0
 5240              		.cfi_startproc
 5241              		@ args = 0, pretend = 0, frame = 48
 5242              		@ frame_needed = 1, uses_anonymous_args = 0
 5243 0000 B0B5     		push	{r4, r5, r7, lr}
 5244              		.cfi_def_cfa_offset 16
 5245              		.cfi_offset 4, -16
 5246              		.cfi_offset 5, -12
 5247              		.cfi_offset 7, -8
 5248              		.cfi_offset 14, -4
 5249 0002 90B0     		sub	sp, sp, #64
 5250              		.cfi_def_cfa_offset 80
 5251 0004 04AF     		add	r7, sp, #16
 5252              		.cfi_def_cfa 7, 64
 5253 0006 7860     		str	r0, [r7, #4]
1101:.\DisplayBLL.c ****     char8 buffer[8];
1102:.\DisplayBLL.c ****     FontData fontdata;
1103:.\DisplayBLL.c ****     fontdata._size = 0x02;
 5254              		.loc 1 1103 0
 5255 0008 0223     		movs	r3, #2
 5256 000a 3B72     		strb	r3, [r7, #8]
1104:.\DisplayBLL.c ****     fontdata._backcolor = 0xFFFF;
 5257              		.loc 1 1104 0
 5258 000c 4FF6FF73 		movw	r3, #65535
 5259 0010 BB81     		strh	r3, [r7, #12]	@ movhi
1105:.\DisplayBLL.c ****     fontdata._forecolor = 0x0000;
 5260              		.loc 1 1105 0
 5261 0012 0023     		movs	r3, #0
 5262 0014 FB81     		strh	r3, [r7, #14]	@ movhi
1106:.\DisplayBLL.c ****     fontdata._opaquebackground = DISP_TEXT_OPAQUE;
 5263              		.loc 1 1106 0
 5264 0016 C523     		movs	r3, #197
 5265 0018 BB72     		strb	r3, [r7, #10]
1107:.\DisplayBLL.c ****     DisplayLayout *pdisplay = (DisplayLayout*)pparam;
 5266              		.loc 1 1107 0
 5267 001a 7B68     		ldr	r3, [r7, #4]
 5268 001c BB62     		str	r3, [r7, #40]
1108:.\DisplayBLL.c ****     if(pdisplay->_dispid == DISPLAY1 && ((PDISPLAYFLOWPTR)pdisplay->_pcurrflow)->_scrid == DISPLAY_
 5269              		.loc 1 1108 0
 5270 001e BB6A     		ldr	r3, [r7, #40]
 5271 0020 1B78     		ldrb	r3, [r3]	@ zero_extendqisi2
 5272 0022 002B     		cmp	r3, #0
 5273 0024 40F0DE81 		bne	.L170
 5274              		.loc 1 1108 0 is_stmt 0 discriminator 1
 5275 0028 BB6A     		ldr	r3, [r7, #40]
 5276 002a 1B69     		ldr	r3, [r3, #16]
 5277 002c 1B78     		ldrb	r3, [r3]	@ zero_extendqisi2
 5278 002e 012B     		cmp	r3, #1
 5279 0030 40F0D881 		bne	.L170
 5280              	.LBB61:
1109:.\DisplayBLL.c ****     {
1110:.\DisplayBLL.c ****         UARTMessage *puartdisp = GetUARTMessageSlot(UART_DISPLAY1);
 5281              		.loc 1 1110 0 is_stmt 1
 5282 0034 A320     		movs	r0, #163
 5283 0036 FFF7FEFF 		bl	GetUARTMessageSlot
 5284 003a 7862     		str	r0, [r7, #36]
ARM GAS  C:\Users\RECEPC~1\AppData\Local\Temp\ccNQpeOs.s 			page 114


1111:.\DisplayBLL.c ****         if(puartdisp)
 5285              		.loc 1 1111 0
 5286 003c 7B6A     		ldr	r3, [r7, #36]
 5287 003e 002B     		cmp	r3, #0
 5288 0040 00F0EA80 		beq	.L171
 5289              	.LBB62:
1112:.\DisplayBLL.c ****         {
1113:.\DisplayBLL.c ****             uint8 index = 0;
 5290              		.loc 1 1113 0
 5291 0044 0023     		movs	r3, #0
 5292 0046 87F82F30 		strb	r3, [r7, #47]
1114:.\DisplayBLL.c ****             
1115:.\DisplayBLL.c ****             //CAREFUL WITH RETURNS BETWEEN THE LOCK/UNLOCK CALLS
1116:.\DisplayBLL.c ****             //AND RECURSIVE CALLS THAT WOULD DEADLOCK!
1117:.\DisplayBLL.c ****             I2CBusLock();
 5293              		.loc 1 1117 0
 5294 004a FFF7FEFF 		bl	I2CBusLock
1118:.\DisplayBLL.c ****             
1119:.\DisplayBLL.c ****             ClearRtcBuffer();
 5295              		.loc 1 1119 0
 5296 004e FFF7FEFF 		bl	ClearRtcBuffer
1120:.\DisplayBLL.c ****             ReadRTC();                           
 5297              		.loc 1 1120 0
 5298 0052 FFF7FEFF 		bl	ReadRTC
1121:.\DisplayBLL.c ****             memset(buffer, 0x00, sizeof(buffer));            
 5299              		.loc 1 1121 0
 5300 0056 07F11003 		add	r3, r7, #16
 5301 005a 1846     		mov	r0, r3
 5302 005c 0021     		movs	r1, #0
 5303 005e 0822     		movs	r2, #8
 5304 0060 FFF7FEFF 		bl	memset
1122:.\DisplayBLL.c ****             
1123:.\DisplayBLL.c ****             if(GetRtcBuffer()[RTC_HOUR] & 0b01000000){
 5305              		.loc 1 1123 0
 5306 0064 FFF7FEFF 		bl	GetRtcBuffer
 5307 0068 0346     		mov	r3, r0
 5308 006a 0233     		adds	r3, r3, #2
 5309 006c 1B78     		ldrb	r3, [r3]	@ zero_extendqisi2
 5310 006e 03F04003 		and	r3, r3, #64
 5311 0072 002B     		cmp	r3, #0
 5312 0074 32D0     		beq	.L172
1124:.\DisplayBLL.c ****                 buffer[index++] = ((GetRtcBuffer()[RTC_HOUR] >> 4) & 0x01) | 0x30;
 5313              		.loc 1 1124 0
 5314 0076 97F82F30 		ldrb	r3, [r7, #47]	@ zero_extendqisi2
 5315 007a 5A1C     		adds	r2, r3, #1
 5316 007c 87F82F20 		strb	r2, [r7, #47]
 5317 0080 1C46     		mov	r4, r3
 5318 0082 FFF7FEFF 		bl	GetRtcBuffer
 5319 0086 0346     		mov	r3, r0
 5320 0088 0233     		adds	r3, r3, #2
 5321 008a 1B78     		ldrb	r3, [r3]	@ zero_extendqisi2
 5322 008c 1B09     		lsrs	r3, r3, #4
 5323 008e DBB2     		uxtb	r3, r3
 5324 0090 DBB2     		uxtb	r3, r3
 5325 0092 03F00103 		and	r3, r3, #1
 5326 0096 DBB2     		uxtb	r3, r3
 5327 0098 43F03003 		orr	r3, r3, #48
ARM GAS  C:\Users\RECEPC~1\AppData\Local\Temp\ccNQpeOs.s 			page 115


 5328 009c DBB2     		uxtb	r3, r3
 5329 009e DAB2     		uxtb	r2, r3
 5330 00a0 07F13003 		add	r3, r7, #48
 5331 00a4 2344     		add	r3, r3, r4
 5332 00a6 03F8202C 		strb	r2, [r3, #-32]
1125:.\DisplayBLL.c ****                 buffer[index++] = (GetRtcBuffer()[RTC_HOUR] & 0x0F) | 0x30;
 5333              		.loc 1 1125 0
 5334 00aa 97F82F30 		ldrb	r3, [r7, #47]	@ zero_extendqisi2
 5335 00ae 5A1C     		adds	r2, r3, #1
 5336 00b0 87F82F20 		strb	r2, [r7, #47]
 5337 00b4 1C46     		mov	r4, r3
 5338 00b6 FFF7FEFF 		bl	GetRtcBuffer
 5339 00ba 0346     		mov	r3, r0
 5340 00bc 0233     		adds	r3, r3, #2
 5341 00be 1B78     		ldrb	r3, [r3]	@ zero_extendqisi2
 5342 00c0 DBB2     		uxtb	r3, r3
 5343 00c2 03F00F03 		and	r3, r3, #15
 5344 00c6 DBB2     		uxtb	r3, r3
 5345 00c8 43F03003 		orr	r3, r3, #48
 5346 00cc DBB2     		uxtb	r3, r3
 5347 00ce DAB2     		uxtb	r2, r3
 5348 00d0 07F13003 		add	r3, r7, #48
 5349 00d4 2344     		add	r3, r3, r4
 5350 00d6 03F8202C 		strb	r2, [r3, #-32]
 5351 00da 31E0     		b	.L173
 5352              	.L172:
1126:.\DisplayBLL.c ****             }else{
1127:.\DisplayBLL.c ****                 buffer[index++] = ((GetRtcBuffer()[RTC_HOUR] >> 4) & 0x03) | 0x30;
 5353              		.loc 1 1127 0
 5354 00dc 97F82F30 		ldrb	r3, [r7, #47]	@ zero_extendqisi2
 5355 00e0 5A1C     		adds	r2, r3, #1
 5356 00e2 87F82F20 		strb	r2, [r7, #47]
 5357 00e6 1C46     		mov	r4, r3
 5358 00e8 FFF7FEFF 		bl	GetRtcBuffer
 5359 00ec 0346     		mov	r3, r0
 5360 00ee 0233     		adds	r3, r3, #2
 5361 00f0 1B78     		ldrb	r3, [r3]	@ zero_extendqisi2
 5362 00f2 1B09     		lsrs	r3, r3, #4
 5363 00f4 DBB2     		uxtb	r3, r3
 5364 00f6 DBB2     		uxtb	r3, r3
 5365 00f8 03F00303 		and	r3, r3, #3
 5366 00fc DBB2     		uxtb	r3, r3
 5367 00fe 43F03003 		orr	r3, r3, #48
 5368 0102 DBB2     		uxtb	r3, r3
 5369 0104 DAB2     		uxtb	r2, r3
 5370 0106 07F13003 		add	r3, r7, #48
 5371 010a 2344     		add	r3, r3, r4
 5372 010c 03F8202C 		strb	r2, [r3, #-32]
1128:.\DisplayBLL.c ****                 buffer[index++] = (GetRtcBuffer()[RTC_HOUR] & 0x0F) | 0x30;
 5373              		.loc 1 1128 0
 5374 0110 97F82F30 		ldrb	r3, [r7, #47]	@ zero_extendqisi2
 5375 0114 5A1C     		adds	r2, r3, #1
 5376 0116 87F82F20 		strb	r2, [r7, #47]
 5377 011a 1C46     		mov	r4, r3
 5378 011c FFF7FEFF 		bl	GetRtcBuffer
 5379 0120 0346     		mov	r3, r0
 5380 0122 0233     		adds	r3, r3, #2
ARM GAS  C:\Users\RECEPC~1\AppData\Local\Temp\ccNQpeOs.s 			page 116


 5381 0124 1B78     		ldrb	r3, [r3]	@ zero_extendqisi2
 5382 0126 DBB2     		uxtb	r3, r3
 5383 0128 03F00F03 		and	r3, r3, #15
 5384 012c DBB2     		uxtb	r3, r3
 5385 012e 43F03003 		orr	r3, r3, #48
 5386 0132 DBB2     		uxtb	r3, r3
 5387 0134 DAB2     		uxtb	r2, r3
 5388 0136 07F13003 		add	r3, r7, #48
 5389 013a 2344     		add	r3, r3, r4
 5390 013c 03F8202C 		strb	r2, [r3, #-32]
 5391              	.L173:
1129:.\DisplayBLL.c ****             }
1130:.\DisplayBLL.c ****             if(_g_homeanimarray[DISPLAY1]._colontoggler)
 5392              		.loc 1 1130 0
 5393 0140 A74B     		ldr	r3, .L183
 5394 0142 5B78     		ldrb	r3, [r3, #1]	@ zero_extendqisi2
 5395 0144 002B     		cmp	r3, #0
 5396 0146 0BD0     		beq	.L174
1131:.\DisplayBLL.c ****                 buffer[index++] = 0x3A;
 5397              		.loc 1 1131 0
 5398 0148 97F82F30 		ldrb	r3, [r7, #47]	@ zero_extendqisi2
 5399 014c 5A1C     		adds	r2, r3, #1
 5400 014e 87F82F20 		strb	r2, [r7, #47]
 5401 0152 07F13002 		add	r2, r7, #48
 5402 0156 1344     		add	r3, r3, r2
 5403 0158 3A22     		movs	r2, #58
 5404 015a 03F8202C 		strb	r2, [r3, #-32]
 5405 015e 0AE0     		b	.L175
 5406              	.L174:
1132:.\DisplayBLL.c ****             else
1133:.\DisplayBLL.c ****                 buffer[index++] = 0x20;
 5407              		.loc 1 1133 0
 5408 0160 97F82F30 		ldrb	r3, [r7, #47]	@ zero_extendqisi2
 5409 0164 5A1C     		adds	r2, r3, #1
 5410 0166 87F82F20 		strb	r2, [r7, #47]
 5411 016a 07F13002 		add	r2, r7, #48
 5412 016e 1344     		add	r3, r3, r2
 5413 0170 2022     		movs	r2, #32
 5414 0172 03F8202C 		strb	r2, [r3, #-32]
 5415              	.L175:
1134:.\DisplayBLL.c ****                 
1135:.\DisplayBLL.c ****             buffer[index++] = ((GetRtcBuffer()[RTC_MINUTES] >> 4) & 0x07) | 0x30;
 5416              		.loc 1 1135 0
 5417 0176 97F82F30 		ldrb	r3, [r7, #47]	@ zero_extendqisi2
 5418 017a 5A1C     		adds	r2, r3, #1
 5419 017c 87F82F20 		strb	r2, [r7, #47]
 5420 0180 1C46     		mov	r4, r3
 5421 0182 FFF7FEFF 		bl	GetRtcBuffer
 5422 0186 0346     		mov	r3, r0
 5423 0188 0133     		adds	r3, r3, #1
 5424 018a 1B78     		ldrb	r3, [r3]	@ zero_extendqisi2
 5425 018c 1B09     		lsrs	r3, r3, #4
 5426 018e DBB2     		uxtb	r3, r3
 5427 0190 DBB2     		uxtb	r3, r3
 5428 0192 03F00703 		and	r3, r3, #7
 5429 0196 DBB2     		uxtb	r3, r3
 5430 0198 43F03003 		orr	r3, r3, #48
ARM GAS  C:\Users\RECEPC~1\AppData\Local\Temp\ccNQpeOs.s 			page 117


 5431 019c DBB2     		uxtb	r3, r3
 5432 019e DAB2     		uxtb	r2, r3
 5433 01a0 07F13003 		add	r3, r7, #48
 5434 01a4 2344     		add	r3, r3, r4
 5435 01a6 03F8202C 		strb	r2, [r3, #-32]
1136:.\DisplayBLL.c ****             buffer[index++] = (GetRtcBuffer()[RTC_MINUTES] & 0x0F) | 0x30;
 5436              		.loc 1 1136 0
 5437 01aa 97F82F30 		ldrb	r3, [r7, #47]	@ zero_extendqisi2
 5438 01ae 5A1C     		adds	r2, r3, #1
 5439 01b0 87F82F20 		strb	r2, [r7, #47]
 5440 01b4 1C46     		mov	r4, r3
 5441 01b6 FFF7FEFF 		bl	GetRtcBuffer
 5442 01ba 0346     		mov	r3, r0
 5443 01bc 0133     		adds	r3, r3, #1
 5444 01be 1B78     		ldrb	r3, [r3]	@ zero_extendqisi2
 5445 01c0 DBB2     		uxtb	r3, r3
 5446 01c2 03F00F03 		and	r3, r3, #15
 5447 01c6 DBB2     		uxtb	r3, r3
 5448 01c8 43F03003 		orr	r3, r3, #48
 5449 01cc DBB2     		uxtb	r3, r3
 5450 01ce DAB2     		uxtb	r2, r3
 5451 01d0 07F13003 		add	r3, r7, #48
 5452 01d4 2344     		add	r3, r3, r4
 5453 01d6 03F8202C 		strb	r2, [r3, #-32]
1137:.\DisplayBLL.c ****             
1138:.\DisplayBLL.c ****             /*buffer[index++] = 0x3A;
1139:.\DisplayBLL.c ****             buffer[index++] = ((GetRtcBuffer()[RTC_SECONDS] >> 4) & 0x07) | 0x30;
1140:.\DisplayBLL.c ****             buffer[index++] = (GetRtcBuffer()[RTC_SECONDS] & 0x0F) | 0x30;
1141:.\DisplayBLL.c ****             */
1142:.\DisplayBLL.c ****             
1143:.\DisplayBLL.c ****             I2CBusUnlock();
 5454              		.loc 1 1143 0
 5455 01da FFF7FEFF 		bl	I2CBusUnlock
1144:.\DisplayBLL.c ****             
1145:.\DisplayBLL.c ****             puartdisp->_messagelength = DisplayOutputString(0x010, 0x1BA, puartdisp->_messagetx, bu
 5456              		.loc 1 1145 0
 5457 01de 7B6A     		ldr	r3, [r7, #36]
 5458 01e0 1D1D     		adds	r5, r3, #4
 5459 01e2 97F82F30 		ldrb	r3, [r7, #47]	@ zero_extendqisi2
 5460 01e6 9BB2     		uxth	r3, r3
 5461 01e8 07F11004 		add	r4, r7, #16
 5462 01ec 0093     		str	r3, [sp]
 5463 01ee 01AA     		add	r2, sp, #4
 5464 01f0 07F10803 		add	r3, r7, #8
 5465 01f4 93E80300 		ldmia	r3, {r0, r1}
 5466 01f8 82E80300 		stmia	r2, {r0, r1}
 5467 01fc 1020     		movs	r0, #16
 5468 01fe 4FF4DD71 		mov	r1, #442
 5469 0202 2A46     		mov	r2, r5
 5470 0204 2346     		mov	r3, r4
 5471 0206 FFF7FEFF 		bl	DisplayOutputString
 5472 020a 0346     		mov	r3, r0
 5473 020c 1A46     		mov	r2, r3
 5474 020e 7B6A     		ldr	r3, [r7, #36]
 5475 0210 5A80     		strh	r2, [r3, #2]	@ movhi
1146:.\DisplayBLL.c ****             puartdisp->_messagestate = PENDING;
 5476              		.loc 1 1146 0
ARM GAS  C:\Users\RECEPC~1\AppData\Local\Temp\ccNQpeOs.s 			page 118


 5477 0212 7B6A     		ldr	r3, [r7, #36]
 5478 0214 C222     		movs	r2, #194
 5479 0216 1A70     		strb	r2, [r3]
 5480              	.L171:
 5481              	.LBE62:
1147:.\DisplayBLL.c ****         }
1148:.\DisplayBLL.c ****         
1149:.\DisplayBLL.c ****         puartdisp = GetUARTMessageSlot(UART_DISPLAY1);
 5482              		.loc 1 1149 0
 5483 0218 A320     		movs	r0, #163
 5484 021a FFF7FEFF 		bl	GetUARTMessageSlot
 5485 021e 7862     		str	r0, [r7, #36]
1150:.\DisplayBLL.c ****         if(puartdisp)
 5486              		.loc 1 1150 0
 5487 0220 7B6A     		ldr	r3, [r7, #36]
 5488 0222 002B     		cmp	r3, #0
 5489 0224 00F0DA80 		beq	.L176
 5490              	.LBB63:
1151:.\DisplayBLL.c ****         {
1152:.\DisplayBLL.c ****             uint8 index = 0;
 5491              		.loc 1 1152 0
 5492 0228 0023     		movs	r3, #0
 5493 022a 87F82330 		strb	r3, [r7, #35]
1153:.\DisplayBLL.c ****             
1154:.\DisplayBLL.c ****             //CAREFUL WITH RETURNS BETWEEN THE LOCK/UNLOCK CALLS
1155:.\DisplayBLL.c ****             //AND RECURSIVE CALLS THAT WOULD DEADLOCK!
1156:.\DisplayBLL.c ****             I2CBusLock();
 5494              		.loc 1 1156 0
 5495 022e FFF7FEFF 		bl	I2CBusLock
1157:.\DisplayBLL.c ****             
1158:.\DisplayBLL.c ****             ClearRtcBuffer();
 5496              		.loc 1 1158 0
 5497 0232 FFF7FEFF 		bl	ClearRtcBuffer
1159:.\DisplayBLL.c ****             ReadRTC();                           
 5498              		.loc 1 1159 0
 5499 0236 FFF7FEFF 		bl	ReadRTC
1160:.\DisplayBLL.c ****             memset(buffer, 0x00, sizeof(buffer));            
 5500              		.loc 1 1160 0
 5501 023a 07F11003 		add	r3, r7, #16
 5502 023e 1846     		mov	r0, r3
 5503 0240 0021     		movs	r1, #0
 5504 0242 0822     		movs	r2, #8
 5505 0244 FFF7FEFF 		bl	memset
1161:.\DisplayBLL.c ****             
1162:.\DisplayBLL.c ****             buffer[index++] = ((GetRtcBuffer()[RTC_DAY] >> 4) & 0x03) | 0x30;
 5506              		.loc 1 1162 0
 5507 0248 97F82330 		ldrb	r3, [r7, #35]	@ zero_extendqisi2
 5508 024c 5A1C     		adds	r2, r3, #1
 5509 024e 87F82320 		strb	r2, [r7, #35]
 5510 0252 1C46     		mov	r4, r3
 5511 0254 FFF7FEFF 		bl	GetRtcBuffer
 5512 0258 0346     		mov	r3, r0
 5513 025a 0433     		adds	r3, r3, #4
 5514 025c 1B78     		ldrb	r3, [r3]	@ zero_extendqisi2
 5515 025e 1B09     		lsrs	r3, r3, #4
 5516 0260 DBB2     		uxtb	r3, r3
 5517 0262 DBB2     		uxtb	r3, r3
ARM GAS  C:\Users\RECEPC~1\AppData\Local\Temp\ccNQpeOs.s 			page 119


 5518 0264 03F00303 		and	r3, r3, #3
 5519 0268 DBB2     		uxtb	r3, r3
 5520 026a 43F03003 		orr	r3, r3, #48
 5521 026e DBB2     		uxtb	r3, r3
 5522 0270 DAB2     		uxtb	r2, r3
 5523 0272 07F13003 		add	r3, r7, #48
 5524 0276 2344     		add	r3, r3, r4
 5525 0278 03F8202C 		strb	r2, [r3, #-32]
1163:.\DisplayBLL.c ****             buffer[index++] = (GetRtcBuffer()[RTC_DAY] & 0x0F) | 0x30;
 5526              		.loc 1 1163 0
 5527 027c 97F82330 		ldrb	r3, [r7, #35]	@ zero_extendqisi2
 5528 0280 5A1C     		adds	r2, r3, #1
 5529 0282 87F82320 		strb	r2, [r7, #35]
 5530 0286 1C46     		mov	r4, r3
 5531 0288 FFF7FEFF 		bl	GetRtcBuffer
 5532 028c 0346     		mov	r3, r0
 5533 028e 0433     		adds	r3, r3, #4
 5534 0290 1B78     		ldrb	r3, [r3]	@ zero_extendqisi2
 5535 0292 DBB2     		uxtb	r3, r3
 5536 0294 03F00F03 		and	r3, r3, #15
 5537 0298 DBB2     		uxtb	r3, r3
 5538 029a 43F03003 		orr	r3, r3, #48
 5539 029e DBB2     		uxtb	r3, r3
 5540 02a0 DAB2     		uxtb	r2, r3
 5541 02a2 07F13003 		add	r3, r7, #48
 5542 02a6 2344     		add	r3, r3, r4
 5543 02a8 03F8202C 		strb	r2, [r3, #-32]
1164:.\DisplayBLL.c ****             buffer[index++] = 0x2F;
 5544              		.loc 1 1164 0
 5545 02ac 97F82330 		ldrb	r3, [r7, #35]	@ zero_extendqisi2
 5546 02b0 5A1C     		adds	r2, r3, #1
 5547 02b2 87F82320 		strb	r2, [r7, #35]
 5548 02b6 07F13002 		add	r2, r7, #48
 5549 02ba 1344     		add	r3, r3, r2
 5550 02bc 2F22     		movs	r2, #47
 5551 02be 03F8202C 		strb	r2, [r3, #-32]
1165:.\DisplayBLL.c ****             buffer[index++] = ((GetRtcBuffer()[RTC_MONTH] >> 4) & 0x01) | 0x30;
 5552              		.loc 1 1165 0
 5553 02c2 97F82330 		ldrb	r3, [r7, #35]	@ zero_extendqisi2
 5554 02c6 5A1C     		adds	r2, r3, #1
 5555 02c8 87F82320 		strb	r2, [r7, #35]
 5556 02cc 1C46     		mov	r4, r3
 5557 02ce FFF7FEFF 		bl	GetRtcBuffer
 5558 02d2 0346     		mov	r3, r0
 5559 02d4 0533     		adds	r3, r3, #5
 5560 02d6 1B78     		ldrb	r3, [r3]	@ zero_extendqisi2
 5561 02d8 1B09     		lsrs	r3, r3, #4
 5562 02da DBB2     		uxtb	r3, r3
 5563 02dc DBB2     		uxtb	r3, r3
 5564 02de 03F00103 		and	r3, r3, #1
 5565 02e2 DBB2     		uxtb	r3, r3
 5566 02e4 43F03003 		orr	r3, r3, #48
 5567 02e8 DBB2     		uxtb	r3, r3
 5568 02ea DAB2     		uxtb	r2, r3
 5569 02ec 07F13003 		add	r3, r7, #48
 5570 02f0 2344     		add	r3, r3, r4
 5571 02f2 03F8202C 		strb	r2, [r3, #-32]
ARM GAS  C:\Users\RECEPC~1\AppData\Local\Temp\ccNQpeOs.s 			page 120


1166:.\DisplayBLL.c ****             buffer[index++] = (GetRtcBuffer()[RTC_MONTH] & 0x0F) | 0x30;
 5572              		.loc 1 1166 0
 5573 02f6 97F82330 		ldrb	r3, [r7, #35]	@ zero_extendqisi2
 5574 02fa 5A1C     		adds	r2, r3, #1
 5575 02fc 87F82320 		strb	r2, [r7, #35]
 5576 0300 1C46     		mov	r4, r3
 5577 0302 FFF7FEFF 		bl	GetRtcBuffer
 5578 0306 0346     		mov	r3, r0
 5579 0308 0533     		adds	r3, r3, #5
 5580 030a 1B78     		ldrb	r3, [r3]	@ zero_extendqisi2
 5581 030c DBB2     		uxtb	r3, r3
 5582 030e 03F00F03 		and	r3, r3, #15
 5583 0312 DBB2     		uxtb	r3, r3
 5584 0314 43F03003 		orr	r3, r3, #48
 5585 0318 DBB2     		uxtb	r3, r3
 5586 031a DAB2     		uxtb	r2, r3
 5587 031c 07F13003 		add	r3, r7, #48
 5588 0320 2344     		add	r3, r3, r4
 5589 0322 03F8202C 		strb	r2, [r3, #-32]
1167:.\DisplayBLL.c ****             
1168:.\DisplayBLL.c ****             buffer[index++] = 0x2F;
 5590              		.loc 1 1168 0
 5591 0326 97F82330 		ldrb	r3, [r7, #35]	@ zero_extendqisi2
 5592 032a 5A1C     		adds	r2, r3, #1
 5593 032c 87F82320 		strb	r2, [r7, #35]
 5594 0330 07F13002 		add	r2, r7, #48
 5595 0334 1344     		add	r3, r3, r2
 5596 0336 2F22     		movs	r2, #47
 5597 0338 03F8202C 		strb	r2, [r3, #-32]
1169:.\DisplayBLL.c ****             buffer[index++] = ((GetRtcBuffer()[RTC_YEAR] >> 4) & 0x0F) | 0x30;
 5598              		.loc 1 1169 0
 5599 033c 97F82330 		ldrb	r3, [r7, #35]	@ zero_extendqisi2
 5600 0340 5A1C     		adds	r2, r3, #1
 5601 0342 87F82320 		strb	r2, [r7, #35]
 5602 0346 1C46     		mov	r4, r3
 5603 0348 FFF7FEFF 		bl	GetRtcBuffer
 5604 034c 0346     		mov	r3, r0
 5605 034e 0633     		adds	r3, r3, #6
 5606 0350 1B78     		ldrb	r3, [r3]	@ zero_extendqisi2
 5607 0352 1B09     		lsrs	r3, r3, #4
 5608 0354 DBB2     		uxtb	r3, r3
 5609 0356 DBB2     		uxtb	r3, r3
 5610 0358 43F03003 		orr	r3, r3, #48
 5611 035c DBB2     		uxtb	r3, r3
 5612 035e DAB2     		uxtb	r2, r3
 5613 0360 07F13003 		add	r3, r7, #48
 5614 0364 2344     		add	r3, r3, r4
 5615 0366 03F8202C 		strb	r2, [r3, #-32]
1170:.\DisplayBLL.c ****             buffer[index++] = (GetRtcBuffer()[RTC_YEAR] & 0x0F) | 0x30;
 5616              		.loc 1 1170 0
 5617 036a 97F82330 		ldrb	r3, [r7, #35]	@ zero_extendqisi2
 5618 036e 5A1C     		adds	r2, r3, #1
 5619 0370 87F82320 		strb	r2, [r7, #35]
 5620 0374 1C46     		mov	r4, r3
 5621 0376 FFF7FEFF 		bl	GetRtcBuffer
 5622 037a 0346     		mov	r3, r0
 5623 037c 0633     		adds	r3, r3, #6
ARM GAS  C:\Users\RECEPC~1\AppData\Local\Temp\ccNQpeOs.s 			page 121


 5624 037e 1B78     		ldrb	r3, [r3]	@ zero_extendqisi2
 5625 0380 DBB2     		uxtb	r3, r3
 5626 0382 03F00F03 		and	r3, r3, #15
 5627 0386 DBB2     		uxtb	r3, r3
 5628 0388 43F03003 		orr	r3, r3, #48
 5629 038c DBB2     		uxtb	r3, r3
 5630 038e DAB2     		uxtb	r2, r3
 5631 0390 07F13003 		add	r3, r7, #48
 5632 0394 2344     		add	r3, r3, r4
 5633 0396 03F8202C 		strb	r2, [r3, #-32]
1171:.\DisplayBLL.c **** 
1172:.\DisplayBLL.c ****             I2CBusUnlock();
 5634              		.loc 1 1172 0
 5635 039a FFF7FEFF 		bl	I2CBusUnlock
1173:.\DisplayBLL.c ****             
1174:.\DisplayBLL.c ****             puartdisp->_messagelength = DisplayOutputString(0x210, 0x1BA, puartdisp->_messagetx, bu
 5636              		.loc 1 1174 0
 5637 039e 7B6A     		ldr	r3, [r7, #36]
 5638 03a0 1D1D     		adds	r5, r3, #4
 5639 03a2 97F82330 		ldrb	r3, [r7, #35]	@ zero_extendqisi2
 5640 03a6 9BB2     		uxth	r3, r3
 5641 03a8 07F11004 		add	r4, r7, #16
 5642 03ac 0093     		str	r3, [sp]
 5643 03ae 01AA     		add	r2, sp, #4
 5644 03b0 07F10803 		add	r3, r7, #8
 5645 03b4 93E80300 		ldmia	r3, {r0, r1}
 5646 03b8 82E80300 		stmia	r2, {r0, r1}
 5647 03bc 4FF40470 		mov	r0, #528
 5648 03c0 4FF4DD71 		mov	r1, #442
 5649 03c4 2A46     		mov	r2, r5
 5650 03c6 2346     		mov	r3, r4
 5651 03c8 FFF7FEFF 		bl	DisplayOutputString
 5652 03cc 0346     		mov	r3, r0
 5653 03ce 1A46     		mov	r2, r3
 5654 03d0 7B6A     		ldr	r3, [r7, #36]
 5655 03d2 5A80     		strh	r2, [r3, #2]	@ movhi
1175:.\DisplayBLL.c ****             puartdisp->_messagestate = PENDING;
 5656              		.loc 1 1175 0
 5657 03d4 7B6A     		ldr	r3, [r7, #36]
 5658 03d6 C222     		movs	r2, #194
 5659 03d8 1A70     		strb	r2, [r3]
 5660              	.LBE63:
 5661              	.LBE61:
1109:.\DisplayBLL.c ****         UARTMessage *puartdisp = GetUARTMessageSlot(UART_DISPLAY1);
 5662              		.loc 1 1109 0
 5663 03da CFE1     		b	.L169
 5664              	.L176:
 5665 03dc CEE1     		b	.L169
 5666              	.L184:
 5667 03de 00BF     		.align	2
 5668              	.L183:
 5669 03e0 00000000 		.word	_g_homeanimarray
 5670              	.L170:
1176:.\DisplayBLL.c ****         }
1177:.\DisplayBLL.c ****         
1178:.\DisplayBLL.c ****     }
1179:.\DisplayBLL.c ****     else if(pdisplay->_dispid == DISPLAY2 && ((PDISPLAYFLOWPTR)pdisplay->_pcurrflow)->_scrid == DIS
ARM GAS  C:\Users\RECEPC~1\AppData\Local\Temp\ccNQpeOs.s 			page 122


 5671              		.loc 1 1179 0
 5672 03e4 BB6A     		ldr	r3, [r7, #40]
 5673 03e6 1B78     		ldrb	r3, [r3]	@ zero_extendqisi2
 5674 03e8 012B     		cmp	r3, #1
 5675 03ea 40F0C781 		bne	.L169
 5676              		.loc 1 1179 0 is_stmt 0 discriminator 1
 5677 03ee BB6A     		ldr	r3, [r7, #40]
 5678 03f0 1B69     		ldr	r3, [r3, #16]
 5679 03f2 1B78     		ldrb	r3, [r3]	@ zero_extendqisi2
 5680 03f4 012B     		cmp	r3, #1
 5681 03f6 40F0C181 		bne	.L169
 5682              	.LBB64:
1180:.\DisplayBLL.c ****     {
1181:.\DisplayBLL.c ****         UARTMessage *puartdisp = GetUARTMessageSlot(UART_DISPLAY2);
 5683              		.loc 1 1181 0 is_stmt 1
 5684 03fa A420     		movs	r0, #164
 5685 03fc FFF7FEFF 		bl	GetUARTMessageSlot
 5686 0400 F861     		str	r0, [r7, #28]
1182:.\DisplayBLL.c ****         if(puartdisp)
 5687              		.loc 1 1182 0
 5688 0402 FB69     		ldr	r3, [r7, #28]
 5689 0404 002B     		cmp	r3, #0
 5690 0406 00F0EA80 		beq	.L178
 5691              	.LBB65:
1183:.\DisplayBLL.c ****         {
1184:.\DisplayBLL.c ****             uint8 index = 0;
 5692              		.loc 1 1184 0
 5693 040a 0023     		movs	r3, #0
 5694 040c 87F82E30 		strb	r3, [r7, #46]
1185:.\DisplayBLL.c ****             
1186:.\DisplayBLL.c ****             //CAREFUL WITH RETURNS BETWEEN THE LOCK/UNLOCK CALLS
1187:.\DisplayBLL.c ****             //AND RECURSIVE CALLS THAT WOULD DEADLOCK!
1188:.\DisplayBLL.c ****             I2CBusLock();
 5695              		.loc 1 1188 0
 5696 0410 FFF7FEFF 		bl	I2CBusLock
1189:.\DisplayBLL.c ****             
1190:.\DisplayBLL.c ****             ClearRtcBuffer();
 5697              		.loc 1 1190 0
 5698 0414 FFF7FEFF 		bl	ClearRtcBuffer
1191:.\DisplayBLL.c ****             ReadRTC();                           
 5699              		.loc 1 1191 0
 5700 0418 FFF7FEFF 		bl	ReadRTC
1192:.\DisplayBLL.c ****             memset(buffer, 0x00, sizeof(buffer));            
 5701              		.loc 1 1192 0
 5702 041c 07F11003 		add	r3, r7, #16
 5703 0420 1846     		mov	r0, r3
 5704 0422 0021     		movs	r1, #0
 5705 0424 0822     		movs	r2, #8
 5706 0426 FFF7FEFF 		bl	memset
1193:.\DisplayBLL.c ****             
1194:.\DisplayBLL.c ****             if(GetRtcBuffer()[RTC_HOUR] & 0b01000000){
 5707              		.loc 1 1194 0
 5708 042a FFF7FEFF 		bl	GetRtcBuffer
 5709 042e 0346     		mov	r3, r0
 5710 0430 0233     		adds	r3, r3, #2
 5711 0432 1B78     		ldrb	r3, [r3]	@ zero_extendqisi2
 5712 0434 03F04003 		and	r3, r3, #64
ARM GAS  C:\Users\RECEPC~1\AppData\Local\Temp\ccNQpeOs.s 			page 123


 5713 0438 002B     		cmp	r3, #0
 5714 043a 32D0     		beq	.L179
1195:.\DisplayBLL.c ****                 buffer[index++] = ((GetRtcBuffer()[RTC_HOUR] >> 4) & 0x01) | 0x30;
 5715              		.loc 1 1195 0
 5716 043c 97F82E30 		ldrb	r3, [r7, #46]	@ zero_extendqisi2
 5717 0440 5A1C     		adds	r2, r3, #1
 5718 0442 87F82E20 		strb	r2, [r7, #46]
 5719 0446 1C46     		mov	r4, r3
 5720 0448 FFF7FEFF 		bl	GetRtcBuffer
 5721 044c 0346     		mov	r3, r0
 5722 044e 0233     		adds	r3, r3, #2
 5723 0450 1B78     		ldrb	r3, [r3]	@ zero_extendqisi2
 5724 0452 1B09     		lsrs	r3, r3, #4
 5725 0454 DBB2     		uxtb	r3, r3
 5726 0456 DBB2     		uxtb	r3, r3
 5727 0458 03F00103 		and	r3, r3, #1
 5728 045c DBB2     		uxtb	r3, r3
 5729 045e 43F03003 		orr	r3, r3, #48
 5730 0462 DBB2     		uxtb	r3, r3
 5731 0464 DAB2     		uxtb	r2, r3
 5732 0466 07F13003 		add	r3, r7, #48
 5733 046a 2344     		add	r3, r3, r4
 5734 046c 03F8202C 		strb	r2, [r3, #-32]
1196:.\DisplayBLL.c ****                 buffer[index++] = (GetRtcBuffer()[RTC_HOUR] & 0x0F) | 0x30;
 5735              		.loc 1 1196 0
 5736 0470 97F82E30 		ldrb	r3, [r7, #46]	@ zero_extendqisi2
 5737 0474 5A1C     		adds	r2, r3, #1
 5738 0476 87F82E20 		strb	r2, [r7, #46]
 5739 047a 1C46     		mov	r4, r3
 5740 047c FFF7FEFF 		bl	GetRtcBuffer
 5741 0480 0346     		mov	r3, r0
 5742 0482 0233     		adds	r3, r3, #2
 5743 0484 1B78     		ldrb	r3, [r3]	@ zero_extendqisi2
 5744 0486 DBB2     		uxtb	r3, r3
 5745 0488 03F00F03 		and	r3, r3, #15
 5746 048c DBB2     		uxtb	r3, r3
 5747 048e 43F03003 		orr	r3, r3, #48
 5748 0492 DBB2     		uxtb	r3, r3
 5749 0494 DAB2     		uxtb	r2, r3
 5750 0496 07F13003 		add	r3, r7, #48
 5751 049a 2344     		add	r3, r3, r4
 5752 049c 03F8202C 		strb	r2, [r3, #-32]
 5753 04a0 31E0     		b	.L180
 5754              	.L179:
1197:.\DisplayBLL.c ****             }else{
1198:.\DisplayBLL.c ****                 buffer[index++] = ((GetRtcBuffer()[RTC_HOUR] >> 4) & 0x03) | 0x30;
 5755              		.loc 1 1198 0
 5756 04a2 97F82E30 		ldrb	r3, [r7, #46]	@ zero_extendqisi2
 5757 04a6 5A1C     		adds	r2, r3, #1
 5758 04a8 87F82E20 		strb	r2, [r7, #46]
 5759 04ac 1C46     		mov	r4, r3
 5760 04ae FFF7FEFF 		bl	GetRtcBuffer
 5761 04b2 0346     		mov	r3, r0
 5762 04b4 0233     		adds	r3, r3, #2
 5763 04b6 1B78     		ldrb	r3, [r3]	@ zero_extendqisi2
 5764 04b8 1B09     		lsrs	r3, r3, #4
 5765 04ba DBB2     		uxtb	r3, r3
ARM GAS  C:\Users\RECEPC~1\AppData\Local\Temp\ccNQpeOs.s 			page 124


 5766 04bc DBB2     		uxtb	r3, r3
 5767 04be 03F00303 		and	r3, r3, #3
 5768 04c2 DBB2     		uxtb	r3, r3
 5769 04c4 43F03003 		orr	r3, r3, #48
 5770 04c8 DBB2     		uxtb	r3, r3
 5771 04ca DAB2     		uxtb	r2, r3
 5772 04cc 07F13003 		add	r3, r7, #48
 5773 04d0 2344     		add	r3, r3, r4
 5774 04d2 03F8202C 		strb	r2, [r3, #-32]
1199:.\DisplayBLL.c ****                 buffer[index++] = (GetRtcBuffer()[RTC_HOUR] & 0x0F) | 0x30;
 5775              		.loc 1 1199 0
 5776 04d6 97F82E30 		ldrb	r3, [r7, #46]	@ zero_extendqisi2
 5777 04da 5A1C     		adds	r2, r3, #1
 5778 04dc 87F82E20 		strb	r2, [r7, #46]
 5779 04e0 1C46     		mov	r4, r3
 5780 04e2 FFF7FEFF 		bl	GetRtcBuffer
 5781 04e6 0346     		mov	r3, r0
 5782 04e8 0233     		adds	r3, r3, #2
 5783 04ea 1B78     		ldrb	r3, [r3]	@ zero_extendqisi2
 5784 04ec DBB2     		uxtb	r3, r3
 5785 04ee 03F00F03 		and	r3, r3, #15
 5786 04f2 DBB2     		uxtb	r3, r3
 5787 04f4 43F03003 		orr	r3, r3, #48
 5788 04f8 DBB2     		uxtb	r3, r3
 5789 04fa DAB2     		uxtb	r2, r3
 5790 04fc 07F13003 		add	r3, r7, #48
 5791 0500 2344     		add	r3, r3, r4
 5792 0502 03F8202C 		strb	r2, [r3, #-32]
 5793              	.L180:
1200:.\DisplayBLL.c ****             }
1201:.\DisplayBLL.c ****             if(_g_homeanimarray[DISPLAY2]._colontoggler)
 5794              		.loc 1 1201 0
 5795 0506 9F4B     		ldr	r3, .L185
 5796 0508 1B7A     		ldrb	r3, [r3, #8]	@ zero_extendqisi2
 5797 050a 002B     		cmp	r3, #0
 5798 050c 0BD0     		beq	.L181
1202:.\DisplayBLL.c ****                 buffer[index++] = 0x3A;
 5799              		.loc 1 1202 0
 5800 050e 97F82E30 		ldrb	r3, [r7, #46]	@ zero_extendqisi2
 5801 0512 5A1C     		adds	r2, r3, #1
 5802 0514 87F82E20 		strb	r2, [r7, #46]
 5803 0518 07F13002 		add	r2, r7, #48
 5804 051c 1344     		add	r3, r3, r2
 5805 051e 3A22     		movs	r2, #58
 5806 0520 03F8202C 		strb	r2, [r3, #-32]
 5807 0524 0AE0     		b	.L182
 5808              	.L181:
1203:.\DisplayBLL.c ****             else
1204:.\DisplayBLL.c ****                 buffer[index++] = 0x20;
 5809              		.loc 1 1204 0
 5810 0526 97F82E30 		ldrb	r3, [r7, #46]	@ zero_extendqisi2
 5811 052a 5A1C     		adds	r2, r3, #1
 5812 052c 87F82E20 		strb	r2, [r7, #46]
 5813 0530 07F13002 		add	r2, r7, #48
 5814 0534 1344     		add	r3, r3, r2
 5815 0536 2022     		movs	r2, #32
 5816 0538 03F8202C 		strb	r2, [r3, #-32]
ARM GAS  C:\Users\RECEPC~1\AppData\Local\Temp\ccNQpeOs.s 			page 125


 5817              	.L182:
1205:.\DisplayBLL.c ****                 
1206:.\DisplayBLL.c ****             buffer[index++] = ((GetRtcBuffer()[RTC_MINUTES] >> 4) & 0x07) | 0x30;
 5818              		.loc 1 1206 0
 5819 053c 97F82E30 		ldrb	r3, [r7, #46]	@ zero_extendqisi2
 5820 0540 5A1C     		adds	r2, r3, #1
 5821 0542 87F82E20 		strb	r2, [r7, #46]
 5822 0546 1C46     		mov	r4, r3
 5823 0548 FFF7FEFF 		bl	GetRtcBuffer
 5824 054c 0346     		mov	r3, r0
 5825 054e 0133     		adds	r3, r3, #1
 5826 0550 1B78     		ldrb	r3, [r3]	@ zero_extendqisi2
 5827 0552 1B09     		lsrs	r3, r3, #4
 5828 0554 DBB2     		uxtb	r3, r3
 5829 0556 DBB2     		uxtb	r3, r3
 5830 0558 03F00703 		and	r3, r3, #7
 5831 055c DBB2     		uxtb	r3, r3
 5832 055e 43F03003 		orr	r3, r3, #48
 5833 0562 DBB2     		uxtb	r3, r3
 5834 0564 DAB2     		uxtb	r2, r3
 5835 0566 07F13003 		add	r3, r7, #48
 5836 056a 2344     		add	r3, r3, r4
 5837 056c 03F8202C 		strb	r2, [r3, #-32]
1207:.\DisplayBLL.c ****             buffer[index++] = (GetRtcBuffer()[RTC_MINUTES] & 0x0F) | 0x30;
 5838              		.loc 1 1207 0
 5839 0570 97F82E30 		ldrb	r3, [r7, #46]	@ zero_extendqisi2
 5840 0574 5A1C     		adds	r2, r3, #1
 5841 0576 87F82E20 		strb	r2, [r7, #46]
 5842 057a 1C46     		mov	r4, r3
 5843 057c FFF7FEFF 		bl	GetRtcBuffer
 5844 0580 0346     		mov	r3, r0
 5845 0582 0133     		adds	r3, r3, #1
 5846 0584 1B78     		ldrb	r3, [r3]	@ zero_extendqisi2
 5847 0586 DBB2     		uxtb	r3, r3
 5848 0588 03F00F03 		and	r3, r3, #15
 5849 058c DBB2     		uxtb	r3, r3
 5850 058e 43F03003 		orr	r3, r3, #48
 5851 0592 DBB2     		uxtb	r3, r3
 5852 0594 DAB2     		uxtb	r2, r3
 5853 0596 07F13003 		add	r3, r7, #48
 5854 059a 2344     		add	r3, r3, r4
 5855 059c 03F8202C 		strb	r2, [r3, #-32]
1208:.\DisplayBLL.c ****             
1209:.\DisplayBLL.c ****             /*buffer[index++] = 0x3A;
1210:.\DisplayBLL.c ****             buffer[index++] = ((GetRtcBuffer()[RTC_SECONDS] >> 4) & 0x07) | 0x30;
1211:.\DisplayBLL.c ****             buffer[index++] = (GetRtcBuffer()[RTC_SECONDS] & 0x0F) | 0x30;*/
1212:.\DisplayBLL.c ****             
1213:.\DisplayBLL.c ****             I2CBusUnlock();            
 5856              		.loc 1 1213 0
 5857 05a0 FFF7FEFF 		bl	I2CBusUnlock
1214:.\DisplayBLL.c ****             
1215:.\DisplayBLL.c ****             puartdisp->_messagelength = DisplayOutputString(0x010, 0x1BA, puartdisp->_messagetx, bu
 5858              		.loc 1 1215 0
 5859 05a4 FB69     		ldr	r3, [r7, #28]
 5860 05a6 1D1D     		adds	r5, r3, #4
 5861 05a8 97F82E30 		ldrb	r3, [r7, #46]	@ zero_extendqisi2
 5862 05ac 9BB2     		uxth	r3, r3
ARM GAS  C:\Users\RECEPC~1\AppData\Local\Temp\ccNQpeOs.s 			page 126


 5863 05ae 07F11004 		add	r4, r7, #16
 5864 05b2 0093     		str	r3, [sp]
 5865 05b4 01AA     		add	r2, sp, #4
 5866 05b6 07F10803 		add	r3, r7, #8
 5867 05ba 93E80300 		ldmia	r3, {r0, r1}
 5868 05be 82E80300 		stmia	r2, {r0, r1}
 5869 05c2 1020     		movs	r0, #16
 5870 05c4 4FF4DD71 		mov	r1, #442
 5871 05c8 2A46     		mov	r2, r5
 5872 05ca 2346     		mov	r3, r4
 5873 05cc FFF7FEFF 		bl	DisplayOutputString
 5874 05d0 0346     		mov	r3, r0
 5875 05d2 1A46     		mov	r2, r3
 5876 05d4 FB69     		ldr	r3, [r7, #28]
 5877 05d6 5A80     		strh	r2, [r3, #2]	@ movhi
1216:.\DisplayBLL.c ****             puartdisp->_messagestate = PENDING;
 5878              		.loc 1 1216 0
 5879 05d8 FB69     		ldr	r3, [r7, #28]
 5880 05da C222     		movs	r2, #194
 5881 05dc 1A70     		strb	r2, [r3]
 5882              	.L178:
 5883              	.LBE65:
1217:.\DisplayBLL.c ****         }
1218:.\DisplayBLL.c ****         
1219:.\DisplayBLL.c ****         puartdisp = GetUARTMessageSlot(UART_DISPLAY2);
 5884              		.loc 1 1219 0
 5885 05de A420     		movs	r0, #164
 5886 05e0 FFF7FEFF 		bl	GetUARTMessageSlot
 5887 05e4 F861     		str	r0, [r7, #28]
1220:.\DisplayBLL.c ****         if(puartdisp)
 5888              		.loc 1 1220 0
 5889 05e6 FB69     		ldr	r3, [r7, #28]
 5890 05e8 002B     		cmp	r3, #0
 5891 05ea 00F0C780 		beq	.L169
 5892              	.LBB66:
1221:.\DisplayBLL.c ****         {
1222:.\DisplayBLL.c ****             uint8 index = 0;
 5893              		.loc 1 1222 0
 5894 05ee 0023     		movs	r3, #0
 5895 05f0 FB76     		strb	r3, [r7, #27]
1223:.\DisplayBLL.c ****             
1224:.\DisplayBLL.c ****             //CAREFUL WITH RETURNS BETWEEN THE LOCK/UNLOCK CALLS
1225:.\DisplayBLL.c ****             //AND RECURSIVE CALLS THAT WOULD DEADLOCK!
1226:.\DisplayBLL.c ****             I2CBusLock();
 5896              		.loc 1 1226 0
 5897 05f2 FFF7FEFF 		bl	I2CBusLock
1227:.\DisplayBLL.c ****             
1228:.\DisplayBLL.c ****             ClearRtcBuffer();
 5898              		.loc 1 1228 0
 5899 05f6 FFF7FEFF 		bl	ClearRtcBuffer
1229:.\DisplayBLL.c ****             ReadRTC();                           
 5900              		.loc 1 1229 0
 5901 05fa FFF7FEFF 		bl	ReadRTC
1230:.\DisplayBLL.c ****             memset(buffer, 0x00, sizeof(buffer));            
 5902              		.loc 1 1230 0
 5903 05fe 07F11003 		add	r3, r7, #16
 5904 0602 1846     		mov	r0, r3
ARM GAS  C:\Users\RECEPC~1\AppData\Local\Temp\ccNQpeOs.s 			page 127


 5905 0604 0021     		movs	r1, #0
 5906 0606 0822     		movs	r2, #8
 5907 0608 FFF7FEFF 		bl	memset
1231:.\DisplayBLL.c ****             
1232:.\DisplayBLL.c ****             buffer[index++] = ((GetRtcBuffer()[RTC_DAY] >> 4) & 0x03) | 0x30;
 5908              		.loc 1 1232 0
 5909 060c FB7E     		ldrb	r3, [r7, #27]	@ zero_extendqisi2
 5910 060e 5A1C     		adds	r2, r3, #1
 5911 0610 FA76     		strb	r2, [r7, #27]
 5912 0612 1C46     		mov	r4, r3
 5913 0614 FFF7FEFF 		bl	GetRtcBuffer
 5914 0618 0346     		mov	r3, r0
 5915 061a 0433     		adds	r3, r3, #4
 5916 061c 1B78     		ldrb	r3, [r3]	@ zero_extendqisi2
 5917 061e 1B09     		lsrs	r3, r3, #4
 5918 0620 DBB2     		uxtb	r3, r3
 5919 0622 DBB2     		uxtb	r3, r3
 5920 0624 03F00303 		and	r3, r3, #3
 5921 0628 DBB2     		uxtb	r3, r3
 5922 062a 43F03003 		orr	r3, r3, #48
 5923 062e DBB2     		uxtb	r3, r3
 5924 0630 DAB2     		uxtb	r2, r3
 5925 0632 07F13003 		add	r3, r7, #48
 5926 0636 2344     		add	r3, r3, r4
 5927 0638 03F8202C 		strb	r2, [r3, #-32]
1233:.\DisplayBLL.c ****             buffer[index++] = (GetRtcBuffer()[RTC_DAY] & 0x0F) | 0x30;
 5928              		.loc 1 1233 0
 5929 063c FB7E     		ldrb	r3, [r7, #27]	@ zero_extendqisi2
 5930 063e 5A1C     		adds	r2, r3, #1
 5931 0640 FA76     		strb	r2, [r7, #27]
 5932 0642 1C46     		mov	r4, r3
 5933 0644 FFF7FEFF 		bl	GetRtcBuffer
 5934 0648 0346     		mov	r3, r0
 5935 064a 0433     		adds	r3, r3, #4
 5936 064c 1B78     		ldrb	r3, [r3]	@ zero_extendqisi2
 5937 064e DBB2     		uxtb	r3, r3
 5938 0650 03F00F03 		and	r3, r3, #15
 5939 0654 DBB2     		uxtb	r3, r3
 5940 0656 43F03003 		orr	r3, r3, #48
 5941 065a DBB2     		uxtb	r3, r3
 5942 065c DAB2     		uxtb	r2, r3
 5943 065e 07F13003 		add	r3, r7, #48
 5944 0662 2344     		add	r3, r3, r4
 5945 0664 03F8202C 		strb	r2, [r3, #-32]
1234:.\DisplayBLL.c ****             buffer[index++] = 0x2F;
 5946              		.loc 1 1234 0
 5947 0668 FB7E     		ldrb	r3, [r7, #27]	@ zero_extendqisi2
 5948 066a 5A1C     		adds	r2, r3, #1
 5949 066c FA76     		strb	r2, [r7, #27]
 5950 066e 07F13002 		add	r2, r7, #48
 5951 0672 1344     		add	r3, r3, r2
 5952 0674 2F22     		movs	r2, #47
 5953 0676 03F8202C 		strb	r2, [r3, #-32]
1235:.\DisplayBLL.c ****             buffer[index++] = ((GetRtcBuffer()[RTC_MONTH] >> 4) & 0x01) | 0x30;
 5954              		.loc 1 1235 0
 5955 067a FB7E     		ldrb	r3, [r7, #27]	@ zero_extendqisi2
 5956 067c 5A1C     		adds	r2, r3, #1
ARM GAS  C:\Users\RECEPC~1\AppData\Local\Temp\ccNQpeOs.s 			page 128


 5957 067e FA76     		strb	r2, [r7, #27]
 5958 0680 1C46     		mov	r4, r3
 5959 0682 FFF7FEFF 		bl	GetRtcBuffer
 5960 0686 0346     		mov	r3, r0
 5961 0688 0533     		adds	r3, r3, #5
 5962 068a 1B78     		ldrb	r3, [r3]	@ zero_extendqisi2
 5963 068c 1B09     		lsrs	r3, r3, #4
 5964 068e DBB2     		uxtb	r3, r3
 5965 0690 DBB2     		uxtb	r3, r3
 5966 0692 03F00103 		and	r3, r3, #1
 5967 0696 DBB2     		uxtb	r3, r3
 5968 0698 43F03003 		orr	r3, r3, #48
 5969 069c DBB2     		uxtb	r3, r3
 5970 069e DAB2     		uxtb	r2, r3
 5971 06a0 07F13003 		add	r3, r7, #48
 5972 06a4 2344     		add	r3, r3, r4
 5973 06a6 03F8202C 		strb	r2, [r3, #-32]
1236:.\DisplayBLL.c ****             buffer[index++] = (GetRtcBuffer()[RTC_MONTH] & 0x0F) | 0x30;
 5974              		.loc 1 1236 0
 5975 06aa FB7E     		ldrb	r3, [r7, #27]	@ zero_extendqisi2
 5976 06ac 5A1C     		adds	r2, r3, #1
 5977 06ae FA76     		strb	r2, [r7, #27]
 5978 06b0 1C46     		mov	r4, r3
 5979 06b2 FFF7FEFF 		bl	GetRtcBuffer
 5980 06b6 0346     		mov	r3, r0
 5981 06b8 0533     		adds	r3, r3, #5
 5982 06ba 1B78     		ldrb	r3, [r3]	@ zero_extendqisi2
 5983 06bc DBB2     		uxtb	r3, r3
 5984 06be 03F00F03 		and	r3, r3, #15
 5985 06c2 DBB2     		uxtb	r3, r3
 5986 06c4 43F03003 		orr	r3, r3, #48
 5987 06c8 DBB2     		uxtb	r3, r3
 5988 06ca DAB2     		uxtb	r2, r3
 5989 06cc 07F13003 		add	r3, r7, #48
 5990 06d0 2344     		add	r3, r3, r4
 5991 06d2 03F8202C 		strb	r2, [r3, #-32]
1237:.\DisplayBLL.c ****             buffer[index++] = 0x2F;
 5992              		.loc 1 1237 0
 5993 06d6 FB7E     		ldrb	r3, [r7, #27]	@ zero_extendqisi2
 5994 06d8 5A1C     		adds	r2, r3, #1
 5995 06da FA76     		strb	r2, [r7, #27]
 5996 06dc 07F13002 		add	r2, r7, #48
 5997 06e0 1344     		add	r3, r3, r2
 5998 06e2 2F22     		movs	r2, #47
 5999 06e4 03F8202C 		strb	r2, [r3, #-32]
1238:.\DisplayBLL.c ****             buffer[index++] = ((GetRtcBuffer()[RTC_YEAR] >> 4) & 0x0F) | 0x30;
 6000              		.loc 1 1238 0
 6001 06e8 FB7E     		ldrb	r3, [r7, #27]	@ zero_extendqisi2
 6002 06ea 5A1C     		adds	r2, r3, #1
 6003 06ec FA76     		strb	r2, [r7, #27]
 6004 06ee 1C46     		mov	r4, r3
 6005 06f0 FFF7FEFF 		bl	GetRtcBuffer
 6006 06f4 0346     		mov	r3, r0
 6007 06f6 0633     		adds	r3, r3, #6
 6008 06f8 1B78     		ldrb	r3, [r3]	@ zero_extendqisi2
 6009 06fa 1B09     		lsrs	r3, r3, #4
 6010 06fc DBB2     		uxtb	r3, r3
ARM GAS  C:\Users\RECEPC~1\AppData\Local\Temp\ccNQpeOs.s 			page 129


 6011 06fe DBB2     		uxtb	r3, r3
 6012 0700 43F03003 		orr	r3, r3, #48
 6013 0704 DBB2     		uxtb	r3, r3
 6014 0706 DAB2     		uxtb	r2, r3
 6015 0708 07F13003 		add	r3, r7, #48
 6016 070c 2344     		add	r3, r3, r4
 6017 070e 03F8202C 		strb	r2, [r3, #-32]
1239:.\DisplayBLL.c ****             buffer[index++] = (GetRtcBuffer()[RTC_YEAR] & 0x0F) | 0x30;
 6018              		.loc 1 1239 0
 6019 0712 FB7E     		ldrb	r3, [r7, #27]	@ zero_extendqisi2
 6020 0714 5A1C     		adds	r2, r3, #1
 6021 0716 FA76     		strb	r2, [r7, #27]
 6022 0718 1C46     		mov	r4, r3
 6023 071a FFF7FEFF 		bl	GetRtcBuffer
 6024 071e 0346     		mov	r3, r0
 6025 0720 0633     		adds	r3, r3, #6
 6026 0722 1B78     		ldrb	r3, [r3]	@ zero_extendqisi2
 6027 0724 DBB2     		uxtb	r3, r3
 6028 0726 03F00F03 		and	r3, r3, #15
 6029 072a DBB2     		uxtb	r3, r3
 6030 072c 43F03003 		orr	r3, r3, #48
 6031 0730 DBB2     		uxtb	r3, r3
 6032 0732 DAB2     		uxtb	r2, r3
 6033 0734 07F13003 		add	r3, r7, #48
 6034 0738 2344     		add	r3, r3, r4
 6035 073a 03F8202C 		strb	r2, [r3, #-32]
1240:.\DisplayBLL.c **** 
1241:.\DisplayBLL.c ****             I2CBusUnlock();            
 6036              		.loc 1 1241 0
 6037 073e FFF7FEFF 		bl	I2CBusUnlock
1242:.\DisplayBLL.c ****             
1243:.\DisplayBLL.c ****             puartdisp->_messagelength = DisplayOutputString(0x210, 0x1BA, puartdisp->_messagetx, bu
 6038              		.loc 1 1243 0
 6039 0742 FB69     		ldr	r3, [r7, #28]
 6040 0744 1D1D     		adds	r5, r3, #4
 6041 0746 FB7E     		ldrb	r3, [r7, #27]	@ zero_extendqisi2
 6042 0748 9BB2     		uxth	r3, r3
 6043 074a 07F11004 		add	r4, r7, #16
 6044 074e 0093     		str	r3, [sp]
 6045 0750 01AA     		add	r2, sp, #4
 6046 0752 07F10803 		add	r3, r7, #8
 6047 0756 93E80300 		ldmia	r3, {r0, r1}
 6048 075a 82E80300 		stmia	r2, {r0, r1}
 6049 075e 4FF40470 		mov	r0, #528
 6050 0762 4FF4DD71 		mov	r1, #442
 6051 0766 2A46     		mov	r2, r5
 6052 0768 2346     		mov	r3, r4
 6053 076a FFF7FEFF 		bl	DisplayOutputString
 6054 076e 0346     		mov	r3, r0
 6055 0770 1A46     		mov	r2, r3
 6056 0772 FB69     		ldr	r3, [r7, #28]
 6057 0774 5A80     		strh	r2, [r3, #2]	@ movhi
1244:.\DisplayBLL.c ****             puartdisp->_messagestate = PENDING;
 6058              		.loc 1 1244 0
 6059 0776 FB69     		ldr	r3, [r7, #28]
 6060 0778 C222     		movs	r2, #194
 6061 077a 1A70     		strb	r2, [r3]
ARM GAS  C:\Users\RECEPC~1\AppData\Local\Temp\ccNQpeOs.s 			page 130


 6062              	.L169:
 6063              	.LBE66:
 6064              	.LBE64:
1245:.\DisplayBLL.c ****         }
1246:.\DisplayBLL.c ****     }
1247:.\DisplayBLL.c **** }
 6065              		.loc 1 1247 0
 6066 077c 3037     		adds	r7, r7, #48
 6067              		.cfi_def_cfa_offset 16
 6068 077e BD46     		mov	sp, r7
 6069              		.cfi_def_cfa_register 13
 6070              		@ sp needed
 6071 0780 B0BD     		pop	{r4, r5, r7, pc}
 6072              	.L186:
 6073 0782 00BF     		.align	2
 6074              	.L185:
 6075 0784 00000000 		.word	_g_homeanimarray
 6076              		.cfi_endproc
 6077              	.LFE86:
 6078              		.size	DrawHomeDateTime, .-DrawHomeDateTime
 6079              		.section	.rodata
 6080              		.align	2
 6081              	.LC18:
 6082 0158 4D555820 		.ascii	"MUX Ver. 18.4\000"
 6082      5665722E 
 6082      2031382E 
 6082      3400
 6083 0166 0000     		.align	2
 6084              	.LC19:
 6085 0168 496D7072 		.ascii	"Imprimiendo, por favor espere...\000"
 6085      696D6965 
 6085      6E646F2C 
 6085      20706F72 
 6085      20666176 
 6086 0189 000000   		.align	2
 6087              	.LC20:
 6088 018c 3C3C2A2A 		.ascii	"<<** LAZO DE CORRIENTE ABIERTO! **>>\000"
 6088      204C415A 
 6088      4F204445 
 6088      20434F52 
 6088      5249454E 
 6089 01b1 000000   		.align	2
 6090              	.LC21:
 6091 01b4 436F6E66 		.ascii	"Configurando, por favor espere.....\000"
 6091      69677572 
 6091      616E646F 
 6091      2C20706F 
 6091      72206661 
 6092              		.align	2
 6093              	.LC23:
 6094 01d8 57656C63 		.ascii	"Welcome to INSEPET GVR PRIME/ENCORE DUPLA!   \000"
 6094      6F6D6520 
 6094      746F2049 
 6094      4E534550 
 6094      45542047 
 6095 0206 0000     		.align	2
 6096              	.LC7:
ARM GAS  C:\Users\RECEPC~1\AppData\Local\Temp\ccNQpeOs.s 			page 131


 6097 0208 AA       		.byte	-86
 6098 0209 40       		.byte	64
 6099 020a 00       		.byte	0
 6100 020b 1F       		.byte	31
 6101 020c FF       		.byte	-1
 6102 020d FF       		.byte	-1
 6103 020e CC       		.byte	-52
 6104 020f 33       		.byte	51
 6105 0210 C3       		.byte	-61
 6106 0211 3C       		.byte	60
 6107 0212 0000     		.align	2
 6108              	.LC8:
 6109 0214 AA       		.byte	-86
 6110 0215 40       		.byte	64
 6111 0216 F8       		.byte	-8
 6112 0217 00       		.byte	0
 6113 0218 FF       		.byte	-1
 6114 0219 FF       		.byte	-1
 6115 021a CC       		.byte	-52
 6116 021b 33       		.byte	51
 6117 021c C3       		.byte	-61
 6118 021d 3C       		.byte	60
 6119 021e 0000     		.align	2
 6120              	.LC9:
 6121 0220 AA       		.byte	-86
 6122 0221 5B       		.byte	91
 6123 0222 02       		.byte	2
 6124 0223 50       		.byte	80
 6125 0224 01       		.byte	1
 6126 0225 70       		.byte	112
 6127 0226 02       		.byte	2
 6128 0227 70       		.byte	112
 6129 0228 01       		.byte	1
 6130 0229 90       		.byte	-112
 6131 022a CC       		.byte	-52
 6132 022b 33       		.byte	51
 6133 022c C3       		.byte	-61
 6134 022d 3C       		.byte	60
 6135 022e 0000     		.align	2
 6136              	.LC10:
 6137 0230 AA       		.byte	-86
 6138 0231 5B       		.byte	91
 6139 0232 00       		.byte	0
 6140 0233 10       		.byte	16
 6141 0234 01       		.byte	1
 6142 0235 70       		.byte	112
 6143 0236 00       		.byte	0
 6144 0237 30       		.byte	48
 6145 0238 01       		.byte	1
 6146 0239 90       		.byte	-112
 6147 023a CC       		.byte	-52
 6148 023b 33       		.byte	51
 6149 023c C3       		.byte	-61
 6150 023d 3C       		.byte	60
 6151 023e 0000     		.align	2
 6152              	.LC22:
 6153 0240 57656C63 		.ascii	"Welcome to INSEPET GVR PRIME QUATTRO!  \000"
ARM GAS  C:\Users\RECEPC~1\AppData\Local\Temp\ccNQpeOs.s 			page 132


 6153      6F6D6520 
 6153      746F2049 
 6153      4E534550 
 6153      45542047 
 6154              		.section	.text.DisplayUpdateHomeAnimation,"ax",%progbits
 6155              		.align	2
 6156              		.global	DisplayUpdateHomeAnimation
 6157              		.thumb
 6158              		.thumb_func
 6159              		.type	DisplayUpdateHomeAnimation, %function
 6160              	DisplayUpdateHomeAnimation:
 6161              	.LFB87:
1248:.\DisplayBLL.c **** 
1249:.\DisplayBLL.c **** void DisplayUpdateHomeAnimation(void *pparam)
1250:.\DisplayBLL.c **** {    
 6162              		.loc 1 1250 0
 6163              		.cfi_startproc
 6164              		@ args = 0, pretend = 0, frame = 336
 6165              		@ frame_needed = 1, uses_anonymous_args = 0
 6166 0000 B0B5     		push	{r4, r5, r7, lr}
 6167              		.cfi_def_cfa_offset 16
 6168              		.cfi_offset 4, -16
 6169              		.cfi_offset 5, -12
 6170              		.cfi_offset 7, -8
 6171              		.cfi_offset 14, -4
 6172 0002 D8B0     		sub	sp, sp, #352
 6173              		.cfi_def_cfa_offset 368
 6174 0004 04AF     		add	r7, sp, #16
 6175              		.cfi_def_cfa 7, 352
 6176 0006 3B1D     		adds	r3, r7, #4
 6177 0008 1860     		str	r0, [r3]
1251:.\DisplayBLL.c ****     char8 buffer[2];
1252:.\DisplayBLL.c ****     FontData fontdata;
1253:.\DisplayBLL.c ****     fontdata._size = 0x04;
 6178              		.loc 1 1253 0
 6179 000a 0423     		movs	r3, #4
 6180 000c 87F81431 		strb	r3, [r7, #276]
1254:.\DisplayBLL.c ****     fontdata._backcolor = 0xFFFF;
 6181              		.loc 1 1254 0
 6182 0010 4FF6FF73 		movw	r3, #65535
 6183 0014 A7F81831 		strh	r3, [r7, #280]	@ movhi
1255:.\DisplayBLL.c ****     fontdata._forecolor = 0x0000;
 6184              		.loc 1 1255 0
 6185 0018 0023     		movs	r3, #0
 6186 001a A7F81A31 		strh	r3, [r7, #282]	@ movhi
1256:.\DisplayBLL.c ****     fontdata._opaquebackground = DISP_TEXT_OPAQUE;
 6187              		.loc 1 1256 0
 6188 001e C523     		movs	r3, #197
 6189 0020 87F81631 		strb	r3, [r7, #278]
1257:.\DisplayBLL.c ****     PSINKMESSAGEPTR psinkmsg = (PSINKMESSAGEPTR)pparam;
 6190              		.loc 1 1257 0
 6191 0024 3B1D     		adds	r3, r7, #4
 6192 0026 1B68     		ldr	r3, [r3]
 6193 0028 C7F84C31 		str	r3, [r7, #332]
1258:.\DisplayBLL.c ****     PDISPLAYLAYOUTPTR pdisplay = (PDISPLAYLAYOUTPTR)psinkmsg->_pdata;
 6194              		.loc 1 1258 0
 6195 002c D7F84C31 		ldr	r3, [r7, #332]
ARM GAS  C:\Users\RECEPC~1\AppData\Local\Temp\ccNQpeOs.s 			page 133


 6196 0030 D3F89031 		ldr	r3, [r3, #400]
 6197 0034 C7F84831 		str	r3, [r7, #328]
1259:.\DisplayBLL.c ****     if(pdisplay->_dispid == DISPLAY1 && ((PDISPLAYFLOWPTR)pdisplay->_pcurrflow)->_scrid == DISPLAY_
 6198              		.loc 1 1259 0
 6199 0038 D7F84831 		ldr	r3, [r7, #328]
 6200 003c 1B78     		ldrb	r3, [r3]	@ zero_extendqisi2
 6201 003e 002B     		cmp	r3, #0
 6202 0040 40F04383 		bne	.L188
 6203              		.loc 1 1259 0 is_stmt 0 discriminator 1
 6204 0044 D7F84831 		ldr	r3, [r7, #328]
 6205 0048 1B69     		ldr	r3, [r3, #16]
 6206 004a 1B78     		ldrb	r3, [r3]	@ zero_extendqisi2
 6207 004c 012B     		cmp	r3, #1
 6208 004e 40F03C83 		bne	.L188
 6209              	.LBB67:
1260:.\DisplayBLL.c ****     {
1261:.\DisplayBLL.c ****         UARTMessage *puartdisp = GetUARTMessageSlot(UART_DISPLAY1);
 6210              		.loc 1 1261 0 is_stmt 1
 6211 0052 A320     		movs	r0, #163
 6212 0054 FFF7FEFF 		bl	GetUARTMessageSlot
 6213 0058 C7F84401 		str	r0, [r7, #324]
1262:.\DisplayBLL.c ****         if(puartdisp)
 6214              		.loc 1 1262 0
 6215 005c D7F84431 		ldr	r3, [r7, #324]
 6216 0060 002B     		cmp	r3, #0
 6217 0062 30D0     		beq	.L189
1263:.\DisplayBLL.c ****         {
1264:.\DisplayBLL.c ****             buffer[0] = _g_homeanimarray[DISPLAY1]._g_homeanimation[_g_homeanimarray[DISPLAY1]._cur
 6218              		.loc 1 1264 0
 6219 0064 914B     		ldr	r3, .L241
 6220 0066 1B78     		ldrb	r3, [r3]	@ zero_extendqisi2
 6221 0068 5A1C     		adds	r2, r3, #1
 6222 006a D1B2     		uxtb	r1, r2
 6223 006c 8F4A     		ldr	r2, .L241
 6224 006e 1170     		strb	r1, [r2]
 6225 0070 1A46     		mov	r2, r3
 6226 0072 8E4B     		ldr	r3, .L241
 6227 0074 1344     		add	r3, r3, r2
 6228 0076 DB78     		ldrb	r3, [r3, #3]	@ zero_extendqisi2
 6229 0078 87F81C31 		strb	r3, [r7, #284]
1265:.\DisplayBLL.c ****             if(_g_homeanimarray[DISPLAY1]._currindex >= sizeof(_g_homeanimarray[DISPLAY1]._g_homean
 6230              		.loc 1 1265 0
 6231 007c 8B4B     		ldr	r3, .L241
 6232 007e 1B78     		ldrb	r3, [r3]	@ zero_extendqisi2
 6233 0080 032B     		cmp	r3, #3
 6234 0082 02D9     		bls	.L190
1266:.\DisplayBLL.c ****                 _g_homeanimarray[DISPLAY1]._currindex = 0x00;
 6235              		.loc 1 1266 0
 6236 0084 894B     		ldr	r3, .L241
 6237 0086 0022     		movs	r2, #0
 6238 0088 1A70     		strb	r2, [r3]
 6239              	.L190:
1267:.\DisplayBLL.c ****             
1268:.\DisplayBLL.c ****             puartdisp->_messagelength = DisplayOutputString(0x250, 0x012, puartdisp->_messagetx, bu
 6240              		.loc 1 1268 0
 6241 008a D7F84431 		ldr	r3, [r7, #324]
 6242 008e 1D1D     		adds	r5, r3, #4
ARM GAS  C:\Users\RECEPC~1\AppData\Local\Temp\ccNQpeOs.s 			page 134


 6243 0090 07F58E74 		add	r4, r7, #284
 6244 0094 0123     		movs	r3, #1
 6245 0096 0093     		str	r3, [sp]
 6246 0098 01AA     		add	r2, sp, #4
 6247 009a 07F58A73 		add	r3, r7, #276
 6248 009e 93E80300 		ldmia	r3, {r0, r1}
 6249 00a2 82E80300 		stmia	r2, {r0, r1}
 6250 00a6 4FF41470 		mov	r0, #592
 6251 00aa 1221     		movs	r1, #18
 6252 00ac 2A46     		mov	r2, r5
 6253 00ae 2346     		mov	r3, r4
 6254 00b0 FFF7FEFF 		bl	DisplayOutputString
 6255 00b4 0346     		mov	r3, r0
 6256 00b6 1A46     		mov	r2, r3
 6257 00b8 D7F84431 		ldr	r3, [r7, #324]
 6258 00bc 5A80     		strh	r2, [r3, #2]	@ movhi
1269:.\DisplayBLL.c ****             puartdisp->_messagestate = PENDING;
 6259              		.loc 1 1269 0
 6260 00be D7F84431 		ldr	r3, [r7, #324]
 6261 00c2 C222     		movs	r2, #194
 6262 00c4 1A70     		strb	r2, [r3]
 6263              	.L189:
1270:.\DisplayBLL.c ****         }
1271:.\DisplayBLL.c **** 
1272:.\DisplayBLL.c ****         uint8 pumpavstates[0x02];
1273:.\DisplayBLL.c ****         memset(pumpavstates, 0x00, 0x02);
 6264              		.loc 1 1273 0
 6265 00c6 07F58873 		add	r3, r7, #272
 6266 00ca 1846     		mov	r0, r3
 6267 00cc 0021     		movs	r1, #0
 6268 00ce 0222     		movs	r2, #2
 6269 00d0 FFF7FEFF 		bl	memset
1274:.\DisplayBLL.c ****         GetPumpsAvailability(pdisplay, pumpavstates);
 6270              		.loc 1 1274 0
 6271 00d4 07F58873 		add	r3, r7, #272
 6272 00d8 D7F84801 		ldr	r0, [r7, #328]
 6273 00dc 1946     		mov	r1, r3
 6274 00de FFF7FEFF 		bl	GetPumpsAvailability
1275:.\DisplayBLL.c **** 
1276:.\DisplayBLL.c ****         bool pumpsprintstate[0x02];
1277:.\DisplayBLL.c ****         GetPumpsPrintState(pdisplay, pumpsprintstate);
 6275              		.loc 1 1277 0
 6276 00e2 07F58673 		add	r3, r7, #268
 6277 00e6 D7F84801 		ldr	r0, [r7, #328]
 6278 00ea 1946     		mov	r1, r3
 6279 00ec FFF7FEFF 		bl	GetPumpsPrintState
1278:.\DisplayBLL.c ****         
1279:.\DisplayBLL.c ****         //On-Display witness to alert about pending or in-execution operations on the pump
1280:.\DisplayBLL.c ****         if(!pumpavstates[0x01])
 6280              		.loc 1 1280 0
 6281 00f0 97F81131 		ldrb	r3, [r7, #273]	@ zero_extendqisi2
 6282 00f4 002B     		cmp	r3, #0
 6283 00f6 44D1     		bne	.L191
1281:.\DisplayBLL.c ****         {
1282:.\DisplayBLL.c ****             puartdisp = GetUARTMessageSlot(UART_DISPLAY1);
 6284              		.loc 1 1282 0
 6285 00f8 A320     		movs	r0, #163
ARM GAS  C:\Users\RECEPC~1\AppData\Local\Temp\ccNQpeOs.s 			page 135


 6286 00fa FFF7FEFF 		bl	GetUARTMessageSlot
 6287 00fe C7F84401 		str	r0, [r7, #324]
1283:.\DisplayBLL.c ****             if(puartdisp)
 6288              		.loc 1 1283 0
 6289 0102 D7F84431 		ldr	r3, [r7, #324]
 6290 0106 002B     		cmp	r3, #0
 6291 0108 5FD0     		beq	.L194
1284:.\DisplayBLL.c ****             {
1285:.\DisplayBLL.c ****                 //SET FC BC COLORS (BLUE) IF PRINT HAS BEEN REQUESTED
1286:.\DisplayBLL.c ****                 if(pumpsprintstate[0x01])
 6292              		.loc 1 1286 0
 6293 010a 97F80D31 		ldrb	r3, [r7, #269]	@ zero_extendqisi2
 6294 010e 002B     		cmp	r3, #0
 6295 0110 1BD0     		beq	.L193
 6296              	.LBB68:
1287:.\DisplayBLL.c ****                 {
1288:.\DisplayBLL.c ****                     uint8 buff[] = { 0xAA, 0x40, 0x00, 0x1F, 0xFF, 0xFF, 0xCC, 0x33, 0xC3, 0x3C };
 6297              		.loc 1 1288 0
 6298 0112 674A     		ldr	r2, .L241+4
 6299 0114 07F58073 		add	r3, r7, #256
 6300 0118 1068     		ldr	r0, [r2]	@ unaligned
 6301 011a 5168     		ldr	r1, [r2, #4]	@ unaligned
 6302 011c 03C3     		stmia	r3!, {r0, r1}
 6303 011e 1289     		ldrh	r2, [r2, #8]	@ unaligned
 6304 0120 1A80     		strh	r2, [r3]	@ unaligned
1289:.\DisplayBLL.c ****                     memcpy(puartdisp->_messagetx, buff, sizeof(buff));
 6305              		.loc 1 1289 0
 6306 0122 D7F84431 		ldr	r3, [r7, #324]
 6307 0126 0433     		adds	r3, r3, #4
 6308 0128 1A46     		mov	r2, r3
 6309 012a 07F58073 		add	r3, r7, #256
 6310 012e 03CB     		ldmia	r3!, {r0, r1}
 6311 0130 1060     		str	r0, [r2]	@ unaligned
 6312 0132 5160     		str	r1, [r2, #4]	@ unaligned
 6313 0134 1B88     		ldrh	r3, [r3]	@ unaligned
 6314 0136 1381     		strh	r3, [r2, #8]	@ unaligned
1290:.\DisplayBLL.c ****                     puartdisp->_messagelength = sizeof(buff);
 6315              		.loc 1 1290 0
 6316 0138 D7F84431 		ldr	r3, [r7, #324]
 6317 013c 0A22     		movs	r2, #10
 6318 013e 5A80     		strh	r2, [r3, #2]	@ movhi
1291:.\DisplayBLL.c ****                     puartdisp->_messagestate = PENDING;
 6319              		.loc 1 1291 0
 6320 0140 D7F84431 		ldr	r3, [r7, #324]
 6321 0144 C222     		movs	r2, #194
 6322 0146 1A70     		strb	r2, [r3]
 6323              	.LBE68:
 6324 0148 3FE0     		b	.L194
 6325              	.L193:
 6326              	.LBB69:
1292:.\DisplayBLL.c ****                 }
1293:.\DisplayBLL.c ****                 else
1294:.\DisplayBLL.c ****                 {
1295:.\DisplayBLL.c ****                     uint8 buff[] = { 0xAA, 0x40, 0xF8, 0x00, 0xFF, 0xFF, 0xCC, 0x33, 0xC3, 0x3C };
 6327              		.loc 1 1295 0 discriminator 2
 6328 014a 5A4A     		ldr	r2, .L241+8
 6329 014c 07F1F403 		add	r3, r7, #244
ARM GAS  C:\Users\RECEPC~1\AppData\Local\Temp\ccNQpeOs.s 			page 136


 6330 0150 1068     		ldr	r0, [r2]	@ unaligned
 6331 0152 5168     		ldr	r1, [r2, #4]	@ unaligned
 6332 0154 03C3     		stmia	r3!, {r0, r1}
 6333 0156 1289     		ldrh	r2, [r2, #8]	@ unaligned
 6334 0158 1A80     		strh	r2, [r3]	@ unaligned
1296:.\DisplayBLL.c ****                     memcpy(puartdisp->_messagetx, buff, sizeof(buff));
 6335              		.loc 1 1296 0 discriminator 2
 6336 015a D7F84431 		ldr	r3, [r7, #324]
 6337 015e 0433     		adds	r3, r3, #4
 6338 0160 1A46     		mov	r2, r3
 6339 0162 07F1F403 		add	r3, r7, #244
 6340 0166 03CB     		ldmia	r3!, {r0, r1}
 6341 0168 1060     		str	r0, [r2]	@ unaligned
 6342 016a 5160     		str	r1, [r2, #4]	@ unaligned
 6343 016c 1B88     		ldrh	r3, [r3]	@ unaligned
 6344 016e 1381     		strh	r3, [r2, #8]	@ unaligned
1297:.\DisplayBLL.c ****                     puartdisp->_messagelength = sizeof(buff);
 6345              		.loc 1 1297 0 discriminator 2
 6346 0170 D7F84431 		ldr	r3, [r7, #324]
 6347 0174 0A22     		movs	r2, #10
 6348 0176 5A80     		strh	r2, [r3, #2]	@ movhi
1298:.\DisplayBLL.c ****                     puartdisp->_messagestate = PENDING;
 6349              		.loc 1 1298 0 discriminator 2
 6350 0178 D7F84431 		ldr	r3, [r7, #324]
 6351 017c C222     		movs	r2, #194
 6352 017e 1A70     		strb	r2, [r3]
 6353 0180 23E0     		b	.L194
 6354              	.L191:
 6355              	.LBE69:
1299:.\DisplayBLL.c ****                 }
1300:.\DisplayBLL.c ****             }
1301:.\DisplayBLL.c ****         }
1302:.\DisplayBLL.c ****         else
1303:.\DisplayBLL.c ****         {
1304:.\DisplayBLL.c ****             puartdisp = GetUARTMessageSlot(UART_DISPLAY1);
 6356              		.loc 1 1304 0
 6357 0182 A320     		movs	r0, #163
 6358 0184 FFF7FEFF 		bl	GetUARTMessageSlot
 6359 0188 C7F84401 		str	r0, [r7, #324]
1305:.\DisplayBLL.c ****             if(puartdisp)
 6360              		.loc 1 1305 0
 6361 018c D7F84431 		ldr	r3, [r7, #324]
 6362 0190 002B     		cmp	r3, #0
 6363 0192 1AD0     		beq	.L194
 6364              	.LBB70:
1306:.\DisplayBLL.c ****             {
1307:.\DisplayBLL.c ****                 //SET FC BC COLORS (WHITE)
1308:.\DisplayBLL.c ****                 uint8 buff[] = { 0xAA, 0x40, 0xFF, 0xFF, 0xFF, 0xFF, 0xCC, 0x33, 0xC3, 0x3C };
 6365              		.loc 1 1308 0
 6366 0194 484A     		ldr	r2, .L241+12
 6367 0196 07F1E803 		add	r3, r7, #232
 6368 019a 1068     		ldr	r0, [r2]	@ unaligned
 6369 019c 5168     		ldr	r1, [r2, #4]	@ unaligned
 6370 019e 03C3     		stmia	r3!, {r0, r1}
 6371 01a0 1289     		ldrh	r2, [r2, #8]	@ unaligned
 6372 01a2 1A80     		strh	r2, [r3]	@ unaligned
1309:.\DisplayBLL.c ****                 memcpy(puartdisp->_messagetx, buff, sizeof(buff));
ARM GAS  C:\Users\RECEPC~1\AppData\Local\Temp\ccNQpeOs.s 			page 137


 6373              		.loc 1 1309 0
 6374 01a4 D7F84431 		ldr	r3, [r7, #324]
 6375 01a8 0433     		adds	r3, r3, #4
 6376 01aa 1A46     		mov	r2, r3
 6377 01ac 07F1E803 		add	r3, r7, #232
 6378 01b0 03CB     		ldmia	r3!, {r0, r1}
 6379 01b2 1060     		str	r0, [r2]	@ unaligned
 6380 01b4 5160     		str	r1, [r2, #4]	@ unaligned
 6381 01b6 1B88     		ldrh	r3, [r3]	@ unaligned
 6382 01b8 1381     		strh	r3, [r2, #8]	@ unaligned
1310:.\DisplayBLL.c ****                 puartdisp->_messagelength = sizeof(buff);
 6383              		.loc 1 1310 0
 6384 01ba D7F84431 		ldr	r3, [r7, #324]
 6385 01be 0A22     		movs	r2, #10
 6386 01c0 5A80     		strh	r2, [r3, #2]	@ movhi
1311:.\DisplayBLL.c ****                 puartdisp->_messagestate = PENDING;
 6387              		.loc 1 1311 0
 6388 01c2 D7F84431 		ldr	r3, [r7, #324]
 6389 01c6 C222     		movs	r2, #194
 6390 01c8 1A70     		strb	r2, [r3]
 6391              	.L194:
 6392              	.LBE70:
1312:.\DisplayBLL.c ****             }
1313:.\DisplayBLL.c ****         }
1314:.\DisplayBLL.c ****             
1315:.\DisplayBLL.c ****         puartdisp = GetUARTMessageSlot(UART_DISPLAY1);
 6393              		.loc 1 1315 0
 6394 01ca A320     		movs	r0, #163
 6395 01cc FFF7FEFF 		bl	GetUARTMessageSlot
 6396 01d0 C7F84401 		str	r0, [r7, #324]
1316:.\DisplayBLL.c ****         if(puartdisp)
 6397              		.loc 1 1316 0
 6398 01d4 D7F84431 		ldr	r3, [r7, #324]
 6399 01d8 002B     		cmp	r3, #0
 6400 01da 1DD0     		beq	.L195
 6401              	.LBB71:
1317:.\DisplayBLL.c ****         {
1318:.\DisplayBLL.c ****             uint8 buff[] = { 0xAA, 0x5B, 0x02, 0x50, 0x01, 0x70, 0x02, 0x70, 0x01, 0x90, 0xCC, 0x33
 6402              		.loc 1 1318 0
 6403 01dc 374A     		ldr	r2, .L241+16
 6404 01de 07F1D803 		add	r3, r7, #216
 6405 01e2 1446     		mov	r4, r2
 6406 01e4 2068     		ldr	r0, [r4]	@ unaligned
 6407 01e6 6168     		ldr	r1, [r4, #4]	@ unaligned
 6408 01e8 A268     		ldr	r2, [r4, #8]	@ unaligned
 6409 01ea 07C3     		stmia	r3!, {r0, r1, r2}
 6410 01ec A289     		ldrh	r2, [r4, #12]	@ unaligned
 6411 01ee 1A80     		strh	r2, [r3]	@ unaligned
1319:.\DisplayBLL.c ****             memcpy(puartdisp->_messagetx, buff, sizeof(buff));
 6412              		.loc 1 1319 0
 6413 01f0 D7F84431 		ldr	r3, [r7, #324]
 6414 01f4 0433     		adds	r3, r3, #4
 6415 01f6 1C46     		mov	r4, r3
 6416 01f8 07F1D803 		add	r3, r7, #216
 6417 01fc 07CB     		ldmia	r3!, {r0, r1, r2}
 6418 01fe 2060     		str	r0, [r4]	@ unaligned
 6419 0200 6160     		str	r1, [r4, #4]	@ unaligned
ARM GAS  C:\Users\RECEPC~1\AppData\Local\Temp\ccNQpeOs.s 			page 138


 6420 0202 A260     		str	r2, [r4, #8]	@ unaligned
 6421 0204 1B88     		ldrh	r3, [r3]	@ unaligned
 6422 0206 A381     		strh	r3, [r4, #12]	@ unaligned
1320:.\DisplayBLL.c ****             puartdisp->_messagelength = sizeof(buff);
 6423              		.loc 1 1320 0
 6424 0208 D7F84431 		ldr	r3, [r7, #324]
 6425 020c 0E22     		movs	r2, #14
 6426 020e 5A80     		strh	r2, [r3, #2]	@ movhi
1321:.\DisplayBLL.c ****             puartdisp->_messagestate = PENDING;
 6427              		.loc 1 1321 0
 6428 0210 D7F84431 		ldr	r3, [r7, #324]
 6429 0214 C222     		movs	r2, #194
 6430 0216 1A70     		strb	r2, [r3]
 6431              	.L195:
 6432              	.LBE71:
1322:.\DisplayBLL.c ****         }
1323:.\DisplayBLL.c **** 
1324:.\DisplayBLL.c ****         //On-Display witness to alert about pending or in-execution operations on the pump
1325:.\DisplayBLL.c ****         if(!pumpavstates[0x00])
 6433              		.loc 1 1325 0
 6434 0218 97F81031 		ldrb	r3, [r7, #272]	@ zero_extendqisi2
 6435 021c 002B     		cmp	r3, #0
 6436 021e 4FD1     		bne	.L196
1326:.\DisplayBLL.c ****         {
1327:.\DisplayBLL.c ****             puartdisp = GetUARTMessageSlot(UART_DISPLAY1);
 6437              		.loc 1 1327 0
 6438 0220 A320     		movs	r0, #163
 6439 0222 FFF7FEFF 		bl	GetUARTMessageSlot
 6440 0226 C7F84401 		str	r0, [r7, #324]
1328:.\DisplayBLL.c ****             if(puartdisp)
 6441              		.loc 1 1328 0
 6442 022a D7F84431 		ldr	r3, [r7, #324]
 6443 022e 002B     		cmp	r3, #0
 6444 0230 6AD0     		beq	.L199
1329:.\DisplayBLL.c ****             {
1330:.\DisplayBLL.c ****                 //SET FC BC COLORS (BLUE) IF PRINT HAS BEEN REQUESTED
1331:.\DisplayBLL.c ****                 if(pumpsprintstate[0x00])
 6445              		.loc 1 1331 0
 6446 0232 97F80C31 		ldrb	r3, [r7, #268]	@ zero_extendqisi2
 6447 0236 002B     		cmp	r3, #0
 6448 0238 1BD0     		beq	.L198
 6449              	.LBB72:
1332:.\DisplayBLL.c ****                 {
1333:.\DisplayBLL.c ****                     uint8 buff[] = { 0xAA, 0x40, 0x00, 0x1F, 0xFF, 0xFF, 0xCC, 0x33, 0xC3, 0x3C };
 6450              		.loc 1 1333 0
 6451 023a 1D4A     		ldr	r2, .L241+4
 6452 023c 07F1CC03 		add	r3, r7, #204
 6453 0240 1068     		ldr	r0, [r2]	@ unaligned
 6454 0242 5168     		ldr	r1, [r2, #4]	@ unaligned
 6455 0244 03C3     		stmia	r3!, {r0, r1}
 6456 0246 1289     		ldrh	r2, [r2, #8]	@ unaligned
 6457 0248 1A80     		strh	r2, [r3]	@ unaligned
1334:.\DisplayBLL.c ****                     memcpy(puartdisp->_messagetx, buff, sizeof(buff));
 6458              		.loc 1 1334 0
 6459 024a D7F84431 		ldr	r3, [r7, #324]
 6460 024e 0433     		adds	r3, r3, #4
 6461 0250 1A46     		mov	r2, r3
ARM GAS  C:\Users\RECEPC~1\AppData\Local\Temp\ccNQpeOs.s 			page 139


 6462 0252 07F1CC03 		add	r3, r7, #204
 6463 0256 03CB     		ldmia	r3!, {r0, r1}
 6464 0258 1060     		str	r0, [r2]	@ unaligned
 6465 025a 5160     		str	r1, [r2, #4]	@ unaligned
 6466 025c 1B88     		ldrh	r3, [r3]	@ unaligned
 6467 025e 1381     		strh	r3, [r2, #8]	@ unaligned
1335:.\DisplayBLL.c ****                     puartdisp->_messagelength = sizeof(buff);
 6468              		.loc 1 1335 0
 6469 0260 D7F84431 		ldr	r3, [r7, #324]
 6470 0264 0A22     		movs	r2, #10
 6471 0266 5A80     		strh	r2, [r3, #2]	@ movhi
1336:.\DisplayBLL.c ****                     puartdisp->_messagestate = PENDING;
 6472              		.loc 1 1336 0
 6473 0268 D7F84431 		ldr	r3, [r7, #324]
 6474 026c C222     		movs	r2, #194
 6475 026e 1A70     		strb	r2, [r3]
 6476              	.LBE72:
 6477 0270 4AE0     		b	.L199
 6478              	.L198:
 6479              	.LBB73:
1337:.\DisplayBLL.c ****                 }
1338:.\DisplayBLL.c ****                 else
1339:.\DisplayBLL.c ****                 {
1340:.\DisplayBLL.c ****                     uint8 buff[] = { 0xAA, 0x40, 0xF8, 0x00, 0xFF, 0xFF, 0xCC, 0x33, 0xC3, 0x3C };
 6480              		.loc 1 1340 0 discriminator 4
 6481 0272 104A     		ldr	r2, .L241+8
 6482 0274 07F1C003 		add	r3, r7, #192
 6483 0278 1068     		ldr	r0, [r2]	@ unaligned
 6484 027a 5168     		ldr	r1, [r2, #4]	@ unaligned
 6485 027c 03C3     		stmia	r3!, {r0, r1}
 6486 027e 1289     		ldrh	r2, [r2, #8]	@ unaligned
 6487 0280 1A80     		strh	r2, [r3]	@ unaligned
1341:.\DisplayBLL.c ****                     memcpy(puartdisp->_messagetx, buff, sizeof(buff));
 6488              		.loc 1 1341 0 discriminator 4
 6489 0282 D7F84431 		ldr	r3, [r7, #324]
 6490 0286 0433     		adds	r3, r3, #4
 6491 0288 1A46     		mov	r2, r3
 6492 028a 07F1C003 		add	r3, r7, #192
 6493 028e 03CB     		ldmia	r3!, {r0, r1}
 6494 0290 1060     		str	r0, [r2]	@ unaligned
 6495 0292 5160     		str	r1, [r2, #4]	@ unaligned
 6496 0294 1B88     		ldrh	r3, [r3]	@ unaligned
 6497 0296 1381     		strh	r3, [r2, #8]	@ unaligned
1342:.\DisplayBLL.c ****                     puartdisp->_messagelength = sizeof(buff);
 6498              		.loc 1 1342 0 discriminator 4
 6499 0298 D7F84431 		ldr	r3, [r7, #324]
 6500 029c 0A22     		movs	r2, #10
 6501 029e 5A80     		strh	r2, [r3, #2]	@ movhi
1343:.\DisplayBLL.c ****                     puartdisp->_messagestate = PENDING;
 6502              		.loc 1 1343 0 discriminator 4
 6503 02a0 D7F84431 		ldr	r3, [r7, #324]
 6504 02a4 C222     		movs	r2, #194
 6505 02a6 1A70     		strb	r2, [r3]
 6506 02a8 2EE0     		b	.L199
 6507              	.L242:
 6508 02aa 00BF     		.align	2
 6509              	.L241:
ARM GAS  C:\Users\RECEPC~1\AppData\Local\Temp\ccNQpeOs.s 			page 140


 6510 02ac 00000000 		.word	_g_homeanimarray
 6511 02b0 08020000 		.word	.LC7
 6512 02b4 14020000 		.word	.LC8
 6513 02b8 60000000 		.word	.LC0
 6514 02bc 20020000 		.word	.LC9
 6515              	.L196:
 6516              	.LBE73:
1344:.\DisplayBLL.c ****                 }
1345:.\DisplayBLL.c ****             }
1346:.\DisplayBLL.c ****         }
1347:.\DisplayBLL.c ****         else
1348:.\DisplayBLL.c ****         {
1349:.\DisplayBLL.c ****             puartdisp = GetUARTMessageSlot(UART_DISPLAY1);
 6517              		.loc 1 1349 0
 6518 02c0 A320     		movs	r0, #163
 6519 02c2 FFF7FEFF 		bl	GetUARTMessageSlot
 6520 02c6 C7F84401 		str	r0, [r7, #324]
1350:.\DisplayBLL.c ****             if(puartdisp)
 6521              		.loc 1 1350 0
 6522 02ca D7F84431 		ldr	r3, [r7, #324]
 6523 02ce 002B     		cmp	r3, #0
 6524 02d0 1AD0     		beq	.L199
 6525              	.LBB74:
1351:.\DisplayBLL.c ****             {
1352:.\DisplayBLL.c ****                 //SET FC BC COLORS (WHITE)
1353:.\DisplayBLL.c ****                 uint8 buff[] = { 0xAA, 0x40, 0xFF, 0xFF, 0xFF, 0xFF, 0xCC, 0x33, 0xC3, 0x3C };
 6526              		.loc 1 1353 0
 6527 02d2 C44A     		ldr	r2, .L243
 6528 02d4 07F1B403 		add	r3, r7, #180
 6529 02d8 1068     		ldr	r0, [r2]	@ unaligned
 6530 02da 5168     		ldr	r1, [r2, #4]	@ unaligned
 6531 02dc 03C3     		stmia	r3!, {r0, r1}
 6532 02de 1289     		ldrh	r2, [r2, #8]	@ unaligned
 6533 02e0 1A80     		strh	r2, [r3]	@ unaligned
1354:.\DisplayBLL.c ****                 memcpy(puartdisp->_messagetx, buff, sizeof(buff));
 6534              		.loc 1 1354 0
 6535 02e2 D7F84431 		ldr	r3, [r7, #324]
 6536 02e6 0433     		adds	r3, r3, #4
 6537 02e8 1A46     		mov	r2, r3
 6538 02ea 07F1B403 		add	r3, r7, #180
 6539 02ee 03CB     		ldmia	r3!, {r0, r1}
 6540 02f0 1060     		str	r0, [r2]	@ unaligned
 6541 02f2 5160     		str	r1, [r2, #4]	@ unaligned
 6542 02f4 1B88     		ldrh	r3, [r3]	@ unaligned
 6543 02f6 1381     		strh	r3, [r2, #8]	@ unaligned
1355:.\DisplayBLL.c ****                 puartdisp->_messagelength = sizeof(buff);
 6544              		.loc 1 1355 0
 6545 02f8 D7F84431 		ldr	r3, [r7, #324]
 6546 02fc 0A22     		movs	r2, #10
 6547 02fe 5A80     		strh	r2, [r3, #2]	@ movhi
1356:.\DisplayBLL.c ****                 puartdisp->_messagestate = PENDING;
 6548              		.loc 1 1356 0
 6549 0300 D7F84431 		ldr	r3, [r7, #324]
 6550 0304 C222     		movs	r2, #194
 6551 0306 1A70     		strb	r2, [r3]
 6552              	.L199:
 6553              	.LBE74:
ARM GAS  C:\Users\RECEPC~1\AppData\Local\Temp\ccNQpeOs.s 			page 141


1357:.\DisplayBLL.c ****             }
1358:.\DisplayBLL.c ****         }
1359:.\DisplayBLL.c ****         
1360:.\DisplayBLL.c ****         puartdisp = GetUARTMessageSlot(UART_DISPLAY1);
 6554              		.loc 1 1360 0
 6555 0308 A320     		movs	r0, #163
 6556 030a FFF7FEFF 		bl	GetUARTMessageSlot
 6557 030e C7F84401 		str	r0, [r7, #324]
1361:.\DisplayBLL.c ****         if(puartdisp)
 6558              		.loc 1 1361 0
 6559 0312 D7F84431 		ldr	r3, [r7, #324]
 6560 0316 002B     		cmp	r3, #0
 6561 0318 1DD0     		beq	.L200
 6562              	.LBB75:
1362:.\DisplayBLL.c ****         {
1363:.\DisplayBLL.c ****             uint8 buff[] = { 0xAA, 0x5B, 0x00, 0x10, 0x01, 0x70, 0x00, 0x30, 0x01, 0x90, 0xCC, 0x33
 6563              		.loc 1 1363 0
 6564 031a B34A     		ldr	r2, .L243+4
 6565 031c 07F1A403 		add	r3, r7, #164
 6566 0320 1446     		mov	r4, r2
 6567 0322 2068     		ldr	r0, [r4]	@ unaligned
 6568 0324 6168     		ldr	r1, [r4, #4]	@ unaligned
 6569 0326 A268     		ldr	r2, [r4, #8]	@ unaligned
 6570 0328 07C3     		stmia	r3!, {r0, r1, r2}
 6571 032a A289     		ldrh	r2, [r4, #12]	@ unaligned
 6572 032c 1A80     		strh	r2, [r3]	@ unaligned
1364:.\DisplayBLL.c ****             memcpy(puartdisp->_messagetx, buff, sizeof(buff));
 6573              		.loc 1 1364 0
 6574 032e D7F84431 		ldr	r3, [r7, #324]
 6575 0332 0433     		adds	r3, r3, #4
 6576 0334 1C46     		mov	r4, r3
 6577 0336 07F1A403 		add	r3, r7, #164
 6578 033a 07CB     		ldmia	r3!, {r0, r1, r2}
 6579 033c 2060     		str	r0, [r4]	@ unaligned
 6580 033e 6160     		str	r1, [r4, #4]	@ unaligned
 6581 0340 A260     		str	r2, [r4, #8]	@ unaligned
 6582 0342 1B88     		ldrh	r3, [r3]	@ unaligned
 6583 0344 A381     		strh	r3, [r4, #12]	@ unaligned
1365:.\DisplayBLL.c ****             puartdisp->_messagelength = sizeof(buff);
 6584              		.loc 1 1365 0
 6585 0346 D7F84431 		ldr	r3, [r7, #324]
 6586 034a 0E22     		movs	r2, #14
 6587 034c 5A80     		strh	r2, [r3, #2]	@ movhi
1366:.\DisplayBLL.c ****             puartdisp->_messagestate = PENDING;
 6588              		.loc 1 1366 0
 6589 034e D7F84431 		ldr	r3, [r7, #324]
 6590 0352 C222     		movs	r2, #194
 6591 0354 1A70     		strb	r2, [r3]
 6592              	.L200:
 6593              	.LBE75:
1367:.\DisplayBLL.c ****         }
1368:.\DisplayBLL.c ****         
1369:.\DisplayBLL.c ****         fontdata._backcolor = 0xFFFF;
 6594              		.loc 1 1369 0
 6595 0356 4FF6FF73 		movw	r3, #65535
 6596 035a A7F81831 		strh	r3, [r7, #280]	@ movhi
1370:.\DisplayBLL.c ****         fontdata._forecolor = 0x0000;
ARM GAS  C:\Users\RECEPC~1\AppData\Local\Temp\ccNQpeOs.s 			page 142


 6597              		.loc 1 1370 0
 6598 035e 0023     		movs	r3, #0
 6599 0360 A7F81A31 		strh	r3, [r7, #282]	@ movhi
1371:.\DisplayBLL.c **** 
1372:.\DisplayBLL.c ****         if((100*_g_homeanimarray[DISPLAY1]._timeoutmultiplier) > _SINK_TIMEOUT_2S_)
 6600              		.loc 1 1372 0
 6601 0364 A14B     		ldr	r3, .L243+8
 6602 0366 9B78     		ldrb	r3, [r3, #2]	@ zero_extendqisi2
 6603 0368 1A46     		mov	r2, r3
 6604 036a 6423     		movs	r3, #100
 6605 036c 03FB02F3 		mul	r3, r3, r2
 6606 0370 B3F5FA6F 		cmp	r3, #2000
 6607 0374 47DD     		ble	.L201
 6608              	.LBB76:
1373:.\DisplayBLL.c ****         {
1374:.\DisplayBLL.c ****             DrawHomeDateTime(pdisplay);
 6609              		.loc 1 1374 0
 6610 0376 D7F84801 		ldr	r0, [r7, #328]
 6611 037a FFF7FEFF 		bl	DrawHomeDateTime
1375:.\DisplayBLL.c ****             _g_homeanimarray[DISPLAY1]._timeoutmultiplier = 0;
 6612              		.loc 1 1375 0
 6613 037e 9B4B     		ldr	r3, .L243+8
 6614 0380 0022     		movs	r2, #0
 6615 0382 9A70     		strb	r2, [r3, #2]
1376:.\DisplayBLL.c ****             _g_homeanimarray[DISPLAY1]._colontoggler = !_g_homeanimarray[DISPLAY1]._colontoggler;
 6616              		.loc 1 1376 0
 6617 0384 994B     		ldr	r3, .L243+8
 6618 0386 5B78     		ldrb	r3, [r3, #1]	@ zero_extendqisi2
 6619 0388 002B     		cmp	r3, #0
 6620 038a 14BF     		ite	ne
 6621 038c 0123     		movne	r3, #1
 6622 038e 0023     		moveq	r3, #0
 6623 0390 DBB2     		uxtb	r3, r3
 6624 0392 83F00103 		eor	r3, r3, #1
 6625 0396 DBB2     		uxtb	r3, r3
 6626 0398 03F00103 		and	r3, r3, #1
 6627 039c DAB2     		uxtb	r2, r3
 6628 039e 934B     		ldr	r3, .L243+8
 6629 03a0 5A70     		strb	r2, [r3, #1]
1377:.\DisplayBLL.c ****             char8 *pmessage = "MUX Ver. 18.4";
 6630              		.loc 1 1377 0
 6631 03a2 934B     		ldr	r3, .L243+12
 6632 03a4 C7F84031 		str	r3, [r7, #320]
1378:.\DisplayBLL.c ****             fontdata._size = 0x01;
 6633              		.loc 1 1378 0
 6634 03a8 0123     		movs	r3, #1
 6635 03aa 87F81431 		strb	r3, [r7, #276]
1379:.\DisplayBLL.c ****             UARTMessage *puartdisp = GetUARTMessageSlot(UART_DISPLAY1);
 6636              		.loc 1 1379 0
 6637 03ae A320     		movs	r0, #163
 6638 03b0 FFF7FEFF 		bl	GetUARTMessageSlot
 6639 03b4 C7F83C01 		str	r0, [r7, #316]
1380:.\DisplayBLL.c ****             if(puartdisp)
 6640              		.loc 1 1380 0
 6641 03b8 D7F83C31 		ldr	r3, [r7, #316]
 6642 03bc 002B     		cmp	r3, #0
 6643 03be 21D0     		beq	.L202
ARM GAS  C:\Users\RECEPC~1\AppData\Local\Temp\ccNQpeOs.s 			page 143


1381:.\DisplayBLL.c ****     		{
1382:.\DisplayBLL.c ****     			puartdisp->_messagelength = DisplayOutputString(0x000F, 0x000E, puartdisp->_messagetx, pmess
 6644              		.loc 1 1382 0
 6645 03c0 D7F83C31 		ldr	r3, [r7, #316]
 6646 03c4 1C1D     		adds	r4, r3, #4
 6647 03c6 D7F84001 		ldr	r0, [r7, #320]
 6648 03ca FFF7FEFF 		bl	strlen
 6649 03ce 0346     		mov	r3, r0
 6650 03d0 9BB2     		uxth	r3, r3
 6651 03d2 0093     		str	r3, [sp]
 6652 03d4 01AA     		add	r2, sp, #4
 6653 03d6 07F58A73 		add	r3, r7, #276
 6654 03da 93E80300 		ldmia	r3, {r0, r1}
 6655 03de 82E80300 		stmia	r2, {r0, r1}
 6656 03e2 0F20     		movs	r0, #15
 6657 03e4 0E21     		movs	r1, #14
 6658 03e6 2246     		mov	r2, r4
 6659 03e8 D7F84031 		ldr	r3, [r7, #320]
 6660 03ec FFF7FEFF 		bl	DisplayOutputString
 6661 03f0 0346     		mov	r3, r0
 6662 03f2 1A46     		mov	r2, r3
 6663 03f4 D7F83C31 		ldr	r3, [r7, #316]
 6664 03f8 5A80     		strh	r2, [r3, #2]	@ movhi
1383:.\DisplayBLL.c ****     			puartdisp->_messagestate = PENDING;
 6665              		.loc 1 1383 0
 6666 03fa D7F83C31 		ldr	r3, [r7, #316]
 6667 03fe C222     		movs	r2, #194
 6668 0400 1A70     		strb	r2, [r3]
 6669              	.LBE76:
 6670 0402 06E0     		b	.L203
 6671              	.L202:
 6672 0404 05E0     		b	.L203
 6673              	.L201:
1384:.\DisplayBLL.c ****     		}
1385:.\DisplayBLL.c ****         }else
1386:.\DisplayBLL.c ****             _g_homeanimarray[DISPLAY1]._timeoutmultiplier++;
 6674              		.loc 1 1386 0
 6675 0406 794B     		ldr	r3, .L243+8
 6676 0408 9B78     		ldrb	r3, [r3, #2]	@ zero_extendqisi2
 6677 040a 0133     		adds	r3, r3, #1
 6678 040c DAB2     		uxtb	r2, r3
 6679 040e 774B     		ldr	r3, .L243+8
 6680 0410 9A70     		strb	r2, [r3, #2]
 6681              	.L203:
1387:.\DisplayBLL.c ****             
1388:.\DisplayBLL.c ****         fontdata._size = 0x01;
 6682              		.loc 1 1388 0
 6683 0412 0123     		movs	r3, #1
 6684 0414 87F81431 		strb	r3, [r7, #276]
1389:.\DisplayBLL.c ****         if(!_g_display1._starting)
 6685              		.loc 1 1389 0
 6686 0418 764B     		ldr	r3, .L243+16
 6687 041a 5B7B     		ldrb	r3, [r3, #13]	@ zero_extendqisi2
 6688 041c 83F00103 		eor	r3, r3, #1
 6689 0420 DBB2     		uxtb	r3, r3
 6690 0422 002B     		cmp	r3, #0
 6691 0424 64D0     		beq	.L204
ARM GAS  C:\Users\RECEPC~1\AppData\Local\Temp\ccNQpeOs.s 			page 144


1390:.\DisplayBLL.c ****         {
1391:.\DisplayBLL.c ****             if(FindSinkMessage(_g_printerlayout._printerportside1))
 6692              		.loc 1 1391 0
 6693 0426 744B     		ldr	r3, .L243+20
 6694 0428 1B78     		ldrb	r3, [r3]	@ zero_extendqisi2
 6695 042a 1846     		mov	r0, r3
 6696 042c FFF7FEFF 		bl	FindSinkMessage
 6697 0430 0346     		mov	r3, r0
 6698 0432 002B     		cmp	r3, #0
 6699 0434 2ED0     		beq	.L205
1392:.\DisplayBLL.c ****             {
1393:.\DisplayBLL.c ****                 puartdisp = GetUARTMessageSlot(UART_DISPLAY1);
 6700              		.loc 1 1393 0
 6701 0436 A320     		movs	r0, #163
 6702 0438 FFF7FEFF 		bl	GetUARTMessageSlot
 6703 043c C7F84401 		str	r0, [r7, #324]
1394:.\DisplayBLL.c ****                 if(puartdisp)
 6704              		.loc 1 1394 0
 6705 0440 D7F84431 		ldr	r3, [r7, #324]
 6706 0444 002B     		cmp	r3, #0
 6707 0446 53D0     		beq	.L204
 6708              	.LBB77:
1395:.\DisplayBLL.c ****                 {
1396:.\DisplayBLL.c ****                     PSTR ptxtbuffer = "Imprimiendo, por favor espere...";
 6709              		.loc 1 1396 0
 6710 0448 6C4B     		ldr	r3, .L243+24
 6711 044a C7F83831 		str	r3, [r7, #312]
1397:.\DisplayBLL.c ****                     puartdisp->_messagelength = DisplayOutputString(0x0B8, 0x1D0, puartdisp->_messa
 6712              		.loc 1 1397 0
 6713 044e D7F84431 		ldr	r3, [r7, #324]
 6714 0452 1C1D     		adds	r4, r3, #4
 6715 0454 D7F83801 		ldr	r0, [r7, #312]
 6716 0458 FFF7FEFF 		bl	strlen
 6717 045c 0346     		mov	r3, r0
 6718 045e 9BB2     		uxth	r3, r3
 6719 0460 0093     		str	r3, [sp]
 6720 0462 01AA     		add	r2, sp, #4
 6721 0464 07F58A73 		add	r3, r7, #276
 6722 0468 93E80300 		ldmia	r3, {r0, r1}
 6723 046c 82E80300 		stmia	r2, {r0, r1}
 6724 0470 B820     		movs	r0, #184
 6725 0472 4FF4E871 		mov	r1, #464
 6726 0476 2246     		mov	r2, r4
 6727 0478 D7F83831 		ldr	r3, [r7, #312]
 6728 047c FFF7FEFF 		bl	DisplayOutputString
 6729 0480 0346     		mov	r3, r0
 6730 0482 1A46     		mov	r2, r3
 6731 0484 D7F84431 		ldr	r3, [r7, #324]
 6732 0488 5A80     		strh	r2, [r3, #2]	@ movhi
1398:.\DisplayBLL.c ****                     puartdisp->_messagestate = PENDING;
 6733              		.loc 1 1398 0
 6734 048a D7F84431 		ldr	r3, [r7, #324]
 6735 048e C222     		movs	r2, #194
 6736 0490 1A70     		strb	r2, [r3]
 6737 0492 2DE0     		b	.L204
 6738              	.L205:
 6739              	.LBE77:
ARM GAS  C:\Users\RECEPC~1\AppData\Local\Temp\ccNQpeOs.s 			page 145


1399:.\DisplayBLL.c ****                 }
1400:.\DisplayBLL.c ****             }
1401:.\DisplayBLL.c ****             else
1402:.\DisplayBLL.c ****             {
1403:.\DisplayBLL.c ****                 puartdisp = GetUARTMessageSlot(UART_DISPLAY1);
 6740              		.loc 1 1403 0
 6741 0494 A320     		movs	r0, #163
 6742 0496 FFF7FEFF 		bl	GetUARTMessageSlot
 6743 049a C7F84401 		str	r0, [r7, #324]
1404:.\DisplayBLL.c ****                 if(puartdisp)
 6744              		.loc 1 1404 0
 6745 049e D7F84431 		ldr	r3, [r7, #324]
 6746 04a2 002B     		cmp	r3, #0
 6747 04a4 24D0     		beq	.L204
 6748              	.LBB78:
1405:.\DisplayBLL.c ****                 {
1406:.\DisplayBLL.c ****                     uint8 ptxtbuffer[0x20];
1407:.\DisplayBLL.c ****                     memset(ptxtbuffer, 0x00, 0x20);
 6749              		.loc 1 1407 0
 6750 04a6 07F10C03 		add	r3, r7, #12
 6751 04aa 1846     		mov	r0, r3
 6752 04ac 0021     		movs	r1, #0
 6753 04ae 2022     		movs	r2, #32
 6754 04b0 FFF7FEFF 		bl	memset
1408:.\DisplayBLL.c ****                     puartdisp->_messagelength = DisplayOutputString(0x0B8, 0x1D0, puartdisp->_messa
 6755              		.loc 1 1408 0
 6756 04b4 D7F84431 		ldr	r3, [r7, #324]
 6757 04b8 1D1D     		adds	r5, r3, #4
 6758 04ba 07F10C04 		add	r4, r7, #12
 6759 04be 2023     		movs	r3, #32
 6760 04c0 0093     		str	r3, [sp]
 6761 04c2 01AA     		add	r2, sp, #4
 6762 04c4 07F58A73 		add	r3, r7, #276
 6763 04c8 93E80300 		ldmia	r3, {r0, r1}
 6764 04cc 82E80300 		stmia	r2, {r0, r1}
 6765 04d0 B820     		movs	r0, #184
 6766 04d2 4FF4E871 		mov	r1, #464
 6767 04d6 2A46     		mov	r2, r5
 6768 04d8 2346     		mov	r3, r4
 6769 04da FFF7FEFF 		bl	DisplayOutputString
 6770 04de 0346     		mov	r3, r0
 6771 04e0 1A46     		mov	r2, r3
 6772 04e2 D7F84431 		ldr	r3, [r7, #324]
 6773 04e6 5A80     		strh	r2, [r3, #2]	@ movhi
1409:.\DisplayBLL.c ****                     puartdisp->_messagestate = PENDING;
 6774              		.loc 1 1409 0
 6775 04e8 D7F84431 		ldr	r3, [r7, #324]
 6776 04ec C222     		movs	r2, #194
 6777 04ee 1A70     		strb	r2, [r3]
 6778              	.L204:
 6779              	.LBE78:
1410:.\DisplayBLL.c ****                 }
1411:.\DisplayBLL.c ****             }
1412:.\DisplayBLL.c ****         }
1413:.\DisplayBLL.c ****         
1414:.\DisplayBLL.c ****         if(_g_dispenserlayoutinfo._inconfiguration)
 6780              		.loc 1 1414 0
ARM GAS  C:\Users\RECEPC~1\AppData\Local\Temp\ccNQpeOs.s 			page 146


 6781 04f0 434B     		ldr	r3, .L243+28
 6782 04f2 1B78     		ldrb	r3, [r3]
 6783 04f4 DBB2     		uxtb	r3, r3
 6784 04f6 002B     		cmp	r3, #0
 6785 04f8 00F08880 		beq	.L207
1415:.\DisplayBLL.c ****         {
1416:.\DisplayBLL.c ****             puartdisp = GetUARTMessageSlot(UART_DISPLAY1);
 6786              		.loc 1 1416 0
 6787 04fc A320     		movs	r0, #163
 6788 04fe FFF7FEFF 		bl	GetUARTMessageSlot
 6789 0502 C7F84401 		str	r0, [r7, #324]
1417:.\DisplayBLL.c ****             if(puartdisp)
 6790              		.loc 1 1417 0
 6791 0506 D7F84431 		ldr	r3, [r7, #324]
 6792 050a 002B     		cmp	r3, #0
 6793 050c 00F0DC80 		beq	.L211
1418:.\DisplayBLL.c ****             {
1419:.\DisplayBLL.c ****                 if(_g_dispenserlayoutinfo._currentloopopen)
 6794              		.loc 1 1419 0
 6795 0510 3B4B     		ldr	r3, .L243+28
 6796 0512 5B78     		ldrb	r3, [r3, #1]
 6797 0514 DBB2     		uxtb	r3, r3
 6798 0516 002B     		cmp	r3, #0
 6799 0518 2FD0     		beq	.L209
 6800              	.LBB79:
1420:.\DisplayBLL.c ****                 {
1421:.\DisplayBLL.c ****                     PSTR ptxtbuffer = "<<** LAZO DE CORRIENTE ABIERTO! **>>";
 6801              		.loc 1 1421 0
 6802 051a 3A4B     		ldr	r3, .L243+32
 6803 051c C7F83431 		str	r3, [r7, #308]
1422:.\DisplayBLL.c ****                     memcpy(puartdisp->_messagetx, ptxtbuffer, strlen(ptxtbuffer));
 6804              		.loc 1 1422 0
 6805 0520 D7F84431 		ldr	r3, [r7, #324]
 6806 0524 1C1D     		adds	r4, r3, #4
 6807 0526 D7F83401 		ldr	r0, [r7, #308]
 6808 052a FFF7FEFF 		bl	strlen
 6809 052e 0346     		mov	r3, r0
 6810 0530 2046     		mov	r0, r4
 6811 0532 D7F83411 		ldr	r1, [r7, #308]
 6812 0536 1A46     		mov	r2, r3
 6813 0538 FFF7FEFF 		bl	memcpy
1423:.\DisplayBLL.c ****                     puartdisp->_messagelength = DisplayOutputString(0x0B8, 0x1D0, puartdisp->_messa
 6814              		.loc 1 1423 0
 6815 053c D7F84431 		ldr	r3, [r7, #324]
 6816 0540 1C1D     		adds	r4, r3, #4
 6817 0542 D7F83401 		ldr	r0, [r7, #308]
 6818 0546 FFF7FEFF 		bl	strlen
 6819 054a 0346     		mov	r3, r0
 6820 054c 9BB2     		uxth	r3, r3
 6821 054e 0093     		str	r3, [sp]
 6822 0550 01AA     		add	r2, sp, #4
 6823 0552 07F58A73 		add	r3, r7, #276
 6824 0556 93E80300 		ldmia	r3, {r0, r1}
 6825 055a 82E80300 		stmia	r2, {r0, r1}
 6826 055e B820     		movs	r0, #184
 6827 0560 4FF4E871 		mov	r1, #464
 6828 0564 2246     		mov	r2, r4
ARM GAS  C:\Users\RECEPC~1\AppData\Local\Temp\ccNQpeOs.s 			page 147


 6829 0566 D7F83431 		ldr	r3, [r7, #308]
 6830 056a FFF7FEFF 		bl	DisplayOutputString
 6831 056e 0346     		mov	r3, r0
 6832 0570 1A46     		mov	r2, r3
 6833 0572 D7F84431 		ldr	r3, [r7, #324]
 6834 0576 5A80     		strh	r2, [r3, #2]	@ movhi
 6835              	.LBE79:
 6836 0578 2EE0     		b	.L210
 6837              	.L209:
 6838              	.LBB80:
1424:.\DisplayBLL.c ****                 }
1425:.\DisplayBLL.c ****                 else
1426:.\DisplayBLL.c ****                 {
1427:.\DisplayBLL.c ****                     PSTR ptxtbuffer = "Configurando, por favor espere.....";
 6839              		.loc 1 1427 0
 6840 057a 234B     		ldr	r3, .L243+36
 6841 057c C7F83031 		str	r3, [r7, #304]
1428:.\DisplayBLL.c ****                     memcpy(puartdisp->_messagetx, ptxtbuffer, strlen(ptxtbuffer));
 6842              		.loc 1 1428 0
 6843 0580 D7F84431 		ldr	r3, [r7, #324]
 6844 0584 1C1D     		adds	r4, r3, #4
 6845 0586 D7F83001 		ldr	r0, [r7, #304]
 6846 058a FFF7FEFF 		bl	strlen
 6847 058e 0346     		mov	r3, r0
 6848 0590 2046     		mov	r0, r4
 6849 0592 D7F83011 		ldr	r1, [r7, #304]
 6850 0596 1A46     		mov	r2, r3
 6851 0598 FFF7FEFF 		bl	memcpy
1429:.\DisplayBLL.c ****                     puartdisp->_messagelength = DisplayOutputString(0x0B8, 0x1D0, puartdisp->_messa
 6852              		.loc 1 1429 0
 6853 059c D7F84431 		ldr	r3, [r7, #324]
 6854 05a0 1C1D     		adds	r4, r3, #4
 6855 05a2 D7F83001 		ldr	r0, [r7, #304]
 6856 05a6 FFF7FEFF 		bl	strlen
 6857 05aa 0346     		mov	r3, r0
 6858 05ac 9BB2     		uxth	r3, r3
 6859 05ae 0093     		str	r3, [sp]
 6860 05b0 01AA     		add	r2, sp, #4
 6861 05b2 07F58A73 		add	r3, r7, #276
 6862 05b6 93E80300 		ldmia	r3, {r0, r1}
 6863 05ba 82E80300 		stmia	r2, {r0, r1}
 6864 05be B820     		movs	r0, #184
 6865 05c0 4FF4E871 		mov	r1, #464
 6866 05c4 2246     		mov	r2, r4
 6867 05c6 D7F83031 		ldr	r3, [r7, #304]
 6868 05ca FFF7FEFF 		bl	DisplayOutputString
 6869 05ce 0346     		mov	r3, r0
 6870 05d0 1A46     		mov	r2, r3
 6871 05d2 D7F84431 		ldr	r3, [r7, #324]
 6872 05d6 5A80     		strh	r2, [r3, #2]	@ movhi
 6873              	.L210:
 6874              	.LBE80:
1430:.\DisplayBLL.c ****                 }
1431:.\DisplayBLL.c ****                 puartdisp->_messagestate = PENDING;
 6875              		.loc 1 1431 0
 6876 05d8 D7F84431 		ldr	r3, [r7, #324]
 6877 05dc C222     		movs	r2, #194
ARM GAS  C:\Users\RECEPC~1\AppData\Local\Temp\ccNQpeOs.s 			page 148


 6878 05de 1A70     		strb	r2, [r3]
 6879              	.LBE67:
1260:.\DisplayBLL.c ****         UARTMessage *puartdisp = GetUARTMessageSlot(UART_DISPLAY1);
 6880              		.loc 1 1260 0
 6881 05e0 9EE3     		b	.L187
 6882              	.L244:
 6883 05e2 00BF     		.align	2
 6884              	.L243:
 6885 05e4 60000000 		.word	.LC0
 6886 05e8 30020000 		.word	.LC10
 6887 05ec 00000000 		.word	_g_homeanimarray
 6888 05f0 58010000 		.word	.LC18
 6889 05f4 00000000 		.word	_g_display1
 6890 05f8 00000000 		.word	_g_printerlayout
 6891 05fc 68010000 		.word	.LC19
 6892 0600 00000000 		.word	_g_dispenserlayoutinfo
 6893 0604 8C010000 		.word	.LC20
 6894 0608 B4010000 		.word	.LC21
 6895              	.L207:
 6896              	.LBB82:
1432:.\DisplayBLL.c ****             }
1433:.\DisplayBLL.c ****         }
1434:.\DisplayBLL.c ****         else if(!_g_configured[0x00])
 6897              		.loc 1 1434 0
 6898 060c CB4B     		ldr	r3, .L245
 6899 060e 1B78     		ldrb	r3, [r3]	@ zero_extendqisi2
 6900 0610 83F00103 		eor	r3, r3, #1
 6901 0614 DBB2     		uxtb	r3, r3
 6902 0616 002B     		cmp	r3, #0
 6903 0618 56D0     		beq	.L211
1435:.\DisplayBLL.c ****         {
1436:.\DisplayBLL.c ****             puartdisp = GetUARTMessageSlot(UART_DISPLAY1);
 6904              		.loc 1 1436 0
 6905 061a A320     		movs	r0, #163
 6906 061c FFF7FEFF 		bl	GetUARTMessageSlot
 6907 0620 C7F84401 		str	r0, [r7, #324]
1437:.\DisplayBLL.c ****             if(puartdisp)
 6908              		.loc 1 1437 0
 6909 0624 D7F84431 		ldr	r3, [r7, #324]
 6910 0628 002B     		cmp	r3, #0
 6911 062a 49D0     		beq	.L212
 6912              	.LBB81:
1438:.\DisplayBLL.c ****             {
1439:.\DisplayBLL.c ****                 char8 txtbuffer[0x28];
1440:.\DisplayBLL.c ****                 memset(txtbuffer, 0x20, 0x28);
 6913              		.loc 1 1440 0
 6914 062c 07F10C03 		add	r3, r7, #12
 6915 0630 1846     		mov	r0, r3
 6916 0632 2021     		movs	r1, #32
 6917 0634 2822     		movs	r2, #40
 6918 0636 FFF7FEFF 		bl	memset
1441:.\DisplayBLL.c ****                 if(_g_dispenserlayoutinfo._numpositions == 0x04)
 6919              		.loc 1 1441 0
 6920 063a C14B     		ldr	r3, .L245+4
 6921 063c 9B78     		ldrb	r3, [r3, #2]	@ zero_extendqisi2
 6922 063e 042B     		cmp	r3, #4
 6923 0640 0DD1     		bne	.L213
ARM GAS  C:\Users\RECEPC~1\AppData\Local\Temp\ccNQpeOs.s 			page 149


1442:.\DisplayBLL.c ****                     sprintf(txtbuffer, "Welcome to INSEPET GVR PRIME QUATTRO!  ");
 6924              		.loc 1 1442 0
 6925 0642 07F10C03 		add	r3, r7, #12
 6926 0646 BF4A     		ldr	r2, .L245+8
 6927 0648 1C46     		mov	r4, r3
 6928 064a 1546     		mov	r5, r2
 6929 064c 0FCD     		ldmia	r5!, {r0, r1, r2, r3}
 6930 064e 0FC4     		stmia	r4!, {r0, r1, r2, r3}
 6931 0650 0FCD     		ldmia	r5!, {r0, r1, r2, r3}
 6932 0652 0FC4     		stmia	r4!, {r0, r1, r2, r3}
 6933 0654 95E80300 		ldmia	r5, {r0, r1}
 6934 0658 84E80300 		stmia	r4, {r0, r1}
 6935 065c 0CE0     		b	.L214
 6936              	.L213:
1443:.\DisplayBLL.c ****                 else
1444:.\DisplayBLL.c ****                     sprintf(txtbuffer, "Welcome to INSEPET GVR PRIME/ENCORE DUPLA!   ");
 6937              		.loc 1 1444 0
 6938 065e 07F10C03 		add	r3, r7, #12
 6939 0662 B94A     		ldr	r2, .L245+12
 6940 0664 1C46     		mov	r4, r3
 6941 0666 1546     		mov	r5, r2
 6942 0668 0FCD     		ldmia	r5!, {r0, r1, r2, r3}
 6943 066a 0FC4     		stmia	r4!, {r0, r1, r2, r3}
 6944 066c 0FCD     		ldmia	r5!, {r0, r1, r2, r3}
 6945 066e 0FC4     		stmia	r4!, {r0, r1, r2, r3}
 6946 0670 95E80F00 		ldmia	r5, {r0, r1, r2, r3}
 6947 0674 07C4     		stmia	r4!, {r0, r1, r2}
 6948 0676 2380     		strh	r3, [r4]	@ movhi
 6949              	.L214:
1445:.\DisplayBLL.c ****                     
1446:.\DisplayBLL.c ****                 puartdisp->_messagelength = DisplayOutputString(0x0A0, 0x1D0, puartdisp->_messagetx
 6950              		.loc 1 1446 0
 6951 0678 D7F84431 		ldr	r3, [r7, #324]
 6952 067c 1D1D     		adds	r5, r3, #4
 6953 067e 07F10C03 		add	r3, r7, #12
 6954 0682 1846     		mov	r0, r3
 6955 0684 FFF7FEFF 		bl	strlen
 6956 0688 0346     		mov	r3, r0
 6957 068a 9BB2     		uxth	r3, r3
 6958 068c 07F10C04 		add	r4, r7, #12
 6959 0690 0093     		str	r3, [sp]
 6960 0692 01AA     		add	r2, sp, #4
 6961 0694 07F58A73 		add	r3, r7, #276
 6962 0698 93E80300 		ldmia	r3, {r0, r1}
 6963 069c 82E80300 		stmia	r2, {r0, r1}
 6964 06a0 A020     		movs	r0, #160
 6965 06a2 4FF4E871 		mov	r1, #464
 6966 06a6 2A46     		mov	r2, r5
 6967 06a8 2346     		mov	r3, r4
 6968 06aa FFF7FEFF 		bl	DisplayOutputString
 6969 06ae 0346     		mov	r3, r0
 6970 06b0 1A46     		mov	r2, r3
 6971 06b2 D7F84431 		ldr	r3, [r7, #324]
 6972 06b6 5A80     		strh	r2, [r3, #2]	@ movhi
1447:.\DisplayBLL.c ****                 puartdisp->_messagestate = PENDING;
 6973              		.loc 1 1447 0
 6974 06b8 D7F84431 		ldr	r3, [r7, #324]
ARM GAS  C:\Users\RECEPC~1\AppData\Local\Temp\ccNQpeOs.s 			page 150


 6975 06bc C222     		movs	r2, #194
 6976 06be 1A70     		strb	r2, [r3]
 6977              	.L212:
 6978              	.LBE81:
1448:.\DisplayBLL.c ****             }
1449:.\DisplayBLL.c ****             _g_configured[0x00] = true;
 6979              		.loc 1 1449 0
 6980 06c0 9E4B     		ldr	r3, .L245
 6981 06c2 0122     		movs	r2, #1
 6982 06c4 1A70     		strb	r2, [r3]
 6983              	.LBE82:
1260:.\DisplayBLL.c ****         UARTMessage *puartdisp = GetUARTMessageSlot(UART_DISPLAY1);
 6984              		.loc 1 1260 0
 6985 06c6 2BE3     		b	.L187
 6986              	.L211:
1260:.\DisplayBLL.c ****         UARTMessage *puartdisp = GetUARTMessageSlot(UART_DISPLAY1);
 6987              		.loc 1 1260 0 is_stmt 0 discriminator 5
 6988 06c8 2AE3     		b	.L187
 6989              	.L188:
1450:.\DisplayBLL.c ****             
1451:.\DisplayBLL.c ****         }
1452:.\DisplayBLL.c ****         
1453:.\DisplayBLL.c ****     }
1454:.\DisplayBLL.c ****     else if(pdisplay->_dispid == DISPLAY2 && ((PDISPLAYFLOWPTR)pdisplay->_pcurrflow)->_scrid == DIS
 6990              		.loc 1 1454 0 is_stmt 1
 6991 06ca D7F84831 		ldr	r3, [r7, #328]
 6992 06ce 1B78     		ldrb	r3, [r3]	@ zero_extendqisi2
 6993 06d0 012B     		cmp	r3, #1
 6994 06d2 40F02583 		bne	.L187
 6995              		.loc 1 1454 0 is_stmt 0 discriminator 1
 6996 06d6 D7F84831 		ldr	r3, [r7, #328]
 6997 06da 1B69     		ldr	r3, [r3, #16]
 6998 06dc 1B78     		ldrb	r3, [r3]	@ zero_extendqisi2
 6999 06de 012B     		cmp	r3, #1
 7000 06e0 40F01E83 		bne	.L187
 7001              	.LBB83:
1455:.\DisplayBLL.c ****     {
1456:.\DisplayBLL.c ****         UARTMessage *puartdisp = GetUARTMessageSlot(UART_DISPLAY2);
 7002              		.loc 1 1456 0 is_stmt 1
 7003 06e4 A420     		movs	r0, #164
 7004 06e6 FFF7FEFF 		bl	GetUARTMessageSlot
 7005 06ea C7F82C01 		str	r0, [r7, #300]
1457:.\DisplayBLL.c ****         if(puartdisp)
 7006              		.loc 1 1457 0
 7007 06ee D7F82C31 		ldr	r3, [r7, #300]
 7008 06f2 002B     		cmp	r3, #0
 7009 06f4 30D0     		beq	.L216
1458:.\DisplayBLL.c ****         {
1459:.\DisplayBLL.c ****             buffer[0] = _g_homeanimarray[DISPLAY2]._g_homeanimation[_g_homeanimarray[DISPLAY2]._cur
 7010              		.loc 1 1459 0
 7011 06f6 954B     		ldr	r3, .L245+16
 7012 06f8 DB79     		ldrb	r3, [r3, #7]	@ zero_extendqisi2
 7013 06fa 5A1C     		adds	r2, r3, #1
 7014 06fc D1B2     		uxtb	r1, r2
 7015 06fe 934A     		ldr	r2, .L245+16
 7016 0700 D171     		strb	r1, [r2, #7]
 7017 0702 1A46     		mov	r2, r3
ARM GAS  C:\Users\RECEPC~1\AppData\Local\Temp\ccNQpeOs.s 			page 151


 7018 0704 914B     		ldr	r3, .L245+16
 7019 0706 1344     		add	r3, r3, r2
 7020 0708 9B7A     		ldrb	r3, [r3, #10]	@ zero_extendqisi2
 7021 070a 87F81C31 		strb	r3, [r7, #284]
1460:.\DisplayBLL.c ****             if(_g_homeanimarray[DISPLAY2]._currindex >= sizeof(_g_homeanimarray[DISPLAY2]._g_homean
 7022              		.loc 1 1460 0
 7023 070e 8F4B     		ldr	r3, .L245+16
 7024 0710 DB79     		ldrb	r3, [r3, #7]	@ zero_extendqisi2
 7025 0712 032B     		cmp	r3, #3
 7026 0714 02D9     		bls	.L217
1461:.\DisplayBLL.c ****                 _g_homeanimarray[DISPLAY2]._currindex = 0x00;
 7027              		.loc 1 1461 0
 7028 0716 8D4B     		ldr	r3, .L245+16
 7029 0718 0022     		movs	r2, #0
 7030 071a DA71     		strb	r2, [r3, #7]
 7031              	.L217:
1462:.\DisplayBLL.c ****             
1463:.\DisplayBLL.c ****             puartdisp->_messagelength = DisplayOutputString(0x250, 0x012, puartdisp->_messagetx, bu
 7032              		.loc 1 1463 0
 7033 071c D7F82C31 		ldr	r3, [r7, #300]
 7034 0720 1D1D     		adds	r5, r3, #4
 7035 0722 07F58E74 		add	r4, r7, #284
 7036 0726 0123     		movs	r3, #1
 7037 0728 0093     		str	r3, [sp]
 7038 072a 01AA     		add	r2, sp, #4
 7039 072c 07F58A73 		add	r3, r7, #276
 7040 0730 93E80300 		ldmia	r3, {r0, r1}
 7041 0734 82E80300 		stmia	r2, {r0, r1}
 7042 0738 4FF41470 		mov	r0, #592
 7043 073c 1221     		movs	r1, #18
 7044 073e 2A46     		mov	r2, r5
 7045 0740 2346     		mov	r3, r4
 7046 0742 FFF7FEFF 		bl	DisplayOutputString
 7047 0746 0346     		mov	r3, r0
 7048 0748 1A46     		mov	r2, r3
 7049 074a D7F82C31 		ldr	r3, [r7, #300]
 7050 074e 5A80     		strh	r2, [r3, #2]	@ movhi
1464:.\DisplayBLL.c ****             puartdisp->_messagestate = PENDING;
 7051              		.loc 1 1464 0
 7052 0750 D7F82C31 		ldr	r3, [r7, #300]
 7053 0754 C222     		movs	r2, #194
 7054 0756 1A70     		strb	r2, [r3]
 7055              	.L216:
1465:.\DisplayBLL.c ****         }
1466:.\DisplayBLL.c ****         
1467:.\DisplayBLL.c ****         uint8 pumpavstates[0x02];
1468:.\DisplayBLL.c ****         memset(pumpavstates, 0x00, 0x02);
 7056              		.loc 1 1468 0
 7057 0758 07F1A003 		add	r3, r7, #160
 7058 075c 1846     		mov	r0, r3
 7059 075e 0021     		movs	r1, #0
 7060 0760 0222     		movs	r2, #2
 7061 0762 FFF7FEFF 		bl	memset
1469:.\DisplayBLL.c ****         GetPumpsAvailability(pdisplay, pumpavstates);
 7062              		.loc 1 1469 0
 7063 0766 07F1A003 		add	r3, r7, #160
 7064 076a D7F84801 		ldr	r0, [r7, #328]
ARM GAS  C:\Users\RECEPC~1\AppData\Local\Temp\ccNQpeOs.s 			page 152


 7065 076e 1946     		mov	r1, r3
 7066 0770 FFF7FEFF 		bl	GetPumpsAvailability
1470:.\DisplayBLL.c **** 
1471:.\DisplayBLL.c ****         bool pumpsprintstate[0x02];
1472:.\DisplayBLL.c ****         GetPumpsPrintState(pdisplay, pumpsprintstate);
 7067              		.loc 1 1472 0
 7068 0774 07F19C03 		add	r3, r7, #156
 7069 0778 D7F84801 		ldr	r0, [r7, #328]
 7070 077c 1946     		mov	r1, r3
 7071 077e FFF7FEFF 		bl	GetPumpsPrintState
1473:.\DisplayBLL.c ****         
1474:.\DisplayBLL.c ****         //On-Display witness to alert about pending or in-execution operations on the pump
1475:.\DisplayBLL.c ****         if(!pumpavstates[0x01])
 7072              		.loc 1 1475 0
 7073 0782 97F8A130 		ldrb	r3, [r7, #161]	@ zero_extendqisi2
 7074 0786 002B     		cmp	r3, #0
 7075 0788 44D1     		bne	.L218
1476:.\DisplayBLL.c ****         {
1477:.\DisplayBLL.c ****             puartdisp = GetUARTMessageSlot(UART_DISPLAY2);
 7076              		.loc 1 1477 0
 7077 078a A420     		movs	r0, #164
 7078 078c FFF7FEFF 		bl	GetUARTMessageSlot
 7079 0790 C7F82C01 		str	r0, [r7, #300]
1478:.\DisplayBLL.c ****             if(puartdisp)
 7080              		.loc 1 1478 0
 7081 0794 D7F82C31 		ldr	r3, [r7, #300]
 7082 0798 002B     		cmp	r3, #0
 7083 079a 5FD0     		beq	.L221
1479:.\DisplayBLL.c ****             {
1480:.\DisplayBLL.c ****                 if(pumpsprintstate[0x01])
 7084              		.loc 1 1480 0
 7085 079c 97F89D30 		ldrb	r3, [r7, #157]	@ zero_extendqisi2
 7086 07a0 002B     		cmp	r3, #0
 7087 07a2 1BD0     		beq	.L220
 7088              	.LBB84:
1481:.\DisplayBLL.c ****                 {
1482:.\DisplayBLL.c ****                     //SET FC BC COLORS (BLUE) IF PRINT HAS BEEN REQUESTED
1483:.\DisplayBLL.c ****                     uint8 buff[] = { 0xAA, 0x40, 0x00, 0x1F, 0xFF, 0xFF, 0xCC, 0x33, 0xC3, 0x3C };
 7089              		.loc 1 1483 0
 7090 07a4 6A4A     		ldr	r2, .L245+20
 7091 07a6 07F19003 		add	r3, r7, #144
 7092 07aa 1068     		ldr	r0, [r2]	@ unaligned
 7093 07ac 5168     		ldr	r1, [r2, #4]	@ unaligned
 7094 07ae 03C3     		stmia	r3!, {r0, r1}
 7095 07b0 1289     		ldrh	r2, [r2, #8]	@ unaligned
 7096 07b2 1A80     		strh	r2, [r3]	@ unaligned
1484:.\DisplayBLL.c ****                     memcpy(puartdisp->_messagetx, buff, sizeof(buff));
 7097              		.loc 1 1484 0
 7098 07b4 D7F82C31 		ldr	r3, [r7, #300]
 7099 07b8 0433     		adds	r3, r3, #4
 7100 07ba 1A46     		mov	r2, r3
 7101 07bc 07F19003 		add	r3, r7, #144
 7102 07c0 03CB     		ldmia	r3!, {r0, r1}
 7103 07c2 1060     		str	r0, [r2]	@ unaligned
 7104 07c4 5160     		str	r1, [r2, #4]	@ unaligned
 7105 07c6 1B88     		ldrh	r3, [r3]	@ unaligned
 7106 07c8 1381     		strh	r3, [r2, #8]	@ unaligned
ARM GAS  C:\Users\RECEPC~1\AppData\Local\Temp\ccNQpeOs.s 			page 153


1485:.\DisplayBLL.c ****                     puartdisp->_messagelength = sizeof(buff);
 7107              		.loc 1 1485 0
 7108 07ca D7F82C31 		ldr	r3, [r7, #300]
 7109 07ce 0A22     		movs	r2, #10
 7110 07d0 5A80     		strh	r2, [r3, #2]	@ movhi
1486:.\DisplayBLL.c ****                     puartdisp->_messagestate = PENDING;
 7111              		.loc 1 1486 0
 7112 07d2 D7F82C31 		ldr	r3, [r7, #300]
 7113 07d6 C222     		movs	r2, #194
 7114 07d8 1A70     		strb	r2, [r3]
 7115              	.LBE84:
 7116 07da 3FE0     		b	.L221
 7117              	.L220:
 7118              	.LBB85:
1487:.\DisplayBLL.c ****                 }
1488:.\DisplayBLL.c ****                 else
1489:.\DisplayBLL.c ****                 {
1490:.\DisplayBLL.c ****                     //SET FC BC COLORS (RED)
1491:.\DisplayBLL.c ****                     uint8 buff[] = { 0xAA, 0x40, 0xF8, 0x00, 0xFF, 0xFF, 0xCC, 0x33, 0xC3, 0x3C };
 7119              		.loc 1 1491 0 discriminator 8
 7120 07dc 5D4A     		ldr	r2, .L245+24
 7121 07de 07F18403 		add	r3, r7, #132
 7122 07e2 1068     		ldr	r0, [r2]	@ unaligned
 7123 07e4 5168     		ldr	r1, [r2, #4]	@ unaligned
 7124 07e6 03C3     		stmia	r3!, {r0, r1}
 7125 07e8 1289     		ldrh	r2, [r2, #8]	@ unaligned
 7126 07ea 1A80     		strh	r2, [r3]	@ unaligned
1492:.\DisplayBLL.c ****                     memcpy(puartdisp->_messagetx, buff, sizeof(buff));
 7127              		.loc 1 1492 0 discriminator 8
 7128 07ec D7F82C31 		ldr	r3, [r7, #300]
 7129 07f0 0433     		adds	r3, r3, #4
 7130 07f2 1A46     		mov	r2, r3
 7131 07f4 07F18403 		add	r3, r7, #132
 7132 07f8 03CB     		ldmia	r3!, {r0, r1}
 7133 07fa 1060     		str	r0, [r2]	@ unaligned
 7134 07fc 5160     		str	r1, [r2, #4]	@ unaligned
 7135 07fe 1B88     		ldrh	r3, [r3]	@ unaligned
 7136 0800 1381     		strh	r3, [r2, #8]	@ unaligned
1493:.\DisplayBLL.c ****                     puartdisp->_messagelength = sizeof(buff);
 7137              		.loc 1 1493 0 discriminator 8
 7138 0802 D7F82C31 		ldr	r3, [r7, #300]
 7139 0806 0A22     		movs	r2, #10
 7140 0808 5A80     		strh	r2, [r3, #2]	@ movhi
1494:.\DisplayBLL.c ****                     puartdisp->_messagestate = PENDING;
 7141              		.loc 1 1494 0 discriminator 8
 7142 080a D7F82C31 		ldr	r3, [r7, #300]
 7143 080e C222     		movs	r2, #194
 7144 0810 1A70     		strb	r2, [r3]
 7145 0812 23E0     		b	.L221
 7146              	.L218:
 7147              	.LBE85:
1495:.\DisplayBLL.c ****                 }
1496:.\DisplayBLL.c ****             }
1497:.\DisplayBLL.c ****         }
1498:.\DisplayBLL.c ****         else
1499:.\DisplayBLL.c ****         {
1500:.\DisplayBLL.c ****             puartdisp = GetUARTMessageSlot(UART_DISPLAY2);
ARM GAS  C:\Users\RECEPC~1\AppData\Local\Temp\ccNQpeOs.s 			page 154


 7148              		.loc 1 1500 0
 7149 0814 A420     		movs	r0, #164
 7150 0816 FFF7FEFF 		bl	GetUARTMessageSlot
 7151 081a C7F82C01 		str	r0, [r7, #300]
1501:.\DisplayBLL.c ****             if(puartdisp)
 7152              		.loc 1 1501 0
 7153 081e D7F82C31 		ldr	r3, [r7, #300]
 7154 0822 002B     		cmp	r3, #0
 7155 0824 1AD0     		beq	.L221
 7156              	.LBB86:
1502:.\DisplayBLL.c ****             {
1503:.\DisplayBLL.c ****                 //SET FC BC COLORS (WHITE)
1504:.\DisplayBLL.c ****                 uint8 buff[] = { 0xAA, 0x40, 0xFF, 0xFF, 0xFF, 0xFF, 0xCC, 0x33, 0xC3, 0x3C };
 7157              		.loc 1 1504 0
 7158 0826 4C4A     		ldr	r2, .L245+28
 7159 0828 07F17803 		add	r3, r7, #120
 7160 082c 1068     		ldr	r0, [r2]	@ unaligned
 7161 082e 5168     		ldr	r1, [r2, #4]	@ unaligned
 7162 0830 03C3     		stmia	r3!, {r0, r1}
 7163 0832 1289     		ldrh	r2, [r2, #8]	@ unaligned
 7164 0834 1A80     		strh	r2, [r3]	@ unaligned
1505:.\DisplayBLL.c ****                 memcpy(puartdisp->_messagetx, buff, sizeof(buff));
 7165              		.loc 1 1505 0
 7166 0836 D7F82C31 		ldr	r3, [r7, #300]
 7167 083a 0433     		adds	r3, r3, #4
 7168 083c 1A46     		mov	r2, r3
 7169 083e 07F17803 		add	r3, r7, #120
 7170 0842 03CB     		ldmia	r3!, {r0, r1}
 7171 0844 1060     		str	r0, [r2]	@ unaligned
 7172 0846 5160     		str	r1, [r2, #4]	@ unaligned
 7173 0848 1B88     		ldrh	r3, [r3]	@ unaligned
 7174 084a 1381     		strh	r3, [r2, #8]	@ unaligned
1506:.\DisplayBLL.c ****                 puartdisp->_messagelength = sizeof(buff);
 7175              		.loc 1 1506 0
 7176 084c D7F82C31 		ldr	r3, [r7, #300]
 7177 0850 0A22     		movs	r2, #10
 7178 0852 5A80     		strh	r2, [r3, #2]	@ movhi
1507:.\DisplayBLL.c ****                 puartdisp->_messagestate = PENDING;
 7179              		.loc 1 1507 0
 7180 0854 D7F82C31 		ldr	r3, [r7, #300]
 7181 0858 C222     		movs	r2, #194
 7182 085a 1A70     		strb	r2, [r3]
 7183              	.L221:
 7184              	.LBE86:
1508:.\DisplayBLL.c ****             }
1509:.\DisplayBLL.c ****         }
1510:.\DisplayBLL.c ****         
1511:.\DisplayBLL.c ****         puartdisp = GetUARTMessageSlot(UART_DISPLAY2);
 7185              		.loc 1 1511 0
 7186 085c A420     		movs	r0, #164
 7187 085e FFF7FEFF 		bl	GetUARTMessageSlot
 7188 0862 C7F82C01 		str	r0, [r7, #300]
1512:.\DisplayBLL.c ****         if(puartdisp)
 7189              		.loc 1 1512 0
 7190 0866 D7F82C31 		ldr	r3, [r7, #300]
 7191 086a 002B     		cmp	r3, #0
 7192 086c 1DD0     		beq	.L222
ARM GAS  C:\Users\RECEPC~1\AppData\Local\Temp\ccNQpeOs.s 			page 155


 7193              	.LBB87:
1513:.\DisplayBLL.c ****         {
1514:.\DisplayBLL.c ****             uint8 buff[] = { 0xAA, 0x5B, 0x02, 0x50, 0x01, 0x70, 0x02, 0x70, 0x01, 0x90, 0xCC, 0x33
 7194              		.loc 1 1514 0
 7195 086e 3B4A     		ldr	r2, .L245+32
 7196 0870 07F16803 		add	r3, r7, #104
 7197 0874 1446     		mov	r4, r2
 7198 0876 2068     		ldr	r0, [r4]	@ unaligned
 7199 0878 6168     		ldr	r1, [r4, #4]	@ unaligned
 7200 087a A268     		ldr	r2, [r4, #8]	@ unaligned
 7201 087c 07C3     		stmia	r3!, {r0, r1, r2}
 7202 087e A289     		ldrh	r2, [r4, #12]	@ unaligned
 7203 0880 1A80     		strh	r2, [r3]	@ unaligned
1515:.\DisplayBLL.c ****             memcpy(puartdisp->_messagetx, buff, sizeof(buff));
 7204              		.loc 1 1515 0
 7205 0882 D7F82C31 		ldr	r3, [r7, #300]
 7206 0886 0433     		adds	r3, r3, #4
 7207 0888 1C46     		mov	r4, r3
 7208 088a 07F16803 		add	r3, r7, #104
 7209 088e 07CB     		ldmia	r3!, {r0, r1, r2}
 7210 0890 2060     		str	r0, [r4]	@ unaligned
 7211 0892 6160     		str	r1, [r4, #4]	@ unaligned
 7212 0894 A260     		str	r2, [r4, #8]	@ unaligned
 7213 0896 1B88     		ldrh	r3, [r3]	@ unaligned
 7214 0898 A381     		strh	r3, [r4, #12]	@ unaligned
1516:.\DisplayBLL.c ****             puartdisp->_messagelength = sizeof(buff);
 7215              		.loc 1 1516 0
 7216 089a D7F82C31 		ldr	r3, [r7, #300]
 7217 089e 0E22     		movs	r2, #14
 7218 08a0 5A80     		strh	r2, [r3, #2]	@ movhi
1517:.\DisplayBLL.c ****             puartdisp->_messagestate = PENDING;
 7219              		.loc 1 1517 0
 7220 08a2 D7F82C31 		ldr	r3, [r7, #300]
 7221 08a6 C222     		movs	r2, #194
 7222 08a8 1A70     		strb	r2, [r3]
 7223              	.L222:
 7224              	.LBE87:
1518:.\DisplayBLL.c ****         }
1519:.\DisplayBLL.c ****         
1520:.\DisplayBLL.c ****         //On-Display witness to alert about pending or in-execution operations on the pump
1521:.\DisplayBLL.c ****         if(!pumpavstates[0x00])
 7225              		.loc 1 1521 0
 7226 08aa 97F8A030 		ldrb	r3, [r7, #160]	@ zero_extendqisi2
 7227 08ae 002B     		cmp	r3, #0
 7228 08b0 56D1     		bne	.L223
1522:.\DisplayBLL.c ****         {
1523:.\DisplayBLL.c ****             puartdisp = GetUARTMessageSlot(UART_DISPLAY2);
 7229              		.loc 1 1523 0
 7230 08b2 A420     		movs	r0, #164
 7231 08b4 FFF7FEFF 		bl	GetUARTMessageSlot
 7232 08b8 C7F82C01 		str	r0, [r7, #300]
1524:.\DisplayBLL.c ****             if(puartdisp)
 7233              		.loc 1 1524 0
 7234 08bc D7F82C31 		ldr	r3, [r7, #300]
 7235 08c0 002B     		cmp	r3, #0
 7236 08c2 70D0     		beq	.L226
1525:.\DisplayBLL.c ****             {
ARM GAS  C:\Users\RECEPC~1\AppData\Local\Temp\ccNQpeOs.s 			page 156


1526:.\DisplayBLL.c ****                 if(pumpsprintstate[0x00])
 7237              		.loc 1 1526 0
 7238 08c4 97F89C30 		ldrb	r3, [r7, #156]	@ zero_extendqisi2
 7239 08c8 002B     		cmp	r3, #0
 7240 08ca 1BD0     		beq	.L225
 7241              	.LBB88:
1527:.\DisplayBLL.c ****                 {
1528:.\DisplayBLL.c ****                     //SET FC BC COLORS (BLUE) IF PRINT HAS BEEN REQUESTED
1529:.\DisplayBLL.c ****                     uint8 buff[] = { 0xAA, 0x40, 0x00, 0x1F, 0xFF, 0xFF, 0xCC, 0x33, 0xC3, 0x3C };
 7242              		.loc 1 1529 0
 7243 08cc 204A     		ldr	r2, .L245+20
 7244 08ce 07F15C03 		add	r3, r7, #92
 7245 08d2 1068     		ldr	r0, [r2]	@ unaligned
 7246 08d4 5168     		ldr	r1, [r2, #4]	@ unaligned
 7247 08d6 03C3     		stmia	r3!, {r0, r1}
 7248 08d8 1289     		ldrh	r2, [r2, #8]	@ unaligned
 7249 08da 1A80     		strh	r2, [r3]	@ unaligned
1530:.\DisplayBLL.c ****                     memcpy(puartdisp->_messagetx, buff, sizeof(buff));
 7250              		.loc 1 1530 0
 7251 08dc D7F82C31 		ldr	r3, [r7, #300]
 7252 08e0 0433     		adds	r3, r3, #4
 7253 08e2 1A46     		mov	r2, r3
 7254 08e4 07F15C03 		add	r3, r7, #92
 7255 08e8 03CB     		ldmia	r3!, {r0, r1}
 7256 08ea 1060     		str	r0, [r2]	@ unaligned
 7257 08ec 5160     		str	r1, [r2, #4]	@ unaligned
 7258 08ee 1B88     		ldrh	r3, [r3]	@ unaligned
 7259 08f0 1381     		strh	r3, [r2, #8]	@ unaligned
1531:.\DisplayBLL.c ****                     puartdisp->_messagelength = sizeof(buff);
 7260              		.loc 1 1531 0
 7261 08f2 D7F82C31 		ldr	r3, [r7, #300]
 7262 08f6 0A22     		movs	r2, #10
 7263 08f8 5A80     		strh	r2, [r3, #2]	@ movhi
1532:.\DisplayBLL.c ****                     puartdisp->_messagestate = PENDING;
 7264              		.loc 1 1532 0
 7265 08fa D7F82C31 		ldr	r3, [r7, #300]
 7266 08fe C222     		movs	r2, #194
 7267 0900 1A70     		strb	r2, [r3]
 7268              	.LBE88:
 7269 0902 50E0     		b	.L226
 7270              	.L225:
 7271              	.LBB89:
1533:.\DisplayBLL.c ****                 }
1534:.\DisplayBLL.c ****                 else
1535:.\DisplayBLL.c ****                 {
1536:.\DisplayBLL.c ****                     //SET FC BC COLORS (RED)
1537:.\DisplayBLL.c ****                     uint8 buff[] = { 0xAA, 0x40, 0xF8, 0x00, 0xFF, 0xFF, 0xCC, 0x33, 0xC3, 0x3C };
 7272              		.loc 1 1537 0 discriminator 10
 7273 0904 07F15003 		add	r3, r7, #80
 7274 0908 124A     		ldr	r2, .L245+24
 7275 090a 1068     		ldr	r0, [r2]	@ unaligned
 7276 090c 5168     		ldr	r1, [r2, #4]	@ unaligned
 7277 090e 03C3     		stmia	r3!, {r0, r1}
 7278 0910 1289     		ldrh	r2, [r2, #8]	@ unaligned
 7279 0912 1A80     		strh	r2, [r3]	@ unaligned
1538:.\DisplayBLL.c ****                     memcpy(puartdisp->_messagetx, buff, sizeof(buff));
 7280              		.loc 1 1538 0 discriminator 10
ARM GAS  C:\Users\RECEPC~1\AppData\Local\Temp\ccNQpeOs.s 			page 157


 7281 0914 D7F82C31 		ldr	r3, [r7, #300]
 7282 0918 1A1D     		adds	r2, r3, #4
 7283 091a 07F15003 		add	r3, r7, #80
 7284 091e 03CB     		ldmia	r3!, {r0, r1}
 7285 0920 1060     		str	r0, [r2]	@ unaligned
 7286 0922 5160     		str	r1, [r2, #4]	@ unaligned
 7287 0924 1B88     		ldrh	r3, [r3]	@ unaligned
 7288 0926 1381     		strh	r3, [r2, #8]	@ unaligned
1539:.\DisplayBLL.c ****                     puartdisp->_messagelength = sizeof(buff);
 7289              		.loc 1 1539 0 discriminator 10
 7290 0928 D7F82C31 		ldr	r3, [r7, #300]
 7291 092c 0A22     		movs	r2, #10
 7292 092e 5A80     		strh	r2, [r3, #2]	@ movhi
1540:.\DisplayBLL.c ****                     puartdisp->_messagestate = PENDING;
 7293              		.loc 1 1540 0 discriminator 10
 7294 0930 D7F82C31 		ldr	r3, [r7, #300]
 7295 0934 C222     		movs	r2, #194
 7296 0936 1A70     		strb	r2, [r3]
 7297 0938 35E0     		b	.L226
 7298              	.L246:
 7299 093a 00BF     		.align	2
 7300              	.L245:
 7301 093c 00000000 		.word	_g_configured
 7302 0940 00000000 		.word	_g_dispenserlayoutinfo
 7303 0944 40020000 		.word	.LC22
 7304 0948 D8010000 		.word	.LC23
 7305 094c 00000000 		.word	_g_homeanimarray
 7306 0950 08020000 		.word	.LC7
 7307 0954 14020000 		.word	.LC8
 7308 0958 60000000 		.word	.LC0
 7309 095c 20020000 		.word	.LC9
 7310              	.L223:
 7311              	.LBE89:
1541:.\DisplayBLL.c ****                 }
1542:.\DisplayBLL.c ****             }
1543:.\DisplayBLL.c ****         }
1544:.\DisplayBLL.c ****         else
1545:.\DisplayBLL.c ****         {
1546:.\DisplayBLL.c ****             puartdisp = GetUARTMessageSlot(UART_DISPLAY2);
 7312              		.loc 1 1546 0
 7313 0960 A420     		movs	r0, #164
 7314 0962 FFF7FEFF 		bl	GetUARTMessageSlot
 7315 0966 C7F82C01 		str	r0, [r7, #300]
1547:.\DisplayBLL.c ****             if(puartdisp)
 7316              		.loc 1 1547 0
 7317 096a D7F82C31 		ldr	r3, [r7, #300]
 7318 096e 002B     		cmp	r3, #0
 7319 0970 19D0     		beq	.L226
 7320              	.LBB90:
1548:.\DisplayBLL.c ****             {
1549:.\DisplayBLL.c ****                 //SET FC BC COLORS (WHITE)
1550:.\DisplayBLL.c ****                 uint8 buff[] = { 0xAA, 0x40, 0xFF, 0xFF, 0xFF, 0xFF, 0xCC, 0x33, 0xC3, 0x3C };
 7321              		.loc 1 1550 0
 7322 0972 07F14403 		add	r3, r7, #68
 7323 0976 C54A     		ldr	r2, .L247
 7324 0978 1068     		ldr	r0, [r2]	@ unaligned
 7325 097a 5168     		ldr	r1, [r2, #4]	@ unaligned
ARM GAS  C:\Users\RECEPC~1\AppData\Local\Temp\ccNQpeOs.s 			page 158


 7326 097c 03C3     		stmia	r3!, {r0, r1}
 7327 097e 1289     		ldrh	r2, [r2, #8]	@ unaligned
 7328 0980 1A80     		strh	r2, [r3]	@ unaligned
1551:.\DisplayBLL.c ****                 memcpy(puartdisp->_messagetx, buff, sizeof(buff));
 7329              		.loc 1 1551 0
 7330 0982 D7F82C31 		ldr	r3, [r7, #300]
 7331 0986 1A1D     		adds	r2, r3, #4
 7332 0988 07F14403 		add	r3, r7, #68
 7333 098c 03CB     		ldmia	r3!, {r0, r1}
 7334 098e 1060     		str	r0, [r2]	@ unaligned
 7335 0990 5160     		str	r1, [r2, #4]	@ unaligned
 7336 0992 1B88     		ldrh	r3, [r3]	@ unaligned
 7337 0994 1381     		strh	r3, [r2, #8]	@ unaligned
1552:.\DisplayBLL.c ****                 puartdisp->_messagelength = sizeof(buff);
 7338              		.loc 1 1552 0
 7339 0996 D7F82C31 		ldr	r3, [r7, #300]
 7340 099a 0A22     		movs	r2, #10
 7341 099c 5A80     		strh	r2, [r3, #2]	@ movhi
1553:.\DisplayBLL.c ****                 puartdisp->_messagestate = PENDING;
 7342              		.loc 1 1553 0
 7343 099e D7F82C31 		ldr	r3, [r7, #300]
 7344 09a2 C222     		movs	r2, #194
 7345 09a4 1A70     		strb	r2, [r3]
 7346              	.L226:
 7347              	.LBE90:
1554:.\DisplayBLL.c ****             }
1555:.\DisplayBLL.c ****         }
1556:.\DisplayBLL.c ****         
1557:.\DisplayBLL.c ****         puartdisp = GetUARTMessageSlot(UART_DISPLAY2);
 7348              		.loc 1 1557 0
 7349 09a6 A420     		movs	r0, #164
 7350 09a8 FFF7FEFF 		bl	GetUARTMessageSlot
 7351 09ac C7F82C01 		str	r0, [r7, #300]
1558:.\DisplayBLL.c ****         if(puartdisp)
 7352              		.loc 1 1558 0
 7353 09b0 D7F82C31 		ldr	r3, [r7, #300]
 7354 09b4 002B     		cmp	r3, #0
 7355 09b6 1DD0     		beq	.L227
 7356              	.LBB91:
1559:.\DisplayBLL.c ****         {
1560:.\DisplayBLL.c ****             uint8 buff[] = { 0xAA, 0x5B, 0x00, 0x10, 0x01, 0x70, 0x00, 0x30, 0x01, 0x90, 0xCC, 0x33
 7357              		.loc 1 1560 0
 7358 09b8 07F13403 		add	r3, r7, #52
 7359 09bc B44A     		ldr	r2, .L247+4
 7360 09be 1446     		mov	r4, r2
 7361 09c0 2068     		ldr	r0, [r4]	@ unaligned
 7362 09c2 6168     		ldr	r1, [r4, #4]	@ unaligned
 7363 09c4 A268     		ldr	r2, [r4, #8]	@ unaligned
 7364 09c6 07C3     		stmia	r3!, {r0, r1, r2}
 7365 09c8 A289     		ldrh	r2, [r4, #12]	@ unaligned
 7366 09ca 1A80     		strh	r2, [r3]	@ unaligned
1561:.\DisplayBLL.c ****             memcpy(puartdisp->_messagetx, buff, sizeof(buff));
 7367              		.loc 1 1561 0
 7368 09cc D7F82C31 		ldr	r3, [r7, #300]
 7369 09d0 1A1D     		adds	r2, r3, #4
 7370 09d2 07F13403 		add	r3, r7, #52
 7371 09d6 1446     		mov	r4, r2
ARM GAS  C:\Users\RECEPC~1\AppData\Local\Temp\ccNQpeOs.s 			page 159


 7372 09d8 07CB     		ldmia	r3!, {r0, r1, r2}
 7373 09da 2060     		str	r0, [r4]	@ unaligned
 7374 09dc 6160     		str	r1, [r4, #4]	@ unaligned
 7375 09de A260     		str	r2, [r4, #8]	@ unaligned
 7376 09e0 1B88     		ldrh	r3, [r3]	@ unaligned
 7377 09e2 A381     		strh	r3, [r4, #12]	@ unaligned
1562:.\DisplayBLL.c ****             puartdisp->_messagelength = sizeof(buff);
 7378              		.loc 1 1562 0
 7379 09e4 D7F82C31 		ldr	r3, [r7, #300]
 7380 09e8 0E22     		movs	r2, #14
 7381 09ea 5A80     		strh	r2, [r3, #2]	@ movhi
1563:.\DisplayBLL.c ****             puartdisp->_messagestate = PENDING;
 7382              		.loc 1 1563 0
 7383 09ec D7F82C31 		ldr	r3, [r7, #300]
 7384 09f0 C222     		movs	r2, #194
 7385 09f2 1A70     		strb	r2, [r3]
 7386              	.L227:
 7387              	.LBE91:
1564:.\DisplayBLL.c ****         }
1565:.\DisplayBLL.c ****         
1566:.\DisplayBLL.c ****         fontdata._backcolor = 0xFFFF;
 7388              		.loc 1 1566 0
 7389 09f4 4FF6FF73 		movw	r3, #65535
 7390 09f8 A7F81831 		strh	r3, [r7, #280]	@ movhi
1567:.\DisplayBLL.c ****         fontdata._forecolor = 0x0000;
 7391              		.loc 1 1567 0
 7392 09fc 0023     		movs	r3, #0
 7393 09fe A7F81A31 		strh	r3, [r7, #282]	@ movhi
1568:.\DisplayBLL.c ****         
1569:.\DisplayBLL.c ****         if((100*_g_homeanimarray[DISPLAY2]._timeoutmultiplier) > _SINK_TIMEOUT_2S_)
 7394              		.loc 1 1569 0
 7395 0a02 A44B     		ldr	r3, .L247+8
 7396 0a04 5B7A     		ldrb	r3, [r3, #9]	@ zero_extendqisi2
 7397 0a06 1A46     		mov	r2, r3
 7398 0a08 6423     		movs	r3, #100
 7399 0a0a 03FB02F3 		mul	r3, r3, r2
 7400 0a0e B3F5FA6F 		cmp	r3, #2000
 7401 0a12 16DD     		ble	.L228
1570:.\DisplayBLL.c ****         {
1571:.\DisplayBLL.c ****             DrawHomeDateTime(pdisplay);
 7402              		.loc 1 1571 0
 7403 0a14 D7F84801 		ldr	r0, [r7, #328]
 7404 0a18 FFF7FEFF 		bl	DrawHomeDateTime
1572:.\DisplayBLL.c ****             _g_homeanimarray[DISPLAY2]._timeoutmultiplier = 0;
 7405              		.loc 1 1572 0
 7406 0a1c 9D4B     		ldr	r3, .L247+8
 7407 0a1e 0022     		movs	r2, #0
 7408 0a20 5A72     		strb	r2, [r3, #9]
1573:.\DisplayBLL.c ****             _g_homeanimarray[DISPLAY2]._colontoggler = !_g_homeanimarray[DISPLAY2]._colontoggler;
 7409              		.loc 1 1573 0
 7410 0a22 9C4B     		ldr	r3, .L247+8
 7411 0a24 1B7A     		ldrb	r3, [r3, #8]	@ zero_extendqisi2
 7412 0a26 002B     		cmp	r3, #0
 7413 0a28 14BF     		ite	ne
 7414 0a2a 0123     		movne	r3, #1
 7415 0a2c 0023     		moveq	r3, #0
 7416 0a2e DBB2     		uxtb	r3, r3
ARM GAS  C:\Users\RECEPC~1\AppData\Local\Temp\ccNQpeOs.s 			page 160


 7417 0a30 83F00103 		eor	r3, r3, #1
 7418 0a34 DBB2     		uxtb	r3, r3
 7419 0a36 03F00103 		and	r3, r3, #1
 7420 0a3a DAB2     		uxtb	r2, r3
 7421 0a3c 954B     		ldr	r3, .L247+8
 7422 0a3e 1A72     		strb	r2, [r3, #8]
 7423 0a40 05E0     		b	.L229
 7424              	.L228:
1574:.\DisplayBLL.c ****         }else
1575:.\DisplayBLL.c ****             _g_homeanimarray[DISPLAY2]._timeoutmultiplier++;
 7425              		.loc 1 1575 0
 7426 0a42 944B     		ldr	r3, .L247+8
 7427 0a44 5B7A     		ldrb	r3, [r3, #9]	@ zero_extendqisi2
 7428 0a46 0133     		adds	r3, r3, #1
 7429 0a48 DAB2     		uxtb	r2, r3
 7430 0a4a 924B     		ldr	r3, .L247+8
 7431 0a4c 5A72     		strb	r2, [r3, #9]
 7432              	.L229:
1576:.\DisplayBLL.c ****             
1577:.\DisplayBLL.c ****         fontdata._size = 0x01;
 7433              		.loc 1 1577 0
 7434 0a4e 0123     		movs	r3, #1
 7435 0a50 87F81431 		strb	r3, [r7, #276]
1578:.\DisplayBLL.c ****         if(!_g_display2._starting)
 7436              		.loc 1 1578 0
 7437 0a54 904B     		ldr	r3, .L247+12
 7438 0a56 5B7B     		ldrb	r3, [r3, #13]	@ zero_extendqisi2
 7439 0a58 83F00103 		eor	r3, r3, #1
 7440 0a5c DBB2     		uxtb	r3, r3
 7441 0a5e 002B     		cmp	r3, #0
 7442 0a60 64D0     		beq	.L230
1579:.\DisplayBLL.c ****         {
1580:.\DisplayBLL.c ****             if(FindSinkMessage(_g_printerlayout._printerportside2))
 7443              		.loc 1 1580 0
 7444 0a62 8E4B     		ldr	r3, .L247+16
 7445 0a64 5B78     		ldrb	r3, [r3, #1]	@ zero_extendqisi2
 7446 0a66 1846     		mov	r0, r3
 7447 0a68 FFF7FEFF 		bl	FindSinkMessage
 7448 0a6c 0346     		mov	r3, r0
 7449 0a6e 002B     		cmp	r3, #0
 7450 0a70 2ED0     		beq	.L231
1581:.\DisplayBLL.c ****             {
1582:.\DisplayBLL.c ****                 puartdisp = GetUARTMessageSlot(UART_DISPLAY2);
 7451              		.loc 1 1582 0
 7452 0a72 A420     		movs	r0, #164
 7453 0a74 FFF7FEFF 		bl	GetUARTMessageSlot
 7454 0a78 C7F82C01 		str	r0, [r7, #300]
1583:.\DisplayBLL.c ****                 if(puartdisp)
 7455              		.loc 1 1583 0
 7456 0a7c D7F82C31 		ldr	r3, [r7, #300]
 7457 0a80 002B     		cmp	r3, #0
 7458 0a82 53D0     		beq	.L230
 7459              	.LBB92:
1584:.\DisplayBLL.c ****                 {
1585:.\DisplayBLL.c ****                     PSTR ptxtbuffer = "Imprimiendo, por favor espere...";
 7460              		.loc 1 1585 0
 7461 0a84 864B     		ldr	r3, .L247+20
ARM GAS  C:\Users\RECEPC~1\AppData\Local\Temp\ccNQpeOs.s 			page 161


 7462 0a86 C7F82831 		str	r3, [r7, #296]
1586:.\DisplayBLL.c ****                     puartdisp->_messagelength = DisplayOutputString(0x0B8, 0x1D0, puartdisp->_messa
 7463              		.loc 1 1586 0
 7464 0a8a D7F82C31 		ldr	r3, [r7, #300]
 7465 0a8e 1C1D     		adds	r4, r3, #4
 7466 0a90 D7F82801 		ldr	r0, [r7, #296]
 7467 0a94 FFF7FEFF 		bl	strlen
 7468 0a98 0346     		mov	r3, r0
 7469 0a9a 9BB2     		uxth	r3, r3
 7470 0a9c 0093     		str	r3, [sp]
 7471 0a9e 01AA     		add	r2, sp, #4
 7472 0aa0 07F58A73 		add	r3, r7, #276
 7473 0aa4 93E80300 		ldmia	r3, {r0, r1}
 7474 0aa8 82E80300 		stmia	r2, {r0, r1}
 7475 0aac B820     		movs	r0, #184
 7476 0aae 4FF4E871 		mov	r1, #464
 7477 0ab2 2246     		mov	r2, r4
 7478 0ab4 D7F82831 		ldr	r3, [r7, #296]
 7479 0ab8 FFF7FEFF 		bl	DisplayOutputString
 7480 0abc 0346     		mov	r3, r0
 7481 0abe 1A46     		mov	r2, r3
 7482 0ac0 D7F82C31 		ldr	r3, [r7, #300]
 7483 0ac4 5A80     		strh	r2, [r3, #2]	@ movhi
1587:.\DisplayBLL.c ****                     puartdisp->_messagestate = PENDING;
 7484              		.loc 1 1587 0
 7485 0ac6 D7F82C31 		ldr	r3, [r7, #300]
 7486 0aca C222     		movs	r2, #194
 7487 0acc 1A70     		strb	r2, [r3]
 7488 0ace 2DE0     		b	.L230
 7489              	.L231:
 7490              	.LBE92:
1588:.\DisplayBLL.c ****                 }
1589:.\DisplayBLL.c ****             }
1590:.\DisplayBLL.c ****             else
1591:.\DisplayBLL.c ****             {
1592:.\DisplayBLL.c ****                 puartdisp = GetUARTMessageSlot(UART_DISPLAY2);
 7491              		.loc 1 1592 0
 7492 0ad0 A420     		movs	r0, #164
 7493 0ad2 FFF7FEFF 		bl	GetUARTMessageSlot
 7494 0ad6 C7F82C01 		str	r0, [r7, #300]
1593:.\DisplayBLL.c ****                 if(puartdisp)
 7495              		.loc 1 1593 0
 7496 0ada D7F82C31 		ldr	r3, [r7, #300]
 7497 0ade 002B     		cmp	r3, #0
 7498 0ae0 24D0     		beq	.L230
 7499              	.LBB93:
1594:.\DisplayBLL.c ****                 {
1595:.\DisplayBLL.c ****                     uint8 ptxtbuffer[0x20];
1596:.\DisplayBLL.c ****                     memset(ptxtbuffer, 0x00, 0x20);
 7500              		.loc 1 1596 0
 7501 0ae2 07F10C03 		add	r3, r7, #12
 7502 0ae6 1846     		mov	r0, r3
 7503 0ae8 0021     		movs	r1, #0
 7504 0aea 2022     		movs	r2, #32
 7505 0aec FFF7FEFF 		bl	memset
1597:.\DisplayBLL.c ****                     puartdisp->_messagelength = DisplayOutputString(0x0B8, 0x1D0, puartdisp->_messa
 7506              		.loc 1 1597 0
ARM GAS  C:\Users\RECEPC~1\AppData\Local\Temp\ccNQpeOs.s 			page 162


 7507 0af0 D7F82C31 		ldr	r3, [r7, #300]
 7508 0af4 1D1D     		adds	r5, r3, #4
 7509 0af6 07F10C04 		add	r4, r7, #12
 7510 0afa 2023     		movs	r3, #32
 7511 0afc 0093     		str	r3, [sp]
 7512 0afe 01AA     		add	r2, sp, #4
 7513 0b00 07F58A73 		add	r3, r7, #276
 7514 0b04 93E80300 		ldmia	r3, {r0, r1}
 7515 0b08 82E80300 		stmia	r2, {r0, r1}
 7516 0b0c B820     		movs	r0, #184
 7517 0b0e 4FF4E871 		mov	r1, #464
 7518 0b12 2A46     		mov	r2, r5
 7519 0b14 2346     		mov	r3, r4
 7520 0b16 FFF7FEFF 		bl	DisplayOutputString
 7521 0b1a 0346     		mov	r3, r0
 7522 0b1c 1A46     		mov	r2, r3
 7523 0b1e D7F82C31 		ldr	r3, [r7, #300]
 7524 0b22 5A80     		strh	r2, [r3, #2]	@ movhi
1598:.\DisplayBLL.c ****                     puartdisp->_messagestate = PENDING;
 7525              		.loc 1 1598 0
 7526 0b24 D7F82C31 		ldr	r3, [r7, #300]
 7527 0b28 C222     		movs	r2, #194
 7528 0b2a 1A70     		strb	r2, [r3]
 7529              	.L230:
 7530              	.LBE93:
1599:.\DisplayBLL.c ****                 }
1600:.\DisplayBLL.c ****             }
1601:.\DisplayBLL.c ****         }
1602:.\DisplayBLL.c ****         
1603:.\DisplayBLL.c ****         if(_g_dispenserlayoutinfo._inconfiguration)
 7531              		.loc 1 1603 0
 7532 0b2c 5D4B     		ldr	r3, .L247+24
 7533 0b2e 1B78     		ldrb	r3, [r3]
 7534 0b30 DBB2     		uxtb	r3, r3
 7535 0b32 002B     		cmp	r3, #0
 7536 0b34 72D0     		beq	.L233
1604:.\DisplayBLL.c ****         {
1605:.\DisplayBLL.c ****             puartdisp = GetUARTMessageSlot(UART_DISPLAY2);
 7537              		.loc 1 1605 0
 7538 0b36 A420     		movs	r0, #164
 7539 0b38 FFF7FEFF 		bl	GetUARTMessageSlot
 7540 0b3c C7F82C01 		str	r0, [r7, #300]
1606:.\DisplayBLL.c ****             if(puartdisp)
 7541              		.loc 1 1606 0
 7542 0b40 D7F82C31 		ldr	r3, [r7, #300]
 7543 0b44 002B     		cmp	r3, #0
 7544 0b46 00F0EB80 		beq	.L187
1607:.\DisplayBLL.c ****             {
1608:.\DisplayBLL.c ****                 if(_g_dispenserlayoutinfo._currentloopopen)
 7545              		.loc 1 1608 0
 7546 0b4a 564B     		ldr	r3, .L247+24
 7547 0b4c 5B78     		ldrb	r3, [r3, #1]
 7548 0b4e DBB2     		uxtb	r3, r3
 7549 0b50 002B     		cmp	r3, #0
 7550 0b52 2FD0     		beq	.L235
 7551              	.LBB94:
1609:.\DisplayBLL.c ****                 {
ARM GAS  C:\Users\RECEPC~1\AppData\Local\Temp\ccNQpeOs.s 			page 163


1610:.\DisplayBLL.c ****                     PSTR ptxtbuffer = "<<** LAZO DE CORRIENTE ABIERTO! **>>";
 7552              		.loc 1 1610 0
 7553 0b54 544B     		ldr	r3, .L247+28
 7554 0b56 C7F82431 		str	r3, [r7, #292]
1611:.\DisplayBLL.c ****                     memcpy(puartdisp->_messagetx, ptxtbuffer, strlen(ptxtbuffer));
 7555              		.loc 1 1611 0
 7556 0b5a D7F82C31 		ldr	r3, [r7, #300]
 7557 0b5e 1C1D     		adds	r4, r3, #4
 7558 0b60 D7F82401 		ldr	r0, [r7, #292]
 7559 0b64 FFF7FEFF 		bl	strlen
 7560 0b68 0346     		mov	r3, r0
 7561 0b6a 2046     		mov	r0, r4
 7562 0b6c D7F82411 		ldr	r1, [r7, #292]
 7563 0b70 1A46     		mov	r2, r3
 7564 0b72 FFF7FEFF 		bl	memcpy
1612:.\DisplayBLL.c ****                     puartdisp->_messagelength = DisplayOutputString(0x0B8, 0x1D0, puartdisp->_messa
 7565              		.loc 1 1612 0
 7566 0b76 D7F82C31 		ldr	r3, [r7, #300]
 7567 0b7a 1C1D     		adds	r4, r3, #4
 7568 0b7c D7F82401 		ldr	r0, [r7, #292]
 7569 0b80 FFF7FEFF 		bl	strlen
 7570 0b84 0346     		mov	r3, r0
 7571 0b86 9BB2     		uxth	r3, r3
 7572 0b88 0093     		str	r3, [sp]
 7573 0b8a 01AA     		add	r2, sp, #4
 7574 0b8c 07F58A73 		add	r3, r7, #276
 7575 0b90 93E80300 		ldmia	r3, {r0, r1}
 7576 0b94 82E80300 		stmia	r2, {r0, r1}
 7577 0b98 B820     		movs	r0, #184
 7578 0b9a 4FF4E871 		mov	r1, #464
 7579 0b9e 2246     		mov	r2, r4
 7580 0ba0 D7F82431 		ldr	r3, [r7, #292]
 7581 0ba4 FFF7FEFF 		bl	DisplayOutputString
 7582 0ba8 0346     		mov	r3, r0
 7583 0baa 1A46     		mov	r2, r3
 7584 0bac D7F82C31 		ldr	r3, [r7, #300]
 7585 0bb0 5A80     		strh	r2, [r3, #2]	@ movhi
 7586              	.LBE94:
 7587 0bb2 2EE0     		b	.L236
 7588              	.L235:
 7589              	.LBB95:
1613:.\DisplayBLL.c ****                 }
1614:.\DisplayBLL.c ****                 else
1615:.\DisplayBLL.c ****                 {
1616:.\DisplayBLL.c ****                     PSTR ptxtbuffer = "Configurando, por favor espere.....";
 7590              		.loc 1 1616 0
 7591 0bb4 3D4B     		ldr	r3, .L247+32
 7592 0bb6 C7F82031 		str	r3, [r7, #288]
1617:.\DisplayBLL.c ****                     memcpy(puartdisp->_messagetx, ptxtbuffer, strlen(ptxtbuffer));
 7593              		.loc 1 1617 0
 7594 0bba D7F82C31 		ldr	r3, [r7, #300]
 7595 0bbe 1C1D     		adds	r4, r3, #4
 7596 0bc0 D7F82001 		ldr	r0, [r7, #288]
 7597 0bc4 FFF7FEFF 		bl	strlen
 7598 0bc8 0346     		mov	r3, r0
 7599 0bca 2046     		mov	r0, r4
 7600 0bcc D7F82011 		ldr	r1, [r7, #288]
ARM GAS  C:\Users\RECEPC~1\AppData\Local\Temp\ccNQpeOs.s 			page 164


 7601 0bd0 1A46     		mov	r2, r3
 7602 0bd2 FFF7FEFF 		bl	memcpy
1618:.\DisplayBLL.c ****                     puartdisp->_messagelength = DisplayOutputString(0x0B8, 0x1D0, puartdisp->_messa
 7603              		.loc 1 1618 0
 7604 0bd6 D7F82C31 		ldr	r3, [r7, #300]
 7605 0bda 1C1D     		adds	r4, r3, #4
 7606 0bdc D7F82001 		ldr	r0, [r7, #288]
 7607 0be0 FFF7FEFF 		bl	strlen
 7608 0be4 0346     		mov	r3, r0
 7609 0be6 9BB2     		uxth	r3, r3
 7610 0be8 0093     		str	r3, [sp]
 7611 0bea 01AA     		add	r2, sp, #4
 7612 0bec 07F58A73 		add	r3, r7, #276
 7613 0bf0 93E80300 		ldmia	r3, {r0, r1}
 7614 0bf4 82E80300 		stmia	r2, {r0, r1}
 7615 0bf8 B820     		movs	r0, #184
 7616 0bfa 4FF4E871 		mov	r1, #464
 7617 0bfe 2246     		mov	r2, r4
 7618 0c00 D7F82031 		ldr	r3, [r7, #288]
 7619 0c04 FFF7FEFF 		bl	DisplayOutputString
 7620 0c08 0346     		mov	r3, r0
 7621 0c0a 1A46     		mov	r2, r3
 7622 0c0c D7F82C31 		ldr	r3, [r7, #300]
 7623 0c10 5A80     		strh	r2, [r3, #2]	@ movhi
 7624              	.L236:
 7625              	.LBE95:
1619:.\DisplayBLL.c ****                 }
1620:.\DisplayBLL.c ****                 puartdisp->_messagestate = PENDING;
 7626              		.loc 1 1620 0
 7627 0c12 D7F82C31 		ldr	r3, [r7, #300]
 7628 0c16 C222     		movs	r2, #194
 7629 0c18 1A70     		strb	r2, [r3]
 7630 0c1a 81E0     		b	.L187
 7631              	.L233:
1621:.\DisplayBLL.c ****             }
1622:.\DisplayBLL.c ****         }
1623:.\DisplayBLL.c ****         else if(!_g_configured[0x01])
 7632              		.loc 1 1623 0
 7633 0c1c 244B     		ldr	r3, .L247+36
 7634 0c1e 5B78     		ldrb	r3, [r3, #1]	@ zero_extendqisi2
 7635 0c20 83F00103 		eor	r3, r3, #1
 7636 0c24 DBB2     		uxtb	r3, r3
 7637 0c26 002B     		cmp	r3, #0
 7638 0c28 7AD0     		beq	.L187
1624:.\DisplayBLL.c ****         {
1625:.\DisplayBLL.c ****             puartdisp = GetUARTMessageSlot(UART_DISPLAY2);
 7639              		.loc 1 1625 0
 7640 0c2a A420     		movs	r0, #164
 7641 0c2c FFF7FEFF 		bl	GetUARTMessageSlot
 7642 0c30 C7F82C01 		str	r0, [r7, #300]
1626:.\DisplayBLL.c ****             if(puartdisp)
 7643              		.loc 1 1626 0
 7644 0c34 D7F82C31 		ldr	r3, [r7, #300]
 7645 0c38 002B     		cmp	r3, #0
 7646 0c3a 6ED0     		beq	.L238
 7647              	.LBB96:
1627:.\DisplayBLL.c ****             {
ARM GAS  C:\Users\RECEPC~1\AppData\Local\Temp\ccNQpeOs.s 			page 165


1628:.\DisplayBLL.c ****                 char8 txtbuffer[0x28];
1629:.\DisplayBLL.c ****                 memset(txtbuffer, 0x20, 0x28);
 7648              		.loc 1 1629 0
 7649 0c3c 07F10C03 		add	r3, r7, #12
 7650 0c40 1846     		mov	r0, r3
 7651 0c42 2021     		movs	r1, #32
 7652 0c44 2822     		movs	r2, #40
 7653 0c46 FFF7FEFF 		bl	memset
1630:.\DisplayBLL.c ****                 memcpy(puartdisp->_messagetx, txtbuffer, strlen(txtbuffer));
 7654              		.loc 1 1630 0
 7655 0c4a D7F82C31 		ldr	r3, [r7, #300]
 7656 0c4e 1C1D     		adds	r4, r3, #4
 7657 0c50 07F10C03 		add	r3, r7, #12
 7658 0c54 1846     		mov	r0, r3
 7659 0c56 FFF7FEFF 		bl	strlen
 7660 0c5a 0246     		mov	r2, r0
 7661 0c5c 07F10C03 		add	r3, r7, #12
 7662 0c60 2046     		mov	r0, r4
 7663 0c62 1946     		mov	r1, r3
 7664 0c64 FFF7FEFF 		bl	memcpy
1631:.\DisplayBLL.c ****                 if(_g_dispenserlayoutinfo._numpositions == 0x04)
 7665              		.loc 1 1631 0
 7666 0c68 0E4B     		ldr	r3, .L247+24
 7667 0c6a 9B78     		ldrb	r3, [r3, #2]	@ zero_extendqisi2
 7668 0c6c 042B     		cmp	r3, #4
 7669 0c6e 23D1     		bne	.L239
1632:.\DisplayBLL.c ****                     sprintf(txtbuffer, "Welcome to INSEPET GVR PRIME QUATTRO!  ");
 7670              		.loc 1 1632 0
 7671 0c70 07F10C03 		add	r3, r7, #12
 7672 0c74 0F4A     		ldr	r2, .L247+40
 7673 0c76 1C46     		mov	r4, r3
 7674 0c78 1546     		mov	r5, r2
 7675 0c7a 0FCD     		ldmia	r5!, {r0, r1, r2, r3}
 7676 0c7c 0FC4     		stmia	r4!, {r0, r1, r2, r3}
 7677 0c7e 0FCD     		ldmia	r5!, {r0, r1, r2, r3}
 7678 0c80 0FC4     		stmia	r4!, {r0, r1, r2, r3}
 7679 0c82 95E80300 		ldmia	r5, {r0, r1}
 7680 0c86 84E80300 		stmia	r4, {r0, r1}
 7681 0c8a 22E0     		b	.L240
 7682              	.L248:
 7683              		.align	2
 7684              	.L247:
 7685 0c8c 60000000 		.word	.LC0
 7686 0c90 30020000 		.word	.LC10
 7687 0c94 00000000 		.word	_g_homeanimarray
 7688 0c98 00000000 		.word	_g_display2
 7689 0c9c 00000000 		.word	_g_printerlayout
 7690 0ca0 68010000 		.word	.LC19
 7691 0ca4 00000000 		.word	_g_dispenserlayoutinfo
 7692 0ca8 8C010000 		.word	.LC20
 7693 0cac B4010000 		.word	.LC21
 7694 0cb0 00000000 		.word	_g_configured
 7695 0cb4 40020000 		.word	.LC22
 7696              	.L239:
1633:.\DisplayBLL.c ****                 else
1634:.\DisplayBLL.c ****                     sprintf(txtbuffer, "Welcome to INSEPET GVR PRIME/ENCORE DUPLA!   ");
 7697              		.loc 1 1634 0
ARM GAS  C:\Users\RECEPC~1\AppData\Local\Temp\ccNQpeOs.s 			page 166


 7698 0cb8 07F10C03 		add	r3, r7, #12
 7699 0cbc 1A4A     		ldr	r2, .L249
 7700 0cbe 1C46     		mov	r4, r3
 7701 0cc0 1546     		mov	r5, r2
 7702 0cc2 0FCD     		ldmia	r5!, {r0, r1, r2, r3}
 7703 0cc4 0FC4     		stmia	r4!, {r0, r1, r2, r3}
 7704 0cc6 0FCD     		ldmia	r5!, {r0, r1, r2, r3}
 7705 0cc8 0FC4     		stmia	r4!, {r0, r1, r2, r3}
 7706 0cca 95E80F00 		ldmia	r5, {r0, r1, r2, r3}
 7707 0cce 07C4     		stmia	r4!, {r0, r1, r2}
 7708 0cd0 2380     		strh	r3, [r4]	@ movhi
 7709              	.L240:
1635:.\DisplayBLL.c ****                     
1636:.\DisplayBLL.c ****                 puartdisp->_messagelength = DisplayOutputString(0x0A0, 0x1D0, puartdisp->_messagetx
 7710              		.loc 1 1636 0
 7711 0cd2 D7F82C31 		ldr	r3, [r7, #300]
 7712 0cd6 1D1D     		adds	r5, r3, #4
 7713 0cd8 07F10C03 		add	r3, r7, #12
 7714 0cdc 1846     		mov	r0, r3
 7715 0cde FFF7FEFF 		bl	strlen
 7716 0ce2 0346     		mov	r3, r0
 7717 0ce4 9BB2     		uxth	r3, r3
 7718 0ce6 07F10C04 		add	r4, r7, #12
 7719 0cea 0093     		str	r3, [sp]
 7720 0cec 01AA     		add	r2, sp, #4
 7721 0cee 07F58A73 		add	r3, r7, #276
 7722 0cf2 93E80300 		ldmia	r3, {r0, r1}
 7723 0cf6 82E80300 		stmia	r2, {r0, r1}
 7724 0cfa A020     		movs	r0, #160
 7725 0cfc 4FF4E871 		mov	r1, #464
 7726 0d00 2A46     		mov	r2, r5
 7727 0d02 2346     		mov	r3, r4
 7728 0d04 FFF7FEFF 		bl	DisplayOutputString
 7729 0d08 0346     		mov	r3, r0
 7730 0d0a 1A46     		mov	r2, r3
 7731 0d0c D7F82C31 		ldr	r3, [r7, #300]
 7732 0d10 5A80     		strh	r2, [r3, #2]	@ movhi
1637:.\DisplayBLL.c ****                 puartdisp->_messagestate = PENDING;
 7733              		.loc 1 1637 0
 7734 0d12 D7F82C31 		ldr	r3, [r7, #300]
 7735 0d16 C222     		movs	r2, #194
 7736 0d18 1A70     		strb	r2, [r3]
 7737              	.L238:
 7738              	.LBE96:
1638:.\DisplayBLL.c ****             }
1639:.\DisplayBLL.c ****             _g_configured[0x01] = true;
 7739              		.loc 1 1639 0
 7740 0d1a 044B     		ldr	r3, .L249+4
 7741 0d1c 0122     		movs	r2, #1
 7742 0d1e 5A70     		strb	r2, [r3, #1]
 7743              	.L187:
 7744              	.LBE83:
1640:.\DisplayBLL.c ****         }
1641:.\DisplayBLL.c **** 
1642:.\DisplayBLL.c ****     }
1643:.\DisplayBLL.c ****     
1644:.\DisplayBLL.c **** }
ARM GAS  C:\Users\RECEPC~1\AppData\Local\Temp\ccNQpeOs.s 			page 167


 7745              		.loc 1 1644 0
 7746 0d20 07F5A877 		add	r7, r7, #336
 7747              		.cfi_def_cfa_offset 16
 7748 0d24 BD46     		mov	sp, r7
 7749              		.cfi_def_cfa_register 13
 7750              		@ sp needed
 7751 0d26 B0BD     		pop	{r4, r5, r7, pc}
 7752              	.L250:
 7753              		.align	2
 7754              	.L249:
 7755 0d28 D8010000 		.word	.LC23
 7756 0d2c 00000000 		.word	_g_configured
 7757              		.cfi_endproc
 7758              	.LFE87:
 7759              		.size	DisplayUpdateHomeAnimation, .-DisplayUpdateHomeAnimation
 7760              		.section	.text.InitiateUpdateDateTime,"ax",%progbits
 7761              		.align	2
 7762              		.global	InitiateUpdateDateTime
 7763              		.thumb
 7764              		.thumb_func
 7765              		.type	InitiateUpdateDateTime, %function
 7766              	InitiateUpdateDateTime:
 7767              	.LFB88:
1645:.\DisplayBLL.c **** 
1646:.\DisplayBLL.c **** void InitiateUpdateDateTime(void *pparam)
1647:.\DisplayBLL.c **** {
 7768              		.loc 1 1647 0
 7769              		.cfi_startproc
 7770              		@ args = 0, pretend = 0, frame = 24
 7771              		@ frame_needed = 1, uses_anonymous_args = 0
 7772 0000 80B5     		push	{r7, lr}
 7773              		.cfi_def_cfa_offset 8
 7774              		.cfi_offset 7, -8
 7775              		.cfi_offset 14, -4
 7776 0002 86B0     		sub	sp, sp, #24
 7777              		.cfi_def_cfa_offset 32
 7778 0004 00AF     		add	r7, sp, #0
 7779              		.cfi_def_cfa_register 7
 7780 0006 7860     		str	r0, [r7, #4]
1648:.\DisplayBLL.c ****     PDISPLAYLAYOUTPTR pdisplay = (PDISPLAYLAYOUTPTR)pparam;
 7781              		.loc 1 1648 0
 7782 0008 7B68     		ldr	r3, [r7, #4]
 7783 000a 7B61     		str	r3, [r7, #20]
1649:.\DisplayBLL.c ****     if(pdisplay->_dispid == DISPLAY1)
 7784              		.loc 1 1649 0
 7785 000c 7B69     		ldr	r3, [r7, #20]
 7786 000e 1B78     		ldrb	r3, [r3]	@ zero_extendqisi2
 7787 0010 002B     		cmp	r3, #0
 7788 0012 20D1     		bne	.L252
 7789              	.LBB97:
1650:.\DisplayBLL.c ****     {
1651:.\DisplayBLL.c ****         PSINKMESSAGEPTR psinkmsg = AllocateMessageSlotConditional(DISPLAY1_UPDATE_DATETIME);
 7790              		.loc 1 1651 0
 7791 0014 2120     		movs	r0, #33
 7792 0016 FFF7FEFF 		bl	AllocateMessageSlotConditional
 7793 001a 3861     		str	r0, [r7, #16]
1652:.\DisplayBLL.c ****         if(psinkmsg)
ARM GAS  C:\Users\RECEPC~1\AppData\Local\Temp\ccNQpeOs.s 			page 168


 7794              		.loc 1 1652 0
 7795 001c 3B69     		ldr	r3, [r7, #16]
 7796 001e 002B     		cmp	r3, #0
 7797 0020 18D0     		beq	.L253
1653:.\DisplayBLL.c ****         {
1654:.\DisplayBLL.c ****             pdisplay->_pdata = psinkmsg;
 7798              		.loc 1 1654 0
 7799 0022 7B69     		ldr	r3, [r7, #20]
 7800 0024 3A69     		ldr	r2, [r7, #16]
 7801 0026 5A63     		str	r2, [r3, #52]
1655:.\DisplayBLL.c ****             psinkmsg->_pdata = pdisplay;
 7802              		.loc 1 1655 0
 7803 0028 3B69     		ldr	r3, [r7, #16]
 7804 002a 7A69     		ldr	r2, [r7, #20]
 7805 002c C3F89021 		str	r2, [r3, #400]
1656:.\DisplayBLL.c ****             psinkmsg->Callback = DrawDateTime;
 7806              		.loc 1 1656 0
 7807 0030 3B69     		ldr	r3, [r7, #16]
 7808 0032 1C4A     		ldr	r2, .L255
 7809 0034 C3F89421 		str	r2, [r3, #404]
1657:.\DisplayBLL.c ****             psinkmsg->_messageid = DISPLAY1_UPDATE_DATETIME;
 7810              		.loc 1 1657 0
 7811 0038 3B69     		ldr	r3, [r7, #16]
 7812 003a 2122     		movs	r2, #33
 7813 003c 5A70     		strb	r2, [r3, #1]
1658:.\DisplayBLL.c ****             psinkmsg->_messagetype = FIRSTFOUNDFOREVER;
 7814              		.loc 1 1658 0
 7815 003e 3B69     		ldr	r3, [r7, #16]
 7816 0040 0622     		movs	r2, #6
 7817 0042 9A70     		strb	r2, [r3, #2]
1659:.\DisplayBLL.c ****             psinkmsg->_messagetimeoutlimit = _SINK_TIMEOUT_1S_;
 7818              		.loc 1 1659 0
 7819 0044 3B69     		ldr	r3, [r7, #16]
 7820 0046 4FF47A72 		mov	r2, #1000
 7821 004a 5A81     		strh	r2, [r3, #10]	@ movhi
1660:.\DisplayBLL.c ****             psinkmsg->_messagestate = SINK_BUSY;
 7822              		.loc 1 1660 0
 7823 004c 3B69     		ldr	r3, [r7, #16]
 7824 004e 0322     		movs	r2, #3
 7825 0050 DA70     		strb	r2, [r3, #3]
 7826              	.LBE97:
 7827 0052 23E0     		b	.L251
 7828              	.L253:
 7829 0054 22E0     		b	.L251
 7830              	.L252:
1661:.\DisplayBLL.c ****         }
1662:.\DisplayBLL.c ****     }
1663:.\DisplayBLL.c ****     else if(pdisplay->_dispid == DISPLAY2)
 7831              		.loc 1 1663 0
 7832 0056 7B69     		ldr	r3, [r7, #20]
 7833 0058 1B78     		ldrb	r3, [r3]	@ zero_extendqisi2
 7834 005a 012B     		cmp	r3, #1
 7835 005c 1ED1     		bne	.L251
 7836              	.LBB98:
1664:.\DisplayBLL.c ****     {
1665:.\DisplayBLL.c ****         PSINKMESSAGEPTR psinkmsg = AllocateMessageSlotConditional(DISPLAY2_UPDATE_DATETIME);
 7837              		.loc 1 1665 0
ARM GAS  C:\Users\RECEPC~1\AppData\Local\Temp\ccNQpeOs.s 			page 169


 7838 005e 2520     		movs	r0, #37
 7839 0060 FFF7FEFF 		bl	AllocateMessageSlotConditional
 7840 0064 F860     		str	r0, [r7, #12]
1666:.\DisplayBLL.c ****         if(psinkmsg)
 7841              		.loc 1 1666 0
 7842 0066 FB68     		ldr	r3, [r7, #12]
 7843 0068 002B     		cmp	r3, #0
 7844 006a 17D0     		beq	.L251
1667:.\DisplayBLL.c ****         {
1668:.\DisplayBLL.c ****             pdisplay->_pdata = psinkmsg;
 7845              		.loc 1 1668 0
 7846 006c 7B69     		ldr	r3, [r7, #20]
 7847 006e FA68     		ldr	r2, [r7, #12]
 7848 0070 5A63     		str	r2, [r3, #52]
1669:.\DisplayBLL.c ****             psinkmsg->_pdata = pdisplay;
 7849              		.loc 1 1669 0
 7850 0072 FB68     		ldr	r3, [r7, #12]
 7851 0074 7A69     		ldr	r2, [r7, #20]
 7852 0076 C3F89021 		str	r2, [r3, #400]
1670:.\DisplayBLL.c ****             psinkmsg->Callback = DrawDateTime;
 7853              		.loc 1 1670 0
 7854 007a FB68     		ldr	r3, [r7, #12]
 7855 007c 094A     		ldr	r2, .L255
 7856 007e C3F89421 		str	r2, [r3, #404]
1671:.\DisplayBLL.c ****             psinkmsg->_messageid = DISPLAY2_UPDATE_DATETIME;
 7857              		.loc 1 1671 0
 7858 0082 FB68     		ldr	r3, [r7, #12]
 7859 0084 2522     		movs	r2, #37
 7860 0086 5A70     		strb	r2, [r3, #1]
1672:.\DisplayBLL.c ****             psinkmsg->_messagetype = FIRSTFOUNDFOREVER;
 7861              		.loc 1 1672 0
 7862 0088 FB68     		ldr	r3, [r7, #12]
 7863 008a 0622     		movs	r2, #6
 7864 008c 9A70     		strb	r2, [r3, #2]
1673:.\DisplayBLL.c ****             psinkmsg->_messagetimeoutlimit = _SINK_TIMEOUT_1S_;
 7865              		.loc 1 1673 0
 7866 008e FB68     		ldr	r3, [r7, #12]
 7867 0090 4FF47A72 		mov	r2, #1000
 7868 0094 5A81     		strh	r2, [r3, #10]	@ movhi
1674:.\DisplayBLL.c ****             psinkmsg->_messagestate = SINK_BUSY;
 7869              		.loc 1 1674 0
 7870 0096 FB68     		ldr	r3, [r7, #12]
 7871 0098 0322     		movs	r2, #3
 7872 009a DA70     		strb	r2, [r3, #3]
 7873              	.L251:
 7874              	.LBE98:
1675:.\DisplayBLL.c ****         }
1676:.\DisplayBLL.c ****     }
1677:.\DisplayBLL.c **** }
 7875              		.loc 1 1677 0
 7876 009c 1837     		adds	r7, r7, #24
 7877              		.cfi_def_cfa_offset 8
 7878 009e BD46     		mov	sp, r7
 7879              		.cfi_def_cfa_register 13
 7880              		@ sp needed
 7881 00a0 80BD     		pop	{r7, pc}
 7882              	.L256:
ARM GAS  C:\Users\RECEPC~1\AppData\Local\Temp\ccNQpeOs.s 			page 170


 7883 00a2 00BF     		.align	2
 7884              	.L255:
 7885 00a4 00000000 		.word	DrawDateTime
 7886              		.cfi_endproc
 7887              	.LFE88:
 7888              		.size	InitiateUpdateDateTime, .-InitiateUpdateDateTime
 7889              		.section	.text.TerminateUpdateDateTime,"ax",%progbits
 7890              		.align	2
 7891              		.global	TerminateUpdateDateTime
 7892              		.thumb
 7893              		.thumb_func
 7894              		.type	TerminateUpdateDateTime, %function
 7895              	TerminateUpdateDateTime:
 7896              	.LFB89:
1678:.\DisplayBLL.c **** 
1679:.\DisplayBLL.c **** void TerminateUpdateDateTime(void *pparam)
1680:.\DisplayBLL.c **** {
 7897              		.loc 1 1680 0
 7898              		.cfi_startproc
 7899              		@ args = 0, pretend = 0, frame = 24
 7900              		@ frame_needed = 1, uses_anonymous_args = 0
 7901              		@ link register save eliminated.
 7902 0000 80B4     		push	{r7}
 7903              		.cfi_def_cfa_offset 4
 7904              		.cfi_offset 7, -4
 7905 0002 87B0     		sub	sp, sp, #28
 7906              		.cfi_def_cfa_offset 32
 7907 0004 00AF     		add	r7, sp, #0
 7908              		.cfi_def_cfa_register 7
 7909 0006 7860     		str	r0, [r7, #4]
1681:.\DisplayBLL.c ****     PDISPLAYLAYOUTPTR pdisplay = (PDISPLAYLAYOUTPTR)pparam;
 7910              		.loc 1 1681 0
 7911 0008 7B68     		ldr	r3, [r7, #4]
 7912 000a 7B61     		str	r3, [r7, #20]
1682:.\DisplayBLL.c ****     if(pdisplay->_dispid == DISPLAY1)
 7913              		.loc 1 1682 0
 7914 000c 7B69     		ldr	r3, [r7, #20]
 7915 000e 1B78     		ldrb	r3, [r3]	@ zero_extendqisi2
 7916 0010 002B     		cmp	r3, #0
 7917 0012 0AD1     		bne	.L258
 7918              	.LBB99:
1683:.\DisplayBLL.c ****     {
1684:.\DisplayBLL.c ****         PSINKMESSAGEPTR psinkmsg = (PSINKMESSAGEPTR)pdisplay->_pdata;
 7919              		.loc 1 1684 0
 7920 0014 7B69     		ldr	r3, [r7, #20]
 7921 0016 5B6B     		ldr	r3, [r3, #52]
 7922 0018 3B61     		str	r3, [r7, #16]
1685:.\DisplayBLL.c ****         if(psinkmsg)
 7923              		.loc 1 1685 0
 7924 001a 3B69     		ldr	r3, [r7, #16]
 7925 001c 002B     		cmp	r3, #0
 7926 001e 03D0     		beq	.L259
1686:.\DisplayBLL.c ****             psinkmsg->_selfkill = true;
 7927              		.loc 1 1686 0
 7928 0020 3B69     		ldr	r3, [r7, #16]
 7929 0022 0122     		movs	r2, #1
 7930 0024 1A70     		strb	r2, [r3]
ARM GAS  C:\Users\RECEPC~1\AppData\Local\Temp\ccNQpeOs.s 			page 171


 7931              	.LBE99:
 7932 0026 0DE0     		b	.L257
 7933              	.L259:
 7934 0028 0CE0     		b	.L257
 7935              	.L258:
1687:.\DisplayBLL.c ****     }
1688:.\DisplayBLL.c ****     else if(pdisplay->_dispid == DISPLAY2)
 7936              		.loc 1 1688 0
 7937 002a 7B69     		ldr	r3, [r7, #20]
 7938 002c 1B78     		ldrb	r3, [r3]	@ zero_extendqisi2
 7939 002e 012B     		cmp	r3, #1
 7940 0030 08D1     		bne	.L257
 7941              	.LBB100:
1689:.\DisplayBLL.c ****     {
1690:.\DisplayBLL.c ****         PSINKMESSAGEPTR psinkmsg = (PSINKMESSAGEPTR)pdisplay->_pdata;
 7942              		.loc 1 1690 0
 7943 0032 7B69     		ldr	r3, [r7, #20]
 7944 0034 5B6B     		ldr	r3, [r3, #52]
 7945 0036 FB60     		str	r3, [r7, #12]
1691:.\DisplayBLL.c ****         if(psinkmsg)
 7946              		.loc 1 1691 0
 7947 0038 FB68     		ldr	r3, [r7, #12]
 7948 003a 002B     		cmp	r3, #0
 7949 003c 02D0     		beq	.L257
1692:.\DisplayBLL.c ****             psinkmsg->_selfkill = true;
 7950              		.loc 1 1692 0
 7951 003e FB68     		ldr	r3, [r7, #12]
 7952 0040 0122     		movs	r2, #1
 7953 0042 1A70     		strb	r2, [r3]
 7954              	.L257:
 7955              	.LBE100:
1693:.\DisplayBLL.c ****     }
1694:.\DisplayBLL.c **** }
 7956              		.loc 1 1694 0
 7957 0044 1C37     		adds	r7, r7, #28
 7958              		.cfi_def_cfa_offset 4
 7959 0046 BD46     		mov	sp, r7
 7960              		.cfi_def_cfa_register 13
 7961              		@ sp needed
 7962 0048 5DF8047B 		ldr	r7, [sp], #4
 7963              		.cfi_restore 7
 7964              		.cfi_def_cfa_offset 0
 7965 004c 7047     		bx	lr
 7966              		.cfi_endproc
 7967              	.LFE89:
 7968              		.size	TerminateUpdateDateTime, .-TerminateUpdateDateTime
 7969 004e 00BF     		.section	.text.InitiateHomeAnimation,"ax",%progbits
 7970              		.align	2
 7971              		.global	InitiateHomeAnimation
 7972              		.thumb
 7973              		.thumb_func
 7974              		.type	InitiateHomeAnimation, %function
 7975              	InitiateHomeAnimation:
 7976              	.LFB90:
1695:.\DisplayBLL.c **** 
1696:.\DisplayBLL.c **** void InitiateHomeAnimation(void *pparam)
1697:.\DisplayBLL.c **** {
ARM GAS  C:\Users\RECEPC~1\AppData\Local\Temp\ccNQpeOs.s 			page 172


 7977              		.loc 1 1697 0
 7978              		.cfi_startproc
 7979              		@ args = 0, pretend = 0, frame = 24
 7980              		@ frame_needed = 1, uses_anonymous_args = 0
 7981 0000 80B5     		push	{r7, lr}
 7982              		.cfi_def_cfa_offset 8
 7983              		.cfi_offset 7, -8
 7984              		.cfi_offset 14, -4
 7985 0002 86B0     		sub	sp, sp, #24
 7986              		.cfi_def_cfa_offset 32
 7987 0004 00AF     		add	r7, sp, #0
 7988              		.cfi_def_cfa_register 7
 7989 0006 7860     		str	r0, [r7, #4]
1698:.\DisplayBLL.c ****     PDISPLAYLAYOUTPTR pdisplay = (PDISPLAYLAYOUTPTR)pparam;
 7990              		.loc 1 1698 0
 7991 0008 7B68     		ldr	r3, [r7, #4]
 7992 000a 7B61     		str	r3, [r7, #20]
1699:.\DisplayBLL.c ****     if(pdisplay->_dispid == DISPLAY1)
 7993              		.loc 1 1699 0
 7994 000c 7B69     		ldr	r3, [r7, #20]
 7995 000e 1B78     		ldrb	r3, [r3]	@ zero_extendqisi2
 7996 0010 002B     		cmp	r3, #0
 7997 0012 1ED1     		bne	.L262
 7998              	.LBB101:
1700:.\DisplayBLL.c ****     {
1701:.\DisplayBLL.c ****         PSINKMESSAGEPTR psinkmsg = AllocateMessageSlotConditional(DISPLAY1_ANIMATE_HOME);
 7999              		.loc 1 1701 0
 8000 0014 2220     		movs	r0, #34
 8001 0016 FFF7FEFF 		bl	AllocateMessageSlotConditional
 8002 001a 3861     		str	r0, [r7, #16]
1702:.\DisplayBLL.c ****         if(psinkmsg)
 8003              		.loc 1 1702 0
 8004 001c 3B69     		ldr	r3, [r7, #16]
 8005 001e 002B     		cmp	r3, #0
 8006 0020 16D0     		beq	.L263
1703:.\DisplayBLL.c ****         {
1704:.\DisplayBLL.c ****             _g_homeanimarray[DISPLAY1]._timeoutmultiplier = 0;
 8007              		.loc 1 1704 0
 8008 0022 1E4B     		ldr	r3, .L265
 8009 0024 0022     		movs	r2, #0
 8010 0026 9A70     		strb	r2, [r3, #2]
1705:.\DisplayBLL.c ****             
1706:.\DisplayBLL.c ****             pdisplay->_pdata = psinkmsg;
 8011              		.loc 1 1706 0
 8012 0028 7B69     		ldr	r3, [r7, #20]
 8013 002a 3A69     		ldr	r2, [r7, #16]
 8014 002c 5A63     		str	r2, [r3, #52]
1707:.\DisplayBLL.c ****             psinkmsg->_pdata = pdisplay;
 8015              		.loc 1 1707 0
 8016 002e 3B69     		ldr	r3, [r7, #16]
 8017 0030 7A69     		ldr	r2, [r7, #20]
 8018 0032 C3F89021 		str	r2, [r3, #400]
1708:.\DisplayBLL.c ****             psinkmsg->_messageid = DISPLAY1_ANIMATE_HOME;
 8019              		.loc 1 1708 0
 8020 0036 3B69     		ldr	r3, [r7, #16]
 8021 0038 2222     		movs	r2, #34
 8022 003a 5A70     		strb	r2, [r3, #1]
ARM GAS  C:\Users\RECEPC~1\AppData\Local\Temp\ccNQpeOs.s 			page 173


1709:.\DisplayBLL.c ****             psinkmsg->_messagetype = FIRSTFOUNDFOREVER;
 8023              		.loc 1 1709 0
 8024 003c 3B69     		ldr	r3, [r7, #16]
 8025 003e 0622     		movs	r2, #6
 8026 0040 9A70     		strb	r2, [r3, #2]
1710:.\DisplayBLL.c ****             psinkmsg->_messagetimeoutlimit = _SINK_TIMEOUT_100MS_;
 8027              		.loc 1 1710 0
 8028 0042 3B69     		ldr	r3, [r7, #16]
 8029 0044 6422     		movs	r2, #100
 8030 0046 5A81     		strh	r2, [r3, #10]	@ movhi
1711:.\DisplayBLL.c ****             psinkmsg->_messagestate = SINK_BUSY;
 8031              		.loc 1 1711 0
 8032 0048 3B69     		ldr	r3, [r7, #16]
 8033 004a 0322     		movs	r2, #3
 8034 004c DA70     		strb	r2, [r3, #3]
 8035              	.LBE101:
 8036 004e 21E0     		b	.L261
 8037              	.L263:
 8038 0050 20E0     		b	.L261
 8039              	.L262:
1712:.\DisplayBLL.c ****             
1713:.\DisplayBLL.c ****         }
1714:.\DisplayBLL.c ****     }
1715:.\DisplayBLL.c ****     else if(pdisplay->_dispid == DISPLAY2)
 8040              		.loc 1 1715 0
 8041 0052 7B69     		ldr	r3, [r7, #20]
 8042 0054 1B78     		ldrb	r3, [r3]	@ zero_extendqisi2
 8043 0056 012B     		cmp	r3, #1
 8044 0058 1CD1     		bne	.L261
 8045              	.LBB102:
1716:.\DisplayBLL.c ****     {
1717:.\DisplayBLL.c ****         PSINKMESSAGEPTR psinkmsg = AllocateMessageSlotConditional(DISPLAY2_ANIMATE_HOME);
 8046              		.loc 1 1717 0
 8047 005a 2620     		movs	r0, #38
 8048 005c FFF7FEFF 		bl	AllocateMessageSlotConditional
 8049 0060 F860     		str	r0, [r7, #12]
1718:.\DisplayBLL.c ****         if(psinkmsg)
 8050              		.loc 1 1718 0
 8051 0062 FB68     		ldr	r3, [r7, #12]
 8052 0064 002B     		cmp	r3, #0
 8053 0066 15D0     		beq	.L261
1719:.\DisplayBLL.c ****         {
1720:.\DisplayBLL.c ****             _g_homeanimarray[DISPLAY2]._timeoutmultiplier = 0;
 8054              		.loc 1 1720 0
 8055 0068 0C4B     		ldr	r3, .L265
 8056 006a 0022     		movs	r2, #0
 8057 006c 5A72     		strb	r2, [r3, #9]
1721:.\DisplayBLL.c ****             
1722:.\DisplayBLL.c ****             pdisplay->_pdata = psinkmsg;
 8058              		.loc 1 1722 0
 8059 006e 7B69     		ldr	r3, [r7, #20]
 8060 0070 FA68     		ldr	r2, [r7, #12]
 8061 0072 5A63     		str	r2, [r3, #52]
1723:.\DisplayBLL.c ****             psinkmsg->_pdata = pdisplay;
 8062              		.loc 1 1723 0
 8063 0074 FB68     		ldr	r3, [r7, #12]
 8064 0076 7A69     		ldr	r2, [r7, #20]
ARM GAS  C:\Users\RECEPC~1\AppData\Local\Temp\ccNQpeOs.s 			page 174


 8065 0078 C3F89021 		str	r2, [r3, #400]
1724:.\DisplayBLL.c ****             psinkmsg->_messageid = DISPLAY2_ANIMATE_HOME;
 8066              		.loc 1 1724 0
 8067 007c FB68     		ldr	r3, [r7, #12]
 8068 007e 2622     		movs	r2, #38
 8069 0080 5A70     		strb	r2, [r3, #1]
1725:.\DisplayBLL.c ****             psinkmsg->_messagetype = FIRSTFOUNDFOREVER;
 8070              		.loc 1 1725 0
 8071 0082 FB68     		ldr	r3, [r7, #12]
 8072 0084 0622     		movs	r2, #6
 8073 0086 9A70     		strb	r2, [r3, #2]
1726:.\DisplayBLL.c ****             psinkmsg->_messagetimeoutlimit = _SINK_TIMEOUT_100MS_;
 8074              		.loc 1 1726 0
 8075 0088 FB68     		ldr	r3, [r7, #12]
 8076 008a 6422     		movs	r2, #100
 8077 008c 5A81     		strh	r2, [r3, #10]	@ movhi
1727:.\DisplayBLL.c ****             psinkmsg->_messagestate = SINK_BUSY;
 8078              		.loc 1 1727 0
 8079 008e FB68     		ldr	r3, [r7, #12]
 8080 0090 0322     		movs	r2, #3
 8081 0092 DA70     		strb	r2, [r3, #3]
 8082              	.L261:
 8083              	.LBE102:
1728:.\DisplayBLL.c **** 
1729:.\DisplayBLL.c ****         }
1730:.\DisplayBLL.c ****     }
1731:.\DisplayBLL.c ****     //DrawHomeDateTime(pdisplay);
1732:.\DisplayBLL.c **** }
 8084              		.loc 1 1732 0
 8085 0094 1837     		adds	r7, r7, #24
 8086              		.cfi_def_cfa_offset 8
 8087 0096 BD46     		mov	sp, r7
 8088              		.cfi_def_cfa_register 13
 8089              		@ sp needed
 8090 0098 80BD     		pop	{r7, pc}
 8091              	.L266:
 8092 009a 00BF     		.align	2
 8093              	.L265:
 8094 009c 00000000 		.word	_g_homeanimarray
 8095              		.cfi_endproc
 8096              	.LFE90:
 8097              		.size	InitiateHomeAnimation, .-InitiateHomeAnimation
 8098              		.section	.text.DisplayUpdateDateTime,"ax",%progbits
 8099              		.align	2
 8100              		.global	DisplayUpdateDateTime
 8101              		.thumb
 8102              		.thumb_func
 8103              		.type	DisplayUpdateDateTime, %function
 8104              	DisplayUpdateDateTime:
 8105              	.LFB91:
1733:.\DisplayBLL.c **** 
1734:.\DisplayBLL.c **** void DisplayUpdateDateTime(void *pparam)
1735:.\DisplayBLL.c **** {
 8106              		.loc 1 1735 0
 8107              		.cfi_startproc
 8108              		@ args = 0, pretend = 0, frame = 16
 8109              		@ frame_needed = 1, uses_anonymous_args = 0
ARM GAS  C:\Users\RECEPC~1\AppData\Local\Temp\ccNQpeOs.s 			page 175


 8110 0000 80B5     		push	{r7, lr}
 8111              		.cfi_def_cfa_offset 8
 8112              		.cfi_offset 7, -8
 8113              		.cfi_offset 14, -4
 8114 0002 84B0     		sub	sp, sp, #16
 8115              		.cfi_def_cfa_offset 24
 8116 0004 00AF     		add	r7, sp, #0
 8117              		.cfi_def_cfa_register 7
 8118 0006 7860     		str	r0, [r7, #4]
1736:.\DisplayBLL.c ****     PSINKMESSAGEPTR psinkmsg = (PSINKMESSAGEPTR)pparam;
 8119              		.loc 1 1736 0
 8120 0008 7B68     		ldr	r3, [r7, #4]
 8121 000a FB60     		str	r3, [r7, #12]
1737:.\DisplayBLL.c ****     if(psinkmsg->Callback)
 8122              		.loc 1 1737 0
 8123 000c FB68     		ldr	r3, [r7, #12]
 8124 000e D3F89431 		ldr	r3, [r3, #404]
 8125 0012 002B     		cmp	r3, #0
 8126 0014 07D0     		beq	.L267
1738:.\DisplayBLL.c ****         psinkmsg->Callback(psinkmsg->_pdata);
 8127              		.loc 1 1738 0
 8128 0016 FB68     		ldr	r3, [r7, #12]
 8129 0018 D3F89431 		ldr	r3, [r3, #404]
 8130 001c FA68     		ldr	r2, [r7, #12]
 8131 001e D2F89021 		ldr	r2, [r2, #400]
 8132 0022 1046     		mov	r0, r2
 8133 0024 9847     		blx	r3
 8134              	.L267:
1739:.\DisplayBLL.c **** }
 8135              		.loc 1 1739 0
 8136 0026 1037     		adds	r7, r7, #16
 8137              		.cfi_def_cfa_offset 8
 8138 0028 BD46     		mov	sp, r7
 8139              		.cfi_def_cfa_register 13
 8140              		@ sp needed
 8141 002a 80BD     		pop	{r7, pc}
 8142              		.cfi_endproc
 8143              	.LFE91:
 8144              		.size	DisplayUpdateDateTime, .-DisplayUpdateDateTime
 8145              		.section	.text.TerminateHomeAnimation,"ax",%progbits
 8146              		.align	2
 8147              		.global	TerminateHomeAnimation
 8148              		.thumb
 8149              		.thumb_func
 8150              		.type	TerminateHomeAnimation, %function
 8151              	TerminateHomeAnimation:
 8152              	.LFB92:
1740:.\DisplayBLL.c **** 
1741:.\DisplayBLL.c **** void TerminateHomeAnimation(void *pparam)
1742:.\DisplayBLL.c **** {
 8153              		.loc 1 1742 0
 8154              		.cfi_startproc
 8155              		@ args = 0, pretend = 0, frame = 24
 8156              		@ frame_needed = 1, uses_anonymous_args = 0
 8157              		@ link register save eliminated.
 8158 0000 80B4     		push	{r7}
 8159              		.cfi_def_cfa_offset 4
ARM GAS  C:\Users\RECEPC~1\AppData\Local\Temp\ccNQpeOs.s 			page 176


 8160              		.cfi_offset 7, -4
 8161 0002 87B0     		sub	sp, sp, #28
 8162              		.cfi_def_cfa_offset 32
 8163 0004 00AF     		add	r7, sp, #0
 8164              		.cfi_def_cfa_register 7
 8165 0006 7860     		str	r0, [r7, #4]
1743:.\DisplayBLL.c ****     PDISPLAYLAYOUTPTR pdisplay = (PDISPLAYLAYOUTPTR)pparam;
 8166              		.loc 1 1743 0
 8167 0008 7B68     		ldr	r3, [r7, #4]
 8168 000a 7B61     		str	r3, [r7, #20]
1744:.\DisplayBLL.c ****     if(pdisplay->_dispid == DISPLAY1)
 8169              		.loc 1 1744 0
 8170 000c 7B69     		ldr	r3, [r7, #20]
 8171 000e 1B78     		ldrb	r3, [r3]	@ zero_extendqisi2
 8172 0010 002B     		cmp	r3, #0
 8173 0012 0AD1     		bne	.L270
 8174              	.LBB103:
1745:.\DisplayBLL.c ****     {
1746:.\DisplayBLL.c ****         PSINKMESSAGEPTR psinkmsg = (PSINKMESSAGEPTR)pdisplay->_pdata;
 8175              		.loc 1 1746 0
 8176 0014 7B69     		ldr	r3, [r7, #20]
 8177 0016 5B6B     		ldr	r3, [r3, #52]
 8178 0018 3B61     		str	r3, [r7, #16]
1747:.\DisplayBLL.c ****         if(psinkmsg)
 8179              		.loc 1 1747 0
 8180 001a 3B69     		ldr	r3, [r7, #16]
 8181 001c 002B     		cmp	r3, #0
 8182 001e 03D0     		beq	.L271
1748:.\DisplayBLL.c ****             psinkmsg->_selfkill = true;
 8183              		.loc 1 1748 0
 8184 0020 3B69     		ldr	r3, [r7, #16]
 8185 0022 0122     		movs	r2, #1
 8186 0024 1A70     		strb	r2, [r3]
 8187              	.LBE103:
 8188 0026 0DE0     		b	.L269
 8189              	.L271:
 8190 0028 0CE0     		b	.L269
 8191              	.L270:
1749:.\DisplayBLL.c ****     }
1750:.\DisplayBLL.c ****     else if(pdisplay->_dispid == DISPLAY2)
 8192              		.loc 1 1750 0
 8193 002a 7B69     		ldr	r3, [r7, #20]
 8194 002c 1B78     		ldrb	r3, [r3]	@ zero_extendqisi2
 8195 002e 012B     		cmp	r3, #1
 8196 0030 08D1     		bne	.L269
 8197              	.LBB104:
1751:.\DisplayBLL.c ****     {
1752:.\DisplayBLL.c ****         PSINKMESSAGEPTR psinkmsg = (PSINKMESSAGEPTR)pdisplay->_pdata;
 8198              		.loc 1 1752 0
 8199 0032 7B69     		ldr	r3, [r7, #20]
 8200 0034 5B6B     		ldr	r3, [r3, #52]
 8201 0036 FB60     		str	r3, [r7, #12]
1753:.\DisplayBLL.c ****         if(psinkmsg)
 8202              		.loc 1 1753 0
 8203 0038 FB68     		ldr	r3, [r7, #12]
 8204 003a 002B     		cmp	r3, #0
 8205 003c 02D0     		beq	.L269
ARM GAS  C:\Users\RECEPC~1\AppData\Local\Temp\ccNQpeOs.s 			page 177


1754:.\DisplayBLL.c ****             psinkmsg->_selfkill = true;
 8206              		.loc 1 1754 0
 8207 003e FB68     		ldr	r3, [r7, #12]
 8208 0040 0122     		movs	r2, #1
 8209 0042 1A70     		strb	r2, [r3]
 8210              	.L269:
 8211              	.LBE104:
1755:.\DisplayBLL.c ****     }
1756:.\DisplayBLL.c **** }
 8212              		.loc 1 1756 0
 8213 0044 1C37     		adds	r7, r7, #28
 8214              		.cfi_def_cfa_offset 4
 8215 0046 BD46     		mov	sp, r7
 8216              		.cfi_def_cfa_register 13
 8217              		@ sp needed
 8218 0048 5DF8047B 		ldr	r7, [sp], #4
 8219              		.cfi_restore 7
 8220              		.cfi_def_cfa_offset 0
 8221 004c 7047     		bx	lr
 8222              		.cfi_endproc
 8223              	.LFE92:
 8224              		.size	TerminateHomeAnimation, .-TerminateHomeAnimation
 8225 004e 00BF     		.section	.text.DisplayGenericValidator,"ax",%progbits
 8226              		.align	2
 8227              		.global	DisplayGenericValidator
 8228              		.thumb
 8229              		.thumb_func
 8230              		.type	DisplayGenericValidator, %function
 8231              	DisplayGenericValidator:
 8232              	.LFB93:
1757:.\DisplayBLL.c **** 
1758:.\DisplayBLL.c **** bool DisplayGenericValidator(LPVOID pparam)
1759:.\DisplayBLL.c **** {
 8233              		.loc 1 1759 0
 8234              		.cfi_startproc
 8235              		@ args = 0, pretend = 0, frame = 24
 8236              		@ frame_needed = 1, uses_anonymous_args = 0
 8237 0000 80B5     		push	{r7, lr}
 8238              		.cfi_def_cfa_offset 8
 8239              		.cfi_offset 7, -8
 8240              		.cfi_offset 14, -4
 8241 0002 86B0     		sub	sp, sp, #24
 8242              		.cfi_def_cfa_offset 32
 8243 0004 00AF     		add	r7, sp, #0
 8244              		.cfi_def_cfa_register 7
 8245 0006 7860     		str	r0, [r7, #4]
1760:.\DisplayBLL.c ****     bool retval = false;
 8246              		.loc 1 1760 0
 8247 0008 0023     		movs	r3, #0
 8248 000a FB75     		strb	r3, [r7, #23]
1761:.\DisplayBLL.c ****     PDISPLAYLAYOUTPTR pdisplay = (PDISPLAYLAYOUTPTR)pparam;
 8249              		.loc 1 1761 0
 8250 000c 7B68     		ldr	r3, [r7, #4]
 8251 000e 3B61     		str	r3, [r7, #16]
1762:.\DisplayBLL.c ****     PSINKMESSAGEPTR psinkmsg = (PSINKMESSAGEPTR)pdisplay->_psequesteredmessagesink;
 8252              		.loc 1 1762 0
 8253 0010 3B69     		ldr	r3, [r7, #16]
ARM GAS  C:\Users\RECEPC~1\AppData\Local\Temp\ccNQpeOs.s 			page 178


 8254 0012 1B6B     		ldr	r3, [r3, #48]
 8255 0014 FB60     		str	r3, [r7, #12]
1763:.\DisplayBLL.c **** 
1764:.\DisplayBLL.c ****     uint8 pumpindex = GetPumpIndexFromDisplay(pparam);
 8256              		.loc 1 1764 0
 8257 0016 7868     		ldr	r0, [r7, #4]
 8258 0018 FFF7FEFF 		bl	GetPumpIndexFromDisplay
 8259 001c 0346     		mov	r3, r0
 8260 001e FB72     		strb	r3, [r7, #11]
1765:.\DisplayBLL.c **** 
1766:.\DisplayBLL.c ****     //If the current position isn't locked, then perform the check based on the RF link activity
1767:.\DisplayBLL.c ****     //to detect whether it is in "Autonomous Mode".
1768:.\DisplayBLL.c ****     if(!_g_pumps[pumpindex]._positionlocked)
 8261              		.loc 1 1768 0
 8262 0020 FB7A     		ldrb	r3, [r7, #11]	@ zero_extendqisi2
 8263 0022 714A     		ldr	r2, .L283
 8264 0024 40F6C831 		movw	r1, #3016
 8265 0028 01FB03F3 		mul	r3, r1, r3
 8266 002c 1344     		add	r3, r3, r2
 8267 002e 0833     		adds	r3, r3, #8
 8268 0030 DB78     		ldrb	r3, [r3, #3]
 8269 0032 DBB2     		uxtb	r3, r3
 8270 0034 83F00103 		eor	r3, r3, #1
 8271 0038 DBB2     		uxtb	r3, r3
 8272 003a 002B     		cmp	r3, #0
 8273 003c 00F08480 		beq	.L274
1769:.\DisplayBLL.c ****     {
1770:.\DisplayBLL.c ****         //Means that there is no RF link so credit sales must be disabled
1771:.\DisplayBLL.c ****         #ifdef _ALLOW_CREDIT_SALE_TESTING_
1772:.\DisplayBLL.c ****         if(false)
1773:.\DisplayBLL.c ****         #endif
1774:.\DisplayBLL.c ****         #ifndef _ALLOW_CREDIT_SALE_TESTING_
1775:.\DisplayBLL.c ****         if(_g_rfautorun._state == RF_AUTONOMOUS)
 8274              		.loc 1 1775 0
 8275 0040 6A4B     		ldr	r3, .L283+4
 8276 0042 1B78     		ldrb	r3, [r3]
 8277 0044 DBB2     		uxtb	r3, r3
 8278 0046 012B     		cmp	r3, #1
 8279 0048 7DD1     		bne	.L275
1776:.\DisplayBLL.c ****         #endif
1777:.\DisplayBLL.c ****         {
1778:.\DisplayBLL.c ****             if(psinkmsg)
 8280              		.loc 1 1778 0
 8281 004a FB68     		ldr	r3, [r7, #12]
 8282 004c 002B     		cmp	r3, #0
 8283 004e 7AD0     		beq	.L275
1779:.\DisplayBLL.c ****             {
1780:.\DisplayBLL.c ****             
1781:.\DisplayBLL.c ****                 if(psinkmsg->_buffer[GetBufferIndexFromDisplayID(DISPLAY_SELECCIONE_POSICION)] != 0
 8284              		.loc 1 1781 0
 8285 0050 2E20     		movs	r0, #46
 8286 0052 FFF7FEFF 		bl	GetBufferIndexFromDisplayID
 8287 0056 0346     		mov	r3, r0
 8288 0058 1A46     		mov	r2, r3
 8289 005a FB68     		ldr	r3, [r7, #12]
 8290 005c 1344     		add	r3, r3, r2
 8291 005e 1B7B     		ldrb	r3, [r3, #12]	@ zero_extendqisi2
ARM GAS  C:\Users\RECEPC~1\AppData\Local\Temp\ccNQpeOs.s 			page 179


 8292 0060 002B     		cmp	r3, #0
 8293 0062 32D0     		beq	.L276
 8294              	.LBB105:
1782:.\DisplayBLL.c ****                 {
1783:.\DisplayBLL.c ****                     uint8 paymodel = psinkmsg->_buffer[GetBufferIndexFromDisplayID(DISPLAY_FORMA_PA
 8295              		.loc 1 1783 0
 8296 0064 0420     		movs	r0, #4
 8297 0066 FFF7FEFF 		bl	GetBufferIndexFromDisplayID
 8298 006a 0346     		mov	r3, r0
 8299 006c 1A46     		mov	r2, r3
 8300 006e FB68     		ldr	r3, [r7, #12]
 8301 0070 1344     		add	r3, r3, r2
 8302 0072 1B7B     		ldrb	r3, [r3, #12]
 8303 0074 BB72     		strb	r3, [r7, #10]
1784:.\DisplayBLL.c ****                     if(paymodel == 0x0E || (pdisplay->_pcurrflow->_scrid == DISPLAY_FORMA_PAGO_DESE
 8304              		.loc 1 1784 0
 8305 0076 BB7A     		ldrb	r3, [r7, #10]	@ zero_extendqisi2
 8306 0078 0E2B     		cmp	r3, #14
 8307 007a 08D0     		beq	.L277
 8308              		.loc 1 1784 0 is_stmt 0 discriminator 1
 8309 007c 3B69     		ldr	r3, [r7, #16]
 8310 007e 1B69     		ldr	r3, [r3, #16]
 8311 0080 1B78     		ldrb	r3, [r3]	@ zero_extendqisi2
 8312 0082 042B     		cmp	r3, #4
 8313 0084 21D1     		bne	.L276
 8314              		.loc 1 1784 0 discriminator 2
 8315 0086 3B69     		ldr	r3, [r7, #16]
 8316 0088 DB78     		ldrb	r3, [r3, #3]	@ zero_extendqisi2
 8317 008a 0E2B     		cmp	r3, #14
 8318 008c 1DD1     		bne	.L276
 8319              	.L277:
1785:.\DisplayBLL.c ****                     {
1786:.\DisplayBLL.c ****                         retval = true;
 8320              		.loc 1 1786 0 is_stmt 1
 8321 008e 0123     		movs	r3, #1
 8322 0090 FB75     		strb	r3, [r7, #23]
1787:.\DisplayBLL.c ****                         pdisplay->_timeoutscrid = pdisplay->_statechangescrid = DISPLAY_NULL;
 8323              		.loc 1 1787 0
 8324 0092 3B69     		ldr	r3, [r7, #16]
 8325 0094 FF22     		movs	r2, #255
 8326 0096 5A71     		strb	r2, [r3, #5]
 8327 0098 3B69     		ldr	r3, [r7, #16]
 8328 009a 5A79     		ldrb	r2, [r3, #5]	@ zero_extendqisi2
 8329 009c 3B69     		ldr	r3, [r7, #16]
 8330 009e 9A72     		strb	r2, [r3, #10]
1788:.\DisplayBLL.c ****                         psinkmsg->_buffer[GetBufferIndexFromDisplayID(DISPLAY_FORMA_PAGO_DESEADA)] 
 8331              		.loc 1 1788 0
 8332 00a0 0420     		movs	r0, #4
 8333 00a2 FFF7FEFF 		bl	GetBufferIndexFromDisplayID
 8334 00a6 0346     		mov	r3, r0
 8335 00a8 1A46     		mov	r2, r3
 8336 00aa FB68     		ldr	r3, [r7, #12]
 8337 00ac 1344     		add	r3, r3, r2
 8338 00ae 0022     		movs	r2, #0
 8339 00b0 1A73     		strb	r2, [r3, #12]
1789:.\DisplayBLL.c ****                         psinkmsg->_buffer[GetBufferIndexFromDisplayID(DISPLAY_SELECCIONE_POSICION)]
 8340              		.loc 1 1789 0
ARM GAS  C:\Users\RECEPC~1\AppData\Local\Temp\ccNQpeOs.s 			page 180


 8341 00b2 2E20     		movs	r0, #46
 8342 00b4 FFF7FEFF 		bl	GetBufferIndexFromDisplayID
 8343 00b8 0346     		mov	r3, r0
 8344 00ba 1A46     		mov	r2, r3
 8345 00bc FB68     		ldr	r3, [r7, #12]
 8346 00be 1344     		add	r3, r3, r2
 8347 00c0 0022     		movs	r2, #0
 8348 00c2 1A73     		strb	r2, [r3, #12]
1790:.\DisplayBLL.c ****                         pdisplay->_nextscrid = DISPLAY_OPERACION_CANCELADA;
 8349              		.loc 1 1790 0
 8350 00c4 3B69     		ldr	r3, [r7, #16]
 8351 00c6 8C22     		movs	r2, #140
 8352 00c8 9A70     		strb	r2, [r3, #2]
 8353              	.L276:
 8354              	.LBE105:
1791:.\DisplayBLL.c ****                     }
1792:.\DisplayBLL.c ****                 }
1793:.\DisplayBLL.c ****                 
1794:.\DisplayBLL.c ****                 if(psinkmsg->_buffer[GetBufferIndexFromDisplayID(DISPLAY_SELECCIONE_POSICION)] != 0
 8355              		.loc 1 1794 0
 8356 00ca 2E20     		movs	r0, #46
 8357 00cc FFF7FEFF 		bl	GetBufferIndexFromDisplayID
 8358 00d0 0346     		mov	r3, r0
 8359 00d2 1A46     		mov	r2, r3
 8360 00d4 FB68     		ldr	r3, [r7, #12]
 8361 00d6 1344     		add	r3, r3, r2
 8362 00d8 1B7B     		ldrb	r3, [r3, #12]	@ zero_extendqisi2
 8363 00da 002B     		cmp	r3, #0
 8364 00dc 33D0     		beq	.L275
 8365              	.LBB106:
1795:.\DisplayBLL.c ****                 {
1796:.\DisplayBLL.c ****                     uint8 paymodel = psinkmsg->_buffer[GetBufferIndexFromDisplayID(DISPLAY_OPERACIO
 8366              		.loc 1 1796 0
 8367 00de 8320     		movs	r0, #131
 8368 00e0 FFF7FEFF 		bl	GetBufferIndexFromDisplayID
 8369 00e4 0346     		mov	r3, r0
 8370 00e6 1A46     		mov	r2, r3
 8371 00e8 FB68     		ldr	r3, [r7, #12]
 8372 00ea 1344     		add	r3, r3, r2
 8373 00ec 1B7B     		ldrb	r3, [r3, #12]
 8374 00ee 7B72     		strb	r3, [r7, #9]
1797:.\DisplayBLL.c ****                     if(paymodel == 0xB5 || (pdisplay->_pcurrflow->_scrid == DISPLAY_OPERACIONES && 
 8375              		.loc 1 1797 0
 8376 00f0 7B7A     		ldrb	r3, [r7, #9]	@ zero_extendqisi2
 8377 00f2 B52B     		cmp	r3, #181
 8378 00f4 08D0     		beq	.L278
 8379              		.loc 1 1797 0 is_stmt 0 discriminator 1
 8380 00f6 3B69     		ldr	r3, [r7, #16]
 8381 00f8 1B69     		ldr	r3, [r3, #16]
 8382 00fa 1B78     		ldrb	r3, [r3]	@ zero_extendqisi2
 8383 00fc 832B     		cmp	r3, #131
 8384 00fe 22D1     		bne	.L275
 8385              		.loc 1 1797 0 discriminator 2
 8386 0100 3B69     		ldr	r3, [r7, #16]
 8387 0102 DB78     		ldrb	r3, [r3, #3]	@ zero_extendqisi2
 8388 0104 B52B     		cmp	r3, #181
 8389 0106 1ED1     		bne	.L275
ARM GAS  C:\Users\RECEPC~1\AppData\Local\Temp\ccNQpeOs.s 			page 181


 8390              	.L278:
1798:.\DisplayBLL.c ****                     {
1799:.\DisplayBLL.c ****                         retval = true;
 8391              		.loc 1 1799 0 is_stmt 1
 8392 0108 0123     		movs	r3, #1
 8393 010a FB75     		strb	r3, [r7, #23]
1800:.\DisplayBLL.c ****                         pdisplay->_timeoutscrid = pdisplay->_statechangescrid = DISPLAY_NULL;
 8394              		.loc 1 1800 0
 8395 010c 3B69     		ldr	r3, [r7, #16]
 8396 010e FF22     		movs	r2, #255
 8397 0110 5A71     		strb	r2, [r3, #5]
 8398 0112 3B69     		ldr	r3, [r7, #16]
 8399 0114 5A79     		ldrb	r2, [r3, #5]	@ zero_extendqisi2
 8400 0116 3B69     		ldr	r3, [r7, #16]
 8401 0118 9A72     		strb	r2, [r3, #10]
1801:.\DisplayBLL.c ****                         psinkmsg->_buffer[GetBufferIndexFromDisplayID(DISPLAY_OPERACIONES)] = 0x00;
 8402              		.loc 1 1801 0
 8403 011a 8320     		movs	r0, #131
 8404 011c FFF7FEFF 		bl	GetBufferIndexFromDisplayID
 8405 0120 0346     		mov	r3, r0
 8406 0122 1A46     		mov	r2, r3
 8407 0124 FB68     		ldr	r3, [r7, #12]
 8408 0126 1344     		add	r3, r3, r2
 8409 0128 0022     		movs	r2, #0
 8410 012a 1A73     		strb	r2, [r3, #12]
1802:.\DisplayBLL.c ****                         psinkmsg->_buffer[GetBufferIndexFromDisplayID(DISPLAY_SELECCIONE_POSICION)]
 8411              		.loc 1 1802 0
 8412 012c 2E20     		movs	r0, #46
 8413 012e FFF7FEFF 		bl	GetBufferIndexFromDisplayID
 8414 0132 0346     		mov	r3, r0
 8415 0134 1A46     		mov	r2, r3
 8416 0136 FB68     		ldr	r3, [r7, #12]
 8417 0138 1344     		add	r3, r3, r2
 8418 013a 0022     		movs	r2, #0
 8419 013c 1A73     		strb	r2, [r3, #12]
1803:.\DisplayBLL.c ****                         pdisplay->_nextscrid = DISPLAY_OPERACION_CANCELADA;
 8420              		.loc 1 1803 0
 8421 013e 3B69     		ldr	r3, [r7, #16]
 8422 0140 8C22     		movs	r2, #140
 8423 0142 9A70     		strb	r2, [r3, #2]
 8424              	.LBE106:
 8425 0144 4BE0     		b	.L279
 8426              	.L275:
 8427 0146 4AE0     		b	.L279
 8428              	.L274:
1804:.\DisplayBLL.c ****                     }
1805:.\DisplayBLL.c ****                 }
1806:.\DisplayBLL.c ****             }
1807:.\DisplayBLL.c ****         }
1808:.\DisplayBLL.c ****         
1809:.\DisplayBLL.c ****     }
1810:.\DisplayBLL.c ****     else
1811:.\DisplayBLL.c ****     {
1812:.\DisplayBLL.c ****         if(psinkmsg)
 8429              		.loc 1 1812 0
 8430 0148 FB68     		ldr	r3, [r7, #12]
 8431 014a 002B     		cmp	r3, #0
ARM GAS  C:\Users\RECEPC~1\AppData\Local\Temp\ccNQpeOs.s 			page 182


 8432 014c 47D0     		beq	.L279
1813:.\DisplayBLL.c ****             if(psinkmsg->_buffer[GetBufferIndexFromDisplayID(DISPLAY_SELECCIONE_POSICION)] != 0x00)
 8433              		.loc 1 1813 0
 8434 014e 2E20     		movs	r0, #46
 8435 0150 FFF7FEFF 		bl	GetBufferIndexFromDisplayID
 8436 0154 0346     		mov	r3, r0
 8437 0156 1A46     		mov	r2, r3
 8438 0158 FB68     		ldr	r3, [r7, #12]
 8439 015a 1344     		add	r3, r3, r2
 8440 015c 1B7B     		ldrb	r3, [r3, #12]	@ zero_extendqisi2
 8441 015e 002B     		cmp	r3, #0
 8442 0160 3DD0     		beq	.L279
 8443              	.LBB107:
1814:.\DisplayBLL.c ****             {
1815:.\DisplayBLL.c ****                 uint8 paymodel = psinkmsg->_buffer[GetBufferIndexFromDisplayID(DISPLAY_FORMA_PAGO_D
 8444              		.loc 1 1815 0
 8445 0162 0420     		movs	r0, #4
 8446 0164 FFF7FEFF 		bl	GetBufferIndexFromDisplayID
 8447 0168 0346     		mov	r3, r0
 8448 016a 1A46     		mov	r2, r3
 8449 016c FB68     		ldr	r3, [r7, #12]
 8450 016e 1344     		add	r3, r3, r2
 8451 0170 1B7B     		ldrb	r3, [r3, #12]
 8452 0172 3B72     		strb	r3, [r7, #8]
1816:.\DisplayBLL.c ****                 if((paymodel != 0x45 && paymodel != 0x00) || (pdisplay->_pcurrflow->_scrid == DISPL
 8453              		.loc 1 1816 0
 8454 0174 3B7A     		ldrb	r3, [r7, #8]	@ zero_extendqisi2
 8455 0176 452B     		cmp	r3, #69
 8456 0178 02D0     		beq	.L280
 8457              		.loc 1 1816 0 is_stmt 0 discriminator 1
 8458 017a 3B7A     		ldrb	r3, [r7, #8]	@ zero_extendqisi2
 8459 017c 002B     		cmp	r3, #0
 8460 017e 08D1     		bne	.L281
 8461              	.L280:
 8462              		.loc 1 1816 0 discriminator 3
 8463 0180 3B69     		ldr	r3, [r7, #16]
 8464 0182 1B69     		ldr	r3, [r3, #16]
 8465 0184 1B78     		ldrb	r3, [r3]	@ zero_extendqisi2
 8466 0186 042B     		cmp	r3, #4
 8467 0188 29D1     		bne	.L279
 8468              		.loc 1 1816 0 discriminator 4
 8469 018a 3B69     		ldr	r3, [r7, #16]
 8470 018c DB78     		ldrb	r3, [r3, #3]	@ zero_extendqisi2
 8471 018e 452B     		cmp	r3, #69
 8472 0190 25D0     		beq	.L279
 8473              	.L281:
1817:.\DisplayBLL.c ****                 {
1818:.\DisplayBLL.c ****                     retval = _g_pumps[pumpindex]._positionlocked;
 8474              		.loc 1 1818 0 is_stmt 1
 8475 0192 FB7A     		ldrb	r3, [r7, #11]	@ zero_extendqisi2
 8476 0194 144A     		ldr	r2, .L283
 8477 0196 40F6C831 		movw	r1, #3016
 8478 019a 01FB03F3 		mul	r3, r1, r3
 8479 019e 1344     		add	r3, r3, r2
 8480 01a0 0833     		adds	r3, r3, #8
 8481 01a2 DB78     		ldrb	r3, [r3, #3]
 8482 01a4 FB75     		strb	r3, [r7, #23]
ARM GAS  C:\Users\RECEPC~1\AppData\Local\Temp\ccNQpeOs.s 			page 183


1819:.\DisplayBLL.c ****                     pdisplay->_timeoutscrid = pdisplay->_statechangescrid = DISPLAY_NULL;
 8483              		.loc 1 1819 0
 8484 01a6 3B69     		ldr	r3, [r7, #16]
 8485 01a8 FF22     		movs	r2, #255
 8486 01aa 5A71     		strb	r2, [r3, #5]
 8487 01ac 3B69     		ldr	r3, [r7, #16]
 8488 01ae 5A79     		ldrb	r2, [r3, #5]	@ zero_extendqisi2
 8489 01b0 3B69     		ldr	r3, [r7, #16]
 8490 01b2 9A72     		strb	r2, [r3, #10]
1820:.\DisplayBLL.c ****                     psinkmsg->_buffer[GetBufferIndexFromDisplayID(DISPLAY_FORMA_PAGO_DESEADA)] = 0x
 8491              		.loc 1 1820 0
 8492 01b4 0420     		movs	r0, #4
 8493 01b6 FFF7FEFF 		bl	GetBufferIndexFromDisplayID
 8494 01ba 0346     		mov	r3, r0
 8495 01bc 1A46     		mov	r2, r3
 8496 01be FB68     		ldr	r3, [r7, #12]
 8497 01c0 1344     		add	r3, r3, r2
 8498 01c2 0022     		movs	r2, #0
 8499 01c4 1A73     		strb	r2, [r3, #12]
1821:.\DisplayBLL.c ****                     psinkmsg->_buffer[GetBufferIndexFromDisplayID(DISPLAY_SELECCIONE_POSICION)] = 0
 8500              		.loc 1 1821 0
 8501 01c6 2E20     		movs	r0, #46
 8502 01c8 FFF7FEFF 		bl	GetBufferIndexFromDisplayID
 8503 01cc 0346     		mov	r3, r0
 8504 01ce 1A46     		mov	r2, r3
 8505 01d0 FB68     		ldr	r3, [r7, #12]
 8506 01d2 1344     		add	r3, r3, r2
 8507 01d4 0022     		movs	r2, #0
 8508 01d6 1A73     		strb	r2, [r3, #12]
1822:.\DisplayBLL.c ****                     pdisplay->_nextscrid = DISPLAY_CANCELADO_X_PC;
 8509              		.loc 1 1822 0
 8510 01d8 3B69     		ldr	r3, [r7, #16]
 8511 01da 2B22     		movs	r2, #43
 8512 01dc 9A70     		strb	r2, [r3, #2]
 8513              	.L279:
 8514              	.LBE107:
1823:.\DisplayBLL.c ****                 }
1824:.\DisplayBLL.c ****             }
1825:.\DisplayBLL.c ****     }
1826:.\DisplayBLL.c ****         
1827:.\DisplayBLL.c ****     return retval;
 8515              		.loc 1 1827 0
 8516 01de FB7D     		ldrb	r3, [r7, #23]	@ zero_extendqisi2
1828:.\DisplayBLL.c ****     
1829:.\DisplayBLL.c **** }
 8517              		.loc 1 1829 0
 8518 01e0 1846     		mov	r0, r3
 8519 01e2 1837     		adds	r7, r7, #24
 8520              		.cfi_def_cfa_offset 8
 8521 01e4 BD46     		mov	sp, r7
 8522              		.cfi_def_cfa_register 13
 8523              		@ sp needed
 8524 01e6 80BD     		pop	{r7, pc}
 8525              	.L284:
 8526              		.align	2
 8527              	.L283:
 8528 01e8 00000000 		.word	_g_pumps
ARM GAS  C:\Users\RECEPC~1\AppData\Local\Temp\ccNQpeOs.s 			page 184


 8529 01ec 00000000 		.word	_g_rfautorun
 8530              		.cfi_endproc
 8531              	.LFE93:
 8532              		.size	DisplayGenericValidator, .-DisplayGenericValidator
 8533              		.section	.text.PrintersWorking,"ax",%progbits
 8534              		.align	2
 8535              		.global	PrintersWorking
 8536              		.thumb
 8537              		.thumb_func
 8538              		.type	PrintersWorking, %function
 8539              	PrintersWorking:
 8540              	.LFB94:
1830:.\DisplayBLL.c **** 
1831:.\DisplayBLL.c **** void PrintersWorking(void *pparam)
1832:.\DisplayBLL.c **** {
 8541              		.loc 1 1832 0
 8542              		.cfi_startproc
 8543              		@ args = 0, pretend = 0, frame = 16
 8544              		@ frame_needed = 1, uses_anonymous_args = 0
 8545 0000 80B5     		push	{r7, lr}
 8546              		.cfi_def_cfa_offset 8
 8547              		.cfi_offset 7, -8
 8548              		.cfi_offset 14, -4
 8549 0002 84B0     		sub	sp, sp, #16
 8550              		.cfi_def_cfa_offset 24
 8551 0004 00AF     		add	r7, sp, #0
 8552              		.cfi_def_cfa_register 7
 8553 0006 7860     		str	r0, [r7, #4]
1833:.\DisplayBLL.c ****     PDISPLAYLAYOUTPTR pdisplay = (PDISPLAYLAYOUTPTR)pparam;
 8554              		.loc 1 1833 0
 8555 0008 7B68     		ldr	r3, [r7, #4]
 8556 000a FB60     		str	r3, [r7, #12]
1834:.\DisplayBLL.c ****     //Entering here means that both printers are ok
1835:.\DisplayBLL.c ****     if(pdisplay->_currscrcode == 0x39)
 8557              		.loc 1 1835 0
 8558 000c FB68     		ldr	r3, [r7, #12]
 8559 000e DB78     		ldrb	r3, [r3, #3]	@ zero_extendqisi2
 8560 0010 392B     		cmp	r3, #57
 8561 0012 21D1     		bne	.L285
1836:.\DisplayBLL.c ****     {
1837:.\DisplayBLL.c ****         //This is the default printer port allocation
1838:.\DisplayBLL.c ****         _g_printerlayout._printerportside1 = PRINTER11_JOB;
 8562              		.loc 1 1838 0
 8563 0014 124B     		ldr	r3, .L287
 8564 0016 1622     		movs	r2, #22
 8565 0018 1A70     		strb	r2, [r3]
1839:.\DisplayBLL.c ****         _g_printerlayout._printerportside2 = PRINTER21_JOB;
 8566              		.loc 1 1839 0
 8567 001a 114B     		ldr	r3, .L287
 8568 001c 1822     		movs	r2, #24
 8569 001e 5A70     		strb	r2, [r3, #1]
1840:.\DisplayBLL.c ****         
1841:.\DisplayBLL.c ****         I2CBusLock();
 8570              		.loc 1 1841 0
 8571 0020 FFF7FEFF 		bl	I2CBusLock
1842:.\DisplayBLL.c ****         ClearEepromBuffer();
 8572              		.loc 1 1842 0
ARM GAS  C:\Users\RECEPC~1\AppData\Local\Temp\ccNQpeOs.s 			page 185


 8573 0024 FFF7FEFF 		bl	ClearEepromBuffer
1843:.\DisplayBLL.c ****         LoadEepromPage(EEPROM_CONFIGURATION_PAGE7);
 8574              		.loc 1 1843 0
 8575 0028 4FF4E070 		mov	r0, #448
 8576 002c FFF7FEFF 		bl	LoadEepromPage
1844:.\DisplayBLL.c ****         //Dispenser Pumps Offset is stored at position 0x09 in this memory area (see Eeprom.h)
1845:.\DisplayBLL.c ****         //Printer port #1
1846:.\DisplayBLL.c ****         GetEepromBuffer()[0x0B] = _g_printerlayout._printerportside1;
 8577              		.loc 1 1846 0
 8578 0030 FFF7FEFF 		bl	GetEepromBuffer
 8579 0034 0346     		mov	r3, r0
 8580 0036 0B33     		adds	r3, r3, #11
 8581 0038 094A     		ldr	r2, .L287
 8582 003a 1278     		ldrb	r2, [r2]	@ zero_extendqisi2
 8583 003c 1A70     		strb	r2, [r3]
1847:.\DisplayBLL.c ****         //Printer port #2
1848:.\DisplayBLL.c ****         GetEepromBuffer()[0x0C] = _g_printerlayout._printerportside2;
 8584              		.loc 1 1848 0
 8585 003e FFF7FEFF 		bl	GetEepromBuffer
 8586 0042 0346     		mov	r3, r0
 8587 0044 0C33     		adds	r3, r3, #12
 8588 0046 064A     		ldr	r2, .L287
 8589 0048 5278     		ldrb	r2, [r2, #1]	@ zero_extendqisi2
 8590 004a 1A70     		strb	r2, [r3]
1849:.\DisplayBLL.c ****         StoreEepromPage(EEPROM_CONFIGURATION_PAGE7);
 8591              		.loc 1 1849 0
 8592 004c 4FF4E070 		mov	r0, #448
 8593 0050 FFF7FEFF 		bl	StoreEepromPage
1850:.\DisplayBLL.c ****         I2CBusUnlock();
 8594              		.loc 1 1850 0
 8595 0054 FFF7FEFF 		bl	I2CBusUnlock
 8596              	.L285:
1851:.\DisplayBLL.c ****     }
1852:.\DisplayBLL.c **** }
 8597              		.loc 1 1852 0
 8598 0058 1037     		adds	r7, r7, #16
 8599              		.cfi_def_cfa_offset 8
 8600 005a BD46     		mov	sp, r7
 8601              		.cfi_def_cfa_register 13
 8602              		@ sp needed
 8603 005c 80BD     		pop	{r7, pc}
 8604              	.L288:
 8605 005e 00BF     		.align	2
 8606              	.L287:
 8607 0060 00000000 		.word	_g_printerlayout
 8608              		.cfi_endproc
 8609              	.LFE94:
 8610              		.size	PrintersWorking, .-PrintersWorking
 8611              		.section	.text.EitherPrinterWorking,"ax",%progbits
 8612              		.align	2
 8613              		.global	EitherPrinterWorking
 8614              		.thumb
 8615              		.thumb_func
 8616              		.type	EitherPrinterWorking, %function
 8617              	EitherPrinterWorking:
 8618              	.LFB95:
1853:.\DisplayBLL.c **** 
ARM GAS  C:\Users\RECEPC~1\AppData\Local\Temp\ccNQpeOs.s 			page 186


1854:.\DisplayBLL.c **** void EitherPrinterWorking(void *pparam)
1855:.\DisplayBLL.c **** {
 8619              		.loc 1 1855 0
 8620              		.cfi_startproc
 8621              		@ args = 0, pretend = 0, frame = 16
 8622              		@ frame_needed = 1, uses_anonymous_args = 0
 8623 0000 80B5     		push	{r7, lr}
 8624              		.cfi_def_cfa_offset 8
 8625              		.cfi_offset 7, -8
 8626              		.cfi_offset 14, -4
 8627 0002 84B0     		sub	sp, sp, #16
 8628              		.cfi_def_cfa_offset 24
 8629 0004 00AF     		add	r7, sp, #0
 8630              		.cfi_def_cfa_register 7
 8631 0006 7860     		str	r0, [r7, #4]
1856:.\DisplayBLL.c ****     PDISPLAYLAYOUTPTR pdisplay = (PDISPLAYLAYOUTPTR)pparam;
 8632              		.loc 1 1856 0
 8633 0008 7B68     		ldr	r3, [r7, #4]
 8634 000a FB60     		str	r3, [r7, #12]
1857:.\DisplayBLL.c ****     switch(pdisplay->_currscrcode)
 8635              		.loc 1 1857 0
 8636 000c FB68     		ldr	r3, [r7, #12]
 8637 000e DB78     		ldrb	r3, [r3, #3]	@ zero_extendqisi2
 8638 0010 8C2B     		cmp	r3, #140
 8639 0012 02D0     		beq	.L291
 8640 0014 8D2B     		cmp	r3, #141
 8641 0016 07D0     		beq	.L292
 8642 0018 0DE0     		b	.L290
 8643              	.L291:
1858:.\DisplayBLL.c ****     {
1859:.\DisplayBLL.c ****         case 0x8C://Printer #1 not working, then redirect printer jobs to printer #2
1860:.\DisplayBLL.c ****         {
1861:.\DisplayBLL.c ****             _g_printerlayout._printerportside1 = PRINTER21_JOB;
 8644              		.loc 1 1861 0
 8645 001a 164B     		ldr	r3, .L293
 8646 001c 1822     		movs	r2, #24
 8647 001e 1A70     		strb	r2, [r3]
1862:.\DisplayBLL.c ****             _g_printerlayout._printerportside2 = PRINTER21_JOB;
 8648              		.loc 1 1862 0
 8649 0020 144B     		ldr	r3, .L293
 8650 0022 1822     		movs	r2, #24
 8651 0024 5A70     		strb	r2, [r3, #1]
1863:.\DisplayBLL.c ****             break;
 8652              		.loc 1 1863 0
 8653 0026 06E0     		b	.L290
 8654              	.L292:
1864:.\DisplayBLL.c ****         }
1865:.\DisplayBLL.c ****         case 0x8D://Printer #2 not working, then redirect printer jobs to printer #1
1866:.\DisplayBLL.c ****         {
1867:.\DisplayBLL.c ****             _g_printerlayout._printerportside1 = PRINTER11_JOB;
 8655              		.loc 1 1867 0
 8656 0028 124B     		ldr	r3, .L293
 8657 002a 1622     		movs	r2, #22
 8658 002c 1A70     		strb	r2, [r3]
1868:.\DisplayBLL.c ****             _g_printerlayout._printerportside2 = PRINTER11_JOB;
 8659              		.loc 1 1868 0
 8660 002e 114B     		ldr	r3, .L293
ARM GAS  C:\Users\RECEPC~1\AppData\Local\Temp\ccNQpeOs.s 			page 187


 8661 0030 1622     		movs	r2, #22
 8662 0032 5A70     		strb	r2, [r3, #1]
1869:.\DisplayBLL.c ****             break;
 8663              		.loc 1 1869 0
 8664 0034 00BF     		nop
 8665              	.L290:
1870:.\DisplayBLL.c ****         }
1871:.\DisplayBLL.c ****     }
1872:.\DisplayBLL.c ****     I2CBusLock();
 8666              		.loc 1 1872 0
 8667 0036 FFF7FEFF 		bl	I2CBusLock
1873:.\DisplayBLL.c ****     ClearEepromBuffer();
 8668              		.loc 1 1873 0
 8669 003a FFF7FEFF 		bl	ClearEepromBuffer
1874:.\DisplayBLL.c ****     LoadEepromPage(EEPROM_CONFIGURATION_PAGE7);
 8670              		.loc 1 1874 0
 8671 003e 4FF4E070 		mov	r0, #448
 8672 0042 FFF7FEFF 		bl	LoadEepromPage
1875:.\DisplayBLL.c ****     //Dispenser Pumps Offset is stored at position 0x09 in this memory area (see Eeprom.h)
1876:.\DisplayBLL.c ****     //Printer port #1
1877:.\DisplayBLL.c ****     GetEepromBuffer()[0x0B] = _g_printerlayout._printerportside1;
 8673              		.loc 1 1877 0
 8674 0046 FFF7FEFF 		bl	GetEepromBuffer
 8675 004a 0346     		mov	r3, r0
 8676 004c 0B33     		adds	r3, r3, #11
 8677 004e 094A     		ldr	r2, .L293
 8678 0050 1278     		ldrb	r2, [r2]	@ zero_extendqisi2
 8679 0052 1A70     		strb	r2, [r3]
1878:.\DisplayBLL.c ****     //Printer port #2
1879:.\DisplayBLL.c ****     GetEepromBuffer()[0x0C] = _g_printerlayout._printerportside2;
 8680              		.loc 1 1879 0
 8681 0054 FFF7FEFF 		bl	GetEepromBuffer
 8682 0058 0346     		mov	r3, r0
 8683 005a 0C33     		adds	r3, r3, #12
 8684 005c 054A     		ldr	r2, .L293
 8685 005e 5278     		ldrb	r2, [r2, #1]	@ zero_extendqisi2
 8686 0060 1A70     		strb	r2, [r3]
1880:.\DisplayBLL.c ****     StoreEepromPage(EEPROM_CONFIGURATION_PAGE7);
 8687              		.loc 1 1880 0
 8688 0062 4FF4E070 		mov	r0, #448
 8689 0066 FFF7FEFF 		bl	StoreEepromPage
1881:.\DisplayBLL.c ****     I2CBusUnlock();
 8690              		.loc 1 1881 0
 8691 006a FFF7FEFF 		bl	I2CBusUnlock
1882:.\DisplayBLL.c **** }
 8692              		.loc 1 1882 0
 8693 006e 1037     		adds	r7, r7, #16
 8694              		.cfi_def_cfa_offset 8
 8695 0070 BD46     		mov	sp, r7
 8696              		.cfi_def_cfa_register 13
 8697              		@ sp needed
 8698 0072 80BD     		pop	{r7, pc}
 8699              	.L294:
 8700              		.align	2
 8701              	.L293:
 8702 0074 00000000 		.word	_g_printerlayout
 8703              		.cfi_endproc
ARM GAS  C:\Users\RECEPC~1\AppData\Local\Temp\ccNQpeOs.s 			page 188


 8704              	.LFE95:
 8705              		.size	EitherPrinterWorking, .-EitherPrinterWorking
 8706              		.section	.text.CastCreditVolumeValue,"ax",%progbits
 8707              		.align	2
 8708              		.global	CastCreditVolumeValue
 8709              		.thumb
 8710              		.thumb_func
 8711              		.type	CastCreditVolumeValue, %function
 8712              	CastCreditVolumeValue:
 8713              	.LFB96:
1883:.\DisplayBLL.c **** 
1884:.\DisplayBLL.c **** void CastCreditVolumeValue(char8 *pbuffer, uint8 buffersize)
1885:.\DisplayBLL.c **** {
 8714              		.loc 1 1885 0
 8715              		.cfi_startproc
 8716              		@ args = 0, pretend = 0, frame = 16
 8717              		@ frame_needed = 1, uses_anonymous_args = 0
 8718              		@ link register save eliminated.
 8719 0000 80B4     		push	{r7}
 8720              		.cfi_def_cfa_offset 4
 8721              		.cfi_offset 7, -4
 8722 0002 85B0     		sub	sp, sp, #20
 8723              		.cfi_def_cfa_offset 24
 8724 0004 00AF     		add	r7, sp, #0
 8725              		.cfi_def_cfa_register 7
 8726 0006 7860     		str	r0, [r7, #4]
 8727 0008 0B46     		mov	r3, r1
 8728 000a FB70     		strb	r3, [r7, #3]
1886:.\DisplayBLL.c ****     uint8 delimiterindex = 0x00;
 8729              		.loc 1 1886 0
 8730 000c 0023     		movs	r3, #0
 8731 000e FB73     		strb	r3, [r7, #15]
1887:.\DisplayBLL.c ****     bool shiftbydelimiter = false;
 8732              		.loc 1 1887 0
 8733 0010 0023     		movs	r3, #0
 8734 0012 BB73     		strb	r3, [r7, #14]
1888:.\DisplayBLL.c ****     //If there is a "Comma" inside of the buffer, then just remove it before and count this for the
1889:.\DisplayBLL.c ****     FOR(int8 index = (buffersize - 1), index > 0, index--)
 8735              		.loc 1 1889 0
 8736 0014 FB78     		ldrb	r3, [r7, #3]
 8737 0016 013B     		subs	r3, r3, #1
 8738 0018 DBB2     		uxtb	r3, r3
 8739 001a 7B73     		strb	r3, [r7, #13]
 8740 001c 2CE0     		b	.L296
 8741              	.L300:
1890:.\DisplayBLL.c ****     {
1891:.\DisplayBLL.c ****         if(pbuffer[index] == 0x2C && !shiftbydelimiter)
 8742              		.loc 1 1891 0
 8743 001e 97F90D30 		ldrsb	r3, [r7, #13]
 8744 0022 7A68     		ldr	r2, [r7, #4]
 8745 0024 1344     		add	r3, r3, r2
 8746 0026 1B78     		ldrb	r3, [r3]	@ zero_extendqisi2
 8747 0028 2C2B     		cmp	r3, #44
 8748 002a 07D1     		bne	.L297
 8749              		.loc 1 1891 0 is_stmt 0 discriminator 1
 8750 002c BB7B     		ldrb	r3, [r7, #14]
 8751 002e 83F00103 		eor	r3, r3, #1
ARM GAS  C:\Users\RECEPC~1\AppData\Local\Temp\ccNQpeOs.s 			page 189


 8752 0032 DBB2     		uxtb	r3, r3
 8753 0034 002B     		cmp	r3, #0
 8754 0036 01D0     		beq	.L297
1892:.\DisplayBLL.c ****             shiftbydelimiter = true;
 8755              		.loc 1 1892 0 is_stmt 1
 8756 0038 0123     		movs	r3, #1
 8757 003a BB73     		strb	r3, [r7, #14]
 8758              	.L297:
1893:.\DisplayBLL.c **** 
1894:.\DisplayBLL.c ****         if(shiftbydelimiter)
 8759              		.loc 1 1894 0
 8760 003c BB7B     		ldrb	r3, [r7, #14]	@ zero_extendqisi2
 8761 003e 002B     		cmp	r3, #0
 8762 0040 12D0     		beq	.L298
1895:.\DisplayBLL.c ****         {
1896:.\DisplayBLL.c ****             pbuffer[index] = pbuffer[index - 1];
 8763              		.loc 1 1896 0
 8764 0042 97F90D30 		ldrsb	r3, [r7, #13]
 8765 0046 7A68     		ldr	r2, [r7, #4]
 8766 0048 1344     		add	r3, r3, r2
 8767 004a 97F90D20 		ldrsb	r2, [r7, #13]
 8768 004e 013A     		subs	r2, r2, #1
 8769 0050 7968     		ldr	r1, [r7, #4]
 8770 0052 0A44     		add	r2, r2, r1
 8771 0054 1278     		ldrb	r2, [r2]	@ zero_extendqisi2
 8772 0056 1A70     		strb	r2, [r3]
1897:.\DisplayBLL.c ****             pbuffer[index - 1] = 0x00;
 8773              		.loc 1 1897 0
 8774 0058 97F90D30 		ldrsb	r3, [r7, #13]
 8775 005c 013B     		subs	r3, r3, #1
 8776 005e 7A68     		ldr	r2, [r7, #4]
 8777 0060 1344     		add	r3, r3, r2
 8778 0062 0022     		movs	r2, #0
 8779 0064 1A70     		strb	r2, [r3]
 8780 0066 02E0     		b	.L299
 8781              	.L298:
1898:.\DisplayBLL.c ****         }else
1899:.\DisplayBLL.c ****             delimiterindex++;
 8782              		.loc 1 1899 0
 8783 0068 FB7B     		ldrb	r3, [r7, #15]	@ zero_extendqisi2
 8784 006a 0133     		adds	r3, r3, #1
 8785 006c FB73     		strb	r3, [r7, #15]
 8786              	.L299:
1889:.\DisplayBLL.c ****     {
 8787              		.loc 1 1889 0 discriminator 2
 8788 006e 7B7B     		ldrb	r3, [r7, #13]	@ zero_extendqisi2
 8789 0070 DBB2     		uxtb	r3, r3
 8790 0072 013B     		subs	r3, r3, #1
 8791 0074 DBB2     		uxtb	r3, r3
 8792 0076 7B73     		strb	r3, [r7, #13]
 8793              	.L296:
1889:.\DisplayBLL.c ****     {
 8794              		.loc 1 1889 0 is_stmt 0 discriminator 1
 8795 0078 97F90D30 		ldrsb	r3, [r7, #13]
 8796 007c 002B     		cmp	r3, #0
 8797 007e CEDC     		bgt	.L300
1900:.\DisplayBLL.c ****         
ARM GAS  C:\Users\RECEPC~1\AppData\Local\Temp\ccNQpeOs.s 			page 190


1901:.\DisplayBLL.c ****     }
1902:.\DisplayBLL.c ****     if(!shiftbydelimiter)
 8798              		.loc 1 1902 0 is_stmt 1
 8799 0080 BB7B     		ldrb	r3, [r7, #14]
 8800 0082 83F00103 		eor	r3, r3, #1
 8801 0086 DBB2     		uxtb	r3, r3
 8802 0088 002B     		cmp	r3, #0
 8803 008a 01D0     		beq	.L301
1903:.\DisplayBLL.c ****         delimiterindex = 0x00;
 8804              		.loc 1 1903 0
 8805 008c 0023     		movs	r3, #0
 8806 008e FB73     		strb	r3, [r7, #15]
 8807              	.L301:
1904:.\DisplayBLL.c ****     
1905:.\DisplayBLL.c ****     int8 shiftcount = (delimiterindex - _g_dispenserlayoutinfo._volumedecimals);
 8808              		.loc 1 1905 0
 8809 0090 334B     		ldr	r3, .L312
 8810 0092 5B7A     		ldrb	r3, [r3, #9]	@ zero_extendqisi2
 8811 0094 FA7B     		ldrb	r2, [r7, #15]
 8812 0096 D31A     		subs	r3, r2, r3
 8813 0098 DBB2     		uxtb	r3, r3
 8814 009a 3B73     		strb	r3, [r7, #12]
1906:.\DisplayBLL.c ****     //8 is the size of the allocated buffer space for the preset values according to the protocol.
1907:.\DisplayBLL.c ****     //The real buffer size allocated from the display side is 16 bytes. The buffer will be cast fro
1908:.\DisplayBLL.c ****     //the end to the beginning, so the startup index has been calculated "explicitly", this is (8 -
1909:.\DisplayBLL.c ****     //To multiply by 1000 we need to shift the entire buffer three bytes to shift the comma, so we
1910:.\DisplayBLL.c ****     //will subtract 3 bytes to the starting position in order to make the shifting.
1911:.\DisplayBLL.c ****     if(shiftcount > 0)
 8815              		.loc 1 1911 0
 8816 009c 97F90C30 		ldrsb	r3, [r7, #12]
 8817 00a0 002B     		cmp	r3, #0
 8818 00a2 29DD     		ble	.L302
1912:.\DisplayBLL.c ****     {
1913:.\DisplayBLL.c ****         while(shiftcount > 0)
 8819              		.loc 1 1913 0
 8820 00a4 23E0     		b	.L303
 8821              	.L306:
1914:.\DisplayBLL.c ****         {
1915:.\DisplayBLL.c ****             FOR(index = (buffersize - 1), index > 0, index--)
 8822              		.loc 1 1915 0
 8823 00a6 FB78     		ldrb	r3, [r7, #3]
 8824 00a8 013B     		subs	r3, r3, #1
 8825 00aa DBB2     		uxtb	r3, r3
 8826 00ac 7B73     		strb	r3, [r7, #13]
 8827 00ae 15E0     		b	.L304
 8828              	.L305:
1916:.\DisplayBLL.c ****             {
1917:.\DisplayBLL.c ****                 pbuffer[index] = pbuffer[index - 1];
 8829              		.loc 1 1917 0 discriminator 3
 8830 00b0 97F90D30 		ldrsb	r3, [r7, #13]
 8831 00b4 7A68     		ldr	r2, [r7, #4]
 8832 00b6 1344     		add	r3, r3, r2
 8833 00b8 97F90D20 		ldrsb	r2, [r7, #13]
 8834 00bc 013A     		subs	r2, r2, #1
 8835 00be 7968     		ldr	r1, [r7, #4]
 8836 00c0 0A44     		add	r2, r2, r1
 8837 00c2 1278     		ldrb	r2, [r2]	@ zero_extendqisi2
ARM GAS  C:\Users\RECEPC~1\AppData\Local\Temp\ccNQpeOs.s 			page 191


 8838 00c4 1A70     		strb	r2, [r3]
1918:.\DisplayBLL.c ****                 pbuffer[index] = 0x00;
 8839              		.loc 1 1918 0 discriminator 3
 8840 00c6 97F90D30 		ldrsb	r3, [r7, #13]
 8841 00ca 7A68     		ldr	r2, [r7, #4]
 8842 00cc 1344     		add	r3, r3, r2
 8843 00ce 0022     		movs	r2, #0
 8844 00d0 1A70     		strb	r2, [r3]
1915:.\DisplayBLL.c ****             {
 8845              		.loc 1 1915 0 discriminator 3
 8846 00d2 7B7B     		ldrb	r3, [r7, #13]	@ zero_extendqisi2
 8847 00d4 DBB2     		uxtb	r3, r3
 8848 00d6 013B     		subs	r3, r3, #1
 8849 00d8 DBB2     		uxtb	r3, r3
 8850 00da 7B73     		strb	r3, [r7, #13]
 8851              	.L304:
1915:.\DisplayBLL.c ****             {
 8852              		.loc 1 1915 0 is_stmt 0 discriminator 1
 8853 00dc 97F90D30 		ldrsb	r3, [r7, #13]
 8854 00e0 002B     		cmp	r3, #0
 8855 00e2 E5DC     		bgt	.L305
1919:.\DisplayBLL.c ****             }
1920:.\DisplayBLL.c ****             shiftcount--;
 8856              		.loc 1 1920 0 is_stmt 1
 8857 00e4 3B7B     		ldrb	r3, [r7, #12]	@ zero_extendqisi2
 8858 00e6 DBB2     		uxtb	r3, r3
 8859 00e8 013B     		subs	r3, r3, #1
 8860 00ea DBB2     		uxtb	r3, r3
 8861 00ec 3B73     		strb	r3, [r7, #12]
 8862              	.L303:
1913:.\DisplayBLL.c ****         {
 8863              		.loc 1 1913 0
 8864 00ee 97F90C30 		ldrsb	r3, [r7, #12]
 8865 00f2 002B     		cmp	r3, #0
 8866 00f4 D7DC     		bgt	.L306
 8867 00f6 2DE0     		b	.L295
 8868              	.L302:
1921:.\DisplayBLL.c ****         }
1922:.\DisplayBLL.c ****     }
1923:.\DisplayBLL.c ****     else if(shiftcount < 0)
 8869              		.loc 1 1923 0
 8870 00f8 97F90C30 		ldrsb	r3, [r7, #12]
 8871 00fc 002B     		cmp	r3, #0
 8872 00fe 29DA     		bge	.L295
1924:.\DisplayBLL.c ****     {
1925:.\DisplayBLL.c ****         while(shiftcount < 0)
 8873              		.loc 1 1925 0
 8874 0100 24E0     		b	.L308
 8875              	.L311:
1926:.\DisplayBLL.c ****         {
1927:.\DisplayBLL.c ****             FOR(index = 0, index < (buffersize  - 1), index++)
 8876              		.loc 1 1927 0
 8877 0102 0023     		movs	r3, #0
 8878 0104 7B73     		strb	r3, [r7, #13]
 8879 0106 16E0     		b	.L309
 8880              	.L310:
1928:.\DisplayBLL.c ****             {
ARM GAS  C:\Users\RECEPC~1\AppData\Local\Temp\ccNQpeOs.s 			page 192


1929:.\DisplayBLL.c ****                 pbuffer[index] = pbuffer[index + 1];
 8881              		.loc 1 1929 0 discriminator 3
 8882 0108 97F90D30 		ldrsb	r3, [r7, #13]
 8883 010c 7A68     		ldr	r2, [r7, #4]
 8884 010e 1344     		add	r3, r3, r2
 8885 0110 97F90D20 		ldrsb	r2, [r7, #13]
 8886 0114 0132     		adds	r2, r2, #1
 8887 0116 7968     		ldr	r1, [r7, #4]
 8888 0118 0A44     		add	r2, r2, r1
 8889 011a 1278     		ldrb	r2, [r2]	@ zero_extendqisi2
 8890 011c 1A70     		strb	r2, [r3]
1930:.\DisplayBLL.c ****                 pbuffer[index + 1] = 0x30;
 8891              		.loc 1 1930 0 discriminator 3
 8892 011e 97F90D30 		ldrsb	r3, [r7, #13]
 8893 0122 0133     		adds	r3, r3, #1
 8894 0124 7A68     		ldr	r2, [r7, #4]
 8895 0126 1344     		add	r3, r3, r2
 8896 0128 3022     		movs	r2, #48
 8897 012a 1A70     		strb	r2, [r3]
1927:.\DisplayBLL.c ****             {
 8898              		.loc 1 1927 0 discriminator 3
 8899 012c 7B7B     		ldrb	r3, [r7, #13]	@ zero_extendqisi2
 8900 012e DBB2     		uxtb	r3, r3
 8901 0130 0133     		adds	r3, r3, #1
 8902 0132 DBB2     		uxtb	r3, r3
 8903 0134 7B73     		strb	r3, [r7, #13]
 8904              	.L309:
1927:.\DisplayBLL.c ****             {
 8905              		.loc 1 1927 0 is_stmt 0 discriminator 1
 8906 0136 97F90D20 		ldrsb	r2, [r7, #13]
 8907 013a FB78     		ldrb	r3, [r7, #3]	@ zero_extendqisi2
 8908 013c 013B     		subs	r3, r3, #1
 8909 013e 9A42     		cmp	r2, r3
 8910 0140 E2DB     		blt	.L310
1931:.\DisplayBLL.c ****             }
1932:.\DisplayBLL.c ****             shiftcount++;
 8911              		.loc 1 1932 0 is_stmt 1
 8912 0142 3B7B     		ldrb	r3, [r7, #12]	@ zero_extendqisi2
 8913 0144 DBB2     		uxtb	r3, r3
 8914 0146 0133     		adds	r3, r3, #1
 8915 0148 DBB2     		uxtb	r3, r3
 8916 014a 3B73     		strb	r3, [r7, #12]
 8917              	.L308:
1925:.\DisplayBLL.c ****         {
 8918              		.loc 1 1925 0
 8919 014c 97F90C30 		ldrsb	r3, [r7, #12]
 8920 0150 002B     		cmp	r3, #0
 8921 0152 D6DB     		blt	.L311
 8922              	.L295:
1933:.\DisplayBLL.c ****         }
1934:.\DisplayBLL.c ****     }
1935:.\DisplayBLL.c **** }
 8923              		.loc 1 1935 0
 8924 0154 1437     		adds	r7, r7, #20
 8925              		.cfi_def_cfa_offset 4
 8926 0156 BD46     		mov	sp, r7
 8927              		.cfi_def_cfa_register 13
ARM GAS  C:\Users\RECEPC~1\AppData\Local\Temp\ccNQpeOs.s 			page 193


 8928              		@ sp needed
 8929 0158 5DF8047B 		ldr	r7, [sp], #4
 8930              		.cfi_restore 7
 8931              		.cfi_def_cfa_offset 0
 8932 015c 7047     		bx	lr
 8933              	.L313:
 8934 015e 00BF     		.align	2
 8935              	.L312:
 8936 0160 00000000 		.word	_g_dispenserlayoutinfo
 8937              		.cfi_endproc
 8938              	.LFE96:
 8939              		.size	CastCreditVolumeValue, .-CastCreditVolumeValue
 8940              		.section	.text.SaveSelectedPosition,"ax",%progbits
 8941              		.align	2
 8942              		.global	SaveSelectedPosition
 8943              		.thumb
 8944              		.thumb_func
 8945              		.type	SaveSelectedPosition, %function
 8946              	SaveSelectedPosition:
 8947              	.LFB97:
1936:.\DisplayBLL.c **** 
1937:.\DisplayBLL.c **** void SaveSelectedPosition(void *pparam)
1938:.\DisplayBLL.c **** {
 8948              		.loc 1 1938 0
 8949              		.cfi_startproc
 8950              		@ args = 0, pretend = 0, frame = 16
 8951              		@ frame_needed = 1, uses_anonymous_args = 0
 8952 0000 90B5     		push	{r4, r7, lr}
 8953              		.cfi_def_cfa_offset 12
 8954              		.cfi_offset 4, -12
 8955              		.cfi_offset 7, -8
 8956              		.cfi_offset 14, -4
 8957 0002 85B0     		sub	sp, sp, #20
 8958              		.cfi_def_cfa_offset 32
 8959 0004 00AF     		add	r7, sp, #0
 8960              		.cfi_def_cfa_register 7
 8961 0006 7860     		str	r0, [r7, #4]
1939:.\DisplayBLL.c ****     PDISPLAYLAYOUTPTR pdisplay = (PDISPLAYLAYOUTPTR)pparam;
 8962              		.loc 1 1939 0
 8963 0008 7B68     		ldr	r3, [r7, #4]
 8964 000a FB60     		str	r3, [r7, #12]
1940:.\DisplayBLL.c ****     
1941:.\DisplayBLL.c ****     memset(&((PSINKMESSAGEPTR)pdisplay->_psequesteredmessagesink)->_buffer[GetBufferIndexFromDispla
 8965              		.loc 1 1941 0
 8966 000c FB68     		ldr	r3, [r7, #12]
 8967 000e 1C6B     		ldr	r4, [r3, #48]
 8968 0010 2E20     		movs	r0, #46
 8969 0012 FFF7FEFF 		bl	GetBufferIndexFromDisplayID
 8970 0016 0346     		mov	r3, r0
 8971 0018 0833     		adds	r3, r3, #8
 8972 001a 2344     		add	r3, r3, r4
 8973 001c 1C1D     		adds	r4, r3, #4
 8974 001e 2E20     		movs	r0, #46
 8975 0020 FFF7FEFF 		bl	GetBufferLengthFromDisplayID
 8976 0024 0346     		mov	r3, r0
 8977 0026 2046     		mov	r0, r4
 8978 0028 0021     		movs	r1, #0
ARM GAS  C:\Users\RECEPC~1\AppData\Local\Temp\ccNQpeOs.s 			page 194


 8979 002a 1A46     		mov	r2, r3
 8980 002c FFF7FEFF 		bl	memset
1942:.\DisplayBLL.c ****     ((PSINKMESSAGEPTR)pdisplay->_psequesteredmessagesink)->_buffer[GetBufferIndexFromDisplayID(DISP
 8981              		.loc 1 1942 0
 8982 0030 FB68     		ldr	r3, [r7, #12]
 8983 0032 1C6B     		ldr	r4, [r3, #48]
 8984 0034 2E20     		movs	r0, #46
 8985 0036 FFF7FEFF 		bl	GetBufferIndexFromDisplayID
 8986 003a 0346     		mov	r3, r0
 8987 003c 1946     		mov	r1, r3
 8988 003e FB68     		ldr	r3, [r7, #12]
 8989 0040 DA78     		ldrb	r2, [r3, #3]	@ zero_extendqisi2
 8990 0042 6318     		adds	r3, r4, r1
 8991 0044 1A73     		strb	r2, [r3, #12]
1943:.\DisplayBLL.c ****     ((PSINKMESSAGEPTR)pdisplay->_psequesteredmessagesink)->_buffer[GetBufferIndexFromDisplayID(DISP
 8992              		.loc 1 1943 0
 8993 0046 FB68     		ldr	r3, [r7, #12]
 8994 0048 1C6B     		ldr	r4, [r3, #48]
 8995 004a FA20     		movs	r0, #250
 8996 004c FFF7FEFF 		bl	GetBufferIndexFromDisplayID
 8997 0050 0346     		mov	r3, r0
 8998 0052 1946     		mov	r1, r3
 8999 0054 FB68     		ldr	r3, [r7, #12]
 9000 0056 1A78     		ldrb	r2, [r3]	@ zero_extendqisi2
 9001 0058 6318     		adds	r3, r4, r1
 9002 005a 1A73     		strb	r2, [r3, #12]
1944:.\DisplayBLL.c **** }
 9003              		.loc 1 1944 0
 9004 005c 1437     		adds	r7, r7, #20
 9005              		.cfi_def_cfa_offset 12
 9006 005e BD46     		mov	sp, r7
 9007              		.cfi_def_cfa_register 13
 9008              		@ sp needed
 9009 0060 90BD     		pop	{r4, r7, pc}
 9010              		.cfi_endproc
 9011              	.LFE97:
 9012              		.size	SaveSelectedPosition, .-SaveSelectedPosition
 9013 0062 00BF     		.section	.text.Display1Logic,"ax",%progbits
 9014              		.align	2
 9015              		.global	Display1Logic
 9016              		.thumb
 9017              		.thumb_func
 9018              		.type	Display1Logic, %function
 9019              	Display1Logic:
 9020              	.LFB98:
1945:.\DisplayBLL.c **** 
1946:.\DisplayBLL.c **** //@Created By: HIJH
1947:.\DisplayBLL.c **** //@Septembre de 2016
1948:.\DisplayBLL.c **** void Display1Logic(void *pdata)
1949:.\DisplayBLL.c **** {
 9021              		.loc 1 1949 0
 9022              		.cfi_startproc
 9023              		@ args = 0, pretend = 0, frame = 56
 9024              		@ frame_needed = 1, uses_anonymous_args = 0
 9025 0000 90B5     		push	{r4, r7, lr}
 9026              		.cfi_def_cfa_offset 12
 9027              		.cfi_offset 4, -12
ARM GAS  C:\Users\RECEPC~1\AppData\Local\Temp\ccNQpeOs.s 			page 195


 9028              		.cfi_offset 7, -8
 9029              		.cfi_offset 14, -4
 9030 0002 8FB0     		sub	sp, sp, #60
 9031              		.cfi_def_cfa_offset 72
 9032 0004 00AF     		add	r7, sp, #0
 9033              		.cfi_def_cfa_register 7
 9034 0006 7860     		str	r0, [r7, #4]
1950:.\DisplayBLL.c ****     PSINKMESSAGEPTR pmsg = (PSINKMESSAGEPTR)pdata;
 9035              		.loc 1 1950 0
 9036 0008 7B68     		ldr	r3, [r7, #4]
 9037 000a FB62     		str	r3, [r7, #44]
1951:.\DisplayBLL.c ****     
1952:.\DisplayBLL.c ****     ///////////////////////////////////////////////////////
1953:.\DisplayBLL.c ****     //TEMPORARILY DISABLED TO ALLOW FOR THE TESTS!!
1954:.\DisplayBLL.c ****     if(_g_dispenserlayoutinfo._inconfiguration)
 9038              		.loc 1 1954 0
 9039 000c 664B     		ldr	r3, .L332
 9040 000e 1B78     		ldrb	r3, [r3]
 9041 0010 DBB2     		uxtb	r3, r3
 9042 0012 002B     		cmp	r3, #0
 9043 0014 00D0     		beq	.L316
1955:.\DisplayBLL.c ****         goto CLOSEDISPLAY1;
 9044              		.loc 1 1955 0
 9045 0016 BEE0     		b	.L317
 9046              	.L316:
1956:.\DisplayBLL.c ****     ///////////////////////////////////////////////////////
1957:.\DisplayBLL.c ****     
1958:.\DisplayBLL.c ****     _g_display1._starting = false;
 9047              		.loc 1 1958 0
 9048 0018 644B     		ldr	r3, .L332+4
 9049 001a 0022     		movs	r2, #0
 9050 001c 5A73     		strb	r2, [r3, #13]
1959:.\DisplayBLL.c **** 
1960:.\DisplayBLL.c ****     _g_display1._currscrcode = ParseDisplayStream(pmsg->_buffer, pmsg->_buffersize);
 9051              		.loc 1 1960 0
 9052 001e FB6A     		ldr	r3, [r7, #44]
 9053 0020 03F10C02 		add	r2, r3, #12
 9054 0024 FB6A     		ldr	r3, [r7, #44]
 9055 0026 B3F88C31 		ldrh	r3, [r3, #396]	@ movhi
 9056 002a 9BB2     		uxth	r3, r3
 9057 002c DBB2     		uxtb	r3, r3
 9058 002e 1046     		mov	r0, r2
 9059 0030 1946     		mov	r1, r3
 9060 0032 FFF7FEFF 		bl	ParseDisplayStream
 9061 0036 0346     		mov	r3, r0
 9062 0038 1A46     		mov	r2, r3
 9063 003a 5C4B     		ldr	r3, .L332+4
 9064 003c DA70     		strb	r2, [r3, #3]
1961:.\DisplayBLL.c ****     ParseDisplayFlow(&_g_display1);
 9065              		.loc 1 1961 0
 9066 003e 5B48     		ldr	r0, .L332+4
 9067 0040 FFF7FEFF 		bl	ParseDisplayFlow
1962:.\DisplayBLL.c ****     if(_g_display1._nextscrid != DISPLAY_NULL || 
 9068              		.loc 1 1962 0
 9069 0044 594B     		ldr	r3, .L332+4
 9070 0046 9B78     		ldrb	r3, [r3, #2]	@ zero_extendqisi2
 9071 0048 FF2B     		cmp	r3, #255
ARM GAS  C:\Users\RECEPC~1\AppData\Local\Temp\ccNQpeOs.s 			page 196


 9072 004a 08D1     		bne	.L318
1963:.\DisplayBLL.c ****         _g_display1._statechangescrid != DISPLAY_NULL ||
 9073              		.loc 1 1963 0 discriminator 1
 9074 004c 574B     		ldr	r3, .L332+4
 9075 004e 5B79     		ldrb	r3, [r3, #5]	@ zero_extendqisi2
1962:.\DisplayBLL.c ****     if(_g_display1._nextscrid != DISPLAY_NULL || 
 9076              		.loc 1 1962 0 discriminator 1
 9077 0050 FF2B     		cmp	r3, #255
 9078 0052 04D1     		bne	.L318
1964:.\DisplayBLL.c ****         _g_display1._timeoutscrid != DISPLAY_NULL)
 9079              		.loc 1 1964 0
 9080 0054 554B     		ldr	r3, .L332+4
 9081 0056 9B7A     		ldrb	r3, [r3, #10]	@ zero_extendqisi2
1963:.\DisplayBLL.c ****         _g_display1._statechangescrid != DISPLAY_NULL ||
 9082              		.loc 1 1963 0
 9083 0058 FF2B     		cmp	r3, #255
 9084 005a 00F09280 		beq	.L319
 9085              	.L318:
 9086              	.LBB108:
1965:.\DisplayBLL.c ****     {
1966:.\DisplayBLL.c ****         //Here comes the validation for the state of the work shift 
1967:.\DisplayBLL.c ****         if(_g_display1.DisplayValidator)
 9087              		.loc 1 1967 0
 9088 005e 534B     		ldr	r3, .L332+4
 9089 0060 9B6B     		ldr	r3, [r3, #56]
 9090 0062 002B     		cmp	r3, #0
 9091 0064 03D0     		beq	.L320
1968:.\DisplayBLL.c ****             _g_display1.DisplayValidator(&_g_display1);
 9092              		.loc 1 1968 0
 9093 0066 514B     		ldr	r3, .L332+4
 9094 0068 9B6B     		ldr	r3, [r3, #56]
 9095 006a 5048     		ldr	r0, .L332+4
 9096 006c 9847     		blx	r3
 9097              	.L320:
1969:.\DisplayBLL.c ****         
1970:.\DisplayBLL.c ****         bool validate = true;
 9098              		.loc 1 1970 0
 9099 006e 0123     		movs	r3, #1
 9100 0070 87F83730 		strb	r3, [r7, #55]
1971:.\DisplayBLL.c ****         PNEAR_BYTE_PTR piterptr = &_g_dispvalcodes[0x00];
 9101              		.loc 1 1971 0
 9102 0074 4E4B     		ldr	r3, .L332+8
 9103 0076 3B63     		str	r3, [r7, #48]
1972:.\DisplayBLL.c ****         while(*piterptr != 0xFF)
 9104              		.loc 1 1972 0
 9105 0078 0CE0     		b	.L321
 9106              	.L324:
1973:.\DisplayBLL.c ****         {
1974:.\DisplayBLL.c ****             if(*piterptr == _g_display1._currscrcode)
 9107              		.loc 1 1974 0
 9108 007a 3B6B     		ldr	r3, [r7, #48]
 9109 007c 1A78     		ldrb	r2, [r3]	@ zero_extendqisi2
 9110 007e 4B4B     		ldr	r3, .L332+4
 9111 0080 DB78     		ldrb	r3, [r3, #3]	@ zero_extendqisi2
 9112 0082 9A42     		cmp	r2, r3
 9113 0084 03D1     		bne	.L322
1975:.\DisplayBLL.c ****             {
ARM GAS  C:\Users\RECEPC~1\AppData\Local\Temp\ccNQpeOs.s 			page 197


1976:.\DisplayBLL.c ****                 validate = false;
 9114              		.loc 1 1976 0
 9115 0086 0023     		movs	r3, #0
 9116 0088 87F83730 		strb	r3, [r7, #55]
1977:.\DisplayBLL.c ****                 break;
 9117              		.loc 1 1977 0
 9118 008c 06E0     		b	.L323
 9119              	.L322:
1978:.\DisplayBLL.c ****             }
1979:.\DisplayBLL.c ****             piterptr++;
 9120              		.loc 1 1979 0
 9121 008e 3B6B     		ldr	r3, [r7, #48]
 9122 0090 0133     		adds	r3, r3, #1
 9123 0092 3B63     		str	r3, [r7, #48]
 9124              	.L321:
1972:.\DisplayBLL.c ****         {
 9125              		.loc 1 1972 0
 9126 0094 3B6B     		ldr	r3, [r7, #48]
 9127 0096 1B78     		ldrb	r3, [r3]	@ zero_extendqisi2
 9128 0098 FF2B     		cmp	r3, #255
 9129 009a EED1     		bne	.L324
 9130              	.L323:
1980:.\DisplayBLL.c ****         }
1981:.\DisplayBLL.c ****         
1982:.\DisplayBLL.c ****         if(validate)
 9131              		.loc 1 1982 0
 9132 009c 97F83730 		ldrb	r3, [r7, #55]	@ zero_extendqisi2
 9133 00a0 002B     		cmp	r3, #0
 9134 00a2 1CD0     		beq	.L325
 9135              	.LBB109:
1983:.\DisplayBLL.c ****         {
1984:.\DisplayBLL.c ****             FPTRINPUTVALIDATOR fptrvalidator = DisplayFlowInputValidator(&_g_display1);
 9136              		.loc 1 1984 0
 9137 00a4 4148     		ldr	r0, .L332+4
 9138 00a6 FFF7FEFF 		bl	DisplayFlowInputValidator
 9139 00aa 7862     		str	r0, [r7, #36]
1985:.\DisplayBLL.c ****             if(fptrvalidator)
 9140              		.loc 1 1985 0
 9141 00ac 7B6A     		ldr	r3, [r7, #36]
 9142 00ae 002B     		cmp	r3, #0
 9143 00b0 15D0     		beq	.L325
1986:.\DisplayBLL.c ****                 if(!fptrvalidator(&_g_display1))
 9144              		.loc 1 1986 0
 9145 00b2 7B6A     		ldr	r3, [r7, #36]
 9146 00b4 3D48     		ldr	r0, .L332+4
 9147 00b6 9847     		blx	r3
 9148 00b8 0346     		mov	r3, r0
 9149 00ba 83F00103 		eor	r3, r3, #1
 9150 00be DBB2     		uxtb	r3, r3
 9151 00c0 002B     		cmp	r3, #0
 9152 00c2 0CD0     		beq	.L325
1987:.\DisplayBLL.c ****                 {
1988:.\DisplayBLL.c ****                     _g_display1._timeoutscrid = _g_display1._statechangescrid = _g_display1._nextsc
 9153              		.loc 1 1988 0
 9154 00c4 394B     		ldr	r3, .L332+4
 9155 00c6 FF22     		movs	r2, #255
 9156 00c8 9A70     		strb	r2, [r3, #2]
ARM GAS  C:\Users\RECEPC~1\AppData\Local\Temp\ccNQpeOs.s 			page 198


 9157 00ca 384B     		ldr	r3, .L332+4
 9158 00cc 9A78     		ldrb	r2, [r3, #2]	@ zero_extendqisi2
 9159 00ce 374B     		ldr	r3, .L332+4
 9160 00d0 5A71     		strb	r2, [r3, #5]
 9161 00d2 364B     		ldr	r3, .L332+4
 9162 00d4 5A79     		ldrb	r2, [r3, #5]	@ zero_extendqisi2
 9163 00d6 354B     		ldr	r3, .L332+4
 9164 00d8 9A72     		strb	r2, [r3, #10]
1989:.\DisplayBLL.c ****                     goto CLOSEDISPLAY1;
 9165              		.loc 1 1989 0
 9166 00da 00BF     		nop
 9167 00dc 5BE0     		b	.L317
 9168              	.L325:
 9169              	.LBE109:
1990:.\DisplayBLL.c ****                 }
1991:.\DisplayBLL.c ****                 
1992:.\DisplayBLL.c ****         }
1993:.\DisplayBLL.c **** 
1994:.\DisplayBLL.c ****         ///////////////////////////////////////////////////////////////////////////////////////////
1995:.\DisplayBLL.c ****         //TODO: HERE WE NEED TO POST OR PROCESS THE INPUT BUFFER (CAPTURED THROUGH THE INPUT BOX IF
1996:.\DisplayBLL.c ****         //SINCE IT WILL BE CLEANED UP IN THE NEXT LINE
1997:.\DisplayBLL.c ****         //IT MUST BE POSTED THROUGH THE MESSAGE SINK TO THE BLL RELATED COMPONENT
1998:.\DisplayBLL.c ****         StoreTransactionData(&_g_display1);
 9170              		.loc 1 1998 0
 9171 00de 3348     		ldr	r0, .L332+4
 9172 00e0 FFF7FEFF 		bl	StoreTransactionData
1999:.\DisplayBLL.c ****         
2000:.\DisplayBLL.c ****         FPTRFINALIZER fptrfinalizer = DisplayFinalizer(&_g_display1);
 9173              		.loc 1 2000 0
 9174 00e4 3148     		ldr	r0, .L332+4
 9175 00e6 FFF7FEFF 		bl	DisplayFinalizer
 9176 00ea 3862     		str	r0, [r7, #32]
2001:.\DisplayBLL.c ****         if(fptrfinalizer)
 9177              		.loc 1 2001 0
 9178 00ec 3B6A     		ldr	r3, [r7, #32]
 9179 00ee 002B     		cmp	r3, #0
 9180 00f0 02D0     		beq	.L327
2002:.\DisplayBLL.c ****             fptrfinalizer(&_g_display1);
 9181              		.loc 1 2002 0
 9182 00f2 3B6A     		ldr	r3, [r7, #32]
 9183 00f4 2D48     		ldr	r0, .L332+4
 9184 00f6 9847     		blx	r3
 9185              	.L327:
2003:.\DisplayBLL.c ****         
2004:.\DisplayBLL.c ****         PrepareDisplayStructure(&_g_display1);
 9186              		.loc 1 2004 0
 9187 00f8 2C48     		ldr	r0, .L332+4
 9188 00fa FFF7FEFF 		bl	PrepareDisplayStructure
2005:.\DisplayBLL.c ****         
2006:.\DisplayBLL.c ****         FPTRINITIALIZER fptrinitializer = DisplayInitializer(&_g_display1);
 9189              		.loc 1 2006 0
 9190 00fe 2B48     		ldr	r0, .L332+4
 9191 0100 FFF7FEFF 		bl	DisplayInitializer
 9192 0104 F861     		str	r0, [r7, #28]
2007:.\DisplayBLL.c ****         if(fptrinitializer)
 9193              		.loc 1 2007 0
 9194 0106 FB69     		ldr	r3, [r7, #28]
ARM GAS  C:\Users\RECEPC~1\AppData\Local\Temp\ccNQpeOs.s 			page 199


 9195 0108 002B     		cmp	r3, #0
 9196 010a 02D0     		beq	.L328
2008:.\DisplayBLL.c ****             fptrinitializer(&_g_display1);
 9197              		.loc 1 2008 0
 9198 010c FB69     		ldr	r3, [r7, #28]
 9199 010e 2748     		ldr	r0, .L332+4
 9200 0110 9847     		blx	r3
 9201              	.L328:
2009:.\DisplayBLL.c ****         
2010:.\DisplayBLL.c ****         //This is a static structure for the display screen selection command
2011:.\DisplayBLL.c ****         char8 pbuffer[] = { 0xAA, 0x70, (_g_display1._pcurrflow->_scrid >> 8) & 0xFF, _g_display1._
 9202              		.loc 1 2011 0
 9203 0112 AA23     		movs	r3, #170
 9204 0114 3B73     		strb	r3, [r7, #12]
 9205 0116 7023     		movs	r3, #112
 9206 0118 7B73     		strb	r3, [r7, #13]
 9207 011a 0023     		movs	r3, #0
 9208 011c BB73     		strb	r3, [r7, #14]
 9209 011e 234B     		ldr	r3, .L332+4
 9210 0120 1B69     		ldr	r3, [r3, #16]
 9211 0122 1B78     		ldrb	r3, [r3]	@ zero_extendqisi2
 9212 0124 FB73     		strb	r3, [r7, #15]
 9213 0126 CC23     		movs	r3, #204
 9214 0128 3B74     		strb	r3, [r7, #16]
 9215 012a 3323     		movs	r3, #51
 9216 012c 7B74     		strb	r3, [r7, #17]
 9217 012e C323     		movs	r3, #195
 9218 0130 BB74     		strb	r3, [r7, #18]
 9219 0132 3C23     		movs	r3, #60
 9220 0134 FB74     		strb	r3, [r7, #19]
2012:.\DisplayBLL.c ****         PUARTMESSAGEPTR puartdisp = GetUARTMessageSlot(UART_DISPLAY1);
 9221              		.loc 1 2012 0
 9222 0136 A320     		movs	r0, #163
 9223 0138 FFF7FEFF 		bl	GetUARTMessageSlot
 9224 013c B861     		str	r0, [r7, #24]
2013:.\DisplayBLL.c ****         if(puartdisp)
 9225              		.loc 1 2013 0
 9226 013e BB69     		ldr	r3, [r7, #24]
 9227 0140 002B     		cmp	r3, #0
 9228 0142 12D0     		beq	.L329
2014:.\DisplayBLL.c ****         {
2015:.\DisplayBLL.c ****             puartdisp->_messagelength = sizeof(pbuffer) / sizeof(pbuffer[0]);
 9229              		.loc 1 2015 0
 9230 0144 BB69     		ldr	r3, [r7, #24]
 9231 0146 0822     		movs	r2, #8
 9232 0148 5A80     		strh	r2, [r3, #2]	@ movhi
2016:.\DisplayBLL.c ****             memcpy(puartdisp->_messagetx, pbuffer, puartdisp->_messagelength);
 9233              		.loc 1 2016 0
 9234 014a BB69     		ldr	r3, [r7, #24]
 9235 014c 1A1D     		adds	r2, r3, #4
 9236 014e BB69     		ldr	r3, [r7, #24]
 9237 0150 5B88     		ldrh	r3, [r3, #2]	@ movhi
 9238 0152 9BB2     		uxth	r3, r3
 9239 0154 1C46     		mov	r4, r3
 9240 0156 07F10C03 		add	r3, r7, #12
 9241 015a 1046     		mov	r0, r2
 9242 015c 1946     		mov	r1, r3
ARM GAS  C:\Users\RECEPC~1\AppData\Local\Temp\ccNQpeOs.s 			page 200


 9243 015e 2246     		mov	r2, r4
 9244 0160 FFF7FEFF 		bl	memcpy
2017:.\DisplayBLL.c ****             puartdisp->_messagestate = PENDING;
 9245              		.loc 1 2017 0
 9246 0164 BB69     		ldr	r3, [r7, #24]
 9247 0166 C222     		movs	r2, #194
 9248 0168 1A70     		strb	r2, [r3]
 9249              	.L329:
2018:.\DisplayBLL.c ****         }
2019:.\DisplayBLL.c ****         
2020:.\DisplayBLL.c ****         FPTRDECORATOR fptrdecorator = DisplayFlowDecorator(&_g_display1);
 9250              		.loc 1 2020 0
 9251 016a 1048     		ldr	r0, .L332+4
 9252 016c FFF7FEFF 		bl	DisplayFlowDecorator
 9253 0170 7861     		str	r0, [r7, #20]
2021:.\DisplayBLL.c ****         if(fptrdecorator)
 9254              		.loc 1 2021 0
 9255 0172 7B69     		ldr	r3, [r7, #20]
 9256 0174 002B     		cmp	r3, #0
 9257 0176 03D0     		beq	.L330
2022:.\DisplayBLL.c ****             fptrdecorator(&_g_display1);
 9258              		.loc 1 2022 0
 9259 0178 7B69     		ldr	r3, [r7, #20]
 9260 017a 0C48     		ldr	r0, .L332+4
 9261 017c 9847     		blx	r3
 9262              	.LBE108:
1965:.\DisplayBLL.c ****         //Here comes the validation for the state of the work shift 
 9263              		.loc 1 1965 0
 9264 017e 0AE0     		b	.L317
 9265              	.L330:
 9266 0180 09E0     		b	.L317
 9267              	.L319:
 9268              	.LBB110:
2023:.\DisplayBLL.c **** 
2024:.\DisplayBLL.c ****     }
2025:.\DisplayBLL.c ****     else
2026:.\DisplayBLL.c ****     {
2027:.\DisplayBLL.c ****         //Input capture processing here for all of the displays that allow data input
2028:.\DisplayBLL.c ****         FPTRINPUTHANDLER fptrhandler = DisplayFlowInputHandler(&_g_display1);
 9269              		.loc 1 2028 0
 9270 0182 0A48     		ldr	r0, .L332+4
 9271 0184 FFF7FEFF 		bl	DisplayFlowInputHandler
 9272 0188 B862     		str	r0, [r7, #40]
2029:.\DisplayBLL.c ****         if(fptrhandler)
 9273              		.loc 1 2029 0
 9274 018a BB6A     		ldr	r3, [r7, #40]
 9275 018c 002B     		cmp	r3, #0
 9276 018e 02D0     		beq	.L317
2030:.\DisplayBLL.c ****             fptrhandler(&_g_display1);
 9277              		.loc 1 2030 0
 9278 0190 BB6A     		ldr	r3, [r7, #40]
 9279 0192 0648     		ldr	r0, .L332+4
 9280 0194 9847     		blx	r3
 9281              	.L317:
 9282              	.LBE110:
2031:.\DisplayBLL.c ****     }
2032:.\DisplayBLL.c ****     
ARM GAS  C:\Users\RECEPC~1\AppData\Local\Temp\ccNQpeOs.s 			page 201


2033:.\DisplayBLL.c ****     CLOSEDISPLAY1:
2034:.\DisplayBLL.c ****     Display1_ClearRxBuffer();
 9283              		.loc 1 2034 0
 9284 0196 FFF7FEFF 		bl	Display1_ClearRxBuffer
2035:.\DisplayBLL.c ****     Display1_Enable();
 9285              		.loc 1 2035 0
 9286 019a FFF7FEFF 		bl	Display1_Enable
2036:.\DisplayBLL.c ****     return;
 9287              		.loc 1 2036 0
 9288 019e 00BF     		nop
2037:.\DisplayBLL.c **** }
 9289              		.loc 1 2037 0
 9290 01a0 3C37     		adds	r7, r7, #60
 9291              		.cfi_def_cfa_offset 12
 9292 01a2 BD46     		mov	sp, r7
 9293              		.cfi_def_cfa_register 13
 9294              		@ sp needed
 9295 01a4 90BD     		pop	{r4, r7, pc}
 9296              	.L333:
 9297 01a6 00BF     		.align	2
 9298              	.L332:
 9299 01a8 00000000 		.word	_g_dispenserlayoutinfo
 9300 01ac 00000000 		.word	_g_display1
 9301 01b0 00000000 		.word	_g_dispvalcodes
 9302              		.cfi_endproc
 9303              	.LFE98:
 9304              		.size	Display1Logic, .-Display1Logic
 9305              		.section	.text.PrintcopyReceipt,"ax",%progbits
 9306              		.align	2
 9307              		.global	PrintcopyReceipt
 9308              		.thumb
 9309              		.thumb_func
 9310              		.type	PrintcopyReceipt, %function
 9311              	PrintcopyReceipt:
 9312              	.LFB99:
2038:.\DisplayBLL.c **** void PrintcopyReceipt(void *pparam)
2039:.\DisplayBLL.c **** {
 9313              		.loc 1 2039 0
 9314              		.cfi_startproc
 9315              		@ args = 0, pretend = 0, frame = 24
 9316              		@ frame_needed = 1, uses_anonymous_args = 0
 9317 0000 80B5     		push	{r7, lr}
 9318              		.cfi_def_cfa_offset 8
 9319              		.cfi_offset 7, -8
 9320              		.cfi_offset 14, -4
 9321 0002 86B0     		sub	sp, sp, #24
 9322              		.cfi_def_cfa_offset 32
 9323 0004 00AF     		add	r7, sp, #0
 9324              		.cfi_def_cfa_register 7
 9325 0006 7860     		str	r0, [r7, #4]
2040:.\DisplayBLL.c ****     PDISPLAYLAYOUTPTR pdisplay = (PDISPLAYLAYOUTPTR)pparam;
 9326              		.loc 1 2040 0
 9327 0008 7B68     		ldr	r3, [r7, #4]
 9328 000a 7B61     		str	r3, [r7, #20]
2041:.\DisplayBLL.c ****     //HERE WE ATTEMPT TO PUSH THE TRANSACTION INTO THE PUMP'S TRANSACTIONAL QUEUE.
2042:.\DisplayBLL.c ****     //THIS IS DONE ONLY IF THERE IS ROOM IN THE QUEUE, OTHERWISE THIS STATE WON'T
2043:.\DisplayBLL.c ****     //BE REPORTED TO THE REMOTE PEER.
ARM GAS  C:\Users\RECEPC~1\AppData\Local\Temp\ccNQpeOs.s 			page 202


2044:.\DisplayBLL.c ****     PNEAR_PUMPPTR ppumpptr = &_g_pumps[GetPumpIndexFromDisplay(pdisplay)];
 9329              		.loc 1 2044 0
 9330 000c 7869     		ldr	r0, [r7, #20]
 9331 000e FFF7FEFF 		bl	GetPumpIndexFromDisplay
 9332 0012 0346     		mov	r3, r0
 9333 0014 1A46     		mov	r2, r3
 9334 0016 40F6C833 		movw	r3, #3016
 9335 001a 03FB02F3 		mul	r3, r3, r2
 9336 001e 1F4A     		ldr	r2, .L336
 9337 0020 1344     		add	r3, r3, r2
 9338 0022 3B61     		str	r3, [r7, #16]
2045:.\DisplayBLL.c ****     if(ppumpptr)
 9339              		.loc 1 2045 0
 9340 0024 3B69     		ldr	r3, [r7, #16]
 9341 0026 002B     		cmp	r3, #0
 9342 0028 35D0     		beq	.L334
 9343              	.LBB111:
2046:.\DisplayBLL.c ****     {
2047:.\DisplayBLL.c ****         ppumpptr->PumpTransQueueLock(ppumpptr);
 9344              		.loc 1 2047 0
 9345 002a 3B69     		ldr	r3, [r7, #16]
 9346 002c D3F8443B 		ldr	r3, [r3, #2884]
 9347 0030 3869     		ldr	r0, [r7, #16]
 9348 0032 9847     		blx	r3
2048:.\DisplayBLL.c ****         PNEAR_PUMPTRANSACTIONALSTATEPTR pts = ppumpptr->PumpTransQueueAllocate(ppumpptr);
 9349              		.loc 1 2048 0
 9350 0034 3B69     		ldr	r3, [r7, #16]
 9351 0036 D3F8583B 		ldr	r3, [r3, #2904]
 9352 003a 3869     		ldr	r0, [r7, #16]
 9353 003c 9847     		blx	r3
 9354 003e F860     		str	r0, [r7, #12]
2049:.\DisplayBLL.c ****         ppumpptr->PumpTransQueueUnlock(ppumpptr);
 9355              		.loc 1 2049 0
 9356 0040 3B69     		ldr	r3, [r7, #16]
 9357 0042 D3F8483B 		ldr	r3, [r3, #2888]
 9358 0046 3869     		ldr	r0, [r7, #16]
 9359 0048 9847     		blx	r3
2050:.\DisplayBLL.c ****         if(pts)
 9360              		.loc 1 2050 0
 9361 004a FB68     		ldr	r3, [r7, #12]
 9362 004c 002B     		cmp	r3, #0
 9363 004e 22D0     		beq	.L334
 9364              	.LBB112:
2051:.\DisplayBLL.c ****         {
2052:.\DisplayBLL.c ****             uint8 index = 0;
 9365              		.loc 1 2052 0
 9366 0050 0023     		movs	r3, #0
 9367 0052 FB72     		strb	r3, [r7, #11]
2053:.\DisplayBLL.c ****             pts->_transtate = RF_MUX_COPY_REQUEST;
 9368              		.loc 1 2053 0
 9369 0054 FB68     		ldr	r3, [r7, #12]
 9370 0056 E622     		movs	r2, #230
 9371 0058 5A70     		strb	r2, [r3, #1]
2054:.\DisplayBLL.c ****             //Pump ID always comes in the first position (0x00)
2055:.\DisplayBLL.c ****             pts->_buffer[index++] = ppumpptr->_pumpid;
 9372              		.loc 1 2055 0
 9373 005a FB7A     		ldrb	r3, [r7, #11]	@ zero_extendqisi2
ARM GAS  C:\Users\RECEPC~1\AppData\Local\Temp\ccNQpeOs.s 			page 203


 9374 005c 5A1C     		adds	r2, r3, #1
 9375 005e FA72     		strb	r2, [r7, #11]
 9376 0060 1946     		mov	r1, r3
 9377 0062 3B69     		ldr	r3, [r7, #16]
 9378 0064 1A78     		ldrb	r2, [r3]	@ zero_extendqisi2
 9379 0066 FB68     		ldr	r3, [r7, #12]
 9380 0068 0B44     		add	r3, r3, r1
 9381 006a 9A70     		strb	r2, [r3, #2]
2056:.\DisplayBLL.c ****       
2057:.\DisplayBLL.c ****             pts->_buffersize = index;
 9382              		.loc 1 2057 0
 9383 006c FB7A     		ldrb	r3, [r7, #11]	@ zero_extendqisi2
 9384 006e 9AB2     		uxth	r2, r3
 9385 0070 FB68     		ldr	r3, [r7, #12]
 9386 0072 A3F80221 		strh	r2, [r3, #258]	@ movhi
2058:.\DisplayBLL.c **** 
2059:.\DisplayBLL.c ****             ppumpptr->PumpTransQueueLock(ppumpptr);
 9387              		.loc 1 2059 0
 9388 0076 3B69     		ldr	r3, [r7, #16]
 9389 0078 D3F8443B 		ldr	r3, [r3, #2884]
 9390 007c 3869     		ldr	r0, [r7, #16]
 9391 007e 9847     		blx	r3
2060:.\DisplayBLL.c ****             ppumpptr->PumpTransQueueEnqueue(ppumpptr, pts);
 9392              		.loc 1 2060 0
 9393 0080 3B69     		ldr	r3, [r7, #16]
 9394 0082 D3F8503B 		ldr	r3, [r3, #2896]
 9395 0086 3869     		ldr	r0, [r7, #16]
 9396 0088 F968     		ldr	r1, [r7, #12]
 9397 008a 9847     		blx	r3
2061:.\DisplayBLL.c ****             ppumpptr->PumpTransQueueUnlock(ppumpptr);            
 9398              		.loc 1 2061 0
 9399 008c 3B69     		ldr	r3, [r7, #16]
 9400 008e D3F8483B 		ldr	r3, [r3, #2888]
 9401 0092 3869     		ldr	r0, [r7, #16]
 9402 0094 9847     		blx	r3
 9403              	.L334:
 9404              	.LBE112:
 9405              	.LBE111:
2062:.\DisplayBLL.c ****         }
2063:.\DisplayBLL.c ****     }        
2064:.\DisplayBLL.c **** }
 9406              		.loc 1 2064 0
 9407 0096 1837     		adds	r7, r7, #24
 9408              		.cfi_def_cfa_offset 8
 9409 0098 BD46     		mov	sp, r7
 9410              		.cfi_def_cfa_register 13
 9411              		@ sp needed
 9412 009a 80BD     		pop	{r7, pc}
 9413              	.L337:
 9414              		.align	2
 9415              	.L336:
 9416 009c 00000000 		.word	_g_pumps
 9417              		.cfi_endproc
 9418              	.LFE99:
 9419              		.size	PrintcopyReceipt, .-PrintcopyReceipt
 9420              		.section	.text.Display2Logic,"ax",%progbits
 9421              		.align	2
ARM GAS  C:\Users\RECEPC~1\AppData\Local\Temp\ccNQpeOs.s 			page 204


 9422              		.global	Display2Logic
 9423              		.thumb
 9424              		.thumb_func
 9425              		.type	Display2Logic, %function
 9426              	Display2Logic:
 9427              	.LFB100:
2065:.\DisplayBLL.c **** 
2066:.\DisplayBLL.c **** //@Created By: HIJH
2067:.\DisplayBLL.c **** //@Septembre de 2016
2068:.\DisplayBLL.c **** void Display2Logic(void *pdata)
2069:.\DisplayBLL.c **** {
 9428              		.loc 1 2069 0
 9429              		.cfi_startproc
 9430              		@ args = 0, pretend = 0, frame = 56
 9431              		@ frame_needed = 1, uses_anonymous_args = 0
 9432 0000 90B5     		push	{r4, r7, lr}
 9433              		.cfi_def_cfa_offset 12
 9434              		.cfi_offset 4, -12
 9435              		.cfi_offset 7, -8
 9436              		.cfi_offset 14, -4
 9437 0002 8FB0     		sub	sp, sp, #60
 9438              		.cfi_def_cfa_offset 72
 9439 0004 00AF     		add	r7, sp, #0
 9440              		.cfi_def_cfa_register 7
 9441 0006 7860     		str	r0, [r7, #4]
2070:.\DisplayBLL.c ****     PSINKMESSAGEPTR pmsg = (PSINKMESSAGEPTR)pdata;
 9442              		.loc 1 2070 0
 9443 0008 7B68     		ldr	r3, [r7, #4]
 9444 000a FB62     		str	r3, [r7, #44]
2071:.\DisplayBLL.c **** 
2072:.\DisplayBLL.c ****     ///////////////////////////////////////////////////////
2073:.\DisplayBLL.c ****     //TEMPORARILY DISABLED TO ALLOW TESTING OTHER FEATURES!!
2074:.\DisplayBLL.c ****     if(_g_dispenserlayoutinfo._inconfiguration)
 9445              		.loc 1 2074 0
 9446 000c 664B     		ldr	r3, .L355
 9447 000e 1B78     		ldrb	r3, [r3]
 9448 0010 DBB2     		uxtb	r3, r3
 9449 0012 002B     		cmp	r3, #0
 9450 0014 00D0     		beq	.L339
2075:.\DisplayBLL.c ****         goto CLOSEDISPLAY2;
 9451              		.loc 1 2075 0
 9452 0016 BEE0     		b	.L340
 9453              	.L339:
2076:.\DisplayBLL.c ****     ///////////////////////////////////////////////////////
2077:.\DisplayBLL.c ****     
2078:.\DisplayBLL.c ****     _g_display2._starting = false;
 9454              		.loc 1 2078 0
 9455 0018 644B     		ldr	r3, .L355+4
 9456 001a 0022     		movs	r2, #0
 9457 001c 5A73     		strb	r2, [r3, #13]
2079:.\DisplayBLL.c ****     
2080:.\DisplayBLL.c ****     _g_display2._currscrcode = ParseDisplayStream(pmsg->_buffer, pmsg->_buffersize);
 9458              		.loc 1 2080 0
 9459 001e FB6A     		ldr	r3, [r7, #44]
 9460 0020 03F10C02 		add	r2, r3, #12
 9461 0024 FB6A     		ldr	r3, [r7, #44]
 9462 0026 B3F88C31 		ldrh	r3, [r3, #396]	@ movhi
ARM GAS  C:\Users\RECEPC~1\AppData\Local\Temp\ccNQpeOs.s 			page 205


 9463 002a 9BB2     		uxth	r3, r3
 9464 002c DBB2     		uxtb	r3, r3
 9465 002e 1046     		mov	r0, r2
 9466 0030 1946     		mov	r1, r3
 9467 0032 FFF7FEFF 		bl	ParseDisplayStream
 9468 0036 0346     		mov	r3, r0
 9469 0038 1A46     		mov	r2, r3
 9470 003a 5C4B     		ldr	r3, .L355+4
 9471 003c DA70     		strb	r2, [r3, #3]
2081:.\DisplayBLL.c ****     ParseDisplayFlow(&_g_display2);
 9472              		.loc 1 2081 0
 9473 003e 5B48     		ldr	r0, .L355+4
 9474 0040 FFF7FEFF 		bl	ParseDisplayFlow
2082:.\DisplayBLL.c ****     if(_g_display2._nextscrid != DISPLAY_NULL || 
 9475              		.loc 1 2082 0
 9476 0044 594B     		ldr	r3, .L355+4
 9477 0046 9B78     		ldrb	r3, [r3, #2]	@ zero_extendqisi2
 9478 0048 FF2B     		cmp	r3, #255
 9479 004a 08D1     		bne	.L341
2083:.\DisplayBLL.c ****         _g_display2._statechangescrid != DISPLAY_NULL ||
 9480              		.loc 1 2083 0 discriminator 1
 9481 004c 574B     		ldr	r3, .L355+4
 9482 004e 5B79     		ldrb	r3, [r3, #5]	@ zero_extendqisi2
2082:.\DisplayBLL.c ****     if(_g_display2._nextscrid != DISPLAY_NULL || 
 9483              		.loc 1 2082 0 discriminator 1
 9484 0050 FF2B     		cmp	r3, #255
 9485 0052 04D1     		bne	.L341
2084:.\DisplayBLL.c ****         _g_display2._timeoutscrid != DISPLAY_NULL)
 9486              		.loc 1 2084 0
 9487 0054 554B     		ldr	r3, .L355+4
 9488 0056 9B7A     		ldrb	r3, [r3, #10]	@ zero_extendqisi2
2083:.\DisplayBLL.c ****         _g_display2._statechangescrid != DISPLAY_NULL ||
 9489              		.loc 1 2083 0
 9490 0058 FF2B     		cmp	r3, #255
 9491 005a 00F09280 		beq	.L342
 9492              	.L341:
 9493              	.LBB113:
2085:.\DisplayBLL.c ****     {
2086:.\DisplayBLL.c ****         //Here comes the validation for the state of the work shift 
2087:.\DisplayBLL.c ****         if(_g_display2.DisplayValidator)
 9494              		.loc 1 2087 0
 9495 005e 534B     		ldr	r3, .L355+4
 9496 0060 9B6B     		ldr	r3, [r3, #56]
 9497 0062 002B     		cmp	r3, #0
 9498 0064 03D0     		beq	.L343
2088:.\DisplayBLL.c ****             _g_display2.DisplayValidator(&_g_display2);
 9499              		.loc 1 2088 0
 9500 0066 514B     		ldr	r3, .L355+4
 9501 0068 9B6B     		ldr	r3, [r3, #56]
 9502 006a 5048     		ldr	r0, .L355+4
 9503 006c 9847     		blx	r3
 9504              	.L343:
2089:.\DisplayBLL.c ****         
2090:.\DisplayBLL.c ****         bool validate = true;
 9505              		.loc 1 2090 0
 9506 006e 0123     		movs	r3, #1
 9507 0070 87F83730 		strb	r3, [r7, #55]
ARM GAS  C:\Users\RECEPC~1\AppData\Local\Temp\ccNQpeOs.s 			page 206


2091:.\DisplayBLL.c ****         PNEAR_BYTE_PTR piterptr = &_g_dispvalcodes[0x00];
 9508              		.loc 1 2091 0
 9509 0074 4E4B     		ldr	r3, .L355+8
 9510 0076 3B63     		str	r3, [r7, #48]
2092:.\DisplayBLL.c ****         while(*piterptr != 0xFF)
 9511              		.loc 1 2092 0
 9512 0078 0CE0     		b	.L344
 9513              	.L347:
2093:.\DisplayBLL.c ****         {
2094:.\DisplayBLL.c ****             if(*piterptr == _g_display2._currscrcode)
 9514              		.loc 1 2094 0
 9515 007a 3B6B     		ldr	r3, [r7, #48]
 9516 007c 1A78     		ldrb	r2, [r3]	@ zero_extendqisi2
 9517 007e 4B4B     		ldr	r3, .L355+4
 9518 0080 DB78     		ldrb	r3, [r3, #3]	@ zero_extendqisi2
 9519 0082 9A42     		cmp	r2, r3
 9520 0084 03D1     		bne	.L345
2095:.\DisplayBLL.c ****             {
2096:.\DisplayBLL.c ****                 validate = false;
 9521              		.loc 1 2096 0
 9522 0086 0023     		movs	r3, #0
 9523 0088 87F83730 		strb	r3, [r7, #55]
2097:.\DisplayBLL.c ****                 break;
 9524              		.loc 1 2097 0
 9525 008c 06E0     		b	.L346
 9526              	.L345:
2098:.\DisplayBLL.c ****             }
2099:.\DisplayBLL.c ****             piterptr++;
 9527              		.loc 1 2099 0
 9528 008e 3B6B     		ldr	r3, [r7, #48]
 9529 0090 0133     		adds	r3, r3, #1
 9530 0092 3B63     		str	r3, [r7, #48]
 9531              	.L344:
2092:.\DisplayBLL.c ****         {
 9532              		.loc 1 2092 0
 9533 0094 3B6B     		ldr	r3, [r7, #48]
 9534 0096 1B78     		ldrb	r3, [r3]	@ zero_extendqisi2
 9535 0098 FF2B     		cmp	r3, #255
 9536 009a EED1     		bne	.L347
 9537              	.L346:
2100:.\DisplayBLL.c ****         }
2101:.\DisplayBLL.c ****         
2102:.\DisplayBLL.c ****         if(validate)
 9538              		.loc 1 2102 0
 9539 009c 97F83730 		ldrb	r3, [r7, #55]	@ zero_extendqisi2
 9540 00a0 002B     		cmp	r3, #0
 9541 00a2 1CD0     		beq	.L348
 9542              	.LBB114:
2103:.\DisplayBLL.c ****         {
2104:.\DisplayBLL.c ****             FPTRINPUTVALIDATOR fptrvalidator = DisplayFlowInputValidator(&_g_display2);
 9543              		.loc 1 2104 0
 9544 00a4 4148     		ldr	r0, .L355+4
 9545 00a6 FFF7FEFF 		bl	DisplayFlowInputValidator
 9546 00aa 7862     		str	r0, [r7, #36]
2105:.\DisplayBLL.c ****             if(fptrvalidator)
 9547              		.loc 1 2105 0
 9548 00ac 7B6A     		ldr	r3, [r7, #36]
ARM GAS  C:\Users\RECEPC~1\AppData\Local\Temp\ccNQpeOs.s 			page 207


 9549 00ae 002B     		cmp	r3, #0
 9550 00b0 15D0     		beq	.L348
2106:.\DisplayBLL.c ****                 if(!fptrvalidator(&_g_display2))
 9551              		.loc 1 2106 0
 9552 00b2 7B6A     		ldr	r3, [r7, #36]
 9553 00b4 3D48     		ldr	r0, .L355+4
 9554 00b6 9847     		blx	r3
 9555 00b8 0346     		mov	r3, r0
 9556 00ba 83F00103 		eor	r3, r3, #1
 9557 00be DBB2     		uxtb	r3, r3
 9558 00c0 002B     		cmp	r3, #0
 9559 00c2 0CD0     		beq	.L348
2107:.\DisplayBLL.c ****                 {
2108:.\DisplayBLL.c ****                     _g_display2._timeoutscrid = _g_display2._statechangescrid = _g_display2._nextsc
 9560              		.loc 1 2108 0
 9561 00c4 394B     		ldr	r3, .L355+4
 9562 00c6 FF22     		movs	r2, #255
 9563 00c8 9A70     		strb	r2, [r3, #2]
 9564 00ca 384B     		ldr	r3, .L355+4
 9565 00cc 9A78     		ldrb	r2, [r3, #2]	@ zero_extendqisi2
 9566 00ce 374B     		ldr	r3, .L355+4
 9567 00d0 5A71     		strb	r2, [r3, #5]
 9568 00d2 364B     		ldr	r3, .L355+4
 9569 00d4 5A79     		ldrb	r2, [r3, #5]	@ zero_extendqisi2
 9570 00d6 354B     		ldr	r3, .L355+4
 9571 00d8 9A72     		strb	r2, [r3, #10]
2109:.\DisplayBLL.c ****                     goto CLOSEDISPLAY2;
 9572              		.loc 1 2109 0
 9573 00da 00BF     		nop
 9574 00dc 5BE0     		b	.L340
 9575              	.L348:
 9576              	.LBE114:
2110:.\DisplayBLL.c ****                 }
2111:.\DisplayBLL.c ****         }
2112:.\DisplayBLL.c **** 
2113:.\DisplayBLL.c ****         ///////////////////////////////////////////////////////////////////////////////////////////
2114:.\DisplayBLL.c ****         //TODO: HERE WE NEED TO POST OR PROCESS THE INPUT BUFFER (CAPTURED THROUGH THE INPUT BOX IF
2115:.\DisplayBLL.c ****         //SINCE IT WILL BE CLEANED UP IN THE NEXT LINE
2116:.\DisplayBLL.c ****         //IT MUST BE POSTED THROUGH THE MESSAGE SINK TO THE BLL RELATED COMPONENT
2117:.\DisplayBLL.c ****         StoreTransactionData(&_g_display2);
 9577              		.loc 1 2117 0
 9578 00de 3348     		ldr	r0, .L355+4
 9579 00e0 FFF7FEFF 		bl	StoreTransactionData
2118:.\DisplayBLL.c **** 
2119:.\DisplayBLL.c ****         FPTRFINALIZER fptrfinalizer = DisplayFinalizer(&_g_display2);
 9580              		.loc 1 2119 0
 9581 00e4 3148     		ldr	r0, .L355+4
 9582 00e6 FFF7FEFF 		bl	DisplayFinalizer
 9583 00ea 3862     		str	r0, [r7, #32]
2120:.\DisplayBLL.c ****         if(fptrfinalizer)
 9584              		.loc 1 2120 0
 9585 00ec 3B6A     		ldr	r3, [r7, #32]
 9586 00ee 002B     		cmp	r3, #0
 9587 00f0 02D0     		beq	.L350
2121:.\DisplayBLL.c ****             fptrfinalizer(&_g_display2);
 9588              		.loc 1 2121 0
 9589 00f2 3B6A     		ldr	r3, [r7, #32]
ARM GAS  C:\Users\RECEPC~1\AppData\Local\Temp\ccNQpeOs.s 			page 208


 9590 00f4 2D48     		ldr	r0, .L355+4
 9591 00f6 9847     		blx	r3
 9592              	.L350:
2122:.\DisplayBLL.c ****         
2123:.\DisplayBLL.c ****         PrepareDisplayStructure(&_g_display2);
 9593              		.loc 1 2123 0
 9594 00f8 2C48     		ldr	r0, .L355+4
 9595 00fa FFF7FEFF 		bl	PrepareDisplayStructure
2124:.\DisplayBLL.c **** 
2125:.\DisplayBLL.c ****         FPTRINITIALIZER fptrinitializer = DisplayInitializer(&_g_display2);
 9596              		.loc 1 2125 0
 9597 00fe 2B48     		ldr	r0, .L355+4
 9598 0100 FFF7FEFF 		bl	DisplayInitializer
 9599 0104 F861     		str	r0, [r7, #28]
2126:.\DisplayBLL.c ****         if(fptrinitializer)
 9600              		.loc 1 2126 0
 9601 0106 FB69     		ldr	r3, [r7, #28]
 9602 0108 002B     		cmp	r3, #0
 9603 010a 02D0     		beq	.L351
2127:.\DisplayBLL.c ****             fptrinitializer(&_g_display2);
 9604              		.loc 1 2127 0
 9605 010c FB69     		ldr	r3, [r7, #28]
 9606 010e 2748     		ldr	r0, .L355+4
 9607 0110 9847     		blx	r3
 9608              	.L351:
2128:.\DisplayBLL.c ****         
2129:.\DisplayBLL.c ****         //This is a static structure for the display screen selection command
2130:.\DisplayBLL.c ****         char8 pbuffer[] = { 0xAA, 0x70, (_g_display2._pcurrflow->_scrid >> 8) & 0xFF, _g_display2._
 9609              		.loc 1 2130 0
 9610 0112 AA23     		movs	r3, #170
 9611 0114 3B73     		strb	r3, [r7, #12]
 9612 0116 7023     		movs	r3, #112
 9613 0118 7B73     		strb	r3, [r7, #13]
 9614 011a 0023     		movs	r3, #0
 9615 011c BB73     		strb	r3, [r7, #14]
 9616 011e 234B     		ldr	r3, .L355+4
 9617 0120 1B69     		ldr	r3, [r3, #16]
 9618 0122 1B78     		ldrb	r3, [r3]	@ zero_extendqisi2
 9619 0124 FB73     		strb	r3, [r7, #15]
 9620 0126 CC23     		movs	r3, #204
 9621 0128 3B74     		strb	r3, [r7, #16]
 9622 012a 3323     		movs	r3, #51
 9623 012c 7B74     		strb	r3, [r7, #17]
 9624 012e C323     		movs	r3, #195
 9625 0130 BB74     		strb	r3, [r7, #18]
 9626 0132 3C23     		movs	r3, #60
 9627 0134 FB74     		strb	r3, [r7, #19]
2131:.\DisplayBLL.c ****         PUARTMESSAGEPTR puartdisp = GetUARTMessageSlot(UART_DISPLAY2);
 9628              		.loc 1 2131 0
 9629 0136 A420     		movs	r0, #164
 9630 0138 FFF7FEFF 		bl	GetUARTMessageSlot
 9631 013c B861     		str	r0, [r7, #24]
2132:.\DisplayBLL.c ****         if(puartdisp)
 9632              		.loc 1 2132 0
 9633 013e BB69     		ldr	r3, [r7, #24]
 9634 0140 002B     		cmp	r3, #0
 9635 0142 12D0     		beq	.L352
ARM GAS  C:\Users\RECEPC~1\AppData\Local\Temp\ccNQpeOs.s 			page 209


2133:.\DisplayBLL.c ****         {
2134:.\DisplayBLL.c ****             puartdisp->_messagelength = sizeof(pbuffer) / sizeof(pbuffer[0]);
 9636              		.loc 1 2134 0
 9637 0144 BB69     		ldr	r3, [r7, #24]
 9638 0146 0822     		movs	r2, #8
 9639 0148 5A80     		strh	r2, [r3, #2]	@ movhi
2135:.\DisplayBLL.c ****             memcpy(puartdisp->_messagetx, pbuffer, puartdisp->_messagelength);
 9640              		.loc 1 2135 0
 9641 014a BB69     		ldr	r3, [r7, #24]
 9642 014c 1A1D     		adds	r2, r3, #4
 9643 014e BB69     		ldr	r3, [r7, #24]
 9644 0150 5B88     		ldrh	r3, [r3, #2]	@ movhi
 9645 0152 9BB2     		uxth	r3, r3
 9646 0154 1C46     		mov	r4, r3
 9647 0156 07F10C03 		add	r3, r7, #12
 9648 015a 1046     		mov	r0, r2
 9649 015c 1946     		mov	r1, r3
 9650 015e 2246     		mov	r2, r4
 9651 0160 FFF7FEFF 		bl	memcpy
2136:.\DisplayBLL.c ****             puartdisp->_messagestate = PENDING;
 9652              		.loc 1 2136 0
 9653 0164 BB69     		ldr	r3, [r7, #24]
 9654 0166 C222     		movs	r2, #194
 9655 0168 1A70     		strb	r2, [r3]
 9656              	.L352:
2137:.\DisplayBLL.c ****         }
2138:.\DisplayBLL.c ****         
2139:.\DisplayBLL.c ****         FPTRDECORATOR fptrdecorator = DisplayFlowDecorator(&_g_display2);
 9657              		.loc 1 2139 0
 9658 016a 1048     		ldr	r0, .L355+4
 9659 016c FFF7FEFF 		bl	DisplayFlowDecorator
 9660 0170 7861     		str	r0, [r7, #20]
2140:.\DisplayBLL.c ****         if(fptrdecorator)
 9661              		.loc 1 2140 0
 9662 0172 7B69     		ldr	r3, [r7, #20]
 9663 0174 002B     		cmp	r3, #0
 9664 0176 03D0     		beq	.L353
2141:.\DisplayBLL.c ****             fptrdecorator(&_g_display2);
 9665              		.loc 1 2141 0
 9666 0178 7B69     		ldr	r3, [r7, #20]
 9667 017a 0C48     		ldr	r0, .L355+4
 9668 017c 9847     		blx	r3
 9669              	.LBE113:
2085:.\DisplayBLL.c ****         //Here comes the validation for the state of the work shift 
 9670              		.loc 1 2085 0
 9671 017e 0AE0     		b	.L340
 9672              	.L353:
 9673 0180 09E0     		b	.L340
 9674              	.L342:
 9675              	.LBB115:
2142:.\DisplayBLL.c **** 
2143:.\DisplayBLL.c ****     }
2144:.\DisplayBLL.c ****     else
2145:.\DisplayBLL.c ****     {
2146:.\DisplayBLL.c ****         //Input capture processing here for all of the displays that allow data input
2147:.\DisplayBLL.c ****         FPTRINPUTHANDLER fptrhandler = DisplayFlowInputHandler(&_g_display2);
 9676              		.loc 1 2147 0
ARM GAS  C:\Users\RECEPC~1\AppData\Local\Temp\ccNQpeOs.s 			page 210


 9677 0182 0A48     		ldr	r0, .L355+4
 9678 0184 FFF7FEFF 		bl	DisplayFlowInputHandler
 9679 0188 B862     		str	r0, [r7, #40]
2148:.\DisplayBLL.c ****         if(fptrhandler)
 9680              		.loc 1 2148 0
 9681 018a BB6A     		ldr	r3, [r7, #40]
 9682 018c 002B     		cmp	r3, #0
 9683 018e 02D0     		beq	.L340
2149:.\DisplayBLL.c ****             fptrhandler(&_g_display2);
 9684              		.loc 1 2149 0
 9685 0190 BB6A     		ldr	r3, [r7, #40]
 9686 0192 0648     		ldr	r0, .L355+4
 9687 0194 9847     		blx	r3
 9688              	.L340:
 9689              	.LBE115:
2150:.\DisplayBLL.c ****     }
2151:.\DisplayBLL.c ****     CLOSEDISPLAY2:
2152:.\DisplayBLL.c ****     Display2_ClearRxBuffer();
 9690              		.loc 1 2152 0
 9691 0196 FFF7FEFF 		bl	Display2_ClearRxBuffer
2153:.\DisplayBLL.c ****     Display2_Enable();
 9692              		.loc 1 2153 0
 9693 019a FFF7FEFF 		bl	Display2_Enable
2154:.\DisplayBLL.c ****     return;
 9694              		.loc 1 2154 0
 9695 019e 00BF     		nop
2155:.\DisplayBLL.c **** }
 9696              		.loc 1 2155 0
 9697 01a0 3C37     		adds	r7, r7, #60
 9698              		.cfi_def_cfa_offset 12
 9699 01a2 BD46     		mov	sp, r7
 9700              		.cfi_def_cfa_register 13
 9701              		@ sp needed
 9702 01a4 90BD     		pop	{r4, r7, pc}
 9703              	.L356:
 9704 01a6 00BF     		.align	2
 9705              	.L355:
 9706 01a8 00000000 		.word	_g_dispenserlayoutinfo
 9707 01ac 00000000 		.word	_g_display2
 9708 01b0 00000000 		.word	_g_dispvalcodes
 9709              		.cfi_endproc
 9710              	.LFE100:
 9711              		.size	Display2Logic, .-Display2Logic
 9712              		.text
 9713              	.Letext0:
 9714              		.file 2 "c:\\program files (x86)\\cypress\\psoc creator\\3.3\\psoc creator\\import\\gnu\\arm\\4.9.
 9715              		.file 3 "c:\\program files (x86)\\cypress\\psoc creator\\3.3\\psoc creator\\import\\gnu\\arm\\4.9.
 9716              		.file 4 "Generated_Source\\PSoC5/cytypes.h"
 9717              		.file 5 ".\\GlobalDefinitions.h"
 9718              		.file 6 ".\\UARTManager.h"
 9719              		.file 7 ".\\SinkManager.h"
 9720              		.file 8 ".\\SinkObservables.h"
 9721              		.file 9 ".\\Advantage.h"
 9722              		.file 10 ".\\Display.h"
 9723              		.file 11 ".\\RFLink.h"
 9724              		.file 12 ".\\Printer.h"
 9725              		.file 13 ".\\Eeprom.h"
ARM GAS  C:\Users\RECEPC~1\AppData\Local\Temp\ccNQpeOs.s 			page 211


 9726              		.file 14 ".\\Rtc.h"
 9727              		.file 15 "Generated_Source\\PSoC5/core_cm3.h"
 9728              		.file 16 ".\\Configuration.h"
 9729              		.section	.debug_info,"",%progbits
 9730              	.Ldebug_info0:
 9731 0000 D52D0000 		.4byte	0x2dd5
 9732 0004 0400     		.2byte	0x4
 9733 0006 00000000 		.4byte	.Ldebug_abbrev0
 9734 000a 04       		.byte	0x4
 9735 000b 01       		.uleb128 0x1
 9736 000c A9250000 		.4byte	.LASF574
 9737 0010 01       		.byte	0x1
 9738 0011 C7200000 		.4byte	.LASF575
 9739 0015 CA180000 		.4byte	.LASF576
 9740 0019 18000000 		.4byte	.Ldebug_ranges0+0x18
 9741 001d 00000000 		.4byte	0
 9742 0021 00000000 		.4byte	.Ldebug_line0
 9743 0025 02       		.uleb128 0x2
 9744 0026 01       		.byte	0x1
 9745 0027 06       		.byte	0x6
 9746 0028 880A0000 		.4byte	.LASF0
 9747 002c 02       		.uleb128 0x2
 9748 002d 01       		.byte	0x1
 9749 002e 08       		.byte	0x8
 9750 002f A90B0000 		.4byte	.LASF1
 9751 0033 02       		.uleb128 0x2
 9752 0034 02       		.byte	0x2
 9753 0035 05       		.byte	0x5
 9754 0036 3B240000 		.4byte	.LASF2
 9755 003a 02       		.uleb128 0x2
 9756 003b 02       		.byte	0x2
 9757 003c 07       		.byte	0x7
 9758 003d D7280000 		.4byte	.LASF3
 9759 0041 03       		.uleb128 0x3
 9760 0042 6D290000 		.4byte	.LASF9
 9761 0046 02       		.byte	0x2
 9762 0047 3F       		.byte	0x3f
 9763 0048 4C000000 		.4byte	0x4c
 9764 004c 02       		.uleb128 0x2
 9765 004d 04       		.byte	0x4
 9766 004e 05       		.byte	0x5
 9767 004f CD070000 		.4byte	.LASF4
 9768 0053 02       		.uleb128 0x2
 9769 0054 04       		.byte	0x4
 9770 0055 07       		.byte	0x7
 9771 0056 38140000 		.4byte	.LASF5
 9772 005a 02       		.uleb128 0x2
 9773 005b 08       		.byte	0x8
 9774 005c 05       		.byte	0x5
 9775 005d 2D170000 		.4byte	.LASF6
 9776 0061 02       		.uleb128 0x2
 9777 0062 08       		.byte	0x8
 9778 0063 07       		.byte	0x7
 9779 0064 831F0000 		.4byte	.LASF7
 9780 0068 04       		.uleb128 0x4
 9781 0069 04       		.byte	0x4
 9782 006a 05       		.byte	0x5
ARM GAS  C:\Users\RECEPC~1\AppData\Local\Temp\ccNQpeOs.s 			page 212


 9783 006b 696E7400 		.ascii	"int\000"
 9784 006f 02       		.uleb128 0x2
 9785 0070 04       		.byte	0x4
 9786 0071 07       		.byte	0x7
 9787 0072 7D1A0000 		.4byte	.LASF8
 9788 0076 03       		.uleb128 0x3
 9789 0077 3B020000 		.4byte	.LASF10
 9790 007b 03       		.byte	0x3
 9791 007c 2C       		.byte	0x2c
 9792 007d 41000000 		.4byte	0x41
 9793 0081 05       		.uleb128 0x5
 9794 0082 91230000 		.4byte	.LASF11
 9795 0086 04       		.byte	0x4
 9796 0087 3801     		.2byte	0x138
 9797 0089 2C000000 		.4byte	0x2c
 9798 008d 05       		.uleb128 0x5
 9799 008e AE2A0000 		.4byte	.LASF12
 9800 0092 04       		.byte	0x4
 9801 0093 3901     		.2byte	0x139
 9802 0095 3A000000 		.4byte	0x3a
 9803 0099 05       		.uleb128 0x5
 9804 009a A5020000 		.4byte	.LASF13
 9805 009e 04       		.byte	0x4
 9806 009f 3A01     		.2byte	0x13a
 9807 00a1 53000000 		.4byte	0x53
 9808 00a5 05       		.uleb128 0x5
 9809 00a6 51050000 		.4byte	.LASF14
 9810 00aa 04       		.byte	0x4
 9811 00ab 3B01     		.2byte	0x13b
 9812 00ad 25000000 		.4byte	0x25
 9813 00b1 02       		.uleb128 0x2
 9814 00b2 04       		.byte	0x4
 9815 00b3 04       		.byte	0x4
 9816 00b4 D7190000 		.4byte	.LASF15
 9817 00b8 02       		.uleb128 0x2
 9818 00b9 08       		.byte	0x8
 9819 00ba 04       		.byte	0x4
 9820 00bb 3B180000 		.4byte	.LASF16
 9821 00bf 05       		.uleb128 0x5
 9822 00c0 C6070000 		.4byte	.LASF17
 9823 00c4 04       		.byte	0x4
 9824 00c5 4401     		.2byte	0x144
 9825 00c7 61000000 		.4byte	0x61
 9826 00cb 05       		.uleb128 0x5
 9827 00cc 6A040000 		.4byte	.LASF18
 9828 00d0 04       		.byte	0x4
 9829 00d1 4901     		.2byte	0x149
 9830 00d3 D7000000 		.4byte	0xd7
 9831 00d7 02       		.uleb128 0x2
 9832 00d8 01       		.byte	0x1
 9833 00d9 08       		.byte	0x8
 9834 00da 700D0000 		.4byte	.LASF19
 9835 00de 06       		.uleb128 0x6
 9836 00df 81000000 		.4byte	0x81
 9837 00e3 06       		.uleb128 0x6
 9838 00e4 8D000000 		.4byte	0x8d
 9839 00e8 06       		.uleb128 0x6
ARM GAS  C:\Users\RECEPC~1\AppData\Local\Temp\ccNQpeOs.s 			page 213


 9840 00e9 99000000 		.4byte	0x99
 9841 00ed 07       		.uleb128 0x7
 9842 00ee 04       		.byte	0x4
 9843 00ef F3000000 		.4byte	0xf3
 9844 00f3 08       		.uleb128 0x8
 9845 00f4 02       		.uleb128 0x2
 9846 00f5 04       		.byte	0x4
 9847 00f6 07       		.byte	0x7
 9848 00f7 A3000000 		.4byte	.LASF20
 9849 00fb 09       		.uleb128 0x9
 9850 00fc 04       		.byte	0x4
 9851 00fd 07       		.uleb128 0x7
 9852 00fe 04       		.byte	0x4
 9853 00ff D7000000 		.4byte	0xd7
 9854 0103 0A       		.uleb128 0xa
 9855 0104 81000000 		.4byte	0x81
 9856 0108 13010000 		.4byte	0x113
 9857 010c 0B       		.uleb128 0xb
 9858 010d F4000000 		.4byte	0xf4
 9859 0111 03       		.byte	0x3
 9860 0112 00       		.byte	0
 9861 0113 02       		.uleb128 0x2
 9862 0114 08       		.byte	0x8
 9863 0115 04       		.byte	0x4
 9864 0116 6E1D0000 		.4byte	.LASF21
 9865 011a 03       		.uleb128 0x3
 9866 011b 671C0000 		.4byte	.LASF22
 9867 011f 05       		.byte	0x5
 9868 0120 29       		.byte	0x29
 9869 0121 FB000000 		.4byte	0xfb
 9870 0125 07       		.uleb128 0x7
 9871 0126 04       		.byte	0x4
 9872 0127 CB000000 		.4byte	0xcb
 9873 012b 03       		.uleb128 0x3
 9874 012c 940A0000 		.4byte	.LASF23
 9875 0130 05       		.byte	0x5
 9876 0131 50       		.byte	0x50
 9877 0132 36010000 		.4byte	0x136
 9878 0136 07       		.uleb128 0x7
 9879 0137 04       		.byte	0x4
 9880 0138 81000000 		.4byte	0x81
 9881 013c 0C       		.uleb128 0xc
 9882 013d FF1A0000 		.4byte	.LASF48
 9883 0141 4C       		.byte	0x4c
 9884 0142 06       		.byte	0x6
 9885 0143 2C       		.byte	0x2c
 9886 0144 2D020000 		.4byte	0x22d
 9887 0148 0D       		.uleb128 0xd
 9888 0149 18210000 		.4byte	.LASF24
 9889 014d 06       		.byte	0x6
 9890 014e 2E       		.byte	0x2e
 9891 014f 81000000 		.4byte	0x81
 9892 0153 00       		.byte	0
 9893 0154 0D       		.uleb128 0xd
 9894 0155 8A100000 		.4byte	.LASF25
 9895 0159 06       		.byte	0x6
 9896 015a 31       		.byte	0x31
ARM GAS  C:\Users\RECEPC~1\AppData\Local\Temp\ccNQpeOs.s 			page 214


 9897 015b 38020000 		.4byte	0x238
 9898 015f 04       		.byte	0x4
 9899 0160 0D       		.uleb128 0xd
 9900 0161 A51D0000 		.4byte	.LASF26
 9901 0165 06       		.byte	0x6
 9902 0166 34       		.byte	0x34
 9903 0167 ED000000 		.4byte	0xed
 9904 016b 08       		.byte	0x8
 9905 016c 0D       		.uleb128 0xd
 9906 016d 61030000 		.4byte	.LASF27
 9907 0171 06       		.byte	0x6
 9908 0172 35       		.byte	0x35
 9909 0173 ED000000 		.4byte	0xed
 9910 0177 0C       		.byte	0xc
 9911 0178 0D       		.uleb128 0xd
 9912 0179 53200000 		.4byte	.LASF28
 9913 017d 06       		.byte	0x6
 9914 017e 36       		.byte	0x36
 9915 017f 43020000 		.4byte	0x243
 9916 0183 10       		.byte	0x10
 9917 0184 0D       		.uleb128 0xd
 9918 0185 1B1C0000 		.4byte	.LASF29
 9919 0189 06       		.byte	0x6
 9920 018a 37       		.byte	0x37
 9921 018b 54020000 		.4byte	0x254
 9922 018f 14       		.byte	0x14
 9923 0190 0D       		.uleb128 0xd
 9924 0191 43250000 		.4byte	.LASF30
 9925 0195 06       		.byte	0x6
 9926 0196 39       		.byte	0x39
 9927 0197 43020000 		.4byte	0x243
 9928 019b 18       		.byte	0x18
 9929 019c 0D       		.uleb128 0xd
 9930 019d 690E0000 		.4byte	.LASF31
 9931 01a1 06       		.byte	0x6
 9932 01a2 3A       		.byte	0x3a
 9933 01a3 43020000 		.4byte	0x243
 9934 01a7 1C       		.byte	0x1c
 9935 01a8 0D       		.uleb128 0xd
 9936 01a9 DC0A0000 		.4byte	.LASF32
 9937 01ad 06       		.byte	0x6
 9938 01ae 3B       		.byte	0x3b
 9939 01af 43020000 		.4byte	0x243
 9940 01b3 20       		.byte	0x20
 9941 01b4 0D       		.uleb128 0xd
 9942 01b5 D4210000 		.4byte	.LASF33
 9943 01b9 06       		.byte	0x6
 9944 01ba 3C       		.byte	0x3c
 9945 01bb 5F020000 		.4byte	0x25f
 9946 01bf 24       		.byte	0x24
 9947 01c0 0D       		.uleb128 0xd
 9948 01c1 6C010000 		.4byte	.LASF34
 9949 01c5 06       		.byte	0x6
 9950 01c6 3D       		.byte	0x3d
 9951 01c7 5F020000 		.4byte	0x25f
 9952 01cb 28       		.byte	0x28
 9953 01cc 0D       		.uleb128 0xd
ARM GAS  C:\Users\RECEPC~1\AppData\Local\Temp\ccNQpeOs.s 			page 215


 9954 01cd CE0A0000 		.4byte	.LASF35
 9955 01d1 06       		.byte	0x6
 9956 01d2 3E       		.byte	0x3e
 9957 01d3 ED000000 		.4byte	0xed
 9958 01d7 2C       		.byte	0x2c
 9959 01d8 0D       		.uleb128 0xd
 9960 01d9 130D0000 		.4byte	.LASF36
 9961 01dd 06       		.byte	0x6
 9962 01de 40       		.byte	0x40
 9963 01df 54020000 		.4byte	0x254
 9964 01e3 30       		.byte	0x30
 9965 01e4 0D       		.uleb128 0xd
 9966 01e5 8A1A0000 		.4byte	.LASF37
 9967 01e9 06       		.byte	0x6
 9968 01ea 41       		.byte	0x41
 9969 01eb 43020000 		.4byte	0x243
 9970 01ef 34       		.byte	0x34
 9971 01f0 0D       		.uleb128 0xd
 9972 01f1 5E150000 		.4byte	.LASF38
 9973 01f5 06       		.byte	0x6
 9974 01f6 42       		.byte	0x42
 9975 01f7 54020000 		.4byte	0x254
 9976 01fb 38       		.byte	0x38
 9977 01fc 0D       		.uleb128 0xd
 9978 01fd 44100000 		.4byte	.LASF39
 9979 0201 06       		.byte	0x6
 9980 0202 43       		.byte	0x43
 9981 0203 7B020000 		.4byte	0x27b
 9982 0207 3C       		.byte	0x3c
 9983 0208 0D       		.uleb128 0xd
 9984 0209 DC1F0000 		.4byte	.LASF40
 9985 020d 06       		.byte	0x6
 9986 020e 44       		.byte	0x44
 9987 020f 9C020000 		.4byte	0x29c
 9988 0213 40       		.byte	0x40
 9989 0214 0D       		.uleb128 0xd
 9990 0215 0C0F0000 		.4byte	.LASF41
 9991 0219 06       		.byte	0x6
 9992 021a 45       		.byte	0x45
 9993 021b 54020000 		.4byte	0x254
 9994 021f 44       		.byte	0x44
 9995 0220 0D       		.uleb128 0xd
 9996 0221 C4160000 		.4byte	.LASF42
 9997 0225 06       		.byte	0x6
 9998 0226 46       		.byte	0x46
 9999 0227 ED000000 		.4byte	0xed
 10000 022b 48       		.byte	0x48
 10001 022c 00       		.byte	0
 10002 022d 0E       		.uleb128 0xe
 10003 022e 38020000 		.4byte	0x238
 10004 0232 0F       		.uleb128 0xf
 10005 0233 FB000000 		.4byte	0xfb
 10006 0237 00       		.byte	0
 10007 0238 07       		.uleb128 0x7
 10008 0239 04       		.byte	0x4
 10009 023a 2D020000 		.4byte	0x22d
 10010 023e 10       		.uleb128 0x10
ARM GAS  C:\Users\RECEPC~1\AppData\Local\Temp\ccNQpeOs.s 			page 216


 10011 023f 81000000 		.4byte	0x81
 10012 0243 07       		.uleb128 0x7
 10013 0244 04       		.byte	0x4
 10014 0245 3E020000 		.4byte	0x23e
 10015 0249 0E       		.uleb128 0xe
 10016 024a 54020000 		.4byte	0x254
 10017 024e 0F       		.uleb128 0xf
 10018 024f 81000000 		.4byte	0x81
 10019 0253 00       		.byte	0
 10020 0254 07       		.uleb128 0x7
 10021 0255 04       		.byte	0x4
 10022 0256 49020000 		.4byte	0x249
 10023 025a 10       		.uleb128 0x10
 10024 025b 8D000000 		.4byte	0x8d
 10025 025f 07       		.uleb128 0x7
 10026 0260 04       		.byte	0x4
 10027 0261 5A020000 		.4byte	0x25a
 10028 0265 0E       		.uleb128 0xe
 10029 0266 70020000 		.4byte	0x270
 10030 026a 0F       		.uleb128 0xf
 10031 026b 70020000 		.4byte	0x270
 10032 026f 00       		.byte	0
 10033 0270 07       		.uleb128 0x7
 10034 0271 04       		.byte	0x4
 10035 0272 76020000 		.4byte	0x276
 10036 0276 11       		.uleb128 0x11
 10037 0277 CB000000 		.4byte	0xcb
 10038 027b 07       		.uleb128 0x7
 10039 027c 04       		.byte	0x4
 10040 027d 65020000 		.4byte	0x265
 10041 0281 0E       		.uleb128 0xe
 10042 0282 91020000 		.4byte	0x291
 10043 0286 0F       		.uleb128 0xf
 10044 0287 91020000 		.4byte	0x291
 10045 028b 0F       		.uleb128 0xf
 10046 028c 81000000 		.4byte	0x81
 10047 0290 00       		.byte	0
 10048 0291 07       		.uleb128 0x7
 10049 0292 04       		.byte	0x4
 10050 0293 97020000 		.4byte	0x297
 10051 0297 11       		.uleb128 0x11
 10052 0298 81000000 		.4byte	0x81
 10053 029c 07       		.uleb128 0x7
 10054 029d 04       		.byte	0x4
 10055 029e 81020000 		.4byte	0x281
 10056 02a2 03       		.uleb128 0x3
 10057 02a3 66030000 		.4byte	.LASF43
 10058 02a7 06       		.byte	0x6
 10059 02a8 48       		.byte	0x48
 10060 02a9 3C010000 		.4byte	0x13c
 10061 02ad 02       		.uleb128 0x2
 10062 02ae 01       		.byte	0x1
 10063 02af 02       		.byte	0x2
 10064 02b0 D70C0000 		.4byte	.LASF44
 10065 02b4 12       		.uleb128 0x12
 10066 02b5 24060000 		.4byte	.LASF57
 10067 02b9 01       		.byte	0x1
ARM GAS  C:\Users\RECEPC~1\AppData\Local\Temp\ccNQpeOs.s 			page 217


 10068 02ba 06       		.byte	0x6
 10069 02bb 51       		.byte	0x51
 10070 02bc D6020000 		.4byte	0x2d6
 10071 02c0 13       		.uleb128 0x13
 10072 02c1 720C0000 		.4byte	.LASF45
 10073 02c5 C001     		.sleb128 192
 10074 02c7 13       		.uleb128 0x13
 10075 02c8 87230000 		.4byte	.LASF46
 10076 02cc C101     		.sleb128 193
 10077 02ce 13       		.uleb128 0x13
 10078 02cf 7A0B0000 		.4byte	.LASF47
 10079 02d3 C201     		.sleb128 194
 10080 02d5 00       		.byte	0
 10081 02d6 14       		.uleb128 0x14
 10082 02d7 C61D0000 		.4byte	.LASF49
 10083 02db 0C01     		.2byte	0x10c
 10084 02dd 06       		.byte	0x6
 10085 02de 59       		.byte	0x59
 10086 02df 22030000 		.4byte	0x322
 10087 02e3 0D       		.uleb128 0xd
 10088 02e4 B9270000 		.4byte	.LASF50
 10089 02e8 06       		.byte	0x6
 10090 02e9 5B       		.byte	0x5b
 10091 02ea DE000000 		.4byte	0xde
 10092 02ee 00       		.byte	0
 10093 02ef 0D       		.uleb128 0xd
 10094 02f0 C9000000 		.4byte	.LASF51
 10095 02f4 06       		.byte	0x6
 10096 02f5 5C       		.byte	0x5c
 10097 02f6 E3000000 		.4byte	0xe3
 10098 02fa 02       		.byte	0x2
 10099 02fb 0D       		.uleb128 0xd
 10100 02fc 7A080000 		.4byte	.LASF52
 10101 0300 06       		.byte	0x6
 10102 0301 5D       		.byte	0x5d
 10103 0302 22030000 		.4byte	0x322
 10104 0306 04       		.byte	0x4
 10105 0307 15       		.uleb128 0x15
 10106 0308 E5270000 		.4byte	.LASF53
 10107 030c 06       		.byte	0x6
 10108 030d 5E       		.byte	0x5e
 10109 030e 42030000 		.4byte	0x342
 10110 0312 0401     		.2byte	0x104
 10111 0314 15       		.uleb128 0x15
 10112 0315 F82A0000 		.4byte	.LASF54
 10113 0319 06       		.byte	0x6
 10114 031a 60       		.byte	0x60
 10115 031b 48030000 		.4byte	0x348
 10116 031f 0801     		.2byte	0x108
 10117 0321 00       		.byte	0
 10118 0322 0A       		.uleb128 0xa
 10119 0323 CB000000 		.4byte	0xcb
 10120 0327 32030000 		.4byte	0x332
 10121 032b 0B       		.uleb128 0xb
 10122 032c F4000000 		.4byte	0xf4
 10123 0330 FF       		.byte	0xff
 10124 0331 00       		.byte	0
ARM GAS  C:\Users\RECEPC~1\AppData\Local\Temp\ccNQpeOs.s 			page 218


 10125 0332 0E       		.uleb128 0xe
 10126 0333 42030000 		.4byte	0x342
 10127 0337 0F       		.uleb128 0xf
 10128 0338 81000000 		.4byte	0x81
 10129 033c 0F       		.uleb128 0xf
 10130 033d 25010000 		.4byte	0x125
 10131 0341 00       		.byte	0
 10132 0342 07       		.uleb128 0x7
 10133 0343 04       		.byte	0x4
 10134 0344 32030000 		.4byte	0x332
 10135 0348 07       		.uleb128 0x7
 10136 0349 04       		.byte	0x4
 10137 034a A2020000 		.4byte	0x2a2
 10138 034e 03       		.uleb128 0x3
 10139 034f E3000000 		.4byte	.LASF55
 10140 0353 06       		.byte	0x6
 10141 0354 61       		.byte	0x61
 10142 0355 D6020000 		.4byte	0x2d6
 10143 0359 03       		.uleb128 0x3
 10144 035a 4D1E0000 		.4byte	.LASF56
 10145 035e 06       		.byte	0x6
 10146 035f 61       		.byte	0x61
 10147 0360 64030000 		.4byte	0x364
 10148 0364 07       		.uleb128 0x7
 10149 0365 04       		.byte	0x4
 10150 0366 D6020000 		.4byte	0x2d6
 10151 036a 12       		.uleb128 0x12
 10152 036b 8F250000 		.4byte	.LASF58
 10153 036f 01       		.byte	0x1
 10154 0370 06       		.byte	0x6
 10155 0371 6D       		.byte	0x6d
 10156 0372 A1030000 		.4byte	0x3a1
 10157 0376 13       		.uleb128 0x13
 10158 0377 33020000 		.4byte	.LASF59
 10159 037b A001     		.sleb128 160
 10160 037d 13       		.uleb128 0x13
 10161 037e 190E0000 		.4byte	.LASF60
 10162 0382 A101     		.sleb128 161
 10163 0384 13       		.uleb128 0x13
 10164 0385 EA150000 		.4byte	.LASF61
 10165 0389 A201     		.sleb128 162
 10166 038b 13       		.uleb128 0x13
 10167 038c DD080000 		.4byte	.LASF62
 10168 0390 A301     		.sleb128 163
 10169 0392 13       		.uleb128 0x13
 10170 0393 EB080000 		.4byte	.LASF63
 10171 0397 A401     		.sleb128 164
 10172 0399 13       		.uleb128 0x13
 10173 039a 8A1B0000 		.4byte	.LASF64
 10174 039e A501     		.sleb128 165
 10175 03a0 00       		.byte	0
 10176 03a1 12       		.uleb128 0x12
 10177 03a2 2C280000 		.4byte	.LASF65
 10178 03a6 01       		.byte	0x1
 10179 03a7 07       		.byte	0x7
 10180 03a8 3F       		.byte	0x3f
 10181 03a9 DE030000 		.4byte	0x3de
ARM GAS  C:\Users\RECEPC~1\AppData\Local\Temp\ccNQpeOs.s 			page 219


 10182 03ad 13       		.uleb128 0x13
 10183 03ae 4B2A0000 		.4byte	.LASF66
 10184 03b2 01       		.sleb128 1
 10185 03b3 13       		.uleb128 0x13
 10186 03b4 EF1A0000 		.4byte	.LASF67
 10187 03b8 02       		.sleb128 2
 10188 03b9 13       		.uleb128 0x13
 10189 03ba 531C0000 		.4byte	.LASF68
 10190 03be 03       		.sleb128 3
 10191 03bf 13       		.uleb128 0x13
 10192 03c0 24230000 		.4byte	.LASF69
 10193 03c4 04       		.sleb128 4
 10194 03c5 13       		.uleb128 0x13
 10195 03c6 51110000 		.4byte	.LASF70
 10196 03ca 05       		.sleb128 5
 10197 03cb 13       		.uleb128 0x13
 10198 03cc A3260000 		.4byte	.LASF71
 10199 03d0 06       		.sleb128 6
 10200 03d1 13       		.uleb128 0x13
 10201 03d2 DA0D0000 		.4byte	.LASF72
 10202 03d6 07       		.sleb128 7
 10203 03d7 13       		.uleb128 0x13
 10204 03d8 B6130000 		.4byte	.LASF73
 10205 03dc 08       		.sleb128 8
 10206 03dd 00       		.byte	0
 10207 03de 12       		.uleb128 0x12
 10208 03df 312A0000 		.4byte	.LASF74
 10209 03e3 01       		.byte	0x1
 10210 03e4 07       		.byte	0x7
 10211 03e5 4C       		.byte	0x4c
 10212 03e6 FD030000 		.4byte	0x3fd
 10213 03ea 13       		.uleb128 0x13
 10214 03eb 412A0000 		.4byte	.LASF75
 10215 03ef 01       		.sleb128 1
 10216 03f0 13       		.uleb128 0x13
 10217 03f1 300D0000 		.4byte	.LASF76
 10218 03f5 02       		.sleb128 2
 10219 03f6 13       		.uleb128 0x13
 10220 03f7 7A1D0000 		.4byte	.LASF77
 10221 03fb 03       		.sleb128 3
 10222 03fc 00       		.byte	0
 10223 03fd 14       		.uleb128 0x14
 10224 03fe 5A000000 		.4byte	.LASF78
 10225 0402 9801     		.2byte	0x198
 10226 0404 07       		.byte	0x7
 10227 0405 53       		.byte	0x53
 10228 0406 9E040000 		.4byte	0x49e
 10229 040a 0D       		.uleb128 0xd
 10230 040b C8190000 		.4byte	.LASF79
 10231 040f 07       		.byte	0x7
 10232 0410 55       		.byte	0x55
 10233 0411 9E040000 		.4byte	0x49e
 10234 0415 00       		.byte	0
 10235 0416 0D       		.uleb128 0xd
 10236 0417 60230000 		.4byte	.LASF80
 10237 041b 07       		.byte	0x7
 10238 041c 56       		.byte	0x56
ARM GAS  C:\Users\RECEPC~1\AppData\Local\Temp\ccNQpeOs.s 			page 220


 10239 041d DE000000 		.4byte	0xde
 10240 0421 01       		.byte	0x1
 10241 0422 0D       		.uleb128 0xd
 10242 0423 7C260000 		.4byte	.LASF81
 10243 0427 07       		.byte	0x7
 10244 0428 57       		.byte	0x57
 10245 0429 DE000000 		.4byte	0xde
 10246 042d 02       		.byte	0x2
 10247 042e 0D       		.uleb128 0xd
 10248 042f B9270000 		.4byte	.LASF50
 10249 0433 07       		.byte	0x7
 10250 0434 58       		.byte	0x58
 10251 0435 DE000000 		.4byte	0xde
 10252 0439 03       		.byte	0x3
 10253 043a 0D       		.uleb128 0xd
 10254 043b B90C0000 		.4byte	.LASF82
 10255 043f 07       		.byte	0x7
 10256 0440 5A       		.byte	0x5a
 10257 0441 E3000000 		.4byte	0xe3
 10258 0445 04       		.byte	0x4
 10259 0446 0D       		.uleb128 0xd
 10260 0447 EE0F0000 		.4byte	.LASF83
 10261 044b 07       		.byte	0x7
 10262 044c 5B       		.byte	0x5b
 10263 044d E3000000 		.4byte	0xe3
 10264 0451 06       		.byte	0x6
 10265 0452 0D       		.uleb128 0xd
 10266 0453 34080000 		.4byte	.LASF84
 10267 0457 07       		.byte	0x7
 10268 0458 5C       		.byte	0x5c
 10269 0459 E3000000 		.4byte	0xe3
 10270 045d 08       		.byte	0x8
 10271 045e 0D       		.uleb128 0xd
 10272 045f 7A250000 		.4byte	.LASF85
 10273 0463 07       		.byte	0x7
 10274 0464 5D       		.byte	0x5d
 10275 0465 E3000000 		.4byte	0xe3
 10276 0469 0A       		.byte	0xa
 10277 046a 0D       		.uleb128 0xd
 10278 046b 23070000 		.4byte	.LASF86
 10279 046f 07       		.byte	0x7
 10280 0470 5E       		.byte	0x5e
 10281 0471 A3040000 		.4byte	0x4a3
 10282 0475 0C       		.byte	0xc
 10283 0476 15       		.uleb128 0x15
 10284 0477 2A2B0000 		.4byte	.LASF87
 10285 047b 07       		.byte	0x7
 10286 047c 5F       		.byte	0x5f
 10287 047d E3000000 		.4byte	0xe3
 10288 0481 8C01     		.2byte	0x18c
 10289 0483 15       		.uleb128 0x15
 10290 0484 13150000 		.4byte	.LASF88
 10291 0488 07       		.byte	0x7
 10292 0489 62       		.byte	0x62
 10293 048a FB000000 		.4byte	0xfb
 10294 048e 9001     		.2byte	0x190
 10295 0490 15       		.uleb128 0x15
ARM GAS  C:\Users\RECEPC~1\AppData\Local\Temp\ccNQpeOs.s 			page 221


 10296 0491 B6230000 		.4byte	.LASF89
 10297 0495 07       		.byte	0x7
 10298 0496 63       		.byte	0x63
 10299 0497 38020000 		.4byte	0x238
 10300 049b 9401     		.2byte	0x194
 10301 049d 00       		.byte	0
 10302 049e 06       		.uleb128 0x6
 10303 049f AD020000 		.4byte	0x2ad
 10304 04a3 0A       		.uleb128 0xa
 10305 04a4 CB000000 		.4byte	0xcb
 10306 04a8 B4040000 		.4byte	0x4b4
 10307 04ac 16       		.uleb128 0x16
 10308 04ad F4000000 		.4byte	0xf4
 10309 04b1 7F01     		.2byte	0x17f
 10310 04b3 00       		.byte	0
 10311 04b4 03       		.uleb128 0x3
 10312 04b5 B01A0000 		.4byte	.LASF90
 10313 04b9 07       		.byte	0x7
 10314 04ba 64       		.byte	0x64
 10315 04bb BF040000 		.4byte	0x4bf
 10316 04bf 07       		.uleb128 0x7
 10317 04c0 04       		.byte	0x4
 10318 04c1 FD030000 		.4byte	0x3fd
 10319 04c5 12       		.uleb128 0x12
 10320 04c6 71070000 		.4byte	.LASF91
 10321 04ca 01       		.byte	0x1
 10322 04cb 08       		.byte	0x8
 10323 04cc 0F       		.byte	0xf
 10324 04cd D4050000 		.4byte	0x5d4
 10325 04d1 13       		.uleb128 0x13
 10326 04d2 3B1D0000 		.4byte	.LASF92
 10327 04d6 01       		.sleb128 1
 10328 04d7 13       		.uleb128 0x13
 10329 04d8 18220000 		.4byte	.LASF93
 10330 04dc 02       		.sleb128 2
 10331 04dd 13       		.uleb128 0x13
 10332 04de 68020000 		.4byte	.LASF94
 10333 04e2 03       		.sleb128 3
 10334 04e3 13       		.uleb128 0x13
 10335 04e4 3E200000 		.4byte	.LASF95
 10336 04e8 04       		.sleb128 4
 10337 04e9 13       		.uleb128 0x13
 10338 04ea 20020000 		.4byte	.LASF96
 10339 04ee 05       		.sleb128 5
 10340 04ef 13       		.uleb128 0x13
 10341 04f0 A6040000 		.4byte	.LASF97
 10342 04f4 06       		.sleb128 6
 10343 04f5 13       		.uleb128 0x13
 10344 04f6 C2170000 		.4byte	.LASF98
 10345 04fa 07       		.sleb128 7
 10346 04fb 13       		.uleb128 0x13
 10347 04fc AC000000 		.4byte	.LASF99
 10348 0500 08       		.sleb128 8
 10349 0501 13       		.uleb128 0x13
 10350 0502 66150000 		.4byte	.LASF100
 10351 0506 09       		.sleb128 9
 10352 0507 13       		.uleb128 0x13
ARM GAS  C:\Users\RECEPC~1\AppData\Local\Temp\ccNQpeOs.s 			page 222


 10353 0508 11080000 		.4byte	.LASF101
 10354 050c 0A       		.sleb128 10
 10355 050d 13       		.uleb128 0x13
 10356 050e AE090000 		.4byte	.LASF102
 10357 0512 0B       		.sleb128 11
 10358 0513 13       		.uleb128 0x13
 10359 0514 46030000 		.4byte	.LASF103
 10360 0518 0C       		.sleb128 12
 10361 0519 13       		.uleb128 0x13
 10362 051a EB200000 		.4byte	.LASF104
 10363 051e 0D       		.sleb128 13
 10364 051f 13       		.uleb128 0x13
 10365 0520 21250000 		.4byte	.LASF105
 10366 0524 0E       		.sleb128 14
 10367 0525 13       		.uleb128 0x13
 10368 0526 8D0C0000 		.4byte	.LASF106
 10369 052a 0F       		.sleb128 15
 10370 052b 13       		.uleb128 0x13
 10371 052c 3F0D0000 		.4byte	.LASF107
 10372 0530 10       		.sleb128 16
 10373 0531 13       		.uleb128 0x13
 10374 0532 3B280000 		.4byte	.LASF108
 10375 0536 11       		.sleb128 17
 10376 0537 13       		.uleb128 0x13
 10377 0538 AD240000 		.4byte	.LASF109
 10378 053c 12       		.sleb128 18
 10379 053d 13       		.uleb128 0x13
 10380 053e 8D040000 		.4byte	.LASF110
 10381 0542 13       		.sleb128 19
 10382 0543 13       		.uleb128 0x13
 10383 0544 6E1C0000 		.4byte	.LASF111
 10384 0548 14       		.sleb128 20
 10385 0549 13       		.uleb128 0x13
 10386 054a 4E080000 		.4byte	.LASF112
 10387 054e 15       		.sleb128 21
 10388 054f 13       		.uleb128 0x13
 10389 0550 02180000 		.4byte	.LASF113
 10390 0554 16       		.sleb128 22
 10391 0555 13       		.uleb128 0x13
 10392 0556 960F0000 		.4byte	.LASF114
 10393 055a 17       		.sleb128 23
 10394 055b 13       		.uleb128 0x13
 10395 055c 30050000 		.4byte	.LASF115
 10396 0560 18       		.sleb128 24
 10397 0561 13       		.uleb128 0x13
 10398 0562 24290000 		.4byte	.LASF116
 10399 0566 19       		.sleb128 25
 10400 0567 13       		.uleb128 0x13
 10401 0568 84220000 		.4byte	.LASF117
 10402 056c 1A       		.sleb128 26
 10403 056d 13       		.uleb128 0x13
 10404 056e EA090000 		.4byte	.LASF118
 10405 0572 1B       		.sleb128 27
 10406 0573 13       		.uleb128 0x13
 10407 0574 1C120000 		.4byte	.LASF119
 10408 0578 1C       		.sleb128 28
 10409 0579 13       		.uleb128 0x13
ARM GAS  C:\Users\RECEPC~1\AppData\Local\Temp\ccNQpeOs.s 			page 223


 10410 057a 102B0000 		.4byte	.LASF120
 10411 057e 1D       		.sleb128 29
 10412 057f 13       		.uleb128 0x13
 10413 0580 09280000 		.4byte	.LASF121
 10414 0584 1E       		.sleb128 30
 10415 0585 13       		.uleb128 0x13
 10416 0586 EA240000 		.4byte	.LASF122
 10417 058a 1F       		.sleb128 31
 10418 058b 13       		.uleb128 0x13
 10419 058c 35030000 		.4byte	.LASF123
 10420 0590 20       		.sleb128 32
 10421 0591 13       		.uleb128 0x13
 10422 0592 820B0000 		.4byte	.LASF124
 10423 0596 21       		.sleb128 33
 10424 0597 13       		.uleb128 0x13
 10425 0598 0D070000 		.4byte	.LASF125
 10426 059c 22       		.sleb128 34
 10427 059d 13       		.uleb128 0x13
 10428 059e 97230000 		.4byte	.LASF126
 10429 05a2 23       		.sleb128 35
 10430 05a3 13       		.uleb128 0x13
 10431 05a4 EB0D0000 		.4byte	.LASF127
 10432 05a8 24       		.sleb128 36
 10433 05a9 13       		.uleb128 0x13
 10434 05aa 83090000 		.4byte	.LASF128
 10435 05ae 25       		.sleb128 37
 10436 05af 13       		.uleb128 0x13
 10437 05b0 17200000 		.4byte	.LASF129
 10438 05b4 26       		.sleb128 38
 10439 05b5 13       		.uleb128 0x13
 10440 05b6 5A020000 		.4byte	.LASF130
 10441 05ba 27       		.sleb128 39
 10442 05bb 13       		.uleb128 0x13
 10443 05bc 692A0000 		.4byte	.LASF131
 10444 05c0 28       		.sleb128 40
 10445 05c1 13       		.uleb128 0x13
 10446 05c2 301C0000 		.4byte	.LASF132
 10447 05c6 29       		.sleb128 41
 10448 05c7 13       		.uleb128 0x13
 10449 05c8 70040000 		.4byte	.LASF133
 10450 05cc 2A       		.sleb128 42
 10451 05cd 13       		.uleb128 0x13
 10452 05ce 92160000 		.4byte	.LASF134
 10453 05d2 2B       		.sleb128 43
 10454 05d3 00       		.byte	0
 10455 05d4 03       		.uleb128 0x3
 10456 05d5 760E0000 		.4byte	.LASF135
 10457 05d9 09       		.byte	0x9
 10458 05da 22       		.byte	0x22
 10459 05db FD000000 		.4byte	0xfd
 10460 05df 12       		.uleb128 0x12
 10461 05e0 C70F0000 		.4byte	.LASF136
 10462 05e4 01       		.byte	0x1
 10463 05e5 09       		.byte	0x9
 10464 05e6 F0       		.byte	0xf0
 10465 05e7 53060000 		.4byte	0x653
 10466 05eb 13       		.uleb128 0x13
ARM GAS  C:\Users\RECEPC~1\AppData\Local\Temp\ccNQpeOs.s 			page 224


 10467 05ec 6B230000 		.4byte	.LASF137
 10468 05f0 0F       		.sleb128 15
 10469 05f1 13       		.uleb128 0x13
 10470 05f2 841D0000 		.4byte	.LASF138
 10471 05f6 10       		.sleb128 16
 10472 05f7 13       		.uleb128 0x13
 10473 05f8 D4270000 		.4byte	.LASF139
 10474 05fc C300     		.sleb128 67
 10475 05fe 13       		.uleb128 0x13
 10476 05ff 3E050000 		.4byte	.LASF140
 10477 0603 C400     		.sleb128 68
 10478 0605 13       		.uleb128 0x13
 10479 0606 CA1F0000 		.4byte	.LASF141
 10480 060a C500     		.sleb128 69
 10481 060c 13       		.uleb128 0x13
 10482 060d D8220000 		.4byte	.LASF142
 10483 0611 C600     		.sleb128 70
 10484 0613 13       		.uleb128 0x13
 10485 0614 A4070000 		.4byte	.LASF143
 10486 0618 C700     		.sleb128 71
 10487 061a 13       		.uleb128 0x13
 10488 061b 25140000 		.4byte	.LASF144
 10489 061f C800     		.sleb128 72
 10490 0621 13       		.uleb128 0x13
 10491 0622 FE270000 		.4byte	.LASF145
 10492 0626 C900     		.sleb128 73
 10493 0628 13       		.uleb128 0x13
 10494 0629 9E050000 		.4byte	.LASF146
 10495 062d CA00     		.sleb128 74
 10496 062f 13       		.uleb128 0x13
 10497 0630 F9080000 		.4byte	.LASF147
 10498 0634 CB00     		.sleb128 75
 10499 0636 13       		.uleb128 0x13
 10500 0637 441F0000 		.4byte	.LASF148
 10501 063b CC00     		.sleb128 76
 10502 063d 13       		.uleb128 0x13
 10503 063e 4B270000 		.4byte	.LASF149
 10504 0642 CD00     		.sleb128 77
 10505 0644 13       		.uleb128 0x13
 10506 0645 4E100000 		.4byte	.LASF150
 10507 0649 CE00     		.sleb128 78
 10508 064b 13       		.uleb128 0x13
 10509 064c 58140000 		.4byte	.LASF151
 10510 0650 CF00     		.sleb128 79
 10511 0652 00       		.byte	0
 10512 0653 17       		.uleb128 0x17
 10513 0654 0401     		.2byte	0x104
 10514 0656 09       		.byte	0x9
 10515 0657 1D01     		.2byte	0x11d
 10516 0659 93060000 		.4byte	0x693
 10517 065d 18       		.uleb128 0x18
 10518 065e AC020000 		.4byte	.LASF152
 10519 0662 09       		.byte	0x9
 10520 0663 1F01     		.2byte	0x11f
 10521 0665 81000000 		.4byte	0x81
 10522 0669 00       		.byte	0
 10523 066a 18       		.uleb128 0x18
ARM GAS  C:\Users\RECEPC~1\AppData\Local\Temp\ccNQpeOs.s 			page 225


 10524 066b 9A1D0000 		.4byte	.LASF153
 10525 066f 09       		.byte	0x9
 10526 0670 2001     		.2byte	0x120
 10527 0672 81000000 		.4byte	0x81
 10528 0676 01       		.byte	0x1
 10529 0677 18       		.uleb128 0x18
 10530 0678 23070000 		.4byte	.LASF86
 10531 067c 09       		.byte	0x9
 10532 067d 2101     		.2byte	0x121
 10533 067f 93060000 		.4byte	0x693
 10534 0683 02       		.byte	0x2
 10535 0684 19       		.uleb128 0x19
 10536 0685 2A2B0000 		.4byte	.LASF87
 10537 0689 09       		.byte	0x9
 10538 068a 2201     		.2byte	0x122
 10539 068c 8D000000 		.4byte	0x8d
 10540 0690 0201     		.2byte	0x102
 10541 0692 00       		.byte	0
 10542 0693 0A       		.uleb128 0xa
 10543 0694 D7000000 		.4byte	0xd7
 10544 0698 A3060000 		.4byte	0x6a3
 10545 069c 0B       		.uleb128 0xb
 10546 069d F4000000 		.4byte	0xf4
 10547 06a1 FF       		.byte	0xff
 10548 06a2 00       		.byte	0
 10549 06a3 05       		.uleb128 0x5
 10550 06a4 DB290000 		.4byte	.LASF154
 10551 06a8 09       		.byte	0x9
 10552 06a9 2401     		.2byte	0x124
 10553 06ab 53060000 		.4byte	0x653
 10554 06af 05       		.uleb128 0x5
 10555 06b0 8C110000 		.4byte	.LASF155
 10556 06b4 09       		.byte	0x9
 10557 06b5 2401     		.2byte	0x124
 10558 06b7 BB060000 		.4byte	0x6bb
 10559 06bb 07       		.uleb128 0x7
 10560 06bc 04       		.byte	0x4
 10561 06bd 53060000 		.4byte	0x653
 10562 06c1 1A       		.uleb128 0x1a
 10563 06c2 40       		.byte	0x40
 10564 06c3 09       		.byte	0x9
 10565 06c4 2601     		.2byte	0x126
 10566 06c6 67070000 		.4byte	0x767
 10567 06ca 18       		.uleb128 0x18
 10568 06cb 6C220000 		.4byte	.LASF156
 10569 06cf 09       		.byte	0x9
 10570 06d0 2801     		.2byte	0x128
 10571 06d2 DE000000 		.4byte	0xde
 10572 06d6 00       		.byte	0
 10573 06d7 18       		.uleb128 0x18
 10574 06d8 72220000 		.4byte	.LASF157
 10575 06dc 09       		.byte	0x9
 10576 06dd 2901     		.2byte	0x129
 10577 06df DE000000 		.4byte	0xde
 10578 06e3 01       		.byte	0x1
 10579 06e4 18       		.uleb128 0x18
 10580 06e5 78220000 		.4byte	.LASF158
ARM GAS  C:\Users\RECEPC~1\AppData\Local\Temp\ccNQpeOs.s 			page 226


 10581 06e9 09       		.byte	0x9
 10582 06ea 2B01     		.2byte	0x12b
 10583 06ec E3000000 		.4byte	0xe3
 10584 06f0 02       		.byte	0x2
 10585 06f1 18       		.uleb128 0x18
 10586 06f2 7E220000 		.4byte	.LASF159
 10587 06f6 09       		.byte	0x9
 10588 06f7 2C01     		.2byte	0x12c
 10589 06f9 E3000000 		.4byte	0xe3
 10590 06fd 04       		.byte	0x4
 10591 06fe 18       		.uleb128 0x18
 10592 06ff C1200000 		.4byte	.LASF160
 10593 0703 09       		.byte	0x9
 10594 0704 2E01     		.2byte	0x12e
 10595 0706 E8000000 		.4byte	0xe8
 10596 070a 08       		.byte	0x8
 10597 070b 18       		.uleb128 0x18
 10598 070c 99220000 		.4byte	.LASF161
 10599 0710 09       		.byte	0x9
 10600 0711 2F01     		.2byte	0x12f
 10601 0713 E8000000 		.4byte	0xe8
 10602 0717 0C       		.byte	0xc
 10603 0718 18       		.uleb128 0x18
 10604 0719 9F220000 		.4byte	.LASF162
 10605 071d 09       		.byte	0x9
 10606 071e 3401     		.2byte	0x134
 10607 0720 67070000 		.4byte	0x767
 10608 0724 10       		.byte	0x10
 10609 0725 18       		.uleb128 0x18
 10610 0726 A5220000 		.4byte	.LASF163
 10611 072a 09       		.byte	0x9
 10612 072b 3501     		.2byte	0x135
 10613 072d 67070000 		.4byte	0x767
 10614 0731 18       		.byte	0x18
 10615 0732 18       		.uleb128 0x18
 10616 0733 AB220000 		.4byte	.LASF164
 10617 0737 09       		.byte	0x9
 10618 0738 3601     		.2byte	0x136
 10619 073a 67070000 		.4byte	0x767
 10620 073e 20       		.byte	0x20
 10621 073f 18       		.uleb128 0x18
 10622 0740 B1220000 		.4byte	.LASF165
 10623 0744 09       		.byte	0x9
 10624 0745 3701     		.2byte	0x137
 10625 0747 67070000 		.4byte	0x767
 10626 074b 28       		.byte	0x28
 10627 074c 18       		.uleb128 0x18
 10628 074d ED220000 		.4byte	.LASF166
 10629 0751 09       		.byte	0x9
 10630 0752 3901     		.2byte	0x139
 10631 0754 6C070000 		.4byte	0x76c
 10632 0758 30       		.byte	0x30
 10633 0759 18       		.uleb128 0x18
 10634 075a F3220000 		.4byte	.LASF167
 10635 075e 09       		.byte	0x9
 10636 075f 3A01     		.2byte	0x13a
 10637 0761 6C070000 		.4byte	0x76c
ARM GAS  C:\Users\RECEPC~1\AppData\Local\Temp\ccNQpeOs.s 			page 227


 10638 0765 38       		.byte	0x38
 10639 0766 00       		.byte	0
 10640 0767 06       		.uleb128 0x6
 10641 0768 BF000000 		.4byte	0xbf
 10642 076c 06       		.uleb128 0x6
 10643 076d B8000000 		.4byte	0xb8
 10644 0771 05       		.uleb128 0x5
 10645 0772 141A0000 		.4byte	.LASF168
 10646 0776 09       		.byte	0x9
 10647 0777 3C01     		.2byte	0x13c
 10648 0779 C1060000 		.4byte	0x6c1
 10649 077d 1A       		.uleb128 0x1a
 10650 077e 18       		.byte	0x18
 10651 077f 09       		.byte	0x9
 10652 0780 4401     		.2byte	0x144
 10653 0782 E2070000 		.4byte	0x7e2
 10654 0786 18       		.uleb128 0x18
 10655 0787 621D0000 		.4byte	.LASF169
 10656 078b 09       		.byte	0x9
 10657 078c 4701     		.2byte	0x147
 10658 078e 9E040000 		.4byte	0x49e
 10659 0792 00       		.byte	0
 10660 0793 18       		.uleb128 0x18
 10661 0794 F2270000 		.4byte	.LASF170
 10662 0798 09       		.byte	0x9
 10663 0799 4801     		.2byte	0x148
 10664 079b DE000000 		.4byte	0xde
 10665 079f 01       		.byte	0x1
 10666 07a0 18       		.uleb128 0x18
 10667 07a1 6F270000 		.4byte	.LASF171
 10668 07a5 09       		.byte	0x9
 10669 07a6 4901     		.2byte	0x149
 10670 07a8 DE000000 		.4byte	0xde
 10671 07ac 02       		.byte	0x2
 10672 07ad 18       		.uleb128 0x18
 10673 07ae 581A0000 		.4byte	.LASF172
 10674 07b2 09       		.byte	0x9
 10675 07b3 4A01     		.2byte	0x14a
 10676 07b5 E3000000 		.4byte	0xe3
 10677 07b9 04       		.byte	0x4
 10678 07ba 18       		.uleb128 0x18
 10679 07bb 0A210000 		.4byte	.LASF173
 10680 07bf 09       		.byte	0x9
 10681 07c0 4B01     		.2byte	0x14b
 10682 07c2 E8000000 		.4byte	0xe8
 10683 07c6 08       		.byte	0x8
 10684 07c7 18       		.uleb128 0x18
 10685 07c8 FA0C0000 		.4byte	.LASF174
 10686 07cc 09       		.byte	0x9
 10687 07cd 4C01     		.2byte	0x14c
 10688 07cf E8000000 		.4byte	0xe8
 10689 07d3 0C       		.byte	0xc
 10690 07d4 18       		.uleb128 0x18
 10691 07d5 240C0000 		.4byte	.LASF175
 10692 07d9 09       		.byte	0x9
 10693 07da 4D01     		.2byte	0x14d
 10694 07dc E2070000 		.4byte	0x7e2
ARM GAS  C:\Users\RECEPC~1\AppData\Local\Temp\ccNQpeOs.s 			page 228


 10695 07e0 10       		.byte	0x10
 10696 07e1 00       		.byte	0
 10697 07e2 0A       		.uleb128 0xa
 10698 07e3 CB000000 		.4byte	0xcb
 10699 07e7 F2070000 		.4byte	0x7f2
 10700 07eb 0B       		.uleb128 0xb
 10701 07ec F4000000 		.4byte	0xf4
 10702 07f0 07       		.byte	0x7
 10703 07f1 00       		.byte	0
 10704 07f2 05       		.uleb128 0x5
 10705 07f3 A1120000 		.4byte	.LASF176
 10706 07f7 09       		.byte	0x9
 10707 07f8 4F01     		.2byte	0x14f
 10708 07fa 7D070000 		.4byte	0x77d
 10709 07fe 1B       		.uleb128 0x1b
 10710 07ff 6F160000 		.4byte	.LASF177
 10711 0803 C80B     		.2byte	0xbc8
 10712 0805 09       		.byte	0x9
 10713 0806 5201     		.2byte	0x152
 10714 0808 E3090000 		.4byte	0x9e3
 10715 080c 18       		.uleb128 0x18
 10716 080d 19110000 		.4byte	.LASF178
 10717 0811 09       		.byte	0x9
 10718 0812 5401     		.2byte	0x154
 10719 0814 81000000 		.4byte	0x81
 10720 0818 00       		.byte	0
 10721 0819 18       		.uleb128 0x18
 10722 081a 49230000 		.4byte	.LASF179
 10723 081e 09       		.byte	0x9
 10724 081f 5501     		.2byte	0x155
 10725 0821 81000000 		.4byte	0x81
 10726 0825 01       		.byte	0x1
 10727 0826 18       		.uleb128 0x18
 10728 0827 F2070000 		.4byte	.LASF180
 10729 082b 09       		.byte	0x9
 10730 082c 5701     		.2byte	0x157
 10731 082e DE000000 		.4byte	0xde
 10732 0832 02       		.byte	0x2
 10733 0833 18       		.uleb128 0x18
 10734 0834 10270000 		.4byte	.LASF181
 10735 0838 09       		.byte	0x9
 10736 0839 5801     		.2byte	0x158
 10737 083b DE000000 		.4byte	0xde
 10738 083f 03       		.byte	0x3
 10739 0840 18       		.uleb128 0x18
 10740 0841 6D1E0000 		.4byte	.LASF182
 10741 0845 09       		.byte	0x9
 10742 0846 5901     		.2byte	0x159
 10743 0848 DE000000 		.4byte	0xde
 10744 084c 04       		.byte	0x4
 10745 084d 18       		.uleb128 0x18
 10746 084e 48220000 		.4byte	.LASF183
 10747 0852 09       		.byte	0x9
 10748 0853 5A01     		.2byte	0x15a
 10749 0855 9E040000 		.4byte	0x49e
 10750 0859 05       		.byte	0x5
 10751 085a 18       		.uleb128 0x18
ARM GAS  C:\Users\RECEPC~1\AppData\Local\Temp\ccNQpeOs.s 			page 229


 10752 085b 621D0000 		.4byte	.LASF169
 10753 085f 09       		.byte	0x9
 10754 0860 5D01     		.2byte	0x15d
 10755 0862 9E040000 		.4byte	0x49e
 10756 0866 06       		.byte	0x6
 10757 0867 18       		.uleb128 0x18
 10758 0868 FD070000 		.4byte	.LASF184
 10759 086c 09       		.byte	0x9
 10760 086d 5E01     		.2byte	0x15e
 10761 086f 9E040000 		.4byte	0x49e
 10762 0873 07       		.byte	0x7
 10763 0874 18       		.uleb128 0x18
 10764 0875 C8210000 		.4byte	.LASF185
 10765 0879 09       		.byte	0x9
 10766 087a 5F01     		.2byte	0x15f
 10767 087c 9E040000 		.4byte	0x49e
 10768 0880 08       		.byte	0x8
 10769 0881 18       		.uleb128 0x18
 10770 0882 54230000 		.4byte	.LASF186
 10771 0886 09       		.byte	0x9
 10772 0887 6001     		.2byte	0x160
 10773 0889 9E040000 		.4byte	0x49e
 10774 088d 09       		.byte	0x9
 10775 088e 18       		.uleb128 0x18
 10776 088f D6070000 		.4byte	.LASF187
 10777 0893 09       		.byte	0x9
 10778 0894 6101     		.2byte	0x161
 10779 0896 DE000000 		.4byte	0xde
 10780 089a 0A       		.byte	0xa
 10781 089b 18       		.uleb128 0x18
 10782 089c 960E0000 		.4byte	.LASF188
 10783 08a0 09       		.byte	0x9
 10784 08a1 6201     		.2byte	0x162
 10785 08a3 9E040000 		.4byte	0x49e
 10786 08a7 0B       		.byte	0xb
 10787 08a8 18       		.uleb128 0x18
 10788 08a9 2A000000 		.4byte	.LASF189
 10789 08ad 09       		.byte	0x9
 10790 08ae 6301     		.2byte	0x163
 10791 08b0 DE000000 		.4byte	0xde
 10792 08b4 0C       		.byte	0xc
 10793 08b5 18       		.uleb128 0x18
 10794 08b6 9E280000 		.4byte	.LASF190
 10795 08ba 09       		.byte	0x9
 10796 08bb 6501     		.2byte	0x165
 10797 08bd 9E040000 		.4byte	0x49e
 10798 08c1 0D       		.byte	0xd
 10799 08c2 18       		.uleb128 0x18
 10800 08c3 9C190000 		.4byte	.LASF191
 10801 08c7 09       		.byte	0x9
 10802 08c8 6701     		.2byte	0x167
 10803 08ca E8000000 		.4byte	0xe8
 10804 08ce 10       		.byte	0x10
 10805 08cf 18       		.uleb128 0x18
 10806 08d0 28130000 		.4byte	.LASF192
 10807 08d4 09       		.byte	0x9
 10808 08d5 6801     		.2byte	0x168
ARM GAS  C:\Users\RECEPC~1\AppData\Local\Temp\ccNQpeOs.s 			page 230


 10809 08d7 E8000000 		.4byte	0xe8
 10810 08db 14       		.byte	0x14
 10811 08dc 18       		.uleb128 0x18
 10812 08dd FC0D0000 		.4byte	.LASF193
 10813 08e1 09       		.byte	0x9
 10814 08e2 6B01     		.2byte	0x16b
 10815 08e4 DE000000 		.4byte	0xde
 10816 08e8 18       		.byte	0x18
 10817 08e9 18       		.uleb128 0x18
 10818 08ea 9A1D0000 		.4byte	.LASF153
 10819 08ee 09       		.byte	0x9
 10820 08ef 6C01     		.2byte	0x16c
 10821 08f1 DE000000 		.4byte	0xde
 10822 08f5 19       		.byte	0x19
 10823 08f6 18       		.uleb128 0x18
 10824 08f7 E51F0000 		.4byte	.LASF194
 10825 08fb 09       		.byte	0x9
 10826 08fc 6E01     		.2byte	0x16e
 10827 08fe FB000000 		.4byte	0xfb
 10828 0902 1C       		.byte	0x1c
 10829 0903 18       		.uleb128 0x18
 10830 0904 44120000 		.4byte	.LASF195
 10831 0908 09       		.byte	0x9
 10832 0909 6F01     		.2byte	0x16f
 10833 090b A3040000 		.4byte	0x4a3
 10834 090f 20       		.byte	0x20
 10835 0910 19       		.uleb128 0x19
 10836 0911 74110000 		.4byte	.LASF196
 10837 0915 09       		.byte	0x9
 10838 0916 7101     		.2byte	0x171
 10839 0918 A3040000 		.4byte	0x4a3
 10840 091c A001     		.2byte	0x1a0
 10841 091e 19       		.uleb128 0x19
 10842 091f 4C020000 		.4byte	.LASF197
 10843 0923 09       		.byte	0x9
 10844 0924 7201     		.2byte	0x172
 10845 0926 8D000000 		.4byte	0x8d
 10846 092a 2003     		.2byte	0x320
 10847 092c 19       		.uleb128 0x19
 10848 092d BA040000 		.4byte	.LASF198
 10849 0931 09       		.byte	0x9
 10850 0932 7601     		.2byte	0x176
 10851 0934 E3090000 		.4byte	0x9e3
 10852 0938 2203     		.2byte	0x322
 10853 093a 19       		.uleb128 0x19
 10854 093b 2B0F0000 		.4byte	.LASF199
 10855 093f 09       		.byte	0x9
 10856 0940 7801     		.2byte	0x178
 10857 0942 9E040000 		.4byte	0x49e
 10858 0946 420B     		.2byte	0xb42
 10859 0948 19       		.uleb128 0x19
 10860 0949 5F240000 		.4byte	.LASF200
 10861 094d 09       		.byte	0x9
 10862 094e 7A01     		.2byte	0x17a
 10863 0950 38020000 		.4byte	0x238
 10864 0954 440B     		.2byte	0xb44
 10865 0956 19       		.uleb128 0x19
ARM GAS  C:\Users\RECEPC~1\AppData\Local\Temp\ccNQpeOs.s 			page 231


 10866 0957 E32A0000 		.4byte	.LASF201
 10867 095b 09       		.byte	0x9
 10868 095c 7B01     		.2byte	0x17b
 10869 095e 38020000 		.4byte	0x238
 10870 0962 480B     		.2byte	0xb48
 10871 0964 19       		.uleb128 0x19
 10872 0965 F5280000 		.4byte	.LASF202
 10873 0969 09       		.byte	0x9
 10874 096a 7C01     		.2byte	0x17c
 10875 096c 070A0000 		.4byte	0xa07
 10876 0970 4C0B     		.2byte	0xb4c
 10877 0972 19       		.uleb128 0x19
 10878 0973 FD240000 		.4byte	.LASF203
 10879 0977 09       		.byte	0x9
 10880 0978 7D01     		.2byte	0x17d
 10881 097a 1D0A0000 		.4byte	0xa1d
 10882 097e 500B     		.2byte	0xb50
 10883 0980 19       		.uleb128 0x19
 10884 0981 E9050000 		.4byte	.LASF204
 10885 0985 09       		.byte	0x9
 10886 0986 7E01     		.2byte	0x17e
 10887 0988 1D0A0000 		.4byte	0xa1d
 10888 098c 540B     		.2byte	0xb54
 10889 098e 19       		.uleb128 0x19
 10890 098f 7F240000 		.4byte	.LASF205
 10891 0993 09       		.byte	0x9
 10892 0994 7F01     		.2byte	0x17f
 10893 0996 320A0000 		.4byte	0xa32
 10894 099a 580B     		.2byte	0xb58
 10895 099c 19       		.uleb128 0x19
 10896 099d 5A0D0000 		.4byte	.LASF206
 10897 09a1 09       		.byte	0x9
 10898 09a2 8001     		.2byte	0x180
 10899 09a4 320A0000 		.4byte	0xa32
 10900 09a8 5C0B     		.2byte	0xb5c
 10901 09aa 19       		.uleb128 0x19
 10902 09ab 29270000 		.4byte	.LASF207
 10903 09af 09       		.byte	0x9
 10904 09b0 8201     		.2byte	0x182
 10905 09b2 470A0000 		.4byte	0xa47
 10906 09b6 600B     		.2byte	0xb60
 10907 09b8 19       		.uleb128 0x19
 10908 09b9 0B2A0000 		.4byte	.LASF208
 10909 09bd 09       		.byte	0x9
 10910 09be 8401     		.2byte	0x184
 10911 09c0 71070000 		.4byte	0x771
 10912 09c4 680B     		.2byte	0xb68
 10913 09c6 19       		.uleb128 0x19
 10914 09c7 38270000 		.4byte	.LASF209
 10915 09cb 09       		.byte	0x9
 10916 09cc 8501     		.2byte	0x185
 10917 09ce F2070000 		.4byte	0x7f2
 10918 09d2 A80B     		.2byte	0xba8
 10919 09d4 19       		.uleb128 0x19
 10920 09d5 E91E0000 		.4byte	.LASF210
 10921 09d9 09       		.byte	0x9
 10922 09da 8701     		.2byte	0x187
ARM GAS  C:\Users\RECEPC~1\AppData\Local\Temp\ccNQpeOs.s 			page 232


 10923 09dc 38020000 		.4byte	0x238
 10924 09e0 C00B     		.2byte	0xbc0
 10925 09e2 00       		.byte	0
 10926 09e3 0A       		.uleb128 0xa
 10927 09e4 A3060000 		.4byte	0x6a3
 10928 09e8 F3090000 		.4byte	0x9f3
 10929 09ec 0B       		.uleb128 0xb
 10930 09ed F4000000 		.4byte	0xf4
 10931 09f1 07       		.byte	0x7
 10932 09f2 00       		.byte	0
 10933 09f3 1C       		.uleb128 0x1c
 10934 09f4 AD020000 		.4byte	0x2ad
 10935 09f8 070A0000 		.4byte	0xa07
 10936 09fc 0F       		.uleb128 0xf
 10937 09fd FB000000 		.4byte	0xfb
 10938 0a01 0F       		.uleb128 0xf
 10939 0a02 81000000 		.4byte	0x81
 10940 0a06 00       		.byte	0
 10941 0a07 07       		.uleb128 0x7
 10942 0a08 04       		.byte	0x4
 10943 0a09 F3090000 		.4byte	0x9f3
 10944 0a0d 0E       		.uleb128 0xe
 10945 0a0e 1D0A0000 		.4byte	0xa1d
 10946 0a12 0F       		.uleb128 0xf
 10947 0a13 FB000000 		.4byte	0xfb
 10948 0a17 0F       		.uleb128 0xf
 10949 0a18 AF060000 		.4byte	0x6af
 10950 0a1c 00       		.byte	0
 10951 0a1d 07       		.uleb128 0x7
 10952 0a1e 04       		.byte	0x4
 10953 0a1f 0D0A0000 		.4byte	0xa0d
 10954 0a23 1C       		.uleb128 0x1c
 10955 0a24 AF060000 		.4byte	0x6af
 10956 0a28 320A0000 		.4byte	0xa32
 10957 0a2c 0F       		.uleb128 0xf
 10958 0a2d FB000000 		.4byte	0xfb
 10959 0a31 00       		.byte	0
 10960 0a32 07       		.uleb128 0x7
 10961 0a33 04       		.byte	0x4
 10962 0a34 230A0000 		.4byte	0xa23
 10963 0a38 1C       		.uleb128 0x1c
 10964 0a39 AD020000 		.4byte	0x2ad
 10965 0a3d 470A0000 		.4byte	0xa47
 10966 0a41 0F       		.uleb128 0xf
 10967 0a42 FB000000 		.4byte	0xfb
 10968 0a46 00       		.byte	0
 10969 0a47 07       		.uleb128 0x7
 10970 0a48 04       		.byte	0x4
 10971 0a49 380A0000 		.4byte	0xa38
 10972 0a4d 05       		.uleb128 0x5
 10973 0a4e 2B1F0000 		.4byte	.LASF211
 10974 0a52 09       		.byte	0x9
 10975 0a53 8901     		.2byte	0x189
 10976 0a55 FE070000 		.4byte	0x7fe
 10977 0a59 05       		.uleb128 0x5
 10978 0a5a 3F1E0000 		.4byte	.LASF212
 10979 0a5e 09       		.byte	0x9
ARM GAS  C:\Users\RECEPC~1\AppData\Local\Temp\ccNQpeOs.s 			page 233


 10980 0a5f 8901     		.2byte	0x189
 10981 0a61 650A0000 		.4byte	0xa65
 10982 0a65 07       		.uleb128 0x7
 10983 0a66 04       		.byte	0x4
 10984 0a67 FE070000 		.4byte	0x7fe
 10985 0a6b 1A       		.uleb128 0x1a
 10986 0a6c 14       		.byte	0x14
 10987 0a6d 09       		.byte	0x9
 10988 0a6e ED01     		.2byte	0x1ed
 10989 0a70 550B0000 		.4byte	0xb55
 10990 0a74 18       		.uleb128 0x18
 10991 0a75 F9130000 		.4byte	.LASF213
 10992 0a79 09       		.byte	0x9
 10993 0a7a EF01     		.2byte	0x1ef
 10994 0a7c 9E040000 		.4byte	0x49e
 10995 0a80 00       		.byte	0
 10996 0a81 18       		.uleb128 0x18
 10997 0a82 2D200000 		.4byte	.LASF214
 10998 0a86 09       		.byte	0x9
 10999 0a87 F001     		.2byte	0x1f0
 11000 0a89 9E040000 		.4byte	0x49e
 11001 0a8d 01       		.byte	0x1
 11002 0a8e 18       		.uleb128 0x18
 11003 0a8f B70B0000 		.4byte	.LASF215
 11004 0a93 09       		.byte	0x9
 11005 0a94 F401     		.2byte	0x1f4
 11006 0a96 81000000 		.4byte	0x81
 11007 0a9a 02       		.byte	0x2
 11008 0a9b 18       		.uleb128 0x18
 11009 0a9c 5D1E0000 		.4byte	.LASF216
 11010 0aa0 09       		.byte	0x9
 11011 0aa1 0202     		.2byte	0x202
 11012 0aa3 81000000 		.4byte	0x81
 11013 0aa7 03       		.byte	0x3
 11014 0aa8 18       		.uleb128 0x18
 11015 0aa9 EA0C0000 		.4byte	.LASF217
 11016 0aad 09       		.byte	0x9
 11017 0aae 0302     		.2byte	0x203
 11018 0ab0 81000000 		.4byte	0x81
 11019 0ab4 04       		.byte	0x4
 11020 0ab5 18       		.uleb128 0x18
 11021 0ab6 7E1E0000 		.4byte	.LASF218
 11022 0aba 09       		.byte	0x9
 11023 0abb 0402     		.2byte	0x204
 11024 0abd 81000000 		.4byte	0x81
 11025 0ac1 05       		.byte	0x5
 11026 0ac2 18       		.uleb128 0x18
 11027 0ac3 8E1E0000 		.4byte	.LASF219
 11028 0ac7 09       		.byte	0x9
 11029 0ac8 0502     		.2byte	0x205
 11030 0aca 81000000 		.4byte	0x81
 11031 0ace 06       		.byte	0x6
 11032 0acf 18       		.uleb128 0x18
 11033 0ad0 500E0000 		.4byte	.LASF220
 11034 0ad4 09       		.byte	0x9
 11035 0ad5 0702     		.2byte	0x207
 11036 0ad7 81000000 		.4byte	0x81
ARM GAS  C:\Users\RECEPC~1\AppData\Local\Temp\ccNQpeOs.s 			page 234


 11037 0adb 07       		.byte	0x7
 11038 0adc 18       		.uleb128 0x18
 11039 0add 0C110000 		.4byte	.LASF221
 11040 0ae1 09       		.byte	0x9
 11041 0ae2 0802     		.2byte	0x208
 11042 0ae4 81000000 		.4byte	0x81
 11043 0ae8 08       		.byte	0x8
 11044 0ae9 18       		.uleb128 0x18
 11045 0aea C70C0000 		.4byte	.LASF222
 11046 0aee 09       		.byte	0x9
 11047 0aef 0902     		.2byte	0x209
 11048 0af1 81000000 		.4byte	0x81
 11049 0af5 09       		.byte	0x9
 11050 0af6 18       		.uleb128 0x18
 11051 0af7 3C000000 		.4byte	.LASF223
 11052 0afb 09       		.byte	0x9
 11053 0afc 0B02     		.2byte	0x20b
 11054 0afe 81000000 		.4byte	0x81
 11055 0b02 0A       		.byte	0xa
 11056 0b03 18       		.uleb128 0x18
 11057 0b04 7B0E0000 		.4byte	.LASF224
 11058 0b08 09       		.byte	0x9
 11059 0b09 0D02     		.2byte	0x20d
 11060 0b0b 8D000000 		.4byte	0x8d
 11061 0b0f 0C       		.byte	0xc
 11062 0b10 18       		.uleb128 0x18
 11063 0b11 D91E0000 		.4byte	.LASF225
 11064 0b15 09       		.byte	0x9
 11065 0b16 0E02     		.2byte	0x20e
 11066 0b18 8D000000 		.4byte	0x8d
 11067 0b1c 0E       		.byte	0xe
 11068 0b1d 18       		.uleb128 0x18
 11069 0b1e 9B2A0000 		.4byte	.LASF226
 11070 0b22 09       		.byte	0x9
 11071 0b23 1002     		.2byte	0x210
 11072 0b25 81000000 		.4byte	0x81
 11073 0b29 10       		.byte	0x10
 11074 0b2a 18       		.uleb128 0x18
 11075 0b2b 9B0B0000 		.4byte	.LASF227
 11076 0b2f 09       		.byte	0x9
 11077 0b30 1202     		.2byte	0x212
 11078 0b32 81000000 		.4byte	0x81
 11079 0b36 11       		.byte	0x11
 11080 0b37 18       		.uleb128 0x18
 11081 0b38 1A000000 		.4byte	.LASF228
 11082 0b3c 09       		.byte	0x9
 11083 0b3d 1402     		.2byte	0x214
 11084 0b3f 81000000 		.4byte	0x81
 11085 0b43 12       		.byte	0x12
 11086 0b44 1D       		.uleb128 0x1d
 11087 0b45 4A1B0000 		.4byte	.LASF577
 11088 0b49 09       		.byte	0x9
 11089 0b4a 1602     		.2byte	0x216
 11090 0b4c 81000000 		.4byte	0x81
 11091 0b50 01       		.byte	0x1
 11092 0b51 01       		.byte	0x1
 11093 0b52 07       		.byte	0x7
ARM GAS  C:\Users\RECEPC~1\AppData\Local\Temp\ccNQpeOs.s 			page 235


 11094 0b53 13       		.byte	0x13
 11095 0b54 00       		.byte	0
 11096 0b55 05       		.uleb128 0x5
 11097 0b56 DC210000 		.4byte	.LASF229
 11098 0b5a 09       		.byte	0x9
 11099 0b5b 1702     		.2byte	0x217
 11100 0b5d 6B0A0000 		.4byte	0xa6b
 11101 0b61 12       		.uleb128 0x12
 11102 0b62 C3140000 		.4byte	.LASF230
 11103 0b66 01       		.byte	0x1
 11104 0b67 0A       		.byte	0xa
 11105 0b68 21       		.byte	0x21
 11106 0b69 D40C0000 		.4byte	0xcd4
 11107 0b6d 13       		.uleb128 0x13
 11108 0b6e 21110000 		.4byte	.LASF231
 11109 0b72 01       		.sleb128 1
 11110 0b73 13       		.uleb128 0x13
 11111 0b74 31110000 		.4byte	.LASF232
 11112 0b78 02       		.sleb128 2
 11113 0b79 13       		.uleb128 0x13
 11114 0b7a 41110000 		.4byte	.LASF233
 11115 0b7e 03       		.sleb128 3
 11116 0b7f 13       		.uleb128 0x13
 11117 0b80 501F0000 		.4byte	.LASF234
 11118 0b84 04       		.sleb128 4
 11119 0b85 13       		.uleb128 0x13
 11120 0b86 29100000 		.4byte	.LASF235
 11121 0b8a 05       		.sleb128 5
 11122 0b8b 13       		.uleb128 0x13
 11123 0b8c C50B0000 		.4byte	.LASF236
 11124 0b90 06       		.sleb128 6
 11125 0b91 13       		.uleb128 0x13
 11126 0b92 C3060000 		.4byte	.LASF237
 11127 0b96 0F       		.sleb128 15
 11128 0b97 13       		.uleb128 0x13
 11129 0b98 30190000 		.4byte	.LASF238
 11130 0b9c FE00     		.sleb128 126
 11131 0b9e 13       		.uleb128 0x13
 11132 0b9f 4D190000 		.4byte	.LASF239
 11133 0ba3 8601     		.sleb128 134
 11134 0ba5 13       		.uleb128 0x13
 11135 0ba6 3D010000 		.4byte	.LASF240
 11136 0baa 07       		.sleb128 7
 11137 0bab 13       		.uleb128 0x13
 11138 0bac 58220000 		.4byte	.LASF241
 11139 0bb0 08       		.sleb128 8
 11140 0bb1 13       		.uleb128 0x13
 11141 0bb2 7C0F0000 		.4byte	.LASF242
 11142 0bb6 09       		.sleb128 9
 11143 0bb7 13       		.uleb128 0x13
 11144 0bb8 DA1A0000 		.4byte	.LASF243
 11145 0bbc 0A       		.sleb128 10
 11146 0bbd 13       		.uleb128 0x13
 11147 0bbe 78170000 		.4byte	.LASF244
 11148 0bc2 0B       		.sleb128 11
 11149 0bc3 13       		.uleb128 0x13
 11150 0bc4 DC160000 		.4byte	.LASF245
ARM GAS  C:\Users\RECEPC~1\AppData\Local\Temp\ccNQpeOs.s 			page 236


 11151 0bc8 25       		.sleb128 37
 11152 0bc9 13       		.uleb128 0x13
 11153 0bca 6B180000 		.4byte	.LASF246
 11154 0bce 26       		.sleb128 38
 11155 0bcf 13       		.uleb128 0x13
 11156 0bd0 82190000 		.4byte	.LASF247
 11157 0bd4 27       		.sleb128 39
 11158 0bd5 13       		.uleb128 0x13
 11159 0bd6 B51E0000 		.4byte	.LASF248
 11160 0bda 2F       		.sleb128 47
 11161 0bdb 13       		.uleb128 0x13
 11162 0bdc B60A0000 		.4byte	.LASF249
 11163 0be0 2C       		.sleb128 44
 11164 0be1 13       		.uleb128 0x13
 11165 0be2 96170000 		.4byte	.LASF250
 11166 0be6 0C       		.sleb128 12
 11167 0be7 13       		.uleb128 0x13
 11168 0be8 A30A0000 		.4byte	.LASF251
 11169 0bec 8501     		.sleb128 133
 11170 0bee 13       		.uleb128 0x13
 11171 0bef 971A0000 		.4byte	.LASF252
 11172 0bf3 1C       		.sleb128 28
 11173 0bf4 13       		.uleb128 0x13
 11174 0bf5 F11E0000 		.4byte	.LASF253
 11175 0bf9 12       		.sleb128 18
 11176 0bfa 13       		.uleb128 0x13
 11177 0bfb 13160000 		.4byte	.LASF254
 11178 0bff 13       		.sleb128 19
 11179 0c00 13       		.uleb128 0x13
 11180 0c01 37260000 		.4byte	.LASF255
 11181 0c05 24       		.sleb128 36
 11182 0c06 13       		.uleb128 0x13
 11183 0c07 09230000 		.4byte	.LASF256
 11184 0c0b 0D       		.sleb128 13
 11185 0c0c 13       		.uleb128 0x13
 11186 0c0d 13090000 		.4byte	.LASF257
 11187 0c11 0E       		.sleb128 14
 11188 0c12 13       		.uleb128 0x13
 11189 0c13 0D1E0000 		.4byte	.LASF258
 11190 0c17 8301     		.sleb128 131
 11191 0c19 13       		.uleb128 0x13
 11192 0c1a 29040000 		.4byte	.LASF259
 11193 0c1e DA00     		.sleb128 90
 11194 0c20 13       		.uleb128 0x13
 11195 0c21 B3020000 		.4byte	.LASF260
 11196 0c25 31       		.sleb128 49
 11197 0c26 13       		.uleb128 0x13
 11198 0c27 A8140000 		.4byte	.LASF261
 11199 0c2b 35       		.sleb128 53
 11200 0c2c 13       		.uleb128 0x13
 11201 0c2d 580B0000 		.4byte	.LASF262
 11202 0c31 2E       		.sleb128 46
 11203 0c32 13       		.uleb128 0x13
 11204 0c33 F11D0000 		.4byte	.LASF263
 11205 0c37 8C01     		.sleb128 140
 11206 0c39 13       		.uleb128 0x13
 11207 0c3a 2C0C0000 		.4byte	.LASF264
ARM GAS  C:\Users\RECEPC~1\AppData\Local\Temp\ccNQpeOs.s 			page 237


 11208 0c3e 9601     		.sleb128 150
 11209 0c40 13       		.uleb128 0x13
 11210 0c41 FF090000 		.4byte	.LASF265
 11211 0c45 39       		.sleb128 57
 11212 0c46 13       		.uleb128 0x13
 11213 0c47 3B170000 		.4byte	.LASF266
 11214 0c4b 9701     		.sleb128 151
 11215 0c4d 13       		.uleb128 0x13
 11216 0c4e 5F2B0000 		.4byte	.LASF267
 11217 0c52 9801     		.sleb128 152
 11218 0c54 13       		.uleb128 0x13
 11219 0c55 FF1C0000 		.4byte	.LASF268
 11220 0c59 3E       		.sleb128 62
 11221 0c5a 13       		.uleb128 0x13
 11222 0c5b 1A150000 		.4byte	.LASF269
 11223 0c5f 3F       		.sleb128 63
 11224 0c60 13       		.uleb128 0x13
 11225 0c61 570A0000 		.4byte	.LASF270
 11226 0c65 C000     		.sleb128 64
 11227 0c67 13       		.uleb128 0x13
 11228 0c68 5A270000 		.4byte	.LASF271
 11229 0c6c 8D01     		.sleb128 141
 11230 0c6e 13       		.uleb128 0x13
 11231 0c6f E9030000 		.4byte	.LASF272
 11232 0c73 23       		.sleb128 35
 11233 0c74 13       		.uleb128 0x13
 11234 0c75 3A0B0000 		.4byte	.LASF273
 11235 0c79 2A       		.sleb128 42
 11236 0c7a 13       		.uleb128 0x13
 11237 0c7b 32230000 		.4byte	.LASF274
 11238 0c7f 2B       		.sleb128 43
 11239 0c80 13       		.uleb128 0x13
 11240 0c81 230B0000 		.4byte	.LASF275
 11241 0c85 3C       		.sleb128 60
 11242 0c86 13       		.uleb128 0x13
 11243 0c87 B9110000 		.4byte	.LASF276
 11244 0c8b C100     		.sleb128 65
 11245 0c8d 13       		.uleb128 0x13
 11246 0c8e B50D0000 		.4byte	.LASF277
 11247 0c92 EB00     		.sleb128 107
 11248 0c94 13       		.uleb128 0x13
 11249 0c95 A3160000 		.4byte	.LASF278
 11250 0c99 E700     		.sleb128 103
 11251 0c9b 13       		.uleb128 0x13
 11252 0c9c EE060000 		.4byte	.LASF279
 11253 0ca0 E400     		.sleb128 100
 11254 0ca2 13       		.uleb128 0x13
 11255 0ca3 45240000 		.4byte	.LASF280
 11256 0ca7 E500     		.sleb128 101
 11257 0ca9 13       		.uleb128 0x13
 11258 0caa 6C140000 		.4byte	.LASF281
 11259 0cae 9901     		.sleb128 153
 11260 0cb0 13       		.uleb128 0x13
 11261 0cb1 7B140000 		.4byte	.LASF282
 11262 0cb5 9A01     		.sleb128 154
 11263 0cb7 13       		.uleb128 0x13
 11264 0cb8 8A140000 		.4byte	.LASF283
ARM GAS  C:\Users\RECEPC~1\AppData\Local\Temp\ccNQpeOs.s 			page 238


 11265 0cbc 9B01     		.sleb128 155
 11266 0cbe 13       		.uleb128 0x13
 11267 0cbf 99140000 		.4byte	.LASF284
 11268 0cc3 9C01     		.sleb128 156
 11269 0cc5 13       		.uleb128 0x13
 11270 0cc6 E41C0000 		.4byte	.LASF285
 11271 0cca FA01     		.sleb128 250
 11272 0ccc 13       		.uleb128 0x13
 11273 0ccd 72240000 		.4byte	.LASF286
 11274 0cd1 FF01     		.sleb128 255
 11275 0cd3 00       		.byte	0
 11276 0cd4 12       		.uleb128 0x12
 11277 0cd5 650A0000 		.4byte	.LASF287
 11278 0cd9 01       		.byte	0x1
 11279 0cda 0A       		.byte	0xa
 11280 0cdb 6B       		.byte	0x6b
 11281 0cdc 3B0D0000 		.4byte	0xd3b
 11282 0ce0 13       		.uleb128 0x13
 11283 0ce1 B0200000 		.4byte	.LASF288
 11284 0ce5 00       		.sleb128 0
 11285 0ce6 13       		.uleb128 0x13
 11286 0ce7 32090000 		.4byte	.LASF289
 11287 0ceb A001     		.sleb128 160
 11288 0ced 13       		.uleb128 0x13
 11289 0cee 82150000 		.4byte	.LASF290
 11290 0cf2 A101     		.sleb128 161
 11291 0cf4 13       		.uleb128 0x13
 11292 0cf5 5E260000 		.4byte	.LASF291
 11293 0cf9 A201     		.sleb128 162
 11294 0cfb 13       		.uleb128 0x13
 11295 0cfc 261A0000 		.4byte	.LASF292
 11296 0d00 A301     		.sleb128 163
 11297 0d02 13       		.uleb128 0x13
 11298 0d03 BF230000 		.4byte	.LASF293
 11299 0d07 A401     		.sleb128 164
 11300 0d09 13       		.uleb128 0x13
 11301 0d0a 6B1F0000 		.4byte	.LASF294
 11302 0d0e A501     		.sleb128 165
 11303 0d10 13       		.uleb128 0x13
 11304 0d11 9F1B0000 		.4byte	.LASF295
 11305 0d15 A601     		.sleb128 166
 11306 0d17 13       		.uleb128 0x13
 11307 0d18 7C120000 		.4byte	.LASF296
 11308 0d1c A701     		.sleb128 167
 11309 0d1e 13       		.uleb128 0x13
 11310 0d1f DA100000 		.4byte	.LASF297
 11311 0d23 A801     		.sleb128 168
 11312 0d25 13       		.uleb128 0x13
 11313 0d26 480F0000 		.4byte	.LASF298
 11314 0d2a A901     		.sleb128 169
 11315 0d2c 13       		.uleb128 0x13
 11316 0d2d 502A0000 		.4byte	.LASF299
 11317 0d31 AA01     		.sleb128 170
 11318 0d33 13       		.uleb128 0x13
 11319 0d34 FD0B0000 		.4byte	.LASF300
 11320 0d38 AB01     		.sleb128 171
 11321 0d3a 00       		.byte	0
ARM GAS  C:\Users\RECEPC~1\AppData\Local\Temp\ccNQpeOs.s 			page 239


 11322 0d3b 1E       		.uleb128 0x1e
 11323 0d3c 01       		.byte	0x1
 11324 0d3d 0A       		.byte	0xa
 11325 0d3e 82       		.byte	0x82
 11326 0d3f 500D0000 		.4byte	0xd50
 11327 0d43 13       		.uleb128 0x13
 11328 0d44 48000000 		.4byte	.LASF301
 11329 0d48 00       		.sleb128 0
 11330 0d49 13       		.uleb128 0x13
 11331 0d4a 51000000 		.4byte	.LASF302
 11332 0d4e 01       		.sleb128 1
 11333 0d4f 00       		.byte	0
 11334 0d50 1E       		.uleb128 0x1e
 11335 0d51 01       		.byte	0x1
 11336 0d52 0A       		.byte	0xa
 11337 0d53 88       		.byte	0x88
 11338 0d54 670D0000 		.4byte	0xd67
 11339 0d58 13       		.uleb128 0x13
 11340 0d59 0A030000 		.4byte	.LASF303
 11341 0d5d D600     		.sleb128 86
 11342 0d5f 13       		.uleb128 0x13
 11343 0d60 14030000 		.4byte	.LASF304
 11344 0d64 D700     		.sleb128 87
 11345 0d66 00       		.byte	0
 11346 0d67 12       		.uleb128 0x12
 11347 0d68 96240000 		.4byte	.LASF305
 11348 0d6c 01       		.byte	0x1
 11349 0d6d 0A       		.byte	0xa
 11350 0d6e 8D       		.byte	0x8d
 11351 0d6f 820D0000 		.4byte	0xd82
 11352 0d73 13       		.uleb128 0x13
 11353 0d74 05170000 		.4byte	.LASF306
 11354 0d78 C501     		.sleb128 197
 11355 0d7a 13       		.uleb128 0x13
 11356 0d7b 570C0000 		.4byte	.LASF307
 11357 0d7f 8501     		.sleb128 133
 11358 0d81 00       		.byte	0
 11359 0d82 1F       		.uleb128 0x1f
 11360 0d83 08       		.byte	0x8
 11361 0d84 0A       		.byte	0xa
 11362 0d85 93       		.byte	0x93
 11363 0d86 C70D0000 		.4byte	0xdc7
 11364 0d8a 0D       		.uleb128 0xd
 11365 0d8b 0B080000 		.4byte	.LASF308
 11366 0d8f 0A       		.byte	0xa
 11367 0d90 95       		.byte	0x95
 11368 0d91 81000000 		.4byte	0x81
 11369 0d95 00       		.byte	0
 11370 0d96 0D       		.uleb128 0xd
 11371 0d97 740B0000 		.4byte	.LASF309
 11372 0d9b 0A       		.byte	0xa
 11373 0d9c 96       		.byte	0x96
 11374 0d9d 81000000 		.4byte	0x81
 11375 0da1 01       		.byte	0x1
 11376 0da2 0D       		.uleb128 0xd
 11377 0da3 29240000 		.4byte	.LASF310
 11378 0da7 0A       		.byte	0xa
ARM GAS  C:\Users\RECEPC~1\AppData\Local\Temp\ccNQpeOs.s 			page 240


 11379 0da8 97       		.byte	0x97
 11380 0da9 81000000 		.4byte	0x81
 11381 0dad 02       		.byte	0x2
 11382 0dae 0D       		.uleb128 0xd
 11383 0daf EA280000 		.4byte	.LASF311
 11384 0db3 0A       		.byte	0xa
 11385 0db4 98       		.byte	0x98
 11386 0db5 8D000000 		.4byte	0x8d
 11387 0db9 04       		.byte	0x4
 11388 0dba 0D       		.uleb128 0xd
 11389 0dbb 3D0F0000 		.4byte	.LASF312
 11390 0dbf 0A       		.byte	0xa
 11391 0dc0 99       		.byte	0x99
 11392 0dc1 8D000000 		.4byte	0x8d
 11393 0dc5 06       		.byte	0x6
 11394 0dc6 00       		.byte	0
 11395 0dc7 03       		.uleb128 0x3
 11396 0dc8 FE040000 		.4byte	.LASF313
 11397 0dcc 0A       		.byte	0xa
 11398 0dcd 9A       		.byte	0x9a
 11399 0dce 820D0000 		.4byte	0xd82
 11400 0dd2 03       		.uleb128 0x3
 11401 0dd3 1F240000 		.4byte	.LASF314
 11402 0dd7 0A       		.byte	0xa
 11403 0dd8 9C       		.byte	0x9c
 11404 0dd9 38020000 		.4byte	0x238
 11405 0ddd 03       		.uleb128 0x3
 11406 0dde C8280000 		.4byte	.LASF315
 11407 0de2 0A       		.byte	0xa
 11408 0de3 9D       		.byte	0x9d
 11409 0de4 470A0000 		.4byte	0xa47
 11410 0de8 03       		.uleb128 0x3
 11411 0de9 FF100000 		.4byte	.LASF316
 11412 0ded 0A       		.byte	0xa
 11413 0dee 9E       		.byte	0x9e
 11414 0def 38020000 		.4byte	0x238
 11415 0df3 03       		.uleb128 0x3
 11416 0df4 0E1B0000 		.4byte	.LASF317
 11417 0df8 0A       		.byte	0xa
 11418 0df9 9F       		.byte	0x9f
 11419 0dfa 38020000 		.4byte	0x238
 11420 0dfe 03       		.uleb128 0x3
 11421 0dff 5F0E0000 		.4byte	.LASF318
 11422 0e03 0A       		.byte	0xa
 11423 0e04 A0       		.byte	0xa0
 11424 0e05 38020000 		.4byte	0x238
 11425 0e09 03       		.uleb128 0x3
 11426 0e0a 99100000 		.4byte	.LASF319
 11427 0e0e 0A       		.byte	0xa
 11428 0e0f A2       		.byte	0xa2
 11429 0e10 D20D0000 		.4byte	0xdd2
 11430 0e14 03       		.uleb128 0x3
 11431 0e15 1C180000 		.4byte	.LASF320
 11432 0e19 0A       		.byte	0xa
 11433 0e1a A3       		.byte	0xa3
 11434 0e1b DD0D0000 		.4byte	0xddd
 11435 0e1f 03       		.uleb128 0x3
ARM GAS  C:\Users\RECEPC~1\AppData\Local\Temp\ccNQpeOs.s 			page 241


 11436 0e20 1F0D0000 		.4byte	.LASF321
 11437 0e24 0A       		.byte	0xa
 11438 0e25 A4       		.byte	0xa4
 11439 0e26 E80D0000 		.4byte	0xde8
 11440 0e2a 03       		.uleb128 0x3
 11441 0e2b B8210000 		.4byte	.LASF322
 11442 0e2f 0A       		.byte	0xa
 11443 0e30 A5       		.byte	0xa5
 11444 0e31 F30D0000 		.4byte	0xdf3
 11445 0e35 03       		.uleb128 0x3
 11446 0e36 D0150000 		.4byte	.LASF323
 11447 0e3a 0A       		.byte	0xa
 11448 0e3b A6       		.byte	0xa6
 11449 0e3c FE0D0000 		.4byte	0xdfe
 11450 0e40 1F       		.uleb128 0x1f
 11451 0e41 0E       		.byte	0xe
 11452 0e42 0A       		.byte	0xa
 11453 0e43 B5       		.byte	0xb5
 11454 0e44 790E0000 		.4byte	0xe79
 11455 0e48 0D       		.uleb128 0xd
 11456 0e49 8C050000 		.4byte	.LASF324
 11457 0e4d 0A       		.byte	0xa
 11458 0e4e B7       		.byte	0xb7
 11459 0e4f 8D000000 		.4byte	0x8d
 11460 0e53 00       		.byte	0
 11461 0e54 0D       		.uleb128 0xd
 11462 0e55 43020000 		.4byte	.LASF325
 11463 0e59 0A       		.byte	0xa
 11464 0e5a B8       		.byte	0xb8
 11465 0e5b 8D000000 		.4byte	0x8d
 11466 0e5f 02       		.byte	0x2
 11467 0e60 0D       		.uleb128 0xd
 11468 0e61 231B0000 		.4byte	.LASF326
 11469 0e65 0A       		.byte	0xa
 11470 0e66 B9       		.byte	0xb9
 11471 0e67 81000000 		.4byte	0x81
 11472 0e6b 04       		.byte	0x4
 11473 0e6c 0D       		.uleb128 0xd
 11474 0e6d 32140000 		.4byte	.LASF327
 11475 0e71 0A       		.byte	0xa
 11476 0e72 BB       		.byte	0xbb
 11477 0e73 C70D0000 		.4byte	0xdc7
 11478 0e77 06       		.byte	0x6
 11479 0e78 00       		.byte	0
 11480 0e79 03       		.uleb128 0x3
 11481 0e7a F5160000 		.4byte	.LASF328
 11482 0e7e 0A       		.byte	0xa
 11483 0e7f BC       		.byte	0xbc
 11484 0e80 400E0000 		.4byte	0xe40
 11485 0e84 1F       		.uleb128 0x1f
 11486 0e85 44       		.byte	0x44
 11487 0e86 0A       		.byte	0xa
 11488 0e87 C0       		.byte	0xc0
 11489 0e88 410F0000 		.4byte	0xf41
 11490 0e8c 0D       		.uleb128 0xd
 11491 0e8d 29190000 		.4byte	.LASF329
 11492 0e91 0A       		.byte	0xa
ARM GAS  C:\Users\RECEPC~1\AppData\Local\Temp\ccNQpeOs.s 			page 242


 11493 0e92 C3       		.byte	0xc3
 11494 0e93 81000000 		.4byte	0x81
 11495 0e97 00       		.byte	0
 11496 0e98 0D       		.uleb128 0xd
 11497 0e99 DD0C0000 		.4byte	.LASF330
 11498 0e9d 0A       		.byte	0xa
 11499 0e9e C5       		.byte	0xc5
 11500 0e9f 81000000 		.4byte	0x81
 11501 0ea3 01       		.byte	0x1
 11502 0ea4 0D       		.uleb128 0xd
 11503 0ea5 4B0C0000 		.4byte	.LASF331
 11504 0ea9 0A       		.byte	0xa
 11505 0eaa C7       		.byte	0xc7
 11506 0eab 81000000 		.4byte	0x81
 11507 0eaf 02       		.byte	0x2
 11508 0eb0 0D       		.uleb128 0xd
 11509 0eb1 88280000 		.4byte	.LASF332
 11510 0eb5 0A       		.byte	0xa
 11511 0eb6 C9       		.byte	0xc9
 11512 0eb7 8D000000 		.4byte	0x8d
 11513 0ebb 04       		.byte	0x4
 11514 0ebc 0D       		.uleb128 0xd
 11515 0ebd 4A140000 		.4byte	.LASF333
 11516 0ec1 0A       		.byte	0xa
 11517 0ec2 CB       		.byte	0xcb
 11518 0ec3 81000000 		.4byte	0x81
 11519 0ec7 06       		.byte	0x6
 11520 0ec8 0D       		.uleb128 0xd
 11521 0ec9 010F0000 		.4byte	.LASF334
 11522 0ecd 0A       		.byte	0xa
 11523 0ece CE       		.byte	0xce
 11524 0ecf 410F0000 		.4byte	0xf41
 11525 0ed3 07       		.byte	0x7
 11526 0ed4 0D       		.uleb128 0xd
 11527 0ed5 D01B0000 		.4byte	.LASF335
 11528 0ed9 0A       		.byte	0xa
 11529 0eda CF       		.byte	0xcf
 11530 0edb 410F0000 		.4byte	0xf41
 11531 0edf 0D       		.byte	0xd
 11532 0ee0 0D       		.uleb128 0xd
 11533 0ee1 2F180000 		.4byte	.LASF336
 11534 0ee5 0A       		.byte	0xa
 11535 0ee6 D2       		.byte	0xd2
 11536 0ee7 410F0000 		.4byte	0xf41
 11537 0eeb 13       		.byte	0x13
 11538 0eec 0D       		.uleb128 0xd
 11539 0eed AA230000 		.4byte	.LASF337
 11540 0ef1 0A       		.byte	0xa
 11541 0ef2 D3       		.byte	0xd3
 11542 0ef3 410F0000 		.4byte	0xf41
 11543 0ef7 19       		.byte	0x19
 11544 0ef8 0D       		.uleb128 0xd
 11545 0ef9 C5150000 		.4byte	.LASF338
 11546 0efd 0A       		.byte	0xa
 11547 0efe D5       		.byte	0xd5
 11548 0eff D20D0000 		.4byte	0xdd2
 11549 0f03 20       		.byte	0x20
ARM GAS  C:\Users\RECEPC~1\AppData\Local\Temp\ccNQpeOs.s 			page 243


 11550 0f04 0D       		.uleb128 0xd
 11551 0f05 9A1F0000 		.4byte	.LASF339
 11552 0f09 0A       		.byte	0xa
 11553 0f0a D8       		.byte	0xd8
 11554 0f0b E80D0000 		.4byte	0xde8
 11555 0f0f 24       		.byte	0x24
 11556 0f10 0D       		.uleb128 0xd
 11557 0f11 CD010000 		.4byte	.LASF340
 11558 0f15 0A       		.byte	0xa
 11559 0f16 DA       		.byte	0xda
 11560 0f17 DD0D0000 		.4byte	0xddd
 11561 0f1b 28       		.byte	0x28
 11562 0f1c 0D       		.uleb128 0xd
 11563 0f1d 94200000 		.4byte	.LASF341
 11564 0f21 0A       		.byte	0xa
 11565 0f22 DC       		.byte	0xdc
 11566 0f23 790E0000 		.4byte	0xe79
 11567 0f27 2C       		.byte	0x2c
 11568 0f28 0D       		.uleb128 0xd
 11569 0f29 CC1E0000 		.4byte	.LASF342
 11570 0f2d 0A       		.byte	0xa
 11571 0f2e DE       		.byte	0xde
 11572 0f2f F30D0000 		.4byte	0xdf3
 11573 0f33 3C       		.byte	0x3c
 11574 0f34 0D       		.uleb128 0xd
 11575 0f35 080D0000 		.4byte	.LASF343
 11576 0f39 0A       		.byte	0xa
 11577 0f3a E0       		.byte	0xe0
 11578 0f3b FE0D0000 		.4byte	0xdfe
 11579 0f3f 40       		.byte	0x40
 11580 0f40 00       		.byte	0
 11581 0f41 0A       		.uleb128 0xa
 11582 0f42 81000000 		.4byte	0x81
 11583 0f46 510F0000 		.4byte	0xf51
 11584 0f4a 0B       		.uleb128 0xb
 11585 0f4b F4000000 		.4byte	0xf4
 11586 0f4f 05       		.byte	0x5
 11587 0f50 00       		.byte	0
 11588 0f51 03       		.uleb128 0x3
 11589 0f52 1D270000 		.4byte	.LASF344
 11590 0f56 0A       		.byte	0xa
 11591 0f57 E1       		.byte	0xe1
 11592 0f58 840E0000 		.4byte	0xe84
 11593 0f5c 03       		.uleb128 0x3
 11594 0f5d A6130000 		.4byte	.LASF345
 11595 0f61 0A       		.byte	0xa
 11596 0f62 E1       		.byte	0xe1
 11597 0f63 670F0000 		.4byte	0xf67
 11598 0f67 07       		.uleb128 0x7
 11599 0f68 04       		.byte	0x4
 11600 0f69 840E0000 		.4byte	0xe84
 11601 0f6d 1F       		.uleb128 0x1f
 11602 0f6e 16       		.byte	0x16
 11603 0f6f 0A       		.byte	0xa
 11604 0f70 E5       		.byte	0xe5
 11605 0f71 A60F0000 		.4byte	0xfa6
 11606 0f75 0D       		.uleb128 0xd
ARM GAS  C:\Users\RECEPC~1\AppData\Local\Temp\ccNQpeOs.s 			page 244


 11607 0f76 8E210000 		.4byte	.LASF346
 11608 0f7a 0A       		.byte	0xa
 11609 0f7b E7       		.byte	0xe7
 11610 0f7c 8D000000 		.4byte	0x8d
 11611 0f80 00       		.byte	0
 11612 0f81 0D       		.uleb128 0xd
 11613 0f82 870C0000 		.4byte	.LASF347
 11614 0f86 0A       		.byte	0xa
 11615 0f87 E8       		.byte	0xe8
 11616 0f88 8D000000 		.4byte	0x8d
 11617 0f8c 02       		.byte	0x2
 11618 0f8d 0D       		.uleb128 0xd
 11619 0f8e 13020000 		.4byte	.LASF348
 11620 0f92 0A       		.byte	0xa
 11621 0f93 E9       		.byte	0xe9
 11622 0f94 81000000 		.4byte	0x81
 11623 0f98 04       		.byte	0x4
 11624 0f99 0D       		.uleb128 0xd
 11625 0f9a 23070000 		.4byte	.LASF86
 11626 0f9e 0A       		.byte	0xa
 11627 0f9f EA       		.byte	0xea
 11628 0fa0 A60F0000 		.4byte	0xfa6
 11629 0fa4 05       		.byte	0x5
 11630 0fa5 00       		.byte	0
 11631 0fa6 0A       		.uleb128 0xa
 11632 0fa7 CB000000 		.4byte	0xcb
 11633 0fab B60F0000 		.4byte	0xfb6
 11634 0faf 0B       		.uleb128 0xb
 11635 0fb0 F4000000 		.4byte	0xf4
 11636 0fb4 0F       		.byte	0xf
 11637 0fb5 00       		.byte	0
 11638 0fb6 03       		.uleb128 0x3
 11639 0fb7 061A0000 		.4byte	.LASF349
 11640 0fbb 0A       		.byte	0xa
 11641 0fbc EC       		.byte	0xec
 11642 0fbd 6D0F0000 		.4byte	0xf6d
 11643 0fc1 1F       		.uleb128 0x1f
 11644 0fc2 3C       		.byte	0x3c
 11645 0fc3 0A       		.byte	0xa
 11646 0fc4 EE       		.byte	0xee
 11647 0fc5 A7100000 		.4byte	0x10a7
 11648 0fc9 0D       		.uleb128 0xd
 11649 0fca 00000000 		.4byte	.LASF350
 11650 0fce 0A       		.byte	0xa
 11651 0fcf F0       		.byte	0xf0
 11652 0fd0 81000000 		.4byte	0x81
 11653 0fd4 00       		.byte	0
 11654 0fd5 0D       		.uleb128 0xd
 11655 0fd6 10180000 		.4byte	.LASF351
 11656 0fda 0A       		.byte	0xa
 11657 0fdb F1       		.byte	0xf1
 11658 0fdc 81000000 		.4byte	0x81
 11659 0fe0 01       		.byte	0x1
 11660 0fe1 0D       		.uleb128 0xd
 11661 0fe2 D8000000 		.4byte	.LASF352
 11662 0fe6 0A       		.byte	0xa
 11663 0fe7 F2       		.byte	0xf2
ARM GAS  C:\Users\RECEPC~1\AppData\Local\Temp\ccNQpeOs.s 			page 245


 11664 0fe8 81000000 		.4byte	0x81
 11665 0fec 02       		.byte	0x2
 11666 0fed 0D       		.uleb128 0xd
 11667 0fee AC110000 		.4byte	.LASF353
 11668 0ff2 0A       		.byte	0xa
 11669 0ff3 F3       		.byte	0xf3
 11670 0ff4 81000000 		.4byte	0x81
 11671 0ff8 03       		.byte	0x3
 11672 0ff9 0D       		.uleb128 0xd
 11673 0ffa 56120000 		.4byte	.LASF354
 11674 0ffe 0A       		.byte	0xa
 11675 0fff F4       		.byte	0xf4
 11676 1000 81000000 		.4byte	0x81
 11677 1004 04       		.byte	0x4
 11678 1005 0D       		.uleb128 0xd
 11679 1006 0A140000 		.4byte	.LASF355
 11680 100a 0A       		.byte	0xa
 11681 100b F5       		.byte	0xf5
 11682 100c 81000000 		.4byte	0x81
 11683 1010 05       		.byte	0x5
 11684 1011 0D       		.uleb128 0xd
 11685 1012 B8190000 		.4byte	.LASF356
 11686 1016 0A       		.byte	0xa
 11687 1017 F6       		.byte	0xf6
 11688 1018 8D000000 		.4byte	0x8d
 11689 101c 06       		.byte	0x6
 11690 101d 0D       		.uleb128 0xd
 11691 101e 84070000 		.4byte	.LASF357
 11692 1022 0A       		.byte	0xa
 11693 1023 F7       		.byte	0xf7
 11694 1024 8D000000 		.4byte	0x8d
 11695 1028 08       		.byte	0x8
 11696 1029 0D       		.uleb128 0xd
 11697 102a 4A140000 		.4byte	.LASF333
 11698 102e 0A       		.byte	0xa
 11699 102f F8       		.byte	0xf8
 11700 1030 81000000 		.4byte	0x81
 11701 1034 0A       		.byte	0xa
 11702 1035 0D       		.uleb128 0xd
 11703 1036 900F0000 		.4byte	.LASF358
 11704 103a 0A       		.byte	0xa
 11705 103b FA       		.byte	0xfa
 11706 103c 81000000 		.4byte	0x81
 11707 1040 0B       		.byte	0xb
 11708 1041 0D       		.uleb128 0xd
 11709 1042 F91A0000 		.4byte	.LASF359
 11710 1046 0A       		.byte	0xa
 11711 1047 FB       		.byte	0xfb
 11712 1048 81000000 		.4byte	0x81
 11713 104c 0C       		.byte	0xc
 11714 104d 0D       		.uleb128 0xd
 11715 104e 491C0000 		.4byte	.LASF360
 11716 1052 0A       		.byte	0xa
 11717 1053 FD       		.byte	0xfd
 11718 1054 AD020000 		.4byte	0x2ad
 11719 1058 0D       		.byte	0xd
 11720 1059 0D       		.uleb128 0xd
ARM GAS  C:\Users\RECEPC~1\AppData\Local\Temp\ccNQpeOs.s 			page 246


 11721 105a E7070000 		.4byte	.LASF361
 11722 105e 0A       		.byte	0xa
 11723 105f FF       		.byte	0xff
 11724 1060 A7100000 		.4byte	0x10a7
 11725 1064 10       		.byte	0x10
 11726 1065 18       		.uleb128 0x18
 11727 1066 090E0000 		.4byte	.LASF362
 11728 106a 0A       		.byte	0xa
 11729 106b 0001     		.2byte	0x100
 11730 106d A7100000 		.4byte	0x10a7
 11731 1071 14       		.byte	0x14
 11732 1072 18       		.uleb128 0x18
 11733 1073 8A0E0000 		.4byte	.LASF363
 11734 1077 0A       		.byte	0xa
 11735 1078 0101     		.2byte	0x101
 11736 107a B60F0000 		.4byte	0xfb6
 11737 107e 18       		.byte	0x18
 11738 107f 18       		.uleb128 0x18
 11739 1080 F2290000 		.4byte	.LASF364
 11740 1084 0A       		.byte	0xa
 11741 1085 0301     		.2byte	0x103
 11742 1087 FB000000 		.4byte	0xfb
 11743 108b 30       		.byte	0x30
 11744 108c 18       		.uleb128 0x18
 11745 108d 13150000 		.4byte	.LASF88
 11746 1091 0A       		.byte	0xa
 11747 1092 0401     		.2byte	0x104
 11748 1094 FB000000 		.4byte	0xfb
 11749 1098 34       		.byte	0x34
 11750 1099 18       		.uleb128 0x18
 11751 109a 67170000 		.4byte	.LASF365
 11752 109e 0A       		.byte	0xa
 11753 109f 0601     		.2byte	0x106
 11754 10a1 470A0000 		.4byte	0xa47
 11755 10a5 38       		.byte	0x38
 11756 10a6 00       		.byte	0
 11757 10a7 07       		.uleb128 0x7
 11758 10a8 04       		.byte	0x4
 11759 10a9 510F0000 		.4byte	0xf51
 11760 10ad 05       		.uleb128 0x5
 11761 10ae A2200000 		.4byte	.LASF366
 11762 10b2 0A       		.byte	0xa
 11763 10b3 0801     		.2byte	0x108
 11764 10b5 C10F0000 		.4byte	0xfc1
 11765 10b9 05       		.uleb128 0x5
 11766 10ba 9C090000 		.4byte	.LASF367
 11767 10be 0A       		.byte	0xa
 11768 10bf 0801     		.2byte	0x108
 11769 10c1 C5100000 		.4byte	0x10c5
 11770 10c5 07       		.uleb128 0x7
 11771 10c6 04       		.byte	0x4
 11772 10c7 C10F0000 		.4byte	0xfc1
 11773 10cb 1A       		.uleb128 0x1a
 11774 10cc 07       		.byte	0x7
 11775 10cd 0A       		.byte	0xa
 11776 10ce 0A01     		.2byte	0x10a
 11777 10d0 09110000 		.4byte	0x1109
ARM GAS  C:\Users\RECEPC~1\AppData\Local\Temp\ccNQpeOs.s 			page 247


 11778 10d4 18       		.uleb128 0x18
 11779 10d5 5D280000 		.4byte	.LASF368
 11780 10d9 0A       		.byte	0xa
 11781 10da 0C01     		.2byte	0x10c
 11782 10dc 81000000 		.4byte	0x81
 11783 10e0 00       		.byte	0
 11784 10e1 18       		.uleb128 0x18
 11785 10e2 61160000 		.4byte	.LASF369
 11786 10e6 0A       		.byte	0xa
 11787 10e7 0D01     		.2byte	0x10d
 11788 10e9 AD020000 		.4byte	0x2ad
 11789 10ed 01       		.byte	0x1
 11790 10ee 18       		.uleb128 0x18
 11791 10ef 84070000 		.4byte	.LASF357
 11792 10f3 0A       		.byte	0xa
 11793 10f4 0E01     		.2byte	0x10e
 11794 10f6 81000000 		.4byte	0x81
 11795 10fa 02       		.byte	0x2
 11796 10fb 18       		.uleb128 0x18
 11797 10fc 67200000 		.4byte	.LASF370
 11798 1100 0A       		.byte	0xa
 11799 1101 0F01     		.2byte	0x10f
 11800 1103 09110000 		.4byte	0x1109
 11801 1107 03       		.byte	0x3
 11802 1108 00       		.byte	0
 11803 1109 0A       		.uleb128 0xa
 11804 110a CB000000 		.4byte	0xcb
 11805 110e 19110000 		.4byte	0x1119
 11806 1112 0B       		.uleb128 0xb
 11807 1113 F4000000 		.4byte	0xf4
 11808 1117 03       		.byte	0x3
 11809 1118 00       		.byte	0
 11810 1119 05       		.uleb128 0x5
 11811 111a D4050000 		.4byte	.LASF371
 11812 111e 0A       		.byte	0xa
 11813 111f 1101     		.2byte	0x111
 11814 1121 CB100000 		.4byte	0x10cb
 11815 1125 1E       		.uleb128 0x1e
 11816 1126 01       		.byte	0x1
 11817 1127 0B       		.byte	0xb
 11818 1128 26       		.byte	0x26
 11819 1129 3F120000 		.4byte	0x123f
 11820 112d 13       		.uleb128 0x13
 11821 112e 180A0000 		.4byte	.LASF372
 11822 1132 A101     		.sleb128 161
 11823 1134 13       		.uleb128 0x13
 11824 1135 E40A0000 		.4byte	.LASF373
 11825 1139 A101     		.sleb128 161
 11826 113b 13       		.uleb128 0x13
 11827 113c 83020000 		.4byte	.LASF374
 11828 1140 A201     		.sleb128 162
 11829 1142 13       		.uleb128 0x13
 11830 1143 25220000 		.4byte	.LASF375
 11831 1147 A201     		.sleb128 162
 11832 1149 13       		.uleb128 0x13
 11833 114a FE0F0000 		.4byte	.LASF376
 11834 114e A301     		.sleb128 163
ARM GAS  C:\Users\RECEPC~1\AppData\Local\Temp\ccNQpeOs.s 			page 248


 11835 1150 13       		.uleb128 0x13
 11836 1151 8D270000 		.4byte	.LASF377
 11837 1155 A301     		.sleb128 163
 11838 1157 13       		.uleb128 0x13
 11839 1158 2D0A0000 		.4byte	.LASF378
 11840 115c AE01     		.sleb128 174
 11841 115e 13       		.uleb128 0x13
 11842 115f 58090000 		.4byte	.LASF379
 11843 1163 AE01     		.sleb128 174
 11844 1165 13       		.uleb128 0x13
 11845 1166 DE0B0000 		.4byte	.LASF380
 11846 116a AA01     		.sleb128 170
 11847 116c 13       		.uleb128 0x13
 11848 116d 68280000 		.4byte	.LASF381
 11849 1171 AA01     		.sleb128 170
 11850 1173 13       		.uleb128 0x13
 11851 1174 94210000 		.4byte	.LASF382
 11852 1178 A401     		.sleb128 164
 11853 117a 13       		.uleb128 0x13
 11854 117b E9140000 		.4byte	.LASF383
 11855 117f A401     		.sleb128 164
 11856 1181 13       		.uleb128 0x13
 11857 1182 C6040000 		.4byte	.LASF384
 11858 1186 A501     		.sleb128 165
 11859 1188 13       		.uleb128 0x13
 11860 1189 16170000 		.4byte	.LASF385
 11861 118d A501     		.sleb128 165
 11862 118f 13       		.uleb128 0x13
 11863 1190 BD100000 		.4byte	.LASF386
 11864 1194 E801     		.sleb128 232
 11865 1196 13       		.uleb128 0x13
 11866 1197 1D1D0000 		.4byte	.LASF387
 11867 119b E801     		.sleb128 232
 11868 119d 13       		.uleb128 0x13
 11869 119e BC220000 		.4byte	.LASF388
 11870 11a2 A601     		.sleb128 166
 11871 11a4 13       		.uleb128 0x13
 11872 11a5 851C0000 		.4byte	.LASF389
 11873 11a9 A601     		.sleb128 166
 11874 11ab 13       		.uleb128 0x13
 11875 11ac 94290000 		.4byte	.LASF390
 11876 11b0 A701     		.sleb128 167
 11877 11b2 13       		.uleb128 0x13
 11878 11b3 85080000 		.4byte	.LASF391
 11879 11b7 A701     		.sleb128 167
 11880 11b9 13       		.uleb128 0x13
 11881 11ba 940D0000 		.4byte	.LASF392
 11882 11be A801     		.sleb128 168
 11883 11c0 13       		.uleb128 0x13
 11884 11c1 02060000 		.4byte	.LASF393
 11885 11c5 A801     		.sleb128 168
 11886 11c7 13       		.uleb128 0x13
 11887 11c8 5D0F0000 		.4byte	.LASF394
 11888 11cc A901     		.sleb128 169
 11889 11ce 13       		.uleb128 0x13
 11890 11cf F71F0000 		.4byte	.LASF395
 11891 11d3 A901     		.sleb128 169
ARM GAS  C:\Users\RECEPC~1\AppData\Local\Temp\ccNQpeOs.s 			page 249


 11892 11d5 13       		.uleb128 0x13
 11893 11d6 62130000 		.4byte	.LASF396
 11894 11da AC01     		.sleb128 172
 11895 11dc 13       		.uleb128 0x13
 11896 11dd 772A0000 		.4byte	.LASF397
 11897 11e1 AC01     		.sleb128 172
 11898 11e3 13       		.uleb128 0x13
 11899 11e4 24210000 		.4byte	.LASF398
 11900 11e8 AD01     		.sleb128 173
 11901 11ea 13       		.uleb128 0x13
 11902 11eb 750D0000 		.4byte	.LASF399
 11903 11ef AD01     		.sleb128 173
 11904 11f1 13       		.uleb128 0x13
 11905 11f2 32290000 		.4byte	.LASF400
 11906 11f6 E101     		.sleb128 225
 11907 11f8 13       		.uleb128 0x13
 11908 11f9 F2260000 		.4byte	.LASF401
 11909 11fd E101     		.sleb128 225
 11910 11ff 13       		.uleb128 0x13
 11911 1200 CE240000 		.4byte	.LASF402
 11912 1204 E201     		.sleb128 226
 11913 1206 13       		.uleb128 0x13
 11914 1207 39060000 		.4byte	.LASF403
 11915 120b E201     		.sleb128 226
 11916 120d 13       		.uleb128 0x13
 11917 120e C32A0000 		.4byte	.LASF404
 11918 1212 E301     		.sleb128 227
 11919 1214 13       		.uleb128 0x13
 11920 1215 56050000 		.4byte	.LASF405
 11921 1219 E301     		.sleb128 227
 11922 121b 13       		.uleb128 0x13
 11923 121c 78200000 		.4byte	.LASF406
 11924 1220 E401     		.sleb128 228
 11925 1222 13       		.uleb128 0x13
 11926 1223 2B070000 		.4byte	.LASF407
 11927 1227 E401     		.sleb128 228
 11928 1229 13       		.uleb128 0x13
 11929 122a EA040000 		.4byte	.LASF408
 11930 122e E601     		.sleb128 230
 11931 1230 13       		.uleb128 0x13
 11932 1231 77290000 		.4byte	.LASF409
 11933 1235 E601     		.sleb128 230
 11934 1237 13       		.uleb128 0x13
 11935 1238 DE150000 		.4byte	.LASF410
 11936 123c FF01     		.sleb128 255
 11937 123e 00       		.byte	0
 11938 123f 12       		.uleb128 0x12
 11939 1240 98030000 		.4byte	.LASF411
 11940 1244 01       		.byte	0x1
 11941 1245 0B       		.byte	0xb
 11942 1246 8A       		.byte	0x8a
 11943 1247 7C120000 		.4byte	0x127c
 11944 124b 13       		.uleb128 0x13
 11945 124c 21040000 		.4byte	.LASF412
 11946 1250 08       		.sleb128 8
 11947 1251 13       		.uleb128 0x13
 11948 1252 B4170000 		.4byte	.LASF413
ARM GAS  C:\Users\RECEPC~1\AppData\Local\Temp\ccNQpeOs.s 			page 250


 11949 1256 01       		.sleb128 1
 11950 1257 13       		.uleb128 0x13
 11951 1258 A91C0000 		.4byte	.LASF414
 11952 125c 02       		.sleb128 2
 11953 125d 13       		.uleb128 0x13
 11954 125e 0D240000 		.4byte	.LASF415
 11955 1262 03       		.sleb128 3
 11956 1263 13       		.uleb128 0x13
 11957 1264 770C0000 		.4byte	.LASF416
 11958 1268 05       		.sleb128 5
 11959 1269 13       		.uleb128 0x13
 11960 126a FF000000 		.4byte	.LASF417
 11961 126e 06       		.sleb128 6
 11962 126f 13       		.uleb128 0x13
 11963 1270 5E1C0000 		.4byte	.LASF418
 11964 1274 04       		.sleb128 4
 11965 1275 13       		.uleb128 0x13
 11966 1276 F9220000 		.4byte	.LASF419
 11967 127a 0B       		.sleb128 11
 11968 127b 00       		.byte	0
 11969 127c 12       		.uleb128 0x12
 11970 127d C8080000 		.4byte	.LASF420
 11971 1281 01       		.byte	0x1
 11972 1282 0B       		.byte	0xb
 11973 1283 AB       		.byte	0xab
 11974 1284 95120000 		.4byte	0x1295
 11975 1288 13       		.uleb128 0x13
 11976 1289 DC040000 		.4byte	.LASF421
 11977 128d 01       		.sleb128 1
 11978 128e 13       		.uleb128 0x13
 11979 128f D2110000 		.4byte	.LASF422
 11980 1293 02       		.sleb128 2
 11981 1294 00       		.byte	0
 11982 1295 1F       		.uleb128 0x1f
 11983 1296 0A       		.byte	0xa
 11984 1297 0B       		.byte	0xb
 11985 1298 B1       		.byte	0xb1
 11986 1299 DA120000 		.4byte	0x12da
 11987 129d 0D       		.uleb128 0xd
 11988 129e AC020000 		.4byte	.LASF152
 11989 12a2 0B       		.byte	0xb
 11990 12a3 B3       		.byte	0xb3
 11991 12a4 DE000000 		.4byte	0xde
 11992 12a8 00       		.byte	0
 11993 12a9 0D       		.uleb128 0xd
 11994 12aa F3120000 		.4byte	.LASF423
 11995 12ae 0B       		.byte	0xb
 11996 12af B4       		.byte	0xb4
 11997 12b0 E3000000 		.4byte	0xe3
 11998 12b4 02       		.byte	0x2
 11999 12b5 0D       		.uleb128 0xd
 12000 12b6 B0150000 		.4byte	.LASF424
 12001 12ba 0B       		.byte	0xb
 12002 12bb B5       		.byte	0xb5
 12003 12bc DE000000 		.4byte	0xde
 12004 12c0 04       		.byte	0x4
 12005 12c1 0D       		.uleb128 0xd
ARM GAS  C:\Users\RECEPC~1\AppData\Local\Temp\ccNQpeOs.s 			page 251


 12006 12c2 D7030000 		.4byte	.LASF425
 12007 12c6 0B       		.byte	0xb
 12008 12c7 B7       		.byte	0xb7
 12009 12c8 E3000000 		.4byte	0xe3
 12010 12cc 06       		.byte	0x6
 12011 12cd 0D       		.uleb128 0xd
 12012 12ce 08290000 		.4byte	.LASF426
 12013 12d2 0B       		.byte	0xb
 12014 12d3 B8       		.byte	0xb8
 12015 12d4 E3000000 		.4byte	0xe3
 12016 12d8 08       		.byte	0x8
 12017 12d9 00       		.byte	0
 12018 12da 03       		.uleb128 0x3
 12019 12db 062B0000 		.4byte	.LASF427
 12020 12df 0B       		.byte	0xb
 12021 12e0 B9       		.byte	0xb9
 12022 12e1 95120000 		.4byte	0x1295
 12023 12e5 1F       		.uleb128 0x1f
 12024 12e6 02       		.byte	0x2
 12025 12e7 0C       		.byte	0xc
 12026 12e8 72       		.byte	0x72
 12027 12e9 06130000 		.4byte	0x1306
 12028 12ed 0D       		.uleb128 0xd
 12029 12ee 7E2B0000 		.4byte	.LASF428
 12030 12f2 0C       		.byte	0xc
 12031 12f3 74       		.byte	0x74
 12032 12f4 81000000 		.4byte	0x81
 12033 12f8 00       		.byte	0
 12034 12f9 0D       		.uleb128 0xd
 12035 12fa 08000000 		.4byte	.LASF429
 12036 12fe 0C       		.byte	0xc
 12037 12ff 75       		.byte	0x75
 12038 1300 81000000 		.4byte	0x81
 12039 1304 01       		.byte	0x1
 12040 1305 00       		.byte	0
 12041 1306 03       		.uleb128 0x3
 12042 1307 13250000 		.4byte	.LASF430
 12043 130b 0C       		.byte	0xc
 12044 130c 77       		.byte	0x77
 12045 130d E5120000 		.4byte	0x12e5
 12046 1311 12       		.uleb128 0x12
 12047 1312 B2070000 		.4byte	.LASF431
 12048 1316 02       		.byte	0x2
 12049 1317 0D       		.byte	0xd
 12050 1318 2A       		.byte	0x2a
 12051 1319 35140000 		.4byte	0x1435
 12052 131d 13       		.uleb128 0x13
 12053 131e 51010000 		.4byte	.LASF432
 12054 1322 00       		.sleb128 0
 12055 1323 13       		.uleb128 0x13
 12056 1324 06040000 		.4byte	.LASF433
 12057 1328 C000     		.sleb128 64
 12058 132a 13       		.uleb128 0x13
 12059 132b 7C010000 		.4byte	.LASF434
 12060 132f 8001     		.sleb128 128
 12061 1331 13       		.uleb128 0x13
 12062 1332 97010000 		.4byte	.LASF435
ARM GAS  C:\Users\RECEPC~1\AppData\Local\Temp\ccNQpeOs.s 			page 252


 12063 1336 C001     		.sleb128 192
 12064 1338 13       		.uleb128 0x13
 12065 1339 B2010000 		.4byte	.LASF436
 12066 133d 8002     		.sleb128 256
 12067 133f 13       		.uleb128 0x13
 12068 1340 3D1A0000 		.4byte	.LASF437
 12069 1344 C002     		.sleb128 320
 12070 1346 13       		.uleb128 0x13
 12071 1347 DD010000 		.4byte	.LASF438
 12072 134b 8003     		.sleb128 384
 12073 134d 13       		.uleb128 0x13
 12074 134e F8010000 		.4byte	.LASF439
 12075 1352 C003     		.sleb128 448
 12076 1354 13       		.uleb128 0x13
 12077 1355 B1050000 		.4byte	.LASF440
 12078 1359 8004     		.sleb128 512
 12079 135b 13       		.uleb128 0x13
 12080 135c 83180000 		.4byte	.LASF441
 12081 1360 C004     		.sleb128 576
 12082 1362 13       		.uleb128 0x13
 12083 1363 A5280000 		.4byte	.LASF442
 12084 1367 8005     		.sleb128 640
 12085 1369 13       		.uleb128 0x13
 12086 136a A40F0000 		.4byte	.LASF443
 12087 136e C005     		.sleb128 704
 12088 1370 13       		.uleb128 0x13
 12089 1371 13010000 		.4byte	.LASF444
 12090 1375 8006     		.sleb128 768
 12091 1377 13       		.uleb128 0x13
 12092 1378 260E0000 		.4byte	.LASF445
 12093 137c C006     		.sleb128 832
 12094 137e 13       		.uleb128 0x13
 12095 137f B1290000 		.4byte	.LASF446
 12096 1383 8007     		.sleb128 896
 12097 1385 13       		.uleb128 0x13
 12098 1386 38130000 		.4byte	.LASF447
 12099 138a C007     		.sleb128 960
 12100 138c 13       		.uleb128 0x13
 12101 138d A3080000 		.4byte	.LASF448
 12102 1391 8008     		.sleb128 1024
 12103 1393 13       		.uleb128 0x13
 12104 1394 061F0000 		.4byte	.LASF449
 12105 1398 C008     		.sleb128 1088
 12106 139a 13       		.uleb128 0x13
 12107 139b CD260000 		.4byte	.LASF450
 12108 139f 8009     		.sleb128 1152
 12109 13a1 13       		.uleb128 0x13
 12110 13a2 F7110000 		.4byte	.LASF451
 12111 13a6 C009     		.sleb128 1216
 12112 13a8 13       		.uleb128 0x13
 12113 13a9 B7120000 		.4byte	.LASF452
 12114 13ad 800A     		.sleb128 1280
 12115 13af 13       		.uleb128 0x13
 12116 13b0 D5120000 		.4byte	.LASF453
 12117 13b4 C00A     		.sleb128 1344
 12118 13b6 13       		.uleb128 0x13
 12119 13b7 211E0000 		.4byte	.LASF454
ARM GAS  C:\Users\RECEPC~1\AppData\Local\Temp\ccNQpeOs.s 			page 253


 12120 13bb 800B     		.sleb128 1408
 12121 13bd 13       		.uleb128 0x13
 12122 13be 0A130000 		.4byte	.LASF455
 12123 13c2 C00B     		.sleb128 1472
 12124 13c4 13       		.uleb128 0x13
 12125 13c5 AF0E0000 		.4byte	.LASF456
 12126 13c9 800C     		.sleb128 1536
 12127 13cb 13       		.uleb128 0x13
 12128 13cc F21B0000 		.4byte	.LASF457
 12129 13d0 C00C     		.sleb128 1600
 12130 13d2 13       		.uleb128 0x13
 12131 13d3 FA0A0000 		.4byte	.LASF458
 12132 13d7 800D     		.sleb128 1664
 12133 13d9 13       		.uleb128 0x13
 12134 13da 48070000 		.4byte	.LASF459
 12135 13de C00D     		.sleb128 1728
 12136 13e0 13       		.uleb128 0x13
 12137 13e1 BB1C0000 		.4byte	.LASF460
 12138 13e5 800E     		.sleb128 1792
 12139 13e7 13       		.uleb128 0x13
 12140 13e8 362B0000 		.4byte	.LASF461
 12141 13ec C00E     		.sleb128 1856
 12142 13ee 13       		.uleb128 0x13
 12143 13ef D80E0000 		.4byte	.LASF462
 12144 13f3 800F     		.sleb128 1920
 12145 13f5 13       		.uleb128 0x13
 12146 13f6 07050000 		.4byte	.LASF463
 12147 13fa C00F     		.sleb128 1984
 12148 13fc 13       		.uleb128 0x13
 12149 13fd 611B0000 		.4byte	.LASF464
 12150 1401 8010     		.sleb128 2048
 12151 1403 13       		.uleb128 0x13
 12152 1404 42180000 		.4byte	.LASF465
 12153 1408 C010     		.sleb128 2112
 12154 140a 13       		.uleb128 0x13
 12155 140b 84060000 		.4byte	.LASF466
 12156 140f 8011     		.sleb128 2176
 12157 1411 13       		.uleb128 0x13
 12158 1412 E1020000 		.4byte	.LASF467
 12159 1416 C011     		.sleb128 2240
 12160 1418 13       		.uleb128 0x13
 12161 1419 DD190000 		.4byte	.LASF468
 12162 141d 8012     		.sleb128 2304
 12163 141f 13       		.uleb128 0x13
 12164 1420 38160000 		.4byte	.LASF469
 12165 1424 C012     		.sleb128 2368
 12166 1426 13       		.uleb128 0x13
 12167 1427 41040000 		.4byte	.LASF470
 12168 142b 8013     		.sleb128 2432
 12169 142d 13       		.uleb128 0x13
 12170 142e 7A000000 		.4byte	.LASF471
 12171 1432 C013     		.sleb128 2496
 12172 1434 00       		.byte	0
 12173 1435 12       		.uleb128 0x12
 12174 1436 D8140000 		.4byte	.LASF472
 12175 143a 01       		.byte	0x1
 12176 143b 0E       		.byte	0xe
ARM GAS  C:\Users\RECEPC~1\AppData\Local\Temp\ccNQpeOs.s 			page 254


 12177 143c 33       		.byte	0x33
 12178 143d 66140000 		.4byte	0x1466
 12179 1441 13       		.uleb128 0x13
 12180 1442 B1100000 		.4byte	.LASF473
 12181 1446 00       		.sleb128 0
 12182 1447 13       		.uleb128 0x13
 12183 1448 A81F0000 		.4byte	.LASF474
 12184 144c 01       		.sleb128 1
 12185 144d 13       		.uleb128 0x13
 12186 144e 7F0A0000 		.4byte	.LASF475
 12187 1452 02       		.sleb128 2
 12188 1453 13       		.uleb128 0x13
 12189 1454 29160000 		.4byte	.LASF476
 12190 1458 04       		.sleb128 4
 12191 1459 13       		.uleb128 0x13
 12192 145a D2160000 		.4byte	.LASF477
 12193 145e 05       		.sleb128 5
 12194 145f 13       		.uleb128 0x13
 12195 1460 23280000 		.4byte	.LASF478
 12196 1464 06       		.sleb128 6
 12197 1465 00       		.byte	0
 12198 1466 20       		.uleb128 0x20
 12199 1467 DB0F0000 		.4byte	.LASF483
 12200 146b 01       		.byte	0x1
 12201 146c 3B       		.byte	0x3b
 12202 146d 00000000 		.4byte	.LFB63
 12203 1471 C4000000 		.4byte	.LFE63-.LFB63
 12204 1475 01       		.uleb128 0x1
 12205 1476 9C       		.byte	0x9c
 12206 1477 E8140000 		.4byte	0x14e8
 12207 147b 21       		.uleb128 0x21
 12208 147c A21C0000 		.4byte	.LASF485
 12209 1480 01       		.byte	0x1
 12210 1481 3B       		.byte	0x3b
 12211 1482 FB000000 		.4byte	0xfb
 12212 1486 02       		.uleb128 0x2
 12213 1487 91       		.byte	0x91
 12214 1488 54       		.sleb128 -44
 12215 1489 22       		.uleb128 0x22
 12216 148a 54280000 		.4byte	.LASF479
 12217 148e 01       		.byte	0x1
 12218 148f 3D       		.byte	0x3d
 12219 1490 C70D0000 		.4byte	0xdc7
 12220 1494 02       		.uleb128 0x2
 12221 1495 91       		.byte	0x91
 12222 1496 58       		.sleb128 -40
 12223 1497 22       		.uleb128 0x22
 12224 1498 A60E0000 		.4byte	.LASF480
 12225 149c 01       		.byte	0x1
 12226 149d 43       		.byte	0x43
 12227 149e 25010000 		.4byte	0x125
 12228 14a2 02       		.uleb128 0x2
 12229 14a3 91       		.byte	0x91
 12230 14a4 6C       		.sleb128 -20
 12231 14a5 22       		.uleb128 0x22
 12232 14a6 4F0B0000 		.4byte	.LASF481
 12233 14aa 01       		.byte	0x1
ARM GAS  C:\Users\RECEPC~1\AppData\Local\Temp\ccNQpeOs.s 			page 255


 12234 14ab 44       		.byte	0x44
 12235 14ac E8140000 		.4byte	0x14e8
 12236 14b0 02       		.uleb128 0x2
 12237 14b1 91       		.byte	0x91
 12238 14b2 68       		.sleb128 -24
 12239 14b3 23       		.uleb128 0x23
 12240 14b4 2A000000 		.4byte	.LBB2
 12241 14b8 46000000 		.4byte	.LBE2-.LBB2
 12242 14bc CF140000 		.4byte	0x14cf
 12243 14c0 22       		.uleb128 0x22
 12244 14c1 680C0000 		.4byte	.LASF482
 12245 14c5 01       		.byte	0x1
 12246 14c6 47       		.byte	0x47
 12247 14c7 EE140000 		.4byte	0x14ee
 12248 14cb 02       		.uleb128 0x2
 12249 14cc 91       		.byte	0x91
 12250 14cd 64       		.sleb128 -28
 12251 14ce 00       		.byte	0
 12252 14cf 24       		.uleb128 0x24
 12253 14d0 74000000 		.4byte	.LBB3
 12254 14d4 46000000 		.4byte	.LBE3-.LBB3
 12255 14d8 22       		.uleb128 0x22
 12256 14d9 680C0000 		.4byte	.LASF482
 12257 14dd 01       		.byte	0x1
 12258 14de 50       		.byte	0x50
 12259 14df EE140000 		.4byte	0x14ee
 12260 14e3 02       		.uleb128 0x2
 12261 14e4 91       		.byte	0x91
 12262 14e5 60       		.sleb128 -32
 12263 14e6 00       		.byte	0
 12264 14e7 00       		.byte	0
 12265 14e8 07       		.uleb128 0x7
 12266 14e9 04       		.byte	0x4
 12267 14ea AD100000 		.4byte	0x10ad
 12268 14ee 07       		.uleb128 0x7
 12269 14ef 04       		.byte	0x4
 12270 14f0 4E030000 		.4byte	0x34e
 12271 14f4 20       		.uleb128 0x20
 12272 14f5 5E250000 		.4byte	.LASF484
 12273 14f9 01       		.byte	0x1
 12274 14fa 59       		.byte	0x59
 12275 14fb 00000000 		.4byte	.LFB64
 12276 14ff 42010000 		.4byte	.LFE64-.LFB64
 12277 1503 01       		.uleb128 0x1
 12278 1504 9C       		.byte	0x9c
 12279 1505 92150000 		.4byte	0x1592
 12280 1509 21       		.uleb128 0x21
 12281 150a A21C0000 		.4byte	.LASF485
 12282 150e 01       		.byte	0x1
 12283 150f 59       		.byte	0x59
 12284 1510 FB000000 		.4byte	0xfb
 12285 1514 02       		.uleb128 0x2
 12286 1515 91       		.byte	0x91
 12287 1516 64       		.sleb128 -28
 12288 1517 22       		.uleb128 0x22
 12289 1518 4F0B0000 		.4byte	.LASF481
 12290 151c 01       		.byte	0x1
ARM GAS  C:\Users\RECEPC~1\AppData\Local\Temp\ccNQpeOs.s 			page 256


 12291 151d 5B       		.byte	0x5b
 12292 151e B9100000 		.4byte	0x10b9
 12293 1522 02       		.uleb128 0x2
 12294 1523 91       		.byte	0x91
 12295 1524 6C       		.sleb128 -20
 12296 1525 23       		.uleb128 0x23
 12297 1526 28000000 		.4byte	.LBB4
 12298 152a 32000000 		.4byte	.LBE4-.LBB4
 12299 152e 41150000 		.4byte	0x1541
 12300 1532 22       		.uleb128 0x22
 12301 1533 A8150000 		.4byte	.LASF486
 12302 1537 01       		.byte	0x1
 12303 1538 63       		.byte	0x63
 12304 1539 81000000 		.4byte	0x81
 12305 153d 02       		.uleb128 0x2
 12306 153e 91       		.byte	0x91
 12307 153f 6B       		.sleb128 -21
 12308 1540 00       		.byte	0
 12309 1541 23       		.uleb128 0x23
 12310 1542 70000000 		.4byte	.LBB5
 12311 1546 32000000 		.4byte	.LBE5-.LBB5
 12312 154a 5D150000 		.4byte	0x155d
 12313 154e 22       		.uleb128 0x22
 12314 154f A8150000 		.4byte	.LASF486
 12315 1553 01       		.byte	0x1
 12316 1554 6F       		.byte	0x6f
 12317 1555 81000000 		.4byte	0x81
 12318 1559 02       		.uleb128 0x2
 12319 155a 91       		.byte	0x91
 12320 155b 6A       		.sleb128 -22
 12321 155c 00       		.byte	0
 12322 155d 23       		.uleb128 0x23
 12323 155e C2000000 		.4byte	.LBB6
 12324 1562 32000000 		.4byte	.LBE6-.LBB6
 12325 1566 79150000 		.4byte	0x1579
 12326 156a 22       		.uleb128 0x22
 12327 156b A8150000 		.4byte	.LASF486
 12328 156f 01       		.byte	0x1
 12329 1570 7E       		.byte	0x7e
 12330 1571 81000000 		.4byte	0x81
 12331 1575 02       		.uleb128 0x2
 12332 1576 91       		.byte	0x91
 12333 1577 69       		.sleb128 -23
 12334 1578 00       		.byte	0
 12335 1579 24       		.uleb128 0x24
 12336 157a 0A010000 		.4byte	.LBB7
 12337 157e 32000000 		.4byte	.LBE7-.LBB7
 12338 1582 22       		.uleb128 0x22
 12339 1583 A8150000 		.4byte	.LASF486
 12340 1587 01       		.byte	0x1
 12341 1588 8A       		.byte	0x8a
 12342 1589 81000000 		.4byte	0x81
 12343 158d 02       		.uleb128 0x2
 12344 158e 91       		.byte	0x91
 12345 158f 68       		.sleb128 -24
 12346 1590 00       		.byte	0
 12347 1591 00       		.byte	0
ARM GAS  C:\Users\RECEPC~1\AppData\Local\Temp\ccNQpeOs.s 			page 257


 12348 1592 20       		.uleb128 0x20
 12349 1593 B5030000 		.4byte	.LASF487
 12350 1597 01       		.byte	0x1
 12351 1598 94       		.byte	0x94
 12352 1599 00000000 		.4byte	.LFB65
 12353 159d 3C010000 		.4byte	.LFE65-.LFB65
 12354 15a1 01       		.uleb128 0x1
 12355 15a2 9C       		.byte	0x9c
 12356 15a3 02160000 		.4byte	0x1602
 12357 15a7 21       		.uleb128 0x21
 12358 15a8 A21C0000 		.4byte	.LASF485
 12359 15ac 01       		.byte	0x1
 12360 15ad 94       		.byte	0x94
 12361 15ae FB000000 		.4byte	0xfb
 12362 15b2 02       		.uleb128 0x2
 12363 15b3 91       		.byte	0x91
 12364 15b4 5C       		.sleb128 -36
 12365 15b5 22       		.uleb128 0x22
 12366 15b6 4F0B0000 		.4byte	.LASF481
 12367 15ba 01       		.byte	0x1
 12368 15bb 96       		.byte	0x96
 12369 15bc B9100000 		.4byte	0x10b9
 12370 15c0 02       		.uleb128 0x2
 12371 15c1 91       		.byte	0x91
 12372 15c2 6C       		.sleb128 -20
 12373 15c3 22       		.uleb128 0x22
 12374 15c4 95050000 		.4byte	.LASF488
 12375 15c8 01       		.byte	0x1
 12376 15c9 9A       		.byte	0x9a
 12377 15ca 590A0000 		.4byte	0xa59
 12378 15ce 02       		.uleb128 0x2
 12379 15cf 91       		.byte	0x91
 12380 15d0 68       		.sleb128 -24
 12381 15d1 24       		.uleb128 0x24
 12382 15d2 2C000000 		.4byte	.LBB8
 12383 15d6 06010000 		.4byte	.LBE8-.LBB8
 12384 15da 25       		.uleb128 0x25
 12385 15db 70747300 		.ascii	"pts\000"
 12386 15df 01       		.byte	0x1
 12387 15e0 9E       		.byte	0x9e
 12388 15e1 AF060000 		.4byte	0x6af
 12389 15e5 02       		.uleb128 0x2
 12390 15e6 91       		.byte	0x91
 12391 15e7 64       		.sleb128 -28
 12392 15e8 24       		.uleb128 0x24
 12393 15e9 52000000 		.4byte	.LBB9
 12394 15ed E0000000 		.4byte	.LBE9-.LBB9
 12395 15f1 22       		.uleb128 0x22
 12396 15f2 6D120000 		.4byte	.LASF489
 12397 15f6 01       		.byte	0x1
 12398 15f7 A2       		.byte	0xa2
 12399 15f8 81000000 		.4byte	0x81
 12400 15fc 02       		.uleb128 0x2
 12401 15fd 91       		.byte	0x91
 12402 15fe 63       		.sleb128 -29
 12403 15ff 00       		.byte	0
 12404 1600 00       		.byte	0
ARM GAS  C:\Users\RECEPC~1\AppData\Local\Temp\ccNQpeOs.s 			page 258


 12405 1601 00       		.byte	0
 12406 1602 20       		.uleb128 0x20
 12407 1603 E4110000 		.4byte	.LASF490
 12408 1607 01       		.byte	0x1
 12409 1608 B8       		.byte	0xb8
 12410 1609 00000000 		.4byte	.LFB66
 12411 160d 70010000 		.4byte	.LFE66-.LFB66
 12412 1611 01       		.uleb128 0x1
 12413 1612 9C       		.byte	0x9c
 12414 1613 92160000 		.4byte	0x1692
 12415 1617 21       		.uleb128 0x21
 12416 1618 A21C0000 		.4byte	.LASF485
 12417 161c 01       		.byte	0x1
 12418 161d B8       		.byte	0xb8
 12419 161e FB000000 		.4byte	0xfb
 12420 1622 02       		.uleb128 0x2
 12421 1623 91       		.byte	0x91
 12422 1624 44       		.sleb128 -60
 12423 1625 22       		.uleb128 0x22
 12424 1626 80230000 		.4byte	.LASF491
 12425 162a 01       		.byte	0x1
 12426 162b BA       		.byte	0xba
 12427 162c A60F0000 		.4byte	0xfa6
 12428 1630 02       		.uleb128 0x2
 12429 1631 91       		.byte	0x91
 12430 1632 50       		.sleb128 -48
 12431 1633 22       		.uleb128 0x22
 12432 1634 54280000 		.4byte	.LASF479
 12433 1638 01       		.byte	0x1
 12434 1639 BB       		.byte	0xbb
 12435 163a C70D0000 		.4byte	0xdc7
 12436 163e 02       		.uleb128 0x2
 12437 163f 91       		.byte	0x91
 12438 1640 48       		.sleb128 -56
 12439 1641 22       		.uleb128 0x22
 12440 1642 4F0B0000 		.4byte	.LASF481
 12441 1646 01       		.byte	0x1
 12442 1647 C0       		.byte	0xc0
 12443 1648 E8140000 		.4byte	0x14e8
 12444 164c 02       		.uleb128 0x2
 12445 164d 91       		.byte	0x91
 12446 164e 6C       		.sleb128 -20
 12447 164f 22       		.uleb128 0x22
 12448 1650 77270000 		.4byte	.LASF492
 12449 1654 01       		.byte	0x1
 12450 1655 C5       		.byte	0xc5
 12451 1656 81000000 		.4byte	0x81
 12452 165a 02       		.uleb128 0x2
 12453 165b 91       		.byte	0x91
 12454 165c 6B       		.sleb128 -21
 12455 165d 23       		.uleb128 0x23
 12456 165e 46000000 		.4byte	.LBB10
 12457 1662 8C000000 		.4byte	.LBE10-.LBB10
 12458 1666 79160000 		.4byte	0x1679
 12459 166a 22       		.uleb128 0x22
 12460 166b 680C0000 		.4byte	.LASF482
 12461 166f 01       		.byte	0x1
ARM GAS  C:\Users\RECEPC~1\AppData\Local\Temp\ccNQpeOs.s 			page 259


 12462 1670 CA       		.byte	0xca
 12463 1671 EE140000 		.4byte	0x14ee
 12464 1675 02       		.uleb128 0x2
 12465 1676 91       		.byte	0x91
 12466 1677 64       		.sleb128 -28
 12467 1678 00       		.byte	0
 12468 1679 24       		.uleb128 0x24
 12469 167a D6000000 		.4byte	.LBB11
 12470 167e 8C000000 		.4byte	.LBE11-.LBB11
 12471 1682 22       		.uleb128 0x22
 12472 1683 680C0000 		.4byte	.LASF482
 12473 1687 01       		.byte	0x1
 12474 1688 DA       		.byte	0xda
 12475 1689 EE140000 		.4byte	0x14ee
 12476 168d 02       		.uleb128 0x2
 12477 168e 91       		.byte	0x91
 12478 168f 60       		.sleb128 -32
 12479 1690 00       		.byte	0
 12480 1691 00       		.byte	0
 12481 1692 20       		.uleb128 0x20
 12482 1693 D3090000 		.4byte	.LASF493
 12483 1697 01       		.byte	0x1
 12484 1698 E9       		.byte	0xe9
 12485 1699 00000000 		.4byte	.LFB67
 12486 169d C4000000 		.4byte	.LFE67-.LFB67
 12487 16a1 01       		.uleb128 0x1
 12488 16a2 9C       		.byte	0x9c
 12489 16a3 14170000 		.4byte	0x1714
 12490 16a7 21       		.uleb128 0x21
 12491 16a8 A21C0000 		.4byte	.LASF485
 12492 16ac 01       		.byte	0x1
 12493 16ad E9       		.byte	0xe9
 12494 16ae FB000000 		.4byte	0xfb
 12495 16b2 02       		.uleb128 0x2
 12496 16b3 91       		.byte	0x91
 12497 16b4 54       		.sleb128 -44
 12498 16b5 22       		.uleb128 0x22
 12499 16b6 54280000 		.4byte	.LASF479
 12500 16ba 01       		.byte	0x1
 12501 16bb EB       		.byte	0xeb
 12502 16bc C70D0000 		.4byte	0xdc7
 12503 16c0 02       		.uleb128 0x2
 12504 16c1 91       		.byte	0x91
 12505 16c2 58       		.sleb128 -40
 12506 16c3 22       		.uleb128 0x22
 12507 16c4 A60E0000 		.4byte	.LASF480
 12508 16c8 01       		.byte	0x1
 12509 16c9 F1       		.byte	0xf1
 12510 16ca 25010000 		.4byte	0x125
 12511 16ce 02       		.uleb128 0x2
 12512 16cf 91       		.byte	0x91
 12513 16d0 6C       		.sleb128 -20
 12514 16d1 22       		.uleb128 0x22
 12515 16d2 4F0B0000 		.4byte	.LASF481
 12516 16d6 01       		.byte	0x1
 12517 16d7 F2       		.byte	0xf2
 12518 16d8 E8140000 		.4byte	0x14e8
ARM GAS  C:\Users\RECEPC~1\AppData\Local\Temp\ccNQpeOs.s 			page 260


 12519 16dc 02       		.uleb128 0x2
 12520 16dd 91       		.byte	0x91
 12521 16de 68       		.sleb128 -24
 12522 16df 23       		.uleb128 0x23
 12523 16e0 2A000000 		.4byte	.LBB12
 12524 16e4 46000000 		.4byte	.LBE12-.LBB12
 12525 16e8 FB160000 		.4byte	0x16fb
 12526 16ec 22       		.uleb128 0x22
 12527 16ed 680C0000 		.4byte	.LASF482
 12528 16f1 01       		.byte	0x1
 12529 16f2 F5       		.byte	0xf5
 12530 16f3 EE140000 		.4byte	0x14ee
 12531 16f7 02       		.uleb128 0x2
 12532 16f8 91       		.byte	0x91
 12533 16f9 64       		.sleb128 -28
 12534 16fa 00       		.byte	0
 12535 16fb 24       		.uleb128 0x24
 12536 16fc 74000000 		.4byte	.LBB13
 12537 1700 46000000 		.4byte	.LBE13-.LBB13
 12538 1704 22       		.uleb128 0x22
 12539 1705 680C0000 		.4byte	.LASF482
 12540 1709 01       		.byte	0x1
 12541 170a FE       		.byte	0xfe
 12542 170b EE140000 		.4byte	0x14ee
 12543 170f 02       		.uleb128 0x2
 12544 1710 91       		.byte	0x91
 12545 1711 60       		.sleb128 -32
 12546 1712 00       		.byte	0
 12547 1713 00       		.byte	0
 12548 1714 26       		.uleb128 0x26
 12549 1715 9E1E0000 		.4byte	.LASF494
 12550 1719 01       		.byte	0x1
 12551 171a 0701     		.2byte	0x107
 12552 171c 00000000 		.4byte	.LFB68
 12553 1720 34010000 		.4byte	.LFE68-.LFB68
 12554 1724 01       		.uleb128 0x1
 12555 1725 9C       		.byte	0x9c
 12556 1726 EE170000 		.4byte	0x17ee
 12557 172a 27       		.uleb128 0x27
 12558 172b A21C0000 		.4byte	.LASF485
 12559 172f 01       		.byte	0x1
 12560 1730 0701     		.2byte	0x107
 12561 1732 FB000000 		.4byte	0xfb
 12562 1736 03       		.uleb128 0x3
 12563 1737 91       		.byte	0x91
 12564 1738 A47F     		.sleb128 -92
 12565 173a 28       		.uleb128 0x28
 12566 173b 4F0B0000 		.4byte	.LASF481
 12567 173f 01       		.byte	0x1
 12568 1740 0901     		.2byte	0x109
 12569 1742 B9100000 		.4byte	0x10b9
 12570 1746 02       		.uleb128 0x2
 12571 1747 91       		.byte	0x91
 12572 1748 6C       		.sleb128 -20
 12573 1749 23       		.uleb128 0x23
 12574 174a 14000000 		.4byte	.LBB14
 12575 174e 82000000 		.4byte	.LBE14-.LBB14
ARM GAS  C:\Users\RECEPC~1\AppData\Local\Temp\ccNQpeOs.s 			page 261


 12576 1752 9C170000 		.4byte	0x179c
 12577 1756 28       		.uleb128 0x28
 12578 1757 680C0000 		.4byte	.LASF482
 12579 175b 01       		.byte	0x1
 12580 175c 0C01     		.2byte	0x10c
 12581 175e 59030000 		.4byte	0x359
 12582 1762 02       		.uleb128 0x2
 12583 1763 91       		.byte	0x91
 12584 1764 68       		.sleb128 -24
 12585 1765 23       		.uleb128 0x23
 12586 1766 22000000 		.4byte	.LBB15
 12587 176a 30000000 		.4byte	.LBE15-.LBB15
 12588 176e 82170000 		.4byte	0x1782
 12589 1772 28       		.uleb128 0x28
 12590 1773 D2190000 		.4byte	.LASF495
 12591 1777 01       		.byte	0x1
 12592 1778 1001     		.2byte	0x110
 12593 177a EE170000 		.4byte	0x17ee
 12594 177e 02       		.uleb128 0x2
 12595 177f 91       		.byte	0x91
 12596 1780 58       		.sleb128 -40
 12597 1781 00       		.byte	0
 12598 1782 24       		.uleb128 0x24
 12599 1783 60000000 		.4byte	.LBB16
 12600 1787 36000000 		.4byte	.LBE16-.LBB16
 12601 178b 28       		.uleb128 0x28
 12602 178c D2190000 		.4byte	.LASF495
 12603 1790 01       		.byte	0x1
 12604 1791 1901     		.2byte	0x119
 12605 1793 FE170000 		.4byte	0x17fe
 12606 1797 02       		.uleb128 0x2
 12607 1798 91       		.byte	0x91
 12608 1799 48       		.sleb128 -56
 12609 179a 00       		.byte	0
 12610 179b 00       		.byte	0
 12611 179c 24       		.uleb128 0x24
 12612 179d A2000000 		.4byte	.LBB17
 12613 17a1 82000000 		.4byte	.LBE17-.LBB17
 12614 17a5 28       		.uleb128 0x28
 12615 17a6 680C0000 		.4byte	.LASF482
 12616 17aa 01       		.byte	0x1
 12617 17ab 2101     		.2byte	0x121
 12618 17ad 59030000 		.4byte	0x359
 12619 17b1 02       		.uleb128 0x2
 12620 17b2 91       		.byte	0x91
 12621 17b3 64       		.sleb128 -28
 12622 17b4 23       		.uleb128 0x23
 12623 17b5 B0000000 		.4byte	.LBB18
 12624 17b9 30000000 		.4byte	.LBE18-.LBB18
 12625 17bd D2170000 		.4byte	0x17d2
 12626 17c1 28       		.uleb128 0x28
 12627 17c2 D2190000 		.4byte	.LASF495
 12628 17c6 01       		.byte	0x1
 12629 17c7 2501     		.2byte	0x125
 12630 17c9 EE170000 		.4byte	0x17ee
 12631 17cd 03       		.uleb128 0x3
 12632 17ce 91       		.byte	0x91
ARM GAS  C:\Users\RECEPC~1\AppData\Local\Temp\ccNQpeOs.s 			page 262


 12633 17cf BC7F     		.sleb128 -68
 12634 17d1 00       		.byte	0
 12635 17d2 24       		.uleb128 0x24
 12636 17d3 EE000000 		.4byte	.LBB19
 12637 17d7 36000000 		.4byte	.LBE19-.LBB19
 12638 17db 28       		.uleb128 0x28
 12639 17dc D2190000 		.4byte	.LASF495
 12640 17e0 01       		.byte	0x1
 12641 17e1 2E01     		.2byte	0x12e
 12642 17e3 FE170000 		.4byte	0x17fe
 12643 17e7 03       		.uleb128 0x3
 12644 17e8 91       		.byte	0x91
 12645 17e9 AC7F     		.sleb128 -84
 12646 17eb 00       		.byte	0
 12647 17ec 00       		.byte	0
 12648 17ed 00       		.byte	0
 12649 17ee 0A       		.uleb128 0xa
 12650 17ef 81000000 		.4byte	0x81
 12651 17f3 FE170000 		.4byte	0x17fe
 12652 17f7 0B       		.uleb128 0xb
 12653 17f8 F4000000 		.4byte	0xf4
 12654 17fc 09       		.byte	0x9
 12655 17fd 00       		.byte	0
 12656 17fe 0A       		.uleb128 0xa
 12657 17ff 81000000 		.4byte	0x81
 12658 1803 0E180000 		.4byte	0x180e
 12659 1807 0B       		.uleb128 0xb
 12660 1808 F4000000 		.4byte	0xf4
 12661 180c 0D       		.byte	0xd
 12662 180d 00       		.byte	0
 12663 180e 26       		.uleb128 0x26
 12664 180f DB130000 		.4byte	.LASF496
 12665 1813 01       		.byte	0x1
 12666 1814 3601     		.2byte	0x136
 12667 1816 00000000 		.4byte	.LFB69
 12668 181a 46030000 		.4byte	.LFE69-.LFB69
 12669 181e 01       		.uleb128 0x1
 12670 181f 9C       		.byte	0x9c
 12671 1820 E8180000 		.4byte	0x18e8
 12672 1824 27       		.uleb128 0x27
 12673 1825 A21C0000 		.4byte	.LASF485
 12674 1829 01       		.byte	0x1
 12675 182a 3601     		.2byte	0x136
 12676 182c 1A010000 		.4byte	0x11a
 12677 1830 03       		.uleb128 0x3
 12678 1831 91       		.byte	0x91
 12679 1832 BC7F     		.sleb128 -68
 12680 1834 28       		.uleb128 0x28
 12681 1835 54280000 		.4byte	.LASF479
 12682 1839 01       		.byte	0x1
 12683 183a 3801     		.2byte	0x138
 12684 183c C70D0000 		.4byte	0xdc7
 12685 1840 02       		.uleb128 0x2
 12686 1841 91       		.byte	0x91
 12687 1842 4C       		.sleb128 -52
 12688 1843 28       		.uleb128 0x28
 12689 1844 A60E0000 		.4byte	.LASF480
ARM GAS  C:\Users\RECEPC~1\AppData\Local\Temp\ccNQpeOs.s 			page 263


 12690 1848 01       		.byte	0x1
 12691 1849 3E01     		.2byte	0x13e
 12692 184b E8180000 		.4byte	0x18e8
 12693 184f 02       		.uleb128 0x2
 12694 1850 91       		.byte	0x91
 12695 1851 40       		.sleb128 -64
 12696 1852 28       		.uleb128 0x28
 12697 1853 4F0B0000 		.4byte	.LASF481
 12698 1857 01       		.byte	0x1
 12699 1858 4401     		.2byte	0x144
 12700 185a E8140000 		.4byte	0x14e8
 12701 185e 02       		.uleb128 0x2
 12702 185f 91       		.byte	0x91
 12703 1860 64       		.sleb128 -28
 12704 1861 23       		.uleb128 0x23
 12705 1862 34000000 		.4byte	.LBB20
 12706 1866 8E010000 		.4byte	.LBE20-.LBB20
 12707 186a A6180000 		.4byte	0x18a6
 12708 186e 28       		.uleb128 0x28
 12709 186f 680C0000 		.4byte	.LASF482
 12710 1873 01       		.byte	0x1
 12711 1874 4701     		.2byte	0x147
 12712 1876 EE140000 		.4byte	0x14ee
 12713 187a 02       		.uleb128 0x2
 12714 187b 91       		.byte	0x91
 12715 187c 60       		.sleb128 -32
 12716 187d 24       		.uleb128 0x24
 12717 187e 44000000 		.4byte	.LBB21
 12718 1882 7E010000 		.4byte	.LBE21-.LBB21
 12719 1886 28       		.uleb128 0x28
 12720 1887 6D120000 		.4byte	.LASF489
 12721 188b 01       		.byte	0x1
 12722 188c 4A01     		.2byte	0x14a
 12723 188e 81000000 		.4byte	0x81
 12724 1892 02       		.uleb128 0x2
 12725 1893 91       		.byte	0x91
 12726 1894 5F       		.sleb128 -33
 12727 1895 28       		.uleb128 0x28
 12728 1896 B7220000 		.4byte	.LASF497
 12729 189a 01       		.byte	0x1
 12730 189b 4B01     		.2byte	0x14b
 12731 189d 8D000000 		.4byte	0x8d
 12732 18a1 02       		.uleb128 0x2
 12733 18a2 91       		.byte	0x91
 12734 18a3 5C       		.sleb128 -36
 12735 18a4 00       		.byte	0
 12736 18a5 00       		.byte	0
 12737 18a6 24       		.uleb128 0x24
 12738 18a7 CC010000 		.4byte	.LBB22
 12739 18ab 74010000 		.4byte	.LBE22-.LBB22
 12740 18af 28       		.uleb128 0x28
 12741 18b0 680C0000 		.4byte	.LASF482
 12742 18b4 01       		.byte	0x1
 12743 18b5 5901     		.2byte	0x159
 12744 18b7 EE140000 		.4byte	0x14ee
 12745 18bb 02       		.uleb128 0x2
 12746 18bc 91       		.byte	0x91
ARM GAS  C:\Users\RECEPC~1\AppData\Local\Temp\ccNQpeOs.s 			page 264


 12747 18bd 58       		.sleb128 -40
 12748 18be 24       		.uleb128 0x24
 12749 18bf DC010000 		.4byte	.LBB23
 12750 18c3 64010000 		.4byte	.LBE23-.LBB23
 12751 18c7 28       		.uleb128 0x28
 12752 18c8 6D120000 		.4byte	.LASF489
 12753 18cc 01       		.byte	0x1
 12754 18cd 5C01     		.2byte	0x15c
 12755 18cf 81000000 		.4byte	0x81
 12756 18d3 02       		.uleb128 0x2
 12757 18d4 91       		.byte	0x91
 12758 18d5 57       		.sleb128 -41
 12759 18d6 28       		.uleb128 0x28
 12760 18d7 B7220000 		.4byte	.LASF497
 12761 18db 01       		.byte	0x1
 12762 18dc 5D01     		.2byte	0x15d
 12763 18de 8D000000 		.4byte	0x8d
 12764 18e2 02       		.uleb128 0x2
 12765 18e3 91       		.byte	0x91
 12766 18e4 54       		.sleb128 -44
 12767 18e5 00       		.byte	0
 12768 18e6 00       		.byte	0
 12769 18e7 00       		.byte	0
 12770 18e8 0A       		.uleb128 0xa
 12771 18e9 25010000 		.4byte	0x125
 12772 18ed F8180000 		.4byte	0x18f8
 12773 18f1 0B       		.uleb128 0xb
 12774 18f2 F4000000 		.4byte	0xf4
 12775 18f6 02       		.byte	0x2
 12776 18f7 00       		.byte	0
 12777 18f8 26       		.uleb128 0x26
 12778 18f9 38150000 		.4byte	.LASF498
 12779 18fd 01       		.byte	0x1
 12780 18fe 6B01     		.2byte	0x16b
 12781 1900 00000000 		.4byte	.LFB70
 12782 1904 5C010000 		.4byte	.LFE70-.LFB70
 12783 1908 01       		.uleb128 0x1
 12784 1909 9C       		.byte	0x9c
 12785 190a D1190000 		.4byte	0x19d1
 12786 190e 27       		.uleb128 0x27
 12787 190f A21C0000 		.4byte	.LASF485
 12788 1913 01       		.byte	0x1
 12789 1914 6B01     		.2byte	0x16b
 12790 1916 1A010000 		.4byte	0x11a
 12791 191a 02       		.uleb128 0x2
 12792 191b 91       		.byte	0x91
 12793 191c 44       		.sleb128 -60
 12794 191d 28       		.uleb128 0x28
 12795 191e 54280000 		.4byte	.LASF479
 12796 1922 01       		.byte	0x1
 12797 1923 6D01     		.2byte	0x16d
 12798 1925 C70D0000 		.4byte	0xdc7
 12799 1929 02       		.uleb128 0x2
 12800 192a 91       		.byte	0x91
 12801 192b 4C       		.sleb128 -52
 12802 192c 28       		.uleb128 0x28
 12803 192d A60E0000 		.4byte	.LASF480
ARM GAS  C:\Users\RECEPC~1\AppData\Local\Temp\ccNQpeOs.s 			page 265


 12804 1931 01       		.byte	0x1
 12805 1932 7301     		.2byte	0x173
 12806 1934 D1190000 		.4byte	0x19d1
 12807 1938 02       		.uleb128 0x2
 12808 1939 91       		.byte	0x91
 12809 193a 48       		.sleb128 -56
 12810 193b 28       		.uleb128 0x28
 12811 193c 4F0B0000 		.4byte	.LASF481
 12812 1940 01       		.byte	0x1
 12813 1941 7701     		.2byte	0x177
 12814 1943 E8140000 		.4byte	0x14e8
 12815 1947 02       		.uleb128 0x2
 12816 1948 91       		.byte	0x91
 12817 1949 64       		.sleb128 -28
 12818 194a 23       		.uleb128 0x23
 12819 194b 2A000000 		.4byte	.LBB24
 12820 194f 92000000 		.4byte	.LBE24-.LBB24
 12821 1953 8F190000 		.4byte	0x198f
 12822 1957 28       		.uleb128 0x28
 12823 1958 680C0000 		.4byte	.LASF482
 12824 195c 01       		.byte	0x1
 12825 195d 7A01     		.2byte	0x17a
 12826 195f EE140000 		.4byte	0x14ee
 12827 1963 02       		.uleb128 0x2
 12828 1964 91       		.byte	0x91
 12829 1965 60       		.sleb128 -32
 12830 1966 24       		.uleb128 0x24
 12831 1967 38000000 		.4byte	.LBB25
 12832 196b 84000000 		.4byte	.LBE25-.LBB25
 12833 196f 28       		.uleb128 0x28
 12834 1970 6D120000 		.4byte	.LASF489
 12835 1974 01       		.byte	0x1
 12836 1975 7D01     		.2byte	0x17d
 12837 1977 81000000 		.4byte	0x81
 12838 197b 02       		.uleb128 0x2
 12839 197c 91       		.byte	0x91
 12840 197d 5F       		.sleb128 -33
 12841 197e 28       		.uleb128 0x28
 12842 197f B7220000 		.4byte	.LASF497
 12843 1983 01       		.byte	0x1
 12844 1984 7E01     		.2byte	0x17e
 12845 1986 8D000000 		.4byte	0x8d
 12846 198a 02       		.uleb128 0x2
 12847 198b 91       		.byte	0x91
 12848 198c 5C       		.sleb128 -36
 12849 198d 00       		.byte	0
 12850 198e 00       		.byte	0
 12851 198f 24       		.uleb128 0x24
 12852 1990 C0000000 		.4byte	.LBB26
 12853 1994 92000000 		.4byte	.LBE26-.LBB26
 12854 1998 28       		.uleb128 0x28
 12855 1999 680C0000 		.4byte	.LASF482
 12856 199d 01       		.byte	0x1
 12857 199e 8801     		.2byte	0x188
 12858 19a0 EE140000 		.4byte	0x14ee
 12859 19a4 02       		.uleb128 0x2
 12860 19a5 91       		.byte	0x91
ARM GAS  C:\Users\RECEPC~1\AppData\Local\Temp\ccNQpeOs.s 			page 266


 12861 19a6 58       		.sleb128 -40
 12862 19a7 24       		.uleb128 0x24
 12863 19a8 CE000000 		.4byte	.LBB27
 12864 19ac 84000000 		.4byte	.LBE27-.LBB27
 12865 19b0 28       		.uleb128 0x28
 12866 19b1 6D120000 		.4byte	.LASF489
 12867 19b5 01       		.byte	0x1
 12868 19b6 8B01     		.2byte	0x18b
 12869 19b8 81000000 		.4byte	0x81
 12870 19bc 02       		.uleb128 0x2
 12871 19bd 91       		.byte	0x91
 12872 19be 57       		.sleb128 -41
 12873 19bf 28       		.uleb128 0x28
 12874 19c0 B7220000 		.4byte	.LASF497
 12875 19c4 01       		.byte	0x1
 12876 19c5 8C01     		.2byte	0x18c
 12877 19c7 8D000000 		.4byte	0x8d
 12878 19cb 02       		.uleb128 0x2
 12879 19cc 91       		.byte	0x91
 12880 19cd 54       		.sleb128 -44
 12881 19ce 00       		.byte	0
 12882 19cf 00       		.byte	0
 12883 19d0 00       		.byte	0
 12884 19d1 0A       		.uleb128 0xa
 12885 19d2 25010000 		.4byte	0x125
 12886 19d6 E1190000 		.4byte	0x19e1
 12887 19da 0B       		.uleb128 0xb
 12888 19db F4000000 		.4byte	0xf4
 12889 19df 00       		.byte	0
 12890 19e0 00       		.byte	0
 12891 19e1 26       		.uleb128 0x26
 12892 19e2 5F1A0000 		.4byte	.LASF499
 12893 19e6 01       		.byte	0x1
 12894 19e7 9601     		.2byte	0x196
 12895 19e9 00000000 		.4byte	.LFB71
 12896 19ed 00050000 		.4byte	.LFE71-.LFB71
 12897 19f1 01       		.uleb128 0x1
 12898 19f2 9C       		.byte	0x9c
 12899 19f3 8B1B0000 		.4byte	0x1b8b
 12900 19f7 27       		.uleb128 0x27
 12901 19f8 A21C0000 		.4byte	.LASF485
 12902 19fc 01       		.byte	0x1
 12903 19fd 9601     		.2byte	0x196
 12904 19ff 1A010000 		.4byte	0x11a
 12905 1a03 03       		.uleb128 0x3
 12906 1a04 91       		.byte	0x91
 12907 1a05 A47F     		.sleb128 -92
 12908 1a07 28       		.uleb128 0x28
 12909 1a08 54280000 		.4byte	.LASF479
 12910 1a0c 01       		.byte	0x1
 12911 1a0d 9801     		.2byte	0x198
 12912 1a0f C70D0000 		.4byte	0xdc7
 12913 1a13 03       		.uleb128 0x3
 12914 1a14 91       		.byte	0x91
 12915 1a15 B47F     		.sleb128 -76
 12916 1a17 28       		.uleb128 0x28
 12917 1a18 1A1B0000 		.4byte	.LASF500
ARM GAS  C:\Users\RECEPC~1\AppData\Local\Temp\ccNQpeOs.s 			page 267


 12918 1a1c 01       		.byte	0x1
 12919 1a1d 9D01     		.2byte	0x19d
 12920 1a1f 81000000 		.4byte	0x81
 12921 1a23 02       		.uleb128 0x2
 12922 1a24 91       		.byte	0x91
 12923 1a25 67       		.sleb128 -25
 12924 1a26 28       		.uleb128 0x28
 12925 1a27 1C0F0000 		.4byte	.LASF501
 12926 1a2b 01       		.byte	0x1
 12927 1a2c 9E01     		.2byte	0x19e
 12928 1a2e 8D000000 		.4byte	0x8d
 12929 1a32 02       		.uleb128 0x2
 12930 1a33 91       		.byte	0x91
 12931 1a34 64       		.sleb128 -28
 12932 1a35 28       		.uleb128 0x28
 12933 1a36 FF210000 		.4byte	.LASF502
 12934 1a3a 01       		.byte	0x1
 12935 1a3b 9F01     		.2byte	0x19f
 12936 1a3d 8D000000 		.4byte	0x8d
 12937 1a41 02       		.uleb128 0x2
 12938 1a42 91       		.byte	0x91
 12939 1a43 62       		.sleb128 -30
 12940 1a44 28       		.uleb128 0x28
 12941 1a45 4F0B0000 		.4byte	.LASF481
 12942 1a49 01       		.byte	0x1
 12943 1a4a A001     		.2byte	0x1a0
 12944 1a4c B9100000 		.4byte	0x10b9
 12945 1a50 02       		.uleb128 0x2
 12946 1a51 91       		.byte	0x91
 12947 1a52 5C       		.sleb128 -36
 12948 1a53 23       		.uleb128 0x23
 12949 1a54 C6000000 		.4byte	.LBB28
 12950 1a58 0E020000 		.4byte	.LBE28-.LBB28
 12951 1a5c F01A0000 		.4byte	0x1af0
 12952 1a60 28       		.uleb128 0x28
 12953 1a61 70080000 		.4byte	.LASF503
 12954 1a65 01       		.byte	0x1
 12955 1a66 BA01     		.2byte	0x1ba
 12956 1a68 03010000 		.4byte	0x103
 12957 1a6c 03       		.uleb128 0x3
 12958 1a6d 91       		.byte	0x91
 12959 1a6e B07F     		.sleb128 -80
 12960 1a70 28       		.uleb128 0x28
 12961 1a71 6D120000 		.4byte	.LASF489
 12962 1a75 01       		.byte	0x1
 12963 1a76 C501     		.2byte	0x1c5
 12964 1a78 81000000 		.4byte	0x81
 12965 1a7c 02       		.uleb128 0x2
 12966 1a7d 91       		.byte	0x91
 12967 1a7e 61       		.sleb128 -31
 12968 1a7f 23       		.uleb128 0x23
 12969 1a80 34010000 		.4byte	.LBB29
 12970 1a84 5E000000 		.4byte	.LBE29-.LBB29
 12971 1a88 9C1A0000 		.4byte	0x1a9c
 12972 1a8c 28       		.uleb128 0x28
 12973 1a8d 680C0000 		.4byte	.LASF482
 12974 1a91 01       		.byte	0x1
ARM GAS  C:\Users\RECEPC~1\AppData\Local\Temp\ccNQpeOs.s 			page 268


 12975 1a92 CB01     		.2byte	0x1cb
 12976 1a94 59030000 		.4byte	0x359
 12977 1a98 02       		.uleb128 0x2
 12978 1a99 91       		.byte	0x91
 12979 1a9a 58       		.sleb128 -40
 12980 1a9b 00       		.byte	0
 12981 1a9c 23       		.uleb128 0x23
 12982 1a9d 92010000 		.4byte	.LBB30
 12983 1aa1 62000000 		.4byte	.LBE30-.LBB30
 12984 1aa5 B91A0000 		.4byte	0x1ab9
 12985 1aa9 28       		.uleb128 0x28
 12986 1aaa 680C0000 		.4byte	.LASF482
 12987 1aae 01       		.byte	0x1
 12988 1aaf D501     		.2byte	0x1d5
 12989 1ab1 59030000 		.4byte	0x359
 12990 1ab5 02       		.uleb128 0x2
 12991 1ab6 91       		.byte	0x91
 12992 1ab7 54       		.sleb128 -44
 12993 1ab8 00       		.byte	0
 12994 1ab9 23       		.uleb128 0x23
 12995 1aba F4010000 		.4byte	.LBB31
 12996 1abe 62000000 		.4byte	.LBE31-.LBB31
 12997 1ac2 D61A0000 		.4byte	0x1ad6
 12998 1ac6 28       		.uleb128 0x28
 12999 1ac7 680C0000 		.4byte	.LASF482
 13000 1acb 01       		.byte	0x1
 13001 1acc DF01     		.2byte	0x1df
 13002 1ace 59030000 		.4byte	0x359
 13003 1ad2 02       		.uleb128 0x2
 13004 1ad3 91       		.byte	0x91
 13005 1ad4 50       		.sleb128 -48
 13006 1ad5 00       		.byte	0
 13007 1ad6 24       		.uleb128 0x24
 13008 1ad7 56020000 		.4byte	.LBB32
 13009 1adb 62000000 		.4byte	.LBE32-.LBB32
 13010 1adf 28       		.uleb128 0x28
 13011 1ae0 680C0000 		.4byte	.LASF482
 13012 1ae4 01       		.byte	0x1
 13013 1ae5 E901     		.2byte	0x1e9
 13014 1ae7 59030000 		.4byte	0x359
 13015 1aeb 02       		.uleb128 0x2
 13016 1aec 91       		.byte	0x91
 13017 1aed 4C       		.sleb128 -52
 13018 1aee 00       		.byte	0
 13019 1aef 00       		.byte	0
 13020 1af0 24       		.uleb128 0x24
 13021 1af1 E0020000 		.4byte	.LBB33
 13022 1af5 14020000 		.4byte	.LBE33-.LBB33
 13023 1af9 28       		.uleb128 0x28
 13024 1afa 70080000 		.4byte	.LASF503
 13025 1afe 01       		.byte	0x1
 13026 1aff F701     		.2byte	0x1f7
 13027 1b01 03010000 		.4byte	0x103
 13028 1b05 03       		.uleb128 0x3
 13029 1b06 91       		.byte	0x91
 13030 1b07 AC7F     		.sleb128 -84
 13031 1b09 28       		.uleb128 0x28
ARM GAS  C:\Users\RECEPC~1\AppData\Local\Temp\ccNQpeOs.s 			page 269


 13032 1b0a 6D120000 		.4byte	.LASF489
 13033 1b0e 01       		.byte	0x1
 13034 1b0f 0202     		.2byte	0x202
 13035 1b11 81000000 		.4byte	0x81
 13036 1b15 02       		.uleb128 0x2
 13037 1b16 91       		.byte	0x91
 13038 1b17 60       		.sleb128 -32
 13039 1b18 23       		.uleb128 0x23
 13040 1b19 54030000 		.4byte	.LBB34
 13041 1b1d 5E000000 		.4byte	.LBE34-.LBB34
 13042 1b21 351B0000 		.4byte	0x1b35
 13043 1b25 28       		.uleb128 0x28
 13044 1b26 680C0000 		.4byte	.LASF482
 13045 1b2a 01       		.byte	0x1
 13046 1b2b 0802     		.2byte	0x208
 13047 1b2d 59030000 		.4byte	0x359
 13048 1b31 02       		.uleb128 0x2
 13049 1b32 91       		.byte	0x91
 13050 1b33 48       		.sleb128 -56
 13051 1b34 00       		.byte	0
 13052 1b35 23       		.uleb128 0x23
 13053 1b36 B2030000 		.4byte	.LBB35
 13054 1b3a 62000000 		.4byte	.LBE35-.LBB35
 13055 1b3e 521B0000 		.4byte	0x1b52
 13056 1b42 28       		.uleb128 0x28
 13057 1b43 680C0000 		.4byte	.LASF482
 13058 1b47 01       		.byte	0x1
 13059 1b48 1202     		.2byte	0x212
 13060 1b4a 59030000 		.4byte	0x359
 13061 1b4e 02       		.uleb128 0x2
 13062 1b4f 91       		.byte	0x91
 13063 1b50 44       		.sleb128 -60
 13064 1b51 00       		.byte	0
 13065 1b52 23       		.uleb128 0x23
 13066 1b53 14040000 		.4byte	.LBB36
 13067 1b57 62000000 		.4byte	.LBE36-.LBB36
 13068 1b5b 6F1B0000 		.4byte	0x1b6f
 13069 1b5f 28       		.uleb128 0x28
 13070 1b60 680C0000 		.4byte	.LASF482
 13071 1b64 01       		.byte	0x1
 13072 1b65 1C02     		.2byte	0x21c
 13073 1b67 59030000 		.4byte	0x359
 13074 1b6b 02       		.uleb128 0x2
 13075 1b6c 91       		.byte	0x91
 13076 1b6d 40       		.sleb128 -64
 13077 1b6e 00       		.byte	0
 13078 1b6f 24       		.uleb128 0x24
 13079 1b70 76040000 		.4byte	.LBB37
 13080 1b74 62000000 		.4byte	.LBE37-.LBB37
 13081 1b78 28       		.uleb128 0x28
 13082 1b79 680C0000 		.4byte	.LASF482
 13083 1b7d 01       		.byte	0x1
 13084 1b7e 2602     		.2byte	0x226
 13085 1b80 59030000 		.4byte	0x359
 13086 1b84 03       		.uleb128 0x3
 13087 1b85 91       		.byte	0x91
 13088 1b86 BC7F     		.sleb128 -68
ARM GAS  C:\Users\RECEPC~1\AppData\Local\Temp\ccNQpeOs.s 			page 270


 13089 1b88 00       		.byte	0
 13090 1b89 00       		.byte	0
 13091 1b8a 00       		.byte	0
 13092 1b8b 26       		.uleb128 0x26
 13093 1b8c 72030000 		.4byte	.LASF504
 13094 1b90 01       		.byte	0x1
 13095 1b91 3402     		.2byte	0x234
 13096 1b93 00000000 		.4byte	.LFB72
 13097 1b97 5C010000 		.4byte	.LFE72-.LFB72
 13098 1b9b 01       		.uleb128 0x1
 13099 1b9c 9C       		.byte	0x9c
 13100 1b9d 641C0000 		.4byte	0x1c64
 13101 1ba1 27       		.uleb128 0x27
 13102 1ba2 A21C0000 		.4byte	.LASF485
 13103 1ba6 01       		.byte	0x1
 13104 1ba7 3402     		.2byte	0x234
 13105 1ba9 1A010000 		.4byte	0x11a
 13106 1bad 02       		.uleb128 0x2
 13107 1bae 91       		.byte	0x91
 13108 1baf 44       		.sleb128 -60
 13109 1bb0 28       		.uleb128 0x28
 13110 1bb1 54280000 		.4byte	.LASF479
 13111 1bb5 01       		.byte	0x1
 13112 1bb6 3602     		.2byte	0x236
 13113 1bb8 C70D0000 		.4byte	0xdc7
 13114 1bbc 02       		.uleb128 0x2
 13115 1bbd 91       		.byte	0x91
 13116 1bbe 4C       		.sleb128 -52
 13117 1bbf 28       		.uleb128 0x28
 13118 1bc0 A60E0000 		.4byte	.LASF480
 13119 1bc4 01       		.byte	0x1
 13120 1bc5 3C02     		.2byte	0x23c
 13121 1bc7 D1190000 		.4byte	0x19d1
 13122 1bcb 02       		.uleb128 0x2
 13123 1bcc 91       		.byte	0x91
 13124 1bcd 48       		.sleb128 -56
 13125 1bce 28       		.uleb128 0x28
 13126 1bcf 4F0B0000 		.4byte	.LASF481
 13127 1bd3 01       		.byte	0x1
 13128 1bd4 4002     		.2byte	0x240
 13129 1bd6 E8140000 		.4byte	0x14e8
 13130 1bda 02       		.uleb128 0x2
 13131 1bdb 91       		.byte	0x91
 13132 1bdc 64       		.sleb128 -28
 13133 1bdd 23       		.uleb128 0x23
 13134 1bde 2A000000 		.4byte	.LBB38
 13135 1be2 92000000 		.4byte	.LBE38-.LBB38
 13136 1be6 221C0000 		.4byte	0x1c22
 13137 1bea 28       		.uleb128 0x28
 13138 1beb 680C0000 		.4byte	.LASF482
 13139 1bef 01       		.byte	0x1
 13140 1bf0 4302     		.2byte	0x243
 13141 1bf2 EE140000 		.4byte	0x14ee
 13142 1bf6 02       		.uleb128 0x2
 13143 1bf7 91       		.byte	0x91
 13144 1bf8 60       		.sleb128 -32
 13145 1bf9 24       		.uleb128 0x24
ARM GAS  C:\Users\RECEPC~1\AppData\Local\Temp\ccNQpeOs.s 			page 271


 13146 1bfa 38000000 		.4byte	.LBB39
 13147 1bfe 84000000 		.4byte	.LBE39-.LBB39
 13148 1c02 28       		.uleb128 0x28
 13149 1c03 6D120000 		.4byte	.LASF489
 13150 1c07 01       		.byte	0x1
 13151 1c08 4602     		.2byte	0x246
 13152 1c0a 81000000 		.4byte	0x81
 13153 1c0e 02       		.uleb128 0x2
 13154 1c0f 91       		.byte	0x91
 13155 1c10 5F       		.sleb128 -33
 13156 1c11 28       		.uleb128 0x28
 13157 1c12 B7220000 		.4byte	.LASF497
 13158 1c16 01       		.byte	0x1
 13159 1c17 4702     		.2byte	0x247
 13160 1c19 8D000000 		.4byte	0x8d
 13161 1c1d 02       		.uleb128 0x2
 13162 1c1e 91       		.byte	0x91
 13163 1c1f 5C       		.sleb128 -36
 13164 1c20 00       		.byte	0
 13165 1c21 00       		.byte	0
 13166 1c22 24       		.uleb128 0x24
 13167 1c23 C0000000 		.4byte	.LBB40
 13168 1c27 92000000 		.4byte	.LBE40-.LBB40
 13169 1c2b 28       		.uleb128 0x28
 13170 1c2c 680C0000 		.4byte	.LASF482
 13171 1c30 01       		.byte	0x1
 13172 1c31 5102     		.2byte	0x251
 13173 1c33 EE140000 		.4byte	0x14ee
 13174 1c37 02       		.uleb128 0x2
 13175 1c38 91       		.byte	0x91
 13176 1c39 58       		.sleb128 -40
 13177 1c3a 24       		.uleb128 0x24
 13178 1c3b CE000000 		.4byte	.LBB41
 13179 1c3f 84000000 		.4byte	.LBE41-.LBB41
 13180 1c43 28       		.uleb128 0x28
 13181 1c44 6D120000 		.4byte	.LASF489
 13182 1c48 01       		.byte	0x1
 13183 1c49 5402     		.2byte	0x254
 13184 1c4b 81000000 		.4byte	0x81
 13185 1c4f 02       		.uleb128 0x2
 13186 1c50 91       		.byte	0x91
 13187 1c51 57       		.sleb128 -41
 13188 1c52 28       		.uleb128 0x28
 13189 1c53 B7220000 		.4byte	.LASF497
 13190 1c57 01       		.byte	0x1
 13191 1c58 5502     		.2byte	0x255
 13192 1c5a 8D000000 		.4byte	0x8d
 13193 1c5e 02       		.uleb128 0x2
 13194 1c5f 91       		.byte	0x91
 13195 1c60 54       		.sleb128 -44
 13196 1c61 00       		.byte	0
 13197 1c62 00       		.byte	0
 13198 1c63 00       		.byte	0
 13199 1c64 26       		.uleb128 0x26
 13200 1c65 42210000 		.4byte	.LASF505
 13201 1c69 01       		.byte	0x1
 13202 1c6a 5F02     		.2byte	0x25f
ARM GAS  C:\Users\RECEPC~1\AppData\Local\Temp\ccNQpeOs.s 			page 272


 13203 1c6c 00000000 		.4byte	.LFB73
 13204 1c70 94000000 		.4byte	.LFE73-.LFB73
 13205 1c74 01       		.uleb128 0x1
 13206 1c75 9C       		.byte	0x9c
 13207 1c76 A81C0000 		.4byte	0x1ca8
 13208 1c7a 27       		.uleb128 0x27
 13209 1c7b A21C0000 		.4byte	.LASF485
 13210 1c7f 01       		.byte	0x1
 13211 1c80 5F02     		.2byte	0x25f
 13212 1c82 1A010000 		.4byte	0x11a
 13213 1c86 02       		.uleb128 0x2
 13214 1c87 91       		.byte	0x91
 13215 1c88 64       		.sleb128 -28
 13216 1c89 28       		.uleb128 0x28
 13217 1c8a 4F0B0000 		.4byte	.LASF481
 13218 1c8e 01       		.byte	0x1
 13219 1c8f 6102     		.2byte	0x261
 13220 1c91 B9100000 		.4byte	0x10b9
 13221 1c95 02       		.uleb128 0x2
 13222 1c96 91       		.byte	0x91
 13223 1c97 6C       		.sleb128 -20
 13224 1c98 28       		.uleb128 0x28
 13225 1c99 95050000 		.4byte	.LASF488
 13226 1c9d 01       		.byte	0x1
 13227 1c9e 6202     		.2byte	0x262
 13228 1ca0 590A0000 		.4byte	0xa59
 13229 1ca4 02       		.uleb128 0x2
 13230 1ca5 91       		.byte	0x91
 13231 1ca6 68       		.sleb128 -24
 13232 1ca7 00       		.byte	0
 13233 1ca8 26       		.uleb128 0x26
 13234 1ca9 E0230000 		.4byte	.LASF506
 13235 1cad 01       		.byte	0x1
 13236 1cae 7202     		.2byte	0x272
 13237 1cb0 00000000 		.4byte	.LFB74
 13238 1cb4 34020000 		.4byte	.LFE74-.LFB74
 13239 1cb8 01       		.uleb128 0x1
 13240 1cb9 9C       		.byte	0x9c
 13241 1cba 231D0000 		.4byte	0x1d23
 13242 1cbe 27       		.uleb128 0x27
 13243 1cbf A21C0000 		.4byte	.LASF485
 13244 1cc3 01       		.byte	0x1
 13245 1cc4 7202     		.2byte	0x272
 13246 1cc6 1A010000 		.4byte	0x11a
 13247 1cca 02       		.uleb128 0x2
 13248 1ccb 91       		.byte	0x91
 13249 1ccc 54       		.sleb128 -44
 13250 1ccd 28       		.uleb128 0x28
 13251 1cce 4F0B0000 		.4byte	.LASF481
 13252 1cd2 01       		.byte	0x1
 13253 1cd3 7402     		.2byte	0x274
 13254 1cd5 B9100000 		.4byte	0x10b9
 13255 1cd9 02       		.uleb128 0x2
 13256 1cda 91       		.byte	0x91
 13257 1cdb 68       		.sleb128 -24
 13258 1cdc 28       		.uleb128 0x28
 13259 1cdd 95050000 		.4byte	.LASF488
ARM GAS  C:\Users\RECEPC~1\AppData\Local\Temp\ccNQpeOs.s 			page 273


 13260 1ce1 01       		.byte	0x1
 13261 1ce2 7802     		.2byte	0x278
 13262 1ce4 590A0000 		.4byte	0xa59
 13263 1ce8 02       		.uleb128 0x2
 13264 1ce9 91       		.byte	0x91
 13265 1cea 64       		.sleb128 -28
 13266 1ceb 29       		.uleb128 0x29
 13267 1cec 70747300 		.ascii	"pts\000"
 13268 1cf0 01       		.byte	0x1
 13269 1cf1 7C02     		.2byte	0x27c
 13270 1cf3 AF060000 		.4byte	0x6af
 13271 1cf7 02       		.uleb128 0x2
 13272 1cf8 91       		.byte	0x91
 13273 1cf9 60       		.sleb128 -32
 13274 1cfa 24       		.uleb128 0x24
 13275 1cfb 4C000000 		.4byte	.LBB42
 13276 1cff DC010000 		.4byte	.LBE42-.LBB42
 13277 1d03 28       		.uleb128 0x28
 13278 1d04 6D120000 		.4byte	.LASF489
 13279 1d08 01       		.byte	0x1
 13280 1d09 8102     		.2byte	0x281
 13281 1d0b 81000000 		.4byte	0x81
 13282 1d0f 02       		.uleb128 0x2
 13283 1d10 91       		.byte	0x91
 13284 1d11 6F       		.sleb128 -17
 13285 1d12 28       		.uleb128 0x28
 13286 1d13 6A080000 		.4byte	.LASF507
 13287 1d17 01       		.byte	0x1
 13288 1d18 9302     		.2byte	0x293
 13289 1d1a 81000000 		.4byte	0x81
 13290 1d1e 02       		.uleb128 0x2
 13291 1d1f 91       		.byte	0x91
 13292 1d20 5F       		.sleb128 -33
 13293 1d21 00       		.byte	0
 13294 1d22 00       		.byte	0
 13295 1d23 2A       		.uleb128 0x2a
 13296 1d24 56060000 		.4byte	.LASF508
 13297 1d28 01       		.byte	0x1
 13298 1d29 CC02     		.2byte	0x2cc
 13299 1d2b 00000000 		.4byte	.LFB75
 13300 1d2f 2C000000 		.4byte	.LFE75-.LFB75
 13301 1d33 01       		.uleb128 0x1
 13302 1d34 9C       		.byte	0x9c
 13303 1d35 581D0000 		.4byte	0x1d58
 13304 1d39 27       		.uleb128 0x27
 13305 1d3a A21C0000 		.4byte	.LASF485
 13306 1d3e 01       		.byte	0x1
 13307 1d3f CC02     		.2byte	0x2cc
 13308 1d41 1A010000 		.4byte	0x11a
 13309 1d45 02       		.uleb128 0x2
 13310 1d46 91       		.byte	0x91
 13311 1d47 6C       		.sleb128 -20
 13312 1d48 28       		.uleb128 0x28
 13313 1d49 4F0B0000 		.4byte	.LASF481
 13314 1d4d 01       		.byte	0x1
 13315 1d4e CE02     		.2byte	0x2ce
 13316 1d50 B9100000 		.4byte	0x10b9
ARM GAS  C:\Users\RECEPC~1\AppData\Local\Temp\ccNQpeOs.s 			page 274


 13317 1d54 02       		.uleb128 0x2
 13318 1d55 91       		.byte	0x91
 13319 1d56 74       		.sleb128 -12
 13320 1d57 00       		.byte	0
 13321 1d58 26       		.uleb128 0x26
 13322 1d59 F9150000 		.4byte	.LASF509
 13323 1d5d 01       		.byte	0x1
 13324 1d5e D602     		.2byte	0x2d6
 13325 1d60 00000000 		.4byte	.LFB76
 13326 1d64 E4000000 		.4byte	.LFE76-.LFB76
 13327 1d68 01       		.uleb128 0x1
 13328 1d69 9C       		.byte	0x9c
 13329 1d6a C31D0000 		.4byte	0x1dc3
 13330 1d6e 27       		.uleb128 0x27
 13331 1d6f A21C0000 		.4byte	.LASF485
 13332 1d73 01       		.byte	0x1
 13333 1d74 D602     		.2byte	0x2d6
 13334 1d76 FB000000 		.4byte	0xfb
 13335 1d7a 02       		.uleb128 0x2
 13336 1d7b 91       		.byte	0x91
 13337 1d7c 54       		.sleb128 -44
 13338 1d7d 28       		.uleb128 0x28
 13339 1d7e 4F0B0000 		.4byte	.LASF481
 13340 1d82 01       		.byte	0x1
 13341 1d83 D802     		.2byte	0x2d8
 13342 1d85 B9100000 		.4byte	0x10b9
 13343 1d89 02       		.uleb128 0x2
 13344 1d8a 91       		.byte	0x91
 13345 1d8b 64       		.sleb128 -28
 13346 1d8c 23       		.uleb128 0x23
 13347 1d8d 2E000000 		.4byte	.LBB43
 13348 1d91 56000000 		.4byte	.LBE43-.LBB43
 13349 1d95 A91D0000 		.4byte	0x1da9
 13350 1d99 28       		.uleb128 0x28
 13351 1d9a 680C0000 		.4byte	.LASF482
 13352 1d9e 01       		.byte	0x1
 13353 1d9f DF02     		.2byte	0x2df
 13354 1da1 EE140000 		.4byte	0x14ee
 13355 1da5 02       		.uleb128 0x2
 13356 1da6 91       		.byte	0x91
 13357 1da7 60       		.sleb128 -32
 13358 1da8 00       		.byte	0
 13359 1da9 24       		.uleb128 0x24
 13360 1daa 88000000 		.4byte	.LBB44
 13361 1dae 56000000 		.4byte	.LBE44-.LBB44
 13362 1db2 28       		.uleb128 0x28
 13363 1db3 680C0000 		.4byte	.LASF482
 13364 1db7 01       		.byte	0x1
 13365 1db8 E802     		.2byte	0x2e8
 13366 1dba EE140000 		.4byte	0x14ee
 13367 1dbe 02       		.uleb128 0x2
 13368 1dbf 91       		.byte	0x91
 13369 1dc0 5C       		.sleb128 -36
 13370 1dc1 00       		.byte	0
 13371 1dc2 00       		.byte	0
 13372 1dc3 26       		.uleb128 0x26
 13373 1dc4 B41F0000 		.4byte	.LASF510
ARM GAS  C:\Users\RECEPC~1\AppData\Local\Temp\ccNQpeOs.s 			page 275


 13374 1dc8 01       		.byte	0x1
 13375 1dc9 F202     		.2byte	0x2f2
 13376 1dcb 00000000 		.4byte	.LFB77
 13377 1dcf D4000000 		.4byte	.LFE77-.LFB77
 13378 1dd3 01       		.uleb128 0x1
 13379 1dd4 9C       		.byte	0x9c
 13380 1dd5 201E0000 		.4byte	0x1e20
 13381 1dd9 27       		.uleb128 0x27
 13382 1dda A21C0000 		.4byte	.LASF485
 13383 1dde 01       		.byte	0x1
 13384 1ddf F202     		.2byte	0x2f2
 13385 1de1 FB000000 		.4byte	0xfb
 13386 1de5 02       		.uleb128 0x2
 13387 1de6 91       		.byte	0x91
 13388 1de7 64       		.sleb128 -28
 13389 1de8 28       		.uleb128 0x28
 13390 1de9 4F0B0000 		.4byte	.LASF481
 13391 1ded 01       		.byte	0x1
 13392 1dee F402     		.2byte	0x2f4
 13393 1df0 B9100000 		.4byte	0x10b9
 13394 1df4 02       		.uleb128 0x2
 13395 1df5 91       		.byte	0x91
 13396 1df6 68       		.sleb128 -24
 13397 1df7 24       		.uleb128 0x24
 13398 1df8 12000000 		.4byte	.LBB45
 13399 1dfc B2000000 		.4byte	.LBE45-.LBB45
 13400 1e00 28       		.uleb128 0x28
 13401 1e01 0E220000 		.4byte	.LASF511
 13402 1e05 01       		.byte	0x1
 13403 1e06 F702     		.2byte	0x2f7
 13404 1e08 8D000000 		.4byte	0x8d
 13405 1e0c 02       		.uleb128 0x2
 13406 1e0d 91       		.byte	0x91
 13407 1e0e 6E       		.sleb128 -18
 13408 1e0f 28       		.uleb128 0x28
 13409 1e10 6D120000 		.4byte	.LASF489
 13410 1e14 01       		.byte	0x1
 13411 1e15 F802     		.2byte	0x2f8
 13412 1e17 81000000 		.4byte	0x81
 13413 1e1b 02       		.uleb128 0x2
 13414 1e1c 91       		.byte	0x91
 13415 1e1d 6D       		.sleb128 -19
 13416 1e1e 00       		.byte	0
 13417 1e1f 00       		.byte	0
 13418 1e20 26       		.uleb128 0x26
 13419 1e21 ED170000 		.4byte	.LASF512
 13420 1e25 01       		.byte	0x1
 13421 1e26 0C03     		.2byte	0x30c
 13422 1e28 00000000 		.4byte	.LFB78
 13423 1e2c 94000000 		.4byte	.LFE78-.LFB78
 13424 1e30 01       		.uleb128 0x1
 13425 1e31 9C       		.byte	0x9c
 13426 1e32 6E1E0000 		.4byte	0x1e6e
 13427 1e36 27       		.uleb128 0x27
 13428 1e37 A21C0000 		.4byte	.LASF485
 13429 1e3b 01       		.byte	0x1
 13430 1e3c 0C03     		.2byte	0x30c
ARM GAS  C:\Users\RECEPC~1\AppData\Local\Temp\ccNQpeOs.s 			page 276


 13431 1e3e FB000000 		.4byte	0xfb
 13432 1e42 02       		.uleb128 0x2
 13433 1e43 91       		.byte	0x91
 13434 1e44 64       		.sleb128 -28
 13435 1e45 28       		.uleb128 0x28
 13436 1e46 4F0B0000 		.4byte	.LASF481
 13437 1e4a 01       		.byte	0x1
 13438 1e4b 0E03     		.2byte	0x30e
 13439 1e4d B9100000 		.4byte	0x10b9
 13440 1e51 02       		.uleb128 0x2
 13441 1e52 91       		.byte	0x91
 13442 1e53 6C       		.sleb128 -20
 13443 1e54 24       		.uleb128 0x24
 13444 1e55 12000000 		.4byte	.LBB46
 13445 1e59 7C000000 		.4byte	.LBE46-.LBB46
 13446 1e5d 28       		.uleb128 0x28
 13447 1e5e 0E220000 		.4byte	.LASF511
 13448 1e62 01       		.byte	0x1
 13449 1e63 1703     		.2byte	0x317
 13450 1e65 8D000000 		.4byte	0x8d
 13451 1e69 02       		.uleb128 0x2
 13452 1e6a 91       		.byte	0x91
 13453 1e6b 6A       		.sleb128 -22
 13454 1e6c 00       		.byte	0
 13455 1e6d 00       		.byte	0
 13456 1e6e 26       		.uleb128 0x26
 13457 1e6f 6A190000 		.4byte	.LASF513
 13458 1e73 01       		.byte	0x1
 13459 1e74 2103     		.2byte	0x321
 13460 1e76 00000000 		.4byte	.LFB79
 13461 1e7a 7E000000 		.4byte	.LFE79-.LFB79
 13462 1e7e 01       		.uleb128 0x1
 13463 1e7f 9C       		.byte	0x9c
 13464 1e80 BC1E0000 		.4byte	0x1ebc
 13465 1e84 27       		.uleb128 0x27
 13466 1e85 A21C0000 		.4byte	.LASF485
 13467 1e89 01       		.byte	0x1
 13468 1e8a 2103     		.2byte	0x321
 13469 1e8c FB000000 		.4byte	0xfb
 13470 1e90 02       		.uleb128 0x2
 13471 1e91 91       		.byte	0x91
 13472 1e92 64       		.sleb128 -28
 13473 1e93 28       		.uleb128 0x28
 13474 1e94 4F0B0000 		.4byte	.LASF481
 13475 1e98 01       		.byte	0x1
 13476 1e99 2303     		.2byte	0x323
 13477 1e9b B9100000 		.4byte	0x10b9
 13478 1e9f 02       		.uleb128 0x2
 13479 1ea0 91       		.byte	0x91
 13480 1ea1 6C       		.sleb128 -20
 13481 1ea2 24       		.uleb128 0x24
 13482 1ea3 12000000 		.4byte	.LBB47
 13483 1ea7 66000000 		.4byte	.LBE47-.LBB47
 13484 1eab 28       		.uleb128 0x28
 13485 1eac 941B0000 		.4byte	.LASF514
 13486 1eb0 01       		.byte	0x1
 13487 1eb1 2C03     		.2byte	0x32c
ARM GAS  C:\Users\RECEPC~1\AppData\Local\Temp\ccNQpeOs.s 			page 277


 13488 1eb3 81000000 		.4byte	0x81
 13489 1eb7 02       		.uleb128 0x2
 13490 1eb8 91       		.byte	0x91
 13491 1eb9 6B       		.sleb128 -21
 13492 1eba 00       		.byte	0
 13493 1ebb 00       		.byte	0
 13494 1ebc 26       		.uleb128 0x26
 13495 1ebd 2D1B0000 		.4byte	.LASF515
 13496 1ec1 01       		.byte	0x1
 13497 1ec2 3603     		.2byte	0x336
 13498 1ec4 00000000 		.4byte	.LFB80
 13499 1ec8 E4000000 		.4byte	.LFE80-.LFB80
 13500 1ecc 01       		.uleb128 0x1
 13501 1ecd 9C       		.byte	0x9c
 13502 1ece 271F0000 		.4byte	0x1f27
 13503 1ed2 27       		.uleb128 0x27
 13504 1ed3 A21C0000 		.4byte	.LASF485
 13505 1ed7 01       		.byte	0x1
 13506 1ed8 3603     		.2byte	0x336
 13507 1eda FB000000 		.4byte	0xfb
 13508 1ede 02       		.uleb128 0x2
 13509 1edf 91       		.byte	0x91
 13510 1ee0 54       		.sleb128 -44
 13511 1ee1 28       		.uleb128 0x28
 13512 1ee2 4F0B0000 		.4byte	.LASF481
 13513 1ee6 01       		.byte	0x1
 13514 1ee7 3803     		.2byte	0x338
 13515 1ee9 B9100000 		.4byte	0x10b9
 13516 1eed 02       		.uleb128 0x2
 13517 1eee 91       		.byte	0x91
 13518 1eef 64       		.sleb128 -28
 13519 1ef0 23       		.uleb128 0x23
 13520 1ef1 2E000000 		.4byte	.LBB48
 13521 1ef5 56000000 		.4byte	.LBE48-.LBB48
 13522 1ef9 0D1F0000 		.4byte	0x1f0d
 13523 1efd 28       		.uleb128 0x28
 13524 1efe 680C0000 		.4byte	.LASF482
 13525 1f02 01       		.byte	0x1
 13526 1f03 3F03     		.2byte	0x33f
 13527 1f05 EE140000 		.4byte	0x14ee
 13528 1f09 02       		.uleb128 0x2
 13529 1f0a 91       		.byte	0x91
 13530 1f0b 60       		.sleb128 -32
 13531 1f0c 00       		.byte	0
 13532 1f0d 24       		.uleb128 0x24
 13533 1f0e 88000000 		.4byte	.LBB49
 13534 1f12 56000000 		.4byte	.LBE49-.LBB49
 13535 1f16 28       		.uleb128 0x28
 13536 1f17 680C0000 		.4byte	.LASF482
 13537 1f1b 01       		.byte	0x1
 13538 1f1c 4803     		.2byte	0x348
 13539 1f1e EE140000 		.4byte	0x14ee
 13540 1f22 02       		.uleb128 0x2
 13541 1f23 91       		.byte	0x91
 13542 1f24 5C       		.sleb128 -36
 13543 1f25 00       		.byte	0
 13544 1f26 00       		.byte	0
ARM GAS  C:\Users\RECEPC~1\AppData\Local\Temp\ccNQpeOs.s 			page 278


 13545 1f27 26       		.uleb128 0x26
 13546 1f28 C8020000 		.4byte	.LASF516
 13547 1f2c 01       		.byte	0x1
 13548 1f2d 5203     		.2byte	0x352
 13549 1f2f 00000000 		.4byte	.LFB81
 13550 1f33 C4000000 		.4byte	.LFE81-.LFB81
 13551 1f37 01       		.uleb128 0x1
 13552 1f38 9C       		.byte	0x9c
 13553 1f39 841F0000 		.4byte	0x1f84
 13554 1f3d 27       		.uleb128 0x27
 13555 1f3e A21C0000 		.4byte	.LASF485
 13556 1f42 01       		.byte	0x1
 13557 1f43 5203     		.2byte	0x352
 13558 1f45 FB000000 		.4byte	0xfb
 13559 1f49 02       		.uleb128 0x2
 13560 1f4a 91       		.byte	0x91
 13561 1f4b 64       		.sleb128 -28
 13562 1f4c 28       		.uleb128 0x28
 13563 1f4d 4F0B0000 		.4byte	.LASF481
 13564 1f51 01       		.byte	0x1
 13565 1f52 5403     		.2byte	0x354
 13566 1f54 B9100000 		.4byte	0x10b9
 13567 1f58 02       		.uleb128 0x2
 13568 1f59 91       		.byte	0x91
 13569 1f5a 68       		.sleb128 -24
 13570 1f5b 24       		.uleb128 0x24
 13571 1f5c 12000000 		.4byte	.LBB50
 13572 1f60 A2000000 		.4byte	.LBE50-.LBB50
 13573 1f64 28       		.uleb128 0x28
 13574 1f65 51260000 		.4byte	.LASF517
 13575 1f69 01       		.byte	0x1
 13576 1f6a 5903     		.2byte	0x359
 13577 1f6c 81000000 		.4byte	0x81
 13578 1f70 02       		.uleb128 0x2
 13579 1f71 91       		.byte	0x91
 13580 1f72 6F       		.sleb128 -17
 13581 1f73 28       		.uleb128 0x28
 13582 1f74 6D120000 		.4byte	.LASF489
 13583 1f78 01       		.byte	0x1
 13584 1f79 5A03     		.2byte	0x35a
 13585 1f7b 81000000 		.4byte	0x81
 13586 1f7f 02       		.uleb128 0x2
 13587 1f80 91       		.byte	0x91
 13588 1f81 6E       		.sleb128 -18
 13589 1f82 00       		.byte	0
 13590 1f83 00       		.byte	0
 13591 1f84 26       		.uleb128 0x26
 13592 1f85 89260000 		.4byte	.LASF518
 13593 1f89 01       		.byte	0x1
 13594 1f8a 6D03     		.2byte	0x36d
 13595 1f8c 00000000 		.4byte	.LFB82
 13596 1f90 98000000 		.4byte	.LFE82-.LFB82
 13597 1f94 01       		.uleb128 0x1
 13598 1f95 9C       		.byte	0x9c
 13599 1f96 FA1F0000 		.4byte	0x1ffa
 13600 1f9a 27       		.uleb128 0x27
 13601 1f9b A21C0000 		.4byte	.LASF485
ARM GAS  C:\Users\RECEPC~1\AppData\Local\Temp\ccNQpeOs.s 			page 279


 13602 1f9f 01       		.byte	0x1
 13603 1fa0 6D03     		.2byte	0x36d
 13604 1fa2 1A010000 		.4byte	0x11a
 13605 1fa6 02       		.uleb128 0x2
 13606 1fa7 91       		.byte	0x91
 13607 1fa8 5C       		.sleb128 -36
 13608 1fa9 28       		.uleb128 0x28
 13609 1faa 0E150000 		.4byte	.LASF519
 13610 1fae 01       		.byte	0x1
 13611 1faf 6F03     		.2byte	0x36f
 13612 1fb1 B4040000 		.4byte	0x4b4
 13613 1fb5 02       		.uleb128 0x2
 13614 1fb6 91       		.byte	0x91
 13615 1fb7 74       		.sleb128 -12
 13616 1fb8 28       		.uleb128 0x28
 13617 1fb9 4F0B0000 		.4byte	.LASF481
 13618 1fbd 01       		.byte	0x1
 13619 1fbe 7003     		.2byte	0x370
 13620 1fc0 B9100000 		.4byte	0x10b9
 13621 1fc4 02       		.uleb128 0x2
 13622 1fc5 91       		.byte	0x91
 13623 1fc6 70       		.sleb128 -16
 13624 1fc7 24       		.uleb128 0x24
 13625 1fc8 1A000000 		.4byte	.LBB51
 13626 1fcc 72000000 		.4byte	.LBE51-.LBB51
 13627 1fd0 28       		.uleb128 0x28
 13628 1fd1 73120000 		.4byte	.LASF520
 13629 1fd5 01       		.byte	0x1
 13630 1fd6 7803     		.2byte	0x378
 13631 1fd8 B4040000 		.4byte	0x4b4
 13632 1fdc 02       		.uleb128 0x2
 13633 1fdd 91       		.byte	0x91
 13634 1fde 6C       		.sleb128 -20
 13635 1fdf 24       		.uleb128 0x24
 13636 1fe0 46000000 		.4byte	.LBB52
 13637 1fe4 46000000 		.4byte	.LBE52-.LBB52
 13638 1fe8 28       		.uleb128 0x28
 13639 1fe9 97070000 		.4byte	.LASF521
 13640 1fed 01       		.byte	0x1
 13641 1fee 7C03     		.2byte	0x37c
 13642 1ff0 E2070000 		.4byte	0x7e2
 13643 1ff4 02       		.uleb128 0x2
 13644 1ff5 91       		.byte	0x91
 13645 1ff6 64       		.sleb128 -28
 13646 1ff7 00       		.byte	0
 13647 1ff8 00       		.byte	0
 13648 1ff9 00       		.byte	0
 13649 1ffa 2A       		.uleb128 0x2a
 13650 1ffb D6200000 		.4byte	.LASF522
 13651 1fff 01       		.byte	0x1
 13652 2000 8D03     		.2byte	0x38d
 13653 2002 00000000 		.4byte	.LFB83
 13654 2006 34000000 		.4byte	.LFE83-.LFB83
 13655 200a 01       		.uleb128 0x1
 13656 200b 9C       		.byte	0x9c
 13657 200c 2F200000 		.4byte	0x202f
 13658 2010 27       		.uleb128 0x27
ARM GAS  C:\Users\RECEPC~1\AppData\Local\Temp\ccNQpeOs.s 			page 280


 13659 2011 A21C0000 		.4byte	.LASF485
 13660 2015 01       		.byte	0x1
 13661 2016 8D03     		.2byte	0x38d
 13662 2018 FB000000 		.4byte	0xfb
 13663 201c 02       		.uleb128 0x2
 13664 201d 91       		.byte	0x91
 13665 201e 6C       		.sleb128 -20
 13666 201f 28       		.uleb128 0x28
 13667 2020 4F0B0000 		.4byte	.LASF481
 13668 2024 01       		.byte	0x1
 13669 2025 8F03     		.2byte	0x38f
 13670 2027 B9100000 		.4byte	0x10b9
 13671 202b 02       		.uleb128 0x2
 13672 202c 91       		.byte	0x91
 13673 202d 74       		.sleb128 -12
 13674 202e 00       		.byte	0
 13675 202f 26       		.uleb128 0x26
 13676 2030 301F0000 		.4byte	.LASF523
 13677 2034 01       		.byte	0x1
 13678 2035 9B03     		.2byte	0x39b
 13679 2037 00000000 		.4byte	.LFB84
 13680 203b B0000000 		.4byte	.LFE84-.LFB84
 13681 203f 01       		.uleb128 0x1
 13682 2040 9C       		.byte	0x9c
 13683 2041 9A200000 		.4byte	0x209a
 13684 2045 27       		.uleb128 0x27
 13685 2046 A21C0000 		.4byte	.LASF485
 13686 204a 01       		.byte	0x1
 13687 204b 9B03     		.2byte	0x39b
 13688 204d FB000000 		.4byte	0xfb
 13689 2051 02       		.uleb128 0x2
 13690 2052 91       		.byte	0x91
 13691 2053 64       		.sleb128 -28
 13692 2054 28       		.uleb128 0x28
 13693 2055 4F0B0000 		.4byte	.LASF481
 13694 2059 01       		.byte	0x1
 13695 205a 9D03     		.2byte	0x39d
 13696 205c B9100000 		.4byte	0x10b9
 13697 2060 02       		.uleb128 0x2
 13698 2061 91       		.byte	0x91
 13699 2062 74       		.sleb128 -12
 13700 2063 23       		.uleb128 0x23
 13701 2064 14000000 		.4byte	.LBB53
 13702 2068 42000000 		.4byte	.LBE53-.LBB53
 13703 206c 80200000 		.4byte	0x2080
 13704 2070 28       		.uleb128 0x28
 13705 2071 73120000 		.4byte	.LASF520
 13706 2075 01       		.byte	0x1
 13707 2076 A003     		.2byte	0x3a0
 13708 2078 B4040000 		.4byte	0x4b4
 13709 207c 02       		.uleb128 0x2
 13710 207d 91       		.byte	0x91
 13711 207e 70       		.sleb128 -16
 13712 207f 00       		.byte	0
 13713 2080 24       		.uleb128 0x24
 13714 2081 62000000 		.4byte	.LBB54
 13715 2085 42000000 		.4byte	.LBE54-.LBB54
ARM GAS  C:\Users\RECEPC~1\AppData\Local\Temp\ccNQpeOs.s 			page 281


 13716 2089 28       		.uleb128 0x28
 13717 208a 73120000 		.4byte	.LASF520
 13718 208e 01       		.byte	0x1
 13719 208f AF03     		.2byte	0x3af
 13720 2091 B4040000 		.4byte	0x4b4
 13721 2095 02       		.uleb128 0x2
 13722 2096 91       		.byte	0x91
 13723 2097 6C       		.sleb128 -20
 13724 2098 00       		.byte	0
 13725 2099 00       		.byte	0
 13726 209a 26       		.uleb128 0x26
 13727 209b C7270000 		.4byte	.LASF524
 13728 209f 01       		.byte	0x1
 13729 20a0 BF03     		.2byte	0x3bf
 13730 20a2 00000000 		.4byte	.LFB85
 13731 20a6 20080000 		.4byte	.LFE85-.LFB85
 13732 20aa 01       		.uleb128 0x1
 13733 20ab 9C       		.byte	0x9c
 13734 20ac 8F210000 		.4byte	0x218f
 13735 20b0 27       		.uleb128 0x27
 13736 20b1 A21C0000 		.4byte	.LASF485
 13737 20b5 01       		.byte	0x1
 13738 20b6 BF03     		.2byte	0x3bf
 13739 20b8 FB000000 		.4byte	0xfb
 13740 20bc 02       		.uleb128 0x2
 13741 20bd 91       		.byte	0x91
 13742 20be 44       		.sleb128 -60
 13743 20bf 28       		.uleb128 0x28
 13744 20c0 80230000 		.4byte	.LASF491
 13745 20c4 01       		.byte	0x1
 13746 20c5 C103     		.2byte	0x3c1
 13747 20c7 E2070000 		.4byte	0x7e2
 13748 20cb 02       		.uleb128 0x2
 13749 20cc 91       		.byte	0x91
 13750 20cd 50       		.sleb128 -48
 13751 20ce 28       		.uleb128 0x28
 13752 20cf 54280000 		.4byte	.LASF479
 13753 20d3 01       		.byte	0x1
 13754 20d4 C203     		.2byte	0x3c2
 13755 20d6 C70D0000 		.4byte	0xdc7
 13756 20da 02       		.uleb128 0x2
 13757 20db 91       		.byte	0x91
 13758 20dc 48       		.sleb128 -56
 13759 20dd 28       		.uleb128 0x28
 13760 20de 4F0B0000 		.4byte	.LASF481
 13761 20e2 01       		.byte	0x1
 13762 20e3 C703     		.2byte	0x3c7
 13763 20e5 E8140000 		.4byte	0x14e8
 13764 20e9 02       		.uleb128 0x2
 13765 20ea 91       		.byte	0x91
 13766 20eb 68       		.sleb128 -24
 13767 20ec 23       		.uleb128 0x23
 13768 20ed 34000000 		.4byte	.LBB55
 13769 20f1 F8030000 		.4byte	.LBE55-.LBB55
 13770 20f5 3F210000 		.4byte	0x213f
 13771 20f9 28       		.uleb128 0x28
 13772 20fa 680C0000 		.4byte	.LASF482
ARM GAS  C:\Users\RECEPC~1\AppData\Local\Temp\ccNQpeOs.s 			page 282


 13773 20fe 01       		.byte	0x1
 13774 20ff CA03     		.2byte	0x3ca
 13775 2101 EE140000 		.4byte	0x14ee
 13776 2105 02       		.uleb128 0x2
 13777 2106 91       		.byte	0x91
 13778 2107 64       		.sleb128 -28
 13779 2108 23       		.uleb128 0x23
 13780 2109 44000000 		.4byte	.LBB56
 13781 210d 28020000 		.4byte	.LBE56-.LBB56
 13782 2111 25210000 		.4byte	0x2125
 13783 2115 28       		.uleb128 0x28
 13784 2116 6D120000 		.4byte	.LASF489
 13785 211a 01       		.byte	0x1
 13786 211b CD03     		.2byte	0x3cd
 13787 211d 81000000 		.4byte	0x81
 13788 2121 02       		.uleb128 0x2
 13789 2122 91       		.byte	0x91
 13790 2123 6F       		.sleb128 -17
 13791 2124 00       		.byte	0
 13792 2125 24       		.uleb128 0x24
 13793 2126 7C020000 		.4byte	.LBB57
 13794 212a B0010000 		.4byte	.LBE57-.LBB57
 13795 212e 28       		.uleb128 0x28
 13796 212f 6D120000 		.4byte	.LASF489
 13797 2133 01       		.byte	0x1
 13798 2134 EF03     		.2byte	0x3ef
 13799 2136 81000000 		.4byte	0x81
 13800 213a 02       		.uleb128 0x2
 13801 213b 91       		.byte	0x91
 13802 213c 63       		.sleb128 -29
 13803 213d 00       		.byte	0
 13804 213e 00       		.byte	0
 13805 213f 24       		.uleb128 0x24
 13806 2140 46040000 		.4byte	.LBB58
 13807 2144 D4030000 		.4byte	.LBE58-.LBB58
 13808 2148 28       		.uleb128 0x28
 13809 2149 680C0000 		.4byte	.LASF482
 13810 214d 01       		.byte	0x1
 13811 214e 0B04     		.2byte	0x40b
 13812 2150 EE140000 		.4byte	0x14ee
 13813 2154 02       		.uleb128 0x2
 13814 2155 91       		.byte	0x91
 13815 2156 5C       		.sleb128 -36
 13816 2157 23       		.uleb128 0x23
 13817 2158 56040000 		.4byte	.LBB59
 13818 215c 28020000 		.4byte	.LBE59-.LBB59
 13819 2160 74210000 		.4byte	0x2174
 13820 2164 28       		.uleb128 0x28
 13821 2165 6D120000 		.4byte	.LASF489
 13822 2169 01       		.byte	0x1
 13823 216a 0E04     		.2byte	0x40e
 13824 216c 81000000 		.4byte	0x81
 13825 2170 02       		.uleb128 0x2
 13826 2171 91       		.byte	0x91
 13827 2172 6E       		.sleb128 -18
 13828 2173 00       		.byte	0
 13829 2174 24       		.uleb128 0x24
ARM GAS  C:\Users\RECEPC~1\AppData\Local\Temp\ccNQpeOs.s 			page 283


 13830 2175 8E060000 		.4byte	.LBB60
 13831 2179 8C010000 		.4byte	.LBE60-.LBB60
 13832 217d 28       		.uleb128 0x28
 13833 217e 6D120000 		.4byte	.LASF489
 13834 2182 01       		.byte	0x1
 13835 2183 3004     		.2byte	0x430
 13836 2185 81000000 		.4byte	0x81
 13837 2189 02       		.uleb128 0x2
 13838 218a 91       		.byte	0x91
 13839 218b 5B       		.sleb128 -37
 13840 218c 00       		.byte	0
 13841 218d 00       		.byte	0
 13842 218e 00       		.byte	0
 13843 218f 26       		.uleb128 0x26
 13844 2190 27150000 		.4byte	.LASF525
 13845 2194 01       		.byte	0x1
 13846 2195 4B04     		.2byte	0x44b
 13847 2197 00000000 		.4byte	.LFB86
 13848 219b 88070000 		.4byte	.LFE86-.LFB86
 13849 219f 01       		.uleb128 0x1
 13850 21a0 9C       		.byte	0x9c
 13851 21a1 84220000 		.4byte	0x2284
 13852 21a5 27       		.uleb128 0x27
 13853 21a6 A21C0000 		.4byte	.LASF485
 13854 21aa 01       		.byte	0x1
 13855 21ab 4B04     		.2byte	0x44b
 13856 21ad FB000000 		.4byte	0xfb
 13857 21b1 02       		.uleb128 0x2
 13858 21b2 91       		.byte	0x91
 13859 21b3 44       		.sleb128 -60
 13860 21b4 28       		.uleb128 0x28
 13861 21b5 80230000 		.4byte	.LASF491
 13862 21b9 01       		.byte	0x1
 13863 21ba 4D04     		.2byte	0x44d
 13864 21bc E2070000 		.4byte	0x7e2
 13865 21c0 02       		.uleb128 0x2
 13866 21c1 91       		.byte	0x91
 13867 21c2 50       		.sleb128 -48
 13868 21c3 28       		.uleb128 0x28
 13869 21c4 54280000 		.4byte	.LASF479
 13870 21c8 01       		.byte	0x1
 13871 21c9 4E04     		.2byte	0x44e
 13872 21cb C70D0000 		.4byte	0xdc7
 13873 21cf 02       		.uleb128 0x2
 13874 21d0 91       		.byte	0x91
 13875 21d1 48       		.sleb128 -56
 13876 21d2 28       		.uleb128 0x28
 13877 21d3 4F0B0000 		.4byte	.LASF481
 13878 21d7 01       		.byte	0x1
 13879 21d8 5304     		.2byte	0x453
 13880 21da E8140000 		.4byte	0x14e8
 13881 21de 02       		.uleb128 0x2
 13882 21df 91       		.byte	0x91
 13883 21e0 68       		.sleb128 -24
 13884 21e1 23       		.uleb128 0x23
 13885 21e2 34000000 		.4byte	.LBB61
 13886 21e6 A6030000 		.4byte	.LBE61-.LBB61
ARM GAS  C:\Users\RECEPC~1\AppData\Local\Temp\ccNQpeOs.s 			page 284


 13887 21ea 34220000 		.4byte	0x2234
 13888 21ee 28       		.uleb128 0x28
 13889 21ef 680C0000 		.4byte	.LASF482
 13890 21f3 01       		.byte	0x1
 13891 21f4 5604     		.2byte	0x456
 13892 21f6 EE140000 		.4byte	0x14ee
 13893 21fa 02       		.uleb128 0x2
 13894 21fb 91       		.byte	0x91
 13895 21fc 64       		.sleb128 -28
 13896 21fd 23       		.uleb128 0x23
 13897 21fe 44000000 		.4byte	.LBB62
 13898 2202 D4010000 		.4byte	.LBE62-.LBB62
 13899 2206 1A220000 		.4byte	0x221a
 13900 220a 28       		.uleb128 0x28
 13901 220b 6D120000 		.4byte	.LASF489
 13902 220f 01       		.byte	0x1
 13903 2210 5904     		.2byte	0x459
 13904 2212 81000000 		.4byte	0x81
 13905 2216 02       		.uleb128 0x2
 13906 2217 91       		.byte	0x91
 13907 2218 6F       		.sleb128 -17
 13908 2219 00       		.byte	0
 13909 221a 24       		.uleb128 0x24
 13910 221b 28020000 		.4byte	.LBB63
 13911 221f B2010000 		.4byte	.LBE63-.LBB63
 13912 2223 28       		.uleb128 0x28
 13913 2224 6D120000 		.4byte	.LASF489
 13914 2228 01       		.byte	0x1
 13915 2229 8004     		.2byte	0x480
 13916 222b 81000000 		.4byte	0x81
 13917 222f 02       		.uleb128 0x2
 13918 2230 91       		.byte	0x91
 13919 2231 63       		.sleb128 -29
 13920 2232 00       		.byte	0
 13921 2233 00       		.byte	0
 13922 2234 24       		.uleb128 0x24
 13923 2235 FA030000 		.4byte	.LBB64
 13924 2239 82030000 		.4byte	.LBE64-.LBB64
 13925 223d 28       		.uleb128 0x28
 13926 223e 680C0000 		.4byte	.LASF482
 13927 2242 01       		.byte	0x1
 13928 2243 9D04     		.2byte	0x49d
 13929 2245 EE140000 		.4byte	0x14ee
 13930 2249 02       		.uleb128 0x2
 13931 224a 91       		.byte	0x91
 13932 224b 5C       		.sleb128 -36
 13933 224c 23       		.uleb128 0x23
 13934 224d 0A040000 		.4byte	.LBB65
 13935 2251 D4010000 		.4byte	.LBE65-.LBB65
 13936 2255 69220000 		.4byte	0x2269
 13937 2259 28       		.uleb128 0x28
 13938 225a 6D120000 		.4byte	.LASF489
 13939 225e 01       		.byte	0x1
 13940 225f A004     		.2byte	0x4a0
 13941 2261 81000000 		.4byte	0x81
 13942 2265 02       		.uleb128 0x2
 13943 2266 91       		.byte	0x91
ARM GAS  C:\Users\RECEPC~1\AppData\Local\Temp\ccNQpeOs.s 			page 285


 13944 2267 6E       		.sleb128 -18
 13945 2268 00       		.byte	0
 13946 2269 24       		.uleb128 0x24
 13947 226a EE050000 		.4byte	.LBB66
 13948 226e 8E010000 		.4byte	.LBE66-.LBB66
 13949 2272 28       		.uleb128 0x28
 13950 2273 6D120000 		.4byte	.LASF489
 13951 2277 01       		.byte	0x1
 13952 2278 C604     		.2byte	0x4c6
 13953 227a 81000000 		.4byte	0x81
 13954 227e 02       		.uleb128 0x2
 13955 227f 91       		.byte	0x91
 13956 2280 5B       		.sleb128 -37
 13957 2281 00       		.byte	0
 13958 2282 00       		.byte	0
 13959 2283 00       		.byte	0
 13960 2284 26       		.uleb128 0x26
 13961 2285 AB1D0000 		.4byte	.LASF526
 13962 2289 01       		.byte	0x1
 13963 228a E104     		.2byte	0x4e1
 13964 228c 00000000 		.4byte	.LFB87
 13965 2290 300D0000 		.4byte	.LFE87-.LFB87
 13966 2294 01       		.uleb128 0x1
 13967 2295 9C       		.byte	0x9c
 13968 2296 85260000 		.4byte	0x2685
 13969 229a 27       		.uleb128 0x27
 13970 229b A21C0000 		.4byte	.LASF485
 13971 229f 01       		.byte	0x1
 13972 22a0 E104     		.2byte	0x4e1
 13973 22a2 FB000000 		.4byte	0xfb
 13974 22a6 03       		.uleb128 0x3
 13975 22a7 91       		.byte	0x91
 13976 22a8 A47D     		.sleb128 -348
 13977 22aa 28       		.uleb128 0x28
 13978 22ab 80230000 		.4byte	.LASF491
 13979 22af 01       		.byte	0x1
 13980 22b0 E304     		.2byte	0x4e3
 13981 22b2 85260000 		.4byte	0x2685
 13982 22b6 03       		.uleb128 0x3
 13983 22b7 91       		.byte	0x91
 13984 22b8 BC7F     		.sleb128 -68
 13985 22ba 28       		.uleb128 0x28
 13986 22bb 54280000 		.4byte	.LASF479
 13987 22bf 01       		.byte	0x1
 13988 22c0 E404     		.2byte	0x4e4
 13989 22c2 C70D0000 		.4byte	0xdc7
 13990 22c6 03       		.uleb128 0x3
 13991 22c7 91       		.byte	0x91
 13992 22c8 B47F     		.sleb128 -76
 13993 22ca 28       		.uleb128 0x28
 13994 22cb 73120000 		.4byte	.LASF520
 13995 22cf 01       		.byte	0x1
 13996 22d0 E904     		.2byte	0x4e9
 13997 22d2 B4040000 		.4byte	0x4b4
 13998 22d6 02       		.uleb128 0x2
 13999 22d7 91       		.byte	0x91
 14000 22d8 6C       		.sleb128 -20
ARM GAS  C:\Users\RECEPC~1\AppData\Local\Temp\ccNQpeOs.s 			page 286


 14001 22d9 28       		.uleb128 0x28
 14002 22da 4F0B0000 		.4byte	.LASF481
 14003 22de 01       		.byte	0x1
 14004 22df EA04     		.2byte	0x4ea
 14005 22e1 B9100000 		.4byte	0x10b9
 14006 22e5 02       		.uleb128 0x2
 14007 22e6 91       		.byte	0x91
 14008 22e7 68       		.sleb128 -24
 14009 22e8 2B       		.uleb128 0x2b
 14010 22e9 00000000 		.4byte	.Ldebug_ranges0+0
 14011 22ed CC240000 		.4byte	0x24cc
 14012 22f1 28       		.uleb128 0x28
 14013 22f2 680C0000 		.4byte	.LASF482
 14014 22f6 01       		.byte	0x1
 14015 22f7 ED04     		.2byte	0x4ed
 14016 22f9 EE140000 		.4byte	0x14ee
 14017 22fd 02       		.uleb128 0x2
 14018 22fe 91       		.byte	0x91
 14019 22ff 64       		.sleb128 -28
 14020 2300 28       		.uleb128 0x28
 14021 2301 6C100000 		.4byte	.LASF527
 14022 2305 01       		.byte	0x1
 14023 2306 F804     		.2byte	0x4f8
 14024 2308 95260000 		.4byte	0x2695
 14025 230c 03       		.uleb128 0x3
 14026 230d 91       		.byte	0x91
 14027 230e B07F     		.sleb128 -80
 14028 2310 28       		.uleb128 0x28
 14029 2311 CB130000 		.4byte	.LASF528
 14030 2315 01       		.byte	0x1
 14031 2316 FC04     		.2byte	0x4fc
 14032 2318 A5260000 		.4byte	0x26a5
 14033 231c 03       		.uleb128 0x3
 14034 231d 91       		.byte	0x91
 14035 231e AC7F     		.sleb128 -84
 14036 2320 23       		.uleb128 0x23
 14037 2321 12010000 		.4byte	.LBB68
 14038 2325 36000000 		.4byte	.LBE68-.LBB68
 14039 2329 3E230000 		.4byte	0x233e
 14040 232d 28       		.uleb128 0x28
 14041 232e D2190000 		.4byte	.LASF495
 14042 2332 01       		.byte	0x1
 14043 2333 0805     		.2byte	0x508
 14044 2335 EE170000 		.4byte	0x17ee
 14045 2339 03       		.uleb128 0x3
 14046 233a 91       		.byte	0x91
 14047 233b A07F     		.sleb128 -96
 14048 233d 00       		.byte	0
 14049 233e 23       		.uleb128 0x23
 14050 233f 4A010000 		.4byte	.LBB69
 14051 2343 38000000 		.4byte	.LBE69-.LBB69
 14052 2347 5C230000 		.4byte	0x235c
 14053 234b 28       		.uleb128 0x28
 14054 234c D2190000 		.4byte	.LASF495
 14055 2350 01       		.byte	0x1
 14056 2351 0F05     		.2byte	0x50f
 14057 2353 EE170000 		.4byte	0x17ee
ARM GAS  C:\Users\RECEPC~1\AppData\Local\Temp\ccNQpeOs.s 			page 287


 14058 2357 03       		.uleb128 0x3
 14059 2358 91       		.byte	0x91
 14060 2359 947F     		.sleb128 -108
 14061 235b 00       		.byte	0
 14062 235c 23       		.uleb128 0x23
 14063 235d 94010000 		.4byte	.LBB70
 14064 2361 36000000 		.4byte	.LBE70-.LBB70
 14065 2365 7A230000 		.4byte	0x237a
 14066 2369 28       		.uleb128 0x28
 14067 236a D2190000 		.4byte	.LASF495
 14068 236e 01       		.byte	0x1
 14069 236f 1C05     		.2byte	0x51c
 14070 2371 EE170000 		.4byte	0x17ee
 14071 2375 03       		.uleb128 0x3
 14072 2376 91       		.byte	0x91
 14073 2377 887F     		.sleb128 -120
 14074 2379 00       		.byte	0
 14075 237a 23       		.uleb128 0x23
 14076 237b DC010000 		.4byte	.LBB71
 14077 237f 3C000000 		.4byte	.LBE71-.LBB71
 14078 2383 98230000 		.4byte	0x2398
 14079 2387 28       		.uleb128 0x28
 14080 2388 D2190000 		.4byte	.LASF495
 14081 238c 01       		.byte	0x1
 14082 238d 2605     		.2byte	0x526
 14083 238f FE170000 		.4byte	0x17fe
 14084 2393 03       		.uleb128 0x3
 14085 2394 91       		.byte	0x91
 14086 2395 F87E     		.sleb128 -136
 14087 2397 00       		.byte	0
 14088 2398 23       		.uleb128 0x23
 14089 2399 3A020000 		.4byte	.LBB72
 14090 239d 36000000 		.4byte	.LBE72-.LBB72
 14091 23a1 B6230000 		.4byte	0x23b6
 14092 23a5 28       		.uleb128 0x28
 14093 23a6 D2190000 		.4byte	.LASF495
 14094 23aa 01       		.byte	0x1
 14095 23ab 3505     		.2byte	0x535
 14096 23ad EE170000 		.4byte	0x17ee
 14097 23b1 03       		.uleb128 0x3
 14098 23b2 91       		.byte	0x91
 14099 23b3 EC7E     		.sleb128 -148
 14100 23b5 00       		.byte	0
 14101 23b6 23       		.uleb128 0x23
 14102 23b7 72020000 		.4byte	.LBB73
 14103 23bb 4E000000 		.4byte	.LBE73-.LBB73
 14104 23bf D4230000 		.4byte	0x23d4
 14105 23c3 28       		.uleb128 0x28
 14106 23c4 D2190000 		.4byte	.LASF495
 14107 23c8 01       		.byte	0x1
 14108 23c9 3C05     		.2byte	0x53c
 14109 23cb EE170000 		.4byte	0x17ee
 14110 23cf 03       		.uleb128 0x3
 14111 23d0 91       		.byte	0x91
 14112 23d1 E07E     		.sleb128 -160
 14113 23d3 00       		.byte	0
 14114 23d4 23       		.uleb128 0x23
ARM GAS  C:\Users\RECEPC~1\AppData\Local\Temp\ccNQpeOs.s 			page 288


 14115 23d5 D2020000 		.4byte	.LBB74
 14116 23d9 36000000 		.4byte	.LBE74-.LBB74
 14117 23dd F2230000 		.4byte	0x23f2
 14118 23e1 28       		.uleb128 0x28
 14119 23e2 D2190000 		.4byte	.LASF495
 14120 23e6 01       		.byte	0x1
 14121 23e7 4905     		.2byte	0x549
 14122 23e9 EE170000 		.4byte	0x17ee
 14123 23ed 03       		.uleb128 0x3
 14124 23ee 91       		.byte	0x91
 14125 23ef D47E     		.sleb128 -172
 14126 23f1 00       		.byte	0
 14127 23f2 23       		.uleb128 0x23
 14128 23f3 1A030000 		.4byte	.LBB75
 14129 23f7 3C000000 		.4byte	.LBE75-.LBB75
 14130 23fb 10240000 		.4byte	0x2410
 14131 23ff 28       		.uleb128 0x28
 14132 2400 D2190000 		.4byte	.LASF495
 14133 2404 01       		.byte	0x1
 14134 2405 5305     		.2byte	0x553
 14135 2407 FE170000 		.4byte	0x17fe
 14136 240b 03       		.uleb128 0x3
 14137 240c 91       		.byte	0x91
 14138 240d C47E     		.sleb128 -188
 14139 240f 00       		.byte	0
 14140 2410 23       		.uleb128 0x23
 14141 2411 76030000 		.4byte	.LBB76
 14142 2415 8C000000 		.4byte	.LBE76-.LBB76
 14143 2419 3C240000 		.4byte	0x243c
 14144 241d 28       		.uleb128 0x28
 14145 241e A60E0000 		.4byte	.LASF480
 14146 2422 01       		.byte	0x1
 14147 2423 6105     		.2byte	0x561
 14148 2425 25010000 		.4byte	0x125
 14149 2429 02       		.uleb128 0x2
 14150 242a 91       		.byte	0x91
 14151 242b 60       		.sleb128 -32
 14152 242c 28       		.uleb128 0x28
 14153 242d 680C0000 		.4byte	.LASF482
 14154 2431 01       		.byte	0x1
 14155 2432 6305     		.2byte	0x563
 14156 2434 EE140000 		.4byte	0x14ee
 14157 2438 02       		.uleb128 0x2
 14158 2439 91       		.byte	0x91
 14159 243a 5C       		.sleb128 -36
 14160 243b 00       		.byte	0
 14161 243c 23       		.uleb128 0x23
 14162 243d 48040000 		.4byte	.LBB77
 14163 2441 4C000000 		.4byte	.LBE77-.LBB77
 14164 2445 59240000 		.4byte	0x2459
 14165 2449 28       		.uleb128 0x28
 14166 244a DD060000 		.4byte	.LASF529
 14167 244e 01       		.byte	0x1
 14168 244f 7405     		.2byte	0x574
 14169 2451 D4050000 		.4byte	0x5d4
 14170 2455 02       		.uleb128 0x2
 14171 2456 91       		.byte	0x91
ARM GAS  C:\Users\RECEPC~1\AppData\Local\Temp\ccNQpeOs.s 			page 289


 14172 2457 58       		.sleb128 -40
 14173 2458 00       		.byte	0
 14174 2459 23       		.uleb128 0x23
 14175 245a A6040000 		.4byte	.LBB78
 14176 245e 4A000000 		.4byte	.LBE78-.LBB78
 14177 2462 77240000 		.4byte	0x2477
 14178 2466 28       		.uleb128 0x28
 14179 2467 DD060000 		.4byte	.LASF529
 14180 246b 01       		.byte	0x1
 14181 246c 7E05     		.2byte	0x57e
 14182 246e B5260000 		.4byte	0x26b5
 14183 2472 03       		.uleb128 0x3
 14184 2473 91       		.byte	0x91
 14185 2474 AC7D     		.sleb128 -340
 14186 2476 00       		.byte	0
 14187 2477 23       		.uleb128 0x23
 14188 2478 1A050000 		.4byte	.LBB79
 14189 247c 5E000000 		.4byte	.LBE79-.LBB79
 14190 2480 94240000 		.4byte	0x2494
 14191 2484 28       		.uleb128 0x28
 14192 2485 DD060000 		.4byte	.LASF529
 14193 2489 01       		.byte	0x1
 14194 248a 8D05     		.2byte	0x58d
 14195 248c D4050000 		.4byte	0x5d4
 14196 2490 02       		.uleb128 0x2
 14197 2491 91       		.byte	0x91
 14198 2492 54       		.sleb128 -44
 14199 2493 00       		.byte	0
 14200 2494 23       		.uleb128 0x23
 14201 2495 7A050000 		.4byte	.LBB80
 14202 2499 5E000000 		.4byte	.LBE80-.LBB80
 14203 249d B1240000 		.4byte	0x24b1
 14204 24a1 28       		.uleb128 0x28
 14205 24a2 DD060000 		.4byte	.LASF529
 14206 24a6 01       		.byte	0x1
 14207 24a7 9305     		.2byte	0x593
 14208 24a9 D4050000 		.4byte	0x5d4
 14209 24ad 02       		.uleb128 0x2
 14210 24ae 91       		.byte	0x91
 14211 24af 50       		.sleb128 -48
 14212 24b0 00       		.byte	0
 14213 24b1 24       		.uleb128 0x24
 14214 24b2 2C060000 		.4byte	.LBB81
 14215 24b6 94000000 		.4byte	.LBE81-.LBB81
 14216 24ba 28       		.uleb128 0x28
 14217 24bb 63290000 		.4byte	.LASF530
 14218 24bf 01       		.byte	0x1
 14219 24c0 9F05     		.2byte	0x59f
 14220 24c2 C5260000 		.4byte	0x26c5
 14221 24c6 03       		.uleb128 0x3
 14222 24c7 91       		.byte	0x91
 14223 24c8 AC7D     		.sleb128 -340
 14224 24ca 00       		.byte	0
 14225 24cb 00       		.byte	0
 14226 24cc 24       		.uleb128 0x24
 14227 24cd E4060000 		.4byte	.LBB83
 14228 24d1 3C060000 		.4byte	.LBE83-.LBB83
ARM GAS  C:\Users\RECEPC~1\AppData\Local\Temp\ccNQpeOs.s 			page 290


 14229 24d5 28       		.uleb128 0x28
 14230 24d6 680C0000 		.4byte	.LASF482
 14231 24da 01       		.byte	0x1
 14232 24db B005     		.2byte	0x5b0
 14233 24dd EE140000 		.4byte	0x14ee
 14234 24e1 02       		.uleb128 0x2
 14235 24e2 91       		.byte	0x91
 14236 24e3 4C       		.sleb128 -52
 14237 24e4 28       		.uleb128 0x28
 14238 24e5 6C100000 		.4byte	.LASF527
 14239 24e9 01       		.byte	0x1
 14240 24ea BB05     		.2byte	0x5bb
 14241 24ec 95260000 		.4byte	0x2695
 14242 24f0 03       		.uleb128 0x3
 14243 24f1 91       		.byte	0x91
 14244 24f2 C07E     		.sleb128 -192
 14245 24f4 28       		.uleb128 0x28
 14246 24f5 CB130000 		.4byte	.LASF528
 14247 24f9 01       		.byte	0x1
 14248 24fa BF05     		.2byte	0x5bf
 14249 24fc A5260000 		.4byte	0x26a5
 14250 2500 03       		.uleb128 0x3
 14251 2501 91       		.byte	0x91
 14252 2502 BC7E     		.sleb128 -196
 14253 2504 23       		.uleb128 0x23
 14254 2505 A4070000 		.4byte	.LBB84
 14255 2509 36000000 		.4byte	.LBE84-.LBB84
 14256 250d 22250000 		.4byte	0x2522
 14257 2511 28       		.uleb128 0x28
 14258 2512 D2190000 		.4byte	.LASF495
 14259 2516 01       		.byte	0x1
 14260 2517 CB05     		.2byte	0x5cb
 14261 2519 EE170000 		.4byte	0x17ee
 14262 251d 03       		.uleb128 0x3
 14263 251e 91       		.byte	0x91
 14264 251f B07E     		.sleb128 -208
 14265 2521 00       		.byte	0
 14266 2522 23       		.uleb128 0x23
 14267 2523 DC070000 		.4byte	.LBB85
 14268 2527 38000000 		.4byte	.LBE85-.LBB85
 14269 252b 40250000 		.4byte	0x2540
 14270 252f 28       		.uleb128 0x28
 14271 2530 D2190000 		.4byte	.LASF495
 14272 2534 01       		.byte	0x1
 14273 2535 D305     		.2byte	0x5d3
 14274 2537 EE170000 		.4byte	0x17ee
 14275 253b 03       		.uleb128 0x3
 14276 253c 91       		.byte	0x91
 14277 253d A47E     		.sleb128 -220
 14278 253f 00       		.byte	0
 14279 2540 23       		.uleb128 0x23
 14280 2541 26080000 		.4byte	.LBB86
 14281 2545 36000000 		.4byte	.LBE86-.LBB86
 14282 2549 5E250000 		.4byte	0x255e
 14283 254d 28       		.uleb128 0x28
 14284 254e D2190000 		.4byte	.LASF495
 14285 2552 01       		.byte	0x1
ARM GAS  C:\Users\RECEPC~1\AppData\Local\Temp\ccNQpeOs.s 			page 291


 14286 2553 E005     		.2byte	0x5e0
 14287 2555 EE170000 		.4byte	0x17ee
 14288 2559 03       		.uleb128 0x3
 14289 255a 91       		.byte	0x91
 14290 255b 987E     		.sleb128 -232
 14291 255d 00       		.byte	0
 14292 255e 23       		.uleb128 0x23
 14293 255f 6E080000 		.4byte	.LBB87
 14294 2563 3C000000 		.4byte	.LBE87-.LBB87
 14295 2567 7C250000 		.4byte	0x257c
 14296 256b 28       		.uleb128 0x28
 14297 256c D2190000 		.4byte	.LASF495
 14298 2570 01       		.byte	0x1
 14299 2571 EA05     		.2byte	0x5ea
 14300 2573 FE170000 		.4byte	0x17fe
 14301 2577 03       		.uleb128 0x3
 14302 2578 91       		.byte	0x91
 14303 2579 887E     		.sleb128 -248
 14304 257b 00       		.byte	0
 14305 257c 23       		.uleb128 0x23
 14306 257d CC080000 		.4byte	.LBB88
 14307 2581 36000000 		.4byte	.LBE88-.LBB88
 14308 2585 9A250000 		.4byte	0x259a
 14309 2589 28       		.uleb128 0x28
 14310 258a D2190000 		.4byte	.LASF495
 14311 258e 01       		.byte	0x1
 14312 258f F905     		.2byte	0x5f9
 14313 2591 EE170000 		.4byte	0x17ee
 14314 2595 03       		.uleb128 0x3
 14315 2596 91       		.byte	0x91
 14316 2597 FC7D     		.sleb128 -260
 14317 2599 00       		.byte	0
 14318 259a 23       		.uleb128 0x23
 14319 259b 04090000 		.4byte	.LBB89
 14320 259f 5C000000 		.4byte	.LBE89-.LBB89
 14321 25a3 B8250000 		.4byte	0x25b8
 14322 25a7 28       		.uleb128 0x28
 14323 25a8 D2190000 		.4byte	.LASF495
 14324 25ac 01       		.byte	0x1
 14325 25ad 0106     		.2byte	0x601
 14326 25af EE170000 		.4byte	0x17ee
 14327 25b3 03       		.uleb128 0x3
 14328 25b4 91       		.byte	0x91
 14329 25b5 F07D     		.sleb128 -272
 14330 25b7 00       		.byte	0
 14331 25b8 23       		.uleb128 0x23
 14332 25b9 72090000 		.4byte	.LBB90
 14333 25bd 34000000 		.4byte	.LBE90-.LBB90
 14334 25c1 D6250000 		.4byte	0x25d6
 14335 25c5 28       		.uleb128 0x28
 14336 25c6 D2190000 		.4byte	.LASF495
 14337 25ca 01       		.byte	0x1
 14338 25cb 0E06     		.2byte	0x60e
 14339 25cd EE170000 		.4byte	0x17ee
 14340 25d1 03       		.uleb128 0x3
 14341 25d2 91       		.byte	0x91
 14342 25d3 E47D     		.sleb128 -284
ARM GAS  C:\Users\RECEPC~1\AppData\Local\Temp\ccNQpeOs.s 			page 292


 14343 25d5 00       		.byte	0
 14344 25d6 23       		.uleb128 0x23
 14345 25d7 B8090000 		.4byte	.LBB91
 14346 25db 3C000000 		.4byte	.LBE91-.LBB91
 14347 25df F4250000 		.4byte	0x25f4
 14348 25e3 28       		.uleb128 0x28
 14349 25e4 D2190000 		.4byte	.LASF495
 14350 25e8 01       		.byte	0x1
 14351 25e9 1806     		.2byte	0x618
 14352 25eb FE170000 		.4byte	0x17fe
 14353 25ef 03       		.uleb128 0x3
 14354 25f0 91       		.byte	0x91
 14355 25f1 D47D     		.sleb128 -300
 14356 25f3 00       		.byte	0
 14357 25f4 23       		.uleb128 0x23
 14358 25f5 840A0000 		.4byte	.LBB92
 14359 25f9 4C000000 		.4byte	.LBE92-.LBB92
 14360 25fd 11260000 		.4byte	0x2611
 14361 2601 28       		.uleb128 0x28
 14362 2602 DD060000 		.4byte	.LASF529
 14363 2606 01       		.byte	0x1
 14364 2607 3106     		.2byte	0x631
 14365 2609 D4050000 		.4byte	0x5d4
 14366 260d 02       		.uleb128 0x2
 14367 260e 91       		.byte	0x91
 14368 260f 48       		.sleb128 -56
 14369 2610 00       		.byte	0
 14370 2611 23       		.uleb128 0x23
 14371 2612 E20A0000 		.4byte	.LBB93
 14372 2616 4A000000 		.4byte	.LBE93-.LBB93
 14373 261a 2F260000 		.4byte	0x262f
 14374 261e 28       		.uleb128 0x28
 14375 261f DD060000 		.4byte	.LASF529
 14376 2623 01       		.byte	0x1
 14377 2624 3B06     		.2byte	0x63b
 14378 2626 B5260000 		.4byte	0x26b5
 14379 262a 03       		.uleb128 0x3
 14380 262b 91       		.byte	0x91
 14381 262c AC7D     		.sleb128 -340
 14382 262e 00       		.byte	0
 14383 262f 23       		.uleb128 0x23
 14384 2630 540B0000 		.4byte	.LBB94
 14385 2634 5E000000 		.4byte	.LBE94-.LBB94
 14386 2638 4C260000 		.4byte	0x264c
 14387 263c 28       		.uleb128 0x28
 14388 263d DD060000 		.4byte	.LASF529
 14389 2641 01       		.byte	0x1
 14390 2642 4A06     		.2byte	0x64a
 14391 2644 D4050000 		.4byte	0x5d4
 14392 2648 02       		.uleb128 0x2
 14393 2649 91       		.byte	0x91
 14394 264a 44       		.sleb128 -60
 14395 264b 00       		.byte	0
 14396 264c 23       		.uleb128 0x23
 14397 264d B40B0000 		.4byte	.LBB95
 14398 2651 5E000000 		.4byte	.LBE95-.LBB95
 14399 2655 69260000 		.4byte	0x2669
ARM GAS  C:\Users\RECEPC~1\AppData\Local\Temp\ccNQpeOs.s 			page 293


 14400 2659 28       		.uleb128 0x28
 14401 265a DD060000 		.4byte	.LASF529
 14402 265e 01       		.byte	0x1
 14403 265f 5006     		.2byte	0x650
 14404 2661 D4050000 		.4byte	0x5d4
 14405 2665 02       		.uleb128 0x2
 14406 2666 91       		.byte	0x91
 14407 2667 40       		.sleb128 -64
 14408 2668 00       		.byte	0
 14409 2669 24       		.uleb128 0x24
 14410 266a 3C0C0000 		.4byte	.LBB96
 14411 266e DE000000 		.4byte	.LBE96-.LBB96
 14412 2672 28       		.uleb128 0x28
 14413 2673 63290000 		.4byte	.LASF530
 14414 2677 01       		.byte	0x1
 14415 2678 5C06     		.2byte	0x65c
 14416 267a C5260000 		.4byte	0x26c5
 14417 267e 03       		.uleb128 0x3
 14418 267f 91       		.byte	0x91
 14419 2680 AC7D     		.sleb128 -340
 14420 2682 00       		.byte	0
 14421 2683 00       		.byte	0
 14422 2684 00       		.byte	0
 14423 2685 0A       		.uleb128 0xa
 14424 2686 CB000000 		.4byte	0xcb
 14425 268a 95260000 		.4byte	0x2695
 14426 268e 0B       		.uleb128 0xb
 14427 268f F4000000 		.4byte	0xf4
 14428 2693 01       		.byte	0x1
 14429 2694 00       		.byte	0
 14430 2695 0A       		.uleb128 0xa
 14431 2696 81000000 		.4byte	0x81
 14432 269a A5260000 		.4byte	0x26a5
 14433 269e 0B       		.uleb128 0xb
 14434 269f F4000000 		.4byte	0xf4
 14435 26a3 01       		.byte	0x1
 14436 26a4 00       		.byte	0
 14437 26a5 0A       		.uleb128 0xa
 14438 26a6 AD020000 		.4byte	0x2ad
 14439 26aa B5260000 		.4byte	0x26b5
 14440 26ae 0B       		.uleb128 0xb
 14441 26af F4000000 		.4byte	0xf4
 14442 26b3 01       		.byte	0x1
 14443 26b4 00       		.byte	0
 14444 26b5 0A       		.uleb128 0xa
 14445 26b6 81000000 		.4byte	0x81
 14446 26ba C5260000 		.4byte	0x26c5
 14447 26be 0B       		.uleb128 0xb
 14448 26bf F4000000 		.4byte	0xf4
 14449 26c3 1F       		.byte	0x1f
 14450 26c4 00       		.byte	0
 14451 26c5 0A       		.uleb128 0xa
 14452 26c6 CB000000 		.4byte	0xcb
 14453 26ca D5260000 		.4byte	0x26d5
 14454 26ce 0B       		.uleb128 0xb
 14455 26cf F4000000 		.4byte	0xf4
 14456 26d3 27       		.byte	0x27
ARM GAS  C:\Users\RECEPC~1\AppData\Local\Temp\ccNQpeOs.s 			page 294


 14457 26d4 00       		.byte	0
 14458 26d5 26       		.uleb128 0x26
 14459 26d6 1E030000 		.4byte	.LASF531
 14460 26da 01       		.byte	0x1
 14461 26db 6E06     		.2byte	0x66e
 14462 26dd 00000000 		.4byte	.LFB88
 14463 26e1 A8000000 		.4byte	.LFE88-.LFB88
 14464 26e5 01       		.uleb128 0x1
 14465 26e6 9C       		.byte	0x9c
 14466 26e7 40270000 		.4byte	0x2740
 14467 26eb 27       		.uleb128 0x27
 14468 26ec A21C0000 		.4byte	.LASF485
 14469 26f0 01       		.byte	0x1
 14470 26f1 6E06     		.2byte	0x66e
 14471 26f3 FB000000 		.4byte	0xfb
 14472 26f7 02       		.uleb128 0x2
 14473 26f8 91       		.byte	0x91
 14474 26f9 64       		.sleb128 -28
 14475 26fa 28       		.uleb128 0x28
 14476 26fb 4F0B0000 		.4byte	.LASF481
 14477 26ff 01       		.byte	0x1
 14478 2700 7006     		.2byte	0x670
 14479 2702 B9100000 		.4byte	0x10b9
 14480 2706 02       		.uleb128 0x2
 14481 2707 91       		.byte	0x91
 14482 2708 74       		.sleb128 -12
 14483 2709 23       		.uleb128 0x23
 14484 270a 14000000 		.4byte	.LBB97
 14485 270e 3E000000 		.4byte	.LBE97-.LBB97
 14486 2712 26270000 		.4byte	0x2726
 14487 2716 28       		.uleb128 0x28
 14488 2717 73120000 		.4byte	.LASF520
 14489 271b 01       		.byte	0x1
 14490 271c 7306     		.2byte	0x673
 14491 271e B4040000 		.4byte	0x4b4
 14492 2722 02       		.uleb128 0x2
 14493 2723 91       		.byte	0x91
 14494 2724 70       		.sleb128 -16
 14495 2725 00       		.byte	0
 14496 2726 24       		.uleb128 0x24
 14497 2727 5E000000 		.4byte	.LBB98
 14498 272b 3E000000 		.4byte	.LBE98-.LBB98
 14499 272f 28       		.uleb128 0x28
 14500 2730 73120000 		.4byte	.LASF520
 14501 2734 01       		.byte	0x1
 14502 2735 8106     		.2byte	0x681
 14503 2737 B4040000 		.4byte	0x4b4
 14504 273b 02       		.uleb128 0x2
 14505 273c 91       		.byte	0x91
 14506 273d 6C       		.sleb128 -20
 14507 273e 00       		.byte	0
 14508 273f 00       		.byte	0
 14509 2740 2A       		.uleb128 0x2a
 14510 2741 A6180000 		.4byte	.LASF532
 14511 2745 01       		.byte	0x1
 14512 2746 8F06     		.2byte	0x68f
 14513 2748 00000000 		.4byte	.LFB89
ARM GAS  C:\Users\RECEPC~1\AppData\Local\Temp\ccNQpeOs.s 			page 295


 14514 274c 4E000000 		.4byte	.LFE89-.LFB89
 14515 2750 01       		.uleb128 0x1
 14516 2751 9C       		.byte	0x9c
 14517 2752 AB270000 		.4byte	0x27ab
 14518 2756 27       		.uleb128 0x27
 14519 2757 A21C0000 		.4byte	.LASF485
 14520 275b 01       		.byte	0x1
 14521 275c 8F06     		.2byte	0x68f
 14522 275e FB000000 		.4byte	0xfb
 14523 2762 02       		.uleb128 0x2
 14524 2763 91       		.byte	0x91
 14525 2764 64       		.sleb128 -28
 14526 2765 28       		.uleb128 0x28
 14527 2766 4F0B0000 		.4byte	.LASF481
 14528 276a 01       		.byte	0x1
 14529 276b 9106     		.2byte	0x691
 14530 276d B9100000 		.4byte	0x10b9
 14531 2771 02       		.uleb128 0x2
 14532 2772 91       		.byte	0x91
 14533 2773 74       		.sleb128 -12
 14534 2774 23       		.uleb128 0x23
 14535 2775 14000000 		.4byte	.LBB99
 14536 2779 12000000 		.4byte	.LBE99-.LBB99
 14537 277d 91270000 		.4byte	0x2791
 14538 2781 28       		.uleb128 0x28
 14539 2782 73120000 		.4byte	.LASF520
 14540 2786 01       		.byte	0x1
 14541 2787 9406     		.2byte	0x694
 14542 2789 B4040000 		.4byte	0x4b4
 14543 278d 02       		.uleb128 0x2
 14544 278e 91       		.byte	0x91
 14545 278f 70       		.sleb128 -16
 14546 2790 00       		.byte	0
 14547 2791 24       		.uleb128 0x24
 14548 2792 32000000 		.4byte	.LBB100
 14549 2796 12000000 		.4byte	.LBE100-.LBB100
 14550 279a 28       		.uleb128 0x28
 14551 279b 73120000 		.4byte	.LASF520
 14552 279f 01       		.byte	0x1
 14553 27a0 9A06     		.2byte	0x69a
 14554 27a2 B4040000 		.4byte	0x4b4
 14555 27a6 02       		.uleb128 0x2
 14556 27a7 91       		.byte	0x91
 14557 27a8 6C       		.sleb128 -20
 14558 27a9 00       		.byte	0
 14559 27aa 00       		.byte	0
 14560 27ab 26       		.uleb128 0x26
 14561 27ac 67210000 		.4byte	.LASF533
 14562 27b0 01       		.byte	0x1
 14563 27b1 A006     		.2byte	0x6a0
 14564 27b3 00000000 		.4byte	.LFB90
 14565 27b7 A0000000 		.4byte	.LFE90-.LFB90
 14566 27bb 01       		.uleb128 0x1
 14567 27bc 9C       		.byte	0x9c
 14568 27bd 16280000 		.4byte	0x2816
 14569 27c1 27       		.uleb128 0x27
 14570 27c2 A21C0000 		.4byte	.LASF485
ARM GAS  C:\Users\RECEPC~1\AppData\Local\Temp\ccNQpeOs.s 			page 296


 14571 27c6 01       		.byte	0x1
 14572 27c7 A006     		.2byte	0x6a0
 14573 27c9 FB000000 		.4byte	0xfb
 14574 27cd 02       		.uleb128 0x2
 14575 27ce 91       		.byte	0x91
 14576 27cf 64       		.sleb128 -28
 14577 27d0 28       		.uleb128 0x28
 14578 27d1 4F0B0000 		.4byte	.LASF481
 14579 27d5 01       		.byte	0x1
 14580 27d6 A206     		.2byte	0x6a2
 14581 27d8 B9100000 		.4byte	0x10b9
 14582 27dc 02       		.uleb128 0x2
 14583 27dd 91       		.byte	0x91
 14584 27de 74       		.sleb128 -12
 14585 27df 23       		.uleb128 0x23
 14586 27e0 14000000 		.4byte	.LBB101
 14587 27e4 3A000000 		.4byte	.LBE101-.LBB101
 14588 27e8 FC270000 		.4byte	0x27fc
 14589 27ec 28       		.uleb128 0x28
 14590 27ed 73120000 		.4byte	.LASF520
 14591 27f1 01       		.byte	0x1
 14592 27f2 A506     		.2byte	0x6a5
 14593 27f4 B4040000 		.4byte	0x4b4
 14594 27f8 02       		.uleb128 0x2
 14595 27f9 91       		.byte	0x91
 14596 27fa 70       		.sleb128 -16
 14597 27fb 00       		.byte	0
 14598 27fc 24       		.uleb128 0x24
 14599 27fd 5A000000 		.4byte	.LBB102
 14600 2801 3A000000 		.4byte	.LBE102-.LBB102
 14601 2805 28       		.uleb128 0x28
 14602 2806 73120000 		.4byte	.LASF520
 14603 280a 01       		.byte	0x1
 14604 280b B506     		.2byte	0x6b5
 14605 280d B4040000 		.4byte	0x4b4
 14606 2811 02       		.uleb128 0x2
 14607 2812 91       		.byte	0x91
 14608 2813 6C       		.sleb128 -20
 14609 2814 00       		.byte	0
 14610 2815 00       		.byte	0
 14611 2816 26       		.uleb128 0x26
 14612 2817 AD060000 		.4byte	.LASF534
 14613 281b 01       		.byte	0x1
 14614 281c C606     		.2byte	0x6c6
 14615 281e 00000000 		.4byte	.LFB91
 14616 2822 2C000000 		.4byte	.LFE91-.LFB91
 14617 2826 01       		.uleb128 0x1
 14618 2827 9C       		.byte	0x9c
 14619 2828 4B280000 		.4byte	0x284b
 14620 282c 27       		.uleb128 0x27
 14621 282d A21C0000 		.4byte	.LASF485
 14622 2831 01       		.byte	0x1
 14623 2832 C606     		.2byte	0x6c6
 14624 2834 FB000000 		.4byte	0xfb
 14625 2838 02       		.uleb128 0x2
 14626 2839 91       		.byte	0x91
 14627 283a 6C       		.sleb128 -20
ARM GAS  C:\Users\RECEPC~1\AppData\Local\Temp\ccNQpeOs.s 			page 297


 14628 283b 28       		.uleb128 0x28
 14629 283c 73120000 		.4byte	.LASF520
 14630 2840 01       		.byte	0x1
 14631 2841 C806     		.2byte	0x6c8
 14632 2843 B4040000 		.4byte	0x4b4
 14633 2847 02       		.uleb128 0x2
 14634 2848 91       		.byte	0x91
 14635 2849 74       		.sleb128 -12
 14636 284a 00       		.byte	0
 14637 284b 2A       		.uleb128 0x2a
 14638 284c DB1B0000 		.4byte	.LASF535
 14639 2850 01       		.byte	0x1
 14640 2851 CD06     		.2byte	0x6cd
 14641 2853 00000000 		.4byte	.LFB92
 14642 2857 4E000000 		.4byte	.LFE92-.LFB92
 14643 285b 01       		.uleb128 0x1
 14644 285c 9C       		.byte	0x9c
 14645 285d B6280000 		.4byte	0x28b6
 14646 2861 27       		.uleb128 0x27
 14647 2862 A21C0000 		.4byte	.LASF485
 14648 2866 01       		.byte	0x1
 14649 2867 CD06     		.2byte	0x6cd
 14650 2869 FB000000 		.4byte	0xfb
 14651 286d 02       		.uleb128 0x2
 14652 286e 91       		.byte	0x91
 14653 286f 64       		.sleb128 -28
 14654 2870 28       		.uleb128 0x28
 14655 2871 4F0B0000 		.4byte	.LASF481
 14656 2875 01       		.byte	0x1
 14657 2876 CF06     		.2byte	0x6cf
 14658 2878 B9100000 		.4byte	0x10b9
 14659 287c 02       		.uleb128 0x2
 14660 287d 91       		.byte	0x91
 14661 287e 74       		.sleb128 -12
 14662 287f 23       		.uleb128 0x23
 14663 2880 14000000 		.4byte	.LBB103
 14664 2884 12000000 		.4byte	.LBE103-.LBB103
 14665 2888 9C280000 		.4byte	0x289c
 14666 288c 28       		.uleb128 0x28
 14667 288d 73120000 		.4byte	.LASF520
 14668 2891 01       		.byte	0x1
 14669 2892 D206     		.2byte	0x6d2
 14670 2894 B4040000 		.4byte	0x4b4
 14671 2898 02       		.uleb128 0x2
 14672 2899 91       		.byte	0x91
 14673 289a 70       		.sleb128 -16
 14674 289b 00       		.byte	0
 14675 289c 24       		.uleb128 0x24
 14676 289d 32000000 		.4byte	.LBB104
 14677 28a1 12000000 		.4byte	.LBE104-.LBB104
 14678 28a5 28       		.uleb128 0x28
 14679 28a6 73120000 		.4byte	.LASF520
 14680 28aa 01       		.byte	0x1
 14681 28ab D806     		.2byte	0x6d8
 14682 28ad B4040000 		.4byte	0x4b4
 14683 28b1 02       		.uleb128 0x2
 14684 28b2 91       		.byte	0x91
ARM GAS  C:\Users\RECEPC~1\AppData\Local\Temp\ccNQpeOs.s 			page 298


 14685 28b3 6C       		.sleb128 -20
 14686 28b4 00       		.byte	0
 14687 28b5 00       		.byte	0
 14688 28b6 2C       		.uleb128 0x2c
 14689 28b7 B5260000 		.4byte	.LASF578
 14690 28bb 01       		.byte	0x1
 14691 28bc DE06     		.2byte	0x6de
 14692 28be AD020000 		.4byte	0x2ad
 14693 28c2 00000000 		.4byte	.LFB93
 14694 28c6 F0010000 		.4byte	.LFE93-.LFB93
 14695 28ca 01       		.uleb128 0x1
 14696 28cb 9C       		.byte	0x9c
 14697 28cc 6F290000 		.4byte	0x296f
 14698 28d0 27       		.uleb128 0x27
 14699 28d1 A21C0000 		.4byte	.LASF485
 14700 28d5 01       		.byte	0x1
 14701 28d6 DE06     		.2byte	0x6de
 14702 28d8 1A010000 		.4byte	0x11a
 14703 28dc 02       		.uleb128 0x2
 14704 28dd 91       		.byte	0x91
 14705 28de 64       		.sleb128 -28
 14706 28df 28       		.uleb128 0x28
 14707 28e0 31160000 		.4byte	.LASF536
 14708 28e4 01       		.byte	0x1
 14709 28e5 E006     		.2byte	0x6e0
 14710 28e7 AD020000 		.4byte	0x2ad
 14711 28eb 02       		.uleb128 0x2
 14712 28ec 91       		.byte	0x91
 14713 28ed 77       		.sleb128 -9
 14714 28ee 28       		.uleb128 0x28
 14715 28ef 4F0B0000 		.4byte	.LASF481
 14716 28f3 01       		.byte	0x1
 14717 28f4 E106     		.2byte	0x6e1
 14718 28f6 B9100000 		.4byte	0x10b9
 14719 28fa 02       		.uleb128 0x2
 14720 28fb 91       		.byte	0x91
 14721 28fc 70       		.sleb128 -16
 14722 28fd 28       		.uleb128 0x28
 14723 28fe 73120000 		.4byte	.LASF520
 14724 2902 01       		.byte	0x1
 14725 2903 E206     		.2byte	0x6e2
 14726 2905 B4040000 		.4byte	0x4b4
 14727 2909 02       		.uleb128 0x2
 14728 290a 91       		.byte	0x91
 14729 290b 6C       		.sleb128 -20
 14730 290c 28       		.uleb128 0x28
 14731 290d A7100000 		.4byte	.LASF537
 14732 2911 01       		.byte	0x1
 14733 2912 E406     		.2byte	0x6e4
 14734 2914 81000000 		.4byte	0x81
 14735 2918 02       		.uleb128 0x2
 14736 2919 91       		.byte	0x91
 14737 291a 6B       		.sleb128 -21
 14738 291b 23       		.uleb128 0x23
 14739 291c 64000000 		.4byte	.LBB105
 14740 2920 66000000 		.4byte	.LBE105-.LBB105
 14741 2924 38290000 		.4byte	0x2938
ARM GAS  C:\Users\RECEPC~1\AppData\Local\Temp\ccNQpeOs.s 			page 299


 14742 2928 28       		.uleb128 0x28
 14743 2929 1C140000 		.4byte	.LASF538
 14744 292d 01       		.byte	0x1
 14745 292e F706     		.2byte	0x6f7
 14746 2930 81000000 		.4byte	0x81
 14747 2934 02       		.uleb128 0x2
 14748 2935 91       		.byte	0x91
 14749 2936 6A       		.sleb128 -22
 14750 2937 00       		.byte	0
 14751 2938 23       		.uleb128 0x23
 14752 2939 DE000000 		.4byte	.LBB106
 14753 293d 66000000 		.4byte	.LBE106-.LBB106
 14754 2941 55290000 		.4byte	0x2955
 14755 2945 28       		.uleb128 0x28
 14756 2946 1C140000 		.4byte	.LASF538
 14757 294a 01       		.byte	0x1
 14758 294b 0407     		.2byte	0x704
 14759 294d 81000000 		.4byte	0x81
 14760 2951 02       		.uleb128 0x2
 14761 2952 91       		.byte	0x91
 14762 2953 69       		.sleb128 -23
 14763 2954 00       		.byte	0
 14764 2955 24       		.uleb128 0x24
 14765 2956 62010000 		.4byte	.LBB107
 14766 295a 7C000000 		.4byte	.LBE107-.LBB107
 14767 295e 28       		.uleb128 0x28
 14768 295f 1C140000 		.4byte	.LASF538
 14769 2963 01       		.byte	0x1
 14770 2964 1707     		.2byte	0x717
 14771 2966 81000000 		.4byte	0x81
 14772 296a 02       		.uleb128 0x2
 14773 296b 91       		.byte	0x91
 14774 296c 68       		.sleb128 -24
 14775 296d 00       		.byte	0
 14776 296e 00       		.byte	0
 14777 296f 26       		.uleb128 0x26
 14778 2970 4E250000 		.4byte	.LASF539
 14779 2974 01       		.byte	0x1
 14780 2975 2707     		.2byte	0x727
 14781 2977 00000000 		.4byte	.LFB94
 14782 297b 64000000 		.4byte	.LFE94-.LFB94
 14783 297f 01       		.uleb128 0x1
 14784 2980 9C       		.byte	0x9c
 14785 2981 A4290000 		.4byte	0x29a4
 14786 2985 27       		.uleb128 0x27
 14787 2986 A21C0000 		.4byte	.LASF485
 14788 298a 01       		.byte	0x1
 14789 298b 2707     		.2byte	0x727
 14790 298d FB000000 		.4byte	0xfb
 14791 2991 02       		.uleb128 0x2
 14792 2992 91       		.byte	0x91
 14793 2993 6C       		.sleb128 -20
 14794 2994 28       		.uleb128 0x28
 14795 2995 4F0B0000 		.4byte	.LASF481
 14796 2999 01       		.byte	0x1
 14797 299a 2907     		.2byte	0x729
 14798 299c B9100000 		.4byte	0x10b9
ARM GAS  C:\Users\RECEPC~1\AppData\Local\Temp\ccNQpeOs.s 			page 300


 14799 29a0 02       		.uleb128 0x2
 14800 29a1 91       		.byte	0x91
 14801 29a2 74       		.sleb128 -12
 14802 29a3 00       		.byte	0
 14803 29a4 26       		.uleb128 0x26
 14804 29a5 77050000 		.4byte	.LASF540
 14805 29a9 01       		.byte	0x1
 14806 29aa 3E07     		.2byte	0x73e
 14807 29ac 00000000 		.4byte	.LFB95
 14808 29b0 78000000 		.4byte	.LFE95-.LFB95
 14809 29b4 01       		.uleb128 0x1
 14810 29b5 9C       		.byte	0x9c
 14811 29b6 D9290000 		.4byte	0x29d9
 14812 29ba 27       		.uleb128 0x27
 14813 29bb A21C0000 		.4byte	.LASF485
 14814 29bf 01       		.byte	0x1
 14815 29c0 3E07     		.2byte	0x73e
 14816 29c2 FB000000 		.4byte	0xfb
 14817 29c6 02       		.uleb128 0x2
 14818 29c7 91       		.byte	0x91
 14819 29c8 6C       		.sleb128 -20
 14820 29c9 28       		.uleb128 0x28
 14821 29ca 4F0B0000 		.4byte	.LASF481
 14822 29ce 01       		.byte	0x1
 14823 29cf 4007     		.2byte	0x740
 14824 29d1 B9100000 		.4byte	0x10b9
 14825 29d5 02       		.uleb128 0x2
 14826 29d6 91       		.byte	0x91
 14827 29d7 74       		.sleb128 -12
 14828 29d8 00       		.byte	0
 14829 29d9 2A       		.uleb128 0x2a
 14830 29da 85130000 		.4byte	.LASF541
 14831 29de 01       		.byte	0x1
 14832 29df 5C07     		.2byte	0x75c
 14833 29e1 00000000 		.4byte	.LFB96
 14834 29e5 64010000 		.4byte	.LFE96-.LFB96
 14835 29e9 01       		.uleb128 0x1
 14836 29ea 9C       		.byte	0x9c
 14837 29eb 4A2A0000 		.4byte	0x2a4a
 14838 29ef 27       		.uleb128 0x27
 14839 29f0 140F0000 		.4byte	.LASF542
 14840 29f4 01       		.byte	0x1
 14841 29f5 5C07     		.2byte	0x75c
 14842 29f7 25010000 		.4byte	0x125
 14843 29fb 02       		.uleb128 0x2
 14844 29fc 91       		.byte	0x91
 14845 29fd 6C       		.sleb128 -20
 14846 29fe 27       		.uleb128 0x27
 14847 29ff C01A0000 		.4byte	.LASF543
 14848 2a03 01       		.byte	0x1
 14849 2a04 5C07     		.2byte	0x75c
 14850 2a06 81000000 		.4byte	0x81
 14851 2a0a 02       		.uleb128 0x2
 14852 2a0b 91       		.byte	0x91
 14853 2a0c 6B       		.sleb128 -21
 14854 2a0d 28       		.uleb128 0x28
 14855 2a0e CB1A0000 		.4byte	.LASF544
ARM GAS  C:\Users\RECEPC~1\AppData\Local\Temp\ccNQpeOs.s 			page 301


 14856 2a12 01       		.byte	0x1
 14857 2a13 5E07     		.2byte	0x75e
 14858 2a15 81000000 		.4byte	0x81
 14859 2a19 02       		.uleb128 0x2
 14860 2a1a 91       		.byte	0x91
 14861 2a1b 77       		.sleb128 -9
 14862 2a1c 28       		.uleb128 0x28
 14863 2a1d 79100000 		.4byte	.LASF545
 14864 2a21 01       		.byte	0x1
 14865 2a22 5F07     		.2byte	0x75f
 14866 2a24 AD020000 		.4byte	0x2ad
 14867 2a28 02       		.uleb128 0x2
 14868 2a29 91       		.byte	0x91
 14869 2a2a 76       		.sleb128 -10
 14870 2a2b 28       		.uleb128 0x28
 14871 2a2c 6D120000 		.4byte	.LASF489
 14872 2a30 01       		.byte	0x1
 14873 2a31 6107     		.2byte	0x761
 14874 2a33 A5000000 		.4byte	0xa5
 14875 2a37 02       		.uleb128 0x2
 14876 2a38 91       		.byte	0x91
 14877 2a39 75       		.sleb128 -11
 14878 2a3a 28       		.uleb128 0x28
 14879 2a3b 9B130000 		.4byte	.LASF546
 14880 2a3f 01       		.byte	0x1
 14881 2a40 7107     		.2byte	0x771
 14882 2a42 A5000000 		.4byte	0xa5
 14883 2a46 02       		.uleb128 0x2
 14884 2a47 91       		.byte	0x91
 14885 2a48 74       		.sleb128 -12
 14886 2a49 00       		.byte	0
 14887 2a4a 26       		.uleb128 0x26
 14888 2a4b 4D1D0000 		.4byte	.LASF547
 14889 2a4f 01       		.byte	0x1
 14890 2a50 9107     		.2byte	0x791
 14891 2a52 00000000 		.4byte	.LFB97
 14892 2a56 62000000 		.4byte	.LFE97-.LFB97
 14893 2a5a 01       		.uleb128 0x1
 14894 2a5b 9C       		.byte	0x9c
 14895 2a5c 7F2A0000 		.4byte	0x2a7f
 14896 2a60 27       		.uleb128 0x27
 14897 2a61 A21C0000 		.4byte	.LASF485
 14898 2a65 01       		.byte	0x1
 14899 2a66 9107     		.2byte	0x791
 14900 2a68 FB000000 		.4byte	0xfb
 14901 2a6c 02       		.uleb128 0x2
 14902 2a6d 91       		.byte	0x91
 14903 2a6e 64       		.sleb128 -28
 14904 2a6f 28       		.uleb128 0x28
 14905 2a70 4F0B0000 		.4byte	.LASF481
 14906 2a74 01       		.byte	0x1
 14907 2a75 9307     		.2byte	0x793
 14908 2a77 B9100000 		.4byte	0x10b9
 14909 2a7b 02       		.uleb128 0x2
 14910 2a7c 91       		.byte	0x91
 14911 2a7d 6C       		.sleb128 -20
 14912 2a7e 00       		.byte	0
ARM GAS  C:\Users\RECEPC~1\AppData\Local\Temp\ccNQpeOs.s 			page 302


 14913 2a7f 26       		.uleb128 0x26
 14914 2a80 7E110000 		.4byte	.LASF548
 14915 2a84 01       		.byte	0x1
 14916 2a85 9C07     		.2byte	0x79c
 14917 2a87 00000000 		.4byte	.LFB98
 14918 2a8b B4010000 		.4byte	.LFE98-.LFB98
 14919 2a8f 01       		.uleb128 0x1
 14920 2a90 9C       		.byte	0x9c
 14921 2a91 6A2B0000 		.4byte	0x2b6a
 14922 2a95 27       		.uleb128 0x27
 14923 2a96 E8060000 		.4byte	.LASF549
 14924 2a9a 01       		.byte	0x1
 14925 2a9b 9C07     		.2byte	0x79c
 14926 2a9d FB000000 		.4byte	0xfb
 14927 2aa1 03       		.uleb128 0x3
 14928 2aa2 91       		.byte	0x91
 14929 2aa3 BC7F     		.sleb128 -68
 14930 2aa5 28       		.uleb128 0x28
 14931 2aa6 0E150000 		.4byte	.LASF519
 14932 2aaa 01       		.byte	0x1
 14933 2aab 9E07     		.2byte	0x79e
 14934 2aad B4040000 		.4byte	0x4b4
 14935 2ab1 02       		.uleb128 0x2
 14936 2ab2 91       		.byte	0x91
 14937 2ab3 64       		.sleb128 -28
 14938 2ab4 2D       		.uleb128 0x2d
 14939 2ab5 D51D0000 		.4byte	.LASF559
 14940 2ab9 01       		.byte	0x1
 14941 2aba F107     		.2byte	0x7f1
 14942 2abc 96010000 		.4byte	.L317
 14943 2ac0 23       		.uleb128 0x23
 14944 2ac1 5E000000 		.4byte	.LBB108
 14945 2ac5 20010000 		.4byte	.LBE108-.LBB108
 14946 2ac9 502B0000 		.4byte	0x2b50
 14947 2acd 28       		.uleb128 0x28
 14948 2ace 760A0000 		.4byte	.LASF550
 14949 2ad2 01       		.byte	0x1
 14950 2ad3 B207     		.2byte	0x7b2
 14951 2ad5 AD020000 		.4byte	0x2ad
 14952 2ad9 02       		.uleb128 0x2
 14953 2ada 91       		.byte	0x91
 14954 2adb 6F       		.sleb128 -17
 14955 2adc 28       		.uleb128 0x28
 14956 2add FD030000 		.4byte	.LASF551
 14957 2ae1 01       		.byte	0x1
 14958 2ae2 B307     		.2byte	0x7b3
 14959 2ae4 2B010000 		.4byte	0x12b
 14960 2ae8 02       		.uleb128 0x2
 14961 2ae9 91       		.byte	0x91
 14962 2aea 68       		.sleb128 -24
 14963 2aeb 28       		.uleb128 0x28
 14964 2aec 76060000 		.4byte	.LASF552
 14965 2af0 01       		.byte	0x1
 14966 2af1 D007     		.2byte	0x7d0
 14967 2af3 350E0000 		.4byte	0xe35
 14968 2af7 02       		.uleb128 0x2
 14969 2af8 91       		.byte	0x91
ARM GAS  C:\Users\RECEPC~1\AppData\Local\Temp\ccNQpeOs.s 			page 303


 14970 2af9 58       		.sleb128 -40
 14971 2afa 28       		.uleb128 0x28
 14972 2afb EF000000 		.4byte	.LASF553
 14973 2aff 01       		.byte	0x1
 14974 2b00 D607     		.2byte	0x7d6
 14975 2b02 2A0E0000 		.4byte	0xe2a
 14976 2b06 02       		.uleb128 0x2
 14977 2b07 91       		.byte	0x91
 14978 2b08 54       		.sleb128 -44
 14979 2b09 28       		.uleb128 0x28
 14980 2b0a 140F0000 		.4byte	.LASF542
 14981 2b0e 01       		.byte	0x1
 14982 2b0f DB07     		.2byte	0x7db
 14983 2b11 E2070000 		.4byte	0x7e2
 14984 2b15 02       		.uleb128 0x2
 14985 2b16 91       		.byte	0x91
 14986 2b17 44       		.sleb128 -60
 14987 2b18 28       		.uleb128 0x28
 14988 2b19 680C0000 		.4byte	.LASF482
 14989 2b1d 01       		.byte	0x1
 14990 2b1e DC07     		.2byte	0x7dc
 14991 2b20 59030000 		.4byte	0x359
 14992 2b24 02       		.uleb128 0x2
 14993 2b25 91       		.byte	0x91
 14994 2b26 50       		.sleb128 -48
 14995 2b27 28       		.uleb128 0x28
 14996 2b28 59170000 		.4byte	.LASF554
 14997 2b2c 01       		.byte	0x1
 14998 2b2d E407     		.2byte	0x7e4
 14999 2b2f 090E0000 		.4byte	0xe09
 15000 2b33 02       		.uleb128 0x2
 15001 2b34 91       		.byte	0x91
 15002 2b35 4C       		.sleb128 -52
 15003 2b36 24       		.uleb128 0x24
 15004 2b37 A4000000 		.4byte	.LBB109
 15005 2b3b 3A000000 		.4byte	.LBE109-.LBB109
 15006 2b3f 28       		.uleb128 0x28
 15007 2b40 66110000 		.4byte	.LASF555
 15008 2b44 01       		.byte	0x1
 15009 2b45 C007     		.2byte	0x7c0
 15010 2b47 140E0000 		.4byte	0xe14
 15011 2b4b 02       		.uleb128 0x2
 15012 2b4c 91       		.byte	0x91
 15013 2b4d 5C       		.sleb128 -36
 15014 2b4e 00       		.byte	0
 15015 2b4f 00       		.byte	0
 15016 2b50 24       		.uleb128 0x24
 15017 2b51 82010000 		.4byte	.LBB110
 15018 2b55 14000000 		.4byte	.LBE110-.LBB110
 15019 2b59 28       		.uleb128 0x28
 15020 2b5a BE180000 		.4byte	.LASF556
 15021 2b5e 01       		.byte	0x1
 15022 2b5f EC07     		.2byte	0x7ec
 15023 2b61 1F0E0000 		.4byte	0xe1f
 15024 2b65 02       		.uleb128 0x2
 15025 2b66 91       		.byte	0x91
 15026 2b67 60       		.sleb128 -32
ARM GAS  C:\Users\RECEPC~1\AppData\Local\Temp\ccNQpeOs.s 			page 304


 15027 2b68 00       		.byte	0
 15028 2b69 00       		.byte	0
 15029 2b6a 26       		.uleb128 0x26
 15030 2b6b 69000000 		.4byte	.LASF557
 15031 2b6f 01       		.byte	0x1
 15032 2b70 F607     		.2byte	0x7f6
 15033 2b72 00000000 		.4byte	.LFB99
 15034 2b76 A0000000 		.4byte	.LFE99-.LFB99
 15035 2b7a 01       		.uleb128 0x1
 15036 2b7b 9C       		.byte	0x9c
 15037 2b7c E02B0000 		.4byte	0x2be0
 15038 2b80 27       		.uleb128 0x27
 15039 2b81 A21C0000 		.4byte	.LASF485
 15040 2b85 01       		.byte	0x1
 15041 2b86 F607     		.2byte	0x7f6
 15042 2b88 FB000000 		.4byte	0xfb
 15043 2b8c 02       		.uleb128 0x2
 15044 2b8d 91       		.byte	0x91
 15045 2b8e 64       		.sleb128 -28
 15046 2b8f 28       		.uleb128 0x28
 15047 2b90 4F0B0000 		.4byte	.LASF481
 15048 2b94 01       		.byte	0x1
 15049 2b95 F807     		.2byte	0x7f8
 15050 2b97 B9100000 		.4byte	0x10b9
 15051 2b9b 02       		.uleb128 0x2
 15052 2b9c 91       		.byte	0x91
 15053 2b9d 74       		.sleb128 -12
 15054 2b9e 28       		.uleb128 0x28
 15055 2b9f 95050000 		.4byte	.LASF488
 15056 2ba3 01       		.byte	0x1
 15057 2ba4 FC07     		.2byte	0x7fc
 15058 2ba6 590A0000 		.4byte	0xa59
 15059 2baa 02       		.uleb128 0x2
 15060 2bab 91       		.byte	0x91
 15061 2bac 70       		.sleb128 -16
 15062 2bad 24       		.uleb128 0x24
 15063 2bae 2A000000 		.4byte	.LBB111
 15064 2bb2 6C000000 		.4byte	.LBE111-.LBB111
 15065 2bb6 29       		.uleb128 0x29
 15066 2bb7 70747300 		.ascii	"pts\000"
 15067 2bbb 01       		.byte	0x1
 15068 2bbc 0008     		.2byte	0x800
 15069 2bbe AF060000 		.4byte	0x6af
 15070 2bc2 02       		.uleb128 0x2
 15071 2bc3 91       		.byte	0x91
 15072 2bc4 6C       		.sleb128 -20
 15073 2bc5 24       		.uleb128 0x24
 15074 2bc6 50000000 		.4byte	.LBB112
 15075 2bca 46000000 		.4byte	.LBE112-.LBB112
 15076 2bce 28       		.uleb128 0x28
 15077 2bcf 6D120000 		.4byte	.LASF489
 15078 2bd3 01       		.byte	0x1
 15079 2bd4 0408     		.2byte	0x804
 15080 2bd6 81000000 		.4byte	0x81
 15081 2bda 02       		.uleb128 0x2
 15082 2bdb 91       		.byte	0x91
 15083 2bdc 6B       		.sleb128 -21
ARM GAS  C:\Users\RECEPC~1\AppData\Local\Temp\ccNQpeOs.s 			page 305


 15084 2bdd 00       		.byte	0
 15085 2bde 00       		.byte	0
 15086 2bdf 00       		.byte	0
 15087 2be0 26       		.uleb128 0x26
 15088 2be1 B52A0000 		.4byte	.LASF558
 15089 2be5 01       		.byte	0x1
 15090 2be6 1408     		.2byte	0x814
 15091 2be8 00000000 		.4byte	.LFB100
 15092 2bec B4010000 		.4byte	.LFE100-.LFB100
 15093 2bf0 01       		.uleb128 0x1
 15094 2bf1 9C       		.byte	0x9c
 15095 2bf2 CB2C0000 		.4byte	0x2ccb
 15096 2bf6 27       		.uleb128 0x27
 15097 2bf7 E8060000 		.4byte	.LASF549
 15098 2bfb 01       		.byte	0x1
 15099 2bfc 1408     		.2byte	0x814
 15100 2bfe FB000000 		.4byte	0xfb
 15101 2c02 03       		.uleb128 0x3
 15102 2c03 91       		.byte	0x91
 15103 2c04 BC7F     		.sleb128 -68
 15104 2c06 28       		.uleb128 0x28
 15105 2c07 0E150000 		.4byte	.LASF519
 15106 2c0b 01       		.byte	0x1
 15107 2c0c 1608     		.2byte	0x816
 15108 2c0e B4040000 		.4byte	0x4b4
 15109 2c12 02       		.uleb128 0x2
 15110 2c13 91       		.byte	0x91
 15111 2c14 64       		.sleb128 -28
 15112 2c15 2D       		.uleb128 0x2d
 15113 2c16 E31D0000 		.4byte	.LASF560
 15114 2c1a 01       		.byte	0x1
 15115 2c1b 6708     		.2byte	0x867
 15116 2c1d 96010000 		.4byte	.L340
 15117 2c21 23       		.uleb128 0x23
 15118 2c22 5E000000 		.4byte	.LBB113
 15119 2c26 20010000 		.4byte	.LBE113-.LBB113
 15120 2c2a B12C0000 		.4byte	0x2cb1
 15121 2c2e 28       		.uleb128 0x28
 15122 2c2f 760A0000 		.4byte	.LASF550
 15123 2c33 01       		.byte	0x1
 15124 2c34 2A08     		.2byte	0x82a
 15125 2c36 AD020000 		.4byte	0x2ad
 15126 2c3a 02       		.uleb128 0x2
 15127 2c3b 91       		.byte	0x91
 15128 2c3c 6F       		.sleb128 -17
 15129 2c3d 28       		.uleb128 0x28
 15130 2c3e FD030000 		.4byte	.LASF551
 15131 2c42 01       		.byte	0x1
 15132 2c43 2B08     		.2byte	0x82b
 15133 2c45 2B010000 		.4byte	0x12b
 15134 2c49 02       		.uleb128 0x2
 15135 2c4a 91       		.byte	0x91
 15136 2c4b 68       		.sleb128 -24
 15137 2c4c 28       		.uleb128 0x28
 15138 2c4d 76060000 		.4byte	.LASF552
 15139 2c51 01       		.byte	0x1
 15140 2c52 4708     		.2byte	0x847
ARM GAS  C:\Users\RECEPC~1\AppData\Local\Temp\ccNQpeOs.s 			page 306


 15141 2c54 350E0000 		.4byte	0xe35
 15142 2c58 02       		.uleb128 0x2
 15143 2c59 91       		.byte	0x91
 15144 2c5a 58       		.sleb128 -40
 15145 2c5b 28       		.uleb128 0x28
 15146 2c5c EF000000 		.4byte	.LASF553
 15147 2c60 01       		.byte	0x1
 15148 2c61 4D08     		.2byte	0x84d
 15149 2c63 2A0E0000 		.4byte	0xe2a
 15150 2c67 02       		.uleb128 0x2
 15151 2c68 91       		.byte	0x91
 15152 2c69 54       		.sleb128 -44
 15153 2c6a 28       		.uleb128 0x28
 15154 2c6b 140F0000 		.4byte	.LASF542
 15155 2c6f 01       		.byte	0x1
 15156 2c70 5208     		.2byte	0x852
 15157 2c72 E2070000 		.4byte	0x7e2
 15158 2c76 02       		.uleb128 0x2
 15159 2c77 91       		.byte	0x91
 15160 2c78 44       		.sleb128 -60
 15161 2c79 28       		.uleb128 0x28
 15162 2c7a 680C0000 		.4byte	.LASF482
 15163 2c7e 01       		.byte	0x1
 15164 2c7f 5308     		.2byte	0x853
 15165 2c81 59030000 		.4byte	0x359
 15166 2c85 02       		.uleb128 0x2
 15167 2c86 91       		.byte	0x91
 15168 2c87 50       		.sleb128 -48
 15169 2c88 28       		.uleb128 0x28
 15170 2c89 59170000 		.4byte	.LASF554
 15171 2c8d 01       		.byte	0x1
 15172 2c8e 5B08     		.2byte	0x85b
 15173 2c90 090E0000 		.4byte	0xe09
 15174 2c94 02       		.uleb128 0x2
 15175 2c95 91       		.byte	0x91
 15176 2c96 4C       		.sleb128 -52
 15177 2c97 24       		.uleb128 0x24
 15178 2c98 A4000000 		.4byte	.LBB114
 15179 2c9c 3A000000 		.4byte	.LBE114-.LBB114
 15180 2ca0 28       		.uleb128 0x28
 15181 2ca1 66110000 		.4byte	.LASF555
 15182 2ca5 01       		.byte	0x1
 15183 2ca6 3808     		.2byte	0x838
 15184 2ca8 140E0000 		.4byte	0xe14
 15185 2cac 02       		.uleb128 0x2
 15186 2cad 91       		.byte	0x91
 15187 2cae 5C       		.sleb128 -36
 15188 2caf 00       		.byte	0
 15189 2cb0 00       		.byte	0
 15190 2cb1 24       		.uleb128 0x24
 15191 2cb2 82010000 		.4byte	.LBB115
 15192 2cb6 14000000 		.4byte	.LBE115-.LBB115
 15193 2cba 28       		.uleb128 0x28
 15194 2cbb BE180000 		.4byte	.LASF556
 15195 2cbf 01       		.byte	0x1
 15196 2cc0 6308     		.2byte	0x863
 15197 2cc2 1F0E0000 		.4byte	0xe1f
ARM GAS  C:\Users\RECEPC~1\AppData\Local\Temp\ccNQpeOs.s 			page 307


 15198 2cc6 02       		.uleb128 0x2
 15199 2cc7 91       		.byte	0x91
 15200 2cc8 60       		.sleb128 -32
 15201 2cc9 00       		.byte	0
 15202 2cca 00       		.byte	0
 15203 2ccb 2E       		.uleb128 0x2e
 15204 2ccc AB190000 		.4byte	.LASF561
 15205 2cd0 0F       		.byte	0xf
 15206 2cd1 5506     		.2byte	0x655
 15207 2cd3 D72C0000 		.4byte	0x2cd7
 15208 2cd7 06       		.uleb128 0x6
 15209 2cd8 76000000 		.4byte	0x76
 15210 2cdc 2F       		.uleb128 0x2f
 15211 2cdd 7D160000 		.4byte	.LASF562
 15212 2ce1 10       		.byte	0x10
 15213 2ce2 4D       		.byte	0x4d
 15214 2ce3 8D000000 		.4byte	0x8d
 15215 2ce7 0A       		.uleb128 0xa
 15216 2ce8 4D0A0000 		.4byte	0xa4d
 15217 2cec F72C0000 		.4byte	0x2cf7
 15218 2cf0 0B       		.uleb128 0xb
 15219 2cf1 F4000000 		.4byte	0xf4
 15220 2cf5 03       		.byte	0x3
 15221 2cf6 00       		.byte	0
 15222 2cf7 2E       		.uleb128 0x2e
 15223 2cf8 64120000 		.4byte	.LASF563
 15224 2cfc 09       		.byte	0x9
 15225 2cfd 5102     		.2byte	0x251
 15226 2cff E72C0000 		.4byte	0x2ce7
 15227 2d03 2E       		.uleb128 0x2e
 15228 2d04 1A2A0000 		.4byte	.LASF564
 15229 2d08 09       		.byte	0x9
 15230 2d09 5302     		.2byte	0x253
 15231 2d0b 550B0000 		.4byte	0xb55
 15232 2d0f 0A       		.uleb128 0xa
 15233 2d10 19110000 		.4byte	0x1119
 15234 2d14 1F2D0000 		.4byte	0x2d1f
 15235 2d18 0B       		.uleb128 0xb
 15236 2d19 F4000000 		.4byte	0xf4
 15237 2d1d 01       		.byte	0x1
 15238 2d1e 00       		.byte	0
 15239 2d1f 30       		.uleb128 0x30
 15240 2d20 A4030000 		.4byte	.LASF565
 15241 2d24 01       		.byte	0x1
 15242 2d25 27       		.byte	0x27
 15243 2d26 0F2D0000 		.4byte	0x2d0f
 15244 2d2a 05       		.uleb128 0x5
 15245 2d2b 03       		.byte	0x3
 15246 2d2c 00000000 		.4byte	_g_homeanimarray
 15247 2d30 0A       		.uleb128 0xa
 15248 2d31 510F0000 		.4byte	0xf51
 15249 2d35 3B2D0000 		.4byte	0x2d3b
 15250 2d39 31       		.uleb128 0x31
 15251 2d3a 00       		.byte	0
 15252 2d3b 2E       		.uleb128 0x2e
 15253 2d3c F0210000 		.4byte	.LASF566
 15254 2d40 0A       		.byte	0xa
ARM GAS  C:\Users\RECEPC~1\AppData\Local\Temp\ccNQpeOs.s 			page 308


 15255 2d41 1701     		.2byte	0x117
 15256 2d43 302D0000 		.4byte	0x2d30
 15257 2d47 30       		.uleb128 0x30
 15258 2d48 B81B0000 		.4byte	.LASF567
 15259 2d4c 01       		.byte	0x1
 15260 2d4d 23       		.byte	0x23
 15261 2d4e AD100000 		.4byte	0x10ad
 15262 2d52 05       		.uleb128 0x5
 15263 2d53 03       		.byte	0x3
 15264 2d54 00000000 		.4byte	_g_display1
 15265 2d58 30       		.uleb128 0x30
 15266 2d59 C41B0000 		.4byte	.LASF568
 15267 2d5d 01       		.byte	0x1
 15268 2d5e 25       		.byte	0x25
 15269 2d5f AD100000 		.4byte	0x10ad
 15270 2d63 05       		.uleb128 0x5
 15271 2d64 03       		.byte	0x3
 15272 2d65 00000000 		.4byte	_g_display2
 15273 2d69 2F       		.uleb128 0x2f
 15274 2d6a 00240000 		.4byte	.LASF569
 15275 2d6e 0B       		.byte	0xb
 15276 2d6f C2       		.byte	0xc2
 15277 2d70 DA120000 		.4byte	0x12da
 15278 2d74 2F       		.uleb128 0x2f
 15279 2d75 7D210000 		.4byte	.LASF570
 15280 2d79 0C       		.byte	0xc
 15281 2d7a 79       		.byte	0x79
 15282 2d7b 06130000 		.4byte	0x1306
 15283 2d7f 0A       		.uleb128 0xa
 15284 2d80 81000000 		.4byte	0x81
 15285 2d84 8F2D0000 		.4byte	0x2d8f
 15286 2d88 0B       		.uleb128 0xb
 15287 2d89 F4000000 		.4byte	0xf4
 15288 2d8d 02       		.byte	0x2
 15289 2d8e 00       		.byte	0
 15290 2d8f 30       		.uleb128 0x30
 15291 2d90 140C0000 		.4byte	.LASF571
 15292 2d94 01       		.byte	0x1
 15293 2d95 1C       		.byte	0x1c
 15294 2d96 7F2D0000 		.4byte	0x2d7f
 15295 2d9a 05       		.uleb128 0x5
 15296 2d9b 03       		.byte	0x3
 15297 2d9c 00000000 		.4byte	_g_dispvalcodes
 15298 2da0 30       		.uleb128 0x30
 15299 2da1 36120000 		.4byte	.LASF572
 15300 2da5 01       		.byte	0x1
 15301 2da6 21       		.byte	0x21
 15302 2da7 A5260000 		.4byte	0x26a5
 15303 2dab 05       		.uleb128 0x5
 15304 2dac 03       		.byte	0x3
 15305 2dad 00000000 		.4byte	_g_configured
 15306 2db1 0A       		.uleb128 0xa
 15307 2db2 8D000000 		.4byte	0x8d
 15308 2db6 C72D0000 		.4byte	0x2dc7
 15309 2dba 0B       		.uleb128 0xb
 15310 2dbb F4000000 		.4byte	0xf4
 15311 2dbf 04       		.byte	0x4
ARM GAS  C:\Users\RECEPC~1\AppData\Local\Temp\ccNQpeOs.s 			page 309


 15312 2dc0 0B       		.uleb128 0xb
 15313 2dc1 F4000000 		.4byte	0xf4
 15314 2dc5 01       		.byte	0x1
 15315 2dc6 00       		.byte	0
 15316 2dc7 30       		.uleb128 0x30
 15317 2dc8 4F290000 		.4byte	.LASF573
 15318 2dcc 01       		.byte	0x1
 15319 2dcd 2D       		.byte	0x2d
 15320 2dce B12D0000 		.4byte	0x2db1
 15321 2dd2 05       		.uleb128 0x5
 15322 2dd3 03       		.byte	0x3
 15323 2dd4 00000000 		.4byte	_g_productscreenpos
 15324 2dd8 00       		.byte	0
 15325              		.section	.debug_abbrev,"",%progbits
 15326              	.Ldebug_abbrev0:
 15327 0000 01       		.uleb128 0x1
 15328 0001 11       		.uleb128 0x11
 15329 0002 01       		.byte	0x1
 15330 0003 25       		.uleb128 0x25
 15331 0004 0E       		.uleb128 0xe
 15332 0005 13       		.uleb128 0x13
 15333 0006 0B       		.uleb128 0xb
 15334 0007 03       		.uleb128 0x3
 15335 0008 0E       		.uleb128 0xe
 15336 0009 1B       		.uleb128 0x1b
 15337 000a 0E       		.uleb128 0xe
 15338 000b 55       		.uleb128 0x55
 15339 000c 17       		.uleb128 0x17
 15340 000d 11       		.uleb128 0x11
 15341 000e 01       		.uleb128 0x1
 15342 000f 10       		.uleb128 0x10
 15343 0010 17       		.uleb128 0x17
 15344 0011 00       		.byte	0
 15345 0012 00       		.byte	0
 15346 0013 02       		.uleb128 0x2
 15347 0014 24       		.uleb128 0x24
 15348 0015 00       		.byte	0
 15349 0016 0B       		.uleb128 0xb
 15350 0017 0B       		.uleb128 0xb
 15351 0018 3E       		.uleb128 0x3e
 15352 0019 0B       		.uleb128 0xb
 15353 001a 03       		.uleb128 0x3
 15354 001b 0E       		.uleb128 0xe
 15355 001c 00       		.byte	0
 15356 001d 00       		.byte	0
 15357 001e 03       		.uleb128 0x3
 15358 001f 16       		.uleb128 0x16
 15359 0020 00       		.byte	0
 15360 0021 03       		.uleb128 0x3
 15361 0022 0E       		.uleb128 0xe
 15362 0023 3A       		.uleb128 0x3a
 15363 0024 0B       		.uleb128 0xb
 15364 0025 3B       		.uleb128 0x3b
 15365 0026 0B       		.uleb128 0xb
 15366 0027 49       		.uleb128 0x49
 15367 0028 13       		.uleb128 0x13
 15368 0029 00       		.byte	0
ARM GAS  C:\Users\RECEPC~1\AppData\Local\Temp\ccNQpeOs.s 			page 310


 15369 002a 00       		.byte	0
 15370 002b 04       		.uleb128 0x4
 15371 002c 24       		.uleb128 0x24
 15372 002d 00       		.byte	0
 15373 002e 0B       		.uleb128 0xb
 15374 002f 0B       		.uleb128 0xb
 15375 0030 3E       		.uleb128 0x3e
 15376 0031 0B       		.uleb128 0xb
 15377 0032 03       		.uleb128 0x3
 15378 0033 08       		.uleb128 0x8
 15379 0034 00       		.byte	0
 15380 0035 00       		.byte	0
 15381 0036 05       		.uleb128 0x5
 15382 0037 16       		.uleb128 0x16
 15383 0038 00       		.byte	0
 15384 0039 03       		.uleb128 0x3
 15385 003a 0E       		.uleb128 0xe
 15386 003b 3A       		.uleb128 0x3a
 15387 003c 0B       		.uleb128 0xb
 15388 003d 3B       		.uleb128 0x3b
 15389 003e 05       		.uleb128 0x5
 15390 003f 49       		.uleb128 0x49
 15391 0040 13       		.uleb128 0x13
 15392 0041 00       		.byte	0
 15393 0042 00       		.byte	0
 15394 0043 06       		.uleb128 0x6
 15395 0044 35       		.uleb128 0x35
 15396 0045 00       		.byte	0
 15397 0046 49       		.uleb128 0x49
 15398 0047 13       		.uleb128 0x13
 15399 0048 00       		.byte	0
 15400 0049 00       		.byte	0
 15401 004a 07       		.uleb128 0x7
 15402 004b 0F       		.uleb128 0xf
 15403 004c 00       		.byte	0
 15404 004d 0B       		.uleb128 0xb
 15405 004e 0B       		.uleb128 0xb
 15406 004f 49       		.uleb128 0x49
 15407 0050 13       		.uleb128 0x13
 15408 0051 00       		.byte	0
 15409 0052 00       		.byte	0
 15410 0053 08       		.uleb128 0x8
 15411 0054 15       		.uleb128 0x15
 15412 0055 00       		.byte	0
 15413 0056 27       		.uleb128 0x27
 15414 0057 19       		.uleb128 0x19
 15415 0058 00       		.byte	0
 15416 0059 00       		.byte	0
 15417 005a 09       		.uleb128 0x9
 15418 005b 0F       		.uleb128 0xf
 15419 005c 00       		.byte	0
 15420 005d 0B       		.uleb128 0xb
 15421 005e 0B       		.uleb128 0xb
 15422 005f 00       		.byte	0
 15423 0060 00       		.byte	0
 15424 0061 0A       		.uleb128 0xa
 15425 0062 01       		.uleb128 0x1
ARM GAS  C:\Users\RECEPC~1\AppData\Local\Temp\ccNQpeOs.s 			page 311


 15426 0063 01       		.byte	0x1
 15427 0064 49       		.uleb128 0x49
 15428 0065 13       		.uleb128 0x13
 15429 0066 01       		.uleb128 0x1
 15430 0067 13       		.uleb128 0x13
 15431 0068 00       		.byte	0
 15432 0069 00       		.byte	0
 15433 006a 0B       		.uleb128 0xb
 15434 006b 21       		.uleb128 0x21
 15435 006c 00       		.byte	0
 15436 006d 49       		.uleb128 0x49
 15437 006e 13       		.uleb128 0x13
 15438 006f 2F       		.uleb128 0x2f
 15439 0070 0B       		.uleb128 0xb
 15440 0071 00       		.byte	0
 15441 0072 00       		.byte	0
 15442 0073 0C       		.uleb128 0xc
 15443 0074 13       		.uleb128 0x13
 15444 0075 01       		.byte	0x1
 15445 0076 03       		.uleb128 0x3
 15446 0077 0E       		.uleb128 0xe
 15447 0078 0B       		.uleb128 0xb
 15448 0079 0B       		.uleb128 0xb
 15449 007a 3A       		.uleb128 0x3a
 15450 007b 0B       		.uleb128 0xb
 15451 007c 3B       		.uleb128 0x3b
 15452 007d 0B       		.uleb128 0xb
 15453 007e 01       		.uleb128 0x1
 15454 007f 13       		.uleb128 0x13
 15455 0080 00       		.byte	0
 15456 0081 00       		.byte	0
 15457 0082 0D       		.uleb128 0xd
 15458 0083 0D       		.uleb128 0xd
 15459 0084 00       		.byte	0
 15460 0085 03       		.uleb128 0x3
 15461 0086 0E       		.uleb128 0xe
 15462 0087 3A       		.uleb128 0x3a
 15463 0088 0B       		.uleb128 0xb
 15464 0089 3B       		.uleb128 0x3b
 15465 008a 0B       		.uleb128 0xb
 15466 008b 49       		.uleb128 0x49
 15467 008c 13       		.uleb128 0x13
 15468 008d 38       		.uleb128 0x38
 15469 008e 0B       		.uleb128 0xb
 15470 008f 00       		.byte	0
 15471 0090 00       		.byte	0
 15472 0091 0E       		.uleb128 0xe
 15473 0092 15       		.uleb128 0x15
 15474 0093 01       		.byte	0x1
 15475 0094 27       		.uleb128 0x27
 15476 0095 19       		.uleb128 0x19
 15477 0096 01       		.uleb128 0x1
 15478 0097 13       		.uleb128 0x13
 15479 0098 00       		.byte	0
 15480 0099 00       		.byte	0
 15481 009a 0F       		.uleb128 0xf
 15482 009b 05       		.uleb128 0x5
ARM GAS  C:\Users\RECEPC~1\AppData\Local\Temp\ccNQpeOs.s 			page 312


 15483 009c 00       		.byte	0
 15484 009d 49       		.uleb128 0x49
 15485 009e 13       		.uleb128 0x13
 15486 009f 00       		.byte	0
 15487 00a0 00       		.byte	0
 15488 00a1 10       		.uleb128 0x10
 15489 00a2 15       		.uleb128 0x15
 15490 00a3 00       		.byte	0
 15491 00a4 27       		.uleb128 0x27
 15492 00a5 19       		.uleb128 0x19
 15493 00a6 49       		.uleb128 0x49
 15494 00a7 13       		.uleb128 0x13
 15495 00a8 00       		.byte	0
 15496 00a9 00       		.byte	0
 15497 00aa 11       		.uleb128 0x11
 15498 00ab 26       		.uleb128 0x26
 15499 00ac 00       		.byte	0
 15500 00ad 49       		.uleb128 0x49
 15501 00ae 13       		.uleb128 0x13
 15502 00af 00       		.byte	0
 15503 00b0 00       		.byte	0
 15504 00b1 12       		.uleb128 0x12
 15505 00b2 04       		.uleb128 0x4
 15506 00b3 01       		.byte	0x1
 15507 00b4 03       		.uleb128 0x3
 15508 00b5 0E       		.uleb128 0xe
 15509 00b6 0B       		.uleb128 0xb
 15510 00b7 0B       		.uleb128 0xb
 15511 00b8 3A       		.uleb128 0x3a
 15512 00b9 0B       		.uleb128 0xb
 15513 00ba 3B       		.uleb128 0x3b
 15514 00bb 0B       		.uleb128 0xb
 15515 00bc 01       		.uleb128 0x1
 15516 00bd 13       		.uleb128 0x13
 15517 00be 00       		.byte	0
 15518 00bf 00       		.byte	0
 15519 00c0 13       		.uleb128 0x13
 15520 00c1 28       		.uleb128 0x28
 15521 00c2 00       		.byte	0
 15522 00c3 03       		.uleb128 0x3
 15523 00c4 0E       		.uleb128 0xe
 15524 00c5 1C       		.uleb128 0x1c
 15525 00c6 0D       		.uleb128 0xd
 15526 00c7 00       		.byte	0
 15527 00c8 00       		.byte	0
 15528 00c9 14       		.uleb128 0x14
 15529 00ca 13       		.uleb128 0x13
 15530 00cb 01       		.byte	0x1
 15531 00cc 03       		.uleb128 0x3
 15532 00cd 0E       		.uleb128 0xe
 15533 00ce 0B       		.uleb128 0xb
 15534 00cf 05       		.uleb128 0x5
 15535 00d0 3A       		.uleb128 0x3a
 15536 00d1 0B       		.uleb128 0xb
 15537 00d2 3B       		.uleb128 0x3b
 15538 00d3 0B       		.uleb128 0xb
 15539 00d4 01       		.uleb128 0x1
ARM GAS  C:\Users\RECEPC~1\AppData\Local\Temp\ccNQpeOs.s 			page 313


 15540 00d5 13       		.uleb128 0x13
 15541 00d6 00       		.byte	0
 15542 00d7 00       		.byte	0
 15543 00d8 15       		.uleb128 0x15
 15544 00d9 0D       		.uleb128 0xd
 15545 00da 00       		.byte	0
 15546 00db 03       		.uleb128 0x3
 15547 00dc 0E       		.uleb128 0xe
 15548 00dd 3A       		.uleb128 0x3a
 15549 00de 0B       		.uleb128 0xb
 15550 00df 3B       		.uleb128 0x3b
 15551 00e0 0B       		.uleb128 0xb
 15552 00e1 49       		.uleb128 0x49
 15553 00e2 13       		.uleb128 0x13
 15554 00e3 38       		.uleb128 0x38
 15555 00e4 05       		.uleb128 0x5
 15556 00e5 00       		.byte	0
 15557 00e6 00       		.byte	0
 15558 00e7 16       		.uleb128 0x16
 15559 00e8 21       		.uleb128 0x21
 15560 00e9 00       		.byte	0
 15561 00ea 49       		.uleb128 0x49
 15562 00eb 13       		.uleb128 0x13
 15563 00ec 2F       		.uleb128 0x2f
 15564 00ed 05       		.uleb128 0x5
 15565 00ee 00       		.byte	0
 15566 00ef 00       		.byte	0
 15567 00f0 17       		.uleb128 0x17
 15568 00f1 13       		.uleb128 0x13
 15569 00f2 01       		.byte	0x1
 15570 00f3 0B       		.uleb128 0xb
 15571 00f4 05       		.uleb128 0x5
 15572 00f5 3A       		.uleb128 0x3a
 15573 00f6 0B       		.uleb128 0xb
 15574 00f7 3B       		.uleb128 0x3b
 15575 00f8 05       		.uleb128 0x5
 15576 00f9 01       		.uleb128 0x1
 15577 00fa 13       		.uleb128 0x13
 15578 00fb 00       		.byte	0
 15579 00fc 00       		.byte	0
 15580 00fd 18       		.uleb128 0x18
 15581 00fe 0D       		.uleb128 0xd
 15582 00ff 00       		.byte	0
 15583 0100 03       		.uleb128 0x3
 15584 0101 0E       		.uleb128 0xe
 15585 0102 3A       		.uleb128 0x3a
 15586 0103 0B       		.uleb128 0xb
 15587 0104 3B       		.uleb128 0x3b
 15588 0105 05       		.uleb128 0x5
 15589 0106 49       		.uleb128 0x49
 15590 0107 13       		.uleb128 0x13
 15591 0108 38       		.uleb128 0x38
 15592 0109 0B       		.uleb128 0xb
 15593 010a 00       		.byte	0
 15594 010b 00       		.byte	0
 15595 010c 19       		.uleb128 0x19
 15596 010d 0D       		.uleb128 0xd
ARM GAS  C:\Users\RECEPC~1\AppData\Local\Temp\ccNQpeOs.s 			page 314


 15597 010e 00       		.byte	0
 15598 010f 03       		.uleb128 0x3
 15599 0110 0E       		.uleb128 0xe
 15600 0111 3A       		.uleb128 0x3a
 15601 0112 0B       		.uleb128 0xb
 15602 0113 3B       		.uleb128 0x3b
 15603 0114 05       		.uleb128 0x5
 15604 0115 49       		.uleb128 0x49
 15605 0116 13       		.uleb128 0x13
 15606 0117 38       		.uleb128 0x38
 15607 0118 05       		.uleb128 0x5
 15608 0119 00       		.byte	0
 15609 011a 00       		.byte	0
 15610 011b 1A       		.uleb128 0x1a
 15611 011c 13       		.uleb128 0x13
 15612 011d 01       		.byte	0x1
 15613 011e 0B       		.uleb128 0xb
 15614 011f 0B       		.uleb128 0xb
 15615 0120 3A       		.uleb128 0x3a
 15616 0121 0B       		.uleb128 0xb
 15617 0122 3B       		.uleb128 0x3b
 15618 0123 05       		.uleb128 0x5
 15619 0124 01       		.uleb128 0x1
 15620 0125 13       		.uleb128 0x13
 15621 0126 00       		.byte	0
 15622 0127 00       		.byte	0
 15623 0128 1B       		.uleb128 0x1b
 15624 0129 13       		.uleb128 0x13
 15625 012a 01       		.byte	0x1
 15626 012b 03       		.uleb128 0x3
 15627 012c 0E       		.uleb128 0xe
 15628 012d 0B       		.uleb128 0xb
 15629 012e 05       		.uleb128 0x5
 15630 012f 3A       		.uleb128 0x3a
 15631 0130 0B       		.uleb128 0xb
 15632 0131 3B       		.uleb128 0x3b
 15633 0132 05       		.uleb128 0x5
 15634 0133 01       		.uleb128 0x1
 15635 0134 13       		.uleb128 0x13
 15636 0135 00       		.byte	0
 15637 0136 00       		.byte	0
 15638 0137 1C       		.uleb128 0x1c
 15639 0138 15       		.uleb128 0x15
 15640 0139 01       		.byte	0x1
 15641 013a 27       		.uleb128 0x27
 15642 013b 19       		.uleb128 0x19
 15643 013c 49       		.uleb128 0x49
 15644 013d 13       		.uleb128 0x13
 15645 013e 01       		.uleb128 0x1
 15646 013f 13       		.uleb128 0x13
 15647 0140 00       		.byte	0
 15648 0141 00       		.byte	0
 15649 0142 1D       		.uleb128 0x1d
 15650 0143 0D       		.uleb128 0xd
 15651 0144 00       		.byte	0
 15652 0145 03       		.uleb128 0x3
 15653 0146 0E       		.uleb128 0xe
ARM GAS  C:\Users\RECEPC~1\AppData\Local\Temp\ccNQpeOs.s 			page 315


 15654 0147 3A       		.uleb128 0x3a
 15655 0148 0B       		.uleb128 0xb
 15656 0149 3B       		.uleb128 0x3b
 15657 014a 05       		.uleb128 0x5
 15658 014b 49       		.uleb128 0x49
 15659 014c 13       		.uleb128 0x13
 15660 014d 0B       		.uleb128 0xb
 15661 014e 0B       		.uleb128 0xb
 15662 014f 0D       		.uleb128 0xd
 15663 0150 0B       		.uleb128 0xb
 15664 0151 0C       		.uleb128 0xc
 15665 0152 0B       		.uleb128 0xb
 15666 0153 38       		.uleb128 0x38
 15667 0154 0B       		.uleb128 0xb
 15668 0155 00       		.byte	0
 15669 0156 00       		.byte	0
 15670 0157 1E       		.uleb128 0x1e
 15671 0158 04       		.uleb128 0x4
 15672 0159 01       		.byte	0x1
 15673 015a 0B       		.uleb128 0xb
 15674 015b 0B       		.uleb128 0xb
 15675 015c 3A       		.uleb128 0x3a
 15676 015d 0B       		.uleb128 0xb
 15677 015e 3B       		.uleb128 0x3b
 15678 015f 0B       		.uleb128 0xb
 15679 0160 01       		.uleb128 0x1
 15680 0161 13       		.uleb128 0x13
 15681 0162 00       		.byte	0
 15682 0163 00       		.byte	0
 15683 0164 1F       		.uleb128 0x1f
 15684 0165 13       		.uleb128 0x13
 15685 0166 01       		.byte	0x1
 15686 0167 0B       		.uleb128 0xb
 15687 0168 0B       		.uleb128 0xb
 15688 0169 3A       		.uleb128 0x3a
 15689 016a 0B       		.uleb128 0xb
 15690 016b 3B       		.uleb128 0x3b
 15691 016c 0B       		.uleb128 0xb
 15692 016d 01       		.uleb128 0x1
 15693 016e 13       		.uleb128 0x13
 15694 016f 00       		.byte	0
 15695 0170 00       		.byte	0
 15696 0171 20       		.uleb128 0x20
 15697 0172 2E       		.uleb128 0x2e
 15698 0173 01       		.byte	0x1
 15699 0174 3F       		.uleb128 0x3f
 15700 0175 19       		.uleb128 0x19
 15701 0176 03       		.uleb128 0x3
 15702 0177 0E       		.uleb128 0xe
 15703 0178 3A       		.uleb128 0x3a
 15704 0179 0B       		.uleb128 0xb
 15705 017a 3B       		.uleb128 0x3b
 15706 017b 0B       		.uleb128 0xb
 15707 017c 27       		.uleb128 0x27
 15708 017d 19       		.uleb128 0x19
 15709 017e 11       		.uleb128 0x11
 15710 017f 01       		.uleb128 0x1
ARM GAS  C:\Users\RECEPC~1\AppData\Local\Temp\ccNQpeOs.s 			page 316


 15711 0180 12       		.uleb128 0x12
 15712 0181 06       		.uleb128 0x6
 15713 0182 40       		.uleb128 0x40
 15714 0183 18       		.uleb128 0x18
 15715 0184 9642     		.uleb128 0x2116
 15716 0186 19       		.uleb128 0x19
 15717 0187 01       		.uleb128 0x1
 15718 0188 13       		.uleb128 0x13
 15719 0189 00       		.byte	0
 15720 018a 00       		.byte	0
 15721 018b 21       		.uleb128 0x21
 15722 018c 05       		.uleb128 0x5
 15723 018d 00       		.byte	0
 15724 018e 03       		.uleb128 0x3
 15725 018f 0E       		.uleb128 0xe
 15726 0190 3A       		.uleb128 0x3a
 15727 0191 0B       		.uleb128 0xb
 15728 0192 3B       		.uleb128 0x3b
 15729 0193 0B       		.uleb128 0xb
 15730 0194 49       		.uleb128 0x49
 15731 0195 13       		.uleb128 0x13
 15732 0196 02       		.uleb128 0x2
 15733 0197 18       		.uleb128 0x18
 15734 0198 00       		.byte	0
 15735 0199 00       		.byte	0
 15736 019a 22       		.uleb128 0x22
 15737 019b 34       		.uleb128 0x34
 15738 019c 00       		.byte	0
 15739 019d 03       		.uleb128 0x3
 15740 019e 0E       		.uleb128 0xe
 15741 019f 3A       		.uleb128 0x3a
 15742 01a0 0B       		.uleb128 0xb
 15743 01a1 3B       		.uleb128 0x3b
 15744 01a2 0B       		.uleb128 0xb
 15745 01a3 49       		.uleb128 0x49
 15746 01a4 13       		.uleb128 0x13
 15747 01a5 02       		.uleb128 0x2
 15748 01a6 18       		.uleb128 0x18
 15749 01a7 00       		.byte	0
 15750 01a8 00       		.byte	0
 15751 01a9 23       		.uleb128 0x23
 15752 01aa 0B       		.uleb128 0xb
 15753 01ab 01       		.byte	0x1
 15754 01ac 11       		.uleb128 0x11
 15755 01ad 01       		.uleb128 0x1
 15756 01ae 12       		.uleb128 0x12
 15757 01af 06       		.uleb128 0x6
 15758 01b0 01       		.uleb128 0x1
 15759 01b1 13       		.uleb128 0x13
 15760 01b2 00       		.byte	0
 15761 01b3 00       		.byte	0
 15762 01b4 24       		.uleb128 0x24
 15763 01b5 0B       		.uleb128 0xb
 15764 01b6 01       		.byte	0x1
 15765 01b7 11       		.uleb128 0x11
 15766 01b8 01       		.uleb128 0x1
 15767 01b9 12       		.uleb128 0x12
ARM GAS  C:\Users\RECEPC~1\AppData\Local\Temp\ccNQpeOs.s 			page 317


 15768 01ba 06       		.uleb128 0x6
 15769 01bb 00       		.byte	0
 15770 01bc 00       		.byte	0
 15771 01bd 25       		.uleb128 0x25
 15772 01be 34       		.uleb128 0x34
 15773 01bf 00       		.byte	0
 15774 01c0 03       		.uleb128 0x3
 15775 01c1 08       		.uleb128 0x8
 15776 01c2 3A       		.uleb128 0x3a
 15777 01c3 0B       		.uleb128 0xb
 15778 01c4 3B       		.uleb128 0x3b
 15779 01c5 0B       		.uleb128 0xb
 15780 01c6 49       		.uleb128 0x49
 15781 01c7 13       		.uleb128 0x13
 15782 01c8 02       		.uleb128 0x2
 15783 01c9 18       		.uleb128 0x18
 15784 01ca 00       		.byte	0
 15785 01cb 00       		.byte	0
 15786 01cc 26       		.uleb128 0x26
 15787 01cd 2E       		.uleb128 0x2e
 15788 01ce 01       		.byte	0x1
 15789 01cf 3F       		.uleb128 0x3f
 15790 01d0 19       		.uleb128 0x19
 15791 01d1 03       		.uleb128 0x3
 15792 01d2 0E       		.uleb128 0xe
 15793 01d3 3A       		.uleb128 0x3a
 15794 01d4 0B       		.uleb128 0xb
 15795 01d5 3B       		.uleb128 0x3b
 15796 01d6 05       		.uleb128 0x5
 15797 01d7 27       		.uleb128 0x27
 15798 01d8 19       		.uleb128 0x19
 15799 01d9 11       		.uleb128 0x11
 15800 01da 01       		.uleb128 0x1
 15801 01db 12       		.uleb128 0x12
 15802 01dc 06       		.uleb128 0x6
 15803 01dd 40       		.uleb128 0x40
 15804 01de 18       		.uleb128 0x18
 15805 01df 9642     		.uleb128 0x2116
 15806 01e1 19       		.uleb128 0x19
 15807 01e2 01       		.uleb128 0x1
 15808 01e3 13       		.uleb128 0x13
 15809 01e4 00       		.byte	0
 15810 01e5 00       		.byte	0
 15811 01e6 27       		.uleb128 0x27
 15812 01e7 05       		.uleb128 0x5
 15813 01e8 00       		.byte	0
 15814 01e9 03       		.uleb128 0x3
 15815 01ea 0E       		.uleb128 0xe
 15816 01eb 3A       		.uleb128 0x3a
 15817 01ec 0B       		.uleb128 0xb
 15818 01ed 3B       		.uleb128 0x3b
 15819 01ee 05       		.uleb128 0x5
 15820 01ef 49       		.uleb128 0x49
 15821 01f0 13       		.uleb128 0x13
 15822 01f1 02       		.uleb128 0x2
 15823 01f2 18       		.uleb128 0x18
 15824 01f3 00       		.byte	0
ARM GAS  C:\Users\RECEPC~1\AppData\Local\Temp\ccNQpeOs.s 			page 318


 15825 01f4 00       		.byte	0
 15826 01f5 28       		.uleb128 0x28
 15827 01f6 34       		.uleb128 0x34
 15828 01f7 00       		.byte	0
 15829 01f8 03       		.uleb128 0x3
 15830 01f9 0E       		.uleb128 0xe
 15831 01fa 3A       		.uleb128 0x3a
 15832 01fb 0B       		.uleb128 0xb
 15833 01fc 3B       		.uleb128 0x3b
 15834 01fd 05       		.uleb128 0x5
 15835 01fe 49       		.uleb128 0x49
 15836 01ff 13       		.uleb128 0x13
 15837 0200 02       		.uleb128 0x2
 15838 0201 18       		.uleb128 0x18
 15839 0202 00       		.byte	0
 15840 0203 00       		.byte	0
 15841 0204 29       		.uleb128 0x29
 15842 0205 34       		.uleb128 0x34
 15843 0206 00       		.byte	0
 15844 0207 03       		.uleb128 0x3
 15845 0208 08       		.uleb128 0x8
 15846 0209 3A       		.uleb128 0x3a
 15847 020a 0B       		.uleb128 0xb
 15848 020b 3B       		.uleb128 0x3b
 15849 020c 05       		.uleb128 0x5
 15850 020d 49       		.uleb128 0x49
 15851 020e 13       		.uleb128 0x13
 15852 020f 02       		.uleb128 0x2
 15853 0210 18       		.uleb128 0x18
 15854 0211 00       		.byte	0
 15855 0212 00       		.byte	0
 15856 0213 2A       		.uleb128 0x2a
 15857 0214 2E       		.uleb128 0x2e
 15858 0215 01       		.byte	0x1
 15859 0216 3F       		.uleb128 0x3f
 15860 0217 19       		.uleb128 0x19
 15861 0218 03       		.uleb128 0x3
 15862 0219 0E       		.uleb128 0xe
 15863 021a 3A       		.uleb128 0x3a
 15864 021b 0B       		.uleb128 0xb
 15865 021c 3B       		.uleb128 0x3b
 15866 021d 05       		.uleb128 0x5
 15867 021e 27       		.uleb128 0x27
 15868 021f 19       		.uleb128 0x19
 15869 0220 11       		.uleb128 0x11
 15870 0221 01       		.uleb128 0x1
 15871 0222 12       		.uleb128 0x12
 15872 0223 06       		.uleb128 0x6
 15873 0224 40       		.uleb128 0x40
 15874 0225 18       		.uleb128 0x18
 15875 0226 9742     		.uleb128 0x2117
 15876 0228 19       		.uleb128 0x19
 15877 0229 01       		.uleb128 0x1
 15878 022a 13       		.uleb128 0x13
 15879 022b 00       		.byte	0
 15880 022c 00       		.byte	0
 15881 022d 2B       		.uleb128 0x2b
ARM GAS  C:\Users\RECEPC~1\AppData\Local\Temp\ccNQpeOs.s 			page 319


 15882 022e 0B       		.uleb128 0xb
 15883 022f 01       		.byte	0x1
 15884 0230 55       		.uleb128 0x55
 15885 0231 17       		.uleb128 0x17
 15886 0232 01       		.uleb128 0x1
 15887 0233 13       		.uleb128 0x13
 15888 0234 00       		.byte	0
 15889 0235 00       		.byte	0
 15890 0236 2C       		.uleb128 0x2c
 15891 0237 2E       		.uleb128 0x2e
 15892 0238 01       		.byte	0x1
 15893 0239 3F       		.uleb128 0x3f
 15894 023a 19       		.uleb128 0x19
 15895 023b 03       		.uleb128 0x3
 15896 023c 0E       		.uleb128 0xe
 15897 023d 3A       		.uleb128 0x3a
 15898 023e 0B       		.uleb128 0xb
 15899 023f 3B       		.uleb128 0x3b
 15900 0240 05       		.uleb128 0x5
 15901 0241 27       		.uleb128 0x27
 15902 0242 19       		.uleb128 0x19
 15903 0243 49       		.uleb128 0x49
 15904 0244 13       		.uleb128 0x13
 15905 0245 11       		.uleb128 0x11
 15906 0246 01       		.uleb128 0x1
 15907 0247 12       		.uleb128 0x12
 15908 0248 06       		.uleb128 0x6
 15909 0249 40       		.uleb128 0x40
 15910 024a 18       		.uleb128 0x18
 15911 024b 9642     		.uleb128 0x2116
 15912 024d 19       		.uleb128 0x19
 15913 024e 01       		.uleb128 0x1
 15914 024f 13       		.uleb128 0x13
 15915 0250 00       		.byte	0
 15916 0251 00       		.byte	0
 15917 0252 2D       		.uleb128 0x2d
 15918 0253 0A       		.uleb128 0xa
 15919 0254 00       		.byte	0
 15920 0255 03       		.uleb128 0x3
 15921 0256 0E       		.uleb128 0xe
 15922 0257 3A       		.uleb128 0x3a
 15923 0258 0B       		.uleb128 0xb
 15924 0259 3B       		.uleb128 0x3b
 15925 025a 05       		.uleb128 0x5
 15926 025b 11       		.uleb128 0x11
 15927 025c 01       		.uleb128 0x1
 15928 025d 00       		.byte	0
 15929 025e 00       		.byte	0
 15930 025f 2E       		.uleb128 0x2e
 15931 0260 34       		.uleb128 0x34
 15932 0261 00       		.byte	0
 15933 0262 03       		.uleb128 0x3
 15934 0263 0E       		.uleb128 0xe
 15935 0264 3A       		.uleb128 0x3a
 15936 0265 0B       		.uleb128 0xb
 15937 0266 3B       		.uleb128 0x3b
 15938 0267 05       		.uleb128 0x5
ARM GAS  C:\Users\RECEPC~1\AppData\Local\Temp\ccNQpeOs.s 			page 320


 15939 0268 49       		.uleb128 0x49
 15940 0269 13       		.uleb128 0x13
 15941 026a 3F       		.uleb128 0x3f
 15942 026b 19       		.uleb128 0x19
 15943 026c 3C       		.uleb128 0x3c
 15944 026d 19       		.uleb128 0x19
 15945 026e 00       		.byte	0
 15946 026f 00       		.byte	0
 15947 0270 2F       		.uleb128 0x2f
 15948 0271 34       		.uleb128 0x34
 15949 0272 00       		.byte	0
 15950 0273 03       		.uleb128 0x3
 15951 0274 0E       		.uleb128 0xe
 15952 0275 3A       		.uleb128 0x3a
 15953 0276 0B       		.uleb128 0xb
 15954 0277 3B       		.uleb128 0x3b
 15955 0278 0B       		.uleb128 0xb
 15956 0279 49       		.uleb128 0x49
 15957 027a 13       		.uleb128 0x13
 15958 027b 3F       		.uleb128 0x3f
 15959 027c 19       		.uleb128 0x19
 15960 027d 3C       		.uleb128 0x3c
 15961 027e 19       		.uleb128 0x19
 15962 027f 00       		.byte	0
 15963 0280 00       		.byte	0
 15964 0281 30       		.uleb128 0x30
 15965 0282 34       		.uleb128 0x34
 15966 0283 00       		.byte	0
 15967 0284 03       		.uleb128 0x3
 15968 0285 0E       		.uleb128 0xe
 15969 0286 3A       		.uleb128 0x3a
 15970 0287 0B       		.uleb128 0xb
 15971 0288 3B       		.uleb128 0x3b
 15972 0289 0B       		.uleb128 0xb
 15973 028a 49       		.uleb128 0x49
 15974 028b 13       		.uleb128 0x13
 15975 028c 3F       		.uleb128 0x3f
 15976 028d 19       		.uleb128 0x19
 15977 028e 02       		.uleb128 0x2
 15978 028f 18       		.uleb128 0x18
 15979 0290 00       		.byte	0
 15980 0291 00       		.byte	0
 15981 0292 31       		.uleb128 0x31
 15982 0293 21       		.uleb128 0x21
 15983 0294 00       		.byte	0
 15984 0295 00       		.byte	0
 15985 0296 00       		.byte	0
 15986 0297 00       		.byte	0
 15987              		.section	.debug_aranges,"",%progbits
 15988 0000 44010000 		.4byte	0x144
 15989 0004 0200     		.2byte	0x2
 15990 0006 00000000 		.4byte	.Ldebug_info0
 15991 000a 04       		.byte	0x4
 15992 000b 00       		.byte	0
 15993 000c 0000     		.2byte	0
 15994 000e 0000     		.2byte	0
 15995 0010 00000000 		.4byte	.LFB63
ARM GAS  C:\Users\RECEPC~1\AppData\Local\Temp\ccNQpeOs.s 			page 321


 15996 0014 C4000000 		.4byte	.LFE63-.LFB63
 15997 0018 00000000 		.4byte	.LFB64
 15998 001c 42010000 		.4byte	.LFE64-.LFB64
 15999 0020 00000000 		.4byte	.LFB65
 16000 0024 3C010000 		.4byte	.LFE65-.LFB65
 16001 0028 00000000 		.4byte	.LFB66
 16002 002c 70010000 		.4byte	.LFE66-.LFB66
 16003 0030 00000000 		.4byte	.LFB67
 16004 0034 C4000000 		.4byte	.LFE67-.LFB67
 16005 0038 00000000 		.4byte	.LFB68
 16006 003c 34010000 		.4byte	.LFE68-.LFB68
 16007 0040 00000000 		.4byte	.LFB69
 16008 0044 46030000 		.4byte	.LFE69-.LFB69
 16009 0048 00000000 		.4byte	.LFB70
 16010 004c 5C010000 		.4byte	.LFE70-.LFB70
 16011 0050 00000000 		.4byte	.LFB71
 16012 0054 00050000 		.4byte	.LFE71-.LFB71
 16013 0058 00000000 		.4byte	.LFB72
 16014 005c 5C010000 		.4byte	.LFE72-.LFB72
 16015 0060 00000000 		.4byte	.LFB73
 16016 0064 94000000 		.4byte	.LFE73-.LFB73
 16017 0068 00000000 		.4byte	.LFB74
 16018 006c 34020000 		.4byte	.LFE74-.LFB74
 16019 0070 00000000 		.4byte	.LFB75
 16020 0074 2C000000 		.4byte	.LFE75-.LFB75
 16021 0078 00000000 		.4byte	.LFB76
 16022 007c E4000000 		.4byte	.LFE76-.LFB76
 16023 0080 00000000 		.4byte	.LFB77
 16024 0084 D4000000 		.4byte	.LFE77-.LFB77
 16025 0088 00000000 		.4byte	.LFB78
 16026 008c 94000000 		.4byte	.LFE78-.LFB78
 16027 0090 00000000 		.4byte	.LFB79
 16028 0094 7E000000 		.4byte	.LFE79-.LFB79
 16029 0098 00000000 		.4byte	.LFB80
 16030 009c E4000000 		.4byte	.LFE80-.LFB80
 16031 00a0 00000000 		.4byte	.LFB81
 16032 00a4 C4000000 		.4byte	.LFE81-.LFB81
 16033 00a8 00000000 		.4byte	.LFB82
 16034 00ac 98000000 		.4byte	.LFE82-.LFB82
 16035 00b0 00000000 		.4byte	.LFB83
 16036 00b4 34000000 		.4byte	.LFE83-.LFB83
 16037 00b8 00000000 		.4byte	.LFB84
 16038 00bc B0000000 		.4byte	.LFE84-.LFB84
 16039 00c0 00000000 		.4byte	.LFB85
 16040 00c4 20080000 		.4byte	.LFE85-.LFB85
 16041 00c8 00000000 		.4byte	.LFB86
 16042 00cc 88070000 		.4byte	.LFE86-.LFB86
 16043 00d0 00000000 		.4byte	.LFB87
 16044 00d4 300D0000 		.4byte	.LFE87-.LFB87
 16045 00d8 00000000 		.4byte	.LFB88
 16046 00dc A8000000 		.4byte	.LFE88-.LFB88
 16047 00e0 00000000 		.4byte	.LFB89
 16048 00e4 4E000000 		.4byte	.LFE89-.LFB89
 16049 00e8 00000000 		.4byte	.LFB90
 16050 00ec A0000000 		.4byte	.LFE90-.LFB90
 16051 00f0 00000000 		.4byte	.LFB91
 16052 00f4 2C000000 		.4byte	.LFE91-.LFB91
ARM GAS  C:\Users\RECEPC~1\AppData\Local\Temp\ccNQpeOs.s 			page 322


 16053 00f8 00000000 		.4byte	.LFB92
 16054 00fc 4E000000 		.4byte	.LFE92-.LFB92
 16055 0100 00000000 		.4byte	.LFB93
 16056 0104 F0010000 		.4byte	.LFE93-.LFB93
 16057 0108 00000000 		.4byte	.LFB94
 16058 010c 64000000 		.4byte	.LFE94-.LFB94
 16059 0110 00000000 		.4byte	.LFB95
 16060 0114 78000000 		.4byte	.LFE95-.LFB95
 16061 0118 00000000 		.4byte	.LFB96
 16062 011c 64010000 		.4byte	.LFE96-.LFB96
 16063 0120 00000000 		.4byte	.LFB97
 16064 0124 62000000 		.4byte	.LFE97-.LFB97
 16065 0128 00000000 		.4byte	.LFB98
 16066 012c B4010000 		.4byte	.LFE98-.LFB98
 16067 0130 00000000 		.4byte	.LFB99
 16068 0134 A0000000 		.4byte	.LFE99-.LFB99
 16069 0138 00000000 		.4byte	.LFB100
 16070 013c B4010000 		.4byte	.LFE100-.LFB100
 16071 0140 00000000 		.4byte	0
 16072 0144 00000000 		.4byte	0
 16073              		.section	.debug_ranges,"",%progbits
 16074              	.Ldebug_ranges0:
 16075 0000 52000000 		.4byte	.LBB67
 16076 0004 E0050000 		.4byte	.LBE67
 16077 0008 0C060000 		.4byte	.LBB82
 16078 000c C6060000 		.4byte	.LBE82
 16079 0010 00000000 		.4byte	0
 16080 0014 00000000 		.4byte	0
 16081 0018 00000000 		.4byte	.LFB63
 16082 001c C4000000 		.4byte	.LFE63
 16083 0020 00000000 		.4byte	.LFB64
 16084 0024 42010000 		.4byte	.LFE64
 16085 0028 00000000 		.4byte	.LFB65
 16086 002c 3C010000 		.4byte	.LFE65
 16087 0030 00000000 		.4byte	.LFB66
 16088 0034 70010000 		.4byte	.LFE66
 16089 0038 00000000 		.4byte	.LFB67
 16090 003c C4000000 		.4byte	.LFE67
 16091 0040 00000000 		.4byte	.LFB68
 16092 0044 34010000 		.4byte	.LFE68
 16093 0048 00000000 		.4byte	.LFB69
 16094 004c 46030000 		.4byte	.LFE69
 16095 0050 00000000 		.4byte	.LFB70
 16096 0054 5C010000 		.4byte	.LFE70
 16097 0058 00000000 		.4byte	.LFB71
 16098 005c 00050000 		.4byte	.LFE71
 16099 0060 00000000 		.4byte	.LFB72
 16100 0064 5C010000 		.4byte	.LFE72
 16101 0068 00000000 		.4byte	.LFB73
 16102 006c 94000000 		.4byte	.LFE73
 16103 0070 00000000 		.4byte	.LFB74
 16104 0074 34020000 		.4byte	.LFE74
 16105 0078 00000000 		.4byte	.LFB75
 16106 007c 2C000000 		.4byte	.LFE75
 16107 0080 00000000 		.4byte	.LFB76
 16108 0084 E4000000 		.4byte	.LFE76
 16109 0088 00000000 		.4byte	.LFB77
ARM GAS  C:\Users\RECEPC~1\AppData\Local\Temp\ccNQpeOs.s 			page 323


 16110 008c D4000000 		.4byte	.LFE77
 16111 0090 00000000 		.4byte	.LFB78
 16112 0094 94000000 		.4byte	.LFE78
 16113 0098 00000000 		.4byte	.LFB79
 16114 009c 7E000000 		.4byte	.LFE79
 16115 00a0 00000000 		.4byte	.LFB80
 16116 00a4 E4000000 		.4byte	.LFE80
 16117 00a8 00000000 		.4byte	.LFB81
 16118 00ac C4000000 		.4byte	.LFE81
 16119 00b0 00000000 		.4byte	.LFB82
 16120 00b4 98000000 		.4byte	.LFE82
 16121 00b8 00000000 		.4byte	.LFB83
 16122 00bc 34000000 		.4byte	.LFE83
 16123 00c0 00000000 		.4byte	.LFB84
 16124 00c4 B0000000 		.4byte	.LFE84
 16125 00c8 00000000 		.4byte	.LFB85
 16126 00cc 20080000 		.4byte	.LFE85
 16127 00d0 00000000 		.4byte	.LFB86
 16128 00d4 88070000 		.4byte	.LFE86
 16129 00d8 00000000 		.4byte	.LFB87
 16130 00dc 300D0000 		.4byte	.LFE87
 16131 00e0 00000000 		.4byte	.LFB88
 16132 00e4 A8000000 		.4byte	.LFE88
 16133 00e8 00000000 		.4byte	.LFB89
 16134 00ec 4E000000 		.4byte	.LFE89
 16135 00f0 00000000 		.4byte	.LFB90
 16136 00f4 A0000000 		.4byte	.LFE90
 16137 00f8 00000000 		.4byte	.LFB91
 16138 00fc 2C000000 		.4byte	.LFE91
 16139 0100 00000000 		.4byte	.LFB92
 16140 0104 4E000000 		.4byte	.LFE92
 16141 0108 00000000 		.4byte	.LFB93
 16142 010c F0010000 		.4byte	.LFE93
 16143 0110 00000000 		.4byte	.LFB94
 16144 0114 64000000 		.4byte	.LFE94
 16145 0118 00000000 		.4byte	.LFB95
 16146 011c 78000000 		.4byte	.LFE95
 16147 0120 00000000 		.4byte	.LFB96
 16148 0124 64010000 		.4byte	.LFE96
 16149 0128 00000000 		.4byte	.LFB97
 16150 012c 62000000 		.4byte	.LFE97
 16151 0130 00000000 		.4byte	.LFB98
 16152 0134 B4010000 		.4byte	.LFE98
 16153 0138 00000000 		.4byte	.LFB99
 16154 013c A0000000 		.4byte	.LFE99
 16155 0140 00000000 		.4byte	.LFB100
 16156 0144 B4010000 		.4byte	.LFE100
 16157 0148 00000000 		.4byte	0
 16158 014c 00000000 		.4byte	0
 16159              		.section	.debug_line,"",%progbits
 16160              	.Ldebug_line0:
 16161 0000 EF0A0000 		.section	.debug_str,"MS",%progbits,1
 16161      02001002 
 16161      00000201 
 16161      FB0E0D00 
 16161      01010101 
 16162              	.LASF350:
ARM GAS  C:\Users\RECEPC~1\AppData\Local\Temp\ccNQpeOs.s 			page 324


 16163 0000 5F646973 		.ascii	"_dispid\000"
 16163      70696400 
 16164              	.LASF429:
 16165 0008 5F707269 		.ascii	"_printerportside2\000"
 16165      6E746572 
 16165      706F7274 
 16165      73696465 
 16165      3200
 16166              	.LASF228:
 16167 001a 5F706F73 		.ascii	"_positionoffset\000"
 16167      6974696F 
 16167      6E6F6666 
 16167      73657400 
 16168              	.LASF189:
 16169 002a 5F70756D 		.ascii	"_pumprftransstate\000"
 16169      70726674 
 16169      72616E73 
 16169      73746174 
 16169      6500
 16170              	.LASF223:
 16171 003c 5F766F6C 		.ascii	"_volumeunit\000"
 16171      756D6575 
 16171      6E697400 
 16172              	.LASF301:
 16173 0048 44495350 		.ascii	"DISPLAY1\000"
 16173      4C415931 
 16173      00
 16174              	.LASF302:
 16175 0051 44495350 		.ascii	"DISPLAY2\000"
 16175      4C415932 
 16175      00
 16176              	.LASF78:
 16177 005a 5F53494E 		.ascii	"_SINK_MESSAGE_\000"
 16177      4B5F4D45 
 16177      53534147 
 16177      455F00
 16178              	.LASF557:
 16179 0069 5072696E 		.ascii	"PrintcopyReceipt\000"
 16179      74636F70 
 16179      79526563 
 16179      65697074 
 16179      00
 16180              	.LASF471:
 16181 007a 45455052 		.ascii	"EEPROM_DISPENSER_PUMP44_TRANSACTION_PAGE\000"
 16181      4F4D5F44 
 16181      49535045 
 16181      4E534552 
 16181      5F50554D 
 16182              	.LASF20:
 16183 00a3 73697A65 		.ascii	"sizetype\000"
 16183      74797065 
 16183      00
 16184              	.LASF99:
 16185 00ac 44495350 		.ascii	"DISPENSER_ACQUIRE_PUMP_STATE\000"
 16185      454E5345 
 16185      525F4143 
 16185      51554952 
ARM GAS  C:\Users\RECEPC~1\AppData\Local\Temp\ccNQpeOs.s 			page 325


 16185      455F5055 
 16186              	.LASF51:
 16187 00c9 5F6D6573 		.ascii	"_messagelength\000"
 16187      73616765 
 16187      6C656E67 
 16187      746800
 16188              	.LASF352:
 16189 00d8 5F6E6578 		.ascii	"_nextscrid\000"
 16189      74736372 
 16189      696400
 16190              	.LASF55:
 16191 00e3 55415254 		.ascii	"UARTMessage\000"
 16191      4D657373 
 16191      61676500 
 16192              	.LASF553:
 16193 00ef 66707472 		.ascii	"fptrinitializer\000"
 16193      696E6974 
 16193      69616C69 
 16193      7A657200 
 16194              	.LASF417:
 16195 00ff 52465F43 		.ascii	"RF_CREDITSALEREPORT\000"
 16195      52454449 
 16195      5453414C 
 16195      45524550 
 16195      4F525400 
 16196              	.LASF444:
 16197 0113 45455052 		.ascii	"EEPROM_DISPENSER_PUMP1_PRODUCT_NAMES_PAGE\000"
 16197      4F4D5F44 
 16197      49535045 
 16197      4E534552 
 16197      5F50554D 
 16198              	.LASF240:
 16199 013d 44495350 		.ascii	"DISPLAY_SUBA_MANIJA\000"
 16199      4C41595F 
 16199      53554241 
 16199      5F4D414E 
 16199      494A4100 
 16200              	.LASF432:
 16201 0151 45455052 		.ascii	"EEPROM_CONFIGURATION_PAGE0\000"
 16201      4F4D5F43 
 16201      4F4E4649 
 16201      47555241 
 16201      54494F4E 
 16202              	.LASF34:
 16203 016c 47657452 		.ascii	"GetRxBufferSize\000"
 16203      78427566 
 16203      66657253 
 16203      697A6500 
 16204              	.LASF434:
 16205 017c 45455052 		.ascii	"EEPROM_CONFIGURATION_PAGE2\000"
 16205      4F4D5F43 
 16205      4F4E4649 
 16205      47555241 
 16205      54494F4E 
 16206              	.LASF435:
 16207 0197 45455052 		.ascii	"EEPROM_CONFIGURATION_PAGE3\000"
 16207      4F4D5F43 
ARM GAS  C:\Users\RECEPC~1\AppData\Local\Temp\ccNQpeOs.s 			page 326


 16207      4F4E4649 
 16207      47555241 
 16207      54494F4E 
 16208              	.LASF436:
 16209 01b2 45455052 		.ascii	"EEPROM_CONFIGURATION_PAGE4\000"
 16209      4F4D5F43 
 16209      4F4E4649 
 16209      47555241 
 16209      54494F4E 
 16210              	.LASF340:
 16211 01cd 5F696E70 		.ascii	"_inputvalidator\000"
 16211      75747661 
 16211      6C696461 
 16211      746F7200 
 16212              	.LASF438:
 16213 01dd 45455052 		.ascii	"EEPROM_CONFIGURATION_PAGE6\000"
 16213      4F4D5F43 
 16213      4F4E4649 
 16213      47555241 
 16213      54494F4E 
 16214              	.LASF439:
 16215 01f8 45455052 		.ascii	"EEPROM_CONFIGURATION_PAGE7\000"
 16215      4F4D5F43 
 16215      4F4E4649 
 16215      47555241 
 16215      54494F4E 
 16216              	.LASF348:
 16217 0213 5F627566 		.ascii	"_bufferindex\000"
 16217      66657269 
 16217      6E646578 
 16217      00
 16218              	.LASF96:
 16219 0220 53494E4B 		.ascii	"SINK_RELEASE_BY_ID\000"
 16219      5F52454C 
 16219      45415345 
 16219      5F42595F 
 16219      494400
 16220              	.LASF59:
 16221 0233 55415254 		.ascii	"UART_RF\000"
 16221      5F524600 
 16222              	.LASF10:
 16223 023b 696E7433 		.ascii	"int32_t\000"
 16223      325F7400 
 16224              	.LASF325:
 16225 0243 5F796465 		.ascii	"_ydefpos\000"
 16225      66706F73 
 16225      00
 16226              	.LASF197:
 16227 024c 5F727862 		.ascii	"_rxbuffersize\000"
 16227      75666665 
 16227      7273697A 
 16227      6500
 16228              	.LASF130:
 16229 025a 49425554 		.ascii	"IBUTTON1_SCAN\000"
 16229      544F4E31 
 16229      5F534341 
 16229      4E00
ARM GAS  C:\Users\RECEPC~1\AppData\Local\Temp\ccNQpeOs.s 			page 327


 16230              	.LASF94:
 16231 0268 55415254 		.ascii	"UART_RF_AUTONOMOUS_MONITOR\000"
 16231      5F52465F 
 16231      4155544F 
 16231      4E4F4D4F 
 16231      55535F4D 
 16232              	.LASF374:
 16233 0283 52465F4D 		.ascii	"RF_MUX_CREDIT_SERIAL_AUTH_REQUEST\000"
 16233      55585F43 
 16233      52454449 
 16233      545F5345 
 16233      5249414C 
 16234              	.LASF13:
 16235 02a5 75696E74 		.ascii	"uint32\000"
 16235      333200
 16236              	.LASF152:
 16237 02ac 5F737461 		.ascii	"_state\000"
 16237      746500
 16238              	.LASF260:
 16239 02b3 44495350 		.ascii	"DISPLAY_COPIA_RECIBO\000"
 16239      4C41595F 
 16239      434F5049 
 16239      415F5245 
 16239      4349424F 
 16240              	.LASF516:
 16241 02c8 44697370 		.ascii	"DisplayPumpIDOffsetStore\000"
 16241      6C617950 
 16241      756D7049 
 16241      444F6666 
 16241      73657453 
 16242              	.LASF467:
 16243 02e1 45455052 		.ascii	"EEPROM_DISPENSER_PUMP34_TRANSACTION_PAGE\000"
 16243      4F4D5F44 
 16243      49535045 
 16243      4E534552 
 16243      5F50554D 
 16244              	.LASF303:
 16245 030a 504F5349 		.ascii	"POSITIONA\000"
 16245      54494F4E 
 16245      4100
 16246              	.LASF304:
 16247 0314 504F5349 		.ascii	"POSITIONB\000"
 16247      54494F4E 
 16247      4200
 16248              	.LASF531:
 16249 031e 496E6974 		.ascii	"InitiateUpdateDateTime\000"
 16249      69617465 
 16249      55706461 
 16249      74654461 
 16249      74655469 
 16250              	.LASF123:
 16251 0335 44495350 		.ascii	"DISPLAY1_MESSAGE\000"
 16251      4C415931 
 16251      5F4D4553 
 16251      53414745 
 16251      00
 16252              	.LASF103:
ARM GAS  C:\Users\RECEPC~1\AppData\Local\Temp\ccNQpeOs.s 			page 328


 16253 0346 44495350 		.ascii	"DISPENSER_UNLOCK_EOT_PUMPS\000"
 16253      454E5345 
 16253      525F554E 
 16253      4C4F434B 
 16253      5F454F54 
 16254              	.LASF27:
 16255 0361 53746F70 		.ascii	"Stop\000"
 16255      00
 16256              	.LASF43:
 16257 0366 55415254 		.ascii	"UARTManager\000"
 16257      4D616E61 
 16257      67657200 
 16258              	.LASF504:
 16259 0372 52656A65 		.ascii	"RejectedAuthorizationMessageDecorator\000"
 16259      63746564 
 16259      41757468 
 16259      6F72697A 
 16259      6174696F 
 16260              	.LASF411:
 16261 0398 5F52465F 		.ascii	"_RF_STATES_\000"
 16261      53544154 
 16261      45535F00 
 16262              	.LASF565:
 16263 03a4 5F675F68 		.ascii	"_g_homeanimarray\000"
 16263      6F6D6561 
 16263      6E696D61 
 16263      72726179 
 16263      00
 16264              	.LASF487:
 16265 03b5 52657175 		.ascii	"RequestWorkShiftOperAuthorization\000"
 16265      65737457 
 16265      6F726B53 
 16265      68696674 
 16265      4F706572 
 16266              	.LASF425:
 16267 03d7 5F74696D 		.ascii	"_timeouttoreceive\000"
 16267      656F7574 
 16267      746F7265 
 16267      63656976 
 16267      6500
 16268              	.LASF272:
 16269 03e9 44495350 		.ascii	"DISPLAY_ABRIR_TURNO\000"
 16269      4C41595F 
 16269      41425249 
 16269      525F5455 
 16269      524E4F00 
 16270              	.LASF551:
 16271 03fd 70697465 		.ascii	"piterptr\000"
 16271      72707472 
 16271      00
 16272              	.LASF433:
 16273 0406 45455052 		.ascii	"EEPROM_CONFIGURATION_PAGE1\000"
 16273      4F4D5F43 
 16273      4F4E4649 
 16273      47555241 
 16273      54494F4E 
 16274              	.LASF412:
ARM GAS  C:\Users\RECEPC~1\AppData\Local\Temp\ccNQpeOs.s 			page 329


 16275 0421 52465F49 		.ascii	"RF_IDLE\000"
 16275      444C4500 
 16276              	.LASF259:
 16277 0429 44495350 		.ascii	"DISPLAY_CONFIGURACIONES\000"
 16277      4C41595F 
 16277      434F4E46 
 16277      49475552 
 16277      4143494F 
 16278              	.LASF470:
 16279 0441 45455052 		.ascii	"EEPROM_DISPENSER_PUMP43_TRANSACTION_PAGE\000"
 16279      4F4D5F44 
 16279      49535045 
 16279      4E534552 
 16279      5F50554D 
 16280              	.LASF18:
 16281 046a 63686172 		.ascii	"char8\000"
 16281      3800
 16282              	.LASF133:
 16283 0470 544F4747 		.ascii	"TOGGLE_SCREEN_AND_WRITE_TEST\000"
 16283      4C455F53 
 16283      43524545 
 16283      4E5F414E 
 16283      445F5752 
 16284              	.LASF110:
 16285 048d 44495350 		.ascii	"DISPENSER_ACQUIRE_TOTALS\000"
 16285      454E5345 
 16285      525F4143 
 16285      51554952 
 16285      455F544F 
 16286              	.LASF97:
 16287 04a6 53494E4B 		.ascii	"SINK_RELEASE_BY_PTR\000"
 16287      5F52454C 
 16287      45415345 
 16287      5F42595F 
 16287      50545200 
 16288              	.LASF198:
 16289 04ba 5F747261 		.ascii	"_transqueue\000"
 16289      6E737175 
 16289      65756500 
 16290              	.LASF384:
 16291 04c6 52465F4D 		.ascii	"RF_MUX_TOTALS_REQUEST\000"
 16291      55585F54 
 16291      4F54414C 
 16291      535F5245 
 16291      51554553 
 16292              	.LASF421:
 16293 04dc 52465F41 		.ascii	"RF_AUTONOMOUS\000"
 16293      55544F4E 
 16293      4F4D4F55 
 16293      5300
 16294              	.LASF408:
 16295 04ea 52465F4D 		.ascii	"RF_MUX_COPY_REQUEST\000"
 16295      55585F43 
 16295      4F50595F 
 16295      52455155 
 16295      45535400 
 16296              	.LASF313:
ARM GAS  C:\Users\RECEPC~1\AppData\Local\Temp\ccNQpeOs.s 			page 330


 16297 04fe 466F6E74 		.ascii	"FontData\000"
 16297      44617461 
 16297      00
 16298              	.LASF463:
 16299 0507 45455052 		.ascii	"EEPROM_DISPENSER_PUMP24_TRANSACTION_PAGE\000"
 16299      4F4D5F44 
 16299      49535045 
 16299      4E534552 
 16299      5F50554D 
 16300              	.LASF115:
 16301 0530 5052494E 		.ascii	"PRINTER21_JOB\000"
 16301      54455232 
 16301      315F4A4F 
 16301      4200
 16302              	.LASF140:
 16303 053e 5F50554D 		.ascii	"_PUMP_FILL_CREDIT_\000"
 16303      505F4649 
 16303      4C4C5F43 
 16303      52454449 
 16303      545F00
 16304              	.LASF14:
 16305 0551 696E7438 		.ascii	"int8\000"
 16305      00
 16306              	.LASF405:
 16307 0556 52465F4D 		.ascii	"RF_MUX_ISLAND_OPER_DATA_RESPONSE\000"
 16307      55585F49 
 16307      534C414E 
 16307      445F4F50 
 16307      45525F44 
 16308              	.LASF540:
 16309 0577 45697468 		.ascii	"EitherPrinterWorking\000"
 16309      65725072 
 16309      696E7465 
 16309      72576F72 
 16309      6B696E67 
 16310              	.LASF324:
 16311 058c 5F786465 		.ascii	"_xdefpos\000"
 16311      66706F73 
 16311      00
 16312              	.LASF488:
 16313 0595 7070756D 		.ascii	"ppumpptr\000"
 16313      70707472 
 16313      00
 16314              	.LASF146:
 16315 059e 5F50554D 		.ascii	"_PUMP_EOT_STARTUP_\000"
 16315      505F454F 
 16315      545F5354 
 16315      41525455 
 16315      505F00
 16316              	.LASF440:
 16317 05b1 45455052 		.ascii	"EEPROM_DISPENSER_PUMP1_LAYOUT_PAGE\000"
 16317      4F4D5F44 
 16317      49535045 
 16317      4E534552 
 16317      5F50554D 
 16318              	.LASF371:
 16319 05d4 44697370 		.ascii	"DisplayHomeAnimation\000"
ARM GAS  C:\Users\RECEPC~1\AppData\Local\Temp\ccNQpeOs.s 			page 331


 16319      6C617948 
 16319      6F6D6541 
 16319      6E696D61 
 16319      74696F6E 
 16320              	.LASF204:
 16321 05e9 50756D70 		.ascii	"PumpTransQueueDeallocate\000"
 16321      5472616E 
 16321      73517565 
 16321      75654465 
 16321      616C6C6F 
 16322              	.LASF393:
 16323 0602 52465F4D 		.ascii	"RF_MUX_CREDIT_SALE_PRINT_RESPONSE\000"
 16323      55585F43 
 16323      52454449 
 16323      545F5341 
 16323      4C455F50 
 16324              	.LASF57:
 16325 0624 5F554152 		.ascii	"_UART_MESSAGE_STATE_\000"
 16325      545F4D45 
 16325      53534147 
 16325      455F5354 
 16325      4154455F 
 16326              	.LASF403:
 16327 0639 52465F4D 		.ascii	"RF_MUX_POSITION_CFG_RESPONSE\000"
 16327      55585F50 
 16327      4F534954 
 16327      494F4E5F 
 16327      4346475F 
 16328              	.LASF508:
 16329 0656 4B696C6C 		.ascii	"KillHosePositionStateValidation\000"
 16329      486F7365 
 16329      506F7369 
 16329      74696F6E 
 16329      53746174 
 16330              	.LASF552:
 16331 0676 66707472 		.ascii	"fptrfinalizer\000"
 16331      66696E61 
 16331      6C697A65 
 16331      7200
 16332              	.LASF466:
 16333 0684 45455052 		.ascii	"EEPROM_DISPENSER_PUMP33_TRANSACTION_PAGE\000"
 16333      4F4D5F44 
 16333      49535045 
 16333      4E534552 
 16333      5F50554D 
 16334              	.LASF534:
 16335 06ad 44697370 		.ascii	"DisplayUpdateDateTime\000"
 16335      6C617955 
 16335      70646174 
 16335      65446174 
 16335      6554696D 
 16336              	.LASF237:
 16337 06c3 44495350 		.ascii	"DISPLAY_INTRODUZCA_VALOR2\000"
 16337      4C41595F 
 16337      494E5452 
 16337      4F44555A 
 16337      43415F56 
ARM GAS  C:\Users\RECEPC~1\AppData\Local\Temp\ccNQpeOs.s 			page 332


 16338              	.LASF529:
 16339 06dd 70747874 		.ascii	"ptxtbuffer\000"
 16339      62756666 
 16339      657200
 16340              	.LASF549:
 16341 06e8 70646174 		.ascii	"pdata\000"
 16341      6100
 16342              	.LASF279:
 16343 06ee 44495350 		.ascii	"DISPLAY_IDENTIFICADOR_ESTACION\000"
 16343      4C41595F 
 16343      4944454E 
 16343      54494649 
 16343      4341444F 
 16344              	.LASF125:
 16345 070d 44495350 		.ascii	"DISPLAY1_ANIMATE_HOME\000"
 16345      4C415931 
 16345      5F414E49 
 16345      4D415445 
 16345      5F484F4D 
 16346              	.LASF86:
 16347 0723 5F627566 		.ascii	"_buffer\000"
 16347      66657200 
 16348              	.LASF407:
 16349 072b 52465F4D 		.ascii	"RF_MUX_ISLAND_ADMIN_RESPONSE\000"
 16349      55585F49 
 16349      534C414E 
 16349      445F4144 
 16349      4D494E5F 
 16350              	.LASF459:
 16351 0748 45455052 		.ascii	"EEPROM_DISPENSER_PUMP14_TRANSACTION_PAGE\000"
 16351      4F4D5F44 
 16351      49535045 
 16351      4E534552 
 16351      5F50554D 
 16352              	.LASF91:
 16353 0771 5F53494E 		.ascii	"_SINK_OBSERVABLES_\000"
 16353      4B5F4F42 
 16353      53455256 
 16353      41424C45 
 16353      535F00
 16354              	.LASF357:
 16355 0784 5F74696D 		.ascii	"_timeoutmultiplier\000"
 16355      656F7574 
 16355      6D756C74 
 16355      69706C69 
 16355      657200
 16356              	.LASF521:
 16357 0797 7064756D 		.ascii	"pdummybuffer\000"
 16357      6D796275 
 16357      66666572 
 16357      00
 16358              	.LASF143:
 16359 07a4 5F50554D 		.ascii	"_PUMP_TOTALS_\000"
 16359      505F544F 
 16359      54414C53 
 16359      5F00
 16360              	.LASF431:
ARM GAS  C:\Users\RECEPC~1\AppData\Local\Temp\ccNQpeOs.s 			page 333


 16361 07b2 5F454550 		.ascii	"_EEPROM_MEM_FORMAT_\000"
 16361      524F4D5F 
 16361      4D454D5F 
 16361      464F524D 
 16361      41545F00 
 16362              	.LASF17:
 16363 07c6 75696E74 		.ascii	"uint64\000"
 16363      363400
 16364              	.LASF4:
 16365 07cd 6C6F6E67 		.ascii	"long int\000"
 16365      20696E74 
 16365      00
 16366              	.LASF187:
 16367 07d6 5F726F75 		.ascii	"_roundrobinstate\000"
 16367      6E64726F 
 16367      62696E73 
 16367      74617465 
 16367      00
 16368              	.LASF361:
 16369 07e7 5F706375 		.ascii	"_pcurrflow\000"
 16369      7272666C 
 16369      6F7700
 16370              	.LASF180:
 16371 07f2 5F70756D 		.ascii	"_pumpstate\000"
 16371      70737461 
 16371      746500
 16372              	.LASF184:
 16373 07fd 5F726573 		.ascii	"_restoreprice\000"
 16373      746F7265 
 16373      70726963 
 16373      6500
 16374              	.LASF308:
 16375 080b 5F73697A 		.ascii	"_size\000"
 16375      6500
 16376              	.LASF101:
 16377 0811 44495350 		.ascii	"DISPENSER_EXECUTE_CASH_TRANSACTION\000"
 16377      454E5345 
 16377      525F4558 
 16377      45435554 
 16377      455F4341 
 16378              	.LASF84:
 16379 0834 5F6D6573 		.ascii	"_messagetimeoutmultiplier\000"
 16379      73616765 
 16379      74696D65 
 16379      6F75746D 
 16379      756C7469 
 16380              	.LASF112:
 16381 084e 44495350 		.ascii	"DISPENSER_PUMP_BEEP_WARNING\000"
 16381      454E5345 
 16381      525F5055 
 16381      4D505F42 
 16381      4545505F 
 16382              	.LASF507:
 16383 086a 76616C75 		.ascii	"value\000"
 16383      6500
 16384              	.LASF503:
 16385 0870 63617264 		.ascii	"cardinals\000"
ARM GAS  C:\Users\RECEPC~1\AppData\Local\Temp\ccNQpeOs.s 			page 334


 16385      696E616C 
 16385      7300
 16386              	.LASF52:
 16387 087a 5F6D6573 		.ascii	"_messagetx\000"
 16387      73616765 
 16387      747800
 16388              	.LASF391:
 16389 0885 52465F4D 		.ascii	"RF_MUX_GENERAL_PRINT_RESPONSE\000"
 16389      55585F47 
 16389      454E4552 
 16389      414C5F50 
 16389      52494E54 
 16390              	.LASF448:
 16391 08a3 45455052 		.ascii	"EEPROM_DISPENSER_PUMP1_PPU_INFO_PAGE\000"
 16391      4F4D5F44 
 16391      49535045 
 16391      4E534552 
 16391      5F50554D 
 16392              	.LASF420:
 16393 08c8 5F52465F 		.ascii	"_RF_AUTONOMOUS_MODE_\000"
 16393      4155544F 
 16393      4E4F4D4F 
 16393      55535F4D 
 16393      4F44455F 
 16394              	.LASF62:
 16395 08dd 55415254 		.ascii	"UART_DISPLAY1\000"
 16395      5F444953 
 16395      504C4159 
 16395      3100
 16396              	.LASF63:
 16397 08eb 55415254 		.ascii	"UART_DISPLAY2\000"
 16397      5F444953 
 16397      504C4159 
 16397      3200
 16398              	.LASF147:
 16399 08f9 5F50554D 		.ascii	"_PUMP_NETWORK_ENUMERATOR_\000"
 16399      505F4E45 
 16399      54574F52 
 16399      4B5F454E 
 16399      554D4552 
 16400              	.LASF257:
 16401 0913 44495350 		.ascii	"DISPLAY_INTRODUZCA_KILOMETRAJE\000"
 16401      4C41595F 
 16401      494E5452 
 16401      4F44555A 
 16401      43415F4B 
 16402              	.LASF289:
 16403 0932 44495350 		.ascii	"DISPLAY_CREDIT_AUTHORIZATION_ACCEPTED\000"
 16403      4C41595F 
 16403      43524544 
 16403      49545F41 
 16403      5554484F 
 16404              	.LASF379:
 16405 0958 52465F4D 		.ascii	"RF_MUX_CREDIT_PRESET_NOTIFICATION_RESPONSE\000"
 16405      55585F43 
 16405      52454449 
 16405      545F5052 
ARM GAS  C:\Users\RECEPC~1\AppData\Local\Temp\ccNQpeOs.s 			page 335


 16405      45534554 
 16406              	.LASF128:
 16407 0983 44495350 		.ascii	"DISPLAY2_UPDATE_DATETIME\000"
 16407      4C415932 
 16407      5F555044 
 16407      4154455F 
 16407      44415445 
 16408              	.LASF367:
 16409 099c 50444953 		.ascii	"PDISPLAYLAYOUTPTR\000"
 16409      504C4159 
 16409      4C41594F 
 16409      55545054 
 16409      5200
 16410              	.LASF102:
 16411 09ae 44495350 		.ascii	"DISPENSER_EXECUTE_CREDIT_TRANSACTION\000"
 16411      454E5345 
 16411      525F4558 
 16411      45435554 
 16411      455F4352 
 16412              	.LASF493:
 16413 09d3 43616E63 		.ascii	"CancelMessageDecorator\000"
 16413      656C4D65 
 16413      73736167 
 16413      65446563 
 16413      6F726174 
 16414              	.LASF118:
 16415 09ea 5052494E 		.ascii	"PRINTER2_GENERIC_JOB\000"
 16415      54455232 
 16415      5F47454E 
 16415      45524943 
 16415      5F4A4F42 
 16416              	.LASF265:
 16417 09ff 44495350 		.ascii	"DISPLAY_POR_FAVOR_ESPERE\000"
 16417      4C41595F 
 16417      504F525F 
 16417      4641564F 
 16417      525F4553 
 16418              	.LASF372:
 16419 0a18 52465F4D 		.ascii	"RF_MUX_STATE_REQUEST\000"
 16419      55585F53 
 16419      54415445 
 16419      5F524551 
 16419      55455354 
 16420              	.LASF378:
 16421 0a2d 52465F4D 		.ascii	"RF_MUX_CREDIT_PRESET_NOTIFICATION_REQUEST\000"
 16421      55585F43 
 16421      52454449 
 16421      545F5052 
 16421      45534554 
 16422              	.LASF270:
 16423 0a57 44495350 		.ascii	"DISPLAY_FECHA\000"
 16423      4C41595F 
 16423      46454348 
 16423      4100
 16424              	.LASF287:
 16425 0a65 5F444953 		.ascii	"_DISPLAY_STATES_\000"
 16425      504C4159 
ARM GAS  C:\Users\RECEPC~1\AppData\Local\Temp\ccNQpeOs.s 			page 336


 16425      5F535441 
 16425      5445535F 
 16425      00
 16426              	.LASF550:
 16427 0a76 76616C69 		.ascii	"validate\000"
 16427      64617465 
 16427      00
 16428              	.LASF475:
 16429 0a7f 5254435F 		.ascii	"RTC_HOUR\000"
 16429      484F5552 
 16429      00
 16430              	.LASF0:
 16431 0a88 7369676E 		.ascii	"signed char\000"
 16431      65642063 
 16431      68617200 
 16432              	.LASF23:
 16433 0a94 504E4541 		.ascii	"PNEAR_BYTE_PTR\000"
 16433      525F4259 
 16433      54455F50 
 16433      545200
 16434              	.LASF251:
 16435 0aa3 44495350 		.ascii	"DISPLAY_ID_DIGITAL\000"
 16435      4C41595F 
 16435      49445F44 
 16435      49474954 
 16435      414C00
 16436              	.LASF249:
 16437 0ab6 44495350 		.ascii	"DISPLAY_TIEMPO_EXPIRADO\000"
 16437      4C41595F 
 16437      5449454D 
 16437      504F5F45 
 16437      58504952 
 16438              	.LASF35:
 16439 0ace 436C6561 		.ascii	"ClearRxBuffer\000"
 16439      72527842 
 16439      75666665 
 16439      7200
 16440              	.LASF32:
 16441 0adc 47657443 		.ascii	"GetChar\000"
 16441      68617200 
 16442              	.LASF373:
 16443 0ae4 52465F4D 		.ascii	"RF_MUX_STATE_RESPONSE\000"
 16443      55585F53 
 16443      54415445 
 16443      5F524553 
 16443      504F4E53 
 16444              	.LASF458:
 16445 0afa 45455052 		.ascii	"EEPROM_DISPENSER_PUMP13_TRANSACTION_PAGE\000"
 16445      4F4D5F44 
 16445      49535045 
 16445      4E534552 
 16445      5F50554D 
 16446              	.LASF275:
 16447 0b23 44495350 		.ascii	"DISPLAY_USUARIO_VALIDO\000"
 16447      4C41595F 
 16447      55535541 
 16447      52494F5F 
ARM GAS  C:\Users\RECEPC~1\AppData\Local\Temp\ccNQpeOs.s 			page 337


 16447      56414C49 
 16448              	.LASF273:
 16449 0b3a 44495350 		.ascii	"DISPLAY_CERRAR_TURNO\000"
 16449      4C41595F 
 16449      43455252 
 16449      41525F54 
 16449      55524E4F 
 16450              	.LASF481:
 16451 0b4f 70646973 		.ascii	"pdisplay\000"
 16451      706C6179 
 16451      00
 16452              	.LASF262:
 16453 0b58 44495350 		.ascii	"DISPLAY_SELECCIONE_POSICION\000"
 16453      4C41595F 
 16453      53454C45 
 16453      4343494F 
 16453      4E455F50 
 16454              	.LASF309:
 16455 0b74 5F666163 		.ascii	"_face\000"
 16455      6500
 16456              	.LASF47:
 16457 0b7a 50454E44 		.ascii	"PENDING\000"
 16457      494E4700 
 16458              	.LASF124:
 16459 0b82 44495350 		.ascii	"DISPLAY1_UPDATE_DATETIME\000"
 16459      4C415931 
 16459      5F555044 
 16459      4154455F 
 16459      44415445 
 16460              	.LASF227:
 16461 0b9b 5F707265 		.ascii	"_presetdigits\000"
 16461      73657464 
 16461      69676974 
 16461      7300
 16462              	.LASF1:
 16463 0ba9 756E7369 		.ascii	"unsigned char\000"
 16463      676E6564 
 16463      20636861 
 16463      7200
 16464              	.LASF215:
 16465 0bb7 5F6E756D 		.ascii	"_numpositions\000"
 16465      706F7369 
 16465      74696F6E 
 16465      7300
 16466              	.LASF236:
 16467 0bc5 44495350 		.ascii	"DISPLAY_INTRODUZCA_VALOR\000"
 16467      4C41595F 
 16467      494E5452 
 16467      4F44555A 
 16467      43415F56 
 16468              	.LASF380:
 16469 0bde 52465F4D 		.ascii	"RF_MUX_CASH_SALE_START_REQUEST\000"
 16469      55585F43 
 16469      4153485F 
 16469      53414C45 
 16469      5F535441 
 16470              	.LASF300:
ARM GAS  C:\Users\RECEPC~1\AppData\Local\Temp\ccNQpeOs.s 			page 338


 16471 0bfd 44495350 		.ascii	"DISPLAY_VALID_PASSWORD\000"
 16471      4C41595F 
 16471      56414C49 
 16471      445F5041 
 16471      5353574F 
 16472              	.LASF571:
 16473 0c14 5F675F64 		.ascii	"_g_dispvalcodes\000"
 16473      69737076 
 16473      616C636F 
 16473      64657300 
 16474              	.LASF175:
 16475 0c24 5F736572 		.ascii	"_serial\000"
 16475      69616C00 
 16476              	.LASF264:
 16477 0c2c 44495350 		.ascii	"DISPLAY_ESPERANDO_AUTORIZACION\000"
 16477      4C41595F 
 16477      45535045 
 16477      52414E44 
 16477      4F5F4155 
 16478              	.LASF331:
 16479 0c4b 5F706172 		.ascii	"_parentcode\000"
 16479      656E7463 
 16479      6F646500 
 16480              	.LASF307:
 16481 0c57 44495350 		.ascii	"DISP_TEXT_TRANSP\000"
 16481      5F544558 
 16481      545F5452 
 16481      414E5350 
 16481      00
 16482              	.LASF482:
 16483 0c68 70756172 		.ascii	"puartdisp\000"
 16483      74646973 
 16483      7000
 16484              	.LASF45:
 16485 0c72 46524545 		.ascii	"FREE\000"
 16485      00
 16486              	.LASF416:
 16487 0c77 52465F57 		.ascii	"RF_WORKSHIFTREQ\000"
 16487      4F524B53 
 16487      48494654 
 16487      52455100 
 16488              	.LASF347:
 16489 0c87 5F79706F 		.ascii	"_ypos\000"
 16489      7300
 16490              	.LASF106:
 16491 0c8d 44495350 		.ascii	"DISPENSER_ACQUIRE_CONFIGURATION_INFORMATION\000"
 16491      454E5345 
 16491      525F4143 
 16491      51554952 
 16491      455F434F 
 16492              	.LASF82:
 16493 0cb9 5F6D6573 		.ascii	"_messagedelay\000"
 16493      73616765 
 16493      64656C61 
 16493      7900
 16494              	.LASF222:
 16495 0cc7 5F766F6C 		.ascii	"_volumedecimals\000"
ARM GAS  C:\Users\RECEPC~1\AppData\Local\Temp\ccNQpeOs.s 			page 339


 16495      756D6564 
 16495      6563696D 
 16495      616C7300 
 16496              	.LASF44:
 16497 0cd7 5F426F6F 		.ascii	"_Bool\000"
 16497      6C00
 16498              	.LASF330:
 16499 0cdd 5F706172 		.ascii	"_parentscrid\000"
 16499      656E7473 
 16499      63726964 
 16499      00
 16500              	.LASF217:
 16501 0cea 5F686F73 		.ascii	"_hosesposition2\000"
 16501      6573706F 
 16501      73697469 
 16501      6F6E3200 
 16502              	.LASF174:
 16503 0cfa 5F766F6C 		.ascii	"_volumeamount\000"
 16503      756D6561 
 16503      6D6F756E 
 16503      7400
 16504              	.LASF343:
 16505 0d08 5F66696E 		.ascii	"_finalizer\000"
 16505      616C697A 
 16505      657200
 16506              	.LASF36:
 16507 0d13 57726974 		.ascii	"WriteTxData\000"
 16507      65547844 
 16507      61746100 
 16508              	.LASF321:
 16509 0d1f 46505452 		.ascii	"FPTRINPUTHANDLER\000"
 16509      494E5055 
 16509      5448414E 
 16509      444C4552 
 16509      00
 16510              	.LASF76:
 16511 0d30 53494E4B 		.ascii	"SINK_ALLOCATED\000"
 16511      5F414C4C 
 16511      4F434154 
 16511      454400
 16512              	.LASF107:
 16513 0d3f 44495350 		.ascii	"DISPENSER_CONFIGURE_PRICES\000"
 16513      454E5345 
 16513      525F434F 
 16513      4E464947 
 16513      5552455F 
 16514              	.LASF206:
 16515 0d5a 50756D70 		.ascii	"PumpTransQueueDequeue\000"
 16515      5472616E 
 16515      73517565 
 16515      75654465 
 16515      71756575 
 16516              	.LASF19:
 16517 0d70 63686172 		.ascii	"char\000"
 16517      00
 16518              	.LASF399:
 16519 0d75 52465F4D 		.ascii	"RF_MUX_LAST_CASH_SALE_RESPONSE\000"
ARM GAS  C:\Users\RECEPC~1\AppData\Local\Temp\ccNQpeOs.s 			page 340


 16519      55585F4C 
 16519      4153545F 
 16519      43415348 
 16519      5F53414C 
 16520              	.LASF392:
 16521 0d94 52465F4D 		.ascii	"RF_MUX_CREDIT_SALE_PRINT_REQUEST\000"
 16521      55585F43 
 16521      52454449 
 16521      545F5341 
 16521      4C455F50 
 16522              	.LASF277:
 16523 0db5 44495350 		.ascii	"DISPLAY_AMBAS_IMPRESORAS_FUNCIONANDO\000"
 16523      4C41595F 
 16523      414D4241 
 16523      535F494D 
 16523      50524553 
 16524              	.LASF72:
 16525 0dda 42524F41 		.ascii	"BROADCASTFOREVER\000"
 16525      44434153 
 16525      54464F52 
 16525      45564552 
 16525      00
 16526              	.LASF127:
 16527 0deb 44495350 		.ascii	"DISPLAY2_MESSAGE\000"
 16527      4C415932 
 16527      5F4D4553 
 16527      53414745 
 16527      00
 16528              	.LASF193:
 16529 0dfc 5F747261 		.ascii	"_transhealth\000"
 16529      6E736865 
 16529      616C7468 
 16529      00
 16530              	.LASF362:
 16531 0e09 5F707265 		.ascii	"_preferenceflow\000"
 16531      66657265 
 16531      6E636566 
 16531      6C6F7700 
 16532              	.LASF60:
 16533 0e19 55415254 		.ascii	"UART_PRINTER\000"
 16533      5F505249 
 16533      4E544552 
 16533      00
 16534              	.LASF445:
 16535 0e26 45455052 		.ascii	"EEPROM_DISPENSER_PUMP2_PRODUCT_NAMES_PAGE\000"
 16535      4F4D5F44 
 16535      49535045 
 16535      4E534552 
 16535      5F50554D 
 16536              	.LASF220:
 16537 0e50 5F6D6F6E 		.ascii	"_moneydecimals\000"
 16537      65796465 
 16537      63696D61 
 16537      6C7300
 16538              	.LASF318:
 16539 0e5f 46696E61 		.ascii	"Finalizer\000"
 16539      6C697A65 
ARM GAS  C:\Users\RECEPC~1\AppData\Local\Temp\ccNQpeOs.s 			page 341


 16539      7200
 16540              	.LASF31:
 16541 0e69 52656164 		.ascii	"ReadRxStatus\000"
 16541      52785374 
 16541      61747573 
 16541      00
 16542              	.LASF135:
 16543 0e76 50535452 		.ascii	"PSTR\000"
 16543      00
 16544              	.LASF224:
 16545 0e7b 5F6D696E 		.ascii	"_minmoneyvalue\000"
 16545      6D6F6E65 
 16545      7976616C 
 16545      756500
 16546              	.LASF363:
 16547 0e8a 5F627566 		.ascii	"_bufferinfo\000"
 16547      66657269 
 16547      6E666F00 
 16548              	.LASF188:
 16549 0e96 5F706F73 		.ascii	"_positionlocked\000"
 16549      6974696F 
 16549      6E6C6F63 
 16549      6B656400 
 16550              	.LASF480:
 16551 0ea6 706D6573 		.ascii	"pmessage\000"
 16551      73616765 
 16551      00
 16552              	.LASF456:
 16553 0eaf 45455052 		.ascii	"EEPROM_DISPENSER_PUMP11_TRANSACTION_PAGE\000"
 16553      4F4D5F44 
 16553      49535045 
 16553      4E534552 
 16553      5F50554D 
 16554              	.LASF462:
 16555 0ed8 45455052 		.ascii	"EEPROM_DISPENSER_PUMP23_TRANSACTION_PAGE\000"
 16555      4F4D5F44 
 16555      49535045 
 16555      4E534552 
 16555      5F50554D 
 16556              	.LASF334:
 16557 0f01 5F706174 		.ascii	"_pathcodes\000"
 16557      68636F64 
 16557      657300
 16558              	.LASF41:
 16559 0f0c 50757443 		.ascii	"PutCRLF\000"
 16559      524C4600 
 16560              	.LASF542:
 16561 0f14 70627566 		.ascii	"pbuffer\000"
 16561      66657200 
 16562              	.LASF501:
 16563 0f1c 65657072 		.ascii	"eepromcardpage\000"
 16563      6F6D6361 
 16563      72647061 
 16563      676500
 16564              	.LASF199:
 16565 0f2b 5F747261 		.ascii	"_transqueuelocked\000"
 16565      6E737175 
ARM GAS  C:\Users\RECEPC~1\AppData\Local\Temp\ccNQpeOs.s 			page 342


 16565      6575656C 
 16565      6F636B65 
 16565      6400
 16566              	.LASF312:
 16567 0f3d 5F666F72 		.ascii	"_forecolor\000"
 16567      65636F6C 
 16567      6F7200
 16568              	.LASF298:
 16569 0f48 44495350 		.ascii	"DISPLAY_NEW_PASSWORD\000"
 16569      4C41595F 
 16569      4E45575F 
 16569      50415353 
 16569      574F5244 
 16570              	.LASF394:
 16571 0f5d 52465F4D 		.ascii	"RF_MUX_CASH_SALE_PRINT_REQUEST\000"
 16571      55585F43 
 16571      4153485F 
 16571      53414C45 
 16571      5F505249 
 16572              	.LASF242:
 16573 0f7c 44495350 		.ascii	"DISPLAY_BAJE_MANIJA\000"
 16573      4C41595F 
 16573      42414A45 
 16573      5F4D414E 
 16573      494A4100 
 16574              	.LASF358:
 16575 0f90 5F76616C 		.ascii	"_val0\000"
 16575      3000
 16576              	.LASF114:
 16577 0f96 5052494E 		.ascii	"PRINTER12_JOB\000"
 16577      54455231 
 16577      325F4A4F 
 16577      4200
 16578              	.LASF443:
 16579 0fa4 45455052 		.ascii	"EEPROM_DISPENSER_PUMP4_LAYOUT_PAGE\000"
 16579      4F4D5F44 
 16579      49535045 
 16579      4E534552 
 16579      5F50554D 
 16580              	.LASF136:
 16581 0fc7 5F545241 		.ascii	"_TRANSACTION_NAMES_\000"
 16581      4E534143 
 16581      54494F4E 
 16581      5F4E414D 
 16581      45535F00 
 16582              	.LASF483:
 16583 0fdb 576F726B 		.ascii	"WorkShiftDecorator\000"
 16583      53686966 
 16583      74446563 
 16583      6F726174 
 16583      6F7200
 16584              	.LASF83:
 16585 0fee 5F6D6573 		.ascii	"_messagetimeout\000"
 16585      73616765 
 16585      74696D65 
 16585      6F757400 
 16586              	.LASF376:
ARM GAS  C:\Users\RECEPC~1\AppData\Local\Temp\ccNQpeOs.s 			page 343


 16587 0ffe 52465F4D 		.ascii	"RF_MUX_CREDIT_PRESET_AUTHORIZATION_REQUEST\000"
 16587      55585F43 
 16587      52454449 
 16587      545F5052 
 16587      45534554 
 16588              	.LASF235:
 16589 1029 44495350 		.ascii	"DISPLAY_FORMA_PROGRAMACION\000"
 16589      4C41595F 
 16589      464F524D 
 16589      415F5052 
 16589      4F475241 
 16590              	.LASF39:
 16591 1044 50757453 		.ascii	"PutString\000"
 16591      7472696E 
 16591      6700
 16592              	.LASF150:
 16593 104e 5F50554D 		.ascii	"_PUMP_COMPLETE_CONFIGURATION_\000"
 16593      505F434F 
 16593      4D504C45 
 16593      54455F43 
 16593      4F4E4649 
 16594              	.LASF527:
 16595 106c 70756D70 		.ascii	"pumpavstates\000"
 16595      61767374 
 16595      61746573 
 16595      00
 16596              	.LASF545:
 16597 1079 73686966 		.ascii	"shiftbydelimiter\000"
 16597      74627964 
 16597      656C696D 
 16597      69746572 
 16597      00
 16598              	.LASF25:
 16599 108a 43757374 		.ascii	"CustomUARTSend\000"
 16599      6F6D5541 
 16599      52545365 
 16599      6E6400
 16600              	.LASF319:
 16601 1099 46505452 		.ascii	"FPTRDECORATOR\000"
 16601      4445434F 
 16601      5241544F 
 16601      5200
 16602              	.LASF537:
 16603 10a7 70756D70 		.ascii	"pumpindex\000"
 16603      696E6465 
 16603      7800
 16604              	.LASF473:
 16605 10b1 5254435F 		.ascii	"RTC_SECONDS\000"
 16605      5345434F 
 16605      4E445300 
 16606              	.LASF386:
 16607 10bd 52465F4D 		.ascii	"RF_MUX_TOTALS_REPORT_REQUEST\000"
 16607      55585F54 
 16607      4F54414C 
 16607      535F5245 
 16607      504F5254 
 16608              	.LASF297:
ARM GAS  C:\Users\RECEPC~1\AppData\Local\Temp\ccNQpeOs.s 			page 344


 16609 10da 44495350 		.ascii	"DISPLAY_WORK_SHIFT_OPERATOR_REJECTED\000"
 16609      4C41595F 
 16609      574F524B 
 16609      5F534849 
 16609      46545F4F 
 16610              	.LASF316:
 16611 10ff 496E7075 		.ascii	"InputHandler\000"
 16611      7448616E 
 16611      646C6572 
 16611      00
 16612              	.LASF221:
 16613 110c 5F707075 		.ascii	"_ppudecimals\000"
 16613      64656369 
 16613      6D616C73 
 16613      00
 16614              	.LASF178:
 16615 1119 5F70756D 		.ascii	"_pumpid\000"
 16615      70696400 
 16616              	.LASF231:
 16617 1121 44495350 		.ascii	"DISPLAY_INICIO0\000"
 16617      4C41595F 
 16617      494E4943 
 16617      494F3000 
 16618              	.LASF232:
 16619 1131 44495350 		.ascii	"DISPLAY_INICIO1\000"
 16619      4C41595F 
 16619      494E4943 
 16619      494F3100 
 16620              	.LASF233:
 16621 1141 44495350 		.ascii	"DISPLAY_INICIO2\000"
 16621      4C41595F 
 16621      494E4943 
 16621      494F3200 
 16622              	.LASF70:
 16623 1151 44454C41 		.ascii	"DELAYEDALLINTERESTED\000"
 16623      59454441 
 16623      4C4C494E 
 16623      54455245 
 16623      53544544 
 16624              	.LASF555:
 16625 1166 66707472 		.ascii	"fptrvalidator\000"
 16625      76616C69 
 16625      6461746F 
 16625      7200
 16626              	.LASF196:
 16627 1174 5F727862 		.ascii	"_rxbuffer\000"
 16627      75666665 
 16627      7200
 16628              	.LASF548:
 16629 117e 44697370 		.ascii	"Display1Logic\000"
 16629      6C617931 
 16629      4C6F6769 
 16629      6300
 16630              	.LASF155:
 16631 118c 504E4541 		.ascii	"PNEAR_PUMPTRANSACTIONALSTATEPTR\000"
 16631      525F5055 
 16631      4D505452 
ARM GAS  C:\Users\RECEPC~1\AppData\Local\Temp\ccNQpeOs.s 			page 345


 16631      414E5341 
 16631      4354494F 
 16632              	.LASF353:
 16633 11ac 5F637572 		.ascii	"_currscrcode\000"
 16633      72736372 
 16633      636F6465 
 16633      00
 16634              	.LASF276:
 16635 11b9 44495350 		.ascii	"DISPLAY_USUARIO_INVALIDO\000"
 16635      4C41595F 
 16635      55535541 
 16635      52494F5F 
 16635      494E5641 
 16636              	.LASF422:
 16637 11d2 52465F4E 		.ascii	"RF_NON_AUTONOMOUS\000"
 16637      4F4E5F41 
 16637      55544F4E 
 16637      4F4D4F55 
 16637      5300
 16638              	.LASF490:
 16639 11e4 44726177 		.ascii	"DrawNumberOfCopies\000"
 16639      4E756D62 
 16639      65724F66 
 16639      436F7069 
 16639      657300
 16640              	.LASF451:
 16641 11f7 45455052 		.ascii	"EEPROM_DISPENSER_PUMP4_PPU_INFO_PAGE\000"
 16641      4F4D5F44 
 16641      49535045 
 16641      4E534552 
 16641      5F50554D 
 16642              	.LASF119:
 16643 121c 5052494E 		.ascii	"PRINTER1_GENERIC_JOB_LOGO\000"
 16643      54455231 
 16643      5F47454E 
 16643      45524943 
 16643      5F4A4F42 
 16644              	.LASF572:
 16645 1236 5F675F63 		.ascii	"_g_configured\000"
 16645      6F6E6669 
 16645      67757265 
 16645      6400
 16646              	.LASF195:
 16647 1244 5F747261 		.ascii	"_trasactionbuffer\000"
 16647      73616374 
 16647      696F6E62 
 16647      75666665 
 16647      7200
 16648              	.LASF354:
 16649 1256 5F637572 		.ascii	"_currentstate\000"
 16649      72656E74 
 16649      73746174 
 16649      6500
 16650              	.LASF563:
 16651 1264 5F675F70 		.ascii	"_g_pumps\000"
 16651      756D7073 
 16651      00
ARM GAS  C:\Users\RECEPC~1\AppData\Local\Temp\ccNQpeOs.s 			page 346


 16652              	.LASF489:
 16653 126d 696E6465 		.ascii	"index\000"
 16653      7800
 16654              	.LASF520:
 16655 1273 7073696E 		.ascii	"psinkmsg\000"
 16655      6B6D7367 
 16655      00
 16656              	.LASF296:
 16657 127c 44495350 		.ascii	"DISPLAY_WORK_SHIFT_OPERATOR_ACCEPTED\000"
 16657      4C41595F 
 16657      574F524B 
 16657      5F534849 
 16657      46545F4F 
 16658              	.LASF176:
 16659 12a1 50756D70 		.ascii	"PumpAuthorizationInfo\000"
 16659      41757468 
 16659      6F72697A 
 16659      6174696F 
 16659      6E496E66 
 16660              	.LASF452:
 16661 12b7 45455052 		.ascii	"EEPROM_INSEPET_RESERVED_PAGE1\000"
 16661      4F4D5F49 
 16661      4E534550 
 16661      45545F52 
 16661      45534552 
 16662              	.LASF453:
 16663 12d5 45455052 		.ascii	"EEPROM_INSEPET_RESERVED_PAGE2\000"
 16663      4F4D5F49 
 16663      4E534550 
 16663      45545F52 
 16663      45534552 
 16664              	.LASF423:
 16665 12f3 5F746F61 		.ascii	"_toautonomoustimetoken\000"
 16665      75746F6E 
 16665      6F6D6F75 
 16665      7374696D 
 16665      65746F6B 
 16666              	.LASF455:
 16667 130a 45455052 		.ascii	"EEPROM_INSEPET_RESERVED_PAGE4\000"
 16667      4F4D5F49 
 16667      4E534550 
 16667      45545F52 
 16667      45534552 
 16668              	.LASF192:
 16669 1328 5F727476 		.ascii	"_rtvolumeamount\000"
 16669      6F6C756D 
 16669      65616D6F 
 16669      756E7400 
 16670              	.LASF447:
 16671 1338 45455052 		.ascii	"EEPROM_DISPENSER_PUMP4_PRODUCT_NAMES_PAGE\000"
 16671      4F4D5F44 
 16671      49535045 
 16671      4E534552 
 16671      5F50554D 
 16672              	.LASF396:
 16673 1362 52465F4D 		.ascii	"RF_MUX_PENDING_CREDIT_SALE_REQUEST\000"
 16673      55585F50 
ARM GAS  C:\Users\RECEPC~1\AppData\Local\Temp\ccNQpeOs.s 			page 347


 16673      454E4449 
 16673      4E475F43 
 16673      52454449 
 16674              	.LASF541:
 16675 1385 43617374 		.ascii	"CastCreditVolumeValue\000"
 16675      43726564 
 16675      6974566F 
 16675      6C756D65 
 16675      56616C75 
 16676              	.LASF546:
 16677 139b 73686966 		.ascii	"shiftcount\000"
 16677      74636F75 
 16677      6E7400
 16678              	.LASF345:
 16679 13a6 50444953 		.ascii	"PDISPLAYFLOWPTR\000"
 16679      504C4159 
 16679      464C4F57 
 16679      50545200 
 16680              	.LASF73:
 16681 13b6 414C4C49 		.ascii	"ALLINTERESTEDFOREVER\000"
 16681      4E544552 
 16681      45535445 
 16681      44464F52 
 16681      45564552 
 16682              	.LASF528:
 16683 13cb 70756D70 		.ascii	"pumpsprintstate\000"
 16683      73707269 
 16683      6E747374 
 16683      61746500 
 16684              	.LASF496:
 16685 13db 41757468 		.ascii	"AuthorizationMessageDecorator\000"
 16685      6F72697A 
 16685      6174696F 
 16685      6E4D6573 
 16685      73616765 
 16686              	.LASF213:
 16687 13f9 5F696E63 		.ascii	"_inconfiguration\000"
 16687      6F6E6669 
 16687      67757261 
 16687      74696F6E 
 16687      00
 16688              	.LASF355:
 16689 140a 5F737461 		.ascii	"_statechangescrid\000"
 16689      74656368 
 16689      616E6765 
 16689      73637269 
 16689      6400
 16690              	.LASF538:
 16691 141c 7061796D 		.ascii	"paymodel\000"
 16691      6F64656C 
 16691      00
 16692              	.LASF144:
 16693 1425 5F50554D 		.ascii	"_PUMP_STATE_\000"
 16693      505F5354 
 16693      4154455F 
 16693      00
 16694              	.LASF327:
ARM GAS  C:\Users\RECEPC~1\AppData\Local\Temp\ccNQpeOs.s 			page 348


 16695 1432 5F666F6E 		.ascii	"_font\000"
 16695      7400
 16696              	.LASF5:
 16697 1438 6C6F6E67 		.ascii	"long unsigned int\000"
 16697      20756E73 
 16697      69676E65 
 16697      6420696E 
 16697      7400
 16698              	.LASF333:
 16699 144a 5F74696D 		.ascii	"_timeoutscrid\000"
 16699      656F7574 
 16699      73637269 
 16699      6400
 16700              	.LASF151:
 16701 1458 5F50554D 		.ascii	"_PUMP_PROGRAM_MODE_\000"
 16701      505F5052 
 16701      4F475241 
 16701      4D5F4D4F 
 16701      44455F00 
 16702              	.LASF281:
 16703 146c 44495350 		.ascii	"DISPLAY_DUMMY0\000"
 16703      4C41595F 
 16703      44554D4D 
 16703      593000
 16704              	.LASF282:
 16705 147b 44495350 		.ascii	"DISPLAY_DUMMY1\000"
 16705      4C41595F 
 16705      44554D4D 
 16705      593100
 16706              	.LASF283:
 16707 148a 44495350 		.ascii	"DISPLAY_DUMMY2\000"
 16707      4C41595F 
 16707      44554D4D 
 16707      593200
 16708              	.LASF284:
 16709 1499 44495350 		.ascii	"DISPLAY_DUMMY3\000"
 16709      4C41595F 
 16709      44554D4D 
 16709      593300
 16710              	.LASF261:
 16711 14a8 44495350 		.ascii	"DISPLAY_IMPRIMIENDO_RECIBO\000"
 16711      4C41595F 
 16711      494D5052 
 16711      494D4945 
 16711      4E444F5F 
 16712              	.LASF230:
 16713 14c3 5F415641 		.ascii	"_AVAILABLE_DISPLAYS_\000"
 16713      494C4142 
 16713      4C455F44 
 16713      4953504C 
 16713      4159535F 
 16714              	.LASF472:
 16715 14d8 5F525443 		.ascii	"_RTC_VALUES_POS_\000"
 16715      5F56414C 
 16715      5545535F 
 16715      504F535F 
 16715      00
ARM GAS  C:\Users\RECEPC~1\AppData\Local\Temp\ccNQpeOs.s 			page 349


 16716              	.LASF383:
 16717 14e9 52465F4D 		.ascii	"RF_MUX_CASH_SALE_END_REPORT_RESPONSE\000"
 16717      55585F43 
 16717      4153485F 
 16717      53414C45 
 16717      5F454E44 
 16718              	.LASF519:
 16719 150e 706D7367 		.ascii	"pmsg\000"
 16719      00
 16720              	.LASF88:
 16721 1513 5F706461 		.ascii	"_pdata\000"
 16721      746100
 16722              	.LASF269:
 16723 151a 44495350 		.ascii	"DISPLAY_HORA\000"
 16723      4C41595F 
 16723      484F5241 
 16723      00
 16724              	.LASF525:
 16725 1527 44726177 		.ascii	"DrawHomeDateTime\000"
 16725      486F6D65 
 16725      44617465 
 16725      54696D65 
 16725      00
 16726              	.LASF498:
 16727 1538 41636365 		.ascii	"AcceptedAuthorizationMessageDecorator\000"
 16727      70746564 
 16727      41757468 
 16727      6F72697A 
 16727      6174696F 
 16728              	.LASF38:
 16729 155e 50757443 		.ascii	"PutChar\000"
 16729      68617200 
 16730              	.LASF100:
 16731 1566 44495350 		.ascii	"DISPENSER_ACQUIRE_PUMP_HOSE\000"
 16731      454E5345 
 16731      525F4143 
 16731      51554952 
 16731      455F5055 
 16732              	.LASF290:
 16733 1582 44495350 		.ascii	"DISPLAY_CREDIT_AUTHORIZATION_REJECTED\000"
 16733      4C41595F 
 16733      43524544 
 16733      49545F41 
 16733      5554484F 
 16734              	.LASF486:
 16735 15a8 77737661 		.ascii	"wsvalue\000"
 16735      6C756500 
 16736              	.LASF424:
 16737 15b0 5F74696D 		.ascii	"_timeouttoautonomous\000"
 16737      656F7574 
 16737      746F6175 
 16737      746F6E6F 
 16737      6D6F7573 
 16738              	.LASF338:
 16739 15c5 5F646563 		.ascii	"_decorator\000"
 16739      6F726174 
 16739      6F7200
ARM GAS  C:\Users\RECEPC~1\AppData\Local\Temp\ccNQpeOs.s 			page 350


 16740              	.LASF323:
 16741 15d0 46505452 		.ascii	"FPTRFINALIZER\000"
 16741      46494E41 
 16741      4C495A45 
 16741      5200
 16742              	.LASF410:
 16743 15de 52465F4D 		.ascii	"RF_MUX_NULL\000"
 16743      55585F4E 
 16743      554C4C00 
 16744              	.LASF61:
 16745 15ea 55415254 		.ascii	"UART_DISPENSER\000"
 16745      5F444953 
 16745      50454E53 
 16745      455200
 16746              	.LASF509:
 16747 15f9 44697370 		.ascii	"DisplayStationIDDecorator\000"
 16747      6C617953 
 16747      74617469 
 16747      6F6E4944 
 16747      4465636F 
 16748              	.LASF254:
 16749 1613 44495350 		.ascii	"DISPLAY_ID_RECONOCIDO\000"
 16749      4C41595F 
 16749      49445F52 
 16749      45434F4E 
 16749      4F434944 
 16750              	.LASF476:
 16751 1629 5254435F 		.ascii	"RTC_DAY\000"
 16751      44415900 
 16752              	.LASF536:
 16753 1631 72657476 		.ascii	"retval\000"
 16753      616C00
 16754              	.LASF469:
 16755 1638 45455052 		.ascii	"EEPROM_DISPENSER_PUMP42_TRANSACTION_PAGE\000"
 16755      4F4D5F44 
 16755      49535045 
 16755      4E534552 
 16755      5F50554D 
 16756              	.LASF369:
 16757 1661 5F636F6C 		.ascii	"_colontoggler\000"
 16757      6F6E746F 
 16757      67676C65 
 16757      7200
 16758              	.LASF177:
 16759 166f 5F50554D 		.ascii	"_PUMP_LAYOUT_\000"
 16759      505F4C41 
 16759      594F5554 
 16759      5F00
 16760              	.LASF562:
 16761 167d 5F675F73 		.ascii	"_g_stationidentifier\000"
 16761      74617469 
 16761      6F6E6964 
 16761      656E7469 
 16761      66696572 
 16762              	.LASF134:
 16763 1692 57415443 		.ascii	"WATCHDOG_STARTUP\000"
 16763      48444F47 
ARM GAS  C:\Users\RECEPC~1\AppData\Local\Temp\ccNQpeOs.s 			page 351


 16763      5F535441 
 16763      52545550 
 16763      00
 16764              	.LASF278:
 16765 16a3 44495350 		.ascii	"DISPLAY_IMPRESORA_NO_FUNCIONANDO\000"
 16765      4C41595F 
 16765      494D5052 
 16765      45534F52 
 16765      415F4E4F 
 16766              	.LASF42:
 16767 16c4 436C6561 		.ascii	"ClearTxBuffer\000"
 16767      72547842 
 16767      75666665 
 16767      7200
 16768              	.LASF477:
 16769 16d2 5254435F 		.ascii	"RTC_MONTH\000"
 16769      4D4F4E54 
 16769      4800
 16770              	.LASF245:
 16771 16dc 44495350 		.ascii	"DISPLAY_INGRESE_PASSWORD\000"
 16771      4C41595F 
 16771      494E4752 
 16771      4553455F 
 16771      50415353 
 16772              	.LASF328:
 16773 16f5 44697370 		.ascii	"DisplayInputBox\000"
 16773      6C617949 
 16773      6E707574 
 16773      426F7800 
 16774              	.LASF306:
 16775 1705 44495350 		.ascii	"DISP_TEXT_OPAQUE\000"
 16775      5F544558 
 16775      545F4F50 
 16775      41515545 
 16775      00
 16776              	.LASF385:
 16777 1716 52465F4D 		.ascii	"RF_MUX_TOTALS_RESPONSE\000"
 16777      55585F54 
 16777      4F54414C 
 16777      535F5245 
 16777      53504F4E 
 16778              	.LASF6:
 16779 172d 6C6F6E67 		.ascii	"long long int\000"
 16779      206C6F6E 
 16779      6720696E 
 16779      7400
 16780              	.LASF266:
 16781 173b 44495350 		.ascii	"DISPLAY_AUTORIZACION_ACEPTADA\000"
 16781      4C41595F 
 16781      4155544F 
 16781      52495A41 
 16781      43494F4E 
 16782              	.LASF554:
 16783 1759 66707472 		.ascii	"fptrdecorator\000"
 16783      6465636F 
 16783      7261746F 
 16783      7200
ARM GAS  C:\Users\RECEPC~1\AppData\Local\Temp\ccNQpeOs.s 			page 352


 16784              	.LASF365:
 16785 1767 44697370 		.ascii	"DisplayValidator\000"
 16785      6C617956 
 16785      616C6964 
 16785      61746F72 
 16785      00
 16786              	.LASF244:
 16787 1778 44495350 		.ascii	"DISPLAY_DESEA_IMPRIMIR_RECIBO\000"
 16787      4C41595F 
 16787      44455345 
 16787      415F494D 
 16787      5052494D 
 16788              	.LASF250:
 16789 1796 44495350 		.ascii	"DISPLAY_GRACIAS_VUELVA_PRONTO\000"
 16789      4C41595F 
 16789      47524143 
 16789      4941535F 
 16789      5655454C 
 16790              	.LASF413:
 16791 17b4 52465F44 		.ascii	"RF_DELIVERING\000"
 16791      454C4956 
 16791      4552494E 
 16791      4700
 16792              	.LASF98:
 16793 17c2 44495350 		.ascii	"DISPENSER_UPDATE_PUMP_TRANSACTION_TIMEOUTS\000"
 16793      454E5345 
 16793      525F5550 
 16793      44415445 
 16793      5F50554D 
 16794              	.LASF512:
 16795 17ed 44697370 		.ascii	"DisplayStationIDLoad\000"
 16795      6C617953 
 16795      74617469 
 16795      6F6E4944 
 16795      4C6F6164 
 16796              	.LASF113:
 16797 1802 5052494E 		.ascii	"PRINTER11_JOB\000"
 16797      54455231 
 16797      315F4A4F 
 16797      4200
 16798              	.LASF351:
 16799 1810 5F73696E 		.ascii	"_sinktarget\000"
 16799      6B746172 
 16799      67657400 
 16800              	.LASF320:
 16801 181c 46505452 		.ascii	"FPTRINPUTVALIDATOR\000"
 16801      494E5055 
 16801      5456414C 
 16801      49444154 
 16801      4F5200
 16802              	.LASF336:
 16803 182f 5F737461 		.ascii	"_statecodes\000"
 16803      7465636F 
 16803      64657300 
 16804              	.LASF16:
 16805 183b 646F7562 		.ascii	"double\000"
 16805      6C6500
ARM GAS  C:\Users\RECEPC~1\AppData\Local\Temp\ccNQpeOs.s 			page 353


 16806              	.LASF465:
 16807 1842 45455052 		.ascii	"EEPROM_DISPENSER_PUMP32_TRANSACTION_PAGE\000"
 16807      4F4D5F44 
 16807      49535045 
 16807      4E534552 
 16807      5F50554D 
 16808              	.LASF246:
 16809 186b 44495350 		.ascii	"DISPLAY_PASSWORD_VALIDO\000"
 16809      4C41595F 
 16809      50415353 
 16809      574F5244 
 16809      5F56414C 
 16810              	.LASF441:
 16811 1883 45455052 		.ascii	"EEPROM_DISPENSER_PUMP2_LAYOUT_PAGE\000"
 16811      4F4D5F44 
 16811      49535045 
 16811      4E534552 
 16811      5F50554D 
 16812              	.LASF532:
 16813 18a6 5465726D 		.ascii	"TerminateUpdateDateTime\000"
 16813      696E6174 
 16813      65557064 
 16813      61746544 
 16813      61746554 
 16814              	.LASF556:
 16815 18be 66707472 		.ascii	"fptrhandler\000"
 16815      68616E64 
 16815      6C657200 
 16816              	.LASF576:
 16817 18ca 433A5C54 		.ascii	"C:\\TeamInsepet\\NSX-Prime\\Hardware\\CorEx-MUX-Ker"
 16817      65616D49 
 16817      6E736570 
 16817      65745C4E 
 16817      53582D50 
 16818 18f9 6E656C2D 		.ascii	"nel-Enhanced\\Workspace01\\CorEx-Mux-Kernel.cydsn\000"
 16818      456E6861 
 16818      6E636564 
 16818      5C576F72 
 16818      6B737061 
 16819              	.LASF329:
 16820 1929 5F736372 		.ascii	"_scrid\000"
 16820      696400
 16821              	.LASF238:
 16822 1930 44495350 		.ascii	"DISPLAY_SELECCIONE_PRODUCTO3\000"
 16822      4C41595F 
 16822      53454C45 
 16822      4343494F 
 16822      4E455F50 
 16823              	.LASF239:
 16824 194d 44495350 		.ascii	"DISPLAY_SELECCIONE_PRODUCTO4\000"
 16824      4C41595F 
 16824      53454C45 
 16824      4343494F 
 16824      4E455F50 
 16825              	.LASF513:
 16826 196a 44697370 		.ascii	"DisplayPumpIDOffsetLoad\000"
 16826      6C617950 
ARM GAS  C:\Users\RECEPC~1\AppData\Local\Temp\ccNQpeOs.s 			page 354


 16826      756D7049 
 16826      444F6666 
 16826      7365744C 
 16827              	.LASF247:
 16828 1982 44495350 		.ascii	"DISPLAY_PASSWORD_INVALIDO\000"
 16828      4C41595F 
 16828      50415353 
 16828      574F5244 
 16828      5F494E56 
 16829              	.LASF191:
 16830 199c 5F72746D 		.ascii	"_rtmoneyamount\000"
 16830      6F6E6579 
 16830      616D6F75 
 16830      6E7400
 16831              	.LASF561:
 16832 19ab 49544D5F 		.ascii	"ITM_RxBuffer\000"
 16832      52784275 
 16832      66666572 
 16832      00
 16833              	.LASF356:
 16834 19b8 5F74696D 		.ascii	"_timeoutreftick\000"
 16834      656F7574 
 16834      72656674 
 16834      69636B00 
 16835              	.LASF79:
 16836 19c8 5F73656C 		.ascii	"_selfkill\000"
 16836      666B696C 
 16836      6C00
 16837              	.LASF495:
 16838 19d2 62756666 		.ascii	"buff\000"
 16838      00
 16839              	.LASF15:
 16840 19d7 666C6F61 		.ascii	"float\000"
 16840      7400
 16841              	.LASF468:
 16842 19dd 45455052 		.ascii	"EEPROM_DISPENSER_PUMP41_TRANSACTION_PAGE\000"
 16842      4F4D5F44 
 16842      49535045 
 16842      4E534552 
 16842      5F50554D 
 16843              	.LASF349:
 16844 1a06 44697370 		.ascii	"DisplayBuffer\000"
 16844      6C617942 
 16844      75666665 
 16844      7200
 16845              	.LASF168:
 16846 1a14 50756D70 		.ascii	"PumpDataContainer\000"
 16846      44617461 
 16846      436F6E74 
 16846      61696E65 
 16846      7200
 16847              	.LASF292:
 16848 1a26 44495350 		.ascii	"DISPLAY_HOSE_ACTIVATED\000"
 16848      4C41595F 
 16848      484F5345 
 16848      5F414354 
 16848      49564154 
ARM GAS  C:\Users\RECEPC~1\AppData\Local\Temp\ccNQpeOs.s 			page 355


 16849              	.LASF437:
 16850 1a3d 45455052 		.ascii	"EEPROM_CONFIGURATION_PAGE5\000"
 16850      4F4D5F43 
 16850      4F4E4649 
 16850      47555241 
 16850      54494F4E 
 16851              	.LASF172:
 16852 1a58 5F707269 		.ascii	"_price\000"
 16852      636500
 16853              	.LASF499:
 16854 1a5f 50726F64 		.ascii	"ProductNameSelectionDecorator\000"
 16854      7563744E 
 16854      616D6553 
 16854      656C6563 
 16854      74696F6E 
 16855              	.LASF8:
 16856 1a7d 756E7369 		.ascii	"unsigned int\000"
 16856      676E6564 
 16856      20696E74 
 16856      00
 16857              	.LASF37:
 16858 1a8a 52656164 		.ascii	"ReadTxStatus\000"
 16858      54785374 
 16858      61747573 
 16858      00
 16859              	.LASF252:
 16860 1a97 44495350 		.ascii	"DISPLAY_ID_NO_RECONOCIDO\000"
 16860      4C41595F 
 16860      49445F4E 
 16860      4F5F5245 
 16860      434F4E4F 
 16861              	.LASF90:
 16862 1ab0 5053494E 		.ascii	"PSINKMESSAGEPTR\000"
 16862      4B4D4553 
 16862      53414745 
 16862      50545200 
 16863              	.LASF543:
 16864 1ac0 62756666 		.ascii	"buffersize\000"
 16864      65727369 
 16864      7A6500
 16865              	.LASF544:
 16866 1acb 64656C69 		.ascii	"delimiterindex\000"
 16866      6D697465 
 16866      72696E64 
 16866      657800
 16867              	.LASF243:
 16868 1ada 44495350 		.ascii	"DISPLAY_DIGITE_PLACA\000"
 16868      4C41595F 
 16868      44494749 
 16868      54455F50 
 16868      4C414341 
 16869              	.LASF67:
 16870 1aef 42524F41 		.ascii	"BROADCAST\000"
 16870      44434153 
 16870      5400
 16871              	.LASF359:
 16872 1af9 5F76616C 		.ascii	"_val1\000"
ARM GAS  C:\Users\RECEPC~1\AppData\Local\Temp\ccNQpeOs.s 			page 356


 16872      3100
 16873              	.LASF48:
 16874 1aff 5F554152 		.ascii	"_UART_MANAGER_\000"
 16874      545F4D41 
 16874      4E414745 
 16874      525F00
 16875              	.LASF317:
 16876 1b0e 496E6974 		.ascii	"Initializer\000"
 16876      69616C69 
 16876      7A657200 
 16877              	.LASF500:
 16878 1b1a 6E756D68 		.ascii	"numhoses\000"
 16878      6F736573 
 16878      00
 16879              	.LASF326:
 16880 1b23 5F6D6178 		.ascii	"_maxchars\000"
 16880      63686172 
 16880      7300
 16881              	.LASF515:
 16882 1b2d 44697370 		.ascii	"DisplayPumpIDOffsetDecorator\000"
 16882      6C617950 
 16882      756D7049 
 16882      444F6666 
 16882      73657444 
 16883              	.LASF577:
 16884 1b4a 5F706F69 		.ascii	"_pointcommadecimalmode\000"
 16884      6E74636F 
 16884      6D6D6164 
 16884      6563696D 
 16884      616C6D6F 
 16885              	.LASF464:
 16886 1b61 45455052 		.ascii	"EEPROM_DISPENSER_PUMP31_TRANSACTION_PAGE\000"
 16886      4F4D5F44 
 16886      49535045 
 16886      4E534552 
 16886      5F50554D 
 16887              	.LASF64:
 16888 1b8a 55415254 		.ascii	"UART_NULL\000"
 16888      5F4E554C 
 16888      4C00
 16889              	.LASF514:
 16890 1b94 70756D70 		.ascii	"pumpoffset\000"
 16890      6F666673 
 16890      657400
 16891              	.LASF295:
 16892 1b9f 44495350 		.ascii	"DISPLAY_CLOSE_WORK_SHIFT\000"
 16892      4C41595F 
 16892      434C4F53 
 16892      455F574F 
 16892      524B5F53 
 16893              	.LASF567:
 16894 1bb8 5F675F64 		.ascii	"_g_display1\000"
 16894      6973706C 
 16894      61793100 
 16895              	.LASF568:
 16896 1bc4 5F675F64 		.ascii	"_g_display2\000"
 16896      6973706C 
ARM GAS  C:\Users\RECEPC~1\AppData\Local\Temp\ccNQpeOs.s 			page 357


 16896      61793200 
 16897              	.LASF335:
 16898 1bd0 5F706174 		.ascii	"_pathnodes\000"
 16898      686E6F64 
 16898      657300
 16899              	.LASF535:
 16900 1bdb 5465726D 		.ascii	"TerminateHomeAnimation\000"
 16900      696E6174 
 16900      65486F6D 
 16900      65416E69 
 16900      6D617469 
 16901              	.LASF457:
 16902 1bf2 45455052 		.ascii	"EEPROM_DISPENSER_PUMP12_TRANSACTION_PAGE\000"
 16902      4F4D5F44 
 16902      49535045 
 16902      4E534552 
 16902      5F50554D 
 16903              	.LASF29:
 16904 1c1b 57726974 		.ascii	"WriteControlRegister\000"
 16904      65436F6E 
 16904      74726F6C 
 16904      52656769 
 16904      73746572 
 16905              	.LASF132:
 16906 1c30 474C4F42 		.ascii	"GLOBAL_TICK_NOTIFICATION\000"
 16906      414C5F54 
 16906      49434B5F 
 16906      4E4F5449 
 16906      46494341 
 16907              	.LASF360:
 16908 1c49 5F737461 		.ascii	"_starting\000"
 16908      7274696E 
 16908      6700
 16909              	.LASF68:
 16910 1c53 46495253 		.ascii	"FIRSTFOUND\000"
 16910      54464F55 
 16910      4E4400
 16911              	.LASF418:
 16912 1c5e 52465F45 		.ascii	"RF_ERROR\000"
 16912      52524F52 
 16912      00
 16913              	.LASF22:
 16914 1c67 4C50564F 		.ascii	"LPVOID\000"
 16914      494400
 16915              	.LASF111:
 16916 1c6e 44495350 		.ascii	"DISPENSER_PUMP_HANDLER\000"
 16916      454E5345 
 16916      525F5055 
 16916      4D505F48 
 16916      414E444C 
 16917              	.LASF389:
 16918 1c85 52465F4D 		.ascii	"RF_MUX_PRICE_CHANGE_RESPONSE\000"
 16918      55585F50 
 16918      52494345 
 16918      5F434841 
 16918      4E47455F 
 16919              	.LASF485:
ARM GAS  C:\Users\RECEPC~1\AppData\Local\Temp\ccNQpeOs.s 			page 358


 16920 1ca2 70706172 		.ascii	"pparam\000"
 16920      616D00
 16921              	.LASF414:
 16922 1ca9 52465F43 		.ascii	"RF_CASHSALEREPORT\000"
 16922      41534853 
 16922      414C4552 
 16922      45504F52 
 16922      5400
 16923              	.LASF460:
 16924 1cbb 45455052 		.ascii	"EEPROM_DISPENSER_PUMP21_TRANSACTION_PAGE\000"
 16924      4F4D5F44 
 16924      49535045 
 16924      4E534552 
 16924      5F50554D 
 16925              	.LASF285:
 16926 1ce4 44495350 		.ascii	"DISPLAY_SIDE_DUMMY_DISPLAY\000"
 16926      4C41595F 
 16926      53494445 
 16926      5F44554D 
 16926      4D595F44 
 16927              	.LASF268:
 16928 1cff 44495350 		.ascii	"DISPLAY_CONFIGURAR_FECHA_HORA\000"
 16928      4C41595F 
 16928      434F4E46 
 16928      49475552 
 16928      41525F46 
 16929              	.LASF387:
 16930 1d1d 52465F4D 		.ascii	"RF_MUX_TOTALS_REPORT_RESPONSE\000"
 16930      55585F54 
 16930      4F54414C 
 16930      535F5245 
 16930      504F5254 
 16931              	.LASF92:
 16932 1d3b 55415254 		.ascii	"UART_RF_RECEPTION\000"
 16932      5F52465F 
 16932      52454345 
 16932      5054494F 
 16932      4E00
 16933              	.LASF547:
 16934 1d4d 53617665 		.ascii	"SaveSelectedPosition\000"
 16934      53656C65 
 16934      63746564 
 16934      506F7369 
 16934      74696F6E 
 16935              	.LASF169:
 16936 1d62 5F617574 		.ascii	"_authorized\000"
 16936      686F7269 
 16936      7A656400 
 16937              	.LASF21:
 16938 1d6e 6C6F6E67 		.ascii	"long double\000"
 16938      20646F75 
 16938      626C6500 
 16939              	.LASF77:
 16940 1d7a 53494E4B 		.ascii	"SINK_BUSY\000"
 16940      5F425553 
 16940      5900
 16941              	.LASF138:
ARM GAS  C:\Users\RECEPC~1\AppData\Local\Temp\ccNQpeOs.s 			page 359


 16942 1d84 5F50554D 		.ascii	"_PUMP_FILL_BY_VOLUME_\000"
 16942      505F4649 
 16942      4C4C5F42 
 16942      595F564F 
 16942      4C554D45 
 16943              	.LASF153:
 16944 1d9a 5F747261 		.ascii	"_transtate\000"
 16944      6E737461 
 16944      746500
 16945              	.LASF26:
 16946 1da5 53746172 		.ascii	"Start\000"
 16946      7400
 16947              	.LASF526:
 16948 1dab 44697370 		.ascii	"DisplayUpdateHomeAnimation\000"
 16948      6C617955 
 16948      70646174 
 16948      65486F6D 
 16948      65416E69 
 16949              	.LASF49:
 16950 1dc6 5F554152 		.ascii	"_UART_MESSAGE_\000"
 16950      545F4D45 
 16950      53534147 
 16950      455F00
 16951              	.LASF559:
 16952 1dd5 434C4F53 		.ascii	"CLOSEDISPLAY1\000"
 16952      45444953 
 16952      504C4159 
 16952      3100
 16953              	.LASF560:
 16954 1de3 434C4F53 		.ascii	"CLOSEDISPLAY2\000"
 16954      45444953 
 16954      504C4159 
 16954      3200
 16955              	.LASF263:
 16956 1df1 44495350 		.ascii	"DISPLAY_OPERACION_CANCELADA\000"
 16956      4C41595F 
 16956      4F504552 
 16956      4143494F 
 16956      4E5F4341 
 16957              	.LASF258:
 16958 1e0d 44495350 		.ascii	"DISPLAY_OPERACIONES\000"
 16958      4C41595F 
 16958      4F504552 
 16958      4143494F 
 16958      4E455300 
 16959              	.LASF454:
 16960 1e21 45455052 		.ascii	"EEPROM_INSEPET_RESERVED_PAGE3\000"
 16960      4F4D5F49 
 16960      4E534550 
 16960      45545F52 
 16960      45534552 
 16961              	.LASF212:
 16962 1e3f 504E4541 		.ascii	"PNEAR_PUMPPTR\000"
 16962      525F5055 
 16962      4D505054 
 16962      5200
 16963              	.LASF56:
ARM GAS  C:\Users\RECEPC~1\AppData\Local\Temp\ccNQpeOs.s 			page 360


 16964 1e4d 50554152 		.ascii	"PUARTMESSAGEPTR\000"
 16964      544D4553 
 16964      53414745 
 16964      50545200 
 16965              	.LASF216:
 16966 1e5d 5F686F73 		.ascii	"_hosesposition1\000"
 16966      6573706F 
 16966      73697469 
 16966      6F6E3100 
 16967              	.LASF182:
 16968 1e6d 5F686F73 		.ascii	"_hoseactivestate\000"
 16968      65616374 
 16968      69766573 
 16968      74617465 
 16968      00
 16969              	.LASF218:
 16970 1e7e 5F686F73 		.ascii	"_hosesposition3\000"
 16970      6573706F 
 16970      73697469 
 16970      6F6E3300 
 16971              	.LASF219:
 16972 1e8e 5F686F73 		.ascii	"_hosesposition4\000"
 16972      6573706F 
 16972      73697469 
 16972      6F6E3400 
 16973              	.LASF494:
 16974 1e9e 4D61736B 		.ascii	"MaskoutOptionDecorator\000"
 16974      6F75744F 
 16974      7074696F 
 16974      6E446563 
 16974      6F726174 
 16975              	.LASF248:
 16976 1eb5 44495350 		.ascii	"DISPLAY_NUEVO_PASSWORD\000"
 16976      4C41595F 
 16976      4E554556 
 16976      4F5F5041 
 16976      5353574F 
 16977              	.LASF342:
 16978 1ecc 5F696E69 		.ascii	"_initializer\000"
 16978      7469616C 
 16978      697A6572 
 16978      00
 16979              	.LASF225:
 16980 1ed9 5F6D696E 		.ascii	"_minvolumevalue\000"
 16980      766F6C75 
 16980      6D657661 
 16980      6C756500 
 16981              	.LASF210:
 16982 1ee9 436C6561 		.ascii	"CleanUp\000"
 16982      6E557000 
 16983              	.LASF253:
 16984 1ef1 44495350 		.ascii	"DISPLAY_ESPERANDO_ID\000"
 16984      4C41595F 
 16984      45535045 
 16984      52414E44 
 16984      4F5F4944 
 16985              	.LASF449:
ARM GAS  C:\Users\RECEPC~1\AppData\Local\Temp\ccNQpeOs.s 			page 361


 16986 1f06 45455052 		.ascii	"EEPROM_DISPENSER_PUMP2_PPU_INFO_PAGE\000"
 16986      4F4D5F44 
 16986      49535045 
 16986      4E534552 
 16986      5F50554D 
 16987              	.LASF211:
 16988 1f2b 50756D70 		.ascii	"Pump\000"
 16988      00
 16989              	.LASF523:
 16990 1f30 496E6974 		.ascii	"InitiateiButtonScan\000"
 16990      69617465 
 16990      69427574 
 16990      746F6E53 
 16990      63616E00 
 16991              	.LASF148:
 16992 1f44 5F50554D 		.ascii	"_PUMP_STOP_\000"
 16992      505F5354 
 16992      4F505F00 
 16993              	.LASF234:
 16994 1f50 44495350 		.ascii	"DISPLAY_FORMA_PAGO_DESEADA\000"
 16994      4C41595F 
 16994      464F524D 
 16994      415F5041 
 16994      474F5F44 
 16995              	.LASF294:
 16996 1f6b 44495350 		.ascii	"DISPLAY_OPEN_WORK_SHIFT\000"
 16996      4C41595F 
 16996      4F50454E 
 16996      5F574F52 
 16996      4B5F5348 
 16997              	.LASF7:
 16998 1f83 6C6F6E67 		.ascii	"long long unsigned int\000"
 16998      206C6F6E 
 16998      6720756E 
 16998      7369676E 
 16998      65642069 
 16999              	.LASF339:
 17000 1f9a 5F696E70 		.ascii	"_inputhandler\000"
 17000      75746861 
 17000      6E646C65 
 17000      7200
 17001              	.LASF474:
 17002 1fa8 5254435F 		.ascii	"RTC_MINUTES\000"
 17002      4D494E55 
 17002      54455300 
 17003              	.LASF510:
 17004 1fb4 44697370 		.ascii	"DisplayStationIDStore\000"
 17004      6C617953 
 17004      74617469 
 17004      6F6E4944 
 17004      53746F72 
 17005              	.LASF141:
 17006 1fca 5F50554D 		.ascii	"_PUMP_PPU_CHANGE_\000"
 17006      505F5050 
 17006      555F4348 
 17006      414E4745 
 17006      5F00
ARM GAS  C:\Users\RECEPC~1\AppData\Local\Temp\ccNQpeOs.s 			page 362


 17007              	.LASF40:
 17008 1fdc 50757441 		.ascii	"PutArray\000"
 17008      72726179 
 17008      00
 17009              	.LASF194:
 17010 1fe5 5F706375 		.ascii	"_pcurrtransaction\000"
 17010      72727472 
 17010      616E7361 
 17010      6374696F 
 17010      6E00
 17011              	.LASF395:
 17012 1ff7 52465F4D 		.ascii	"RF_MUX_CASH_SALE_PRINT_RESPONSE\000"
 17012      55585F43 
 17012      4153485F 
 17012      53414C45 
 17012      5F505249 
 17013              	.LASF129:
 17014 2017 44495350 		.ascii	"DISPLAY2_ANIMATE_HOME\000"
 17014      4C415932 
 17014      5F414E49 
 17014      4D415445 
 17014      5F484F4D 
 17015              	.LASF214:
 17016 202d 5F637572 		.ascii	"_currentloopopen\000"
 17016      72656E74 
 17016      6C6F6F70 
 17016      6F70656E 
 17016      00
 17017              	.LASF95:
 17018 203e 53494E4B 		.ascii	"SINK_UPDATE_COUNTERS\000"
 17018      5F555044 
 17018      4154455F 
 17018      434F554E 
 17018      54455253 
 17019              	.LASF28:
 17020 2053 52656164 		.ascii	"ReadControlRegister\000"
 17020      436F6E74 
 17020      726F6C52 
 17020      65676973 
 17020      74657200 
 17021              	.LASF370:
 17022 2067 5F675F68 		.ascii	"_g_homeanimation\000"
 17022      6F6D6561 
 17022      6E696D61 
 17022      74696F6E 
 17022      00
 17023              	.LASF406:
 17024 2078 52465F4D 		.ascii	"RF_MUX_ISLAND_ADMIN_REQUEST\000"
 17024      55585F49 
 17024      534C414E 
 17024      445F4144 
 17024      4D494E5F 
 17025              	.LASF341:
 17026 2094 5F696E70 		.ascii	"_inputboxinfo\000"
 17026      7574626F 
 17026      78696E66 
 17026      6F00
ARM GAS  C:\Users\RECEPC~1\AppData\Local\Temp\ccNQpeOs.s 			page 363


 17027              	.LASF366:
 17028 20a2 44697370 		.ascii	"DisplayLayout\000"
 17028      6C61794C 
 17028      61796F75 
 17028      7400
 17029              	.LASF288:
 17030 20b0 44495350 		.ascii	"DISPLAY_NO_STATE\000"
 17030      4C41595F 
 17030      4E4F5F53 
 17030      54415445 
 17030      00
 17031              	.LASF160:
 17032 20c1 5F766172 		.ascii	"_var4\000"
 17032      3400
 17033              	.LASF575:
 17034 20c7 2E5C4469 		.ascii	".\\DisplayBLL.c\000"
 17034      73706C61 
 17034      79424C4C 
 17034      2E6300
 17035              	.LASF522:
 17036 20d6 5465726D 		.ascii	"TerminateiButtonScan\000"
 17036      696E6174 
 17036      65694275 
 17036      74746F6E 
 17036      5363616E 
 17037              	.LASF104:
 17038 20eb 44495350 		.ascii	"DISPENSER_LOAD_EEPROM_SETTINGS\000"
 17038      454E5345 
 17038      525F4C4F 
 17038      41445F45 
 17038      4550524F 
 17039              	.LASF173:
 17040 210a 5F707265 		.ascii	"_presetamount\000"
 17040      73657461 
 17040      6D6F756E 
 17040      7400
 17041              	.LASF24:
 17042 2118 5F696465 		.ascii	"_identifier\000"
 17042      6E746966 
 17042      69657200 
 17043              	.LASF398:
 17044 2124 52465F4D 		.ascii	"RF_MUX_LAST_CASH_SALE_REQUEST\000"
 17044      55585F4C 
 17044      4153545F 
 17044      43415348 
 17044      5F53414C 
 17045              	.LASF505:
 17046 2142 56616C69 		.ascii	"ValidateAuthorizationResponse4Credit\000"
 17046      64617465 
 17046      41757468 
 17046      6F72697A 
 17046      6174696F 
 17047              	.LASF533:
 17048 2167 496E6974 		.ascii	"InitiateHomeAnimation\000"
 17048      69617465 
 17048      486F6D65 
 17048      416E696D 
ARM GAS  C:\Users\RECEPC~1\AppData\Local\Temp\ccNQpeOs.s 			page 364


 17048      6174696F 
 17049              	.LASF570:
 17050 217d 5F675F70 		.ascii	"_g_printerlayout\000"
 17050      72696E74 
 17050      65726C61 
 17050      796F7574 
 17050      00
 17051              	.LASF346:
 17052 218e 5F78706F 		.ascii	"_xpos\000"
 17052      7300
 17053              	.LASF382:
 17054 2194 52465F4D 		.ascii	"RF_MUX_CASH_SALE_END_REPORT_REQUEST\000"
 17054      55585F43 
 17054      4153485F 
 17054      53414C45 
 17054      5F454E44 
 17055              	.LASF322:
 17056 21b8 46505452 		.ascii	"FPTRINITIALIZER\000"
 17056      494E4954 
 17056      49414C49 
 17056      5A455200 
 17057              	.LASF185:
 17058 21c8 5F707265 		.ascii	"_presetdone\000"
 17058      73657464 
 17058      6F6E6500 
 17059              	.LASF33:
 17060 21d4 47657442 		.ascii	"GetByte\000"
 17060      79746500 
 17061              	.LASF229:
 17062 21dc 44697370 		.ascii	"DispenserLayoutInfo\000"
 17062      656E7365 
 17062      724C6179 
 17062      6F757449 
 17062      6E666F00 
 17063              	.LASF566:
 17064 21f0 5F675F64 		.ascii	"_g_displayflow\000"
 17064      6973706C 
 17064      6179666C 
 17064      6F7700
 17065              	.LASF502:
 17066 21ff 65657072 		.ascii	"eepromprodpage\000"
 17066      6F6D7072 
 17066      6F647061 
 17066      676500
 17067              	.LASF511:
 17068 220e 73746174 		.ascii	"stationid\000"
 17068      696F6E69 
 17068      6400
 17069              	.LASF93:
 17070 2218 55415254 		.ascii	"UART_RF_TEST\000"
 17070      5F52465F 
 17070      54455354 
 17070      00
 17071              	.LASF375:
 17072 2225 52465F4D 		.ascii	"RF_MUX_CREDIT_SERIAL_AUTH_RESPONSE\000"
 17072      55585F43 
 17072      52454449 
ARM GAS  C:\Users\RECEPC~1\AppData\Local\Temp\ccNQpeOs.s 			page 365


 17072      545F5345 
 17072      5249414C 
 17073              	.LASF183:
 17074 2248 5F616371 		.ascii	"_acquiringstate\000"
 17074      75697269 
 17074      6E677374 
 17074      61746500 
 17075              	.LASF241:
 17076 2258 44495350 		.ascii	"DISPLAY_DESPACHANDO\000"
 17076      4C41595F 
 17076      44455350 
 17076      41434841 
 17076      4E444F00 
 17077              	.LASF156:
 17078 226c 5F766172 		.ascii	"_var0\000"
 17078      3000
 17079              	.LASF157:
 17080 2272 5F766172 		.ascii	"_var1\000"
 17080      3100
 17081              	.LASF158:
 17082 2278 5F766172 		.ascii	"_var2\000"
 17082      3200
 17083              	.LASF159:
 17084 227e 5F766172 		.ascii	"_var3\000"
 17084      3300
 17085              	.LASF117:
 17086 2284 5052494E 		.ascii	"PRINTER1_GENERIC_JOB\000"
 17086      54455231 
 17086      5F47454E 
 17086      45524943 
 17086      5F4A4F42 
 17087              	.LASF161:
 17088 2299 5F766172 		.ascii	"_var5\000"
 17088      3500
 17089              	.LASF162:
 17090 229f 5F766172 		.ascii	"_var6\000"
 17090      3600
 17091              	.LASF163:
 17092 22a5 5F766172 		.ascii	"_var7\000"
 17092      3700
 17093              	.LASF164:
 17094 22ab 5F766172 		.ascii	"_var8\000"
 17094      3800
 17095              	.LASF165:
 17096 22b1 5F766172 		.ascii	"_var9\000"
 17096      3900
 17097              	.LASF497:
 17098 22b7 79706F73 		.ascii	"ypos\000"
 17098      00
 17099              	.LASF388:
 17100 22bc 52465F4D 		.ascii	"RF_MUX_PRICE_CHANGE_REQUEST\000"
 17100      55585F50 
 17100      52494345 
 17100      5F434841 
 17100      4E47455F 
 17101              	.LASF142:
 17102 22d8 5F50554D 		.ascii	"_PUMP_RESTORE_PRICE_\000"
ARM GAS  C:\Users\RECEPC~1\AppData\Local\Temp\ccNQpeOs.s 			page 366


 17102      505F5245 
 17102      53544F52 
 17102      455F5052 
 17102      4943455F 
 17103              	.LASF166:
 17104 22ed 5F766172 		.ascii	"_varA\000"
 17104      4100
 17105              	.LASF167:
 17106 22f3 5F766172 		.ascii	"_varB\000"
 17106      4200
 17107              	.LASF419:
 17108 22f9 52465F43 		.ascii	"RF_COPY_RECEIPT\000"
 17108      4F50595F 
 17108      52454345 
 17108      49505400 
 17109              	.LASF256:
 17110 2309 44495350 		.ascii	"DISPLAY_INTRODUZCA_VOLUMEN\000"
 17110      4C41595F 
 17110      494E5452 
 17110      4F44555A 
 17110      43415F56 
 17111              	.LASF69:
 17112 2324 414C4C49 		.ascii	"ALLINTERESTED\000"
 17112      4E544552 
 17112      45535445 
 17112      4400
 17113              	.LASF274:
 17114 2332 44495350 		.ascii	"DISPLAY_CANCELADO_X_PC\000"
 17114      4C41595F 
 17114      43414E43 
 17114      454C4144 
 17114      4F5F585F 
 17115              	.LASF179:
 17116 2349 5F70756D 		.ascii	"_pumpindex\000"
 17116      70696E64 
 17116      657800
 17117              	.LASF186:
 17118 2354 5F70756D 		.ascii	"_pumplocked\000"
 17118      706C6F63 
 17118      6B656400 
 17119              	.LASF80:
 17120 2360 5F6D6573 		.ascii	"_messageid\000"
 17120      73616765 
 17120      696400
 17121              	.LASF137:
 17122 236b 5F50554D 		.ascii	"_PUMP_FILL_BY_MONEY_\000"
 17122      505F4649 
 17122      4C4C5F42 
 17122      595F4D4F 
 17122      4E45595F 
 17123              	.LASF491:
 17124 2380 62756666 		.ascii	"buffer\000"
 17124      657200
 17125              	.LASF46:
 17126 2387 414C4C4F 		.ascii	"ALLOCATED\000"
 17126      43415445 
 17126      4400
ARM GAS  C:\Users\RECEPC~1\AppData\Local\Temp\ccNQpeOs.s 			page 367


 17127              	.LASF11:
 17128 2391 75696E74 		.ascii	"uint8\000"
 17128      3800
 17129              	.LASF126:
 17130 2397 44495350 		.ascii	"DISPLAY2_RECEPTION\000"
 17130      4C415932 
 17130      5F524543 
 17130      45505449 
 17130      4F4E00
 17131              	.LASF337:
 17132 23aa 5F737461 		.ascii	"_statenodes\000"
 17132      74656E6F 
 17132      64657300 
 17133              	.LASF89:
 17134 23b6 43616C6C 		.ascii	"Callback\000"
 17134      6261636B 
 17134      00
 17135              	.LASF293:
 17136 23bf 44495350 		.ascii	"DISPLAY_LESS_THAN_FOUR_POSITIONS\000"
 17136      4C41595F 
 17136      4C455353 
 17136      5F544841 
 17136      4E5F464F 
 17137              	.LASF506:
 17138 23e0 53656E64 		.ascii	"SendAuthorizationRequest4Credit\000"
 17138      41757468 
 17138      6F72697A 
 17138      6174696F 
 17138      6E526571 
 17139              	.LASF569:
 17140 2400 5F675F72 		.ascii	"_g_rfautorun\000"
 17140      66617574 
 17140      6F72756E 
 17140      00
 17141              	.LASF415:
 17142 240d 52465F43 		.ascii	"RF_CREDITSALEAUTH\000"
 17142      52454449 
 17142      5453414C 
 17142      45415554 
 17142      4800
 17143              	.LASF314:
 17144 241f 4465636F 		.ascii	"Decorator\000"
 17144      7261746F 
 17144      7200
 17145              	.LASF310:
 17146 2429 5F6F7061 		.ascii	"_opaquebackground\000"
 17146      71756562 
 17146      61636B67 
 17146      726F756E 
 17146      6400
 17147              	.LASF2:
 17148 243b 73686F72 		.ascii	"short int\000"
 17148      7420696E 
 17148      7400
 17149              	.LASF280:
 17150 2445 44495350 		.ascii	"DISPLAY_PRECIO_POR_UNIDAD\000"
 17150      4C41595F 
ARM GAS  C:\Users\RECEPC~1\AppData\Local\Temp\ccNQpeOs.s 			page 368


 17150      50524543 
 17150      494F5F50 
 17150      4F525F55 
 17151              	.LASF200:
 17152 245f 50756D70 		.ascii	"PumpTransQueueLock\000"
 17152      5472616E 
 17152      73517565 
 17152      75654C6F 
 17152      636B00
 17153              	.LASF286:
 17154 2472 44495350 		.ascii	"DISPLAY_NULL\000"
 17154      4C41595F 
 17154      4E554C4C 
 17154      00
 17155              	.LASF205:
 17156 247f 50756D70 		.ascii	"PumpTransQueueAllocate\000"
 17156      5472616E 
 17156      73517565 
 17156      7565416C 
 17156      6C6F6361 
 17157              	.LASF305:
 17158 2496 5F444953 		.ascii	"_DISPLAY_TEXT_OPACITY_\000"
 17158      504C4159 
 17158      5F544558 
 17158      545F4F50 
 17158      41434954 
 17159              	.LASF109:
 17160 24ad 44495350 		.ascii	"DISPENSER_CONFIGURE_SINGLE_PRICE\000"
 17160      454E5345 
 17160      525F434F 
 17160      4E464947 
 17160      5552455F 
 17161              	.LASF402:
 17162 24ce 52465F4D 		.ascii	"RF_MUX_POSITION_CFG_REQUEST\000"
 17162      55585F50 
 17162      4F534954 
 17162      494F4E5F 
 17162      4346475F 
 17163              	.LASF122:
 17164 24ea 44495350 		.ascii	"DISPLAY1_RECEPTION\000"
 17164      4C415931 
 17164      5F524543 
 17164      45505449 
 17164      4F4E00
 17165              	.LASF203:
 17166 24fd 50756D70 		.ascii	"PumpTransQueueEnqueue\000"
 17166      5472616E 
 17166      73517565 
 17166      7565456E 
 17166      71756575 
 17167              	.LASF430:
 17168 2513 5072696E 		.ascii	"PrinterLayout\000"
 17168      7465724C 
 17168      61796F75 
 17168      7400
 17169              	.LASF105:
 17170 2521 44495350 		.ascii	"DISPENSER_ENUMERATE_VISIBLE_PUMPS\000"
ARM GAS  C:\Users\RECEPC~1\AppData\Local\Temp\ccNQpeOs.s 			page 369


 17170      454E5345 
 17170      525F454E 
 17170      554D4552 
 17170      4154455F 
 17171              	.LASF30:
 17172 2543 52656164 		.ascii	"ReadRxData\000"
 17172      52784461 
 17172      746100
 17173              	.LASF539:
 17174 254e 5072696E 		.ascii	"PrintersWorking\000"
 17174      74657273 
 17174      576F726B 
 17174      696E6700 
 17175              	.LASF484:
 17176 255e 496E6974 		.ascii	"InitiateWorkShiftValidation\000"
 17176      69617465 
 17176      576F726B 
 17176      53686966 
 17176      7456616C 
 17177              	.LASF85:
 17178 257a 5F6D6573 		.ascii	"_messagetimeoutlimit\000"
 17178      73616765 
 17178      74696D65 
 17178      6F75746C 
 17178      696D6974 
 17179              	.LASF58:
 17180 258f 5F554152 		.ascii	"_UART_MANAGERS_AVAILABLE_\000"
 17180      545F4D41 
 17180      4E414745 
 17180      52535F41 
 17180      5641494C 
 17181              	.LASF574:
 17182 25a9 474E5520 		.ascii	"GNU C 4.9.3 20150303 (release) [ARM/embedded-4_9-br"
 17182      4320342E 
 17182      392E3320 
 17182      32303135 
 17182      30333033 
 17183 25dc 616E6368 		.ascii	"anch revision 221220] -mcpu=cortex-m3 -mthumb -g -O"
 17183      20726576 
 17183      6973696F 
 17183      6E203232 
 17183      31323230 
 17184 260f 30202D66 		.ascii	"0 -ffunction-sections -ffat-lto-objects\000"
 17184      66756E63 
 17184      74696F6E 
 17184      2D736563 
 17184      74696F6E 
 17185              	.LASF255:
 17186 2637 44495350 		.ascii	"DISPLAY_INTRODUZCA_CEDULA\000"
 17186      4C41595F 
 17186      494E5452 
 17186      4F44555A 
 17186      43415F43 
 17187              	.LASF517:
 17188 2651 70756D70 		.ascii	"pumpidoffset\000"
 17188      69646F66 
 17188      66736574 
ARM GAS  C:\Users\RECEPC~1\AppData\Local\Temp\ccNQpeOs.s 			page 370


 17188      00
 17189              	.LASF291:
 17190 265e 44495350 		.ascii	"DISPLAY_IBUTTON_READ_ACCEPTED\000"
 17190      4C41595F 
 17190      49425554 
 17190      544F4E5F 
 17190      52454144 
 17191              	.LASF81:
 17192 267c 5F6D6573 		.ascii	"_messagetype\000"
 17192      73616765 
 17192      74797065 
 17192      00
 17193              	.LASF518:
 17194 2689 69427574 		.ascii	"iButtonScreenNotification\000"
 17194      746F6E53 
 17194      63726565 
 17194      6E4E6F74 
 17194      69666963 
 17195              	.LASF71:
 17196 26a3 46495253 		.ascii	"FIRSTFOUNDFOREVER\000"
 17196      54464F55 
 17196      4E44464F 
 17196      52455645 
 17196      5200
 17197              	.LASF578:
 17198 26b5 44697370 		.ascii	"DisplayGenericValidator\000"
 17198      6C617947 
 17198      656E6572 
 17198      69635661 
 17198      6C696461 
 17199              	.LASF450:
 17200 26cd 45455052 		.ascii	"EEPROM_DISPENSER_PUMP3_PPU_INFO_PAGE\000"
 17200      4F4D5F44 
 17200      49535045 
 17200      4E534552 
 17200      5F50554D 
 17201              	.LASF401:
 17202 26f2 52465F4D 		.ascii	"RF_MUX_BROADCAST_CFG_RESPONSE\000"
 17202      55585F42 
 17202      524F4144 
 17202      43415354 
 17202      5F434647 
 17203              	.LASF181:
 17204 2710 5F637572 		.ascii	"_currenthose\000"
 17204      72656E74 
 17204      686F7365 
 17204      00
 17205              	.LASF344:
 17206 271d 44697370 		.ascii	"DisplayFlow\000"
 17206      6C617946 
 17206      6C6F7700 
 17207              	.LASF207:
 17208 2729 50756D70 		.ascii	"PumpValidState\000"
 17208      56616C69 
 17208      64537461 
 17208      746500
 17209              	.LASF209:
ARM GAS  C:\Users\RECEPC~1\AppData\Local\Temp\ccNQpeOs.s 			page 371


 17210 2738 5F617574 		.ascii	"_authorizationinfo\000"
 17210      686F7269 
 17210      7A617469 
 17210      6F6E696E 
 17210      666F00
 17211              	.LASF149:
 17212 274b 5F50554D 		.ascii	"_PUMP_STOPALL_\000"
 17212      505F5354 
 17212      4F50414C 
 17212      4C5F00
 17213              	.LASF271:
 17214 275a 44495350 		.ascii	"DISPLAY_OPCION_TURNO\000"
 17214      4C41595F 
 17214      4F504349 
 17214      4F4E5F54 
 17214      55524E4F 
 17215              	.LASF171:
 17216 276f 5F686F73 		.ascii	"_hoseid\000"
 17216      65696400 
 17217              	.LASF492:
 17218 2777 6E756D62 		.ascii	"numberofprintedcopies\000"
 17218      65726F66 
 17218      7072696E 
 17218      74656463 
 17218      6F706965 
 17219              	.LASF377:
 17220 278d 52465F4D 		.ascii	"RF_MUX_CREDIT_PRESET_AUTHORIZATION_RESPONSE\000"
 17220      55585F43 
 17220      52454449 
 17220      545F5052 
 17220      45534554 
 17221              	.LASF50:
 17222 27b9 5F6D6573 		.ascii	"_messagestate\000"
 17222      73616765 
 17222      73746174 
 17222      6500
 17223              	.LASF524:
 17224 27c7 44726177 		.ascii	"DrawDateTime\000"
 17224      44617465 
 17224      54696D65 
 17224      00
 17225              	.LASF139:
 17226 27d4 5F50554D 		.ascii	"_PUMP_FILL_FULL_\000"
 17226      505F4649 
 17226      4C4C5F46 
 17226      554C4C5F 
 17226      00
 17227              	.LASF53:
 17228 27e5 4572726F 		.ascii	"ErrorHandler\000"
 17228      7248616E 
 17228      646C6572 
 17228      00
 17229              	.LASF170:
 17230 27f2 5F707265 		.ascii	"_presettype\000"
 17230      73657474 
 17230      79706500 
 17231              	.LASF145:
ARM GAS  C:\Users\RECEPC~1\AppData\Local\Temp\ccNQpeOs.s 			page 372


 17232 27fe 5F50554D 		.ascii	"_PUMP_EOT_\000"
 17232      505F454F 
 17232      545F00
 17233              	.LASF121:
 17234 2809 44495350 		.ascii	"DISPLAY_UPDATE_PUMP_STATE\000"
 17234      4C41595F 
 17234      55504441 
 17234      54455F50 
 17234      554D505F 
 17235              	.LASF478:
 17236 2823 5254435F 		.ascii	"RTC_YEAR\000"
 17236      59454152 
 17236      00
 17237              	.LASF65:
 17238 282c 5F4D4553 		.ascii	"_MESSAGE_TYPE_\000"
 17238      53414745 
 17238      5F545950 
 17238      455F00
 17239              	.LASF108:
 17240 283b 44495350 		.ascii	"DISPENSER_RESTORE_PRICES\000"
 17240      454E5345 
 17240      525F5245 
 17240      53544F52 
 17240      455F5052 
 17241              	.LASF479:
 17242 2854 666F6E74 		.ascii	"fontdata\000"
 17242      64617461 
 17242      00
 17243              	.LASF368:
 17244 285d 5F637572 		.ascii	"_currindex\000"
 17244      72696E64 
 17244      657800
 17245              	.LASF381:
 17246 2868 52465F4D 		.ascii	"RF_MUX_CASH_SALE_START_RESPONSE\000"
 17246      55585F43 
 17246      4153485F 
 17246      53414C45 
 17246      5F535441 
 17247              	.LASF332:
 17248 2888 5F726573 		.ascii	"_responsetimeoutlimit\000"
 17248      706F6E73 
 17248      6574696D 
 17248      656F7574 
 17248      6C696D69 
 17249              	.LASF190:
 17250 289e 5F707269 		.ascii	"_print\000"
 17250      6E7400
 17251              	.LASF442:
 17252 28a5 45455052 		.ascii	"EEPROM_DISPENSER_PUMP3_LAYOUT_PAGE\000"
 17252      4F4D5F44 
 17252      49535045 
 17252      4E534552 
 17252      5F50554D 
 17253              	.LASF315:
 17254 28c8 496E7075 		.ascii	"InputValidator\000"
 17254      7456616C 
 17254      69646174 
ARM GAS  C:\Users\RECEPC~1\AppData\Local\Temp\ccNQpeOs.s 			page 373


 17254      6F7200
 17255              	.LASF3:
 17256 28d7 73686F72 		.ascii	"short unsigned int\000"
 17256      7420756E 
 17256      7369676E 
 17256      65642069 
 17256      6E7400
 17257              	.LASF311:
 17258 28ea 5F626163 		.ascii	"_backcolor\000"
 17258      6B636F6C 
 17258      6F7200
 17259              	.LASF202:
 17260 28f5 50756D70 		.ascii	"PumpTransQueueFind\000"
 17260      5472616E 
 17260      73517565 
 17260      75654669 
 17260      6E6400
 17261              	.LASF426:
 17262 2908 5F74696D 		.ascii	"_timeouttoreceivemultiplier\000"
 17262      656F7574 
 17262      746F7265 
 17262      63656976 
 17262      656D756C 
 17263              	.LASF116:
 17264 2924 5052494E 		.ascii	"PRINTER22_JOB\000"
 17264      54455232 
 17264      325F4A4F 
 17264      4200
 17265              	.LASF400:
 17266 2932 52465F4D 		.ascii	"RF_MUX_BROADCAST_CFG_REQUEST\000"
 17266      55585F42 
 17266      524F4144 
 17266      43415354 
 17266      5F434647 
 17267              	.LASF573:
 17268 294f 5F675F70 		.ascii	"_g_productscreenpos\000"
 17268      726F6475 
 17268      63747363 
 17268      7265656E 
 17268      706F7300 
 17269              	.LASF530:
 17270 2963 74787462 		.ascii	"txtbuffer\000"
 17270      75666665 
 17270      7200
 17271              	.LASF9:
 17272 296d 5F5F696E 		.ascii	"__int32_t\000"
 17272      7433325F 
 17272      7400
 17273              	.LASF409:
 17274 2977 52465F4D 		.ascii	"RF_MUX_COPY_REQUEST_RESPONSE\000"
 17274      55585F43 
 17274      4F50595F 
 17274      52455155 
 17274      4553545F 
 17275              	.LASF390:
 17276 2994 52465F4D 		.ascii	"RF_MUX_GENERAL_PRINT_REQUEST\000"
 17276      55585F47 
ARM GAS  C:\Users\RECEPC~1\AppData\Local\Temp\ccNQpeOs.s 			page 374


 17276      454E4552 
 17276      414C5F50 
 17276      52494E54 
 17277              	.LASF446:
 17278 29b1 45455052 		.ascii	"EEPROM_DISPENSER_PUMP3_PRODUCT_NAMES_PAGE\000"
 17278      4F4D5F44 
 17278      49535045 
 17278      4E534552 
 17278      5F50554D 
 17279              	.LASF154:
 17280 29db 50756D70 		.ascii	"PumpTransactionalState\000"
 17280      5472616E 
 17280      73616374 
 17280      696F6E61 
 17280      6C537461 
 17281              	.LASF364:
 17282 29f2 5F707365 		.ascii	"_psequesteredmessagesink\000"
 17282      71756573 
 17282      74657265 
 17282      646D6573 
 17282      73616765 
 17283              	.LASF208:
 17284 2a0b 5F646174 		.ascii	"_datacontainer\000"
 17284      61636F6E 
 17284      7461696E 
 17284      657200
 17285              	.LASF564:
 17286 2a1a 5F675F64 		.ascii	"_g_dispenserlayoutinfo\000"
 17286      69737065 
 17286      6E736572 
 17286      6C61796F 
 17286      7574696E 
 17287              	.LASF74:
 17288 2a31 5F4D4553 		.ascii	"_MESSAGE_STATE_\000"
 17288      53414745 
 17288      5F535441 
 17288      54455F00 
 17289              	.LASF75:
 17290 2a41 53494E4B 		.ascii	"SINK_FREE\000"
 17290      5F465245 
 17290      4500
 17291              	.LASF66:
 17292 2a4b 4E4F4E45 		.ascii	"NONE\000"
 17292      00
 17293              	.LASF299:
 17294 2a50 44495350 		.ascii	"DISPLAY_INVALID_PASSWORD\000"
 17294      4C41595F 
 17294      494E5641 
 17294      4C49445F 
 17294      50415353 
 17295              	.LASF131:
 17296 2a69 49425554 		.ascii	"IBUTTON2_SCAN\000"
 17296      544F4E32 
 17296      5F534341 
 17296      4E00
 17297              	.LASF397:
 17298 2a77 52465F4D 		.ascii	"RF_MUX_PENDING_CREDIT_SALE_RESPONSE\000"
ARM GAS  C:\Users\RECEPC~1\AppData\Local\Temp\ccNQpeOs.s 			page 375


 17298      55585F50 
 17298      454E4449 
 17298      4E475F43 
 17298      52454449 
 17299              	.LASF226:
 17300 2a9b 5F646973 		.ascii	"_displaydigitsmode\000"
 17300      706C6179 
 17300      64696769 
 17300      74736D6F 
 17300      646500
 17301              	.LASF12:
 17302 2aae 75696E74 		.ascii	"uint16\000"
 17302      313600
 17303              	.LASF558:
 17304 2ab5 44697370 		.ascii	"Display2Logic\000"
 17304      6C617932 
 17304      4C6F6769 
 17304      6300
 17305              	.LASF404:
 17306 2ac3 52465F4D 		.ascii	"RF_MUX_ISLAND_OPER_DATA_REQUEST\000"
 17306      55585F49 
 17306      534C414E 
 17306      445F4F50 
 17306      45525F44 
 17307              	.LASF201:
 17308 2ae3 50756D70 		.ascii	"PumpTransQueueUnlock\000"
 17308      5472616E 
 17308      73517565 
 17308      7565556E 
 17308      6C6F636B 
 17309              	.LASF54:
 17310 2af8 5F707561 		.ascii	"_puartmanager\000"
 17310      72746D61 
 17310      6E616765 
 17310      7200
 17311              	.LASF427:
 17312 2b06 52464175 		.ascii	"RFAutoRun\000"
 17312      746F5275 
 17312      6E00
 17313              	.LASF120:
 17314 2b10 5052494E 		.ascii	"PRINTER2_GENERIC_JOB_LOGO\000"
 17314      54455232 
 17314      5F47454E 
 17314      45524943 
 17314      5F4A4F42 
 17315              	.LASF87:
 17316 2b2a 5F627566 		.ascii	"_buffersize\000"
 17316      66657273 
 17316      697A6500 
 17317              	.LASF461:
 17318 2b36 45455052 		.ascii	"EEPROM_DISPENSER_PUMP22_TRANSACTION_PAGE\000"
 17318      4F4D5F44 
 17318      49535045 
 17318      4E534552 
 17318      5F50554D 
 17319              	.LASF267:
 17320 2b5f 44495350 		.ascii	"DISPLAY_AUTORIZACION_RECHAZADA\000"
ARM GAS  C:\Users\RECEPC~1\AppData\Local\Temp\ccNQpeOs.s 			page 376


 17320      4C41595F 
 17320      4155544F 
 17320      52495A41 
 17320      43494F4E 
 17321              	.LASF428:
 17322 2b7e 5F707269 		.ascii	"_printerportside1\000"
 17322      6E746572 
 17322      706F7274 
 17322      73696465 
 17322      3100
 17323              		.ident	"GCC: (GNU Tools for ARM Embedded Processors) 4.9.3 20150303 (release) [ARM/embedded-4_9-br
