ARM GAS  C:\Users\RECEPC~1\AppData\Local\Temp\ccMrdYRj.s 			page 1


   1              		.syntax unified
   2              		.cpu cortex-m3
   3              		.fpu softvfp
   4              		.eabi_attribute 20, 1
   5              		.eabi_attribute 21, 1
   6              		.eabi_attribute 23, 3
   7              		.eabi_attribute 24, 1
   8              		.eabi_attribute 25, 1
   9              		.eabi_attribute 26, 1
  10              		.eabi_attribute 30, 6
  11              		.eabi_attribute 34, 1
  12              		.eabi_attribute 18, 4
  13              		.thumb
  14              		.file	"DispenserSink.c"
  15              		.text
  16              	.Ltext0:
  17              		.cfi_sections	.debug_frame
  18              		.global	_g_dispenserupdatetimeout
  19              		.bss
  20              		.align	1
  21              		.type	_g_dispenserupdatetimeout, %object
  22              		.size	_g_dispenserupdatetimeout, 2
  23              	_g_dispenserupdatetimeout:
  24 0000 0000     		.space	2
  25              		.global	_g_dispenserupdatetimeoutmultiplier
  26              		.align	1
  27              		.type	_g_dispenserupdatetimeoutmultiplier, %object
  28              		.size	_g_dispenserupdatetimeoutmultiplier, 2
  29              	_g_dispenserupdatetimeoutmultiplier:
  30 0002 0000     		.space	2
  31              		.section	.text.DispenserSinkRegistration,"ax",%progbits
  32              		.align	2
  33              		.global	DispenserSinkRegistration
  34              		.thumb
  35              		.thumb_func
  36              		.type	DispenserSinkRegistration, %function
  37              	DispenserSinkRegistration:
  38              	.LFB63:
  39              		.file 1 ".\\DispenserSink.c"
   1:.\DispenserSink.c **** /* ========================================
   2:.\DispenserSink.c ****  *
   3:.\DispenserSink.c ****  * Copyright INSEPET SISTEMAS, 2016
   4:.\DispenserSink.c ****  * All Rights Reserved
   5:.\DispenserSink.c ****  * UNPUBLISHED, LICENSED SOFTWARE.
   6:.\DispenserSink.c ****  *
   7:.\DispenserSink.c ****  * CONFIDENTIAL AND PROPRIETARY INFORMATION
   8:.\DispenserSink.c ****  * WHICH IS THE PROPERTY OF your company.
   9:.\DispenserSink.c ****  *
  10:.\DispenserSink.c ****  * ========================================
  11:.\DispenserSink.c **** @Created By: HIJH
  12:.\DispenserSink.c **** @Date: Septembre de 2016
  13:.\DispenserSink.c **** */
  14:.\DispenserSink.c **** #include <project.h>
  15:.\DispenserSink.c **** #include "SinkManager.h"
  16:.\DispenserSink.c **** #include "SinkObservables.h"
  17:.\DispenserSink.c **** #include "GlobalDefinitions.h"
  18:.\DispenserSink.c **** 
ARM GAS  C:\Users\RECEPC~1\AppData\Local\Temp\ccMrdYRj.s 			page 2


  19:.\DispenserSink.c **** #include "Dispenser.h"
  20:.\DispenserSink.c **** 
  21:.\DispenserSink.c **** extern PumpResponseContext _g_respctxt;
  22:.\DispenserSink.c **** 
  23:.\DispenserSink.c **** uint16 _g_dispenserupdatetimeout = 0x0000;
  24:.\DispenserSink.c **** uint16 _g_dispenserupdatetimeoutmultiplier = 0x0000;
  25:.\DispenserSink.c **** 
  26:.\DispenserSink.c **** void InitProtocol();
  27:.\DispenserSink.c **** void DispenserHandler();
  28:.\DispenserSink.c **** void DispenserTimeoutHandler();
  29:.\DispenserSink.c **** void DispenserUpdateTimeouts(void *pparam);
  30:.\DispenserSink.c **** void DispenserDataReceptionHandler();
  31:.\DispenserSink.c **** 
  32:.\DispenserSink.c **** //Messages coming from the Displays
  33:.\DispenserSink.c **** void DispenserSide1Listener(void *pparam);
  34:.\DispenserSink.c **** void DispenserSide2Listener(void *pparam);
  35:.\DispenserSink.c **** //Invoked once on MUX startup. This call is delayed a few seconds to allow for the general initiali
  36:.\DispenserSink.c **** void DispenserEnumeratePumps(LPVOID pparam);
  37:.\DispenserSink.c **** void DispenserLoadEEPROMSettings(LPVOID pparam);
  38:.\DispenserSink.c **** void DispenserPriceRestore(LPVOID pparam);
  39:.\DispenserSink.c **** void DispenserRestorePrices(LPVOID pparam);
  40:.\DispenserSink.c **** void DispenserUnlockPumpsOnEOT(LPVOID pparam);
  41:.\DispenserSink.c **** void DispenserAcquireConfiguration(LPVOID pparam);
  42:.\DispenserSink.c **** void DispenserConfigurePrices(LPVOID pparam);
  43:.\DispenserSink.c **** void DispenserConfigureSinglePrice(LPVOID pparam);
  44:.\DispenserSink.c **** void DispenserAcquireTotals(LPVOID pparam);
  45:.\DispenserSink.c **** void DispenserDaylyRestart(LPVOID pparam);
  46:.\DispenserSink.c **** void DispenserHoseActiveState(LPVOID pparam);
  47:.\DispenserSink.c **** void DispenserExecuteCreditTransaction(LPVOID pparam);
  48:.\DispenserSink.c **** void DispenserExecuteCashTransaction(LPVOID pparam);
  49:.\DispenserSink.c **** void DispenserBeepWarning(LPVOID pparam);
  50:.\DispenserSink.c **** void DispenserSinkRegistration()
  51:.\DispenserSink.c **** {
  40              		.loc 1 51 0
  41              		.cfi_startproc
  42              		@ args = 0, pretend = 0, frame = 16
  43              		@ frame_needed = 1, uses_anonymous_args = 0
  44 0000 80B5     		push	{r7, lr}
  45              		.cfi_def_cfa_offset 8
  46              		.cfi_offset 7, -8
  47              		.cfi_offset 14, -4
  48 0002 84B0     		sub	sp, sp, #16
  49              		.cfi_def_cfa_offset 24
  50 0004 00AF     		add	r7, sp, #0
  51              		.cfi_def_cfa_register 7
  52:.\DispenserSink.c ****     InitProtocol();
  52              		.loc 1 52 0
  53 0006 FFF7FEFF 		bl	InitProtocol
  53:.\DispenserSink.c ****     
  54:.\DispenserSink.c ****     PSINKSUBSCRIBERPTR psubscriber = AllocateSubscriberSlot();
  54              		.loc 1 54 0
  55 000a FFF7FEFF 		bl	AllocateSubscriberSlot
  56 000e F860     		str	r0, [r7, #12]
  55:.\DispenserSink.c ****     if(psubscriber)
  57              		.loc 1 55 0
  58 0010 FB68     		ldr	r3, [r7, #12]
  59 0012 002B     		cmp	r3, #0
ARM GAS  C:\Users\RECEPC~1\AppData\Local\Temp\ccMrdYRj.s 			page 3


  60 0014 71D0     		beq	.L2
  61              	.LBB2:
  56:.\DispenserSink.c ****     {
  57:.\DispenserSink.c ****         uint8 index = 0;
  62              		.loc 1 57 0
  63 0016 0023     		movs	r3, #0
  64 0018 FB72     		strb	r3, [r7, #11]
  58:.\DispenserSink.c ****         //The maximum number of observable identifiers is _OBSERVED_IDENTIFIERS_
  59:.\DispenserSink.c ****         //located in the header file "SinkManager.h"
  60:.\DispenserSink.c ****         //Every identifier is paired with its respective Callback method pointer
  61:.\DispenserSink.c ****         
  62:.\DispenserSink.c ****         psubscriber->_arrmsgid[index] = DISPLAY1_MESSAGE;
  65              		.loc 1 62 0
  66 001a FB7A     		ldrb	r3, [r7, #11]	@ zero_extendqisi2
  67 001c FA68     		ldr	r2, [r7, #12]
  68 001e 1344     		add	r3, r3, r2
  69 0020 1E22     		movs	r2, #30
  70 0022 5A70     		strb	r2, [r3, #1]
  63:.\DispenserSink.c ****         psubscriber->Callback[index++] = DispenserSide1Listener;
  71              		.loc 1 63 0
  72 0024 FB7A     		ldrb	r3, [r7, #11]	@ zero_extendqisi2
  73 0026 5A1C     		adds	r2, r3, #1
  74 0028 FA72     		strb	r2, [r7, #11]
  75 002a FA68     		ldr	r2, [r7, #12]
  76 002c 0233     		adds	r3, r3, #2
  77 002e 9B00     		lsls	r3, r3, #2
  78 0030 1344     		add	r3, r3, r2
  79 0032 A74A     		ldr	r2, .L9
  80 0034 5A60     		str	r2, [r3, #4]
  64:.\DispenserSink.c **** 
  65:.\DispenserSink.c ****         psubscriber->_arrmsgid[index] = DISPLAY2_MESSAGE;
  81              		.loc 1 65 0
  82 0036 FB7A     		ldrb	r3, [r7, #11]	@ zero_extendqisi2
  83 0038 FA68     		ldr	r2, [r7, #12]
  84 003a 1344     		add	r3, r3, r2
  85 003c 2222     		movs	r2, #34
  86 003e 5A70     		strb	r2, [r3, #1]
  66:.\DispenserSink.c ****         psubscriber->Callback[index++] = DispenserSide2Listener;
  87              		.loc 1 66 0
  88 0040 FB7A     		ldrb	r3, [r7, #11]	@ zero_extendqisi2
  89 0042 5A1C     		adds	r2, r3, #1
  90 0044 FA72     		strb	r2, [r7, #11]
  91 0046 FA68     		ldr	r2, [r7, #12]
  92 0048 0233     		adds	r3, r3, #2
  93 004a 9B00     		lsls	r3, r3, #2
  94 004c 1344     		add	r3, r3, r2
  95 004e A14A     		ldr	r2, .L9+4
  96 0050 5A60     		str	r2, [r3, #4]
  67:.\DispenserSink.c **** 
  68:.\DispenserSink.c ****         psubscriber->_arrmsgid[index] = DISPENSER_UPDATE_PUMP_TRANSACTION_TIMEOUTS;
  97              		.loc 1 68 0
  98 0052 FB7A     		ldrb	r3, [r7, #11]	@ zero_extendqisi2
  99 0054 FA68     		ldr	r2, [r7, #12]
 100 0056 1344     		add	r3, r3, r2
 101 0058 0722     		movs	r2, #7
 102 005a 5A70     		strb	r2, [r3, #1]
  69:.\DispenserSink.c ****         psubscriber->Callback[index++] = DispenserUpdateTimeouts;
ARM GAS  C:\Users\RECEPC~1\AppData\Local\Temp\ccMrdYRj.s 			page 4


 103              		.loc 1 69 0
 104 005c FB7A     		ldrb	r3, [r7, #11]	@ zero_extendqisi2
 105 005e 5A1C     		adds	r2, r3, #1
 106 0060 FA72     		strb	r2, [r7, #11]
 107 0062 FA68     		ldr	r2, [r7, #12]
 108 0064 0233     		adds	r3, r3, #2
 109 0066 9B00     		lsls	r3, r3, #2
 110 0068 1344     		add	r3, r3, r2
 111 006a 9B4A     		ldr	r2, .L9+8
 112 006c 5A60     		str	r2, [r3, #4]
  70:.\DispenserSink.c **** 
  71:.\DispenserSink.c ****         psubscriber->_arrmsgid[index] = DISPENSER_ACQUIRE_PUMP_STATE;
 113              		.loc 1 71 0
 114 006e FB7A     		ldrb	r3, [r7, #11]	@ zero_extendqisi2
 115 0070 FA68     		ldr	r2, [r7, #12]
 116 0072 1344     		add	r3, r3, r2
 117 0074 0822     		movs	r2, #8
 118 0076 5A70     		strb	r2, [r3, #1]
  72:.\DispenserSink.c ****         psubscriber->Callback[index++] = DispenserUpdatePumpState;
 119              		.loc 1 72 0
 120 0078 FB7A     		ldrb	r3, [r7, #11]	@ zero_extendqisi2
 121 007a 5A1C     		adds	r2, r3, #1
 122 007c FA72     		strb	r2, [r7, #11]
 123 007e FA68     		ldr	r2, [r7, #12]
 124 0080 0233     		adds	r3, r3, #2
 125 0082 9B00     		lsls	r3, r3, #2
 126 0084 1344     		add	r3, r3, r2
 127 0086 954A     		ldr	r2, .L9+12
 128 0088 5A60     		str	r2, [r3, #4]
  73:.\DispenserSink.c **** 
  74:.\DispenserSink.c ****         psubscriber->_arrmsgid[index] = DISPENSER_LOAD_EEPROM_SETTINGS;
 129              		.loc 1 74 0
 130 008a FB7A     		ldrb	r3, [r7, #11]	@ zero_extendqisi2
 131 008c FA68     		ldr	r2, [r7, #12]
 132 008e 1344     		add	r3, r3, r2
 133 0090 0D22     		movs	r2, #13
 134 0092 5A70     		strb	r2, [r3, #1]
  75:.\DispenserSink.c ****         psubscriber->Callback[index++] = DispenserLoadEEPROMSettings;
 135              		.loc 1 75 0
 136 0094 FB7A     		ldrb	r3, [r7, #11]	@ zero_extendqisi2
 137 0096 5A1C     		adds	r2, r3, #1
 138 0098 FA72     		strb	r2, [r7, #11]
 139 009a FA68     		ldr	r2, [r7, #12]
 140 009c 0233     		adds	r3, r3, #2
 141 009e 9B00     		lsls	r3, r3, #2
 142 00a0 1344     		add	r3, r3, r2
 143 00a2 8F4A     		ldr	r2, .L9+16
 144 00a4 5A60     		str	r2, [r3, #4]
  76:.\DispenserSink.c **** 
  77:.\DispenserSink.c ****         #ifdef PRIME_PROTOCOL
  78:.\DispenserSink.c ****         psubscriber->_arrmsgid[index] = DISPENSER_ACQUIRE_PUMP_HOSE;
 145              		.loc 1 78 0
 146 00a6 FB7A     		ldrb	r3, [r7, #11]	@ zero_extendqisi2
 147 00a8 FA68     		ldr	r2, [r7, #12]
 148 00aa 1344     		add	r3, r3, r2
 149 00ac 0922     		movs	r2, #9
 150 00ae 5A70     		strb	r2, [r3, #1]
ARM GAS  C:\Users\RECEPC~1\AppData\Local\Temp\ccMrdYRj.s 			page 5


  79:.\DispenserSink.c ****         psubscriber->Callback[index++] = DispenserHoseActiveState;
 151              		.loc 1 79 0
 152 00b0 FB7A     		ldrb	r3, [r7, #11]	@ zero_extendqisi2
 153 00b2 5A1C     		adds	r2, r3, #1
 154 00b4 FA72     		strb	r2, [r7, #11]
 155 00b6 FA68     		ldr	r2, [r7, #12]
 156 00b8 0233     		adds	r3, r3, #2
 157 00ba 9B00     		lsls	r3, r3, #2
 158 00bc 1344     		add	r3, r3, r2
 159 00be 894A     		ldr	r2, .L9+20
 160 00c0 5A60     		str	r2, [r3, #4]
  80:.\DispenserSink.c **** 
  81:.\DispenserSink.c ****         psubscriber->_arrmsgid[index] = DISPENSER_EXECUTE_CASH_TRANSACTION;
 161              		.loc 1 81 0
 162 00c2 FB7A     		ldrb	r3, [r7, #11]	@ zero_extendqisi2
 163 00c4 FA68     		ldr	r2, [r7, #12]
 164 00c6 1344     		add	r3, r3, r2
 165 00c8 0A22     		movs	r2, #10
 166 00ca 5A70     		strb	r2, [r3, #1]
  82:.\DispenserSink.c ****         psubscriber->Callback[index++] = DispenserExecuteCashTransaction;
 167              		.loc 1 82 0
 168 00cc FB7A     		ldrb	r3, [r7, #11]	@ zero_extendqisi2
 169 00ce 5A1C     		adds	r2, r3, #1
 170 00d0 FA72     		strb	r2, [r7, #11]
 171 00d2 FA68     		ldr	r2, [r7, #12]
 172 00d4 0233     		adds	r3, r3, #2
 173 00d6 9B00     		lsls	r3, r3, #2
 174 00d8 1344     		add	r3, r3, r2
 175 00da 834A     		ldr	r2, .L9+24
 176 00dc 5A60     		str	r2, [r3, #4]
  83:.\DispenserSink.c **** 
  84:.\DispenserSink.c ****         psubscriber->_arrmsgid[index] = DISPENSER_EXECUTE_CREDIT_TRANSACTION;
 177              		.loc 1 84 0
 178 00de FB7A     		ldrb	r3, [r7, #11]	@ zero_extendqisi2
 179 00e0 FA68     		ldr	r2, [r7, #12]
 180 00e2 1344     		add	r3, r3, r2
 181 00e4 0B22     		movs	r2, #11
 182 00e6 5A70     		strb	r2, [r3, #1]
  85:.\DispenserSink.c ****         psubscriber->Callback[index++] = DispenserExecuteCreditTransaction;
 183              		.loc 1 85 0
 184 00e8 FB7A     		ldrb	r3, [r7, #11]	@ zero_extendqisi2
 185 00ea 5A1C     		adds	r2, r3, #1
 186 00ec FA72     		strb	r2, [r7, #11]
 187 00ee FA68     		ldr	r2, [r7, #12]
 188 00f0 0233     		adds	r3, r3, #2
 189 00f2 9B00     		lsls	r3, r3, #2
 190 00f4 1344     		add	r3, r3, r2
 191 00f6 7D4A     		ldr	r2, .L9+28
 192 00f8 5A60     		str	r2, [r3, #4]
 193              	.L2:
 194              	.LBE2:
  86:.\DispenserSink.c ****         #endif
  87:.\DispenserSink.c ****         
  88:.\DispenserSink.c ****     }
  89:.\DispenserSink.c **** 
  90:.\DispenserSink.c ****     psubscriber = AllocateSubscriberSlot();
 195              		.loc 1 90 0
ARM GAS  C:\Users\RECEPC~1\AppData\Local\Temp\ccMrdYRj.s 			page 6


 196 00fa FFF7FEFF 		bl	AllocateSubscriberSlot
 197 00fe F860     		str	r0, [r7, #12]
  91:.\DispenserSink.c ****     if(psubscriber)
 198              		.loc 1 91 0
 199 0100 FB68     		ldr	r3, [r7, #12]
 200 0102 002B     		cmp	r3, #0
 201 0104 71D0     		beq	.L3
 202              	.LBB3:
  92:.\DispenserSink.c ****     {
  93:.\DispenserSink.c ****         uint8 index = 0;
 203              		.loc 1 93 0
 204 0106 0023     		movs	r3, #0
 205 0108 BB72     		strb	r3, [r7, #10]
  94:.\DispenserSink.c ****         
  95:.\DispenserSink.c ****         psubscriber->_arrmsgid[index] = DISPENSER_ENUMERATE_VISIBLE_PUMPS;
 206              		.loc 1 95 0
 207 010a BB7A     		ldrb	r3, [r7, #10]	@ zero_extendqisi2
 208 010c FA68     		ldr	r2, [r7, #12]
 209 010e 1344     		add	r3, r3, r2
 210 0110 0E22     		movs	r2, #14
 211 0112 5A70     		strb	r2, [r3, #1]
  96:.\DispenserSink.c ****         psubscriber->Callback[index++] = DispenserEnumeratePumps;
 212              		.loc 1 96 0
 213 0114 BB7A     		ldrb	r3, [r7, #10]	@ zero_extendqisi2
 214 0116 5A1C     		adds	r2, r3, #1
 215 0118 BA72     		strb	r2, [r7, #10]
 216 011a FA68     		ldr	r2, [r7, #12]
 217 011c 0233     		adds	r3, r3, #2
 218 011e 9B00     		lsls	r3, r3, #2
 219 0120 1344     		add	r3, r3, r2
 220 0122 734A     		ldr	r2, .L9+32
 221 0124 5A60     		str	r2, [r3, #4]
  97:.\DispenserSink.c ****         
  98:.\DispenserSink.c ****         psubscriber->_arrmsgid[index] = DISPENSER_ACQUIRE_CONFIGURATION_INFORMATION;
 222              		.loc 1 98 0
 223 0126 BB7A     		ldrb	r3, [r7, #10]	@ zero_extendqisi2
 224 0128 FA68     		ldr	r2, [r7, #12]
 225 012a 1344     		add	r3, r3, r2
 226 012c 0F22     		movs	r2, #15
 227 012e 5A70     		strb	r2, [r3, #1]
  99:.\DispenserSink.c ****         psubscriber->Callback[index++] = DispenserAcquireConfiguration;
 228              		.loc 1 99 0
 229 0130 BB7A     		ldrb	r3, [r7, #10]	@ zero_extendqisi2
 230 0132 5A1C     		adds	r2, r3, #1
 231 0134 BA72     		strb	r2, [r7, #10]
 232 0136 FA68     		ldr	r2, [r7, #12]
 233 0138 0233     		adds	r3, r3, #2
 234 013a 9B00     		lsls	r3, r3, #2
 235 013c 1344     		add	r3, r3, r2
 236 013e 6D4A     		ldr	r2, .L9+36
 237 0140 5A60     		str	r2, [r3, #4]
 100:.\DispenserSink.c ****         
 101:.\DispenserSink.c ****         psubscriber->_arrmsgid[index] = DISPENSER_CONFIGURE_PRICES;
 238              		.loc 1 101 0
 239 0142 BB7A     		ldrb	r3, [r7, #10]	@ zero_extendqisi2
 240 0144 FA68     		ldr	r2, [r7, #12]
 241 0146 1344     		add	r3, r3, r2
ARM GAS  C:\Users\RECEPC~1\AppData\Local\Temp\ccMrdYRj.s 			page 7


 242 0148 1022     		movs	r2, #16
 243 014a 5A70     		strb	r2, [r3, #1]
 102:.\DispenserSink.c ****         psubscriber->Callback[index++] = DispenserConfigurePrices;
 244              		.loc 1 102 0
 245 014c BB7A     		ldrb	r3, [r7, #10]	@ zero_extendqisi2
 246 014e 5A1C     		adds	r2, r3, #1
 247 0150 BA72     		strb	r2, [r7, #10]
 248 0152 FA68     		ldr	r2, [r7, #12]
 249 0154 0233     		adds	r3, r3, #2
 250 0156 9B00     		lsls	r3, r3, #2
 251 0158 1344     		add	r3, r3, r2
 252 015a 674A     		ldr	r2, .L9+40
 253 015c 5A60     		str	r2, [r3, #4]
 103:.\DispenserSink.c ****         
 104:.\DispenserSink.c ****         psubscriber->_arrmsgid[index] = DISPENSER_CONFIGURE_SINGLE_PRICE;
 254              		.loc 1 104 0
 255 015e BB7A     		ldrb	r3, [r7, #10]	@ zero_extendqisi2
 256 0160 FA68     		ldr	r2, [r7, #12]
 257 0162 1344     		add	r3, r3, r2
 258 0164 1222     		movs	r2, #18
 259 0166 5A70     		strb	r2, [r3, #1]
 105:.\DispenserSink.c ****         psubscriber->Callback[index++] = DispenserConfigureSinglePrice;
 260              		.loc 1 105 0
 261 0168 BB7A     		ldrb	r3, [r7, #10]	@ zero_extendqisi2
 262 016a 5A1C     		adds	r2, r3, #1
 263 016c BA72     		strb	r2, [r7, #10]
 264 016e FA68     		ldr	r2, [r7, #12]
 265 0170 0233     		adds	r3, r3, #2
 266 0172 9B00     		lsls	r3, r3, #2
 267 0174 1344     		add	r3, r3, r2
 268 0176 614A     		ldr	r2, .L9+44
 269 0178 5A60     		str	r2, [r3, #4]
 106:.\DispenserSink.c ****         
 107:.\DispenserSink.c ****         psubscriber->_arrmsgid[index] = DISPENSER_ACQUIRE_TOTALS;
 270              		.loc 1 107 0
 271 017a BB7A     		ldrb	r3, [r7, #10]	@ zero_extendqisi2
 272 017c FA68     		ldr	r2, [r7, #12]
 273 017e 1344     		add	r3, r3, r2
 274 0180 1322     		movs	r2, #19
 275 0182 5A70     		strb	r2, [r3, #1]
 108:.\DispenserSink.c ****         psubscriber->Callback[index++] = DispenserAcquireTotals;
 276              		.loc 1 108 0
 277 0184 BB7A     		ldrb	r3, [r7, #10]	@ zero_extendqisi2
 278 0186 5A1C     		adds	r2, r3, #1
 279 0188 BA72     		strb	r2, [r7, #10]
 280 018a FA68     		ldr	r2, [r7, #12]
 281 018c 0233     		adds	r3, r3, #2
 282 018e 9B00     		lsls	r3, r3, #2
 283 0190 1344     		add	r3, r3, r2
 284 0192 5B4A     		ldr	r2, .L9+48
 285 0194 5A60     		str	r2, [r3, #4]
 109:.\DispenserSink.c **** 
 110:.\DispenserSink.c ****         psubscriber->_arrmsgid[index] = DISPENSER_RESTORE_PRICES;
 286              		.loc 1 110 0
 287 0196 BB7A     		ldrb	r3, [r7, #10]	@ zero_extendqisi2
 288 0198 FA68     		ldr	r2, [r7, #12]
 289 019a 1344     		add	r3, r3, r2
ARM GAS  C:\Users\RECEPC~1\AppData\Local\Temp\ccMrdYRj.s 			page 8


 290 019c 1122     		movs	r2, #17
 291 019e 5A70     		strb	r2, [r3, #1]
 111:.\DispenserSink.c ****         psubscriber->Callback[index++] = DispenserRestorePrices;
 292              		.loc 1 111 0
 293 01a0 BB7A     		ldrb	r3, [r7, #10]	@ zero_extendqisi2
 294 01a2 5A1C     		adds	r2, r3, #1
 295 01a4 BA72     		strb	r2, [r7, #10]
 296 01a6 FA68     		ldr	r2, [r7, #12]
 297 01a8 0233     		adds	r3, r3, #2
 298 01aa 9B00     		lsls	r3, r3, #2
 299 01ac 1344     		add	r3, r3, r2
 300 01ae 554A     		ldr	r2, .L9+52
 301 01b0 5A60     		str	r2, [r3, #4]
 112:.\DispenserSink.c ****         
 113:.\DispenserSink.c ****         psubscriber->_arrmsgid[index] = DISPENSER_PUMP_HANDLER;
 302              		.loc 1 113 0
 303 01b2 BB7A     		ldrb	r3, [r7, #10]	@ zero_extendqisi2
 304 01b4 FA68     		ldr	r2, [r7, #12]
 305 01b6 1344     		add	r3, r3, r2
 306 01b8 1422     		movs	r2, #20
 307 01ba 5A70     		strb	r2, [r3, #1]
 114:.\DispenserSink.c ****         psubscriber->Callback[index++] = DispenserHandler;
 308              		.loc 1 114 0
 309 01bc BB7A     		ldrb	r3, [r7, #10]	@ zero_extendqisi2
 310 01be 5A1C     		adds	r2, r3, #1
 311 01c0 BA72     		strb	r2, [r7, #10]
 312 01c2 FA68     		ldr	r2, [r7, #12]
 313 01c4 0233     		adds	r3, r3, #2
 314 01c6 9B00     		lsls	r3, r3, #2
 315 01c8 1344     		add	r3, r3, r2
 316 01ca 4F4A     		ldr	r2, .L9+56
 317 01cc 5A60     		str	r2, [r3, #4]
 115:.\DispenserSink.c **** 
 116:.\DispenserSink.c ****         psubscriber->_arrmsgid[index] = DISPENSER_PUMP_BEEP_WARNING;
 318              		.loc 1 116 0
 319 01ce BB7A     		ldrb	r3, [r7, #10]	@ zero_extendqisi2
 320 01d0 FA68     		ldr	r2, [r7, #12]
 321 01d2 1344     		add	r3, r3, r2
 322 01d4 1522     		movs	r2, #21
 323 01d6 5A70     		strb	r2, [r3, #1]
 117:.\DispenserSink.c ****         psubscriber->Callback[index++] = DispenserBeepWarning;
 324              		.loc 1 117 0
 325 01d8 BB7A     		ldrb	r3, [r7, #10]	@ zero_extendqisi2
 326 01da 5A1C     		adds	r2, r3, #1
 327 01dc BA72     		strb	r2, [r7, #10]
 328 01de FA68     		ldr	r2, [r7, #12]
 329 01e0 0233     		adds	r3, r3, #2
 330 01e2 9B00     		lsls	r3, r3, #2
 331 01e4 1344     		add	r3, r3, r2
 332 01e6 494A     		ldr	r2, .L9+60
 333 01e8 5A60     		str	r2, [r3, #4]
 334              	.L3:
 335              	.LBE3:
 118:.\DispenserSink.c ****     }    
 119:.\DispenserSink.c ****     //This perpetual call is in charge of updating the global pump state array
 120:.\DispenserSink.c ****     //so the different modules could inquiry on those states
 121:.\DispenserSink.c ****     //This one-shot call is in charge of loading the current dispenser configuration regarding
ARM GAS  C:\Users\RECEPC~1\AppData\Local\Temp\ccMrdYRj.s 			page 9


 122:.\DispenserSink.c ****     //money, volume and ppu decimal formats, pump layout, pump model, display type, volume unit etc
 123:.\DispenserSink.c **** 
 124:.\DispenserSink.c ****     #ifdef FAST_STARTUP
 125:.\DispenserSink.c ****     _ALLOCATE_SINKMESSAGE_SLOT(psinkmsg);
 336              		.loc 1 125 0
 337 01ea FFF7FEFF 		bl	AllocateMessageSlot
 338 01ee 7860     		str	r0, [r7, #4]
 126:.\DispenserSink.c ****     if(psinkmsg)
 339              		.loc 1 126 0
 340 01f0 7B68     		ldr	r3, [r7, #4]
 341 01f2 002B     		cmp	r3, #0
 342 01f4 0CD0     		beq	.L4
 127:.\DispenserSink.c ****     {
 128:.\DispenserSink.c ****         psinkmsg->_messageid = DISPENSER_ENUMERATE_VISIBLE_PUMPS;
 343              		.loc 1 128 0
 344 01f6 7B68     		ldr	r3, [r7, #4]
 345 01f8 0E22     		movs	r2, #14
 346 01fa 5A70     		strb	r2, [r3, #1]
 129:.\DispenserSink.c ****         psinkmsg->_messagedelay = _SINK_TIMEOUT_10S_;
 347              		.loc 1 129 0
 348 01fc 7B68     		ldr	r3, [r7, #4]
 349 01fe 42F21072 		movw	r2, #10000
 350 0202 9A80     		strh	r2, [r3, #4]	@ movhi
 130:.\DispenserSink.c ****         psinkmsg->_messagetype = DELAYEDALLINTERESTED;
 351              		.loc 1 130 0
 352 0204 7B68     		ldr	r3, [r7, #4]
 353 0206 0522     		movs	r2, #5
 354 0208 9A70     		strb	r2, [r3, #2]
 131:.\DispenserSink.c ****         psinkmsg->_messagestate = SINK_BUSY;
 355              		.loc 1 131 0
 356 020a 7B68     		ldr	r3, [r7, #4]
 357 020c 0322     		movs	r2, #3
 358 020e DA70     		strb	r2, [r3, #3]
 359              	.L4:
 132:.\DispenserSink.c ****     }    
 133:.\DispenserSink.c ****     _REALLOCATE_SINKMESSAGE_SLOT(psinkmsg);
 360              		.loc 1 133 0
 361 0210 FFF7FEFF 		bl	AllocateMessageSlot
 362 0214 7860     		str	r0, [r7, #4]
 134:.\DispenserSink.c ****     if(psinkmsg)
 363              		.loc 1 134 0
 364 0216 7B68     		ldr	r3, [r7, #4]
 365 0218 002B     		cmp	r3, #0
 366 021a 0CD0     		beq	.L5
 135:.\DispenserSink.c ****     {
 136:.\DispenserSink.c ****         psinkmsg->_messageid = DISPENSER_ACQUIRE_CONFIGURATION_INFORMATION;
 367              		.loc 1 136 0
 368 021c 7B68     		ldr	r3, [r7, #4]
 369 021e 0F22     		movs	r2, #15
 370 0220 5A70     		strb	r2, [r3, #1]
 137:.\DispenserSink.c ****         psinkmsg->_messagedelay = _SINK_TIMEOUT_15S_;
 371              		.loc 1 137 0
 372 0222 7B68     		ldr	r3, [r7, #4]
 373 0224 43F69822 		movw	r2, #15000
 374 0228 9A80     		strh	r2, [r3, #4]	@ movhi
 138:.\DispenserSink.c ****         psinkmsg->_messagetype = DELAYEDALLINTERESTED;
 375              		.loc 1 138 0
ARM GAS  C:\Users\RECEPC~1\AppData\Local\Temp\ccMrdYRj.s 			page 10


 376 022a 7B68     		ldr	r3, [r7, #4]
 377 022c 0522     		movs	r2, #5
 378 022e 9A70     		strb	r2, [r3, #2]
 139:.\DispenserSink.c ****         psinkmsg->_messagestate = SINK_BUSY;
 379              		.loc 1 139 0
 380 0230 7B68     		ldr	r3, [r7, #4]
 381 0232 0322     		movs	r2, #3
 382 0234 DA70     		strb	r2, [r3, #3]
 383              	.L5:
 140:.\DispenserSink.c ****     }
 141:.\DispenserSink.c ****     _REALLOCATE_SINKMESSAGE_SLOT(psinkmsg);
 384              		.loc 1 141 0
 385 0236 FFF7FEFF 		bl	AllocateMessageSlot
 386 023a 7860     		str	r0, [r7, #4]
 142:.\DispenserSink.c ****     if(psinkmsg)
 387              		.loc 1 142 0
 388 023c 7B68     		ldr	r3, [r7, #4]
 389 023e 002B     		cmp	r3, #0
 390 0240 0CD0     		beq	.L6
 143:.\DispenserSink.c ****     {
 144:.\DispenserSink.c ****         psinkmsg->_messageid = WATCHDOG_STARTUP;
 391              		.loc 1 144 0
 392 0242 7B68     		ldr	r3, [r7, #4]
 393 0244 2922     		movs	r2, #41
 394 0246 5A70     		strb	r2, [r3, #1]
 145:.\DispenserSink.c ****         psinkmsg->_messagedelay = _SINK_TIMEOUT_20S_;
 395              		.loc 1 145 0
 396 0248 7B68     		ldr	r3, [r7, #4]
 397 024a 44F62062 		movw	r2, #20000
 398 024e 9A80     		strh	r2, [r3, #4]	@ movhi
 146:.\DispenserSink.c ****         psinkmsg->_messagetype = DELAYEDALLINTERESTED;
 399              		.loc 1 146 0
 400 0250 7B68     		ldr	r3, [r7, #4]
 401 0252 0522     		movs	r2, #5
 402 0254 9A70     		strb	r2, [r3, #2]
 147:.\DispenserSink.c ****         psinkmsg->_messagestate = SINK_BUSY;
 403              		.loc 1 147 0
 404 0256 7B68     		ldr	r3, [r7, #4]
 405 0258 0322     		movs	r2, #3
 406 025a DA70     		strb	r2, [r3, #3]
 407              	.L6:
 148:.\DispenserSink.c ****     }
 149:.\DispenserSink.c ****     _REALLOCATE_SINKMESSAGE_SLOT(psinkmsg);
 408              		.loc 1 149 0
 409 025c FFF7FEFF 		bl	AllocateMessageSlot
 410 0260 7860     		str	r0, [r7, #4]
 150:.\DispenserSink.c ****     if(psinkmsg)
 411              		.loc 1 150 0
 412 0262 7B68     		ldr	r3, [r7, #4]
 413 0264 002B     		cmp	r3, #0
 414 0266 0FD0     		beq	.L7
 151:.\DispenserSink.c ****     {
 152:.\DispenserSink.c ****         psinkmsg->_messageid = DISPENSER_ACQUIRE_PUMP_STATE;
 415              		.loc 1 152 0
 416 0268 7B68     		ldr	r3, [r7, #4]
 417 026a 0822     		movs	r2, #8
 418 026c 5A70     		strb	r2, [r3, #1]
ARM GAS  C:\Users\RECEPC~1\AppData\Local\Temp\ccMrdYRj.s 			page 11


 153:.\DispenserSink.c ****         psinkmsg->_messagedelay = _SINK_TIMEOUT_20S_;
 419              		.loc 1 153 0
 420 026e 7B68     		ldr	r3, [r7, #4]
 421 0270 44F62062 		movw	r2, #20000
 422 0274 9A80     		strh	r2, [r3, #4]	@ movhi
 154:.\DispenserSink.c ****         #ifndef ADVANTAGE_PROTOCOL
 155:.\DispenserSink.c ****         psinkmsg->_messagetimeoutlimit = _SINK_TIMEOUT_250MS_;
 423              		.loc 1 155 0
 424 0276 7B68     		ldr	r3, [r7, #4]
 425 0278 FA22     		movs	r2, #250
 426 027a 5A81     		strh	r2, [r3, #10]	@ movhi
 156:.\DispenserSink.c ****         #endif
 157:.\DispenserSink.c ****         #ifdef ADVANTAGE_PROTOCOL
 158:.\DispenserSink.c ****         psinkmsg->_messagetimeoutlimit = _SINK_TIMEOUT_500MS_;
 159:.\DispenserSink.c ****         #endif
 160:.\DispenserSink.c ****         psinkmsg->_messagetype = FIRSTFOUNDFOREVER;
 427              		.loc 1 160 0
 428 027c 7B68     		ldr	r3, [r7, #4]
 429 027e 0622     		movs	r2, #6
 430 0280 9A70     		strb	r2, [r3, #2]
 161:.\DispenserSink.c ****         psinkmsg->_messagestate = SINK_BUSY;
 431              		.loc 1 161 0
 432 0282 7B68     		ldr	r3, [r7, #4]
 433 0284 0322     		movs	r2, #3
 434 0286 DA70     		strb	r2, [r3, #3]
 435              	.L7:
 162:.\DispenserSink.c ****     }
 163:.\DispenserSink.c ****     #endif
 164:.\DispenserSink.c ****     #ifdef SLOW_STARTUP
 165:.\DispenserSink.c ****     _ALLOCATE_SINKMESSAGE_SLOT(psinkmsg);
 166:.\DispenserSink.c ****     if(psinkmsg)
 167:.\DispenserSink.c ****     {
 168:.\DispenserSink.c ****         psinkmsg->_messageid = DISPENSER_ENUMERATE_VISIBLE_PUMPS;
 169:.\DispenserSink.c ****         psinkmsg->_messagedelay = _SINK_TIMEOUT_40S_;
 170:.\DispenserSink.c ****         psinkmsg->_messagetype = DELAYEDALLINTERESTED;
 171:.\DispenserSink.c ****         psinkmsg->_messagestate = SINK_BUSY;
 172:.\DispenserSink.c ****     }
 173:.\DispenserSink.c ****     
 174:.\DispenserSink.c ****     _REALLOCATE_SINKMESSAGE_SLOT(psinkmsg);
 175:.\DispenserSink.c ****     if(psinkmsg)
 176:.\DispenserSink.c ****     {
 177:.\DispenserSink.c ****         psinkmsg->_messageid = DISPENSER_ACQUIRE_CONFIGURATION_INFORMATION;
 178:.\DispenserSink.c ****         psinkmsg->_messagedelay = _SINK_TIMEOUT_45S_;
 179:.\DispenserSink.c ****         psinkmsg->_messagetype = DELAYEDALLINTERESTED;
 180:.\DispenserSink.c ****         psinkmsg->_messagestate = SINK_BUSY;
 181:.\DispenserSink.c ****     }
 182:.\DispenserSink.c ****     _REALLOCATE_SINKMESSAGE_SLOT(psinkmsg);
 183:.\DispenserSink.c ****     if(psinkmsg)
 184:.\DispenserSink.c ****     {
 185:.\DispenserSink.c ****         psinkmsg->_messageid = WATCHDOG_STARTUP;
 186:.\DispenserSink.c ****         psinkmsg->_messagedelay = _SINK_TIMEOUT_50S_;
 187:.\DispenserSink.c ****         psinkmsg->_messagetype = DELAYEDALLINTERESTED;
 188:.\DispenserSink.c ****         psinkmsg->_messagestate = SINK_BUSY;
 189:.\DispenserSink.c ****     }
 190:.\DispenserSink.c ****     _REALLOCATE_SINKMESSAGE_SLOT(psinkmsg);
 191:.\DispenserSink.c ****     if(psinkmsg)
 192:.\DispenserSink.c ****     {
ARM GAS  C:\Users\RECEPC~1\AppData\Local\Temp\ccMrdYRj.s 			page 12


 193:.\DispenserSink.c ****         psinkmsg->_messageid = DISPENSER_ACQUIRE_PUMP_STATE;
 194:.\DispenserSink.c ****         psinkmsg->_messagedelay = _SINK_TIMEOUT_50S_;
 195:.\DispenserSink.c ****         psinkmsg->_messagetimeoutlimit = _SINK_TIMEOUT_250MS_;
 196:.\DispenserSink.c ****         psinkmsg->_messagetype = FIRSTFOUNDFOREVER;
 197:.\DispenserSink.c ****         psinkmsg->_messagestate = SINK_BUSY;
 198:.\DispenserSink.c ****     }
 199:.\DispenserSink.c ****     #endif
 200:.\DispenserSink.c **** 
 201:.\DispenserSink.c ****     _REALLOCATE_SINKMESSAGE_SLOT(psinkmsg);
 436              		.loc 1 201 0
 437 0288 FFF7FEFF 		bl	AllocateMessageSlot
 438 028c 7860     		str	r0, [r7, #4]
 202:.\DispenserSink.c ****     if(psinkmsg)
 439              		.loc 1 202 0
 440 028e 7B68     		ldr	r3, [r7, #4]
 441 0290 002B     		cmp	r3, #0
 442 0292 0ED0     		beq	.L8
 203:.\DispenserSink.c ****     {
 204:.\DispenserSink.c ****         psinkmsg->_messageid = DISPENSER_PUMP_HANDLER;
 443              		.loc 1 204 0
 444 0294 7B68     		ldr	r3, [r7, #4]
 445 0296 1422     		movs	r2, #20
 446 0298 5A70     		strb	r2, [r3, #1]
 205:.\DispenserSink.c ****         psinkmsg->_messagedelay = 0x0000;
 447              		.loc 1 205 0
 448 029a 7B68     		ldr	r3, [r7, #4]
 449 029c 0022     		movs	r2, #0
 450 029e 9A80     		strh	r2, [r3, #4]	@ movhi
 206:.\DispenserSink.c ****         #ifndef ADVANTAGE_PROTOCOL
 207:.\DispenserSink.c ****         psinkmsg->_messagetimeoutlimit = _SINK_TIMEOUT_20MS_;
 451              		.loc 1 207 0
 452 02a0 7B68     		ldr	r3, [r7, #4]
 453 02a2 1422     		movs	r2, #20
 454 02a4 5A81     		strh	r2, [r3, #10]	@ movhi
 208:.\DispenserSink.c ****         #endif
 209:.\DispenserSink.c ****         #ifdef ADVANTAGE_PROTOCOL
 210:.\DispenserSink.c ****         psinkmsg->_messagetimeoutlimit = _SINK_TIMEOUT_30MS_;
 211:.\DispenserSink.c ****         #endif
 212:.\DispenserSink.c ****         psinkmsg->_messagetype = FIRSTFOUNDFOREVER;
 455              		.loc 1 212 0
 456 02a6 7B68     		ldr	r3, [r7, #4]
 457 02a8 0622     		movs	r2, #6
 458 02aa 9A70     		strb	r2, [r3, #2]
 213:.\DispenserSink.c ****         psinkmsg->_messagestate = SINK_BUSY;
 459              		.loc 1 213 0
 460 02ac 7B68     		ldr	r3, [r7, #4]
 461 02ae 0322     		movs	r2, #3
 462 02b0 DA70     		strb	r2, [r3, #3]
 463              	.L8:
 214:.\DispenserSink.c ****     }
 215:.\DispenserSink.c ****             
 216:.\DispenserSink.c ****     _g_dispenserupdatetimeout = Timer_DispenserState_ReadCounter();
 464              		.loc 1 216 0
 465 02b2 FFF7FEFF 		bl	Timer_DispenserState_ReadCounter
 466 02b6 0346     		mov	r3, r0
 467 02b8 1A46     		mov	r2, r3
 468 02ba 154B     		ldr	r3, .L9+64
ARM GAS  C:\Users\RECEPC~1\AppData\Local\Temp\ccMrdYRj.s 			page 13


 469 02bc 1A80     		strh	r2, [r3]	@ movhi
 217:.\DispenserSink.c ****     
 218:.\DispenserSink.c ****     GLOBAL_LOOP_PUSH(DispenserTimeoutHandler);
 470              		.loc 1 218 0
 471 02be 1548     		ldr	r0, .L9+68
 472 02c0 FFF7FEFF 		bl	loop_push
 219:.\DispenserSink.c ****     GLOBAL_LOOP_PUSH(DispenserDataReceptionHandler);
 473              		.loc 1 219 0
 474 02c4 1448     		ldr	r0, .L9+72
 475 02c6 FFF7FEFF 		bl	loop_push
 220:.\DispenserSink.c **** }
 476              		.loc 1 220 0
 477 02ca 1037     		adds	r7, r7, #16
 478              		.cfi_def_cfa_offset 8
 479 02cc BD46     		mov	sp, r7
 480              		.cfi_def_cfa_register 13
 481              		@ sp needed
 482 02ce 80BD     		pop	{r7, pc}
 483              	.L10:
 484              		.align	2
 485              	.L9:
 486 02d0 00000000 		.word	DispenserSide1Listener
 487 02d4 00000000 		.word	DispenserSide2Listener
 488 02d8 00000000 		.word	DispenserUpdateTimeouts
 489 02dc 00000000 		.word	DispenserUpdatePumpState
 490 02e0 00000000 		.word	DispenserLoadEEPROMSettings
 491 02e4 00000000 		.word	DispenserHoseActiveState
 492 02e8 00000000 		.word	DispenserExecuteCashTransaction
 493 02ec 00000000 		.word	DispenserExecuteCreditTransaction
 494 02f0 00000000 		.word	DispenserEnumeratePumps
 495 02f4 00000000 		.word	DispenserAcquireConfiguration
 496 02f8 00000000 		.word	DispenserConfigurePrices
 497 02fc 00000000 		.word	DispenserConfigureSinglePrice
 498 0300 00000000 		.word	DispenserAcquireTotals
 499 0304 00000000 		.word	DispenserRestorePrices
 500 0308 00000000 		.word	DispenserHandler
 501 030c 00000000 		.word	DispenserBeepWarning
 502 0310 00000000 		.word	_g_dispenserupdatetimeout
 503 0314 00000000 		.word	DispenserTimeoutHandler
 504 0318 00000000 		.word	DispenserDataReceptionHandler
 505              		.cfi_endproc
 506              	.LFE63:
 507              		.size	DispenserSinkRegistration, .-DispenserSinkRegistration
 508              		.section	.text.DispenserHandler,"ax",%progbits
 509              		.align	2
 510              		.global	DispenserHandler
 511              		.thumb
 512              		.thumb_func
 513              		.type	DispenserHandler, %function
 514              	DispenserHandler:
 515              	.LFB64:
 221:.\DispenserSink.c **** 
 222:.\DispenserSink.c **** //@Create by: HIJH
 223:.\DispenserSink.c **** //@Date: Septembre de 2016
 224:.\DispenserSink.c **** //This handler checks the transactional queue for pending job requests to execute.
 225:.\DispenserSink.c **** //Once a job is executed, the response is awaited (if required) and monitored for 
 226:.\DispenserSink.c **** //timeouts and retries. It also validates a set of pre-conditions before
ARM GAS  C:\Users\RECEPC~1\AppData\Local\Temp\ccMrdYRj.s 			page 14


 227:.\DispenserSink.c **** //executing the job.
 228:.\DispenserSink.c **** void DispenserHandler()
 229:.\DispenserSink.c **** {
 516              		.loc 1 229 0
 517              		.cfi_startproc
 518              		@ args = 0, pretend = 0, frame = 8
 519              		@ frame_needed = 1, uses_anonymous_args = 0
 520 0000 80B5     		push	{r7, lr}
 521              		.cfi_def_cfa_offset 8
 522              		.cfi_offset 7, -8
 523              		.cfi_offset 14, -4
 524 0002 82B0     		sub	sp, sp, #8
 525              		.cfi_def_cfa_offset 16
 526 0004 00AF     		add	r7, sp, #0
 527              		.cfi_def_cfa_register 7
 230:.\DispenserSink.c ****     PPUMPTRANSACTIONJOBCONTEXTPTR pjob = _g_pumpjobqueue.Peek(&_g_pumpjobqueue);
 528              		.loc 1 230 0
 529 0006 8F4B     		ldr	r3, .L33
 530 0008 D3F8F837 		ldr	r3, [r3, #2040]
 531 000c 8D48     		ldr	r0, .L33
 532 000e 9847     		blx	r3
 533 0010 7860     		str	r0, [r7, #4]
 231:.\DispenserSink.c ****     if(pjob && pjob->_prequest)
 534              		.loc 1 231 0
 535 0012 7B68     		ldr	r3, [r7, #4]
 536 0014 002B     		cmp	r3, #0
 537 0016 00F01181 		beq	.L11
 538              		.loc 1 231 0 is_stmt 0 discriminator 1
 539 001a 7B68     		ldr	r3, [r7, #4]
 540 001c 5B69     		ldr	r3, [r3, #20]
 541 001e 002B     		cmp	r3, #0
 542 0020 00F00C81 		beq	.L11
 543              	.LBB4:
 232:.\DispenserSink.c ****     {
 233:.\DispenserSink.c ****         bool oneshot = false;
 544              		.loc 1 233 0 is_stmt 1
 545 0024 0023     		movs	r3, #0
 546 0026 FB70     		strb	r3, [r7, #3]
 234:.\DispenserSink.c ****         bool preconditions = false;
 547              		.loc 1 234 0
 548 0028 0023     		movs	r3, #0
 549 002a BB70     		strb	r3, [r7, #2]
 235:.\DispenserSink.c ****         bool precondexecuted = false;
 550              		.loc 1 235 0
 551 002c 0023     		movs	r3, #0
 552 002e 7B70     		strb	r3, [r7, #1]
 236:.\DispenserSink.c ****         
 237:.\DispenserSink.c ****         _g_respctxt._bufferready = false;
 553              		.loc 1 237 0
 554 0030 854B     		ldr	r3, .L33+4
 555 0032 0022     		movs	r2, #0
 556 0034 1A71     		strb	r2, [r3, #4]
 238:.\DispenserSink.c ****         _g_respctxt._responsesize = 0x00;
 557              		.loc 1 238 0
 558 0036 844B     		ldr	r3, .L33+4
 559 0038 0022     		movs	r2, #0
 560 003a DA80     		strh	r2, [r3, #6]	@ movhi
ARM GAS  C:\Users\RECEPC~1\AppData\Local\Temp\ccMrdYRj.s 			page 15


 239:.\DispenserSink.c ****         memset(_g_respctxt._rxbuffer, 0x00, 512);
 561              		.loc 1 239 0
 562 003c 8348     		ldr	r0, .L33+8
 563 003e 0021     		movs	r1, #0
 564 0040 4FF40072 		mov	r2, #512
 565 0044 FFF7FEFF 		bl	memset
 240:.\DispenserSink.c ****         memset(pjob->_ppump->_rxbuffer, 0x00, _PUMP_RX_BUFFER_SIZE_);
 566              		.loc 1 240 0
 567 0048 7B68     		ldr	r3, [r7, #4]
 568 004a DB69     		ldr	r3, [r3, #28]
 569 004c 03F5C473 		add	r3, r3, #392
 570 0050 1846     		mov	r0, r3
 571 0052 0021     		movs	r1, #0
 572 0054 4FF4B472 		mov	r2, #360
 573 0058 FFF7FEFF 		bl	memset
 241:.\DispenserSink.c ****         
 242:.\DispenserSink.c ****         FOR(uint8 index = 0, index < _MAX_CONDITION_CODES_, index++)
 574              		.loc 1 242 0
 575 005c 0023     		movs	r3, #0
 576 005e 3B70     		strb	r3, [r7]
 577 0060 79E0     		b	.L13
 578              	.L24:
 243:.\DispenserSink.c ****         {
 244:.\DispenserSink.c ****             if(pjob->_prequest->_preconditions[index] != 0xFF)
 579              		.loc 1 244 0
 580 0062 7B68     		ldr	r3, [r7, #4]
 581 0064 5A69     		ldr	r2, [r3, #20]
 582 0066 3B78     		ldrb	r3, [r7]	@ zero_extendqisi2
 583 0068 1344     		add	r3, r3, r2
 584 006a 9B7F     		ldrb	r3, [r3, #30]	@ zero_extendqisi2
 585 006c FF2B     		cmp	r3, #255
 586 006e 6ED0     		beq	.L14
 245:.\DispenserSink.c ****             {
 246:.\DispenserSink.c ****                 //If the precondition is marked as "One Shot", it will be evaluated only once
 247:.\DispenserSink.c ****                 preconditions = true;
 587              		.loc 1 247 0
 588 0070 0123     		movs	r3, #1
 589 0072 BB70     		strb	r3, [r7, #2]
 248:.\DispenserSink.c ****                 
 249:.\DispenserSink.c ****                 if(!oneshot)
 590              		.loc 1 249 0
 591 0074 FB78     		ldrb	r3, [r7, #3]
 592 0076 83F00103 		eor	r3, r3, #1
 593 007a DBB2     		uxtb	r3, r3
 594 007c 002B     		cmp	r3, #0
 595 007e 05D0     		beq	.L15
 250:.\DispenserSink.c ****                     oneshot = pjob->_prequest->_oneshotpreconditions[index];
 596              		.loc 1 250 0
 597 0080 7B68     		ldr	r3, [r7, #4]
 598 0082 5A69     		ldr	r2, [r3, #20]
 599 0084 3B78     		ldrb	r3, [r7]	@ zero_extendqisi2
 600 0086 1344     		add	r3, r3, r2
 601 0088 9B7E     		ldrb	r3, [r3, #26]
 602 008a FB70     		strb	r3, [r7, #3]
 603              	.L15:
 251:.\DispenserSink.c ****                     
 252:.\DispenserSink.c ****                 //If the condition is met then execute the Request
ARM GAS  C:\Users\RECEPC~1\AppData\Local\Temp\ccMrdYRj.s 			page 16


 253:.\DispenserSink.c ****                 if(pjob->_ppump->_pumpstate == pjob->_prequest->_preconditions[index])
 604              		.loc 1 253 0
 605 008c 7B68     		ldr	r3, [r7, #4]
 606 008e DB69     		ldr	r3, [r3, #28]
 607 0090 9B78     		ldrb	r3, [r3, #2]
 608 0092 DAB2     		uxtb	r2, r3
 609 0094 7B68     		ldr	r3, [r7, #4]
 610 0096 5969     		ldr	r1, [r3, #20]
 611 0098 3B78     		ldrb	r3, [r7]	@ zero_extendqisi2
 612 009a 0B44     		add	r3, r3, r1
 613 009c 9B7F     		ldrb	r3, [r3, #30]	@ zero_extendqisi2
 614 009e 9A42     		cmp	r2, r3
 615 00a0 56D1     		bne	.L16
 254:.\DispenserSink.c ****                 {
 255:.\DispenserSink.c ****                     if(pjob->_prequest->Initialization)
 616              		.loc 1 255 0
 617 00a2 7B68     		ldr	r3, [r7, #4]
 618 00a4 5B69     		ldr	r3, [r3, #20]
 619 00a6 DB6A     		ldr	r3, [r3, #44]
 620 00a8 002B     		cmp	r3, #0
 621 00aa 06D0     		beq	.L17
 256:.\DispenserSink.c ****                         pjob->_prequest->Initialization(pjob->_ppump);                    
 622              		.loc 1 256 0
 623 00ac 7B68     		ldr	r3, [r7, #4]
 624 00ae 5B69     		ldr	r3, [r3, #20]
 625 00b0 DB6A     		ldr	r3, [r3, #44]
 626 00b2 7A68     		ldr	r2, [r7, #4]
 627 00b4 D269     		ldr	r2, [r2, #28]
 628 00b6 1046     		mov	r0, r2
 629 00b8 9847     		blx	r3
 630              	.L17:
 257:.\DispenserSink.c ****                     
 258:.\DispenserSink.c ****                     if(pjob->_prequest->Response)
 631              		.loc 1 258 0
 632 00ba 7B68     		ldr	r3, [r7, #4]
 633 00bc 5B69     		ldr	r3, [r3, #20]
 634 00be 5B68     		ldr	r3, [r3, #4]
 635 00c0 002B     		cmp	r3, #0
 636 00c2 29D0     		beq	.L18
 259:.\DispenserSink.c ****                     {
 260:.\DispenserSink.c ****                         _g_respctxt._pparam = pjob->_ppump;
 637              		.loc 1 260 0
 638 00c4 7B68     		ldr	r3, [r7, #4]
 639 00c6 DB69     		ldr	r3, [r3, #28]
 640 00c8 5F4A     		ldr	r2, .L33+4
 641 00ca 1360     		str	r3, [r2]
 261:.\DispenserSink.c ****                         ///////////////////////////////////////////////////////////////////
 262:.\DispenserSink.c ****                         //This variable holds the expected buffer size for the response
 263:.\DispenserSink.c ****                         if(pjob->_prequest->_responsesize > 0)
 642              		.loc 1 263 0
 643 00cc 7B68     		ldr	r3, [r7, #4]
 644 00ce 5B69     		ldr	r3, [r3, #20]
 645 00d0 1B7E     		ldrb	r3, [r3, #24]	@ zero_extendqisi2
 646 00d2 002B     		cmp	r3, #0
 647 00d4 06D0     		beq	.L19
 264:.\DispenserSink.c ****                             _g_respctxt._responsesize = pjob->_prequest->_responsesize;
 648              		.loc 1 264 0
ARM GAS  C:\Users\RECEPC~1\AppData\Local\Temp\ccMrdYRj.s 			page 17


 649 00d6 7B68     		ldr	r3, [r7, #4]
 650 00d8 5B69     		ldr	r3, [r3, #20]
 651 00da 1B7E     		ldrb	r3, [r3, #24]	@ zero_extendqisi2
 652 00dc 9AB2     		uxth	r2, r3
 653 00de 5A4B     		ldr	r3, .L33+4
 654 00e0 DA80     		strh	r2, [r3, #6]	@ movhi
 655 00e2 04E0     		b	.L20
 656              	.L19:
 265:.\DispenserSink.c ****                         else
 266:.\DispenserSink.c ****                             _g_respctxt.ResponseSizeResolver = pjob->_prequest->ResponseSizeResolve
 657              		.loc 1 266 0
 658 00e4 7B68     		ldr	r3, [r7, #4]
 659 00e6 5B69     		ldr	r3, [r3, #20]
 660 00e8 DB68     		ldr	r3, [r3, #12]
 661 00ea 574A     		ldr	r2, .L33+4
 662 00ec 9360     		str	r3, [r2, #8]
 663              	.L20:
 267:.\DispenserSink.c ****                         ///////////////////////////////////////////////////////////////////
 268:.\DispenserSink.c ****                         pjob->_prequest->Request(pjob->_ppump);
 664              		.loc 1 268 0
 665 00ee 7B68     		ldr	r3, [r7, #4]
 666 00f0 5B69     		ldr	r3, [r3, #20]
 667 00f2 1B68     		ldr	r3, [r3]
 668 00f4 7A68     		ldr	r2, [r7, #4]
 669 00f6 D269     		ldr	r2, [r2, #28]
 670 00f8 1046     		mov	r0, r2
 671 00fa 9847     		blx	r3
 269:.\DispenserSink.c ****                         pjob->_presponse = pjob->_prequest;
 672              		.loc 1 269 0
 673 00fc 7B68     		ldr	r3, [r7, #4]
 674 00fe 5A69     		ldr	r2, [r3, #20]
 675 0100 7B68     		ldr	r3, [r7, #4]
 676 0102 9A61     		str	r2, [r3, #24]
 270:.\DispenserSink.c ****                         pjob->_prequest = NULL;
 677              		.loc 1 270 0
 678 0104 7B68     		ldr	r3, [r7, #4]
 679 0106 0022     		movs	r2, #0
 680 0108 5A61     		str	r2, [r3, #20]
 271:.\DispenserSink.c ****                         
 272:.\DispenserSink.c ****                         //Initialize the reference tick if it has not yet been initialized
 273:.\DispenserSink.c ****                         pjob->_timeoutseed = Timer_DispenserState_ReadCounter();
 681              		.loc 1 273 0
 682 010a FFF7FEFF 		bl	Timer_DispenserState_ReadCounter
 683 010e 0346     		mov	r3, r0
 684 0110 1A46     		mov	r2, r3
 685 0112 7B68     		ldr	r3, [r7, #4]
 686 0114 1A82     		strh	r2, [r3, #16]	@ movhi
 687 0116 17E0     		b	.L21
 688              	.L18:
 274:.\DispenserSink.c ****                         
 275:.\DispenserSink.c ****                     }else{//Dequeue since no response is required for this request
 276:.\DispenserSink.c ****                         pjob->_prequest->Request(pjob->_ppump);
 689              		.loc 1 276 0
 690 0118 7B68     		ldr	r3, [r7, #4]
 691 011a 5B69     		ldr	r3, [r3, #20]
 692 011c 1B68     		ldr	r3, [r3]
 693 011e 7A68     		ldr	r2, [r7, #4]
ARM GAS  C:\Users\RECEPC~1\AppData\Local\Temp\ccMrdYRj.s 			page 18


 694 0120 D269     		ldr	r2, [r2, #28]
 695 0122 1046     		mov	r0, r2
 696 0124 9847     		blx	r3
 277:.\DispenserSink.c ****                         if(pjob->Callback)
 697              		.loc 1 277 0
 698 0126 7B68     		ldr	r3, [r7, #4]
 699 0128 1B6A     		ldr	r3, [r3, #32]
 700 012a 002B     		cmp	r3, #0
 701 012c 05D0     		beq	.L22
 278:.\DispenserSink.c ****                             pjob->Callback(pjob->_pdata);
 702              		.loc 1 278 0
 703 012e 7B68     		ldr	r3, [r7, #4]
 704 0130 1B6A     		ldr	r3, [r3, #32]
 705 0132 7A68     		ldr	r2, [r7, #4]
 706 0134 526A     		ldr	r2, [r2, #36]
 707 0136 1046     		mov	r0, r2
 708 0138 9847     		blx	r3
 709              	.L22:
 279:.\DispenserSink.c ****                         
 280:.\DispenserSink.c ****                         _g_pumpjobqueue.Dequeue(&_g_pumpjobqueue);
 710              		.loc 1 280 0
 711 013a 424B     		ldr	r3, .L33
 712 013c D3F8FC37 		ldr	r3, [r3, #2044]
 713 0140 4048     		ldr	r0, .L33
 714 0142 9847     		blx	r3
 281:.\DispenserSink.c ****                         pjob = NULL;
 715              		.loc 1 281 0
 716 0144 0023     		movs	r3, #0
 717 0146 7B60     		str	r3, [r7, #4]
 718              	.L21:
 282:.\DispenserSink.c ****                     }
 283:.\DispenserSink.c ****                     precondexecuted = true;
 719              		.loc 1 283 0
 720 0148 0123     		movs	r3, #1
 721 014a 7B70     		strb	r3, [r7, #1]
 284:.\DispenserSink.c ****                     break;
 722              		.loc 1 284 0
 723 014c 06E0     		b	.L23
 724              	.L14:
 285:.\DispenserSink.c ****                 }
 286:.\DispenserSink.c ****             }else
 287:.\DispenserSink.c ****                 break;
 725              		.loc 1 287 0
 726 014e 05E0     		b	.L23
 727              	.L16:
 242:.\DispenserSink.c ****         {
 728              		.loc 1 242 0 discriminator 2
 729 0150 3B78     		ldrb	r3, [r7]	@ zero_extendqisi2
 730 0152 0133     		adds	r3, r3, #1
 731 0154 3B70     		strb	r3, [r7]
 732              	.L13:
 242:.\DispenserSink.c ****         {
 733              		.loc 1 242 0 is_stmt 0 discriminator 1
 734 0156 3B78     		ldrb	r3, [r7]	@ zero_extendqisi2
 735 0158 032B     		cmp	r3, #3
 736 015a 82D9     		bls	.L24
 737              	.L23:
ARM GAS  C:\Users\RECEPC~1\AppData\Local\Temp\ccMrdYRj.s 			page 19


 288:.\DispenserSink.c ****         }
 289:.\DispenserSink.c ****         if(!preconditions)
 738              		.loc 1 289 0 is_stmt 1
 739 015c BB78     		ldrb	r3, [r7, #2]
 740 015e 83F00103 		eor	r3, r3, #1
 741 0162 DBB2     		uxtb	r3, r3
 742 0164 002B     		cmp	r3, #0
 743 0166 53D0     		beq	.L25
 290:.\DispenserSink.c ****         {
 291:.\DispenserSink.c ****             if(pjob->_prequest->Initialization)
 744              		.loc 1 291 0
 745 0168 7B68     		ldr	r3, [r7, #4]
 746 016a 5B69     		ldr	r3, [r3, #20]
 747 016c DB6A     		ldr	r3, [r3, #44]
 748 016e 002B     		cmp	r3, #0
 749 0170 06D0     		beq	.L26
 292:.\DispenserSink.c ****                 pjob->_prequest->Initialization(pjob->_ppump);                    
 750              		.loc 1 292 0
 751 0172 7B68     		ldr	r3, [r7, #4]
 752 0174 5B69     		ldr	r3, [r3, #20]
 753 0176 DB6A     		ldr	r3, [r3, #44]
 754 0178 7A68     		ldr	r2, [r7, #4]
 755 017a D269     		ldr	r2, [r2, #28]
 756 017c 1046     		mov	r0, r2
 757 017e 9847     		blx	r3
 758              	.L26:
 293:.\DispenserSink.c ****             
 294:.\DispenserSink.c ****             if(pjob->_prequest->Response)
 759              		.loc 1 294 0
 760 0180 7B68     		ldr	r3, [r7, #4]
 761 0182 5B69     		ldr	r3, [r3, #20]
 762 0184 5B68     		ldr	r3, [r3, #4]
 763 0186 002B     		cmp	r3, #0
 764 0188 29D0     		beq	.L27
 295:.\DispenserSink.c ****             {
 296:.\DispenserSink.c ****                 _g_respctxt._pparam = pjob->_ppump;
 765              		.loc 1 296 0
 766 018a 7B68     		ldr	r3, [r7, #4]
 767 018c DB69     		ldr	r3, [r3, #28]
 768 018e 2E4A     		ldr	r2, .L33+4
 769 0190 1360     		str	r3, [r2]
 297:.\DispenserSink.c ****                 ///////////////////////////////////////////////////////////////////
 298:.\DispenserSink.c ****                 //This variable holds the expected buffer size for the response
 299:.\DispenserSink.c ****                 if(pjob->_prequest->_responsesize > 0)
 770              		.loc 1 299 0
 771 0192 7B68     		ldr	r3, [r7, #4]
 772 0194 5B69     		ldr	r3, [r3, #20]
 773 0196 1B7E     		ldrb	r3, [r3, #24]	@ zero_extendqisi2
 774 0198 002B     		cmp	r3, #0
 775 019a 06D0     		beq	.L28
 300:.\DispenserSink.c ****                     _g_respctxt._responsesize = pjob->_prequest->_responsesize;
 776              		.loc 1 300 0
 777 019c 7B68     		ldr	r3, [r7, #4]
 778 019e 5B69     		ldr	r3, [r3, #20]
 779 01a0 1B7E     		ldrb	r3, [r3, #24]	@ zero_extendqisi2
 780 01a2 9AB2     		uxth	r2, r3
 781 01a4 284B     		ldr	r3, .L33+4
ARM GAS  C:\Users\RECEPC~1\AppData\Local\Temp\ccMrdYRj.s 			page 20


 782 01a6 DA80     		strh	r2, [r3, #6]	@ movhi
 783 01a8 04E0     		b	.L29
 784              	.L28:
 301:.\DispenserSink.c ****                 else
 302:.\DispenserSink.c ****                     _g_respctxt.ResponseSizeResolver = pjob->_prequest->ResponseSizeResolver;
 785              		.loc 1 302 0
 786 01aa 7B68     		ldr	r3, [r7, #4]
 787 01ac 5B69     		ldr	r3, [r3, #20]
 788 01ae DB68     		ldr	r3, [r3, #12]
 789 01b0 254A     		ldr	r2, .L33+4
 790 01b2 9360     		str	r3, [r2, #8]
 791              	.L29:
 303:.\DispenserSink.c ****                 ///////////////////////////////////////////////////////////////////
 304:.\DispenserSink.c ****                 pjob->_prequest->Request(pjob->_ppump);
 792              		.loc 1 304 0
 793 01b4 7B68     		ldr	r3, [r7, #4]
 794 01b6 5B69     		ldr	r3, [r3, #20]
 795 01b8 1B68     		ldr	r3, [r3]
 796 01ba 7A68     		ldr	r2, [r7, #4]
 797 01bc D269     		ldr	r2, [r2, #28]
 798 01be 1046     		mov	r0, r2
 799 01c0 9847     		blx	r3
 305:.\DispenserSink.c ****                 pjob->_presponse = pjob->_prequest;
 800              		.loc 1 305 0
 801 01c2 7B68     		ldr	r3, [r7, #4]
 802 01c4 5A69     		ldr	r2, [r3, #20]
 803 01c6 7B68     		ldr	r3, [r7, #4]
 804 01c8 9A61     		str	r2, [r3, #24]
 306:.\DispenserSink.c ****                 pjob->_prequest = NULL;
 805              		.loc 1 306 0
 806 01ca 7B68     		ldr	r3, [r7, #4]
 807 01cc 0022     		movs	r2, #0
 808 01ce 5A61     		str	r2, [r3, #20]
 307:.\DispenserSink.c **** 
 308:.\DispenserSink.c ****                 //Initialize the reference tick if it has not yet been initialized
 309:.\DispenserSink.c ****                 pjob->_timeoutseed = Timer_DispenserState_ReadCounter();
 809              		.loc 1 309 0
 810 01d0 FFF7FEFF 		bl	Timer_DispenserState_ReadCounter
 811 01d4 0346     		mov	r3, r0
 812 01d6 1A46     		mov	r2, r3
 813 01d8 7B68     		ldr	r3, [r7, #4]
 814 01da 1A82     		strh	r2, [r3, #16]	@ movhi
 815 01dc 2EE0     		b	.L11
 816              	.L27:
 310:.\DispenserSink.c ****                 
 311:.\DispenserSink.c ****             }else{//Since no response is required for this request!!
 312:.\DispenserSink.c ****                 pjob->_prequest->Request(pjob->_ppump);
 817              		.loc 1 312 0
 818 01de 7B68     		ldr	r3, [r7, #4]
 819 01e0 5B69     		ldr	r3, [r3, #20]
 820 01e2 1B68     		ldr	r3, [r3]
 821 01e4 7A68     		ldr	r2, [r7, #4]
 822 01e6 D269     		ldr	r2, [r2, #28]
 823 01e8 1046     		mov	r0, r2
 824 01ea 9847     		blx	r3
 313:.\DispenserSink.c ****                 if(pjob->Callback)
 825              		.loc 1 313 0
ARM GAS  C:\Users\RECEPC~1\AppData\Local\Temp\ccMrdYRj.s 			page 21


 826 01ec 7B68     		ldr	r3, [r7, #4]
 827 01ee 1B6A     		ldr	r3, [r3, #32]
 828 01f0 002B     		cmp	r3, #0
 829 01f2 05D0     		beq	.L31
 314:.\DispenserSink.c ****                     pjob->Callback(pjob->_pdata);
 830              		.loc 1 314 0
 831 01f4 7B68     		ldr	r3, [r7, #4]
 832 01f6 1B6A     		ldr	r3, [r3, #32]
 833 01f8 7A68     		ldr	r2, [r7, #4]
 834 01fa 526A     		ldr	r2, [r2, #36]
 835 01fc 1046     		mov	r0, r2
 836 01fe 9847     		blx	r3
 837              	.L31:
 315:.\DispenserSink.c ****                     
 316:.\DispenserSink.c ****                 _g_pumpjobqueue.Dequeue(&_g_pumpjobqueue);
 838              		.loc 1 316 0
 839 0200 104B     		ldr	r3, .L33
 840 0202 D3F8FC37 		ldr	r3, [r3, #2044]
 841 0206 0F48     		ldr	r0, .L33
 842 0208 9847     		blx	r3
 317:.\DispenserSink.c ****                 pjob = NULL;
 843              		.loc 1 317 0
 844 020a 0023     		movs	r3, #0
 845 020c 7B60     		str	r3, [r7, #4]
 846 020e 15E0     		b	.L11
 847              	.L25:
 318:.\DispenserSink.c ****             }
 319:.\DispenserSink.c ****         }
 320:.\DispenserSink.c ****         else if(!precondexecuted)
 848              		.loc 1 320 0
 849 0210 7B78     		ldrb	r3, [r7, #1]
 850 0212 83F00103 		eor	r3, r3, #1
 851 0216 DBB2     		uxtb	r3, r3
 852 0218 002B     		cmp	r3, #0
 853 021a 0FD0     		beq	.L11
 321:.\DispenserSink.c ****         {
 322:.\DispenserSink.c ****             //If the precondition is marked as "One Shot", it will be evaluated only once
 323:.\DispenserSink.c ****             if(oneshot)
 854              		.loc 1 323 0
 855 021c FB78     		ldrb	r3, [r7, #3]	@ zero_extendqisi2
 856 021e 002B     		cmp	r3, #0
 857 0220 07D0     		beq	.L32
 324:.\DispenserSink.c ****             {
 325:.\DispenserSink.c ****                 _g_pumpjobqueue.Dequeue(&_g_pumpjobqueue);
 858              		.loc 1 325 0
 859 0222 084B     		ldr	r3, .L33
 860 0224 D3F8FC37 		ldr	r3, [r3, #2044]
 861 0228 0648     		ldr	r0, .L33
 862 022a 9847     		blx	r3
 326:.\DispenserSink.c ****                 pjob = NULL;
 863              		.loc 1 326 0
 864 022c 0023     		movs	r3, #0
 865 022e 7B60     		str	r3, [r7, #4]
 866 0230 04E0     		b	.L11
 867              	.L32:
 327:.\DispenserSink.c ****             }
 328:.\DispenserSink.c ****             else
ARM GAS  C:\Users\RECEPC~1\AppData\Local\Temp\ccMrdYRj.s 			page 22


 329:.\DispenserSink.c ****             {
 330:.\DispenserSink.c ****                 //If none of the preconditions are met, then "Re-push" until there is a match
 331:.\DispenserSink.c ****                 //This is pretty useful for the "EOT" state since once the delivery starts, 
 332:.\DispenserSink.c ****                 //the transaction needs to wait for the "EOT" or "IDLE" condition on the pump.
 333:.\DispenserSink.c ****                 _g_pumpjobqueue.Rotate(&_g_pumpjobqueue);
 868              		.loc 1 333 0
 869 0232 044B     		ldr	r3, .L33
 870 0234 D3F8EC37 		ldr	r3, [r3, #2028]
 871 0238 0248     		ldr	r0, .L33
 872 023a 9847     		blx	r3
 873              	.L11:
 874              	.LBE4:
 334:.\DispenserSink.c ****             }
 335:.\DispenserSink.c ****         }
 336:.\DispenserSink.c ****     }
 337:.\DispenserSink.c **** }
 875              		.loc 1 337 0
 876 023c 0837     		adds	r7, r7, #8
 877              		.cfi_def_cfa_offset 8
 878 023e BD46     		mov	sp, r7
 879              		.cfi_def_cfa_register 13
 880              		@ sp needed
 881 0240 80BD     		pop	{r7, pc}
 882              	.L34:
 883 0242 00BF     		.align	2
 884              	.L33:
 885 0244 00000000 		.word	_g_pumpjobqueue
 886 0248 00000000 		.word	_g_respctxt
 887 024c 0C000000 		.word	_g_respctxt+12
 888              		.cfi_endproc
 889              	.LFE64:
 890              		.size	DispenserHandler, .-DispenserHandler
 891              		.global	__aeabi_i2d
 892              		.global	__aeabi_ddiv
 893              		.global	__aeabi_dcmpgt
 894              		.section	.text.DispenserTimeoutHandler,"ax",%progbits
 895              		.align	2
 896              		.global	DispenserTimeoutHandler
 897              		.thumb
 898              		.thumb_func
 899              		.type	DispenserTimeoutHandler, %function
 900              	DispenserTimeoutHandler:
 901              	.LFB65:
 338:.\DispenserSink.c **** 
 339:.\DispenserSink.c **** //@Create by: HIJH
 340:.\DispenserSink.c **** //@Date: Septembre de 2016
 341:.\DispenserSink.c **** //This handler checks the transactional queue for pending job requests to execute.
 342:.\DispenserSink.c **** //Once a job is executed, the response is awaited (if required) and monitored for 
 343:.\DispenserSink.c **** //timeouts and retries. The handler also validates a set of pre conditions to 
 344:.\DispenserSink.c **** //execute the job.
 345:.\DispenserSink.c **** void DispenserTimeoutHandler()
 346:.\DispenserSink.c **** {
 902              		.loc 1 346 0
 903              		.cfi_startproc
 904              		@ args = 0, pretend = 0, frame = 8
 905              		@ frame_needed = 1, uses_anonymous_args = 0
 906 0000 B0B5     		push	{r4, r5, r7, lr}
ARM GAS  C:\Users\RECEPC~1\AppData\Local\Temp\ccMrdYRj.s 			page 23


 907              		.cfi_def_cfa_offset 16
 908              		.cfi_offset 4, -16
 909              		.cfi_offset 5, -12
 910              		.cfi_offset 7, -8
 911              		.cfi_offset 14, -4
 912 0002 82B0     		sub	sp, sp, #8
 913              		.cfi_def_cfa_offset 24
 914 0004 00AF     		add	r7, sp, #0
 915              		.cfi_def_cfa_register 7
 347:.\DispenserSink.c ****     PPUMPTRANSACTIONJOBCONTEXTPTR pjob = _g_pumpjobqueue.Peek(&_g_pumpjobqueue);
 916              		.loc 1 347 0
 917 0006 3A4B     		ldr	r3, .L42
 918 0008 D3F8F837 		ldr	r3, [r3, #2040]
 919 000c 3848     		ldr	r0, .L42
 920 000e 9847     		blx	r3
 921 0010 7860     		str	r0, [r7, #4]
 348:.\DispenserSink.c ****     //Timeout handling
 349:.\DispenserSink.c ****     if(pjob && pjob->_presponse)
 922              		.loc 1 349 0
 923 0012 7B68     		ldr	r3, [r7, #4]
 924 0014 002B     		cmp	r3, #0
 925 0016 68D0     		beq	.L35
 926              		.loc 1 349 0 is_stmt 0 discriminator 1
 927 0018 7B68     		ldr	r3, [r7, #4]
 928 001a 9B69     		ldr	r3, [r3, #24]
 929 001c 002B     		cmp	r3, #0
 930 001e 64D0     		beq	.L35
 350:.\DispenserSink.c ****     {
 351:.\DispenserSink.c ****         if(pjob->_presponse->_responsetimeoutlimit != _NO_TIMEOUT_)
 931              		.loc 1 351 0 is_stmt 1
 932 0020 7B68     		ldr	r3, [r7, #4]
 933 0022 9B69     		ldr	r3, [r3, #24]
 934 0024 1B8A     		ldrh	r3, [r3, #16]
 935 0026 002B     		cmp	r3, #0
 936 0028 5FD0     		beq	.L35
 937              	.LBB5:
 352:.\DispenserSink.c ****         {
 353:.\DispenserSink.c ****             int32 timespan = ((Timer_DispenserState_ReadCounter() + _TIMEOUT_BASE_TIME_*pjob->_time
 938              		.loc 1 353 0
 939 002a FFF7FEFF 		bl	Timer_DispenserState_ReadCounter
 940 002e 0346     		mov	r3, r0
 941 0030 1A46     		mov	r2, r3
 942 0032 7B68     		ldr	r3, [r7, #4]
 943 0034 5B8A     		ldrh	r3, [r3, #18]	@ movhi
 944 0036 9BB2     		uxth	r3, r3
 945 0038 1946     		mov	r1, r3
 946 003a 4FF47A73 		mov	r3, #1000
 947 003e 03FB01F3 		mul	r3, r3, r1
 948 0042 1344     		add	r3, r3, r2
 949 0044 7A68     		ldr	r2, [r7, #4]
 950 0046 128A     		ldrh	r2, [r2, #16]	@ movhi
 951 0048 92B2     		uxth	r2, r2
 952 004a 9B1A     		subs	r3, r3, r2
 953 004c 3B60     		str	r3, [r7]
 354:.\DispenserSink.c ****             if(((double)timespan / (double)_TIMEOUT_BASE_TIME_) > pjob->_presponse->_responsetimeou
 954              		.loc 1 354 0
 955 004e 3868     		ldr	r0, [r7]
ARM GAS  C:\Users\RECEPC~1\AppData\Local\Temp\ccMrdYRj.s 			page 24


 956 0050 FFF7FEFF 		bl	__aeabi_i2d
 957 0054 0246     		mov	r2, r0
 958 0056 0B46     		mov	r3, r1
 959 0058 1046     		mov	r0, r2
 960 005a 1946     		mov	r1, r3
 961 005c 4FF00002 		mov	r2, #0
 962 0060 244B     		ldr	r3, .L42+4
 963 0062 FFF7FEFF 		bl	__aeabi_ddiv
 964 0066 0246     		mov	r2, r0
 965 0068 0B46     		mov	r3, r1
 966 006a 1446     		mov	r4, r2
 967 006c 1D46     		mov	r5, r3
 968 006e 7B68     		ldr	r3, [r7, #4]
 969 0070 9B69     		ldr	r3, [r3, #24]
 970 0072 1B8A     		ldrh	r3, [r3, #16]
 971 0074 1846     		mov	r0, r3
 972 0076 FFF7FEFF 		bl	__aeabi_i2d
 973 007a 0246     		mov	r2, r0
 974 007c 0B46     		mov	r3, r1
 975 007e 2046     		mov	r0, r4
 976 0080 2946     		mov	r1, r5
 977 0082 FFF7FEFF 		bl	__aeabi_dcmpgt
 978 0086 0346     		mov	r3, r0
 979 0088 002B     		cmp	r3, #0
 980 008a 2ED0     		beq	.L35
 355:.\DispenserSink.c ****             {
 356:.\DispenserSink.c ****                 ///TURNING IT INTO A REQUEST AGAIN FOR A LIMITED NUMBER OF RETRIES!
 357:.\DispenserSink.c ****                 pjob->_timeoutmultiplier = 0x0000;
 981              		.loc 1 357 0
 982 008c 7B68     		ldr	r3, [r7, #4]
 983 008e 0022     		movs	r2, #0
 984 0090 5A82     		strh	r2, [r3, #18]	@ movhi
 358:.\DispenserSink.c ****                 pjob->_timeoutseed = 0x0000;
 985              		.loc 1 358 0
 986 0092 7B68     		ldr	r3, [r7, #4]
 987 0094 0022     		movs	r2, #0
 988 0096 1A82     		strh	r2, [r3, #16]	@ movhi
 359:.\DispenserSink.c ****                 
 360:.\DispenserSink.c ****                 pjob->_retriescounter++;
 989              		.loc 1 360 0
 990 0098 7B68     		ldr	r3, [r7, #4]
 991 009a DB89     		ldrh	r3, [r3, #14]	@ movhi
 992 009c 9BB2     		uxth	r3, r3
 993 009e 0133     		adds	r3, r3, #1
 994 00a0 9AB2     		uxth	r2, r3
 995 00a2 7B68     		ldr	r3, [r7, #4]
 996 00a4 DA81     		strh	r2, [r3, #14]	@ movhi
 361:.\DispenserSink.c ****                 //We invoke the timeout Callback if it has been defined
 362:.\DispenserSink.c ****                 if(pjob->_presponse->TimeoutCallback)
 997              		.loc 1 362 0
 998 00a6 7B68     		ldr	r3, [r7, #4]
 999 00a8 9B69     		ldr	r3, [r3, #24]
 1000 00aa 9B68     		ldr	r3, [r3, #8]
 1001 00ac 002B     		cmp	r3, #0
 1002 00ae 04D0     		beq	.L38
 363:.\DispenserSink.c ****                     pjob->_presponse->TimeoutCallback(pjob);
 1003              		.loc 1 363 0
ARM GAS  C:\Users\RECEPC~1\AppData\Local\Temp\ccMrdYRj.s 			page 25


 1004 00b0 7B68     		ldr	r3, [r7, #4]
 1005 00b2 9B69     		ldr	r3, [r3, #24]
 1006 00b4 9B68     		ldr	r3, [r3, #8]
 1007 00b6 7868     		ldr	r0, [r7, #4]
 1008 00b8 9847     		blx	r3
 1009              	.L38:
 364:.\DispenserSink.c **** 
 365:.\DispenserSink.c ****                 if(pjob->_retriescounter > _MAX_RETRIES_){
 1010              		.loc 1 365 0
 1011 00ba 7B68     		ldr	r3, [r7, #4]
 1012 00bc DB89     		ldrh	r3, [r3, #14]	@ movhi
 1013 00be 9BB2     		uxth	r3, r3
 1014 00c0 142B     		cmp	r3, #20
 1015 00c2 07D9     		bls	.L39
 366:.\DispenserSink.c ****                     _g_pumpjobqueue.Dequeue(&_g_pumpjobqueue);
 1016              		.loc 1 366 0
 1017 00c4 0A4B     		ldr	r3, .L42
 1018 00c6 D3F8FC37 		ldr	r3, [r3, #2044]
 1019 00ca 0948     		ldr	r0, .L42
 1020 00cc 9847     		blx	r3
 367:.\DispenserSink.c ****                     pjob = NULL;
 1021              		.loc 1 367 0
 1022 00ce 0023     		movs	r3, #0
 1023 00d0 7B60     		str	r3, [r7, #4]
 1024 00d2 06E0     		b	.L40
 1025              	.L39:
 368:.\DispenserSink.c ****                 }else{
 369:.\DispenserSink.c ****                     pjob->_prequest = pjob->_presponse;
 1026              		.loc 1 369 0
 1027 00d4 7B68     		ldr	r3, [r7, #4]
 1028 00d6 9A69     		ldr	r2, [r3, #24]
 1029 00d8 7B68     		ldr	r3, [r7, #4]
 1030 00da 5A61     		str	r2, [r3, #20]
 370:.\DispenserSink.c ****                     pjob->_presponse = NULL;
 1031              		.loc 1 370 0
 1032 00dc 7B68     		ldr	r3, [r7, #4]
 1033 00de 0022     		movs	r2, #0
 1034 00e0 9A61     		str	r2, [r3, #24]
 1035              	.L40:
 371:.\DispenserSink.c ****                 }
 372:.\DispenserSink.c ****                 
 373:.\DispenserSink.c ****                 Dispenser_ClearRxBuffer();
 1036              		.loc 1 373 0
 1037 00e2 FFF7FEFF 		bl	Dispenser_ClearRxBuffer
 374:.\DispenserSink.c ****                 Dispenser_Enable();
 1038              		.loc 1 374 0
 1039 00e6 FFF7FEFF 		bl	Dispenser_Enable
 1040              	.L35:
 1041              	.LBE5:
 375:.\DispenserSink.c ****             }
 376:.\DispenserSink.c ****         }
 377:.\DispenserSink.c ****     }
 378:.\DispenserSink.c **** }
 1042              		.loc 1 378 0
 1043 00ea 0837     		adds	r7, r7, #8
 1044              		.cfi_def_cfa_offset 16
 1045 00ec BD46     		mov	sp, r7
ARM GAS  C:\Users\RECEPC~1\AppData\Local\Temp\ccMrdYRj.s 			page 26


 1046              		.cfi_def_cfa_register 13
 1047              		@ sp needed
 1048 00ee B0BD     		pop	{r4, r5, r7, pc}
 1049              	.L43:
 1050              		.align	2
 1051              	.L42:
 1052 00f0 00000000 		.word	_g_pumpjobqueue
 1053 00f4 00408F40 		.word	1083129856
 1054              		.cfi_endproc
 1055              	.LFE65:
 1056              		.size	DispenserTimeoutHandler, .-DispenserTimeoutHandler
 1057              		.section	.text.DispenserDataReceptionHandler,"ax",%progbits
 1058              		.align	2
 1059              		.global	DispenserDataReceptionHandler
 1060              		.thumb
 1061              		.thumb_func
 1062              		.type	DispenserDataReceptionHandler, %function
 1063              	DispenserDataReceptionHandler:
 1064              	.LFB66:
 379:.\DispenserSink.c **** 
 380:.\DispenserSink.c **** //@Create by: HIJH
 381:.\DispenserSink.c **** //@Date: Septembre de 2016
 382:.\DispenserSink.c **** //This handler receives the responses from the pump to job requests on top of the queue.
 383:.\DispenserSink.c **** //Once a job is executed, the response is awaited (if required) and monitored for 
 384:.\DispenserSink.c **** //timeouts and retries. The handler also validates a set of post conditions to 
 385:.\DispenserSink.c **** //answer the job.
 386:.\DispenserSink.c **** //void DispenserDataReceptionHandler(void *pparam)
 387:.\DispenserSink.c **** void DispenserDataReceptionHandler()
 388:.\DispenserSink.c **** {
 1065              		.loc 1 388 0
 1066              		.cfi_startproc
 1067              		@ args = 0, pretend = 0, frame = 8
 1068              		@ frame_needed = 1, uses_anonymous_args = 0
 1069 0000 80B5     		push	{r7, lr}
 1070              		.cfi_def_cfa_offset 8
 1071              		.cfi_offset 7, -8
 1072              		.cfi_offset 14, -4
 1073 0002 82B0     		sub	sp, sp, #8
 1074              		.cfi_def_cfa_offset 16
 1075 0004 00AF     		add	r7, sp, #0
 1076              		.cfi_def_cfa_register 7
 389:.\DispenserSink.c ****     if(!_g_respctxt._bufferready)
 1077              		.loc 1 389 0
 1078 0006 8A4B     		ldr	r3, .L68
 1079 0008 1B79     		ldrb	r3, [r3, #4]
 1080 000a DBB2     		uxtb	r3, r3
 1081 000c 83F00103 		eor	r3, r3, #1
 1082 0010 DBB2     		uxtb	r3, r3
 1083 0012 002B     		cmp	r3, #0
 1084 0014 00D0     		beq	.L45
 390:.\DispenserSink.c ****         return;
 1085              		.loc 1 390 0
 1086 0016 42E1     		b	.L44
 1087              	.L45:
 391:.\DispenserSink.c **** 
 392:.\DispenserSink.c ****     //SinkMessage *psinkmsg = (SinkMessage*)pparam;
 393:.\DispenserSink.c ****     /////////////////////////////////////////////////////////////////////////////////////////
ARM GAS  C:\Users\RECEPC~1\AppData\Local\Temp\ccMrdYRj.s 			page 27


 394:.\DispenserSink.c ****     //TODO: PLACE HERE ALL THE NECESSARY CODE TO RESOLVE THE COMPLETENESS OF THE ARRIVED STREAM
 395:.\DispenserSink.c ****     /////////////////////////////////////////////////////////////////////////////////////////
 396:.\DispenserSink.c ****     PPUMPTRANSACTIONJOBCONTEXTPTR pjob = _g_pumpjobqueue.Peek(&_g_pumpjobqueue);
 1088              		.loc 1 396 0
 1089 0018 864B     		ldr	r3, .L68+4
 1090 001a D3F8F837 		ldr	r3, [r3, #2040]
 1091 001e 8548     		ldr	r0, .L68+4
 1092 0020 9847     		blx	r3
 1093 0022 7860     		str	r0, [r7, #4]
 397:.\DispenserSink.c ****     if(pjob && pjob->_presponse)
 1094              		.loc 1 397 0
 1095 0024 7B68     		ldr	r3, [r7, #4]
 1096 0026 002B     		cmp	r3, #0
 1097 0028 00F01F81 		beq	.L47
 1098              		.loc 1 397 0 is_stmt 0 discriminator 1
 1099 002c 7B68     		ldr	r3, [r7, #4]
 1100 002e 9B69     		ldr	r3, [r3, #24]
 1101 0030 002B     		cmp	r3, #0
 1102 0032 00F01A81 		beq	.L47
 1103              	.LBB6:
 398:.\DispenserSink.c ****     {
 399:.\DispenserSink.c ****         pjob->_timeoutmultiplier = 0x0000;
 1104              		.loc 1 399 0 is_stmt 1
 1105 0036 7B68     		ldr	r3, [r7, #4]
 1106 0038 0022     		movs	r2, #0
 1107 003a 5A82     		strh	r2, [r3, #18]	@ movhi
 400:.\DispenserSink.c ****         pjob->_timeoutseed = 0x0000;
 1108              		.loc 1 400 0
 1109 003c 7B68     		ldr	r3, [r7, #4]
 1110 003e 0022     		movs	r2, #0
 1111 0040 1A82     		strh	r2, [r3, #16]	@ movhi
 401:.\DispenserSink.c ****         memcpy(pjob->_ppump->_rxbuffer, _g_respctxt._rxbuffer, _g_respctxt._responsesize);
 1112              		.loc 1 401 0
 1113 0042 7B68     		ldr	r3, [r7, #4]
 1114 0044 DB69     		ldr	r3, [r3, #28]
 1115 0046 03F5C472 		add	r2, r3, #392
 1116 004a 794B     		ldr	r3, .L68
 1117 004c DB88     		ldrh	r3, [r3, #6]	@ movhi
 1118 004e 9BB2     		uxth	r3, r3
 1119 0050 1046     		mov	r0, r2
 1120 0052 7949     		ldr	r1, .L68+8
 1121 0054 1A46     		mov	r2, r3
 1122 0056 FFF7FEFF 		bl	memcpy
 402:.\DispenserSink.c ****         pjob->_ppump->_rxbuffersize = _g_respctxt._responsesize;
 1123              		.loc 1 402 0
 1124 005a 7B68     		ldr	r3, [r7, #4]
 1125 005c DB69     		ldr	r3, [r3, #28]
 1126 005e 744A     		ldr	r2, .L68
 1127 0060 D288     		ldrh	r2, [r2, #6]	@ movhi
 1128 0062 92B2     		uxth	r2, r2
 1129 0064 A3F8F022 		strh	r2, [r3, #752]	@ movhi
 403:.\DispenserSink.c ****         
 404:.\DispenserSink.c ****         bool oneshot = false;
 1130              		.loc 1 404 0
 1131 0068 0023     		movs	r3, #0
 1132 006a FB70     		strb	r3, [r7, #3]
 405:.\DispenserSink.c ****         bool postconditions = false;
ARM GAS  C:\Users\RECEPC~1\AppData\Local\Temp\ccMrdYRj.s 			page 28


 1133              		.loc 1 405 0
 1134 006c 0023     		movs	r3, #0
 1135 006e BB70     		strb	r3, [r7, #2]
 406:.\DispenserSink.c ****         bool postcondexecuted = false;
 1136              		.loc 1 406 0
 1137 0070 0023     		movs	r3, #0
 1138 0072 7B70     		strb	r3, [r7, #1]
 407:.\DispenserSink.c ****         FOR(uint8 index = 0, index < _MAX_CONDITION_CODES_, index++)
 1139              		.loc 1 407 0
 1140 0074 0023     		movs	r3, #0
 1141 0076 3B70     		strb	r3, [r7]
 1142 0078 66E0     		b	.L48
 1143              	.L57:
 408:.\DispenserSink.c ****         {
 409:.\DispenserSink.c ****             //If none the post conditions are met, then this job item MUST timeout
 410:.\DispenserSink.c ****             //so it will be launched again for a predefined number of retries (see the code in the 
 411:.\DispenserSink.c ****             if(pjob->_presponse->_postconditions[index] != 0xFF)
 1144              		.loc 1 411 0
 1145 007a 7B68     		ldr	r3, [r7, #4]
 1146 007c 9A69     		ldr	r2, [r3, #24]
 1147 007e 3B78     		ldrb	r3, [r7]	@ zero_extendqisi2
 1148 0080 1344     		add	r3, r3, r2
 1149 0082 93F82630 		ldrb	r3, [r3, #38]	@ zero_extendqisi2
 1150 0086 FF2B     		cmp	r3, #255
 1151 0088 5AD0     		beq	.L49
 412:.\DispenserSink.c ****             {
 413:.\DispenserSink.c ****                 postconditions = true;
 1152              		.loc 1 413 0
 1153 008a 0123     		movs	r3, #1
 1154 008c BB70     		strb	r3, [r7, #2]
 414:.\DispenserSink.c ****                 if(!oneshot)
 1155              		.loc 1 414 0
 1156 008e FB78     		ldrb	r3, [r7, #3]
 1157 0090 83F00103 		eor	r3, r3, #1
 1158 0094 DBB2     		uxtb	r3, r3
 1159 0096 002B     		cmp	r3, #0
 1160 0098 06D0     		beq	.L50
 415:.\DispenserSink.c ****                     oneshot = pjob->_presponse->_oneshotpostconditions[index];
 1161              		.loc 1 415 0
 1162 009a 7B68     		ldr	r3, [r7, #4]
 1163 009c 9A69     		ldr	r2, [r3, #24]
 1164 009e 3B78     		ldrb	r3, [r7]	@ zero_extendqisi2
 1165 00a0 1344     		add	r3, r3, r2
 1166 00a2 93F82230 		ldrb	r3, [r3, #34]
 1167 00a6 FB70     		strb	r3, [r7, #3]
 1168              	.L50:
 416:.\DispenserSink.c ****                  
 417:.\DispenserSink.c ****                 pjob->_presponse->Response(pjob);
 1169              		.loc 1 417 0
 1170 00a8 7B68     		ldr	r3, [r7, #4]
 1171 00aa 9B69     		ldr	r3, [r3, #24]
 1172 00ac 5B68     		ldr	r3, [r3, #4]
 1173 00ae 7868     		ldr	r0, [r7, #4]
 1174 00b0 9847     		blx	r3
 418:.\DispenserSink.c ****                 //If the condition is met then execute the response Callback
 419:.\DispenserSink.c ****                 if(pjob->_ppump->_pumpstate == pjob->_presponse->_postconditions[index])
 1175              		.loc 1 419 0
ARM GAS  C:\Users\RECEPC~1\AppData\Local\Temp\ccMrdYRj.s 			page 29


 1176 00b2 7B68     		ldr	r3, [r7, #4]
 1177 00b4 DB69     		ldr	r3, [r3, #28]
 1178 00b6 9B78     		ldrb	r3, [r3, #2]
 1179 00b8 DAB2     		uxtb	r2, r3
 1180 00ba 7B68     		ldr	r3, [r7, #4]
 1181 00bc 9969     		ldr	r1, [r3, #24]
 1182 00be 3B78     		ldrb	r3, [r7]	@ zero_extendqisi2
 1183 00c0 0B44     		add	r3, r3, r1
 1184 00c2 93F82630 		ldrb	r3, [r3, #38]	@ zero_extendqisi2
 1185 00c6 9A42     		cmp	r2, r3
 1186 00c8 3BD1     		bne	.L51
 420:.\DispenserSink.c ****                 {
 421:.\DispenserSink.c ****                     if(!pjob->_reenqueue)
 1187              		.loc 1 421 0
 1188 00ca 7B68     		ldr	r3, [r7, #4]
 1189 00cc 1B78     		ldrb	r3, [r3]
 1190 00ce DBB2     		uxtb	r3, r3
 1191 00d0 83F00103 		eor	r3, r3, #1
 1192 00d4 DBB2     		uxtb	r3, r3
 1193 00d6 002B     		cmp	r3, #0
 1194 00d8 13D0     		beq	.L52
 422:.\DispenserSink.c ****                     {
 423:.\DispenserSink.c ****                         if(pjob->_presponse->Finalization)
 1195              		.loc 1 423 0
 1196 00da 7B68     		ldr	r3, [r7, #4]
 1197 00dc 9B69     		ldr	r3, [r3, #24]
 1198 00de 1B6B     		ldr	r3, [r3, #48]
 1199 00e0 002B     		cmp	r3, #0
 1200 00e2 04D0     		beq	.L53
 424:.\DispenserSink.c ****                             pjob->_presponse->Finalization(pjob);
 1201              		.loc 1 424 0
 1202 00e4 7B68     		ldr	r3, [r7, #4]
 1203 00e6 9B69     		ldr	r3, [r3, #24]
 1204 00e8 1B6B     		ldr	r3, [r3, #48]
 1205 00ea 7868     		ldr	r0, [r7, #4]
 1206 00ec 9847     		blx	r3
 1207              	.L53:
 425:.\DispenserSink.c ****                             
 426:.\DispenserSink.c ****                         if(pjob->Callback)
 1208              		.loc 1 426 0
 1209 00ee 7B68     		ldr	r3, [r7, #4]
 1210 00f0 1B6A     		ldr	r3, [r3, #32]
 1211 00f2 002B     		cmp	r3, #0
 1212 00f4 05D0     		beq	.L52
 427:.\DispenserSink.c ****                             pjob->Callback(pjob->_pdata);
 1213              		.loc 1 427 0
 1214 00f6 7B68     		ldr	r3, [r7, #4]
 1215 00f8 1B6A     		ldr	r3, [r3, #32]
 1216 00fa 7A68     		ldr	r2, [r7, #4]
 1217 00fc 526A     		ldr	r2, [r2, #36]
 1218 00fe 1046     		mov	r0, r2
 1219 0100 9847     		blx	r3
 1220              	.L52:
 428:.\DispenserSink.c ****                     }
 429:.\DispenserSink.c ****                     
 430:.\DispenserSink.c ****                     if(!pjob->_reenqueue)
 1221              		.loc 1 430 0
ARM GAS  C:\Users\RECEPC~1\AppData\Local\Temp\ccMrdYRj.s 			page 30


 1222 0102 7B68     		ldr	r3, [r7, #4]
 1223 0104 1B78     		ldrb	r3, [r3]
 1224 0106 DBB2     		uxtb	r3, r3
 1225 0108 83F00103 		eor	r3, r3, #1
 1226 010c DBB2     		uxtb	r3, r3
 1227 010e 002B     		cmp	r3, #0
 1228 0110 07D0     		beq	.L54
 431:.\DispenserSink.c ****                     {
 432:.\DispenserSink.c ****                         _g_pumpjobqueue.Dequeue(&_g_pumpjobqueue);
 1229              		.loc 1 432 0
 1230 0112 484B     		ldr	r3, .L68+4
 1231 0114 D3F8FC37 		ldr	r3, [r3, #2044]
 1232 0118 4648     		ldr	r0, .L68+4
 1233 011a 9847     		blx	r3
 433:.\DispenserSink.c ****                         pjob = NULL;
 1234              		.loc 1 433 0
 1235 011c 0023     		movs	r3, #0
 1236 011e 7B60     		str	r3, [r7, #4]
 1237 0120 0BE0     		b	.L55
 1238              	.L54:
 434:.\DispenserSink.c ****                     }else{
 435:.\DispenserSink.c ****                         pjob->_prequest = pjob->_presponse;
 1239              		.loc 1 435 0
 1240 0122 7B68     		ldr	r3, [r7, #4]
 1241 0124 9A69     		ldr	r2, [r3, #24]
 1242 0126 7B68     		ldr	r3, [r7, #4]
 1243 0128 5A61     		str	r2, [r3, #20]
 436:.\DispenserSink.c ****                         pjob->_presponse = NULL;
 1244              		.loc 1 436 0
 1245 012a 7B68     		ldr	r3, [r7, #4]
 1246 012c 0022     		movs	r2, #0
 1247 012e 9A61     		str	r2, [r3, #24]
 437:.\DispenserSink.c ****                         _g_pumpjobqueue.Rotate(&_g_pumpjobqueue);
 1248              		.loc 1 437 0
 1249 0130 404B     		ldr	r3, .L68+4
 1250 0132 D3F8EC37 		ldr	r3, [r3, #2028]
 1251 0136 3F48     		ldr	r0, .L68+4
 1252 0138 9847     		blx	r3
 1253              	.L55:
 438:.\DispenserSink.c ****                     }
 439:.\DispenserSink.c ****                     postcondexecuted = true;
 1254              		.loc 1 439 0
 1255 013a 0123     		movs	r3, #1
 1256 013c 7B70     		strb	r3, [r7, #1]
 440:.\DispenserSink.c ****                     break;
 1257              		.loc 1 440 0
 1258 013e 06E0     		b	.L56
 1259              	.L49:
 441:.\DispenserSink.c ****                 }
 442:.\DispenserSink.c ****             }else
 443:.\DispenserSink.c ****                 break;
 1260              		.loc 1 443 0
 1261 0140 05E0     		b	.L56
 1262              	.L51:
 407:.\DispenserSink.c ****         {
 1263              		.loc 1 407 0 discriminator 2
 1264 0142 3B78     		ldrb	r3, [r7]	@ zero_extendqisi2
ARM GAS  C:\Users\RECEPC~1\AppData\Local\Temp\ccMrdYRj.s 			page 31


 1265 0144 0133     		adds	r3, r3, #1
 1266 0146 3B70     		strb	r3, [r7]
 1267              	.L48:
 407:.\DispenserSink.c ****         {
 1268              		.loc 1 407 0 is_stmt 0 discriminator 1
 1269 0148 3B78     		ldrb	r3, [r7]	@ zero_extendqisi2
 1270 014a 032B     		cmp	r3, #3
 1271 014c 95D9     		bls	.L57
 1272              	.L56:
 444:.\DispenserSink.c ****         }
 445:.\DispenserSink.c ****         if(!postconditions)
 1273              		.loc 1 445 0 is_stmt 1
 1274 014e BB78     		ldrb	r3, [r7, #2]
 1275 0150 83F00103 		eor	r3, r3, #1
 1276 0154 DBB2     		uxtb	r3, r3
 1277 0156 002B     		cmp	r3, #0
 1278 0158 38D0     		beq	.L58
 446:.\DispenserSink.c ****         {                
 447:.\DispenserSink.c ****             pjob->_presponse->Response(pjob);
 1279              		.loc 1 447 0
 1280 015a 7B68     		ldr	r3, [r7, #4]
 1281 015c 9B69     		ldr	r3, [r3, #24]
 1282 015e 5B68     		ldr	r3, [r3, #4]
 1283 0160 7868     		ldr	r0, [r7, #4]
 1284 0162 9847     		blx	r3
 448:.\DispenserSink.c ****             
 449:.\DispenserSink.c ****             if(!pjob->_reenqueue)
 1285              		.loc 1 449 0
 1286 0164 7B68     		ldr	r3, [r7, #4]
 1287 0166 1B78     		ldrb	r3, [r3]
 1288 0168 DBB2     		uxtb	r3, r3
 1289 016a 83F00103 		eor	r3, r3, #1
 1290 016e DBB2     		uxtb	r3, r3
 1291 0170 002B     		cmp	r3, #0
 1292 0172 13D0     		beq	.L59
 450:.\DispenserSink.c ****             {
 451:.\DispenserSink.c ****                 if(pjob->_presponse->Finalization)
 1293              		.loc 1 451 0
 1294 0174 7B68     		ldr	r3, [r7, #4]
 1295 0176 9B69     		ldr	r3, [r3, #24]
 1296 0178 1B6B     		ldr	r3, [r3, #48]
 1297 017a 002B     		cmp	r3, #0
 1298 017c 04D0     		beq	.L60
 452:.\DispenserSink.c ****                     pjob->_presponse->Finalization(pjob);
 1299              		.loc 1 452 0
 1300 017e 7B68     		ldr	r3, [r7, #4]
 1301 0180 9B69     		ldr	r3, [r3, #24]
 1302 0182 1B6B     		ldr	r3, [r3, #48]
 1303 0184 7868     		ldr	r0, [r7, #4]
 1304 0186 9847     		blx	r3
 1305              	.L60:
 453:.\DispenserSink.c ****                 
 454:.\DispenserSink.c ****                 if(pjob->Callback)
 1306              		.loc 1 454 0
 1307 0188 7B68     		ldr	r3, [r7, #4]
 1308 018a 1B6A     		ldr	r3, [r3, #32]
 1309 018c 002B     		cmp	r3, #0
ARM GAS  C:\Users\RECEPC~1\AppData\Local\Temp\ccMrdYRj.s 			page 32


 1310 018e 05D0     		beq	.L59
 455:.\DispenserSink.c ****                     pjob->Callback(pjob->_pdata);
 1311              		.loc 1 455 0
 1312 0190 7B68     		ldr	r3, [r7, #4]
 1313 0192 1B6A     		ldr	r3, [r3, #32]
 1314 0194 7A68     		ldr	r2, [r7, #4]
 1315 0196 526A     		ldr	r2, [r2, #36]
 1316 0198 1046     		mov	r0, r2
 1317 019a 9847     		blx	r3
 1318              	.L59:
 456:.\DispenserSink.c ****             }
 457:.\DispenserSink.c ****             
 458:.\DispenserSink.c ****             //This is required for the enumeration model
 459:.\DispenserSink.c ****             if(!pjob->_reenqueue)
 1319              		.loc 1 459 0
 1320 019c 7B68     		ldr	r3, [r7, #4]
 1321 019e 1B78     		ldrb	r3, [r3]
 1322 01a0 DBB2     		uxtb	r3, r3
 1323 01a2 83F00103 		eor	r3, r3, #1
 1324 01a6 DBB2     		uxtb	r3, r3
 1325 01a8 002B     		cmp	r3, #0
 1326 01aa 07D0     		beq	.L61
 460:.\DispenserSink.c ****             {
 461:.\DispenserSink.c ****                 _g_pumpjobqueue.Dequeue(&_g_pumpjobqueue);
 1327              		.loc 1 461 0
 1328 01ac 214B     		ldr	r3, .L68+4
 1329 01ae D3F8FC37 		ldr	r3, [r3, #2044]
 1330 01b2 2048     		ldr	r0, .L68+4
 1331 01b4 9847     		blx	r3
 462:.\DispenserSink.c ****                 pjob = NULL;
 1332              		.loc 1 462 0
 1333 01b6 0023     		movs	r3, #0
 1334 01b8 7B60     		str	r3, [r7, #4]
 1335 01ba 56E0     		b	.L47
 1336              	.L61:
 463:.\DispenserSink.c ****             }else{
 464:.\DispenserSink.c ****                 pjob->_prequest = pjob->_presponse;
 1337              		.loc 1 464 0
 1338 01bc 7B68     		ldr	r3, [r7, #4]
 1339 01be 9A69     		ldr	r2, [r3, #24]
 1340 01c0 7B68     		ldr	r3, [r7, #4]
 1341 01c2 5A61     		str	r2, [r3, #20]
 465:.\DispenserSink.c ****                 pjob->_presponse = PNEAR_NULLPTR;
 1342              		.loc 1 465 0
 1343 01c4 7B68     		ldr	r3, [r7, #4]
 1344 01c6 0022     		movs	r2, #0
 1345 01c8 9A61     		str	r2, [r3, #24]
 1346 01ca 4EE0     		b	.L47
 1347              	.L58:
 466:.\DispenserSink.c ****             }
 467:.\DispenserSink.c ****         }
 468:.\DispenserSink.c ****         else if(!postcondexecuted)
 1348              		.loc 1 468 0
 1349 01cc 7B78     		ldrb	r3, [r7, #1]
 1350 01ce 83F00103 		eor	r3, r3, #1
 1351 01d2 DBB2     		uxtb	r3, r3
 1352 01d4 002B     		cmp	r3, #0
ARM GAS  C:\Users\RECEPC~1\AppData\Local\Temp\ccMrdYRj.s 			page 33


 1353 01d6 48D0     		beq	.L47
 469:.\DispenserSink.c ****         {
 470:.\DispenserSink.c ****             if(oneshot)
 1354              		.loc 1 470 0
 1355 01d8 FB78     		ldrb	r3, [r7, #3]	@ zero_extendqisi2
 1356 01da 002B     		cmp	r3, #0
 1357 01dc 07D0     		beq	.L63
 471:.\DispenserSink.c ****             {
 472:.\DispenserSink.c ****                 _g_pumpjobqueue.Dequeue(&_g_pumpjobqueue);
 1358              		.loc 1 472 0
 1359 01de 154B     		ldr	r3, .L68+4
 1360 01e0 D3F8FC37 		ldr	r3, [r3, #2044]
 1361 01e4 1348     		ldr	r0, .L68+4
 1362 01e6 9847     		blx	r3
 473:.\DispenserSink.c ****                 pjob = NULL;
 1363              		.loc 1 473 0
 1364 01e8 0023     		movs	r3, #0
 1365 01ea 7B60     		str	r3, [r7, #4]
 1366 01ec 3DE0     		b	.L47
 1367              	.L63:
 474:.\DispenserSink.c ****             }
 475:.\DispenserSink.c ****             else
 476:.\DispenserSink.c ****             {
 477:.\DispenserSink.c ****                 if(pjob->_presponse->_retryinsteadofrepush)
 1368              		.loc 1 477 0
 1369 01ee 7B68     		ldr	r3, [r7, #4]
 1370 01f0 9B69     		ldr	r3, [r3, #24]
 1371 01f2 5B7E     		ldrb	r3, [r3, #25]	@ zero_extendqisi2
 1372 01f4 002B     		cmp	r3, #0
 1373 01f6 21D0     		beq	.L64
 478:.\DispenserSink.c ****                 {
 479:.\DispenserSink.c ****                     if(pjob->_repushretriescounter >= _MAX_RETRIES_)
 1374              		.loc 1 479 0
 1375 01f8 7B68     		ldr	r3, [r7, #4]
 1376 01fa 1B89     		ldrh	r3, [r3, #8]	@ movhi
 1377 01fc 9BB2     		uxth	r3, r3
 1378 01fe 132B     		cmp	r3, #19
 1379 0200 07D9     		bls	.L65
 480:.\DispenserSink.c ****                     {
 481:.\DispenserSink.c ****                         _g_pumpjobqueue.Dequeue(&_g_pumpjobqueue);
 1380              		.loc 1 481 0
 1381 0202 0C4B     		ldr	r3, .L68+4
 1382 0204 D3F8FC37 		ldr	r3, [r3, #2044]
 1383 0208 0A48     		ldr	r0, .L68+4
 1384 020a 9847     		blx	r3
 482:.\DispenserSink.c ****                         pjob = NULL;
 1385              		.loc 1 482 0
 1386 020c 0023     		movs	r3, #0
 1387 020e 7B60     		str	r3, [r7, #4]
 1388 0210 2BE0     		b	.L47
 1389              	.L65:
 483:.\DispenserSink.c ****                     }
 484:.\DispenserSink.c ****                     else
 485:.\DispenserSink.c ****                     {
 486:.\DispenserSink.c ****                         pjob->_repushretriescounter++;
 1390              		.loc 1 486 0
 1391 0212 7B68     		ldr	r3, [r7, #4]
ARM GAS  C:\Users\RECEPC~1\AppData\Local\Temp\ccMrdYRj.s 			page 34


 1392 0214 1B89     		ldrh	r3, [r3, #8]	@ movhi
 1393 0216 9BB2     		uxth	r3, r3
 1394 0218 0133     		adds	r3, r3, #1
 1395 021a 9AB2     		uxth	r2, r3
 1396 021c 7B68     		ldr	r3, [r7, #4]
 1397 021e 1A81     		strh	r2, [r3, #8]	@ movhi
 487:.\DispenserSink.c ****                         pjob->_prequest = pjob->_presponse;
 1398              		.loc 1 487 0
 1399 0220 7B68     		ldr	r3, [r7, #4]
 1400 0222 9A69     		ldr	r2, [r3, #24]
 1401 0224 7B68     		ldr	r3, [r7, #4]
 1402 0226 5A61     		str	r2, [r3, #20]
 488:.\DispenserSink.c ****                         pjob->_presponse = NULL;
 1403              		.loc 1 488 0
 1404 0228 7B68     		ldr	r3, [r7, #4]
 1405 022a 0022     		movs	r2, #0
 1406 022c 9A61     		str	r2, [r3, #24]
 1407 022e 1CE0     		b	.L47
 1408              	.L69:
 1409              		.align	2
 1410              	.L68:
 1411 0230 00000000 		.word	_g_respctxt
 1412 0234 00000000 		.word	_g_pumpjobqueue
 1413 0238 0C000000 		.word	_g_respctxt+12
 1414              	.L64:
 489:.\DispenserSink.c ****                     }
 490:.\DispenserSink.c ****                 }
 491:.\DispenserSink.c ****                 else
 492:.\DispenserSink.c ****                 {
 493:.\DispenserSink.c ****                     //If none of the postconditions are met, then "Re-push" until there is a match
 494:.\DispenserSink.c ****                     //This is pretty useful for the "EOT" state since once the delivery starts, 
 495:.\DispenserSink.c ****                     //the transaction needs to wait for the "EOT" or "IDLE" condition on the pump.
 496:.\DispenserSink.c ****                     if(pjob->_repushtimeoutseed == 0x0000)
 1415              		.loc 1 496 0
 1416 023c 7B68     		ldr	r3, [r7, #4]
 1417 023e 5B89     		ldrh	r3, [r3, #10]	@ movhi
 1418 0240 9BB2     		uxth	r3, r3
 1419 0242 002B     		cmp	r3, #0
 1420 0244 05D1     		bne	.L67
 497:.\DispenserSink.c ****                         pjob->_repushtimeoutseed = Timer_DispenserState_ReadCounter();
 1421              		.loc 1 497 0
 1422 0246 FFF7FEFF 		bl	Timer_DispenserState_ReadCounter
 1423 024a 0346     		mov	r3, r0
 1424 024c 1A46     		mov	r2, r3
 1425 024e 7B68     		ldr	r3, [r7, #4]
 1426 0250 5A81     		strh	r2, [r3, #10]	@ movhi
 1427              	.L67:
 498:.\DispenserSink.c **** 
 499:.\DispenserSink.c ****                     //This pointer is NULL but just for the sake of clarity
 500:.\DispenserSink.c ****                     pjob->_prequest = pjob->_presponse;
 1428              		.loc 1 500 0
 1429 0252 7B68     		ldr	r3, [r7, #4]
 1430 0254 9A69     		ldr	r2, [r3, #24]
 1431 0256 7B68     		ldr	r3, [r7, #4]
 1432 0258 5A61     		str	r2, [r3, #20]
 501:.\DispenserSink.c ****                     pjob->_presponse = PNEAR_NULLPTR;
 1433              		.loc 1 501 0
ARM GAS  C:\Users\RECEPC~1\AppData\Local\Temp\ccMrdYRj.s 			page 35


 1434 025a 7B68     		ldr	r3, [r7, #4]
 1435 025c 0022     		movs	r2, #0
 1436 025e 9A61     		str	r2, [r3, #24]
 502:.\DispenserSink.c ****                     _g_pumpjobqueue.Rotate(&_g_pumpjobqueue);
 1437              		.loc 1 502 0
 1438 0260 104B     		ldr	r3, .L70
 1439 0262 D3F8EC37 		ldr	r3, [r3, #2028]
 1440 0266 0F48     		ldr	r0, .L70
 1441 0268 9847     		blx	r3
 1442              	.L47:
 1443              	.LBE6:
 503:.\DispenserSink.c **** 
 504:.\DispenserSink.c ****                 }
 505:.\DispenserSink.c ****             }
 506:.\DispenserSink.c ****         }
 507:.\DispenserSink.c ****     }
 508:.\DispenserSink.c ****     //CHANGE BY HIJH
 509:.\DispenserSink.c ****     //NOV 18 2016
 510:.\DispenserSink.c ****     //PLACEMENT OF THIS BLOCK OUT OF THE MAIN IF
 511:.\DispenserSink.c ****     _g_respctxt._bufferready = false;
 1444              		.loc 1 511 0
 1445 026a 0F4B     		ldr	r3, .L70+4
 1446 026c 0022     		movs	r2, #0
 1447 026e 1A71     		strb	r2, [r3, #4]
 512:.\DispenserSink.c ****     _g_respctxt._responsesize = 0x00;
 1448              		.loc 1 512 0
 1449 0270 0D4B     		ldr	r3, .L70+4
 1450 0272 0022     		movs	r2, #0
 1451 0274 DA80     		strh	r2, [r3, #6]	@ movhi
 513:.\DispenserSink.c ****     memset(_g_respctxt._rxbuffer, 0x00, 512);
 1452              		.loc 1 513 0
 1453 0276 0D48     		ldr	r0, .L70+8
 1454 0278 0021     		movs	r1, #0
 1455 027a 4FF40072 		mov	r2, #512
 1456 027e FFF7FEFF 		bl	memset
 514:.\DispenserSink.c ****     memset(pjob->_ppump->_rxbuffer, 0x00, _PUMP_RX_BUFFER_SIZE_);
 1457              		.loc 1 514 0
 1458 0282 7B68     		ldr	r3, [r7, #4]
 1459 0284 DB69     		ldr	r3, [r3, #28]
 1460 0286 03F5C473 		add	r3, r3, #392
 1461 028a 1846     		mov	r0, r3
 1462 028c 0021     		movs	r1, #0
 1463 028e 4FF4B472 		mov	r2, #360
 1464 0292 FFF7FEFF 		bl	memset
 515:.\DispenserSink.c ****     
 516:.\DispenserSink.c ****     Dispenser_ClearRxBuffer();
 1465              		.loc 1 516 0
 1466 0296 FFF7FEFF 		bl	Dispenser_ClearRxBuffer
 517:.\DispenserSink.c ****     Dispenser_Enable();
 1467              		.loc 1 517 0
 1468 029a FFF7FEFF 		bl	Dispenser_Enable
 1469              	.L44:
 518:.\DispenserSink.c **** }
 1470              		.loc 1 518 0
 1471 029e 0837     		adds	r7, r7, #8
 1472              		.cfi_def_cfa_offset 8
 1473 02a0 BD46     		mov	sp, r7
ARM GAS  C:\Users\RECEPC~1\AppData\Local\Temp\ccMrdYRj.s 			page 36


 1474              		.cfi_def_cfa_register 13
 1475              		@ sp needed
 1476 02a2 80BD     		pop	{r7, pc}
 1477              	.L71:
 1478              		.align	2
 1479              	.L70:
 1480 02a4 00000000 		.word	_g_pumpjobqueue
 1481 02a8 00000000 		.word	_g_respctxt
 1482 02ac 0C000000 		.word	_g_respctxt+12
 1483              		.cfi_endproc
 1484              	.LFE66:
 1485              		.size	DispenserDataReceptionHandler, .-DispenserDataReceptionHandler
 1486              		.section	.text.DispenserUpdateTimeouts,"ax",%progbits
 1487              		.align	2
 1488              		.global	DispenserUpdateTimeouts
 1489              		.thumb
 1490              		.thumb_func
 1491              		.type	DispenserUpdateTimeouts, %function
 1492              	DispenserUpdateTimeouts:
 1493              	.LFB67:
 519:.\DispenserSink.c **** 
 520:.\DispenserSink.c **** //This updater is invoked every millisecond, so the multiplier counts per elapsed millisecond
 521:.\DispenserSink.c **** void DispenserUpdateTimeouts(void *pparam)
 522:.\DispenserSink.c **** {
 1494              		.loc 1 522 0
 1495              		.cfi_startproc
 1496              		@ args = 0, pretend = 0, frame = 16
 1497              		@ frame_needed = 1, uses_anonymous_args = 0
 1498 0000 80B5     		push	{r7, lr}
 1499              		.cfi_def_cfa_offset 8
 1500              		.cfi_offset 7, -8
 1501              		.cfi_offset 14, -4
 1502 0002 84B0     		sub	sp, sp, #16
 1503              		.cfi_def_cfa_offset 24
 1504 0004 00AF     		add	r7, sp, #0
 1505              		.cfi_def_cfa_register 7
 1506 0006 7860     		str	r0, [r7, #4]
 523:.\DispenserSink.c ****     _g_dispenserupdatetimeoutmultiplier++;
 1507              		.loc 1 523 0
 1508 0008 1B4B     		ldr	r3, .L75
 1509 000a 1B88     		ldrh	r3, [r3]
 1510 000c 0133     		adds	r3, r3, #1
 1511 000e 9AB2     		uxth	r2, r3
 1512 0010 194B     		ldr	r3, .L75
 1513 0012 1A80     		strh	r2, [r3]	@ movhi
 524:.\DispenserSink.c ****     //Update of the transaction timeouts every 10 milliseconds
 525:.\DispenserSink.c ****         
 526:.\DispenserSink.c ****     PPUMPTRANSACTIONJOBCONTEXTPTR pjob = _g_pumpjobqueue.Peek(&_g_pumpjobqueue);
 1514              		.loc 1 526 0
 1515 0014 194B     		ldr	r3, .L75+4
 1516 0016 D3F8F837 		ldr	r3, [r3, #2040]
 1517 001a 1848     		ldr	r0, .L75+4
 1518 001c 9847     		blx	r3
 1519 001e F860     		str	r0, [r7, #12]
 527:.\DispenserSink.c ****     if(pjob && pjob->_presponse)
 1520              		.loc 1 527 0
 1521 0020 FB68     		ldr	r3, [r7, #12]
ARM GAS  C:\Users\RECEPC~1\AppData\Local\Temp\ccMrdYRj.s 			page 37


 1522 0022 002B     		cmp	r3, #0
 1523 0024 1BD0     		beq	.L73
 1524              		.loc 1 527 0 is_stmt 0 discriminator 1
 1525 0026 FB68     		ldr	r3, [r7, #12]
 1526 0028 9B69     		ldr	r3, [r3, #24]
 1527 002a 002B     		cmp	r3, #0
 1528 002c 17D0     		beq	.L73
 528:.\DispenserSink.c ****     {
 529:.\DispenserSink.c ****         if(pjob->_presponse->_responsetimeoutlimit != _NO_TIMEOUT_)
 1529              		.loc 1 529 0 is_stmt 1
 1530 002e FB68     		ldr	r3, [r7, #12]
 1531 0030 9B69     		ldr	r3, [r3, #24]
 1532 0032 1B8A     		ldrh	r3, [r3, #16]
 1533 0034 002B     		cmp	r3, #0
 1534 0036 06D0     		beq	.L74
 530:.\DispenserSink.c ****             pjob->_timeoutmultiplier++;
 1535              		.loc 1 530 0
 1536 0038 FB68     		ldr	r3, [r7, #12]
 1537 003a 5B8A     		ldrh	r3, [r3, #18]	@ movhi
 1538 003c 9BB2     		uxth	r3, r3
 1539 003e 0133     		adds	r3, r3, #1
 1540 0040 9AB2     		uxth	r2, r3
 1541 0042 FB68     		ldr	r3, [r7, #12]
 1542 0044 5A82     		strh	r2, [r3, #18]	@ movhi
 1543              	.L74:
 531:.\DispenserSink.c ****             
 532:.\DispenserSink.c ****         if(pjob->_presponse->_repushtimeoutlimit != _NO_TIMEOUT_)
 1544              		.loc 1 532 0
 1545 0046 FB68     		ldr	r3, [r7, #12]
 1546 0048 9B69     		ldr	r3, [r3, #24]
 1547 004a 5B69     		ldr	r3, [r3, #20]
 1548 004c 002B     		cmp	r3, #0
 1549 004e 06D0     		beq	.L73
 533:.\DispenserSink.c ****             pjob->_repushtimeoutmultiplier++;
 1550              		.loc 1 533 0
 1551 0050 FB68     		ldr	r3, [r7, #12]
 1552 0052 9B89     		ldrh	r3, [r3, #12]	@ movhi
 1553 0054 9BB2     		uxth	r3, r3
 1554 0056 0133     		adds	r3, r3, #1
 1555 0058 9AB2     		uxth	r2, r3
 1556 005a FB68     		ldr	r3, [r7, #12]
 1557 005c 9A81     		strh	r2, [r3, #12]	@ movhi
 1558              	.L73:
 534:.\DispenserSink.c ****     }
 535:.\DispenserSink.c ****         
 536:.\DispenserSink.c ****     _g_dispenserupdatetimeout = Timer_DispenserState_ReadCounter();
 1559              		.loc 1 536 0
 1560 005e FFF7FEFF 		bl	Timer_DispenserState_ReadCounter
 1561 0062 0346     		mov	r3, r0
 1562 0064 1A46     		mov	r2, r3
 1563 0066 064B     		ldr	r3, .L75+8
 1564 0068 1A80     		strh	r2, [r3]	@ movhi
 537:.\DispenserSink.c ****     _g_dispenserupdatetimeoutmultiplier = 0x0000;   
 1565              		.loc 1 537 0
 1566 006a 034B     		ldr	r3, .L75
 1567 006c 0022     		movs	r2, #0
 1568 006e 1A80     		strh	r2, [r3]	@ movhi
ARM GAS  C:\Users\RECEPC~1\AppData\Local\Temp\ccMrdYRj.s 			page 38


 538:.\DispenserSink.c **** }
 1569              		.loc 1 538 0
 1570 0070 1037     		adds	r7, r7, #16
 1571              		.cfi_def_cfa_offset 8
 1572 0072 BD46     		mov	sp, r7
 1573              		.cfi_def_cfa_register 13
 1574              		@ sp needed
 1575 0074 80BD     		pop	{r7, pc}
 1576              	.L76:
 1577 0076 00BF     		.align	2
 1578              	.L75:
 1579 0078 00000000 		.word	_g_dispenserupdatetimeoutmultiplier
 1580 007c 00000000 		.word	_g_pumpjobqueue
 1581 0080 00000000 		.word	_g_dispenserupdatetimeout
 1582              		.cfi_endproc
 1583              	.LFE67:
 1584              		.size	DispenserUpdateTimeouts, .-DispenserUpdateTimeouts
 1585              		.text
 1586              	.Letext0:
 1587              		.file 2 "c:\\program files (x86)\\cypress\\psoc creator\\3.3\\psoc creator\\import\\gnu\\arm\\4.9.
 1588              		.file 3 "c:\\program files (x86)\\cypress\\psoc creator\\3.3\\psoc creator\\import\\gnu\\arm\\4.9.
 1589              		.file 4 "Generated_Source\\PSoC5/cytypes.h"
 1590              		.file 5 ".\\SinkManager.h"
 1591              		.file 6 ".\\SinkObservables.h"
 1592              		.file 7 ".\\Prime.h"
 1593              		.file 8 "Generated_Source\\PSoC5/core_cm3.h"
 1594              		.section	.debug_info,"",%progbits
 1595              	.Ldebug_info0:
 1596 0000 260D0000 		.4byte	0xd26
 1597 0004 0400     		.2byte	0x4
 1598 0006 00000000 		.4byte	.Ldebug_abbrev0
 1599 000a 04       		.byte	0x4
 1600 000b 01       		.uleb128 0x1
 1601 000c F0070000 		.4byte	.LASF221
 1602 0010 01       		.byte	0x1
 1603 0011 7E060000 		.4byte	.LASF222
 1604 0015 8D090000 		.4byte	.LASF223
 1605 0019 00000000 		.4byte	.Ldebug_ranges0+0
 1606 001d 00000000 		.4byte	0
 1607 0021 00000000 		.4byte	.Ldebug_line0
 1608 0025 02       		.uleb128 0x2
 1609 0026 01       		.byte	0x1
 1610 0027 06       		.byte	0x6
 1611 0028 12020000 		.4byte	.LASF0
 1612 002c 02       		.uleb128 0x2
 1613 002d 01       		.byte	0x1
 1614 002e 08       		.byte	0x8
 1615 002f FA090000 		.4byte	.LASF1
 1616 0033 02       		.uleb128 0x2
 1617 0034 02       		.byte	0x2
 1618 0035 05       		.byte	0x5
 1619 0036 39060000 		.4byte	.LASF2
 1620 003a 02       		.uleb128 0x2
 1621 003b 02       		.byte	0x2
 1622 003c 07       		.byte	0x7
 1623 003d 3B050000 		.4byte	.LASF3
 1624 0041 03       		.uleb128 0x3
ARM GAS  C:\Users\RECEPC~1\AppData\Local\Temp\ccMrdYRj.s 			page 39


 1625 0042 AF0C0000 		.4byte	.LASF9
 1626 0046 02       		.byte	0x2
 1627 0047 3F       		.byte	0x3f
 1628 0048 4C000000 		.4byte	0x4c
 1629 004c 02       		.uleb128 0x2
 1630 004d 04       		.byte	0x4
 1631 004e 05       		.byte	0x5
 1632 004f AD020000 		.4byte	.LASF4
 1633 0053 02       		.uleb128 0x2
 1634 0054 04       		.byte	0x4
 1635 0055 07       		.byte	0x7
 1636 0056 1E0C0000 		.4byte	.LASF5
 1637 005a 02       		.uleb128 0x2
 1638 005b 08       		.byte	0x8
 1639 005c 05       		.byte	0x5
 1640 005d 04020000 		.4byte	.LASF6
 1641 0061 02       		.uleb128 0x2
 1642 0062 08       		.byte	0x8
 1643 0063 07       		.byte	0x7
 1644 0064 01010000 		.4byte	.LASF7
 1645 0068 04       		.uleb128 0x4
 1646 0069 04       		.byte	0x4
 1647 006a 05       		.byte	0x5
 1648 006b 696E7400 		.ascii	"int\000"
 1649 006f 02       		.uleb128 0x2
 1650 0070 04       		.byte	0x4
 1651 0071 07       		.byte	0x7
 1652 0072 22040000 		.4byte	.LASF8
 1653 0076 03       		.uleb128 0x3
 1654 0077 F2090000 		.4byte	.LASF10
 1655 007b 03       		.byte	0x3
 1656 007c 2C       		.byte	0x2c
 1657 007d 41000000 		.4byte	0x41
 1658 0081 05       		.uleb128 0x5
 1659 0082 15050000 		.4byte	.LASF11
 1660 0086 04       		.byte	0x4
 1661 0087 3801     		.2byte	0x138
 1662 0089 2C000000 		.4byte	0x2c
 1663 008d 05       		.uleb128 0x5
 1664 008e 560E0000 		.4byte	.LASF12
 1665 0092 04       		.byte	0x4
 1666 0093 3901     		.2byte	0x139
 1667 0095 3A000000 		.4byte	0x3a
 1668 0099 05       		.uleb128 0x5
 1669 009a 4E030000 		.4byte	.LASF13
 1670 009e 04       		.byte	0x4
 1671 009f 3A01     		.2byte	0x13a
 1672 00a1 53000000 		.4byte	0x53
 1673 00a5 05       		.uleb128 0x5
 1674 00a6 84020000 		.4byte	.LASF14
 1675 00aa 04       		.byte	0x4
 1676 00ab 3D01     		.2byte	0x13d
 1677 00ad 4C000000 		.4byte	0x4c
 1678 00b1 02       		.uleb128 0x2
 1679 00b2 04       		.byte	0x4
 1680 00b3 04       		.byte	0x4
 1681 00b4 500E0000 		.4byte	.LASF15
ARM GAS  C:\Users\RECEPC~1\AppData\Local\Temp\ccMrdYRj.s 			page 40


 1682 00b8 02       		.uleb128 0x2
 1683 00b9 08       		.byte	0x8
 1684 00ba 04       		.byte	0x4
 1685 00bb 04030000 		.4byte	.LASF16
 1686 00bf 05       		.uleb128 0x5
 1687 00c0 5B0A0000 		.4byte	.LASF17
 1688 00c4 04       		.byte	0x4
 1689 00c5 4401     		.2byte	0x144
 1690 00c7 61000000 		.4byte	0x61
 1691 00cb 05       		.uleb128 0x5
 1692 00cc B90C0000 		.4byte	.LASF18
 1693 00d0 04       		.byte	0x4
 1694 00d1 4901     		.2byte	0x149
 1695 00d3 D7000000 		.4byte	0xd7
 1696 00d7 02       		.uleb128 0x2
 1697 00d8 01       		.byte	0x1
 1698 00d9 08       		.byte	0x8
 1699 00da 3C0C0000 		.4byte	.LASF19
 1700 00de 06       		.uleb128 0x6
 1701 00df 81000000 		.4byte	0x81
 1702 00e3 06       		.uleb128 0x6
 1703 00e4 8D000000 		.4byte	0x8d
 1704 00e8 06       		.uleb128 0x6
 1705 00e9 99000000 		.4byte	0x99
 1706 00ed 02       		.uleb128 0x2
 1707 00ee 04       		.byte	0x4
 1708 00ef 07       		.byte	0x7
 1709 00f0 E9060000 		.4byte	.LASF20
 1710 00f4 07       		.uleb128 0x7
 1711 00f5 04       		.byte	0x4
 1712 00f6 08       		.uleb128 0x8
 1713 00f7 81000000 		.4byte	0x81
 1714 00fb 06010000 		.4byte	0x106
 1715 00ff 09       		.uleb128 0x9
 1716 0100 ED000000 		.4byte	0xed
 1717 0104 03       		.byte	0x3
 1718 0105 00       		.byte	0
 1719 0106 02       		.uleb128 0x2
 1720 0107 08       		.byte	0x8
 1721 0108 04       		.byte	0x4
 1722 0109 FE060000 		.4byte	.LASF21
 1723 010d 0A       		.uleb128 0xa
 1724 010e 4C090000 		.4byte	.LASF30
 1725 0112 01       		.byte	0x1
 1726 0113 05       		.byte	0x5
 1727 0114 3D       		.byte	0x3d
 1728 0115 4A010000 		.4byte	0x14a
 1729 0119 0B       		.uleb128 0xb
 1730 011a 00000000 		.4byte	.LASF22
 1731 011e 01       		.sleb128 1
 1732 011f 0B       		.uleb128 0xb
 1733 0120 220E0000 		.4byte	.LASF23
 1734 0124 02       		.sleb128 2
 1735 0125 0B       		.uleb128 0xb
 1736 0126 B6080000 		.4byte	.LASF24
 1737 012a 03       		.sleb128 3
 1738 012b 0B       		.uleb128 0xb
ARM GAS  C:\Users\RECEPC~1\AppData\Local\Temp\ccMrdYRj.s 			page 41


 1739 012c 420B0000 		.4byte	.LASF25
 1740 0130 04       		.sleb128 4
 1741 0131 0B       		.uleb128 0xb
 1742 0132 500B0000 		.4byte	.LASF26
 1743 0136 05       		.sleb128 5
 1744 0137 0B       		.uleb128 0xb
 1745 0138 74040000 		.4byte	.LASF27
 1746 013c 06       		.sleb128 6
 1747 013d 0B       		.uleb128 0xb
 1748 013e FF0C0000 		.4byte	.LASF28
 1749 0142 07       		.sleb128 7
 1750 0143 0B       		.uleb128 0xb
 1751 0144 46010000 		.4byte	.LASF29
 1752 0148 08       		.sleb128 8
 1753 0149 00       		.byte	0
 1754 014a 0A       		.uleb128 0xa
 1755 014b DA030000 		.4byte	.LASF31
 1756 014f 01       		.byte	0x1
 1757 0150 05       		.byte	0x5
 1758 0151 4A       		.byte	0x4a
 1759 0152 69010000 		.4byte	0x169
 1760 0156 0B       		.uleb128 0xb
 1761 0157 BC040000 		.4byte	.LASF32
 1762 015b 01       		.sleb128 1
 1763 015c 0B       		.uleb128 0xb
 1764 015d 16090000 		.4byte	.LASF33
 1765 0161 02       		.sleb128 2
 1766 0162 0B       		.uleb128 0xb
 1767 0163 31020000 		.4byte	.LASF34
 1768 0167 03       		.sleb128 3
 1769 0168 00       		.byte	0
 1770 0169 0C       		.uleb128 0xc
 1771 016a 6B0B0000 		.4byte	.LASF49
 1772 016e 9801     		.2byte	0x198
 1773 0170 05       		.byte	0x5
 1774 0171 51       		.byte	0x51
 1775 0172 0A020000 		.4byte	0x20a
 1776 0176 0D       		.uleb128 0xd
 1777 0177 8C070000 		.4byte	.LASF35
 1778 017b 05       		.byte	0x5
 1779 017c 53       		.byte	0x53
 1780 017d 0A020000 		.4byte	0x20a
 1781 0181 00       		.byte	0
 1782 0182 0D       		.uleb128 0xd
 1783 0183 B1040000 		.4byte	.LASF36
 1784 0187 05       		.byte	0x5
 1785 0188 54       		.byte	0x54
 1786 0189 DE000000 		.4byte	0xde
 1787 018d 01       		.byte	0x1
 1788 018e 0D       		.uleb128 0xd
 1789 018f AF000000 		.4byte	.LASF37
 1790 0193 05       		.byte	0x5
 1791 0194 55       		.byte	0x55
 1792 0195 DE000000 		.4byte	0xde
 1793 0199 02       		.byte	0x2
 1794 019a 0D       		.uleb128 0xd
 1795 019b 08090000 		.4byte	.LASF38
ARM GAS  C:\Users\RECEPC~1\AppData\Local\Temp\ccMrdYRj.s 			page 42


 1796 019f 05       		.byte	0x5
 1797 01a0 56       		.byte	0x56
 1798 01a1 DE000000 		.4byte	0xde
 1799 01a5 03       		.byte	0x3
 1800 01a6 0D       		.uleb128 0xd
 1801 01a7 A3040000 		.4byte	.LASF39
 1802 01ab 05       		.byte	0x5
 1803 01ac 58       		.byte	0x58
 1804 01ad E3000000 		.4byte	0xe3
 1805 01b1 04       		.byte	0x4
 1806 01b2 0D       		.uleb128 0xd
 1807 01b3 01060000 		.4byte	.LASF40
 1808 01b7 05       		.byte	0x5
 1809 01b8 59       		.byte	0x59
 1810 01b9 E3000000 		.4byte	0xe3
 1811 01bd 06       		.byte	0x6
 1812 01be 0D       		.uleb128 0xd
 1813 01bf 1B070000 		.4byte	.LASF41
 1814 01c3 05       		.byte	0x5
 1815 01c4 5A       		.byte	0x5a
 1816 01c5 E3000000 		.4byte	0xe3
 1817 01c9 08       		.byte	0x8
 1818 01ca 0D       		.uleb128 0xd
 1819 01cb 870A0000 		.4byte	.LASF42
 1820 01cf 05       		.byte	0x5
 1821 01d0 5B       		.byte	0x5b
 1822 01d1 E3000000 		.4byte	0xe3
 1823 01d5 0A       		.byte	0xa
 1824 01d6 0D       		.uleb128 0xd
 1825 01d7 E2020000 		.4byte	.LASF43
 1826 01db 05       		.byte	0x5
 1827 01dc 5C       		.byte	0x5c
 1828 01dd 16020000 		.4byte	0x216
 1829 01e1 0C       		.byte	0xc
 1830 01e2 0E       		.uleb128 0xe
 1831 01e3 78020000 		.4byte	.LASF44
 1832 01e7 05       		.byte	0x5
 1833 01e8 5D       		.byte	0x5d
 1834 01e9 E3000000 		.4byte	0xe3
 1835 01ed 8C01     		.2byte	0x18c
 1836 01ef 0E       		.uleb128 0xe
 1837 01f0 BC000000 		.4byte	.LASF45
 1838 01f4 05       		.byte	0x5
 1839 01f5 60       		.byte	0x60
 1840 01f6 F4000000 		.4byte	0xf4
 1841 01fa 9001     		.2byte	0x190
 1842 01fc 0E       		.uleb128 0xe
 1843 01fd 060E0000 		.4byte	.LASF46
 1844 0201 05       		.byte	0x5
 1845 0202 61       		.byte	0x61
 1846 0203 32020000 		.4byte	0x232
 1847 0207 9401     		.2byte	0x194
 1848 0209 00       		.byte	0
 1849 020a 06       		.uleb128 0x6
 1850 020b 0F020000 		.4byte	0x20f
 1851 020f 02       		.uleb128 0x2
 1852 0210 01       		.byte	0x1
ARM GAS  C:\Users\RECEPC~1\AppData\Local\Temp\ccMrdYRj.s 			page 43


 1853 0211 02       		.byte	0x2
 1854 0212 EC090000 		.4byte	.LASF47
 1855 0216 08       		.uleb128 0x8
 1856 0217 CB000000 		.4byte	0xcb
 1857 021b 27020000 		.4byte	0x227
 1858 021f 0F       		.uleb128 0xf
 1859 0220 ED000000 		.4byte	0xed
 1860 0224 7F01     		.2byte	0x17f
 1861 0226 00       		.byte	0
 1862 0227 10       		.uleb128 0x10
 1863 0228 32020000 		.4byte	0x232
 1864 022c 11       		.uleb128 0x11
 1865 022d F4000000 		.4byte	0xf4
 1866 0231 00       		.byte	0
 1867 0232 12       		.uleb128 0x12
 1868 0233 04       		.byte	0x4
 1869 0234 27020000 		.4byte	0x227
 1870 0238 03       		.uleb128 0x3
 1871 0239 4F0C0000 		.4byte	.LASF48
 1872 023d 05       		.byte	0x5
 1873 023e 62       		.byte	0x62
 1874 023f 43020000 		.4byte	0x243
 1875 0243 12       		.uleb128 0x12
 1876 0244 04       		.byte	0x4
 1877 0245 69010000 		.4byte	0x169
 1878 0249 13       		.uleb128 0x13
 1879 024a 750A0000 		.4byte	.LASF50
 1880 024e 2C       		.byte	0x2c
 1881 024f 05       		.byte	0x5
 1882 0250 64       		.byte	0x64
 1883 0251 7A020000 		.4byte	0x27a
 1884 0255 0D       		.uleb128 0xd
 1885 0256 94020000 		.4byte	.LASF51
 1886 025a 05       		.byte	0x5
 1887 025b 66       		.byte	0x66
 1888 025c DE000000 		.4byte	0xde
 1889 0260 00       		.byte	0
 1890 0261 0D       		.uleb128 0xd
 1891 0262 8A020000 		.4byte	.LASF52
 1892 0266 05       		.byte	0x5
 1893 0267 68       		.byte	0x68
 1894 0268 7A020000 		.4byte	0x27a
 1895 026c 01       		.byte	0x1
 1896 026d 0D       		.uleb128 0xd
 1897 026e 060E0000 		.4byte	.LASF46
 1898 0272 05       		.byte	0x5
 1899 0273 69       		.byte	0x69
 1900 0274 8A020000 		.4byte	0x28a
 1901 0278 0C       		.byte	0xc
 1902 0279 00       		.byte	0
 1903 027a 08       		.uleb128 0x8
 1904 027b 81000000 		.4byte	0x81
 1905 027f 8A020000 		.4byte	0x28a
 1906 0283 09       		.uleb128 0x9
 1907 0284 ED000000 		.4byte	0xed
 1908 0288 07       		.byte	0x7
 1909 0289 00       		.byte	0
ARM GAS  C:\Users\RECEPC~1\AppData\Local\Temp\ccMrdYRj.s 			page 44


 1910 028a 08       		.uleb128 0x8
 1911 028b 32020000 		.4byte	0x232
 1912 028f 9A020000 		.4byte	0x29a
 1913 0293 09       		.uleb128 0x9
 1914 0294 ED000000 		.4byte	0xed
 1915 0298 07       		.byte	0x7
 1916 0299 00       		.byte	0
 1917 029a 03       		.uleb128 0x3
 1918 029b 5D070000 		.4byte	.LASF53
 1919 029f 05       		.byte	0x5
 1920 02a0 6A       		.byte	0x6a
 1921 02a1 A5020000 		.4byte	0x2a5
 1922 02a5 12       		.uleb128 0x12
 1923 02a6 04       		.byte	0x4
 1924 02a7 49020000 		.4byte	0x249
 1925 02ab 0A       		.uleb128 0xa
 1926 02ac 1E020000 		.4byte	.LASF54
 1927 02b0 01       		.byte	0x1
 1928 02b1 06       		.byte	0x6
 1929 02b2 0F       		.byte	0xf
 1930 02b3 AE030000 		.4byte	0x3ae
 1931 02b7 0B       		.uleb128 0xb
 1932 02b8 6E0D0000 		.4byte	.LASF55
 1933 02bc 01       		.sleb128 1
 1934 02bd 0B       		.uleb128 0xb
 1935 02be 15040000 		.4byte	.LASF56
 1936 02c2 02       		.sleb128 2
 1937 02c3 0B       		.uleb128 0xb
 1938 02c4 18010000 		.4byte	.LASF57
 1939 02c8 03       		.sleb128 3
 1940 02c9 0B       		.uleb128 0xb
 1941 02ca EC000000 		.4byte	.LASF58
 1942 02ce 04       		.sleb128 4
 1943 02cf 0B       		.uleb128 0xb
 1944 02d0 2C0E0000 		.4byte	.LASF59
 1945 02d4 05       		.sleb128 5
 1946 02d5 0B       		.uleb128 0xb
 1947 02d6 59060000 		.4byte	.LASF60
 1948 02da 06       		.sleb128 6
 1949 02db 0B       		.uleb128 0xb
 1950 02dc CD0A0000 		.4byte	.LASF61
 1951 02e0 07       		.sleb128 7
 1952 02e1 0B       		.uleb128 0xb
 1953 02e2 250D0000 		.4byte	.LASF62
 1954 02e6 08       		.sleb128 8
 1955 02e7 0B       		.uleb128 0xb
 1956 02e8 5B090000 		.4byte	.LASF63
 1957 02ec 09       		.sleb128 9
 1958 02ed 0B       		.uleb128 0xb
 1959 02ee A0050000 		.4byte	.LASF64
 1960 02f2 0A       		.sleb128 10
 1961 02f3 0B       		.uleb128 0xb
 1962 02f4 C6040000 		.4byte	.LASF65
 1963 02f8 0B       		.sleb128 11
 1964 02f9 0B       		.uleb128 0xb
 1965 02fa C3050000 		.4byte	.LASF66
 1966 02fe 0C       		.sleb128 12
ARM GAS  C:\Users\RECEPC~1\AppData\Local\Temp\ccMrdYRj.s 			page 45


 1967 02ff 0B       		.uleb128 0xb
 1968 0300 DD010000 		.4byte	.LASF67
 1969 0304 0D       		.sleb128 13
 1970 0305 0B       		.uleb128 0xb
 1971 0306 7A0B0000 		.4byte	.LASF68
 1972 030a 0E       		.sleb128 14
 1973 030b 0B       		.uleb128 0xb
 1974 030c 930D0000 		.4byte	.LASF69
 1975 0310 0F       		.sleb128 15
 1976 0311 0B       		.uleb128 0xb
 1977 0312 D5070000 		.4byte	.LASF70
 1978 0316 10       		.sleb128 16
 1979 0317 0B       		.uleb128 0xb
 1980 0318 290B0000 		.4byte	.LASF71
 1981 031c 11       		.sleb128 17
 1982 031d 0B       		.uleb128 0xb
 1983 031e 55030000 		.4byte	.LASF72
 1984 0322 12       		.sleb128 18
 1985 0323 0B       		.uleb128 0xb
 1986 0324 F80A0000 		.4byte	.LASF73
 1987 0328 13       		.sleb128 19
 1988 0329 0B       		.uleb128 0xb
 1989 032a 11060000 		.4byte	.LASF74
 1990 032e 14       		.sleb128 20
 1991 032f 0B       		.uleb128 0xb
 1992 0330 6A0C0000 		.4byte	.LASF75
 1993 0334 15       		.sleb128 21
 1994 0335 0B       		.uleb128 0xb
 1995 0336 A8030000 		.4byte	.LASF76
 1996 033a 16       		.sleb128 22
 1997 033b 0B       		.uleb128 0xb
 1998 033c 4F070000 		.4byte	.LASF77
 1999 0340 17       		.sleb128 23
 2000 0341 0B       		.uleb128 0xb
 2001 0342 2D000000 		.4byte	.LASF78
 2002 0346 18       		.sleb128 24
 2003 0347 0B       		.uleb128 0xb
 2004 0348 2F040000 		.4byte	.LASF79
 2005 034c 19       		.sleb128 25
 2006 034d 0B       		.uleb128 0xb
 2007 034e 8D010000 		.4byte	.LASF80
 2008 0352 1A       		.sleb128 26
 2009 0353 0B       		.uleb128 0xb
 2010 0354 DE050000 		.4byte	.LASF81
 2011 0358 1B       		.sleb128 27
 2012 0359 0B       		.uleb128 0xb
 2013 035a A2010000 		.4byte	.LASF82
 2014 035e 1C       		.sleb128 28
 2015 035f 0B       		.uleb128 0xb
 2016 0360 910C0000 		.4byte	.LASF83
 2017 0364 1D       		.sleb128 29
 2018 0365 0B       		.uleb128 0xb
 2019 0366 28060000 		.4byte	.LASF84
 2020 036a 1E       		.sleb128 30
 2021 036b 0B       		.uleb128 0xb
 2022 036c 3D040000 		.4byte	.LASF85
 2023 0370 1F       		.sleb128 31
ARM GAS  C:\Users\RECEPC~1\AppData\Local\Temp\ccMrdYRj.s 			page 46


 2024 0371 0B       		.uleb128 0xb
 2025 0372 D3060000 		.4byte	.LASF86
 2026 0376 20       		.sleb128 32
 2027 0377 0B       		.uleb128 0xb
 2028 0378 B2060000 		.4byte	.LASF87
 2029 037c 21       		.sleb128 33
 2030 037d 0B       		.uleb128 0xb
 2031 037e E7080000 		.4byte	.LASF88
 2032 0382 22       		.sleb128 34
 2033 0383 0B       		.uleb128 0xb
 2034 0384 ED0D0000 		.4byte	.LASF89
 2035 0388 23       		.sleb128 35
 2036 0389 0B       		.uleb128 0xb
 2037 038a 56040000 		.4byte	.LASF90
 2038 038e 24       		.sleb128 36
 2039 038f 0B       		.uleb128 0xb
 2040 0390 100D0000 		.4byte	.LASF91
 2041 0394 25       		.sleb128 37
 2042 0395 0B       		.uleb128 0xb
 2043 0396 2F030000 		.4byte	.LASF92
 2044 039a 26       		.sleb128 38
 2045 039b 0B       		.uleb128 0xb
 2046 039c 9C0A0000 		.4byte	.LASF93
 2047 03a0 27       		.sleb128 39
 2048 03a1 0B       		.uleb128 0xb
 2049 03a2 86040000 		.4byte	.LASF94
 2050 03a6 28       		.sleb128 40
 2051 03a7 0B       		.uleb128 0xb
 2052 03a8 EE0B0000 		.4byte	.LASF95
 2053 03ac 29       		.sleb128 41
 2054 03ad 00       		.byte	0
 2055 03ae 14       		.uleb128 0x14
 2056 03af 0401     		.2byte	0x104
 2057 03b1 07       		.byte	0x7
 2058 03b2 2B01     		.2byte	0x12b
 2059 03b4 EE030000 		.4byte	0x3ee
 2060 03b8 15       		.uleb128 0x15
 2061 03b9 94020000 		.4byte	.LASF51
 2062 03bd 07       		.byte	0x7
 2063 03be 2D01     		.2byte	0x12d
 2064 03c0 81000000 		.4byte	0x81
 2065 03c4 00       		.byte	0
 2066 03c5 15       		.uleb128 0x15
 2067 03c6 90030000 		.4byte	.LASF96
 2068 03ca 07       		.byte	0x7
 2069 03cb 2E01     		.2byte	0x12e
 2070 03cd 81000000 		.4byte	0x81
 2071 03d1 01       		.byte	0x1
 2072 03d2 15       		.uleb128 0x15
 2073 03d3 E2020000 		.4byte	.LASF43
 2074 03d7 07       		.byte	0x7
 2075 03d8 2F01     		.2byte	0x12f
 2076 03da EE030000 		.4byte	0x3ee
 2077 03de 02       		.byte	0x2
 2078 03df 16       		.uleb128 0x16
 2079 03e0 78020000 		.4byte	.LASF44
 2080 03e4 07       		.byte	0x7
ARM GAS  C:\Users\RECEPC~1\AppData\Local\Temp\ccMrdYRj.s 			page 47


 2081 03e5 3001     		.2byte	0x130
 2082 03e7 8D000000 		.4byte	0x8d
 2083 03eb 0201     		.2byte	0x102
 2084 03ed 00       		.byte	0
 2085 03ee 08       		.uleb128 0x8
 2086 03ef D7000000 		.4byte	0xd7
 2087 03f3 FE030000 		.4byte	0x3fe
 2088 03f7 09       		.uleb128 0x9
 2089 03f8 ED000000 		.4byte	0xed
 2090 03fc FF       		.byte	0xff
 2091 03fd 00       		.byte	0
 2092 03fe 05       		.uleb128 0x5
 2093 03ff 7E080000 		.4byte	.LASF97
 2094 0403 07       		.byte	0x7
 2095 0404 3201     		.2byte	0x132
 2096 0406 AE030000 		.4byte	0x3ae
 2097 040a 05       		.uleb128 0x5
 2098 040b BF0C0000 		.4byte	.LASF98
 2099 040f 07       		.byte	0x7
 2100 0410 3201     		.2byte	0x132
 2101 0412 16040000 		.4byte	0x416
 2102 0416 12       		.uleb128 0x12
 2103 0417 04       		.byte	0x4
 2104 0418 AE030000 		.4byte	0x3ae
 2105 041c 17       		.uleb128 0x17
 2106 041d 40       		.byte	0x40
 2107 041e 07       		.byte	0x7
 2108 041f 3401     		.2byte	0x134
 2109 0421 C2040000 		.4byte	0x4c2
 2110 0425 15       		.uleb128 0x15
 2111 0426 BE0B0000 		.4byte	.LASF99
 2112 042a 07       		.byte	0x7
 2113 042b 3601     		.2byte	0x136
 2114 042d DE000000 		.4byte	0xde
 2115 0431 00       		.byte	0
 2116 0432 15       		.uleb128 0x15
 2117 0433 C40B0000 		.4byte	.LASF100
 2118 0437 07       		.byte	0x7
 2119 0438 3701     		.2byte	0x137
 2120 043a DE000000 		.4byte	0xde
 2121 043e 01       		.byte	0x1
 2122 043f 15       		.uleb128 0x15
 2123 0440 CA0B0000 		.4byte	.LASF101
 2124 0444 07       		.byte	0x7
 2125 0445 3901     		.2byte	0x139
 2126 0447 E3000000 		.4byte	0xe3
 2127 044b 02       		.byte	0x2
 2128 044c 15       		.uleb128 0x15
 2129 044d D00B0000 		.4byte	.LASF102
 2130 0451 07       		.byte	0x7
 2131 0452 3A01     		.2byte	0x13a
 2132 0454 E3000000 		.4byte	0xe3
 2133 0458 04       		.byte	0x4
 2134 0459 15       		.uleb128 0x15
 2135 045a D60B0000 		.4byte	.LASF103
 2136 045e 07       		.byte	0x7
 2137 045f 3C01     		.2byte	0x13c
ARM GAS  C:\Users\RECEPC~1\AppData\Local\Temp\ccMrdYRj.s 			page 48


 2138 0461 E8000000 		.4byte	0xe8
 2139 0465 08       		.byte	0x8
 2140 0466 15       		.uleb128 0x15
 2141 0467 620A0000 		.4byte	.LASF104
 2142 046b 07       		.byte	0x7
 2143 046c 3D01     		.2byte	0x13d
 2144 046e E8000000 		.4byte	0xe8
 2145 0472 0C       		.byte	0xc
 2146 0473 15       		.uleb128 0x15
 2147 0474 E80B0000 		.4byte	.LASF105
 2148 0478 07       		.byte	0x7
 2149 0479 4201     		.2byte	0x142
 2150 047b C2040000 		.4byte	0x4c2
 2151 047f 10       		.byte	0x10
 2152 0480 15       		.uleb128 0x15
 2153 0481 86070000 		.4byte	.LASF106
 2154 0485 07       		.byte	0x7
 2155 0486 4301     		.2byte	0x143
 2156 0488 C2040000 		.4byte	0x4c2
 2157 048c 18       		.byte	0x18
 2158 048d 15       		.uleb128 0x15
 2159 048e FF0B0000 		.4byte	.LASF107
 2160 0492 07       		.byte	0x7
 2161 0493 4401     		.2byte	0x144
 2162 0495 C2040000 		.4byte	0x4c2
 2163 0499 20       		.byte	0x20
 2164 049a 15       		.uleb128 0x15
 2165 049b 050C0000 		.4byte	.LASF108
 2166 049f 07       		.byte	0x7
 2167 04a0 4501     		.2byte	0x145
 2168 04a2 C2040000 		.4byte	0x4c2
 2169 04a6 28       		.byte	0x28
 2170 04a7 15       		.uleb128 0x15
 2171 04a8 650B0000 		.4byte	.LASF109
 2172 04ac 07       		.byte	0x7
 2173 04ad 4701     		.2byte	0x147
 2174 04af C7040000 		.4byte	0x4c7
 2175 04b3 30       		.byte	0x30
 2176 04b4 15       		.uleb128 0x15
 2177 04b5 410C0000 		.4byte	.LASF110
 2178 04b9 07       		.byte	0x7
 2179 04ba 4801     		.2byte	0x148
 2180 04bc C7040000 		.4byte	0x4c7
 2181 04c0 38       		.byte	0x38
 2182 04c1 00       		.byte	0
 2183 04c2 06       		.uleb128 0x6
 2184 04c3 BF000000 		.4byte	0xbf
 2185 04c7 06       		.uleb128 0x6
 2186 04c8 B8000000 		.4byte	0xb8
 2187 04cc 05       		.uleb128 0x5
 2188 04cd 95080000 		.4byte	.LASF111
 2189 04d1 07       		.byte	0x7
 2190 04d2 4A01     		.2byte	0x14a
 2191 04d4 1C040000 		.4byte	0x41c
 2192 04d8 17       		.uleb128 0x17
 2193 04d9 18       		.byte	0x18
 2194 04da 07       		.byte	0x7
ARM GAS  C:\Users\RECEPC~1\AppData\Local\Temp\ccMrdYRj.s 			page 49


 2195 04db 5201     		.2byte	0x152
 2196 04dd 3D050000 		.4byte	0x53d
 2197 04e1 15       		.uleb128 0x15
 2198 04e2 BF0D0000 		.4byte	.LASF112
 2199 04e6 07       		.byte	0x7
 2200 04e7 5501     		.2byte	0x155
 2201 04e9 0A020000 		.4byte	0x20a
 2202 04ed 00       		.byte	0
 2203 04ee 15       		.uleb128 0x15
 2204 04ef 440E0000 		.4byte	.LASF113
 2205 04f3 07       		.byte	0x7
 2206 04f4 5601     		.2byte	0x156
 2207 04f6 DE000000 		.4byte	0xde
 2208 04fa 01       		.byte	0x1
 2209 04fb 15       		.uleb128 0x15
 2210 04fc FC010000 		.4byte	.LASF114
 2211 0500 07       		.byte	0x7
 2212 0501 5701     		.2byte	0x157
 2213 0503 DE000000 		.4byte	0xde
 2214 0507 02       		.byte	0x2
 2215 0508 15       		.uleb128 0x15
 2216 0509 1E0D0000 		.4byte	.LASF115
 2217 050d 07       		.byte	0x7
 2218 050e 5801     		.2byte	0x158
 2219 0510 E3000000 		.4byte	0xe3
 2220 0514 04       		.byte	0x4
 2221 0515 15       		.uleb128 0x15
 2222 0516 CB000000 		.4byte	.LASF116
 2223 051a 07       		.byte	0x7
 2224 051b 5901     		.2byte	0x159
 2225 051d E8000000 		.4byte	0xe8
 2226 0521 08       		.byte	0x8
 2227 0522 15       		.uleb128 0x15
 2228 0523 C5060000 		.4byte	.LASF117
 2229 0527 07       		.byte	0x7
 2230 0528 5A01     		.2byte	0x15a
 2231 052a E8000000 		.4byte	0xe8
 2232 052e 0C       		.byte	0xc
 2233 052f 15       		.uleb128 0x15
 2234 0530 6C040000 		.4byte	.LASF118
 2235 0534 07       		.byte	0x7
 2236 0535 5B01     		.2byte	0x15b
 2237 0537 3D050000 		.4byte	0x53d
 2238 053b 10       		.byte	0x10
 2239 053c 00       		.byte	0
 2240 053d 08       		.uleb128 0x8
 2241 053e CB000000 		.4byte	0xcb
 2242 0542 4D050000 		.4byte	0x54d
 2243 0546 09       		.uleb128 0x9
 2244 0547 ED000000 		.4byte	0xed
 2245 054b 07       		.byte	0x7
 2246 054c 00       		.byte	0
 2247 054d 05       		.uleb128 0x5
 2248 054e 70070000 		.4byte	.LASF119
 2249 0552 07       		.byte	0x7
 2250 0553 5D01     		.2byte	0x15d
 2251 0555 D8040000 		.4byte	0x4d8
ARM GAS  C:\Users\RECEPC~1\AppData\Local\Temp\ccMrdYRj.s 			page 50


 2252 0559 18       		.uleb128 0x18
 2253 055a B00B0000 		.4byte	.LASF120
 2254 055e 9009     		.2byte	0x990
 2255 0560 07       		.byte	0x7
 2256 0561 6001     		.2byte	0x160
 2257 0563 58070000 		.4byte	0x758
 2258 0567 15       		.uleb128 0x15
 2259 0568 C3000000 		.4byte	.LASF121
 2260 056c 07       		.byte	0x7
 2261 056d 6201     		.2byte	0x162
 2262 056f 81000000 		.4byte	0x81
 2263 0573 00       		.byte	0
 2264 0574 15       		.uleb128 0x15
 2265 0575 5F0C0000 		.4byte	.LASF122
 2266 0579 07       		.byte	0x7
 2267 057a 6301     		.2byte	0x163
 2268 057c 81000000 		.4byte	0x81
 2269 0580 01       		.byte	0x1
 2270 0581 15       		.uleb128 0x15
 2271 0582 E20D0000 		.4byte	.LASF123
 2272 0586 07       		.byte	0x7
 2273 0587 6501     		.2byte	0x165
 2274 0589 DE000000 		.4byte	0xde
 2275 058d 02       		.byte	0x2
 2276 058e 15       		.uleb128 0x15
 2277 058f 08040000 		.4byte	.LASF124
 2278 0593 07       		.byte	0x7
 2279 0594 6601     		.2byte	0x166
 2280 0596 DE000000 		.4byte	0xde
 2281 059a 03       		.byte	0x3
 2282 059b 15       		.uleb128 0x15
 2283 059c 3D030000 		.4byte	.LASF125
 2284 05a0 07       		.byte	0x7
 2285 05a1 6701     		.2byte	0x167
 2286 05a3 DE000000 		.4byte	0xde
 2287 05a7 04       		.byte	0x4
 2288 05a8 15       		.uleb128 0x15
 2289 05a9 68020000 		.4byte	.LASF126
 2290 05ad 07       		.byte	0x7
 2291 05ae 6801     		.2byte	0x168
 2292 05b0 0A020000 		.4byte	0x20a
 2293 05b4 05       		.byte	0x5
 2294 05b5 15       		.uleb128 0x15
 2295 05b6 6D060000 		.4byte	.LASF127
 2296 05ba 07       		.byte	0x7
 2297 05bb 6A01     		.2byte	0x16a
 2298 05bd DE000000 		.4byte	0xde
 2299 05c1 06       		.byte	0x6
 2300 05c2 15       		.uleb128 0x15
 2301 05c3 6A050000 		.4byte	.LASF128
 2302 05c7 07       		.byte	0x7
 2303 05c8 6B01     		.2byte	0x16b
 2304 05ca DE000000 		.4byte	0xde
 2305 05ce 07       		.byte	0x7
 2306 05cf 15       		.uleb128 0x15
 2307 05d0 BF0D0000 		.4byte	.LASF112
 2308 05d4 07       		.byte	0x7
ARM GAS  C:\Users\RECEPC~1\AppData\Local\Temp\ccMrdYRj.s 			page 51


 2309 05d5 6D01     		.2byte	0x16d
 2310 05d7 0A020000 		.4byte	0x20a
 2311 05db 08       		.byte	0x8
 2312 05dc 15       		.uleb128 0x15
 2313 05dd 5D0E0000 		.4byte	.LASF129
 2314 05e1 07       		.byte	0x7
 2315 05e2 6E01     		.2byte	0x16e
 2316 05e4 0A020000 		.4byte	0x20a
 2317 05e8 09       		.byte	0x9
 2318 05e9 15       		.uleb128 0x15
 2319 05ea C4020000 		.4byte	.LASF130
 2320 05ee 07       		.byte	0x7
 2321 05ef 6F01     		.2byte	0x16f
 2322 05f1 0A020000 		.4byte	0x20a
 2323 05f5 0A       		.byte	0xa
 2324 05f6 15       		.uleb128 0x15
 2325 05f7 F2060000 		.4byte	.LASF131
 2326 05fb 07       		.byte	0x7
 2327 05fc 7001     		.2byte	0x170
 2328 05fe 0A020000 		.4byte	0x20a
 2329 0602 0B       		.byte	0xb
 2330 0603 15       		.uleb128 0x15
 2331 0604 7E050000 		.4byte	.LASF132
 2332 0608 07       		.byte	0x7
 2333 0609 7101     		.2byte	0x171
 2334 060b DE000000 		.4byte	0xde
 2335 060f 0C       		.byte	0xc
 2336 0610 15       		.uleb128 0x15
 2337 0611 380A0000 		.4byte	.LASF133
 2338 0615 07       		.byte	0x7
 2339 0616 7201     		.2byte	0x172
 2340 0618 0A020000 		.4byte	0x20a
 2341 061c 0D       		.byte	0xd
 2342 061d 15       		.uleb128 0x15
 2343 061e 260A0000 		.4byte	.LASF134
 2344 0622 07       		.byte	0x7
 2345 0623 7301     		.2byte	0x173
 2346 0625 DE000000 		.4byte	0xde
 2347 0629 0E       		.byte	0xe
 2348 062a 15       		.uleb128 0x15
 2349 062b EA030000 		.4byte	.LASF135
 2350 062f 07       		.byte	0x7
 2351 0630 7501     		.2byte	0x175
 2352 0632 0A020000 		.4byte	0x20a
 2353 0636 0F       		.byte	0xf
 2354 0637 15       		.uleb128 0x15
 2355 0638 6C000000 		.4byte	.LASF136
 2356 063c 07       		.byte	0x7
 2357 063d 7701     		.2byte	0x177
 2358 063f E8000000 		.4byte	0xe8
 2359 0643 10       		.byte	0x10
 2360 0644 15       		.uleb128 0x15
 2361 0645 F8080000 		.4byte	.LASF137
 2362 0649 07       		.byte	0x7
 2363 064a 7801     		.2byte	0x178
 2364 064c E8000000 		.4byte	0xe8
 2365 0650 14       		.byte	0x14
ARM GAS  C:\Users\RECEPC~1\AppData\Local\Temp\ccMrdYRj.s 			page 52


 2366 0651 15       		.uleb128 0x15
 2367 0652 5F000000 		.4byte	.LASF138
 2368 0656 07       		.byte	0x7
 2369 0657 7B01     		.2byte	0x17b
 2370 0659 DE000000 		.4byte	0xde
 2371 065d 18       		.byte	0x18
 2372 065e 15       		.uleb128 0x15
 2373 065f 90030000 		.4byte	.LASF96
 2374 0663 07       		.byte	0x7
 2375 0664 7C01     		.2byte	0x17c
 2376 0666 DE000000 		.4byte	0xde
 2377 066a 19       		.byte	0x19
 2378 066b 15       		.uleb128 0x15
 2379 066c C1080000 		.4byte	.LASF139
 2380 0670 07       		.byte	0x7
 2381 0671 7E01     		.2byte	0x17e
 2382 0673 F4000000 		.4byte	0xf4
 2383 0677 1C       		.byte	0x1c
 2384 0678 15       		.uleb128 0x15
 2385 0679 7E030000 		.4byte	.LASF140
 2386 067d 07       		.byte	0x7
 2387 067e 7F01     		.2byte	0x17f
 2388 0680 58070000 		.4byte	0x758
 2389 0684 20       		.byte	0x20
 2390 0685 16       		.uleb128 0x16
 2391 0686 8F050000 		.4byte	.LASF141
 2392 068a 07       		.byte	0x7
 2393 068b 8101     		.2byte	0x181
 2394 068d 58070000 		.4byte	0x758
 2395 0691 8801     		.2byte	0x188
 2396 0693 16       		.uleb128 0x16
 2397 0694 DE000000 		.4byte	.LASF142
 2398 0698 07       		.byte	0x7
 2399 0699 8201     		.2byte	0x182
 2400 069b 8D000000 		.4byte	0x8d
 2401 069f F002     		.2byte	0x2f0
 2402 06a1 16       		.uleb128 0x16
 2403 06a2 43060000 		.4byte	.LASF143
 2404 06a6 07       		.byte	0x7
 2405 06a7 8601     		.2byte	0x186
 2406 06a9 69070000 		.4byte	0x769
 2407 06ad F202     		.2byte	0x2f2
 2408 06af 16       		.uleb128 0x16
 2409 06b0 C8030000 		.4byte	.LASF144
 2410 06b4 07       		.byte	0x7
 2411 06b5 8801     		.2byte	0x188
 2412 06b7 0A020000 		.4byte	0x20a
 2413 06bb 0A09     		.2byte	0x90a
 2414 06bd 16       		.uleb128 0x16
 2415 06be 0F0E0000 		.4byte	.LASF145
 2416 06c2 07       		.byte	0x7
 2417 06c3 8A01     		.2byte	0x18a
 2418 06c5 32020000 		.4byte	0x232
 2419 06c9 0C09     		.2byte	0x90c
 2420 06cb 16       		.uleb128 0x16
 2421 06cc C0070000 		.4byte	.LASF146
 2422 06d0 07       		.byte	0x7
ARM GAS  C:\Users\RECEPC~1\AppData\Local\Temp\ccMrdYRj.s 			page 53


 2423 06d1 8B01     		.2byte	0x18b
 2424 06d3 32020000 		.4byte	0x232
 2425 06d7 1009     		.2byte	0x910
 2426 06d9 16       		.uleb128 0x16
 2427 06da 480A0000 		.4byte	.LASF147
 2428 06de 07       		.byte	0x7
 2429 06df 8C01     		.2byte	0x18c
 2430 06e1 8D070000 		.4byte	0x78d
 2431 06e5 1409     		.2byte	0x914
 2432 06e7 16       		.uleb128 0x16
 2433 06e8 0B030000 		.4byte	.LASF148
 2434 06ec 07       		.byte	0x7
 2435 06ed 8D01     		.2byte	0x18d
 2436 06ef A3070000 		.4byte	0x7a3
 2437 06f3 1809     		.2byte	0x918
 2438 06f5 16       		.uleb128 0x16
 2439 06f6 5B010000 		.4byte	.LASF149
 2440 06fa 07       		.byte	0x7
 2441 06fb 8E01     		.2byte	0x18e
 2442 06fd A3070000 		.4byte	0x7a3
 2443 0701 1C09     		.2byte	0x91c
 2444 0703 16       		.uleb128 0x16
 2445 0704 3B000000 		.4byte	.LASF150
 2446 0708 07       		.byte	0x7
 2447 0709 8F01     		.2byte	0x18f
 2448 070b B8070000 		.4byte	0x7b8
 2449 070f 2009     		.2byte	0x920
 2450 0711 16       		.uleb128 0x16
 2451 0712 920E0000 		.4byte	.LASF151
 2452 0716 07       		.byte	0x7
 2453 0717 9001     		.2byte	0x190
 2454 0719 B8070000 		.4byte	0x7b8
 2455 071d 2409     		.2byte	0x924
 2456 071f 16       		.uleb128 0x16
 2457 0720 7B000000 		.4byte	.LASF152
 2458 0724 07       		.byte	0x7
 2459 0725 9201     		.2byte	0x192
 2460 0727 CD070000 		.4byte	0x7cd
 2461 072b 2809     		.2byte	0x928
 2462 072d 16       		.uleb128 0x16
 2463 072e A7080000 		.4byte	.LASF153
 2464 0732 07       		.byte	0x7
 2465 0733 9401     		.2byte	0x194
 2466 0735 CC040000 		.4byte	0x4cc
 2467 0739 3009     		.2byte	0x930
 2468 073b 16       		.uleb128 0x16
 2469 073c 1A000000 		.4byte	.LASF154
 2470 0740 07       		.byte	0x7
 2471 0741 9501     		.2byte	0x195
 2472 0743 4D050000 		.4byte	0x54d
 2473 0747 7009     		.2byte	0x970
 2474 0749 16       		.uleb128 0x16
 2475 074a 76030000 		.4byte	.LASF155
 2476 074e 07       		.byte	0x7
 2477 074f 9701     		.2byte	0x197
 2478 0751 32020000 		.4byte	0x232
 2479 0755 8809     		.2byte	0x988
ARM GAS  C:\Users\RECEPC~1\AppData\Local\Temp\ccMrdYRj.s 			page 54


 2480 0757 00       		.byte	0
 2481 0758 08       		.uleb128 0x8
 2482 0759 CB000000 		.4byte	0xcb
 2483 075d 69070000 		.4byte	0x769
 2484 0761 0F       		.uleb128 0xf
 2485 0762 ED000000 		.4byte	0xed
 2486 0766 6701     		.2byte	0x167
 2487 0768 00       		.byte	0
 2488 0769 08       		.uleb128 0x8
 2489 076a FE030000 		.4byte	0x3fe
 2490 076e 79070000 		.4byte	0x779
 2491 0772 09       		.uleb128 0x9
 2492 0773 ED000000 		.4byte	0xed
 2493 0777 05       		.byte	0x5
 2494 0778 00       		.byte	0
 2495 0779 19       		.uleb128 0x19
 2496 077a 0F020000 		.4byte	0x20f
 2497 077e 8D070000 		.4byte	0x78d
 2498 0782 11       		.uleb128 0x11
 2499 0783 F4000000 		.4byte	0xf4
 2500 0787 11       		.uleb128 0x11
 2501 0788 81000000 		.4byte	0x81
 2502 078c 00       		.byte	0
 2503 078d 12       		.uleb128 0x12
 2504 078e 04       		.byte	0x4
 2505 078f 79070000 		.4byte	0x779
 2506 0793 10       		.uleb128 0x10
 2507 0794 A3070000 		.4byte	0x7a3
 2508 0798 11       		.uleb128 0x11
 2509 0799 F4000000 		.4byte	0xf4
 2510 079d 11       		.uleb128 0x11
 2511 079e 0A040000 		.4byte	0x40a
 2512 07a2 00       		.byte	0
 2513 07a3 12       		.uleb128 0x12
 2514 07a4 04       		.byte	0x4
 2515 07a5 93070000 		.4byte	0x793
 2516 07a9 19       		.uleb128 0x19
 2517 07aa 0A040000 		.4byte	0x40a
 2518 07ae B8070000 		.4byte	0x7b8
 2519 07b2 11       		.uleb128 0x11
 2520 07b3 F4000000 		.4byte	0xf4
 2521 07b7 00       		.byte	0
 2522 07b8 12       		.uleb128 0x12
 2523 07b9 04       		.byte	0x4
 2524 07ba A9070000 		.4byte	0x7a9
 2525 07be 19       		.uleb128 0x19
 2526 07bf 0F020000 		.4byte	0x20f
 2527 07c3 CD070000 		.4byte	0x7cd
 2528 07c7 11       		.uleb128 0x11
 2529 07c8 F4000000 		.4byte	0xf4
 2530 07cc 00       		.byte	0
 2531 07cd 12       		.uleb128 0x12
 2532 07ce 04       		.byte	0x4
 2533 07cf BE070000 		.4byte	0x7be
 2534 07d3 05       		.uleb128 0x5
 2535 07d4 D9000000 		.4byte	.LASF156
 2536 07d8 07       		.byte	0x7
ARM GAS  C:\Users\RECEPC~1\AppData\Local\Temp\ccMrdYRj.s 			page 55


 2537 07d9 9901     		.2byte	0x199
 2538 07db 59050000 		.4byte	0x559
 2539 07df 1A       		.uleb128 0x1a
 2540 07e0 F1030000 		.4byte	.LASF157
 2541 07e4 34       		.byte	0x34
 2542 07e5 07       		.byte	0x7
 2543 07e6 9E01     		.2byte	0x19e
 2544 07e8 A3080000 		.4byte	0x8a3
 2545 07ec 15       		.uleb128 0x15
 2546 07ed 470C0000 		.4byte	.LASF158
 2547 07f1 07       		.byte	0x7
 2548 07f2 A001     		.2byte	0x1a0
 2549 07f4 32020000 		.4byte	0x232
 2550 07f8 00       		.byte	0
 2551 07f9 15       		.uleb128 0x15
 2552 07fa 2D090000 		.4byte	.LASF159
 2553 07fe 07       		.byte	0x7
 2554 07ff A101     		.2byte	0x1a1
 2555 0801 32020000 		.4byte	0x232
 2556 0805 04       		.byte	0x4
 2557 0806 15       		.uleb128 0x15
 2558 0807 CB0D0000 		.4byte	.LASF160
 2559 080b 07       		.byte	0x7
 2560 080c A201     		.2byte	0x1a2
 2561 080e 32020000 		.4byte	0x232
 2562 0812 08       		.byte	0x8
 2563 0813 15       		.uleb128 0x15
 2564 0814 8A000000 		.4byte	.LASF161
 2565 0818 07       		.byte	0x7
 2566 0819 A301     		.2byte	0x1a3
 2567 081b BC080000 		.4byte	0x8bc
 2568 081f 0C       		.byte	0xc
 2569 0820 15       		.uleb128 0x15
 2570 0821 54050000 		.4byte	.LASF162
 2571 0825 07       		.byte	0x7
 2572 0826 A401     		.2byte	0x1a4
 2573 0828 8D000000 		.4byte	0x8d
 2574 082c 10       		.byte	0x10
 2575 082d 15       		.uleb128 0x15
 2576 082e 9C0B0000 		.4byte	.LASF163
 2577 0832 07       		.byte	0x7
 2578 0833 A501     		.2byte	0x1a5
 2579 0835 99000000 		.4byte	0x99
 2580 0839 14       		.byte	0x14
 2581 083a 15       		.uleb128 0x15
 2582 083b B6020000 		.4byte	.LASF164
 2583 083f 07       		.byte	0x7
 2584 0840 A601     		.2byte	0x1a6
 2585 0842 81000000 		.4byte	0x81
 2586 0846 18       		.byte	0x18
 2587 0847 15       		.uleb128 0x15
 2588 0848 36090000 		.4byte	.LASF165
 2589 084c 07       		.byte	0x7
 2590 084d A801     		.2byte	0x1a8
 2591 084f 0F020000 		.4byte	0x20f
 2592 0853 19       		.byte	0x19
 2593 0854 15       		.uleb128 0x15
ARM GAS  C:\Users\RECEPC~1\AppData\Local\Temp\ccMrdYRj.s 			page 56


 2594 0855 77090000 		.4byte	.LASF166
 2595 0859 07       		.byte	0x7
 2596 085a AC01     		.2byte	0x1ac
 2597 085c C2080000 		.4byte	0x8c2
 2598 0860 1A       		.byte	0x1a
 2599 0861 15       		.uleb128 0x15
 2600 0862 DF0C0000 		.4byte	.LASF167
 2601 0866 07       		.byte	0x7
 2602 0867 AE01     		.2byte	0x1ae
 2603 0869 F6000000 		.4byte	0xf6
 2604 086d 1E       		.byte	0x1e
 2605 086e 15       		.uleb128 0x15
 2606 086f 3B020000 		.4byte	.LASF168
 2607 0873 07       		.byte	0x7
 2608 0874 B201     		.2byte	0x1b2
 2609 0876 C2080000 		.4byte	0x8c2
 2610 087a 22       		.byte	0x22
 2611 087b 15       		.uleb128 0x15
 2612 087c 1B050000 		.4byte	.LASF169
 2613 0880 07       		.byte	0x7
 2614 0881 B401     		.2byte	0x1b4
 2615 0883 F6000000 		.4byte	0xf6
 2616 0887 26       		.byte	0x26
 2617 0888 15       		.uleb128 0x15
 2618 0889 A80E0000 		.4byte	.LASF170
 2619 088d 07       		.byte	0x7
 2620 088e B601     		.2byte	0x1b6
 2621 0890 32020000 		.4byte	0x232
 2622 0894 2C       		.byte	0x2c
 2623 0895 15       		.uleb128 0x15
 2624 0896 05000000 		.4byte	.LASF171
 2625 089a 07       		.byte	0x7
 2626 089b B701     		.2byte	0x1b7
 2627 089d 32020000 		.4byte	0x232
 2628 08a1 30       		.byte	0x30
 2629 08a2 00       		.byte	0
 2630 08a3 19       		.uleb128 0x19
 2631 08a4 0F020000 		.4byte	0x20f
 2632 08a8 BC080000 		.4byte	0x8bc
 2633 08ac 11       		.uleb128 0x11
 2634 08ad F4000000 		.4byte	0xf4
 2635 08b1 11       		.uleb128 0x11
 2636 08b2 F4000000 		.4byte	0xf4
 2637 08b6 11       		.uleb128 0x11
 2638 08b7 8D000000 		.4byte	0x8d
 2639 08bb 00       		.byte	0
 2640 08bc 12       		.uleb128 0x12
 2641 08bd 04       		.byte	0x4
 2642 08be A3080000 		.4byte	0x8a3
 2643 08c2 08       		.uleb128 0x8
 2644 08c3 0F020000 		.4byte	0x20f
 2645 08c7 D2080000 		.4byte	0x8d2
 2646 08cb 09       		.uleb128 0x9
 2647 08cc ED000000 		.4byte	0xed
 2648 08d0 03       		.byte	0x3
 2649 08d1 00       		.byte	0
 2650 08d2 05       		.uleb128 0x5
ARM GAS  C:\Users\RECEPC~1\AppData\Local\Temp\ccMrdYRj.s 			page 57


 2651 08d3 800D0000 		.4byte	.LASF172
 2652 08d7 07       		.byte	0x7
 2653 08d8 B801     		.2byte	0x1b8
 2654 08da DF070000 		.4byte	0x7df
 2655 08de 17       		.uleb128 0x17
 2656 08df 28       		.byte	0x28
 2657 08e0 07       		.byte	0x7
 2658 08e1 C701     		.2byte	0x1c7
 2659 08e3 B8090000 		.4byte	0x9b8
 2660 08e7 15       		.uleb128 0x15
 2661 08e8 A40C0000 		.4byte	.LASF173
 2662 08ec 07       		.byte	0x7
 2663 08ed C901     		.2byte	0x1c9
 2664 08ef 0A020000 		.4byte	0x20a
 2665 08f3 00       		.byte	0
 2666 08f4 15       		.uleb128 0x15
 2667 08f5 B6030000 		.4byte	.LASF174
 2668 08f9 07       		.byte	0x7
 2669 08fa CA01     		.2byte	0x1ca
 2670 08fc DE000000 		.4byte	0xde
 2671 0900 01       		.byte	0x1
 2672 0901 15       		.uleb128 0x15
 2673 0902 94020000 		.4byte	.LASF51
 2674 0906 07       		.byte	0x7
 2675 0907 CD01     		.2byte	0x1cd
 2676 0909 DE000000 		.4byte	0xde
 2677 090d 02       		.byte	0x2
 2678 090e 15       		.uleb128 0x15
 2679 090f 6B0E0000 		.4byte	.LASF175
 2680 0913 07       		.byte	0x7
 2681 0914 CF01     		.2byte	0x1cf
 2682 0916 E3000000 		.4byte	0xe3
 2683 091a 04       		.byte	0x4
 2684 091b 15       		.uleb128 0x15
 2685 091c EE0C0000 		.4byte	.LASF176
 2686 0920 07       		.byte	0x7
 2687 0921 D001     		.2byte	0x1d0
 2688 0923 E3000000 		.4byte	0xe3
 2689 0927 06       		.byte	0x6
 2690 0928 15       		.uleb128 0x15
 2691 0929 52020000 		.4byte	.LASF177
 2692 092d 07       		.byte	0x7
 2693 092e D201     		.2byte	0x1d2
 2694 0930 E3000000 		.4byte	0xe3
 2695 0934 08       		.byte	0x8
 2696 0935 15       		.uleb128 0x15
 2697 0936 33010000 		.4byte	.LASF178
 2698 093a 07       		.byte	0x7
 2699 093b D301     		.2byte	0x1d3
 2700 093d E3000000 		.4byte	0xe3
 2701 0941 0A       		.byte	0xa
 2702 0942 15       		.uleb128 0x15
 2703 0943 74010000 		.4byte	.LASF179
 2704 0947 07       		.byte	0x7
 2705 0948 D401     		.2byte	0x1d4
 2706 094a E3000000 		.4byte	0xe3
 2707 094e 0C       		.byte	0xc
ARM GAS  C:\Users\RECEPC~1\AppData\Local\Temp\ccMrdYRj.s 			page 58


 2708 094f 15       		.uleb128 0x15
 2709 0950 2B050000 		.4byte	.LASF180
 2710 0954 07       		.byte	0x7
 2711 0955 D601     		.2byte	0x1d6
 2712 0957 E3000000 		.4byte	0xe3
 2713 095b 0E       		.byte	0xe
 2714 095c 15       		.uleb128 0x15
 2715 095d 680A0000 		.4byte	.LASF181
 2716 0961 07       		.byte	0x7
 2717 0962 D701     		.2byte	0x1d7
 2718 0964 E3000000 		.4byte	0xe3
 2719 0968 10       		.byte	0x10
 2720 0969 15       		.uleb128 0x15
 2721 096a 0B0C0000 		.4byte	.LASF182
 2722 096e 07       		.byte	0x7
 2723 096f D801     		.2byte	0x1d8
 2724 0971 E3000000 		.4byte	0xe3
 2725 0975 12       		.byte	0x12
 2726 0976 15       		.uleb128 0x15
 2727 0977 4F060000 		.4byte	.LASF183
 2728 097b 07       		.byte	0x7
 2729 097c DA01     		.2byte	0x1da
 2730 097e B8090000 		.4byte	0x9b8
 2731 0982 14       		.byte	0x14
 2732 0983 15       		.uleb128 0x15
 2733 0984 D0020000 		.4byte	.LASF184
 2734 0988 07       		.byte	0x7
 2735 0989 DB01     		.2byte	0x1db
 2736 098b B8090000 		.4byte	0x9b8
 2737 098f 18       		.byte	0x18
 2738 0990 15       		.uleb128 0x15
 2739 0991 DB020000 		.4byte	.LASF185
 2740 0995 07       		.byte	0x7
 2741 0996 DC01     		.2byte	0x1dc
 2742 0998 BE090000 		.4byte	0x9be
 2743 099c 1C       		.byte	0x1c
 2744 099d 15       		.uleb128 0x15
 2745 099e 060E0000 		.4byte	.LASF46
 2746 09a2 07       		.byte	0x7
 2747 09a3 DE01     		.2byte	0x1de
 2748 09a5 32020000 		.4byte	0x232
 2749 09a9 20       		.byte	0x20
 2750 09aa 15       		.uleb128 0x15
 2751 09ab BC000000 		.4byte	.LASF45
 2752 09af 07       		.byte	0x7
 2753 09b0 DF01     		.2byte	0x1df
 2754 09b2 F4000000 		.4byte	0xf4
 2755 09b6 24       		.byte	0x24
 2756 09b7 00       		.byte	0
 2757 09b8 12       		.uleb128 0x12
 2758 09b9 04       		.byte	0x4
 2759 09ba D2080000 		.4byte	0x8d2
 2760 09be 12       		.uleb128 0x12
 2761 09bf 04       		.byte	0x4
 2762 09c0 D3070000 		.4byte	0x7d3
 2763 09c4 05       		.uleb128 0x5
 2764 09c5 35070000 		.4byte	.LASF186
ARM GAS  C:\Users\RECEPC~1\AppData\Local\Temp\ccMrdYRj.s 			page 59


 2765 09c9 07       		.byte	0x7
 2766 09ca E101     		.2byte	0x1e1
 2767 09cc DE080000 		.4byte	0x8de
 2768 09d0 05       		.uleb128 0x5
 2769 09d1 96070000 		.4byte	.LASF187
 2770 09d5 07       		.byte	0x7
 2771 09d6 E101     		.2byte	0x1e1
 2772 09d8 DC090000 		.4byte	0x9dc
 2773 09dc 12       		.uleb128 0x12
 2774 09dd 04       		.byte	0x4
 2775 09de DE080000 		.4byte	0x8de
 2776 09e2 18       		.uleb128 0x18
 2777 09e3 720E0000 		.4byte	.LASF188
 2778 09e7 0408     		.2byte	0x804
 2779 09e9 07       		.byte	0x7
 2780 09ea E301     		.2byte	0x1e3
 2781 09ec 6D0A0000 		.4byte	0xa6d
 2782 09f0 15       		.uleb128 0x15
 2783 09f1 DC0B0000 		.4byte	.LASF189
 2784 09f5 07       		.byte	0x7
 2785 09f6 E501     		.2byte	0x1e5
 2786 09f8 E3000000 		.4byte	0xe3
 2787 09fc 00       		.byte	0
 2788 09fd 15       		.uleb128 0x15
 2789 09fe F3050000 		.4byte	.LASF190
 2790 0a02 07       		.byte	0x7
 2791 0a03 E701     		.2byte	0x1e7
 2792 0a05 6D0A0000 		.4byte	0xa6d
 2793 0a09 04       		.byte	0x4
 2794 0a0a 16       		.uleb128 0x16
 2795 0a0b D3080000 		.4byte	.LASF191
 2796 0a0f 07       		.byte	0x7
 2797 0a10 E801     		.2byte	0x1e8
 2798 0a12 7D0A0000 		.4byte	0xa7d
 2799 0a16 3407     		.2byte	0x734
 2800 0a18 16       		.uleb128 0x16
 2801 0a19 DB0D0000 		.4byte	.LASF192
 2802 0a1d 07       		.byte	0x7
 2803 0a1e EA01     		.2byte	0x1ea
 2804 0a20 32020000 		.4byte	0x232
 2805 0a24 EC07     		.2byte	0x7ec
 2806 0a26 16       		.uleb128 0x16
 2807 0a27 90060000 		.4byte	.LASF193
 2808 0a2b 07       		.byte	0x7
 2809 0a2c EB01     		.2byte	0x1eb
 2810 0a2e A20A0000 		.4byte	0xaa2
 2811 0a32 F007     		.2byte	0x7f0
 2812 0a34 16       		.uleb128 0x16
 2813 0a35 12000000 		.4byte	.LASF194
 2814 0a39 07       		.byte	0x7
 2815 0a3a EC01     		.2byte	0x1ec
 2816 0a3c B80A0000 		.4byte	0xab8
 2817 0a40 F407     		.2byte	0x7f4
 2818 0a42 16       		.uleb128 0x16
 2819 0a43 3F0E0000 		.4byte	.LASF195
 2820 0a47 07       		.byte	0x7
 2821 0a48 ED01     		.2byte	0x1ed
ARM GAS  C:\Users\RECEPC~1\AppData\Local\Temp\ccMrdYRj.s 			page 60


 2822 0a4a A20A0000 		.4byte	0xaa2
 2823 0a4e F807     		.2byte	0x7f8
 2824 0a50 16       		.uleb128 0x16
 2825 0a51 AA060000 		.4byte	.LASF196
 2826 0a55 07       		.byte	0x7
 2827 0a56 EE01     		.2byte	0x1ee
 2828 0a58 32020000 		.4byte	0x232
 2829 0a5c FC07     		.2byte	0x7fc
 2830 0a5e 16       		.uleb128 0x16
 2831 0a5f 4E050000 		.4byte	.LASF197
 2832 0a63 07       		.byte	0x7
 2833 0a64 EF01     		.2byte	0x1ef
 2834 0a66 32020000 		.4byte	0x232
 2835 0a6a 0008     		.2byte	0x800
 2836 0a6c 00       		.byte	0
 2837 0a6d 08       		.uleb128 0x8
 2838 0a6e C4090000 		.4byte	0x9c4
 2839 0a72 7D0A0000 		.4byte	0xa7d
 2840 0a76 09       		.uleb128 0x9
 2841 0a77 ED000000 		.4byte	0xed
 2842 0a7b 2D       		.byte	0x2d
 2843 0a7c 00       		.byte	0
 2844 0a7d 08       		.uleb128 0x8
 2845 0a7e 8D0A0000 		.4byte	0xa8d
 2846 0a82 8D0A0000 		.4byte	0xa8d
 2847 0a86 09       		.uleb128 0x9
 2848 0a87 ED000000 		.4byte	0xed
 2849 0a8b 2D       		.byte	0x2d
 2850 0a8c 00       		.byte	0
 2851 0a8d 12       		.uleb128 0x12
 2852 0a8e 04       		.byte	0x4
 2853 0a8f C4090000 		.4byte	0x9c4
 2854 0a93 19       		.uleb128 0x19
 2855 0a94 8D0A0000 		.4byte	0xa8d
 2856 0a98 A20A0000 		.4byte	0xaa2
 2857 0a9c 11       		.uleb128 0x11
 2858 0a9d F4000000 		.4byte	0xf4
 2859 0aa1 00       		.byte	0
 2860 0aa2 12       		.uleb128 0x12
 2861 0aa3 04       		.byte	0x4
 2862 0aa4 930A0000 		.4byte	0xa93
 2863 0aa8 10       		.uleb128 0x10
 2864 0aa9 B80A0000 		.4byte	0xab8
 2865 0aad 11       		.uleb128 0x11
 2866 0aae F4000000 		.4byte	0xf4
 2867 0ab2 11       		.uleb128 0x11
 2868 0ab3 8D0A0000 		.4byte	0xa8d
 2869 0ab7 00       		.byte	0
 2870 0ab8 12       		.uleb128 0x12
 2871 0ab9 04       		.byte	0x4
 2872 0aba A80A0000 		.4byte	0xaa8
 2873 0abe 05       		.uleb128 0x5
 2874 0abf 52000000 		.4byte	.LASF198
 2875 0ac3 07       		.byte	0x7
 2876 0ac4 F101     		.2byte	0x1f1
 2877 0ac6 E2090000 		.4byte	0x9e2
 2878 0aca 14       		.uleb128 0x14
ARM GAS  C:\Users\RECEPC~1\AppData\Local\Temp\ccMrdYRj.s 			page 61


 2879 0acb 0C02     		.2byte	0x20c
 2880 0acd 07       		.byte	0x7
 2881 0ace F301     		.2byte	0x1f3
 2882 0ad0 160B0000 		.4byte	0xb16
 2883 0ad4 15       		.uleb128 0x15
 2884 0ad5 660D0000 		.4byte	.LASF199
 2885 0ad9 07       		.byte	0x7
 2886 0ada F501     		.2byte	0x1f5
 2887 0adc F4000000 		.4byte	0xf4
 2888 0ae0 00       		.byte	0
 2889 0ae1 15       		.uleb128 0x15
 2890 0ae2 9B030000 		.4byte	.LASF200
 2891 0ae6 07       		.byte	0x7
 2892 0ae7 F601     		.2byte	0x1f6
 2893 0ae9 0A020000 		.4byte	0x20a
 2894 0aed 04       		.byte	0x4
 2895 0aee 15       		.uleb128 0x15
 2896 0aef B6020000 		.4byte	.LASF164
 2897 0af3 07       		.byte	0x7
 2898 0af4 F701     		.2byte	0x1f7
 2899 0af6 E3000000 		.4byte	0xe3
 2900 0afa 06       		.byte	0x6
 2901 0afb 15       		.uleb128 0x15
 2902 0afc 8A000000 		.4byte	.LASF161
 2903 0b00 07       		.byte	0x7
 2904 0b01 F801     		.2byte	0x1f8
 2905 0b03 BC080000 		.4byte	0x8bc
 2906 0b07 08       		.byte	0x8
 2907 0b08 15       		.uleb128 0x15
 2908 0b09 8F050000 		.4byte	.LASF141
 2909 0b0d 07       		.byte	0x7
 2910 0b0e F901     		.2byte	0x1f9
 2911 0b10 160B0000 		.4byte	0xb16
 2912 0b14 0C       		.byte	0xc
 2913 0b15 00       		.byte	0
 2914 0b16 08       		.uleb128 0x8
 2915 0b17 CB000000 		.4byte	0xcb
 2916 0b1b 270B0000 		.4byte	0xb27
 2917 0b1f 0F       		.uleb128 0xf
 2918 0b20 ED000000 		.4byte	0xed
 2919 0b24 FF01     		.2byte	0x1ff
 2920 0b26 00       		.byte	0
 2921 0b27 05       		.uleb128 0x5
 2922 0b28 C9010000 		.4byte	.LASF201
 2923 0b2c 07       		.byte	0x7
 2924 0b2d FB01     		.2byte	0x1fb
 2925 0b2f CA0A0000 		.4byte	0xaca
 2926 0b33 1B       		.uleb128 0x1b
 2927 0b34 EB040000 		.4byte	.LASF205
 2928 0b38 01       		.byte	0x1
 2929 0b39 32       		.byte	0x32
 2930 0b3a 00000000 		.4byte	.LFB63
 2931 0b3e 1C030000 		.4byte	.LFE63-.LFB63
 2932 0b42 01       		.uleb128 0x1
 2933 0b43 9C       		.byte	0x9c
 2934 0b44 990B0000 		.4byte	0xb99
 2935 0b48 1C       		.uleb128 0x1c
ARM GAS  C:\Users\RECEPC~1\AppData\Local\Temp\ccMrdYRj.s 			page 62


 2936 0b49 B4070000 		.4byte	.LASF202
 2937 0b4d 01       		.byte	0x1
 2938 0b4e 36       		.byte	0x36
 2939 0b4f 9A020000 		.4byte	0x29a
 2940 0b53 02       		.uleb128 0x2
 2941 0b54 91       		.byte	0x91
 2942 0b55 74       		.sleb128 -12
 2943 0b56 1C       		.uleb128 0x1c
 2944 0b57 A4020000 		.4byte	.LASF203
 2945 0b5b 01       		.byte	0x1
 2946 0b5c 7D       		.byte	0x7d
 2947 0b5d 38020000 		.4byte	0x238
 2948 0b61 02       		.uleb128 0x2
 2949 0b62 91       		.byte	0x91
 2950 0b63 6C       		.sleb128 -20
 2951 0b64 1D       		.uleb128 0x1d
 2952 0b65 16000000 		.4byte	.LBB2
 2953 0b69 E4000000 		.4byte	.LBE2-.LBB2
 2954 0b6d 800B0000 		.4byte	0xb80
 2955 0b71 1C       		.uleb128 0x1c
 2956 0b72 8B0C0000 		.4byte	.LASF204
 2957 0b76 01       		.byte	0x1
 2958 0b77 39       		.byte	0x39
 2959 0b78 81000000 		.4byte	0x81
 2960 0b7c 02       		.uleb128 0x2
 2961 0b7d 91       		.byte	0x91
 2962 0b7e 73       		.sleb128 -13
 2963 0b7f 00       		.byte	0
 2964 0b80 1E       		.uleb128 0x1e
 2965 0b81 06010000 		.4byte	.LBB3
 2966 0b85 E4000000 		.4byte	.LBE3-.LBB3
 2967 0b89 1C       		.uleb128 0x1c
 2968 0b8a 8B0C0000 		.4byte	.LASF204
 2969 0b8e 01       		.byte	0x1
 2970 0b8f 5D       		.byte	0x5d
 2971 0b90 81000000 		.4byte	0x81
 2972 0b94 02       		.uleb128 0x2
 2973 0b95 91       		.byte	0x91
 2974 0b96 72       		.sleb128 -14
 2975 0b97 00       		.byte	0
 2976 0b98 00       		.byte	0
 2977 0b99 1B       		.uleb128 0x1b
 2978 0b9a 0A070000 		.4byte	.LASF206
 2979 0b9e 01       		.byte	0x1
 2980 0b9f E4       		.byte	0xe4
 2981 0ba0 00000000 		.4byte	.LFB64
 2982 0ba4 50020000 		.4byte	.LFE64-.LFB64
 2983 0ba8 01       		.uleb128 0x1
 2984 0ba9 9C       		.byte	0x9c
 2985 0baa FF0B0000 		.4byte	0xbff
 2986 0bae 1C       		.uleb128 0x1c
 2987 0baf 860C0000 		.4byte	.LASF207
 2988 0bb3 01       		.byte	0x1
 2989 0bb4 E6       		.byte	0xe6
 2990 0bb5 D0090000 		.4byte	0x9d0
 2991 0bb9 02       		.uleb128 0x2
 2992 0bba 91       		.byte	0x91
ARM GAS  C:\Users\RECEPC~1\AppData\Local\Temp\ccMrdYRj.s 			page 63


 2993 0bbb 74       		.sleb128 -12
 2994 0bbc 1E       		.uleb128 0x1e
 2995 0bbd 24000000 		.4byte	.LBB4
 2996 0bc1 18020000 		.4byte	.LBE4-.LBB4
 2997 0bc5 1C       		.uleb128 0x1c
 2998 0bc6 25090000 		.4byte	.LASF208
 2999 0bca 01       		.byte	0x1
 3000 0bcb E9       		.byte	0xe9
 3001 0bcc 0F020000 		.4byte	0x20f
 3002 0bd0 02       		.uleb128 0x2
 3003 0bd1 91       		.byte	0x91
 3004 0bd2 73       		.sleb128 -13
 3005 0bd3 1C       		.uleb128 0x1c
 3006 0bd4 21030000 		.4byte	.LASF209
 3007 0bd8 01       		.byte	0x1
 3008 0bd9 EA       		.byte	0xea
 3009 0bda 0F020000 		.4byte	0x20f
 3010 0bde 02       		.uleb128 0x2
 3011 0bdf 91       		.byte	0x91
 3012 0be0 72       		.sleb128 -14
 3013 0be1 1C       		.uleb128 0x1c
 3014 0be2 05050000 		.4byte	.LASF210
 3015 0be6 01       		.byte	0x1
 3016 0be7 EB       		.byte	0xeb
 3017 0be8 0F020000 		.4byte	0x20f
 3018 0bec 02       		.uleb128 0x2
 3019 0bed 91       		.byte	0x91
 3020 0bee 71       		.sleb128 -15
 3021 0bef 1C       		.uleb128 0x1c
 3022 0bf0 8B0C0000 		.4byte	.LASF204
 3023 0bf4 01       		.byte	0x1
 3024 0bf5 F2       		.byte	0xf2
 3025 0bf6 81000000 		.4byte	0x81
 3026 0bfa 02       		.uleb128 0x2
 3027 0bfb 91       		.byte	0x91
 3028 0bfc 70       		.sleb128 -16
 3029 0bfd 00       		.byte	0
 3030 0bfe 00       		.byte	0
 3031 0bff 1F       		.uleb128 0x1f
 3032 0c00 110B0000 		.4byte	.LASF211
 3033 0c04 01       		.byte	0x1
 3034 0c05 5901     		.2byte	0x159
 3035 0c07 00000000 		.4byte	.LFB65
 3036 0c0b F8000000 		.4byte	.LFE65-.LFB65
 3037 0c0f 01       		.uleb128 0x1
 3038 0c10 9C       		.byte	0x9c
 3039 0c11 3E0C0000 		.4byte	0xc3e
 3040 0c15 20       		.uleb128 0x20
 3041 0c16 860C0000 		.4byte	.LASF207
 3042 0c1a 01       		.byte	0x1
 3043 0c1b 5B01     		.2byte	0x15b
 3044 0c1d D0090000 		.4byte	0x9d0
 3045 0c21 02       		.uleb128 0x2
 3046 0c22 91       		.byte	0x91
 3047 0c23 6C       		.sleb128 -20
 3048 0c24 1E       		.uleb128 0x1e
 3049 0c25 2A000000 		.4byte	.LBB5
ARM GAS  C:\Users\RECEPC~1\AppData\Local\Temp\ccMrdYRj.s 			page 64


 3050 0c29 C0000000 		.4byte	.LBE5-.LBB5
 3051 0c2d 20       		.uleb128 0x20
 3052 0c2e 9B020000 		.4byte	.LASF212
 3053 0c32 01       		.byte	0x1
 3054 0c33 6101     		.2byte	0x161
 3055 0c35 A5000000 		.4byte	0xa5
 3056 0c39 02       		.uleb128 0x2
 3057 0c3a 91       		.byte	0x91
 3058 0c3b 68       		.sleb128 -24
 3059 0c3c 00       		.byte	0
 3060 0c3d 00       		.byte	0
 3061 0c3e 1F       		.uleb128 0x1f
 3062 0c3f 080A0000 		.4byte	.LASF213
 3063 0c43 01       		.byte	0x1
 3064 0c44 8301     		.2byte	0x183
 3065 0c46 00000000 		.4byte	.LFB66
 3066 0c4a B0020000 		.4byte	.LFE66-.LFB66
 3067 0c4e 01       		.uleb128 0x1
 3068 0c4f 9C       		.byte	0x9c
 3069 0c50 AA0C0000 		.4byte	0xcaa
 3070 0c54 20       		.uleb128 0x20
 3071 0c55 860C0000 		.4byte	.LASF207
 3072 0c59 01       		.byte	0x1
 3073 0c5a 8C01     		.2byte	0x18c
 3074 0c5c D0090000 		.4byte	0x9d0
 3075 0c60 02       		.uleb128 0x2
 3076 0c61 91       		.byte	0x91
 3077 0c62 74       		.sleb128 -12
 3078 0c63 1E       		.uleb128 0x1e
 3079 0c64 36000000 		.4byte	.LBB6
 3080 0c68 34020000 		.4byte	.LBE6-.LBB6
 3081 0c6c 20       		.uleb128 0x20
 3082 0c6d 25090000 		.4byte	.LASF208
 3083 0c71 01       		.byte	0x1
 3084 0c72 9401     		.2byte	0x194
 3085 0c74 0F020000 		.4byte	0x20f
 3086 0c78 02       		.uleb128 0x2
 3087 0c79 91       		.byte	0x91
 3088 0c7a 73       		.sleb128 -13
 3089 0c7b 20       		.uleb128 0x20
 3090 0c7c 830E0000 		.4byte	.LASF214
 3091 0c80 01       		.byte	0x1
 3092 0c81 9501     		.2byte	0x195
 3093 0c83 0F020000 		.4byte	0x20f
 3094 0c87 02       		.uleb128 0x2
 3095 0c88 91       		.byte	0x91
 3096 0c89 72       		.sleb128 -14
 3097 0c8a 20       		.uleb128 0x20
 3098 0c8b 99060000 		.4byte	.LASF215
 3099 0c8f 01       		.byte	0x1
 3100 0c90 9601     		.2byte	0x196
 3101 0c92 0F020000 		.4byte	0x20f
 3102 0c96 02       		.uleb128 0x2
 3103 0c97 91       		.byte	0x91
 3104 0c98 71       		.sleb128 -15
 3105 0c99 20       		.uleb128 0x20
 3106 0c9a 8B0C0000 		.4byte	.LASF204
ARM GAS  C:\Users\RECEPC~1\AppData\Local\Temp\ccMrdYRj.s 			page 65


 3107 0c9e 01       		.byte	0x1
 3108 0c9f 9701     		.2byte	0x197
 3109 0ca1 81000000 		.4byte	0x81
 3110 0ca5 02       		.uleb128 0x2
 3111 0ca6 91       		.byte	0x91
 3112 0ca7 70       		.sleb128 -16
 3113 0ca8 00       		.byte	0
 3114 0ca9 00       		.byte	0
 3115 0caa 21       		.uleb128 0x21
 3116 0cab B50A0000 		.4byte	.LASF224
 3117 0caf 01       		.byte	0x1
 3118 0cb0 0902     		.2byte	0x209
 3119 0cb2 00000000 		.4byte	.LFB67
 3120 0cb6 84000000 		.4byte	.LFE67-.LFB67
 3121 0cba 01       		.uleb128 0x1
 3122 0cbb 9C       		.byte	0x9c
 3123 0cbc DF0C0000 		.4byte	0xcdf
 3124 0cc0 22       		.uleb128 0x22
 3125 0cc1 99050000 		.4byte	.LASF225
 3126 0cc5 01       		.byte	0x1
 3127 0cc6 0902     		.2byte	0x209
 3128 0cc8 F4000000 		.4byte	0xf4
 3129 0ccc 02       		.uleb128 0x2
 3130 0ccd 91       		.byte	0x91
 3131 0cce 6C       		.sleb128 -20
 3132 0ccf 20       		.uleb128 0x20
 3133 0cd0 860C0000 		.4byte	.LASF207
 3134 0cd4 01       		.byte	0x1
 3135 0cd5 0E02     		.2byte	0x20e
 3136 0cd7 D0090000 		.4byte	0x9d0
 3137 0cdb 02       		.uleb128 0x2
 3138 0cdc 91       		.byte	0x91
 3139 0cdd 74       		.sleb128 -12
 3140 0cde 00       		.byte	0
 3141 0cdf 23       		.uleb128 0x23
 3142 0ce0 BC010000 		.4byte	.LASF216
 3143 0ce4 08       		.byte	0x8
 3144 0ce5 5506     		.2byte	0x655
 3145 0ce7 EB0C0000 		.4byte	0xceb
 3146 0ceb 06       		.uleb128 0x6
 3147 0cec 76000000 		.4byte	0x76
 3148 0cf0 23       		.uleb128 0x23
 3149 0cf1 9F000000 		.4byte	.LASF217
 3150 0cf5 07       		.byte	0x7
 3151 0cf6 6702     		.2byte	0x267
 3152 0cf8 BE0A0000 		.4byte	0xabe
 3153 0cfc 24       		.uleb128 0x24
 3154 0cfd 300C0000 		.4byte	.LASF218
 3155 0d01 01       		.byte	0x1
 3156 0d02 15       		.byte	0x15
 3157 0d03 270B0000 		.4byte	0xb27
 3158 0d07 25       		.uleb128 0x25
 3159 0d08 EA020000 		.4byte	.LASF219
 3160 0d0c 01       		.byte	0x1
 3161 0d0d 17       		.byte	0x17
 3162 0d0e 8D000000 		.4byte	0x8d
 3163 0d12 05       		.uleb128 0x5
ARM GAS  C:\Users\RECEPC~1\AppData\Local\Temp\ccMrdYRj.s 			page 66


 3164 0d13 03       		.byte	0x3
 3165 0d14 00000000 		.4byte	_g_dispenserupdatetimeout
 3166 0d18 25       		.uleb128 0x25
 3167 0d19 420D0000 		.4byte	.LASF220
 3168 0d1d 01       		.byte	0x1
 3169 0d1e 18       		.byte	0x18
 3170 0d1f 8D000000 		.4byte	0x8d
 3171 0d23 05       		.uleb128 0x5
 3172 0d24 03       		.byte	0x3
 3173 0d25 00000000 		.4byte	_g_dispenserupdatetimeoutmultiplier
 3174 0d29 00       		.byte	0
 3175              		.section	.debug_abbrev,"",%progbits
 3176              	.Ldebug_abbrev0:
 3177 0000 01       		.uleb128 0x1
 3178 0001 11       		.uleb128 0x11
 3179 0002 01       		.byte	0x1
 3180 0003 25       		.uleb128 0x25
 3181 0004 0E       		.uleb128 0xe
 3182 0005 13       		.uleb128 0x13
 3183 0006 0B       		.uleb128 0xb
 3184 0007 03       		.uleb128 0x3
 3185 0008 0E       		.uleb128 0xe
 3186 0009 1B       		.uleb128 0x1b
 3187 000a 0E       		.uleb128 0xe
 3188 000b 55       		.uleb128 0x55
 3189 000c 17       		.uleb128 0x17
 3190 000d 11       		.uleb128 0x11
 3191 000e 01       		.uleb128 0x1
 3192 000f 10       		.uleb128 0x10
 3193 0010 17       		.uleb128 0x17
 3194 0011 00       		.byte	0
 3195 0012 00       		.byte	0
 3196 0013 02       		.uleb128 0x2
 3197 0014 24       		.uleb128 0x24
 3198 0015 00       		.byte	0
 3199 0016 0B       		.uleb128 0xb
 3200 0017 0B       		.uleb128 0xb
 3201 0018 3E       		.uleb128 0x3e
 3202 0019 0B       		.uleb128 0xb
 3203 001a 03       		.uleb128 0x3
 3204 001b 0E       		.uleb128 0xe
 3205 001c 00       		.byte	0
 3206 001d 00       		.byte	0
 3207 001e 03       		.uleb128 0x3
 3208 001f 16       		.uleb128 0x16
 3209 0020 00       		.byte	0
 3210 0021 03       		.uleb128 0x3
 3211 0022 0E       		.uleb128 0xe
 3212 0023 3A       		.uleb128 0x3a
 3213 0024 0B       		.uleb128 0xb
 3214 0025 3B       		.uleb128 0x3b
 3215 0026 0B       		.uleb128 0xb
 3216 0027 49       		.uleb128 0x49
 3217 0028 13       		.uleb128 0x13
 3218 0029 00       		.byte	0
 3219 002a 00       		.byte	0
 3220 002b 04       		.uleb128 0x4
ARM GAS  C:\Users\RECEPC~1\AppData\Local\Temp\ccMrdYRj.s 			page 67


 3221 002c 24       		.uleb128 0x24
 3222 002d 00       		.byte	0
 3223 002e 0B       		.uleb128 0xb
 3224 002f 0B       		.uleb128 0xb
 3225 0030 3E       		.uleb128 0x3e
 3226 0031 0B       		.uleb128 0xb
 3227 0032 03       		.uleb128 0x3
 3228 0033 08       		.uleb128 0x8
 3229 0034 00       		.byte	0
 3230 0035 00       		.byte	0
 3231 0036 05       		.uleb128 0x5
 3232 0037 16       		.uleb128 0x16
 3233 0038 00       		.byte	0
 3234 0039 03       		.uleb128 0x3
 3235 003a 0E       		.uleb128 0xe
 3236 003b 3A       		.uleb128 0x3a
 3237 003c 0B       		.uleb128 0xb
 3238 003d 3B       		.uleb128 0x3b
 3239 003e 05       		.uleb128 0x5
 3240 003f 49       		.uleb128 0x49
 3241 0040 13       		.uleb128 0x13
 3242 0041 00       		.byte	0
 3243 0042 00       		.byte	0
 3244 0043 06       		.uleb128 0x6
 3245 0044 35       		.uleb128 0x35
 3246 0045 00       		.byte	0
 3247 0046 49       		.uleb128 0x49
 3248 0047 13       		.uleb128 0x13
 3249 0048 00       		.byte	0
 3250 0049 00       		.byte	0
 3251 004a 07       		.uleb128 0x7
 3252 004b 0F       		.uleb128 0xf
 3253 004c 00       		.byte	0
 3254 004d 0B       		.uleb128 0xb
 3255 004e 0B       		.uleb128 0xb
 3256 004f 00       		.byte	0
 3257 0050 00       		.byte	0
 3258 0051 08       		.uleb128 0x8
 3259 0052 01       		.uleb128 0x1
 3260 0053 01       		.byte	0x1
 3261 0054 49       		.uleb128 0x49
 3262 0055 13       		.uleb128 0x13
 3263 0056 01       		.uleb128 0x1
 3264 0057 13       		.uleb128 0x13
 3265 0058 00       		.byte	0
 3266 0059 00       		.byte	0
 3267 005a 09       		.uleb128 0x9
 3268 005b 21       		.uleb128 0x21
 3269 005c 00       		.byte	0
 3270 005d 49       		.uleb128 0x49
 3271 005e 13       		.uleb128 0x13
 3272 005f 2F       		.uleb128 0x2f
 3273 0060 0B       		.uleb128 0xb
 3274 0061 00       		.byte	0
 3275 0062 00       		.byte	0
 3276 0063 0A       		.uleb128 0xa
 3277 0064 04       		.uleb128 0x4
ARM GAS  C:\Users\RECEPC~1\AppData\Local\Temp\ccMrdYRj.s 			page 68


 3278 0065 01       		.byte	0x1
 3279 0066 03       		.uleb128 0x3
 3280 0067 0E       		.uleb128 0xe
 3281 0068 0B       		.uleb128 0xb
 3282 0069 0B       		.uleb128 0xb
 3283 006a 3A       		.uleb128 0x3a
 3284 006b 0B       		.uleb128 0xb
 3285 006c 3B       		.uleb128 0x3b
 3286 006d 0B       		.uleb128 0xb
 3287 006e 01       		.uleb128 0x1
 3288 006f 13       		.uleb128 0x13
 3289 0070 00       		.byte	0
 3290 0071 00       		.byte	0
 3291 0072 0B       		.uleb128 0xb
 3292 0073 28       		.uleb128 0x28
 3293 0074 00       		.byte	0
 3294 0075 03       		.uleb128 0x3
 3295 0076 0E       		.uleb128 0xe
 3296 0077 1C       		.uleb128 0x1c
 3297 0078 0D       		.uleb128 0xd
 3298 0079 00       		.byte	0
 3299 007a 00       		.byte	0
 3300 007b 0C       		.uleb128 0xc
 3301 007c 13       		.uleb128 0x13
 3302 007d 01       		.byte	0x1
 3303 007e 03       		.uleb128 0x3
 3304 007f 0E       		.uleb128 0xe
 3305 0080 0B       		.uleb128 0xb
 3306 0081 05       		.uleb128 0x5
 3307 0082 3A       		.uleb128 0x3a
 3308 0083 0B       		.uleb128 0xb
 3309 0084 3B       		.uleb128 0x3b
 3310 0085 0B       		.uleb128 0xb
 3311 0086 01       		.uleb128 0x1
 3312 0087 13       		.uleb128 0x13
 3313 0088 00       		.byte	0
 3314 0089 00       		.byte	0
 3315 008a 0D       		.uleb128 0xd
 3316 008b 0D       		.uleb128 0xd
 3317 008c 00       		.byte	0
 3318 008d 03       		.uleb128 0x3
 3319 008e 0E       		.uleb128 0xe
 3320 008f 3A       		.uleb128 0x3a
 3321 0090 0B       		.uleb128 0xb
 3322 0091 3B       		.uleb128 0x3b
 3323 0092 0B       		.uleb128 0xb
 3324 0093 49       		.uleb128 0x49
 3325 0094 13       		.uleb128 0x13
 3326 0095 38       		.uleb128 0x38
 3327 0096 0B       		.uleb128 0xb
 3328 0097 00       		.byte	0
 3329 0098 00       		.byte	0
 3330 0099 0E       		.uleb128 0xe
 3331 009a 0D       		.uleb128 0xd
 3332 009b 00       		.byte	0
 3333 009c 03       		.uleb128 0x3
 3334 009d 0E       		.uleb128 0xe
ARM GAS  C:\Users\RECEPC~1\AppData\Local\Temp\ccMrdYRj.s 			page 69


 3335 009e 3A       		.uleb128 0x3a
 3336 009f 0B       		.uleb128 0xb
 3337 00a0 3B       		.uleb128 0x3b
 3338 00a1 0B       		.uleb128 0xb
 3339 00a2 49       		.uleb128 0x49
 3340 00a3 13       		.uleb128 0x13
 3341 00a4 38       		.uleb128 0x38
 3342 00a5 05       		.uleb128 0x5
 3343 00a6 00       		.byte	0
 3344 00a7 00       		.byte	0
 3345 00a8 0F       		.uleb128 0xf
 3346 00a9 21       		.uleb128 0x21
 3347 00aa 00       		.byte	0
 3348 00ab 49       		.uleb128 0x49
 3349 00ac 13       		.uleb128 0x13
 3350 00ad 2F       		.uleb128 0x2f
 3351 00ae 05       		.uleb128 0x5
 3352 00af 00       		.byte	0
 3353 00b0 00       		.byte	0
 3354 00b1 10       		.uleb128 0x10
 3355 00b2 15       		.uleb128 0x15
 3356 00b3 01       		.byte	0x1
 3357 00b4 27       		.uleb128 0x27
 3358 00b5 19       		.uleb128 0x19
 3359 00b6 01       		.uleb128 0x1
 3360 00b7 13       		.uleb128 0x13
 3361 00b8 00       		.byte	0
 3362 00b9 00       		.byte	0
 3363 00ba 11       		.uleb128 0x11
 3364 00bb 05       		.uleb128 0x5
 3365 00bc 00       		.byte	0
 3366 00bd 49       		.uleb128 0x49
 3367 00be 13       		.uleb128 0x13
 3368 00bf 00       		.byte	0
 3369 00c0 00       		.byte	0
 3370 00c1 12       		.uleb128 0x12
 3371 00c2 0F       		.uleb128 0xf
 3372 00c3 00       		.byte	0
 3373 00c4 0B       		.uleb128 0xb
 3374 00c5 0B       		.uleb128 0xb
 3375 00c6 49       		.uleb128 0x49
 3376 00c7 13       		.uleb128 0x13
 3377 00c8 00       		.byte	0
 3378 00c9 00       		.byte	0
 3379 00ca 13       		.uleb128 0x13
 3380 00cb 13       		.uleb128 0x13
 3381 00cc 01       		.byte	0x1
 3382 00cd 03       		.uleb128 0x3
 3383 00ce 0E       		.uleb128 0xe
 3384 00cf 0B       		.uleb128 0xb
 3385 00d0 0B       		.uleb128 0xb
 3386 00d1 3A       		.uleb128 0x3a
 3387 00d2 0B       		.uleb128 0xb
 3388 00d3 3B       		.uleb128 0x3b
 3389 00d4 0B       		.uleb128 0xb
 3390 00d5 01       		.uleb128 0x1
 3391 00d6 13       		.uleb128 0x13
ARM GAS  C:\Users\RECEPC~1\AppData\Local\Temp\ccMrdYRj.s 			page 70


 3392 00d7 00       		.byte	0
 3393 00d8 00       		.byte	0
 3394 00d9 14       		.uleb128 0x14
 3395 00da 13       		.uleb128 0x13
 3396 00db 01       		.byte	0x1
 3397 00dc 0B       		.uleb128 0xb
 3398 00dd 05       		.uleb128 0x5
 3399 00de 3A       		.uleb128 0x3a
 3400 00df 0B       		.uleb128 0xb
 3401 00e0 3B       		.uleb128 0x3b
 3402 00e1 05       		.uleb128 0x5
 3403 00e2 01       		.uleb128 0x1
 3404 00e3 13       		.uleb128 0x13
 3405 00e4 00       		.byte	0
 3406 00e5 00       		.byte	0
 3407 00e6 15       		.uleb128 0x15
 3408 00e7 0D       		.uleb128 0xd
 3409 00e8 00       		.byte	0
 3410 00e9 03       		.uleb128 0x3
 3411 00ea 0E       		.uleb128 0xe
 3412 00eb 3A       		.uleb128 0x3a
 3413 00ec 0B       		.uleb128 0xb
 3414 00ed 3B       		.uleb128 0x3b
 3415 00ee 05       		.uleb128 0x5
 3416 00ef 49       		.uleb128 0x49
 3417 00f0 13       		.uleb128 0x13
 3418 00f1 38       		.uleb128 0x38
 3419 00f2 0B       		.uleb128 0xb
 3420 00f3 00       		.byte	0
 3421 00f4 00       		.byte	0
 3422 00f5 16       		.uleb128 0x16
 3423 00f6 0D       		.uleb128 0xd
 3424 00f7 00       		.byte	0
 3425 00f8 03       		.uleb128 0x3
 3426 00f9 0E       		.uleb128 0xe
 3427 00fa 3A       		.uleb128 0x3a
 3428 00fb 0B       		.uleb128 0xb
 3429 00fc 3B       		.uleb128 0x3b
 3430 00fd 05       		.uleb128 0x5
 3431 00fe 49       		.uleb128 0x49
 3432 00ff 13       		.uleb128 0x13
 3433 0100 38       		.uleb128 0x38
 3434 0101 05       		.uleb128 0x5
 3435 0102 00       		.byte	0
 3436 0103 00       		.byte	0
 3437 0104 17       		.uleb128 0x17
 3438 0105 13       		.uleb128 0x13
 3439 0106 01       		.byte	0x1
 3440 0107 0B       		.uleb128 0xb
 3441 0108 0B       		.uleb128 0xb
 3442 0109 3A       		.uleb128 0x3a
 3443 010a 0B       		.uleb128 0xb
 3444 010b 3B       		.uleb128 0x3b
 3445 010c 05       		.uleb128 0x5
 3446 010d 01       		.uleb128 0x1
 3447 010e 13       		.uleb128 0x13
 3448 010f 00       		.byte	0
ARM GAS  C:\Users\RECEPC~1\AppData\Local\Temp\ccMrdYRj.s 			page 71


 3449 0110 00       		.byte	0
 3450 0111 18       		.uleb128 0x18
 3451 0112 13       		.uleb128 0x13
 3452 0113 01       		.byte	0x1
 3453 0114 03       		.uleb128 0x3
 3454 0115 0E       		.uleb128 0xe
 3455 0116 0B       		.uleb128 0xb
 3456 0117 05       		.uleb128 0x5
 3457 0118 3A       		.uleb128 0x3a
 3458 0119 0B       		.uleb128 0xb
 3459 011a 3B       		.uleb128 0x3b
 3460 011b 05       		.uleb128 0x5
 3461 011c 01       		.uleb128 0x1
 3462 011d 13       		.uleb128 0x13
 3463 011e 00       		.byte	0
 3464 011f 00       		.byte	0
 3465 0120 19       		.uleb128 0x19
 3466 0121 15       		.uleb128 0x15
 3467 0122 01       		.byte	0x1
 3468 0123 27       		.uleb128 0x27
 3469 0124 19       		.uleb128 0x19
 3470 0125 49       		.uleb128 0x49
 3471 0126 13       		.uleb128 0x13
 3472 0127 01       		.uleb128 0x1
 3473 0128 13       		.uleb128 0x13
 3474 0129 00       		.byte	0
 3475 012a 00       		.byte	0
 3476 012b 1A       		.uleb128 0x1a
 3477 012c 13       		.uleb128 0x13
 3478 012d 01       		.byte	0x1
 3479 012e 03       		.uleb128 0x3
 3480 012f 0E       		.uleb128 0xe
 3481 0130 0B       		.uleb128 0xb
 3482 0131 0B       		.uleb128 0xb
 3483 0132 3A       		.uleb128 0x3a
 3484 0133 0B       		.uleb128 0xb
 3485 0134 3B       		.uleb128 0x3b
 3486 0135 05       		.uleb128 0x5
 3487 0136 01       		.uleb128 0x1
 3488 0137 13       		.uleb128 0x13
 3489 0138 00       		.byte	0
 3490 0139 00       		.byte	0
 3491 013a 1B       		.uleb128 0x1b
 3492 013b 2E       		.uleb128 0x2e
 3493 013c 01       		.byte	0x1
 3494 013d 3F       		.uleb128 0x3f
 3495 013e 19       		.uleb128 0x19
 3496 013f 03       		.uleb128 0x3
 3497 0140 0E       		.uleb128 0xe
 3498 0141 3A       		.uleb128 0x3a
 3499 0142 0B       		.uleb128 0xb
 3500 0143 3B       		.uleb128 0x3b
 3501 0144 0B       		.uleb128 0xb
 3502 0145 11       		.uleb128 0x11
 3503 0146 01       		.uleb128 0x1
 3504 0147 12       		.uleb128 0x12
 3505 0148 06       		.uleb128 0x6
ARM GAS  C:\Users\RECEPC~1\AppData\Local\Temp\ccMrdYRj.s 			page 72


 3506 0149 40       		.uleb128 0x40
 3507 014a 18       		.uleb128 0x18
 3508 014b 9642     		.uleb128 0x2116
 3509 014d 19       		.uleb128 0x19
 3510 014e 01       		.uleb128 0x1
 3511 014f 13       		.uleb128 0x13
 3512 0150 00       		.byte	0
 3513 0151 00       		.byte	0
 3514 0152 1C       		.uleb128 0x1c
 3515 0153 34       		.uleb128 0x34
 3516 0154 00       		.byte	0
 3517 0155 03       		.uleb128 0x3
 3518 0156 0E       		.uleb128 0xe
 3519 0157 3A       		.uleb128 0x3a
 3520 0158 0B       		.uleb128 0xb
 3521 0159 3B       		.uleb128 0x3b
 3522 015a 0B       		.uleb128 0xb
 3523 015b 49       		.uleb128 0x49
 3524 015c 13       		.uleb128 0x13
 3525 015d 02       		.uleb128 0x2
 3526 015e 18       		.uleb128 0x18
 3527 015f 00       		.byte	0
 3528 0160 00       		.byte	0
 3529 0161 1D       		.uleb128 0x1d
 3530 0162 0B       		.uleb128 0xb
 3531 0163 01       		.byte	0x1
 3532 0164 11       		.uleb128 0x11
 3533 0165 01       		.uleb128 0x1
 3534 0166 12       		.uleb128 0x12
 3535 0167 06       		.uleb128 0x6
 3536 0168 01       		.uleb128 0x1
 3537 0169 13       		.uleb128 0x13
 3538 016a 00       		.byte	0
 3539 016b 00       		.byte	0
 3540 016c 1E       		.uleb128 0x1e
 3541 016d 0B       		.uleb128 0xb
 3542 016e 01       		.byte	0x1
 3543 016f 11       		.uleb128 0x11
 3544 0170 01       		.uleb128 0x1
 3545 0171 12       		.uleb128 0x12
 3546 0172 06       		.uleb128 0x6
 3547 0173 00       		.byte	0
 3548 0174 00       		.byte	0
 3549 0175 1F       		.uleb128 0x1f
 3550 0176 2E       		.uleb128 0x2e
 3551 0177 01       		.byte	0x1
 3552 0178 3F       		.uleb128 0x3f
 3553 0179 19       		.uleb128 0x19
 3554 017a 03       		.uleb128 0x3
 3555 017b 0E       		.uleb128 0xe
 3556 017c 3A       		.uleb128 0x3a
 3557 017d 0B       		.uleb128 0xb
 3558 017e 3B       		.uleb128 0x3b
 3559 017f 05       		.uleb128 0x5
 3560 0180 11       		.uleb128 0x11
 3561 0181 01       		.uleb128 0x1
 3562 0182 12       		.uleb128 0x12
ARM GAS  C:\Users\RECEPC~1\AppData\Local\Temp\ccMrdYRj.s 			page 73


 3563 0183 06       		.uleb128 0x6
 3564 0184 40       		.uleb128 0x40
 3565 0185 18       		.uleb128 0x18
 3566 0186 9642     		.uleb128 0x2116
 3567 0188 19       		.uleb128 0x19
 3568 0189 01       		.uleb128 0x1
 3569 018a 13       		.uleb128 0x13
 3570 018b 00       		.byte	0
 3571 018c 00       		.byte	0
 3572 018d 20       		.uleb128 0x20
 3573 018e 34       		.uleb128 0x34
 3574 018f 00       		.byte	0
 3575 0190 03       		.uleb128 0x3
 3576 0191 0E       		.uleb128 0xe
 3577 0192 3A       		.uleb128 0x3a
 3578 0193 0B       		.uleb128 0xb
 3579 0194 3B       		.uleb128 0x3b
 3580 0195 05       		.uleb128 0x5
 3581 0196 49       		.uleb128 0x49
 3582 0197 13       		.uleb128 0x13
 3583 0198 02       		.uleb128 0x2
 3584 0199 18       		.uleb128 0x18
 3585 019a 00       		.byte	0
 3586 019b 00       		.byte	0
 3587 019c 21       		.uleb128 0x21
 3588 019d 2E       		.uleb128 0x2e
 3589 019e 01       		.byte	0x1
 3590 019f 3F       		.uleb128 0x3f
 3591 01a0 19       		.uleb128 0x19
 3592 01a1 03       		.uleb128 0x3
 3593 01a2 0E       		.uleb128 0xe
 3594 01a3 3A       		.uleb128 0x3a
 3595 01a4 0B       		.uleb128 0xb
 3596 01a5 3B       		.uleb128 0x3b
 3597 01a6 05       		.uleb128 0x5
 3598 01a7 27       		.uleb128 0x27
 3599 01a8 19       		.uleb128 0x19
 3600 01a9 11       		.uleb128 0x11
 3601 01aa 01       		.uleb128 0x1
 3602 01ab 12       		.uleb128 0x12
 3603 01ac 06       		.uleb128 0x6
 3604 01ad 40       		.uleb128 0x40
 3605 01ae 18       		.uleb128 0x18
 3606 01af 9642     		.uleb128 0x2116
 3607 01b1 19       		.uleb128 0x19
 3608 01b2 01       		.uleb128 0x1
 3609 01b3 13       		.uleb128 0x13
 3610 01b4 00       		.byte	0
 3611 01b5 00       		.byte	0
 3612 01b6 22       		.uleb128 0x22
 3613 01b7 05       		.uleb128 0x5
 3614 01b8 00       		.byte	0
 3615 01b9 03       		.uleb128 0x3
 3616 01ba 0E       		.uleb128 0xe
 3617 01bb 3A       		.uleb128 0x3a
 3618 01bc 0B       		.uleb128 0xb
 3619 01bd 3B       		.uleb128 0x3b
ARM GAS  C:\Users\RECEPC~1\AppData\Local\Temp\ccMrdYRj.s 			page 74


 3620 01be 05       		.uleb128 0x5
 3621 01bf 49       		.uleb128 0x49
 3622 01c0 13       		.uleb128 0x13
 3623 01c1 02       		.uleb128 0x2
 3624 01c2 18       		.uleb128 0x18
 3625 01c3 00       		.byte	0
 3626 01c4 00       		.byte	0
 3627 01c5 23       		.uleb128 0x23
 3628 01c6 34       		.uleb128 0x34
 3629 01c7 00       		.byte	0
 3630 01c8 03       		.uleb128 0x3
 3631 01c9 0E       		.uleb128 0xe
 3632 01ca 3A       		.uleb128 0x3a
 3633 01cb 0B       		.uleb128 0xb
 3634 01cc 3B       		.uleb128 0x3b
 3635 01cd 05       		.uleb128 0x5
 3636 01ce 49       		.uleb128 0x49
 3637 01cf 13       		.uleb128 0x13
 3638 01d0 3F       		.uleb128 0x3f
 3639 01d1 19       		.uleb128 0x19
 3640 01d2 3C       		.uleb128 0x3c
 3641 01d3 19       		.uleb128 0x19
 3642 01d4 00       		.byte	0
 3643 01d5 00       		.byte	0
 3644 01d6 24       		.uleb128 0x24
 3645 01d7 34       		.uleb128 0x34
 3646 01d8 00       		.byte	0
 3647 01d9 03       		.uleb128 0x3
 3648 01da 0E       		.uleb128 0xe
 3649 01db 3A       		.uleb128 0x3a
 3650 01dc 0B       		.uleb128 0xb
 3651 01dd 3B       		.uleb128 0x3b
 3652 01de 0B       		.uleb128 0xb
 3653 01df 49       		.uleb128 0x49
 3654 01e0 13       		.uleb128 0x13
 3655 01e1 3F       		.uleb128 0x3f
 3656 01e2 19       		.uleb128 0x19
 3657 01e3 3C       		.uleb128 0x3c
 3658 01e4 19       		.uleb128 0x19
 3659 01e5 00       		.byte	0
 3660 01e6 00       		.byte	0
 3661 01e7 25       		.uleb128 0x25
 3662 01e8 34       		.uleb128 0x34
 3663 01e9 00       		.byte	0
 3664 01ea 03       		.uleb128 0x3
 3665 01eb 0E       		.uleb128 0xe
 3666 01ec 3A       		.uleb128 0x3a
 3667 01ed 0B       		.uleb128 0xb
 3668 01ee 3B       		.uleb128 0x3b
 3669 01ef 0B       		.uleb128 0xb
 3670 01f0 49       		.uleb128 0x49
 3671 01f1 13       		.uleb128 0x13
 3672 01f2 3F       		.uleb128 0x3f
 3673 01f3 19       		.uleb128 0x19
 3674 01f4 02       		.uleb128 0x2
 3675 01f5 18       		.uleb128 0x18
 3676 01f6 00       		.byte	0
ARM GAS  C:\Users\RECEPC~1\AppData\Local\Temp\ccMrdYRj.s 			page 75


 3677 01f7 00       		.byte	0
 3678 01f8 00       		.byte	0
 3679              		.section	.debug_aranges,"",%progbits
 3680 0000 3C000000 		.4byte	0x3c
 3681 0004 0200     		.2byte	0x2
 3682 0006 00000000 		.4byte	.Ldebug_info0
 3683 000a 04       		.byte	0x4
 3684 000b 00       		.byte	0
 3685 000c 0000     		.2byte	0
 3686 000e 0000     		.2byte	0
 3687 0010 00000000 		.4byte	.LFB63
 3688 0014 1C030000 		.4byte	.LFE63-.LFB63
 3689 0018 00000000 		.4byte	.LFB64
 3690 001c 50020000 		.4byte	.LFE64-.LFB64
 3691 0020 00000000 		.4byte	.LFB65
 3692 0024 F8000000 		.4byte	.LFE65-.LFB65
 3693 0028 00000000 		.4byte	.LFB66
 3694 002c B0020000 		.4byte	.LFE66-.LFB66
 3695 0030 00000000 		.4byte	.LFB67
 3696 0034 84000000 		.4byte	.LFE67-.LFB67
 3697 0038 00000000 		.4byte	0
 3698 003c 00000000 		.4byte	0
 3699              		.section	.debug_ranges,"",%progbits
 3700              	.Ldebug_ranges0:
 3701 0000 00000000 		.4byte	.LFB63
 3702 0004 1C030000 		.4byte	.LFE63
 3703 0008 00000000 		.4byte	.LFB64
 3704 000c 50020000 		.4byte	.LFE64
 3705 0010 00000000 		.4byte	.LFB65
 3706 0014 F8000000 		.4byte	.LFE65
 3707 0018 00000000 		.4byte	.LFB66
 3708 001c B0020000 		.4byte	.LFE66
 3709 0020 00000000 		.4byte	.LFB67
 3710 0024 84000000 		.4byte	.LFE67
 3711 0028 00000000 		.4byte	0
 3712 002c 00000000 		.4byte	0
 3713              		.section	.debug_line,"",%progbits
 3714              	.Ldebug_line0:
 3715 0000 03030000 		.section	.debug_str,"MS",%progbits,1
 3715      02008901 
 3715      00000201 
 3715      FB0E0D00 
 3715      01010101 
 3716              	.LASF22:
 3717 0000 4E4F4E45 		.ascii	"NONE\000"
 3717      00
 3718              	.LASF171:
 3719 0005 46696E61 		.ascii	"Finalization\000"
 3719      6C697A61 
 3719      74696F6E 
 3719      00
 3720              	.LASF194:
 3721 0012 456E7175 		.ascii	"Enqueue\000"
 3721      65756500 
 3722              	.LASF154:
 3723 001a 5F617574 		.ascii	"_authorizationinfo\000"
 3723      686F7269 
ARM GAS  C:\Users\RECEPC~1\AppData\Local\Temp\ccMrdYRj.s 			page 76


 3723      7A617469 
 3723      6F6E696E 
 3723      666F00
 3724              	.LASF78:
 3725 002d 5052494E 		.ascii	"PRINTER21_JOB\000"
 3725      54455232 
 3725      315F4A4F 
 3725      4200
 3726              	.LASF150:
 3727 003b 50756D70 		.ascii	"PumpTransQueueAllocate\000"
 3727      5472616E 
 3727      73517565 
 3727      7565416C 
 3727      6C6F6361 
 3728              	.LASF198:
 3729 0052 50756D70 		.ascii	"PumpJobQueue\000"
 3729      4A6F6251 
 3729      75657565 
 3729      00
 3730              	.LASF138:
 3731 005f 5F747261 		.ascii	"_transhealth\000"
 3731      6E736865 
 3731      616C7468 
 3731      00
 3732              	.LASF136:
 3733 006c 5F72746D 		.ascii	"_rtmoneyamount\000"
 3733      6F6E6579 
 3733      616D6F75 
 3733      6E7400
 3734              	.LASF152:
 3735 007b 50756D70 		.ascii	"PumpValidState\000"
 3735      56616C69 
 3735      64537461 
 3735      746500
 3736              	.LASF161:
 3737 008a 52657370 		.ascii	"ResponseSizeResolver\000"
 3737      6F6E7365 
 3737      53697A65 
 3737      5265736F 
 3737      6C766572 
 3738              	.LASF217:
 3739 009f 5F675F70 		.ascii	"_g_pumpjobqueue\000"
 3739      756D706A 
 3739      6F627175 
 3739      65756500 
 3740              	.LASF37:
 3741 00af 5F6D6573 		.ascii	"_messagetype\000"
 3741      73616765 
 3741      74797065 
 3741      00
 3742              	.LASF45:
 3743 00bc 5F706461 		.ascii	"_pdata\000"
 3743      746100
 3744              	.LASF121:
 3745 00c3 5F70756D 		.ascii	"_pumpid\000"
 3745      70696400 
 3746              	.LASF116:
ARM GAS  C:\Users\RECEPC~1\AppData\Local\Temp\ccMrdYRj.s 			page 77


 3747 00cb 5F707265 		.ascii	"_presetamount\000"
 3747      73657461 
 3747      6D6F756E 
 3747      7400
 3748              	.LASF156:
 3749 00d9 50756D70 		.ascii	"Pump\000"
 3749      00
 3750              	.LASF142:
 3751 00de 5F727862 		.ascii	"_rxbuffersize\000"
 3751      75666665 
 3751      7273697A 
 3751      6500
 3752              	.LASF58:
 3753 00ec 53494E4B 		.ascii	"SINK_UPDATE_COUNTERS\000"
 3753      5F555044 
 3753      4154455F 
 3753      434F554E 
 3753      54455253 
 3754              	.LASF7:
 3755 0101 6C6F6E67 		.ascii	"long long unsigned int\000"
 3755      206C6F6E 
 3755      6720756E 
 3755      7369676E 
 3755      65642069 
 3756              	.LASF57:
 3757 0118 55415254 		.ascii	"UART_RF_AUTONOMOUS_MONITOR\000"
 3757      5F52465F 
 3757      4155544F 
 3757      4E4F4D4F 
 3757      55535F4D 
 3758              	.LASF178:
 3759 0133 5F726570 		.ascii	"_repushtimeoutseed\000"
 3759      75736874 
 3759      696D656F 
 3759      75747365 
 3759      656400
 3760              	.LASF29:
 3761 0146 414C4C49 		.ascii	"ALLINTERESTEDFOREVER\000"
 3761      4E544552 
 3761      45535445 
 3761      44464F52 
 3761      45564552 
 3762              	.LASF149:
 3763 015b 50756D70 		.ascii	"PumpTransQueueDeallocate\000"
 3763      5472616E 
 3763      73517565 
 3763      75654465 
 3763      616C6C6F 
 3764              	.LASF179:
 3765 0174 5F726570 		.ascii	"_repushtimeoutmultiplier\000"
 3765      75736874 
 3765      696D656F 
 3765      75746D75 
 3765      6C746970 
 3766              	.LASF80:
 3767 018d 5052494E 		.ascii	"PRINTER1_GENERIC_JOB\000"
 3767      54455231 
ARM GAS  C:\Users\RECEPC~1\AppData\Local\Temp\ccMrdYRj.s 			page 78


 3767      5F47454E 
 3767      45524943 
 3767      5F4A4F42 
 3768              	.LASF82:
 3769 01a2 44495350 		.ascii	"DISPLAY_UPDATE_PUMP_STATE\000"
 3769      4C41595F 
 3769      55504441 
 3769      54455F50 
 3769      554D505F 
 3770              	.LASF216:
 3771 01bc 49544D5F 		.ascii	"ITM_RxBuffer\000"
 3771      52784275 
 3771      66666572 
 3771      00
 3772              	.LASF201:
 3773 01c9 50756D70 		.ascii	"PumpResponseContext\000"
 3773      52657370 
 3773      6F6E7365 
 3773      436F6E74 
 3773      65787400 
 3774              	.LASF67:
 3775 01dd 44495350 		.ascii	"DISPENSER_LOAD_EEPROM_SETTINGS\000"
 3775      454E5345 
 3775      525F4C4F 
 3775      41445F45 
 3775      4550524F 
 3776              	.LASF114:
 3777 01fc 5F686F73 		.ascii	"_hoseid\000"
 3777      65696400 
 3778              	.LASF6:
 3779 0204 6C6F6E67 		.ascii	"long long int\000"
 3779      206C6F6E 
 3779      6720696E 
 3779      7400
 3780              	.LASF0:
 3781 0212 7369676E 		.ascii	"signed char\000"
 3781      65642063 
 3781      68617200 
 3782              	.LASF54:
 3783 021e 5F53494E 		.ascii	"_SINK_OBSERVABLES_\000"
 3783      4B5F4F42 
 3783      53455256 
 3783      41424C45 
 3783      535F00
 3784              	.LASF34:
 3785 0231 53494E4B 		.ascii	"SINK_BUSY\000"
 3785      5F425553 
 3785      5900
 3786              	.LASF168:
 3787 023b 5F6F6E65 		.ascii	"_oneshotpostconditions\000"
 3787      73686F74 
 3787      706F7374 
 3787      636F6E64 
 3787      6974696F 
 3788              	.LASF177:
 3789 0252 5F726570 		.ascii	"_repushretriescounter\000"
 3789      75736872 
ARM GAS  C:\Users\RECEPC~1\AppData\Local\Temp\ccMrdYRj.s 			page 79


 3789      65747269 
 3789      6573636F 
 3789      756E7465 
 3790              	.LASF126:
 3791 0268 5F616371 		.ascii	"_acquiringstate\000"
 3791      75697269 
 3791      6E677374 
 3791      61746500 
 3792              	.LASF44:
 3793 0278 5F627566 		.ascii	"_buffersize\000"
 3793      66657273 
 3793      697A6500 
 3794              	.LASF14:
 3795 0284 696E7433 		.ascii	"int32\000"
 3795      3200
 3796              	.LASF52:
 3797 028a 5F617272 		.ascii	"_arrmsgid\000"
 3797      6D736769 
 3797      6400
 3798              	.LASF51:
 3799 0294 5F737461 		.ascii	"_state\000"
 3799      746500
 3800              	.LASF212:
 3801 029b 74696D65 		.ascii	"timespan\000"
 3801      7370616E 
 3801      00
 3802              	.LASF203:
 3803 02a4 7073696E 		.ascii	"psinkmsg\000"
 3803      6B6D7367 
 3803      00
 3804              	.LASF4:
 3805 02ad 6C6F6E67 		.ascii	"long int\000"
 3805      20696E74 
 3805      00
 3806              	.LASF164:
 3807 02b6 5F726573 		.ascii	"_responsesize\000"
 3807      706F6E73 
 3807      6573697A 
 3807      6500
 3808              	.LASF130:
 3809 02c4 5F707265 		.ascii	"_presetdone\000"
 3809      73657464 
 3809      6F6E6500 
 3810              	.LASF184:
 3811 02d0 5F707265 		.ascii	"_presponse\000"
 3811      73706F6E 
 3811      736500
 3812              	.LASF185:
 3813 02db 5F707075 		.ascii	"_ppump\000"
 3813      6D7000
 3814              	.LASF43:
 3815 02e2 5F627566 		.ascii	"_buffer\000"
 3815      66657200 
 3816              	.LASF219:
 3817 02ea 5F675F64 		.ascii	"_g_dispenserupdatetimeout\000"
 3817      69737065 
 3817      6E736572 
ARM GAS  C:\Users\RECEPC~1\AppData\Local\Temp\ccMrdYRj.s 			page 80


 3817      75706461 
 3817      74657469 
 3818              	.LASF16:
 3819 0304 646F7562 		.ascii	"double\000"
 3819      6C6500
 3820              	.LASF148:
 3821 030b 50756D70 		.ascii	"PumpTransQueueEnqueue\000"
 3821      5472616E 
 3821      73517565 
 3821      7565456E 
 3821      71756575 
 3822              	.LASF209:
 3823 0321 70726563 		.ascii	"preconditions\000"
 3823      6F6E6469 
 3823      74696F6E 
 3823      7300
 3824              	.LASF92:
 3825 032f 49425554 		.ascii	"IBUTTON2_SCAN\000"
 3825      544F4E32 
 3825      5F534341 
 3825      4E00
 3826              	.LASF125:
 3827 033d 5F686F73 		.ascii	"_hoseactivestate\000"
 3827      65616374 
 3827      69766573 
 3827      74617465 
 3827      00
 3828              	.LASF13:
 3829 034e 75696E74 		.ascii	"uint32\000"
 3829      333200
 3830              	.LASF72:
 3831 0355 44495350 		.ascii	"DISPENSER_CONFIGURE_SINGLE_PRICE\000"
 3831      454E5345 
 3831      525F434F 
 3831      4E464947 
 3831      5552455F 
 3832              	.LASF155:
 3833 0376 436C6561 		.ascii	"CleanUp\000"
 3833      6E557000 
 3834              	.LASF140:
 3835 037e 5F747261 		.ascii	"_trasactionbuffer\000"
 3835      73616374 
 3835      696F6E62 
 3835      75666665 
 3835      7200
 3836              	.LASF96:
 3837 0390 5F747261 		.ascii	"_transtate\000"
 3837      6E737461 
 3837      746500
 3838              	.LASF200:
 3839 039b 5F627566 		.ascii	"_bufferready\000"
 3839      66657272 
 3839      65616479 
 3839      00
 3840              	.LASF76:
 3841 03a8 5052494E 		.ascii	"PRINTER11_JOB\000"
 3841      54455231 
ARM GAS  C:\Users\RECEPC~1\AppData\Local\Temp\ccMrdYRj.s 			page 81


 3841      315F4A4F 
 3841      4200
 3842              	.LASF174:
 3843 03b6 5F726565 		.ascii	"_reenqueuecounter\000"
 3843      6E717565 
 3843      7565636F 
 3843      756E7465 
 3843      7200
 3844              	.LASF144:
 3845 03c8 5F747261 		.ascii	"_transqueuelocked\000"
 3845      6E737175 
 3845      6575656C 
 3845      6F636B65 
 3845      6400
 3846              	.LASF31:
 3847 03da 5F4D4553 		.ascii	"_MESSAGE_STATE_\000"
 3847      53414745 
 3847      5F535441 
 3847      54455F00 
 3848              	.LASF135:
 3849 03ea 5F707269 		.ascii	"_print\000"
 3849      6E7400
 3850              	.LASF157:
 3851 03f1 5F50554D 		.ascii	"_PUMP_TRANSACTION_JOB_\000"
 3851      505F5452 
 3851      414E5341 
 3851      4354494F 
 3851      4E5F4A4F 
 3852              	.LASF124:
 3853 0408 5F637572 		.ascii	"_currenthose\000"
 3853      72656E74 
 3853      686F7365 
 3853      00
 3854              	.LASF56:
 3855 0415 55415254 		.ascii	"UART_RF_TEST\000"
 3855      5F52465F 
 3855      54455354 
 3855      00
 3856              	.LASF8:
 3857 0422 756E7369 		.ascii	"unsigned int\000"
 3857      676E6564 
 3857      20696E74 
 3857      00
 3858              	.LASF79:
 3859 042f 5052494E 		.ascii	"PRINTER22_JOB\000"
 3859      54455232 
 3859      325F4A4F 
 3859      4200
 3860              	.LASF85:
 3861 043d 44495350 		.ascii	"DISPLAY1_UPDATE_DATETIME\000"
 3861      4C415931 
 3861      5F555044 
 3861      4154455F 
 3861      44415445 
 3862              	.LASF90:
 3863 0456 44495350 		.ascii	"DISPLAY2_ANIMATE_HOME\000"
 3863      4C415932 
ARM GAS  C:\Users\RECEPC~1\AppData\Local\Temp\ccMrdYRj.s 			page 82


 3863      5F414E49 
 3863      4D415445 
 3863      5F484F4D 
 3864              	.LASF118:
 3865 046c 5F736572 		.ascii	"_serial\000"
 3865      69616C00 
 3866              	.LASF27:
 3867 0474 46495253 		.ascii	"FIRSTFOUNDFOREVER\000"
 3867      54464F55 
 3867      4E44464F 
 3867      52455645 
 3867      5200
 3868              	.LASF94:
 3869 0486 544F4747 		.ascii	"TOGGLE_SCREEN_AND_WRITE_TEST\000"
 3869      4C455F53 
 3869      43524545 
 3869      4E5F414E 
 3869      445F5752 
 3870              	.LASF39:
 3871 04a3 5F6D6573 		.ascii	"_messagedelay\000"
 3871      73616765 
 3871      64656C61 
 3871      7900
 3872              	.LASF36:
 3873 04b1 5F6D6573 		.ascii	"_messageid\000"
 3873      73616765 
 3873      696400
 3874              	.LASF32:
 3875 04bc 53494E4B 		.ascii	"SINK_FREE\000"
 3875      5F465245 
 3875      4500
 3876              	.LASF65:
 3877 04c6 44495350 		.ascii	"DISPENSER_EXECUTE_CREDIT_TRANSACTION\000"
 3877      454E5345 
 3877      525F4558 
 3877      45435554 
 3877      455F4352 
 3878              	.LASF205:
 3879 04eb 44697370 		.ascii	"DispenserSinkRegistration\000"
 3879      656E7365 
 3879      7253696E 
 3879      6B526567 
 3879      69737472 
 3880              	.LASF210:
 3881 0505 70726563 		.ascii	"precondexecuted\000"
 3881      6F6E6465 
 3881      78656375 
 3881      74656400 
 3882              	.LASF11:
 3883 0515 75696E74 		.ascii	"uint8\000"
 3883      3800
 3884              	.LASF169:
 3885 051b 5F706F73 		.ascii	"_postconditions\000"
 3885      74636F6E 
 3885      64697469 
 3885      6F6E7300 
 3886              	.LASF180:
ARM GAS  C:\Users\RECEPC~1\AppData\Local\Temp\ccMrdYRj.s 			page 83


 3887 052b 5F726574 		.ascii	"_retriescounter\000"
 3887      72696573 
 3887      636F756E 
 3887      74657200 
 3888              	.LASF3:
 3889 053b 73686F72 		.ascii	"short unsigned int\000"
 3889      7420756E 
 3889      7369676E 
 3889      65642069 
 3889      6E7400
 3890              	.LASF197:
 3891 054e 436C6561 		.ascii	"Clear\000"
 3891      7200
 3892              	.LASF162:
 3893 0554 5F726573 		.ascii	"_responsetimeoutlimit\000"
 3893      706F6E73 
 3893      6574696D 
 3893      656F7574 
 3893      6C696D69 
 3894              	.LASF128:
 3895 056a 5F70656E 		.ascii	"_pendingtransaction\000"
 3895      64696E67 
 3895      7472616E 
 3895      73616374 
 3895      696F6E00 
 3896              	.LASF132:
 3897 057e 5F726F75 		.ascii	"_roundrobinstate\000"
 3897      6E64726F 
 3897      62696E73 
 3897      74617465 
 3897      00
 3898              	.LASF141:
 3899 058f 5F727862 		.ascii	"_rxbuffer\000"
 3899      75666665 
 3899      7200
 3900              	.LASF225:
 3901 0599 70706172 		.ascii	"pparam\000"
 3901      616D00
 3902              	.LASF64:
 3903 05a0 44495350 		.ascii	"DISPENSER_EXECUTE_CASH_TRANSACTION\000"
 3903      454E5345 
 3903      525F4558 
 3903      45435554 
 3903      455F4341 
 3904              	.LASF66:
 3905 05c3 44495350 		.ascii	"DISPENSER_UNLOCK_EOT_PUMPS\000"
 3905      454E5345 
 3905      525F554E 
 3905      4C4F434B 
 3905      5F454F54 
 3906              	.LASF81:
 3907 05de 5052494E 		.ascii	"PRINTER2_GENERIC_JOB\000"
 3907      54455232 
 3907      5F47454E 
 3907      45524943 
 3907      5F4A4F42 
 3908              	.LASF190:
ARM GAS  C:\Users\RECEPC~1\AppData\Local\Temp\ccMrdYRj.s 			page 84


 3909 05f3 5F6A6F62 		.ascii	"_jobqueueheap\000"
 3909      71756575 
 3909      65686561 
 3909      7000
 3910              	.LASF40:
 3911 0601 5F6D6573 		.ascii	"_messagetimeout\000"
 3911      73616765 
 3911      74696D65 
 3911      6F757400 
 3912              	.LASF74:
 3913 0611 44495350 		.ascii	"DISPENSER_PUMP_HANDLER\000"
 3913      454E5345 
 3913      525F5055 
 3913      4D505F48 
 3913      414E444C 
 3914              	.LASF84:
 3915 0628 44495350 		.ascii	"DISPLAY1_MESSAGE\000"
 3915      4C415931 
 3915      5F4D4553 
 3915      53414745 
 3915      00
 3916              	.LASF2:
 3917 0639 73686F72 		.ascii	"short int\000"
 3917      7420696E 
 3917      7400
 3918              	.LASF143:
 3919 0643 5F747261 		.ascii	"_transqueue\000"
 3919      6E737175 
 3919      65756500 
 3920              	.LASF183:
 3921 064f 5F707265 		.ascii	"_prequest\000"
 3921      71756573 
 3921      7400
 3922              	.LASF60:
 3923 0659 53494E4B 		.ascii	"SINK_RELEASE_BY_PTR\000"
 3923      5F52454C 
 3923      45415345 
 3923      5F42595F 
 3923      50545200 
 3924              	.LASF127:
 3925 066d 5F73696E 		.ascii	"_sinktransaction\000"
 3925      6B747261 
 3925      6E736163 
 3925      74696F6E 
 3925      00
 3926              	.LASF222:
 3927 067e 2E5C4469 		.ascii	".\\DispenserSink.c\000"
 3927      7370656E 
 3927      73657253 
 3927      696E6B2E 
 3927      6300
 3928              	.LASF193:
 3929 0690 416C6C6F 		.ascii	"Allocate\000"
 3929      63617465 
 3929      00
 3930              	.LASF215:
 3931 0699 706F7374 		.ascii	"postcondexecuted\000"
ARM GAS  C:\Users\RECEPC~1\AppData\Local\Temp\ccMrdYRj.s 			page 85


 3931      636F6E64 
 3931      65786563 
 3931      75746564 
 3931      00
 3932              	.LASF196:
 3933 06aa 44657175 		.ascii	"Dequeue\000"
 3933      65756500 
 3934              	.LASF87:
 3935 06b2 44495350 		.ascii	"DISPLAY2_RECEPTION\000"
 3935      4C415932 
 3935      5F524543 
 3935      45505449 
 3935      4F4E00
 3936              	.LASF117:
 3937 06c5 5F766F6C 		.ascii	"_volumeamount\000"
 3937      756D6561 
 3937      6D6F756E 
 3937      7400
 3938              	.LASF86:
 3939 06d3 44495350 		.ascii	"DISPLAY1_ANIMATE_HOME\000"
 3939      4C415931 
 3939      5F414E49 
 3939      4D415445 
 3939      5F484F4D 
 3940              	.LASF20:
 3941 06e9 73697A65 		.ascii	"sizetype\000"
 3941      74797065 
 3941      00
 3942              	.LASF131:
 3943 06f2 5F70756D 		.ascii	"_pumplocked\000"
 3943      706C6F63 
 3943      6B656400 
 3944              	.LASF21:
 3945 06fe 6C6F6E67 		.ascii	"long double\000"
 3945      20646F75 
 3945      626C6500 
 3946              	.LASF206:
 3947 070a 44697370 		.ascii	"DispenserHandler\000"
 3947      656E7365 
 3947      7248616E 
 3947      646C6572 
 3947      00
 3948              	.LASF41:
 3949 071b 5F6D6573 		.ascii	"_messagetimeoutmultiplier\000"
 3949      73616765 
 3949      74696D65 
 3949      6F75746D 
 3949      756C7469 
 3950              	.LASF186:
 3951 0735 50756D70 		.ascii	"PumpTransactionJobContext\000"
 3951      5472616E 
 3951      73616374 
 3951      696F6E4A 
 3951      6F62436F 
 3952              	.LASF77:
 3953 074f 5052494E 		.ascii	"PRINTER12_JOB\000"
 3953      54455231 
ARM GAS  C:\Users\RECEPC~1\AppData\Local\Temp\ccMrdYRj.s 			page 86


 3953      325F4A4F 
 3953      4200
 3954              	.LASF53:
 3955 075d 5053494E 		.ascii	"PSINKSUBSCRIBERPTR\000"
 3955      4B535542 
 3955      53435249 
 3955      42455250 
 3955      545200
 3956              	.LASF119:
 3957 0770 50756D70 		.ascii	"PumpAuthorizationInfo\000"
 3957      41757468 
 3957      6F72697A 
 3957      6174696F 
 3957      6E496E66 
 3958              	.LASF106:
 3959 0786 5F766172 		.ascii	"_var7\000"
 3959      3700
 3960              	.LASF35:
 3961 078c 5F73656C 		.ascii	"_selfkill\000"
 3961      666B696C 
 3961      6C00
 3962              	.LASF187:
 3963 0796 5050554D 		.ascii	"PPUMPTRANSACTIONJOBCONTEXTPTR\000"
 3963      50545241 
 3963      4E534143 
 3963      54494F4E 
 3963      4A4F4243 
 3964              	.LASF202:
 3965 07b4 70737562 		.ascii	"psubscriber\000"
 3965      73637269 
 3965      62657200 
 3966              	.LASF146:
 3967 07c0 50756D70 		.ascii	"PumpTransQueueUnlock\000"
 3967      5472616E 
 3967      73517565 
 3967      7565556E 
 3967      6C6F636B 
 3968              	.LASF70:
 3969 07d5 44495350 		.ascii	"DISPENSER_CONFIGURE_PRICES\000"
 3969      454E5345 
 3969      525F434F 
 3969      4E464947 
 3969      5552455F 
 3970              	.LASF221:
 3971 07f0 474E5520 		.ascii	"GNU C 4.9.3 20150303 (release) [ARM/embedded-4_9-br"
 3971      4320342E 
 3971      392E3320 
 3971      32303135 
 3971      30333033 
 3972 0823 616E6368 		.ascii	"anch revision 221220] -mcpu=cortex-m3 -mthumb -g -O"
 3972      20726576 
 3972      6973696F 
 3972      6E203232 
 3972      31323230 
 3973 0856 30202D66 		.ascii	"0 -ffunction-sections -ffat-lto-objects\000"
 3973      66756E63 
 3973      74696F6E 
ARM GAS  C:\Users\RECEPC~1\AppData\Local\Temp\ccMrdYRj.s 			page 87


 3973      2D736563 
 3973      74696F6E 
 3974              	.LASF97:
 3975 087e 50756D70 		.ascii	"PumpTransactionalState\000"
 3975      5472616E 
 3975      73616374 
 3975      696F6E61 
 3975      6C537461 
 3976              	.LASF111:
 3977 0895 50756D70 		.ascii	"PumpDataContainer\000"
 3977      44617461 
 3977      436F6E74 
 3977      61696E65 
 3977      7200
 3978              	.LASF153:
 3979 08a7 5F646174 		.ascii	"_datacontainer\000"
 3979      61636F6E 
 3979      7461696E 
 3979      657200
 3980              	.LASF24:
 3981 08b6 46495253 		.ascii	"FIRSTFOUND\000"
 3981      54464F55 
 3981      4E4400
 3982              	.LASF139:
 3983 08c1 5F706375 		.ascii	"_pcurrtransaction\000"
 3983      72727472 
 3983      616E7361 
 3983      6374696F 
 3983      6E00
 3984              	.LASF191:
 3985 08d3 5F706A6F 		.ascii	"_pjobqueueallocated\000"
 3985      62717565 
 3985      7565616C 
 3985      6C6F6361 
 3985      74656400 
 3986              	.LASF88:
 3987 08e7 44495350 		.ascii	"DISPLAY2_MESSAGE\000"
 3987      4C415932 
 3987      5F4D4553 
 3987      53414745 
 3987      00
 3988              	.LASF137:
 3989 08f8 5F727476 		.ascii	"_rtvolumeamount\000"
 3989      6F6C756D 
 3989      65616D6F 
 3989      756E7400 
 3990              	.LASF38:
 3991 0908 5F6D6573 		.ascii	"_messagestate\000"
 3991      73616765 
 3991      73746174 
 3991      6500
 3992              	.LASF33:
 3993 0916 53494E4B 		.ascii	"SINK_ALLOCATED\000"
 3993      5F414C4C 
 3993      4F434154 
 3993      454400
 3994              	.LASF208:
ARM GAS  C:\Users\RECEPC~1\AppData\Local\Temp\ccMrdYRj.s 			page 88


 3995 0925 6F6E6573 		.ascii	"oneshot\000"
 3995      686F7400 
 3996              	.LASF159:
 3997 092d 52657370 		.ascii	"Response\000"
 3997      6F6E7365 
 3997      00
 3998              	.LASF165:
 3999 0936 5F726574 		.ascii	"_retryinsteadofrepush\000"
 3999      7279696E 
 3999      73746561 
 3999      646F6672 
 3999      65707573 
 4000              	.LASF30:
 4001 094c 5F4D4553 		.ascii	"_MESSAGE_TYPE_\000"
 4001      53414745 
 4001      5F545950 
 4001      455F00
 4002              	.LASF63:
 4003 095b 44495350 		.ascii	"DISPENSER_ACQUIRE_PUMP_HOSE\000"
 4003      454E5345 
 4003      525F4143 
 4003      51554952 
 4003      455F5055 
 4004              	.LASF166:
 4005 0977 5F6F6E65 		.ascii	"_oneshotpreconditions\000"
 4005      73686F74 
 4005      70726563 
 4005      6F6E6469 
 4005      74696F6E 
 4006              	.LASF223:
 4007 098d 433A5C54 		.ascii	"C:\\TeamInsepet\\NSX-Prime\\Hardware\\CorEx-MUX-Ker"
 4007      65616D49 
 4007      6E736570 
 4007      65745C4E 
 4007      53582D50 
 4008 09bc 6E656C2D 		.ascii	"nel-Enhanced\\Workspace01\\CorEx-Mux-Kernel.cydsn\000"
 4008      456E6861 
 4008      6E636564 
 4008      5C576F72 
 4008      6B737061 
 4009              	.LASF47:
 4010 09ec 5F426F6F 		.ascii	"_Bool\000"
 4010      6C00
 4011              	.LASF10:
 4012 09f2 696E7433 		.ascii	"int32_t\000"
 4012      325F7400 
 4013              	.LASF1:
 4014 09fa 756E7369 		.ascii	"unsigned char\000"
 4014      676E6564 
 4014      20636861 
 4014      7200
 4015              	.LASF213:
 4016 0a08 44697370 		.ascii	"DispenserDataReceptionHandler\000"
 4016      656E7365 
 4016      72446174 
 4016      61526563 
 4016      65707469 
ARM GAS  C:\Users\RECEPC~1\AppData\Local\Temp\ccMrdYRj.s 			page 89


 4017              	.LASF134:
 4018 0a26 5F70756D 		.ascii	"_pumprftransstate\000"
 4018      70726674 
 4018      72616E73 
 4018      73746174 
 4018      6500
 4019              	.LASF133:
 4020 0a38 5F706F73 		.ascii	"_positionlocked\000"
 4020      6974696F 
 4020      6E6C6F63 
 4020      6B656400 
 4021              	.LASF147:
 4022 0a48 50756D70 		.ascii	"PumpTransQueueFind\000"
 4022      5472616E 
 4022      73517565 
 4022      75654669 
 4022      6E6400
 4023              	.LASF17:
 4024 0a5b 75696E74 		.ascii	"uint64\000"
 4024      363400
 4025              	.LASF104:
 4026 0a62 5F766172 		.ascii	"_var5\000"
 4026      3500
 4027              	.LASF181:
 4028 0a68 5F74696D 		.ascii	"_timeoutseed\000"
 4028      656F7574 
 4028      73656564 
 4028      00
 4029              	.LASF50:
 4030 0a75 5F53494E 		.ascii	"_SINK_SUBSCRIBER_\000"
 4030      4B5F5355 
 4030      42534352 
 4030      49424552 
 4030      5F00
 4031              	.LASF42:
 4032 0a87 5F6D6573 		.ascii	"_messagetimeoutlimit\000"
 4032      73616765 
 4032      74696D65 
 4032      6F75746C 
 4032      696D6974 
 4033              	.LASF93:
 4034 0a9c 474C4F42 		.ascii	"GLOBAL_TICK_NOTIFICATION\000"
 4034      414C5F54 
 4034      49434B5F 
 4034      4E4F5449 
 4034      46494341 
 4035              	.LASF224:
 4036 0ab5 44697370 		.ascii	"DispenserUpdateTimeouts\000"
 4036      656E7365 
 4036      72557064 
 4036      61746554 
 4036      696D656F 
 4037              	.LASF61:
 4038 0acd 44495350 		.ascii	"DISPENSER_UPDATE_PUMP_TRANSACTION_TIMEOUTS\000"
 4038      454E5345 
 4038      525F5550 
 4038      44415445 
ARM GAS  C:\Users\RECEPC~1\AppData\Local\Temp\ccMrdYRj.s 			page 90


 4038      5F50554D 
 4039              	.LASF73:
 4040 0af8 44495350 		.ascii	"DISPENSER_ACQUIRE_TOTALS\000"
 4040      454E5345 
 4040      525F4143 
 4040      51554952 
 4040      455F544F 
 4041              	.LASF211:
 4042 0b11 44697370 		.ascii	"DispenserTimeoutHandler\000"
 4042      656E7365 
 4042      7254696D 
 4042      656F7574 
 4042      48616E64 
 4043              	.LASF71:
 4044 0b29 44495350 		.ascii	"DISPENSER_RESTORE_PRICES\000"
 4044      454E5345 
 4044      525F5245 
 4044      53544F52 
 4044      455F5052 
 4045              	.LASF25:
 4046 0b42 414C4C49 		.ascii	"ALLINTERESTED\000"
 4046      4E544552 
 4046      45535445 
 4046      4400
 4047              	.LASF26:
 4048 0b50 44454C41 		.ascii	"DELAYEDALLINTERESTED\000"
 4048      59454441 
 4048      4C4C494E 
 4048      54455245 
 4048      53544544 
 4049              	.LASF109:
 4050 0b65 5F766172 		.ascii	"_varA\000"
 4050      4100
 4051              	.LASF49:
 4052 0b6b 5F53494E 		.ascii	"_SINK_MESSAGE_\000"
 4052      4B5F4D45 
 4052      53534147 
 4052      455F00
 4053              	.LASF68:
 4054 0b7a 44495350 		.ascii	"DISPENSER_ENUMERATE_VISIBLE_PUMPS\000"
 4054      454E5345 
 4054      525F454E 
 4054      554D4552 
 4054      4154455F 
 4055              	.LASF163:
 4056 0b9c 5F726570 		.ascii	"_repushtimeoutlimit\000"
 4056      75736874 
 4056      696D656F 
 4056      75746C69 
 4056      6D697400 
 4057              	.LASF120:
 4058 0bb0 5F50554D 		.ascii	"_PUMP_LAYOUT_\000"
 4058      505F4C41 
 4058      594F5554 
 4058      5F00
 4059              	.LASF99:
 4060 0bbe 5F766172 		.ascii	"_var0\000"
ARM GAS  C:\Users\RECEPC~1\AppData\Local\Temp\ccMrdYRj.s 			page 91


 4060      3000
 4061              	.LASF100:
 4062 0bc4 5F766172 		.ascii	"_var1\000"
 4062      3100
 4063              	.LASF101:
 4064 0bca 5F766172 		.ascii	"_var2\000"
 4064      3200
 4065              	.LASF102:
 4066 0bd0 5F766172 		.ascii	"_var3\000"
 4066      3300
 4067              	.LASF103:
 4068 0bd6 5F766172 		.ascii	"_var4\000"
 4068      3400
 4069              	.LASF189:
 4070 0bdc 5F717565 		.ascii	"_queueindex\000"
 4070      7565696E 
 4070      64657800 
 4071              	.LASF105:
 4072 0be8 5F766172 		.ascii	"_var6\000"
 4072      3600
 4073              	.LASF95:
 4074 0bee 57415443 		.ascii	"WATCHDOG_STARTUP\000"
 4074      48444F47 
 4074      5F535441 
 4074      52545550 
 4074      00
 4075              	.LASF107:
 4076 0bff 5F766172 		.ascii	"_var8\000"
 4076      3800
 4077              	.LASF108:
 4078 0c05 5F766172 		.ascii	"_var9\000"
 4078      3900
 4079              	.LASF182:
 4080 0c0b 5F74696D 		.ascii	"_timeoutmultiplier\000"
 4080      656F7574 
 4080      6D756C74 
 4080      69706C69 
 4080      657200
 4081              	.LASF5:
 4082 0c1e 6C6F6E67 		.ascii	"long unsigned int\000"
 4082      20756E73 
 4082      69676E65 
 4082      6420696E 
 4082      7400
 4083              	.LASF218:
 4084 0c30 5F675F72 		.ascii	"_g_respctxt\000"
 4084      65737063 
 4084      74787400 
 4085              	.LASF19:
 4086 0c3c 63686172 		.ascii	"char\000"
 4086      00
 4087              	.LASF110:
 4088 0c41 5F766172 		.ascii	"_varB\000"
 4088      4200
 4089              	.LASF158:
 4090 0c47 52657175 		.ascii	"Request\000"
 4090      65737400 
ARM GAS  C:\Users\RECEPC~1\AppData\Local\Temp\ccMrdYRj.s 			page 92


 4091              	.LASF48:
 4092 0c4f 5053494E 		.ascii	"PSINKMESSAGEPTR\000"
 4092      4B4D4553 
 4092      53414745 
 4092      50545200 
 4093              	.LASF122:
 4094 0c5f 5F70756D 		.ascii	"_pumpindex\000"
 4094      70696E64 
 4094      657800
 4095              	.LASF75:
 4096 0c6a 44495350 		.ascii	"DISPENSER_PUMP_BEEP_WARNING\000"
 4096      454E5345 
 4096      525F5055 
 4096      4D505F42 
 4096      4545505F 
 4097              	.LASF207:
 4098 0c86 706A6F62 		.ascii	"pjob\000"
 4098      00
 4099              	.LASF204:
 4100 0c8b 696E6465 		.ascii	"index\000"
 4100      7800
 4101              	.LASF83:
 4102 0c91 44495350 		.ascii	"DISPLAY1_RECEPTION\000"
 4102      4C415931 
 4102      5F524543 
 4102      45505449 
 4102      4F4E00
 4103              	.LASF173:
 4104 0ca4 5F726565 		.ascii	"_reenqueue\000"
 4104      6E717565 
 4104      756500
 4105              	.LASF9:
 4106 0caf 5F5F696E 		.ascii	"__int32_t\000"
 4106      7433325F 
 4106      7400
 4107              	.LASF18:
 4108 0cb9 63686172 		.ascii	"char8\000"
 4108      3800
 4109              	.LASF98:
 4110 0cbf 504E4541 		.ascii	"PNEAR_PUMPTRANSACTIONALSTATEPTR\000"
 4110      525F5055 
 4110      4D505452 
 4110      414E5341 
 4110      4354494F 
 4111              	.LASF167:
 4112 0cdf 5F707265 		.ascii	"_preconditions\000"
 4112      636F6E64 
 4112      6974696F 
 4112      6E7300
 4113              	.LASF176:
 4114 0cee 5F64656C 		.ascii	"_delaymultiplier\000"
 4114      61796D75 
 4114      6C746970 
 4114      6C696572 
 4114      00
 4115              	.LASF28:
 4116 0cff 42524F41 		.ascii	"BROADCASTFOREVER\000"
ARM GAS  C:\Users\RECEPC~1\AppData\Local\Temp\ccMrdYRj.s 			page 93


 4116      44434153 
 4116      54464F52 
 4116      45564552 
 4116      00
 4117              	.LASF91:
 4118 0d10 49425554 		.ascii	"IBUTTON1_SCAN\000"
 4118      544F4E31 
 4118      5F534341 
 4118      4E00
 4119              	.LASF115:
 4120 0d1e 5F707269 		.ascii	"_price\000"
 4120      636500
 4121              	.LASF62:
 4122 0d25 44495350 		.ascii	"DISPENSER_ACQUIRE_PUMP_STATE\000"
 4122      454E5345 
 4122      525F4143 
 4122      51554952 
 4122      455F5055 
 4123              	.LASF220:
 4124 0d42 5F675F64 		.ascii	"_g_dispenserupdatetimeoutmultiplier\000"
 4124      69737065 
 4124      6E736572 
 4124      75706461 
 4124      74657469 
 4125              	.LASF199:
 4126 0d66 5F707061 		.ascii	"_pparam\000"
 4126      72616D00 
 4127              	.LASF55:
 4128 0d6e 55415254 		.ascii	"UART_RF_RECEPTION\000"
 4128      5F52465F 
 4128      52454345 
 4128      5054494F 
 4128      4E00
 4129              	.LASF172:
 4130 0d80 50756D70 		.ascii	"PumpTransactionJob\000"
 4130      5472616E 
 4130      73616374 
 4130      696F6E4A 
 4130      6F6200
 4131              	.LASF69:
 4132 0d93 44495350 		.ascii	"DISPENSER_ACQUIRE_CONFIGURATION_INFORMATION\000"
 4132      454E5345 
 4132      525F4143 
 4132      51554952 
 4132      455F434F 
 4133              	.LASF112:
 4134 0dbf 5F617574 		.ascii	"_authorized\000"
 4134      686F7269 
 4134      7A656400 
 4135              	.LASF160:
 4136 0dcb 54696D65 		.ascii	"TimeoutCallback\000"
 4136      6F757443 
 4136      616C6C62 
 4136      61636B00 
 4137              	.LASF192:
 4138 0ddb 526F7461 		.ascii	"Rotate\000"
 4138      746500
ARM GAS  C:\Users\RECEPC~1\AppData\Local\Temp\ccMrdYRj.s 			page 94


 4139              	.LASF123:
 4140 0de2 5F70756D 		.ascii	"_pumpstate\000"
 4140      70737461 
 4140      746500
 4141              	.LASF89:
 4142 0ded 44495350 		.ascii	"DISPLAY2_UPDATE_DATETIME\000"
 4142      4C415932 
 4142      5F555044 
 4142      4154455F 
 4142      44415445 
 4143              	.LASF46:
 4144 0e06 43616C6C 		.ascii	"Callback\000"
 4144      6261636B 
 4144      00
 4145              	.LASF145:
 4146 0e0f 50756D70 		.ascii	"PumpTransQueueLock\000"
 4146      5472616E 
 4146      73517565 
 4146      75654C6F 
 4146      636B00
 4147              	.LASF23:
 4148 0e22 42524F41 		.ascii	"BROADCAST\000"
 4148      44434153 
 4148      5400
 4149              	.LASF59:
 4150 0e2c 53494E4B 		.ascii	"SINK_RELEASE_BY_ID\000"
 4150      5F52454C 
 4150      45415345 
 4150      5F42595F 
 4150      494400
 4151              	.LASF195:
 4152 0e3f 5065656B 		.ascii	"Peek\000"
 4152      00
 4153              	.LASF113:
 4154 0e44 5F707265 		.ascii	"_presettype\000"
 4154      73657474 
 4154      79706500 
 4155              	.LASF15:
 4156 0e50 666C6F61 		.ascii	"float\000"
 4156      7400
 4157              	.LASF12:
 4158 0e56 75696E74 		.ascii	"uint16\000"
 4158      313600
 4159              	.LASF129:
 4160 0e5d 5F726573 		.ascii	"_restoreprice\000"
 4160      746F7265 
 4160      70726963 
 4160      6500
 4161              	.LASF175:
 4162 0e6b 5F64656C 		.ascii	"_delay\000"
 4162      617900
 4163              	.LASF188:
 4164 0e72 5F50554D 		.ascii	"_PUMP_JOB_QUEUE_\000"
 4164      505F4A4F 
 4164      425F5155 
 4164      4555455F 
 4164      00
ARM GAS  C:\Users\RECEPC~1\AppData\Local\Temp\ccMrdYRj.s 			page 95


 4165              	.LASF214:
 4166 0e83 706F7374 		.ascii	"postconditions\000"
 4166      636F6E64 
 4166      6974696F 
 4166      6E7300
 4167              	.LASF151:
 4168 0e92 50756D70 		.ascii	"PumpTransQueueDequeue\000"
 4168      5472616E 
 4168      73517565 
 4168      75654465 
 4168      71756575 
 4169              	.LASF170:
 4170 0ea8 496E6974 		.ascii	"Initialization\000"
 4170      69616C69 
 4170      7A617469 
 4170      6F6E00
 4171              		.ident	"GCC: (GNU Tools for ARM Embedded Processors) 4.9.3 20150303 (release) [ARM/embedded-4_9-br
