ARM GAS  C:\Users\Lenovo\AppData\Local\Temp\ccZMg7Tg.s 			page 1


   1              		.syntax unified
   2              		.cpu cortex-m3
   3              		.fpu softvfp
   4              		.eabi_attribute 20, 1
   5              		.eabi_attribute 21, 1
   6              		.eabi_attribute 23, 3
   7              		.eabi_attribute 24, 1
   8              		.eabi_attribute 25, 1
   9              		.eabi_attribute 26, 1
  10              		.eabi_attribute 30, 6
  11              		.eabi_attribute 34, 1
  12              		.eabi_attribute 18, 4
  13              		.thumb
  14              		.file	"EepromManager.c"
  15              		.text
  16              	.Ltext0:
  17              		.cfi_sections	.debug_frame
  18              		.comm	HoseDispenser,1,1
  19              		.global	_g_i2cstart
  20              		.data
  21              		.type	_g_i2cstart, %object
  22              		.size	_g_i2cstart, 1
  23              	_g_i2cstart:
  24 0000 01       		.byte	1
  25              		.global	_g_i2cbuslock
  26              		.bss
  27              		.type	_g_i2cbuslock, %object
  28              		.size	_g_i2cbuslock, 1
  29              	_g_i2cbuslock:
  30 0000 00       		.space	1
  31              		.comm	_g_eeprom,66,4
  32              		.section	.text.GetEepromBuffer,"ax",%progbits
  33              		.align	2
  34              		.global	GetEepromBuffer
  35              		.thumb
  36              		.thumb_func
  37              		.type	GetEepromBuffer, %function
  38              	GetEepromBuffer:
  39              	.LFB63:
  40              		.file 1 ".\\EepromManager.c"
   1:.\EepromManager.c **** /* ========================================
   2:.\EepromManager.c ****  *
   3:.\EepromManager.c ****  * Copyright INSEPET SISTEMAS, 2016
   4:.\EepromManager.c ****  * All Rights Reserved
   5:.\EepromManager.c ****  * UNPUBLISHED, LICENSED SOFTWARE.
   6:.\EepromManager.c ****  *
   7:.\EepromManager.c ****  * CONFIDENTIAL AND PROPRIETARY INFORMATION
   8:.\EepromManager.c ****  * WHICH IS THE PROPERTY OF your company.
   9:.\EepromManager.c ****  *
  10:.\EepromManager.c ****  * ========================================
  11:.\EepromManager.c **** @Created by: HIJH
  12:.\EepromManager.c **** @Date: Septembre 2 de 2016
  13:.\EepromManager.c **** */
  14:.\EepromManager.c **** 
  15:.\EepromManager.c **** #include <project.h>
  16:.\EepromManager.c **** #include "GlobalDefinitions.h"
  17:.\EepromManager.c **** #include "Eeprom.h"
ARM GAS  C:\Users\Lenovo\AppData\Local\Temp\ccZMg7Tg.s 			page 2


  18:.\EepromManager.c **** 
  19:.\EepromManager.c **** volatile bool _g_i2cstart = true;
  20:.\EepromManager.c **** volatile bool _g_i2cbuslock = false;
  21:.\EepromManager.c **** 
  22:.\EepromManager.c **** uint8 _g_eeprom[_EEPROM_PAGE_RAWSIZE_];
  23:.\EepromManager.c **** 
  24:.\EepromManager.c **** //@Created By: HIJH
  25:.\EepromManager.c **** //@Septembre de 2016
  26:.\EepromManager.c **** uint8* GetEepromBuffer()
  27:.\EepromManager.c **** {
  41              		.loc 1 27 0
  42              		.cfi_startproc
  43              		@ args = 0, pretend = 0, frame = 0
  44              		@ frame_needed = 1, uses_anonymous_args = 0
  45              		@ link register save eliminated.
  46 0000 80B4     		push	{r7}
  47              		.cfi_def_cfa_offset 4
  48              		.cfi_offset 7, -4
  49 0002 00AF     		add	r7, sp, #0
  50              		.cfi_def_cfa_register 7
  28:.\EepromManager.c ****     return &(_g_eeprom[0x02]);
  51              		.loc 1 28 0
  52 0004 024B     		ldr	r3, .L3
  29:.\EepromManager.c **** }
  53              		.loc 1 29 0
  54 0006 1846     		mov	r0, r3
  55 0008 BD46     		mov	sp, r7
  56              		.cfi_def_cfa_register 13
  57              		@ sp needed
  58 000a 5DF8047B 		ldr	r7, [sp], #4
  59              		.cfi_restore 7
  60              		.cfi_def_cfa_offset 0
  61 000e 7047     		bx	lr
  62              	.L4:
  63              		.align	2
  64              	.L3:
  65 0010 02000000 		.word	_g_eeprom+2
  66              		.cfi_endproc
  67              	.LFE63:
  68              		.size	GetEepromBuffer, .-GetEepromBuffer
  69              		.section	.text.I2CBusUnlock,"ax",%progbits
  70              		.align	2
  71              		.global	I2CBusUnlock
  72              		.thumb
  73              		.thumb_func
  74              		.type	I2CBusUnlock, %function
  75              	I2CBusUnlock:
  76              	.LFB64:
  30:.\EepromManager.c **** 
  31:.\EepromManager.c **** 
  32:.\EepromManager.c **** void I2CBusUnlock()
  33:.\EepromManager.c **** {
  77              		.loc 1 33 0
  78              		.cfi_startproc
  79              		@ args = 0, pretend = 0, frame = 0
  80              		@ frame_needed = 1, uses_anonymous_args = 0
  81 0000 80B5     		push	{r7, lr}
ARM GAS  C:\Users\Lenovo\AppData\Local\Temp\ccZMg7Tg.s 			page 3


  82              		.cfi_def_cfa_offset 8
  83              		.cfi_offset 7, -8
  84              		.cfi_offset 14, -4
  85 0002 00AF     		add	r7, sp, #0
  86              		.cfi_def_cfa_register 7
  34:.\EepromManager.c ****     //I2C Bus Unlock
  35:.\EepromManager.c ****     I2C_Bus_MasterClearStatus();
  87              		.loc 1 35 0
  88 0004 FFF7FEFF 		bl	I2C_Bus_MasterClearStatus
  36:.\EepromManager.c ****     _g_i2cbuslock = false;
  89              		.loc 1 36 0
  90 0008 014B     		ldr	r3, .L6
  91 000a 0022     		movs	r2, #0
  92 000c 1A70     		strb	r2, [r3]
  37:.\EepromManager.c **** }
  93              		.loc 1 37 0
  94 000e 80BD     		pop	{r7, pc}
  95              	.L7:
  96              		.align	2
  97              	.L6:
  98 0010 00000000 		.word	_g_i2cbuslock
  99              		.cfi_endproc
 100              	.LFE64:
 101              		.size	I2CBusUnlock, .-I2CBusUnlock
 102              		.section	.text.LoadEepromPage,"ax",%progbits
 103              		.align	2
 104              		.global	LoadEepromPage
 105              		.thumb
 106              		.thumb_func
 107              		.type	LoadEepromPage, %function
 108              	LoadEepromPage:
 109              	.LFB65:
  38:.\EepromManager.c **** 
  39:.\EepromManager.c **** 
  40:.\EepromManager.c **** //@Created By: HIJH
  41:.\EepromManager.c **** //@Septembre de 2016
  42:.\EepromManager.c **** void LoadEepromPage(uint16 page)
  43:.\EepromManager.c **** {
 110              		.loc 1 43 0
 111              		.cfi_startproc
 112              		@ args = 0, pretend = 0, frame = 16
 113              		@ frame_needed = 1, uses_anonymous_args = 0
 114 0000 90B5     		push	{r4, r7, lr}
 115              		.cfi_def_cfa_offset 12
 116              		.cfi_offset 4, -12
 117              		.cfi_offset 7, -8
 118              		.cfi_offset 14, -4
 119 0002 85B0     		sub	sp, sp, #20
 120              		.cfi_def_cfa_offset 32
 121 0004 00AF     		add	r7, sp, #0
 122              		.cfi_def_cfa_register 7
 123 0006 0346     		mov	r3, r0
 124 0008 FB80     		strh	r3, [r7, #6]	@ movhi
  44:.\EepromManager.c ****     //I2C_Bus_MasterStatus();
  45:.\EepromManager.c ****     
  46:.\EepromManager.c ****     I2C_Bus_MasterClearStatus();    
 125              		.loc 1 46 0
ARM GAS  C:\Users\Lenovo\AppData\Local\Temp\ccZMg7Tg.s 			page 4


 126 000a FFF7FEFF 		bl	I2C_Bus_MasterClearStatus
  47:.\EepromManager.c ****     _g_eeprom[0] = (page >> 8) & 0xFF; _g_eeprom[1] = page & 0xFF;
 127              		.loc 1 47 0
 128 000e FB88     		ldrh	r3, [r7, #6]
 129 0010 1B0A     		lsrs	r3, r3, #8
 130 0012 9BB2     		uxth	r3, r3
 131 0014 DAB2     		uxtb	r2, r3
 132 0016 1E4B     		ldr	r3, .L15
 133 0018 1A70     		strb	r2, [r3]
 134 001a FB88     		ldrh	r3, [r7, #6]	@ movhi
 135 001c DAB2     		uxtb	r2, r3
 136 001e 1C4B     		ldr	r3, .L15
 137 0020 5A70     		strb	r2, [r3, #1]
  48:.\EepromManager.c ****     uint16 status = I2C_Bus_MasterSendStart(_EEPROM_SLAVE_ADDRESS_BY_MEMARRAY_, I2C_Bus_WRITE_XFER_
 138              		.loc 1 48 0
 139 0022 5420     		movs	r0, #84
 140 0024 0021     		movs	r1, #0
 141 0026 FFF7FEFF 		bl	I2C_Bus_MasterSendStart
 142 002a 0346     		mov	r3, r0
 143 002c BB81     		strh	r3, [r7, #12]	@ movhi
  49:.\EepromManager.c ****     if(I2C_Bus_MSTR_NO_ERROR == status)
 144              		.loc 1 49 0
 145 002e BB89     		ldrh	r3, [r7, #12]
 146 0030 002B     		cmp	r3, #0
 147 0032 2AD1     		bne	.L8
 148              	.LBB2:
  50:.\EepromManager.c ****     {
  51:.\EepromManager.c ****         FOR(uint8 index = 0, index < 2, index++)
 149              		.loc 1 51 0
 150 0034 0023     		movs	r3, #0
 151 0036 FB73     		strb	r3, [r7, #15]
 152 0038 08E0     		b	.L10
 153              	.L11:
  52:.\EepromManager.c ****             I2C_Bus_MasterWriteByte(_g_eeprom[index]);
 154              		.loc 1 52 0 discriminator 3
 155 003a FB7B     		ldrb	r3, [r7, #15]	@ zero_extendqisi2
 156 003c 144A     		ldr	r2, .L15
 157 003e D35C     		ldrb	r3, [r2, r3]	@ zero_extendqisi2
 158 0040 1846     		mov	r0, r3
 159 0042 FFF7FEFF 		bl	I2C_Bus_MasterWriteByte
  51:.\EepromManager.c ****             I2C_Bus_MasterWriteByte(_g_eeprom[index]);
 160              		.loc 1 51 0 discriminator 3
 161 0046 FB7B     		ldrb	r3, [r7, #15]	@ zero_extendqisi2
 162 0048 0133     		adds	r3, r3, #1
 163 004a FB73     		strb	r3, [r7, #15]
 164              	.L10:
  51:.\EepromManager.c ****             I2C_Bus_MasterWriteByte(_g_eeprom[index]);
 165              		.loc 1 51 0 is_stmt 0 discriminator 1
 166 004c FB7B     		ldrb	r3, [r7, #15]	@ zero_extendqisi2
 167 004e 012B     		cmp	r3, #1
 168 0050 F3D9     		bls	.L11
  53:.\EepromManager.c ****             
  54:.\EepromManager.c ****         status = I2C_Bus_MasterSendRestart(_EEPROM_SLAVE_ADDRESS_BY_MEMARRAY_, I2C_Bus_READ_XFER_MO
 169              		.loc 1 54 0 is_stmt 1
 170 0052 5420     		movs	r0, #84
 171 0054 0121     		movs	r1, #1
 172 0056 FFF7FEFF 		bl	I2C_Bus_MasterSendRestart
ARM GAS  C:\Users\Lenovo\AppData\Local\Temp\ccZMg7Tg.s 			page 5


 173 005a 0346     		mov	r3, r0
 174 005c BB81     		strh	r3, [r7, #12]	@ movhi
  55:.\EepromManager.c ****         if(I2C_Bus_MSTR_NO_ERROR == status)
 175              		.loc 1 55 0
 176 005e BB89     		ldrh	r3, [r7, #12]
 177 0060 002B     		cmp	r3, #0
 178 0062 10D1     		bne	.L12
  56:.\EepromManager.c ****         {
  57:.\EepromManager.c ****             FOR(index = 2, index < _EEPROM_PAGE_RAWSIZE_, index++)
 179              		.loc 1 57 0
 180 0064 0223     		movs	r3, #2
 181 0066 FB73     		strb	r3, [r7, #15]
 182 0068 0AE0     		b	.L13
 183              	.L14:
  58:.\EepromManager.c ****                 _g_eeprom[index] = I2C_Bus_MasterReadByte(I2C_Bus_ACK_DATA);
 184              		.loc 1 58 0 discriminator 3
 185 006a FC7B     		ldrb	r4, [r7, #15]	@ zero_extendqisi2
 186 006c 0120     		movs	r0, #1
 187 006e FFF7FEFF 		bl	I2C_Bus_MasterReadByte
 188 0072 0346     		mov	r3, r0
 189 0074 1A46     		mov	r2, r3
 190 0076 064B     		ldr	r3, .L15
 191 0078 1A55     		strb	r2, [r3, r4]
  57:.\EepromManager.c ****                 _g_eeprom[index] = I2C_Bus_MasterReadByte(I2C_Bus_ACK_DATA);
 192              		.loc 1 57 0 discriminator 3
 193 007a FB7B     		ldrb	r3, [r7, #15]	@ zero_extendqisi2
 194 007c 0133     		adds	r3, r3, #1
 195 007e FB73     		strb	r3, [r7, #15]
 196              	.L13:
  57:.\EepromManager.c ****                 _g_eeprom[index] = I2C_Bus_MasterReadByte(I2C_Bus_ACK_DATA);
 197              		.loc 1 57 0 is_stmt 0 discriminator 1
 198 0080 FB7B     		ldrb	r3, [r7, #15]	@ zero_extendqisi2
 199 0082 412B     		cmp	r3, #65
 200 0084 F1D9     		bls	.L14
 201              	.L12:
  59:.\EepromManager.c ****                 
  60:.\EepromManager.c ****         }
  61:.\EepromManager.c ****         I2C_Bus_MasterSendStop();
 202              		.loc 1 61 0 is_stmt 1
 203 0086 FFF7FEFF 		bl	I2C_Bus_MasterSendStop
 204              	.L8:
 205              	.LBE2:
  62:.\EepromManager.c ****     }
  63:.\EepromManager.c **** }
 206              		.loc 1 63 0
 207 008a 1437     		adds	r7, r7, #20
 208              		.cfi_def_cfa_offset 12
 209 008c BD46     		mov	sp, r7
 210              		.cfi_def_cfa_register 13
 211              		@ sp needed
 212 008e 90BD     		pop	{r4, r7, pc}
 213              	.L16:
 214              		.align	2
 215              	.L15:
 216 0090 00000000 		.word	_g_eeprom
 217              		.cfi_endproc
 218              	.LFE65:
ARM GAS  C:\Users\Lenovo\AppData\Local\Temp\ccZMg7Tg.s 			page 6


 219              		.size	LoadEepromPage, .-LoadEepromPage
 220              		.global	__aeabi_i2d
 221              		.global	__aeabi_dmul
 222              		.global	__aeabi_ddiv
 223              		.global	__aeabi_d2uiz
 224              		.section	.text.I2CBusLock,"ax",%progbits
 225              		.align	2
 226              		.global	I2CBusLock
 227              		.thumb
 228              		.thumb_func
 229              		.type	I2CBusLock, %function
 230              	I2CBusLock:
 231              	.LFB66:
  64:.\EepromManager.c **** 
  65:.\EepromManager.c **** //@Created by: HIJH
  66:.\EepromManager.c **** //@Date: Octobre de 2016
  67:.\EepromManager.c **** //This function provides exclusive access to the I2C bus by blocking 
  68:.\EepromManager.c **** //the signaling flag. It attempts to "Desynchronize" concurrent access if any.
  69:.\EepromManager.c ****  void I2CBusLock()
  70:.\EepromManager.c **** {
 232              		.loc 1 70 0
 233              		.cfi_startproc
 234              		@ args = 0, pretend = 0, frame = 8
 235              		@ frame_needed = 1, uses_anonymous_args = 0
 236 0000 80B5     		push	{r7, lr}
 237              		.cfi_def_cfa_offset 8
 238              		.cfi_offset 7, -8
 239              		.cfi_offset 14, -4
 240 0002 82B0     		sub	sp, sp, #8
 241              		.cfi_def_cfa_offset 16
 242 0004 00AF     		add	r7, sp, #0
 243              		.cfi_def_cfa_register 7
  71:.\EepromManager.c ****     #ifdef DEBUG
  72:.\EepromManager.c ****     if(_g_i2cstart)
 244              		.loc 1 72 0
 245 0006 2C4B     		ldr	r3, .L22+8
 246 0008 1B78     		ldrb	r3, [r3]
 247 000a DBB2     		uxtb	r3, r3
 248 000c 002B     		cmp	r3, #0
 249 000e 04D0     		beq	.L18
  73:.\EepromManager.c ****     {
  74:.\EepromManager.c ****         I2C_Bus_MasterClearStatus();
 250              		.loc 1 74 0
 251 0010 FFF7FEFF 		bl	I2C_Bus_MasterClearStatus
  75:.\EepromManager.c ****         _g_i2cstart = false;
 252              		.loc 1 75 0
 253 0014 284B     		ldr	r3, .L22+8
 254 0016 0022     		movs	r2, #0
 255 0018 1A70     		strb	r2, [r3]
 256              	.L18:
 257              	.LBB3:
  76:.\EepromManager.c ****     }
  77:.\EepromManager.c ****     //I2C Bus Lock
  78:.\EepromManager.c ****     do
  79:.\EepromManager.c ****     {
  80:.\EepromManager.c ****         uint16 limit[0x01] = { ((uint16)(1000*(double)rand()/(double)RAND_MAX) + 100) };
 258              		.loc 1 80 0
ARM GAS  C:\Users\Lenovo\AppData\Local\Temp\ccZMg7Tg.s 			page 7


 259 001a FFF7FEFF 		bl	rand
 260 001e 0346     		mov	r3, r0
 261 0020 1846     		mov	r0, r3
 262 0022 FFF7FEFF 		bl	__aeabi_i2d
 263 0026 0246     		mov	r2, r0
 264 0028 0B46     		mov	r3, r1
 265 002a 1046     		mov	r0, r2
 266 002c 1946     		mov	r1, r3
 267 002e 4FF00002 		mov	r2, #0
 268 0032 224B     		ldr	r3, .L22+12
 269 0034 FFF7FEFF 		bl	__aeabi_dmul
 270 0038 0246     		mov	r2, r0
 271 003a 0B46     		mov	r3, r1
 272 003c 1046     		mov	r0, r2
 273 003e 1946     		mov	r1, r3
 274 0040 1BA3     		adr	r3, .L22
 275 0042 D3E90023 		ldrd	r2, [r3]
 276 0046 FFF7FEFF 		bl	__aeabi_ddiv
 277 004a 0246     		mov	r2, r0
 278 004c 0B46     		mov	r3, r1
 279 004e 1046     		mov	r0, r2
 280 0050 1946     		mov	r1, r3
 281 0052 FFF7FEFF 		bl	__aeabi_d2uiz
 282 0056 0346     		mov	r3, r0
 283 0058 9BB2     		uxth	r3, r3
 284 005a 6433     		adds	r3, r3, #100
 285 005c 9BB2     		uxth	r3, r3
 286 005e BB80     		strh	r3, [r7, #4]	@ movhi
  81:.\EepromManager.c ****         FOR(uint16 ndx = 0, ndx < *((uint16*)limit), ndx++);
 287              		.loc 1 81 0
 288 0060 0023     		movs	r3, #0
 289 0062 FB80     		strh	r3, [r7, #6]	@ movhi
 290 0064 02E0     		b	.L19
 291              	.L20:
 292              		.loc 1 81 0 is_stmt 0 discriminator 3
 293 0066 FB88     		ldrh	r3, [r7, #6]
 294 0068 0133     		adds	r3, r3, #1
 295 006a FB80     		strh	r3, [r7, #6]	@ movhi
 296              	.L19:
 297              		.loc 1 81 0 discriminator 1
 298 006c BB88     		ldrh	r3, [r7, #4]
 299 006e FA88     		ldrh	r2, [r7, #6]
 300 0070 9A42     		cmp	r2, r3
 301 0072 F8D3     		bcc	.L20
  82:.\EepromManager.c ****         if((((*(reg8 *) 0x400049d9u) & 0x10u) == 0x00u) && !_g_i2cbuslock)
 302              		.loc 1 82 0 is_stmt 1
 303 0074 124B     		ldr	r3, .L22+16
 304 0076 1B78     		ldrb	r3, [r3]
 305 0078 DBB2     		uxtb	r3, r3
 306 007a 03F01003 		and	r3, r3, #16
 307 007e 002B     		cmp	r3, #0
 308 0080 0AD1     		bne	.L21
 309              		.loc 1 82 0 is_stmt 0 discriminator 1
 310 0082 104B     		ldr	r3, .L22+20
 311 0084 1B78     		ldrb	r3, [r3]
 312 0086 DBB2     		uxtb	r3, r3
 313 0088 83F00103 		eor	r3, r3, #1
ARM GAS  C:\Users\Lenovo\AppData\Local\Temp\ccZMg7Tg.s 			page 8


 314 008c DBB2     		uxtb	r3, r3
 315 008e 002B     		cmp	r3, #0
 316 0090 02D0     		beq	.L21
  83:.\EepromManager.c ****             _g_i2cbuslock = true;
 317              		.loc 1 83 0 is_stmt 1
 318 0092 0C4B     		ldr	r3, .L22+20
 319 0094 0122     		movs	r2, #1
 320 0096 1A70     		strb	r2, [r3]
 321              	.L21:
 322              	.LBE3:
  84:.\EepromManager.c **** 
  85:.\EepromManager.c ****     }
  86:.\EepromManager.c ****     while(!_g_i2cbuslock);
 323              		.loc 1 86 0
 324 0098 0A4B     		ldr	r3, .L22+20
 325 009a 1B78     		ldrb	r3, [r3]
 326 009c DBB2     		uxtb	r3, r3
 327 009e 83F00103 		eor	r3, r3, #1
 328 00a2 DBB2     		uxtb	r3, r3
 329 00a4 002B     		cmp	r3, #0
 330 00a6 B8D1     		bne	.L18
  87:.\EepromManager.c ****     #endif
  88:.\EepromManager.c ****     #ifdef NDEBUG
  89:.\EepromManager.c ****         _g_i2cbuslock = true;
  90:.\EepromManager.c ****     #endif
  91:.\EepromManager.c **** }
 331              		.loc 1 91 0
 332 00a8 0837     		adds	r7, r7, #8
 333              		.cfi_def_cfa_offset 8
 334 00aa BD46     		mov	sp, r7
 335              		.cfi_def_cfa_register 13
 336              		@ sp needed
 337 00ac 80BD     		pop	{r7, pc}
 338              	.L23:
 339 00ae 00BF     		.align	3
 340              	.L22:
 341 00b0 0000C0FF 		.word	-4194304
 342 00b4 FFFFDF41 		.word	1105199103
 343 00b8 00000000 		.word	_g_i2cstart
 344 00bc 00408F40 		.word	1083129856
 345 00c0 D9490040 		.word	1073760729
 346 00c4 00000000 		.word	_g_i2cbuslock
 347              		.cfi_endproc
 348              	.LFE66:
 349              		.size	I2CBusLock, .-I2CBusLock
 350              		.section	.text.StoreEepromPage,"ax",%progbits
 351              		.align	2
 352              		.global	StoreEepromPage
 353              		.thumb
 354              		.thumb_func
 355              		.type	StoreEepromPage, %function
 356              	StoreEepromPage:
 357              	.LFB67:
  92:.\EepromManager.c **** 
  93:.\EepromManager.c **** //@Created By: HIJH
  94:.\EepromManager.c **** //@Septembre de 2016
  95:.\EepromManager.c **** void StoreEepromPage(uint16 page)
ARM GAS  C:\Users\Lenovo\AppData\Local\Temp\ccZMg7Tg.s 			page 9


  96:.\EepromManager.c **** {    
 358              		.loc 1 96 0
 359              		.cfi_startproc
 360              		@ args = 0, pretend = 0, frame = 16
 361              		@ frame_needed = 1, uses_anonymous_args = 0
 362 0000 80B5     		push	{r7, lr}
 363              		.cfi_def_cfa_offset 8
 364              		.cfi_offset 7, -8
 365              		.cfi_offset 14, -4
 366 0002 84B0     		sub	sp, sp, #16
 367              		.cfi_def_cfa_offset 24
 368 0004 00AF     		add	r7, sp, #0
 369              		.cfi_def_cfa_register 7
 370 0006 0346     		mov	r3, r0
 371 0008 FB80     		strh	r3, [r7, #6]	@ movhi
  97:.\EepromManager.c ****     uint8 retries = 0x00;
 372              		.loc 1 97 0
 373 000a 0023     		movs	r3, #0
 374 000c FB73     		strb	r3, [r7, #15]
  98:.\EepromManager.c ****     //The WP signal must be LOW to allow the writting op
  99:.\EepromManager.c ****     //Write protection enabled
 100:.\EepromManager.c ****     eepromWP_Write(0x00);
 375              		.loc 1 100 0
 376 000e 0020     		movs	r0, #0
 377 0010 FFF7FEFF 		bl	eepromWP_Write
 101:.\EepromManager.c ****     uint16 status = 0x00;
 378              		.loc 1 101 0
 379 0014 0023     		movs	r3, #0
 380 0016 BB81     		strh	r3, [r7, #12]	@ movhi
 381              	.L29:
 102:.\EepromManager.c ****     do
 103:.\EepromManager.c ****     {
 104:.\EepromManager.c ****         I2C_Bus_MasterClearStatus();    
 382              		.loc 1 104 0
 383 0018 FFF7FEFF 		bl	I2C_Bus_MasterClearStatus
 105:.\EepromManager.c ****         _g_eeprom[0] = (page >> 8) & 0xFF; _g_eeprom[1] = page & 0xFF;  
 384              		.loc 1 105 0
 385 001c FB88     		ldrh	r3, [r7, #6]
 386 001e 1B0A     		lsrs	r3, r3, #8
 387 0020 9BB2     		uxth	r3, r3
 388 0022 DAB2     		uxtb	r2, r3
 389 0024 184B     		ldr	r3, .L30
 390 0026 1A70     		strb	r2, [r3]
 391 0028 FB88     		ldrh	r3, [r7, #6]	@ movhi
 392 002a DAB2     		uxtb	r2, r3
 393 002c 164B     		ldr	r3, .L30
 394 002e 5A70     		strb	r2, [r3, #1]
 106:.\EepromManager.c ****         status = I2C_Bus_MasterSendStart(_EEPROM_SLAVE_ADDRESS_BY_MEMARRAY_, I2C_Bus_WRITE_XFER_MOD
 395              		.loc 1 106 0
 396 0030 5420     		movs	r0, #84
 397 0032 0021     		movs	r1, #0
 398 0034 FFF7FEFF 		bl	I2C_Bus_MasterSendStart
 399 0038 0346     		mov	r3, r0
 400 003a BB81     		strh	r3, [r7, #12]	@ movhi
 107:.\EepromManager.c ****         if(I2C_Bus_MSTR_NO_ERROR == status)
 401              		.loc 1 107 0
 402 003c BB89     		ldrh	r3, [r7, #12]
ARM GAS  C:\Users\Lenovo\AppData\Local\Temp\ccZMg7Tg.s 			page 10


 403 003e 002B     		cmp	r3, #0
 404 0040 13D1     		bne	.L25
 405              	.LBB4:
 108:.\EepromManager.c ****         {
 109:.\EepromManager.c ****             FOR(uint8 index = 0, index < _EEPROM_PAGE_RAWSIZE_, index++)
 406              		.loc 1 109 0
 407 0042 0023     		movs	r3, #0
 408 0044 BB73     		strb	r3, [r7, #14]
 409 0046 08E0     		b	.L26
 410              	.L27:
 110:.\EepromManager.c ****                 I2C_Bus_MasterWriteByte(_g_eeprom[index]);
 411              		.loc 1 110 0 discriminator 3
 412 0048 BB7B     		ldrb	r3, [r7, #14]	@ zero_extendqisi2
 413 004a 0F4A     		ldr	r2, .L30
 414 004c D35C     		ldrb	r3, [r2, r3]	@ zero_extendqisi2
 415 004e 1846     		mov	r0, r3
 416 0050 FFF7FEFF 		bl	I2C_Bus_MasterWriteByte
 109:.\EepromManager.c ****                 I2C_Bus_MasterWriteByte(_g_eeprom[index]);
 417              		.loc 1 109 0 discriminator 3
 418 0054 BB7B     		ldrb	r3, [r7, #14]	@ zero_extendqisi2
 419 0056 0133     		adds	r3, r3, #1
 420 0058 BB73     		strb	r3, [r7, #14]
 421              	.L26:
 109:.\EepromManager.c ****                 I2C_Bus_MasterWriteByte(_g_eeprom[index]);
 422              		.loc 1 109 0 is_stmt 0 discriminator 1
 423 005a BB7B     		ldrb	r3, [r7, #14]	@ zero_extendqisi2
 424 005c 412B     		cmp	r3, #65
 425 005e F3D9     		bls	.L27
 111:.\EepromManager.c **** 
 112:.\EepromManager.c ****             I2C_Bus_MasterSendStop();
 426              		.loc 1 112 0 is_stmt 1
 427 0060 FFF7FEFF 		bl	I2C_Bus_MasterSendStop
 113:.\EepromManager.c ****             CyDelay(5);
 428              		.loc 1 113 0
 429 0064 0520     		movs	r0, #5
 430 0066 FFF7FEFF 		bl	CyDelay
 431              	.L25:
 432              	.LBE4:
 114:.\EepromManager.c ****         }
 115:.\EepromManager.c ****     }while(I2C_Bus_MSTR_NO_ERROR != status && retries++ < 10);
 433              		.loc 1 115 0
 434 006a BB89     		ldrh	r3, [r7, #12]
 435 006c 002B     		cmp	r3, #0
 436 006e 04D0     		beq	.L28
 437              		.loc 1 115 0 is_stmt 0 discriminator 1
 438 0070 FB7B     		ldrb	r3, [r7, #15]	@ zero_extendqisi2
 439 0072 5A1C     		adds	r2, r3, #1
 440 0074 FA73     		strb	r2, [r7, #15]
 441 0076 092B     		cmp	r3, #9
 442 0078 CED9     		bls	.L29
 443              	.L28:
 116:.\EepromManager.c ****     //Write protection disabled
 117:.\EepromManager.c ****     eepromWP_Write(0x01);
 444              		.loc 1 117 0 is_stmt 1
 445 007a 0120     		movs	r0, #1
 446 007c FFF7FEFF 		bl	eepromWP_Write
 118:.\EepromManager.c **** }
ARM GAS  C:\Users\Lenovo\AppData\Local\Temp\ccZMg7Tg.s 			page 11


 447              		.loc 1 118 0
 448 0080 1037     		adds	r7, r7, #16
 449              		.cfi_def_cfa_offset 8
 450 0082 BD46     		mov	sp, r7
 451              		.cfi_def_cfa_register 13
 452              		@ sp needed
 453 0084 80BD     		pop	{r7, pc}
 454              	.L31:
 455 0086 00BF     		.align	2
 456              	.L30:
 457 0088 00000000 		.word	_g_eeprom
 458              		.cfi_endproc
 459              	.LFE67:
 460              		.size	StoreEepromPage, .-StoreEepromPage
 461              		.section	.text.ClearEepromBuffer,"ax",%progbits
 462              		.align	2
 463              		.global	ClearEepromBuffer
 464              		.thumb
 465              		.thumb_func
 466              		.type	ClearEepromBuffer, %function
 467              	ClearEepromBuffer:
 468              	.LFB68:
 119:.\EepromManager.c **** 
 120:.\EepromManager.c **** //@Created By: HIJH
 121:.\EepromManager.c **** //@Septembre de 2016
 122:.\EepromManager.c **** void ClearEepromBuffer()
 123:.\EepromManager.c **** {
 469              		.loc 1 123 0
 470              		.cfi_startproc
 471              		@ args = 0, pretend = 0, frame = 0
 472              		@ frame_needed = 1, uses_anonymous_args = 0
 473 0000 80B5     		push	{r7, lr}
 474              		.cfi_def_cfa_offset 8
 475              		.cfi_offset 7, -8
 476              		.cfi_offset 14, -4
 477 0002 00AF     		add	r7, sp, #0
 478              		.cfi_def_cfa_register 7
 124:.\EepromManager.c ****     memset(_g_eeprom, 0x00, _EEPROM_PAGE_RAWSIZE_);
 479              		.loc 1 124 0
 480 0004 0248     		ldr	r0, .L33
 481 0006 0021     		movs	r1, #0
 482 0008 4222     		movs	r2, #66
 483 000a FFF7FEFF 		bl	memset
 125:.\EepromManager.c **** }
 484              		.loc 1 125 0
 485 000e 80BD     		pop	{r7, pc}
 486              	.L34:
 487              		.align	2
 488              	.L33:
 489 0010 00000000 		.word	_g_eeprom
 490              		.cfi_endproc
 491              	.LFE68:
 492              		.size	ClearEepromBuffer, .-ClearEepromBuffer
 493              		.text
 494              	.Letext0:
 495              		.file 2 "c:\\program files (x86)\\cypress\\psoc creator\\3.3\\psoc creator\\import\\gnu\\arm\\4.9.
 496              		.file 3 "c:\\program files (x86)\\cypress\\psoc creator\\3.3\\psoc creator\\import\\gnu\\arm\\4.9.
ARM GAS  C:\Users\Lenovo\AppData\Local\Temp\ccZMg7Tg.s 			page 12


 497              		.file 4 "Generated_Source\\PSoC5/cytypes.h"
 498              		.file 5 "Generated_Source\\PSoC5/core_cm3.h"
 499              		.file 6 ".\\GlobalDefinitions.h"