ARM GAS  C:\Users\RECEPC~1\AppData\Local\Temp\ccMZb0bC.s 			page 1


   1              		.syntax unified
   2              		.cpu cortex-m3
   3              		.fpu softvfp
   4              		.eabi_attribute 20, 1
   5              		.eabi_attribute 21, 1
   6              		.eabi_attribute 23, 3
   7              		.eabi_attribute 24, 1
   8              		.eabi_attribute 25, 1
   9              		.eabi_attribute 26, 1
  10              		.eabi_attribute 30, 6
  11              		.eabi_attribute 34, 1
  12              		.eabi_attribute 18, 4
  13              		.thumb
  14              		.file	"EncoreImpl.c"
  15              		.text
  16              	.Ltext0:
  17              		.cfi_sections	.debug_frame
  18              		.section	.text.AcquirePumpStateResponse,"ax",%progbits
  19              		.align	2
  20              		.global	AcquirePumpStateResponse
  21              		.thumb
  22              		.thumb_func
  23              		.type	AcquirePumpStateResponse, %function
  24              	AcquirePumpStateResponse:
  25              	.LFB63:
  26              		.file 1 ".\\EncoreImpl.c"
   1:.\EncoreImpl.c **** /* ========================================
   2:.\EncoreImpl.c ****  *
   3:.\EncoreImpl.c ****  * Copyright INSEPET SISTEMAS, 2016
   4:.\EncoreImpl.c ****  * All Rights Reserved
   5:.\EncoreImpl.c ****  * UNPUBLISHED, LICENSED SOFTWARE.
   6:.\EncoreImpl.c ****  *
   7:.\EncoreImpl.c ****  * CONFIDENTIAL AND PROPRIETARY INFORMATION
   8:.\EncoreImpl.c ****  * WHICH IS THE PROPERTY OF your company.
   9:.\EncoreImpl.c ****  *
  10:.\EncoreImpl.c ****  * ========================================
  11:.\EncoreImpl.c **** @Created By: HIJH
  12:.\EncoreImpl.c **** @Date: Novembre de 2016
  13:.\EncoreImpl.c **** */
  14:.\EncoreImpl.c **** 
  15:.\EncoreImpl.c **** #include <project.h>
  16:.\EncoreImpl.c **** #include "GlobalDefinitions.h"
  17:.\EncoreImpl.c **** #include "SinkManager.h"
  18:.\EncoreImpl.c **** #include "SinkObservables.h"
  19:.\EncoreImpl.c **** #include "UARTManager.h"
  20:.\EncoreImpl.c **** #include "Display.h"
  21:.\EncoreImpl.c **** #include "Dispenser.h"
  22:.\EncoreImpl.c **** #include "Eeprom.h"
  23:.\EncoreImpl.c **** #include "RFLink.h"
  24:.\EncoreImpl.c **** #include "Printer.h"
  25:.\EncoreImpl.c **** #include "Rtc.h"
  26:.\EncoreImpl.c **** 
  27:.\EncoreImpl.c **** #ifdef ENCORE_PROTOCOL
  28:.\EncoreImpl.c **** 
  29:.\EncoreImpl.c **** uint8_t FindLRC(char8 *_pbuffer);
  30:.\EncoreImpl.c **** uint8_t GetLRC(char8 *_pbuffer);
  31:.\EncoreImpl.c **** 
ARM GAS  C:\Users\RECEPC~1\AppData\Local\Temp\ccMZb0bC.s 			page 2


  32:.\EncoreImpl.c **** ///////////////////////////////////////////////////////////////////////////////////////////////////
  33:.\EncoreImpl.c **** //////////////////////                 BLOCK OF AVAILABLE RESPONSE HANDLERS
  34:.\EncoreImpl.c **** ///////////////////////////////////////////////////////////////////////////////////////////////////
  35:.\EncoreImpl.c **** 
  36:.\EncoreImpl.c **** void EncoreActivateProgramming(LPVOID pparam);
  37:.\EncoreImpl.c **** extern PNEARDISPENSERACTIVATEPROGRAMMING _g_ptractprogramming;
  38:.\EncoreImpl.c **** 
  39:.\EncoreImpl.c **** //@Created By: HIJH
  40:.\EncoreImpl.c **** //@Date: Septembre de 2016
  41:.\EncoreImpl.c **** //Updates the pump state into the pump structure
  42:.\EncoreImpl.c **** void AcquirePumpStateResponse(void *pparam)
  43:.\EncoreImpl.c **** {
  27              		.loc 1 43 0
  28              		.cfi_startproc
  29              		@ args = 0, pretend = 0, frame = 16
  30              		@ frame_needed = 1, uses_anonymous_args = 0
  31 0000 80B5     		push	{r7, lr}
  32              		.cfi_def_cfa_offset 8
  33              		.cfi_offset 7, -8
  34              		.cfi_offset 14, -4
  35 0002 84B0     		sub	sp, sp, #16
  36              		.cfi_def_cfa_offset 24
  37 0004 00AF     		add	r7, sp, #0
  38              		.cfi_def_cfa_register 7
  39 0006 7860     		str	r0, [r7, #4]
  44:.\EncoreImpl.c ****     PPUMPTRANSACTIONJOBCONTEXTPTR pjob = (PPUMPTRANSACTIONJOBCONTEXTPTR)pparam;
  40              		.loc 1 44 0
  41 0008 7B68     		ldr	r3, [r7, #4]
  42 000a FB60     		str	r3, [r7, #12]
  45:.\EncoreImpl.c ****     if(pjob)
  43              		.loc 1 45 0
  44 000c FB68     		ldr	r3, [r7, #12]
  45 000e 002B     		cmp	r3, #0
  46 0010 48D0     		beq	.L1
  47              	.LBB2:
  46:.\EncoreImpl.c ****     {
  47:.\EncoreImpl.c ****         uint8 prevstate = pjob->_ppump->_pumpstate;
  48              		.loc 1 47 0
  49 0012 FB68     		ldr	r3, [r7, #12]
  50 0014 DB69     		ldr	r3, [r3, #28]
  51 0016 9B78     		ldrb	r3, [r3, #2]
  52 0018 FB72     		strb	r3, [r7, #11]
  48:.\EncoreImpl.c ****         pjob->_ppump->_pumpstate = ((pjob->_ppump->_rxbuffer[0x00] & 0xF0) >> 4);
  53              		.loc 1 48 0
  54 001a FB68     		ldr	r3, [r7, #12]
  55 001c DB69     		ldr	r3, [r3, #28]
  56 001e FA68     		ldr	r2, [r7, #12]
  57 0020 D269     		ldr	r2, [r2, #28]
  58 0022 92F8A021 		ldrb	r2, [r2, #416]	@ zero_extendqisi2
  59 0026 1209     		lsrs	r2, r2, #4
  60 0028 D2B2     		uxtb	r2, r2
  61 002a 9A70     		strb	r2, [r3, #2]
  49:.\EncoreImpl.c ****         if(pjob->_ppump->PumpValidState(pjob->_ppump))
  62              		.loc 1 49 0
  63 002c FB68     		ldr	r3, [r7, #12]
  64 002e DB69     		ldr	r3, [r3, #28]
  65 0030 D3F8603B 		ldr	r3, [r3, #2912]
ARM GAS  C:\Users\RECEPC~1\AppData\Local\Temp\ccMZb0bC.s 			page 3


  66 0034 FA68     		ldr	r2, [r7, #12]
  67 0036 D269     		ldr	r2, [r2, #28]
  68 0038 1046     		mov	r0, r2
  69 003a 9847     		blx	r3
  70 003c 0346     		mov	r3, r0
  71 003e 002B     		cmp	r3, #0
  72 0040 04D0     		beq	.L3
  50:.\EncoreImpl.c ****             pjob->_ppump->_transhealth = _PUMP_OK_;
  73              		.loc 1 50 0
  74 0042 FB68     		ldr	r3, [r7, #12]
  75 0044 DB69     		ldr	r3, [r3, #28]
  76 0046 0122     		movs	r2, #1
  77 0048 1A76     		strb	r2, [r3, #24]
  78 004a 07E0     		b	.L4
  79              	.L3:
  51:.\EncoreImpl.c ****         else
  52:.\EncoreImpl.c ****         {
  53:.\EncoreImpl.c ****             pjob->_ppump->_transhealth = _PUMP_FAIL_;
  80              		.loc 1 53 0
  81 004c FB68     		ldr	r3, [r7, #12]
  82 004e DB69     		ldr	r3, [r3, #28]
  83 0050 0222     		movs	r2, #2
  84 0052 1A76     		strb	r2, [r3, #24]
  54:.\EncoreImpl.c ****             pjob->_ppump->_pumpstate = prevstate;
  85              		.loc 1 54 0
  86 0054 FB68     		ldr	r3, [r7, #12]
  87 0056 DB69     		ldr	r3, [r3, #28]
  88 0058 FA7A     		ldrb	r2, [r7, #11]
  89 005a 9A70     		strb	r2, [r3, #2]
  90              	.L4:
  55:.\EncoreImpl.c ****         }
  56:.\EncoreImpl.c ****         
  57:.\EncoreImpl.c ****         if(pjob->_ppump->_pumpstate == PUMP_CALLING)
  91              		.loc 1 57 0
  92 005c FB68     		ldr	r3, [r7, #12]
  93 005e DB69     		ldr	r3, [r3, #28]
  94 0060 9B78     		ldrb	r3, [r3, #2]
  95 0062 DBB2     		uxtb	r3, r3
  96 0064 072B     		cmp	r3, #7
  97 0066 03D1     		bne	.L5
  58:.\EncoreImpl.c ****             pjob->_ppump->_pumplocked = false;
  98              		.loc 1 58 0
  99 0068 FB68     		ldr	r3, [r7, #12]
 100 006a DB69     		ldr	r3, [r3, #28]
 101 006c 0022     		movs	r2, #0
 102 006e 5A72     		strb	r2, [r3, #9]
 103              	.L5:
  59:.\EncoreImpl.c ****         
  60:.\EncoreImpl.c ****         if((pjob->_ppump->_pumpstate == PUMP_IDLE || pjob->_ppump->_pumpstate == PUMP_CALLING) && 
 104              		.loc 1 60 0
 105 0070 FB68     		ldr	r3, [r7, #12]
 106 0072 DB69     		ldr	r3, [r3, #28]
 107 0074 9B78     		ldrb	r3, [r3, #2]
 108 0076 DBB2     		uxtb	r3, r3
 109 0078 062B     		cmp	r3, #6
 110 007a 05D0     		beq	.L6
 111              		.loc 1 60 0 is_stmt 0 discriminator 2
ARM GAS  C:\Users\RECEPC~1\AppData\Local\Temp\ccMZb0bC.s 			page 4


 112 007c FB68     		ldr	r3, [r7, #12]
 113 007e DB69     		ldr	r3, [r3, #28]
 114 0080 9B78     		ldrb	r3, [r3, #2]
 115 0082 DBB2     		uxtb	r3, r3
 116 0084 072B     		cmp	r3, #7
 117 0086 09D1     		bne	.L7
 118              	.L6:
 119              		.loc 1 60 0 discriminator 3
 120 0088 FB7A     		ldrb	r3, [r7, #11]	@ zero_extendqisi2
 121 008a 092B     		cmp	r3, #9
 122 008c 02D0     		beq	.L8
  61:.\EncoreImpl.c ****             (prevstate == PUMP_BUSY || prevstate == PUMP_AUTHORIZED))
 123              		.loc 1 61 0 is_stmt 1
 124 008e FB7A     		ldrb	r3, [r7, #11]	@ zero_extendqisi2
 125 0090 082B     		cmp	r3, #8
 126 0092 03D1     		bne	.L7
 127              	.L8:
  62:.\EncoreImpl.c ****             pjob->_ppump->_pumprftransstate = RF_IDLE;
 128              		.loc 1 62 0
 129 0094 FB68     		ldr	r3, [r7, #12]
 130 0096 DB69     		ldr	r3, [r3, #28]
 131 0098 0822     		movs	r2, #8
 132 009a 1A73     		strb	r2, [r3, #12]
 133              	.L7:
  63:.\EncoreImpl.c ****         /*if((pjob->_ppump->_pumpstate == PUMP_IDLE || pjob->_ppump->_pumpstate == PUMP_CALLING) &&
  64:.\EncoreImpl.c ****             (prevstate == PUMP_FEOT || prevstate == PUMP_PEOT || prevstate == PUMP_BUSY || prevstat
  65:.\EncoreImpl.c ****             pjob->_ppump->_pumprftransstate = RF_IDLE;*/
  66:.\EncoreImpl.c ****                 
  67:.\EncoreImpl.c ****         pjob->_ppump->_acquiringstate = false;
 134              		.loc 1 67 0
 135 009c FB68     		ldr	r3, [r7, #12]
 136 009e DB69     		ldr	r3, [r3, #28]
 137 00a0 0022     		movs	r2, #0
 138 00a2 5A71     		strb	r2, [r3, #5]
 139              	.L1:
 140              	.LBE2:
  68:.\EncoreImpl.c ****     }
  69:.\EncoreImpl.c **** }
 141              		.loc 1 69 0
 142 00a4 1037     		adds	r7, r7, #16
 143              		.cfi_def_cfa_offset 8
 144 00a6 BD46     		mov	sp, r7
 145              		.cfi_def_cfa_register 13
 146              		@ sp needed
 147 00a8 80BD     		pop	{r7, pc}
 148              		.cfi_endproc
 149              	.LFE63:
 150              		.size	AcquirePumpStateResponse, .-AcquirePumpStateResponse
 151 00aa 00BF     		.section	.text.AcquireDatatoPumpResponse,"ax",%progbits
 152              		.align	2
 153              		.global	AcquireDatatoPumpResponse
 154              		.thumb
 155              		.thumb_func
 156              		.type	AcquireDatatoPumpResponse, %function
 157              	AcquireDatatoPumpResponse:
 158              	.LFB64:
  70:.\EncoreImpl.c **** 
ARM GAS  C:\Users\RECEPC~1\AppData\Local\Temp\ccMZb0bC.s 			page 5


  71:.\EncoreImpl.c **** //@Created By: HIJH
  72:.\EncoreImpl.c **** //@Date: Septembre de 2016
  73:.\EncoreImpl.c **** //Validates the response from the pump previous batch transfer (0xDp)
  74:.\EncoreImpl.c **** void AcquireDatatoPumpResponse(void *pparam)
  75:.\EncoreImpl.c **** {
 159              		.loc 1 75 0
 160              		.cfi_startproc
 161              		@ args = 0, pretend = 0, frame = 16
 162              		@ frame_needed = 1, uses_anonymous_args = 0
 163              		@ link register save eliminated.
 164 0000 80B4     		push	{r7}
 165              		.cfi_def_cfa_offset 4
 166              		.cfi_offset 7, -4
 167 0002 85B0     		sub	sp, sp, #20
 168              		.cfi_def_cfa_offset 24
 169 0004 00AF     		add	r7, sp, #0
 170              		.cfi_def_cfa_register 7
 171 0006 7860     		str	r0, [r7, #4]
  76:.\EncoreImpl.c ****     PPUMPTRANSACTIONJOBCONTEXTPTR pjob = (PPUMPTRANSACTIONJOBCONTEXTPTR)pparam;
 172              		.loc 1 76 0
 173 0008 7B68     		ldr	r3, [r7, #4]
 174 000a FB60     		str	r3, [r7, #12]
  77:.\EncoreImpl.c ****     if(pjob)
 175              		.loc 1 77 0
 176 000c FB68     		ldr	r3, [r7, #12]
 177 000e 002B     		cmp	r3, #0
 178 0010 15D0     		beq	.L9
  78:.\EncoreImpl.c ****     {
  79:.\EncoreImpl.c ****         if((0x0F & pjob->_ppump->_pumpid) == (pjob->_ppump->_rxbuffer[0x00] & 0x0F))
 179              		.loc 1 79 0
 180 0012 FB68     		ldr	r3, [r7, #12]
 181 0014 DB69     		ldr	r3, [r3, #28]
 182 0016 1B78     		ldrb	r3, [r3]	@ zero_extendqisi2
 183 0018 1A46     		mov	r2, r3
 184 001a FB68     		ldr	r3, [r7, #12]
 185 001c DB69     		ldr	r3, [r3, #28]
 186 001e 93F8A031 		ldrb	r3, [r3, #416]	@ zero_extendqisi2
 187 0022 5340     		eors	r3, r3, r2
 188 0024 03F00F03 		and	r3, r3, #15
 189 0028 002B     		cmp	r3, #0
 190 002a 08D1     		bne	.L9
  80:.\EncoreImpl.c ****             pjob->_ppump->_pumpstate = ((pjob->_ppump->_rxbuffer[0x00] >> 4)& 0x0F);
 191              		.loc 1 80 0
 192 002c FB68     		ldr	r3, [r7, #12]
 193 002e DB69     		ldr	r3, [r3, #28]
 194 0030 FA68     		ldr	r2, [r7, #12]
 195 0032 D269     		ldr	r2, [r2, #28]
 196 0034 92F8A021 		ldrb	r2, [r2, #416]	@ zero_extendqisi2
 197 0038 1209     		lsrs	r2, r2, #4
 198 003a D2B2     		uxtb	r2, r2
 199 003c 9A70     		strb	r2, [r3, #2]
 200              	.L9:
  81:.\EncoreImpl.c ****     }
  82:.\EncoreImpl.c **** }
 201              		.loc 1 82 0
 202 003e 1437     		adds	r7, r7, #20
 203              		.cfi_def_cfa_offset 4
ARM GAS  C:\Users\RECEPC~1\AppData\Local\Temp\ccMZb0bC.s 			page 6


 204 0040 BD46     		mov	sp, r7
 205              		.cfi_def_cfa_register 13
 206              		@ sp needed
 207 0042 5DF8047B 		ldr	r7, [sp], #4
 208              		.cfi_restore 7
 209              		.cfi_def_cfa_offset 0
 210 0046 7047     		bx	lr
 211              		.cfi_endproc
 212              	.LFE64:
 213              		.size	AcquireDatatoPumpResponse, .-AcquireDatatoPumpResponse
 214              		.section	.text.ProcessPumpRTMoneyRequest,"ax",%progbits
 215              		.align	2
 216              		.global	ProcessPumpRTMoneyRequest
 217              		.thumb
 218              		.thumb_func
 219              		.type	ProcessPumpRTMoneyRequest, %function
 220              	ProcessPumpRTMoneyRequest:
 221              	.LFB65:
  83:.\EncoreImpl.c **** 
  84:.\EncoreImpl.c **** void ProcessPumpRTMoneyRequest(void *pparam)
  85:.\EncoreImpl.c **** {
 222              		.loc 1 85 0
 223              		.cfi_startproc
 224              		@ args = 0, pretend = 0, frame = 16
 225              		@ frame_needed = 1, uses_anonymous_args = 0
 226 0000 90B5     		push	{r4, r7, lr}
 227              		.cfi_def_cfa_offset 12
 228              		.cfi_offset 4, -12
 229              		.cfi_offset 7, -8
 230              		.cfi_offset 14, -4
 231 0002 85B0     		sub	sp, sp, #20
 232              		.cfi_def_cfa_offset 32
 233 0004 00AF     		add	r7, sp, #0
 234              		.cfi_def_cfa_register 7
 235 0006 7860     		str	r0, [r7, #4]
  86:.\EncoreImpl.c ****     PPUMPTRANSACTIONJOBCONTEXTPTR pjob = (PPUMPTRANSACTIONJOBCONTEXTPTR)pparam;
 236              		.loc 1 86 0
 237 0008 7B68     		ldr	r3, [r7, #4]
 238 000a FB60     		str	r3, [r7, #12]
  87:.\EncoreImpl.c ****     if(pjob)
 239              		.loc 1 87 0
 240 000c FB68     		ldr	r3, [r7, #12]
 241 000e 002B     		cmp	r3, #0
 242 0010 63D0     		beq	.L11
  88:.\EncoreImpl.c ****     {
  89:.\EncoreImpl.c ****         //Bytes from index 0 to 7 are the digits for the Real Time Money Data in BCD format
  90:.\EncoreImpl.c ****         pjob->_ppump->_rxbuffer[0x00] = (pjob->_ppump->_rxbuffer[0x00] & 0x0F);
 243              		.loc 1 90 0
 244 0012 FB68     		ldr	r3, [r7, #12]
 245 0014 DB69     		ldr	r3, [r3, #28]
 246 0016 FA68     		ldr	r2, [r7, #12]
 247 0018 D269     		ldr	r2, [r2, #28]
 248 001a 92F8A021 		ldrb	r2, [r2, #416]	@ zero_extendqisi2
 249 001e 02F00F02 		and	r2, r2, #15
 250 0022 D2B2     		uxtb	r2, r2
 251 0024 83F8A021 		strb	r2, [r3, #416]
  91:.\EncoreImpl.c ****         pjob->_ppump->_rxbuffer[0x01] = (pjob->_ppump->_rxbuffer[0x01] & 0x0F);
ARM GAS  C:\Users\RECEPC~1\AppData\Local\Temp\ccMZb0bC.s 			page 7


 252              		.loc 1 91 0
 253 0028 FB68     		ldr	r3, [r7, #12]
 254 002a DB69     		ldr	r3, [r3, #28]
 255 002c FA68     		ldr	r2, [r7, #12]
 256 002e D269     		ldr	r2, [r2, #28]
 257 0030 92F8A121 		ldrb	r2, [r2, #417]	@ zero_extendqisi2
 258 0034 02F00F02 		and	r2, r2, #15
 259 0038 D2B2     		uxtb	r2, r2
 260 003a 83F8A121 		strb	r2, [r3, #417]
  92:.\EncoreImpl.c ****         pjob->_ppump->_rxbuffer[0x02] = (pjob->_ppump->_rxbuffer[0x02] & 0x0F);
 261              		.loc 1 92 0
 262 003e FB68     		ldr	r3, [r7, #12]
 263 0040 DB69     		ldr	r3, [r3, #28]
 264 0042 FA68     		ldr	r2, [r7, #12]
 265 0044 D269     		ldr	r2, [r2, #28]
 266 0046 92F8A221 		ldrb	r2, [r2, #418]	@ zero_extendqisi2
 267 004a 02F00F02 		and	r2, r2, #15
 268 004e D2B2     		uxtb	r2, r2
 269 0050 83F8A221 		strb	r2, [r3, #418]
  93:.\EncoreImpl.c ****         pjob->_ppump->_rxbuffer[0x03] = (pjob->_ppump->_rxbuffer[0x03] & 0x0F);
 270              		.loc 1 93 0
 271 0054 FB68     		ldr	r3, [r7, #12]
 272 0056 DB69     		ldr	r3, [r3, #28]
 273 0058 FA68     		ldr	r2, [r7, #12]
 274 005a D269     		ldr	r2, [r2, #28]
 275 005c 92F8A321 		ldrb	r2, [r2, #419]	@ zero_extendqisi2
 276 0060 02F00F02 		and	r2, r2, #15
 277 0064 D2B2     		uxtb	r2, r2
 278 0066 83F8A321 		strb	r2, [r3, #419]
  94:.\EncoreImpl.c ****         pjob->_ppump->_rxbuffer[0x04] = (pjob->_ppump->_rxbuffer[0x04] & 0x0F);
 279              		.loc 1 94 0
 280 006a FB68     		ldr	r3, [r7, #12]
 281 006c DB69     		ldr	r3, [r3, #28]
 282 006e FA68     		ldr	r2, [r7, #12]
 283 0070 D269     		ldr	r2, [r2, #28]
 284 0072 92F8A421 		ldrb	r2, [r2, #420]	@ zero_extendqisi2
 285 0076 02F00F02 		and	r2, r2, #15
 286 007a D2B2     		uxtb	r2, r2
 287 007c 83F8A421 		strb	r2, [r3, #420]
  95:.\EncoreImpl.c ****         pjob->_ppump->_rxbuffer[0x05] = (pjob->_ppump->_rxbuffer[0x05] & 0x0F);
 288              		.loc 1 95 0
 289 0080 FB68     		ldr	r3, [r7, #12]
 290 0082 DB69     		ldr	r3, [r3, #28]
 291 0084 FA68     		ldr	r2, [r7, #12]
 292 0086 D269     		ldr	r2, [r2, #28]
 293 0088 92F8A521 		ldrb	r2, [r2, #421]	@ zero_extendqisi2
 294 008c 02F00F02 		and	r2, r2, #15
 295 0090 D2B2     		uxtb	r2, r2
 296 0092 83F8A521 		strb	r2, [r3, #421]
  96:.\EncoreImpl.c ****         pjob->_ppump->_rxbuffer[0x06] = (pjob->_ppump->_rxbuffer[0x06] & 0x0F);
 297              		.loc 1 96 0
 298 0096 FB68     		ldr	r3, [r7, #12]
 299 0098 DB69     		ldr	r3, [r3, #28]
 300 009a FA68     		ldr	r2, [r7, #12]
 301 009c D269     		ldr	r2, [r2, #28]
 302 009e 92F8A621 		ldrb	r2, [r2, #422]	@ zero_extendqisi2
 303 00a2 02F00F02 		and	r2, r2, #15
ARM GAS  C:\Users\RECEPC~1\AppData\Local\Temp\ccMZb0bC.s 			page 8


 304 00a6 D2B2     		uxtb	r2, r2
 305 00a8 83F8A621 		strb	r2, [r3, #422]
  97:.\EncoreImpl.c ****         pjob->_ppump->_rxbuffer[0x07] = (pjob->_ppump->_rxbuffer[0x07] & 0x0F);
 306              		.loc 1 97 0
 307 00ac FB68     		ldr	r3, [r7, #12]
 308 00ae DB69     		ldr	r3, [r3, #28]
 309 00b0 FA68     		ldr	r2, [r7, #12]
 310 00b2 D269     		ldr	r2, [r2, #28]
 311 00b4 92F8A721 		ldrb	r2, [r2, #423]	@ zero_extendqisi2
 312 00b8 02F00F02 		and	r2, r2, #15
 313 00bc D2B2     		uxtb	r2, r2
 314 00be 83F8A721 		strb	r2, [r3, #423]
  98:.\EncoreImpl.c ****         pjob->_ppump->_rtmoneyamount = LSDBCDBUFF2HEX(PBYTECAST(&pjob->_ppump->_rxbuffer[0x00]), 0x
 315              		.loc 1 98 0
 316 00c2 FB68     		ldr	r3, [r7, #12]
 317 00c4 DC69     		ldr	r4, [r3, #28]
 318 00c6 FB68     		ldr	r3, [r7, #12]
 319 00c8 DB69     		ldr	r3, [r3, #28]
 320 00ca 03F5D073 		add	r3, r3, #416
 321 00ce 1846     		mov	r0, r3
 322 00d0 0821     		movs	r1, #8
 323 00d2 FFF7FEFF 		bl	LSDBCDBUFF2HEX
 324 00d6 0346     		mov	r3, r0
 325 00d8 2361     		str	r3, [r4, #16]
 326              	.L11:
  99:.\EncoreImpl.c ****     }
 100:.\EncoreImpl.c **** }
 327              		.loc 1 100 0
 328 00da 1437     		adds	r7, r7, #20
 329              		.cfi_def_cfa_offset 12
 330 00dc BD46     		mov	sp, r7
 331              		.cfi_def_cfa_register 13
 332              		@ sp needed
 333 00de 90BD     		pop	{r4, r7, pc}
 334              		.cfi_endproc
 335              	.LFE65:
 336              		.size	ProcessPumpRTMoneyRequest, .-ProcessPumpRTMoneyRequest
 337              		.global	__aeabi_ui2d
 338              		.global	__aeabi_i2d
 339              		.global	__aeabi_dmul
 340              		.global	__aeabi_d2uiz
 341              		.section	.text.ProcessPumpTransactionData,"ax",%progbits
 342              		.align	2
 343              		.global	ProcessPumpTransactionData
 344              		.thumb
 345              		.thumb_func
 346              		.type	ProcessPumpTransactionData, %function
 347              	ProcessPumpTransactionData:
 348              	.LFB66:
 101:.\EncoreImpl.c **** 
 102:.\EncoreImpl.c **** void ProcessPumpTransactionData(void *pparam)
 103:.\EncoreImpl.c **** {
 349              		.loc 1 103 0
 350              		.cfi_startproc
 351              		@ args = 0, pretend = 0, frame = 24
 352              		@ frame_needed = 1, uses_anonymous_args = 0
 353 0000 2DE9B043 		push	{r4, r5, r7, r8, r9, lr}
ARM GAS  C:\Users\RECEPC~1\AppData\Local\Temp\ccMZb0bC.s 			page 9


 354              		.cfi_def_cfa_offset 24
 355              		.cfi_offset 4, -24
 356              		.cfi_offset 5, -20
 357              		.cfi_offset 7, -16
 358              		.cfi_offset 8, -12
 359              		.cfi_offset 9, -8
 360              		.cfi_offset 14, -4
 361 0004 86B0     		sub	sp, sp, #24
 362              		.cfi_def_cfa_offset 48
 363 0006 00AF     		add	r7, sp, #0
 364              		.cfi_def_cfa_register 7
 365 0008 7860     		str	r0, [r7, #4]
 104:.\EncoreImpl.c ****     PPUMPTRANSACTIONJOBCONTEXTPTR pjob = (PPUMPTRANSACTIONJOBCONTEXTPTR)pparam;
 366              		.loc 1 104 0
 367 000a 7B68     		ldr	r3, [r7, #4]
 368 000c 7B61     		str	r3, [r7, #20]
 105:.\EncoreImpl.c ****     if(pjob)
 369              		.loc 1 105 0
 370 000e 7B69     		ldr	r3, [r7, #20]
 371 0010 002B     		cmp	r3, #0
 372 0012 00F0F487 		beq	.L13
 373              	.LBB3:
 106:.\EncoreImpl.c ****     {
 107:.\EncoreImpl.c ****         {
 108:.\EncoreImpl.c ****             uint8 strmlrc = FindLRC(pjob->_ppump->_rxbuffer);
 374              		.loc 1 108 0
 375 0016 7B69     		ldr	r3, [r7, #20]
 376 0018 DB69     		ldr	r3, [r3, #28]
 377 001a 03F5D073 		add	r3, r3, #416
 378 001e 1846     		mov	r0, r3
 379 0020 FFF7FEFF 		bl	FindLRC
 380 0024 0346     		mov	r3, r0
 381 0026 FB74     		strb	r3, [r7, #19]
 109:.\EncoreImpl.c ****             uint8 locallrc = GetLRC(pjob->_ppump->_rxbuffer);
 382              		.loc 1 109 0
 383 0028 7B69     		ldr	r3, [r7, #20]
 384 002a DB69     		ldr	r3, [r3, #28]
 385 002c 03F5D073 		add	r3, r3, #416
 386 0030 1846     		mov	r0, r3
 387 0032 FFF7FEFF 		bl	GetLRC
 388 0036 0346     		mov	r3, r0
 389 0038 BB74     		strb	r3, [r7, #18]
 110:.\EncoreImpl.c ****             
 111:.\EncoreImpl.c ****             if(strmlrc != locallrc && pjob->_reenqueuecounter < _MAX_RETRIES_)
 390              		.loc 1 111 0
 391 003a FA7C     		ldrb	r2, [r7, #19]	@ zero_extendqisi2
 392 003c BB7C     		ldrb	r3, [r7, #18]	@ zero_extendqisi2
 393 003e 9A42     		cmp	r2, r3
 394 0040 10D0     		beq	.L15
 395              		.loc 1 111 0 is_stmt 0 discriminator 1
 396 0042 7B69     		ldr	r3, [r7, #20]
 397 0044 5B78     		ldrb	r3, [r3, #1]
 398 0046 DBB2     		uxtb	r3, r3
 399 0048 132B     		cmp	r3, #19
 400 004a 0BD8     		bhi	.L15
 112:.\EncoreImpl.c ****             {
 113:.\EncoreImpl.c ****                 pjob->_reenqueuecounter++;
ARM GAS  C:\Users\RECEPC~1\AppData\Local\Temp\ccMZb0bC.s 			page 10


 401              		.loc 1 113 0 is_stmt 1
 402 004c 7B69     		ldr	r3, [r7, #20]
 403 004e 5B78     		ldrb	r3, [r3, #1]
 404 0050 DBB2     		uxtb	r3, r3
 405 0052 0133     		adds	r3, r3, #1
 406 0054 DAB2     		uxtb	r2, r3
 407 0056 7B69     		ldr	r3, [r7, #20]
 408 0058 5A70     		strb	r2, [r3, #1]
 114:.\EncoreImpl.c ****                 pjob->_reenqueue = true;
 409              		.loc 1 114 0
 410 005a 7B69     		ldr	r3, [r7, #20]
 411 005c 0122     		movs	r2, #1
 412 005e 1A70     		strb	r2, [r3]
 115:.\EncoreImpl.c ****                 return;
 413              		.loc 1 115 0
 414 0060 00F0CDBF 		b	.L13
 415              	.L15:
 116:.\EncoreImpl.c ****             }
 117:.\EncoreImpl.c ****             pjob->_reenqueue = false;
 416              		.loc 1 117 0
 417 0064 7B69     		ldr	r3, [r7, #20]
 418 0066 0022     		movs	r2, #0
 419 0068 1A70     		strb	r2, [r3]
 118:.\EncoreImpl.c **** 
 119:.\EncoreImpl.c ****             if(_g_dispenserlayoutinfo._displaydigitsmode == 0x06)
 420              		.loc 1 119 0
 421 006a 854B     		ldr	r3, .L54
 422 006c 1B7C     		ldrb	r3, [r3, #16]	@ zero_extendqisi2
 423 006e 062B     		cmp	r3, #6
 424 0070 40F09883 		bne	.L16
 120:.\EncoreImpl.c ****             {            
 121:.\EncoreImpl.c ****                 pjob->_ppump->_rxbuffer[0x09] = (pjob->_ppump->_rxbuffer[0x09] & 0x0F);//Hose id
 425              		.loc 1 121 0
 426 0074 7B69     		ldr	r3, [r7, #20]
 427 0076 DB69     		ldr	r3, [r3, #28]
 428 0078 7A69     		ldr	r2, [r7, #20]
 429 007a D269     		ldr	r2, [r2, #28]
 430 007c 92F8A921 		ldrb	r2, [r2, #425]	@ zero_extendqisi2
 431 0080 02F00F02 		and	r2, r2, #15
 432 0084 D2B2     		uxtb	r2, r2
 433 0086 83F8A921 		strb	r2, [r3, #425]
 122:.\EncoreImpl.c ****                 pjob->_ppump->_authorizationinfo._hoseid = pjob->_ppump->_rxbuffer[0x09];//Hose id
 434              		.loc 1 122 0
 435 008a 7B69     		ldr	r3, [r7, #20]
 436 008c DB69     		ldr	r3, [r3, #28]
 437 008e 7A69     		ldr	r2, [r7, #20]
 438 0090 D269     		ldr	r2, [r2, #28]
 439 0092 92F8A921 		ldrb	r2, [r2, #425]	@ zero_extendqisi2
 440 0096 83F8AA2B 		strb	r2, [r3, #2986]
 123:.\EncoreImpl.c ****                 
 124:.\EncoreImpl.c ****                 //In this position is located the payment type (CREDIT: 0x0E , CASH:0x0D)
 125:.\EncoreImpl.c ****                 if(pjob->_ppump->_trasactionbuffer[0x00] == 0x0D)
 441              		.loc 1 125 0
 442 009a 7B69     		ldr	r3, [r7, #20]
 443 009c DB69     		ldr	r3, [r3, #28]
 444 009e 93F82030 		ldrb	r3, [r3, #32]	@ zero_extendqisi2
 445 00a2 0D2B     		cmp	r3, #13
ARM GAS  C:\Users\RECEPC~1\AppData\Local\Temp\ccMZb0bC.s 			page 11


 446 00a4 40F0EE80 		bne	.L17
 447              	.LBB4:
 126:.\EncoreImpl.c ****                 {
 127:.\EncoreImpl.c ****                     I2CBusLock();
 448              		.loc 1 127 0
 449 00a8 FFF7FEFF 		bl	I2CBusLock
 128:.\EncoreImpl.c ****                     ClearEepromBuffer();
 450              		.loc 1 128 0
 451 00ac FFF7FEFF 		bl	ClearEepromBuffer
 129:.\EncoreImpl.c ****                     uint16 eeprompage = DispenserGetEepromPPUPageFromPumpID(pjob->_ppump->_pumpid);
 452              		.loc 1 129 0
 453 00b0 7B69     		ldr	r3, [r7, #20]
 454 00b2 DB69     		ldr	r3, [r3, #28]
 455 00b4 1B78     		ldrb	r3, [r3]	@ zero_extendqisi2
 456 00b6 1846     		mov	r0, r3
 457 00b8 FFF7FEFF 		bl	DispenserGetEepromPPUPageFromPumpID
 458 00bc 0346     		mov	r3, r0
 459 00be 3B82     		strh	r3, [r7, #16]	@ movhi
 130:.\EncoreImpl.c ****                     LoadEepromPage(eeprompage);
 460              		.loc 1 130 0
 461 00c0 3B8A     		ldrh	r3, [r7, #16]
 462 00c2 1846     		mov	r0, r3
 463 00c4 FFF7FEFF 		bl	LoadEepromPage
 131:.\EncoreImpl.c ****                     switch(pjob->_ppump->_authorizationinfo._hoseid)
 464              		.loc 1 131 0
 465 00c8 7B69     		ldr	r3, [r7, #20]
 466 00ca DB69     		ldr	r3, [r3, #28]
 467 00cc 93F8AA3B 		ldrb	r3, [r3, #2986]
 468 00d0 DBB2     		uxtb	r3, r3
 469 00d2 032B     		cmp	r3, #3
 470 00d4 64D8     		bhi	.L18
 471 00d6 01A2     		adr	r2, .L20
 472 00d8 52F823F0 		ldr	pc, [r2, r3, lsl #2]
 473              		.p2align 2
 474              	.L20:
 475 00dc ED000000 		.word	.L19+1
 476 00e0 17010000 		.word	.L21+1
 477 00e4 45010000 		.word	.L22+1
 478 00e8 73010000 		.word	.L23+1
 479              		.p2align 1
 480              	.L19:
 132:.\EncoreImpl.c ****                     {
 133:.\EncoreImpl.c ****                         case 0x00:
 134:.\EncoreImpl.c ****                         //Six bytes only since the PPU is constrained to this length
 135:.\EncoreImpl.c ****                         memcpy(PBYTECAST(&pjob->_ppump->_trasactionbuffer[GetBufferIndexFromDisplay
 481              		.loc 1 135 0
 482 00ec 7B69     		ldr	r3, [r7, #20]
 483 00ee DC69     		ldr	r4, [r3, #28]
 484 00f0 6520     		movs	r0, #101
 485 00f2 FFF7FEFF 		bl	GetBufferIndexFromDisplayID
 486 00f6 0346     		mov	r3, r0
 487 00f8 2033     		adds	r3, r3, #32
 488 00fa 1C44     		add	r4, r4, r3
 489 00fc FFF7FEFF 		bl	GetEepromBuffer
 490 0100 0546     		mov	r5, r0
 491 0102 6520     		movs	r0, #101
 492 0104 FFF7FEFF 		bl	GetBufferLengthFromDisplayID
ARM GAS  C:\Users\RECEPC~1\AppData\Local\Temp\ccMZb0bC.s 			page 12


 493 0108 0346     		mov	r3, r0
 494 010a 2046     		mov	r0, r4
 495 010c 2946     		mov	r1, r5
 496 010e 1A46     		mov	r2, r3
 497 0110 FFF7FEFF 		bl	memcpy
 136:.\EncoreImpl.c ****                         break;
 498              		.loc 1 136 0
 499 0114 44E0     		b	.L18
 500              	.L21:
 137:.\EncoreImpl.c ****                         case 0x01:
 138:.\EncoreImpl.c ****                         //Six bytes only since the PPU is constrained to this length
 139:.\EncoreImpl.c ****                         memcpy(PBYTECAST(&pjob->_ppump->_trasactionbuffer[GetBufferIndexFromDisplay
 501              		.loc 1 139 0
 502 0116 7B69     		ldr	r3, [r7, #20]
 503 0118 DC69     		ldr	r4, [r3, #28]
 504 011a 6520     		movs	r0, #101
 505 011c FFF7FEFF 		bl	GetBufferIndexFromDisplayID
 506 0120 0346     		mov	r3, r0
 507 0122 2033     		adds	r3, r3, #32
 508 0124 E518     		adds	r5, r4, r3
 509 0126 FFF7FEFF 		bl	GetEepromBuffer
 510 012a 0346     		mov	r3, r0
 511 012c 03F11004 		add	r4, r3, #16
 512 0130 6520     		movs	r0, #101
 513 0132 FFF7FEFF 		bl	GetBufferLengthFromDisplayID
 514 0136 0346     		mov	r3, r0
 515 0138 2846     		mov	r0, r5
 516 013a 2146     		mov	r1, r4
 517 013c 1A46     		mov	r2, r3
 518 013e FFF7FEFF 		bl	memcpy
 140:.\EncoreImpl.c ****                         break;
 519              		.loc 1 140 0
 520 0142 2DE0     		b	.L18
 521              	.L22:
 141:.\EncoreImpl.c ****                         case 0x02:
 142:.\EncoreImpl.c ****                         //Six bytes only since the PPU is constrained to this length
 143:.\EncoreImpl.c ****                         memcpy(PBYTECAST(&pjob->_ppump->_trasactionbuffer[GetBufferIndexFromDisplay
 522              		.loc 1 143 0
 523 0144 7B69     		ldr	r3, [r7, #20]
 524 0146 DC69     		ldr	r4, [r3, #28]
 525 0148 6520     		movs	r0, #101
 526 014a FFF7FEFF 		bl	GetBufferIndexFromDisplayID
 527 014e 0346     		mov	r3, r0
 528 0150 2033     		adds	r3, r3, #32
 529 0152 E518     		adds	r5, r4, r3
 530 0154 FFF7FEFF 		bl	GetEepromBuffer
 531 0158 0346     		mov	r3, r0
 532 015a 03F12004 		add	r4, r3, #32
 533 015e 6520     		movs	r0, #101
 534 0160 FFF7FEFF 		bl	GetBufferLengthFromDisplayID
 535 0164 0346     		mov	r3, r0
 536 0166 2846     		mov	r0, r5
 537 0168 2146     		mov	r1, r4
 538 016a 1A46     		mov	r2, r3
 539 016c FFF7FEFF 		bl	memcpy
 144:.\EncoreImpl.c ****                         break;
 540              		.loc 1 144 0
ARM GAS  C:\Users\RECEPC~1\AppData\Local\Temp\ccMZb0bC.s 			page 13


 541 0170 16E0     		b	.L18
 542              	.L23:
 145:.\EncoreImpl.c ****                         case 0x03:
 146:.\EncoreImpl.c ****                         //Six bytes only since the PPU is constrained to this length
 147:.\EncoreImpl.c ****                         memcpy(PBYTECAST(&pjob->_ppump->_trasactionbuffer[GetBufferIndexFromDisplay
 543              		.loc 1 147 0
 544 0172 7B69     		ldr	r3, [r7, #20]
 545 0174 DC69     		ldr	r4, [r3, #28]
 546 0176 6520     		movs	r0, #101
 547 0178 FFF7FEFF 		bl	GetBufferIndexFromDisplayID
 548 017c 0346     		mov	r3, r0
 549 017e 2033     		adds	r3, r3, #32
 550 0180 E518     		adds	r5, r4, r3
 551 0182 FFF7FEFF 		bl	GetEepromBuffer
 552 0186 0346     		mov	r3, r0
 553 0188 03F13004 		add	r4, r3, #48
 554 018c 6520     		movs	r0, #101
 555 018e FFF7FEFF 		bl	GetBufferLengthFromDisplayID
 556 0192 0346     		mov	r3, r0
 557 0194 2846     		mov	r0, r5
 558 0196 2146     		mov	r1, r4
 559 0198 1A46     		mov	r2, r3
 560 019a FFF7FEFF 		bl	memcpy
 148:.\EncoreImpl.c ****                         break;
 561              		.loc 1 148 0
 562 019e 00BF     		nop
 563              	.L18:
 149:.\EncoreImpl.c ****                     }
 150:.\EncoreImpl.c ****                     I2CBusUnlock();
 564              		.loc 1 150 0
 565 01a0 FFF7FEFF 		bl	I2CBusUnlock
 151:.\EncoreImpl.c ****                     
 152:.\EncoreImpl.c ****                     memcpy(PBYTECAST(&pjob->_ppump->_rxbuffer[0x0C]), PBYTECAST(&pjob->_ppump->_tra
 566              		.loc 1 152 0
 567 01a4 7B69     		ldr	r3, [r7, #20]
 568 01a6 DB69     		ldr	r3, [r3, #28]
 569 01a8 03F5D675 		add	r5, r3, #428
 570 01ac 7B69     		ldr	r3, [r7, #20]
 571 01ae DC69     		ldr	r4, [r3, #28]
 572 01b0 6520     		movs	r0, #101
 573 01b2 FFF7FEFF 		bl	GetBufferIndexFromDisplayID
 574 01b6 0346     		mov	r3, r0
 575 01b8 2033     		adds	r3, r3, #32
 576 01ba 2344     		add	r3, r3, r4
 577 01bc 2846     		mov	r0, r5
 578 01be 1946     		mov	r1, r3
 579 01c0 0422     		movs	r2, #4
 580 01c2 FFF7FEFF 		bl	memcpy
 153:.\EncoreImpl.c ****                     
 154:.\EncoreImpl.c ****                     //Bytes from index 12 to 17 are the digits for the PPU used for the transaction
 155:.\EncoreImpl.c ****                     //Digits are in BCD format
 156:.\EncoreImpl.c ****                     pjob->_ppump->_rxbuffer[0x0C] = (pjob->_ppump->_rxbuffer[0x0C] & 0x0F);
 581              		.loc 1 156 0
 582 01c6 7B69     		ldr	r3, [r7, #20]
 583 01c8 DB69     		ldr	r3, [r3, #28]
 584 01ca 7A69     		ldr	r2, [r7, #20]
 585 01cc D269     		ldr	r2, [r2, #28]
ARM GAS  C:\Users\RECEPC~1\AppData\Local\Temp\ccMZb0bC.s 			page 14


 586 01ce 92F8AC21 		ldrb	r2, [r2, #428]	@ zero_extendqisi2
 587 01d2 02F00F02 		and	r2, r2, #15
 588 01d6 D2B2     		uxtb	r2, r2
 589 01d8 83F8AC21 		strb	r2, [r3, #428]
 157:.\EncoreImpl.c ****                     pjob->_ppump->_rxbuffer[0x0D] = (pjob->_ppump->_rxbuffer[0x0D] & 0x0F);
 590              		.loc 1 157 0
 591 01dc 7B69     		ldr	r3, [r7, #20]
 592 01de DB69     		ldr	r3, [r3, #28]
 593 01e0 7A69     		ldr	r2, [r7, #20]
 594 01e2 D269     		ldr	r2, [r2, #28]
 595 01e4 92F8AD21 		ldrb	r2, [r2, #429]	@ zero_extendqisi2
 596 01e8 02F00F02 		and	r2, r2, #15
 597 01ec D2B2     		uxtb	r2, r2
 598 01ee 83F8AD21 		strb	r2, [r3, #429]
 158:.\EncoreImpl.c ****                     pjob->_ppump->_rxbuffer[0x0E] = (pjob->_ppump->_rxbuffer[0x0E] & 0x0F);
 599              		.loc 1 158 0
 600 01f2 7B69     		ldr	r3, [r7, #20]
 601 01f4 DB69     		ldr	r3, [r3, #28]
 602 01f6 7A69     		ldr	r2, [r7, #20]
 603 01f8 D269     		ldr	r2, [r2, #28]
 604 01fa 92F8AE21 		ldrb	r2, [r2, #430]	@ zero_extendqisi2
 605 01fe 02F00F02 		and	r2, r2, #15
 606 0202 D2B2     		uxtb	r2, r2
 607 0204 83F8AE21 		strb	r2, [r3, #430]
 159:.\EncoreImpl.c ****                     pjob->_ppump->_rxbuffer[0x0F] = (pjob->_ppump->_rxbuffer[0x0F] & 0x0F);
 608              		.loc 1 159 0
 609 0208 7B69     		ldr	r3, [r7, #20]
 610 020a DB69     		ldr	r3, [r3, #28]
 611 020c 7A69     		ldr	r2, [r7, #20]
 612 020e D269     		ldr	r2, [r2, #28]
 613 0210 92F8AF21 		ldrb	r2, [r2, #431]	@ zero_extendqisi2
 614 0214 02F00F02 		and	r2, r2, #15
 615 0218 D2B2     		uxtb	r2, r2
 616 021a 83F8AF21 		strb	r2, [r3, #431]
 160:.\EncoreImpl.c ****                     pjob->_ppump->_authorizationinfo._price = LSDBCDBUFF2HEX(PBYTECAST(&pjob->_ppum
 617              		.loc 1 160 0
 618 021e 7B69     		ldr	r3, [r7, #20]
 619 0220 DC69     		ldr	r4, [r3, #28]
 620 0222 7B69     		ldr	r3, [r7, #20]
 621 0224 DB69     		ldr	r3, [r3, #28]
 622 0226 03F5D673 		add	r3, r3, #428
 623 022a 1846     		mov	r0, r3
 624 022c 0421     		movs	r1, #4
 625 022e FFF7FEFF 		bl	LSDBCDBUFF2HEX
 626 0232 0346     		mov	r3, r0
 627 0234 1846     		mov	r0, r3
 628 0236 FFF7FEFF 		bl	__aeabi_ui2d
 629 023a 8046     		mov	r8, r0
 630 023c 8946     		mov	r9, r1
 631 023e 104B     		ldr	r3, .L54
 632 0240 DB79     		ldrb	r3, [r3, #7]	@ zero_extendqisi2
 633 0242 1A46     		mov	r2, r3
 634 0244 0E4B     		ldr	r3, .L54
 635 0246 1B7A     		ldrb	r3, [r3, #8]	@ zero_extendqisi2
 636 0248 D31A     		subs	r3, r2, r3
 637 024a 1846     		mov	r0, r3
 638 024c FFF7FEFF 		bl	__aeabi_i2d
ARM GAS  C:\Users\RECEPC~1\AppData\Local\Temp\ccMZb0bC.s 			page 15


 639 0250 0246     		mov	r2, r0
 640 0252 0B46     		mov	r3, r1
 641 0254 1046     		mov	r0, r2
 642 0256 1946     		mov	r1, r3
 643 0258 FFF7FEFF 		bl	pow10
 644 025c 0246     		mov	r2, r0
 645 025e 0B46     		mov	r3, r1
 646 0260 4046     		mov	r0, r8
 647 0262 4946     		mov	r1, r9
 648 0264 FFF7FEFF 		bl	__aeabi_dmul
 649 0268 0246     		mov	r2, r0
 650 026a 0B46     		mov	r3, r1
 651 026c 1046     		mov	r0, r2
 652 026e 1946     		mov	r1, r3
 653 0270 FFF7FEFF 		bl	__aeabi_d2uiz
 654 0274 0346     		mov	r3, r0
 655 0276 9BB2     		uxth	r3, r3
 656 0278 A4F8AC3B 		strh	r3, [r4, #2988]	@ movhi
 657              	.LBE4:
 658 027c 2EE0     		b	.L24
 659              	.L55:
 660 027e 00BF     		.align	2
 661              	.L54:
 662 0280 00000000 		.word	_g_dispenserlayoutinfo
 663              	.L17:
 161:.\EncoreImpl.c ****                     
 162:.\EncoreImpl.c ****                 }
 163:.\EncoreImpl.c ****                 else
 164:.\EncoreImpl.c ****                 {
 165:.\EncoreImpl.c ****                     pjob->_ppump->_rxbuffer[0x0C] = (pjob->_ppump->_rxbuffer[0x0C] & 0x0F);
 664              		.loc 1 165 0
 665 0284 7B69     		ldr	r3, [r7, #20]
 666 0286 DB69     		ldr	r3, [r3, #28]
 667 0288 7A69     		ldr	r2, [r7, #20]
 668 028a D269     		ldr	r2, [r2, #28]
 669 028c 92F8AC21 		ldrb	r2, [r2, #428]	@ zero_extendqisi2
 670 0290 02F00F02 		and	r2, r2, #15
 671 0294 D2B2     		uxtb	r2, r2
 672 0296 83F8AC21 		strb	r2, [r3, #428]
 166:.\EncoreImpl.c ****                     pjob->_ppump->_rxbuffer[0x0D] = (pjob->_ppump->_rxbuffer[0x0D] & 0x0F);
 673              		.loc 1 166 0
 674 029a 7B69     		ldr	r3, [r7, #20]
 675 029c DB69     		ldr	r3, [r3, #28]
 676 029e 7A69     		ldr	r2, [r7, #20]
 677 02a0 D269     		ldr	r2, [r2, #28]
 678 02a2 92F8AD21 		ldrb	r2, [r2, #429]	@ zero_extendqisi2
 679 02a6 02F00F02 		and	r2, r2, #15
 680 02aa D2B2     		uxtb	r2, r2
 681 02ac 83F8AD21 		strb	r2, [r3, #429]
 167:.\EncoreImpl.c ****                     pjob->_ppump->_rxbuffer[0x0E] = (pjob->_ppump->_rxbuffer[0x0E] & 0x0F);
 682              		.loc 1 167 0
 683 02b0 7B69     		ldr	r3, [r7, #20]
 684 02b2 DB69     		ldr	r3, [r3, #28]
 685 02b4 7A69     		ldr	r2, [r7, #20]
 686 02b6 D269     		ldr	r2, [r2, #28]
 687 02b8 92F8AE21 		ldrb	r2, [r2, #430]	@ zero_extendqisi2
 688 02bc 02F00F02 		and	r2, r2, #15
ARM GAS  C:\Users\RECEPC~1\AppData\Local\Temp\ccMZb0bC.s 			page 16


 689 02c0 D2B2     		uxtb	r2, r2
 690 02c2 83F8AE21 		strb	r2, [r3, #430]
 168:.\EncoreImpl.c ****                     pjob->_ppump->_rxbuffer[0x0F] = (pjob->_ppump->_rxbuffer[0x0F] & 0x0F);
 691              		.loc 1 168 0
 692 02c6 7B69     		ldr	r3, [r7, #20]
 693 02c8 DB69     		ldr	r3, [r3, #28]
 694 02ca 7A69     		ldr	r2, [r7, #20]
 695 02cc D269     		ldr	r2, [r2, #28]
 696 02ce 92F8AF21 		ldrb	r2, [r2, #431]	@ zero_extendqisi2
 697 02d2 02F00F02 		and	r2, r2, #15
 698 02d6 D2B2     		uxtb	r2, r2
 699 02d8 83F8AF21 		strb	r2, [r3, #431]
 700              	.L24:
 169:.\EncoreImpl.c ****                 }
 170:.\EncoreImpl.c ****                 
 171:.\EncoreImpl.c ****                 //Bytes from index 19 to 26 are the digits for the fuel volume delivered in the tra
 172:.\EncoreImpl.c ****                 //Digits are in BCD format
 173:.\EncoreImpl.c ****                 pjob->_ppump->_rxbuffer[0x11] = (pjob->_ppump->_rxbuffer[0x11] & 0x0F);
 701              		.loc 1 173 0
 702 02dc 7B69     		ldr	r3, [r7, #20]
 703 02de DB69     		ldr	r3, [r3, #28]
 704 02e0 7A69     		ldr	r2, [r7, #20]
 705 02e2 D269     		ldr	r2, [r2, #28]
 706 02e4 92F8B121 		ldrb	r2, [r2, #433]	@ zero_extendqisi2
 707 02e8 02F00F02 		and	r2, r2, #15
 708 02ec D2B2     		uxtb	r2, r2
 709 02ee 83F8B121 		strb	r2, [r3, #433]
 174:.\EncoreImpl.c ****                 pjob->_ppump->_rxbuffer[0x12] = (pjob->_ppump->_rxbuffer[0x12] & 0x0F);
 710              		.loc 1 174 0
 711 02f2 7B69     		ldr	r3, [r7, #20]
 712 02f4 DB69     		ldr	r3, [r3, #28]
 713 02f6 7A69     		ldr	r2, [r7, #20]
 714 02f8 D269     		ldr	r2, [r2, #28]
 715 02fa 92F8B221 		ldrb	r2, [r2, #434]	@ zero_extendqisi2
 716 02fe 02F00F02 		and	r2, r2, #15
 717 0302 D2B2     		uxtb	r2, r2
 718 0304 83F8B221 		strb	r2, [r3, #434]
 175:.\EncoreImpl.c ****                 pjob->_ppump->_rxbuffer[0x13] = (pjob->_ppump->_rxbuffer[0x13] & 0x0F);
 719              		.loc 1 175 0
 720 0308 7B69     		ldr	r3, [r7, #20]
 721 030a DB69     		ldr	r3, [r3, #28]
 722 030c 7A69     		ldr	r2, [r7, #20]
 723 030e D269     		ldr	r2, [r2, #28]
 724 0310 92F8B321 		ldrb	r2, [r2, #435]	@ zero_extendqisi2
 725 0314 02F00F02 		and	r2, r2, #15
 726 0318 D2B2     		uxtb	r2, r2
 727 031a 83F8B321 		strb	r2, [r3, #435]
 176:.\EncoreImpl.c ****                 pjob->_ppump->_rxbuffer[0x14] = (pjob->_ppump->_rxbuffer[0x14] & 0x0F);
 728              		.loc 1 176 0
 729 031e 7B69     		ldr	r3, [r7, #20]
 730 0320 DB69     		ldr	r3, [r3, #28]
 731 0322 7A69     		ldr	r2, [r7, #20]
 732 0324 D269     		ldr	r2, [r2, #28]
 733 0326 92F8B421 		ldrb	r2, [r2, #436]	@ zero_extendqisi2
 734 032a 02F00F02 		and	r2, r2, #15
 735 032e D2B2     		uxtb	r2, r2
 736 0330 83F8B421 		strb	r2, [r3, #436]
ARM GAS  C:\Users\RECEPC~1\AppData\Local\Temp\ccMZb0bC.s 			page 17


 177:.\EncoreImpl.c ****                 pjob->_ppump->_rxbuffer[0x15] = (pjob->_ppump->_rxbuffer[0x15] & 0x0F);
 737              		.loc 1 177 0
 738 0334 7B69     		ldr	r3, [r7, #20]
 739 0336 DB69     		ldr	r3, [r3, #28]
 740 0338 7A69     		ldr	r2, [r7, #20]
 741 033a D269     		ldr	r2, [r2, #28]
 742 033c 92F8B521 		ldrb	r2, [r2, #437]	@ zero_extendqisi2
 743 0340 02F00F02 		and	r2, r2, #15
 744 0344 D2B2     		uxtb	r2, r2
 745 0346 83F8B521 		strb	r2, [r3, #437]
 178:.\EncoreImpl.c ****                 pjob->_ppump->_rxbuffer[0x16] = (pjob->_ppump->_rxbuffer[0x16] & 0x0F);
 746              		.loc 1 178 0
 747 034a 7B69     		ldr	r3, [r7, #20]
 748 034c DB69     		ldr	r3, [r3, #28]
 749 034e 7A69     		ldr	r2, [r7, #20]
 750 0350 D269     		ldr	r2, [r2, #28]
 751 0352 92F8B621 		ldrb	r2, [r2, #438]	@ zero_extendqisi2
 752 0356 02F00F02 		and	r2, r2, #15
 753 035a D2B2     		uxtb	r2, r2
 754 035c 83F8B621 		strb	r2, [r3, #438]
 179:.\EncoreImpl.c ****                 pjob->_ppump->_authorizationinfo._volumeamount = LSDBCDBUFF2HEX(PBYTECAST(&pjob->_p
 755              		.loc 1 179 0
 756 0360 7B69     		ldr	r3, [r7, #20]
 757 0362 DC69     		ldr	r4, [r3, #28]
 758 0364 7B69     		ldr	r3, [r7, #20]
 759 0366 DB69     		ldr	r3, [r3, #28]
 760 0368 03F2B113 		addw	r3, r3, #433
 761 036c 1846     		mov	r0, r3
 762 036e 0621     		movs	r1, #6
 763 0370 FFF7FEFF 		bl	LSDBCDBUFF2HEX
 764 0374 0346     		mov	r3, r0
 765 0376 C4F8B43B 		str	r3, [r4, #2996]
 180:.\EncoreImpl.c ****                 
 181:.\EncoreImpl.c ****                 ////////////////////////////////////////////////////////////////////////////////
 182:.\EncoreImpl.c ****                 ////////////////////////////////////////////////////////////////////////////////
 183:.\EncoreImpl.c ****                 
 184:.\EncoreImpl.c ****                 //Bytes from index 28 to 35 are the digits for the money charged to the transaction
 185:.\EncoreImpl.c ****                 //Digits are in BCD format
 186:.\EncoreImpl.c ****                 pjob->_ppump->_rxbuffer[0x18] = (pjob->_ppump->_rxbuffer[0x18] & 0x0F);
 766              		.loc 1 186 0
 767 037a 7B69     		ldr	r3, [r7, #20]
 768 037c DB69     		ldr	r3, [r3, #28]
 769 037e 7A69     		ldr	r2, [r7, #20]
 770 0380 D269     		ldr	r2, [r2, #28]
 771 0382 92F8B821 		ldrb	r2, [r2, #440]	@ zero_extendqisi2
 772 0386 02F00F02 		and	r2, r2, #15
 773 038a D2B2     		uxtb	r2, r2
 774 038c 83F8B821 		strb	r2, [r3, #440]
 187:.\EncoreImpl.c ****                 
 188:.\EncoreImpl.c ****                 pjob->_ppump->_rxbuffer[0x19] = (pjob->_ppump->_rxbuffer[0x19] & 0x0F);
 775              		.loc 1 188 0
 776 0390 7B69     		ldr	r3, [r7, #20]
 777 0392 DB69     		ldr	r3, [r3, #28]
 778 0394 7A69     		ldr	r2, [r7, #20]
 779 0396 D269     		ldr	r2, [r2, #28]
 780 0398 92F8B921 		ldrb	r2, [r2, #441]	@ zero_extendqisi2
 781 039c 02F00F02 		and	r2, r2, #15
ARM GAS  C:\Users\RECEPC~1\AppData\Local\Temp\ccMZb0bC.s 			page 18


 782 03a0 D2B2     		uxtb	r2, r2
 783 03a2 83F8B921 		strb	r2, [r3, #441]
 189:.\EncoreImpl.c ****                 pjob->_ppump->_rxbuffer[0x1A] = (pjob->_ppump->_rxbuffer[0x1A] & 0x0F);
 784              		.loc 1 189 0
 785 03a6 7B69     		ldr	r3, [r7, #20]
 786 03a8 DB69     		ldr	r3, [r3, #28]
 787 03aa 7A69     		ldr	r2, [r7, #20]
 788 03ac D269     		ldr	r2, [r2, #28]
 789 03ae 92F8BA21 		ldrb	r2, [r2, #442]	@ zero_extendqisi2
 790 03b2 02F00F02 		and	r2, r2, #15
 791 03b6 D2B2     		uxtb	r2, r2
 792 03b8 83F8BA21 		strb	r2, [r3, #442]
 190:.\EncoreImpl.c ****                 pjob->_ppump->_rxbuffer[0x1B] = (pjob->_ppump->_rxbuffer[0x1B] & 0x0F);
 793              		.loc 1 190 0
 794 03bc 7B69     		ldr	r3, [r7, #20]
 795 03be DB69     		ldr	r3, [r3, #28]
 796 03c0 7A69     		ldr	r2, [r7, #20]
 797 03c2 D269     		ldr	r2, [r2, #28]
 798 03c4 92F8BB21 		ldrb	r2, [r2, #443]	@ zero_extendqisi2
 799 03c8 02F00F02 		and	r2, r2, #15
 800 03cc D2B2     		uxtb	r2, r2
 801 03ce 83F8BB21 		strb	r2, [r3, #443]
 191:.\EncoreImpl.c ****                 pjob->_ppump->_rxbuffer[0x1C] = (pjob->_ppump->_rxbuffer[0x1C] & 0x0F);
 802              		.loc 1 191 0
 803 03d2 7B69     		ldr	r3, [r7, #20]
 804 03d4 DB69     		ldr	r3, [r3, #28]
 805 03d6 7A69     		ldr	r2, [r7, #20]
 806 03d8 D269     		ldr	r2, [r2, #28]
 807 03da 92F8BC21 		ldrb	r2, [r2, #444]	@ zero_extendqisi2
 808 03de 02F00F02 		and	r2, r2, #15
 809 03e2 D2B2     		uxtb	r2, r2
 810 03e4 83F8BC21 		strb	r2, [r3, #444]
 192:.\EncoreImpl.c ****                 pjob->_ppump->_rxbuffer[0x1D] = (pjob->_ppump->_rxbuffer[0x1D] & 0x0F);
 811              		.loc 1 192 0
 812 03e8 7B69     		ldr	r3, [r7, #20]
 813 03ea DB69     		ldr	r3, [r3, #28]
 814 03ec 7A69     		ldr	r2, [r7, #20]
 815 03ee D269     		ldr	r2, [r2, #28]
 816 03f0 92F8BD21 		ldrb	r2, [r2, #445]	@ zero_extendqisi2
 817 03f4 02F00F02 		and	r2, r2, #15
 818 03f8 D2B2     		uxtb	r2, r2
 819 03fa 83F8BD21 		strb	r2, [r3, #445]
 193:.\EncoreImpl.c ****                 //INQUIRY ABOUT THE EXTRA x10 RESULT SINCE THERE IS AN EXTRA 0 IN THE RESPONSE FOR 
 194:.\EncoreImpl.c ****                 //MEANWHILE DIVIDING BY 10 TO REMOVE THE ZERO
 195:.\EncoreImpl.c ****                 pjob->_ppump->_authorizationinfo._presetamount = LSDBCDBUFF2HEX(PBYTECAST(&pjob->_p
 820              		.loc 1 195 0
 821 03fe 7B69     		ldr	r3, [r7, #20]
 822 0400 DC69     		ldr	r4, [r3, #28]
 823 0402 7B69     		ldr	r3, [r7, #20]
 824 0404 DB69     		ldr	r3, [r3, #28]
 825 0406 03F5DC73 		add	r3, r3, #440
 826 040a 1846     		mov	r0, r3
 827 040c 0621     		movs	r1, #6
 828 040e FFF7FEFF 		bl	LSDBCDBUFF2HEX
 829 0412 0346     		mov	r3, r0
 830 0414 C4F8B03B 		str	r3, [r4, #2992]
 196:.\EncoreImpl.c ****                     
ARM GAS  C:\Users\RECEPC~1\AppData\Local\Temp\ccMZb0bC.s 			page 19


 197:.\EncoreImpl.c ****                 ClearRtcBuffer();
 831              		.loc 1 197 0
 832 0418 FFF7FEFF 		bl	ClearRtcBuffer
 198:.\EncoreImpl.c ****                 ReadRTC();
 833              		.loc 1 198 0
 834 041c FFF7FEFF 		bl	ReadRTC
 199:.\EncoreImpl.c ****                 //CAREFUL WITH RETURNS BETWEEN THE LOCK/UNLOCK CALLS
 200:.\EncoreImpl.c ****                 //AND RECURSIVE CALLS THAT WOULD DEADLOCK!
 201:.\EncoreImpl.c ****                 I2CBusLock();
 835              		.loc 1 201 0
 836 0420 FFF7FEFF 		bl	I2CBusLock
 202:.\EncoreImpl.c ****             
 203:.\EncoreImpl.c ****                 ClearEepromBuffer();
 837              		.loc 1 203 0
 838 0424 FFF7FEFF 		bl	ClearEepromBuffer
 204:.\EncoreImpl.c ****                 //In this position is located the payment type (CREDIT: 0x0E , CASH:0x0D)
 205:.\EncoreImpl.c ****                 if(pjob->_ppump->_trasactionbuffer[0x00] == 0x0D)
 839              		.loc 1 205 0
 840 0428 7B69     		ldr	r3, [r7, #20]
 841 042a DB69     		ldr	r3, [r3, #28]
 842 042c 93F82030 		ldrb	r3, [r3, #32]	@ zero_extendqisi2
 843 0430 0D2B     		cmp	r3, #13
 844 0432 40F0DB80 		bne	.L25
 206:.\EncoreImpl.c ****                 {
 207:.\EncoreImpl.c ****                     //HERE WE STORE THE LAST TRANSACTION IN EEPROM! ALWAYS THE PREVIOUS TRANSACTION
 208:.\EncoreImpl.c ****                     //WILL BE OVERWRITTEN AND LOST.
 209:.\EncoreImpl.c ****                     //IN CASE OF A "CREDIT SALE", THE WHOLE DATA WILL BE STORED IN A SEPARATE MEMOR
 210:.\EncoreImpl.c ****                     //SINCE IN CASE OF A RF LINK DROP, THE STATE OF THE SALE COULD BE RECOVERED BY 
 211:.\EncoreImpl.c ****                     LoadEepromPage(EEPROM_DISPENSER_PUMP1_LAYOUT_PAGE);
 845              		.loc 1 211 0
 846 0436 4FF40070 		mov	r0, #512
 847 043a FFF7FEFF 		bl	LoadEepromPage
 212:.\EncoreImpl.c ****                     if(GetEepromBuffer()[0] == ((pjob->_ppump->_rxbuffer[0x04] & 0x0F) + 1))
 848              		.loc 1 212 0
 849 043e FFF7FEFF 		bl	GetEepromBuffer
 850 0442 0346     		mov	r3, r0
 851 0444 1B78     		ldrb	r3, [r3]	@ zero_extendqisi2
 852 0446 1A46     		mov	r2, r3
 853 0448 7B69     		ldr	r3, [r7, #20]
 854 044a DB69     		ldr	r3, [r3, #28]
 855 044c 93F8A431 		ldrb	r3, [r3, #420]	@ zero_extendqisi2
 856 0450 03F00F03 		and	r3, r3, #15
 857 0454 0133     		adds	r3, r3, #1
 858 0456 9A42     		cmp	r2, r3
 859 0458 22D1     		bne	.L26
 213:.\EncoreImpl.c ****                     {
 214:.\EncoreImpl.c ****                         ClearEepromBuffer();
 860              		.loc 1 214 0
 861 045a FFF7FEFF 		bl	ClearEepromBuffer
 215:.\EncoreImpl.c ****                         //Storing the current Date/Time for this transaction
 216:.\EncoreImpl.c ****                         memcpy(GetEepromBuffer(), GetRtcBuffer(), 0x07);
 862              		.loc 1 216 0
 863 045e FFF7FEFF 		bl	GetEepromBuffer
 864 0462 0446     		mov	r4, r0
 865 0464 FFF7FEFF 		bl	GetRtcBuffer
 866 0468 0346     		mov	r3, r0
 867 046a 2046     		mov	r0, r4
ARM GAS  C:\Users\RECEPC~1\AppData\Local\Temp\ccMZb0bC.s 			page 20


 868 046c 1946     		mov	r1, r3
 869 046e 0722     		movs	r2, #7
 870 0470 FFF7FEFF 		bl	memcpy
 217:.\EncoreImpl.c ****                         memcpy(&GetEepromBuffer()[0x07], pjob->_ppump->_rxbuffer, pjob->_ppump->_rx
 871              		.loc 1 217 0
 872 0474 FFF7FEFF 		bl	GetEepromBuffer
 873 0478 0346     		mov	r3, r0
 874 047a D91D     		adds	r1, r3, #7
 875 047c 7B69     		ldr	r3, [r7, #20]
 876 047e DB69     		ldr	r3, [r3, #28]
 877 0480 03F5D072 		add	r2, r3, #416
 878 0484 7B69     		ldr	r3, [r7, #20]
 879 0486 DB69     		ldr	r3, [r3, #28]
 880 0488 B3F82033 		ldrh	r3, [r3, #800]
 881 048c 0846     		mov	r0, r1
 882 048e 1146     		mov	r1, r2
 883 0490 1A46     		mov	r2, r3
 884 0492 FFF7FEFF 		bl	memcpy
 218:.\EncoreImpl.c ****                         StoreEepromPage(EEPROM_DISPENSER_PUMP12_TRANSACTION_PAGE);
 885              		.loc 1 218 0
 886 0496 4FF4C860 		mov	r0, #1600
 887 049a FFF7FEFF 		bl	StoreEepromPage
 888 049e 7EE1     		b	.L30
 889              	.L26:
 219:.\EncoreImpl.c ****                     }
 220:.\EncoreImpl.c ****                     else
 221:.\EncoreImpl.c ****                     {
 222:.\EncoreImpl.c ****                         ClearEepromBuffer();
 890              		.loc 1 222 0
 891 04a0 FFF7FEFF 		bl	ClearEepromBuffer
 223:.\EncoreImpl.c ****                         LoadEepromPage(EEPROM_DISPENSER_PUMP2_LAYOUT_PAGE);
 892              		.loc 1 223 0
 893 04a4 4FF41070 		mov	r0, #576
 894 04a8 FFF7FEFF 		bl	LoadEepromPage
 224:.\EncoreImpl.c ****                         if(GetEepromBuffer()[0] == ((pjob->_ppump->_rxbuffer[0x04] & 0x0F) + 1))
 895              		.loc 1 224 0
 896 04ac FFF7FEFF 		bl	GetEepromBuffer
 897 04b0 0346     		mov	r3, r0
 898 04b2 1B78     		ldrb	r3, [r3]	@ zero_extendqisi2
 899 04b4 1A46     		mov	r2, r3
 900 04b6 7B69     		ldr	r3, [r7, #20]
 901 04b8 DB69     		ldr	r3, [r3, #28]
 902 04ba 93F8A431 		ldrb	r3, [r3, #420]	@ zero_extendqisi2
 903 04be 03F00F03 		and	r3, r3, #15
 904 04c2 0133     		adds	r3, r3, #1
 905 04c4 9A42     		cmp	r2, r3
 906 04c6 22D1     		bne	.L28
 225:.\EncoreImpl.c ****                         {
 226:.\EncoreImpl.c ****                             ClearEepromBuffer();
 907              		.loc 1 226 0
 908 04c8 FFF7FEFF 		bl	ClearEepromBuffer
 227:.\EncoreImpl.c ****                             //Storing the current Date/Time for this transaction
 228:.\EncoreImpl.c ****                             memcpy(GetEepromBuffer(), GetRtcBuffer(), 0x07);
 909              		.loc 1 228 0
 910 04cc FFF7FEFF 		bl	GetEepromBuffer
 911 04d0 0446     		mov	r4, r0
 912 04d2 FFF7FEFF 		bl	GetRtcBuffer
ARM GAS  C:\Users\RECEPC~1\AppData\Local\Temp\ccMZb0bC.s 			page 21


 913 04d6 0346     		mov	r3, r0
 914 04d8 2046     		mov	r0, r4
 915 04da 1946     		mov	r1, r3
 916 04dc 0722     		movs	r2, #7
 917 04de FFF7FEFF 		bl	memcpy
 229:.\EncoreImpl.c ****                             memcpy(&GetEepromBuffer()[0x07], pjob->_ppump->_rxbuffer, pjob->_ppump-
 918              		.loc 1 229 0
 919 04e2 FFF7FEFF 		bl	GetEepromBuffer
 920 04e6 0346     		mov	r3, r0
 921 04e8 D91D     		adds	r1, r3, #7
 922 04ea 7B69     		ldr	r3, [r7, #20]
 923 04ec DB69     		ldr	r3, [r3, #28]
 924 04ee 03F5D072 		add	r2, r3, #416
 925 04f2 7B69     		ldr	r3, [r7, #20]
 926 04f4 DB69     		ldr	r3, [r3, #28]
 927 04f6 B3F82033 		ldrh	r3, [r3, #800]
 928 04fa 0846     		mov	r0, r1
 929 04fc 1146     		mov	r1, r2
 930 04fe 1A46     		mov	r2, r3
 931 0500 FFF7FEFF 		bl	memcpy
 230:.\EncoreImpl.c ****                             StoreEepromPage(EEPROM_DISPENSER_PUMP22_TRANSACTION_PAGE);
 932              		.loc 1 230 0
 933 0504 4FF4E860 		mov	r0, #1856
 934 0508 FFF7FEFF 		bl	StoreEepromPage
 935 050c 47E1     		b	.L30
 936              	.L28:
 231:.\EncoreImpl.c ****                         }
 232:.\EncoreImpl.c ****                         else
 233:.\EncoreImpl.c ****                         {
 234:.\EncoreImpl.c ****                             ClearEepromBuffer();
 937              		.loc 1 234 0
 938 050e FFF7FEFF 		bl	ClearEepromBuffer
 235:.\EncoreImpl.c ****                             LoadEepromPage(EEPROM_DISPENSER_PUMP3_LAYOUT_PAGE);
 939              		.loc 1 235 0
 940 0512 4FF42070 		mov	r0, #640
 941 0516 FFF7FEFF 		bl	LoadEepromPage
 236:.\EncoreImpl.c ****                             if(GetEepromBuffer()[0] == ((pjob->_ppump->_rxbuffer[0x04] & 0x0F) + 1)
 942              		.loc 1 236 0
 943 051a FFF7FEFF 		bl	GetEepromBuffer
 944 051e 0346     		mov	r3, r0
 945 0520 1B78     		ldrb	r3, [r3]	@ zero_extendqisi2
 946 0522 1A46     		mov	r2, r3
 947 0524 7B69     		ldr	r3, [r7, #20]
 948 0526 DB69     		ldr	r3, [r3, #28]
 949 0528 93F8A431 		ldrb	r3, [r3, #420]	@ zero_extendqisi2
 950 052c 03F00F03 		and	r3, r3, #15
 951 0530 0133     		adds	r3, r3, #1
 952 0532 9A42     		cmp	r2, r3
 953 0534 22D1     		bne	.L29
 237:.\EncoreImpl.c ****                             {
 238:.\EncoreImpl.c ****                                 ClearEepromBuffer();
 954              		.loc 1 238 0
 955 0536 FFF7FEFF 		bl	ClearEepromBuffer
 239:.\EncoreImpl.c ****                                 //Storing the current Date/Time for this transaction
 240:.\EncoreImpl.c ****                                 memcpy(GetEepromBuffer(), GetRtcBuffer(), 0x07);
 956              		.loc 1 240 0
 957 053a FFF7FEFF 		bl	GetEepromBuffer
ARM GAS  C:\Users\RECEPC~1\AppData\Local\Temp\ccMZb0bC.s 			page 22


 958 053e 0446     		mov	r4, r0
 959 0540 FFF7FEFF 		bl	GetRtcBuffer
 960 0544 0346     		mov	r3, r0
 961 0546 2046     		mov	r0, r4
 962 0548 1946     		mov	r1, r3
 963 054a 0722     		movs	r2, #7
 964 054c FFF7FEFF 		bl	memcpy
 241:.\EncoreImpl.c ****                                 memcpy(&GetEepromBuffer()[0x07], pjob->_ppump->_rxbuffer, pjob->_pp
 965              		.loc 1 241 0
 966 0550 FFF7FEFF 		bl	GetEepromBuffer
 967 0554 0346     		mov	r3, r0
 968 0556 D91D     		adds	r1, r3, #7
 969 0558 7B69     		ldr	r3, [r7, #20]
 970 055a DB69     		ldr	r3, [r3, #28]
 971 055c 03F5D072 		add	r2, r3, #416
 972 0560 7B69     		ldr	r3, [r7, #20]
 973 0562 DB69     		ldr	r3, [r3, #28]
 974 0564 B3F82033 		ldrh	r3, [r3, #800]
 975 0568 0846     		mov	r0, r1
 976 056a 1146     		mov	r1, r2
 977 056c 1A46     		mov	r2, r3
 978 056e FFF7FEFF 		bl	memcpy
 242:.\EncoreImpl.c ****                                 StoreEepromPage(EEPROM_DISPENSER_PUMP32_TRANSACTION_PAGE);
 979              		.loc 1 242 0
 980 0572 4FF40460 		mov	r0, #2112
 981 0576 FFF7FEFF 		bl	StoreEepromPage
 982 057a 10E1     		b	.L30
 983              	.L29:
 243:.\EncoreImpl.c ****                             }
 244:.\EncoreImpl.c ****                             else
 245:.\EncoreImpl.c ****                             {
 246:.\EncoreImpl.c ****                                 ClearEepromBuffer();
 984              		.loc 1 246 0
 985 057c FFF7FEFF 		bl	ClearEepromBuffer
 247:.\EncoreImpl.c ****                                 LoadEepromPage(EEPROM_DISPENSER_PUMP4_LAYOUT_PAGE);
 986              		.loc 1 247 0
 987 0580 4FF43070 		mov	r0, #704
 988 0584 FFF7FEFF 		bl	LoadEepromPage
 248:.\EncoreImpl.c ****                                 if(GetEepromBuffer()[0] == ((pjob->_ppump->_rxbuffer[0x04] & 0x0F) 
 989              		.loc 1 248 0
 990 0588 FFF7FEFF 		bl	GetEepromBuffer
 991 058c 0346     		mov	r3, r0
 992 058e 1B78     		ldrb	r3, [r3]	@ zero_extendqisi2
 993 0590 1A46     		mov	r2, r3
 994 0592 7B69     		ldr	r3, [r7, #20]
 995 0594 DB69     		ldr	r3, [r3, #28]
 996 0596 93F8A431 		ldrb	r3, [r3, #420]	@ zero_extendqisi2
 997 059a 03F00F03 		and	r3, r3, #15
 998 059e 0133     		adds	r3, r3, #1
 999 05a0 9A42     		cmp	r2, r3
 1000 05a2 40F0FC80 		bne	.L30
 249:.\EncoreImpl.c ****                                 {
 250:.\EncoreImpl.c ****                                     ClearEepromBuffer();
 1001              		.loc 1 250 0
 1002 05a6 FFF7FEFF 		bl	ClearEepromBuffer
 251:.\EncoreImpl.c ****                                     //Storing the current Date/Time for this transaction
 252:.\EncoreImpl.c ****                                     memcpy(GetEepromBuffer(), GetRtcBuffer(), 0x07);
ARM GAS  C:\Users\RECEPC~1\AppData\Local\Temp\ccMZb0bC.s 			page 23


 1003              		.loc 1 252 0
 1004 05aa FFF7FEFF 		bl	GetEepromBuffer
 1005 05ae 0446     		mov	r4, r0
 1006 05b0 FFF7FEFF 		bl	GetRtcBuffer
 1007 05b4 0346     		mov	r3, r0
 1008 05b6 2046     		mov	r0, r4
 1009 05b8 1946     		mov	r1, r3
 1010 05ba 0722     		movs	r2, #7
 1011 05bc FFF7FEFF 		bl	memcpy
 253:.\EncoreImpl.c ****                                     memcpy(&GetEepromBuffer()[0x07], pjob->_ppump->_rxbuffer, pjob-
 1012              		.loc 1 253 0
 1013 05c0 FFF7FEFF 		bl	GetEepromBuffer
 1014 05c4 0346     		mov	r3, r0
 1015 05c6 D91D     		adds	r1, r3, #7
 1016 05c8 7B69     		ldr	r3, [r7, #20]
 1017 05ca DB69     		ldr	r3, [r3, #28]
 1018 05cc 03F5D072 		add	r2, r3, #416
 1019 05d0 7B69     		ldr	r3, [r7, #20]
 1020 05d2 DB69     		ldr	r3, [r3, #28]
 1021 05d4 B3F82033 		ldrh	r3, [r3, #800]
 1022 05d8 0846     		mov	r0, r1
 1023 05da 1146     		mov	r1, r2
 1024 05dc 1A46     		mov	r2, r3
 1025 05de FFF7FEFF 		bl	memcpy
 254:.\EncoreImpl.c ****                                     StoreEepromPage(EEPROM_DISPENSER_PUMP42_TRANSACTION_PAGE);
 1026              		.loc 1 254 0
 1027 05e2 4FF41460 		mov	r0, #2368
 1028 05e6 FFF7FEFF 		bl	StoreEepromPage
 1029 05ea D8E0     		b	.L30
 1030              	.L25:
 255:.\EncoreImpl.c ****                                 }
 256:.\EncoreImpl.c ****                             }
 257:.\EncoreImpl.c ****                         }
 258:.\EncoreImpl.c ****                     }
 259:.\EncoreImpl.c ****                 }else{//CREDIT TRANSACTION
 260:.\EncoreImpl.c ****                     //HERE WE STORE THE LAST TRANSACTION IN EEPROM! ALWAYS THE PREVIOUS TRANSACTION
 261:.\EncoreImpl.c ****                     //WILL BE OVERWRITTEN AND LOST.
 262:.\EncoreImpl.c ****                     //IN CASE OF A "CREDIT SALE", THE WHOLE DATA WILL BE STORED IN A SEPARATE MEMOR
 263:.\EncoreImpl.c ****                     //SINCE IN CASE OF A RF LINK DROP, THE STATE OF THE SALE COULD BE RECOVERED BY 
 264:.\EncoreImpl.c ****                     LoadEepromPage(EEPROM_DISPENSER_PUMP1_LAYOUT_PAGE);
 1031              		.loc 1 264 0
 1032 05ec 4FF40070 		mov	r0, #512
 1033 05f0 FFF7FEFF 		bl	LoadEepromPage
 265:.\EncoreImpl.c ****                     if(GetEepromBuffer()[0] == ((pjob->_ppump->_rxbuffer[0x04] & 0x0F) + 1))
 1034              		.loc 1 265 0
 1035 05f4 FFF7FEFF 		bl	GetEepromBuffer
 1036 05f8 0346     		mov	r3, r0
 1037 05fa 1B78     		ldrb	r3, [r3]	@ zero_extendqisi2
 1038 05fc 1A46     		mov	r2, r3
 1039 05fe 7B69     		ldr	r3, [r7, #20]
 1040 0600 DB69     		ldr	r3, [r3, #28]
 1041 0602 93F8A431 		ldrb	r3, [r3, #420]	@ zero_extendqisi2
 1042 0606 03F00F03 		and	r3, r3, #15
 1043 060a 0133     		adds	r3, r3, #1
 1044 060c 9A42     		cmp	r2, r3
 1045 060e 22D1     		bne	.L31
 266:.\EncoreImpl.c ****                     {
ARM GAS  C:\Users\RECEPC~1\AppData\Local\Temp\ccMZb0bC.s 			page 24


 267:.\EncoreImpl.c ****                         ClearEepromBuffer();
 1046              		.loc 1 267 0
 1047 0610 FFF7FEFF 		bl	ClearEepromBuffer
 268:.\EncoreImpl.c ****                         //Storing the current Date/Time for this transaction
 269:.\EncoreImpl.c ****                         memcpy(GetEepromBuffer(), GetRtcBuffer(), 0x07);
 1048              		.loc 1 269 0
 1049 0614 FFF7FEFF 		bl	GetEepromBuffer
 1050 0618 0446     		mov	r4, r0
 1051 061a FFF7FEFF 		bl	GetRtcBuffer
 1052 061e 0346     		mov	r3, r0
 1053 0620 2046     		mov	r0, r4
 1054 0622 1946     		mov	r1, r3
 1055 0624 0722     		movs	r2, #7
 1056 0626 FFF7FEFF 		bl	memcpy
 270:.\EncoreImpl.c ****                         memcpy(&GetEepromBuffer()[0x07], pjob->_ppump->_rxbuffer, pjob->_ppump->_rx
 1057              		.loc 1 270 0
 1058 062a FFF7FEFF 		bl	GetEepromBuffer
 1059 062e 0346     		mov	r3, r0
 1060 0630 D91D     		adds	r1, r3, #7
 1061 0632 7B69     		ldr	r3, [r7, #20]
 1062 0634 DB69     		ldr	r3, [r3, #28]
 1063 0636 03F5D072 		add	r2, r3, #416
 1064 063a 7B69     		ldr	r3, [r7, #20]
 1065 063c DB69     		ldr	r3, [r3, #28]
 1066 063e B3F82033 		ldrh	r3, [r3, #800]
 1067 0642 0846     		mov	r0, r1
 1068 0644 1146     		mov	r1, r2
 1069 0646 1A46     		mov	r2, r3
 1070 0648 FFF7FEFF 		bl	memcpy
 271:.\EncoreImpl.c ****                         StoreEepromPage(EEPROM_DISPENSER_PUMP14_TRANSACTION_PAGE);
 1071              		.loc 1 271 0
 1072 064c 4FF4D860 		mov	r0, #1728
 1073 0650 FFF7FEFF 		bl	StoreEepromPage
 1074 0654 A3E0     		b	.L30
 1075              	.L31:
 272:.\EncoreImpl.c ****                     }
 273:.\EncoreImpl.c ****                     else
 274:.\EncoreImpl.c ****                     {
 275:.\EncoreImpl.c ****                         ClearEepromBuffer();
 1076              		.loc 1 275 0
 1077 0656 FFF7FEFF 		bl	ClearEepromBuffer
 276:.\EncoreImpl.c ****                         LoadEepromPage(EEPROM_DISPENSER_PUMP2_LAYOUT_PAGE);
 1078              		.loc 1 276 0
 1079 065a 4FF41070 		mov	r0, #576
 1080 065e FFF7FEFF 		bl	LoadEepromPage
 277:.\EncoreImpl.c ****                         if(GetEepromBuffer()[0] == ((pjob->_ppump->_rxbuffer[0x04] & 0x0F) + 1))
 1081              		.loc 1 277 0
 1082 0662 FFF7FEFF 		bl	GetEepromBuffer
 1083 0666 0346     		mov	r3, r0
 1084 0668 1B78     		ldrb	r3, [r3]	@ zero_extendqisi2
 1085 066a 1A46     		mov	r2, r3
 1086 066c 7B69     		ldr	r3, [r7, #20]
 1087 066e DB69     		ldr	r3, [r3, #28]
 1088 0670 93F8A431 		ldrb	r3, [r3, #420]	@ zero_extendqisi2
 1089 0674 03F00F03 		and	r3, r3, #15
 1090 0678 0133     		adds	r3, r3, #1
 1091 067a 9A42     		cmp	r2, r3
ARM GAS  C:\Users\RECEPC~1\AppData\Local\Temp\ccMZb0bC.s 			page 25


 1092 067c 22D1     		bne	.L32
 278:.\EncoreImpl.c ****                         {
 279:.\EncoreImpl.c ****                             ClearEepromBuffer();
 1093              		.loc 1 279 0
 1094 067e FFF7FEFF 		bl	ClearEepromBuffer
 280:.\EncoreImpl.c ****                             //Storing the current Date/Time for this transaction
 281:.\EncoreImpl.c ****                             memcpy(GetEepromBuffer(), GetRtcBuffer(), 0x07);
 1095              		.loc 1 281 0
 1096 0682 FFF7FEFF 		bl	GetEepromBuffer
 1097 0686 0446     		mov	r4, r0
 1098 0688 FFF7FEFF 		bl	GetRtcBuffer
 1099 068c 0346     		mov	r3, r0
 1100 068e 2046     		mov	r0, r4
 1101 0690 1946     		mov	r1, r3
 1102 0692 0722     		movs	r2, #7
 1103 0694 FFF7FEFF 		bl	memcpy
 282:.\EncoreImpl.c ****                             memcpy(&GetEepromBuffer()[0x07], pjob->_ppump->_rxbuffer, pjob->_ppump-
 1104              		.loc 1 282 0
 1105 0698 FFF7FEFF 		bl	GetEepromBuffer
 1106 069c 0346     		mov	r3, r0
 1107 069e D91D     		adds	r1, r3, #7
 1108 06a0 7B69     		ldr	r3, [r7, #20]
 1109 06a2 DB69     		ldr	r3, [r3, #28]
 1110 06a4 03F5D072 		add	r2, r3, #416
 1111 06a8 7B69     		ldr	r3, [r7, #20]
 1112 06aa DB69     		ldr	r3, [r3, #28]
 1113 06ac B3F82033 		ldrh	r3, [r3, #800]
 1114 06b0 0846     		mov	r0, r1
 1115 06b2 1146     		mov	r1, r2
 1116 06b4 1A46     		mov	r2, r3
 1117 06b6 FFF7FEFF 		bl	memcpy
 283:.\EncoreImpl.c ****                             StoreEepromPage(EEPROM_DISPENSER_PUMP24_TRANSACTION_PAGE);
 1118              		.loc 1 283 0
 1119 06ba 4FF4F860 		mov	r0, #1984
 1120 06be FFF7FEFF 		bl	StoreEepromPage
 1121 06c2 6CE0     		b	.L30
 1122              	.L32:
 284:.\EncoreImpl.c ****                         }
 285:.\EncoreImpl.c ****                         else
 286:.\EncoreImpl.c ****                         {
 287:.\EncoreImpl.c ****                             ClearEepromBuffer();
 1123              		.loc 1 287 0
 1124 06c4 FFF7FEFF 		bl	ClearEepromBuffer
 288:.\EncoreImpl.c ****                             LoadEepromPage(EEPROM_DISPENSER_PUMP3_LAYOUT_PAGE);
 1125              		.loc 1 288 0
 1126 06c8 4FF42070 		mov	r0, #640
 1127 06cc FFF7FEFF 		bl	LoadEepromPage
 289:.\EncoreImpl.c ****                             if(GetEepromBuffer()[0] == ((pjob->_ppump->_rxbuffer[0x04] & 0x0F) + 1)
 1128              		.loc 1 289 0
 1129 06d0 FFF7FEFF 		bl	GetEepromBuffer
 1130 06d4 0346     		mov	r3, r0
 1131 06d6 1B78     		ldrb	r3, [r3]	@ zero_extendqisi2
 1132 06d8 1A46     		mov	r2, r3
 1133 06da 7B69     		ldr	r3, [r7, #20]
 1134 06dc DB69     		ldr	r3, [r3, #28]
 1135 06de 93F8A431 		ldrb	r3, [r3, #420]	@ zero_extendqisi2
 1136 06e2 03F00F03 		and	r3, r3, #15
ARM GAS  C:\Users\RECEPC~1\AppData\Local\Temp\ccMZb0bC.s 			page 26


 1137 06e6 0133     		adds	r3, r3, #1
 1138 06e8 9A42     		cmp	r2, r3
 1139 06ea 22D1     		bne	.L33
 290:.\EncoreImpl.c ****                             {
 291:.\EncoreImpl.c ****                                 ClearEepromBuffer();
 1140              		.loc 1 291 0
 1141 06ec FFF7FEFF 		bl	ClearEepromBuffer
 292:.\EncoreImpl.c ****                                 //Storing the current Date/Time for this transaction
 293:.\EncoreImpl.c ****                                 memcpy(GetEepromBuffer(), GetRtcBuffer(), 0x07);
 1142              		.loc 1 293 0
 1143 06f0 FFF7FEFF 		bl	GetEepromBuffer
 1144 06f4 0446     		mov	r4, r0
 1145 06f6 FFF7FEFF 		bl	GetRtcBuffer
 1146 06fa 0346     		mov	r3, r0
 1147 06fc 2046     		mov	r0, r4
 1148 06fe 1946     		mov	r1, r3
 1149 0700 0722     		movs	r2, #7
 1150 0702 FFF7FEFF 		bl	memcpy
 294:.\EncoreImpl.c ****                                 memcpy(&GetEepromBuffer()[0x07], pjob->_ppump->_rxbuffer, pjob->_pp
 1151              		.loc 1 294 0
 1152 0706 FFF7FEFF 		bl	GetEepromBuffer
 1153 070a 0346     		mov	r3, r0
 1154 070c D91D     		adds	r1, r3, #7
 1155 070e 7B69     		ldr	r3, [r7, #20]
 1156 0710 DB69     		ldr	r3, [r3, #28]
 1157 0712 03F5D072 		add	r2, r3, #416
 1158 0716 7B69     		ldr	r3, [r7, #20]
 1159 0718 DB69     		ldr	r3, [r3, #28]
 1160 071a B3F82033 		ldrh	r3, [r3, #800]
 1161 071e 0846     		mov	r0, r1
 1162 0720 1146     		mov	r1, r2
 1163 0722 1A46     		mov	r2, r3
 1164 0724 FFF7FEFF 		bl	memcpy
 295:.\EncoreImpl.c ****                                 StoreEepromPage(EEPROM_DISPENSER_PUMP34_TRANSACTION_PAGE);
 1165              		.loc 1 295 0
 1166 0728 4FF40C60 		mov	r0, #2240
 1167 072c FFF7FEFF 		bl	StoreEepromPage
 1168 0730 35E0     		b	.L30
 1169              	.L33:
 296:.\EncoreImpl.c ****                             }
 297:.\EncoreImpl.c ****                             else
 298:.\EncoreImpl.c ****                             {
 299:.\EncoreImpl.c ****                                 ClearEepromBuffer();
 1170              		.loc 1 299 0
 1171 0732 FFF7FEFF 		bl	ClearEepromBuffer
 300:.\EncoreImpl.c ****                                 LoadEepromPage(EEPROM_DISPENSER_PUMP4_LAYOUT_PAGE);
 1172              		.loc 1 300 0
 1173 0736 4FF43070 		mov	r0, #704
 1174 073a FFF7FEFF 		bl	LoadEepromPage
 301:.\EncoreImpl.c ****                                 if(GetEepromBuffer()[0] == ((pjob->_ppump->_rxbuffer[0x04] & 0x0F) 
 1175              		.loc 1 301 0
 1176 073e FFF7FEFF 		bl	GetEepromBuffer
 1177 0742 0346     		mov	r3, r0
 1178 0744 1B78     		ldrb	r3, [r3]	@ zero_extendqisi2
 1179 0746 1A46     		mov	r2, r3
 1180 0748 7B69     		ldr	r3, [r7, #20]
 1181 074a DB69     		ldr	r3, [r3, #28]
ARM GAS  C:\Users\RECEPC~1\AppData\Local\Temp\ccMZb0bC.s 			page 27


 1182 074c 93F8A431 		ldrb	r3, [r3, #420]	@ zero_extendqisi2
 1183 0750 03F00F03 		and	r3, r3, #15
 1184 0754 0133     		adds	r3, r3, #1
 1185 0756 9A42     		cmp	r2, r3
 1186 0758 21D1     		bne	.L30
 302:.\EncoreImpl.c ****                                 {
 303:.\EncoreImpl.c ****                                     ClearEepromBuffer();
 1187              		.loc 1 303 0
 1188 075a FFF7FEFF 		bl	ClearEepromBuffer
 304:.\EncoreImpl.c ****                                     //Storing the current Date/Time for this transaction
 305:.\EncoreImpl.c ****                                     memcpy(GetEepromBuffer(), GetRtcBuffer(), 0x07);
 1189              		.loc 1 305 0
 1190 075e FFF7FEFF 		bl	GetEepromBuffer
 1191 0762 0446     		mov	r4, r0
 1192 0764 FFF7FEFF 		bl	GetRtcBuffer
 1193 0768 0346     		mov	r3, r0
 1194 076a 2046     		mov	r0, r4
 1195 076c 1946     		mov	r1, r3
 1196 076e 0722     		movs	r2, #7
 1197 0770 FFF7FEFF 		bl	memcpy
 306:.\EncoreImpl.c ****                                     memcpy(&GetEepromBuffer()[0x07], pjob->_ppump->_rxbuffer, pjob-
 1198              		.loc 1 306 0
 1199 0774 FFF7FEFF 		bl	GetEepromBuffer
 1200 0778 0346     		mov	r3, r0
 1201 077a D91D     		adds	r1, r3, #7
 1202 077c 7B69     		ldr	r3, [r7, #20]
 1203 077e DB69     		ldr	r3, [r3, #28]
 1204 0780 03F5D072 		add	r2, r3, #416
 1205 0784 7B69     		ldr	r3, [r7, #20]
 1206 0786 DB69     		ldr	r3, [r3, #28]
 1207 0788 B3F82033 		ldrh	r3, [r3, #800]
 1208 078c 0846     		mov	r0, r1
 1209 078e 1146     		mov	r1, r2
 1210 0790 1A46     		mov	r2, r3
 1211 0792 FFF7FEFF 		bl	memcpy
 307:.\EncoreImpl.c ****                                     StoreEepromPage(EEPROM_DISPENSER_PUMP44_TRANSACTION_PAGE);
 1212              		.loc 1 307 0
 1213 0796 4FF41C60 		mov	r0, #2496
 1214 079a FFF7FEFF 		bl	StoreEepromPage
 1215              	.L30:
 308:.\EncoreImpl.c ****                                 }
 309:.\EncoreImpl.c ****                             }
 310:.\EncoreImpl.c ****                         }
 311:.\EncoreImpl.c ****                     }
 312:.\EncoreImpl.c ****                 }
 313:.\EncoreImpl.c ****                 I2CBusUnlock();
 1216              		.loc 1 313 0
 1217 079e FFF7FEFF 		bl	I2CBusUnlock
 1218 07a2 DEE3     		b	.L34
 1219              	.L16:
 314:.\EncoreImpl.c ****             }
 315:.\EncoreImpl.c ****             else
 316:.\EncoreImpl.c ****             {            
 317:.\EncoreImpl.c ****                 pjob->_ppump->_rxbuffer[0x09] = (pjob->_ppump->_rxbuffer[0x09] & 0x0F);//Hose id
 1220              		.loc 1 317 0
 1221 07a4 7B69     		ldr	r3, [r7, #20]
 1222 07a6 DB69     		ldr	r3, [r3, #28]
ARM GAS  C:\Users\RECEPC~1\AppData\Local\Temp\ccMZb0bC.s 			page 28


 1223 07a8 7A69     		ldr	r2, [r7, #20]
 1224 07aa D269     		ldr	r2, [r2, #28]
 1225 07ac 92F8A921 		ldrb	r2, [r2, #425]	@ zero_extendqisi2
 1226 07b0 02F00F02 		and	r2, r2, #15
 1227 07b4 D2B2     		uxtb	r2, r2
 1228 07b6 83F8A921 		strb	r2, [r3, #425]
 318:.\EncoreImpl.c ****                 pjob->_ppump->_authorizationinfo._hoseid = pjob->_ppump->_rxbuffer[0x09];//Hose id
 1229              		.loc 1 318 0
 1230 07ba 7B69     		ldr	r3, [r7, #20]
 1231 07bc DB69     		ldr	r3, [r3, #28]
 1232 07be 7A69     		ldr	r2, [r7, #20]
 1233 07c0 D269     		ldr	r2, [r2, #28]
 1234 07c2 92F8A921 		ldrb	r2, [r2, #425]	@ zero_extendqisi2
 1235 07c6 83F8AA2B 		strb	r2, [r3, #2986]
 319:.\EncoreImpl.c ****                 
 320:.\EncoreImpl.c ****                 //In this position is located the payment type (CREDIT: 0x0E , CASH:0x0D)
 321:.\EncoreImpl.c ****                 if(pjob->_ppump->_trasactionbuffer[0x00] == 0x0D)
 1236              		.loc 1 321 0
 1237 07ca 7B69     		ldr	r3, [r7, #20]
 1238 07cc DB69     		ldr	r3, [r3, #28]
 1239 07ce 93F82030 		ldrb	r3, [r3, #32]	@ zero_extendqisi2
 1240 07d2 0D2B     		cmp	r3, #13
 1241 07d4 40F0E080 		bne	.L35
 1242              	.LBB5:
 322:.\EncoreImpl.c ****                 {
 323:.\EncoreImpl.c ****                     I2CBusLock();
 1243              		.loc 1 323 0
 1244 07d8 FFF7FEFF 		bl	I2CBusLock
 324:.\EncoreImpl.c ****                     ClearEepromBuffer();
 1245              		.loc 1 324 0
 1246 07dc FFF7FEFF 		bl	ClearEepromBuffer
 325:.\EncoreImpl.c ****                     uint16 eeprompage = DispenserGetEepromPPUPageFromPumpID(pjob->_ppump->_pumpid);
 1247              		.loc 1 325 0
 1248 07e0 7B69     		ldr	r3, [r7, #20]
 1249 07e2 DB69     		ldr	r3, [r3, #28]
 1250 07e4 1B78     		ldrb	r3, [r3]	@ zero_extendqisi2
 1251 07e6 1846     		mov	r0, r3
 1252 07e8 FFF7FEFF 		bl	DispenserGetEepromPPUPageFromPumpID
 1253 07ec 0346     		mov	r3, r0
 1254 07ee FB81     		strh	r3, [r7, #14]	@ movhi
 326:.\EncoreImpl.c ****                     LoadEepromPage(eeprompage);
 1255              		.loc 1 326 0
 1256 07f0 FB89     		ldrh	r3, [r7, #14]
 1257 07f2 1846     		mov	r0, r3
 1258 07f4 FFF7FEFF 		bl	LoadEepromPage
 327:.\EncoreImpl.c ****                     switch(pjob->_ppump->_authorizationinfo._hoseid)
 1259              		.loc 1 327 0
 1260 07f8 7B69     		ldr	r3, [r7, #20]
 1261 07fa DB69     		ldr	r3, [r3, #28]
 1262 07fc 93F8AA3B 		ldrb	r3, [r3, #2986]
 1263 0800 DBB2     		uxtb	r3, r3
 1264 0802 032B     		cmp	r3, #3
 1265 0804 64D8     		bhi	.L36
 1266 0806 01A2     		adr	r2, .L38
 1267 0808 52F823F0 		ldr	pc, [r2, r3, lsl #2]
 1268              		.p2align 2
 1269              	.L38:
ARM GAS  C:\Users\RECEPC~1\AppData\Local\Temp\ccMZb0bC.s 			page 29


 1270 080c 1D080000 		.word	.L37+1
 1271 0810 47080000 		.word	.L39+1
 1272 0814 75080000 		.word	.L40+1
 1273 0818 A3080000 		.word	.L41+1
 1274              		.p2align 1
 1275              	.L37:
 328:.\EncoreImpl.c ****                     {
 329:.\EncoreImpl.c ****                         case 0x00:
 330:.\EncoreImpl.c ****                         //Six bytes only since the PPU is constrained to this length
 331:.\EncoreImpl.c ****                         memcpy(PBYTECAST(&pjob->_ppump->_trasactionbuffer[GetBufferIndexFromDisplay
 1276              		.loc 1 331 0
 1277 081c 7B69     		ldr	r3, [r7, #20]
 1278 081e DC69     		ldr	r4, [r3, #28]
 1279 0820 6520     		movs	r0, #101
 1280 0822 FFF7FEFF 		bl	GetBufferIndexFromDisplayID
 1281 0826 0346     		mov	r3, r0
 1282 0828 2033     		adds	r3, r3, #32
 1283 082a 1C44     		add	r4, r4, r3
 1284 082c FFF7FEFF 		bl	GetEepromBuffer
 1285 0830 0546     		mov	r5, r0
 1286 0832 6520     		movs	r0, #101
 1287 0834 FFF7FEFF 		bl	GetBufferLengthFromDisplayID
 1288 0838 0346     		mov	r3, r0
 1289 083a 2046     		mov	r0, r4
 1290 083c 2946     		mov	r1, r5
 1291 083e 1A46     		mov	r2, r3
 1292 0840 FFF7FEFF 		bl	memcpy
 332:.\EncoreImpl.c ****                         break;
 1293              		.loc 1 332 0
 1294 0844 44E0     		b	.L36
 1295              	.L39:
 333:.\EncoreImpl.c ****                         case 0x01:
 334:.\EncoreImpl.c ****                         //Six bytes only since the PPU is constrained to this length
 335:.\EncoreImpl.c ****                         memcpy(PBYTECAST(&pjob->_ppump->_trasactionbuffer[GetBufferIndexFromDisplay
 1296              		.loc 1 335 0
 1297 0846 7B69     		ldr	r3, [r7, #20]
 1298 0848 DC69     		ldr	r4, [r3, #28]
 1299 084a 6520     		movs	r0, #101
 1300 084c FFF7FEFF 		bl	GetBufferIndexFromDisplayID
 1301 0850 0346     		mov	r3, r0
 1302 0852 2033     		adds	r3, r3, #32
 1303 0854 E518     		adds	r5, r4, r3
 1304 0856 FFF7FEFF 		bl	GetEepromBuffer
 1305 085a 0346     		mov	r3, r0
 1306 085c 03F11004 		add	r4, r3, #16
 1307 0860 6520     		movs	r0, #101
 1308 0862 FFF7FEFF 		bl	GetBufferLengthFromDisplayID
 1309 0866 0346     		mov	r3, r0
 1310 0868 2846     		mov	r0, r5
 1311 086a 2146     		mov	r1, r4
 1312 086c 1A46     		mov	r2, r3
 1313 086e FFF7FEFF 		bl	memcpy
 336:.\EncoreImpl.c ****                         break;
 1314              		.loc 1 336 0
 1315 0872 2DE0     		b	.L36
 1316              	.L40:
 337:.\EncoreImpl.c ****                         case 0x02:
ARM GAS  C:\Users\RECEPC~1\AppData\Local\Temp\ccMZb0bC.s 			page 30


 338:.\EncoreImpl.c ****                         //Six bytes only since the PPU is constrained to this length
 339:.\EncoreImpl.c ****                         memcpy(PBYTECAST(&pjob->_ppump->_trasactionbuffer[GetBufferIndexFromDisplay
 1317              		.loc 1 339 0
 1318 0874 7B69     		ldr	r3, [r7, #20]
 1319 0876 DC69     		ldr	r4, [r3, #28]
 1320 0878 6520     		movs	r0, #101
 1321 087a FFF7FEFF 		bl	GetBufferIndexFromDisplayID
 1322 087e 0346     		mov	r3, r0
 1323 0880 2033     		adds	r3, r3, #32
 1324 0882 E518     		adds	r5, r4, r3
 1325 0884 FFF7FEFF 		bl	GetEepromBuffer
 1326 0888 0346     		mov	r3, r0
 1327 088a 03F12004 		add	r4, r3, #32
 1328 088e 6520     		movs	r0, #101
 1329 0890 FFF7FEFF 		bl	GetBufferLengthFromDisplayID
 1330 0894 0346     		mov	r3, r0
 1331 0896 2846     		mov	r0, r5
 1332 0898 2146     		mov	r1, r4
 1333 089a 1A46     		mov	r2, r3
 1334 089c FFF7FEFF 		bl	memcpy
 340:.\EncoreImpl.c ****                         break;
 1335              		.loc 1 340 0
 1336 08a0 16E0     		b	.L36
 1337              	.L41:
 341:.\EncoreImpl.c ****                         case 0x03:
 342:.\EncoreImpl.c ****                         //Six bytes only since the PPU is constrained to this length
 343:.\EncoreImpl.c ****                         memcpy(PBYTECAST(&pjob->_ppump->_trasactionbuffer[GetBufferIndexFromDisplay
 1338              		.loc 1 343 0
 1339 08a2 7B69     		ldr	r3, [r7, #20]
 1340 08a4 DC69     		ldr	r4, [r3, #28]
 1341 08a6 6520     		movs	r0, #101
 1342 08a8 FFF7FEFF 		bl	GetBufferIndexFromDisplayID
 1343 08ac 0346     		mov	r3, r0
 1344 08ae 2033     		adds	r3, r3, #32
 1345 08b0 E518     		adds	r5, r4, r3
 1346 08b2 FFF7FEFF 		bl	GetEepromBuffer
 1347 08b6 0346     		mov	r3, r0
 1348 08b8 03F13004 		add	r4, r3, #48
 1349 08bc 6520     		movs	r0, #101
 1350 08be FFF7FEFF 		bl	GetBufferLengthFromDisplayID
 1351 08c2 0346     		mov	r3, r0
 1352 08c4 2846     		mov	r0, r5
 1353 08c6 2146     		mov	r1, r4
 1354 08c8 1A46     		mov	r2, r3
 1355 08ca FFF7FEFF 		bl	memcpy
 344:.\EncoreImpl.c ****                         break;
 1356              		.loc 1 344 0
 1357 08ce 00BF     		nop
 1358              	.L36:
 345:.\EncoreImpl.c ****                     }
 346:.\EncoreImpl.c ****                     I2CBusUnlock();
 1359              		.loc 1 346 0
 1360 08d0 FFF7FEFF 		bl	I2CBusUnlock
 347:.\EncoreImpl.c ****                     
 348:.\EncoreImpl.c ****                     memcpy(PBYTECAST(&pjob->_ppump->_rxbuffer[0x0C]), PBYTECAST(&pjob->_ppump->_tra
 1361              		.loc 1 348 0
 1362 08d4 7B69     		ldr	r3, [r7, #20]
ARM GAS  C:\Users\RECEPC~1\AppData\Local\Temp\ccMZb0bC.s 			page 31


 1363 08d6 DB69     		ldr	r3, [r3, #28]
 1364 08d8 03F5D675 		add	r5, r3, #428
 1365 08dc 7B69     		ldr	r3, [r7, #20]
 1366 08de DC69     		ldr	r4, [r3, #28]
 1367 08e0 6520     		movs	r0, #101
 1368 08e2 FFF7FEFF 		bl	GetBufferIndexFromDisplayID
 1369 08e6 0346     		mov	r3, r0
 1370 08e8 2033     		adds	r3, r3, #32
 1371 08ea 2344     		add	r3, r3, r4
 1372 08ec 2846     		mov	r0, r5
 1373 08ee 1946     		mov	r1, r3
 1374 08f0 0622     		movs	r2, #6
 1375 08f2 FFF7FEFF 		bl	memcpy
 349:.\EncoreImpl.c ****                     
 350:.\EncoreImpl.c ****                     //Bytes from index 12 to 17 are the digits for the PPU used for the transaction
 351:.\EncoreImpl.c ****                     //Digits are in BCD format
 352:.\EncoreImpl.c ****                     pjob->_ppump->_rxbuffer[0x0C] = (pjob->_ppump->_rxbuffer[0x0C] & 0x0F);
 1376              		.loc 1 352 0
 1377 08f6 7B69     		ldr	r3, [r7, #20]
 1378 08f8 DB69     		ldr	r3, [r3, #28]
 1379 08fa 7A69     		ldr	r2, [r7, #20]
 1380 08fc D269     		ldr	r2, [r2, #28]
 1381 08fe 92F8AC21 		ldrb	r2, [r2, #428]	@ zero_extendqisi2
 1382 0902 02F00F02 		and	r2, r2, #15
 1383 0906 D2B2     		uxtb	r2, r2
 1384 0908 83F8AC21 		strb	r2, [r3, #428]
 353:.\EncoreImpl.c ****                     pjob->_ppump->_rxbuffer[0x0D] = (pjob->_ppump->_rxbuffer[0x0D] & 0x0F);
 1385              		.loc 1 353 0
 1386 090c 7B69     		ldr	r3, [r7, #20]
 1387 090e DB69     		ldr	r3, [r3, #28]
 1388 0910 7A69     		ldr	r2, [r7, #20]
 1389 0912 D269     		ldr	r2, [r2, #28]
 1390 0914 92F8AD21 		ldrb	r2, [r2, #429]	@ zero_extendqisi2
 1391 0918 02F00F02 		and	r2, r2, #15
 1392 091c D2B2     		uxtb	r2, r2
 1393 091e 83F8AD21 		strb	r2, [r3, #429]
 354:.\EncoreImpl.c ****                     pjob->_ppump->_rxbuffer[0x0E] = (pjob->_ppump->_rxbuffer[0x0E] & 0x0F);
 1394              		.loc 1 354 0
 1395 0922 7B69     		ldr	r3, [r7, #20]
 1396 0924 DB69     		ldr	r3, [r3, #28]
 1397 0926 7A69     		ldr	r2, [r7, #20]
 1398 0928 D269     		ldr	r2, [r2, #28]
 1399 092a 92F8AE21 		ldrb	r2, [r2, #430]	@ zero_extendqisi2
 1400 092e 02F00F02 		and	r2, r2, #15
 1401 0932 D2B2     		uxtb	r2, r2
 1402 0934 83F8AE21 		strb	r2, [r3, #430]
 355:.\EncoreImpl.c ****                     pjob->_ppump->_rxbuffer[0x0F] = (pjob->_ppump->_rxbuffer[0x0F] & 0x0F);
 1403              		.loc 1 355 0
 1404 0938 7B69     		ldr	r3, [r7, #20]
 1405 093a DB69     		ldr	r3, [r3, #28]
 1406 093c 7A69     		ldr	r2, [r7, #20]
 1407 093e D269     		ldr	r2, [r2, #28]
 1408 0940 92F8AF21 		ldrb	r2, [r2, #431]	@ zero_extendqisi2
 1409 0944 02F00F02 		and	r2, r2, #15
 1410 0948 D2B2     		uxtb	r2, r2
 1411 094a 83F8AF21 		strb	r2, [r3, #431]
 356:.\EncoreImpl.c ****                     pjob->_ppump->_rxbuffer[0x10] = (pjob->_ppump->_rxbuffer[0x10] & 0x0F);
ARM GAS  C:\Users\RECEPC~1\AppData\Local\Temp\ccMZb0bC.s 			page 32


 1412              		.loc 1 356 0
 1413 094e 7B69     		ldr	r3, [r7, #20]
 1414 0950 DB69     		ldr	r3, [r3, #28]
 1415 0952 7A69     		ldr	r2, [r7, #20]
 1416 0954 D269     		ldr	r2, [r2, #28]
 1417 0956 92F8B021 		ldrb	r2, [r2, #432]	@ zero_extendqisi2
 1418 095a 02F00F02 		and	r2, r2, #15
 1419 095e D2B2     		uxtb	r2, r2
 1420 0960 83F8B021 		strb	r2, [r3, #432]
 357:.\EncoreImpl.c ****                     pjob->_ppump->_rxbuffer[0x11] = (pjob->_ppump->_rxbuffer[0x11] & 0x0F);
 1421              		.loc 1 357 0
 1422 0964 7B69     		ldr	r3, [r7, #20]
 1423 0966 DB69     		ldr	r3, [r3, #28]
 1424 0968 7A69     		ldr	r2, [r7, #20]
 1425 096a D269     		ldr	r2, [r2, #28]
 1426 096c 92F8B121 		ldrb	r2, [r2, #433]	@ zero_extendqisi2
 1427 0970 02F00F02 		and	r2, r2, #15
 1428 0974 D2B2     		uxtb	r2, r2
 1429 0976 83F8B121 		strb	r2, [r3, #433]
 358:.\EncoreImpl.c ****                     pjob->_ppump->_authorizationinfo._price = LSDBCDBUFF2HEX(PBYTECAST(&pjob->_ppum
 1430              		.loc 1 358 0
 1431 097a 7B69     		ldr	r3, [r7, #20]
 1432 097c DC69     		ldr	r4, [r3, #28]
 1433 097e 7B69     		ldr	r3, [r7, #20]
 1434 0980 DB69     		ldr	r3, [r3, #28]
 1435 0982 03F5D673 		add	r3, r3, #428
 1436 0986 1846     		mov	r0, r3
 1437 0988 0621     		movs	r1, #6
 1438 098a FFF7FEFF 		bl	LSDBCDBUFF2HEX
 1439 098e 0346     		mov	r3, r0
 1440 0990 9BB2     		uxth	r3, r3
 1441 0992 A4F8AC3B 		strh	r3, [r4, #2988]	@ movhi
 1442              	.LBE5:
 1443 0996 41E0     		b	.L42
 1444              	.L35:
 359:.\EncoreImpl.c ****                     
 360:.\EncoreImpl.c ****                 }
 361:.\EncoreImpl.c ****                 else
 362:.\EncoreImpl.c ****                 {
 363:.\EncoreImpl.c ****                     pjob->_ppump->_rxbuffer[0x0C] = (pjob->_ppump->_rxbuffer[0x0C] & 0x0F);
 1445              		.loc 1 363 0
 1446 0998 7B69     		ldr	r3, [r7, #20]
 1447 099a DB69     		ldr	r3, [r3, #28]
 1448 099c 7A69     		ldr	r2, [r7, #20]
 1449 099e D269     		ldr	r2, [r2, #28]
 1450 09a0 92F8AC21 		ldrb	r2, [r2, #428]	@ zero_extendqisi2
 1451 09a4 02F00F02 		and	r2, r2, #15
 1452 09a8 D2B2     		uxtb	r2, r2
 1453 09aa 83F8AC21 		strb	r2, [r3, #428]
 364:.\EncoreImpl.c ****                     pjob->_ppump->_rxbuffer[0x0D] = (pjob->_ppump->_rxbuffer[0x0D] & 0x0F);
 1454              		.loc 1 364 0
 1455 09ae 7B69     		ldr	r3, [r7, #20]
 1456 09b0 DB69     		ldr	r3, [r3, #28]
 1457 09b2 7A69     		ldr	r2, [r7, #20]
 1458 09b4 D269     		ldr	r2, [r2, #28]
 1459 09b6 92F8AD21 		ldrb	r2, [r2, #429]	@ zero_extendqisi2
 1460 09ba 02F00F02 		and	r2, r2, #15
ARM GAS  C:\Users\RECEPC~1\AppData\Local\Temp\ccMZb0bC.s 			page 33


 1461 09be D2B2     		uxtb	r2, r2
 1462 09c0 83F8AD21 		strb	r2, [r3, #429]
 365:.\EncoreImpl.c ****                     pjob->_ppump->_rxbuffer[0x0E] = (pjob->_ppump->_rxbuffer[0x0E] & 0x0F);
 1463              		.loc 1 365 0
 1464 09c4 7B69     		ldr	r3, [r7, #20]
 1465 09c6 DB69     		ldr	r3, [r3, #28]
 1466 09c8 7A69     		ldr	r2, [r7, #20]
 1467 09ca D269     		ldr	r2, [r2, #28]
 1468 09cc 92F8AE21 		ldrb	r2, [r2, #430]	@ zero_extendqisi2
 1469 09d0 02F00F02 		and	r2, r2, #15
 1470 09d4 D2B2     		uxtb	r2, r2
 1471 09d6 83F8AE21 		strb	r2, [r3, #430]
 366:.\EncoreImpl.c ****                     pjob->_ppump->_rxbuffer[0x0F] = (pjob->_ppump->_rxbuffer[0x0F] & 0x0F);
 1472              		.loc 1 366 0
 1473 09da 7B69     		ldr	r3, [r7, #20]
 1474 09dc DB69     		ldr	r3, [r3, #28]
 1475 09de 7A69     		ldr	r2, [r7, #20]
 1476 09e0 D269     		ldr	r2, [r2, #28]
 1477 09e2 92F8AF21 		ldrb	r2, [r2, #431]	@ zero_extendqisi2
 1478 09e6 02F00F02 		and	r2, r2, #15
 1479 09ea D2B2     		uxtb	r2, r2
 1480 09ec 83F8AF21 		strb	r2, [r3, #431]
 367:.\EncoreImpl.c ****                     pjob->_ppump->_rxbuffer[0x10] = (pjob->_ppump->_rxbuffer[0x10] & 0x0F);
 1481              		.loc 1 367 0
 1482 09f0 7B69     		ldr	r3, [r7, #20]
 1483 09f2 DB69     		ldr	r3, [r3, #28]
 1484 09f4 7A69     		ldr	r2, [r7, #20]
 1485 09f6 D269     		ldr	r2, [r2, #28]
 1486 09f8 92F8B021 		ldrb	r2, [r2, #432]	@ zero_extendqisi2
 1487 09fc 02F00F02 		and	r2, r2, #15
 1488 0a00 D2B2     		uxtb	r2, r2
 1489 0a02 83F8B021 		strb	r2, [r3, #432]
 368:.\EncoreImpl.c ****                     pjob->_ppump->_rxbuffer[0x11] = (pjob->_ppump->_rxbuffer[0x11] & 0x0F);
 1490              		.loc 1 368 0
 1491 0a06 7B69     		ldr	r3, [r7, #20]
 1492 0a08 DB69     		ldr	r3, [r3, #28]
 1493 0a0a 7A69     		ldr	r2, [r7, #20]
 1494 0a0c D269     		ldr	r2, [r2, #28]
 1495 0a0e 92F8B121 		ldrb	r2, [r2, #433]	@ zero_extendqisi2
 1496 0a12 02F00F02 		and	r2, r2, #15
 1497 0a16 D2B2     		uxtb	r2, r2
 1498 0a18 83F8B121 		strb	r2, [r3, #433]
 1499              	.L42:
 369:.\EncoreImpl.c ****                 }
 370:.\EncoreImpl.c ****                 
 371:.\EncoreImpl.c ****                 //Bytes from index 19 to 26 are the digits for the fuel volume delivered in the tra
 372:.\EncoreImpl.c ****                 //Digits are in BCD format
 373:.\EncoreImpl.c ****                 pjob->_ppump->_rxbuffer[0x13] = (pjob->_ppump->_rxbuffer[0x13] & 0x0F);
 1500              		.loc 1 373 0
 1501 0a1c 7B69     		ldr	r3, [r7, #20]
 1502 0a1e DB69     		ldr	r3, [r3, #28]
 1503 0a20 7A69     		ldr	r2, [r7, #20]
 1504 0a22 D269     		ldr	r2, [r2, #28]
 1505 0a24 92F8B321 		ldrb	r2, [r2, #435]	@ zero_extendqisi2
 1506 0a28 02F00F02 		and	r2, r2, #15
 1507 0a2c D2B2     		uxtb	r2, r2
 1508 0a2e 83F8B321 		strb	r2, [r3, #435]
ARM GAS  C:\Users\RECEPC~1\AppData\Local\Temp\ccMZb0bC.s 			page 34


 374:.\EncoreImpl.c ****                 pjob->_ppump->_rxbuffer[0x14] = (pjob->_ppump->_rxbuffer[0x14] & 0x0F);
 1509              		.loc 1 374 0
 1510 0a32 7B69     		ldr	r3, [r7, #20]
 1511 0a34 DB69     		ldr	r3, [r3, #28]
 1512 0a36 7A69     		ldr	r2, [r7, #20]
 1513 0a38 D269     		ldr	r2, [r2, #28]
 1514 0a3a 92F8B421 		ldrb	r2, [r2, #436]	@ zero_extendqisi2
 1515 0a3e 02F00F02 		and	r2, r2, #15
 1516 0a42 D2B2     		uxtb	r2, r2
 1517 0a44 83F8B421 		strb	r2, [r3, #436]
 375:.\EncoreImpl.c ****                 pjob->_ppump->_rxbuffer[0x15] = (pjob->_ppump->_rxbuffer[0x15] & 0x0F);
 1518              		.loc 1 375 0
 1519 0a48 7B69     		ldr	r3, [r7, #20]
 1520 0a4a DB69     		ldr	r3, [r3, #28]
 1521 0a4c 7A69     		ldr	r2, [r7, #20]
 1522 0a4e D269     		ldr	r2, [r2, #28]
 1523 0a50 92F8B521 		ldrb	r2, [r2, #437]	@ zero_extendqisi2
 1524 0a54 02F00F02 		and	r2, r2, #15
 1525 0a58 D2B2     		uxtb	r2, r2
 1526 0a5a 83F8B521 		strb	r2, [r3, #437]
 376:.\EncoreImpl.c ****                 pjob->_ppump->_rxbuffer[0x16] = (pjob->_ppump->_rxbuffer[0x16] & 0x0F);
 1527              		.loc 1 376 0
 1528 0a5e 7B69     		ldr	r3, [r7, #20]
 1529 0a60 DB69     		ldr	r3, [r3, #28]
 1530 0a62 7A69     		ldr	r2, [r7, #20]
 1531 0a64 D269     		ldr	r2, [r2, #28]
 1532 0a66 92F8B621 		ldrb	r2, [r2, #438]	@ zero_extendqisi2
 1533 0a6a 02F00F02 		and	r2, r2, #15
 1534 0a6e D2B2     		uxtb	r2, r2
 1535 0a70 83F8B621 		strb	r2, [r3, #438]
 377:.\EncoreImpl.c ****                 pjob->_ppump->_rxbuffer[0x17] = (pjob->_ppump->_rxbuffer[0x17] & 0x0F);
 1536              		.loc 1 377 0
 1537 0a74 7B69     		ldr	r3, [r7, #20]
 1538 0a76 DB69     		ldr	r3, [r3, #28]
 1539 0a78 7A69     		ldr	r2, [r7, #20]
 1540 0a7a D269     		ldr	r2, [r2, #28]
 1541 0a7c 92F8B721 		ldrb	r2, [r2, #439]	@ zero_extendqisi2
 1542 0a80 02F00F02 		and	r2, r2, #15
 1543 0a84 D2B2     		uxtb	r2, r2
 1544 0a86 83F8B721 		strb	r2, [r3, #439]
 378:.\EncoreImpl.c ****                 pjob->_ppump->_rxbuffer[0x18] = (pjob->_ppump->_rxbuffer[0x18] & 0x0F);
 1545              		.loc 1 378 0
 1546 0a8a 7B69     		ldr	r3, [r7, #20]
 1547 0a8c DB69     		ldr	r3, [r3, #28]
 1548 0a8e 7A69     		ldr	r2, [r7, #20]
 1549 0a90 D269     		ldr	r2, [r2, #28]
 1550 0a92 92F8B821 		ldrb	r2, [r2, #440]	@ zero_extendqisi2
 1551 0a96 02F00F02 		and	r2, r2, #15
 1552 0a9a D2B2     		uxtb	r2, r2
 1553 0a9c 83F8B821 		strb	r2, [r3, #440]
 379:.\EncoreImpl.c ****                 pjob->_ppump->_rxbuffer[0x19] = (pjob->_ppump->_rxbuffer[0x19] & 0x0F);
 1554              		.loc 1 379 0
 1555 0aa0 7B69     		ldr	r3, [r7, #20]
 1556 0aa2 DB69     		ldr	r3, [r3, #28]
 1557 0aa4 7A69     		ldr	r2, [r7, #20]
 1558 0aa6 D269     		ldr	r2, [r2, #28]
 1559 0aa8 92F8B921 		ldrb	r2, [r2, #441]	@ zero_extendqisi2
ARM GAS  C:\Users\RECEPC~1\AppData\Local\Temp\ccMZb0bC.s 			page 35


 1560 0aac 02F00F02 		and	r2, r2, #15
 1561 0ab0 D2B2     		uxtb	r2, r2
 1562 0ab2 83F8B921 		strb	r2, [r3, #441]
 380:.\EncoreImpl.c ****                 pjob->_ppump->_rxbuffer[0x1A] = (pjob->_ppump->_rxbuffer[0x1A] & 0x0F);
 1563              		.loc 1 380 0
 1564 0ab6 7B69     		ldr	r3, [r7, #20]
 1565 0ab8 DB69     		ldr	r3, [r3, #28]
 1566 0aba 7A69     		ldr	r2, [r7, #20]
 1567 0abc D269     		ldr	r2, [r2, #28]
 1568 0abe 92F8BA21 		ldrb	r2, [r2, #442]	@ zero_extendqisi2
 1569 0ac2 02F00F02 		and	r2, r2, #15
 1570 0ac6 D2B2     		uxtb	r2, r2
 1571 0ac8 83F8BA21 		strb	r2, [r3, #442]
 381:.\EncoreImpl.c ****                 pjob->_ppump->_authorizationinfo._volumeamount = LSDBCDBUFF2HEX(PBYTECAST(&pjob->_p
 1572              		.loc 1 381 0
 1573 0acc 7B69     		ldr	r3, [r7, #20]
 1574 0ace DC69     		ldr	r4, [r3, #28]
 1575 0ad0 7B69     		ldr	r3, [r7, #20]
 1576 0ad2 DB69     		ldr	r3, [r3, #28]
 1577 0ad4 03F2B313 		addw	r3, r3, #435
 1578 0ad8 1846     		mov	r0, r3
 1579 0ada 0821     		movs	r1, #8
 1580 0adc FFF7FEFF 		bl	LSDBCDBUFF2HEX
 1581 0ae0 0346     		mov	r3, r0
 1582 0ae2 C4F8B43B 		str	r3, [r4, #2996]
 382:.\EncoreImpl.c ****                 
 383:.\EncoreImpl.c ****                 ////////////////////////////////////////////////////////////////////////////////
 384:.\EncoreImpl.c ****                 ////////////////////////////////////////////////////////////////////////////////
 385:.\EncoreImpl.c ****                 
 386:.\EncoreImpl.c ****                 //Bytes from index 28 to 35 are the digits for the money charged to the transaction
 387:.\EncoreImpl.c ****                 //Digits are in BCD format
 388:.\EncoreImpl.c ****                 pjob->_ppump->_rxbuffer[0x1C] = (pjob->_ppump->_rxbuffer[0x1C] & 0x00);//Zero to ma
 1583              		.loc 1 388 0
 1584 0ae6 7B69     		ldr	r3, [r7, #20]
 1585 0ae8 DB69     		ldr	r3, [r3, #28]
 1586 0aea 0022     		movs	r2, #0
 1587 0aec 83F8BC21 		strb	r2, [r3, #444]
 389:.\EncoreImpl.c ****                 
 390:.\EncoreImpl.c ****                 pjob->_ppump->_rxbuffer[0x1D] = (pjob->_ppump->_rxbuffer[0x1D] & 0x0F);
 1588              		.loc 1 390 0
 1589 0af0 7B69     		ldr	r3, [r7, #20]
 1590 0af2 DB69     		ldr	r3, [r3, #28]
 1591 0af4 7A69     		ldr	r2, [r7, #20]
 1592 0af6 D269     		ldr	r2, [r2, #28]
 1593 0af8 92F8BD21 		ldrb	r2, [r2, #445]	@ zero_extendqisi2
 1594 0afc 02F00F02 		and	r2, r2, #15
 1595 0b00 D2B2     		uxtb	r2, r2
 1596 0b02 83F8BD21 		strb	r2, [r3, #445]
 391:.\EncoreImpl.c ****                 pjob->_ppump->_rxbuffer[0x1E] = (pjob->_ppump->_rxbuffer[0x1E] & 0x0F);
 1597              		.loc 1 391 0
 1598 0b06 7B69     		ldr	r3, [r7, #20]
 1599 0b08 DB69     		ldr	r3, [r3, #28]
 1600 0b0a 7A69     		ldr	r2, [r7, #20]
 1601 0b0c D269     		ldr	r2, [r2, #28]
 1602 0b0e 92F8BE21 		ldrb	r2, [r2, #446]	@ zero_extendqisi2
 1603 0b12 02F00F02 		and	r2, r2, #15
 1604 0b16 D2B2     		uxtb	r2, r2
ARM GAS  C:\Users\RECEPC~1\AppData\Local\Temp\ccMZb0bC.s 			page 36


 1605 0b18 83F8BE21 		strb	r2, [r3, #446]
 392:.\EncoreImpl.c ****                 pjob->_ppump->_rxbuffer[0x1F] = (pjob->_ppump->_rxbuffer[0x1F] & 0x0F);
 1606              		.loc 1 392 0
 1607 0b1c 7B69     		ldr	r3, [r7, #20]
 1608 0b1e DB69     		ldr	r3, [r3, #28]
 1609 0b20 7A69     		ldr	r2, [r7, #20]
 1610 0b22 D269     		ldr	r2, [r2, #28]
 1611 0b24 92F8BF21 		ldrb	r2, [r2, #447]	@ zero_extendqisi2
 1612 0b28 02F00F02 		and	r2, r2, #15
 1613 0b2c D2B2     		uxtb	r2, r2
 1614 0b2e 83F8BF21 		strb	r2, [r3, #447]
 393:.\EncoreImpl.c ****                 pjob->_ppump->_rxbuffer[0x20] = (pjob->_ppump->_rxbuffer[0x20] & 0x0F);
 1615              		.loc 1 393 0
 1616 0b32 7B69     		ldr	r3, [r7, #20]
 1617 0b34 DB69     		ldr	r3, [r3, #28]
 1618 0b36 7A69     		ldr	r2, [r7, #20]
 1619 0b38 D269     		ldr	r2, [r2, #28]
 1620 0b3a 92F8C021 		ldrb	r2, [r2, #448]	@ zero_extendqisi2
 1621 0b3e 02F00F02 		and	r2, r2, #15
 1622 0b42 D2B2     		uxtb	r2, r2
 1623 0b44 83F8C021 		strb	r2, [r3, #448]
 394:.\EncoreImpl.c ****                 pjob->_ppump->_rxbuffer[0x21] = (pjob->_ppump->_rxbuffer[0x21] & 0x0F);
 1624              		.loc 1 394 0
 1625 0b48 7B69     		ldr	r3, [r7, #20]
 1626 0b4a DB69     		ldr	r3, [r3, #28]
 1627 0b4c 7A69     		ldr	r2, [r7, #20]
 1628 0b4e D269     		ldr	r2, [r2, #28]
 1629 0b50 92F8C121 		ldrb	r2, [r2, #449]	@ zero_extendqisi2
 1630 0b54 02F00F02 		and	r2, r2, #15
 1631 0b58 D2B2     		uxtb	r2, r2
 1632 0b5a 83F8C121 		strb	r2, [r3, #449]
 395:.\EncoreImpl.c ****                 pjob->_ppump->_rxbuffer[0x22] = (pjob->_ppump->_rxbuffer[0x22] & 0x0F);
 1633              		.loc 1 395 0
 1634 0b5e 7B69     		ldr	r3, [r7, #20]
 1635 0b60 DB69     		ldr	r3, [r3, #28]
 1636 0b62 7A69     		ldr	r2, [r7, #20]
 1637 0b64 D269     		ldr	r2, [r2, #28]
 1638 0b66 92F8C221 		ldrb	r2, [r2, #450]	@ zero_extendqisi2
 1639 0b6a 02F00F02 		and	r2, r2, #15
 1640 0b6e D2B2     		uxtb	r2, r2
 1641 0b70 83F8C221 		strb	r2, [r3, #450]
 396:.\EncoreImpl.c ****                 pjob->_ppump->_rxbuffer[0x23] = (pjob->_ppump->_rxbuffer[0x23] & 0x0F);
 1642              		.loc 1 396 0
 1643 0b74 7B69     		ldr	r3, [r7, #20]
 1644 0b76 DB69     		ldr	r3, [r3, #28]
 1645 0b78 7A69     		ldr	r2, [r7, #20]
 1646 0b7a D269     		ldr	r2, [r2, #28]
 1647 0b7c 92F8C321 		ldrb	r2, [r2, #451]	@ zero_extendqisi2
 1648 0b80 02F00F02 		and	r2, r2, #15
 1649 0b84 D2B2     		uxtb	r2, r2
 1650 0b86 83F8C321 		strb	r2, [r3, #451]
 397:.\EncoreImpl.c ****                 //INQUIRY ABOUT THE EXTRA x10 RESULT SINCE THERE IS AN EXTRA 0 IN THE RESPONSE FOR 
 398:.\EncoreImpl.c ****                 //MEANWHILE DIVIDING BY 10 TO REMOVE THE ZERO
 399:.\EncoreImpl.c ****                 if(_g_dispenserlayoutinfo._displaydigitsmode == 0x07)
 1651              		.loc 1 399 0
 1652 0b8a BC4B     		ldr	r3, .L56
 1653 0b8c 1B7C     		ldrb	r3, [r3, #16]	@ zero_extendqisi2
ARM GAS  C:\Users\RECEPC~1\AppData\Local\Temp\ccMZb0bC.s 			page 37


 1654 0b8e 072B     		cmp	r3, #7
 1655 0b90 11D1     		bne	.L43
 400:.\EncoreImpl.c ****                     pjob->_ppump->_authorizationinfo._presetamount = (LSDBCDBUFF2HEX(PBYTECAST(&pjo
 1656              		.loc 1 400 0
 1657 0b92 7B69     		ldr	r3, [r7, #20]
 1658 0b94 DC69     		ldr	r4, [r3, #28]
 1659 0b96 7B69     		ldr	r3, [r7, #20]
 1660 0b98 DB69     		ldr	r3, [r3, #28]
 1661 0b9a 03F5DE73 		add	r3, r3, #444
 1662 0b9e 1846     		mov	r0, r3
 1663 0ba0 0821     		movs	r1, #8
 1664 0ba2 FFF7FEFF 		bl	LSDBCDBUFF2HEX
 1665 0ba6 0246     		mov	r2, r0
 1666 0ba8 B54B     		ldr	r3, .L56+4
 1667 0baa A3FB0223 		umull	r2, r3, r3, r2
 1668 0bae DB08     		lsrs	r3, r3, #3
 1669 0bb0 C4F8B03B 		str	r3, [r4, #2992]
 1670 0bb4 0CE0     		b	.L44
 1671              	.L43:
 401:.\EncoreImpl.c ****                 else
 402:.\EncoreImpl.c ****                     pjob->_ppump->_authorizationinfo._presetamount = LSDBCDBUFF2HEX(PBYTECAST(&pjob
 1672              		.loc 1 402 0
 1673 0bb6 7B69     		ldr	r3, [r7, #20]
 1674 0bb8 DC69     		ldr	r4, [r3, #28]
 1675 0bba 7B69     		ldr	r3, [r7, #20]
 1676 0bbc DB69     		ldr	r3, [r3, #28]
 1677 0bbe 03F5DE73 		add	r3, r3, #444
 1678 0bc2 1846     		mov	r0, r3
 1679 0bc4 0821     		movs	r1, #8
 1680 0bc6 FFF7FEFF 		bl	LSDBCDBUFF2HEX
 1681 0bca 0346     		mov	r3, r0
 1682 0bcc C4F8B03B 		str	r3, [r4, #2992]
 1683              	.L44:
 403:.\EncoreImpl.c ****                     
 404:.\EncoreImpl.c ****                 ClearRtcBuffer();
 1684              		.loc 1 404 0
 1685 0bd0 FFF7FEFF 		bl	ClearRtcBuffer
 405:.\EncoreImpl.c ****                 ReadRTC();
 1686              		.loc 1 405 0
 1687 0bd4 FFF7FEFF 		bl	ReadRTC
 406:.\EncoreImpl.c ****                 //CAREFUL WITH RETURNS BETWEEN THE LOCK/UNLOCK CALLS
 407:.\EncoreImpl.c ****                 //AND RECURSIVE CALLS THAT WOULD DEADLOCK!
 408:.\EncoreImpl.c ****                 I2CBusLock();
 1688              		.loc 1 408 0
 1689 0bd8 FFF7FEFF 		bl	I2CBusLock
 409:.\EncoreImpl.c ****             
 410:.\EncoreImpl.c ****                 ClearEepromBuffer();
 1690              		.loc 1 410 0
 1691 0bdc FFF7FEFF 		bl	ClearEepromBuffer
 411:.\EncoreImpl.c ****                 //In this position is located the payment type (CREDIT: 0x0E , CASH:0x0D)
 412:.\EncoreImpl.c ****                 if(pjob->_ppump->_trasactionbuffer[0x00] == 0x0D)
 1692              		.loc 1 412 0
 1693 0be0 7B69     		ldr	r3, [r7, #20]
 1694 0be2 DB69     		ldr	r3, [r3, #28]
 1695 0be4 93F82030 		ldrb	r3, [r3, #32]	@ zero_extendqisi2
 1696 0be8 0D2B     		cmp	r3, #13
 1697 0bea 40F0DB80 		bne	.L45
ARM GAS  C:\Users\RECEPC~1\AppData\Local\Temp\ccMZb0bC.s 			page 38


 413:.\EncoreImpl.c ****                 {
 414:.\EncoreImpl.c ****                     //HERE WE STORE THE LAST TRANSACTION IN EEPROM! ALWAYS THE PREVIOUS TRANSACTION
 415:.\EncoreImpl.c ****                     //WILL BE OVERWRITTEN AND LOST.
 416:.\EncoreImpl.c ****                     //IN CASE OF A "CREDIT SALE", THE WHOLE DATA WILL BE STORED IN A SEPARATE MEMOR
 417:.\EncoreImpl.c ****                     //SINCE IN CASE OF A RF LINK DROP, THE STATE OF THE SALE COULD BE RECOVERED BY 
 418:.\EncoreImpl.c ****                     LoadEepromPage(EEPROM_DISPENSER_PUMP1_LAYOUT_PAGE);
 1698              		.loc 1 418 0
 1699 0bee 4FF40070 		mov	r0, #512
 1700 0bf2 FFF7FEFF 		bl	LoadEepromPage
 419:.\EncoreImpl.c ****                     if(GetEepromBuffer()[0] == ((pjob->_ppump->_rxbuffer[0x04] & 0x0F) + 1))
 1701              		.loc 1 419 0
 1702 0bf6 FFF7FEFF 		bl	GetEepromBuffer
 1703 0bfa 0346     		mov	r3, r0
 1704 0bfc 1B78     		ldrb	r3, [r3]	@ zero_extendqisi2
 1705 0bfe 1A46     		mov	r2, r3
 1706 0c00 7B69     		ldr	r3, [r7, #20]
 1707 0c02 DB69     		ldr	r3, [r3, #28]
 1708 0c04 93F8A431 		ldrb	r3, [r3, #420]	@ zero_extendqisi2
 1709 0c08 03F00F03 		and	r3, r3, #15
 1710 0c0c 0133     		adds	r3, r3, #1
 1711 0c0e 9A42     		cmp	r2, r3
 1712 0c10 22D1     		bne	.L46
 420:.\EncoreImpl.c ****                     {
 421:.\EncoreImpl.c ****                         ClearEepromBuffer();
 1713              		.loc 1 421 0
 1714 0c12 FFF7FEFF 		bl	ClearEepromBuffer
 422:.\EncoreImpl.c ****                         //Storing the current Date/Time for this transaction
 423:.\EncoreImpl.c ****                         memcpy(GetEepromBuffer(), GetRtcBuffer(), 0x07);
 1715              		.loc 1 423 0
 1716 0c16 FFF7FEFF 		bl	GetEepromBuffer
 1717 0c1a 0446     		mov	r4, r0
 1718 0c1c FFF7FEFF 		bl	GetRtcBuffer
 1719 0c20 0346     		mov	r3, r0
 1720 0c22 2046     		mov	r0, r4
 1721 0c24 1946     		mov	r1, r3
 1722 0c26 0722     		movs	r2, #7
 1723 0c28 FFF7FEFF 		bl	memcpy
 424:.\EncoreImpl.c ****                         memcpy(&GetEepromBuffer()[0x07], pjob->_ppump->_rxbuffer, pjob->_ppump->_rx
 1724              		.loc 1 424 0
 1725 0c2c FFF7FEFF 		bl	GetEepromBuffer
 1726 0c30 0346     		mov	r3, r0
 1727 0c32 D91D     		adds	r1, r3, #7
 1728 0c34 7B69     		ldr	r3, [r7, #20]
 1729 0c36 DB69     		ldr	r3, [r3, #28]
 1730 0c38 03F5D072 		add	r2, r3, #416
 1731 0c3c 7B69     		ldr	r3, [r7, #20]
 1732 0c3e DB69     		ldr	r3, [r3, #28]
 1733 0c40 B3F82033 		ldrh	r3, [r3, #800]
 1734 0c44 0846     		mov	r0, r1
 1735 0c46 1146     		mov	r1, r2
 1736 0c48 1A46     		mov	r2, r3
 1737 0c4a FFF7FEFF 		bl	memcpy
 425:.\EncoreImpl.c ****                         StoreEepromPage(EEPROM_DISPENSER_PUMP12_TRANSACTION_PAGE);
 1738              		.loc 1 425 0
 1739 0c4e 4FF4C860 		mov	r0, #1600
 1740 0c52 FFF7FEFF 		bl	StoreEepromPage
 1741 0c56 82E1     		b	.L50
ARM GAS  C:\Users\RECEPC~1\AppData\Local\Temp\ccMZb0bC.s 			page 39


 1742              	.L46:
 426:.\EncoreImpl.c ****                     }
 427:.\EncoreImpl.c ****                     else
 428:.\EncoreImpl.c ****                     {
 429:.\EncoreImpl.c ****                         ClearEepromBuffer();
 1743              		.loc 1 429 0
 1744 0c58 FFF7FEFF 		bl	ClearEepromBuffer
 430:.\EncoreImpl.c ****                         LoadEepromPage(EEPROM_DISPENSER_PUMP2_LAYOUT_PAGE);
 1745              		.loc 1 430 0
 1746 0c5c 4FF41070 		mov	r0, #576
 1747 0c60 FFF7FEFF 		bl	LoadEepromPage
 431:.\EncoreImpl.c ****                         if(GetEepromBuffer()[0] == ((pjob->_ppump->_rxbuffer[0x04] & 0x0F) + 1))
 1748              		.loc 1 431 0
 1749 0c64 FFF7FEFF 		bl	GetEepromBuffer
 1750 0c68 0346     		mov	r3, r0
 1751 0c6a 1B78     		ldrb	r3, [r3]	@ zero_extendqisi2
 1752 0c6c 1A46     		mov	r2, r3
 1753 0c6e 7B69     		ldr	r3, [r7, #20]
 1754 0c70 DB69     		ldr	r3, [r3, #28]
 1755 0c72 93F8A431 		ldrb	r3, [r3, #420]	@ zero_extendqisi2
 1756 0c76 03F00F03 		and	r3, r3, #15
 1757 0c7a 0133     		adds	r3, r3, #1
 1758 0c7c 9A42     		cmp	r2, r3
 1759 0c7e 22D1     		bne	.L48
 432:.\EncoreImpl.c ****                         {
 433:.\EncoreImpl.c ****                             ClearEepromBuffer();
 1760              		.loc 1 433 0
 1761 0c80 FFF7FEFF 		bl	ClearEepromBuffer
 434:.\EncoreImpl.c ****                             //Storing the current Date/Time for this transaction
 435:.\EncoreImpl.c ****                             memcpy(GetEepromBuffer(), GetRtcBuffer(), 0x07);
 1762              		.loc 1 435 0
 1763 0c84 FFF7FEFF 		bl	GetEepromBuffer
 1764 0c88 0446     		mov	r4, r0
 1765 0c8a FFF7FEFF 		bl	GetRtcBuffer
 1766 0c8e 0346     		mov	r3, r0
 1767 0c90 2046     		mov	r0, r4
 1768 0c92 1946     		mov	r1, r3
 1769 0c94 0722     		movs	r2, #7
 1770 0c96 FFF7FEFF 		bl	memcpy
 436:.\EncoreImpl.c ****                             memcpy(&GetEepromBuffer()[0x07], pjob->_ppump->_rxbuffer, pjob->_ppump-
 1771              		.loc 1 436 0
 1772 0c9a FFF7FEFF 		bl	GetEepromBuffer
 1773 0c9e 0346     		mov	r3, r0
 1774 0ca0 D91D     		adds	r1, r3, #7
 1775 0ca2 7B69     		ldr	r3, [r7, #20]
 1776 0ca4 DB69     		ldr	r3, [r3, #28]
 1777 0ca6 03F5D072 		add	r2, r3, #416
 1778 0caa 7B69     		ldr	r3, [r7, #20]
 1779 0cac DB69     		ldr	r3, [r3, #28]
 1780 0cae B3F82033 		ldrh	r3, [r3, #800]
 1781 0cb2 0846     		mov	r0, r1
 1782 0cb4 1146     		mov	r1, r2
 1783 0cb6 1A46     		mov	r2, r3
 1784 0cb8 FFF7FEFF 		bl	memcpy
 437:.\EncoreImpl.c ****                             StoreEepromPage(EEPROM_DISPENSER_PUMP22_TRANSACTION_PAGE);
 1785              		.loc 1 437 0
 1786 0cbc 4FF4E860 		mov	r0, #1856
ARM GAS  C:\Users\RECEPC~1\AppData\Local\Temp\ccMZb0bC.s 			page 40


 1787 0cc0 FFF7FEFF 		bl	StoreEepromPage
 1788 0cc4 4BE1     		b	.L50
 1789              	.L48:
 438:.\EncoreImpl.c ****                         }
 439:.\EncoreImpl.c ****                         else
 440:.\EncoreImpl.c ****                         {
 441:.\EncoreImpl.c ****                             ClearEepromBuffer();
 1790              		.loc 1 441 0
 1791 0cc6 FFF7FEFF 		bl	ClearEepromBuffer
 442:.\EncoreImpl.c ****                             LoadEepromPage(EEPROM_DISPENSER_PUMP3_LAYOUT_PAGE);
 1792              		.loc 1 442 0
 1793 0cca 4FF42070 		mov	r0, #640
 1794 0cce FFF7FEFF 		bl	LoadEepromPage
 443:.\EncoreImpl.c ****                             if(GetEepromBuffer()[0] == ((pjob->_ppump->_rxbuffer[0x04] & 0x0F) + 1)
 1795              		.loc 1 443 0
 1796 0cd2 FFF7FEFF 		bl	GetEepromBuffer
 1797 0cd6 0346     		mov	r3, r0
 1798 0cd8 1B78     		ldrb	r3, [r3]	@ zero_extendqisi2
 1799 0cda 1A46     		mov	r2, r3
 1800 0cdc 7B69     		ldr	r3, [r7, #20]
 1801 0cde DB69     		ldr	r3, [r3, #28]
 1802 0ce0 93F8A431 		ldrb	r3, [r3, #420]	@ zero_extendqisi2
 1803 0ce4 03F00F03 		and	r3, r3, #15
 1804 0ce8 0133     		adds	r3, r3, #1
 1805 0cea 9A42     		cmp	r2, r3
 1806 0cec 22D1     		bne	.L49
 444:.\EncoreImpl.c ****                             {
 445:.\EncoreImpl.c ****                                 ClearEepromBuffer();
 1807              		.loc 1 445 0
 1808 0cee FFF7FEFF 		bl	ClearEepromBuffer
 446:.\EncoreImpl.c ****                                 //Storing the current Date/Time for this transaction
 447:.\EncoreImpl.c ****                                 memcpy(GetEepromBuffer(), GetRtcBuffer(), 0x07);
 1809              		.loc 1 447 0
 1810 0cf2 FFF7FEFF 		bl	GetEepromBuffer
 1811 0cf6 0446     		mov	r4, r0
 1812 0cf8 FFF7FEFF 		bl	GetRtcBuffer
 1813 0cfc 0346     		mov	r3, r0
 1814 0cfe 2046     		mov	r0, r4
 1815 0d00 1946     		mov	r1, r3
 1816 0d02 0722     		movs	r2, #7
 1817 0d04 FFF7FEFF 		bl	memcpy
 448:.\EncoreImpl.c ****                                 memcpy(&GetEepromBuffer()[0x07], pjob->_ppump->_rxbuffer, pjob->_pp
 1818              		.loc 1 448 0
 1819 0d08 FFF7FEFF 		bl	GetEepromBuffer
 1820 0d0c 0346     		mov	r3, r0
 1821 0d0e D91D     		adds	r1, r3, #7
 1822 0d10 7B69     		ldr	r3, [r7, #20]
 1823 0d12 DB69     		ldr	r3, [r3, #28]
 1824 0d14 03F5D072 		add	r2, r3, #416
 1825 0d18 7B69     		ldr	r3, [r7, #20]
 1826 0d1a DB69     		ldr	r3, [r3, #28]
 1827 0d1c B3F82033 		ldrh	r3, [r3, #800]
 1828 0d20 0846     		mov	r0, r1
 1829 0d22 1146     		mov	r1, r2
 1830 0d24 1A46     		mov	r2, r3
 1831 0d26 FFF7FEFF 		bl	memcpy
 449:.\EncoreImpl.c ****                                 StoreEepromPage(EEPROM_DISPENSER_PUMP32_TRANSACTION_PAGE);
ARM GAS  C:\Users\RECEPC~1\AppData\Local\Temp\ccMZb0bC.s 			page 41


 1832              		.loc 1 449 0
 1833 0d2a 4FF40460 		mov	r0, #2112
 1834 0d2e FFF7FEFF 		bl	StoreEepromPage
 1835 0d32 14E1     		b	.L50
 1836              	.L49:
 450:.\EncoreImpl.c ****                             }
 451:.\EncoreImpl.c ****                             else
 452:.\EncoreImpl.c ****                             {
 453:.\EncoreImpl.c ****                                 ClearEepromBuffer();
 1837              		.loc 1 453 0
 1838 0d34 FFF7FEFF 		bl	ClearEepromBuffer
 454:.\EncoreImpl.c ****                                 LoadEepromPage(EEPROM_DISPENSER_PUMP4_LAYOUT_PAGE);
 1839              		.loc 1 454 0
 1840 0d38 4FF43070 		mov	r0, #704
 1841 0d3c FFF7FEFF 		bl	LoadEepromPage
 455:.\EncoreImpl.c ****                                 if(GetEepromBuffer()[0] == ((pjob->_ppump->_rxbuffer[0x04] & 0x0F) 
 1842              		.loc 1 455 0
 1843 0d40 FFF7FEFF 		bl	GetEepromBuffer
 1844 0d44 0346     		mov	r3, r0
 1845 0d46 1B78     		ldrb	r3, [r3]	@ zero_extendqisi2
 1846 0d48 1A46     		mov	r2, r3
 1847 0d4a 7B69     		ldr	r3, [r7, #20]
 1848 0d4c DB69     		ldr	r3, [r3, #28]
 1849 0d4e 93F8A431 		ldrb	r3, [r3, #420]	@ zero_extendqisi2
 1850 0d52 03F00F03 		and	r3, r3, #15
 1851 0d56 0133     		adds	r3, r3, #1
 1852 0d58 9A42     		cmp	r2, r3
 1853 0d5a 40F00081 		bne	.L50
 456:.\EncoreImpl.c ****                                 {
 457:.\EncoreImpl.c ****                                     ClearEepromBuffer();
 1854              		.loc 1 457 0
 1855 0d5e FFF7FEFF 		bl	ClearEepromBuffer
 458:.\EncoreImpl.c ****                                     //Storing the current Date/Time for this transaction
 459:.\EncoreImpl.c ****                                     memcpy(GetEepromBuffer(), GetRtcBuffer(), 0x07);
 1856              		.loc 1 459 0
 1857 0d62 FFF7FEFF 		bl	GetEepromBuffer
 1858 0d66 0446     		mov	r4, r0
 1859 0d68 FFF7FEFF 		bl	GetRtcBuffer
 1860 0d6c 0346     		mov	r3, r0
 1861 0d6e 2046     		mov	r0, r4
 1862 0d70 1946     		mov	r1, r3
 1863 0d72 0722     		movs	r2, #7
 1864 0d74 FFF7FEFF 		bl	memcpy
 460:.\EncoreImpl.c ****                                     memcpy(&GetEepromBuffer()[0x07], pjob->_ppump->_rxbuffer, pjob-
 1865              		.loc 1 460 0
 1866 0d78 FFF7FEFF 		bl	GetEepromBuffer
 1867 0d7c 0346     		mov	r3, r0
 1868 0d7e D91D     		adds	r1, r3, #7
 1869 0d80 7B69     		ldr	r3, [r7, #20]
 1870 0d82 DB69     		ldr	r3, [r3, #28]
 1871 0d84 03F5D072 		add	r2, r3, #416
 1872 0d88 7B69     		ldr	r3, [r7, #20]
 1873 0d8a DB69     		ldr	r3, [r3, #28]
 1874 0d8c B3F82033 		ldrh	r3, [r3, #800]
 1875 0d90 0846     		mov	r0, r1
 1876 0d92 1146     		mov	r1, r2
 1877 0d94 1A46     		mov	r2, r3
ARM GAS  C:\Users\RECEPC~1\AppData\Local\Temp\ccMZb0bC.s 			page 42


 1878 0d96 FFF7FEFF 		bl	memcpy
 461:.\EncoreImpl.c ****                                     StoreEepromPage(EEPROM_DISPENSER_PUMP42_TRANSACTION_PAGE);
 1879              		.loc 1 461 0
 1880 0d9a 4FF41460 		mov	r0, #2368
 1881 0d9e FFF7FEFF 		bl	StoreEepromPage
 1882 0da2 DCE0     		b	.L50
 1883              	.L45:
 462:.\EncoreImpl.c ****                                 }
 463:.\EncoreImpl.c ****                             }
 464:.\EncoreImpl.c ****                         }
 465:.\EncoreImpl.c ****                     }
 466:.\EncoreImpl.c ****                 }else{//CREDIT TRANSACTION
 467:.\EncoreImpl.c ****                     //HERE WE STORE THE LAST TRANSACTION IN EEPROM! ALWAYS THE PREVIOUS TRANSACTION
 468:.\EncoreImpl.c ****                     //WILL BE OVERWRITTEN AND LOST.
 469:.\EncoreImpl.c ****                     //IN CASE OF A "CREDIT SALE", THE WHOLE DATA WILL BE STORED IN A SEPARATE MEMOR
 470:.\EncoreImpl.c ****                     //SINCE IN CASE OF A RF LINK DROP, THE STATE OF THE SALE COULD BE RECOVERED BY 
 471:.\EncoreImpl.c ****                     LoadEepromPage(EEPROM_DISPENSER_PUMP1_LAYOUT_PAGE);
 1884              		.loc 1 471 0
 1885 0da4 4FF40070 		mov	r0, #512
 1886 0da8 FFF7FEFF 		bl	LoadEepromPage
 472:.\EncoreImpl.c ****                     if(GetEepromBuffer()[0] == ((pjob->_ppump->_rxbuffer[0x04] & 0x0F) + 1))
 1887              		.loc 1 472 0
 1888 0dac FFF7FEFF 		bl	GetEepromBuffer
 1889 0db0 0346     		mov	r3, r0
 1890 0db2 1B78     		ldrb	r3, [r3]	@ zero_extendqisi2
 1891 0db4 1A46     		mov	r2, r3
 1892 0db6 7B69     		ldr	r3, [r7, #20]
 1893 0db8 DB69     		ldr	r3, [r3, #28]
 1894 0dba 93F8A431 		ldrb	r3, [r3, #420]	@ zero_extendqisi2
 1895 0dbe 03F00F03 		and	r3, r3, #15
 1896 0dc2 0133     		adds	r3, r3, #1
 1897 0dc4 9A42     		cmp	r2, r3
 1898 0dc6 22D1     		bne	.L51
 473:.\EncoreImpl.c ****                     {
 474:.\EncoreImpl.c ****                         ClearEepromBuffer();
 1899              		.loc 1 474 0
 1900 0dc8 FFF7FEFF 		bl	ClearEepromBuffer
 475:.\EncoreImpl.c ****                         //Storing the current Date/Time for this transaction
 476:.\EncoreImpl.c ****                         memcpy(GetEepromBuffer(), GetRtcBuffer(), 0x07);
 1901              		.loc 1 476 0
 1902 0dcc FFF7FEFF 		bl	GetEepromBuffer
 1903 0dd0 0446     		mov	r4, r0
 1904 0dd2 FFF7FEFF 		bl	GetRtcBuffer
 1905 0dd6 0346     		mov	r3, r0
 1906 0dd8 2046     		mov	r0, r4
 1907 0dda 1946     		mov	r1, r3
 1908 0ddc 0722     		movs	r2, #7
 1909 0dde FFF7FEFF 		bl	memcpy
 477:.\EncoreImpl.c ****                         memcpy(&GetEepromBuffer()[0x07], pjob->_ppump->_rxbuffer, pjob->_ppump->_rx
 1910              		.loc 1 477 0
 1911 0de2 FFF7FEFF 		bl	GetEepromBuffer
 1912 0de6 0346     		mov	r3, r0
 1913 0de8 D91D     		adds	r1, r3, #7
 1914 0dea 7B69     		ldr	r3, [r7, #20]
 1915 0dec DB69     		ldr	r3, [r3, #28]
 1916 0dee 03F5D072 		add	r2, r3, #416
 1917 0df2 7B69     		ldr	r3, [r7, #20]
ARM GAS  C:\Users\RECEPC~1\AppData\Local\Temp\ccMZb0bC.s 			page 43


 1918 0df4 DB69     		ldr	r3, [r3, #28]
 1919 0df6 B3F82033 		ldrh	r3, [r3, #800]
 1920 0dfa 0846     		mov	r0, r1
 1921 0dfc 1146     		mov	r1, r2
 1922 0dfe 1A46     		mov	r2, r3
 1923 0e00 FFF7FEFF 		bl	memcpy
 478:.\EncoreImpl.c ****                         StoreEepromPage(EEPROM_DISPENSER_PUMP14_TRANSACTION_PAGE);
 1924              		.loc 1 478 0
 1925 0e04 4FF4D860 		mov	r0, #1728
 1926 0e08 FFF7FEFF 		bl	StoreEepromPage
 1927 0e0c A7E0     		b	.L50
 1928              	.L51:
 479:.\EncoreImpl.c ****                     }
 480:.\EncoreImpl.c ****                     else
 481:.\EncoreImpl.c ****                     {
 482:.\EncoreImpl.c ****                         ClearEepromBuffer();
 1929              		.loc 1 482 0
 1930 0e0e FFF7FEFF 		bl	ClearEepromBuffer
 483:.\EncoreImpl.c ****                         LoadEepromPage(EEPROM_DISPENSER_PUMP2_LAYOUT_PAGE);
 1931              		.loc 1 483 0
 1932 0e12 4FF41070 		mov	r0, #576
 1933 0e16 FFF7FEFF 		bl	LoadEepromPage
 484:.\EncoreImpl.c ****                         if(GetEepromBuffer()[0] == ((pjob->_ppump->_rxbuffer[0x04] & 0x0F) + 1))
 1934              		.loc 1 484 0
 1935 0e1a FFF7FEFF 		bl	GetEepromBuffer
 1936 0e1e 0346     		mov	r3, r0
 1937 0e20 1B78     		ldrb	r3, [r3]	@ zero_extendqisi2
 1938 0e22 1A46     		mov	r2, r3
 1939 0e24 7B69     		ldr	r3, [r7, #20]
 1940 0e26 DB69     		ldr	r3, [r3, #28]
 1941 0e28 93F8A431 		ldrb	r3, [r3, #420]	@ zero_extendqisi2
 1942 0e2c 03F00F03 		and	r3, r3, #15
 1943 0e30 0133     		adds	r3, r3, #1
 1944 0e32 9A42     		cmp	r2, r3
 1945 0e34 26D1     		bne	.L52
 485:.\EncoreImpl.c ****                         {
 486:.\EncoreImpl.c ****                             ClearEepromBuffer();
 1946              		.loc 1 486 0
 1947 0e36 FFF7FEFF 		bl	ClearEepromBuffer
 487:.\EncoreImpl.c ****                             //Storing the current Date/Time for this transaction
 488:.\EncoreImpl.c ****                             memcpy(GetEepromBuffer(), GetRtcBuffer(), 0x07);
 1948              		.loc 1 488 0
 1949 0e3a FFF7FEFF 		bl	GetEepromBuffer
 1950 0e3e 0446     		mov	r4, r0
 1951 0e40 FFF7FEFF 		bl	GetRtcBuffer
 1952 0e44 0346     		mov	r3, r0
 1953 0e46 2046     		mov	r0, r4
 1954 0e48 1946     		mov	r1, r3
 1955 0e4a 0722     		movs	r2, #7
 1956 0e4c FFF7FEFF 		bl	memcpy
 489:.\EncoreImpl.c ****                             memcpy(&GetEepromBuffer()[0x07], pjob->_ppump->_rxbuffer, pjob->_ppump-
 1957              		.loc 1 489 0
 1958 0e50 FFF7FEFF 		bl	GetEepromBuffer
 1959 0e54 0346     		mov	r3, r0
 1960 0e56 D91D     		adds	r1, r3, #7
 1961 0e58 7B69     		ldr	r3, [r7, #20]
 1962 0e5a DB69     		ldr	r3, [r3, #28]
ARM GAS  C:\Users\RECEPC~1\AppData\Local\Temp\ccMZb0bC.s 			page 44


 1963 0e5c 03F5D072 		add	r2, r3, #416
 1964 0e60 7B69     		ldr	r3, [r7, #20]
 1965 0e62 DB69     		ldr	r3, [r3, #28]
 1966 0e64 B3F82033 		ldrh	r3, [r3, #800]
 1967 0e68 0846     		mov	r0, r1
 1968 0e6a 1146     		mov	r1, r2
 1969 0e6c 1A46     		mov	r2, r3
 1970 0e6e FFF7FEFF 		bl	memcpy
 490:.\EncoreImpl.c ****                             StoreEepromPage(EEPROM_DISPENSER_PUMP24_TRANSACTION_PAGE);
 1971              		.loc 1 490 0
 1972 0e72 4FF4F860 		mov	r0, #1984
 1973 0e76 FFF7FEFF 		bl	StoreEepromPage
 1974 0e7a 70E0     		b	.L50
 1975              	.L57:
 1976              		.align	2
 1977              	.L56:
 1978 0e7c 00000000 		.word	_g_dispenserlayoutinfo
 1979 0e80 CDCCCCCC 		.word	-858993459
 1980              	.L52:
 491:.\EncoreImpl.c ****                         }
 492:.\EncoreImpl.c ****                         else
 493:.\EncoreImpl.c ****                         {
 494:.\EncoreImpl.c ****                             ClearEepromBuffer();
 1981              		.loc 1 494 0
 1982 0e84 FFF7FEFF 		bl	ClearEepromBuffer
 495:.\EncoreImpl.c ****                             LoadEepromPage(EEPROM_DISPENSER_PUMP3_LAYOUT_PAGE);
 1983              		.loc 1 495 0
 1984 0e88 4FF42070 		mov	r0, #640
 1985 0e8c FFF7FEFF 		bl	LoadEepromPage
 496:.\EncoreImpl.c ****                             if(GetEepromBuffer()[0] == ((pjob->_ppump->_rxbuffer[0x04] & 0x0F) + 1)
 1986              		.loc 1 496 0
 1987 0e90 FFF7FEFF 		bl	GetEepromBuffer
 1988 0e94 0346     		mov	r3, r0
 1989 0e96 1B78     		ldrb	r3, [r3]	@ zero_extendqisi2
 1990 0e98 1A46     		mov	r2, r3
 1991 0e9a 7B69     		ldr	r3, [r7, #20]
 1992 0e9c DB69     		ldr	r3, [r3, #28]
 1993 0e9e 93F8A431 		ldrb	r3, [r3, #420]	@ zero_extendqisi2
 1994 0ea2 03F00F03 		and	r3, r3, #15
 1995 0ea6 0133     		adds	r3, r3, #1
 1996 0ea8 9A42     		cmp	r2, r3
 1997 0eaa 22D1     		bne	.L53
 497:.\EncoreImpl.c ****                             {
 498:.\EncoreImpl.c ****                                 ClearEepromBuffer();
 1998              		.loc 1 498 0
 1999 0eac FFF7FEFF 		bl	ClearEepromBuffer
 499:.\EncoreImpl.c ****                                 //Storing the current Date/Time for this transaction
 500:.\EncoreImpl.c ****                                 memcpy(GetEepromBuffer(), GetRtcBuffer(), 0x07);
 2000              		.loc 1 500 0
 2001 0eb0 FFF7FEFF 		bl	GetEepromBuffer
 2002 0eb4 0446     		mov	r4, r0
 2003 0eb6 FFF7FEFF 		bl	GetRtcBuffer
 2004 0eba 0346     		mov	r3, r0
 2005 0ebc 2046     		mov	r0, r4
 2006 0ebe 1946     		mov	r1, r3
 2007 0ec0 0722     		movs	r2, #7
 2008 0ec2 FFF7FEFF 		bl	memcpy
ARM GAS  C:\Users\RECEPC~1\AppData\Local\Temp\ccMZb0bC.s 			page 45


 501:.\EncoreImpl.c ****                                 memcpy(&GetEepromBuffer()[0x07], pjob->_ppump->_rxbuffer, pjob->_pp
 2009              		.loc 1 501 0
 2010 0ec6 FFF7FEFF 		bl	GetEepromBuffer
 2011 0eca 0346     		mov	r3, r0
 2012 0ecc D91D     		adds	r1, r3, #7
 2013 0ece 7B69     		ldr	r3, [r7, #20]
 2014 0ed0 DB69     		ldr	r3, [r3, #28]
 2015 0ed2 03F5D072 		add	r2, r3, #416
 2016 0ed6 7B69     		ldr	r3, [r7, #20]
 2017 0ed8 DB69     		ldr	r3, [r3, #28]
 2018 0eda B3F82033 		ldrh	r3, [r3, #800]
 2019 0ede 0846     		mov	r0, r1
 2020 0ee0 1146     		mov	r1, r2
 2021 0ee2 1A46     		mov	r2, r3
 2022 0ee4 FFF7FEFF 		bl	memcpy
 502:.\EncoreImpl.c ****                                 StoreEepromPage(EEPROM_DISPENSER_PUMP34_TRANSACTION_PAGE);
 2023              		.loc 1 502 0
 2024 0ee8 4FF40C60 		mov	r0, #2240
 2025 0eec FFF7FEFF 		bl	StoreEepromPage
 2026 0ef0 35E0     		b	.L50
 2027              	.L53:
 503:.\EncoreImpl.c ****                             }
 504:.\EncoreImpl.c ****                             else
 505:.\EncoreImpl.c ****                             {
 506:.\EncoreImpl.c ****                                 ClearEepromBuffer();
 2028              		.loc 1 506 0
 2029 0ef2 FFF7FEFF 		bl	ClearEepromBuffer
 507:.\EncoreImpl.c ****                                 LoadEepromPage(EEPROM_DISPENSER_PUMP4_LAYOUT_PAGE);
 2030              		.loc 1 507 0
 2031 0ef6 4FF43070 		mov	r0, #704
 2032 0efa FFF7FEFF 		bl	LoadEepromPage
 508:.\EncoreImpl.c ****                                 if(GetEepromBuffer()[0] == ((pjob->_ppump->_rxbuffer[0x04] & 0x0F) 
 2033              		.loc 1 508 0
 2034 0efe FFF7FEFF 		bl	GetEepromBuffer
 2035 0f02 0346     		mov	r3, r0
 2036 0f04 1B78     		ldrb	r3, [r3]	@ zero_extendqisi2
 2037 0f06 1A46     		mov	r2, r3
 2038 0f08 7B69     		ldr	r3, [r7, #20]
 2039 0f0a DB69     		ldr	r3, [r3, #28]
 2040 0f0c 93F8A431 		ldrb	r3, [r3, #420]	@ zero_extendqisi2
 2041 0f10 03F00F03 		and	r3, r3, #15
 2042 0f14 0133     		adds	r3, r3, #1
 2043 0f16 9A42     		cmp	r2, r3
 2044 0f18 21D1     		bne	.L50
 509:.\EncoreImpl.c ****                                 {
 510:.\EncoreImpl.c ****                                     ClearEepromBuffer();
 2045              		.loc 1 510 0
 2046 0f1a FFF7FEFF 		bl	ClearEepromBuffer
 511:.\EncoreImpl.c ****                                     //Storing the current Date/Time for this transaction
 512:.\EncoreImpl.c ****                                     memcpy(GetEepromBuffer(), GetRtcBuffer(), 0x07);
 2047              		.loc 1 512 0
 2048 0f1e FFF7FEFF 		bl	GetEepromBuffer
 2049 0f22 0446     		mov	r4, r0
 2050 0f24 FFF7FEFF 		bl	GetRtcBuffer
 2051 0f28 0346     		mov	r3, r0
 2052 0f2a 2046     		mov	r0, r4
 2053 0f2c 1946     		mov	r1, r3
ARM GAS  C:\Users\RECEPC~1\AppData\Local\Temp\ccMZb0bC.s 			page 46


 2054 0f2e 0722     		movs	r2, #7
 2055 0f30 FFF7FEFF 		bl	memcpy
 513:.\EncoreImpl.c ****                                     memcpy(&GetEepromBuffer()[0x07], pjob->_ppump->_rxbuffer, pjob-
 2056              		.loc 1 513 0
 2057 0f34 FFF7FEFF 		bl	GetEepromBuffer
 2058 0f38 0346     		mov	r3, r0
 2059 0f3a D91D     		adds	r1, r3, #7
 2060 0f3c 7B69     		ldr	r3, [r7, #20]
 2061 0f3e DB69     		ldr	r3, [r3, #28]
 2062 0f40 03F5D072 		add	r2, r3, #416
 2063 0f44 7B69     		ldr	r3, [r7, #20]
 2064 0f46 DB69     		ldr	r3, [r3, #28]
 2065 0f48 B3F82033 		ldrh	r3, [r3, #800]
 2066 0f4c 0846     		mov	r0, r1
 2067 0f4e 1146     		mov	r1, r2
 2068 0f50 1A46     		mov	r2, r3
 2069 0f52 FFF7FEFF 		bl	memcpy
 514:.\EncoreImpl.c ****                                     StoreEepromPage(EEPROM_DISPENSER_PUMP44_TRANSACTION_PAGE);
 2070              		.loc 1 514 0
 2071 0f56 4FF41C60 		mov	r0, #2496
 2072 0f5a FFF7FEFF 		bl	StoreEepromPage
 2073              	.L50:
 515:.\EncoreImpl.c ****                                 }
 516:.\EncoreImpl.c ****                             }
 517:.\EncoreImpl.c ****                         }
 518:.\EncoreImpl.c ****                     }
 519:.\EncoreImpl.c ****                 }
 520:.\EncoreImpl.c ****                 I2CBusUnlock();
 2074              		.loc 1 520 0
 2075 0f5e FFF7FEFF 		bl	I2CBusUnlock
 2076              	.L34:
 521:.\EncoreImpl.c ****             }
 522:.\EncoreImpl.c ****                 
 523:.\EncoreImpl.c ****             //HERE WE ATTEMPT TO PUSH THE TRANSACTION INTO THE PUMP'S TRANSACTIONAL QUEUE.
 524:.\EncoreImpl.c ****             //THIS IS DONE ONLY IF THERE IS ROOM IN THE QUEUE, OTHERWISE THIS STATE WON'T
 525:.\EncoreImpl.c ****             //BE REPORTED TO THE REMOTE PEER.
 526:.\EncoreImpl.c ****             pjob->_ppump->PumpTransQueueLock(pjob->_ppump);
 2077              		.loc 1 526 0
 2078 0f62 7B69     		ldr	r3, [r7, #20]
 2079 0f64 DB69     		ldr	r3, [r3, #28]
 2080 0f66 D3F8443B 		ldr	r3, [r3, #2884]
 2081 0f6a 7A69     		ldr	r2, [r7, #20]
 2082 0f6c D269     		ldr	r2, [r2, #28]
 2083 0f6e 1046     		mov	r0, r2
 2084 0f70 9847     		blx	r3
 527:.\EncoreImpl.c ****             PNEAR_PUMPTRANSACTIONALSTATEPTR pts = pjob->_ppump->PumpTransQueueAllocate(pjob->_ppump
 2085              		.loc 1 527 0
 2086 0f72 7B69     		ldr	r3, [r7, #20]
 2087 0f74 DB69     		ldr	r3, [r3, #28]
 2088 0f76 D3F8583B 		ldr	r3, [r3, #2904]
 2089 0f7a 7A69     		ldr	r2, [r7, #20]
 2090 0f7c D269     		ldr	r2, [r2, #28]
 2091 0f7e 1046     		mov	r0, r2
 2092 0f80 9847     		blx	r3
 2093 0f82 B860     		str	r0, [r7, #8]
 528:.\EncoreImpl.c ****             pjob->_ppump->PumpTransQueueUnlock(pjob->_ppump);
 2094              		.loc 1 528 0
ARM GAS  C:\Users\RECEPC~1\AppData\Local\Temp\ccMZb0bC.s 			page 47


 2095 0f84 7B69     		ldr	r3, [r7, #20]
 2096 0f86 DB69     		ldr	r3, [r3, #28]
 2097 0f88 D3F8483B 		ldr	r3, [r3, #2888]
 2098 0f8c 7A69     		ldr	r2, [r7, #20]
 2099 0f8e D269     		ldr	r2, [r2, #28]
 2100 0f90 1046     		mov	r0, r2
 2101 0f92 9847     		blx	r3
 529:.\EncoreImpl.c ****             if(pts)
 2102              		.loc 1 529 0
 2103 0f94 BB68     		ldr	r3, [r7, #8]
 2104 0f96 002B     		cmp	r3, #0
 2105 0f98 31D0     		beq	.L13
 530:.\EncoreImpl.c ****             {
 531:.\EncoreImpl.c ****                 pts->_transtate = RF_MUX_CASH_SALE_END_REPORT_RESPONSE;
 2106              		.loc 1 531 0
 2107 0f9a BB68     		ldr	r3, [r7, #8]
 2108 0f9c A422     		movs	r2, #164
 2109 0f9e 5A70     		strb	r2, [r3, #1]
 532:.\EncoreImpl.c ****                 memcpy(pts->_buffer, pjob->_ppump->_rxbuffer, pjob->_ppump->_rxbuffersize);
 2110              		.loc 1 532 0
 2111 0fa0 BB68     		ldr	r3, [r7, #8]
 2112 0fa2 991C     		adds	r1, r3, #2
 2113 0fa4 7B69     		ldr	r3, [r7, #20]
 2114 0fa6 DB69     		ldr	r3, [r3, #28]
 2115 0fa8 03F5D072 		add	r2, r3, #416
 2116 0fac 7B69     		ldr	r3, [r7, #20]
 2117 0fae DB69     		ldr	r3, [r3, #28]
 2118 0fb0 B3F82033 		ldrh	r3, [r3, #800]
 2119 0fb4 0846     		mov	r0, r1
 2120 0fb6 1146     		mov	r1, r2
 2121 0fb8 1A46     		mov	r2, r3
 2122 0fba FFF7FEFF 		bl	memcpy
 533:.\EncoreImpl.c ****                 pts->_buffersize = pjob->_ppump->_rxbuffersize;
 2123              		.loc 1 533 0
 2124 0fbe 7B69     		ldr	r3, [r7, #20]
 2125 0fc0 DB69     		ldr	r3, [r3, #28]
 2126 0fc2 B3F82023 		ldrh	r2, [r3, #800]
 2127 0fc6 BB68     		ldr	r3, [r7, #8]
 2128 0fc8 A3F80221 		strh	r2, [r3, #258]	@ movhi
 534:.\EncoreImpl.c ****                 
 535:.\EncoreImpl.c ****                 pjob->_ppump->PumpTransQueueLock(pjob->_ppump);
 2129              		.loc 1 535 0
 2130 0fcc 7B69     		ldr	r3, [r7, #20]
 2131 0fce DB69     		ldr	r3, [r3, #28]
 2132 0fd0 D3F8443B 		ldr	r3, [r3, #2884]
 2133 0fd4 7A69     		ldr	r2, [r7, #20]
 2134 0fd6 D269     		ldr	r2, [r2, #28]
 2135 0fd8 1046     		mov	r0, r2
 2136 0fda 9847     		blx	r3
 536:.\EncoreImpl.c ****                 pjob->_ppump->PumpTransQueueEnqueue(pjob->_ppump, pts);
 2137              		.loc 1 536 0
 2138 0fdc 7B69     		ldr	r3, [r7, #20]
 2139 0fde DB69     		ldr	r3, [r3, #28]
 2140 0fe0 D3F8503B 		ldr	r3, [r3, #2896]
 2141 0fe4 7A69     		ldr	r2, [r7, #20]
 2142 0fe6 D269     		ldr	r2, [r2, #28]
 2143 0fe8 1046     		mov	r0, r2
ARM GAS  C:\Users\RECEPC~1\AppData\Local\Temp\ccMZb0bC.s 			page 48


 2144 0fea B968     		ldr	r1, [r7, #8]
 2145 0fec 9847     		blx	r3
 537:.\EncoreImpl.c ****                 pjob->_ppump->PumpTransQueueUnlock(pjob->_ppump);
 2146              		.loc 1 537 0
 2147 0fee 7B69     		ldr	r3, [r7, #20]
 2148 0ff0 DB69     		ldr	r3, [r3, #28]
 2149 0ff2 D3F8483B 		ldr	r3, [r3, #2888]
 2150 0ff6 7A69     		ldr	r2, [r7, #20]
 2151 0ff8 D269     		ldr	r2, [r2, #28]
 2152 0ffa 1046     		mov	r0, r2
 2153 0ffc 9847     		blx	r3
 2154              	.L13:
 2155              	.LBE3:
 538:.\EncoreImpl.c ****             }
 539:.\EncoreImpl.c ****             
 540:.\EncoreImpl.c ****         }  
 541:.\EncoreImpl.c ****     }
 542:.\EncoreImpl.c **** }
 2156              		.loc 1 542 0
 2157 0ffe 1837     		adds	r7, r7, #24
 2158              		.cfi_def_cfa_offset 24
 2159 1000 BD46     		mov	sp, r7
 2160              		.cfi_def_cfa_register 13
 2161              		@ sp needed
 2162 1002 BDE8B083 		pop	{r4, r5, r7, r8, r9, pc}
 2163              		.cfi_endproc
 2164              	.LFE66:
 2165              		.size	ProcessPumpTransactionData, .-ProcessPumpTransactionData
 2166 1006 00BF     		.section	.text.ProcessPumpTotalsDataReport,"ax",%progbits
 2167              		.align	2
 2168              		.global	ProcessPumpTotalsDataReport
 2169              		.thumb
 2170              		.thumb_func
 2171              		.type	ProcessPumpTotalsDataReport, %function
 2172              	ProcessPumpTotalsDataReport:
 2173              	.LFB67:
 543:.\EncoreImpl.c **** 
 544:.\EncoreImpl.c **** //@Created By: HIJH
 545:.\EncoreImpl.c **** //@Septembre de 2016
 546:.\EncoreImpl.c **** void ProcessPumpTotalsDataReport(void *pparam)
 547:.\EncoreImpl.c **** {
 2174              		.loc 1 547 0
 2175              		.cfi_startproc
 2176              		@ args = 0, pretend = 0, frame = 24
 2177              		@ frame_needed = 1, uses_anonymous_args = 0
 2178 0000 80B5     		push	{r7, lr}
 2179              		.cfi_def_cfa_offset 8
 2180              		.cfi_offset 7, -8
 2181              		.cfi_offset 14, -4
 2182 0002 86B0     		sub	sp, sp, #24
 2183              		.cfi_def_cfa_offset 32
 2184 0004 00AF     		add	r7, sp, #0
 2185              		.cfi_def_cfa_register 7
 2186 0006 7860     		str	r0, [r7, #4]
 548:.\EncoreImpl.c ****     PPUMPTRANSACTIONJOBCONTEXTPTR pjob = (PPUMPTRANSACTIONJOBCONTEXTPTR)pparam;
 2187              		.loc 1 548 0
 2188 0008 7B68     		ldr	r3, [r7, #4]
ARM GAS  C:\Users\RECEPC~1\AppData\Local\Temp\ccMZb0bC.s 			page 49


 2189 000a 7B61     		str	r3, [r7, #20]
 549:.\EncoreImpl.c ****     if(pjob)
 2190              		.loc 1 549 0
 2191 000c 7B69     		ldr	r3, [r7, #20]
 2192 000e 002B     		cmp	r3, #0
 2193 0010 00F0C180 		beq	.L58
 2194              	.LBB6:
 550:.\EncoreImpl.c ****     {
 551:.\EncoreImpl.c ****         bool dataok = true;
 2195              		.loc 1 551 0
 2196 0014 0123     		movs	r3, #1
 2197 0016 FB74     		strb	r3, [r7, #19]
 552:.\EncoreImpl.c ****         uint8 numhoses = 0x00;
 2198              		.loc 1 552 0
 2199 0018 0023     		movs	r3, #0
 2200 001a BB74     		strb	r3, [r7, #18]
 553:.\EncoreImpl.c ****         switch(pjob->_ppump->_pumpindex)
 2201              		.loc 1 553 0
 2202 001c 7B69     		ldr	r3, [r7, #20]
 2203 001e DB69     		ldr	r3, [r3, #28]
 2204 0020 5B78     		ldrb	r3, [r3, #1]	@ zero_extendqisi2
 2205 0022 002B     		cmp	r3, #0
 2206 0024 02D0     		beq	.L61
 2207 0026 012B     		cmp	r3, #1
 2208 0028 04D0     		beq	.L62
 2209 002a 07E0     		b	.L60
 2210              	.L61:
 554:.\EncoreImpl.c ****         {
 555:.\EncoreImpl.c ****             case 0x00:
 556:.\EncoreImpl.c ****             {
 557:.\EncoreImpl.c ****                 numhoses = _g_dispenserlayoutinfo._hosesposition1;
 2211              		.loc 1 557 0
 2212 002c 5B4B     		ldr	r3, .L66
 2213 002e DB78     		ldrb	r3, [r3, #3]
 2214 0030 BB74     		strb	r3, [r7, #18]
 558:.\EncoreImpl.c ****                 break;
 2215              		.loc 1 558 0
 2216 0032 03E0     		b	.L60
 2217              	.L62:
 559:.\EncoreImpl.c ****             }
 560:.\EncoreImpl.c ****             case 0x01:
 561:.\EncoreImpl.c ****             {
 562:.\EncoreImpl.c ****                 numhoses = _g_dispenserlayoutinfo._hosesposition2;
 2218              		.loc 1 562 0
 2219 0034 594B     		ldr	r3, .L66
 2220 0036 1B79     		ldrb	r3, [r3, #4]
 2221 0038 BB74     		strb	r3, [r7, #18]
 563:.\EncoreImpl.c ****                 break;
 2222              		.loc 1 563 0
 2223 003a 00BF     		nop
 2224              	.L60:
 564:.\EncoreImpl.c ****             }
 565:.\EncoreImpl.c ****         }
 566:.\EncoreImpl.c ****         
 567:.\EncoreImpl.c ****         pjob->_reenqueue = false;
 2225              		.loc 1 567 0
 2226 003c 7B69     		ldr	r3, [r7, #20]
ARM GAS  C:\Users\RECEPC~1\AppData\Local\Temp\ccMZb0bC.s 			page 50


 2227 003e 0022     		movs	r2, #0
 2228 0040 1A70     		strb	r2, [r3]
 568:.\EncoreImpl.c ****         
 569:.\EncoreImpl.c ****         pjob->_ppump->PumpTransQueueLock(pjob->_ppump);
 2229              		.loc 1 569 0
 2230 0042 7B69     		ldr	r3, [r7, #20]
 2231 0044 DB69     		ldr	r3, [r3, #28]
 2232 0046 D3F8443B 		ldr	r3, [r3, #2884]
 2233 004a 7A69     		ldr	r2, [r7, #20]
 2234 004c D269     		ldr	r2, [r2, #28]
 2235 004e 1046     		mov	r0, r2
 2236 0050 9847     		blx	r3
 570:.\EncoreImpl.c ****         bool transtatefound = pjob->_ppump->PumpTransQueueFind(pjob->_ppump, RF_MUX_TOTALS_REPORT_R
 2237              		.loc 1 570 0
 2238 0052 7B69     		ldr	r3, [r7, #20]
 2239 0054 DB69     		ldr	r3, [r3, #28]
 2240 0056 D3F84C3B 		ldr	r3, [r3, #2892]
 2241 005a 7A69     		ldr	r2, [r7, #20]
 2242 005c D269     		ldr	r2, [r2, #28]
 2243 005e 1046     		mov	r0, r2
 2244 0060 E821     		movs	r1, #232
 2245 0062 9847     		blx	r3
 2246 0064 0346     		mov	r3, r0
 2247 0066 7B74     		strb	r3, [r7, #17]
 571:.\EncoreImpl.c ****         PNEAR_PUMPTRANSACTIONALSTATEPTR pts = pjob->_ppump->PumpTransQueueAllocate(pjob->_ppump);
 2248              		.loc 1 571 0
 2249 0068 7B69     		ldr	r3, [r7, #20]
 2250 006a DB69     		ldr	r3, [r3, #28]
 2251 006c D3F8583B 		ldr	r3, [r3, #2904]
 2252 0070 7A69     		ldr	r2, [r7, #20]
 2253 0072 D269     		ldr	r2, [r2, #28]
 2254 0074 1046     		mov	r0, r2
 2255 0076 9847     		blx	r3
 2256 0078 F860     		str	r0, [r7, #12]
 572:.\EncoreImpl.c ****         PNEAR_PUMPTRANSACTIONALSTATEPTR ptstemp = pjob->_ppump->PumpTransQueueAllocate(pjob->_ppump
 2257              		.loc 1 572 0
 2258 007a 7B69     		ldr	r3, [r7, #20]
 2259 007c DB69     		ldr	r3, [r3, #28]
 2260 007e D3F8583B 		ldr	r3, [r3, #2904]
 2261 0082 7A69     		ldr	r2, [r7, #20]
 2262 0084 D269     		ldr	r2, [r2, #28]
 2263 0086 1046     		mov	r0, r2
 2264 0088 9847     		blx	r3
 2265 008a B860     		str	r0, [r7, #8]
 573:.\EncoreImpl.c ****         
 574:.\EncoreImpl.c ****         pjob->_ppump->PumpTransQueueUnlock(pjob->_ppump);
 2266              		.loc 1 574 0
 2267 008c 7B69     		ldr	r3, [r7, #20]
 2268 008e DB69     		ldr	r3, [r3, #28]
 2269 0090 D3F8483B 		ldr	r3, [r3, #2888]
 2270 0094 7A69     		ldr	r2, [r7, #20]
 2271 0096 D269     		ldr	r2, [r2, #28]
 2272 0098 1046     		mov	r0, r2
 2273 009a 9847     		blx	r3
 575:.\EncoreImpl.c ****         if(ptstemp)
 2274              		.loc 1 575 0
 2275 009c BB68     		ldr	r3, [r7, #8]
ARM GAS  C:\Users\RECEPC~1\AppData\Local\Temp\ccMZb0bC.s 			page 51


 2276 009e 002B     		cmp	r3, #0
 2277 00a0 68D0     		beq	.L63
 576:.\EncoreImpl.c ****         {
 577:.\EncoreImpl.c ****             if(pts && !transtatefound)
 2278              		.loc 1 577 0
 2279 00a2 FB68     		ldr	r3, [r7, #12]
 2280 00a4 002B     		cmp	r3, #0
 2281 00a6 41D0     		beq	.L64
 2282              		.loc 1 577 0 is_stmt 0 discriminator 1
 2283 00a8 7B7C     		ldrb	r3, [r7, #17]
 2284 00aa 83F00103 		eor	r3, r3, #1
 2285 00ae DBB2     		uxtb	r3, r3
 2286 00b0 002B     		cmp	r3, #0
 2287 00b2 3BD0     		beq	.L64
 578:.\EncoreImpl.c ****             {
 579:.\EncoreImpl.c ****                 pts->_transtate = RF_MUX_TOTALS_REPORT_RESPONSE;
 2288              		.loc 1 579 0 is_stmt 1
 2289 00b4 FB68     		ldr	r3, [r7, #12]
 2290 00b6 E822     		movs	r2, #232
 2291 00b8 5A70     		strb	r2, [r3, #1]
 580:.\EncoreImpl.c ****                 
 581:.\EncoreImpl.c ****                 memcpy(pts->_buffer, pjob->_ppump->_rxbuffer, pjob->_ppump->_rxbuffersize);
 2292              		.loc 1 581 0
 2293 00ba FB68     		ldr	r3, [r7, #12]
 2294 00bc 991C     		adds	r1, r3, #2
 2295 00be 7B69     		ldr	r3, [r7, #20]
 2296 00c0 DB69     		ldr	r3, [r3, #28]
 2297 00c2 03F5D072 		add	r2, r3, #416
 2298 00c6 7B69     		ldr	r3, [r7, #20]
 2299 00c8 DB69     		ldr	r3, [r3, #28]
 2300 00ca B3F82033 		ldrh	r3, [r3, #800]
 2301 00ce 0846     		mov	r0, r1
 2302 00d0 1146     		mov	r1, r2
 2303 00d2 1A46     		mov	r2, r3
 2304 00d4 FFF7FEFF 		bl	memcpy
 582:.\EncoreImpl.c ****                 pts->_buffersize = pjob->_ppump->_rxbuffersize;
 2305              		.loc 1 582 0
 2306 00d8 7B69     		ldr	r3, [r7, #20]
 2307 00da DB69     		ldr	r3, [r3, #28]
 2308 00dc B3F82023 		ldrh	r2, [r3, #800]
 2309 00e0 FB68     		ldr	r3, [r7, #12]
 2310 00e2 A3F80221 		strh	r2, [r3, #258]	@ movhi
 583:.\EncoreImpl.c ****                 
 584:.\EncoreImpl.c ****                 pjob->_ppump->PumpTransQueueDeallocate(pjob->_ppump,ptstemp);
 2311              		.loc 1 584 0
 2312 00e6 7B69     		ldr	r3, [r7, #20]
 2313 00e8 DB69     		ldr	r3, [r3, #28]
 2314 00ea D3F8543B 		ldr	r3, [r3, #2900]
 2315 00ee 7A69     		ldr	r2, [r7, #20]
 2316 00f0 D269     		ldr	r2, [r2, #28]
 2317 00f2 1046     		mov	r0, r2
 2318 00f4 B968     		ldr	r1, [r7, #8]
 2319 00f6 9847     		blx	r3
 585:.\EncoreImpl.c ****                 pjob->_ppump->PumpTransQueueLock(pjob->_ppump);
 2320              		.loc 1 585 0
 2321 00f8 7B69     		ldr	r3, [r7, #20]
 2322 00fa DB69     		ldr	r3, [r3, #28]
ARM GAS  C:\Users\RECEPC~1\AppData\Local\Temp\ccMZb0bC.s 			page 52


 2323 00fc D3F8443B 		ldr	r3, [r3, #2884]
 2324 0100 7A69     		ldr	r2, [r7, #20]
 2325 0102 D269     		ldr	r2, [r2, #28]
 2326 0104 1046     		mov	r0, r2
 2327 0106 9847     		blx	r3
 586:.\EncoreImpl.c ****                 pjob->_ppump->PumpTransQueueEnqueue(pjob->_ppump, pts);
 2328              		.loc 1 586 0
 2329 0108 7B69     		ldr	r3, [r7, #20]
 2330 010a DB69     		ldr	r3, [r3, #28]
 2331 010c D3F8503B 		ldr	r3, [r3, #2896]
 2332 0110 7A69     		ldr	r2, [r7, #20]
 2333 0112 D269     		ldr	r2, [r2, #28]
 2334 0114 1046     		mov	r0, r2
 2335 0116 F968     		ldr	r1, [r7, #12]
 2336 0118 9847     		blx	r3
 587:.\EncoreImpl.c ****                 pjob->_ppump->PumpTransQueueUnlock(pjob->_ppump);
 2337              		.loc 1 587 0
 2338 011a 7B69     		ldr	r3, [r7, #20]
 2339 011c DB69     		ldr	r3, [r3, #28]
 2340 011e D3F8483B 		ldr	r3, [r3, #2888]
 2341 0122 7A69     		ldr	r2, [r7, #20]
 2342 0124 D269     		ldr	r2, [r2, #28]
 2343 0126 1046     		mov	r0, r2
 2344 0128 9847     		blx	r3
 2345 012a 18E0     		b	.L65
 2346              	.L64:
 588:.\EncoreImpl.c ****             }
 589:.\EncoreImpl.c ****             else
 590:.\EncoreImpl.c ****             {
 591:.\EncoreImpl.c ****                 pjob->_ppump->PumpTransQueueLock(pjob->_ppump);
 2347              		.loc 1 591 0
 2348 012c 7B69     		ldr	r3, [r7, #20]
 2349 012e DB69     		ldr	r3, [r3, #28]
 2350 0130 D3F8443B 		ldr	r3, [r3, #2884]
 2351 0134 7A69     		ldr	r2, [r7, #20]
 2352 0136 D269     		ldr	r2, [r2, #28]
 2353 0138 1046     		mov	r0, r2
 2354 013a 9847     		blx	r3
 592:.\EncoreImpl.c ****                 pjob->_ppump->PumpTransQueueDeallocate(pjob->_ppump, pts);
 2355              		.loc 1 592 0
 2356 013c 7B69     		ldr	r3, [r7, #20]
 2357 013e DB69     		ldr	r3, [r3, #28]
 2358 0140 D3F8543B 		ldr	r3, [r3, #2900]
 2359 0144 7A69     		ldr	r2, [r7, #20]
 2360 0146 D269     		ldr	r2, [r2, #28]
 2361 0148 1046     		mov	r0, r2
 2362 014a F968     		ldr	r1, [r7, #12]
 2363 014c 9847     		blx	r3
 593:.\EncoreImpl.c ****                 pjob->_ppump->PumpTransQueueUnlock(pjob->_ppump);
 2364              		.loc 1 593 0
 2365 014e 7B69     		ldr	r3, [r7, #20]
 2366 0150 DB69     		ldr	r3, [r3, #28]
 2367 0152 D3F8483B 		ldr	r3, [r3, #2888]
 2368 0156 7A69     		ldr	r2, [r7, #20]
 2369 0158 D269     		ldr	r2, [r2, #28]
 2370 015a 1046     		mov	r0, r2
 2371 015c 9847     		blx	r3
ARM GAS  C:\Users\RECEPC~1\AppData\Local\Temp\ccMZb0bC.s 			page 53


 2372              	.L65:
 594:.\EncoreImpl.c ****             }
 595:.\EncoreImpl.c ****             memset(pjob->_ppump->_rxbuffer, 0x00, _PUMP_RX_BUFFER_SIZE_);
 2373              		.loc 1 595 0
 2374 015e 7B69     		ldr	r3, [r7, #20]
 2375 0160 DB69     		ldr	r3, [r3, #28]
 2376 0162 03F5D073 		add	r3, r3, #416
 2377 0166 1846     		mov	r0, r3
 2378 0168 0021     		movs	r1, #0
 2379 016a 4FF4C072 		mov	r2, #384
 2380 016e FFF7FEFF 		bl	memset
 2381 0172 10E0     		b	.L58
 2382              	.L63:
 596:.\EncoreImpl.c ****         }else{
 597:.\EncoreImpl.c ****             pjob->_ppump->PumpTransQueueDeallocate(pjob->_ppump, pts);
 2383              		.loc 1 597 0
 2384 0174 7B69     		ldr	r3, [r7, #20]
 2385 0176 DB69     		ldr	r3, [r3, #28]
 2386 0178 D3F8543B 		ldr	r3, [r3, #2900]
 2387 017c 7A69     		ldr	r2, [r7, #20]
 2388 017e D269     		ldr	r2, [r2, #28]
 2389 0180 1046     		mov	r0, r2
 2390 0182 F968     		ldr	r1, [r7, #12]
 2391 0184 9847     		blx	r3
 598:.\EncoreImpl.c ****             pjob->_ppump->PumpTransQueueUnlock(pjob->_ppump);
 2392              		.loc 1 598 0
 2393 0186 7B69     		ldr	r3, [r7, #20]
 2394 0188 DB69     		ldr	r3, [r3, #28]
 2395 018a D3F8483B 		ldr	r3, [r3, #2888]
 2396 018e 7A69     		ldr	r2, [r7, #20]
 2397 0190 D269     		ldr	r2, [r2, #28]
 2398 0192 1046     		mov	r0, r2
 2399 0194 9847     		blx	r3
 2400              	.L58:
 2401              	.LBE6:
 599:.\EncoreImpl.c ****         }
 600:.\EncoreImpl.c ****     }
 601:.\EncoreImpl.c **** }
 2402              		.loc 1 601 0
 2403 0196 1837     		adds	r7, r7, #24
 2404              		.cfi_def_cfa_offset 8
 2405 0198 BD46     		mov	sp, r7
 2406              		.cfi_def_cfa_register 13
 2407              		@ sp needed
 2408 019a 80BD     		pop	{r7, pc}
 2409              	.L67:
 2410              		.align	2
 2411              	.L66:
 2412 019c 00000000 		.word	_g_dispenserlayoutinfo
 2413              		.cfi_endproc
 2414              	.LFE67:
 2415              		.size	ProcessPumpTotalsDataReport, .-ProcessPumpTotalsDataReport
 2416              		.section	.text.ProcessPumpTotalsDataPpuCheck,"ax",%progbits
 2417              		.align	2
 2418              		.global	ProcessPumpTotalsDataPpuCheck
 2419              		.thumb
 2420              		.thumb_func
ARM GAS  C:\Users\RECEPC~1\AppData\Local\Temp\ccMZb0bC.s 			page 54


 2421              		.type	ProcessPumpTotalsDataPpuCheck, %function
 2422              	ProcessPumpTotalsDataPpuCheck:
 2423              	.LFB68:
 602:.\EncoreImpl.c **** 
 603:.\EncoreImpl.c **** //@Created By: HIJH
 604:.\EncoreImpl.c **** //@Septembre de 2016
 605:.\EncoreImpl.c **** void ProcessPumpTotalsDataPpuCheck(void *pparam)
 606:.\EncoreImpl.c **** {
 2424              		.loc 1 606 0
 2425              		.cfi_startproc
 2426              		@ args = 0, pretend = 0, frame = 16
 2427              		@ frame_needed = 1, uses_anonymous_args = 0
 2428 0000 80B5     		push	{r7, lr}
 2429              		.cfi_def_cfa_offset 8
 2430              		.cfi_offset 7, -8
 2431              		.cfi_offset 14, -4
 2432 0002 84B0     		sub	sp, sp, #16
 2433              		.cfi_def_cfa_offset 24
 2434 0004 00AF     		add	r7, sp, #0
 2435              		.cfi_def_cfa_register 7
 2436 0006 7860     		str	r0, [r7, #4]
 607:.\EncoreImpl.c ****     PPUMPTRANSACTIONJOBCONTEXTPTR pjob = (PPUMPTRANSACTIONJOBCONTEXTPTR)pparam;
 2437              		.loc 1 607 0
 2438 0008 7B68     		ldr	r3, [r7, #4]
 2439 000a FB60     		str	r3, [r7, #12]
 608:.\EncoreImpl.c ****     if(pjob)
 2440              		.loc 1 608 0
 2441 000c FB68     		ldr	r3, [r7, #12]
 2442 000e 002B     		cmp	r3, #0
 2443 0010 09D0     		beq	.L68
 609:.\EncoreImpl.c ****     {
 610:.\EncoreImpl.c **** /*        
 611:.\EncoreImpl.c ****         
 612:.\EncoreImpl.c ****         PNEAR_PUMPTRANSACTIONALSTATEPTR pts = pjob->_ppump->PumpTransQueueAllocate(pjob->_ppump);
 613:.\EncoreImpl.c ****         if(pts)
 614:.\EncoreImpl.c ****         {
 615:.\EncoreImpl.c ****             pts->_transtate = _PUMP_POSITION_TRANSREPORT_;
 616:.\EncoreImpl.c ****             memcpy(pts->_buffer, pjob->_ppump->_rxbuffer, pjob->_ppump->_rxbuffersize);
 617:.\EncoreImpl.c ****             pts->_buffersize = pjob->_ppump->_rxbuffersize;
 618:.\EncoreImpl.c ****         }
 619:.\EncoreImpl.c ****         
 620:.\EncoreImpl.c ****         
 621:.\EncoreImpl.c ****         uint8 var = 0;//THIS IS A DUMMY VAR TO DROP THE WARNING IF THERE IS NO ASSIGNMENT!!
 622:.\EncoreImpl.c ****         uint8 index = 0;
 623:.\EncoreImpl.c ****         //All indexes were taken according to the documentation
 624:.\EncoreImpl.c ****         var = (pjob->_ppump->_rxbuffer[0x02 + _PUMP_TOTALS_BUFFER_SHIFT_*index] & 0x0F);//Hose id
 625:.\EncoreImpl.c **** 
 626:.\EncoreImpl.c ****         //Bytes from index 0x04 + _PUMP_TOTALS_BUFFER_SHIFT_*index to 0x0F + _PUMP_TOTALS_BUFFER_SH
 627:.\EncoreImpl.c ****         //are the digits for the total fuel volume delivered until now on this pump
 628:.\EncoreImpl.c ****         //Digits are in BCD format
 629:.\EncoreImpl.c ****         var = (pjob->_ppump->_rxbuffer[0x04 + _PUMP_TOTALS_BUFFER_SHIFT_*index] & 0x0F);
 630:.\EncoreImpl.c ****         var = (pjob->_ppump->_rxbuffer[0x05 + _PUMP_TOTALS_BUFFER_SHIFT_*index] & 0x0F);
 631:.\EncoreImpl.c ****         var = (pjob->_ppump->_rxbuffer[0x06 + _PUMP_TOTALS_BUFFER_SHIFT_*index] & 0x0F);
 632:.\EncoreImpl.c ****         var = (pjob->_ppump->_rxbuffer[0x07 + _PUMP_TOTALS_BUFFER_SHIFT_*index] & 0x0F);
 633:.\EncoreImpl.c ****         var = (pjob->_ppump->_rxbuffer[0x08 + _PUMP_TOTALS_BUFFER_SHIFT_*index] & 0x0F);
 634:.\EncoreImpl.c ****         var = (pjob->_ppump->_rxbuffer[0x09 + _PUMP_TOTALS_BUFFER_SHIFT_*index] & 0x0F);
 635:.\EncoreImpl.c ****         var = (pjob->_ppump->_rxbuffer[0x0A + _PUMP_TOTALS_BUFFER_SHIFT_*index] & 0x0F);
ARM GAS  C:\Users\RECEPC~1\AppData\Local\Temp\ccMZb0bC.s 			page 55


 636:.\EncoreImpl.c ****         var = (pjob->_ppump->_rxbuffer[0x0B + _PUMP_TOTALS_BUFFER_SHIFT_*index] & 0x0F);
 637:.\EncoreImpl.c ****         var = (pjob->_ppump->_rxbuffer[0x0C + _PUMP_TOTALS_BUFFER_SHIFT_*index] & 0x0F);
 638:.\EncoreImpl.c ****         var = (pjob->_ppump->_rxbuffer[0x0D + _PUMP_TOTALS_BUFFER_SHIFT_*index] & 0x0F);
 639:.\EncoreImpl.c ****         var = (pjob->_ppump->_rxbuffer[0x0E + _PUMP_TOTALS_BUFFER_SHIFT_*index] & 0x0F);
 640:.\EncoreImpl.c ****         var = (pjob->_ppump->_rxbuffer[0x0F + _PUMP_TOTALS_BUFFER_SHIFT_*index] & 0x0F);
 641:.\EncoreImpl.c **** 
 642:.\EncoreImpl.c ****         //Bytes from index 0x11 + _PUMP_TOTALS_BUFFER_SHIFT_*index to 0x1C + _PUMP_TOTALS_BUFFER_SH
 643:.\EncoreImpl.c ****         //are the digits for the total money charged until now on this pump
 644:.\EncoreImpl.c ****         //Digits are in BCD format
 645:.\EncoreImpl.c ****         var = (pjob->_ppump->_rxbuffer[0x11 + _PUMP_TOTALS_BUFFER_SHIFT_*index] & 0x0F);
 646:.\EncoreImpl.c ****         var = (pjob->_ppump->_rxbuffer[0x12 + _PUMP_TOTALS_BUFFER_SHIFT_*index] & 0x0F);
 647:.\EncoreImpl.c ****         var = (pjob->_ppump->_rxbuffer[0x13 + _PUMP_TOTALS_BUFFER_SHIFT_*index] & 0x0F);
 648:.\EncoreImpl.c ****         var = (pjob->_ppump->_rxbuffer[0x14 + _PUMP_TOTALS_BUFFER_SHIFT_*index] & 0x0F);
 649:.\EncoreImpl.c ****         var = (pjob->_ppump->_rxbuffer[0x15 + _PUMP_TOTALS_BUFFER_SHIFT_*index] & 0x0F);
 650:.\EncoreImpl.c ****         var = (pjob->_ppump->_rxbuffer[0x16 + _PUMP_TOTALS_BUFFER_SHIFT_*index] & 0x0F);
 651:.\EncoreImpl.c ****         var = (pjob->_ppump->_rxbuffer[0x17 + _PUMP_TOTALS_BUFFER_SHIFT_*index] & 0x0F);
 652:.\EncoreImpl.c ****         var = (pjob->_ppump->_rxbuffer[0x18 + _PUMP_TOTALS_BUFFER_SHIFT_*index] & 0x0F);
 653:.\EncoreImpl.c ****         var = (pjob->_ppump->_rxbuffer[0x19 + _PUMP_TOTALS_BUFFER_SHIFT_*index] & 0x0F);
 654:.\EncoreImpl.c ****         var = (pjob->_ppump->_rxbuffer[0x1A + _PUMP_TOTALS_BUFFER_SHIFT_*index] & 0x0F);
 655:.\EncoreImpl.c ****         var = (pjob->_ppump->_rxbuffer[0x1B + _PUMP_TOTALS_BUFFER_SHIFT_*index] & 0x0F);
 656:.\EncoreImpl.c ****         var = (pjob->_ppump->_rxbuffer[0x1C + _PUMP_TOTALS_BUFFER_SHIFT_*index] & 0x0F);
 657:.\EncoreImpl.c ****         
 658:.\EncoreImpl.c ****         //Bytes from index 0x1E + _PUMP_TOTALS_BUFFER_SHIFT_*index to 0x23 + _PUMP_TOTALS_BUFFER_SH
 659:.\EncoreImpl.c ****         //are the digits for the reference PPU used on this pump/hose
 660:.\EncoreImpl.c ****         //Digits are in BCD format
 661:.\EncoreImpl.c ****         var = (pjob->_ppump->_rxbuffer[0x1E + _PUMP_TOTALS_BUFFER_SHIFT_*index] & 0x0F);
 662:.\EncoreImpl.c ****         var = (pjob->_ppump->_rxbuffer[0x1F + _PUMP_TOTALS_BUFFER_SHIFT_*index] & 0x0F);
 663:.\EncoreImpl.c ****         var = (pjob->_ppump->_rxbuffer[0x20 + _PUMP_TOTALS_BUFFER_SHIFT_*index] & 0x0F);
 664:.\EncoreImpl.c ****         var = (pjob->_ppump->_rxbuffer[0x21 + _PUMP_TOTALS_BUFFER_SHIFT_*index] & 0x0F);
 665:.\EncoreImpl.c ****         var = (pjob->_ppump->_rxbuffer[0x22 + _PUMP_TOTALS_BUFFER_SHIFT_*index] & 0x0F);
 666:.\EncoreImpl.c ****         var = (pjob->_ppump->_rxbuffer[0x23 + _PUMP_TOTALS_BUFFER_SHIFT_*index] & 0x0F);
 667:.\EncoreImpl.c **** */        
 668:.\EncoreImpl.c ****         memset(pjob->_ppump->_rxbuffer, 0x00, _PUMP_RX_BUFFER_SIZE_);
 2444              		.loc 1 668 0
 2445 0012 FB68     		ldr	r3, [r7, #12]
 2446 0014 DB69     		ldr	r3, [r3, #28]
 2447 0016 03F5D073 		add	r3, r3, #416
 2448 001a 1846     		mov	r0, r3
 2449 001c 0021     		movs	r1, #0
 2450 001e 4FF4C072 		mov	r2, #384
 2451 0022 FFF7FEFF 		bl	memset
 2452              	.L68:
 669:.\EncoreImpl.c ****     }
 670:.\EncoreImpl.c **** }
 2453              		.loc 1 670 0
 2454 0026 1037     		adds	r7, r7, #16
 2455              		.cfi_def_cfa_offset 8
 2456 0028 BD46     		mov	sp, r7
 2457              		.cfi_def_cfa_register 13
 2458              		@ sp needed
 2459 002a 80BD     		pop	{r7, pc}
 2460              		.cfi_endproc
 2461              	.LFE68:
 2462              		.size	ProcessPumpTotalsDataPpuCheck, .-ProcessPumpTotalsDataPpuCheck
 2463              		.section	.text.PumpJobTimeout,"ax",%progbits
 2464              		.align	2
 2465              		.global	PumpJobTimeout
ARM GAS  C:\Users\RECEPC~1\AppData\Local\Temp\ccMZb0bC.s 			page 56


 2466              		.thumb
 2467              		.thumb_func
 2468              		.type	PumpJobTimeout, %function
 2469              	PumpJobTimeout:
 2470              	.LFB69:
 671:.\EncoreImpl.c **** 
 672:.\EncoreImpl.c **** //@Created By: HIJH
 673:.\EncoreImpl.c **** //@Date: Septembre de 2016
 674:.\EncoreImpl.c **** //This must be used to notify the log registry about the timeout issue
 675:.\EncoreImpl.c **** void PumpJobTimeout(void *pparam)
 676:.\EncoreImpl.c **** {
 2471              		.loc 1 676 0
 2472              		.cfi_startproc
 2473              		@ args = 0, pretend = 0, frame = 16
 2474              		@ frame_needed = 1, uses_anonymous_args = 0
 2475              		@ link register save eliminated.
 2476 0000 80B4     		push	{r7}
 2477              		.cfi_def_cfa_offset 4
 2478              		.cfi_offset 7, -4
 2479 0002 85B0     		sub	sp, sp, #20
 2480              		.cfi_def_cfa_offset 24
 2481 0004 00AF     		add	r7, sp, #0
 2482              		.cfi_def_cfa_register 7
 2483 0006 7860     		str	r0, [r7, #4]
 677:.\EncoreImpl.c ****     PPUMPTRANSACTIONJOBCONTEXTPTR pjob = (PPUMPTRANSACTIONJOBCONTEXTPTR)pparam;
 2484              		.loc 1 677 0
 2485 0008 7B68     		ldr	r3, [r7, #4]
 2486 000a FB60     		str	r3, [r7, #12]
 678:.\EncoreImpl.c ****     if(pjob)
 2487              		.loc 1 678 0
 2488 000c FB68     		ldr	r3, [r7, #12]
 2489 000e 002B     		cmp	r3, #0
 2490 0010 0CD0     		beq	.L70
 679:.\EncoreImpl.c ****     {
 680:.\EncoreImpl.c ****         //Release the Current Loop and log if possible
 681:.\EncoreImpl.c ****         if(pjob->_retriescounter >= _MAX_RETRIES_)
 2491              		.loc 1 681 0
 2492 0012 FB68     		ldr	r3, [r7, #12]
 2493 0014 DB89     		ldrh	r3, [r3, #14]	@ movhi
 2494 0016 9BB2     		uxth	r3, r3
 2495 0018 132B     		cmp	r3, #19
 2496 001a 07D9     		bls	.L70
 682:.\EncoreImpl.c ****         {
 683:.\EncoreImpl.c ****             pjob->_ppump->_pumpstate = PUMP_UNKNOWN;
 2497              		.loc 1 683 0
 2498 001c FB68     		ldr	r3, [r7, #12]
 2499 001e DB69     		ldr	r3, [r3, #28]
 2500 0020 FF22     		movs	r2, #255
 2501 0022 9A70     		strb	r2, [r3, #2]
 684:.\EncoreImpl.c ****             pjob->_ppump->_transhealth = _PUMP_FAIL_;
 2502              		.loc 1 684 0
 2503 0024 FB68     		ldr	r3, [r7, #12]
 2504 0026 DB69     		ldr	r3, [r3, #28]
 2505 0028 0222     		movs	r2, #2
 2506 002a 1A76     		strb	r2, [r3, #24]
 2507              	.L70:
 685:.\EncoreImpl.c ****         }
ARM GAS  C:\Users\RECEPC~1\AppData\Local\Temp\ccMZb0bC.s 			page 57


 686:.\EncoreImpl.c ****     }
 687:.\EncoreImpl.c **** }
 2508              		.loc 1 687 0
 2509 002c 1437     		adds	r7, r7, #20
 2510              		.cfi_def_cfa_offset 4
 2511 002e BD46     		mov	sp, r7
 2512              		.cfi_def_cfa_register 13
 2513              		@ sp needed
 2514 0030 5DF8047B 		ldr	r7, [sp], #4
 2515              		.cfi_restore 7
 2516              		.cfi_def_cfa_offset 0
 2517 0034 7047     		bx	lr
 2518              		.cfi_endproc
 2519              	.LFE69:
 2520              		.size	PumpJobTimeout, .-PumpJobTimeout
 2521 0036 00BF     		.section	.text.PumpStateJobTimeout,"ax",%progbits
 2522              		.align	2
 2523              		.global	PumpStateJobTimeout
 2524              		.thumb
 2525              		.thumb_func
 2526              		.type	PumpStateJobTimeout, %function
 2527              	PumpStateJobTimeout:
 2528              	.LFB70:
 688:.\EncoreImpl.c **** 
 689:.\EncoreImpl.c **** //@Created By: HIJH
 690:.\EncoreImpl.c **** //@Date: Septembre de 2016
 691:.\EncoreImpl.c **** //This must be used to notify the log registry about the timeout issue
 692:.\EncoreImpl.c **** void PumpStateJobTimeout(void *pparam)
 693:.\EncoreImpl.c **** {
 2529              		.loc 1 693 0
 2530              		.cfi_startproc
 2531              		@ args = 0, pretend = 0, frame = 16
 2532              		@ frame_needed = 1, uses_anonymous_args = 0
 2533              		@ link register save eliminated.
 2534 0000 80B4     		push	{r7}
 2535              		.cfi_def_cfa_offset 4
 2536              		.cfi_offset 7, -4
 2537 0002 85B0     		sub	sp, sp, #20
 2538              		.cfi_def_cfa_offset 24
 2539 0004 00AF     		add	r7, sp, #0
 2540              		.cfi_def_cfa_register 7
 2541 0006 7860     		str	r0, [r7, #4]
 694:.\EncoreImpl.c ****     PPUMPTRANSACTIONJOBCONTEXTPTR pjob = (PPUMPTRANSACTIONJOBCONTEXTPTR)pparam;
 2542              		.loc 1 694 0
 2543 0008 7B68     		ldr	r3, [r7, #4]
 2544 000a FB60     		str	r3, [r7, #12]
 695:.\EncoreImpl.c ****     if(pjob)
 2545              		.loc 1 695 0
 2546 000c FB68     		ldr	r3, [r7, #12]
 2547 000e 002B     		cmp	r3, #0
 2548 0010 0CD0     		beq	.L72
 696:.\EncoreImpl.c ****     {
 697:.\EncoreImpl.c ****         //Release the Current Loop and log if possible
 698:.\EncoreImpl.c ****         if(pjob->_retriescounter >= _MAX_RETRIES_)
 2549              		.loc 1 698 0
 2550 0012 FB68     		ldr	r3, [r7, #12]
 2551 0014 DB89     		ldrh	r3, [r3, #14]	@ movhi
ARM GAS  C:\Users\RECEPC~1\AppData\Local\Temp\ccMZb0bC.s 			page 58


 2552 0016 9BB2     		uxth	r3, r3
 2553 0018 132B     		cmp	r3, #19
 2554 001a 07D9     		bls	.L72
 699:.\EncoreImpl.c ****         {
 700:.\EncoreImpl.c ****             pjob->_ppump->_pumpstate = PUMP_UNKNOWN;
 2555              		.loc 1 700 0
 2556 001c FB68     		ldr	r3, [r7, #12]
 2557 001e DB69     		ldr	r3, [r3, #28]
 2558 0020 FF22     		movs	r2, #255
 2559 0022 9A70     		strb	r2, [r3, #2]
 701:.\EncoreImpl.c ****             pjob->_ppump->_transhealth = _PUMP_FAIL_;
 2560              		.loc 1 701 0
 2561 0024 FB68     		ldr	r3, [r7, #12]
 2562 0026 DB69     		ldr	r3, [r3, #28]
 2563 0028 0222     		movs	r2, #2
 2564 002a 1A76     		strb	r2, [r3, #24]
 2565              	.L72:
 702:.\EncoreImpl.c ****         }
 703:.\EncoreImpl.c ****     }
 704:.\EncoreImpl.c **** }
 2566              		.loc 1 704 0
 2567 002c 1437     		adds	r7, r7, #20
 2568              		.cfi_def_cfa_offset 4
 2569 002e BD46     		mov	sp, r7
 2570              		.cfi_def_cfa_register 13
 2571              		@ sp needed
 2572 0030 5DF8047B 		ldr	r7, [sp], #4
 2573              		.cfi_restore 7
 2574              		.cfi_def_cfa_offset 0
 2575 0034 7047     		bx	lr
 2576              		.cfi_endproc
 2577              	.LFE70:
 2578              		.size	PumpStateJobTimeout, .-PumpStateJobTimeout
 2579 0036 00BF     		.section	.text.PumpAuthorization,"ax",%progbits
 2580              		.align	2
 2581              		.global	PumpAuthorization
 2582              		.thumb
 2583              		.thumb_func
 2584              		.type	PumpAuthorization, %function
 2585              	PumpAuthorization:
 2586              	.LFB71:
 705:.\EncoreImpl.c **** 
 706:.\EncoreImpl.c **** ///////////////////////////////////////////////////////////////////////////////////////////////////
 707:.\EncoreImpl.c **** //////////////////////                 BLOCK OF AVAILABLE REQUEST HANDLERS
 708:.\EncoreImpl.c **** ///////////////////////////////////////////////////////////////////////////////////////////////////
 709:.\EncoreImpl.c **** 
 710:.\EncoreImpl.c **** //@Created By: HIJH
 711:.\EncoreImpl.c **** //@Date: Septembre de 2016
 712:.\EncoreImpl.c **** //Sends the authorization request to the pump. This is a single byte command with no response
 713:.\EncoreImpl.c **** void PumpAuthorization(void *pparam)
 714:.\EncoreImpl.c **** {
 2587              		.loc 1 714 0
 2588              		.cfi_startproc
 2589              		@ args = 0, pretend = 0, frame = 24
 2590              		@ frame_needed = 1, uses_anonymous_args = 0
 2591 0000 80B5     		push	{r7, lr}
 2592              		.cfi_def_cfa_offset 8
ARM GAS  C:\Users\RECEPC~1\AppData\Local\Temp\ccMZb0bC.s 			page 59


 2593              		.cfi_offset 7, -8
 2594              		.cfi_offset 14, -4
 2595 0002 86B0     		sub	sp, sp, #24
 2596              		.cfi_def_cfa_offset 32
 2597 0004 00AF     		add	r7, sp, #0
 2598              		.cfi_def_cfa_register 7
 2599 0006 7860     		str	r0, [r7, #4]
 715:.\EncoreImpl.c ****     PNEAR_PUMPPTR ppump = (PNEAR_PUMPPTR)pparam;
 2600              		.loc 1 715 0
 2601 0008 7B68     		ldr	r3, [r7, #4]
 2602 000a 7B61     		str	r3, [r7, #20]
 716:.\EncoreImpl.c ****     if(ppump)
 2603              		.loc 1 716 0
 2604 000c 7B69     		ldr	r3, [r7, #20]
 2605 000e 002B     		cmp	r3, #0
 2606 0010 34D0     		beq	.L74
 2607              	.LBB7:
 717:.\EncoreImpl.c ****     {
 718:.\EncoreImpl.c **** 
 719:.\EncoreImpl.c ****         if(!ppump->_presetdone)
 2608              		.loc 1 719 0
 2609 0012 7B69     		ldr	r3, [r7, #20]
 2610 0014 1B7A     		ldrb	r3, [r3, #8]
 2611 0016 DBB2     		uxtb	r3, r3
 2612 0018 83F00103 		eor	r3, r3, #1
 2613 001c DBB2     		uxtb	r3, r3
 2614 001e 002B     		cmp	r3, #0
 2615 0020 00D0     		beq	.L76
 720:.\EncoreImpl.c ****             return;
 2616              		.loc 1 720 0
 2617 0022 2BE0     		b	.L74
 2618              	.L76:
 721:.\EncoreImpl.c **** 
 722:.\EncoreImpl.c ****         uint8_t index = 0;
 2619              		.loc 1 722 0
 2620 0024 0023     		movs	r3, #0
 2621 0026 FB74     		strb	r3, [r7, #19]
 723:.\EncoreImpl.c ****         memset(ppump->_rxbuffer, 0x00, _PUMP_RX_BUFFER_SIZE_);
 2622              		.loc 1 723 0
 2623 0028 7B69     		ldr	r3, [r7, #20]
 2624 002a 03F5D073 		add	r3, r3, #416
 2625 002e 1846     		mov	r0, r3
 2626 0030 0021     		movs	r1, #0
 2627 0032 4FF4C072 		mov	r2, #384
 2628 0036 FFF7FEFF 		bl	memset
 724:.\EncoreImpl.c ****         PUARTMESSAGEPTR puartdisp = GetUARTMessageSlot(UART_DISPENSER);
 2629              		.loc 1 724 0
 2630 003a A220     		movs	r0, #162
 2631 003c FFF7FEFF 		bl	GetUARTMessageSlot
 2632 0040 F860     		str	r0, [r7, #12]
 725:.\EncoreImpl.c ****         if(puartdisp)
 2633              		.loc 1 725 0
 2634 0042 FB68     		ldr	r3, [r7, #12]
 2635 0044 002B     		cmp	r3, #0
 2636 0046 19D0     		beq	.L74
 726:.\EncoreImpl.c ****         {
 727:.\EncoreImpl.c ****             //Just one byte for the response
ARM GAS  C:\Users\RECEPC~1\AppData\Local\Temp\ccMZb0bC.s 			page 60


 728:.\EncoreImpl.c ****             puartdisp->_messagetx[index++] = PUMP_COMMAND(PUMP_AUTHORIZATION, ppump->_pumpid);
 2637              		.loc 1 728 0
 2638 0048 FB7C     		ldrb	r3, [r7, #19]	@ zero_extendqisi2
 2639 004a 5A1C     		adds	r2, r3, #1
 2640 004c FA74     		strb	r2, [r7, #19]
 2641 004e 1946     		mov	r1, r3
 2642 0050 7B69     		ldr	r3, [r7, #20]
 2643 0052 1B78     		ldrb	r3, [r3]	@ zero_extendqisi2
 2644 0054 DBB2     		uxtb	r3, r3
 2645 0056 03F00F03 		and	r3, r3, #15
 2646 005a DBB2     		uxtb	r3, r3
 2647 005c 43F01003 		orr	r3, r3, #16
 2648 0060 DBB2     		uxtb	r3, r3
 2649 0062 DAB2     		uxtb	r2, r3
 2650 0064 FB68     		ldr	r3, [r7, #12]
 2651 0066 0B44     		add	r3, r3, r1
 2652 0068 1A71     		strb	r2, [r3, #4]
 729:.\EncoreImpl.c ****             puartdisp->_messagelength = 1;//One byte
 2653              		.loc 1 729 0
 2654 006a FB68     		ldr	r3, [r7, #12]
 2655 006c 0122     		movs	r2, #1
 2656 006e 5A80     		strh	r2, [r3, #2]	@ movhi
 730:.\EncoreImpl.c ****             puartdisp->_messagestate = PENDING;
 2657              		.loc 1 730 0
 2658 0070 FB68     		ldr	r3, [r7, #12]
 2659 0072 C222     		movs	r2, #194
 2660 0074 1A70     		strb	r2, [r3]
 731:.\EncoreImpl.c ****             
 732:.\EncoreImpl.c ****             ppump->_authorized = true;
 2661              		.loc 1 732 0
 2662 0076 7B69     		ldr	r3, [r7, #20]
 2663 0078 0122     		movs	r2, #1
 2664 007a 9A71     		strb	r2, [r3, #6]
 2665              	.L74:
 2666              	.LBE7:
 733:.\EncoreImpl.c ****         }
 734:.\EncoreImpl.c ****     }
 735:.\EncoreImpl.c **** }
 2667              		.loc 1 735 0
 2668 007c 1837     		adds	r7, r7, #24
 2669              		.cfi_def_cfa_offset 8
 2670 007e BD46     		mov	sp, r7
 2671              		.cfi_def_cfa_register 13
 2672              		@ sp needed
 2673 0080 80BD     		pop	{r7, pc}
 2674              		.cfi_endproc
 2675              	.LFE71:
 2676              		.size	PumpAuthorization, .-PumpAuthorization
 2677 0082 00BF     		.section	.text.PumpStartupAuthorization,"ax",%progbits
 2678              		.align	2
 2679              		.global	PumpStartupAuthorization
 2680              		.thumb
 2681              		.thumb_func
 2682              		.type	PumpStartupAuthorization, %function
 2683              	PumpStartupAuthorization:
 2684              	.LFB72:
 736:.\EncoreImpl.c **** 
ARM GAS  C:\Users\RECEPC~1\AppData\Local\Temp\ccMZb0bC.s 			page 61


 737:.\EncoreImpl.c **** //@Created By: HIJH
 738:.\EncoreImpl.c **** //@Date: Septembre de 2016
 739:.\EncoreImpl.c **** //Sends the authorization request to the pump. This is a single byte command with no response
 740:.\EncoreImpl.c **** void PumpStartupAuthorization(void *pparam)
 741:.\EncoreImpl.c **** {
 2685              		.loc 1 741 0
 2686              		.cfi_startproc
 2687              		@ args = 0, pretend = 0, frame = 24
 2688              		@ frame_needed = 1, uses_anonymous_args = 0
 2689 0000 80B5     		push	{r7, lr}
 2690              		.cfi_def_cfa_offset 8
 2691              		.cfi_offset 7, -8
 2692              		.cfi_offset 14, -4
 2693 0002 86B0     		sub	sp, sp, #24
 2694              		.cfi_def_cfa_offset 32
 2695 0004 00AF     		add	r7, sp, #0
 2696              		.cfi_def_cfa_register 7
 2697 0006 7860     		str	r0, [r7, #4]
 742:.\EncoreImpl.c ****     PNEAR_PUMPPTR ppump = (PNEAR_PUMPPTR)pparam;
 2698              		.loc 1 742 0
 2699 0008 7B68     		ldr	r3, [r7, #4]
 2700 000a 7B61     		str	r3, [r7, #20]
 743:.\EncoreImpl.c ****     if(ppump)
 2701              		.loc 1 743 0
 2702 000c 7B69     		ldr	r3, [r7, #20]
 2703 000e 002B     		cmp	r3, #0
 2704 0010 2BD0     		beq	.L77
 2705              	.LBB8:
 744:.\EncoreImpl.c ****     {                
 745:.\EncoreImpl.c ****         uint8_t index = 0;
 2706              		.loc 1 745 0
 2707 0012 0023     		movs	r3, #0
 2708 0014 FB74     		strb	r3, [r7, #19]
 746:.\EncoreImpl.c ****         memset(ppump->_rxbuffer, 0x00, _PUMP_RX_BUFFER_SIZE_);
 2709              		.loc 1 746 0
 2710 0016 7B69     		ldr	r3, [r7, #20]
 2711 0018 03F5D073 		add	r3, r3, #416
 2712 001c 1846     		mov	r0, r3
 2713 001e 0021     		movs	r1, #0
 2714 0020 4FF4C072 		mov	r2, #384
 2715 0024 FFF7FEFF 		bl	memset
 747:.\EncoreImpl.c ****         PUARTMESSAGEPTR puartdisp = GetUARTMessageSlot(UART_DISPENSER);
 2716              		.loc 1 747 0
 2717 0028 A220     		movs	r0, #162
 2718 002a FFF7FEFF 		bl	GetUARTMessageSlot
 2719 002e F860     		str	r0, [r7, #12]
 748:.\EncoreImpl.c ****         if(puartdisp)
 2720              		.loc 1 748 0
 2721 0030 FB68     		ldr	r3, [r7, #12]
 2722 0032 002B     		cmp	r3, #0
 2723 0034 16D0     		beq	.L79
 749:.\EncoreImpl.c ****         {
 750:.\EncoreImpl.c ****             //Just one byte for the response
 751:.\EncoreImpl.c ****             puartdisp->_messagetx[index++] = PUMP_COMMAND(PUMP_AUTHORIZATION, ppump->_pumpid);
 2724              		.loc 1 751 0
 2725 0036 FB7C     		ldrb	r3, [r7, #19]	@ zero_extendqisi2
 2726 0038 5A1C     		adds	r2, r3, #1
ARM GAS  C:\Users\RECEPC~1\AppData\Local\Temp\ccMZb0bC.s 			page 62


 2727 003a FA74     		strb	r2, [r7, #19]
 2728 003c 1946     		mov	r1, r3
 2729 003e 7B69     		ldr	r3, [r7, #20]
 2730 0040 1B78     		ldrb	r3, [r3]	@ zero_extendqisi2
 2731 0042 DBB2     		uxtb	r3, r3
 2732 0044 03F00F03 		and	r3, r3, #15
 2733 0048 DBB2     		uxtb	r3, r3
 2734 004a 43F01003 		orr	r3, r3, #16
 2735 004e DBB2     		uxtb	r3, r3
 2736 0050 DAB2     		uxtb	r2, r3
 2737 0052 FB68     		ldr	r3, [r7, #12]
 2738 0054 0B44     		add	r3, r3, r1
 2739 0056 1A71     		strb	r2, [r3, #4]
 752:.\EncoreImpl.c ****             puartdisp->_messagelength = 1;//One byte
 2740              		.loc 1 752 0
 2741 0058 FB68     		ldr	r3, [r7, #12]
 2742 005a 0122     		movs	r2, #1
 2743 005c 5A80     		strh	r2, [r3, #2]	@ movhi
 753:.\EncoreImpl.c ****             puartdisp->_messagestate = PENDING;
 2744              		.loc 1 753 0
 2745 005e FB68     		ldr	r3, [r7, #12]
 2746 0060 C222     		movs	r2, #194
 2747 0062 1A70     		strb	r2, [r3]
 2748              	.L79:
 754:.\EncoreImpl.c ****             
 755:.\EncoreImpl.c ****         }
 756:.\EncoreImpl.c ****         CyDelay(100);
 2749              		.loc 1 756 0
 2750 0064 6420     		movs	r0, #100
 2751 0066 FFF7FEFF 		bl	CyDelay
 2752              	.L77:
 2753              	.LBE8:
 757:.\EncoreImpl.c ****     }
 758:.\EncoreImpl.c **** }
 2754              		.loc 1 758 0
 2755 006a 1837     		adds	r7, r7, #24
 2756              		.cfi_def_cfa_offset 8
 2757 006c BD46     		mov	sp, r7
 2758              		.cfi_def_cfa_register 13
 2759              		@ sp needed
 2760 006e 80BD     		pop	{r7, pc}
 2761              		.cfi_endproc
 2762              	.LFE72:
 2763              		.size	PumpStartupAuthorization, .-PumpStartupAuthorization
 2764              		.section	.text.PumpStateRequest,"ax",%progbits
 2765              		.align	2
 2766              		.global	PumpStateRequest
 2767              		.thumb
 2768              		.thumb_func
 2769              		.type	PumpStateRequest, %function
 2770              	PumpStateRequest:
 2771              	.LFB73:
 759:.\EncoreImpl.c **** 
 760:.\EncoreImpl.c **** //@Created By: HIJH
 761:.\EncoreImpl.c **** //@Date: Septembre de 2016
 762:.\EncoreImpl.c **** //Sends the state request to the pump. This is a single byte command with one byte of response
 763:.\EncoreImpl.c **** void PumpStateRequest(void *pparam)
ARM GAS  C:\Users\RECEPC~1\AppData\Local\Temp\ccMZb0bC.s 			page 63


 764:.\EncoreImpl.c **** {
 2772              		.loc 1 764 0
 2773              		.cfi_startproc
 2774              		@ args = 0, pretend = 0, frame = 24
 2775              		@ frame_needed = 1, uses_anonymous_args = 0
 2776 0000 80B5     		push	{r7, lr}
 2777              		.cfi_def_cfa_offset 8
 2778              		.cfi_offset 7, -8
 2779              		.cfi_offset 14, -4
 2780 0002 86B0     		sub	sp, sp, #24
 2781              		.cfi_def_cfa_offset 32
 2782 0004 00AF     		add	r7, sp, #0
 2783              		.cfi_def_cfa_register 7
 2784 0006 7860     		str	r0, [r7, #4]
 765:.\EncoreImpl.c ****     PNEAR_PUMPPTR ppump = (PNEAR_PUMPPTR)pparam;
 2785              		.loc 1 765 0
 2786 0008 7B68     		ldr	r3, [r7, #4]
 2787 000a 7B61     		str	r3, [r7, #20]
 766:.\EncoreImpl.c ****     if(ppump)
 2788              		.loc 1 766 0
 2789 000c 7B69     		ldr	r3, [r7, #20]
 2790 000e 002B     		cmp	r3, #0
 2791 0010 23D0     		beq	.L80
 2792              	.LBB9:
 767:.\EncoreImpl.c ****     {
 768:.\EncoreImpl.c ****         uint8_t index = 0;
 2793              		.loc 1 768 0
 2794 0012 0023     		movs	r3, #0
 2795 0014 FB74     		strb	r3, [r7, #19]
 769:.\EncoreImpl.c ****         memset(ppump->_rxbuffer, 0x00, _PUMP_RX_BUFFER_SIZE_);
 2796              		.loc 1 769 0
 2797 0016 7B69     		ldr	r3, [r7, #20]
 2798 0018 03F5D073 		add	r3, r3, #416
 2799 001c 1846     		mov	r0, r3
 2800 001e 0021     		movs	r1, #0
 2801 0020 4FF4C072 		mov	r2, #384
 2802 0024 FFF7FEFF 		bl	memset
 770:.\EncoreImpl.c ****         PUARTMESSAGEPTR puartdisp = GetUARTMessageSlot(UART_DISPENSER);
 2803              		.loc 1 770 0
 2804 0028 A220     		movs	r0, #162
 2805 002a FFF7FEFF 		bl	GetUARTMessageSlot
 2806 002e F860     		str	r0, [r7, #12]
 771:.\EncoreImpl.c ****         if(puartdisp)
 2807              		.loc 1 771 0
 2808 0030 FB68     		ldr	r3, [r7, #12]
 2809 0032 002B     		cmp	r3, #0
 2810 0034 11D0     		beq	.L80
 772:.\EncoreImpl.c ****         {
 773:.\EncoreImpl.c ****             puartdisp->_messagetx[index++] = PUMP_COMMAND(PUMP_STATE_REQUEST, ppump->_pumpid);
 2811              		.loc 1 773 0
 2812 0036 FB7C     		ldrb	r3, [r7, #19]	@ zero_extendqisi2
 2813 0038 5A1C     		adds	r2, r3, #1
 2814 003a FA74     		strb	r2, [r7, #19]
 2815 003c 1946     		mov	r1, r3
 2816 003e 7B69     		ldr	r3, [r7, #20]
 2817 0040 1B78     		ldrb	r3, [r3]	@ zero_extendqisi2
 2818 0042 03F00F03 		and	r3, r3, #15
ARM GAS  C:\Users\RECEPC~1\AppData\Local\Temp\ccMZb0bC.s 			page 64


 2819 0046 DAB2     		uxtb	r2, r3
 2820 0048 FB68     		ldr	r3, [r7, #12]
 2821 004a 0B44     		add	r3, r3, r1
 2822 004c 1A71     		strb	r2, [r3, #4]
 774:.\EncoreImpl.c ****             puartdisp->_messagelength = 1;//One byte
 2823              		.loc 1 774 0
 2824 004e FB68     		ldr	r3, [r7, #12]
 2825 0050 0122     		movs	r2, #1
 2826 0052 5A80     		strh	r2, [r3, #2]	@ movhi
 775:.\EncoreImpl.c ****             puartdisp->_messagestate = PENDING;
 2827              		.loc 1 775 0
 2828 0054 FB68     		ldr	r3, [r7, #12]
 2829 0056 C222     		movs	r2, #194
 2830 0058 1A70     		strb	r2, [r3]
 2831              	.L80:
 2832              	.LBE9:
 776:.\EncoreImpl.c ****         }
 777:.\EncoreImpl.c ****     }
 778:.\EncoreImpl.c **** }
 2833              		.loc 1 778 0
 2834 005a 1837     		adds	r7, r7, #24
 2835              		.cfi_def_cfa_offset 8
 2836 005c BD46     		mov	sp, r7
 2837              		.cfi_def_cfa_register 13
 2838              		@ sp needed
 2839 005e 80BD     		pop	{r7, pc}
 2840              		.cfi_endproc
 2841              	.LFE73:
 2842              		.size	PumpStateRequest, .-PumpStateRequest
 2843              		.section	.text.PumpRTMoneyRequest,"ax",%progbits
 2844              		.align	2
 2845              		.global	PumpRTMoneyRequest
 2846              		.thumb
 2847              		.thumb_func
 2848              		.type	PumpRTMoneyRequest, %function
 2849              	PumpRTMoneyRequest:
 2850              	.LFB74:
 779:.\EncoreImpl.c **** 
 780:.\EncoreImpl.c **** //@Created By: HIJH
 781:.\EncoreImpl.c **** //@Date: Septembre de 2016
 782:.\EncoreImpl.c **** void PumpRTMoneyRequest(void *pparam)
 783:.\EncoreImpl.c **** {
 2851              		.loc 1 783 0
 2852              		.cfi_startproc
 2853              		@ args = 0, pretend = 0, frame = 24
 2854              		@ frame_needed = 1, uses_anonymous_args = 0
 2855 0000 80B5     		push	{r7, lr}
 2856              		.cfi_def_cfa_offset 8
 2857              		.cfi_offset 7, -8
 2858              		.cfi_offset 14, -4
 2859 0002 86B0     		sub	sp, sp, #24
 2860              		.cfi_def_cfa_offset 32
 2861 0004 00AF     		add	r7, sp, #0
 2862              		.cfi_def_cfa_register 7
 2863 0006 7860     		str	r0, [r7, #4]
 784:.\EncoreImpl.c ****     PNEAR_PUMPPTR ppump = (PNEAR_PUMPPTR)pparam;
 2864              		.loc 1 784 0
ARM GAS  C:\Users\RECEPC~1\AppData\Local\Temp\ccMZb0bC.s 			page 65


 2865 0008 7B68     		ldr	r3, [r7, #4]
 2866 000a 7B61     		str	r3, [r7, #20]
 785:.\EncoreImpl.c ****     if(ppump)
 2867              		.loc 1 785 0
 2868 000c 7B69     		ldr	r3, [r7, #20]
 2869 000e 002B     		cmp	r3, #0
 2870 0010 28D0     		beq	.L82
 2871              	.LBB10:
 786:.\EncoreImpl.c ****     {
 787:.\EncoreImpl.c ****         uint8_t index = 0;
 2872              		.loc 1 787 0
 2873 0012 0023     		movs	r3, #0
 2874 0014 FB74     		strb	r3, [r7, #19]
 788:.\EncoreImpl.c ****         memset(ppump->_rxbuffer, 0x00, _PUMP_RX_BUFFER_SIZE_);
 2875              		.loc 1 788 0
 2876 0016 7B69     		ldr	r3, [r7, #20]
 2877 0018 03F5D073 		add	r3, r3, #416
 2878 001c 1846     		mov	r0, r3
 2879 001e 0021     		movs	r1, #0
 2880 0020 4FF4C072 		mov	r2, #384
 2881 0024 FFF7FEFF 		bl	memset
 789:.\EncoreImpl.c ****         PUARTMESSAGEPTR puartdisp = GetUARTMessageSlot(UART_DISPENSER);
 2882              		.loc 1 789 0
 2883 0028 A220     		movs	r0, #162
 2884 002a FFF7FEFF 		bl	GetUARTMessageSlot
 2885 002e F860     		str	r0, [r7, #12]
 790:.\EncoreImpl.c ****         if(puartdisp)
 2886              		.loc 1 790 0
 2887 0030 FB68     		ldr	r3, [r7, #12]
 2888 0032 002B     		cmp	r3, #0
 2889 0034 16D0     		beq	.L82
 791:.\EncoreImpl.c ****         {
 792:.\EncoreImpl.c ****             puartdisp->_messagetx[index++] = PUMP_COMMAND(PUMP_REAL_TIME_MONEY_REQUEST, ppump->_pum
 2890              		.loc 1 792 0
 2891 0036 FB7C     		ldrb	r3, [r7, #19]	@ zero_extendqisi2
 2892 0038 5A1C     		adds	r2, r3, #1
 2893 003a FA74     		strb	r2, [r7, #19]
 2894 003c 1946     		mov	r1, r3
 2895 003e 7B69     		ldr	r3, [r7, #20]
 2896 0040 1B78     		ldrb	r3, [r3]	@ zero_extendqisi2
 2897 0042 DBB2     		uxtb	r3, r3
 2898 0044 03F00F03 		and	r3, r3, #15
 2899 0048 DBB2     		uxtb	r3, r3
 2900 004a 43F06003 		orr	r3, r3, #96
 2901 004e DBB2     		uxtb	r3, r3
 2902 0050 DAB2     		uxtb	r2, r3
 2903 0052 FB68     		ldr	r3, [r7, #12]
 2904 0054 0B44     		add	r3, r3, r1
 2905 0056 1A71     		strb	r2, [r3, #4]
 793:.\EncoreImpl.c ****             puartdisp->_messagelength = 1;//One byte
 2906              		.loc 1 793 0
 2907 0058 FB68     		ldr	r3, [r7, #12]
 2908 005a 0122     		movs	r2, #1
 2909 005c 5A80     		strh	r2, [r3, #2]	@ movhi
 794:.\EncoreImpl.c ****             puartdisp->_messagestate = PENDING;
 2910              		.loc 1 794 0
 2911 005e FB68     		ldr	r3, [r7, #12]
ARM GAS  C:\Users\RECEPC~1\AppData\Local\Temp\ccMZb0bC.s 			page 66


 2912 0060 C222     		movs	r2, #194
 2913 0062 1A70     		strb	r2, [r3]
 2914              	.L82:
 2915              	.LBE10:
 795:.\EncoreImpl.c ****         }
 796:.\EncoreImpl.c ****     }
 797:.\EncoreImpl.c **** }
 2916              		.loc 1 797 0
 2917 0064 1837     		adds	r7, r7, #24
 2918              		.cfi_def_cfa_offset 8
 2919 0066 BD46     		mov	sp, r7
 2920              		.cfi_def_cfa_register 13
 2921              		@ sp needed
 2922 0068 80BD     		pop	{r7, pc}
 2923              		.cfi_endproc
 2924              	.LFE74:
 2925              		.size	PumpRTMoneyRequest, .-PumpRTMoneyRequest
 2926 006a 00BF     		.section	.text.PumpTransactionDataRequest,"ax",%progbits
 2927              		.align	2
 2928              		.global	PumpTransactionDataRequest
 2929              		.thumb
 2930              		.thumb_func
 2931              		.type	PumpTransactionDataRequest, %function
 2932              	PumpTransactionDataRequest:
 2933              	.LFB75:
 798:.\EncoreImpl.c **** 
 799:.\EncoreImpl.c **** //@Created By: HIJH
 800:.\EncoreImpl.c **** //@Date: Septembre de 2016
 801:.\EncoreImpl.c **** //Requests the last transaction data to the pump. This is a single byte command with a fixed length
 802:.\EncoreImpl.c **** void PumpTransactionDataRequest(void *pparam)
 803:.\EncoreImpl.c **** {
 2934              		.loc 1 803 0
 2935              		.cfi_startproc
 2936              		@ args = 0, pretend = 0, frame = 24
 2937              		@ frame_needed = 1, uses_anonymous_args = 0
 2938 0000 80B5     		push	{r7, lr}
 2939              		.cfi_def_cfa_offset 8
 2940              		.cfi_offset 7, -8
 2941              		.cfi_offset 14, -4
 2942 0002 86B0     		sub	sp, sp, #24
 2943              		.cfi_def_cfa_offset 32
 2944 0004 00AF     		add	r7, sp, #0
 2945              		.cfi_def_cfa_register 7
 2946 0006 7860     		str	r0, [r7, #4]
 804:.\EncoreImpl.c ****     PNEAR_PUMPPTR ppump = (PNEAR_PUMPPTR)pparam;
 2947              		.loc 1 804 0
 2948 0008 7B68     		ldr	r3, [r7, #4]
 2949 000a 7B61     		str	r3, [r7, #20]
 805:.\EncoreImpl.c ****     if(ppump)
 2950              		.loc 1 805 0
 2951 000c 7B69     		ldr	r3, [r7, #20]
 2952 000e 002B     		cmp	r3, #0
 2953 0010 28D0     		beq	.L84
 2954              	.LBB11:
 806:.\EncoreImpl.c ****     {        
 807:.\EncoreImpl.c ****         uint8_t index = 0;
 2955              		.loc 1 807 0
ARM GAS  C:\Users\RECEPC~1\AppData\Local\Temp\ccMZb0bC.s 			page 67


 2956 0012 0023     		movs	r3, #0
 2957 0014 FB74     		strb	r3, [r7, #19]
 808:.\EncoreImpl.c ****         memset(ppump->_rxbuffer, 0x00, _PUMP_RX_BUFFER_SIZE_);
 2958              		.loc 1 808 0
 2959 0016 7B69     		ldr	r3, [r7, #20]
 2960 0018 03F5D073 		add	r3, r3, #416
 2961 001c 1846     		mov	r0, r3
 2962 001e 0021     		movs	r1, #0
 2963 0020 4FF4C072 		mov	r2, #384
 2964 0024 FFF7FEFF 		bl	memset
 809:.\EncoreImpl.c ****         PUARTMESSAGEPTR puartdisp = GetUARTMessageSlot(UART_DISPENSER);
 2965              		.loc 1 809 0
 2966 0028 A220     		movs	r0, #162
 2967 002a FFF7FEFF 		bl	GetUARTMessageSlot
 2968 002e F860     		str	r0, [r7, #12]
 810:.\EncoreImpl.c ****         if(puartdisp)
 2969              		.loc 1 810 0
 2970 0030 FB68     		ldr	r3, [r7, #12]
 2971 0032 002B     		cmp	r3, #0
 2972 0034 16D0     		beq	.L84
 811:.\EncoreImpl.c ****         {
 812:.\EncoreImpl.c ****             puartdisp->_messagetx[index++] = PUMP_COMMAND(PUMP_TRANSACTION_DATA_REQUEST, ppump->_pu
 2973              		.loc 1 812 0
 2974 0036 FB7C     		ldrb	r3, [r7, #19]	@ zero_extendqisi2
 2975 0038 5A1C     		adds	r2, r3, #1
 2976 003a FA74     		strb	r2, [r7, #19]
 2977 003c 1946     		mov	r1, r3
 2978 003e 7B69     		ldr	r3, [r7, #20]
 2979 0040 1B78     		ldrb	r3, [r3]	@ zero_extendqisi2
 2980 0042 DBB2     		uxtb	r3, r3
 2981 0044 03F00F03 		and	r3, r3, #15
 2982 0048 DBB2     		uxtb	r3, r3
 2983 004a 43F04003 		orr	r3, r3, #64
 2984 004e DBB2     		uxtb	r3, r3
 2985 0050 DAB2     		uxtb	r2, r3
 2986 0052 FB68     		ldr	r3, [r7, #12]
 2987 0054 0B44     		add	r3, r3, r1
 2988 0056 1A71     		strb	r2, [r3, #4]
 813:.\EncoreImpl.c ****             puartdisp->_messagelength = 1;//One byte
 2989              		.loc 1 813 0
 2990 0058 FB68     		ldr	r3, [r7, #12]
 2991 005a 0122     		movs	r2, #1
 2992 005c 5A80     		strh	r2, [r3, #2]	@ movhi
 814:.\EncoreImpl.c ****             puartdisp->_messagestate = PENDING;
 2993              		.loc 1 814 0
 2994 005e FB68     		ldr	r3, [r7, #12]
 2995 0060 C222     		movs	r2, #194
 2996 0062 1A70     		strb	r2, [r3]
 2997              	.L84:
 2998              	.LBE11:
 815:.\EncoreImpl.c ****         }
 816:.\EncoreImpl.c ****     }
 817:.\EncoreImpl.c **** }
 2999              		.loc 1 817 0
 3000 0064 1837     		adds	r7, r7, #24
 3001              		.cfi_def_cfa_offset 8
 3002 0066 BD46     		mov	sp, r7
ARM GAS  C:\Users\RECEPC~1\AppData\Local\Temp\ccMZb0bC.s 			page 68


 3003              		.cfi_def_cfa_register 13
 3004              		@ sp needed
 3005 0068 80BD     		pop	{r7, pc}
 3006              		.cfi_endproc
 3007              	.LFE75:
 3008              		.size	PumpTransactionDataRequest, .-PumpTransactionDataRequest
 3009 006a 00BF     		.section	.text.PumpTotalsDataRequest,"ax",%progbits
 3010              		.align	2
 3011              		.global	PumpTotalsDataRequest
 3012              		.thumb
 3013              		.thumb_func
 3014              		.type	PumpTotalsDataRequest, %function
 3015              	PumpTotalsDataRequest:
 3016              	.LFB76:
 818:.\EncoreImpl.c **** 
 819:.\EncoreImpl.c **** //@Created By: HIJH
 820:.\EncoreImpl.c **** //@Date: Septembre de 2016
 821:.\EncoreImpl.c **** //Requests the report of totals for the current pump. This is a single byte command with a variable
 822:.\EncoreImpl.c **** //that depends on the number of available hoses.
 823:.\EncoreImpl.c **** void PumpTotalsDataRequest(void *pparam)
 824:.\EncoreImpl.c **** {
 3017              		.loc 1 824 0
 3018              		.cfi_startproc
 3019              		@ args = 0, pretend = 0, frame = 24
 3020              		@ frame_needed = 1, uses_anonymous_args = 0
 3021 0000 80B5     		push	{r7, lr}
 3022              		.cfi_def_cfa_offset 8
 3023              		.cfi_offset 7, -8
 3024              		.cfi_offset 14, -4
 3025 0002 86B0     		sub	sp, sp, #24
 3026              		.cfi_def_cfa_offset 32
 3027 0004 00AF     		add	r7, sp, #0
 3028              		.cfi_def_cfa_register 7
 3029 0006 7860     		str	r0, [r7, #4]
 825:.\EncoreImpl.c ****     PNEAR_PUMPPTR ppump = (PNEAR_PUMPPTR)pparam;
 3030              		.loc 1 825 0
 3031 0008 7B68     		ldr	r3, [r7, #4]
 3032 000a 7B61     		str	r3, [r7, #20]
 826:.\EncoreImpl.c ****     if(ppump)
 3033              		.loc 1 826 0
 3034 000c 7B69     		ldr	r3, [r7, #20]
 3035 000e 002B     		cmp	r3, #0
 3036 0010 28D0     		beq	.L86
 3037              	.LBB12:
 827:.\EncoreImpl.c ****     {        
 828:.\EncoreImpl.c ****         uint8_t index = 0;
 3038              		.loc 1 828 0
 3039 0012 0023     		movs	r3, #0
 3040 0014 FB74     		strb	r3, [r7, #19]
 829:.\EncoreImpl.c ****         memset(ppump->_rxbuffer, 0x00, _PUMP_RX_BUFFER_SIZE_);
 3041              		.loc 1 829 0
 3042 0016 7B69     		ldr	r3, [r7, #20]
 3043 0018 03F5D073 		add	r3, r3, #416
 3044 001c 1846     		mov	r0, r3
 3045 001e 0021     		movs	r1, #0
 3046 0020 4FF4C072 		mov	r2, #384
 3047 0024 FFF7FEFF 		bl	memset
ARM GAS  C:\Users\RECEPC~1\AppData\Local\Temp\ccMZb0bC.s 			page 69


 830:.\EncoreImpl.c ****         PUARTMESSAGEPTR puartdisp = GetUARTMessageSlot(UART_DISPENSER);
 3048              		.loc 1 830 0
 3049 0028 A220     		movs	r0, #162
 3050 002a FFF7FEFF 		bl	GetUARTMessageSlot
 3051 002e F860     		str	r0, [r7, #12]
 831:.\EncoreImpl.c ****         if(puartdisp)
 3052              		.loc 1 831 0
 3053 0030 FB68     		ldr	r3, [r7, #12]
 3054 0032 002B     		cmp	r3, #0
 3055 0034 16D0     		beq	.L86
 832:.\EncoreImpl.c ****         {
 833:.\EncoreImpl.c ****             puartdisp->_messagetx[index++] = PUMP_COMMAND(PUMP_TOTALS_DATA_REQUEST, ppump->_pumpid)
 3056              		.loc 1 833 0
 3057 0036 FB7C     		ldrb	r3, [r7, #19]	@ zero_extendqisi2
 3058 0038 5A1C     		adds	r2, r3, #1
 3059 003a FA74     		strb	r2, [r7, #19]
 3060 003c 1946     		mov	r1, r3
 3061 003e 7B69     		ldr	r3, [r7, #20]
 3062 0040 1B78     		ldrb	r3, [r3]	@ zero_extendqisi2
 3063 0042 DBB2     		uxtb	r3, r3
 3064 0044 03F00F03 		and	r3, r3, #15
 3065 0048 DBB2     		uxtb	r3, r3
 3066 004a 43F05003 		orr	r3, r3, #80
 3067 004e DBB2     		uxtb	r3, r3
 3068 0050 DAB2     		uxtb	r2, r3
 3069 0052 FB68     		ldr	r3, [r7, #12]
 3070 0054 0B44     		add	r3, r3, r1
 3071 0056 1A71     		strb	r2, [r3, #4]
 834:.\EncoreImpl.c ****             puartdisp->_messagelength = 1;//One byte
 3072              		.loc 1 834 0
 3073 0058 FB68     		ldr	r3, [r7, #12]
 3074 005a 0122     		movs	r2, #1
 3075 005c 5A80     		strh	r2, [r3, #2]	@ movhi
 835:.\EncoreImpl.c ****             puartdisp->_messagestate = PENDING;
 3076              		.loc 1 835 0
 3077 005e FB68     		ldr	r3, [r7, #12]
 3078 0060 C222     		movs	r2, #194
 3079 0062 1A70     		strb	r2, [r3]
 3080              	.L86:
 3081              	.LBE12:
 836:.\EncoreImpl.c ****         }
 837:.\EncoreImpl.c ****     }
 838:.\EncoreImpl.c **** }
 3082              		.loc 1 838 0
 3083 0064 1837     		adds	r7, r7, #24
 3084              		.cfi_def_cfa_offset 8
 3085 0066 BD46     		mov	sp, r7
 3086              		.cfi_def_cfa_register 13
 3087              		@ sp needed
 3088 0068 80BD     		pop	{r7, pc}
 3089              		.cfi_endproc
 3090              	.LFE76:
 3091              		.size	PumpTotalsDataRequest, .-PumpTotalsDataRequest
 3092 006a 00BF     		.section	.text.PumpDataToPump,"ax",%progbits
 3093              		.align	2
 3094              		.global	PumpDataToPump
 3095              		.thumb
ARM GAS  C:\Users\RECEPC~1\AppData\Local\Temp\ccMZb0bC.s 			page 70


 3096              		.thumb_func
 3097              		.type	PumpDataToPump, %function
 3098              	PumpDataToPump:
 3099              	.LFB77:
 839:.\EncoreImpl.c **** 
 840:.\EncoreImpl.c **** //@Created By: HIJH
 841:.\EncoreImpl.c **** //@Date: Septembre de 2016
 842:.\EncoreImpl.c **** //Requests the pump to enter in "SEND DATA" mode. This is a single byte command with a special one 
 843:.\EncoreImpl.c **** //that indicates that the pump is ready to receive data.
 844:.\EncoreImpl.c **** void PumpDataToPump(void *pparam)
 845:.\EncoreImpl.c **** {
 3100              		.loc 1 845 0
 3101              		.cfi_startproc
 3102              		@ args = 0, pretend = 0, frame = 24
 3103              		@ frame_needed = 1, uses_anonymous_args = 0
 3104 0000 80B5     		push	{r7, lr}
 3105              		.cfi_def_cfa_offset 8
 3106              		.cfi_offset 7, -8
 3107              		.cfi_offset 14, -4
 3108 0002 86B0     		sub	sp, sp, #24
 3109              		.cfi_def_cfa_offset 32
 3110 0004 00AF     		add	r7, sp, #0
 3111              		.cfi_def_cfa_register 7
 3112 0006 7860     		str	r0, [r7, #4]
 846:.\EncoreImpl.c ****     PNEAR_PUMPPTR ppump = (PNEAR_PUMPPTR)pparam;
 3113              		.loc 1 846 0
 3114 0008 7B68     		ldr	r3, [r7, #4]
 3115 000a 7B61     		str	r3, [r7, #20]
 847:.\EncoreImpl.c ****     if(ppump)
 3116              		.loc 1 847 0
 3117 000c 7B69     		ldr	r3, [r7, #20]
 3118 000e 002B     		cmp	r3, #0
 3119 0010 28D0     		beq	.L88
 3120              	.LBB13:
 848:.\EncoreImpl.c ****     {
 849:.\EncoreImpl.c ****         uint8_t index = 0;        
 3121              		.loc 1 849 0
 3122 0012 0023     		movs	r3, #0
 3123 0014 FB74     		strb	r3, [r7, #19]
 850:.\EncoreImpl.c ****         memset(ppump->_rxbuffer, 0x00, _PUMP_RX_BUFFER_SIZE_);
 3124              		.loc 1 850 0
 3125 0016 7B69     		ldr	r3, [r7, #20]
 3126 0018 03F5D073 		add	r3, r3, #416
 3127 001c 1846     		mov	r0, r3
 3128 001e 0021     		movs	r1, #0
 3129 0020 4FF4C072 		mov	r2, #384
 3130 0024 FFF7FEFF 		bl	memset
 851:.\EncoreImpl.c ****         PUARTMESSAGEPTR puartdisp = GetUARTMessageSlot(UART_DISPENSER);
 3131              		.loc 1 851 0
 3132 0028 A220     		movs	r0, #162
 3133 002a FFF7FEFF 		bl	GetUARTMessageSlot
 3134 002e F860     		str	r0, [r7, #12]
 852:.\EncoreImpl.c ****         if(puartdisp)
 3135              		.loc 1 852 0
 3136 0030 FB68     		ldr	r3, [r7, #12]
 3137 0032 002B     		cmp	r3, #0
 3138 0034 16D0     		beq	.L88
ARM GAS  C:\Users\RECEPC~1\AppData\Local\Temp\ccMZb0bC.s 			page 71


 853:.\EncoreImpl.c ****         {
 854:.\EncoreImpl.c ****             puartdisp->_messagetx[index++] = PUMP_COMMAND(PUMP_DATA_TO_PUMP, ppump->_pumpid);
 3139              		.loc 1 854 0
 3140 0036 FB7C     		ldrb	r3, [r7, #19]	@ zero_extendqisi2
 3141 0038 5A1C     		adds	r2, r3, #1
 3142 003a FA74     		strb	r2, [r7, #19]
 3143 003c 1946     		mov	r1, r3
 3144 003e 7B69     		ldr	r3, [r7, #20]
 3145 0040 1B78     		ldrb	r3, [r3]	@ zero_extendqisi2
 3146 0042 DBB2     		uxtb	r3, r3
 3147 0044 03F00F03 		and	r3, r3, #15
 3148 0048 DBB2     		uxtb	r3, r3
 3149 004a 43F02003 		orr	r3, r3, #32
 3150 004e DBB2     		uxtb	r3, r3
 3151 0050 DAB2     		uxtb	r2, r3
 3152 0052 FB68     		ldr	r3, [r7, #12]
 3153 0054 0B44     		add	r3, r3, r1
 3154 0056 1A71     		strb	r2, [r3, #4]
 855:.\EncoreImpl.c ****             puartdisp->_messagelength = 1;//One byte
 3155              		.loc 1 855 0
 3156 0058 FB68     		ldr	r3, [r7, #12]
 3157 005a 0122     		movs	r2, #1
 3158 005c 5A80     		strh	r2, [r3, #2]	@ movhi
 856:.\EncoreImpl.c ****             puartdisp->_messagestate = PENDING;
 3159              		.loc 1 856 0
 3160 005e FB68     		ldr	r3, [r7, #12]
 3161 0060 C222     		movs	r2, #194
 3162 0062 1A70     		strb	r2, [r3]
 3163              	.L88:
 3164              	.LBE13:
 857:.\EncoreImpl.c ****         }
 858:.\EncoreImpl.c ****     }
 859:.\EncoreImpl.c **** }
 3165              		.loc 1 859 0
 3166 0064 1837     		adds	r7, r7, #24
 3167              		.cfi_def_cfa_offset 8
 3168 0066 BD46     		mov	sp, r7
 3169              		.cfi_def_cfa_register 13
 3170              		@ sp needed
 3171 0068 80BD     		pop	{r7, pc}
 3172              		.cfi_endproc
 3173              	.LFE77:
 3174              		.size	PumpDataToPump, .-PumpDataToPump
 3175 006a 00BF     		.section	.text.PumpCreditPresetHose,"ax",%progbits
 3176              		.align	2
 3177              		.global	PumpCreditPresetHose
 3178              		.thumb
 3179              		.thumb_func
 3180              		.type	PumpCreditPresetHose, %function
 3181              	PumpCreditPresetHose:
 3182              	.LFB78:
 860:.\EncoreImpl.c **** 
 861:.\EncoreImpl.c **** 
 862:.\EncoreImpl.c **** //@Created By: HIJH
 863:.\EncoreImpl.c **** //@Septembre de 2016
 864:.\EncoreImpl.c **** ///////////////////////////////////////////////////////////////////////////////////////////////////
 865:.\EncoreImpl.c **** //This preset is a convention that applies to "Credit Transactions"
ARM GAS  C:\Users\RECEPC~1\AppData\Local\Temp\ccMZb0bC.s 			page 72


 866:.\EncoreImpl.c **** //The pump will hold all the necessary information for the preset.
 867:.\EncoreImpl.c **** //For this message the data comes as follows:
 868:.\EncoreImpl.c **** void PumpCreditPresetHose(void *pparam)
 869:.\EncoreImpl.c **** {
 3183              		.loc 1 869 0
 3184              		.cfi_startproc
 3185              		@ args = 0, pretend = 0, frame = 40
 3186              		@ frame_needed = 1, uses_anonymous_args = 0
 3187 0000 90B5     		push	{r4, r7, lr}
 3188              		.cfi_def_cfa_offset 12
 3189              		.cfi_offset 4, -12
 3190              		.cfi_offset 7, -8
 3191              		.cfi_offset 14, -4
 3192 0002 8BB0     		sub	sp, sp, #44
 3193              		.cfi_def_cfa_offset 56
 3194 0004 00AF     		add	r7, sp, #0
 3195              		.cfi_def_cfa_register 7
 3196 0006 7860     		str	r0, [r7, #4]
 870:.\EncoreImpl.c ****     PNEAR_PUMPPTR ppump = (PNEAR_PUMPPTR)pparam;
 3197              		.loc 1 870 0
 3198 0008 7B68     		ldr	r3, [r7, #4]
 3199 000a 3B62     		str	r3, [r7, #32]
 871:.\EncoreImpl.c ****     if(ppump)
 3200              		.loc 1 871 0
 3201 000c 3B6A     		ldr	r3, [r7, #32]
 3202 000e 002B     		cmp	r3, #0
 3203 0010 00F0C281 		beq	.L90
 3204              	.LBB14:
 872:.\EncoreImpl.c ****     {
 873:.\EncoreImpl.c ****         uint8_t index = 0;        
 3205              		.loc 1 873 0
 3206 0014 0023     		movs	r3, #0
 3207 0016 87F82730 		strb	r3, [r7, #39]
 874:.\EncoreImpl.c ****         PUARTMESSAGEPTR puartdisp = GetUARTMessageSlot(UART_DISPENSER);
 3208              		.loc 1 874 0
 3209 001a A220     		movs	r0, #162
 3210 001c FFF7FEFF 		bl	GetUARTMessageSlot
 3211 0020 F861     		str	r0, [r7, #28]
 875:.\EncoreImpl.c ****         memset(ppump->_rxbuffer, 0x00, _PUMP_RX_BUFFER_SIZE_);
 3212              		.loc 1 875 0
 3213 0022 3B6A     		ldr	r3, [r7, #32]
 3214 0024 03F5D073 		add	r3, r3, #416
 3215 0028 1846     		mov	r0, r3
 3216 002a 0021     		movs	r1, #0
 3217 002c 4FF4C072 		mov	r2, #384
 3218 0030 FFF7FEFF 		bl	memset
 876:.\EncoreImpl.c ****         if(puartdisp)
 3219              		.loc 1 876 0
 3220 0034 FB69     		ldr	r3, [r7, #28]
 3221 0036 002B     		cmp	r3, #0
 3222 0038 00F0AE81 		beq	.L90
 877:.\EncoreImpl.c ****         {
 878:.\EncoreImpl.c **** ///////////////////////////////////////////////////////////////////////////////////////////////////
 879:.\EncoreImpl.c ****             puartdisp->_messagetx[index++] = SOM;
 3223              		.loc 1 879 0
 3224 003c 97F82730 		ldrb	r3, [r7, #39]	@ zero_extendqisi2
 3225 0040 5A1C     		adds	r2, r3, #1
ARM GAS  C:\Users\RECEPC~1\AppData\Local\Temp\ccMZb0bC.s 			page 73


 3226 0042 87F82720 		strb	r2, [r7, #39]
 3227 0046 1A46     		mov	r2, r3
 3228 0048 FB69     		ldr	r3, [r7, #28]
 3229 004a 1344     		add	r3, r3, r2
 3230 004c FF22     		movs	r2, #255
 3231 004e 1A71     		strb	r2, [r3, #4]
 880:.\EncoreImpl.c ****             if(_g_dispenserlayoutinfo._displaydigitsmode == 0x06)
 3232              		.loc 1 880 0
 3233 0050 A94B     		ldr	r3, .L113
 3234 0052 1B7C     		ldrb	r3, [r3, #16]	@ zero_extendqisi2
 3235 0054 062B     		cmp	r3, #6
 3236 0056 40F0D580 		bne	.L92
 3237              	.LBB15:
 881:.\EncoreImpl.c ****             {
 882:.\EncoreImpl.c ****                 uint8 transtype = ((0xF0 | ppump->_authorizationinfo._presettype) == 0xF1)? 0xF2: 0
 3238              		.loc 1 882 0
 3239 005a 3B6A     		ldr	r3, [r7, #32]
 3240 005c 93F8A93B 		ldrb	r3, [r3, #2985]
 3241 0060 DBB2     		uxtb	r3, r3
 3242 0062 63F00F03 		orn	r3, r3, #15
 3243 0066 DBB2     		uxtb	r3, r3
 3244 0068 F12B     		cmp	r3, #241
 3245 006a 01D1     		bne	.L93
 3246              		.loc 1 882 0 is_stmt 0 discriminator 1
 3247 006c F223     		movs	r3, #242
 3248 006e 00E0     		b	.L94
 3249              	.L93:
 3250              		.loc 1 882 0 discriminator 2
 3251 0070 F123     		movs	r3, #241
 3252              	.L94:
 3253              		.loc 1 882 0 discriminator 4
 3254 0072 FB76     		strb	r3, [r7, #27]
 883:.\EncoreImpl.c ****                 if(transtype == 0xF1)
 3255              		.loc 1 883 0 is_stmt 1 discriminator 4
 3256 0074 FB7E     		ldrb	r3, [r7, #27]	@ zero_extendqisi2
 3257 0076 F12B     		cmp	r3, #241
 3258 0078 0AD1     		bne	.L95
 884:.\EncoreImpl.c ****                     puartdisp->_messagetx[index++] = 0xE3;
 3259              		.loc 1 884 0
 3260 007a 97F82730 		ldrb	r3, [r7, #39]	@ zero_extendqisi2
 3261 007e 5A1C     		adds	r2, r3, #1
 3262 0080 87F82720 		strb	r2, [r7, #39]
 3263 0084 1A46     		mov	r2, r3
 3264 0086 FB69     		ldr	r3, [r7, #28]
 3265 0088 1344     		add	r3, r3, r2
 3266 008a E322     		movs	r2, #227
 3267 008c 1A71     		strb	r2, [r3, #4]
 3268 008e 09E0     		b	.L96
 3269              	.L95:
 885:.\EncoreImpl.c ****                 else
 886:.\EncoreImpl.c ****                     puartdisp->_messagetx[index++] = 0xE2;
 3270              		.loc 1 886 0
 3271 0090 97F82730 		ldrb	r3, [r7, #39]	@ zero_extendqisi2
 3272 0094 5A1C     		adds	r2, r3, #1
 3273 0096 87F82720 		strb	r2, [r7, #39]
 3274 009a 1A46     		mov	r2, r3
 3275 009c FB69     		ldr	r3, [r7, #28]
ARM GAS  C:\Users\RECEPC~1\AppData\Local\Temp\ccMZb0bC.s 			page 74


 3276 009e 1344     		add	r3, r3, r2
 3277 00a0 E222     		movs	r2, #226
 3278 00a2 1A71     		strb	r2, [r3, #4]
 3279              	.L96:
 887:.\EncoreImpl.c ****                     
 888:.\EncoreImpl.c ****                 ///THIS IS AN APPLIED CONVENTION ===>> 0x0004 INDEX POSITION WITHIN THE PUMP'S BUFF
 889:.\EncoreImpl.c ****                 ///THESE CODES MUST BE MATCHED OTHERWISE THE LOGIC WILL BREAKUP THE CODE!
 890:.\EncoreImpl.c ****                 puartdisp->_messagetx[index++] = transtype;
 3280              		.loc 1 890 0
 3281 00a4 97F82730 		ldrb	r3, [r7, #39]	@ zero_extendqisi2
 3282 00a8 5A1C     		adds	r2, r3, #1
 3283 00aa 87F82720 		strb	r2, [r7, #39]
 3284 00ae 1A46     		mov	r2, r3
 3285 00b0 FB69     		ldr	r3, [r7, #28]
 3286 00b2 1344     		add	r3, r3, r2
 3287 00b4 FA7E     		ldrb	r2, [r7, #27]
 3288 00b6 1A71     		strb	r2, [r3, #4]
 891:.\EncoreImpl.c ****                 puartdisp->_messagetx[index++] = 0xF4;
 3289              		.loc 1 891 0
 3290 00b8 97F82730 		ldrb	r3, [r7, #39]	@ zero_extendqisi2
 3291 00bc 5A1C     		adds	r2, r3, #1
 3292 00be 87F82720 		strb	r2, [r7, #39]
 3293 00c2 1A46     		mov	r2, r3
 3294 00c4 FB69     		ldr	r3, [r7, #28]
 3295 00c6 1344     		add	r3, r3, r2
 3296 00c8 F422     		movs	r2, #244
 3297 00ca 1A71     		strb	r2, [r3, #4]
 892:.\EncoreImpl.c ****                 puartdisp->_messagetx[index++] = 0xF6; //Hose Data next
 3298              		.loc 1 892 0
 3299 00cc 97F82730 		ldrb	r3, [r7, #39]	@ zero_extendqisi2
 3300 00d0 5A1C     		adds	r2, r3, #1
 3301 00d2 87F82720 		strb	r2, [r7, #39]
 3302 00d6 1A46     		mov	r2, r3
 3303 00d8 FB69     		ldr	r3, [r7, #28]
 3304 00da 1344     		add	r3, r3, r2
 3305 00dc F622     		movs	r2, #246
 3306 00de 1A71     		strb	r2, [r3, #4]
 893:.\EncoreImpl.c ****                 ///THIS IS AN APPLIED CONVENTION ===>> 0x0006 INDEX POSITION WITHIN THE PUMP'S BUFF
 894:.\EncoreImpl.c ****                 ///THESE CODES MUST BE MATCHED OTHERWISE THE LOGIC WILL BREAKUP THE CODE!
 895:.\EncoreImpl.c ****                 puartdisp->_messagetx[index++] = (0xE0 | (ppump->_authorizationinfo._hoseid & 0x0F)
 3307              		.loc 1 895 0
 3308 00e0 97F82730 		ldrb	r3, [r7, #39]	@ zero_extendqisi2
 3309 00e4 5A1C     		adds	r2, r3, #1
 3310 00e6 87F82720 		strb	r2, [r7, #39]
 3311 00ea 1946     		mov	r1, r3
 3312 00ec 3B6A     		ldr	r3, [r7, #32]
 3313 00ee 93F8AA3B 		ldrb	r3, [r3, #2986]
 3314 00f2 DBB2     		uxtb	r3, r3
 3315 00f4 DBB2     		uxtb	r3, r3
 3316 00f6 03F00F03 		and	r3, r3, #15
 3317 00fa DBB2     		uxtb	r3, r3
 3318 00fc 63F01F03 		orn	r3, r3, #31
 3319 0100 DBB2     		uxtb	r3, r3
 3320 0102 DAB2     		uxtb	r2, r3
 3321 0104 FB69     		ldr	r3, [r7, #28]
 3322 0106 0B44     		add	r3, r3, r1
 3323 0108 1A71     		strb	r2, [r3, #4]
ARM GAS  C:\Users\RECEPC~1\AppData\Local\Temp\ccMZb0bC.s 			page 75


 896:.\EncoreImpl.c ****                 
 897:.\EncoreImpl.c ****                 puartdisp->_messagetx[index++] = 0xF8; //Preset Data next
 3324              		.loc 1 897 0
 3325 010a 97F82730 		ldrb	r3, [r7, #39]	@ zero_extendqisi2
 3326 010e 5A1C     		adds	r2, r3, #1
 3327 0110 87F82720 		strb	r2, [r7, #39]
 3328 0114 1A46     		mov	r2, r3
 3329 0116 FB69     		ldr	r3, [r7, #28]
 3330 0118 1344     		add	r3, r3, r2
 3331 011a F822     		movs	r2, #248
 3332 011c 1A71     		strb	r2, [r3, #4]
 898:.\EncoreImpl.c ****                 //Here we copy the remaining 8 bytes for the preset value
 899:.\EncoreImpl.c ****                 ///THIS IS AN APPLIED CONVENTION ===>> 0x0008 INDEX POSITION WITHIN THE PUMP'S BUFF
 900:.\EncoreImpl.c ****                 ///THESE CODES MUST BE MATCHED OTHERWISE THE LOGIC WILL BREAKUP THE CODE!
 901:.\EncoreImpl.c ****                 memset(PBYTECAST(&ppump->_trasactionbuffer[0x0008]),0x00, 0x0008);
 3333              		.loc 1 901 0
 3334 011e 3B6A     		ldr	r3, [r7, #32]
 3335 0120 2833     		adds	r3, r3, #40
 3336 0122 1846     		mov	r0, r3
 3337 0124 0021     		movs	r1, #0
 3338 0126 0822     		movs	r2, #8
 3339 0128 FFF7FEFF 		bl	memset
 902:.\EncoreImpl.c ****                 B78AD90CF552D9B30A(ppump->_authorizationinfo._presetamount, PBYTECAST(&ppump->_tras
 3340              		.loc 1 902 0
 3341 012c 3B6A     		ldr	r3, [r7, #32]
 3342 012e D3F8B03B 		ldr	r3, [r3, #2992]
 3343 0132 1A46     		mov	r2, r3
 3344 0134 4FF00003 		mov	r3, #0
 3345 0138 396A     		ldr	r1, [r7, #32]
 3346 013a 01F12804 		add	r4, r1, #40
 3347 013e 1046     		mov	r0, r2
 3348 0140 1946     		mov	r1, r3
 3349 0142 2246     		mov	r2, r4
 3350 0144 FFF7FEFF 		bl	B78AD90CF552D9B30A
 903:.\EncoreImpl.c ****                 char8 *ptr = &ppump->_trasactionbuffer[0x0008];
 3351              		.loc 1 903 0
 3352 0148 3B6A     		ldr	r3, [r7, #32]
 3353 014a 2833     		adds	r3, r3, #40
 3354 014c 7B61     		str	r3, [r7, #20]
 904:.\EncoreImpl.c ****                 if(transtype == 0xF1) //Volume PRESET, then multiply by 1000
 3355              		.loc 1 904 0
 3356 014e FB7E     		ldrb	r3, [r7, #27]	@ zero_extendqisi2
 3357 0150 F12B     		cmp	r3, #241
 3358 0152 27D1     		bne	.L97
 3359              	.LBB16:
 905:.\EncoreImpl.c ****                 {
 906:.\EncoreImpl.c ****                     CastVolumeValue(ptr, 0x08);
 3360              		.loc 1 906 0
 3361 0154 7869     		ldr	r0, [r7, #20]
 3362 0156 0821     		movs	r1, #8
 3363 0158 FFF7FEFF 		bl	CastVolumeValue
 907:.\EncoreImpl.c ****                     
 908:.\EncoreImpl.c ****                     FOR(uint8 buffndx = 0, buffndx < 0x05, buffndx++)
 3364              		.loc 1 908 0
 3365 015c 0023     		movs	r3, #0
 3366 015e 87F82630 		strb	r3, [r7, #38]
 3367 0162 1AE0     		b	.L98
ARM GAS  C:\Users\RECEPC~1\AppData\Local\Temp\ccMZb0bC.s 			page 76


 3368              	.L99:
 909:.\EncoreImpl.c ****                         puartdisp->_messagetx[index++] = (0xE0 | (ptr[buffndx] & 0x0F)); //Translat
 3369              		.loc 1 909 0 discriminator 3
 3370 0164 97F82730 		ldrb	r3, [r7, #39]	@ zero_extendqisi2
 3371 0168 5A1C     		adds	r2, r3, #1
 3372 016a 87F82720 		strb	r2, [r7, #39]
 3373 016e 1946     		mov	r1, r3
 3374 0170 97F82630 		ldrb	r3, [r7, #38]	@ zero_extendqisi2
 3375 0174 7A69     		ldr	r2, [r7, #20]
 3376 0176 1344     		add	r3, r3, r2
 3377 0178 1B78     		ldrb	r3, [r3]	@ zero_extendqisi2
 3378 017a DBB2     		uxtb	r3, r3
 3379 017c 03F00F03 		and	r3, r3, #15
 3380 0180 DBB2     		uxtb	r3, r3
 3381 0182 63F01F03 		orn	r3, r3, #31
 3382 0186 DBB2     		uxtb	r3, r3
 3383 0188 DAB2     		uxtb	r2, r3
 3384 018a FB69     		ldr	r3, [r7, #28]
 3385 018c 0B44     		add	r3, r3, r1
 3386 018e 1A71     		strb	r2, [r3, #4]
 908:.\EncoreImpl.c ****                         puartdisp->_messagetx[index++] = (0xE0 | (ptr[buffndx] & 0x0F)); //Translat
 3387              		.loc 1 908 0 discriminator 3
 3388 0190 97F82630 		ldrb	r3, [r7, #38]	@ zero_extendqisi2
 3389 0194 0133     		adds	r3, r3, #1
 3390 0196 87F82630 		strb	r3, [r7, #38]
 3391              	.L98:
 908:.\EncoreImpl.c ****                         puartdisp->_messagetx[index++] = (0xE0 | (ptr[buffndx] & 0x0F)); //Translat
 3392              		.loc 1 908 0 is_stmt 0 discriminator 1
 3393 019a 97F82630 		ldrb	r3, [r7, #38]	@ zero_extendqisi2
 3394 019e 042B     		cmp	r3, #4
 3395 01a0 E0D9     		bls	.L99
 3396              	.LBE16:
 3397 01a2 2EE0     		b	.L100
 3398              	.L97:
 3399              	.LBB17:
 910:.\EncoreImpl.c ****                 }
 911:.\EncoreImpl.c ****                 else
 912:.\EncoreImpl.c ****                 {
 913:.\EncoreImpl.c ****                     if(!(_g_dispenserlayoutinfo._moneydecimals == 0x03 && _g_dispenserlayoutinfo._p
 3400              		.loc 1 913 0 is_stmt 1
 3401 01a4 544B     		ldr	r3, .L113
 3402 01a6 DB79     		ldrb	r3, [r3, #7]	@ zero_extendqisi2
 3403 01a8 032B     		cmp	r3, #3
 3404 01aa 03D1     		bne	.L101
 3405              		.loc 1 913 0 is_stmt 0 discriminator 1
 3406 01ac 524B     		ldr	r3, .L113
 3407 01ae 1B7A     		ldrb	r3, [r3, #8]	@ zero_extendqisi2
 3408 01b0 022B     		cmp	r3, #2
 3409 01b2 03D0     		beq	.L102
 3410              	.L101:
 914:.\EncoreImpl.c ****                         CastMoneyValue(ptr, 0x08);
 3411              		.loc 1 914 0 is_stmt 1
 3412 01b4 7869     		ldr	r0, [r7, #20]
 3413 01b6 0821     		movs	r1, #8
 3414 01b8 FFF7FEFF 		bl	CastMoneyValue
 3415              	.L102:
 915:.\EncoreImpl.c ****                     
ARM GAS  C:\Users\RECEPC~1\AppData\Local\Temp\ccMZb0bC.s 			page 77


 916:.\EncoreImpl.c ****                     FOR(uint8 buffndx = 0, buffndx < 0x06, buffndx++)
 3416              		.loc 1 916 0
 3417 01bc 0023     		movs	r3, #0
 3418 01be 87F82530 		strb	r3, [r7, #37]
 3419 01c2 1AE0     		b	.L103
 3420              	.L104:
 917:.\EncoreImpl.c ****                         puartdisp->_messagetx[index++] = (0xE0 | (ptr[buffndx] & 0x0F)); //Translat
 3421              		.loc 1 917 0 discriminator 3
 3422 01c4 97F82730 		ldrb	r3, [r7, #39]	@ zero_extendqisi2
 3423 01c8 5A1C     		adds	r2, r3, #1
 3424 01ca 87F82720 		strb	r2, [r7, #39]
 3425 01ce 1946     		mov	r1, r3
 3426 01d0 97F82530 		ldrb	r3, [r7, #37]	@ zero_extendqisi2
 3427 01d4 7A69     		ldr	r2, [r7, #20]
 3428 01d6 1344     		add	r3, r3, r2
 3429 01d8 1B78     		ldrb	r3, [r3]	@ zero_extendqisi2
 3430 01da DBB2     		uxtb	r3, r3
 3431 01dc 03F00F03 		and	r3, r3, #15
 3432 01e0 DBB2     		uxtb	r3, r3
 3433 01e2 63F01F03 		orn	r3, r3, #31
 3434 01e6 DBB2     		uxtb	r3, r3
 3435 01e8 DAB2     		uxtb	r2, r3
 3436 01ea FB69     		ldr	r3, [r7, #28]
 3437 01ec 0B44     		add	r3, r3, r1
 3438 01ee 1A71     		strb	r2, [r3, #4]
 916:.\EncoreImpl.c ****                         puartdisp->_messagetx[index++] = (0xE0 | (ptr[buffndx] & 0x0F)); //Translat
 3439              		.loc 1 916 0 discriminator 3
 3440 01f0 97F82530 		ldrb	r3, [r7, #37]	@ zero_extendqisi2
 3441 01f4 0133     		adds	r3, r3, #1
 3442 01f6 87F82530 		strb	r3, [r7, #37]
 3443              	.L103:
 916:.\EncoreImpl.c ****                         puartdisp->_messagetx[index++] = (0xE0 | (ptr[buffndx] & 0x0F)); //Translat
 3444              		.loc 1 916 0 is_stmt 0 discriminator 1
 3445 01fa 97F82530 		ldrb	r3, [r7, #37]	@ zero_extendqisi2
 3446 01fe 052B     		cmp	r3, #5
 3447 0200 E0D9     		bls	.L104
 3448              	.L100:
 3449              	.LBE17:
 3450              	.LBE15:
 3451 0202 9AE0     		b	.L105
 3452              	.L92:
 3453              	.LBB18:
 918:.\EncoreImpl.c ****                 }
 919:.\EncoreImpl.c ****             }
 920:.\EncoreImpl.c ****             else
 921:.\EncoreImpl.c ****             {
 922:.\EncoreImpl.c ****                 puartdisp->_messagetx[index++] = 0xE1;
 3454              		.loc 1 922 0 is_stmt 1
 3455 0204 97F82730 		ldrb	r3, [r7, #39]	@ zero_extendqisi2
 3456 0208 5A1C     		adds	r2, r3, #1
 3457 020a 87F82720 		strb	r2, [r7, #39]
 3458 020e 1A46     		mov	r2, r3
 3459 0210 FB69     		ldr	r3, [r7, #28]
 3460 0212 1344     		add	r3, r3, r2
 3461 0214 E122     		movs	r2, #225
 3462 0216 1A71     		strb	r2, [r3, #4]
 923:.\EncoreImpl.c ****                     
ARM GAS  C:\Users\RECEPC~1\AppData\Local\Temp\ccMZb0bC.s 			page 78


 924:.\EncoreImpl.c ****                 ///THIS IS AN APPLIED CONVENTION ===>> 0x0004 INDEX POSITION WITHIN THE PUMP'S BUFF
 925:.\EncoreImpl.c ****                 ///THESE CODES MUST BE MATCHED OTHERWISE THE LOGIC WILL BREAKUP THE CODE!
 926:.\EncoreImpl.c ****                 uint8 transtype = ((0xF0 | ppump->_authorizationinfo._presettype) == 0xF1)? 0xF2: 0
 3463              		.loc 1 926 0
 3464 0218 3B6A     		ldr	r3, [r7, #32]
 3465 021a 93F8A93B 		ldrb	r3, [r3, #2985]
 3466 021e DBB2     		uxtb	r3, r3
 3467 0220 63F00F03 		orn	r3, r3, #15
 3468 0224 DBB2     		uxtb	r3, r3
 3469 0226 F12B     		cmp	r3, #241
 3470 0228 01D1     		bne	.L106
 3471              		.loc 1 926 0 is_stmt 0 discriminator 1
 3472 022a F223     		movs	r3, #242
 3473 022c 00E0     		b	.L107
 3474              	.L106:
 3475              		.loc 1 926 0 discriminator 2
 3476 022e F123     		movs	r3, #241
 3477              	.L107:
 3478              		.loc 1 926 0 discriminator 4
 3479 0230 FB74     		strb	r3, [r7, #19]
 927:.\EncoreImpl.c ****                 puartdisp->_messagetx[index++] = transtype;
 3480              		.loc 1 927 0 is_stmt 1 discriminator 4
 3481 0232 97F82730 		ldrb	r3, [r7, #39]	@ zero_extendqisi2
 3482 0236 5A1C     		adds	r2, r3, #1
 3483 0238 87F82720 		strb	r2, [r7, #39]
 3484 023c 1A46     		mov	r2, r3
 3485 023e FB69     		ldr	r3, [r7, #28]
 3486 0240 1344     		add	r3, r3, r2
 3487 0242 FA7C     		ldrb	r2, [r7, #19]
 3488 0244 1A71     		strb	r2, [r3, #4]
 928:.\EncoreImpl.c **** 
 929:.\EncoreImpl.c ****                 puartdisp->_messagetx[index++] = 0xF6; //Hose Data next
 3489              		.loc 1 929 0 discriminator 4
 3490 0246 97F82730 		ldrb	r3, [r7, #39]	@ zero_extendqisi2
 3491 024a 5A1C     		adds	r2, r3, #1
 3492 024c 87F82720 		strb	r2, [r7, #39]
 3493 0250 1A46     		mov	r2, r3
 3494 0252 FB69     		ldr	r3, [r7, #28]
 3495 0254 1344     		add	r3, r3, r2
 3496 0256 F622     		movs	r2, #246
 3497 0258 1A71     		strb	r2, [r3, #4]
 930:.\EncoreImpl.c ****                 ///THIS IS AN APPLIED CONVENTION ===>> 0x0006 INDEX POSITION WITHIN THE PUMP'S BUFF
 931:.\EncoreImpl.c ****                 ///THESE CODES MUST BE MATCHED OTHERWISE THE LOGIC WILL BREAKUP THE CODE!
 932:.\EncoreImpl.c ****                 puartdisp->_messagetx[index++] = (0xE0 | (ppump->_authorizationinfo._hoseid & 0x0F)
 3498              		.loc 1 932 0 discriminator 4
 3499 025a 97F82730 		ldrb	r3, [r7, #39]	@ zero_extendqisi2
 3500 025e 5A1C     		adds	r2, r3, #1
 3501 0260 87F82720 		strb	r2, [r7, #39]
 3502 0264 1946     		mov	r1, r3
 3503 0266 3B6A     		ldr	r3, [r7, #32]
 3504 0268 93F8AA3B 		ldrb	r3, [r3, #2986]
 3505 026c DBB2     		uxtb	r3, r3
 3506 026e DBB2     		uxtb	r3, r3
 3507 0270 03F00F03 		and	r3, r3, #15
 3508 0274 DBB2     		uxtb	r3, r3
 3509 0276 63F01F03 		orn	r3, r3, #31
 3510 027a DBB2     		uxtb	r3, r3
ARM GAS  C:\Users\RECEPC~1\AppData\Local\Temp\ccMZb0bC.s 			page 79


 3511 027c DAB2     		uxtb	r2, r3
 3512 027e FB69     		ldr	r3, [r7, #28]
 3513 0280 0B44     		add	r3, r3, r1
 3514 0282 1A71     		strb	r2, [r3, #4]
 933:.\EncoreImpl.c ****                 
 934:.\EncoreImpl.c ****                 puartdisp->_messagetx[index++] = 0xF8; //Preset Data next
 3515              		.loc 1 934 0 discriminator 4
 3516 0284 97F82730 		ldrb	r3, [r7, #39]	@ zero_extendqisi2
 3517 0288 5A1C     		adds	r2, r3, #1
 3518 028a 87F82720 		strb	r2, [r7, #39]
 3519 028e 1A46     		mov	r2, r3
 3520 0290 FB69     		ldr	r3, [r7, #28]
 3521 0292 1344     		add	r3, r3, r2
 3522 0294 F822     		movs	r2, #248
 3523 0296 1A71     		strb	r2, [r3, #4]
 935:.\EncoreImpl.c ****                 //Here we copy the remaining 8 bytes for the preset value
 936:.\EncoreImpl.c ****                 ///THIS IS AN APPLIED CONVENTION ===>> 0x0008 INDEX POSITION WITHIN THE PUMP'S BUFF
 937:.\EncoreImpl.c ****                 ///THESE CODES MUST BE MATCHED OTHERWISE THE LOGIC WILL BREAKUP THE CODE!
 938:.\EncoreImpl.c ****                 memset(PBYTECAST(&ppump->_trasactionbuffer[0x0008]),0x00, 0x0008);
 3524              		.loc 1 938 0 discriminator 4
 3525 0298 3B6A     		ldr	r3, [r7, #32]
 3526 029a 2833     		adds	r3, r3, #40
 3527 029c 1846     		mov	r0, r3
 3528 029e 0021     		movs	r1, #0
 3529 02a0 0822     		movs	r2, #8
 3530 02a2 FFF7FEFF 		bl	memset
 939:.\EncoreImpl.c ****                 B78AD90CF552D9B30A(ppump->_authorizationinfo._presetamount, PBYTECAST(&ppump->_tras
 3531              		.loc 1 939 0 discriminator 4
 3532 02a6 3B6A     		ldr	r3, [r7, #32]
 3533 02a8 D3F8B03B 		ldr	r3, [r3, #2992]
 3534 02ac 1A46     		mov	r2, r3
 3535 02ae 4FF00003 		mov	r3, #0
 3536 02b2 396A     		ldr	r1, [r7, #32]
 3537 02b4 01F12804 		add	r4, r1, #40
 3538 02b8 1046     		mov	r0, r2
 3539 02ba 1946     		mov	r1, r3
 3540 02bc 2246     		mov	r2, r4
 3541 02be FFF7FEFF 		bl	B78AD90CF552D9B30A
 940:.\EncoreImpl.c ****                 char8 *ptr = &ppump->_trasactionbuffer[0x0008];
 3542              		.loc 1 940 0 discriminator 4
 3543 02c2 3B6A     		ldr	r3, [r7, #32]
 3544 02c4 2833     		adds	r3, r3, #40
 3545 02c6 FB60     		str	r3, [r7, #12]
 941:.\EncoreImpl.c ****                 if(transtype == 0xF1) //Volume PRESET, then multiply by 1000
 3546              		.loc 1 941 0 discriminator 4
 3547 02c8 FB7C     		ldrb	r3, [r7, #19]	@ zero_extendqisi2
 3548 02ca F12B     		cmp	r3, #241
 3549 02cc 04D1     		bne	.L108
 942:.\EncoreImpl.c ****                     CastVolumeValue(ptr, 0x08);
 3550              		.loc 1 942 0
 3551 02ce F868     		ldr	r0, [r7, #12]
 3552 02d0 0821     		movs	r1, #8
 3553 02d2 FFF7FEFF 		bl	CastVolumeValue
 3554 02d6 0BE0     		b	.L109
 3555              	.L108:
 943:.\EncoreImpl.c ****                 else if(!(_g_dispenserlayoutinfo._moneydecimals == 0x03 && _g_dispenserlayoutinfo._
 3556              		.loc 1 943 0
ARM GAS  C:\Users\RECEPC~1\AppData\Local\Temp\ccMZb0bC.s 			page 80


 3557 02d8 074B     		ldr	r3, .L113
 3558 02da DB79     		ldrb	r3, [r3, #7]	@ zero_extendqisi2
 3559 02dc 032B     		cmp	r3, #3
 3560 02de 03D1     		bne	.L110
 3561              		.loc 1 943 0 is_stmt 0 discriminator 1
 3562 02e0 054B     		ldr	r3, .L113
 3563 02e2 1B7A     		ldrb	r3, [r3, #8]	@ zero_extendqisi2
 3564 02e4 022B     		cmp	r3, #2
 3565 02e6 03D0     		beq	.L109
 3566              	.L110:
 944:.\EncoreImpl.c ****                     CastMoneyValue(ptr, 0x08);
 3567              		.loc 1 944 0 is_stmt 1
 3568 02e8 F868     		ldr	r0, [r7, #12]
 3569 02ea 0821     		movs	r1, #8
 3570 02ec FFF7FEFF 		bl	CastMoneyValue
 3571              	.L109:
 945:.\EncoreImpl.c ****                     
 946:.\EncoreImpl.c ****                 FOR(uint8 buffndx = 0, buffndx < 0x08, buffndx++)
 3572              		.loc 1 946 0
 3573 02f0 0023     		movs	r3, #0
 3574 02f2 87F82430 		strb	r3, [r7, #36]
 3575 02f6 1CE0     		b	.L111
 3576              	.L114:
 3577              		.align	2
 3578              	.L113:
 3579 02f8 00000000 		.word	_g_dispenserlayoutinfo
 3580              	.L112:
 947:.\EncoreImpl.c ****                     puartdisp->_messagetx[index++] = (0xE0 | (ptr[buffndx] & 0x0F)); //Translate fr
 3581              		.loc 1 947 0 discriminator 3
 3582 02fc 97F82730 		ldrb	r3, [r7, #39]	@ zero_extendqisi2
 3583 0300 5A1C     		adds	r2, r3, #1
 3584 0302 87F82720 		strb	r2, [r7, #39]
 3585 0306 1946     		mov	r1, r3
 3586 0308 97F82430 		ldrb	r3, [r7, #36]	@ zero_extendqisi2
 3587 030c FA68     		ldr	r2, [r7, #12]
 3588 030e 1344     		add	r3, r3, r2
 3589 0310 1B78     		ldrb	r3, [r3]	@ zero_extendqisi2
 3590 0312 DBB2     		uxtb	r3, r3
 3591 0314 03F00F03 		and	r3, r3, #15
 3592 0318 DBB2     		uxtb	r3, r3
 3593 031a 63F01F03 		orn	r3, r3, #31
 3594 031e DBB2     		uxtb	r3, r3
 3595 0320 DAB2     		uxtb	r2, r3
 3596 0322 FB69     		ldr	r3, [r7, #28]
 3597 0324 0B44     		add	r3, r3, r1
 3598 0326 1A71     		strb	r2, [r3, #4]
 946:.\EncoreImpl.c ****                     puartdisp->_messagetx[index++] = (0xE0 | (ptr[buffndx] & 0x0F)); //Translate fr
 3599              		.loc 1 946 0 discriminator 3
 3600 0328 97F82430 		ldrb	r3, [r7, #36]	@ zero_extendqisi2
 3601 032c 0133     		adds	r3, r3, #1
 3602 032e 87F82430 		strb	r3, [r7, #36]
 3603              	.L111:
 946:.\EncoreImpl.c ****                     puartdisp->_messagetx[index++] = (0xE0 | (ptr[buffndx] & 0x0F)); //Translate fr
 3604              		.loc 1 946 0 is_stmt 0 discriminator 1
 3605 0332 97F82430 		ldrb	r3, [r7, #36]	@ zero_extendqisi2
 3606 0336 072B     		cmp	r3, #7
 3607 0338 E0D9     		bls	.L112
ARM GAS  C:\Users\RECEPC~1\AppData\Local\Temp\ccMZb0bC.s 			page 81


 3608              	.L105:
 3609              	.LBE18:
 948:.\EncoreImpl.c ****             }
 949:.\EncoreImpl.c ****             
 950:.\EncoreImpl.c ****             ppump->_presetdone = true;
 3610              		.loc 1 950 0 is_stmt 1
 3611 033a 3B6A     		ldr	r3, [r7, #32]
 3612 033c 0122     		movs	r2, #1
 3613 033e 1A72     		strb	r2, [r3, #8]
 951:.\EncoreImpl.c ****             puartdisp->_messagetx[index++] = LRCn; //LRC next
 3614              		.loc 1 951 0
 3615 0340 97F82730 		ldrb	r3, [r7, #39]	@ zero_extendqisi2
 3616 0344 5A1C     		adds	r2, r3, #1
 3617 0346 87F82720 		strb	r2, [r7, #39]
 3618 034a 1A46     		mov	r2, r3
 3619 034c FB69     		ldr	r3, [r7, #28]
 3620 034e 1344     		add	r3, r3, r2
 3621 0350 FB22     		movs	r2, #251
 3622 0352 1A71     		strb	r2, [r3, #4]
 952:.\EncoreImpl.c ****             puartdisp->_messagetx[index++] = GetLRC(puartdisp->_messagetx);
 3623              		.loc 1 952 0
 3624 0354 97F82730 		ldrb	r3, [r7, #39]	@ zero_extendqisi2
 3625 0358 5A1C     		adds	r2, r3, #1
 3626 035a 87F82720 		strb	r2, [r7, #39]
 3627 035e 1C46     		mov	r4, r3
 3628 0360 FB69     		ldr	r3, [r7, #28]
 3629 0362 0433     		adds	r3, r3, #4
 3630 0364 1846     		mov	r0, r3
 3631 0366 FFF7FEFF 		bl	GetLRC
 3632 036a 0346     		mov	r3, r0
 3633 036c 1A46     		mov	r2, r3
 3634 036e FB69     		ldr	r3, [r7, #28]
 3635 0370 2344     		add	r3, r3, r4
 3636 0372 1A71     		strb	r2, [r3, #4]
 953:.\EncoreImpl.c ****             puartdisp->_messagetx[index++] = EOM;
 3637              		.loc 1 953 0
 3638 0374 97F82730 		ldrb	r3, [r7, #39]	@ zero_extendqisi2
 3639 0378 5A1C     		adds	r2, r3, #1
 3640 037a 87F82720 		strb	r2, [r7, #39]
 3641 037e 1A46     		mov	r2, r3
 3642 0380 FB69     		ldr	r3, [r7, #28]
 3643 0382 1344     		add	r3, r3, r2
 3644 0384 F022     		movs	r2, #240
 3645 0386 1A71     		strb	r2, [r3, #4]
 954:.\EncoreImpl.c **** ///////////////////////////////////////////////////////////////////////////////////////////////////
 955:.\EncoreImpl.c ****             
 956:.\EncoreImpl.c ****             puartdisp->_messagelength = index;
 3646              		.loc 1 956 0
 3647 0388 97F82730 		ldrb	r3, [r7, #39]	@ zero_extendqisi2
 3648 038c 9AB2     		uxth	r2, r3
 3649 038e FB69     		ldr	r3, [r7, #28]
 3650 0390 5A80     		strh	r2, [r3, #2]	@ movhi
 957:.\EncoreImpl.c ****             puartdisp->_messagestate = PENDING;
 3651              		.loc 1 957 0
 3652 0392 FB69     		ldr	r3, [r7, #28]
 3653 0394 C222     		movs	r2, #194
 3654 0396 1A70     		strb	r2, [r3]
ARM GAS  C:\Users\RECEPC~1\AppData\Local\Temp\ccMZb0bC.s 			page 82


 3655              	.L90:
 3656              	.LBE14:
 958:.\EncoreImpl.c ****         }
 959:.\EncoreImpl.c ****     }
 960:.\EncoreImpl.c ****     
 961:.\EncoreImpl.c **** }
 3657              		.loc 1 961 0
 3658 0398 2C37     		adds	r7, r7, #44
 3659              		.cfi_def_cfa_offset 12
 3660 039a BD46     		mov	sp, r7
 3661              		.cfi_def_cfa_register 13
 3662              		@ sp needed
 3663 039c 90BD     		pop	{r4, r7, pc}
 3664              		.cfi_endproc
 3665              	.LFE78:
 3666              		.size	PumpCreditPresetHose, .-PumpCreditPresetHose
 3667 039e 00BF     		.section	.text.PumpPresetHose,"ax",%progbits
 3668              		.align	2
 3669              		.global	PumpPresetHose
 3670              		.thumb
 3671              		.thumb_func
 3672              		.type	PumpPresetHose, %function
 3673              	PumpPresetHose:
 3674              	.LFB79:
 962:.\EncoreImpl.c **** 
 963:.\EncoreImpl.c **** //@Created By: HIJH
 964:.\EncoreImpl.c **** //@Septembre de 2016
 965:.\EncoreImpl.c **** ///////////////////////////////////////////////////////////////////////////////////////////////////
 966:.\EncoreImpl.c **** //Preset values will be placed within the SinkMessage's buffer. This is a convention that applies t
 967:.\EncoreImpl.c **** //all of the available transactions. The pump function must deal with this while it is assembling t
 968:.\EncoreImpl.c **** //For this message the data comes as follows:
 969:.\EncoreImpl.c **** // - First byte is the preset type (Volume:1 / Money:2 )
 970:.\EncoreImpl.c **** // - Second byte is the Hose (A:0, B:1, C:2, D:3)
 971:.\EncoreImpl.c **** // - Block of 8 bytes for the preset value
 972:.\EncoreImpl.c **** //This block of data (10 bytes) must be moved to another position within the same buffer (even posi
 973:.\EncoreImpl.c **** void PumpPresetHose(void *pparam)
 974:.\EncoreImpl.c **** {
 3675              		.loc 1 974 0
 3676              		.cfi_startproc
 3677              		@ args = 0, pretend = 0, frame = 40
 3678              		@ frame_needed = 1, uses_anonymous_args = 0
 3679 0000 90B5     		push	{r4, r7, lr}
 3680              		.cfi_def_cfa_offset 12
 3681              		.cfi_offset 4, -12
 3682              		.cfi_offset 7, -8
 3683              		.cfi_offset 14, -4
 3684 0002 8BB0     		sub	sp, sp, #44
 3685              		.cfi_def_cfa_offset 56
 3686 0004 00AF     		add	r7, sp, #0
 3687              		.cfi_def_cfa_register 7
 3688 0006 7860     		str	r0, [r7, #4]
 975:.\EncoreImpl.c ****     PNEAR_PUMPPTR ppump = (PNEAR_PUMPPTR)pparam;
 3689              		.loc 1 975 0
 3690 0008 7B68     		ldr	r3, [r7, #4]
 3691 000a 3B62     		str	r3, [r7, #32]
 976:.\EncoreImpl.c ****     if(ppump)
 3692              		.loc 1 976 0
ARM GAS  C:\Users\RECEPC~1\AppData\Local\Temp\ccMZb0bC.s 			page 83


 3693 000c 3B6A     		ldr	r3, [r7, #32]
 3694 000e 002B     		cmp	r3, #0
 3695 0010 00F09D81 		beq	.L115
 3696              	.LBB19:
 977:.\EncoreImpl.c ****     {
 978:.\EncoreImpl.c ****         uint8_t index = 0;        
 3697              		.loc 1 978 0
 3698 0014 0023     		movs	r3, #0
 3699 0016 87F82730 		strb	r3, [r7, #39]
 979:.\EncoreImpl.c ****         PUARTMESSAGEPTR puartdisp = GetUARTMessageSlot(UART_DISPENSER);
 3700              		.loc 1 979 0
 3701 001a A220     		movs	r0, #162
 3702 001c FFF7FEFF 		bl	GetUARTMessageSlot
 3703 0020 F861     		str	r0, [r7, #28]
 980:.\EncoreImpl.c ****         memset(ppump->_rxbuffer, 0x00, _PUMP_RX_BUFFER_SIZE_);
 3704              		.loc 1 980 0
 3705 0022 3B6A     		ldr	r3, [r7, #32]
 3706 0024 03F5D073 		add	r3, r3, #416
 3707 0028 1846     		mov	r0, r3
 3708 002a 0021     		movs	r1, #0
 3709 002c 4FF4C072 		mov	r2, #384
 3710 0030 FFF7FEFF 		bl	memset
 981:.\EncoreImpl.c ****         if(puartdisp)
 3711              		.loc 1 981 0
 3712 0034 FB69     		ldr	r3, [r7, #28]
 3713 0036 002B     		cmp	r3, #0
 3714 0038 00F08981 		beq	.L115
 982:.\EncoreImpl.c ****         {
 983:.\EncoreImpl.c **** ///////////////////////////////////////////////////////////////////////////////////////////////////
 984:.\EncoreImpl.c ****             puartdisp->_messagetx[index++] = SOM;
 3715              		.loc 1 984 0
 3716 003c 97F82730 		ldrb	r3, [r7, #39]	@ zero_extendqisi2
 3717 0040 5A1C     		adds	r2, r3, #1
 3718 0042 87F82720 		strb	r2, [r7, #39]
 3719 0046 1A46     		mov	r2, r3
 3720 0048 FB69     		ldr	r3, [r7, #28]
 3721 004a 1344     		add	r3, r3, r2
 3722 004c FF22     		movs	r2, #255
 3723 004e 1A71     		strb	r2, [r3, #4]
 985:.\EncoreImpl.c ****             if(_g_dispenserlayoutinfo._displaydigitsmode == 0x06)
 3724              		.loc 1 985 0
 3725 0050 C04B     		ldr	r3, .L138
 3726 0052 1B7C     		ldrb	r3, [r3, #16]	@ zero_extendqisi2
 3727 0054 062B     		cmp	r3, #6
 3728 0056 40F0C580 		bne	.L117
 3729              	.LBB20:
 986:.\EncoreImpl.c ****             {
 987:.\EncoreImpl.c ****                 uint8 transtype = (0xF0 | ((ppump->_trasactionbuffer[0x0004] == 0x0F)? 0x02: 0x01))
 3730              		.loc 1 987 0
 3731 005a 3B6A     		ldr	r3, [r7, #32]
 3732 005c 93F82430 		ldrb	r3, [r3, #36]	@ zero_extendqisi2
 3733 0060 0F2B     		cmp	r3, #15
 3734 0062 01D1     		bne	.L118
 3735              		.loc 1 987 0 is_stmt 0 discriminator 1
 3736 0064 F223     		movs	r3, #242
 3737 0066 00E0     		b	.L119
 3738              	.L118:
ARM GAS  C:\Users\RECEPC~1\AppData\Local\Temp\ccMZb0bC.s 			page 84


 3739              		.loc 1 987 0 discriminator 2
 3740 0068 F123     		movs	r3, #241
 3741              	.L119:
 3742              		.loc 1 987 0 discriminator 4
 3743 006a FB76     		strb	r3, [r7, #27]
 988:.\EncoreImpl.c ****                 if(transtype == 0xF1)
 3744              		.loc 1 988 0 is_stmt 1 discriminator 4
 3745 006c FB7E     		ldrb	r3, [r7, #27]	@ zero_extendqisi2
 3746 006e F12B     		cmp	r3, #241
 3747 0070 0AD1     		bne	.L120
 989:.\EncoreImpl.c ****                     puartdisp->_messagetx[index++] = 0xE3;
 3748              		.loc 1 989 0
 3749 0072 97F82730 		ldrb	r3, [r7, #39]	@ zero_extendqisi2
 3750 0076 5A1C     		adds	r2, r3, #1
 3751 0078 87F82720 		strb	r2, [r7, #39]
 3752 007c 1A46     		mov	r2, r3
 3753 007e FB69     		ldr	r3, [r7, #28]
 3754 0080 1344     		add	r3, r3, r2
 3755 0082 E322     		movs	r2, #227
 3756 0084 1A71     		strb	r2, [r3, #4]
 3757 0086 09E0     		b	.L121
 3758              	.L120:
 990:.\EncoreImpl.c ****                 else
 991:.\EncoreImpl.c ****                     puartdisp->_messagetx[index++] = 0xE2;
 3759              		.loc 1 991 0
 3760 0088 97F82730 		ldrb	r3, [r7, #39]	@ zero_extendqisi2
 3761 008c 5A1C     		adds	r2, r3, #1
 3762 008e 87F82720 		strb	r2, [r7, #39]
 3763 0092 1A46     		mov	r2, r3
 3764 0094 FB69     		ldr	r3, [r7, #28]
 3765 0096 1344     		add	r3, r3, r2
 3766 0098 E222     		movs	r2, #226
 3767 009a 1A71     		strb	r2, [r3, #4]
 3768              	.L121:
 992:.\EncoreImpl.c ****                 
 993:.\EncoreImpl.c ****                 ///THIS IS AN APPLIED CONVENTION ===>> 0x0004 INDEX POSITION WITHIN THE PUMP'S BUFF
 994:.\EncoreImpl.c ****                 ///THESE CODES MUST BE MATCHED OTHERWISE THE LOGIC WILL BREAKUP THE CODE!
 995:.\EncoreImpl.c ****                 puartdisp->_messagetx[index++] = transtype;
 3769              		.loc 1 995 0
 3770 009c 97F82730 		ldrb	r3, [r7, #39]	@ zero_extendqisi2
 3771 00a0 5A1C     		adds	r2, r3, #1
 3772 00a2 87F82720 		strb	r2, [r7, #39]
 3773 00a6 1A46     		mov	r2, r3
 3774 00a8 FB69     		ldr	r3, [r7, #28]
 3775 00aa 1344     		add	r3, r3, r2
 3776 00ac FA7E     		ldrb	r2, [r7, #27]
 3777 00ae 1A71     		strb	r2, [r3, #4]
 996:.\EncoreImpl.c ****                 puartdisp->_messagetx[index++] = 0xF4;
 3778              		.loc 1 996 0
 3779 00b0 97F82730 		ldrb	r3, [r7, #39]	@ zero_extendqisi2
 3780 00b4 5A1C     		adds	r2, r3, #1
 3781 00b6 87F82720 		strb	r2, [r7, #39]
 3782 00ba 1A46     		mov	r2, r3
 3783 00bc FB69     		ldr	r3, [r7, #28]
 3784 00be 1344     		add	r3, r3, r2
 3785 00c0 F422     		movs	r2, #244
 3786 00c2 1A71     		strb	r2, [r3, #4]
ARM GAS  C:\Users\RECEPC~1\AppData\Local\Temp\ccMZb0bC.s 			page 85


 997:.\EncoreImpl.c ****                 puartdisp->_messagetx[index++] = 0xF6; //Hose Data next
 3787              		.loc 1 997 0
 3788 00c4 97F82730 		ldrb	r3, [r7, #39]	@ zero_extendqisi2
 3789 00c8 5A1C     		adds	r2, r3, #1
 3790 00ca 87F82720 		strb	r2, [r7, #39]
 3791 00ce 1A46     		mov	r2, r3
 3792 00d0 FB69     		ldr	r3, [r7, #28]
 3793 00d2 1344     		add	r3, r3, r2
 3794 00d4 F622     		movs	r2, #246
 3795 00d6 1A71     		strb	r2, [r3, #4]
 998:.\EncoreImpl.c ****                 ///THIS IS AN APPLIED CONVENTION ===>> 0x0006 INDEX POSITION WITHIN THE PUMP'S BUFF
 999:.\EncoreImpl.c ****                 ///THESE CODES MUST BE MATCHED OTHERWISE THE LOGIC WILL BREAKUP THE CODE!
1000:.\EncoreImpl.c ****                 puartdisp->_messagetx[index++] = (0xE0 | (0x0F & ppump->_trasactionbuffer[GetBuffer
 3796              		.loc 1 1000 0
 3797 00d8 97F82730 		ldrb	r3, [r7, #39]	@ zero_extendqisi2
 3798 00dc 5A1C     		adds	r2, r3, #1
 3799 00de 87F82720 		strb	r2, [r7, #39]
 3800 00e2 1C46     		mov	r4, r3
 3801 00e4 0720     		movs	r0, #7
 3802 00e6 FFF7FEFF 		bl	GetBufferIndexFromDisplayID
 3803 00ea 0346     		mov	r3, r0
 3804 00ec 1A46     		mov	r2, r3
 3805 00ee 3B6A     		ldr	r3, [r7, #32]
 3806 00f0 1344     		add	r3, r3, r2
 3807 00f2 93F82030 		ldrb	r3, [r3, #32]	@ zero_extendqisi2
 3808 00f6 03F00F03 		and	r3, r3, #15
 3809 00fa DBB2     		uxtb	r3, r3
 3810 00fc 63F01F03 		orn	r3, r3, #31
 3811 0100 DAB2     		uxtb	r2, r3
 3812 0102 FB69     		ldr	r3, [r7, #28]
 3813 0104 2344     		add	r3, r3, r4
 3814 0106 1A71     		strb	r2, [r3, #4]
1001:.\EncoreImpl.c ****                 //puartdisp->_messagetx[index++] = 0xE0;
1002:.\EncoreImpl.c ****                 
1003:.\EncoreImpl.c ****                 puartdisp->_messagetx[index++] = 0xF8; //Preset Data next
 3815              		.loc 1 1003 0
 3816 0108 97F82730 		ldrb	r3, [r7, #39]	@ zero_extendqisi2
 3817 010c 5A1C     		adds	r2, r3, #1
 3818 010e 87F82720 		strb	r2, [r7, #39]
 3819 0112 1A46     		mov	r2, r3
 3820 0114 FB69     		ldr	r3, [r7, #28]
 3821 0116 1344     		add	r3, r3, r2
 3822 0118 F822     		movs	r2, #248
 3823 011a 1A71     		strb	r2, [r3, #4]
1004:.\EncoreImpl.c ****                 //Here we copy the remaining 8 bytes for the preset value
1005:.\EncoreImpl.c ****                 ///THIS IS AN APPLIED CONVENTION ===>> 0x0008 INDEX POSITION WITHIN THE PUMP'S BUFF
1006:.\EncoreImpl.c ****                 ///THESE CODES MUST BE MATCHED OTHERWISE THE LOGIC WILL BREAKUP THE CODE!
1007:.\EncoreImpl.c ****                 char8 *ptr = &ppump->_trasactionbuffer[0x0008];
 3824              		.loc 1 1007 0
 3825 011c 3B6A     		ldr	r3, [r7, #32]
 3826 011e 2833     		adds	r3, r3, #40
 3827 0120 7B61     		str	r3, [r7, #20]
1008:.\EncoreImpl.c ****                 if(transtype == 0xF1) //Volume PRESET, then multiply by 1000
 3828              		.loc 1 1008 0
 3829 0122 FB7E     		ldrb	r3, [r7, #27]	@ zero_extendqisi2
 3830 0124 F12B     		cmp	r3, #241
 3831 0126 2AD1     		bne	.L122
ARM GAS  C:\Users\RECEPC~1\AppData\Local\Temp\ccMZb0bC.s 			page 86


 3832              	.LBB21:
1009:.\EncoreImpl.c ****                 {
1010:.\EncoreImpl.c ****                     CastVolumeValue(ptr, 0x08);
 3833              		.loc 1 1010 0
 3834 0128 7869     		ldr	r0, [r7, #20]
 3835 012a 0821     		movs	r1, #8
 3836 012c FFF7FEFF 		bl	CastVolumeValue
1011:.\EncoreImpl.c ****                     
1012:.\EncoreImpl.c ****                     FOR(uint8 buffndx = 0, buffndx < 0x05, buffndx++)
 3837              		.loc 1 1012 0
 3838 0130 0023     		movs	r3, #0
 3839 0132 87F82630 		strb	r3, [r7, #38]
 3840 0136 1DE0     		b	.L123
 3841              	.L124:
1013:.\EncoreImpl.c ****                         puartdisp->_messagetx[index++] = (0xE0 | (ptr[7 - buffndx] & 0x0F)); //Tran
 3842              		.loc 1 1013 0 discriminator 3
 3843 0138 97F82730 		ldrb	r3, [r7, #39]	@ zero_extendqisi2
 3844 013c 5A1C     		adds	r2, r3, #1
 3845 013e 87F82720 		strb	r2, [r7, #39]
 3846 0142 1946     		mov	r1, r3
 3847 0144 97F82630 		ldrb	r3, [r7, #38]	@ zero_extendqisi2
 3848 0148 C3F10703 		rsb	r3, r3, #7
 3849 014c 1A46     		mov	r2, r3
 3850 014e 7B69     		ldr	r3, [r7, #20]
 3851 0150 1344     		add	r3, r3, r2
 3852 0152 1B78     		ldrb	r3, [r3]	@ zero_extendqisi2
 3853 0154 DBB2     		uxtb	r3, r3
 3854 0156 03F00F03 		and	r3, r3, #15
 3855 015a DBB2     		uxtb	r3, r3
 3856 015c 63F01F03 		orn	r3, r3, #31
 3857 0160 DBB2     		uxtb	r3, r3
 3858 0162 DAB2     		uxtb	r2, r3
 3859 0164 FB69     		ldr	r3, [r7, #28]
 3860 0166 0B44     		add	r3, r3, r1
 3861 0168 1A71     		strb	r2, [r3, #4]
1012:.\EncoreImpl.c ****                         puartdisp->_messagetx[index++] = (0xE0 | (ptr[7 - buffndx] & 0x0F)); //Tran
 3862              		.loc 1 1012 0 discriminator 3
 3863 016a 97F82630 		ldrb	r3, [r7, #38]	@ zero_extendqisi2
 3864 016e 0133     		adds	r3, r3, #1
 3865 0170 87F82630 		strb	r3, [r7, #38]
 3866              	.L123:
1012:.\EncoreImpl.c ****                         puartdisp->_messagetx[index++] = (0xE0 | (ptr[7 - buffndx] & 0x0F)); //Tran
 3867              		.loc 1 1012 0 is_stmt 0 discriminator 1
 3868 0174 97F82630 		ldrb	r3, [r7, #38]	@ zero_extendqisi2
 3869 0178 042B     		cmp	r3, #4
 3870 017a DDD9     		bls	.L124
 3871              	.LBE21:
 3872 017c 31E0     		b	.L125
 3873              	.L122:
 3874              	.LBB22:
1014:.\EncoreImpl.c ****                 }
1015:.\EncoreImpl.c ****                 else
1016:.\EncoreImpl.c ****                 {
1017:.\EncoreImpl.c ****                     if(!(_g_dispenserlayoutinfo._moneydecimals == 0x03 && _g_dispenserlayoutinfo._p
 3875              		.loc 1 1017 0 is_stmt 1
 3876 017e 754B     		ldr	r3, .L138
 3877 0180 DB79     		ldrb	r3, [r3, #7]	@ zero_extendqisi2
ARM GAS  C:\Users\RECEPC~1\AppData\Local\Temp\ccMZb0bC.s 			page 87


 3878 0182 032B     		cmp	r3, #3
 3879 0184 03D1     		bne	.L126
 3880              		.loc 1 1017 0 is_stmt 0 discriminator 1
 3881 0186 734B     		ldr	r3, .L138
 3882 0188 1B7A     		ldrb	r3, [r3, #8]	@ zero_extendqisi2
 3883 018a 022B     		cmp	r3, #2
 3884 018c 03D0     		beq	.L127
 3885              	.L126:
1018:.\EncoreImpl.c ****                         CastMoneyValue(ptr, 0x08);
 3886              		.loc 1 1018 0 is_stmt 1
 3887 018e 7869     		ldr	r0, [r7, #20]
 3888 0190 0821     		movs	r1, #8
 3889 0192 FFF7FEFF 		bl	CastMoneyValue
 3890              	.L127:
1019:.\EncoreImpl.c ****                     
1020:.\EncoreImpl.c ****                     FOR(uint8 buffndx = 0, buffndx < 0x06, buffndx++)
 3891              		.loc 1 1020 0
 3892 0196 0023     		movs	r3, #0
 3893 0198 87F82530 		strb	r3, [r7, #37]
 3894 019c 1DE0     		b	.L128
 3895              	.L129:
1021:.\EncoreImpl.c ****                         puartdisp->_messagetx[index++] = (0xE0 | (ptr[7 - buffndx] & 0x0F)); //Tran
 3896              		.loc 1 1021 0 discriminator 3
 3897 019e 97F82730 		ldrb	r3, [r7, #39]	@ zero_extendqisi2
 3898 01a2 5A1C     		adds	r2, r3, #1
 3899 01a4 87F82720 		strb	r2, [r7, #39]
 3900 01a8 1946     		mov	r1, r3
 3901 01aa 97F82530 		ldrb	r3, [r7, #37]	@ zero_extendqisi2
 3902 01ae C3F10703 		rsb	r3, r3, #7
 3903 01b2 1A46     		mov	r2, r3
 3904 01b4 7B69     		ldr	r3, [r7, #20]
 3905 01b6 1344     		add	r3, r3, r2
 3906 01b8 1B78     		ldrb	r3, [r3]	@ zero_extendqisi2
 3907 01ba DBB2     		uxtb	r3, r3
 3908 01bc 03F00F03 		and	r3, r3, #15
 3909 01c0 DBB2     		uxtb	r3, r3
 3910 01c2 63F01F03 		orn	r3, r3, #31
 3911 01c6 DBB2     		uxtb	r3, r3
 3912 01c8 DAB2     		uxtb	r2, r3
 3913 01ca FB69     		ldr	r3, [r7, #28]
 3914 01cc 0B44     		add	r3, r3, r1
 3915 01ce 1A71     		strb	r2, [r3, #4]
1020:.\EncoreImpl.c ****                         puartdisp->_messagetx[index++] = (0xE0 | (ptr[7 - buffndx] & 0x0F)); //Tran
 3916              		.loc 1 1020 0 discriminator 3
 3917 01d0 97F82530 		ldrb	r3, [r7, #37]	@ zero_extendqisi2
 3918 01d4 0133     		adds	r3, r3, #1
 3919 01d6 87F82530 		strb	r3, [r7, #37]
 3920              	.L128:
1020:.\EncoreImpl.c ****                         puartdisp->_messagetx[index++] = (0xE0 | (ptr[7 - buffndx] & 0x0F)); //Tran
 3921              		.loc 1 1020 0 is_stmt 0 discriminator 1
 3922 01da 97F82530 		ldrb	r3, [r7, #37]	@ zero_extendqisi2
 3923 01de 052B     		cmp	r3, #5
 3924 01e0 DDD9     		bls	.L129
 3925              	.L125:
 3926              	.LBE22:
 3927              	.LBE20:
 3928 01e2 85E0     		b	.L130
ARM GAS  C:\Users\RECEPC~1\AppData\Local\Temp\ccMZb0bC.s 			page 88


 3929              	.L117:
 3930              	.LBB23:
1022:.\EncoreImpl.c ****                 }
1023:.\EncoreImpl.c ****             }
1024:.\EncoreImpl.c ****             else
1025:.\EncoreImpl.c ****             {
1026:.\EncoreImpl.c ****                 puartdisp->_messagetx[index++] = 0xE1;
 3931              		.loc 1 1026 0 is_stmt 1
 3932 01e4 97F82730 		ldrb	r3, [r7, #39]	@ zero_extendqisi2
 3933 01e8 5A1C     		adds	r2, r3, #1
 3934 01ea 87F82720 		strb	r2, [r7, #39]
 3935 01ee 1A46     		mov	r2, r3
 3936 01f0 FB69     		ldr	r3, [r7, #28]
 3937 01f2 1344     		add	r3, r3, r2
 3938 01f4 E122     		movs	r2, #225
 3939 01f6 1A71     		strb	r2, [r3, #4]
1027:.\EncoreImpl.c ****                     
1028:.\EncoreImpl.c ****                 ///THIS IS AN APPLIED CONVENTION ===>> 0x0004 INDEX POSITION WITHIN THE PUMP'S BUFF
1029:.\EncoreImpl.c ****                 ///THESE CODES MUST BE MATCHED OTHERWISE THE LOGIC WILL BREAKUP THE CODE!
1030:.\EncoreImpl.c ****                 uint8 transtype = (0xF0 | ((ppump->_trasactionbuffer[0x0004] == 0x0F)? 0x02: 0x01))
 3940              		.loc 1 1030 0
 3941 01f8 3B6A     		ldr	r3, [r7, #32]
 3942 01fa 93F82430 		ldrb	r3, [r3, #36]	@ zero_extendqisi2
 3943 01fe 0F2B     		cmp	r3, #15
 3944 0200 01D1     		bne	.L131
 3945              		.loc 1 1030 0 is_stmt 0 discriminator 1
 3946 0202 F223     		movs	r3, #242
 3947 0204 00E0     		b	.L132
 3948              	.L131:
 3949              		.loc 1 1030 0 discriminator 2
 3950 0206 F123     		movs	r3, #241
 3951              	.L132:
 3952              		.loc 1 1030 0 discriminator 4
 3953 0208 FB74     		strb	r3, [r7, #19]
1031:.\EncoreImpl.c ****                 puartdisp->_messagetx[index++] = transtype;
 3954              		.loc 1 1031 0 is_stmt 1 discriminator 4
 3955 020a 97F82730 		ldrb	r3, [r7, #39]	@ zero_extendqisi2
 3956 020e 5A1C     		adds	r2, r3, #1
 3957 0210 87F82720 		strb	r2, [r7, #39]
 3958 0214 1A46     		mov	r2, r3
 3959 0216 FB69     		ldr	r3, [r7, #28]
 3960 0218 1344     		add	r3, r3, r2
 3961 021a FA7C     		ldrb	r2, [r7, #19]
 3962 021c 1A71     		strb	r2, [r3, #4]
1032:.\EncoreImpl.c **** 
1033:.\EncoreImpl.c ****                 puartdisp->_messagetx[index++] = 0xF6; //Hose Data next
 3963              		.loc 1 1033 0 discriminator 4
 3964 021e 97F82730 		ldrb	r3, [r7, #39]	@ zero_extendqisi2
 3965 0222 5A1C     		adds	r2, r3, #1
 3966 0224 87F82720 		strb	r2, [r7, #39]
 3967 0228 1A46     		mov	r2, r3
 3968 022a FB69     		ldr	r3, [r7, #28]
 3969 022c 1344     		add	r3, r3, r2
 3970 022e F622     		movs	r2, #246
 3971 0230 1A71     		strb	r2, [r3, #4]
1034:.\EncoreImpl.c ****                 ///THIS IS AN APPLIED CONVENTION ===>> 0x0006 INDEX POSITION WITHIN THE PUMP'S BUFF
1035:.\EncoreImpl.c ****                 ///THESE CODES MUST BE MATCHED OTHERWISE THE LOGIC WILL BREAKUP THE CODE!
ARM GAS  C:\Users\RECEPC~1\AppData\Local\Temp\ccMZb0bC.s 			page 89


1036:.\EncoreImpl.c ****                 puartdisp->_messagetx[index++] = (0xE0 | (0x0F & ppump->_trasactionbuffer[GetBuffer
 3972              		.loc 1 1036 0 discriminator 4
 3973 0232 97F82730 		ldrb	r3, [r7, #39]	@ zero_extendqisi2
 3974 0236 5A1C     		adds	r2, r3, #1
 3975 0238 87F82720 		strb	r2, [r7, #39]
 3976 023c 1C46     		mov	r4, r3
 3977 023e 0720     		movs	r0, #7
 3978 0240 FFF7FEFF 		bl	GetBufferIndexFromDisplayID
 3979 0244 0346     		mov	r3, r0
 3980 0246 1A46     		mov	r2, r3
 3981 0248 3B6A     		ldr	r3, [r7, #32]
 3982 024a 1344     		add	r3, r3, r2
 3983 024c 93F82030 		ldrb	r3, [r3, #32]	@ zero_extendqisi2
 3984 0250 03F00F03 		and	r3, r3, #15
 3985 0254 DBB2     		uxtb	r3, r3
 3986 0256 63F01F03 		orn	r3, r3, #31
 3987 025a DAB2     		uxtb	r2, r3
 3988 025c FB69     		ldr	r3, [r7, #28]
 3989 025e 2344     		add	r3, r3, r4
 3990 0260 1A71     		strb	r2, [r3, #4]
1037:.\EncoreImpl.c ****                 //puartdisp->_messagetx[index++] = 0xE0;
1038:.\EncoreImpl.c ****                 
1039:.\EncoreImpl.c ****                 puartdisp->_messagetx[index++] = 0xF8; //Preset Data next
 3991              		.loc 1 1039 0 discriminator 4
 3992 0262 97F82730 		ldrb	r3, [r7, #39]	@ zero_extendqisi2
 3993 0266 5A1C     		adds	r2, r3, #1
 3994 0268 87F82720 		strb	r2, [r7, #39]
 3995 026c 1A46     		mov	r2, r3
 3996 026e FB69     		ldr	r3, [r7, #28]
 3997 0270 1344     		add	r3, r3, r2
 3998 0272 F822     		movs	r2, #248
 3999 0274 1A71     		strb	r2, [r3, #4]
1040:.\EncoreImpl.c ****                 //Here we copy the remaining 8 bytes for the preset value
1041:.\EncoreImpl.c ****                 ///THIS IS AN APPLIED CONVENTION ===>> 0x0008 INDEX POSITION WITHIN THE PUMP'S BUFF
1042:.\EncoreImpl.c ****                 ///THESE CODES MUST BE MATCHED OTHERWISE THE LOGIC WILL BREAKUP THE CODE!
1043:.\EncoreImpl.c ****                 char8 *ptr = &ppump->_trasactionbuffer[0x0008];
 4000              		.loc 1 1043 0 discriminator 4
 4001 0276 3B6A     		ldr	r3, [r7, #32]
 4002 0278 2833     		adds	r3, r3, #40
 4003 027a FB60     		str	r3, [r7, #12]
1044:.\EncoreImpl.c ****                 if(transtype == 0xF1) //Volume PRESET, then multiply by 1000
 4004              		.loc 1 1044 0 discriminator 4
 4005 027c FB7C     		ldrb	r3, [r7, #19]	@ zero_extendqisi2
 4006 027e F12B     		cmp	r3, #241
 4007 0280 04D1     		bne	.L133
1045:.\EncoreImpl.c ****                     CastVolumeValue(ptr, 0x08);
 4008              		.loc 1 1045 0
 4009 0282 F868     		ldr	r0, [r7, #12]
 4010 0284 0821     		movs	r1, #8
 4011 0286 FFF7FEFF 		bl	CastVolumeValue
 4012 028a 0BE0     		b	.L134
 4013              	.L133:
1046:.\EncoreImpl.c ****                 else if(!(_g_dispenserlayoutinfo._moneydecimals == 0x03 && _g_dispenserlayoutinfo._
 4014              		.loc 1 1046 0
 4015 028c 314B     		ldr	r3, .L138
 4016 028e DB79     		ldrb	r3, [r3, #7]	@ zero_extendqisi2
 4017 0290 032B     		cmp	r3, #3
ARM GAS  C:\Users\RECEPC~1\AppData\Local\Temp\ccMZb0bC.s 			page 90


 4018 0292 03D1     		bne	.L135
 4019              		.loc 1 1046 0 is_stmt 0 discriminator 1
 4020 0294 2F4B     		ldr	r3, .L138
 4021 0296 1B7A     		ldrb	r3, [r3, #8]	@ zero_extendqisi2
 4022 0298 022B     		cmp	r3, #2
 4023 029a 03D0     		beq	.L134
 4024              	.L135:
1047:.\EncoreImpl.c ****                     CastMoneyValue(ptr, 0x08);
 4025              		.loc 1 1047 0 is_stmt 1
 4026 029c F868     		ldr	r0, [r7, #12]
 4027 029e 0821     		movs	r1, #8
 4028 02a0 FFF7FEFF 		bl	CastMoneyValue
 4029              	.L134:
1048:.\EncoreImpl.c ****                     
1049:.\EncoreImpl.c ****                 FOR(uint8 buffndx = 0, buffndx < 0x08, buffndx++)
 4030              		.loc 1 1049 0
 4031 02a4 0023     		movs	r3, #0
 4032 02a6 87F82430 		strb	r3, [r7, #36]
 4033 02aa 1DE0     		b	.L136
 4034              	.L137:
1050:.\EncoreImpl.c ****                     puartdisp->_messagetx[index++] = (0xE0 | (ptr[7 - buffndx] & 0x0F)); //Translat
 4035              		.loc 1 1050 0 discriminator 3
 4036 02ac 97F82730 		ldrb	r3, [r7, #39]	@ zero_extendqisi2
 4037 02b0 5A1C     		adds	r2, r3, #1
 4038 02b2 87F82720 		strb	r2, [r7, #39]
 4039 02b6 1946     		mov	r1, r3
 4040 02b8 97F82430 		ldrb	r3, [r7, #36]	@ zero_extendqisi2
 4041 02bc C3F10703 		rsb	r3, r3, #7
 4042 02c0 1A46     		mov	r2, r3
 4043 02c2 FB68     		ldr	r3, [r7, #12]
 4044 02c4 1344     		add	r3, r3, r2
 4045 02c6 1B78     		ldrb	r3, [r3]	@ zero_extendqisi2
 4046 02c8 DBB2     		uxtb	r3, r3
 4047 02ca 03F00F03 		and	r3, r3, #15
 4048 02ce DBB2     		uxtb	r3, r3
 4049 02d0 63F01F03 		orn	r3, r3, #31
 4050 02d4 DBB2     		uxtb	r3, r3
 4051 02d6 DAB2     		uxtb	r2, r3
 4052 02d8 FB69     		ldr	r3, [r7, #28]
 4053 02da 0B44     		add	r3, r3, r1
 4054 02dc 1A71     		strb	r2, [r3, #4]
1049:.\EncoreImpl.c ****                     puartdisp->_messagetx[index++] = (0xE0 | (ptr[7 - buffndx] & 0x0F)); //Translat
 4055              		.loc 1 1049 0 discriminator 3
 4056 02de 97F82430 		ldrb	r3, [r7, #36]	@ zero_extendqisi2
 4057 02e2 0133     		adds	r3, r3, #1
 4058 02e4 87F82430 		strb	r3, [r7, #36]
 4059              	.L136:
1049:.\EncoreImpl.c ****                     puartdisp->_messagetx[index++] = (0xE0 | (ptr[7 - buffndx] & 0x0F)); //Translat
 4060              		.loc 1 1049 0 is_stmt 0 discriminator 1
 4061 02e8 97F82430 		ldrb	r3, [r7, #36]	@ zero_extendqisi2
 4062 02ec 072B     		cmp	r3, #7
 4063 02ee DDD9     		bls	.L137
 4064              	.L130:
 4065              	.LBE23:
1051:.\EncoreImpl.c ****             }
1052:.\EncoreImpl.c ****             ppump->_presetdone = true;
 4066              		.loc 1 1052 0 is_stmt 1
ARM GAS  C:\Users\RECEPC~1\AppData\Local\Temp\ccMZb0bC.s 			page 91


 4067 02f0 3B6A     		ldr	r3, [r7, #32]
 4068 02f2 0122     		movs	r2, #1
 4069 02f4 1A72     		strb	r2, [r3, #8]
1053:.\EncoreImpl.c ****             puartdisp->_messagetx[index++] = LRCn; //LRC next
 4070              		.loc 1 1053 0
 4071 02f6 97F82730 		ldrb	r3, [r7, #39]	@ zero_extendqisi2
 4072 02fa 5A1C     		adds	r2, r3, #1
 4073 02fc 87F82720 		strb	r2, [r7, #39]
 4074 0300 1A46     		mov	r2, r3
 4075 0302 FB69     		ldr	r3, [r7, #28]
 4076 0304 1344     		add	r3, r3, r2
 4077 0306 FB22     		movs	r2, #251
 4078 0308 1A71     		strb	r2, [r3, #4]
1054:.\EncoreImpl.c ****             puartdisp->_messagetx[index++] = GetLRC(puartdisp->_messagetx);
 4079              		.loc 1 1054 0
 4080 030a 97F82730 		ldrb	r3, [r7, #39]	@ zero_extendqisi2
 4081 030e 5A1C     		adds	r2, r3, #1
 4082 0310 87F82720 		strb	r2, [r7, #39]
 4083 0314 1C46     		mov	r4, r3
 4084 0316 FB69     		ldr	r3, [r7, #28]
 4085 0318 0433     		adds	r3, r3, #4
 4086 031a 1846     		mov	r0, r3
 4087 031c FFF7FEFF 		bl	GetLRC
 4088 0320 0346     		mov	r3, r0
 4089 0322 1A46     		mov	r2, r3
 4090 0324 FB69     		ldr	r3, [r7, #28]
 4091 0326 2344     		add	r3, r3, r4
 4092 0328 1A71     		strb	r2, [r3, #4]
1055:.\EncoreImpl.c ****             puartdisp->_messagetx[index++] = EOM;
 4093              		.loc 1 1055 0
 4094 032a 97F82730 		ldrb	r3, [r7, #39]	@ zero_extendqisi2
 4095 032e 5A1C     		adds	r2, r3, #1
 4096 0330 87F82720 		strb	r2, [r7, #39]
 4097 0334 1A46     		mov	r2, r3
 4098 0336 FB69     		ldr	r3, [r7, #28]
 4099 0338 1344     		add	r3, r3, r2
 4100 033a F022     		movs	r2, #240
 4101 033c 1A71     		strb	r2, [r3, #4]
1056:.\EncoreImpl.c **** ///////////////////////////////////////////////////////////////////////////////////////////////////
1057:.\EncoreImpl.c ****             
1058:.\EncoreImpl.c ****             puartdisp->_messagelength = index;
 4102              		.loc 1 1058 0
 4103 033e 97F82730 		ldrb	r3, [r7, #39]	@ zero_extendqisi2
 4104 0342 9AB2     		uxth	r2, r3
 4105 0344 FB69     		ldr	r3, [r7, #28]
 4106 0346 5A80     		strh	r2, [r3, #2]	@ movhi
1059:.\EncoreImpl.c ****             puartdisp->_messagestate = PENDING;
 4107              		.loc 1 1059 0
 4108 0348 FB69     		ldr	r3, [r7, #28]
 4109 034a C222     		movs	r2, #194
 4110 034c 1A70     		strb	r2, [r3]
 4111              	.L115:
 4112              	.LBE19:
1060:.\EncoreImpl.c ****         }
1061:.\EncoreImpl.c ****     }
1062:.\EncoreImpl.c ****     
1063:.\EncoreImpl.c **** }
ARM GAS  C:\Users\RECEPC~1\AppData\Local\Temp\ccMZb0bC.s 			page 92


 4113              		.loc 1 1063 0
 4114 034e 2C37     		adds	r7, r7, #44
 4115              		.cfi_def_cfa_offset 12
 4116 0350 BD46     		mov	sp, r7
 4117              		.cfi_def_cfa_register 13
 4118              		@ sp needed
 4119 0352 90BD     		pop	{r4, r7, pc}
 4120              	.L139:
 4121              		.align	2
 4122              	.L138:
 4123 0354 00000000 		.word	_g_dispenserlayoutinfo
 4124              		.cfi_endproc
 4125              	.LFE79:
 4126              		.size	PumpPresetHose, .-PumpPresetHose
 4127              		.section	.text.PumpPresetNoHose,"ax",%progbits
 4128              		.align	2
 4129              		.global	PumpPresetNoHose
 4130              		.thumb
 4131              		.thumb_func
 4132              		.type	PumpPresetNoHose, %function
 4133              	PumpPresetNoHose:
 4134              	.LFB80:
1064:.\EncoreImpl.c **** 
1065:.\EncoreImpl.c **** //@Created By: HIJH
1066:.\EncoreImpl.c **** //@Septembre de 2016
1067:.\EncoreImpl.c **** ///////////////////////////////////////////////////////////////////////////////////////////////////
1068:.\EncoreImpl.c **** //Preset values will be placed within the SinkMessage's buffer. This is a convention that applies t
1069:.\EncoreImpl.c **** //all of the available transactions. The pump function must deal with this while it is assembling t
1070:.\EncoreImpl.c **** //For this message the data comes as follows:
1071:.\EncoreImpl.c **** // - First byte is the preset type (Volume:1 / Money:2 )
1072:.\EncoreImpl.c **** // - Block of 8 bytes for the preset value
1073:.\EncoreImpl.c **** //This block of data (10 bytes) must be moved to another position within the same buffer (even posi
1074:.\EncoreImpl.c **** void PumpPresetNoHose(void *pparam)
1075:.\EncoreImpl.c **** {
 4135              		.loc 1 1075 0
 4136              		.cfi_startproc
 4137              		@ args = 0, pretend = 0, frame = 40
 4138              		@ frame_needed = 1, uses_anonymous_args = 0
 4139 0000 90B5     		push	{r4, r7, lr}
 4140              		.cfi_def_cfa_offset 12
 4141              		.cfi_offset 4, -12
 4142              		.cfi_offset 7, -8
 4143              		.cfi_offset 14, -4
 4144 0002 8BB0     		sub	sp, sp, #44
 4145              		.cfi_def_cfa_offset 56
 4146 0004 00AF     		add	r7, sp, #0
 4147              		.cfi_def_cfa_register 7
 4148 0006 7860     		str	r0, [r7, #4]
1076:.\EncoreImpl.c ****     PNEAR_PUMPPTR ppump = (PNEAR_PUMPPTR)pparam;
 4149              		.loc 1 1076 0
 4150 0008 7B68     		ldr	r3, [r7, #4]
 4151 000a 3B62     		str	r3, [r7, #32]
1077:.\EncoreImpl.c ****     if(ppump)
 4152              		.loc 1 1077 0
 4153 000c 3B6A     		ldr	r3, [r7, #32]
 4154 000e 002B     		cmp	r3, #0
 4155 0010 00F04F81 		beq	.L140
ARM GAS  C:\Users\RECEPC~1\AppData\Local\Temp\ccMZb0bC.s 			page 93


 4156              	.LBB24:
1078:.\EncoreImpl.c ****     {
1079:.\EncoreImpl.c ****         uint8_t index = 0;
 4157              		.loc 1 1079 0
 4158 0014 0023     		movs	r3, #0
 4159 0016 87F82730 		strb	r3, [r7, #39]
1080:.\EncoreImpl.c ****         memset(ppump->_rxbuffer, 0x00, _PUMP_RX_BUFFER_SIZE_);
 4160              		.loc 1 1080 0
 4161 001a 3B6A     		ldr	r3, [r7, #32]
 4162 001c 03F5D073 		add	r3, r3, #416
 4163 0020 1846     		mov	r0, r3
 4164 0022 0021     		movs	r1, #0
 4165 0024 4FF4C072 		mov	r2, #384
 4166 0028 FFF7FEFF 		bl	memset
1081:.\EncoreImpl.c ****         PUARTMESSAGEPTR puartdisp = GetUARTMessageSlot(UART_DISPENSER);
 4167              		.loc 1 1081 0
 4168 002c A220     		movs	r0, #162
 4169 002e FFF7FEFF 		bl	GetUARTMessageSlot
 4170 0032 F861     		str	r0, [r7, #28]
1082:.\EncoreImpl.c ****         if(puartdisp)
 4171              		.loc 1 1082 0
 4172 0034 FB69     		ldr	r3, [r7, #28]
 4173 0036 002B     		cmp	r3, #0
 4174 0038 00F03B81 		beq	.L140
1083:.\EncoreImpl.c ****         {
1084:.\EncoreImpl.c **** ///////////////////////////////////////////////////////////////////////////////////////////////////
1085:.\EncoreImpl.c ****             puartdisp->_messagetx[index++] = SOM;
 4175              		.loc 1 1085 0
 4176 003c 97F82730 		ldrb	r3, [r7, #39]	@ zero_extendqisi2
 4177 0040 5A1C     		adds	r2, r3, #1
 4178 0042 87F82720 		strb	r2, [r7, #39]
 4179 0046 1A46     		mov	r2, r3
 4180 0048 FB69     		ldr	r3, [r7, #28]
 4181 004a 1344     		add	r3, r3, r2
 4182 004c FF22     		movs	r2, #255
 4183 004e 1A71     		strb	r2, [r3, #4]
1086:.\EncoreImpl.c ****             if(_g_dispenserlayoutinfo._displaydigitsmode == 0x06)
 4184              		.loc 1 1086 0
 4185 0050 994B     		ldr	r3, .L163
 4186 0052 1B7C     		ldrb	r3, [r3, #16]	@ zero_extendqisi2
 4187 0054 062B     		cmp	r3, #6
 4188 0056 40F09980 		bne	.L142
 4189              	.LBB25:
1087:.\EncoreImpl.c ****             {
1088:.\EncoreImpl.c ****                 uint8 transtype = (0xF0 | ((ppump->_trasactionbuffer[0x0004] == 0x0F)? 0x02: 0x01))
 4190              		.loc 1 1088 0
 4191 005a 3B6A     		ldr	r3, [r7, #32]
 4192 005c 93F82430 		ldrb	r3, [r3, #36]	@ zero_extendqisi2
 4193 0060 0F2B     		cmp	r3, #15
 4194 0062 01D1     		bne	.L143
 4195              		.loc 1 1088 0 is_stmt 0 discriminator 1
 4196 0064 F223     		movs	r3, #242
 4197 0066 00E0     		b	.L144
 4198              	.L143:
 4199              		.loc 1 1088 0 discriminator 2
 4200 0068 F123     		movs	r3, #241
 4201              	.L144:
ARM GAS  C:\Users\RECEPC~1\AppData\Local\Temp\ccMZb0bC.s 			page 94


 4202              		.loc 1 1088 0 discriminator 4
 4203 006a FB76     		strb	r3, [r7, #27]
1089:.\EncoreImpl.c ****                 if(transtype == 0xF1)
 4204              		.loc 1 1089 0 is_stmt 1 discriminator 4
 4205 006c FB7E     		ldrb	r3, [r7, #27]	@ zero_extendqisi2
 4206 006e F12B     		cmp	r3, #241
 4207 0070 0AD1     		bne	.L145
1090:.\EncoreImpl.c ****                     puartdisp->_messagetx[index++] = 0xE6;
 4208              		.loc 1 1090 0
 4209 0072 97F82730 		ldrb	r3, [r7, #39]	@ zero_extendqisi2
 4210 0076 5A1C     		adds	r2, r3, #1
 4211 0078 87F82720 		strb	r2, [r7, #39]
 4212 007c 1A46     		mov	r2, r3
 4213 007e FB69     		ldr	r3, [r7, #28]
 4214 0080 1344     		add	r3, r3, r2
 4215 0082 E622     		movs	r2, #230
 4216 0084 1A71     		strb	r2, [r3, #4]
 4217 0086 09E0     		b	.L146
 4218              	.L145:
1091:.\EncoreImpl.c ****                 else
1092:.\EncoreImpl.c ****                     puartdisp->_messagetx[index++] = 0xE5;
 4219              		.loc 1 1092 0
 4220 0088 97F82730 		ldrb	r3, [r7, #39]	@ zero_extendqisi2
 4221 008c 5A1C     		adds	r2, r3, #1
 4222 008e 87F82720 		strb	r2, [r7, #39]
 4223 0092 1A46     		mov	r2, r3
 4224 0094 FB69     		ldr	r3, [r7, #28]
 4225 0096 1344     		add	r3, r3, r2
 4226 0098 E522     		movs	r2, #229
 4227 009a 1A71     		strb	r2, [r3, #4]
 4228              	.L146:
1093:.\EncoreImpl.c **** 
1094:.\EncoreImpl.c ****                 ///THIS IS AN APPLIED CONVENTION ===>> 0x0004 INDEX POSITION WITHIN THE PUMP'S BUFF
1095:.\EncoreImpl.c ****                 ///THESE CODES MUST BE MATCHED OTHERWISE THE LOGIC WILL BREAKUP THE CODE!
1096:.\EncoreImpl.c ****                 puartdisp->_messagetx[index++] = transtype;
 4229              		.loc 1 1096 0
 4230 009c 97F82730 		ldrb	r3, [r7, #39]	@ zero_extendqisi2
 4231 00a0 5A1C     		adds	r2, r3, #1
 4232 00a2 87F82720 		strb	r2, [r7, #39]
 4233 00a6 1A46     		mov	r2, r3
 4234 00a8 FB69     		ldr	r3, [r7, #28]
 4235 00aa 1344     		add	r3, r3, r2
 4236 00ac FA7E     		ldrb	r2, [r7, #27]
 4237 00ae 1A71     		strb	r2, [r3, #4]
1097:.\EncoreImpl.c ****                             
1098:.\EncoreImpl.c ****                 puartdisp->_messagetx[index++] = 0xF8; //Preset Data next
 4238              		.loc 1 1098 0
 4239 00b0 97F82730 		ldrb	r3, [r7, #39]	@ zero_extendqisi2
 4240 00b4 5A1C     		adds	r2, r3, #1
 4241 00b6 87F82720 		strb	r2, [r7, #39]
 4242 00ba 1A46     		mov	r2, r3
 4243 00bc FB69     		ldr	r3, [r7, #28]
 4244 00be 1344     		add	r3, r3, r2
 4245 00c0 F822     		movs	r2, #248
 4246 00c2 1A71     		strb	r2, [r3, #4]
1099:.\EncoreImpl.c ****                 //Here we copy the remaining 8 bytes for the preset value
1100:.\EncoreImpl.c ****                 ///THIS IS AN APPLIED CONVENTION ===>> 0x0008 INDEX POSITION WITHIN THE PUMP'S BUFF
ARM GAS  C:\Users\RECEPC~1\AppData\Local\Temp\ccMZb0bC.s 			page 95


1101:.\EncoreImpl.c ****                 ///THESE CODES MUST BE MATCHED OTHERWISE THE LOGIC WILL BREAKUP THE CODE!
1102:.\EncoreImpl.c ****                 char8 *ptr = &ppump->_trasactionbuffer[0x0008];
 4247              		.loc 1 1102 0
 4248 00c4 3B6A     		ldr	r3, [r7, #32]
 4249 00c6 2833     		adds	r3, r3, #40
 4250 00c8 7B61     		str	r3, [r7, #20]
1103:.\EncoreImpl.c ****                 if(transtype == 0xF1) //Volume PRESET, then multiply by 1000
 4251              		.loc 1 1103 0
 4252 00ca FB7E     		ldrb	r3, [r7, #27]	@ zero_extendqisi2
 4253 00cc F12B     		cmp	r3, #241
 4254 00ce 2AD1     		bne	.L147
 4255              	.LBB26:
1104:.\EncoreImpl.c ****                 {
1105:.\EncoreImpl.c ****                     CastVolumeValue(ptr, 0x08);
 4256              		.loc 1 1105 0
 4257 00d0 7869     		ldr	r0, [r7, #20]
 4258 00d2 0821     		movs	r1, #8
 4259 00d4 FFF7FEFF 		bl	CastVolumeValue
1106:.\EncoreImpl.c ****                 
1107:.\EncoreImpl.c ****                     FOR(uint8 buffndx = 0, buffndx < 0x05, buffndx++)
 4260              		.loc 1 1107 0
 4261 00d8 0023     		movs	r3, #0
 4262 00da 87F82630 		strb	r3, [r7, #38]
 4263 00de 1DE0     		b	.L148
 4264              	.L149:
1108:.\EncoreImpl.c ****                         puartdisp->_messagetx[index++] = (0xE0 | (ptr[7 - buffndx] & 0x0F)); //Tran
 4265              		.loc 1 1108 0 discriminator 3
 4266 00e0 97F82730 		ldrb	r3, [r7, #39]	@ zero_extendqisi2
 4267 00e4 5A1C     		adds	r2, r3, #1
 4268 00e6 87F82720 		strb	r2, [r7, #39]
 4269 00ea 1946     		mov	r1, r3
 4270 00ec 97F82630 		ldrb	r3, [r7, #38]	@ zero_extendqisi2
 4271 00f0 C3F10703 		rsb	r3, r3, #7
 4272 00f4 1A46     		mov	r2, r3
 4273 00f6 7B69     		ldr	r3, [r7, #20]
 4274 00f8 1344     		add	r3, r3, r2
 4275 00fa 1B78     		ldrb	r3, [r3]	@ zero_extendqisi2
 4276 00fc DBB2     		uxtb	r3, r3
 4277 00fe 03F00F03 		and	r3, r3, #15
 4278 0102 DBB2     		uxtb	r3, r3
 4279 0104 63F01F03 		orn	r3, r3, #31
 4280 0108 DBB2     		uxtb	r3, r3
 4281 010a DAB2     		uxtb	r2, r3
 4282 010c FB69     		ldr	r3, [r7, #28]
 4283 010e 0B44     		add	r3, r3, r1
 4284 0110 1A71     		strb	r2, [r3, #4]
1107:.\EncoreImpl.c ****                         puartdisp->_messagetx[index++] = (0xE0 | (ptr[7 - buffndx] & 0x0F)); //Tran
 4285              		.loc 1 1107 0 discriminator 3
 4286 0112 97F82630 		ldrb	r3, [r7, #38]	@ zero_extendqisi2
 4287 0116 0133     		adds	r3, r3, #1
 4288 0118 87F82630 		strb	r3, [r7, #38]
 4289              	.L148:
1107:.\EncoreImpl.c ****                         puartdisp->_messagetx[index++] = (0xE0 | (ptr[7 - buffndx] & 0x0F)); //Tran
 4290              		.loc 1 1107 0 is_stmt 0 discriminator 1
 4291 011c 97F82630 		ldrb	r3, [r7, #38]	@ zero_extendqisi2
 4292 0120 042B     		cmp	r3, #4
 4293 0122 DDD9     		bls	.L149
ARM GAS  C:\Users\RECEPC~1\AppData\Local\Temp\ccMZb0bC.s 			page 96


 4294              	.LBE26:
 4295 0124 31E0     		b	.L150
 4296              	.L147:
 4297              	.LBB27:
1109:.\EncoreImpl.c ****                 }
1110:.\EncoreImpl.c ****                 else
1111:.\EncoreImpl.c ****                 {
1112:.\EncoreImpl.c ****                     if(!(_g_dispenserlayoutinfo._moneydecimals == 0x03 && _g_dispenserlayoutinfo._p
 4298              		.loc 1 1112 0 is_stmt 1
 4299 0126 644B     		ldr	r3, .L163
 4300 0128 DB79     		ldrb	r3, [r3, #7]	@ zero_extendqisi2
 4301 012a 032B     		cmp	r3, #3
 4302 012c 03D1     		bne	.L151
 4303              		.loc 1 1112 0 is_stmt 0 discriminator 1
 4304 012e 624B     		ldr	r3, .L163
 4305 0130 1B7A     		ldrb	r3, [r3, #8]	@ zero_extendqisi2
 4306 0132 022B     		cmp	r3, #2
 4307 0134 03D0     		beq	.L152
 4308              	.L151:
1113:.\EncoreImpl.c ****                         CastMoneyValue(ptr, 0x08);
 4309              		.loc 1 1113 0 is_stmt 1
 4310 0136 7869     		ldr	r0, [r7, #20]
 4311 0138 0821     		movs	r1, #8
 4312 013a FFF7FEFF 		bl	CastMoneyValue
 4313              	.L152:
1114:.\EncoreImpl.c ****                     
1115:.\EncoreImpl.c ****                     FOR(uint8 buffndx = 0, buffndx < 0x06, buffndx++)
 4314              		.loc 1 1115 0
 4315 013e 0023     		movs	r3, #0
 4316 0140 87F82530 		strb	r3, [r7, #37]
 4317 0144 1DE0     		b	.L153
 4318              	.L154:
1116:.\EncoreImpl.c ****                         puartdisp->_messagetx[index++] = (0xE0 | (ptr[7 - buffndx] & 0x0F)); //Tran
 4319              		.loc 1 1116 0 discriminator 3
 4320 0146 97F82730 		ldrb	r3, [r7, #39]	@ zero_extendqisi2
 4321 014a 5A1C     		adds	r2, r3, #1
 4322 014c 87F82720 		strb	r2, [r7, #39]
 4323 0150 1946     		mov	r1, r3
 4324 0152 97F82530 		ldrb	r3, [r7, #37]	@ zero_extendqisi2
 4325 0156 C3F10703 		rsb	r3, r3, #7
 4326 015a 1A46     		mov	r2, r3
 4327 015c 7B69     		ldr	r3, [r7, #20]
 4328 015e 1344     		add	r3, r3, r2
 4329 0160 1B78     		ldrb	r3, [r3]	@ zero_extendqisi2
 4330 0162 DBB2     		uxtb	r3, r3
 4331 0164 03F00F03 		and	r3, r3, #15
 4332 0168 DBB2     		uxtb	r3, r3
 4333 016a 63F01F03 		orn	r3, r3, #31
 4334 016e DBB2     		uxtb	r3, r3
 4335 0170 DAB2     		uxtb	r2, r3
 4336 0172 FB69     		ldr	r3, [r7, #28]
 4337 0174 0B44     		add	r3, r3, r1
 4338 0176 1A71     		strb	r2, [r3, #4]
1115:.\EncoreImpl.c ****                         puartdisp->_messagetx[index++] = (0xE0 | (ptr[7 - buffndx] & 0x0F)); //Tran
 4339              		.loc 1 1115 0 discriminator 3
 4340 0178 97F82530 		ldrb	r3, [r7, #37]	@ zero_extendqisi2
 4341 017c 0133     		adds	r3, r3, #1
ARM GAS  C:\Users\RECEPC~1\AppData\Local\Temp\ccMZb0bC.s 			page 97


 4342 017e 87F82530 		strb	r3, [r7, #37]
 4343              	.L153:
1115:.\EncoreImpl.c ****                         puartdisp->_messagetx[index++] = (0xE0 | (ptr[7 - buffndx] & 0x0F)); //Tran
 4344              		.loc 1 1115 0 is_stmt 0 discriminator 1
 4345 0182 97F82530 		ldrb	r3, [r7, #37]	@ zero_extendqisi2
 4346 0186 052B     		cmp	r3, #5
 4347 0188 DDD9     		bls	.L154
 4348              	.L150:
 4349              	.LBE27:
 4350              	.LBE25:
 4351 018a 63E0     		b	.L155
 4352              	.L142:
 4353              	.LBB28:
1117:.\EncoreImpl.c ****                 }
1118:.\EncoreImpl.c ****             }
1119:.\EncoreImpl.c ****             else
1120:.\EncoreImpl.c ****             {
1121:.\EncoreImpl.c ****                 puartdisp->_messagetx[index++] = 0xE3;
 4354              		.loc 1 1121 0 is_stmt 1
 4355 018c 97F82730 		ldrb	r3, [r7, #39]	@ zero_extendqisi2
 4356 0190 5A1C     		adds	r2, r3, #1
 4357 0192 87F82720 		strb	r2, [r7, #39]
 4358 0196 1A46     		mov	r2, r3
 4359 0198 FB69     		ldr	r3, [r7, #28]
 4360 019a 1344     		add	r3, r3, r2
 4361 019c E322     		movs	r2, #227
 4362 019e 1A71     		strb	r2, [r3, #4]
1122:.\EncoreImpl.c **** 
1123:.\EncoreImpl.c ****                 ///THIS IS AN APPLIED CONVENTION ===>> 0x0004 INDEX POSITION WITHIN THE PUMP'S BUFF
1124:.\EncoreImpl.c ****                 ///THESE CODES MUST BE MATCHED OTHERWISE THE LOGIC WILL BREAKUP THE CODE!
1125:.\EncoreImpl.c ****                 uint8 transtype = (0xF0 | ((ppump->_trasactionbuffer[0x0004] == 0x0F)? 0x02: 0x01))
 4363              		.loc 1 1125 0
 4364 01a0 3B6A     		ldr	r3, [r7, #32]
 4365 01a2 93F82430 		ldrb	r3, [r3, #36]	@ zero_extendqisi2
 4366 01a6 0F2B     		cmp	r3, #15
 4367 01a8 01D1     		bne	.L156
 4368              		.loc 1 1125 0 is_stmt 0 discriminator 1
 4369 01aa F223     		movs	r3, #242
 4370 01ac 00E0     		b	.L157
 4371              	.L156:
 4372              		.loc 1 1125 0 discriminator 2
 4373 01ae F123     		movs	r3, #241
 4374              	.L157:
 4375              		.loc 1 1125 0 discriminator 4
 4376 01b0 FB74     		strb	r3, [r7, #19]
1126:.\EncoreImpl.c ****                 puartdisp->_messagetx[index++] = transtype;
 4377              		.loc 1 1126 0 is_stmt 1 discriminator 4
 4378 01b2 97F82730 		ldrb	r3, [r7, #39]	@ zero_extendqisi2
 4379 01b6 5A1C     		adds	r2, r3, #1
 4380 01b8 87F82720 		strb	r2, [r7, #39]
 4381 01bc 1A46     		mov	r2, r3
 4382 01be FB69     		ldr	r3, [r7, #28]
 4383 01c0 1344     		add	r3, r3, r2
 4384 01c2 FA7C     		ldrb	r2, [r7, #19]
 4385 01c4 1A71     		strb	r2, [r3, #4]
1127:.\EncoreImpl.c ****                             
1128:.\EncoreImpl.c ****                 puartdisp->_messagetx[index++] = 0xF8; //Preset Data next
ARM GAS  C:\Users\RECEPC~1\AppData\Local\Temp\ccMZb0bC.s 			page 98


 4386              		.loc 1 1128 0 discriminator 4
 4387 01c6 97F82730 		ldrb	r3, [r7, #39]	@ zero_extendqisi2
 4388 01ca 5A1C     		adds	r2, r3, #1
 4389 01cc 87F82720 		strb	r2, [r7, #39]
 4390 01d0 1A46     		mov	r2, r3
 4391 01d2 FB69     		ldr	r3, [r7, #28]
 4392 01d4 1344     		add	r3, r3, r2
 4393 01d6 F822     		movs	r2, #248
 4394 01d8 1A71     		strb	r2, [r3, #4]
1129:.\EncoreImpl.c ****                 //Here we copy the remaining 8 bytes for the preset value
1130:.\EncoreImpl.c ****                 ///THIS IS AN APPLIED CONVENTION ===>> 0x0008 INDEX POSITION WITHIN THE PUMP'S BUFF
1131:.\EncoreImpl.c ****                 ///THESE CODES MUST BE MATCHED OTHERWISE THE LOGIC WILL BREAKUP THE CODE!
1132:.\EncoreImpl.c ****                 char8 *ptr = &ppump->_trasactionbuffer[0x0008];
 4395              		.loc 1 1132 0 discriminator 4
 4396 01da 3B6A     		ldr	r3, [r7, #32]
 4397 01dc 2833     		adds	r3, r3, #40
 4398 01de FB60     		str	r3, [r7, #12]
1133:.\EncoreImpl.c ****                 if(transtype == 0xF1) //Volume PRESET, then multiply by 1000
 4399              		.loc 1 1133 0 discriminator 4
 4400 01e0 FB7C     		ldrb	r3, [r7, #19]	@ zero_extendqisi2
 4401 01e2 F12B     		cmp	r3, #241
 4402 01e4 04D1     		bne	.L158
1134:.\EncoreImpl.c ****                     CastVolumeValue(ptr, 0x08);
 4403              		.loc 1 1134 0
 4404 01e6 F868     		ldr	r0, [r7, #12]
 4405 01e8 0821     		movs	r1, #8
 4406 01ea FFF7FEFF 		bl	CastVolumeValue
 4407 01ee 0BE0     		b	.L159
 4408              	.L158:
1135:.\EncoreImpl.c ****                 else if(!(_g_dispenserlayoutinfo._moneydecimals == 0x03 && _g_dispenserlayoutinfo._
 4409              		.loc 1 1135 0
 4410 01f0 314B     		ldr	r3, .L163
 4411 01f2 DB79     		ldrb	r3, [r3, #7]	@ zero_extendqisi2
 4412 01f4 032B     		cmp	r3, #3
 4413 01f6 03D1     		bne	.L160
 4414              		.loc 1 1135 0 is_stmt 0 discriminator 1
 4415 01f8 2F4B     		ldr	r3, .L163
 4416 01fa 1B7A     		ldrb	r3, [r3, #8]	@ zero_extendqisi2
 4417 01fc 022B     		cmp	r3, #2
 4418 01fe 03D0     		beq	.L159
 4419              	.L160:
1136:.\EncoreImpl.c ****                     CastMoneyValue(ptr, 0x08);
 4420              		.loc 1 1136 0 is_stmt 1
 4421 0200 F868     		ldr	r0, [r7, #12]
 4422 0202 0821     		movs	r1, #8
 4423 0204 FFF7FEFF 		bl	CastMoneyValue
 4424              	.L159:
1137:.\EncoreImpl.c ****                 
1138:.\EncoreImpl.c ****                 FOR(uint8 buffndx = 0, buffndx < 0x08, buffndx++)
 4425              		.loc 1 1138 0
 4426 0208 0023     		movs	r3, #0
 4427 020a 87F82430 		strb	r3, [r7, #36]
 4428 020e 1DE0     		b	.L161
 4429              	.L162:
1139:.\EncoreImpl.c ****                     puartdisp->_messagetx[index++] = (0xE0 | (ptr[7 - buffndx] & 0x0F)); //Translat
 4430              		.loc 1 1139 0 discriminator 3
 4431 0210 97F82730 		ldrb	r3, [r7, #39]	@ zero_extendqisi2
ARM GAS  C:\Users\RECEPC~1\AppData\Local\Temp\ccMZb0bC.s 			page 99


 4432 0214 5A1C     		adds	r2, r3, #1
 4433 0216 87F82720 		strb	r2, [r7, #39]
 4434 021a 1946     		mov	r1, r3
 4435 021c 97F82430 		ldrb	r3, [r7, #36]	@ zero_extendqisi2
 4436 0220 C3F10703 		rsb	r3, r3, #7
 4437 0224 1A46     		mov	r2, r3
 4438 0226 FB68     		ldr	r3, [r7, #12]
 4439 0228 1344     		add	r3, r3, r2
 4440 022a 1B78     		ldrb	r3, [r3]	@ zero_extendqisi2
 4441 022c DBB2     		uxtb	r3, r3
 4442 022e 03F00F03 		and	r3, r3, #15
 4443 0232 DBB2     		uxtb	r3, r3
 4444 0234 63F01F03 		orn	r3, r3, #31
 4445 0238 DBB2     		uxtb	r3, r3
 4446 023a DAB2     		uxtb	r2, r3
 4447 023c FB69     		ldr	r3, [r7, #28]
 4448 023e 0B44     		add	r3, r3, r1
 4449 0240 1A71     		strb	r2, [r3, #4]
1138:.\EncoreImpl.c ****                     puartdisp->_messagetx[index++] = (0xE0 | (ptr[7 - buffndx] & 0x0F)); //Translat
 4450              		.loc 1 1138 0 discriminator 3
 4451 0242 97F82430 		ldrb	r3, [r7, #36]	@ zero_extendqisi2
 4452 0246 0133     		adds	r3, r3, #1
 4453 0248 87F82430 		strb	r3, [r7, #36]
 4454              	.L161:
1138:.\EncoreImpl.c ****                     puartdisp->_messagetx[index++] = (0xE0 | (ptr[7 - buffndx] & 0x0F)); //Translat
 4455              		.loc 1 1138 0 is_stmt 0 discriminator 1
 4456 024c 97F82430 		ldrb	r3, [r7, #36]	@ zero_extendqisi2
 4457 0250 072B     		cmp	r3, #7
 4458 0252 DDD9     		bls	.L162
 4459              	.L155:
 4460              	.LBE28:
1140:.\EncoreImpl.c ****             }
1141:.\EncoreImpl.c ****             ppump->_presetdone = true;
 4461              		.loc 1 1141 0 is_stmt 1
 4462 0254 3B6A     		ldr	r3, [r7, #32]
 4463 0256 0122     		movs	r2, #1
 4464 0258 1A72     		strb	r2, [r3, #8]
1142:.\EncoreImpl.c ****             puartdisp->_messagetx[index++] = LRCn; //LRC next
 4465              		.loc 1 1142 0
 4466 025a 97F82730 		ldrb	r3, [r7, #39]	@ zero_extendqisi2
 4467 025e 5A1C     		adds	r2, r3, #1
 4468 0260 87F82720 		strb	r2, [r7, #39]
 4469 0264 1A46     		mov	r2, r3
 4470 0266 FB69     		ldr	r3, [r7, #28]
 4471 0268 1344     		add	r3, r3, r2
 4472 026a FB22     		movs	r2, #251
 4473 026c 1A71     		strb	r2, [r3, #4]
1143:.\EncoreImpl.c ****             puartdisp->_messagetx[index++] = GetLRC(puartdisp->_messagetx);
 4474              		.loc 1 1143 0
 4475 026e 97F82730 		ldrb	r3, [r7, #39]	@ zero_extendqisi2
 4476 0272 5A1C     		adds	r2, r3, #1
 4477 0274 87F82720 		strb	r2, [r7, #39]
 4478 0278 1C46     		mov	r4, r3
 4479 027a FB69     		ldr	r3, [r7, #28]
 4480 027c 0433     		adds	r3, r3, #4
 4481 027e 1846     		mov	r0, r3
 4482 0280 FFF7FEFF 		bl	GetLRC
ARM GAS  C:\Users\RECEPC~1\AppData\Local\Temp\ccMZb0bC.s 			page 100


 4483 0284 0346     		mov	r3, r0
 4484 0286 1A46     		mov	r2, r3
 4485 0288 FB69     		ldr	r3, [r7, #28]
 4486 028a 2344     		add	r3, r3, r4
 4487 028c 1A71     		strb	r2, [r3, #4]
1144:.\EncoreImpl.c ****             puartdisp->_messagetx[index++] = EOM;
 4488              		.loc 1 1144 0
 4489 028e 97F82730 		ldrb	r3, [r7, #39]	@ zero_extendqisi2
 4490 0292 5A1C     		adds	r2, r3, #1
 4491 0294 87F82720 		strb	r2, [r7, #39]
 4492 0298 1A46     		mov	r2, r3
 4493 029a FB69     		ldr	r3, [r7, #28]
 4494 029c 1344     		add	r3, r3, r2
 4495 029e F022     		movs	r2, #240
 4496 02a0 1A71     		strb	r2, [r3, #4]
1145:.\EncoreImpl.c **** ///////////////////////////////////////////////////////////////////////////////////////////////////
1146:.\EncoreImpl.c ****             
1147:.\EncoreImpl.c ****             puartdisp->_messagelength = index;
 4497              		.loc 1 1147 0
 4498 02a2 97F82730 		ldrb	r3, [r7, #39]	@ zero_extendqisi2
 4499 02a6 9AB2     		uxth	r2, r3
 4500 02a8 FB69     		ldr	r3, [r7, #28]
 4501 02aa 5A80     		strh	r2, [r3, #2]	@ movhi
1148:.\EncoreImpl.c ****             puartdisp->_messagestate = PENDING;
 4502              		.loc 1 1148 0
 4503 02ac FB69     		ldr	r3, [r7, #28]
 4504 02ae C222     		movs	r2, #194
 4505 02b0 1A70     		strb	r2, [r3]
 4506              	.L140:
 4507              	.LBE24:
1149:.\EncoreImpl.c ****         }
1150:.\EncoreImpl.c ****     }
1151:.\EncoreImpl.c ****     
1152:.\EncoreImpl.c **** }
 4508              		.loc 1 1152 0
 4509 02b2 2C37     		adds	r7, r7, #44
 4510              		.cfi_def_cfa_offset 12
 4511 02b4 BD46     		mov	sp, r7
 4512              		.cfi_def_cfa_register 13
 4513              		@ sp needed
 4514 02b6 90BD     		pop	{r4, r7, pc}
 4515              	.L164:
 4516              		.align	2
 4517              	.L163:
 4518 02b8 00000000 		.word	_g_dispenserlayoutinfo
 4519              		.cfi_endproc
 4520              	.LFE80:
 4521              		.size	PumpPresetNoHose, .-PumpPresetNoHose
 4522              		.section	.text.PumpPresetNotification,"ax",%progbits
 4523              		.align	2
 4524              		.global	PumpPresetNotification
 4525              		.thumb
 4526              		.thumb_func
 4527              		.type	PumpPresetNotification, %function
 4528              	PumpPresetNotification:
 4529              	.LFB81:
1153:.\EncoreImpl.c **** 
ARM GAS  C:\Users\RECEPC~1\AppData\Local\Temp\ccMZb0bC.s 			page 101


1154:.\EncoreImpl.c **** //@Created By: HIJH
1155:.\EncoreImpl.c **** //@Septembre de 2016
1156:.\EncoreImpl.c **** //Message to be notified to the remote peer (NSX)
1157:.\EncoreImpl.c **** void PumpPresetNotification(LPVOID pparam)
1158:.\EncoreImpl.c **** {
 4530              		.loc 1 1158 0
 4531              		.cfi_startproc
 4532              		@ args = 0, pretend = 0, frame = 24
 4533              		@ frame_needed = 1, uses_anonymous_args = 0
 4534 0000 B0B5     		push	{r4, r5, r7, lr}
 4535              		.cfi_def_cfa_offset 16
 4536              		.cfi_offset 4, -16
 4537              		.cfi_offset 5, -12
 4538              		.cfi_offset 7, -8
 4539              		.cfi_offset 14, -4
 4540 0002 86B0     		sub	sp, sp, #24
 4541              		.cfi_def_cfa_offset 40
 4542 0004 00AF     		add	r7, sp, #0
 4543              		.cfi_def_cfa_register 7
 4544 0006 7860     		str	r0, [r7, #4]
1159:.\EncoreImpl.c ****     PPUMPTRANSACTIONJOBCONTEXTPTR pjob = (PPUMPTRANSACTIONJOBCONTEXTPTR)pparam;
 4545              		.loc 1 1159 0
 4546 0008 7B68     		ldr	r3, [r7, #4]
 4547 000a 7B61     		str	r3, [r7, #20]
1160:.\EncoreImpl.c ****     if(pjob)
 4548              		.loc 1 1160 0
 4549 000c 7B69     		ldr	r3, [r7, #20]
 4550 000e 002B     		cmp	r3, #0
 4551 0010 00F0CE80 		beq	.L165
 4552              	.LBB29:
1161:.\EncoreImpl.c ****     {
1162:.\EncoreImpl.c ****         //HERE WE ATTEMPT TO PUSH THE TRANSACTION INTO THE PUMP'S TRANSACTIONAL QUEUE.
1163:.\EncoreImpl.c ****         //THIS IS DONE ONLY IF THERE IS ROOM IN THE QUEUE, OTHERWISE THIS STATE WON'T
1164:.\EncoreImpl.c ****         //BE REPORTED TO THE REMOTE PEER.
1165:.\EncoreImpl.c ****         pjob->_ppump->PumpTransQueueLock(pjob->_ppump);
 4553              		.loc 1 1165 0
 4554 0014 7B69     		ldr	r3, [r7, #20]
 4555 0016 DB69     		ldr	r3, [r3, #28]
 4556 0018 D3F8443B 		ldr	r3, [r3, #2884]
 4557 001c 7A69     		ldr	r2, [r7, #20]
 4558 001e D269     		ldr	r2, [r2, #28]
 4559 0020 1046     		mov	r0, r2
 4560 0022 9847     		blx	r3
1166:.\EncoreImpl.c ****         PNEAR_PUMPTRANSACTIONALSTATEPTR pts = pjob->_ppump->PumpTransQueueAllocate(pjob->_ppump);
 4561              		.loc 1 1166 0
 4562 0024 7B69     		ldr	r3, [r7, #20]
 4563 0026 DB69     		ldr	r3, [r3, #28]
 4564 0028 D3F8583B 		ldr	r3, [r3, #2904]
 4565 002c 7A69     		ldr	r2, [r7, #20]
 4566 002e D269     		ldr	r2, [r2, #28]
 4567 0030 1046     		mov	r0, r2
 4568 0032 9847     		blx	r3
 4569 0034 3861     		str	r0, [r7, #16]
1167:.\EncoreImpl.c ****         pjob->_ppump->PumpTransQueueUnlock(pjob->_ppump);
 4570              		.loc 1 1167 0
 4571 0036 7B69     		ldr	r3, [r7, #20]
 4572 0038 DB69     		ldr	r3, [r3, #28]
ARM GAS  C:\Users\RECEPC~1\AppData\Local\Temp\ccMZb0bC.s 			page 102


 4573 003a D3F8483B 		ldr	r3, [r3, #2888]
 4574 003e 7A69     		ldr	r2, [r7, #20]
 4575 0040 D269     		ldr	r2, [r2, #28]
 4576 0042 1046     		mov	r0, r2
 4577 0044 9847     		blx	r3
1168:.\EncoreImpl.c ****         if(pts)
 4578              		.loc 1 1168 0
 4579 0046 3B69     		ldr	r3, [r7, #16]
 4580 0048 002B     		cmp	r3, #0
 4581 004a 00F0B180 		beq	.L165
 4582              	.LBB30:
1169:.\EncoreImpl.c ****         {
1170:.\EncoreImpl.c ****             uint8 index = 0;
 4583              		.loc 1 1170 0
 4584 004e 0023     		movs	r3, #0
 4585 0050 FB73     		strb	r3, [r7, #15]
1171:.\EncoreImpl.c ****             pts->_transtate = RF_MUX_CASH_SALE_START_REQUEST;
 4586              		.loc 1 1171 0
 4587 0052 3B69     		ldr	r3, [r7, #16]
 4588 0054 AA22     		movs	r2, #170
 4589 0056 5A70     		strb	r2, [r3, #1]
1172:.\EncoreImpl.c ****             //Pump ID always comes in position 0x00
1173:.\EncoreImpl.c ****             pts->_buffer[index++] = pjob->_ppump->_pumpid;
 4590              		.loc 1 1173 0
 4591 0058 FB7B     		ldrb	r3, [r7, #15]	@ zero_extendqisi2
 4592 005a 5A1C     		adds	r2, r3, #1
 4593 005c FA73     		strb	r2, [r7, #15]
 4594 005e 1946     		mov	r1, r3
 4595 0060 7B69     		ldr	r3, [r7, #20]
 4596 0062 DB69     		ldr	r3, [r3, #28]
 4597 0064 1A78     		ldrb	r2, [r3]	@ zero_extendqisi2
 4598 0066 3B69     		ldr	r3, [r7, #16]
 4599 0068 0B44     		add	r3, r3, r1
 4600 006a 9A70     		strb	r2, [r3, #2]
1174:.\EncoreImpl.c ****             //PRESET type
1175:.\EncoreImpl.c ****             pts->_buffer[index++] = (0xF0 | ((pjob->_ppump->_trasactionbuffer[0x0004] == 0x0F)? 0x0
 4601              		.loc 1 1175 0
 4602 006c FB7B     		ldrb	r3, [r7, #15]	@ zero_extendqisi2
 4603 006e 5A1C     		adds	r2, r3, #1
 4604 0070 FA73     		strb	r2, [r7, #15]
 4605 0072 1946     		mov	r1, r3
 4606 0074 7B69     		ldr	r3, [r7, #20]
 4607 0076 DB69     		ldr	r3, [r3, #28]
 4608 0078 93F82430 		ldrb	r3, [r3, #36]	@ zero_extendqisi2
 4609 007c 0F2B     		cmp	r3, #15
 4610 007e 01D1     		bne	.L167
 4611              		.loc 1 1175 0 is_stmt 0 discriminator 1
 4612 0080 F222     		movs	r2, #242
 4613 0082 00E0     		b	.L168
 4614              	.L167:
 4615              		.loc 1 1175 0 discriminator 2
 4616 0084 F122     		movs	r2, #241
 4617              	.L168:
 4618              		.loc 1 1175 0 discriminator 4
 4619 0086 3B69     		ldr	r3, [r7, #16]
 4620 0088 0B44     		add	r3, r3, r1
 4621 008a 9A70     		strb	r2, [r3, #2]
ARM GAS  C:\Users\RECEPC~1\AppData\Local\Temp\ccMZb0bC.s 			page 103


1176:.\EncoreImpl.c ****             
1177:.\EncoreImpl.c ****             //PRESET value (8 bytes)
1178:.\EncoreImpl.c ****             PSTRBUFFTOGG(PBYTECAST(&pjob->_ppump->_trasactionbuffer[0x0008]), 0x08);
 4622              		.loc 1 1178 0 is_stmt 1 discriminator 4
 4623 008c 7B69     		ldr	r3, [r7, #20]
 4624 008e DB69     		ldr	r3, [r3, #28]
 4625 0090 2833     		adds	r3, r3, #40
 4626 0092 1846     		mov	r0, r3
 4627 0094 0821     		movs	r1, #8
 4628 0096 FFF7FEFF 		bl	PSTRBUFFTOGG
1179:.\EncoreImpl.c ****             memcpy(&pts->_buffer[index], &pjob->_ppump->_trasactionbuffer[0x0008], 0x08);
 4629              		.loc 1 1179 0 discriminator 4
 4630 009a FB7B     		ldrb	r3, [r7, #15]	@ zero_extendqisi2
 4631 009c 3A69     		ldr	r2, [r7, #16]
 4632 009e 1344     		add	r3, r3, r2
 4633 00a0 9A1C     		adds	r2, r3, #2
 4634 00a2 7B69     		ldr	r3, [r7, #20]
 4635 00a4 DB69     		ldr	r3, [r3, #28]
 4636 00a6 2833     		adds	r3, r3, #40
 4637 00a8 1046     		mov	r0, r2
 4638 00aa 1946     		mov	r1, r3
 4639 00ac 0822     		movs	r2, #8
 4640 00ae FFF7FEFF 		bl	memcpy
1180:.\EncoreImpl.c ****             index += 0x08;
 4641              		.loc 1 1180 0 discriminator 4
 4642 00b2 FB7B     		ldrb	r3, [r7, #15]
 4643 00b4 0833     		adds	r3, r3, #8
 4644 00b6 FB73     		strb	r3, [r7, #15]
1181:.\EncoreImpl.c ****             //Car's Plate
1182:.\EncoreImpl.c ****             memcpy(&pts->_buffer[index], &pjob->_ppump->_trasactionbuffer[GetBufferIndexFromDisplay
 4645              		.loc 1 1182 0 discriminator 4
 4646 00b8 FB7B     		ldrb	r3, [r7, #15]	@ zero_extendqisi2
 4647 00ba 3A69     		ldr	r2, [r7, #16]
 4648 00bc 1344     		add	r3, r3, r2
 4649 00be 9D1C     		adds	r5, r3, #2
 4650 00c0 7B69     		ldr	r3, [r7, #20]
 4651 00c2 DC69     		ldr	r4, [r3, #28]
 4652 00c4 0A20     		movs	r0, #10
 4653 00c6 FFF7FEFF 		bl	GetBufferIndexFromDisplayID
 4654 00ca 0346     		mov	r3, r0
 4655 00cc 2033     		adds	r3, r3, #32
 4656 00ce 1C44     		add	r4, r4, r3
 4657 00d0 0A20     		movs	r0, #10
 4658 00d2 FFF7FEFF 		bl	GetBufferLengthFromDisplayID
 4659 00d6 0346     		mov	r3, r0
 4660 00d8 2846     		mov	r0, r5
 4661 00da 2146     		mov	r1, r4
 4662 00dc 1A46     		mov	r2, r3
 4663 00de FFF7FEFF 		bl	memcpy
1183:.\EncoreImpl.c ****             index += GetBufferLengthFromDisplayID(DISPLAY_DIGITE_PLACA);
 4664              		.loc 1 1183 0 discriminator 4
 4665 00e2 0A20     		movs	r0, #10
 4666 00e4 FFF7FEFF 		bl	GetBufferLengthFromDisplayID
 4667 00e8 0346     		mov	r3, r0
 4668 00ea 1A46     		mov	r2, r3
 4669 00ec FB7B     		ldrb	r3, [r7, #15]
 4670 00ee 1344     		add	r3, r3, r2
ARM GAS  C:\Users\RECEPC~1\AppData\Local\Temp\ccMZb0bC.s 			page 104


 4671 00f0 FB73     		strb	r3, [r7, #15]
1184:.\EncoreImpl.c ****             pts->_buffer[index] = index;
 4672              		.loc 1 1184 0 discriminator 4
 4673 00f2 FB7B     		ldrb	r3, [r7, #15]	@ zero_extendqisi2
 4674 00f4 3A69     		ldr	r2, [r7, #16]
 4675 00f6 1344     		add	r3, r3, r2
 4676 00f8 FA7B     		ldrb	r2, [r7, #15]
 4677 00fa 9A70     		strb	r2, [r3, #2]
1185:.\EncoreImpl.c ****             //Car's Milleage
1186:.\EncoreImpl.c ****             memcpy(&pts->_buffer[index], &pjob->_ppump->_trasactionbuffer[GetBufferIndexFromDisplay
 4678              		.loc 1 1186 0 discriminator 4
 4679 00fc FB7B     		ldrb	r3, [r7, #15]	@ zero_extendqisi2
 4680 00fe 3A69     		ldr	r2, [r7, #16]
 4681 0100 1344     		add	r3, r3, r2
 4682 0102 9D1C     		adds	r5, r3, #2
 4683 0104 7B69     		ldr	r3, [r7, #20]
 4684 0106 DC69     		ldr	r4, [r3, #28]
 4685 0108 0E20     		movs	r0, #14
 4686 010a FFF7FEFF 		bl	GetBufferIndexFromDisplayID
 4687 010e 0346     		mov	r3, r0
 4688 0110 2033     		adds	r3, r3, #32
 4689 0112 1C44     		add	r4, r4, r3
 4690 0114 0E20     		movs	r0, #14
 4691 0116 FFF7FEFF 		bl	GetBufferLengthFromDisplayID
 4692 011a 0346     		mov	r3, r0
 4693 011c 2846     		mov	r0, r5
 4694 011e 2146     		mov	r1, r4
 4695 0120 1A46     		mov	r2, r3
 4696 0122 FFF7FEFF 		bl	memcpy
1187:.\EncoreImpl.c ****             index += GetBufferLengthFromDisplayID(DISPLAY_INTRODUZCA_KILOMETRAJE);
 4697              		.loc 1 1187 0 discriminator 4
 4698 0126 0E20     		movs	r0, #14
 4699 0128 FFF7FEFF 		bl	GetBufferLengthFromDisplayID
 4700 012c 0346     		mov	r3, r0
 4701 012e 1A46     		mov	r2, r3
 4702 0130 FB7B     		ldrb	r3, [r7, #15]
 4703 0132 1344     		add	r3, r3, r2
 4704 0134 FB73     		strb	r3, [r7, #15]
1188:.\EncoreImpl.c ****             
1189:.\EncoreImpl.c ****             pts->_buffersize = index;
 4705              		.loc 1 1189 0 discriminator 4
 4706 0136 FB7B     		ldrb	r3, [r7, #15]	@ zero_extendqisi2
 4707 0138 9AB2     		uxth	r2, r3
 4708 013a 3B69     		ldr	r3, [r7, #16]
 4709 013c A3F80221 		strh	r2, [r3, #258]	@ movhi
1190:.\EncoreImpl.c ****             
1191:.\EncoreImpl.c ****             PNEAR_PUMPTRANSACTIONALSTATEPTR ptstemp = pjob->_ppump->PumpTransQueueAllocate(pjob->_p
 4710              		.loc 1 1191 0 discriminator 4
 4711 0140 7B69     		ldr	r3, [r7, #20]
 4712 0142 DB69     		ldr	r3, [r3, #28]
 4713 0144 D3F8583B 		ldr	r3, [r3, #2904]
 4714 0148 7A69     		ldr	r2, [r7, #20]
 4715 014a D269     		ldr	r2, [r2, #28]
 4716 014c 1046     		mov	r0, r2
 4717 014e 9847     		blx	r3
 4718 0150 B860     		str	r0, [r7, #8]
1192:.\EncoreImpl.c ****             if(ptstemp)
ARM GAS  C:\Users\RECEPC~1\AppData\Local\Temp\ccMZb0bC.s 			page 105


 4719              		.loc 1 1192 0 discriminator 4
 4720 0152 BB68     		ldr	r3, [r7, #8]
 4721 0154 002B     		cmp	r3, #0
 4722 0156 22D0     		beq	.L169
1193:.\EncoreImpl.c ****             {
1194:.\EncoreImpl.c ****                 pjob->_ppump->PumpTransQueueDeallocate(pjob->_ppump,ptstemp);
 4723              		.loc 1 1194 0
 4724 0158 7B69     		ldr	r3, [r7, #20]
 4725 015a DB69     		ldr	r3, [r3, #28]
 4726 015c D3F8543B 		ldr	r3, [r3, #2900]
 4727 0160 7A69     		ldr	r2, [r7, #20]
 4728 0162 D269     		ldr	r2, [r2, #28]
 4729 0164 1046     		mov	r0, r2
 4730 0166 B968     		ldr	r1, [r7, #8]
 4731 0168 9847     		blx	r3
1195:.\EncoreImpl.c ****                 pjob->_ppump->PumpTransQueueLock(pjob->_ppump);
 4732              		.loc 1 1195 0
 4733 016a 7B69     		ldr	r3, [r7, #20]
 4734 016c DB69     		ldr	r3, [r3, #28]
 4735 016e D3F8443B 		ldr	r3, [r3, #2884]
 4736 0172 7A69     		ldr	r2, [r7, #20]
 4737 0174 D269     		ldr	r2, [r2, #28]
 4738 0176 1046     		mov	r0, r2
 4739 0178 9847     		blx	r3
1196:.\EncoreImpl.c ****                 pjob->_ppump->PumpTransQueueEnqueue(pjob->_ppump, pts);
 4740              		.loc 1 1196 0
 4741 017a 7B69     		ldr	r3, [r7, #20]
 4742 017c DB69     		ldr	r3, [r3, #28]
 4743 017e D3F8503B 		ldr	r3, [r3, #2896]
 4744 0182 7A69     		ldr	r2, [r7, #20]
 4745 0184 D269     		ldr	r2, [r2, #28]
 4746 0186 1046     		mov	r0, r2
 4747 0188 3969     		ldr	r1, [r7, #16]
 4748 018a 9847     		blx	r3
1197:.\EncoreImpl.c ****                 pjob->_ppump->PumpTransQueueUnlock(pjob->_ppump);
 4749              		.loc 1 1197 0
 4750 018c 7B69     		ldr	r3, [r7, #20]
 4751 018e DB69     		ldr	r3, [r3, #28]
 4752 0190 D3F8483B 		ldr	r3, [r3, #2888]
 4753 0194 7A69     		ldr	r2, [r7, #20]
 4754 0196 D269     		ldr	r2, [r2, #28]
 4755 0198 1046     		mov	r0, r2
 4756 019a 9847     		blx	r3
 4757 019c 08E0     		b	.L165
 4758              	.L169:
1198:.\EncoreImpl.c ****             }else
1199:.\EncoreImpl.c ****                 pjob->_ppump->PumpTransQueueDeallocate(pjob->_ppump, pts);
 4759              		.loc 1 1199 0
 4760 019e 7B69     		ldr	r3, [r7, #20]
 4761 01a0 DB69     		ldr	r3, [r3, #28]
 4762 01a2 D3F8543B 		ldr	r3, [r3, #2900]
 4763 01a6 7A69     		ldr	r2, [r7, #20]
 4764 01a8 D269     		ldr	r2, [r2, #28]
 4765 01aa 1046     		mov	r0, r2
 4766 01ac 3969     		ldr	r1, [r7, #16]
 4767 01ae 9847     		blx	r3
 4768              	.L165:
ARM GAS  C:\Users\RECEPC~1\AppData\Local\Temp\ccMZb0bC.s 			page 106


 4769              	.LBE30:
 4770              	.LBE29:
1200:.\EncoreImpl.c ****         }
1201:.\EncoreImpl.c ****     }
1202:.\EncoreImpl.c **** }
 4771              		.loc 1 1202 0
 4772 01b0 1837     		adds	r7, r7, #24
 4773              		.cfi_def_cfa_offset 16
 4774 01b2 BD46     		mov	sp, r7
 4775              		.cfi_def_cfa_register 13
 4776              		@ sp needed
 4777 01b4 B0BD     		pop	{r4, r5, r7, pc}
 4778              		.cfi_endproc
 4779              	.LFE81:
 4780              		.size	PumpPresetNotification, .-PumpPresetNotification
 4781 01b6 00BF     		.section	.text.PumpCreditPresetNotification,"ax",%progbits
 4782              		.align	2
 4783              		.global	PumpCreditPresetNotification
 4784              		.thumb
 4785              		.thumb_func
 4786              		.type	PumpCreditPresetNotification, %function
 4787              	PumpCreditPresetNotification:
 4788              	.LFB82:
1203:.\EncoreImpl.c **** 
1204:.\EncoreImpl.c **** 
1205:.\EncoreImpl.c **** //@Created By: HIJH
1206:.\EncoreImpl.c **** //@Septembre de 2016
1207:.\EncoreImpl.c **** //Message to be notified to the remote peer (NSX)
1208:.\EncoreImpl.c **** void PumpCreditPresetNotification(LPVOID pparam)
1209:.\EncoreImpl.c **** {
 4789              		.loc 1 1209 0
 4790              		.cfi_startproc
 4791              		@ args = 0, pretend = 0, frame = 24
 4792              		@ frame_needed = 1, uses_anonymous_args = 0
 4793 0000 80B5     		push	{r7, lr}
 4794              		.cfi_def_cfa_offset 8
 4795              		.cfi_offset 7, -8
 4796              		.cfi_offset 14, -4
 4797 0002 86B0     		sub	sp, sp, #24
 4798              		.cfi_def_cfa_offset 32
 4799 0004 00AF     		add	r7, sp, #0
 4800              		.cfi_def_cfa_register 7
 4801 0006 7860     		str	r0, [r7, #4]
1210:.\EncoreImpl.c ****     PPUMPTRANSACTIONJOBCONTEXTPTR pjob = (PPUMPTRANSACTIONJOBCONTEXTPTR)pparam;
 4802              		.loc 1 1210 0
 4803 0008 7B68     		ldr	r3, [r7, #4]
 4804 000a 7B61     		str	r3, [r7, #20]
1211:.\EncoreImpl.c ****     if(pjob)
 4805              		.loc 1 1211 0
 4806 000c 7B69     		ldr	r3, [r7, #20]
 4807 000e 002B     		cmp	r3, #0
 4808 0010 67D0     		beq	.L170
 4809              	.LBB31:
1212:.\EncoreImpl.c ****     {
1213:.\EncoreImpl.c ****         //HERE WE ATTEMPT TO PUSH THE TRANSACTION INTO THE PUMP'S TRANSACTIONAL QUEUE.
1214:.\EncoreImpl.c ****         //THIS IS DONE ONLY IF THERE IS ROOM IN THE QUEUE, OTHERWISE THIS STATE WON'T
1215:.\EncoreImpl.c ****         //BE REPORTED TO THE REMOTE PEER.
ARM GAS  C:\Users\RECEPC~1\AppData\Local\Temp\ccMZb0bC.s 			page 107


1216:.\EncoreImpl.c ****         pjob->_ppump->PumpTransQueueLock(pjob->_ppump);
 4810              		.loc 1 1216 0
 4811 0012 7B69     		ldr	r3, [r7, #20]
 4812 0014 DB69     		ldr	r3, [r3, #28]
 4813 0016 D3F8443B 		ldr	r3, [r3, #2884]
 4814 001a 7A69     		ldr	r2, [r7, #20]
 4815 001c D269     		ldr	r2, [r2, #28]
 4816 001e 1046     		mov	r0, r2
 4817 0020 9847     		blx	r3
1217:.\EncoreImpl.c ****         PNEAR_PUMPTRANSACTIONALSTATEPTR pts = pjob->_ppump->PumpTransQueueAllocate(pjob->_ppump);
 4818              		.loc 1 1217 0
 4819 0022 7B69     		ldr	r3, [r7, #20]
 4820 0024 DB69     		ldr	r3, [r3, #28]
 4821 0026 D3F8583B 		ldr	r3, [r3, #2904]
 4822 002a 7A69     		ldr	r2, [r7, #20]
 4823 002c D269     		ldr	r2, [r2, #28]
 4824 002e 1046     		mov	r0, r2
 4825 0030 9847     		blx	r3
 4826 0032 3861     		str	r0, [r7, #16]
1218:.\EncoreImpl.c ****         pjob->_ppump->PumpTransQueueUnlock(pjob->_ppump);
 4827              		.loc 1 1218 0
 4828 0034 7B69     		ldr	r3, [r7, #20]
 4829 0036 DB69     		ldr	r3, [r3, #28]
 4830 0038 D3F8483B 		ldr	r3, [r3, #2888]
 4831 003c 7A69     		ldr	r2, [r7, #20]
 4832 003e D269     		ldr	r2, [r2, #28]
 4833 0040 1046     		mov	r0, r2
 4834 0042 9847     		blx	r3
1219:.\EncoreImpl.c ****         if(pts)
 4835              		.loc 1 1219 0
 4836 0044 3B69     		ldr	r3, [r7, #16]
 4837 0046 002B     		cmp	r3, #0
 4838 0048 4BD0     		beq	.L170
 4839              	.LBB32:
1220:.\EncoreImpl.c ****         {
1221:.\EncoreImpl.c ****             uint8 index = 0;
 4840              		.loc 1 1221 0
 4841 004a 0023     		movs	r3, #0
 4842 004c FB73     		strb	r3, [r7, #15]
1222:.\EncoreImpl.c ****             pts->_transtate = RF_MUX_CREDIT_PRESET_NOTIFICATION_REQUEST;
 4843              		.loc 1 1222 0
 4844 004e 3B69     		ldr	r3, [r7, #16]
 4845 0050 AE22     		movs	r2, #174
 4846 0052 5A70     		strb	r2, [r3, #1]
1223:.\EncoreImpl.c ****             //Pump ID always comes in position 0x00
1224:.\EncoreImpl.c ****             pts->_buffer[index++] = pjob->_ppump->_pumpid;
 4847              		.loc 1 1224 0
 4848 0054 FB7B     		ldrb	r3, [r7, #15]	@ zero_extendqisi2
 4849 0056 5A1C     		adds	r2, r3, #1
 4850 0058 FA73     		strb	r2, [r7, #15]
 4851 005a 1946     		mov	r1, r3
 4852 005c 7B69     		ldr	r3, [r7, #20]
 4853 005e DB69     		ldr	r3, [r3, #28]
 4854 0060 1A78     		ldrb	r2, [r3]	@ zero_extendqisi2
 4855 0062 3B69     		ldr	r3, [r7, #16]
 4856 0064 0B44     		add	r3, r3, r1
 4857 0066 9A70     		strb	r2, [r3, #2]
ARM GAS  C:\Users\RECEPC~1\AppData\Local\Temp\ccMZb0bC.s 			page 108


1225:.\EncoreImpl.c ****             pts->_buffersize = index;
 4858              		.loc 1 1225 0
 4859 0068 FB7B     		ldrb	r3, [r7, #15]	@ zero_extendqisi2
 4860 006a 9AB2     		uxth	r2, r3
 4861 006c 3B69     		ldr	r3, [r7, #16]
 4862 006e A3F80221 		strh	r2, [r3, #258]	@ movhi
1226:.\EncoreImpl.c ****             
1227:.\EncoreImpl.c ****             PNEAR_PUMPTRANSACTIONALSTATEPTR ptstemp = pjob->_ppump->PumpTransQueueAllocate(pjob->_p
 4863              		.loc 1 1227 0
 4864 0072 7B69     		ldr	r3, [r7, #20]
 4865 0074 DB69     		ldr	r3, [r3, #28]
 4866 0076 D3F8583B 		ldr	r3, [r3, #2904]
 4867 007a 7A69     		ldr	r2, [r7, #20]
 4868 007c D269     		ldr	r2, [r2, #28]
 4869 007e 1046     		mov	r0, r2
 4870 0080 9847     		blx	r3
 4871 0082 B860     		str	r0, [r7, #8]
1228:.\EncoreImpl.c ****             if(ptstemp)
 4872              		.loc 1 1228 0
 4873 0084 BB68     		ldr	r3, [r7, #8]
 4874 0086 002B     		cmp	r3, #0
 4875 0088 22D0     		beq	.L172
1229:.\EncoreImpl.c ****             {
1230:.\EncoreImpl.c ****                 pjob->_ppump->PumpTransQueueDeallocate(pjob->_ppump,ptstemp);
 4876              		.loc 1 1230 0
 4877 008a 7B69     		ldr	r3, [r7, #20]
 4878 008c DB69     		ldr	r3, [r3, #28]
 4879 008e D3F8543B 		ldr	r3, [r3, #2900]
 4880 0092 7A69     		ldr	r2, [r7, #20]
 4881 0094 D269     		ldr	r2, [r2, #28]
 4882 0096 1046     		mov	r0, r2
 4883 0098 B968     		ldr	r1, [r7, #8]
 4884 009a 9847     		blx	r3
1231:.\EncoreImpl.c ****                 pjob->_ppump->PumpTransQueueLock(pjob->_ppump);
 4885              		.loc 1 1231 0
 4886 009c 7B69     		ldr	r3, [r7, #20]
 4887 009e DB69     		ldr	r3, [r3, #28]
 4888 00a0 D3F8443B 		ldr	r3, [r3, #2884]
 4889 00a4 7A69     		ldr	r2, [r7, #20]
 4890 00a6 D269     		ldr	r2, [r2, #28]
 4891 00a8 1046     		mov	r0, r2
 4892 00aa 9847     		blx	r3
1232:.\EncoreImpl.c ****                 pjob->_ppump->PumpTransQueueEnqueue(pjob->_ppump, pts);
 4893              		.loc 1 1232 0
 4894 00ac 7B69     		ldr	r3, [r7, #20]
 4895 00ae DB69     		ldr	r3, [r3, #28]
 4896 00b0 D3F8503B 		ldr	r3, [r3, #2896]
 4897 00b4 7A69     		ldr	r2, [r7, #20]
 4898 00b6 D269     		ldr	r2, [r2, #28]
 4899 00b8 1046     		mov	r0, r2
 4900 00ba 3969     		ldr	r1, [r7, #16]
 4901 00bc 9847     		blx	r3
1233:.\EncoreImpl.c ****                 pjob->_ppump->PumpTransQueueUnlock(pjob->_ppump);
 4902              		.loc 1 1233 0
 4903 00be 7B69     		ldr	r3, [r7, #20]
 4904 00c0 DB69     		ldr	r3, [r3, #28]
 4905 00c2 D3F8483B 		ldr	r3, [r3, #2888]
ARM GAS  C:\Users\RECEPC~1\AppData\Local\Temp\ccMZb0bC.s 			page 109


 4906 00c6 7A69     		ldr	r2, [r7, #20]
 4907 00c8 D269     		ldr	r2, [r2, #28]
 4908 00ca 1046     		mov	r0, r2
 4909 00cc 9847     		blx	r3
 4910 00ce 08E0     		b	.L170
 4911              	.L172:
1234:.\EncoreImpl.c ****             }else
1235:.\EncoreImpl.c ****                 pjob->_ppump->PumpTransQueueDeallocate(pjob->_ppump, pts);
 4912              		.loc 1 1235 0
 4913 00d0 7B69     		ldr	r3, [r7, #20]
 4914 00d2 DB69     		ldr	r3, [r3, #28]
 4915 00d4 D3F8543B 		ldr	r3, [r3, #2900]
 4916 00d8 7A69     		ldr	r2, [r7, #20]
 4917 00da D269     		ldr	r2, [r2, #28]
 4918 00dc 1046     		mov	r0, r2
 4919 00de 3969     		ldr	r1, [r7, #16]
 4920 00e0 9847     		blx	r3
 4921              	.L170:
 4922              	.LBE32:
 4923              	.LBE31:
1236:.\EncoreImpl.c ****         }
1237:.\EncoreImpl.c ****     }
1238:.\EncoreImpl.c **** }
 4924              		.loc 1 1238 0
 4925 00e2 1837     		adds	r7, r7, #24
 4926              		.cfi_def_cfa_offset 8
 4927 00e4 BD46     		mov	sp, r7
 4928              		.cfi_def_cfa_register 13
 4929              		@ sp needed
 4930 00e6 80BD     		pop	{r7, pc}
 4931              		.cfi_endproc
 4932              	.LFE82:
 4933              		.size	PumpCreditPresetNotification, .-PumpCreditPresetNotification
 4934              		.section	.text.PumpFullPresetHose,"ax",%progbits
 4935              		.align	2
 4936              		.global	PumpFullPresetHose
 4937              		.thumb
 4938              		.thumb_func
 4939              		.type	PumpFullPresetHose, %function
 4940              	PumpFullPresetHose:
 4941              	.LFB83:
1239:.\EncoreImpl.c **** 
1240:.\EncoreImpl.c **** //@Created By: HIJH
1241:.\EncoreImpl.c **** //@Septembre de 2016
1242:.\EncoreImpl.c **** ///////////////////////////////////////////////////////////////////////////////////////////////////
1243:.\EncoreImpl.c **** //Preset values will be placed within the SinkMessage's buffer. This is a convention that applies t
1244:.\EncoreImpl.c **** //all of the available transactions. The pump function must deal with this while it is assembling t
1245:.\EncoreImpl.c **** //For this message the data comes as follows:
1246:.\EncoreImpl.c **** // - First byte is the preset type (Volume:1 / Money:2 )
1247:.\EncoreImpl.c **** // - Second byte is the Hose (A:0, B:1, C:2, D:3)
1248:.\EncoreImpl.c **** // - Block of 8 bytes for the preset value
1249:.\EncoreImpl.c **** //This block of data (10 bytes) must be moved to another position within the same buffer (even posi
1250:.\EncoreImpl.c **** void PumpFullPresetHose(void *pparam)
1251:.\EncoreImpl.c **** {
 4942              		.loc 1 1251 0
 4943              		.cfi_startproc
 4944              		@ args = 0, pretend = 0, frame = 40
ARM GAS  C:\Users\RECEPC~1\AppData\Local\Temp\ccMZb0bC.s 			page 110


 4945              		@ frame_needed = 1, uses_anonymous_args = 0
 4946 0000 90B5     		push	{r4, r7, lr}
 4947              		.cfi_def_cfa_offset 12
 4948              		.cfi_offset 4, -12
 4949              		.cfi_offset 7, -8
 4950              		.cfi_offset 14, -4
 4951 0002 8BB0     		sub	sp, sp, #44
 4952              		.cfi_def_cfa_offset 56
 4953 0004 00AF     		add	r7, sp, #0
 4954              		.cfi_def_cfa_register 7
 4955 0006 7860     		str	r0, [r7, #4]
1252:.\EncoreImpl.c ****     PNEAR_PUMPPTR ppump = (PNEAR_PUMPPTR)pparam;
 4956              		.loc 1 1252 0
 4957 0008 7B68     		ldr	r3, [r7, #4]
 4958 000a 3B62     		str	r3, [r7, #32]
1253:.\EncoreImpl.c ****     if(ppump)
 4959              		.loc 1 1253 0
 4960 000c 3B6A     		ldr	r3, [r7, #32]
 4961 000e 002B     		cmp	r3, #0
 4962 0010 00F07F81 		beq	.L173
 4963              	.LBB33:
1254:.\EncoreImpl.c ****     {
1255:.\EncoreImpl.c ****         uint8_t index = 0;        
 4964              		.loc 1 1255 0
 4965 0014 0023     		movs	r3, #0
 4966 0016 87F82730 		strb	r3, [r7, #39]
1256:.\EncoreImpl.c ****         PUARTMESSAGEPTR puartdisp = GetUARTMessageSlot(UART_DISPENSER);
 4967              		.loc 1 1256 0
 4968 001a A220     		movs	r0, #162
 4969 001c FFF7FEFF 		bl	GetUARTMessageSlot
 4970 0020 F861     		str	r0, [r7, #28]
1257:.\EncoreImpl.c ****         memset(ppump->_rxbuffer, 0x00, _PUMP_RX_BUFFER_SIZE_);
 4971              		.loc 1 1257 0
 4972 0022 3B6A     		ldr	r3, [r7, #32]
 4973 0024 03F5D073 		add	r3, r3, #416
 4974 0028 1846     		mov	r0, r3
 4975 002a 0021     		movs	r1, #0
 4976 002c 4FF4C072 		mov	r2, #384
 4977 0030 FFF7FEFF 		bl	memset
1258:.\EncoreImpl.c ****         if(puartdisp)
 4978              		.loc 1 1258 0
 4979 0034 FB69     		ldr	r3, [r7, #28]
 4980 0036 002B     		cmp	r3, #0
 4981 0038 00F06B81 		beq	.L173
1259:.\EncoreImpl.c ****         {
1260:.\EncoreImpl.c **** ///////////////////////////////////////////////////////////////////////////////////////////////////
1261:.\EncoreImpl.c ****             puartdisp->_messagetx[index++] = SOM;
 4982              		.loc 1 1261 0
 4983 003c 97F82730 		ldrb	r3, [r7, #39]	@ zero_extendqisi2
 4984 0040 5A1C     		adds	r2, r3, #1
 4985 0042 87F82720 		strb	r2, [r7, #39]
 4986 0046 1A46     		mov	r2, r3
 4987 0048 FB69     		ldr	r3, [r7, #28]
 4988 004a 1344     		add	r3, r3, r2
 4989 004c FF22     		movs	r2, #255
 4990 004e 1A71     		strb	r2, [r3, #4]
1262:.\EncoreImpl.c ****             if(_g_dispenserlayoutinfo._displaydigitsmode == 0x06)
ARM GAS  C:\Users\RECEPC~1\AppData\Local\Temp\ccMZb0bC.s 			page 111


 4991              		.loc 1 1262 0
 4992 0050 B14B     		ldr	r3, .L187
 4993 0052 1B7C     		ldrb	r3, [r3, #16]	@ zero_extendqisi2
 4994 0054 062B     		cmp	r3, #6
 4995 0056 40F09780 		bne	.L175
 4996              	.LBB34:
1263:.\EncoreImpl.c ****             {
1264:.\EncoreImpl.c ****                 puartdisp->_messagetx[index++] = 0xE2;
 4997              		.loc 1 1264 0
 4998 005a 97F82730 		ldrb	r3, [r7, #39]	@ zero_extendqisi2
 4999 005e 5A1C     		adds	r2, r3, #1
 5000 0060 87F82720 		strb	r2, [r7, #39]
 5001 0064 1A46     		mov	r2, r3
 5002 0066 FB69     		ldr	r3, [r7, #28]
 5003 0068 1344     		add	r3, r3, r2
 5004 006a E222     		movs	r2, #226
 5005 006c 1A71     		strb	r2, [r3, #4]
1265:.\EncoreImpl.c **** 
1266:.\EncoreImpl.c ****                 ///THIS IS AN APPLIED CONVENTION ===>> 0x0004 INDEX POSITION WITHIN THE PUMP'S BUFF
1267:.\EncoreImpl.c ****                 ///THESE CODES MUST BE MATCHED OTHERWISE THE LOGIC WILL BREAKUP THE CODE!
1268:.\EncoreImpl.c ****                 uint8 transtype = 0xF1;//preset type (0xF2 = Money, 0xF1 = Volume)
 5006              		.loc 1 1268 0
 5007 006e F123     		movs	r3, #241
 5008 0070 FB76     		strb	r3, [r7, #27]
1269:.\EncoreImpl.c ****                 puartdisp->_messagetx[index++] = transtype;//preset type (0xF2 = Money, 0xF1 = Volu
 5009              		.loc 1 1269 0
 5010 0072 97F82730 		ldrb	r3, [r7, #39]	@ zero_extendqisi2
 5011 0076 5A1C     		adds	r2, r3, #1
 5012 0078 87F82720 		strb	r2, [r7, #39]
 5013 007c 1A46     		mov	r2, r3
 5014 007e FB69     		ldr	r3, [r7, #28]
 5015 0080 1344     		add	r3, r3, r2
 5016 0082 FA7E     		ldrb	r2, [r7, #27]
 5017 0084 1A71     		strb	r2, [r3, #4]
1270:.\EncoreImpl.c ****                 puartdisp->_messagetx[index++] = 0xF4;
 5018              		.loc 1 1270 0
 5019 0086 97F82730 		ldrb	r3, [r7, #39]	@ zero_extendqisi2
 5020 008a 5A1C     		adds	r2, r3, #1
 5021 008c 87F82720 		strb	r2, [r7, #39]
 5022 0090 1A46     		mov	r2, r3
 5023 0092 FB69     		ldr	r3, [r7, #28]
 5024 0094 1344     		add	r3, r3, r2
 5025 0096 F422     		movs	r2, #244
 5026 0098 1A71     		strb	r2, [r3, #4]
1271:.\EncoreImpl.c ****                 puartdisp->_messagetx[index++] = 0xF6; //Hose Data next
 5027              		.loc 1 1271 0
 5028 009a 97F82730 		ldrb	r3, [r7, #39]	@ zero_extendqisi2
 5029 009e 5A1C     		adds	r2, r3, #1
 5030 00a0 87F82720 		strb	r2, [r7, #39]
 5031 00a4 1A46     		mov	r2, r3
 5032 00a6 FB69     		ldr	r3, [r7, #28]
 5033 00a8 1344     		add	r3, r3, r2
 5034 00aa F622     		movs	r2, #246
 5035 00ac 1A71     		strb	r2, [r3, #4]
1272:.\EncoreImpl.c ****                 ///THIS IS AN APPLIED CONVENTION ===>> 0x0006 INDEX POSITION WITHIN THE PUMP'S BUFF
1273:.\EncoreImpl.c ****                 ///THESE CODES MUST BE MATCHED OTHERWISE THE LOGIC WILL BREAKUP THE CODE!
1274:.\EncoreImpl.c ****                 puartdisp->_messagetx[index++] = (0xE0 | (0x0F & ppump->_trasactionbuffer[GetBuffer
ARM GAS  C:\Users\RECEPC~1\AppData\Local\Temp\ccMZb0bC.s 			page 112


 5036              		.loc 1 1274 0
 5037 00ae 97F82730 		ldrb	r3, [r7, #39]	@ zero_extendqisi2
 5038 00b2 5A1C     		adds	r2, r3, #1
 5039 00b4 87F82720 		strb	r2, [r7, #39]
 5040 00b8 1C46     		mov	r4, r3
 5041 00ba 0720     		movs	r0, #7
 5042 00bc FFF7FEFF 		bl	GetBufferIndexFromDisplayID
 5043 00c0 0346     		mov	r3, r0
 5044 00c2 1A46     		mov	r2, r3
 5045 00c4 3B6A     		ldr	r3, [r7, #32]
 5046 00c6 1344     		add	r3, r3, r2
 5047 00c8 93F82030 		ldrb	r3, [r3, #32]	@ zero_extendqisi2
 5048 00cc 03F00F03 		and	r3, r3, #15
 5049 00d0 DBB2     		uxtb	r3, r3
 5050 00d2 63F01F03 		orn	r3, r3, #31
 5051 00d6 DAB2     		uxtb	r2, r3
 5052 00d8 FB69     		ldr	r3, [r7, #28]
 5053 00da 2344     		add	r3, r3, r4
 5054 00dc 1A71     		strb	r2, [r3, #4]
1275:.\EncoreImpl.c ****                 
1276:.\EncoreImpl.c ****                 puartdisp->_messagetx[index++] = 0xF8; //Preset Data next
 5055              		.loc 1 1276 0
 5056 00de 97F82730 		ldrb	r3, [r7, #39]	@ zero_extendqisi2
 5057 00e2 5A1C     		adds	r2, r3, #1
 5058 00e4 87F82720 		strb	r2, [r7, #39]
 5059 00e8 1A46     		mov	r2, r3
 5060 00ea FB69     		ldr	r3, [r7, #28]
 5061 00ec 1344     		add	r3, r3, r2
 5062 00ee F822     		movs	r2, #248
 5063 00f0 1A71     		strb	r2, [r3, #4]
1277:.\EncoreImpl.c ****                 //Here we copy the remaining 8 bytes for the preset value
1278:.\EncoreImpl.c ****                 ///THIS IS AN APPLIED CONVENTION ===>> 0x0008 INDEX POSITION WITHIN THE PUMP'S BUFF
1279:.\EncoreImpl.c ****                 ///THESE CODES MUST BE MATCHED OTHERWISE THE LOGIC WILL BREAKUP THE CODE!
1280:.\EncoreImpl.c ****                 char8 *ptr = &ppump->_trasactionbuffer[0x0008];
 5064              		.loc 1 1280 0
 5065 00f2 3B6A     		ldr	r3, [r7, #32]
 5066 00f4 2833     		adds	r3, r3, #40
 5067 00f6 7B61     		str	r3, [r7, #20]
1281:.\EncoreImpl.c ****                 B78AD90CF552D9B30A(10 * _PUMP_MAXIMUM_PRESET_GALLONS_, (LPRAWPTR)ptr);
 5068              		.loc 1 1281 0
 5069 00f8 41F28830 		movw	r0, #5000
 5070 00fc 4FF00001 		mov	r1, #0
 5071 0100 7A69     		ldr	r2, [r7, #20]
 5072 0102 FFF7FEFF 		bl	B78AD90CF552D9B30A
1282:.\EncoreImpl.c **** 
1283:.\EncoreImpl.c ****                 PSTRBUFFTOGG(PBYTECAST(&ppump->_trasactionbuffer[0x0008]), 0x08);
 5073              		.loc 1 1283 0
 5074 0106 3B6A     		ldr	r3, [r7, #32]
 5075 0108 2833     		adds	r3, r3, #40
 5076 010a 1846     		mov	r0, r3
 5077 010c 0821     		movs	r1, #8
 5078 010e FFF7FEFF 		bl	PSTRBUFFTOGG
1284:.\EncoreImpl.c ****                 if(transtype == 0xF1) //Volume PRESET, then multiply by 1000
 5079              		.loc 1 1284 0
 5080 0112 FB7E     		ldrb	r3, [r7, #27]	@ zero_extendqisi2
 5081 0114 F12B     		cmp	r3, #241
 5082 0116 04D1     		bne	.L176
ARM GAS  C:\Users\RECEPC~1\AppData\Local\Temp\ccMZb0bC.s 			page 113


1285:.\EncoreImpl.c ****                     CastVolumeValue(ptr, 0x08);
 5083              		.loc 1 1285 0
 5084 0118 7869     		ldr	r0, [r7, #20]
 5085 011a 0821     		movs	r1, #8
 5086 011c FFF7FEFF 		bl	CastVolumeValue
 5087 0120 0BE0     		b	.L177
 5088              	.L176:
1286:.\EncoreImpl.c ****                 else if(!(_g_dispenserlayoutinfo._moneydecimals == 0x03 && _g_dispenserlayoutinfo._
 5089              		.loc 1 1286 0
 5090 0122 7D4B     		ldr	r3, .L187
 5091 0124 DB79     		ldrb	r3, [r3, #7]	@ zero_extendqisi2
 5092 0126 032B     		cmp	r3, #3
 5093 0128 03D1     		bne	.L178
 5094              		.loc 1 1286 0 is_stmt 0 discriminator 1
 5095 012a 7B4B     		ldr	r3, .L187
 5096 012c 1B7A     		ldrb	r3, [r3, #8]	@ zero_extendqisi2
 5097 012e 022B     		cmp	r3, #2
 5098 0130 03D0     		beq	.L177
 5099              	.L178:
1287:.\EncoreImpl.c ****                     CastMoneyValue(ptr, 0x08);
 5100              		.loc 1 1287 0 is_stmt 1
 5101 0132 7869     		ldr	r0, [r7, #20]
 5102 0134 0821     		movs	r1, #8
 5103 0136 FFF7FEFF 		bl	CastMoneyValue
 5104              	.L177:
1288:.\EncoreImpl.c **** 
1289:.\EncoreImpl.c ****                 FOR(uint8 buffndx = 0, buffndx < 0x06, buffndx++)
 5105              		.loc 1 1289 0
 5106 013a 0023     		movs	r3, #0
 5107 013c 87F82630 		strb	r3, [r7, #38]
 5108 0140 1DE0     		b	.L179
 5109              	.L180:
1290:.\EncoreImpl.c ****                     puartdisp->_messagetx[index++] = (0xE0 | (ptr[7 - buffndx] & 0x0F)); //Translat
 5110              		.loc 1 1290 0 discriminator 3
 5111 0142 97F82730 		ldrb	r3, [r7, #39]	@ zero_extendqisi2
 5112 0146 5A1C     		adds	r2, r3, #1
 5113 0148 87F82720 		strb	r2, [r7, #39]
 5114 014c 1946     		mov	r1, r3
 5115 014e 97F82630 		ldrb	r3, [r7, #38]	@ zero_extendqisi2
 5116 0152 C3F10703 		rsb	r3, r3, #7
 5117 0156 1A46     		mov	r2, r3
 5118 0158 7B69     		ldr	r3, [r7, #20]
 5119 015a 1344     		add	r3, r3, r2
 5120 015c 1B78     		ldrb	r3, [r3]	@ zero_extendqisi2
 5121 015e DBB2     		uxtb	r3, r3
 5122 0160 03F00F03 		and	r3, r3, #15
 5123 0164 DBB2     		uxtb	r3, r3
 5124 0166 63F01F03 		orn	r3, r3, #31
 5125 016a DBB2     		uxtb	r3, r3
 5126 016c DAB2     		uxtb	r2, r3
 5127 016e FB69     		ldr	r3, [r7, #28]
 5128 0170 0B44     		add	r3, r3, r1
 5129 0172 1A71     		strb	r2, [r3, #4]
1289:.\EncoreImpl.c ****                     puartdisp->_messagetx[index++] = (0xE0 | (ptr[7 - buffndx] & 0x0F)); //Translat
 5130              		.loc 1 1289 0 discriminator 3
 5131 0174 97F82630 		ldrb	r3, [r7, #38]	@ zero_extendqisi2
 5132 0178 0133     		adds	r3, r3, #1
ARM GAS  C:\Users\RECEPC~1\AppData\Local\Temp\ccMZb0bC.s 			page 114


 5133 017a 87F82630 		strb	r3, [r7, #38]
 5134              	.L179:
1289:.\EncoreImpl.c ****                     puartdisp->_messagetx[index++] = (0xE0 | (ptr[7 - buffndx] & 0x0F)); //Translat
 5135              		.loc 1 1289 0 is_stmt 0 discriminator 1
 5136 017e 97F82630 		ldrb	r3, [r7, #38]	@ zero_extendqisi2
 5137 0182 052B     		cmp	r3, #5
 5138 0184 DDD9     		bls	.L180
 5139              	.LBE34:
 5140 0186 95E0     		b	.L181
 5141              	.L175:
 5142              	.LBB35:
1291:.\EncoreImpl.c ****                     
1292:.\EncoreImpl.c ****             }
1293:.\EncoreImpl.c ****             else
1294:.\EncoreImpl.c ****             {
1295:.\EncoreImpl.c ****                 puartdisp->_messagetx[index++] = 0xE1;
 5143              		.loc 1 1295 0 is_stmt 1
 5144 0188 97F82730 		ldrb	r3, [r7, #39]	@ zero_extendqisi2
 5145 018c 5A1C     		adds	r2, r3, #1
 5146 018e 87F82720 		strb	r2, [r7, #39]
 5147 0192 1A46     		mov	r2, r3
 5148 0194 FB69     		ldr	r3, [r7, #28]
 5149 0196 1344     		add	r3, r3, r2
 5150 0198 E122     		movs	r2, #225
 5151 019a 1A71     		strb	r2, [r3, #4]
1296:.\EncoreImpl.c **** 
1297:.\EncoreImpl.c ****                 ///THIS IS AN APPLIED CONVENTION ===>> 0x0004 INDEX POSITION WITHIN THE PUMP'S BUFF
1298:.\EncoreImpl.c ****                 ///THESE CODES MUST BE MATCHED OTHERWISE THE LOGIC WILL BREAKUP THE CODE!
1299:.\EncoreImpl.c ****                 uint8 transtype = 0xF1;//preset type (0xF2 = Money, 0xF1 = Volume)
 5152              		.loc 1 1299 0
 5153 019c F123     		movs	r3, #241
 5154 019e FB74     		strb	r3, [r7, #19]
1300:.\EncoreImpl.c ****                 puartdisp->_messagetx[index++] = transtype;//preset type (0xF2 = Money, 0xF1 = Volu
 5155              		.loc 1 1300 0
 5156 01a0 97F82730 		ldrb	r3, [r7, #39]	@ zero_extendqisi2
 5157 01a4 5A1C     		adds	r2, r3, #1
 5158 01a6 87F82720 		strb	r2, [r7, #39]
 5159 01aa 1A46     		mov	r2, r3
 5160 01ac FB69     		ldr	r3, [r7, #28]
 5161 01ae 1344     		add	r3, r3, r2
 5162 01b0 FA7C     		ldrb	r2, [r7, #19]
 5163 01b2 1A71     		strb	r2, [r3, #4]
1301:.\EncoreImpl.c ****                 puartdisp->_messagetx[index++] = 0xF4;
 5164              		.loc 1 1301 0
 5165 01b4 97F82730 		ldrb	r3, [r7, #39]	@ zero_extendqisi2
 5166 01b8 5A1C     		adds	r2, r3, #1
 5167 01ba 87F82720 		strb	r2, [r7, #39]
 5168 01be 1A46     		mov	r2, r3
 5169 01c0 FB69     		ldr	r3, [r7, #28]
 5170 01c2 1344     		add	r3, r3, r2
 5171 01c4 F422     		movs	r2, #244
 5172 01c6 1A71     		strb	r2, [r3, #4]
1302:.\EncoreImpl.c ****                 puartdisp->_messagetx[index++] = 0xF6; //Hose Data next
 5173              		.loc 1 1302 0
 5174 01c8 97F82730 		ldrb	r3, [r7, #39]	@ zero_extendqisi2
 5175 01cc 5A1C     		adds	r2, r3, #1
 5176 01ce 87F82720 		strb	r2, [r7, #39]
ARM GAS  C:\Users\RECEPC~1\AppData\Local\Temp\ccMZb0bC.s 			page 115


 5177 01d2 1A46     		mov	r2, r3
 5178 01d4 FB69     		ldr	r3, [r7, #28]
 5179 01d6 1344     		add	r3, r3, r2
 5180 01d8 F622     		movs	r2, #246
 5181 01da 1A71     		strb	r2, [r3, #4]
1303:.\EncoreImpl.c ****                 ///THIS IS AN APPLIED CONVENTION ===>> 0x0006 INDEX POSITION WITHIN THE PUMP'S BUFF
1304:.\EncoreImpl.c ****                 ///THESE CODES MUST BE MATCHED OTHERWISE THE LOGIC WILL BREAKUP THE CODE!
1305:.\EncoreImpl.c ****                 puartdisp->_messagetx[index++] = (0xE0 | (0x0F & ppump->_trasactionbuffer[GetBuffer
 5182              		.loc 1 1305 0
 5183 01dc 97F82730 		ldrb	r3, [r7, #39]	@ zero_extendqisi2
 5184 01e0 5A1C     		adds	r2, r3, #1
 5185 01e2 87F82720 		strb	r2, [r7, #39]
 5186 01e6 1C46     		mov	r4, r3
 5187 01e8 0720     		movs	r0, #7
 5188 01ea FFF7FEFF 		bl	GetBufferIndexFromDisplayID
 5189 01ee 0346     		mov	r3, r0
 5190 01f0 1A46     		mov	r2, r3
 5191 01f2 3B6A     		ldr	r3, [r7, #32]
 5192 01f4 1344     		add	r3, r3, r2
 5193 01f6 93F82030 		ldrb	r3, [r3, #32]	@ zero_extendqisi2
 5194 01fa 03F00F03 		and	r3, r3, #15
 5195 01fe DBB2     		uxtb	r3, r3
 5196 0200 63F01F03 		orn	r3, r3, #31
 5197 0204 DAB2     		uxtb	r2, r3
 5198 0206 FB69     		ldr	r3, [r7, #28]
 5199 0208 2344     		add	r3, r3, r4
 5200 020a 1A71     		strb	r2, [r3, #4]
1306:.\EncoreImpl.c ****                 
1307:.\EncoreImpl.c ****                 puartdisp->_messagetx[index++] = 0xF8; //Preset Data next
 5201              		.loc 1 1307 0
 5202 020c 97F82730 		ldrb	r3, [r7, #39]	@ zero_extendqisi2
 5203 0210 5A1C     		adds	r2, r3, #1
 5204 0212 87F82720 		strb	r2, [r7, #39]
 5205 0216 1A46     		mov	r2, r3
 5206 0218 FB69     		ldr	r3, [r7, #28]
 5207 021a 1344     		add	r3, r3, r2
 5208 021c F822     		movs	r2, #248
 5209 021e 1A71     		strb	r2, [r3, #4]
1308:.\EncoreImpl.c ****                 //Here we copy the remaining 8 bytes for the preset value
1309:.\EncoreImpl.c ****                 ///THIS IS AN APPLIED CONVENTION ===>> 0x0008 INDEX POSITION WITHIN THE PUMP'S BUFF
1310:.\EncoreImpl.c ****                 ///THESE CODES MUST BE MATCHED OTHERWISE THE LOGIC WILL BREAKUP THE CODE!
1311:.\EncoreImpl.c ****                 char8 *ptr = &ppump->_trasactionbuffer[0x0008];
 5210              		.loc 1 1311 0
 5211 0220 3B6A     		ldr	r3, [r7, #32]
 5212 0222 2833     		adds	r3, r3, #40
 5213 0224 FB60     		str	r3, [r7, #12]
1312:.\EncoreImpl.c ****                 B78AD90CF552D9B30A(_PUMP_MAXIMUM_PRESET_GALLONS_, (LPRAWPTR)ptr);
 5214              		.loc 1 1312 0
 5215 0226 4FF4FA70 		mov	r0, #500
 5216 022a 4FF00001 		mov	r1, #0
 5217 022e FA68     		ldr	r2, [r7, #12]
 5218 0230 FFF7FEFF 		bl	B78AD90CF552D9B30A
1313:.\EncoreImpl.c **** 
1314:.\EncoreImpl.c ****                 PSTRBUFFTOGG(PBYTECAST(&ppump->_trasactionbuffer[0x0008]), 0x08);
 5219              		.loc 1 1314 0
 5220 0234 3B6A     		ldr	r3, [r7, #32]
 5221 0236 2833     		adds	r3, r3, #40
ARM GAS  C:\Users\RECEPC~1\AppData\Local\Temp\ccMZb0bC.s 			page 116


 5222 0238 1846     		mov	r0, r3
 5223 023a 0821     		movs	r1, #8
 5224 023c FFF7FEFF 		bl	PSTRBUFFTOGG
1315:.\EncoreImpl.c ****                 if(transtype == 0xF1) //Volume PRESET, then multiply by 1000
 5225              		.loc 1 1315 0
 5226 0240 FB7C     		ldrb	r3, [r7, #19]	@ zero_extendqisi2
 5227 0242 F12B     		cmp	r3, #241
 5228 0244 04D1     		bne	.L182
1316:.\EncoreImpl.c ****                     CastVolumeValue(ptr, 0x08);
 5229              		.loc 1 1316 0
 5230 0246 F868     		ldr	r0, [r7, #12]
 5231 0248 0821     		movs	r1, #8
 5232 024a FFF7FEFF 		bl	CastVolumeValue
 5233 024e 0BE0     		b	.L183
 5234              	.L182:
1317:.\EncoreImpl.c ****                 else if(!(_g_dispenserlayoutinfo._moneydecimals == 0x03 && _g_dispenserlayoutinfo._
 5235              		.loc 1 1317 0
 5236 0250 314B     		ldr	r3, .L187
 5237 0252 DB79     		ldrb	r3, [r3, #7]	@ zero_extendqisi2
 5238 0254 032B     		cmp	r3, #3
 5239 0256 03D1     		bne	.L184
 5240              		.loc 1 1317 0 is_stmt 0 discriminator 1
 5241 0258 2F4B     		ldr	r3, .L187
 5242 025a 1B7A     		ldrb	r3, [r3, #8]	@ zero_extendqisi2
 5243 025c 022B     		cmp	r3, #2
 5244 025e 03D0     		beq	.L183
 5245              	.L184:
1318:.\EncoreImpl.c ****                     CastMoneyValue(ptr, 0x08);
 5246              		.loc 1 1318 0 is_stmt 1
 5247 0260 F868     		ldr	r0, [r7, #12]
 5248 0262 0821     		movs	r1, #8
 5249 0264 FFF7FEFF 		bl	CastMoneyValue
 5250              	.L183:
1319:.\EncoreImpl.c **** 
1320:.\EncoreImpl.c ****                 FOR(uint8 buffndx = 0, buffndx < 0x08, buffndx++)
 5251              		.loc 1 1320 0
 5252 0268 0023     		movs	r3, #0
 5253 026a 87F82530 		strb	r3, [r7, #37]
 5254 026e 1DE0     		b	.L185
 5255              	.L186:
1321:.\EncoreImpl.c ****                     puartdisp->_messagetx[index++] = (0xE0 | (ptr[7 - buffndx] & 0x0F)); //Translat
 5256              		.loc 1 1321 0 discriminator 3
 5257 0270 97F82730 		ldrb	r3, [r7, #39]	@ zero_extendqisi2
 5258 0274 5A1C     		adds	r2, r3, #1
 5259 0276 87F82720 		strb	r2, [r7, #39]
 5260 027a 1946     		mov	r1, r3
 5261 027c 97F82530 		ldrb	r3, [r7, #37]	@ zero_extendqisi2
 5262 0280 C3F10703 		rsb	r3, r3, #7
 5263 0284 1A46     		mov	r2, r3
 5264 0286 FB68     		ldr	r3, [r7, #12]
 5265 0288 1344     		add	r3, r3, r2
 5266 028a 1B78     		ldrb	r3, [r3]	@ zero_extendqisi2
 5267 028c DBB2     		uxtb	r3, r3
 5268 028e 03F00F03 		and	r3, r3, #15
 5269 0292 DBB2     		uxtb	r3, r3
 5270 0294 63F01F03 		orn	r3, r3, #31
 5271 0298 DBB2     		uxtb	r3, r3
ARM GAS  C:\Users\RECEPC~1\AppData\Local\Temp\ccMZb0bC.s 			page 117


 5272 029a DAB2     		uxtb	r2, r3
 5273 029c FB69     		ldr	r3, [r7, #28]
 5274 029e 0B44     		add	r3, r3, r1
 5275 02a0 1A71     		strb	r2, [r3, #4]
1320:.\EncoreImpl.c ****                     puartdisp->_messagetx[index++] = (0xE0 | (ptr[7 - buffndx] & 0x0F)); //Translat
 5276              		.loc 1 1320 0 discriminator 3
 5277 02a2 97F82530 		ldrb	r3, [r7, #37]	@ zero_extendqisi2
 5278 02a6 0133     		adds	r3, r3, #1
 5279 02a8 87F82530 		strb	r3, [r7, #37]
 5280              	.L185:
1320:.\EncoreImpl.c ****                     puartdisp->_messagetx[index++] = (0xE0 | (ptr[7 - buffndx] & 0x0F)); //Translat
 5281              		.loc 1 1320 0 is_stmt 0 discriminator 1
 5282 02ac 97F82530 		ldrb	r3, [r7, #37]	@ zero_extendqisi2
 5283 02b0 072B     		cmp	r3, #7
 5284 02b2 DDD9     		bls	.L186
 5285              	.L181:
 5286              	.LBE35:
1322:.\EncoreImpl.c ****                     
1323:.\EncoreImpl.c ****             }
1324:.\EncoreImpl.c ****             ppump->_presetdone = true;
 5287              		.loc 1 1324 0 is_stmt 1
 5288 02b4 3B6A     		ldr	r3, [r7, #32]
 5289 02b6 0122     		movs	r2, #1
 5290 02b8 1A72     		strb	r2, [r3, #8]
1325:.\EncoreImpl.c ****             puartdisp->_messagetx[index++] = LRCn; //LRC next
 5291              		.loc 1 1325 0
 5292 02ba 97F82730 		ldrb	r3, [r7, #39]	@ zero_extendqisi2
 5293 02be 5A1C     		adds	r2, r3, #1
 5294 02c0 87F82720 		strb	r2, [r7, #39]
 5295 02c4 1A46     		mov	r2, r3
 5296 02c6 FB69     		ldr	r3, [r7, #28]
 5297 02c8 1344     		add	r3, r3, r2
 5298 02ca FB22     		movs	r2, #251
 5299 02cc 1A71     		strb	r2, [r3, #4]
1326:.\EncoreImpl.c ****             puartdisp->_messagetx[index++] = GetLRC(puartdisp->_messagetx);
 5300              		.loc 1 1326 0
 5301 02ce 97F82730 		ldrb	r3, [r7, #39]	@ zero_extendqisi2
 5302 02d2 5A1C     		adds	r2, r3, #1
 5303 02d4 87F82720 		strb	r2, [r7, #39]
 5304 02d8 1C46     		mov	r4, r3
 5305 02da FB69     		ldr	r3, [r7, #28]
 5306 02dc 0433     		adds	r3, r3, #4
 5307 02de 1846     		mov	r0, r3
 5308 02e0 FFF7FEFF 		bl	GetLRC
 5309 02e4 0346     		mov	r3, r0
 5310 02e6 1A46     		mov	r2, r3
 5311 02e8 FB69     		ldr	r3, [r7, #28]
 5312 02ea 2344     		add	r3, r3, r4
 5313 02ec 1A71     		strb	r2, [r3, #4]
1327:.\EncoreImpl.c ****             puartdisp->_messagetx[index++] = EOM;
 5314              		.loc 1 1327 0
 5315 02ee 97F82730 		ldrb	r3, [r7, #39]	@ zero_extendqisi2
 5316 02f2 5A1C     		adds	r2, r3, #1
 5317 02f4 87F82720 		strb	r2, [r7, #39]
 5318 02f8 1A46     		mov	r2, r3
 5319 02fa FB69     		ldr	r3, [r7, #28]
 5320 02fc 1344     		add	r3, r3, r2
ARM GAS  C:\Users\RECEPC~1\AppData\Local\Temp\ccMZb0bC.s 			page 118


 5321 02fe F022     		movs	r2, #240
 5322 0300 1A71     		strb	r2, [r3, #4]
1328:.\EncoreImpl.c **** ///////////////////////////////////////////////////////////////////////////////////////////////////
1329:.\EncoreImpl.c ****             
1330:.\EncoreImpl.c ****             puartdisp->_messagelength = index;
 5323              		.loc 1 1330 0
 5324 0302 97F82730 		ldrb	r3, [r7, #39]	@ zero_extendqisi2
 5325 0306 9AB2     		uxth	r2, r3
 5326 0308 FB69     		ldr	r3, [r7, #28]
 5327 030a 5A80     		strh	r2, [r3, #2]	@ movhi
1331:.\EncoreImpl.c ****             puartdisp->_messagestate = PENDING;
 5328              		.loc 1 1331 0
 5329 030c FB69     		ldr	r3, [r7, #28]
 5330 030e C222     		movs	r2, #194
 5331 0310 1A70     		strb	r2, [r3]
 5332              	.L173:
 5333              	.LBE33:
1332:.\EncoreImpl.c ****         }
1333:.\EncoreImpl.c ****     }
1334:.\EncoreImpl.c ****     
1335:.\EncoreImpl.c **** }
 5334              		.loc 1 1335 0
 5335 0312 2C37     		adds	r7, r7, #44
 5336              		.cfi_def_cfa_offset 12
 5337 0314 BD46     		mov	sp, r7
 5338              		.cfi_def_cfa_register 13
 5339              		@ sp needed
 5340 0316 90BD     		pop	{r4, r7, pc}
 5341              	.L188:
 5342              		.align	2
 5343              	.L187:
 5344 0318 00000000 		.word	_g_dispenserlayoutinfo
 5345              		.cfi_endproc
 5346              	.LFE83:
 5347              		.size	PumpFullPresetHose, .-PumpFullPresetHose
 5348              		.section	.text.PumpFullPresetNoHose,"ax",%progbits
 5349              		.align	2
 5350              		.global	PumpFullPresetNoHose
 5351              		.thumb
 5352              		.thumb_func
 5353              		.type	PumpFullPresetNoHose, %function
 5354              	PumpFullPresetNoHose:
 5355              	.LFB84:
1336:.\EncoreImpl.c **** 
1337:.\EncoreImpl.c **** //@Created By: HIJH
1338:.\EncoreImpl.c **** //@Septembre de 2016
1339:.\EncoreImpl.c **** ///////////////////////////////////////////////////////////////////////////////////////////////////
1340:.\EncoreImpl.c **** //Preset values will be placed within the SinkMessage's buffer. This is a convention that applies t
1341:.\EncoreImpl.c **** //all of the available transactions. The pump function must deal with this while it is assembling t
1342:.\EncoreImpl.c **** //For this message the data comes as follows:
1343:.\EncoreImpl.c **** // - First byte is the preset type (Volume:1 / Money:2 )
1344:.\EncoreImpl.c **** // - Second byte is the Hose (A:0, B:1, C:2, D:3)
1345:.\EncoreImpl.c **** // - Block of 8 bytes for the preset value
1346:.\EncoreImpl.c **** //This block of data (10 bytes) must be moved to another position within the same buffer (even posi
1347:.\EncoreImpl.c **** void PumpFullPresetNoHose(void *pparam)
1348:.\EncoreImpl.c **** {
 5356              		.loc 1 1348 0
ARM GAS  C:\Users\RECEPC~1\AppData\Local\Temp\ccMZb0bC.s 			page 119


 5357              		.cfi_startproc
 5358              		@ args = 0, pretend = 0, frame = 40
 5359              		@ frame_needed = 1, uses_anonymous_args = 0
 5360 0000 90B5     		push	{r4, r7, lr}
 5361              		.cfi_def_cfa_offset 12
 5362              		.cfi_offset 4, -12
 5363              		.cfi_offset 7, -8
 5364              		.cfi_offset 14, -4
 5365 0002 8BB0     		sub	sp, sp, #44
 5366              		.cfi_def_cfa_offset 56
 5367 0004 00AF     		add	r7, sp, #0
 5368              		.cfi_def_cfa_register 7
 5369 0006 7860     		str	r0, [r7, #4]
1349:.\EncoreImpl.c ****     PNEAR_PUMPPTR ppump = (PNEAR_PUMPPTR)pparam;
 5370              		.loc 1 1349 0
 5371 0008 7B68     		ldr	r3, [r7, #4]
 5372 000a 3B62     		str	r3, [r7, #32]
1350:.\EncoreImpl.c ****     if(ppump)
 5373              		.loc 1 1350 0
 5374 000c 3B6A     		ldr	r3, [r7, #32]
 5375 000e 002B     		cmp	r3, #0
 5376 0010 00F02A81 		beq	.L189
 5377              	.LBB36:
1351:.\EncoreImpl.c ****     {
1352:.\EncoreImpl.c ****         uint8_t index = 0;        
 5378              		.loc 1 1352 0
 5379 0014 0023     		movs	r3, #0
 5380 0016 87F82730 		strb	r3, [r7, #39]
1353:.\EncoreImpl.c ****         PUARTMESSAGEPTR puartdisp = GetUARTMessageSlot(UART_DISPENSER);
 5381              		.loc 1 1353 0
 5382 001a A220     		movs	r0, #162
 5383 001c FFF7FEFF 		bl	GetUARTMessageSlot
 5384 0020 F861     		str	r0, [r7, #28]
1354:.\EncoreImpl.c ****         memset(ppump->_rxbuffer, 0x00, _PUMP_RX_BUFFER_SIZE_);
 5385              		.loc 1 1354 0
 5386 0022 3B6A     		ldr	r3, [r7, #32]
 5387 0024 03F5D073 		add	r3, r3, #416
 5388 0028 1846     		mov	r0, r3
 5389 002a 0021     		movs	r1, #0
 5390 002c 4FF4C072 		mov	r2, #384
 5391 0030 FFF7FEFF 		bl	memset
1355:.\EncoreImpl.c ****         if(puartdisp)
 5392              		.loc 1 1355 0
 5393 0034 FB69     		ldr	r3, [r7, #28]
 5394 0036 002B     		cmp	r3, #0
 5395 0038 00F01681 		beq	.L189
1356:.\EncoreImpl.c ****         {
1357:.\EncoreImpl.c ****             //This is required for the "Temination Handler" that will post the preset to the remote
1358:.\EncoreImpl.c ****             ppump->_trasactionbuffer[0x0004] = 0x0F;
 5396              		.loc 1 1358 0
 5397 003c 3B6A     		ldr	r3, [r7, #32]
 5398 003e 0F22     		movs	r2, #15
 5399 0040 83F82420 		strb	r2, [r3, #36]
1359:.\EncoreImpl.c **** ///////////////////////////////////////////////////////////////////////////////////////////////////
1360:.\EncoreImpl.c ****             puartdisp->_messagetx[index++] = SOM;
 5400              		.loc 1 1360 0
 5401 0044 97F82730 		ldrb	r3, [r7, #39]	@ zero_extendqisi2
ARM GAS  C:\Users\RECEPC~1\AppData\Local\Temp\ccMZb0bC.s 			page 120


 5402 0048 5A1C     		adds	r2, r3, #1
 5403 004a 87F82720 		strb	r2, [r7, #39]
 5404 004e 1A46     		mov	r2, r3
 5405 0050 FB69     		ldr	r3, [r7, #28]
 5406 0052 1344     		add	r3, r3, r2
 5407 0054 FF22     		movs	r2, #255
 5408 0056 1A71     		strb	r2, [r3, #4]
1361:.\EncoreImpl.c ****             if(_g_dispenserlayoutinfo._displaydigitsmode == 0x06)
 5409              		.loc 1 1361 0
 5410 0058 854B     		ldr	r3, .L203
 5411 005a 1B7C     		ldrb	r3, [r3, #16]	@ zero_extendqisi2
 5412 005c 062B     		cmp	r3, #6
 5413 005e 6AD1     		bne	.L191
 5414              	.LBB37:
1362:.\EncoreImpl.c ****             {
1363:.\EncoreImpl.c ****                 puartdisp->_messagetx[index++] = 0xE6;
 5415              		.loc 1 1363 0
 5416 0060 97F82730 		ldrb	r3, [r7, #39]	@ zero_extendqisi2
 5417 0064 5A1C     		adds	r2, r3, #1
 5418 0066 87F82720 		strb	r2, [r7, #39]
 5419 006a 1A46     		mov	r2, r3
 5420 006c FB69     		ldr	r3, [r7, #28]
 5421 006e 1344     		add	r3, r3, r2
 5422 0070 E622     		movs	r2, #230
 5423 0072 1A71     		strb	r2, [r3, #4]
1364:.\EncoreImpl.c ****                 
1365:.\EncoreImpl.c ****                 ///THIS IS AN APPLIED CONVENTION ===>> 0x0004 INDEX POSITION WITHIN THE PUMP'S BUFF
1366:.\EncoreImpl.c ****                 ///THESE CODES MUST BE MATCHED OTHERWISE THE LOGIC WILL BREAKUP THE CODE!
1367:.\EncoreImpl.c ****                 uint8 transtype = 0xF1;//preset type (0xF2 = Money, 0xF1 = Volume)
 5424              		.loc 1 1367 0
 5425 0074 F123     		movs	r3, #241
 5426 0076 FB76     		strb	r3, [r7, #27]
1368:.\EncoreImpl.c ****                 puartdisp->_messagetx[index++] = transtype;//preset type (0xF2 = Money, 0xF1 = Volu
 5427              		.loc 1 1368 0
 5428 0078 97F82730 		ldrb	r3, [r7, #39]	@ zero_extendqisi2
 5429 007c 5A1C     		adds	r2, r3, #1
 5430 007e 87F82720 		strb	r2, [r7, #39]
 5431 0082 1A46     		mov	r2, r3
 5432 0084 FB69     		ldr	r3, [r7, #28]
 5433 0086 1344     		add	r3, r3, r2
 5434 0088 FA7E     		ldrb	r2, [r7, #27]
 5435 008a 1A71     		strb	r2, [r3, #4]
1369:.\EncoreImpl.c ****                 
1370:.\EncoreImpl.c ****                 puartdisp->_messagetx[index++] = 0xF8; //Preset Data next
 5436              		.loc 1 1370 0
 5437 008c 97F82730 		ldrb	r3, [r7, #39]	@ zero_extendqisi2
 5438 0090 5A1C     		adds	r2, r3, #1
 5439 0092 87F82720 		strb	r2, [r7, #39]
 5440 0096 1A46     		mov	r2, r3
 5441 0098 FB69     		ldr	r3, [r7, #28]
 5442 009a 1344     		add	r3, r3, r2
 5443 009c F822     		movs	r2, #248
 5444 009e 1A71     		strb	r2, [r3, #4]
1371:.\EncoreImpl.c ****                 //Here we copy the remaining 8 bytes for the preset value
1372:.\EncoreImpl.c ****                 ///THIS IS AN APPLIED CONVENTION ===>> 0x0008 INDEX POSITION WITHIN THE PUMP'S BUFF
1373:.\EncoreImpl.c ****                 ///THESE CODES MUST BE MATCHED OTHERWISE THE LOGIC WILL BREAKUP THE CODE!
1374:.\EncoreImpl.c ****                 char8 *ptr = &ppump->_trasactionbuffer[0x0008];
ARM GAS  C:\Users\RECEPC~1\AppData\Local\Temp\ccMZb0bC.s 			page 121


 5445              		.loc 1 1374 0
 5446 00a0 3B6A     		ldr	r3, [r7, #32]
 5447 00a2 2833     		adds	r3, r3, #40
 5448 00a4 7B61     		str	r3, [r7, #20]
1375:.\EncoreImpl.c ****                 //B78AD90CF552D9B30A(_PUMP_MAXIMUM_PRESET_6_DIGITS_, (LPRAWPTR)ptr);
1376:.\EncoreImpl.c ****                 B78AD90CF552D9B30A(10 * _PUMP_MAXIMUM_PRESET_GALLONS_, (LPRAWPTR)ptr);
 5449              		.loc 1 1376 0
 5450 00a6 41F28830 		movw	r0, #5000
 5451 00aa 4FF00001 		mov	r1, #0
 5452 00ae 7A69     		ldr	r2, [r7, #20]
 5453 00b0 FFF7FEFF 		bl	B78AD90CF552D9B30A
1377:.\EncoreImpl.c **** 
1378:.\EncoreImpl.c ****                 PSTRBUFFTOGG(PBYTECAST(&ppump->_trasactionbuffer[0x0008]), 0x08);
 5454              		.loc 1 1378 0
 5455 00b4 3B6A     		ldr	r3, [r7, #32]
 5456 00b6 2833     		adds	r3, r3, #40
 5457 00b8 1846     		mov	r0, r3
 5458 00ba 0821     		movs	r1, #8
 5459 00bc FFF7FEFF 		bl	PSTRBUFFTOGG
1379:.\EncoreImpl.c ****                 if(transtype == 0xF1) //Volume PRESET, then multiply by 1000
 5460              		.loc 1 1379 0
 5461 00c0 FB7E     		ldrb	r3, [r7, #27]	@ zero_extendqisi2
 5462 00c2 F12B     		cmp	r3, #241
 5463 00c4 04D1     		bne	.L192
1380:.\EncoreImpl.c ****                     CastVolumeValue(ptr, 0x08);
 5464              		.loc 1 1380 0
 5465 00c6 7869     		ldr	r0, [r7, #20]
 5466 00c8 0821     		movs	r1, #8
 5467 00ca FFF7FEFF 		bl	CastVolumeValue
 5468 00ce 0BE0     		b	.L193
 5469              	.L192:
1381:.\EncoreImpl.c ****                 else if(!(_g_dispenserlayoutinfo._moneydecimals == 0x03 && _g_dispenserlayoutinfo._
 5470              		.loc 1 1381 0
 5471 00d0 674B     		ldr	r3, .L203
 5472 00d2 DB79     		ldrb	r3, [r3, #7]	@ zero_extendqisi2
 5473 00d4 032B     		cmp	r3, #3
 5474 00d6 03D1     		bne	.L194
 5475              		.loc 1 1381 0 is_stmt 0 discriminator 1
 5476 00d8 654B     		ldr	r3, .L203
 5477 00da 1B7A     		ldrb	r3, [r3, #8]	@ zero_extendqisi2
 5478 00dc 022B     		cmp	r3, #2
 5479 00de 03D0     		beq	.L193
 5480              	.L194:
1382:.\EncoreImpl.c ****                     CastMoneyValue(ptr, 0x08);
 5481              		.loc 1 1382 0 is_stmt 1
 5482 00e0 7869     		ldr	r0, [r7, #20]
 5483 00e2 0821     		movs	r1, #8
 5484 00e4 FFF7FEFF 		bl	CastMoneyValue
 5485              	.L193:
1383:.\EncoreImpl.c **** 
1384:.\EncoreImpl.c ****                 FOR(uint8 buffndx = 0, buffndx < 0x06, buffndx++)
 5486              		.loc 1 1384 0
 5487 00e8 0023     		movs	r3, #0
 5488 00ea 87F82630 		strb	r3, [r7, #38]
 5489 00ee 1DE0     		b	.L195
 5490              	.L196:
1385:.\EncoreImpl.c ****                     puartdisp->_messagetx[index++] = (0xE0 | (ptr[7 - buffndx] & 0x0F)); //Translat
ARM GAS  C:\Users\RECEPC~1\AppData\Local\Temp\ccMZb0bC.s 			page 122


 5491              		.loc 1 1385 0 discriminator 3
 5492 00f0 97F82730 		ldrb	r3, [r7, #39]	@ zero_extendqisi2
 5493 00f4 5A1C     		adds	r2, r3, #1
 5494 00f6 87F82720 		strb	r2, [r7, #39]
 5495 00fa 1946     		mov	r1, r3
 5496 00fc 97F82630 		ldrb	r3, [r7, #38]	@ zero_extendqisi2
 5497 0100 C3F10703 		rsb	r3, r3, #7
 5498 0104 1A46     		mov	r2, r3
 5499 0106 7B69     		ldr	r3, [r7, #20]
 5500 0108 1344     		add	r3, r3, r2
 5501 010a 1B78     		ldrb	r3, [r3]	@ zero_extendqisi2
 5502 010c DBB2     		uxtb	r3, r3
 5503 010e 03F00F03 		and	r3, r3, #15
 5504 0112 DBB2     		uxtb	r3, r3
 5505 0114 63F01F03 		orn	r3, r3, #31
 5506 0118 DBB2     		uxtb	r3, r3
 5507 011a DAB2     		uxtb	r2, r3
 5508 011c FB69     		ldr	r3, [r7, #28]
 5509 011e 0B44     		add	r3, r3, r1
 5510 0120 1A71     		strb	r2, [r3, #4]
1384:.\EncoreImpl.c ****                     puartdisp->_messagetx[index++] = (0xE0 | (ptr[7 - buffndx] & 0x0F)); //Translat
 5511              		.loc 1 1384 0 discriminator 3
 5512 0122 97F82630 		ldrb	r3, [r7, #38]	@ zero_extendqisi2
 5513 0126 0133     		adds	r3, r3, #1
 5514 0128 87F82630 		strb	r3, [r7, #38]
 5515              	.L195:
1384:.\EncoreImpl.c ****                     puartdisp->_messagetx[index++] = (0xE0 | (ptr[7 - buffndx] & 0x0F)); //Translat
 5516              		.loc 1 1384 0 is_stmt 0 discriminator 1
 5517 012c 97F82630 		ldrb	r3, [r7, #38]	@ zero_extendqisi2
 5518 0130 052B     		cmp	r3, #5
 5519 0132 DDD9     		bls	.L196
 5520              	.LBE37:
 5521 0134 69E0     		b	.L197
 5522              	.L191:
 5523              	.LBB38:
1386:.\EncoreImpl.c ****                     
1387:.\EncoreImpl.c ****             }
1388:.\EncoreImpl.c ****             else
1389:.\EncoreImpl.c ****             {
1390:.\EncoreImpl.c ****                 puartdisp->_messagetx[index++] = 0xE3;
 5524              		.loc 1 1390 0 is_stmt 1
 5525 0136 97F82730 		ldrb	r3, [r7, #39]	@ zero_extendqisi2
 5526 013a 5A1C     		adds	r2, r3, #1
 5527 013c 87F82720 		strb	r2, [r7, #39]
 5528 0140 1A46     		mov	r2, r3
 5529 0142 FB69     		ldr	r3, [r7, #28]
 5530 0144 1344     		add	r3, r3, r2
 5531 0146 E322     		movs	r2, #227
 5532 0148 1A71     		strb	r2, [r3, #4]
1391:.\EncoreImpl.c ****                 
1392:.\EncoreImpl.c ****                 ///THIS IS AN APPLIED CONVENTION ===>> 0x0004 INDEX POSITION WITHIN THE PUMP'S BUFF
1393:.\EncoreImpl.c ****                 ///THESE CODES MUST BE MATCHED OTHERWISE THE LOGIC WILL BREAKUP THE CODE!
1394:.\EncoreImpl.c ****                 uint8 transtype = 0xF1;//preset type (0xF2 = Money, 0xF1 = Volume)
 5533              		.loc 1 1394 0
 5534 014a F123     		movs	r3, #241
 5535 014c FB74     		strb	r3, [r7, #19]
1395:.\EncoreImpl.c ****                 puartdisp->_messagetx[index++] = 0xF1;//preset type (0xF2 = Money, 0xF1 = Volume)
ARM GAS  C:\Users\RECEPC~1\AppData\Local\Temp\ccMZb0bC.s 			page 123


 5536              		.loc 1 1395 0
 5537 014e 97F82730 		ldrb	r3, [r7, #39]	@ zero_extendqisi2
 5538 0152 5A1C     		adds	r2, r3, #1
 5539 0154 87F82720 		strb	r2, [r7, #39]
 5540 0158 1A46     		mov	r2, r3
 5541 015a FB69     		ldr	r3, [r7, #28]
 5542 015c 1344     		add	r3, r3, r2
 5543 015e F122     		movs	r2, #241
 5544 0160 1A71     		strb	r2, [r3, #4]
1396:.\EncoreImpl.c ****                 
1397:.\EncoreImpl.c ****                 puartdisp->_messagetx[index++] = 0xF8; //Preset Data next
 5545              		.loc 1 1397 0
 5546 0162 97F82730 		ldrb	r3, [r7, #39]	@ zero_extendqisi2
 5547 0166 5A1C     		adds	r2, r3, #1
 5548 0168 87F82720 		strb	r2, [r7, #39]
 5549 016c 1A46     		mov	r2, r3
 5550 016e FB69     		ldr	r3, [r7, #28]
 5551 0170 1344     		add	r3, r3, r2
 5552 0172 F822     		movs	r2, #248
 5553 0174 1A71     		strb	r2, [r3, #4]
1398:.\EncoreImpl.c ****                 //Here we copy the remaining 8 bytes for the preset value
1399:.\EncoreImpl.c ****                 ///THIS IS AN APPLIED CONVENTION ===>> 0x0008 INDEX POSITION WITHIN THE PUMP'S BUFF
1400:.\EncoreImpl.c ****                 ///THESE CODES MUST BE MATCHED OTHERWISE THE LOGIC WILL BREAKUP THE CODE!
1401:.\EncoreImpl.c ****                 char8 *ptr = &ppump->_trasactionbuffer[0x0008];
 5554              		.loc 1 1401 0
 5555 0176 3B6A     		ldr	r3, [r7, #32]
 5556 0178 2833     		adds	r3, r3, #40
 5557 017a FB60     		str	r3, [r7, #12]
1402:.\EncoreImpl.c ****                 //B78AD90CF552D9B30A(_PUMP_MAXIMUM_PRESET_6_DIGITS_, (LPRAWPTR)ptr);
1403:.\EncoreImpl.c ****                 B78AD90CF552D9B30A(_PUMP_MAXIMUM_PRESET_GALLONS_, (LPRAWPTR)ptr);
 5558              		.loc 1 1403 0
 5559 017c 4FF4FA70 		mov	r0, #500
 5560 0180 4FF00001 		mov	r1, #0
 5561 0184 FA68     		ldr	r2, [r7, #12]
 5562 0186 FFF7FEFF 		bl	B78AD90CF552D9B30A
1404:.\EncoreImpl.c **** 
1405:.\EncoreImpl.c ****                 PSTRBUFFTOGG(PBYTECAST(&ppump->_trasactionbuffer[0x0008]), 0x08);
 5563              		.loc 1 1405 0
 5564 018a 3B6A     		ldr	r3, [r7, #32]
 5565 018c 2833     		adds	r3, r3, #40
 5566 018e 1846     		mov	r0, r3
 5567 0190 0821     		movs	r1, #8
 5568 0192 FFF7FEFF 		bl	PSTRBUFFTOGG
1406:.\EncoreImpl.c ****                 if(transtype == 0xF1) //Volume PRESET, then multiply by 1000
 5569              		.loc 1 1406 0
 5570 0196 FB7C     		ldrb	r3, [r7, #19]	@ zero_extendqisi2
 5571 0198 F12B     		cmp	r3, #241
 5572 019a 04D1     		bne	.L198
1407:.\EncoreImpl.c ****                     CastVolumeValue(ptr, 0x08);
 5573              		.loc 1 1407 0
 5574 019c F868     		ldr	r0, [r7, #12]
 5575 019e 0821     		movs	r1, #8
 5576 01a0 FFF7FEFF 		bl	CastVolumeValue
 5577 01a4 0BE0     		b	.L199
 5578              	.L198:
1408:.\EncoreImpl.c ****                 else if(!(_g_dispenserlayoutinfo._moneydecimals == 0x03 && _g_dispenserlayoutinfo._
 5579              		.loc 1 1408 0
ARM GAS  C:\Users\RECEPC~1\AppData\Local\Temp\ccMZb0bC.s 			page 124


 5580 01a6 324B     		ldr	r3, .L203
 5581 01a8 DB79     		ldrb	r3, [r3, #7]	@ zero_extendqisi2
 5582 01aa 032B     		cmp	r3, #3
 5583 01ac 03D1     		bne	.L200
 5584              		.loc 1 1408 0 is_stmt 0 discriminator 1
 5585 01ae 304B     		ldr	r3, .L203
 5586 01b0 1B7A     		ldrb	r3, [r3, #8]	@ zero_extendqisi2
 5587 01b2 022B     		cmp	r3, #2
 5588 01b4 03D0     		beq	.L199
 5589              	.L200:
1409:.\EncoreImpl.c ****                     CastMoneyValue(ptr, 0x08);
 5590              		.loc 1 1409 0 is_stmt 1
 5591 01b6 F868     		ldr	r0, [r7, #12]
 5592 01b8 0821     		movs	r1, #8
 5593 01ba FFF7FEFF 		bl	CastMoneyValue
 5594              	.L199:
1410:.\EncoreImpl.c **** 
1411:.\EncoreImpl.c ****                 FOR(uint8 buffndx = 0, buffndx < 0x08, buffndx++)
 5595              		.loc 1 1411 0
 5596 01be 0023     		movs	r3, #0
 5597 01c0 87F82530 		strb	r3, [r7, #37]
 5598 01c4 1DE0     		b	.L201
 5599              	.L202:
1412:.\EncoreImpl.c ****                     puartdisp->_messagetx[index++] = (0xE0 | (ptr[7 - buffndx] & 0x0F)); //Translat
 5600              		.loc 1 1412 0 discriminator 3
 5601 01c6 97F82730 		ldrb	r3, [r7, #39]	@ zero_extendqisi2
 5602 01ca 5A1C     		adds	r2, r3, #1
 5603 01cc 87F82720 		strb	r2, [r7, #39]
 5604 01d0 1946     		mov	r1, r3
 5605 01d2 97F82530 		ldrb	r3, [r7, #37]	@ zero_extendqisi2
 5606 01d6 C3F10703 		rsb	r3, r3, #7
 5607 01da 1A46     		mov	r2, r3
 5608 01dc FB68     		ldr	r3, [r7, #12]
 5609 01de 1344     		add	r3, r3, r2
 5610 01e0 1B78     		ldrb	r3, [r3]	@ zero_extendqisi2
 5611 01e2 DBB2     		uxtb	r3, r3
 5612 01e4 03F00F03 		and	r3, r3, #15
 5613 01e8 DBB2     		uxtb	r3, r3
 5614 01ea 63F01F03 		orn	r3, r3, #31
 5615 01ee DBB2     		uxtb	r3, r3
 5616 01f0 DAB2     		uxtb	r2, r3
 5617 01f2 FB69     		ldr	r3, [r7, #28]
 5618 01f4 0B44     		add	r3, r3, r1
 5619 01f6 1A71     		strb	r2, [r3, #4]
1411:.\EncoreImpl.c ****                     puartdisp->_messagetx[index++] = (0xE0 | (ptr[7 - buffndx] & 0x0F)); //Translat
 5620              		.loc 1 1411 0 discriminator 3
 5621 01f8 97F82530 		ldrb	r3, [r7, #37]	@ zero_extendqisi2
 5622 01fc 0133     		adds	r3, r3, #1
 5623 01fe 87F82530 		strb	r3, [r7, #37]
 5624              	.L201:
1411:.\EncoreImpl.c ****                     puartdisp->_messagetx[index++] = (0xE0 | (ptr[7 - buffndx] & 0x0F)); //Translat
 5625              		.loc 1 1411 0 is_stmt 0 discriminator 1
 5626 0202 97F82530 		ldrb	r3, [r7, #37]	@ zero_extendqisi2
 5627 0206 072B     		cmp	r3, #7
 5628 0208 DDD9     		bls	.L202
 5629              	.L197:
 5630              	.LBE38:
ARM GAS  C:\Users\RECEPC~1\AppData\Local\Temp\ccMZb0bC.s 			page 125


1413:.\EncoreImpl.c ****             }
1414:.\EncoreImpl.c ****             ppump->_presetdone = true;
 5631              		.loc 1 1414 0 is_stmt 1
 5632 020a 3B6A     		ldr	r3, [r7, #32]
 5633 020c 0122     		movs	r2, #1
 5634 020e 1A72     		strb	r2, [r3, #8]
1415:.\EncoreImpl.c ****             puartdisp->_messagetx[index++] = 0xFB; //LRC next
 5635              		.loc 1 1415 0
 5636 0210 97F82730 		ldrb	r3, [r7, #39]	@ zero_extendqisi2
 5637 0214 5A1C     		adds	r2, r3, #1
 5638 0216 87F82720 		strb	r2, [r7, #39]
 5639 021a 1A46     		mov	r2, r3
 5640 021c FB69     		ldr	r3, [r7, #28]
 5641 021e 1344     		add	r3, r3, r2
 5642 0220 FB22     		movs	r2, #251
 5643 0222 1A71     		strb	r2, [r3, #4]
1416:.\EncoreImpl.c ****             puartdisp->_messagetx[index++] = GetLRC(puartdisp->_messagetx);
 5644              		.loc 1 1416 0
 5645 0224 97F82730 		ldrb	r3, [r7, #39]	@ zero_extendqisi2
 5646 0228 5A1C     		adds	r2, r3, #1
 5647 022a 87F82720 		strb	r2, [r7, #39]
 5648 022e 1C46     		mov	r4, r3
 5649 0230 FB69     		ldr	r3, [r7, #28]
 5650 0232 0433     		adds	r3, r3, #4
 5651 0234 1846     		mov	r0, r3
 5652 0236 FFF7FEFF 		bl	GetLRC
 5653 023a 0346     		mov	r3, r0
 5654 023c 1A46     		mov	r2, r3
 5655 023e FB69     		ldr	r3, [r7, #28]
 5656 0240 2344     		add	r3, r3, r4
 5657 0242 1A71     		strb	r2, [r3, #4]
1417:.\EncoreImpl.c ****             puartdisp->_messagetx[index++] = EOM;
 5658              		.loc 1 1417 0
 5659 0244 97F82730 		ldrb	r3, [r7, #39]	@ zero_extendqisi2
 5660 0248 5A1C     		adds	r2, r3, #1
 5661 024a 87F82720 		strb	r2, [r7, #39]
 5662 024e 1A46     		mov	r2, r3
 5663 0250 FB69     		ldr	r3, [r7, #28]
 5664 0252 1344     		add	r3, r3, r2
 5665 0254 F022     		movs	r2, #240
 5666 0256 1A71     		strb	r2, [r3, #4]
1418:.\EncoreImpl.c **** ///////////////////////////////////////////////////////////////////////////////////////////////////
1419:.\EncoreImpl.c ****             
1420:.\EncoreImpl.c ****             puartdisp->_messagelength = index;
 5667              		.loc 1 1420 0
 5668 0258 97F82730 		ldrb	r3, [r7, #39]	@ zero_extendqisi2
 5669 025c 9AB2     		uxth	r2, r3
 5670 025e FB69     		ldr	r3, [r7, #28]
 5671 0260 5A80     		strh	r2, [r3, #2]	@ movhi
1421:.\EncoreImpl.c ****             puartdisp->_messagestate = PENDING;
 5672              		.loc 1 1421 0
 5673 0262 FB69     		ldr	r3, [r7, #28]
 5674 0264 C222     		movs	r2, #194
 5675 0266 1A70     		strb	r2, [r3]
 5676              	.L189:
 5677              	.LBE36:
1422:.\EncoreImpl.c ****         }
ARM GAS  C:\Users\RECEPC~1\AppData\Local\Temp\ccMZb0bC.s 			page 126


1423:.\EncoreImpl.c ****     }
1424:.\EncoreImpl.c ****     
1425:.\EncoreImpl.c **** }
 5678              		.loc 1 1425 0
 5679 0268 2C37     		adds	r7, r7, #44
 5680              		.cfi_def_cfa_offset 12
 5681 026a BD46     		mov	sp, r7
 5682              		.cfi_def_cfa_register 13
 5683              		@ sp needed
 5684 026c 90BD     		pop	{r4, r7, pc}
 5685              	.L204:
 5686 026e 00BF     		.align	2
 5687              	.L203:
 5688 0270 00000000 		.word	_g_dispenserlayoutinfo
 5689              		.cfi_endproc
 5690              	.LFE84:
 5691              		.size	PumpFullPresetNoHose, .-PumpFullPresetNoHose
 5692              		.section	.text.PumpPpuChange,"ax",%progbits
 5693              		.align	2
 5694              		.global	PumpPpuChange
 5695              		.thumb
 5696              		.thumb_func
 5697              		.type	PumpPpuChange, %function
 5698              	PumpPpuChange:
 5699              	.LFB85:
1426:.\EncoreImpl.c **** 
1427:.\EncoreImpl.c **** //@Created By: HIJH
1428:.\EncoreImpl.c **** //@Septembre de 2016
1429:.\EncoreImpl.c **** ///////////////////////////////////////////////////////////////////////////////////////////////////
1430:.\EncoreImpl.c **** //PPU value will be placed within the SinkMessage's buffer. This is a convention that applies to 
1431:.\EncoreImpl.c **** //all of the available transactions. The pump function must deal with this while it is assembling t
1432:.\EncoreImpl.c **** //For this message the data comes as follows:
1433:.\EncoreImpl.c **** // - First byte is the Hose (A:0, B:1, C:2, D:3)
1434:.\EncoreImpl.c **** // - Block of 6 bytes for the PPU value
1435:.\EncoreImpl.c **** //This block of data (6 bytes) must be moved to another position within the same buffer (even posit
1436:.\EncoreImpl.c **** void PumpPpuChange(void *pparam)
1437:.\EncoreImpl.c **** {
 5700              		.loc 1 1437 0
 5701              		.cfi_startproc
 5702              		@ args = 0, pretend = 0, frame = 32
 5703              		@ frame_needed = 1, uses_anonymous_args = 0
 5704 0000 B0B5     		push	{r4, r5, r7, lr}
 5705              		.cfi_def_cfa_offset 16
 5706              		.cfi_offset 4, -16
 5707              		.cfi_offset 5, -12
 5708              		.cfi_offset 7, -8
 5709              		.cfi_offset 14, -4
 5710 0002 88B0     		sub	sp, sp, #32
 5711              		.cfi_def_cfa_offset 48
 5712 0004 00AF     		add	r7, sp, #0
 5713              		.cfi_def_cfa_register 7
 5714 0006 7860     		str	r0, [r7, #4]
1438:.\EncoreImpl.c ****     PNEAR_PUMPPTR ppump = (PNEAR_PUMPPTR)pparam;
 5715              		.loc 1 1438 0
 5716 0008 7B68     		ldr	r3, [r7, #4]
 5717 000a BB61     		str	r3, [r7, #24]
1439:.\EncoreImpl.c ****     if(ppump)
ARM GAS  C:\Users\RECEPC~1\AppData\Local\Temp\ccMZb0bC.s 			page 127


 5718              		.loc 1 1439 0
 5719 000c BB69     		ldr	r3, [r7, #24]
 5720 000e 002B     		cmp	r3, #0
 5721 0010 00F05281 		beq	.L205
 5722              	.LBB39:
1440:.\EncoreImpl.c ****     {
1441:.\EncoreImpl.c ****         uint8_t index = 0;  
 5723              		.loc 1 1441 0
 5724 0014 0023     		movs	r3, #0
 5725 0016 FB77     		strb	r3, [r7, #31]
1442:.\EncoreImpl.c ****         memset(ppump->_rxbuffer, 0x00, _PUMP_RX_BUFFER_SIZE_);
 5726              		.loc 1 1442 0
 5727 0018 BB69     		ldr	r3, [r7, #24]
 5728 001a 03F5D073 		add	r3, r3, #416
 5729 001e 1846     		mov	r0, r3
 5730 0020 0021     		movs	r1, #0
 5731 0022 4FF4C072 		mov	r2, #384
 5732 0026 FFF7FEFF 		bl	memset
1443:.\EncoreImpl.c ****         PUARTMESSAGEPTR puartdisp = GetUARTMessageSlot(UART_DISPENSER);
 5733              		.loc 1 1443 0
 5734 002a A220     		movs	r0, #162
 5735 002c FFF7FEFF 		bl	GetUARTMessageSlot
 5736 0030 7861     		str	r0, [r7, #20]
1444:.\EncoreImpl.c ****         if(puartdisp)
 5737              		.loc 1 1444 0
 5738 0032 7B69     		ldr	r3, [r7, #20]
 5739 0034 002B     		cmp	r3, #0
 5740 0036 00F03F81 		beq	.L205
 5741              	.LBB40:
1445:.\EncoreImpl.c ****         {
1446:.\EncoreImpl.c **** ///////////////////////////////////////////////////////////////////////////////////////////////////
1447:.\EncoreImpl.c ****             puartdisp->_messagetx[index++] = SOM;
 5742              		.loc 1 1447 0
 5743 003a FB7F     		ldrb	r3, [r7, #31]	@ zero_extendqisi2
 5744 003c 5A1C     		adds	r2, r3, #1
 5745 003e FA77     		strb	r2, [r7, #31]
 5746 0040 1A46     		mov	r2, r3
 5747 0042 7B69     		ldr	r3, [r7, #20]
 5748 0044 1344     		add	r3, r3, r2
 5749 0046 FF22     		movs	r2, #255
 5750 0048 1A71     		strb	r2, [r3, #4]
1448:.\EncoreImpl.c ****             if(_g_dispenserlayoutinfo._displaydigitsmode == 0x06)
 5751              		.loc 1 1448 0
 5752 004a 9D4B     		ldr	r3, .L221
 5753 004c 1B7C     		ldrb	r3, [r3, #16]	@ zero_extendqisi2
 5754 004e 062B     		cmp	r3, #6
 5755 0050 08D1     		bne	.L207
1449:.\EncoreImpl.c ****                 puartdisp->_messagetx[index++] = 0xE5;//Standard Price Data
 5756              		.loc 1 1449 0
 5757 0052 FB7F     		ldrb	r3, [r7, #31]	@ zero_extendqisi2
 5758 0054 5A1C     		adds	r2, r3, #1
 5759 0056 FA77     		strb	r2, [r7, #31]
 5760 0058 1A46     		mov	r2, r3
 5761 005a 7B69     		ldr	r3, [r7, #20]
 5762 005c 1344     		add	r3, r3, r2
 5763 005e E522     		movs	r2, #229
 5764 0060 1A71     		strb	r2, [r3, #4]
ARM GAS  C:\Users\RECEPC~1\AppData\Local\Temp\ccMZb0bC.s 			page 128


 5765 0062 07E0     		b	.L208
 5766              	.L207:
1450:.\EncoreImpl.c ****             else
1451:.\EncoreImpl.c ****                 puartdisp->_messagetx[index++] = 0xE3;//Long Price Data - Extended Two-Wire Mode
 5767              		.loc 1 1451 0
 5768 0064 FB7F     		ldrb	r3, [r7, #31]	@ zero_extendqisi2
 5769 0066 5A1C     		adds	r2, r3, #1
 5770 0068 FA77     		strb	r2, [r7, #31]
 5771 006a 1A46     		mov	r2, r3
 5772 006c 7B69     		ldr	r3, [r7, #20]
 5773 006e 1344     		add	r3, r3, r2
 5774 0070 E322     		movs	r2, #227
 5775 0072 1A71     		strb	r2, [r3, #4]
 5776              	.L208:
1452:.\EncoreImpl.c ****                 
1453:.\EncoreImpl.c ****             puartdisp->_messagetx[index++] = 0xF4;
 5777              		.loc 1 1453 0
 5778 0074 FB7F     		ldrb	r3, [r7, #31]	@ zero_extendqisi2
 5779 0076 5A1C     		adds	r2, r3, #1
 5780 0078 FA77     		strb	r2, [r7, #31]
 5781 007a 1A46     		mov	r2, r3
 5782 007c 7B69     		ldr	r3, [r7, #20]
 5783 007e 1344     		add	r3, r3, r2
 5784 0080 F422     		movs	r2, #244
 5785 0082 1A71     		strb	r2, [r3, #4]
1454:.\EncoreImpl.c ****             puartdisp->_messagetx[index++] = 0xF6; //Hose Data next
 5786              		.loc 1 1454 0
 5787 0084 FB7F     		ldrb	r3, [r7, #31]	@ zero_extendqisi2
 5788 0086 5A1C     		adds	r2, r3, #1
 5789 0088 FA77     		strb	r2, [r7, #31]
 5790 008a 1A46     		mov	r2, r3
 5791 008c 7B69     		ldr	r3, [r7, #20]
 5792 008e 1344     		add	r3, r3, r2
 5793 0090 F622     		movs	r2, #246
 5794 0092 1A71     		strb	r2, [r3, #4]
1455:.\EncoreImpl.c ****             ///THIS IS AN APPLIED CONVENTION ===>> 0x0006 INDEX POSITION WITHIN THE PUMP'S BUFFER P
1456:.\EncoreImpl.c ****             ///THESE CODES MUST BE MATCHED OTHERWISE THE LOGIC WILL BREAKUP THE CODE!
1457:.\EncoreImpl.c ****             puartdisp->_messagetx[index++] = (0xE0 | (0x0F & ppump->_currenthose));
 5795              		.loc 1 1457 0
 5796 0094 FB7F     		ldrb	r3, [r7, #31]	@ zero_extendqisi2
 5797 0096 5A1C     		adds	r2, r3, #1
 5798 0098 FA77     		strb	r2, [r7, #31]
 5799 009a 1946     		mov	r1, r3
 5800 009c BB69     		ldr	r3, [r7, #24]
 5801 009e DB78     		ldrb	r3, [r3, #3]
 5802 00a0 DBB2     		uxtb	r3, r3
 5803 00a2 03F00F03 		and	r3, r3, #15
 5804 00a6 DBB2     		uxtb	r3, r3
 5805 00a8 63F01F03 		orn	r3, r3, #31
 5806 00ac DAB2     		uxtb	r2, r3
 5807 00ae 7B69     		ldr	r3, [r7, #20]
 5808 00b0 0B44     		add	r3, r3, r1
 5809 00b2 1A71     		strb	r2, [r3, #4]
1458:.\EncoreImpl.c ****             
1459:.\EncoreImpl.c ****             I2CBusLock();
 5810              		.loc 1 1459 0
 5811 00b4 FFF7FEFF 		bl	I2CBusLock
ARM GAS  C:\Users\RECEPC~1\AppData\Local\Temp\ccMZb0bC.s 			page 129


1460:.\EncoreImpl.c ****             ClearEepromBuffer();
 5812              		.loc 1 1460 0
 5813 00b8 FFF7FEFF 		bl	ClearEepromBuffer
1461:.\EncoreImpl.c ****             uint16 eeprompage = DispenserGetEepromPPUPageFromPumpID(ppump->_pumpid);
 5814              		.loc 1 1461 0
 5815 00bc BB69     		ldr	r3, [r7, #24]
 5816 00be 1B78     		ldrb	r3, [r3]	@ zero_extendqisi2
 5817 00c0 1846     		mov	r0, r3
 5818 00c2 FFF7FEFF 		bl	DispenserGetEepromPPUPageFromPumpID
 5819 00c6 0346     		mov	r3, r0
 5820 00c8 7B82     		strh	r3, [r7, #18]	@ movhi
1462:.\EncoreImpl.c ****             LoadEepromPage(eeprompage);
 5821              		.loc 1 1462 0
 5822 00ca 7B8A     		ldrh	r3, [r7, #18]
 5823 00cc 1846     		mov	r0, r3
 5824 00ce FFF7FEFF 		bl	LoadEepromPage
1463:.\EncoreImpl.c ****             switch(ppump->_currenthose)
 5825              		.loc 1 1463 0
 5826 00d2 BB69     		ldr	r3, [r7, #24]
 5827 00d4 DB78     		ldrb	r3, [r3, #3]
 5828 00d6 DBB2     		uxtb	r3, r3
 5829 00d8 032B     		cmp	r3, #3
 5830 00da 61D8     		bhi	.L209
 5831 00dc 01A2     		adr	r2, .L211
 5832 00de 52F823F0 		ldr	pc, [r2, r3, lsl #2]
 5833 00e2 00BF     		.p2align 2
 5834              	.L211:
 5835 00e4 F5000000 		.word	.L210+1
 5836 00e8 1D010000 		.word	.L212+1
 5837 00ec 49010000 		.word	.L213+1
 5838 00f0 75010000 		.word	.L214+1
 5839              		.p2align 1
 5840              	.L210:
1464:.\EncoreImpl.c ****             {
1465:.\EncoreImpl.c ****                 case 0x00:
1466:.\EncoreImpl.c ****                 //Six bytes only since the PPU is constrained to this length
1467:.\EncoreImpl.c ****                 memcpy(PBYTECAST(&ppump->_trasactionbuffer[GetBufferIndexFromDisplayID(DISPLAY_PREC
 5841              		.loc 1 1467 0
 5842 00f4 6520     		movs	r0, #101
 5843 00f6 FFF7FEFF 		bl	GetBufferIndexFromDisplayID
 5844 00fa 0346     		mov	r3, r0
 5845 00fc 2033     		adds	r3, r3, #32
 5846 00fe BA69     		ldr	r2, [r7, #24]
 5847 0100 D418     		adds	r4, r2, r3
 5848 0102 FFF7FEFF 		bl	GetEepromBuffer
 5849 0106 0546     		mov	r5, r0
 5850 0108 6520     		movs	r0, #101
 5851 010a FFF7FEFF 		bl	GetBufferLengthFromDisplayID
 5852 010e 0346     		mov	r3, r0
 5853 0110 2046     		mov	r0, r4
 5854 0112 2946     		mov	r1, r5
 5855 0114 1A46     		mov	r2, r3
 5856 0116 FFF7FEFF 		bl	memcpy
1468:.\EncoreImpl.c ****                 break;
 5857              		.loc 1 1468 0
 5858 011a 41E0     		b	.L209
 5859              	.L212:
ARM GAS  C:\Users\RECEPC~1\AppData\Local\Temp\ccMZb0bC.s 			page 130


1469:.\EncoreImpl.c ****                 case 0x01:
1470:.\EncoreImpl.c ****                 //Six bytes only since the PPU is constrained to this length
1471:.\EncoreImpl.c ****                 memcpy(PBYTECAST(&ppump->_trasactionbuffer[GetBufferIndexFromDisplayID(DISPLAY_PREC
 5860              		.loc 1 1471 0
 5861 011c 6520     		movs	r0, #101
 5862 011e FFF7FEFF 		bl	GetBufferIndexFromDisplayID
 5863 0122 0346     		mov	r3, r0
 5864 0124 2033     		adds	r3, r3, #32
 5865 0126 BA69     		ldr	r2, [r7, #24]
 5866 0128 D518     		adds	r5, r2, r3
 5867 012a FFF7FEFF 		bl	GetEepromBuffer
 5868 012e 0346     		mov	r3, r0
 5869 0130 03F11004 		add	r4, r3, #16
 5870 0134 6520     		movs	r0, #101
 5871 0136 FFF7FEFF 		bl	GetBufferLengthFromDisplayID
 5872 013a 0346     		mov	r3, r0
 5873 013c 2846     		mov	r0, r5
 5874 013e 2146     		mov	r1, r4
 5875 0140 1A46     		mov	r2, r3
 5876 0142 FFF7FEFF 		bl	memcpy
1472:.\EncoreImpl.c ****                 break;
 5877              		.loc 1 1472 0
 5878 0146 2BE0     		b	.L209
 5879              	.L213:
1473:.\EncoreImpl.c ****                 case 0x02:
1474:.\EncoreImpl.c ****                 //Six bytes only since the PPU is constrained to this length
1475:.\EncoreImpl.c ****                 memcpy(PBYTECAST(&ppump->_trasactionbuffer[GetBufferIndexFromDisplayID(DISPLAY_PREC
 5880              		.loc 1 1475 0
 5881 0148 6520     		movs	r0, #101
 5882 014a FFF7FEFF 		bl	GetBufferIndexFromDisplayID
 5883 014e 0346     		mov	r3, r0
 5884 0150 2033     		adds	r3, r3, #32
 5885 0152 BA69     		ldr	r2, [r7, #24]
 5886 0154 D518     		adds	r5, r2, r3
 5887 0156 FFF7FEFF 		bl	GetEepromBuffer
 5888 015a 0346     		mov	r3, r0
 5889 015c 03F12004 		add	r4, r3, #32
 5890 0160 6520     		movs	r0, #101
 5891 0162 FFF7FEFF 		bl	GetBufferLengthFromDisplayID
 5892 0166 0346     		mov	r3, r0
 5893 0168 2846     		mov	r0, r5
 5894 016a 2146     		mov	r1, r4
 5895 016c 1A46     		mov	r2, r3
 5896 016e FFF7FEFF 		bl	memcpy
1476:.\EncoreImpl.c ****                 break;
 5897              		.loc 1 1476 0
 5898 0172 15E0     		b	.L209
 5899              	.L214:
1477:.\EncoreImpl.c ****                 case 0x03:
1478:.\EncoreImpl.c ****                 //Six bytes only since the PPU is constrained to this length
1479:.\EncoreImpl.c ****                 memcpy(PBYTECAST(&ppump->_trasactionbuffer[GetBufferIndexFromDisplayID(DISPLAY_PREC
 5900              		.loc 1 1479 0
 5901 0174 6520     		movs	r0, #101
 5902 0176 FFF7FEFF 		bl	GetBufferIndexFromDisplayID
 5903 017a 0346     		mov	r3, r0
 5904 017c 2033     		adds	r3, r3, #32
 5905 017e BA69     		ldr	r2, [r7, #24]
ARM GAS  C:\Users\RECEPC~1\AppData\Local\Temp\ccMZb0bC.s 			page 131


 5906 0180 D518     		adds	r5, r2, r3
 5907 0182 FFF7FEFF 		bl	GetEepromBuffer
 5908 0186 0346     		mov	r3, r0
 5909 0188 03F13004 		add	r4, r3, #48
 5910 018c 6520     		movs	r0, #101
 5911 018e FFF7FEFF 		bl	GetBufferLengthFromDisplayID
 5912 0192 0346     		mov	r3, r0
 5913 0194 2846     		mov	r0, r5
 5914 0196 2146     		mov	r1, r4
 5915 0198 1A46     		mov	r2, r3
 5916 019a FFF7FEFF 		bl	memcpy
1480:.\EncoreImpl.c ****                 break;
 5917              		.loc 1 1480 0
 5918 019e 00BF     		nop
 5919              	.L209:
1481:.\EncoreImpl.c ****             }
1482:.\EncoreImpl.c ****             I2CBusUnlock();
 5920              		.loc 1 1482 0
 5921 01a0 FFF7FEFF 		bl	I2CBusUnlock
1483:.\EncoreImpl.c **** 
1484:.\EncoreImpl.c ****             puartdisp->_messagetx[index++] = 0xF7; //PPU Data next            
 5922              		.loc 1 1484 0
 5923 01a4 FB7F     		ldrb	r3, [r7, #31]	@ zero_extendqisi2
 5924 01a6 5A1C     		adds	r2, r3, #1
 5925 01a8 FA77     		strb	r2, [r7, #31]
 5926 01aa 1A46     		mov	r2, r3
 5927 01ac 7B69     		ldr	r3, [r7, #20]
 5928 01ae 1344     		add	r3, r3, r2
 5929 01b0 F722     		movs	r2, #247
 5930 01b2 1A71     		strb	r2, [r3, #4]
1485:.\EncoreImpl.c ****             //Here we copy the remaining 6 bytes for the preset value
1486:.\EncoreImpl.c ****             ///THIS IS AN APPLIED CONVENTION ===>> 0x0008 INDEX POSITION WITHIN THE PUMP'S BUFFER P
1487:.\EncoreImpl.c ****             ///THESE CODES MUST BE MATCHED OTHERWISE THE LOGIC WILL BREAKUP THE CODE!
1488:.\EncoreImpl.c ****             uint8 bufferlength = GetBufferLengthFromDisplayID(DISPLAY_PRECIO_POR_UNIDAD);
 5931              		.loc 1 1488 0
 5932 01b4 6520     		movs	r0, #101
 5933 01b6 FFF7FEFF 		bl	GetBufferLengthFromDisplayID
 5934 01ba 0346     		mov	r3, r0
 5935 01bc 7B74     		strb	r3, [r7, #17]
1489:.\EncoreImpl.c ****             char8 *ptr = &ppump->_trasactionbuffer[GetBufferIndexFromDisplayID(DISPLAY_PRECIO_POR_U
 5936              		.loc 1 1489 0
 5937 01be 6520     		movs	r0, #101
 5938 01c0 FFF7FEFF 		bl	GetBufferIndexFromDisplayID
 5939 01c4 0346     		mov	r3, r0
 5940 01c6 2033     		adds	r3, r3, #32
 5941 01c8 BA69     		ldr	r2, [r7, #24]
 5942 01ca 1344     		add	r3, r3, r2
 5943 01cc FB60     		str	r3, [r7, #12]
1490:.\EncoreImpl.c ****             
1491:.\EncoreImpl.c ****             if(_g_dispenserlayoutinfo._displaydigitsmode == 0x06)
 5944              		.loc 1 1491 0
 5945 01ce 3C4B     		ldr	r3, .L221
 5946 01d0 1B7C     		ldrb	r3, [r3, #16]	@ zero_extendqisi2
 5947 01d2 062B     		cmp	r3, #6
 5948 01d4 1AD1     		bne	.L215
 5949              	.LBB41:
1492:.\EncoreImpl.c ****             {
ARM GAS  C:\Users\RECEPC~1\AppData\Local\Temp\ccMZb0bC.s 			page 132


1493:.\EncoreImpl.c ****                 FOR(uint8 buffndx = 0, buffndx < 4, buffndx++)//Standard Price Data
 5950              		.loc 1 1493 0
 5951 01d6 0023     		movs	r3, #0
 5952 01d8 BB77     		strb	r3, [r7, #30]
 5953 01da 13E0     		b	.L216
 5954              	.L217:
1494:.\EncoreImpl.c ****                     puartdisp->_messagetx[index++] = (0xE0 | (0x0F & ptr[buffndx])); //Translate fr
 5955              		.loc 1 1494 0 discriminator 3
 5956 01dc FB7F     		ldrb	r3, [r7, #31]	@ zero_extendqisi2
 5957 01de 5A1C     		adds	r2, r3, #1
 5958 01e0 FA77     		strb	r2, [r7, #31]
 5959 01e2 1946     		mov	r1, r3
 5960 01e4 BB7F     		ldrb	r3, [r7, #30]	@ zero_extendqisi2
 5961 01e6 FA68     		ldr	r2, [r7, #12]
 5962 01e8 1344     		add	r3, r3, r2
 5963 01ea 1B78     		ldrb	r3, [r3]	@ zero_extendqisi2
 5964 01ec 03F00F03 		and	r3, r3, #15
 5965 01f0 DBB2     		uxtb	r3, r3
 5966 01f2 63F01F03 		orn	r3, r3, #31
 5967 01f6 DAB2     		uxtb	r2, r3
 5968 01f8 7B69     		ldr	r3, [r7, #20]
 5969 01fa 0B44     		add	r3, r3, r1
 5970 01fc 1A71     		strb	r2, [r3, #4]
1493:.\EncoreImpl.c ****                     puartdisp->_messagetx[index++] = (0xE0 | (0x0F & ptr[buffndx])); //Translate fr
 5971              		.loc 1 1493 0 discriminator 3
 5972 01fe BB7F     		ldrb	r3, [r7, #30]	@ zero_extendqisi2
 5973 0200 0133     		adds	r3, r3, #1
 5974 0202 BB77     		strb	r3, [r7, #30]
 5975              	.L216:
1493:.\EncoreImpl.c ****                     puartdisp->_messagetx[index++] = (0xE0 | (0x0F & ptr[buffndx])); //Translate fr
 5976              		.loc 1 1493 0 is_stmt 0 discriminator 1
 5977 0204 BB7F     		ldrb	r3, [r7, #30]	@ zero_extendqisi2
 5978 0206 032B     		cmp	r3, #3
 5979 0208 E8D9     		bls	.L217
 5980              	.LBE41:
 5981 020a 19E0     		b	.L218
 5982              	.L215:
 5983              	.LBB42:
1495:.\EncoreImpl.c ****             }
1496:.\EncoreImpl.c ****             else
1497:.\EncoreImpl.c ****             {
1498:.\EncoreImpl.c ****                 FOR(uint8 buffndx = 0, buffndx < 6, buffndx++)//Long Price Data - Extended Two-Wire
 5984              		.loc 1 1498 0 is_stmt 1
 5985 020c 0023     		movs	r3, #0
 5986 020e 7B77     		strb	r3, [r7, #29]
 5987 0210 13E0     		b	.L219
 5988              	.L220:
1499:.\EncoreImpl.c ****                     puartdisp->_messagetx[index++] = (0xE0 | (0x0F & ptr[buffndx])); //Translate fr
 5989              		.loc 1 1499 0 discriminator 3
 5990 0212 FB7F     		ldrb	r3, [r7, #31]	@ zero_extendqisi2
 5991 0214 5A1C     		adds	r2, r3, #1
 5992 0216 FA77     		strb	r2, [r7, #31]
 5993 0218 1946     		mov	r1, r3
 5994 021a 7B7F     		ldrb	r3, [r7, #29]	@ zero_extendqisi2
 5995 021c FA68     		ldr	r2, [r7, #12]
 5996 021e 1344     		add	r3, r3, r2
 5997 0220 1B78     		ldrb	r3, [r3]	@ zero_extendqisi2
ARM GAS  C:\Users\RECEPC~1\AppData\Local\Temp\ccMZb0bC.s 			page 133


 5998 0222 03F00F03 		and	r3, r3, #15
 5999 0226 DBB2     		uxtb	r3, r3
 6000 0228 63F01F03 		orn	r3, r3, #31
 6001 022c DAB2     		uxtb	r2, r3
 6002 022e 7B69     		ldr	r3, [r7, #20]
 6003 0230 0B44     		add	r3, r3, r1
 6004 0232 1A71     		strb	r2, [r3, #4]
1498:.\EncoreImpl.c ****                     puartdisp->_messagetx[index++] = (0xE0 | (0x0F & ptr[buffndx])); //Translate fr
 6005              		.loc 1 1498 0 discriminator 3
 6006 0234 7B7F     		ldrb	r3, [r7, #29]	@ zero_extendqisi2
 6007 0236 0133     		adds	r3, r3, #1
 6008 0238 7B77     		strb	r3, [r7, #29]
 6009              	.L219:
1498:.\EncoreImpl.c ****                     puartdisp->_messagetx[index++] = (0xE0 | (0x0F & ptr[buffndx])); //Translate fr
 6010              		.loc 1 1498 0 is_stmt 0 discriminator 1
 6011 023a 7B7F     		ldrb	r3, [r7, #29]	@ zero_extendqisi2
 6012 023c 052B     		cmp	r3, #5
 6013 023e E8D9     		bls	.L220
 6014              	.L218:
 6015              	.LBE42:
1500:.\EncoreImpl.c ****             }
1501:.\EncoreImpl.c **** 
1502:.\EncoreImpl.c ****             memset(&ppump->_trasactionbuffer[GetBufferIndexFromDisplayID(DISPLAY_PRECIO_POR_UNIDAD)
 6016              		.loc 1 1502 0 is_stmt 1
 6017 0240 6520     		movs	r0, #101
 6018 0242 FFF7FEFF 		bl	GetBufferIndexFromDisplayID
 6019 0246 0346     		mov	r3, r0
 6020 0248 2033     		adds	r3, r3, #32
 6021 024a BA69     		ldr	r2, [r7, #24]
 6022 024c D418     		adds	r4, r2, r3
 6023 024e 6520     		movs	r0, #101
 6024 0250 FFF7FEFF 		bl	GetBufferLengthFromDisplayID
 6025 0254 0346     		mov	r3, r0
 6026 0256 2046     		mov	r0, r4
 6027 0258 0021     		movs	r1, #0
 6028 025a 1A46     		mov	r2, r3
 6029 025c FFF7FEFF 		bl	memset
1503:.\EncoreImpl.c ****             puartdisp->_messagetx[index++] = 0xFB; //LRC next
 6030              		.loc 1 1503 0
 6031 0260 FB7F     		ldrb	r3, [r7, #31]	@ zero_extendqisi2
 6032 0262 5A1C     		adds	r2, r3, #1
 6033 0264 FA77     		strb	r2, [r7, #31]
 6034 0266 1A46     		mov	r2, r3
 6035 0268 7B69     		ldr	r3, [r7, #20]
 6036 026a 1344     		add	r3, r3, r2
 6037 026c FB22     		movs	r2, #251
 6038 026e 1A71     		strb	r2, [r3, #4]
1504:.\EncoreImpl.c ****             puartdisp->_messagetx[index++] = GetLRC(puartdisp->_messagetx);
 6039              		.loc 1 1504 0
 6040 0270 FB7F     		ldrb	r3, [r7, #31]	@ zero_extendqisi2
 6041 0272 5A1C     		adds	r2, r3, #1
 6042 0274 FA77     		strb	r2, [r7, #31]
 6043 0276 1C46     		mov	r4, r3
 6044 0278 7B69     		ldr	r3, [r7, #20]
 6045 027a 0433     		adds	r3, r3, #4
 6046 027c 1846     		mov	r0, r3
 6047 027e FFF7FEFF 		bl	GetLRC
ARM GAS  C:\Users\RECEPC~1\AppData\Local\Temp\ccMZb0bC.s 			page 134


 6048 0282 0346     		mov	r3, r0
 6049 0284 1A46     		mov	r2, r3
 6050 0286 7B69     		ldr	r3, [r7, #20]
 6051 0288 2344     		add	r3, r3, r4
 6052 028a 1A71     		strb	r2, [r3, #4]
1505:.\EncoreImpl.c ****             puartdisp->_messagetx[index++] = EOM;
 6053              		.loc 1 1505 0
 6054 028c FB7F     		ldrb	r3, [r7, #31]	@ zero_extendqisi2
 6055 028e 5A1C     		adds	r2, r3, #1
 6056 0290 FA77     		strb	r2, [r7, #31]
 6057 0292 1A46     		mov	r2, r3
 6058 0294 7B69     		ldr	r3, [r7, #20]
 6059 0296 1344     		add	r3, r3, r2
 6060 0298 F022     		movs	r2, #240
 6061 029a 1A71     		strb	r2, [r3, #4]
1506:.\EncoreImpl.c **** ///////////////////////////////////////////////////////////////////////////////////////////////////
1507:.\EncoreImpl.c ****             
1508:.\EncoreImpl.c ****             puartdisp->_messagelength = index;
 6062              		.loc 1 1508 0
 6063 029c FB7F     		ldrb	r3, [r7, #31]	@ zero_extendqisi2
 6064 029e 9AB2     		uxth	r2, r3
 6065 02a0 7B69     		ldr	r3, [r7, #20]
 6066 02a2 5A80     		strh	r2, [r3, #2]	@ movhi
1509:.\EncoreImpl.c ****             puartdisp->_messagestate = PENDING;
 6067              		.loc 1 1509 0
 6068 02a4 7B69     		ldr	r3, [r7, #20]
 6069 02a6 C222     		movs	r2, #194
 6070 02a8 1A70     		strb	r2, [r3]
1510:.\EncoreImpl.c ****             
1511:.\EncoreImpl.c ****             ppump->_currenthose++;
 6071              		.loc 1 1511 0
 6072 02aa BB69     		ldr	r3, [r7, #24]
 6073 02ac DB78     		ldrb	r3, [r3, #3]
 6074 02ae DBB2     		uxtb	r3, r3
 6075 02b0 0133     		adds	r3, r3, #1
 6076 02b2 DAB2     		uxtb	r2, r3
 6077 02b4 BB69     		ldr	r3, [r7, #24]
 6078 02b6 DA70     		strb	r2, [r3, #3]
 6079              	.L205:
 6080              	.LBE40:
 6081              	.LBE39:
1512:.\EncoreImpl.c ****         }
1513:.\EncoreImpl.c ****     }    
1514:.\EncoreImpl.c **** }
 6082              		.loc 1 1514 0
 6083 02b8 2037     		adds	r7, r7, #32
 6084              		.cfi_def_cfa_offset 16
 6085 02ba BD46     		mov	sp, r7
 6086              		.cfi_def_cfa_register 13
 6087              		@ sp needed
 6088 02bc B0BD     		pop	{r4, r5, r7, pc}
 6089              	.L222:
 6090 02be 00BF     		.align	2
 6091              	.L221:
 6092 02c0 00000000 		.word	_g_dispenserlayoutinfo
 6093              		.cfi_endproc
 6094              	.LFE85:
ARM GAS  C:\Users\RECEPC~1\AppData\Local\Temp\ccMZb0bC.s 			page 135


 6095              		.size	PumpPpuChange, .-PumpPpuChange
 6096              		.section	.text.PumpDefault2CreditPpuChange,"ax",%progbits
 6097              		.align	2
 6098              		.global	PumpDefault2CreditPpuChange
 6099              		.thumb
 6100              		.thumb_func
 6101              		.type	PumpDefault2CreditPpuChange, %function
 6102              	PumpDefault2CreditPpuChange:
 6103              	.LFB86:
1515:.\EncoreImpl.c **** 
1516:.\EncoreImpl.c **** void PumpDefault2CreditPpuChange(void *pparam)
1517:.\EncoreImpl.c **** {
 6104              		.loc 1 1517 0
 6105              		.cfi_startproc
 6106              		@ args = 0, pretend = 0, frame = 24
 6107              		@ frame_needed = 1, uses_anonymous_args = 0
 6108 0000 90B5     		push	{r4, r7, lr}
 6109              		.cfi_def_cfa_offset 12
 6110              		.cfi_offset 4, -12
 6111              		.cfi_offset 7, -8
 6112              		.cfi_offset 14, -4
 6113 0002 87B0     		sub	sp, sp, #28
 6114              		.cfi_def_cfa_offset 40
 6115 0004 00AF     		add	r7, sp, #0
 6116              		.cfi_def_cfa_register 7
 6117 0006 7860     		str	r0, [r7, #4]
1518:.\EncoreImpl.c ****     PNEAR_PUMPPTR ppump = (PNEAR_PUMPPTR)pparam;
 6118              		.loc 1 1518 0
 6119 0008 7B68     		ldr	r3, [r7, #4]
 6120 000a 3B61     		str	r3, [r7, #16]
1519:.\EncoreImpl.c ****     if(ppump)
 6121              		.loc 1 1519 0
 6122 000c 3B69     		ldr	r3, [r7, #16]
 6123 000e 002B     		cmp	r3, #0
 6124 0010 00F0C980 		beq	.L223
 6125              	.LBB43:
1520:.\EncoreImpl.c ****     {
1521:.\EncoreImpl.c ****         uint8_t index = 0;  
 6126              		.loc 1 1521 0
 6127 0014 0023     		movs	r3, #0
 6128 0016 FB75     		strb	r3, [r7, #23]
1522:.\EncoreImpl.c ****         memset(ppump->_rxbuffer, 0x00, _PUMP_RX_BUFFER_SIZE_);
 6129              		.loc 1 1522 0
 6130 0018 3B69     		ldr	r3, [r7, #16]
 6131 001a 03F5D073 		add	r3, r3, #416
 6132 001e 1846     		mov	r0, r3
 6133 0020 0021     		movs	r1, #0
 6134 0022 4FF4C072 		mov	r2, #384
 6135 0026 FFF7FEFF 		bl	memset
1523:.\EncoreImpl.c ****         PUARTMESSAGEPTR puartdisp = GetUARTMessageSlot(UART_DISPENSER);
 6136              		.loc 1 1523 0
 6137 002a A220     		movs	r0, #162
 6138 002c FFF7FEFF 		bl	GetUARTMessageSlot
 6139 0030 F860     		str	r0, [r7, #12]
1524:.\EncoreImpl.c ****         if(puartdisp)
 6140              		.loc 1 1524 0
 6141 0032 FB68     		ldr	r3, [r7, #12]
ARM GAS  C:\Users\RECEPC~1\AppData\Local\Temp\ccMZb0bC.s 			page 136


 6142 0034 002B     		cmp	r3, #0
 6143 0036 00F0B680 		beq	.L223
 6144              	.LBB44:
1525:.\EncoreImpl.c ****         {
1526:.\EncoreImpl.c **** ///////////////////////////////////////////////////////////////////////////////////////////////////
1527:.\EncoreImpl.c ****             puartdisp->_messagetx[index++] = SOM;
 6145              		.loc 1 1527 0
 6146 003a FB7D     		ldrb	r3, [r7, #23]	@ zero_extendqisi2
 6147 003c 5A1C     		adds	r2, r3, #1
 6148 003e FA75     		strb	r2, [r7, #23]
 6149 0040 1A46     		mov	r2, r3
 6150 0042 FB68     		ldr	r3, [r7, #12]
 6151 0044 1344     		add	r3, r3, r2
 6152 0046 FF22     		movs	r2, #255
 6153 0048 1A71     		strb	r2, [r3, #4]
1528:.\EncoreImpl.c ****             if(_g_dispenserlayoutinfo._displaydigitsmode == 0x06)
 6154              		.loc 1 1528 0
 6155 004a 584B     		ldr	r3, .L233
 6156 004c 1B7C     		ldrb	r3, [r3, #16]	@ zero_extendqisi2
 6157 004e 062B     		cmp	r3, #6
 6158 0050 08D1     		bne	.L225
1529:.\EncoreImpl.c ****                 puartdisp->_messagetx[index++] = 0xE5;//Standard Price Data
 6159              		.loc 1 1529 0
 6160 0052 FB7D     		ldrb	r3, [r7, #23]	@ zero_extendqisi2
 6161 0054 5A1C     		adds	r2, r3, #1
 6162 0056 FA75     		strb	r2, [r7, #23]
 6163 0058 1A46     		mov	r2, r3
 6164 005a FB68     		ldr	r3, [r7, #12]
 6165 005c 1344     		add	r3, r3, r2
 6166 005e E522     		movs	r2, #229
 6167 0060 1A71     		strb	r2, [r3, #4]
 6168 0062 07E0     		b	.L226
 6169              	.L225:
1530:.\EncoreImpl.c ****             else
1531:.\EncoreImpl.c ****                 puartdisp->_messagetx[index++] = 0xE3;//Long Price Data - Extended Two-Wire Mode
 6170              		.loc 1 1531 0
 6171 0064 FB7D     		ldrb	r3, [r7, #23]	@ zero_extendqisi2
 6172 0066 5A1C     		adds	r2, r3, #1
 6173 0068 FA75     		strb	r2, [r7, #23]
 6174 006a 1A46     		mov	r2, r3
 6175 006c FB68     		ldr	r3, [r7, #12]
 6176 006e 1344     		add	r3, r3, r2
 6177 0070 E322     		movs	r2, #227
 6178 0072 1A71     		strb	r2, [r3, #4]
 6179              	.L226:
1532:.\EncoreImpl.c ****             
1533:.\EncoreImpl.c ****             puartdisp->_messagetx[index++] = 0xF4;
 6180              		.loc 1 1533 0
 6181 0074 FB7D     		ldrb	r3, [r7, #23]	@ zero_extendqisi2
 6182 0076 5A1C     		adds	r2, r3, #1
 6183 0078 FA75     		strb	r2, [r7, #23]
 6184 007a 1A46     		mov	r2, r3
 6185 007c FB68     		ldr	r3, [r7, #12]
 6186 007e 1344     		add	r3, r3, r2
 6187 0080 F422     		movs	r2, #244
 6188 0082 1A71     		strb	r2, [r3, #4]
1534:.\EncoreImpl.c ****             puartdisp->_messagetx[index++] = 0xF6; //Hose Data next
ARM GAS  C:\Users\RECEPC~1\AppData\Local\Temp\ccMZb0bC.s 			page 137


 6189              		.loc 1 1534 0
 6190 0084 FB7D     		ldrb	r3, [r7, #23]	@ zero_extendqisi2
 6191 0086 5A1C     		adds	r2, r3, #1
 6192 0088 FA75     		strb	r2, [r7, #23]
 6193 008a 1A46     		mov	r2, r3
 6194 008c FB68     		ldr	r3, [r7, #12]
 6195 008e 1344     		add	r3, r3, r2
 6196 0090 F622     		movs	r2, #246
 6197 0092 1A71     		strb	r2, [r3, #4]
1535:.\EncoreImpl.c ****             ///THIS IS AN APPLIED CONVENTION ===>> 0x0006 INDEX POSITION WITHIN THE PUMP'S BUFFER P
1536:.\EncoreImpl.c ****             ///THESE CODES MUST BE MATCHED OTHERWISE THE LOGIC WILL BREAKUP THE CODE!
1537:.\EncoreImpl.c ****             puartdisp->_messagetx[index++] = (0xE0 | ppump->_authorizationinfo._hoseid);
 6198              		.loc 1 1537 0
 6199 0094 FB7D     		ldrb	r3, [r7, #23]	@ zero_extendqisi2
 6200 0096 5A1C     		adds	r2, r3, #1
 6201 0098 FA75     		strb	r2, [r7, #23]
 6202 009a 1946     		mov	r1, r3
 6203 009c 3B69     		ldr	r3, [r7, #16]
 6204 009e 93F8AA3B 		ldrb	r3, [r3, #2986]
 6205 00a2 DBB2     		uxtb	r3, r3
 6206 00a4 63F01F03 		orn	r3, r3, #31
 6207 00a8 DAB2     		uxtb	r2, r3
 6208 00aa FB68     		ldr	r3, [r7, #12]
 6209 00ac 0B44     		add	r3, r3, r1
 6210 00ae 1A71     		strb	r2, [r3, #4]
1538:.\EncoreImpl.c ****             
1539:.\EncoreImpl.c ****             puartdisp->_messagetx[index++] = 0xF7; //PPU Data next            
 6211              		.loc 1 1539 0
 6212 00b0 FB7D     		ldrb	r3, [r7, #23]	@ zero_extendqisi2
 6213 00b2 5A1C     		adds	r2, r3, #1
 6214 00b4 FA75     		strb	r2, [r7, #23]
 6215 00b6 1A46     		mov	r2, r3
 6216 00b8 FB68     		ldr	r3, [r7, #12]
 6217 00ba 1344     		add	r3, r3, r2
 6218 00bc F722     		movs	r2, #247
 6219 00be 1A71     		strb	r2, [r3, #4]
1540:.\EncoreImpl.c ****             //Here we copy the remaining 6 bytes for the preset value
1541:.\EncoreImpl.c ****             ///THIS IS AN APPLIED CONVENTION ===>> 0x0008 INDEX POSITION WITHIN THE PUMP'S BUFFER P
1542:.\EncoreImpl.c ****             ///THESE CODES MUST BE MATCHED OTHERWISE THE LOGIC WILL BREAKUP THE CODE!
1543:.\EncoreImpl.c ****             B78AD90CF552D9B30A(ppump->_authorizationinfo._price, PBYTECAST(&ppump->_trasactionbuffe
 6220              		.loc 1 1543 0
 6221 00c0 3B69     		ldr	r3, [r7, #16]
 6222 00c2 B3F8AC3B 		ldrh	r3, [r3, #2988]	@ movhi
 6223 00c6 9BB2     		uxth	r3, r3
 6224 00c8 9AB2     		uxth	r2, r3
 6225 00ca 4FF00003 		mov	r3, #0
 6226 00ce 3969     		ldr	r1, [r7, #16]
 6227 00d0 01F12804 		add	r4, r1, #40
 6228 00d4 1046     		mov	r0, r2
 6229 00d6 1946     		mov	r1, r3
 6230 00d8 2246     		mov	r2, r4
 6231 00da FFF7FEFF 		bl	B78AD90CF552D9B30A
1544:.\EncoreImpl.c ****             char8 *ptr = &ppump->_trasactionbuffer[0x0008];
 6232              		.loc 1 1544 0
 6233 00de 3B69     		ldr	r3, [r7, #16]
 6234 00e0 2833     		adds	r3, r3, #40
 6235 00e2 BB60     		str	r3, [r7, #8]
ARM GAS  C:\Users\RECEPC~1\AppData\Local\Temp\ccMZb0bC.s 			page 138


1545:.\EncoreImpl.c ****             
1546:.\EncoreImpl.c ****             if(_g_dispenserlayoutinfo._displaydigitsmode == 0x06)
 6236              		.loc 1 1546 0
 6237 00e4 314B     		ldr	r3, .L233
 6238 00e6 1B7C     		ldrb	r3, [r3, #16]	@ zero_extendqisi2
 6239 00e8 062B     		cmp	r3, #6
 6240 00ea 1AD1     		bne	.L227
 6241              	.LBB45:
1547:.\EncoreImpl.c ****             {
1548:.\EncoreImpl.c ****                 FOR(uint8 buffndx = 0, buffndx < 4, buffndx++)//Standard Price Data
 6242              		.loc 1 1548 0
 6243 00ec 0023     		movs	r3, #0
 6244 00ee BB75     		strb	r3, [r7, #22]
 6245 00f0 13E0     		b	.L228
 6246              	.L229:
1549:.\EncoreImpl.c ****                     puartdisp->_messagetx[index++] = (0xE0 | (0x0F & ptr[buffndx])); //Translate fr
 6247              		.loc 1 1549 0 discriminator 3
 6248 00f2 FB7D     		ldrb	r3, [r7, #23]	@ zero_extendqisi2
 6249 00f4 5A1C     		adds	r2, r3, #1
 6250 00f6 FA75     		strb	r2, [r7, #23]
 6251 00f8 1946     		mov	r1, r3
 6252 00fa BB7D     		ldrb	r3, [r7, #22]	@ zero_extendqisi2
 6253 00fc BA68     		ldr	r2, [r7, #8]
 6254 00fe 1344     		add	r3, r3, r2
 6255 0100 1B78     		ldrb	r3, [r3]	@ zero_extendqisi2
 6256 0102 03F00F03 		and	r3, r3, #15
 6257 0106 DBB2     		uxtb	r3, r3
 6258 0108 63F01F03 		orn	r3, r3, #31
 6259 010c DAB2     		uxtb	r2, r3
 6260 010e FB68     		ldr	r3, [r7, #12]
 6261 0110 0B44     		add	r3, r3, r1
 6262 0112 1A71     		strb	r2, [r3, #4]
1548:.\EncoreImpl.c ****                     puartdisp->_messagetx[index++] = (0xE0 | (0x0F & ptr[buffndx])); //Translate fr
 6263              		.loc 1 1548 0 discriminator 3
 6264 0114 BB7D     		ldrb	r3, [r7, #22]	@ zero_extendqisi2
 6265 0116 0133     		adds	r3, r3, #1
 6266 0118 BB75     		strb	r3, [r7, #22]
 6267              	.L228:
1548:.\EncoreImpl.c ****                     puartdisp->_messagetx[index++] = (0xE0 | (0x0F & ptr[buffndx])); //Translate fr
 6268              		.loc 1 1548 0 is_stmt 0 discriminator 1
 6269 011a BB7D     		ldrb	r3, [r7, #22]	@ zero_extendqisi2
 6270 011c 032B     		cmp	r3, #3
 6271 011e E8D9     		bls	.L229
 6272              	.LBE45:
 6273 0120 19E0     		b	.L230
 6274              	.L227:
 6275              	.LBB46:
1550:.\EncoreImpl.c ****             }
1551:.\EncoreImpl.c ****             else
1552:.\EncoreImpl.c ****             {
1553:.\EncoreImpl.c ****                 FOR(uint8 buffndx = 0, buffndx < 6, buffndx++)//Long Price Data - Extended Two-Wire
 6276              		.loc 1 1553 0 is_stmt 1
 6277 0122 0023     		movs	r3, #0
 6278 0124 7B75     		strb	r3, [r7, #21]
 6279 0126 13E0     		b	.L231
 6280              	.L232:
1554:.\EncoreImpl.c ****                     puartdisp->_messagetx[index++] = (0xE0 | (0x0F & ptr[buffndx])); //Translate fr
ARM GAS  C:\Users\RECEPC~1\AppData\Local\Temp\ccMZb0bC.s 			page 139


 6281              		.loc 1 1554 0 discriminator 3
 6282 0128 FB7D     		ldrb	r3, [r7, #23]	@ zero_extendqisi2
 6283 012a 5A1C     		adds	r2, r3, #1
 6284 012c FA75     		strb	r2, [r7, #23]
 6285 012e 1946     		mov	r1, r3
 6286 0130 7B7D     		ldrb	r3, [r7, #21]	@ zero_extendqisi2
 6287 0132 BA68     		ldr	r2, [r7, #8]
 6288 0134 1344     		add	r3, r3, r2
 6289 0136 1B78     		ldrb	r3, [r3]	@ zero_extendqisi2
 6290 0138 03F00F03 		and	r3, r3, #15
 6291 013c DBB2     		uxtb	r3, r3
 6292 013e 63F01F03 		orn	r3, r3, #31
 6293 0142 DAB2     		uxtb	r2, r3
 6294 0144 FB68     		ldr	r3, [r7, #12]
 6295 0146 0B44     		add	r3, r3, r1
 6296 0148 1A71     		strb	r2, [r3, #4]
1553:.\EncoreImpl.c ****                     puartdisp->_messagetx[index++] = (0xE0 | (0x0F & ptr[buffndx])); //Translate fr
 6297              		.loc 1 1553 0 discriminator 3
 6298 014a 7B7D     		ldrb	r3, [r7, #21]	@ zero_extendqisi2
 6299 014c 0133     		adds	r3, r3, #1
 6300 014e 7B75     		strb	r3, [r7, #21]
 6301              	.L231:
1553:.\EncoreImpl.c ****                     puartdisp->_messagetx[index++] = (0xE0 | (0x0F & ptr[buffndx])); //Translate fr
 6302              		.loc 1 1553 0 is_stmt 0 discriminator 1
 6303 0150 7B7D     		ldrb	r3, [r7, #21]	@ zero_extendqisi2
 6304 0152 052B     		cmp	r3, #5
 6305 0154 E8D9     		bls	.L232
 6306              	.L230:
 6307              	.LBE46:
1555:.\EncoreImpl.c ****             }
1556:.\EncoreImpl.c ****             
1557:.\EncoreImpl.c ****             puartdisp->_messagetx[index++] = 0xFB; //LRC next
 6308              		.loc 1 1557 0 is_stmt 1
 6309 0156 FB7D     		ldrb	r3, [r7, #23]	@ zero_extendqisi2
 6310 0158 5A1C     		adds	r2, r3, #1
 6311 015a FA75     		strb	r2, [r7, #23]
 6312 015c 1A46     		mov	r2, r3
 6313 015e FB68     		ldr	r3, [r7, #12]
 6314 0160 1344     		add	r3, r3, r2
 6315 0162 FB22     		movs	r2, #251
 6316 0164 1A71     		strb	r2, [r3, #4]
1558:.\EncoreImpl.c ****             puartdisp->_messagetx[index++] = GetLRC(puartdisp->_messagetx);
 6317              		.loc 1 1558 0
 6318 0166 FB7D     		ldrb	r3, [r7, #23]	@ zero_extendqisi2
 6319 0168 5A1C     		adds	r2, r3, #1
 6320 016a FA75     		strb	r2, [r7, #23]
 6321 016c 1C46     		mov	r4, r3
 6322 016e FB68     		ldr	r3, [r7, #12]
 6323 0170 0433     		adds	r3, r3, #4
 6324 0172 1846     		mov	r0, r3
 6325 0174 FFF7FEFF 		bl	GetLRC
 6326 0178 0346     		mov	r3, r0
 6327 017a 1A46     		mov	r2, r3
 6328 017c FB68     		ldr	r3, [r7, #12]
 6329 017e 2344     		add	r3, r3, r4
 6330 0180 1A71     		strb	r2, [r3, #4]
1559:.\EncoreImpl.c ****             puartdisp->_messagetx[index++] = EOM;
ARM GAS  C:\Users\RECEPC~1\AppData\Local\Temp\ccMZb0bC.s 			page 140


 6331              		.loc 1 1559 0
 6332 0182 FB7D     		ldrb	r3, [r7, #23]	@ zero_extendqisi2
 6333 0184 5A1C     		adds	r2, r3, #1
 6334 0186 FA75     		strb	r2, [r7, #23]
 6335 0188 1A46     		mov	r2, r3
 6336 018a FB68     		ldr	r3, [r7, #12]
 6337 018c 1344     		add	r3, r3, r2
 6338 018e F022     		movs	r2, #240
 6339 0190 1A71     		strb	r2, [r3, #4]
1560:.\EncoreImpl.c **** ///////////////////////////////////////////////////////////////////////////////////////////////////
1561:.\EncoreImpl.c ****             
1562:.\EncoreImpl.c ****             puartdisp->_messagelength = index;
 6340              		.loc 1 1562 0
 6341 0192 FB7D     		ldrb	r3, [r7, #23]	@ zero_extendqisi2
 6342 0194 9AB2     		uxth	r2, r3
 6343 0196 FB68     		ldr	r3, [r7, #12]
 6344 0198 5A80     		strh	r2, [r3, #2]	@ movhi
1563:.\EncoreImpl.c ****             puartdisp->_messagestate = PENDING;
 6345              		.loc 1 1563 0
 6346 019a FB68     		ldr	r3, [r7, #12]
 6347 019c C222     		movs	r2, #194
 6348 019e 1A70     		strb	r2, [r3]
1564:.\EncoreImpl.c ****             
1565:.\EncoreImpl.c ****             //This marker flag is set to notify the transactional engine about the price restore re
1566:.\EncoreImpl.c ****             ppump->_restoreprice = true;
 6349              		.loc 1 1566 0
 6350 01a0 3B69     		ldr	r3, [r7, #16]
 6351 01a2 0122     		movs	r2, #1
 6352 01a4 DA71     		strb	r2, [r3, #7]
 6353              	.L223:
 6354              	.LBE44:
 6355              	.LBE43:
1567:.\EncoreImpl.c ****         }
1568:.\EncoreImpl.c ****     }    
1569:.\EncoreImpl.c **** }
 6356              		.loc 1 1569 0
 6357 01a6 1C37     		adds	r7, r7, #28
 6358              		.cfi_def_cfa_offset 12
 6359 01a8 BD46     		mov	sp, r7
 6360              		.cfi_def_cfa_register 13
 6361              		@ sp needed
 6362 01aa 90BD     		pop	{r4, r7, pc}
 6363              	.L234:
 6364              		.align	2
 6365              	.L233:
 6366 01ac 00000000 		.word	_g_dispenserlayoutinfo
 6367              		.cfi_endproc
 6368              	.LFE86:
 6369              		.size	PumpDefault2CreditPpuChange, .-PumpDefault2CreditPpuChange
 6370              		.section	.text.PumpCredit2DefaultPpuChange,"ax",%progbits
 6371              		.align	2
 6372              		.global	PumpCredit2DefaultPpuChange
 6373              		.thumb
 6374              		.thumb_func
 6375              		.type	PumpCredit2DefaultPpuChange, %function
 6376              	PumpCredit2DefaultPpuChange:
 6377              	.LFB87:
ARM GAS  C:\Users\RECEPC~1\AppData\Local\Temp\ccMZb0bC.s 			page 141


1570:.\EncoreImpl.c **** 
1571:.\EncoreImpl.c **** void PumpCredit2DefaultPpuChange(void *pparam)
1572:.\EncoreImpl.c **** {
 6378              		.loc 1 1572 0
 6379              		.cfi_startproc
 6380              		@ args = 0, pretend = 0, frame = 32
 6381              		@ frame_needed = 1, uses_anonymous_args = 0
 6382 0000 90B5     		push	{r4, r7, lr}
 6383              		.cfi_def_cfa_offset 12
 6384              		.cfi_offset 4, -12
 6385              		.cfi_offset 7, -8
 6386              		.cfi_offset 14, -4
 6387 0002 89B0     		sub	sp, sp, #36
 6388              		.cfi_def_cfa_offset 48
 6389 0004 00AF     		add	r7, sp, #0
 6390              		.cfi_def_cfa_register 7
 6391 0006 7860     		str	r0, [r7, #4]
1573:.\EncoreImpl.c ****     PNEAR_PUMPPTR ppump = (PNEAR_PUMPPTR)pparam;
 6392              		.loc 1 1573 0
 6393 0008 7B68     		ldr	r3, [r7, #4]
 6394 000a BB61     		str	r3, [r7, #24]
1574:.\EncoreImpl.c ****     if(ppump)
 6395              		.loc 1 1574 0
 6396 000c BB69     		ldr	r3, [r7, #24]
 6397 000e 002B     		cmp	r3, #0
 6398 0010 00F00F81 		beq	.L235
 6399              	.LBB47:
1575:.\EncoreImpl.c ****     {
1576:.\EncoreImpl.c ****         uint8_t index = 0;  
 6400              		.loc 1 1576 0
 6401 0014 0023     		movs	r3, #0
 6402 0016 FB77     		strb	r3, [r7, #31]
1577:.\EncoreImpl.c ****         memset(ppump->_rxbuffer, 0x00, _PUMP_RX_BUFFER_SIZE_);
 6403              		.loc 1 1577 0
 6404 0018 BB69     		ldr	r3, [r7, #24]
 6405 001a 03F5D073 		add	r3, r3, #416
 6406 001e 1846     		mov	r0, r3
 6407 0020 0021     		movs	r1, #0
 6408 0022 4FF4C072 		mov	r2, #384
 6409 0026 FFF7FEFF 		bl	memset
1578:.\EncoreImpl.c ****         PUARTMESSAGEPTR puartdisp = GetUARTMessageSlot(UART_DISPENSER);
 6410              		.loc 1 1578 0
 6411 002a A220     		movs	r0, #162
 6412 002c FFF7FEFF 		bl	GetUARTMessageSlot
 6413 0030 7861     		str	r0, [r7, #20]
1579:.\EncoreImpl.c ****         if(puartdisp)
 6414              		.loc 1 1579 0
 6415 0032 7B69     		ldr	r3, [r7, #20]
 6416 0034 002B     		cmp	r3, #0
 6417 0036 00F0F980 		beq	.L237
 6418              	.LBB48:
1580:.\EncoreImpl.c ****         {
1581:.\EncoreImpl.c **** ///////////////////////////////////////////////////////////////////////////////////////////////////
1582:.\EncoreImpl.c ****             puartdisp->_messagetx[index++] = SOM;
 6419              		.loc 1 1582 0
 6420 003a FB7F     		ldrb	r3, [r7, #31]	@ zero_extendqisi2
 6421 003c 5A1C     		adds	r2, r3, #1
ARM GAS  C:\Users\RECEPC~1\AppData\Local\Temp\ccMZb0bC.s 			page 142


 6422 003e FA77     		strb	r2, [r7, #31]
 6423 0040 1A46     		mov	r2, r3
 6424 0042 7B69     		ldr	r3, [r7, #20]
 6425 0044 1344     		add	r3, r3, r2
 6426 0046 FF22     		movs	r2, #255
 6427 0048 1A71     		strb	r2, [r3, #4]
1583:.\EncoreImpl.c ****             if(_g_dispenserlayoutinfo._displaydigitsmode == 0x06)
 6428              		.loc 1 1583 0
 6429 004a 7B4B     		ldr	r3, .L252
 6430 004c 1B7C     		ldrb	r3, [r3, #16]	@ zero_extendqisi2
 6431 004e 062B     		cmp	r3, #6
 6432 0050 08D1     		bne	.L238
1584:.\EncoreImpl.c ****                 puartdisp->_messagetx[index++] = 0xE5;//Standard Price Data
 6433              		.loc 1 1584 0
 6434 0052 FB7F     		ldrb	r3, [r7, #31]	@ zero_extendqisi2
 6435 0054 5A1C     		adds	r2, r3, #1
 6436 0056 FA77     		strb	r2, [r7, #31]
 6437 0058 1A46     		mov	r2, r3
 6438 005a 7B69     		ldr	r3, [r7, #20]
 6439 005c 1344     		add	r3, r3, r2
 6440 005e E522     		movs	r2, #229
 6441 0060 1A71     		strb	r2, [r3, #4]
 6442 0062 07E0     		b	.L239
 6443              	.L238:
1585:.\EncoreImpl.c ****             else
1586:.\EncoreImpl.c ****                 puartdisp->_messagetx[index++] = 0xE3;//Long Price Data - Extended Two-Wire Mode
 6444              		.loc 1 1586 0
 6445 0064 FB7F     		ldrb	r3, [r7, #31]	@ zero_extendqisi2
 6446 0066 5A1C     		adds	r2, r3, #1
 6447 0068 FA77     		strb	r2, [r7, #31]
 6448 006a 1A46     		mov	r2, r3
 6449 006c 7B69     		ldr	r3, [r7, #20]
 6450 006e 1344     		add	r3, r3, r2
 6451 0070 E322     		movs	r2, #227
 6452 0072 1A71     		strb	r2, [r3, #4]
 6453              	.L239:
1587:.\EncoreImpl.c ****             
1588:.\EncoreImpl.c ****             puartdisp->_messagetx[index++] = 0xF4;
 6454              		.loc 1 1588 0
 6455 0074 FB7F     		ldrb	r3, [r7, #31]	@ zero_extendqisi2
 6456 0076 5A1C     		adds	r2, r3, #1
 6457 0078 FA77     		strb	r2, [r7, #31]
 6458 007a 1A46     		mov	r2, r3
 6459 007c 7B69     		ldr	r3, [r7, #20]
 6460 007e 1344     		add	r3, r3, r2
 6461 0080 F422     		movs	r2, #244
 6462 0082 1A71     		strb	r2, [r3, #4]
1589:.\EncoreImpl.c ****             puartdisp->_messagetx[index++] = 0xF6; //Hose Data next
 6463              		.loc 1 1589 0
 6464 0084 FB7F     		ldrb	r3, [r7, #31]	@ zero_extendqisi2
 6465 0086 5A1C     		adds	r2, r3, #1
 6466 0088 FA77     		strb	r2, [r7, #31]
 6467 008a 1A46     		mov	r2, r3
 6468 008c 7B69     		ldr	r3, [r7, #20]
 6469 008e 1344     		add	r3, r3, r2
 6470 0090 F622     		movs	r2, #246
 6471 0092 1A71     		strb	r2, [r3, #4]
ARM GAS  C:\Users\RECEPC~1\AppData\Local\Temp\ccMZb0bC.s 			page 143


1590:.\EncoreImpl.c ****             ///THIS IS AN APPLIED CONVENTION ===>> 0x0006 INDEX POSITION WITHIN THE PUMP'S BUFFER P
1591:.\EncoreImpl.c ****             ///THESE CODES MUST BE MATCHED OTHERWISE THE LOGIC WILL BREAKUP THE CODE!
1592:.\EncoreImpl.c ****             puartdisp->_messagetx[index++] = (0xE0 | ppump->_authorizationinfo._hoseid);
 6472              		.loc 1 1592 0
 6473 0094 FB7F     		ldrb	r3, [r7, #31]	@ zero_extendqisi2
 6474 0096 5A1C     		adds	r2, r3, #1
 6475 0098 FA77     		strb	r2, [r7, #31]
 6476 009a 1946     		mov	r1, r3
 6477 009c BB69     		ldr	r3, [r7, #24]
 6478 009e 93F8AA3B 		ldrb	r3, [r3, #2986]
 6479 00a2 DBB2     		uxtb	r3, r3
 6480 00a4 63F01F03 		orn	r3, r3, #31
 6481 00a8 DAB2     		uxtb	r2, r3
 6482 00aa 7B69     		ldr	r3, [r7, #20]
 6483 00ac 0B44     		add	r3, r3, r1
 6484 00ae 1A71     		strb	r2, [r3, #4]
1593:.\EncoreImpl.c **** 
1594:.\EncoreImpl.c ****             puartdisp->_messagetx[index++] = 0xF7; //PPU Data next
 6485              		.loc 1 1594 0
 6486 00b0 FB7F     		ldrb	r3, [r7, #31]	@ zero_extendqisi2
 6487 00b2 5A1C     		adds	r2, r3, #1
 6488 00b4 FA77     		strb	r2, [r7, #31]
 6489 00b6 1A46     		mov	r2, r3
 6490 00b8 7B69     		ldr	r3, [r7, #20]
 6491 00ba 1344     		add	r3, r3, r2
 6492 00bc F722     		movs	r2, #247
 6493 00be 1A71     		strb	r2, [r3, #4]
1595:.\EncoreImpl.c ****             
1596:.\EncoreImpl.c ****             I2CBusLock();
 6494              		.loc 1 1596 0
 6495 00c0 FFF7FEFF 		bl	I2CBusLock
1597:.\EncoreImpl.c ****             ClearEepromBuffer();
 6496              		.loc 1 1597 0
 6497 00c4 FFF7FEFF 		bl	ClearEepromBuffer
1598:.\EncoreImpl.c ****             uint16 eeprompage = DispenserGetEepromPPUPageFromPumpID(ppump->_pumpid);
 6498              		.loc 1 1598 0
 6499 00c8 BB69     		ldr	r3, [r7, #24]
 6500 00ca 1B78     		ldrb	r3, [r3]	@ zero_extendqisi2
 6501 00cc 1846     		mov	r0, r3
 6502 00ce FFF7FEFF 		bl	DispenserGetEepromPPUPageFromPumpID
 6503 00d2 0346     		mov	r3, r0
 6504 00d4 7B82     		strh	r3, [r7, #18]	@ movhi
1599:.\EncoreImpl.c ****             LoadEepromPage(eeprompage);
 6505              		.loc 1 1599 0
 6506 00d6 7B8A     		ldrh	r3, [r7, #18]
 6507 00d8 1846     		mov	r0, r3
 6508 00da FFF7FEFF 		bl	LoadEepromPage
1600:.\EncoreImpl.c ****             switch(ppump->_authorizationinfo._hoseid)
 6509              		.loc 1 1600 0
 6510 00de BB69     		ldr	r3, [r7, #24]
 6511 00e0 93F8AA3B 		ldrb	r3, [r3, #2986]
 6512 00e4 DBB2     		uxtb	r3, r3
 6513 00e6 032B     		cmp	r3, #3
 6514 00e8 3DD8     		bhi	.L240
 6515 00ea 01A2     		adr	r2, .L242
 6516 00ec 52F823F0 		ldr	pc, [r2, r3, lsl #2]
 6517              		.p2align 2
ARM GAS  C:\Users\RECEPC~1\AppData\Local\Temp\ccMZb0bC.s 			page 144


 6518              	.L242:
 6519 00f0 01010000 		.word	.L241+1
 6520 00f4 19010000 		.word	.L243+1
 6521 00f8 33010000 		.word	.L244+1
 6522 00fc 4D010000 		.word	.L245+1
 6523              		.p2align 1
 6524              	.L241:
1601:.\EncoreImpl.c ****             {
1602:.\EncoreImpl.c ****                 case 0x00:
1603:.\EncoreImpl.c ****                 //Six bytes only since the PPU is constrained to this length
1604:.\EncoreImpl.c ****                 memcpy(PBYTECAST(&ppump->_trasactionbuffer[0x0008]), &GetEepromBuffer()[_EEPROM_PAG
 6525              		.loc 1 1604 0
 6526 0100 BB69     		ldr	r3, [r7, #24]
 6527 0102 03F12804 		add	r4, r3, #40
 6528 0106 FFF7FEFF 		bl	GetEepromBuffer
 6529 010a 0346     		mov	r3, r0
 6530 010c 2046     		mov	r0, r4
 6531 010e 1946     		mov	r1, r3
 6532 0110 0622     		movs	r2, #6
 6533 0112 FFF7FEFF 		bl	memcpy
1605:.\EncoreImpl.c ****                 break;
 6534              		.loc 1 1605 0
 6535 0116 26E0     		b	.L240
 6536              	.L243:
1606:.\EncoreImpl.c ****                 case 0x01:
1607:.\EncoreImpl.c ****                 //Six bytes only since the PPU is constrained to this length
1608:.\EncoreImpl.c ****                 memcpy(PBYTECAST(&ppump->_trasactionbuffer[0x0008]), &GetEepromBuffer()[_EEPROM_PAG
 6537              		.loc 1 1608 0
 6538 0118 BB69     		ldr	r3, [r7, #24]
 6539 011a 03F12804 		add	r4, r3, #40
 6540 011e FFF7FEFF 		bl	GetEepromBuffer
 6541 0122 0346     		mov	r3, r0
 6542 0124 1033     		adds	r3, r3, #16
 6543 0126 2046     		mov	r0, r4
 6544 0128 1946     		mov	r1, r3
 6545 012a 0622     		movs	r2, #6
 6546 012c FFF7FEFF 		bl	memcpy
1609:.\EncoreImpl.c ****                 break;
 6547              		.loc 1 1609 0
 6548 0130 19E0     		b	.L240
 6549              	.L244:
1610:.\EncoreImpl.c ****                 case 0x02:
1611:.\EncoreImpl.c ****                 //Six bytes only since the PPU is constrained to this length
1612:.\EncoreImpl.c ****                 memcpy(PBYTECAST(&ppump->_trasactionbuffer[0x0008]), &GetEepromBuffer()[_EEPROM_PAG
 6550              		.loc 1 1612 0
 6551 0132 BB69     		ldr	r3, [r7, #24]
 6552 0134 03F12804 		add	r4, r3, #40
 6553 0138 FFF7FEFF 		bl	GetEepromBuffer
 6554 013c 0346     		mov	r3, r0
 6555 013e 2033     		adds	r3, r3, #32
 6556 0140 2046     		mov	r0, r4
 6557 0142 1946     		mov	r1, r3
 6558 0144 0622     		movs	r2, #6
 6559 0146 FFF7FEFF 		bl	memcpy
1613:.\EncoreImpl.c ****                 break;
 6560              		.loc 1 1613 0
 6561 014a 0CE0     		b	.L240
ARM GAS  C:\Users\RECEPC~1\AppData\Local\Temp\ccMZb0bC.s 			page 145


 6562              	.L245:
1614:.\EncoreImpl.c ****                 case 0x03:
1615:.\EncoreImpl.c ****                 //Six bytes only since the PPU is constrained to this length
1616:.\EncoreImpl.c ****                 memcpy(PBYTECAST(&ppump->_trasactionbuffer[0x0008]), &GetEepromBuffer()[_EEPROM_PAG
 6563              		.loc 1 1616 0
 6564 014c BB69     		ldr	r3, [r7, #24]
 6565 014e 03F12804 		add	r4, r3, #40
 6566 0152 FFF7FEFF 		bl	GetEepromBuffer
 6567 0156 0346     		mov	r3, r0
 6568 0158 3033     		adds	r3, r3, #48
 6569 015a 2046     		mov	r0, r4
 6570 015c 1946     		mov	r1, r3
 6571 015e 0622     		movs	r2, #6
 6572 0160 FFF7FEFF 		bl	memcpy
1617:.\EncoreImpl.c ****                 break;
 6573              		.loc 1 1617 0
 6574 0164 00BF     		nop
 6575              	.L240:
1618:.\EncoreImpl.c ****             }
1619:.\EncoreImpl.c ****             I2CBusUnlock();
 6576              		.loc 1 1619 0
 6577 0166 FFF7FEFF 		bl	I2CBusUnlock
1620:.\EncoreImpl.c **** 
1621:.\EncoreImpl.c ****             char8 *ptr = &ppump->_trasactionbuffer[0x0008];
 6578              		.loc 1 1621 0
 6579 016a BB69     		ldr	r3, [r7, #24]
 6580 016c 2833     		adds	r3, r3, #40
 6581 016e FB60     		str	r3, [r7, #12]
1622:.\EncoreImpl.c ****             
1623:.\EncoreImpl.c ****             if(_g_dispenserlayoutinfo._displaydigitsmode == 0x06)
 6582              		.loc 1 1623 0
 6583 0170 314B     		ldr	r3, .L252
 6584 0172 1B7C     		ldrb	r3, [r3, #16]	@ zero_extendqisi2
 6585 0174 062B     		cmp	r3, #6
 6586 0176 1AD1     		bne	.L246
 6587              	.LBB49:
1624:.\EncoreImpl.c ****             {
1625:.\EncoreImpl.c ****                 FOR(uint8 buffndx = 0, buffndx < 4, buffndx++)//Standard Price Data
 6588              		.loc 1 1625 0
 6589 0178 0023     		movs	r3, #0
 6590 017a BB77     		strb	r3, [r7, #30]
 6591 017c 13E0     		b	.L247
 6592              	.L248:
1626:.\EncoreImpl.c ****                     puartdisp->_messagetx[index++] = (0xE0 | (0x0F & ptr[buffndx])); //Translate fr
 6593              		.loc 1 1626 0 discriminator 3
 6594 017e FB7F     		ldrb	r3, [r7, #31]	@ zero_extendqisi2
 6595 0180 5A1C     		adds	r2, r3, #1
 6596 0182 FA77     		strb	r2, [r7, #31]
 6597 0184 1946     		mov	r1, r3
 6598 0186 BB7F     		ldrb	r3, [r7, #30]	@ zero_extendqisi2
 6599 0188 FA68     		ldr	r2, [r7, #12]
 6600 018a 1344     		add	r3, r3, r2
 6601 018c 1B78     		ldrb	r3, [r3]	@ zero_extendqisi2
 6602 018e 03F00F03 		and	r3, r3, #15
 6603 0192 DBB2     		uxtb	r3, r3
 6604 0194 63F01F03 		orn	r3, r3, #31
 6605 0198 DAB2     		uxtb	r2, r3
ARM GAS  C:\Users\RECEPC~1\AppData\Local\Temp\ccMZb0bC.s 			page 146


 6606 019a 7B69     		ldr	r3, [r7, #20]
 6607 019c 0B44     		add	r3, r3, r1
 6608 019e 1A71     		strb	r2, [r3, #4]
1625:.\EncoreImpl.c ****                     puartdisp->_messagetx[index++] = (0xE0 | (0x0F & ptr[buffndx])); //Translate fr
 6609              		.loc 1 1625 0 discriminator 3
 6610 01a0 BB7F     		ldrb	r3, [r7, #30]	@ zero_extendqisi2
 6611 01a2 0133     		adds	r3, r3, #1
 6612 01a4 BB77     		strb	r3, [r7, #30]
 6613              	.L247:
1625:.\EncoreImpl.c ****                     puartdisp->_messagetx[index++] = (0xE0 | (0x0F & ptr[buffndx])); //Translate fr
 6614              		.loc 1 1625 0 is_stmt 0 discriminator 1
 6615 01a6 BB7F     		ldrb	r3, [r7, #30]	@ zero_extendqisi2
 6616 01a8 032B     		cmp	r3, #3
 6617 01aa E8D9     		bls	.L248
 6618              	.LBE49:
 6619 01ac 19E0     		b	.L249
 6620              	.L246:
 6621              	.LBB50:
1627:.\EncoreImpl.c ****             }
1628:.\EncoreImpl.c ****             else
1629:.\EncoreImpl.c ****             {
1630:.\EncoreImpl.c ****                 FOR(uint8 buffndx = 0, buffndx < 6, buffndx++)//Long Price Data - Extended Two-Wire
 6622              		.loc 1 1630 0 is_stmt 1
 6623 01ae 0023     		movs	r3, #0
 6624 01b0 7B77     		strb	r3, [r7, #29]
 6625 01b2 13E0     		b	.L250
 6626              	.L251:
1631:.\EncoreImpl.c ****                     puartdisp->_messagetx[index++] = (0xE0 | (0x0F & ptr[buffndx])); //Translate fr
 6627              		.loc 1 1631 0 discriminator 3
 6628 01b4 FB7F     		ldrb	r3, [r7, #31]	@ zero_extendqisi2
 6629 01b6 5A1C     		adds	r2, r3, #1
 6630 01b8 FA77     		strb	r2, [r7, #31]
 6631 01ba 1946     		mov	r1, r3
 6632 01bc 7B7F     		ldrb	r3, [r7, #29]	@ zero_extendqisi2
 6633 01be FA68     		ldr	r2, [r7, #12]
 6634 01c0 1344     		add	r3, r3, r2
 6635 01c2 1B78     		ldrb	r3, [r3]	@ zero_extendqisi2
 6636 01c4 03F00F03 		and	r3, r3, #15
 6637 01c8 DBB2     		uxtb	r3, r3
 6638 01ca 63F01F03 		orn	r3, r3, #31
 6639 01ce DAB2     		uxtb	r2, r3
 6640 01d0 7B69     		ldr	r3, [r7, #20]
 6641 01d2 0B44     		add	r3, r3, r1
 6642 01d4 1A71     		strb	r2, [r3, #4]
1630:.\EncoreImpl.c ****                     puartdisp->_messagetx[index++] = (0xE0 | (0x0F & ptr[buffndx])); //Translate fr
 6643              		.loc 1 1630 0 discriminator 3
 6644 01d6 7B7F     		ldrb	r3, [r7, #29]	@ zero_extendqisi2
 6645 01d8 0133     		adds	r3, r3, #1
 6646 01da 7B77     		strb	r3, [r7, #29]
 6647              	.L250:
1630:.\EncoreImpl.c ****                     puartdisp->_messagetx[index++] = (0xE0 | (0x0F & ptr[buffndx])); //Translate fr
 6648              		.loc 1 1630 0 is_stmt 0 discriminator 1
 6649 01dc 7B7F     		ldrb	r3, [r7, #29]	@ zero_extendqisi2
 6650 01de 052B     		cmp	r3, #5
 6651 01e0 E8D9     		bls	.L251
 6652              	.L249:
 6653              	.LBE50:
ARM GAS  C:\Users\RECEPC~1\AppData\Local\Temp\ccMZb0bC.s 			page 147


1632:.\EncoreImpl.c ****             }
1633:.\EncoreImpl.c ****             
1634:.\EncoreImpl.c ****             puartdisp->_messagetx[index++] = 0xFB; //LRC next
 6654              		.loc 1 1634 0 is_stmt 1
 6655 01e2 FB7F     		ldrb	r3, [r7, #31]	@ zero_extendqisi2
 6656 01e4 5A1C     		adds	r2, r3, #1
 6657 01e6 FA77     		strb	r2, [r7, #31]
 6658 01e8 1A46     		mov	r2, r3
 6659 01ea 7B69     		ldr	r3, [r7, #20]
 6660 01ec 1344     		add	r3, r3, r2
 6661 01ee FB22     		movs	r2, #251
 6662 01f0 1A71     		strb	r2, [r3, #4]
1635:.\EncoreImpl.c ****             puartdisp->_messagetx[index++] = GetLRC(puartdisp->_messagetx);
 6663              		.loc 1 1635 0
 6664 01f2 FB7F     		ldrb	r3, [r7, #31]	@ zero_extendqisi2
 6665 01f4 5A1C     		adds	r2, r3, #1
 6666 01f6 FA77     		strb	r2, [r7, #31]
 6667 01f8 1C46     		mov	r4, r3
 6668 01fa 7B69     		ldr	r3, [r7, #20]
 6669 01fc 0433     		adds	r3, r3, #4
 6670 01fe 1846     		mov	r0, r3
 6671 0200 FFF7FEFF 		bl	GetLRC
 6672 0204 0346     		mov	r3, r0
 6673 0206 1A46     		mov	r2, r3
 6674 0208 7B69     		ldr	r3, [r7, #20]
 6675 020a 2344     		add	r3, r3, r4
 6676 020c 1A71     		strb	r2, [r3, #4]
1636:.\EncoreImpl.c ****             puartdisp->_messagetx[index++] = EOM;
 6677              		.loc 1 1636 0
 6678 020e FB7F     		ldrb	r3, [r7, #31]	@ zero_extendqisi2
 6679 0210 5A1C     		adds	r2, r3, #1
 6680 0212 FA77     		strb	r2, [r7, #31]
 6681 0214 1A46     		mov	r2, r3
 6682 0216 7B69     		ldr	r3, [r7, #20]
 6683 0218 1344     		add	r3, r3, r2
 6684 021a F022     		movs	r2, #240
 6685 021c 1A71     		strb	r2, [r3, #4]
1637:.\EncoreImpl.c **** ///////////////////////////////////////////////////////////////////////////////////////////////////
1638:.\EncoreImpl.c ****             
1639:.\EncoreImpl.c ****             puartdisp->_messagelength = index;
 6686              		.loc 1 1639 0
 6687 021e FB7F     		ldrb	r3, [r7, #31]	@ zero_extendqisi2
 6688 0220 9AB2     		uxth	r2, r3
 6689 0222 7B69     		ldr	r3, [r7, #20]
 6690 0224 5A80     		strh	r2, [r3, #2]	@ movhi
1640:.\EncoreImpl.c ****             puartdisp->_messagestate = PENDING;
 6691              		.loc 1 1640 0
 6692 0226 7B69     		ldr	r3, [r7, #20]
 6693 0228 C222     		movs	r2, #194
 6694 022a 1A70     		strb	r2, [r3]
 6695              	.L237:
 6696              	.LBE48:
1641:.\EncoreImpl.c ****         }
1642:.\EncoreImpl.c ****         ppump->_restoreprice = false;
 6697              		.loc 1 1642 0
 6698 022c BB69     		ldr	r3, [r7, #24]
 6699 022e 0022     		movs	r2, #0
ARM GAS  C:\Users\RECEPC~1\AppData\Local\Temp\ccMZb0bC.s 			page 148


 6700 0230 DA71     		strb	r2, [r3, #7]
 6701              	.L235:
 6702              	.LBE47:
1643:.\EncoreImpl.c ****         //This lock is to force the operator to activate/deactivate the hose once the credit transa
1644:.\EncoreImpl.c ****         #ifdef CREDIT_SALE_PUMP_LOCK
1645:.\EncoreImpl.c ****         ppump->_pumplocked = true;
1646:.\EncoreImpl.c ****         #endif
1647:.\EncoreImpl.c ****     }    
1648:.\EncoreImpl.c **** }
 6703              		.loc 1 1648 0
 6704 0232 2437     		adds	r7, r7, #36
 6705              		.cfi_def_cfa_offset 12
 6706 0234 BD46     		mov	sp, r7
 6707              		.cfi_def_cfa_register 13
 6708              		@ sp needed
 6709 0236 90BD     		pop	{r4, r7, pc}
 6710              	.L253:
 6711              		.align	2
 6712              	.L252:
 6713 0238 00000000 		.word	_g_dispenserlayoutinfo
 6714              		.cfi_endproc
 6715              	.LFE87:
 6716              		.size	PumpCredit2DefaultPpuChange, .-PumpCredit2DefaultPpuChange
 6717              		.section	.text.PumpStopRequest,"ax",%progbits
 6718              		.align	2
 6719              		.global	PumpStopRequest
 6720              		.thumb
 6721              		.thumb_func
 6722              		.type	PumpStopRequest, %function
 6723              	PumpStopRequest:
 6724              	.LFB88:
1649:.\EncoreImpl.c **** 
1650:.\EncoreImpl.c **** //@Created By: HIJH
1651:.\EncoreImpl.c **** //@Septembre de 2016
1652:.\EncoreImpl.c **** void PumpStopRequest(void *pparam)
1653:.\EncoreImpl.c **** {
 6725              		.loc 1 1653 0
 6726              		.cfi_startproc
 6727              		@ args = 0, pretend = 0, frame = 24
 6728              		@ frame_needed = 1, uses_anonymous_args = 0
 6729 0000 80B5     		push	{r7, lr}
 6730              		.cfi_def_cfa_offset 8
 6731              		.cfi_offset 7, -8
 6732              		.cfi_offset 14, -4
 6733 0002 86B0     		sub	sp, sp, #24
 6734              		.cfi_def_cfa_offset 32
 6735 0004 00AF     		add	r7, sp, #0
 6736              		.cfi_def_cfa_register 7
 6737 0006 7860     		str	r0, [r7, #4]
1654:.\EncoreImpl.c ****     PNEAR_PUMPPTR ppump = (PNEAR_PUMPPTR)pparam;
 6738              		.loc 1 1654 0
 6739 0008 7B68     		ldr	r3, [r7, #4]
 6740 000a 7B61     		str	r3, [r7, #20]
1655:.\EncoreImpl.c ****     if(ppump)
 6741              		.loc 1 1655 0
 6742 000c 7B69     		ldr	r3, [r7, #20]
 6743 000e 002B     		cmp	r3, #0
ARM GAS  C:\Users\RECEPC~1\AppData\Local\Temp\ccMZb0bC.s 			page 149


 6744 0010 28D0     		beq	.L254
 6745              	.LBB51:
1656:.\EncoreImpl.c ****     {                
1657:.\EncoreImpl.c ****         uint8_t index = 0;
 6746              		.loc 1 1657 0
 6747 0012 0023     		movs	r3, #0
 6748 0014 FB74     		strb	r3, [r7, #19]
1658:.\EncoreImpl.c ****         memset(ppump->_rxbuffer, 0x00, _PUMP_RX_BUFFER_SIZE_);
 6749              		.loc 1 1658 0
 6750 0016 7B69     		ldr	r3, [r7, #20]
 6751 0018 03F5D073 		add	r3, r3, #416
 6752 001c 1846     		mov	r0, r3
 6753 001e 0021     		movs	r1, #0
 6754 0020 4FF4C072 		mov	r2, #384
 6755 0024 FFF7FEFF 		bl	memset
1659:.\EncoreImpl.c ****         PUARTMESSAGEPTR puartdisp = GetUARTMessageSlot(UART_DISPENSER);
 6756              		.loc 1 1659 0
 6757 0028 A220     		movs	r0, #162
 6758 002a FFF7FEFF 		bl	GetUARTMessageSlot
 6759 002e F860     		str	r0, [r7, #12]
1660:.\EncoreImpl.c ****         if(puartdisp)
 6760              		.loc 1 1660 0
 6761 0030 FB68     		ldr	r3, [r7, #12]
 6762 0032 002B     		cmp	r3, #0
 6763 0034 16D0     		beq	.L254
1661:.\EncoreImpl.c ****         {
1662:.\EncoreImpl.c ****             //Just one byte for the response
1663:.\EncoreImpl.c ****             puartdisp->_messagetx[index++] = PUMP_COMMAND(PUMP_PUMP_STOP, ppump->_pumpid);
 6764              		.loc 1 1663 0
 6765 0036 FB7C     		ldrb	r3, [r7, #19]	@ zero_extendqisi2
 6766 0038 5A1C     		adds	r2, r3, #1
 6767 003a FA74     		strb	r2, [r7, #19]
 6768 003c 1946     		mov	r1, r3
 6769 003e 7B69     		ldr	r3, [r7, #20]
 6770 0040 1B78     		ldrb	r3, [r3]	@ zero_extendqisi2
 6771 0042 DBB2     		uxtb	r3, r3
 6772 0044 03F00F03 		and	r3, r3, #15
 6773 0048 DBB2     		uxtb	r3, r3
 6774 004a 43F03003 		orr	r3, r3, #48
 6775 004e DBB2     		uxtb	r3, r3
 6776 0050 DAB2     		uxtb	r2, r3
 6777 0052 FB68     		ldr	r3, [r7, #12]
 6778 0054 0B44     		add	r3, r3, r1
 6779 0056 1A71     		strb	r2, [r3, #4]
1664:.\EncoreImpl.c ****             puartdisp->_messagelength = 1;//One byte
 6780              		.loc 1 1664 0
 6781 0058 FB68     		ldr	r3, [r7, #12]
 6782 005a 0122     		movs	r2, #1
 6783 005c 5A80     		strh	r2, [r3, #2]	@ movhi
1665:.\EncoreImpl.c ****             puartdisp->_messagestate = PENDING;
 6784              		.loc 1 1665 0
 6785 005e FB68     		ldr	r3, [r7, #12]
 6786 0060 C222     		movs	r2, #194
 6787 0062 1A70     		strb	r2, [r3]
 6788              	.L254:
 6789              	.LBE51:
1666:.\EncoreImpl.c ****         }        
ARM GAS  C:\Users\RECEPC~1\AppData\Local\Temp\ccMZb0bC.s 			page 150


1667:.\EncoreImpl.c ****     }
1668:.\EncoreImpl.c **** }
 6790              		.loc 1 1668 0
 6791 0064 1837     		adds	r7, r7, #24
 6792              		.cfi_def_cfa_offset 8
 6793 0066 BD46     		mov	sp, r7
 6794              		.cfi_def_cfa_register 13
 6795              		@ sp needed
 6796 0068 80BD     		pop	{r7, pc}
 6797              		.cfi_endproc
 6798              	.LFE88:
 6799              		.size	PumpStopRequest, .-PumpStopRequest
 6800 006a 00BF     		.section	.text.PumpStopAllRequest,"ax",%progbits
 6801              		.align	2
 6802              		.global	PumpStopAllRequest
 6803              		.thumb
 6804              		.thumb_func
 6805              		.type	PumpStopAllRequest, %function
 6806              	PumpStopAllRequest:
 6807              	.LFB89:
1669:.\EncoreImpl.c **** 
1670:.\EncoreImpl.c **** //@Created By: HIJH
1671:.\EncoreImpl.c **** //@Septembre de 2016
1672:.\EncoreImpl.c **** void PumpStopAllRequest(void *pparam)
1673:.\EncoreImpl.c **** {
 6808              		.loc 1 1673 0
 6809              		.cfi_startproc
 6810              		@ args = 0, pretend = 0, frame = 24
 6811              		@ frame_needed = 1, uses_anonymous_args = 0
 6812 0000 80B5     		push	{r7, lr}
 6813              		.cfi_def_cfa_offset 8
 6814              		.cfi_offset 7, -8
 6815              		.cfi_offset 14, -4
 6816 0002 86B0     		sub	sp, sp, #24
 6817              		.cfi_def_cfa_offset 32
 6818 0004 00AF     		add	r7, sp, #0
 6819              		.cfi_def_cfa_register 7
 6820 0006 7860     		str	r0, [r7, #4]
1674:.\EncoreImpl.c ****     PNEAR_PUMPPTR ppump = (PNEAR_PUMPPTR)pparam;
 6821              		.loc 1 1674 0
 6822 0008 7B68     		ldr	r3, [r7, #4]
 6823 000a 7B61     		str	r3, [r7, #20]
1675:.\EncoreImpl.c ****     if(ppump)
 6824              		.loc 1 1675 0
 6825 000c 7B69     		ldr	r3, [r7, #20]
 6826 000e 002B     		cmp	r3, #0
 6827 0010 23D0     		beq	.L256
 6828              	.LBB52:
1676:.\EncoreImpl.c ****     {                
1677:.\EncoreImpl.c ****         uint8_t index = 0;
 6829              		.loc 1 1677 0
 6830 0012 0023     		movs	r3, #0
 6831 0014 FB74     		strb	r3, [r7, #19]
1678:.\EncoreImpl.c ****         memset(ppump->_rxbuffer, 0x00, _PUMP_RX_BUFFER_SIZE_);
 6832              		.loc 1 1678 0
 6833 0016 7B69     		ldr	r3, [r7, #20]
 6834 0018 03F5D073 		add	r3, r3, #416
ARM GAS  C:\Users\RECEPC~1\AppData\Local\Temp\ccMZb0bC.s 			page 151


 6835 001c 1846     		mov	r0, r3
 6836 001e 0021     		movs	r1, #0
 6837 0020 4FF4C072 		mov	r2, #384
 6838 0024 FFF7FEFF 		bl	memset
1679:.\EncoreImpl.c ****         PUARTMESSAGEPTR puartdisp = GetUARTMessageSlot(UART_DISPENSER);
 6839              		.loc 1 1679 0
 6840 0028 A220     		movs	r0, #162
 6841 002a FFF7FEFF 		bl	GetUARTMessageSlot
 6842 002e F860     		str	r0, [r7, #12]
1680:.\EncoreImpl.c ****         if(puartdisp)
 6843              		.loc 1 1680 0
 6844 0030 FB68     		ldr	r3, [r7, #12]
 6845 0032 002B     		cmp	r3, #0
 6846 0034 11D0     		beq	.L256
1681:.\EncoreImpl.c ****         {
1682:.\EncoreImpl.c ****             //Just one byte for the response
1683:.\EncoreImpl.c ****             puartdisp->_messagetx[index++] = PUMP_COMMAND(PUMP_ALL_PUMPS_STOP, ppump->_pumpid);
 6847              		.loc 1 1683 0
 6848 0036 FB7C     		ldrb	r3, [r7, #19]	@ zero_extendqisi2
 6849 0038 5A1C     		adds	r2, r3, #1
 6850 003a FA74     		strb	r2, [r7, #19]
 6851 003c 1946     		mov	r1, r3
 6852 003e 7B69     		ldr	r3, [r7, #20]
 6853 0040 1B78     		ldrb	r3, [r3]	@ zero_extendqisi2
 6854 0042 63F00F03 		orn	r3, r3, #15
 6855 0046 DAB2     		uxtb	r2, r3
 6856 0048 FB68     		ldr	r3, [r7, #12]
 6857 004a 0B44     		add	r3, r3, r1
 6858 004c 1A71     		strb	r2, [r3, #4]
1684:.\EncoreImpl.c ****             puartdisp->_messagelength = 1;//One byte
 6859              		.loc 1 1684 0
 6860 004e FB68     		ldr	r3, [r7, #12]
 6861 0050 0122     		movs	r2, #1
 6862 0052 5A80     		strh	r2, [r3, #2]	@ movhi
1685:.\EncoreImpl.c ****             puartdisp->_messagestate = PENDING;
 6863              		.loc 1 1685 0
 6864 0054 FB68     		ldr	r3, [r7, #12]
 6865 0056 C222     		movs	r2, #194
 6866 0058 1A70     		strb	r2, [r3]
 6867              	.L256:
 6868              	.LBE52:
1686:.\EncoreImpl.c ****         }        
1687:.\EncoreImpl.c ****     }
1688:.\EncoreImpl.c **** }
 6869              		.loc 1 1688 0
 6870 005a 1837     		adds	r7, r7, #24
 6871              		.cfi_def_cfa_offset 8
 6872 005c BD46     		mov	sp, r7
 6873              		.cfi_def_cfa_register 13
 6874              		@ sp needed
 6875 005e 80BD     		pop	{r7, pc}
 6876              		.cfi_endproc
 6877              	.LFE89:
 6878              		.size	PumpStopAllRequest, .-PumpStopAllRequest
 6879              		.section	.text.PumpCompleteConfiguration,"ax",%progbits
 6880              		.align	2
 6881              		.global	PumpCompleteConfiguration
ARM GAS  C:\Users\RECEPC~1\AppData\Local\Temp\ccMZb0bC.s 			page 152


 6882              		.thumb
 6883              		.thumb_func
 6884              		.type	PumpCompleteConfiguration, %function
 6885              	PumpCompleteConfiguration:
 6886              	.LFB90:
1689:.\EncoreImpl.c **** 
1690:.\EncoreImpl.c **** //@Created By: HIJH
1691:.\EncoreImpl.c **** //@Septembre de 2016
1692:.\EncoreImpl.c **** void PumpCompleteConfiguration(LPVOID pparam)
1693:.\EncoreImpl.c **** {
 6887              		.loc 1 1693 0
 6888              		.cfi_startproc
 6889              		@ args = 0, pretend = 0, frame = 24
 6890              		@ frame_needed = 1, uses_anonymous_args = 0
 6891 0000 90B5     		push	{r4, r7, lr}
 6892              		.cfi_def_cfa_offset 12
 6893              		.cfi_offset 4, -12
 6894              		.cfi_offset 7, -8
 6895              		.cfi_offset 14, -4
 6896 0002 87B0     		sub	sp, sp, #28
 6897              		.cfi_def_cfa_offset 40
 6898 0004 00AF     		add	r7, sp, #0
 6899              		.cfi_def_cfa_register 7
 6900 0006 7860     		str	r0, [r7, #4]
1694:.\EncoreImpl.c ****     PNEAR_PUMPPTR ppump = (PNEAR_PUMPPTR)pparam;
 6901              		.loc 1 1694 0
 6902 0008 7B68     		ldr	r3, [r7, #4]
 6903 000a 7B61     		str	r3, [r7, #20]
1695:.\EncoreImpl.c ****     if(ppump)
 6904              		.loc 1 1695 0
 6905 000c 7B69     		ldr	r3, [r7, #20]
 6906 000e 002B     		cmp	r3, #0
 6907 0010 66D0     		beq	.L258
 6908              	.LBB53:
1696:.\EncoreImpl.c ****     {
1697:.\EncoreImpl.c ****         uint8_t index = 0;  
 6909              		.loc 1 1697 0
 6910 0012 0023     		movs	r3, #0
 6911 0014 FB74     		strb	r3, [r7, #19]
1698:.\EncoreImpl.c ****         memset(ppump->_rxbuffer, 0x00, _PUMP_RX_BUFFER_SIZE_);
 6912              		.loc 1 1698 0
 6913 0016 7B69     		ldr	r3, [r7, #20]
 6914 0018 03F5D073 		add	r3, r3, #416
 6915 001c 1846     		mov	r0, r3
 6916 001e 0021     		movs	r1, #0
 6917 0020 4FF4C072 		mov	r2, #384
 6918 0024 FFF7FEFF 		bl	memset
1699:.\EncoreImpl.c ****         PUARTMESSAGEPTR puartdisp = GetUARTMessageSlot(UART_DISPENSER);
 6919              		.loc 1 1699 0
 6920 0028 A220     		movs	r0, #162
 6921 002a FFF7FEFF 		bl	GetUARTMessageSlot
 6922 002e F860     		str	r0, [r7, #12]
1700:.\EncoreImpl.c ****         if(puartdisp)
 6923              		.loc 1 1700 0
 6924 0030 FB68     		ldr	r3, [r7, #12]
 6925 0032 002B     		cmp	r3, #0
 6926 0034 54D0     		beq	.L258
ARM GAS  C:\Users\RECEPC~1\AppData\Local\Temp\ccMZb0bC.s 			page 153


1701:.\EncoreImpl.c ****         {
1702:.\EncoreImpl.c **** ///////////////////////////////////////////////////////////////////////////////////////////////////
1703:.\EncoreImpl.c ****             puartdisp->_messagetx[index++] = SOM;//Start Of Message
 6927              		.loc 1 1703 0
 6928 0036 FB7C     		ldrb	r3, [r7, #19]	@ zero_extendqisi2
 6929 0038 5A1C     		adds	r2, r3, #1
 6930 003a FA74     		strb	r2, [r7, #19]
 6931 003c 1A46     		mov	r2, r3
 6932 003e FB68     		ldr	r3, [r7, #12]
 6933 0040 1344     		add	r3, r3, r2
 6934 0042 FF22     		movs	r2, #255
 6935 0044 1A71     		strb	r2, [r3, #4]
1704:.\EncoreImpl.c ****             puartdisp->_messagetx[index++] = 0xE9;//Data Length
 6936              		.loc 1 1704 0
 6937 0046 FB7C     		ldrb	r3, [r7, #19]	@ zero_extendqisi2
 6938 0048 5A1C     		adds	r2, r3, #1
 6939 004a FA74     		strb	r2, [r7, #19]
 6940 004c 1A46     		mov	r2, r3
 6941 004e FB68     		ldr	r3, [r7, #12]
 6942 0050 1344     		add	r3, r3, r2
 6943 0052 E922     		movs	r2, #233
 6944 0054 1A71     		strb	r2, [r3, #4]
1705:.\EncoreImpl.c ****             puartdisp->_messagetx[index++] = 0xFE;//Special Functions Next (0xB0 0xB0 0xBE)
 6945              		.loc 1 1705 0
 6946 0056 FB7C     		ldrb	r3, [r7, #19]	@ zero_extendqisi2
 6947 0058 5A1C     		adds	r2, r3, #1
 6948 005a FA74     		strb	r2, [r7, #19]
 6949 005c 1A46     		mov	r2, r3
 6950 005e FB68     		ldr	r3, [r7, #12]
 6951 0060 1344     		add	r3, r3, r2
 6952 0062 FE22     		movs	r2, #254
 6953 0064 1A71     		strb	r2, [r3, #4]
1706:.\EncoreImpl.c ****             puartdisp->_messagetx[index++] = 0xEE;//Complete Pump Configuration Request (sf1)
 6954              		.loc 1 1706 0
 6955 0066 FB7C     		ldrb	r3, [r7, #19]	@ zero_extendqisi2
 6956 0068 5A1C     		adds	r2, r3, #1
 6957 006a FA74     		strb	r2, [r7, #19]
 6958 006c 1A46     		mov	r2, r3
 6959 006e FB68     		ldr	r3, [r7, #12]
 6960 0070 1344     		add	r3, r3, r2
 6961 0072 EE22     		movs	r2, #238
 6962 0074 1A71     		strb	r2, [r3, #4]
1707:.\EncoreImpl.c ****             puartdisp->_messagetx[index++] = 0xE0;//Complete Pump Configuration Request (sf2)
 6963              		.loc 1 1707 0
 6964 0076 FB7C     		ldrb	r3, [r7, #19]	@ zero_extendqisi2
 6965 0078 5A1C     		adds	r2, r3, #1
 6966 007a FA74     		strb	r2, [r7, #19]
 6967 007c 1A46     		mov	r2, r3
 6968 007e FB68     		ldr	r3, [r7, #12]
 6969 0080 1344     		add	r3, r3, r2
 6970 0082 E022     		movs	r2, #224
 6971 0084 1A71     		strb	r2, [r3, #4]
1708:.\EncoreImpl.c ****             puartdisp->_messagetx[index++] = 0xE0;//Complete Pump Configuration Request (sf3)
 6972              		.loc 1 1708 0
 6973 0086 FB7C     		ldrb	r3, [r7, #19]	@ zero_extendqisi2
 6974 0088 5A1C     		adds	r2, r3, #1
 6975 008a FA74     		strb	r2, [r7, #19]
ARM GAS  C:\Users\RECEPC~1\AppData\Local\Temp\ccMZb0bC.s 			page 154


 6976 008c 1A46     		mov	r2, r3
 6977 008e FB68     		ldr	r3, [r7, #12]
 6978 0090 1344     		add	r3, r3, r2
 6979 0092 E022     		movs	r2, #224
 6980 0094 1A71     		strb	r2, [r3, #4]
1709:.\EncoreImpl.c ****             puartdisp->_messagetx[index++] = 0xFB;
 6981              		.loc 1 1709 0
 6982 0096 FB7C     		ldrb	r3, [r7, #19]	@ zero_extendqisi2
 6983 0098 5A1C     		adds	r2, r3, #1
 6984 009a FA74     		strb	r2, [r7, #19]
 6985 009c 1A46     		mov	r2, r3
 6986 009e FB68     		ldr	r3, [r7, #12]
 6987 00a0 1344     		add	r3, r3, r2
 6988 00a2 FB22     		movs	r2, #251
 6989 00a4 1A71     		strb	r2, [r3, #4]
1710:.\EncoreImpl.c ****             puartdisp->_messagetx[index++] = GetLRC(puartdisp->_messagetx);
 6990              		.loc 1 1710 0
 6991 00a6 FB7C     		ldrb	r3, [r7, #19]	@ zero_extendqisi2
 6992 00a8 5A1C     		adds	r2, r3, #1
 6993 00aa FA74     		strb	r2, [r7, #19]
 6994 00ac 1C46     		mov	r4, r3
 6995 00ae FB68     		ldr	r3, [r7, #12]
 6996 00b0 0433     		adds	r3, r3, #4
 6997 00b2 1846     		mov	r0, r3
 6998 00b4 FFF7FEFF 		bl	GetLRC
 6999 00b8 0346     		mov	r3, r0
 7000 00ba 1A46     		mov	r2, r3
 7001 00bc FB68     		ldr	r3, [r7, #12]
 7002 00be 2344     		add	r3, r3, r4
 7003 00c0 1A71     		strb	r2, [r3, #4]
1711:.\EncoreImpl.c ****             puartdisp->_messagetx[index++] = EOM;
 7004              		.loc 1 1711 0
 7005 00c2 FB7C     		ldrb	r3, [r7, #19]	@ zero_extendqisi2
 7006 00c4 5A1C     		adds	r2, r3, #1
 7007 00c6 FA74     		strb	r2, [r7, #19]
 7008 00c8 1A46     		mov	r2, r3
 7009 00ca FB68     		ldr	r3, [r7, #12]
 7010 00cc 1344     		add	r3, r3, r2
 7011 00ce F022     		movs	r2, #240
 7012 00d0 1A71     		strb	r2, [r3, #4]
1712:.\EncoreImpl.c **** ///////////////////////////////////////////////////////////////////////////////////////////////////
1713:.\EncoreImpl.c ****             
1714:.\EncoreImpl.c ****             puartdisp->_messagelength = index;
 7013              		.loc 1 1714 0
 7014 00d2 FB7C     		ldrb	r3, [r7, #19]	@ zero_extendqisi2
 7015 00d4 9AB2     		uxth	r2, r3
 7016 00d6 FB68     		ldr	r3, [r7, #12]
 7017 00d8 5A80     		strh	r2, [r3, #2]	@ movhi
1715:.\EncoreImpl.c ****             puartdisp->_messagestate = PENDING;
 7018              		.loc 1 1715 0
 7019 00da FB68     		ldr	r3, [r7, #12]
 7020 00dc C222     		movs	r2, #194
 7021 00de 1A70     		strb	r2, [r3]
 7022              	.L258:
 7023              	.LBE53:
1716:.\EncoreImpl.c ****         }
1717:.\EncoreImpl.c ****     }
ARM GAS  C:\Users\RECEPC~1\AppData\Local\Temp\ccMZb0bC.s 			page 155


1718:.\EncoreImpl.c **** }
 7024              		.loc 1 1718 0
 7025 00e0 1C37     		adds	r7, r7, #28
 7026              		.cfi_def_cfa_offset 12
 7027 00e2 BD46     		mov	sp, r7
 7028              		.cfi_def_cfa_register 13
 7029              		@ sp needed
 7030 00e4 90BD     		pop	{r4, r7, pc}
 7031              		.cfi_endproc
 7032              	.LFE90:
 7033              		.size	PumpCompleteConfiguration, .-PumpCompleteConfiguration
 7034 00e6 00BF     		.section	.text.AcquirePumpCompleteConfiguration,"ax",%progbits
 7035              		.align	2
 7036              		.global	AcquirePumpCompleteConfiguration
 7037              		.thumb
 7038              		.thumb_func
 7039              		.type	AcquirePumpCompleteConfiguration, %function
 7040              	AcquirePumpCompleteConfiguration:
 7041              	.LFB91:
1719:.\EncoreImpl.c **** 
1720:.\EncoreImpl.c **** //@Created By: HIJH
1721:.\EncoreImpl.c **** //@Date: Septembre de 2016
1722:.\EncoreImpl.c **** //Receives the complete pump configuration information
1723:.\EncoreImpl.c **** void AcquirePumpCompleteConfiguration(void *pparam)
1724:.\EncoreImpl.c **** {
 7042              		.loc 1 1724 0
 7043              		.cfi_startproc
 7044              		@ args = 0, pretend = 0, frame = 32
 7045              		@ frame_needed = 1, uses_anonymous_args = 0
 7046 0000 90B5     		push	{r4, r7, lr}
 7047              		.cfi_def_cfa_offset 12
 7048              		.cfi_offset 4, -12
 7049              		.cfi_offset 7, -8
 7050              		.cfi_offset 14, -4
 7051 0002 89B0     		sub	sp, sp, #36
 7052              		.cfi_def_cfa_offset 48
 7053 0004 00AF     		add	r7, sp, #0
 7054              		.cfi_def_cfa_register 7
 7055 0006 7860     		str	r0, [r7, #4]
1725:.\EncoreImpl.c ****     PPUMPTRANSACTIONJOBCONTEXTPTR pjob = (PPUMPTRANSACTIONJOBCONTEXTPTR)pparam;
 7056              		.loc 1 1725 0
 7057 0008 7B68     		ldr	r3, [r7, #4]
 7058 000a BB61     		str	r3, [r7, #24]
1726:.\EncoreImpl.c ****     if(pjob)    
 7059              		.loc 1 1726 0
 7060 000c BB69     		ldr	r3, [r7, #24]
 7061 000e 002B     		cmp	r3, #0
 7062 0010 00F01A82 		beq	.L260
 7063              	.LBB54:
1727:.\EncoreImpl.c ****     {
1728:.\EncoreImpl.c ****         uint8 index = 0;
 7064              		.loc 1 1728 0
 7065 0014 0023     		movs	r3, #0
 7066 0016 FB75     		strb	r3, [r7, #23]
1729:.\EncoreImpl.c ****         //NOT USED!! JUST FOR DEBUGGING PURPOSES!
1730:.\EncoreImpl.c ****         //The "index" variable has been kept in some lines of code just for reference.
1731:.\EncoreImpl.c ****         uint8 remblocks = (TranslateSpecialFuncionDigit(pjob->_ppump->_rxbuffer[7 + 45*index]) << 0
ARM GAS  C:\Users\RECEPC~1\AppData\Local\Temp\ccMZb0bC.s 			page 156


 7067              		.loc 1 1731 0
 7068 0018 BB69     		ldr	r3, [r7, #24]
 7069 001a D969     		ldr	r1, [r3, #28]
 7070 001c FA7D     		ldrb	r2, [r7, #23]	@ zero_extendqisi2
 7071 001e 1346     		mov	r3, r2
 7072 0020 5B00     		lsls	r3, r3, #1
 7073 0022 1344     		add	r3, r3, r2
 7074 0024 1A01     		lsls	r2, r3, #4
 7075 0026 D31A     		subs	r3, r2, r3
 7076 0028 0733     		adds	r3, r3, #7
 7077 002a 0B44     		add	r3, r3, r1
 7078 002c 93F8A031 		ldrb	r3, [r3, #416]	@ zero_extendqisi2
 7079 0030 1846     		mov	r0, r3
 7080 0032 FFF7FEFF 		bl	TranslateSpecialFuncionDigit
 7081 0036 0346     		mov	r3, r0
 7082 0038 1B01     		lsls	r3, r3, #4
 7083 003a DCB2     		uxtb	r4, r3
 7084 003c BB69     		ldr	r3, [r7, #24]
 7085 003e D969     		ldr	r1, [r3, #28]
 7086 0040 FA7D     		ldrb	r2, [r7, #23]	@ zero_extendqisi2
 7087 0042 1346     		mov	r3, r2
 7088 0044 5B00     		lsls	r3, r3, #1
 7089 0046 1344     		add	r3, r3, r2
 7090 0048 1A01     		lsls	r2, r3, #4
 7091 004a D31A     		subs	r3, r2, r3
 7092 004c 0833     		adds	r3, r3, #8
 7093 004e 0B44     		add	r3, r3, r1
 7094 0050 93F8A031 		ldrb	r3, [r3, #416]	@ zero_extendqisi2
 7095 0054 1846     		mov	r0, r3
 7096 0056 FFF7FEFF 		bl	TranslateSpecialFuncionDigit
 7097 005a 0346     		mov	r3, r0
 7098 005c DBB2     		uxtb	r3, r3
 7099 005e 2246     		mov	r2, r4
 7100 0060 1343     		orrs	r3, r3, r2
 7101 0062 DBB2     		uxtb	r3, r3
 7102 0064 BB75     		strb	r3, [r7, #22]
1732:.\EncoreImpl.c ****         //HERE WE ACQUIRE THE MISCELLANEOUS PUMP CONFIGURATION INFORMATION AND STORE IT INTO
1733:.\EncoreImpl.c ****         //THE PERSISTENT FILE SYSTEM (EEPROM)        
1734:.\EncoreImpl.c ****         if(pjob->_ppump->_rxbuffer[0x00] == 0xBA)
 7103              		.loc 1 1734 0
 7104 0066 BB69     		ldr	r3, [r7, #24]
 7105 0068 DB69     		ldr	r3, [r3, #28]
 7106 006a 93F8A031 		ldrb	r3, [r3, #416]	@ zero_extendqisi2
 7107 006e BA2B     		cmp	r3, #186
 7108 0070 40F0EA81 		bne	.L260
 7109              	.LBB55:
1735:.\EncoreImpl.c ****         {
1736:.\EncoreImpl.c ****             ClearEepromBuffer();
 7110              		.loc 1 1736 0
 7111 0074 FFF7FEFF 		bl	ClearEepromBuffer
1737:.\EncoreImpl.c ****             bool targetmemoryareafound = false;
 7112              		.loc 1 1737 0
 7113 0078 0023     		movs	r3, #0
 7114 007a FB77     		strb	r3, [r7, #31]
1738:.\EncoreImpl.c ****             uint16 eeprompumpconfigmemorypageid = 0;
 7115              		.loc 1 1738 0
 7116 007c 0023     		movs	r3, #0
ARM GAS  C:\Users\RECEPC~1\AppData\Local\Temp\ccMZb0bC.s 			page 157


 7117 007e BB83     		strh	r3, [r7, #28]	@ movhi
1739:.\EncoreImpl.c ****             //WE ALWAYS READ THE PAGE FROM THE EEPROM BEFORE SINCE AFTER MODIFYING ANY FIELD IT MUS
1740:.\EncoreImpl.c ****             eeprompumpconfigmemorypageid = (uint16)EEPROM_DISPENSER_PUMP1_LAYOUT_PAGE;
 7118              		.loc 1 1740 0
 7119 0080 4FF40073 		mov	r3, #512
 7120 0084 BB83     		strh	r3, [r7, #28]	@ movhi
1741:.\EncoreImpl.c ****             LoadEepromPage(eeprompumpconfigmemorypageid);
 7121              		.loc 1 1741 0
 7122 0086 BB8B     		ldrh	r3, [r7, #28]
 7123 0088 1846     		mov	r0, r3
 7124 008a FFF7FEFF 		bl	LoadEepromPage
1742:.\EncoreImpl.c ****             if(TranslateSpecialFuncionDigit(pjob->_ppump->_rxbuffer[0x03]) != (GetEepromBuffer()[0x
 7125              		.loc 1 1742 0
 7126 008e BB69     		ldr	r3, [r7, #24]
 7127 0090 DB69     		ldr	r3, [r3, #28]
 7128 0092 93F8A331 		ldrb	r3, [r3, #419]	@ zero_extendqisi2
 7129 0096 1846     		mov	r0, r3
 7130 0098 FFF7FEFF 		bl	TranslateSpecialFuncionDigit
 7131 009c 0346     		mov	r3, r0
 7132 009e 1C46     		mov	r4, r3
 7133 00a0 FFF7FEFF 		bl	GetEepromBuffer
 7134 00a4 0346     		mov	r3, r0
 7135 00a6 1B78     		ldrb	r3, [r3]	@ zero_extendqisi2
 7136 00a8 03F00F03 		and	r3, r3, #15
 7137 00ac 9C42     		cmp	r4, r3
 7138 00ae 50D0     		beq	.L262
1743:.\EncoreImpl.c ****             {
1744:.\EncoreImpl.c ****                 eeprompumpconfigmemorypageid = (uint16)EEPROM_DISPENSER_PUMP2_LAYOUT_PAGE;
 7139              		.loc 1 1744 0
 7140 00b0 4FF41073 		mov	r3, #576
 7141 00b4 BB83     		strh	r3, [r7, #28]	@ movhi
1745:.\EncoreImpl.c ****                 LoadEepromPage(eeprompumpconfigmemorypageid);
 7142              		.loc 1 1745 0
 7143 00b6 BB8B     		ldrh	r3, [r7, #28]
 7144 00b8 1846     		mov	r0, r3
 7145 00ba FFF7FEFF 		bl	LoadEepromPage
1746:.\EncoreImpl.c ****                 if(TranslateSpecialFuncionDigit(pjob->_ppump->_rxbuffer[0x03]) != (GetEepromBuffer(
 7146              		.loc 1 1746 0
 7147 00be BB69     		ldr	r3, [r7, #24]
 7148 00c0 DB69     		ldr	r3, [r3, #28]
 7149 00c2 93F8A331 		ldrb	r3, [r3, #419]	@ zero_extendqisi2
 7150 00c6 1846     		mov	r0, r3
 7151 00c8 FFF7FEFF 		bl	TranslateSpecialFuncionDigit
 7152 00cc 0346     		mov	r3, r0
 7153 00ce 1C46     		mov	r4, r3
 7154 00d0 FFF7FEFF 		bl	GetEepromBuffer
 7155 00d4 0346     		mov	r3, r0
 7156 00d6 1B78     		ldrb	r3, [r3]	@ zero_extendqisi2
 7157 00d8 03F00F03 		and	r3, r3, #15
 7158 00dc 9C42     		cmp	r4, r3
 7159 00de 35D0     		beq	.L263
1747:.\EncoreImpl.c ****                 {
1748:.\EncoreImpl.c ****                     eeprompumpconfigmemorypageid = (uint16)EEPROM_DISPENSER_PUMP3_LAYOUT_PAGE;
 7160              		.loc 1 1748 0
 7161 00e0 4FF42073 		mov	r3, #640
 7162 00e4 BB83     		strh	r3, [r7, #28]	@ movhi
1749:.\EncoreImpl.c ****                     LoadEepromPage(eeprompumpconfigmemorypageid);
ARM GAS  C:\Users\RECEPC~1\AppData\Local\Temp\ccMZb0bC.s 			page 158


 7163              		.loc 1 1749 0
 7164 00e6 BB8B     		ldrh	r3, [r7, #28]
 7165 00e8 1846     		mov	r0, r3
 7166 00ea FFF7FEFF 		bl	LoadEepromPage
1750:.\EncoreImpl.c ****                     if(TranslateSpecialFuncionDigit(pjob->_ppump->_rxbuffer[0x03]) != (GetEepromBuf
 7167              		.loc 1 1750 0
 7168 00ee BB69     		ldr	r3, [r7, #24]
 7169 00f0 DB69     		ldr	r3, [r3, #28]
 7170 00f2 93F8A331 		ldrb	r3, [r3, #419]	@ zero_extendqisi2
 7171 00f6 1846     		mov	r0, r3
 7172 00f8 FFF7FEFF 		bl	TranslateSpecialFuncionDigit
 7173 00fc 0346     		mov	r3, r0
 7174 00fe 1C46     		mov	r4, r3
 7175 0100 FFF7FEFF 		bl	GetEepromBuffer
 7176 0104 0346     		mov	r3, r0
 7177 0106 1B78     		ldrb	r3, [r3]	@ zero_extendqisi2
 7178 0108 03F00F03 		and	r3, r3, #15
 7179 010c 9C42     		cmp	r4, r3
 7180 010e 1AD0     		beq	.L264
1751:.\EncoreImpl.c ****                     {
1752:.\EncoreImpl.c ****                         eeprompumpconfigmemorypageid = (uint16)EEPROM_DISPENSER_PUMP4_LAYOUT_PAGE;
 7181              		.loc 1 1752 0
 7182 0110 4FF43073 		mov	r3, #704
 7183 0114 BB83     		strh	r3, [r7, #28]	@ movhi
1753:.\EncoreImpl.c ****                         LoadEepromPage(eeprompumpconfigmemorypageid);
 7184              		.loc 1 1753 0
 7185 0116 BB8B     		ldrh	r3, [r7, #28]
 7186 0118 1846     		mov	r0, r3
 7187 011a FFF7FEFF 		bl	LoadEepromPage
1754:.\EncoreImpl.c ****                         if(TranslateSpecialFuncionDigit(pjob->_ppump->_rxbuffer[0x03]) == (GetEepro
 7188              		.loc 1 1754 0
 7189 011e BB69     		ldr	r3, [r7, #24]
 7190 0120 DB69     		ldr	r3, [r3, #28]
 7191 0122 93F8A331 		ldrb	r3, [r3, #419]	@ zero_extendqisi2
 7192 0126 1846     		mov	r0, r3
 7193 0128 FFF7FEFF 		bl	TranslateSpecialFuncionDigit
 7194 012c 0346     		mov	r3, r0
 7195 012e 1C46     		mov	r4, r3
 7196 0130 FFF7FEFF 		bl	GetEepromBuffer
 7197 0134 0346     		mov	r3, r0
 7198 0136 1B78     		ldrb	r3, [r3]	@ zero_extendqisi2
 7199 0138 03F00F03 		and	r3, r3, #15
 7200 013c 9C42     		cmp	r4, r3
 7201 013e 0AD1     		bne	.L268
1755:.\EncoreImpl.c ****                             targetmemoryareafound = true;
 7202              		.loc 1 1755 0
 7203 0140 0123     		movs	r3, #1
 7204 0142 FB77     		strb	r3, [r7, #31]
 7205 0144 07E0     		b	.L268
 7206              	.L264:
1756:.\EncoreImpl.c ****                             
1757:.\EncoreImpl.c ****                     }else
1758:.\EncoreImpl.c ****                         targetmemoryareafound = true;
 7207              		.loc 1 1758 0
 7208 0146 0123     		movs	r3, #1
 7209 0148 FB77     		strb	r3, [r7, #31]
 7210 014a 04E0     		b	.L268
ARM GAS  C:\Users\RECEPC~1\AppData\Local\Temp\ccMZb0bC.s 			page 159


 7211              	.L263:
1759:.\EncoreImpl.c ****                 }else
1760:.\EncoreImpl.c ****                     targetmemoryareafound = true;
 7212              		.loc 1 1760 0
 7213 014c 0123     		movs	r3, #1
 7214 014e FB77     		strb	r3, [r7, #31]
 7215 0150 01E0     		b	.L268
 7216              	.L262:
1761:.\EncoreImpl.c ****             }else
1762:.\EncoreImpl.c ****                 targetmemoryareafound = true;
 7217              		.loc 1 1762 0
 7218 0152 0123     		movs	r3, #1
 7219 0154 FB77     		strb	r3, [r7, #31]
 7220              	.L268:
1763:.\EncoreImpl.c ****             
1764:.\EncoreImpl.c ****             ///////////////////////////////////////////////////////////////////////////////////////
1765:.\EncoreImpl.c ****             //JUST RETURN SINCE IT MEANS THAT THE PUMP/POSITION IDENTIFIERS HAVE NOT YET BEEN DEFIN
1766:.\EncoreImpl.c ****             if(!targetmemoryareafound)
 7221              		.loc 1 1766 0
 7222 0156 FB7F     		ldrb	r3, [r7, #31]
 7223 0158 83F00103 		eor	r3, r3, #1
 7224 015c DBB2     		uxtb	r3, r3
 7225 015e 002B     		cmp	r3, #0
 7226 0160 00D0     		beq	.L269
1767:.\EncoreImpl.c ****                 return;
 7227              		.loc 1 1767 0
 7228 0162 71E1     		b	.L260
 7229              	.L269:
1768:.\EncoreImpl.c ****                 
1769:.\EncoreImpl.c ****             //THE FIRST 16 BYTES ARE RESERVED FOR LOCAL PUMP CONFIGURATION INFORMATION
1770:.\EncoreImpl.c ****             LPRAWPTR ptreeprom = &(GetEepromBuffer()[0x10]);
 7230              		.loc 1 1770 0
 7231 0164 FFF7FEFF 		bl	GetEepromBuffer
 7232 0168 0346     		mov	r3, r0
 7233 016a 1033     		adds	r3, r3, #16
 7234 016c 3B61     		str	r3, [r7, #16]
1771:.\EncoreImpl.c ****             
1772:.\EncoreImpl.c ****             uint8 blkindex = 0;
 7235              		.loc 1 1772 0
 7236 016e 0023     		movs	r3, #0
 7237 0170 FB73     		strb	r3, [r7, #15]
1773:.\EncoreImpl.c ****             uint8 msglength = (TranslateSpecialFuncionDigit(pjob->_ppump->_rxbuffer[0x01]) << 0x04)
 7238              		.loc 1 1773 0
 7239 0172 BB69     		ldr	r3, [r7, #24]
 7240 0174 DB69     		ldr	r3, [r3, #28]
 7241 0176 93F8A131 		ldrb	r3, [r3, #417]	@ zero_extendqisi2
 7242 017a 1846     		mov	r0, r3
 7243 017c FFF7FEFF 		bl	TranslateSpecialFuncionDigit
 7244 0180 0346     		mov	r3, r0
 7245 0182 1B01     		lsls	r3, r3, #4
 7246 0184 DCB2     		uxtb	r4, r3
 7247 0186 BB69     		ldr	r3, [r7, #24]
 7248 0188 DB69     		ldr	r3, [r3, #28]
 7249 018a 93F8A231 		ldrb	r3, [r3, #418]	@ zero_extendqisi2
 7250 018e 1846     		mov	r0, r3
 7251 0190 FFF7FEFF 		bl	TranslateSpecialFuncionDigit
 7252 0194 0346     		mov	r3, r0
ARM GAS  C:\Users\RECEPC~1\AppData\Local\Temp\ccMZb0bC.s 			page 160


 7253 0196 DBB2     		uxtb	r3, r3
 7254 0198 2246     		mov	r2, r4
 7255 019a 1343     		orrs	r3, r3, r2
 7256 019c DBB2     		uxtb	r3, r3
 7257 019e BB73     		strb	r3, [r7, #14]
1774:.\EncoreImpl.c ****             
1775:.\EncoreImpl.c ****             //0
1776:.\EncoreImpl.c ****             //Pump Type / Unit Type Code
1777:.\EncoreImpl.c ****             *ptreeprom = ((TranslateSpecialFuncionDigit(pjob->_ppump->_rxbuffer[0x09 + 2*blkindex])
 7258              		.loc 1 1777 0
 7259 01a0 BB69     		ldr	r3, [r7, #24]
 7260 01a2 DA69     		ldr	r2, [r3, #28]
 7261 01a4 FB7B     		ldrb	r3, [r7, #15]	@ zero_extendqisi2
 7262 01a6 5B00     		lsls	r3, r3, #1
 7263 01a8 0933     		adds	r3, r3, #9
 7264 01aa 1344     		add	r3, r3, r2
 7265 01ac 93F8A031 		ldrb	r3, [r3, #416]	@ zero_extendqisi2
 7266 01b0 1846     		mov	r0, r3
 7267 01b2 FFF7FEFF 		bl	TranslateSpecialFuncionDigit
 7268 01b6 0346     		mov	r3, r0
 7269 01b8 1B01     		lsls	r3, r3, #4
 7270 01ba DCB2     		uxtb	r4, r3
1778:.\EncoreImpl.c ****                             (TranslateSpecialFuncionDigit(pjob->_ppump->_rxbuffer[0x09 + (2*blkinde
 7271              		.loc 1 1778 0
 7272 01bc BB69     		ldr	r3, [r7, #24]
 7273 01be DA69     		ldr	r2, [r3, #28]
 7274 01c0 FB7B     		ldrb	r3, [r7, #15]	@ zero_extendqisi2
 7275 01c2 0533     		adds	r3, r3, #5
 7276 01c4 5B00     		lsls	r3, r3, #1
 7277 01c6 1344     		add	r3, r3, r2
 7278 01c8 93F8A031 		ldrb	r3, [r3, #416]	@ zero_extendqisi2
 7279 01cc 1846     		mov	r0, r3
 7280 01ce FFF7FEFF 		bl	TranslateSpecialFuncionDigit
 7281 01d2 0346     		mov	r3, r0
1777:.\EncoreImpl.c ****                             (TranslateSpecialFuncionDigit(pjob->_ppump->_rxbuffer[0x09 + (2*blkinde
 7282              		.loc 1 1777 0
 7283 01d4 DBB2     		uxtb	r3, r3
 7284 01d6 03F00F03 		and	r3, r3, #15
 7285 01da DBB2     		uxtb	r3, r3
 7286 01dc 2246     		mov	r2, r4
 7287 01de 1343     		orrs	r3, r3, r2
 7288 01e0 DBB2     		uxtb	r3, r3
 7289 01e2 DAB2     		uxtb	r2, r3
 7290 01e4 3B69     		ldr	r3, [r7, #16]
 7291 01e6 1A70     		strb	r2, [r3]
1779:.\EncoreImpl.c **** 
1780:.\EncoreImpl.c ****             //1
1781:.\EncoreImpl.c ****             ptreeprom++;
 7292              		.loc 1 1781 0
 7293 01e8 3B69     		ldr	r3, [r7, #16]
 7294 01ea 0133     		adds	r3, r3, #1
 7295 01ec 3B61     		str	r3, [r7, #16]
1782:.\EncoreImpl.c ****             blkindex++;
 7296              		.loc 1 1782 0
 7297 01ee FB7B     		ldrb	r3, [r7, #15]	@ zero_extendqisi2
 7298 01f0 0133     		adds	r3, r3, #1
 7299 01f2 FB73     		strb	r3, [r7, #15]
ARM GAS  C:\Users\RECEPC~1\AppData\Local\Temp\ccMZb0bC.s 			page 161


1783:.\EncoreImpl.c ****             //Conversion Factor Code
1784:.\EncoreImpl.c ****             *ptreeprom = ((TranslateSpecialFuncionDigit(pjob->_ppump->_rxbuffer[0x09 + 2*blkindex])
 7300              		.loc 1 1784 0
 7301 01f4 BB69     		ldr	r3, [r7, #24]
 7302 01f6 DA69     		ldr	r2, [r3, #28]
 7303 01f8 FB7B     		ldrb	r3, [r7, #15]	@ zero_extendqisi2
 7304 01fa 5B00     		lsls	r3, r3, #1
 7305 01fc 0933     		adds	r3, r3, #9
 7306 01fe 1344     		add	r3, r3, r2
 7307 0200 93F8A031 		ldrb	r3, [r3, #416]	@ zero_extendqisi2
 7308 0204 1846     		mov	r0, r3
 7309 0206 FFF7FEFF 		bl	TranslateSpecialFuncionDigit
 7310 020a 0346     		mov	r3, r0
 7311 020c 1B01     		lsls	r3, r3, #4
 7312 020e DCB2     		uxtb	r4, r3
1785:.\EncoreImpl.c ****                             (TranslateSpecialFuncionDigit(pjob->_ppump->_rxbuffer[0x09 + (2*blkinde
 7313              		.loc 1 1785 0
 7314 0210 BB69     		ldr	r3, [r7, #24]
 7315 0212 DA69     		ldr	r2, [r3, #28]
 7316 0214 FB7B     		ldrb	r3, [r7, #15]	@ zero_extendqisi2
 7317 0216 0533     		adds	r3, r3, #5
 7318 0218 5B00     		lsls	r3, r3, #1
 7319 021a 1344     		add	r3, r3, r2
 7320 021c 93F8A031 		ldrb	r3, [r3, #416]	@ zero_extendqisi2
 7321 0220 1846     		mov	r0, r3
 7322 0222 FFF7FEFF 		bl	TranslateSpecialFuncionDigit
 7323 0226 0346     		mov	r3, r0
1784:.\EncoreImpl.c ****                             (TranslateSpecialFuncionDigit(pjob->_ppump->_rxbuffer[0x09 + (2*blkinde
 7324              		.loc 1 1784 0
 7325 0228 DBB2     		uxtb	r3, r3
 7326 022a 03F00F03 		and	r3, r3, #15
 7327 022e DBB2     		uxtb	r3, r3
 7328 0230 2246     		mov	r2, r4
 7329 0232 1343     		orrs	r3, r3, r2
 7330 0234 DBB2     		uxtb	r3, r3
 7331 0236 DAB2     		uxtb	r2, r3
 7332 0238 3B69     		ldr	r3, [r7, #16]
 7333 023a 1A70     		strb	r2, [r3]
1786:.\EncoreImpl.c **** 
1787:.\EncoreImpl.c ****             //2
1788:.\EncoreImpl.c ****             ptreeprom++;
 7334              		.loc 1 1788 0
 7335 023c 3B69     		ldr	r3, [r7, #16]
 7336 023e 0133     		adds	r3, r3, #1
 7337 0240 3B61     		str	r3, [r7, #16]
1789:.\EncoreImpl.c ****             blkindex++;
 7338              		.loc 1 1789 0
 7339 0242 FB7B     		ldrb	r3, [r7, #15]	@ zero_extendqisi2
 7340 0244 0133     		adds	r3, r3, #1
 7341 0246 FB73     		strb	r3, [r7, #15]
1790:.\EncoreImpl.c ****             //Money Decimal Point Code
1791:.\EncoreImpl.c ****             *ptreeprom = ((TranslateSpecialFuncionDigit(pjob->_ppump->_rxbuffer[0x09 + 2*blkindex])
 7342              		.loc 1 1791 0
 7343 0248 BB69     		ldr	r3, [r7, #24]
 7344 024a DA69     		ldr	r2, [r3, #28]
 7345 024c FB7B     		ldrb	r3, [r7, #15]	@ zero_extendqisi2
 7346 024e 5B00     		lsls	r3, r3, #1
ARM GAS  C:\Users\RECEPC~1\AppData\Local\Temp\ccMZb0bC.s 			page 162


 7347 0250 0933     		adds	r3, r3, #9
 7348 0252 1344     		add	r3, r3, r2
 7349 0254 93F8A031 		ldrb	r3, [r3, #416]	@ zero_extendqisi2
 7350 0258 1846     		mov	r0, r3
 7351 025a FFF7FEFF 		bl	TranslateSpecialFuncionDigit
 7352 025e 0346     		mov	r3, r0
 7353 0260 1B01     		lsls	r3, r3, #4
 7354 0262 DCB2     		uxtb	r4, r3
1792:.\EncoreImpl.c ****                             (TranslateSpecialFuncionDigit(pjob->_ppump->_rxbuffer[0x09 + (2*blkinde
 7355              		.loc 1 1792 0
 7356 0264 BB69     		ldr	r3, [r7, #24]
 7357 0266 DA69     		ldr	r2, [r3, #28]
 7358 0268 FB7B     		ldrb	r3, [r7, #15]	@ zero_extendqisi2
 7359 026a 0533     		adds	r3, r3, #5
 7360 026c 5B00     		lsls	r3, r3, #1
 7361 026e 1344     		add	r3, r3, r2
 7362 0270 93F8A031 		ldrb	r3, [r3, #416]	@ zero_extendqisi2
 7363 0274 1846     		mov	r0, r3
 7364 0276 FFF7FEFF 		bl	TranslateSpecialFuncionDigit
 7365 027a 0346     		mov	r3, r0
1791:.\EncoreImpl.c ****                             (TranslateSpecialFuncionDigit(pjob->_ppump->_rxbuffer[0x09 + (2*blkinde
 7366              		.loc 1 1791 0
 7367 027c DBB2     		uxtb	r3, r3
 7368 027e 03F00F03 		and	r3, r3, #15
 7369 0282 DBB2     		uxtb	r3, r3
 7370 0284 2246     		mov	r2, r4
 7371 0286 1343     		orrs	r3, r3, r2
 7372 0288 DBB2     		uxtb	r3, r3
 7373 028a DAB2     		uxtb	r2, r3
 7374 028c 3B69     		ldr	r3, [r7, #16]
 7375 028e 1A70     		strb	r2, [r3]
1793:.\EncoreImpl.c ****                             
1794:.\EncoreImpl.c ****             //3
1795:.\EncoreImpl.c ****             ptreeprom++;
 7376              		.loc 1 1795 0
 7377 0290 3B69     		ldr	r3, [r7, #16]
 7378 0292 0133     		adds	r3, r3, #1
 7379 0294 3B61     		str	r3, [r7, #16]
1796:.\EncoreImpl.c ****             blkindex++;
 7380              		.loc 1 1796 0
 7381 0296 FB7B     		ldrb	r3, [r7, #15]	@ zero_extendqisi2
 7382 0298 0133     		adds	r3, r3, #1
 7383 029a FB73     		strb	r3, [r7, #15]
1797:.\EncoreImpl.c ****             //Volume Decimal Point Code
1798:.\EncoreImpl.c ****             *ptreeprom = ((TranslateSpecialFuncionDigit(pjob->_ppump->_rxbuffer[0x09 + 2*blkindex])
 7384              		.loc 1 1798 0
 7385 029c BB69     		ldr	r3, [r7, #24]
 7386 029e DA69     		ldr	r2, [r3, #28]
 7387 02a0 FB7B     		ldrb	r3, [r7, #15]	@ zero_extendqisi2
 7388 02a2 5B00     		lsls	r3, r3, #1
 7389 02a4 0933     		adds	r3, r3, #9
 7390 02a6 1344     		add	r3, r3, r2
 7391 02a8 93F8A031 		ldrb	r3, [r3, #416]	@ zero_extendqisi2
 7392 02ac 1846     		mov	r0, r3
 7393 02ae FFF7FEFF 		bl	TranslateSpecialFuncionDigit
 7394 02b2 0346     		mov	r3, r0
 7395 02b4 1B01     		lsls	r3, r3, #4
ARM GAS  C:\Users\RECEPC~1\AppData\Local\Temp\ccMZb0bC.s 			page 163


 7396 02b6 DCB2     		uxtb	r4, r3
1799:.\EncoreImpl.c ****                             (TranslateSpecialFuncionDigit(pjob->_ppump->_rxbuffer[0x09 + (2*blkinde
 7397              		.loc 1 1799 0
 7398 02b8 BB69     		ldr	r3, [r7, #24]
 7399 02ba DA69     		ldr	r2, [r3, #28]
 7400 02bc FB7B     		ldrb	r3, [r7, #15]	@ zero_extendqisi2
 7401 02be 0533     		adds	r3, r3, #5
 7402 02c0 5B00     		lsls	r3, r3, #1
 7403 02c2 1344     		add	r3, r3, r2
 7404 02c4 93F8A031 		ldrb	r3, [r3, #416]	@ zero_extendqisi2
 7405 02c8 1846     		mov	r0, r3
 7406 02ca FFF7FEFF 		bl	TranslateSpecialFuncionDigit
 7407 02ce 0346     		mov	r3, r0
1798:.\EncoreImpl.c ****                             (TranslateSpecialFuncionDigit(pjob->_ppump->_rxbuffer[0x09 + (2*blkinde
 7408              		.loc 1 1798 0
 7409 02d0 DBB2     		uxtb	r3, r3
 7410 02d2 03F00F03 		and	r3, r3, #15
 7411 02d6 DBB2     		uxtb	r3, r3
 7412 02d8 2246     		mov	r2, r4
 7413 02da 1343     		orrs	r3, r3, r2
 7414 02dc DBB2     		uxtb	r3, r3
 7415 02de DAB2     		uxtb	r2, r3
 7416 02e0 3B69     		ldr	r3, [r7, #16]
 7417 02e2 1A70     		strb	r2, [r3]
1800:.\EncoreImpl.c ****             
1801:.\EncoreImpl.c ****             //4
1802:.\EncoreImpl.c ****             ptreeprom++;
 7418              		.loc 1 1802 0
 7419 02e4 3B69     		ldr	r3, [r7, #16]
 7420 02e6 0133     		adds	r3, r3, #1
 7421 02e8 3B61     		str	r3, [r7, #16]
1803:.\EncoreImpl.c ****             blkindex++;
 7422              		.loc 1 1803 0
 7423 02ea FB7B     		ldrb	r3, [r7, #15]	@ zero_extendqisi2
 7424 02ec 0133     		adds	r3, r3, #1
 7425 02ee FB73     		strb	r3, [r7, #15]
1804:.\EncoreImpl.c ****             //PPU Decimal Point Code
1805:.\EncoreImpl.c ****             *ptreeprom = ((TranslateSpecialFuncionDigit(pjob->_ppump->_rxbuffer[0x09 + 2*blkindex])
 7426              		.loc 1 1805 0
 7427 02f0 BB69     		ldr	r3, [r7, #24]
 7428 02f2 DA69     		ldr	r2, [r3, #28]
 7429 02f4 FB7B     		ldrb	r3, [r7, #15]	@ zero_extendqisi2
 7430 02f6 5B00     		lsls	r3, r3, #1
 7431 02f8 0933     		adds	r3, r3, #9
 7432 02fa 1344     		add	r3, r3, r2
 7433 02fc 93F8A031 		ldrb	r3, [r3, #416]	@ zero_extendqisi2
 7434 0300 1846     		mov	r0, r3
 7435 0302 FFF7FEFF 		bl	TranslateSpecialFuncionDigit
 7436 0306 0346     		mov	r3, r0
 7437 0308 1B01     		lsls	r3, r3, #4
 7438 030a DCB2     		uxtb	r4, r3
1806:.\EncoreImpl.c ****                             (TranslateSpecialFuncionDigit(pjob->_ppump->_rxbuffer[0x09 + (2*blkinde
 7439              		.loc 1 1806 0
 7440 030c BB69     		ldr	r3, [r7, #24]
 7441 030e DA69     		ldr	r2, [r3, #28]
 7442 0310 FB7B     		ldrb	r3, [r7, #15]	@ zero_extendqisi2
 7443 0312 0533     		adds	r3, r3, #5
ARM GAS  C:\Users\RECEPC~1\AppData\Local\Temp\ccMZb0bC.s 			page 164


 7444 0314 5B00     		lsls	r3, r3, #1
 7445 0316 1344     		add	r3, r3, r2
 7446 0318 93F8A031 		ldrb	r3, [r3, #416]	@ zero_extendqisi2
 7447 031c 1846     		mov	r0, r3
 7448 031e FFF7FEFF 		bl	TranslateSpecialFuncionDigit
 7449 0322 0346     		mov	r3, r0
1805:.\EncoreImpl.c ****                             (TranslateSpecialFuncionDigit(pjob->_ppump->_rxbuffer[0x09 + (2*blkinde
 7450              		.loc 1 1805 0
 7451 0324 DBB2     		uxtb	r3, r3
 7452 0326 03F00F03 		and	r3, r3, #15
 7453 032a DBB2     		uxtb	r3, r3
 7454 032c 2246     		mov	r2, r4
 7455 032e 1343     		orrs	r3, r3, r2
 7456 0330 DBB2     		uxtb	r3, r3
 7457 0332 DAB2     		uxtb	r2, r3
 7458 0334 3B69     		ldr	r3, [r7, #16]
 7459 0336 1A70     		strb	r2, [r3]
1807:.\EncoreImpl.c **** 
1808:.\EncoreImpl.c ****             //5
1809:.\EncoreImpl.c ****             ptreeprom++;
 7460              		.loc 1 1809 0
 7461 0338 3B69     		ldr	r3, [r7, #16]
 7462 033a 0133     		adds	r3, r3, #1
 7463 033c 3B61     		str	r3, [r7, #16]
1810:.\EncoreImpl.c ****             blkindex++;
 7464              		.loc 1 1810 0
 7465 033e FB7B     		ldrb	r3, [r7, #15]	@ zero_extendqisi2
 7466 0340 0133     		adds	r3, r3, #1
 7467 0342 FB73     		strb	r3, [r7, #15]
1811:.\EncoreImpl.c ****             //5/6/7/8 Digit Money Mode
1812:.\EncoreImpl.c ****             *ptreeprom = ((TranslateSpecialFuncionDigit(pjob->_ppump->_rxbuffer[0x09 + 2*blkindex])
 7468              		.loc 1 1812 0
 7469 0344 BB69     		ldr	r3, [r7, #24]
 7470 0346 DA69     		ldr	r2, [r3, #28]
 7471 0348 FB7B     		ldrb	r3, [r7, #15]	@ zero_extendqisi2
 7472 034a 5B00     		lsls	r3, r3, #1
 7473 034c 0933     		adds	r3, r3, #9
 7474 034e 1344     		add	r3, r3, r2
 7475 0350 93F8A031 		ldrb	r3, [r3, #416]	@ zero_extendqisi2
 7476 0354 1846     		mov	r0, r3
 7477 0356 FFF7FEFF 		bl	TranslateSpecialFuncionDigit
 7478 035a 0346     		mov	r3, r0
 7479 035c 1B01     		lsls	r3, r3, #4
 7480 035e DCB2     		uxtb	r4, r3
1813:.\EncoreImpl.c ****                             (TranslateSpecialFuncionDigit(pjob->_ppump->_rxbuffer[0x09 + (2*blkinde
 7481              		.loc 1 1813 0
 7482 0360 BB69     		ldr	r3, [r7, #24]
 7483 0362 DA69     		ldr	r2, [r3, #28]
 7484 0364 FB7B     		ldrb	r3, [r7, #15]	@ zero_extendqisi2
 7485 0366 0533     		adds	r3, r3, #5
 7486 0368 5B00     		lsls	r3, r3, #1
 7487 036a 1344     		add	r3, r3, r2
 7488 036c 93F8A031 		ldrb	r3, [r3, #416]	@ zero_extendqisi2
 7489 0370 1846     		mov	r0, r3
 7490 0372 FFF7FEFF 		bl	TranslateSpecialFuncionDigit
 7491 0376 0346     		mov	r3, r0
1812:.\EncoreImpl.c ****                             (TranslateSpecialFuncionDigit(pjob->_ppump->_rxbuffer[0x09 + (2*blkinde
ARM GAS  C:\Users\RECEPC~1\AppData\Local\Temp\ccMZb0bC.s 			page 165


 7492              		.loc 1 1812 0
 7493 0378 DBB2     		uxtb	r3, r3
 7494 037a 03F00F03 		and	r3, r3, #15
 7495 037e DBB2     		uxtb	r3, r3
 7496 0380 2246     		mov	r2, r4
 7497 0382 1343     		orrs	r3, r3, r2
 7498 0384 DBB2     		uxtb	r3, r3
 7499 0386 DAB2     		uxtb	r2, r3
 7500 0388 3B69     		ldr	r3, [r7, #16]
 7501 038a 1A70     		strb	r2, [r3]
1814:.\EncoreImpl.c **** 
1815:.\EncoreImpl.c ****             //6
1816:.\EncoreImpl.c ****             ptreeprom++;
 7502              		.loc 1 1816 0
 7503 038c 3B69     		ldr	r3, [r7, #16]
 7504 038e 0133     		adds	r3, r3, #1
 7505 0390 3B61     		str	r3, [r7, #16]
1817:.\EncoreImpl.c ****             blkindex++;
 7506              		.loc 1 1817 0
 7507 0392 FB7B     		ldrb	r3, [r7, #15]	@ zero_extendqisi2
 7508 0394 0133     		adds	r3, r3, #1
 7509 0396 FB73     		strb	r3, [r7, #15]
1818:.\EncoreImpl.c ****             //Auto On/Push to Start Mode
1819:.\EncoreImpl.c ****             *ptreeprom = ((TranslateSpecialFuncionDigit(pjob->_ppump->_rxbuffer[0x09 + 2*blkindex])
 7510              		.loc 1 1819 0
 7511 0398 BB69     		ldr	r3, [r7, #24]
 7512 039a DA69     		ldr	r2, [r3, #28]
 7513 039c FB7B     		ldrb	r3, [r7, #15]	@ zero_extendqisi2
 7514 039e 5B00     		lsls	r3, r3, #1
 7515 03a0 0933     		adds	r3, r3, #9
 7516 03a2 1344     		add	r3, r3, r2
 7517 03a4 93F8A031 		ldrb	r3, [r3, #416]	@ zero_extendqisi2
 7518 03a8 1846     		mov	r0, r3
 7519 03aa FFF7FEFF 		bl	TranslateSpecialFuncionDigit
 7520 03ae 0346     		mov	r3, r0
 7521 03b0 1B01     		lsls	r3, r3, #4
 7522 03b2 DCB2     		uxtb	r4, r3
1820:.\EncoreImpl.c ****                             (TranslateSpecialFuncionDigit(pjob->_ppump->_rxbuffer[0x09 + (2*blkinde
 7523              		.loc 1 1820 0
 7524 03b4 BB69     		ldr	r3, [r7, #24]
 7525 03b6 DA69     		ldr	r2, [r3, #28]
 7526 03b8 FB7B     		ldrb	r3, [r7, #15]	@ zero_extendqisi2
 7527 03ba 0533     		adds	r3, r3, #5
 7528 03bc 5B00     		lsls	r3, r3, #1
 7529 03be 1344     		add	r3, r3, r2
 7530 03c0 93F8A031 		ldrb	r3, [r3, #416]	@ zero_extendqisi2
 7531 03c4 1846     		mov	r0, r3
 7532 03c6 FFF7FEFF 		bl	TranslateSpecialFuncionDigit
 7533 03ca 0346     		mov	r3, r0
1819:.\EncoreImpl.c ****                             (TranslateSpecialFuncionDigit(pjob->_ppump->_rxbuffer[0x09 + (2*blkinde
 7534              		.loc 1 1819 0
 7535 03cc DBB2     		uxtb	r3, r3
 7536 03ce 03F00F03 		and	r3, r3, #15
 7537 03d2 DBB2     		uxtb	r3, r3
 7538 03d4 2246     		mov	r2, r4
 7539 03d6 1343     		orrs	r3, r3, r2
 7540 03d8 DBB2     		uxtb	r3, r3
ARM GAS  C:\Users\RECEPC~1\AppData\Local\Temp\ccMZb0bC.s 			page 166


 7541 03da DAB2     		uxtb	r2, r3
 7542 03dc 3B69     		ldr	r3, [r7, #16]
 7543 03de 1A70     		strb	r2, [r3]
1821:.\EncoreImpl.c **** 
1822:.\EncoreImpl.c **** 
1823:.\EncoreImpl.c ****             //STORING BACK THE EEPROM PAGE
1824:.\EncoreImpl.c ****             StoreEepromPage(eeprompumpconfigmemorypageid);
 7544              		.loc 1 1824 0
 7545 03e0 BB8B     		ldrh	r3, [r7, #28]
 7546 03e2 1846     		mov	r0, r3
 7547 03e4 FFF7FEFF 		bl	StoreEepromPage
1825:.\EncoreImpl.c ****             AcquireDispenserLayoutInformation(&GetEepromBuffer()[0x10]);
 7548              		.loc 1 1825 0
 7549 03e8 FFF7FEFF 		bl	GetEepromBuffer
 7550 03ec 0346     		mov	r3, r0
 7551 03ee 1033     		adds	r3, r3, #16
 7552 03f0 1846     		mov	r0, r3
 7553 03f2 FFF7FEFF 		bl	AcquireDispenserLayoutInformation
1826:.\EncoreImpl.c ****          
1827:.\EncoreImpl.c ****             _g_dispenserlayoutinfo._inconfiguration = false;
 7554              		.loc 1 1827 0
 7555 03f6 164B     		ldr	r3, .L271
 7556 03f8 0022     		movs	r2, #0
 7557 03fa 1A70     		strb	r2, [r3]
1828:.\EncoreImpl.c ****             _ALLOCATE_SINKMESSAGE_SLOT(psinkmsg);
 7558              		.loc 1 1828 0
 7559 03fc FFF7FEFF 		bl	AllocateMessageSlot
 7560 0400 B860     		str	r0, [r7, #8]
1829:.\EncoreImpl.c ****             if(psinkmsg)
 7561              		.loc 1 1829 0
 7562 0402 BB68     		ldr	r3, [r7, #8]
 7563 0404 002B     		cmp	r3, #0
 7564 0406 0CD0     		beq	.L270
1830:.\EncoreImpl.c ****             {
1831:.\EncoreImpl.c ****                 psinkmsg->_messageid = DISPENSER_LOAD_EEPROM_SETTINGS;
 7565              		.loc 1 1831 0
 7566 0408 BB68     		ldr	r3, [r7, #8]
 7567 040a 0D22     		movs	r2, #13
 7568 040c 5A70     		strb	r2, [r3, #1]
1832:.\EncoreImpl.c ****                 psinkmsg->_messagedelay = _SINK_TIMEOUT_1S_;
 7569              		.loc 1 1832 0
 7570 040e BB68     		ldr	r3, [r7, #8]
 7571 0410 4FF47A72 		mov	r2, #1000
 7572 0414 9A80     		strh	r2, [r3, #4]	@ movhi
1833:.\EncoreImpl.c ****                 psinkmsg->_messagetype = FIRSTFOUND;
 7573              		.loc 1 1833 0
 7574 0416 BB68     		ldr	r3, [r7, #8]
 7575 0418 0322     		movs	r2, #3
 7576 041a 9A70     		strb	r2, [r3, #2]
1834:.\EncoreImpl.c ****                 psinkmsg->_messagestate = SINK_BUSY;
 7577              		.loc 1 1834 0
 7578 041c BB68     		ldr	r3, [r7, #8]
 7579 041e 0322     		movs	r2, #3
 7580 0420 DA70     		strb	r2, [r3, #3]
 7581              	.L270:
1835:.\EncoreImpl.c ****             }
1836:.\EncoreImpl.c ****             
ARM GAS  C:\Users\RECEPC~1\AppData\Local\Temp\ccMZb0bC.s 			page 167


1837:.\EncoreImpl.c ****             _REALLOCATE_SINKMESSAGE_SLOT(psinkmsg);
 7582              		.loc 1 1837 0
 7583 0422 FFF7FEFF 		bl	AllocateMessageSlot
 7584 0426 B860     		str	r0, [r7, #8]
1838:.\EncoreImpl.c ****             if(psinkmsg)
 7585              		.loc 1 1838 0
 7586 0428 BB68     		ldr	r3, [r7, #8]
 7587 042a 002B     		cmp	r3, #0
 7588 042c 0CD0     		beq	.L260
1839:.\EncoreImpl.c ****             {
1840:.\EncoreImpl.c ****                 psinkmsg->_messageid = DISPENSER_CONFIGURE_PRICES;
 7589              		.loc 1 1840 0
 7590 042e BB68     		ldr	r3, [r7, #8]
 7591 0430 1022     		movs	r2, #16
 7592 0432 5A70     		strb	r2, [r3, #1]
1841:.\EncoreImpl.c ****                 psinkmsg->_messagedelay = _SINK_TIMEOUT_2S_;
 7593              		.loc 1 1841 0
 7594 0434 BB68     		ldr	r3, [r7, #8]
 7595 0436 4FF4FA62 		mov	r2, #2000
 7596 043a 9A80     		strh	r2, [r3, #4]	@ movhi
1842:.\EncoreImpl.c ****                 psinkmsg->_messagetype = FIRSTFOUND;
 7597              		.loc 1 1842 0
 7598 043c BB68     		ldr	r3, [r7, #8]
 7599 043e 0322     		movs	r2, #3
 7600 0440 9A70     		strb	r2, [r3, #2]
1843:.\EncoreImpl.c ****                 psinkmsg->_messagestate = SINK_BUSY;
 7601              		.loc 1 1843 0
 7602 0442 BB68     		ldr	r3, [r7, #8]
 7603 0444 0322     		movs	r2, #3
 7604 0446 DA70     		strb	r2, [r3, #3]
 7605              	.L260:
 7606              	.LBE55:
 7607              	.LBE54:
1844:.\EncoreImpl.c ****             }
1845:.\EncoreImpl.c ****         }
1846:.\EncoreImpl.c ****     }
1847:.\EncoreImpl.c **** }
 7608              		.loc 1 1847 0
 7609 0448 2437     		adds	r7, r7, #36
 7610              		.cfi_def_cfa_offset 12
 7611 044a BD46     		mov	sp, r7
 7612              		.cfi_def_cfa_register 13
 7613              		@ sp needed
 7614 044c 90BD     		pop	{r4, r7, pc}
 7615              	.L272:
 7616 044e 00BF     		.align	2
 7617              	.L271:
 7618 0450 00000000 		.word	_g_dispenserlayoutinfo
 7619              		.cfi_endproc
 7620              	.LFE91:
 7621              		.size	AcquirePumpCompleteConfiguration, .-AcquirePumpCompleteConfiguration
 7622              		.section	.text.AcquireDispenserLayoutInformation,"ax",%progbits
 7623              		.align	2
 7624              		.global	AcquireDispenserLayoutInformation
 7625              		.thumb
 7626              		.thumb_func
 7627              		.type	AcquireDispenserLayoutInformation, %function
ARM GAS  C:\Users\RECEPC~1\AppData\Local\Temp\ccMZb0bC.s 			page 168


 7628              	AcquireDispenserLayoutInformation:
 7629              	.LFB92:
1848:.\EncoreImpl.c **** 
1849:.\EncoreImpl.c **** //@Created By: HIJH
1850:.\EncoreImpl.c **** //@Septembre de 2016
1851:.\EncoreImpl.c **** void AcquireDispenserLayoutInformation(LPVOID pparam)
1852:.\EncoreImpl.c **** {
 7630              		.loc 1 1852 0
 7631              		.cfi_startproc
 7632              		@ args = 0, pretend = 0, frame = 16
 7633              		@ frame_needed = 1, uses_anonymous_args = 0
 7634              		@ link register save eliminated.
 7635 0000 80B4     		push	{r7}
 7636              		.cfi_def_cfa_offset 4
 7637              		.cfi_offset 7, -4
 7638 0002 85B0     		sub	sp, sp, #20
 7639              		.cfi_def_cfa_offset 24
 7640 0004 00AF     		add	r7, sp, #0
 7641              		.cfi_def_cfa_register 7
 7642 0006 7860     		str	r0, [r7, #4]
1853:.\EncoreImpl.c ****     LPRAWPTR ptrbuff = (LPRAWPTR)pparam;
 7643              		.loc 1 1853 0
 7644 0008 7B68     		ldr	r3, [r7, #4]
 7645 000a FB60     		str	r3, [r7, #12]
1854:.\EncoreImpl.c ****     
1855:.\EncoreImpl.c ****     _g_dispenserlayoutinfo._hosesposition3 = 0x00;
 7646              		.loc 1 1855 0
 7647 000c AF4B     		ldr	r3, .L318
 7648 000e 0022     		movs	r2, #0
 7649 0010 5A71     		strb	r2, [r3, #5]
1856:.\EncoreImpl.c ****     _g_dispenserlayoutinfo._hosesposition4 = 0x00;
 7650              		.loc 1 1856 0
 7651 0012 AE4B     		ldr	r3, .L318
 7652 0014 0022     		movs	r2, #0
 7653 0016 9A71     		strb	r2, [r3, #6]
1857:.\EncoreImpl.c ****     //PLEASE CHECK THE DOCUMENTATION TO UNDERSTAND THE COMPARISON VALUES
1858:.\EncoreImpl.c ****     switch(ptrbuff[0x00])
 7654              		.loc 1 1858 0
 7655 0018 FB68     		ldr	r3, [r7, #12]
 7656 001a 1B78     		ldrb	r3, [r3]	@ zero_extendqisi2
 7657 001c 103B     		subs	r3, r3, #16
 7658 001e 172B     		cmp	r3, #23
 7659 0020 00F29680 		bhi	.L274
 7660 0024 01A2     		adr	r2, .L276
 7661 0026 52F823F0 		ldr	pc, [r2, r3, lsl #2]
 7662 002a 00BF     		.p2align 2
 7663              	.L276:
 7664 002c 8D000000 		.word	.L275+1
 7665 0030 9B000000 		.word	.L277+1
 7666 0034 A9000000 		.word	.L278+1
 7667 0038 B7000000 		.word	.L279+1
 7668 003c C5000000 		.word	.L280+1
 7669 0040 D3000000 		.word	.L281+1
 7670 0044 51010000 		.word	.L274+1
 7671 0048 51010000 		.word	.L274+1
 7672 004c 51010000 		.word	.L274+1
 7673 0050 51010000 		.word	.L274+1
ARM GAS  C:\Users\RECEPC~1\AppData\Local\Temp\ccMZb0bC.s 			page 169


 7674 0054 51010000 		.word	.L274+1
 7675 0058 51010000 		.word	.L274+1
 7676 005c 51010000 		.word	.L274+1
 7677 0060 51010000 		.word	.L274+1
 7678 0064 51010000 		.word	.L274+1
 7679 0068 51010000 		.word	.L274+1
 7680 006c E1000000 		.word	.L282+1
 7681 0070 EF000000 		.word	.L283+1
 7682 0074 FD000000 		.word	.L284+1
 7683 0078 0B010000 		.word	.L285+1
 7684 007c 19010000 		.word	.L286+1
 7685 0080 27010000 		.word	.L287+1
 7686 0084 35010000 		.word	.L288+1
 7687 0088 43010000 		.word	.L289+1
 7688              		.p2align 1
 7689              	.L275:
1859:.\EncoreImpl.c ****     {
1860:.\EncoreImpl.c ****         //Multi-Product Dispenser
1861:.\EncoreImpl.c ****         case 0x10://MPD with 1 grade/hose per side
1862:.\EncoreImpl.c ****         {
1863:.\EncoreImpl.c ****             _g_dispenserlayoutinfo._hosesposition1 = 0x01;
 7690              		.loc 1 1863 0
 7691 008c 8F4B     		ldr	r3, .L318
 7692 008e 0122     		movs	r2, #1
 7693 0090 DA70     		strb	r2, [r3, #3]
1864:.\EncoreImpl.c ****             _g_dispenserlayoutinfo._hosesposition2 = 0x01;
 7694              		.loc 1 1864 0
 7695 0092 8E4B     		ldr	r3, .L318
 7696 0094 0122     		movs	r2, #1
 7697 0096 1A71     		strb	r2, [r3, #4]
1865:.\EncoreImpl.c ****             break;
 7698              		.loc 1 1865 0
 7699 0098 5AE0     		b	.L274
 7700              	.L277:
1866:.\EncoreImpl.c ****         }
1867:.\EncoreImpl.c ****         case 0x11://MPD with 2 grades/hoses per side
1868:.\EncoreImpl.c ****         {
1869:.\EncoreImpl.c ****             _g_dispenserlayoutinfo._hosesposition1 = 0x02;
 7701              		.loc 1 1869 0
 7702 009a 8C4B     		ldr	r3, .L318
 7703 009c 0222     		movs	r2, #2
 7704 009e DA70     		strb	r2, [r3, #3]
1870:.\EncoreImpl.c ****             _g_dispenserlayoutinfo._hosesposition2 = 0x02;
 7705              		.loc 1 1870 0
 7706 00a0 8A4B     		ldr	r3, .L318
 7707 00a2 0222     		movs	r2, #2
 7708 00a4 1A71     		strb	r2, [r3, #4]
1871:.\EncoreImpl.c ****             break;
 7709              		.loc 1 1871 0
 7710 00a6 53E0     		b	.L274
 7711              	.L278:
1872:.\EncoreImpl.c ****         }
1873:.\EncoreImpl.c ****         case 0x12://MPD with 3 grades/hoses per side
1874:.\EncoreImpl.c ****         {
1875:.\EncoreImpl.c ****             _g_dispenserlayoutinfo._hosesposition1 = 0x03;
 7712              		.loc 1 1875 0
 7713 00a8 884B     		ldr	r3, .L318
ARM GAS  C:\Users\RECEPC~1\AppData\Local\Temp\ccMZb0bC.s 			page 170


 7714 00aa 0322     		movs	r2, #3
 7715 00ac DA70     		strb	r2, [r3, #3]
1876:.\EncoreImpl.c ****             _g_dispenserlayoutinfo._hosesposition2 = 0x03;
 7716              		.loc 1 1876 0
 7717 00ae 874B     		ldr	r3, .L318
 7718 00b0 0322     		movs	r2, #3
 7719 00b2 1A71     		strb	r2, [r3, #4]
1877:.\EncoreImpl.c ****             break;
 7720              		.loc 1 1877 0
 7721 00b4 4CE0     		b	.L274
 7722              	.L279:
1878:.\EncoreImpl.c ****         }
1879:.\EncoreImpl.c ****         case 0x13://MPD with 4 grades/hoses per side
1880:.\EncoreImpl.c ****         {
1881:.\EncoreImpl.c ****             _g_dispenserlayoutinfo._hosesposition1 = 0x04;
 7723              		.loc 1 1881 0
 7724 00b6 854B     		ldr	r3, .L318
 7725 00b8 0422     		movs	r2, #4
 7726 00ba DA70     		strb	r2, [r3, #3]
1882:.\EncoreImpl.c ****             _g_dispenserlayoutinfo._hosesposition2 = 0x04;
 7727              		.loc 1 1882 0
 7728 00bc 834B     		ldr	r3, .L318
 7729 00be 0422     		movs	r2, #4
 7730 00c0 1A71     		strb	r2, [r3, #4]
1883:.\EncoreImpl.c ****             break;
 7731              		.loc 1 1883 0
 7732 00c2 45E0     		b	.L274
 7733              	.L280:
1884:.\EncoreImpl.c ****         }
1885:.\EncoreImpl.c ****         case 0x14://MPD with 5 grades/hoses per side
1886:.\EncoreImpl.c ****         {
1887:.\EncoreImpl.c ****             _g_dispenserlayoutinfo._hosesposition1 = 0x05;
 7734              		.loc 1 1887 0
 7735 00c4 814B     		ldr	r3, .L318
 7736 00c6 0522     		movs	r2, #5
 7737 00c8 DA70     		strb	r2, [r3, #3]
1888:.\EncoreImpl.c ****             _g_dispenserlayoutinfo._hosesposition2 = 0x05;
 7738              		.loc 1 1888 0
 7739 00ca 804B     		ldr	r3, .L318
 7740 00cc 0522     		movs	r2, #5
 7741 00ce 1A71     		strb	r2, [r3, #4]
1889:.\EncoreImpl.c ****             break;
 7742              		.loc 1 1889 0
 7743 00d0 3EE0     		b	.L274
 7744              	.L281:
1890:.\EncoreImpl.c ****         }
1891:.\EncoreImpl.c ****         case 0x15://MPD with 6 grades/hoses per side
1892:.\EncoreImpl.c ****         {
1893:.\EncoreImpl.c ****             _g_dispenserlayoutinfo._hosesposition1 = 0x05;
 7745              		.loc 1 1893 0
 7746 00d2 7E4B     		ldr	r3, .L318
 7747 00d4 0522     		movs	r2, #5
 7748 00d6 DA70     		strb	r2, [r3, #3]
1894:.\EncoreImpl.c ****             _g_dispenserlayoutinfo._hosesposition2 = 0x05;
 7749              		.loc 1 1894 0
 7750 00d8 7C4B     		ldr	r3, .L318
 7751 00da 0522     		movs	r2, #5
ARM GAS  C:\Users\RECEPC~1\AppData\Local\Temp\ccMZb0bC.s 			page 171


 7752 00dc 1A71     		strb	r2, [r3, #4]
1895:.\EncoreImpl.c ****             break;
 7753              		.loc 1 1895 0
 7754 00de 37E0     		b	.L274
 7755              	.L282:
1896:.\EncoreImpl.c ****         }
1897:.\EncoreImpl.c ****         //Single-Hose Multi-Product Dispenser
1898:.\EncoreImpl.c ****         case 0x20://SHMPD 2+0 (2 grades, 1 hose/side)
1899:.\EncoreImpl.c ****         {
1900:.\EncoreImpl.c ****             _g_dispenserlayoutinfo._hosesposition1 = 0x01;
 7756              		.loc 1 1900 0
 7757 00e0 7A4B     		ldr	r3, .L318
 7758 00e2 0122     		movs	r2, #1
 7759 00e4 DA70     		strb	r2, [r3, #3]
1901:.\EncoreImpl.c ****             _g_dispenserlayoutinfo._hosesposition2 = 0x01;
 7760              		.loc 1 1901 0
 7761 00e6 794B     		ldr	r3, .L318
 7762 00e8 0122     		movs	r2, #1
 7763 00ea 1A71     		strb	r2, [r3, #4]
1902:.\EncoreImpl.c ****             break;
 7764              		.loc 1 1902 0
 7765 00ec 30E0     		b	.L274
 7766              	.L283:
1903:.\EncoreImpl.c ****         }
1904:.\EncoreImpl.c ****         case 0x21://SHMPD 2+1 (3 grades, 2 hoses/side)
1905:.\EncoreImpl.c ****         {
1906:.\EncoreImpl.c ****             _g_dispenserlayoutinfo._hosesposition1 = 0x02;
 7767              		.loc 1 1906 0
 7768 00ee 774B     		ldr	r3, .L318
 7769 00f0 0222     		movs	r2, #2
 7770 00f2 DA70     		strb	r2, [r3, #3]
1907:.\EncoreImpl.c ****             _g_dispenserlayoutinfo._hosesposition2 = 0x02;
 7771              		.loc 1 1907 0
 7772 00f4 754B     		ldr	r3, .L318
 7773 00f6 0222     		movs	r2, #2
 7774 00f8 1A71     		strb	r2, [r3, #4]
1908:.\EncoreImpl.c ****             break;
 7775              		.loc 1 1908 0
 7776 00fa 29E0     		b	.L274
 7777              	.L284:
1909:.\EncoreImpl.c ****         }
1910:.\EncoreImpl.c ****         case 0x22://SHMPD 3+0 (3 grades, 1 hose/side)
1911:.\EncoreImpl.c ****         {
1912:.\EncoreImpl.c ****             _g_dispenserlayoutinfo._hosesposition1 = 0x01;
 7778              		.loc 1 1912 0
 7779 00fc 734B     		ldr	r3, .L318
 7780 00fe 0122     		movs	r2, #1
 7781 0100 DA70     		strb	r2, [r3, #3]
1913:.\EncoreImpl.c ****             _g_dispenserlayoutinfo._hosesposition2 = 0x01;
 7782              		.loc 1 1913 0
 7783 0102 724B     		ldr	r3, .L318
 7784 0104 0122     		movs	r2, #1
 7785 0106 1A71     		strb	r2, [r3, #4]
1914:.\EncoreImpl.c ****             break;
 7786              		.loc 1 1914 0
 7787 0108 22E0     		b	.L274
 7788              	.L285:
ARM GAS  C:\Users\RECEPC~1\AppData\Local\Temp\ccMZb0bC.s 			page 172


1915:.\EncoreImpl.c ****         }
1916:.\EncoreImpl.c ****         case 0x23://SHMPD 3+1 (4 grades, 2 hoses/side)
1917:.\EncoreImpl.c ****         {
1918:.\EncoreImpl.c ****             _g_dispenserlayoutinfo._hosesposition1 = 0x02;
 7789              		.loc 1 1918 0
 7790 010a 704B     		ldr	r3, .L318
 7791 010c 0222     		movs	r2, #2
 7792 010e DA70     		strb	r2, [r3, #3]
1919:.\EncoreImpl.c ****             _g_dispenserlayoutinfo._hosesposition2 = 0x02;
 7793              		.loc 1 1919 0
 7794 0110 6E4B     		ldr	r3, .L318
 7795 0112 0222     		movs	r2, #2
 7796 0114 1A71     		strb	r2, [r3, #4]
1920:.\EncoreImpl.c ****             break;
 7797              		.loc 1 1920 0
 7798 0116 1BE0     		b	.L274
 7799              	.L286:
1921:.\EncoreImpl.c ****         }
1922:.\EncoreImpl.c ****         case 0x24://SHMPD 4+0 (4 grades, 1 hose/side)
1923:.\EncoreImpl.c ****         {
1924:.\EncoreImpl.c ****             _g_dispenserlayoutinfo._hosesposition1 = 0x01;
 7800              		.loc 1 1924 0
 7801 0118 6C4B     		ldr	r3, .L318
 7802 011a 0122     		movs	r2, #1
 7803 011c DA70     		strb	r2, [r3, #3]
1925:.\EncoreImpl.c ****             _g_dispenserlayoutinfo._hosesposition2 = 0x01;
 7804              		.loc 1 1925 0
 7805 011e 6B4B     		ldr	r3, .L318
 7806 0120 0122     		movs	r2, #1
 7807 0122 1A71     		strb	r2, [r3, #4]
1926:.\EncoreImpl.c ****             break;
 7808              		.loc 1 1926 0
 7809 0124 14E0     		b	.L274
 7810              	.L287:
1927:.\EncoreImpl.c ****         }
1928:.\EncoreImpl.c ****         case 0x25://SHMPD 4+1 (5 grades, 2 hoses/side)
1929:.\EncoreImpl.c ****         {
1930:.\EncoreImpl.c ****             _g_dispenserlayoutinfo._hosesposition1 = 0x02;
 7811              		.loc 1 1930 0
 7812 0126 694B     		ldr	r3, .L318
 7813 0128 0222     		movs	r2, #2
 7814 012a DA70     		strb	r2, [r3, #3]
1931:.\EncoreImpl.c ****             _g_dispenserlayoutinfo._hosesposition2 = 0x02;
 7815              		.loc 1 1931 0
 7816 012c 674B     		ldr	r3, .L318
 7817 012e 0222     		movs	r2, #2
 7818 0130 1A71     		strb	r2, [r3, #4]
1932:.\EncoreImpl.c ****             break;
 7819              		.loc 1 1932 0
 7820 0132 0DE0     		b	.L274
 7821              	.L288:
1933:.\EncoreImpl.c ****         }
1934:.\EncoreImpl.c ****         case 0x26://SHMPD 5+0 (5 grades, 1 hose/side)
1935:.\EncoreImpl.c ****         {
1936:.\EncoreImpl.c ****             _g_dispenserlayoutinfo._hosesposition1 = 0x01;
 7822              		.loc 1 1936 0
 7823 0134 654B     		ldr	r3, .L318
ARM GAS  C:\Users\RECEPC~1\AppData\Local\Temp\ccMZb0bC.s 			page 173


 7824 0136 0122     		movs	r2, #1
 7825 0138 DA70     		strb	r2, [r3, #3]
1937:.\EncoreImpl.c ****             _g_dispenserlayoutinfo._hosesposition2 = 0x01;
 7826              		.loc 1 1937 0
 7827 013a 644B     		ldr	r3, .L318
 7828 013c 0122     		movs	r2, #1
 7829 013e 1A71     		strb	r2, [r3, #4]
1938:.\EncoreImpl.c ****             break;
 7830              		.loc 1 1938 0
 7831 0140 06E0     		b	.L274
 7832              	.L289:
1939:.\EncoreImpl.c ****         }
1940:.\EncoreImpl.c ****         case 0x27://SHMPD 5+1 (6 grades, 2 hoses/side)
1941:.\EncoreImpl.c ****         {
1942:.\EncoreImpl.c ****             _g_dispenserlayoutinfo._hosesposition1 = 0x02;
 7833              		.loc 1 1942 0
 7834 0142 624B     		ldr	r3, .L318
 7835 0144 0222     		movs	r2, #2
 7836 0146 DA70     		strb	r2, [r3, #3]
1943:.\EncoreImpl.c ****             _g_dispenserlayoutinfo._hosesposition2 = 0x02;
 7837              		.loc 1 1943 0
 7838 0148 604B     		ldr	r3, .L318
 7839 014a 0222     		movs	r2, #2
 7840 014c 1A71     		strb	r2, [r3, #4]
1944:.\EncoreImpl.c ****             break;
 7841              		.loc 1 1944 0
 7842 014e 00BF     		nop
 7843              	.L274:
1945:.\EncoreImpl.c ****         }
1946:.\EncoreImpl.c ****         //MISSING (NOT NEEDED) ...
1947:.\EncoreImpl.c ****         //0x28 ~ 0x29
1948:.\EncoreImpl.c ****         //0x3X Multi-Hose Blender
1949:.\EncoreImpl.c ****         //0x4X Single-Hose Blender
1950:.\EncoreImpl.c ****         //0x50 MH Hybrid Blender
1951:.\EncoreImpl.c ****     }
1952:.\EncoreImpl.c **** 
1953:.\EncoreImpl.c ****     //0x01 => U.S. Gallons
1954:.\EncoreImpl.c ****     //0x02 => Imperial Gallons / UK Gallons
1955:.\EncoreImpl.c ****     //0x03 => Liters
1956:.\EncoreImpl.c ****     //0x04 => 1012 pulses/gallon (Hawaii, N/A for ECAL)
1957:.\EncoreImpl.c ****     _g_dispenserlayoutinfo._volumeunit = ptrbuff[0x01];
 7844              		.loc 1 1957 0
 7845 0150 FB68     		ldr	r3, [r7, #12]
 7846 0152 5A78     		ldrb	r2, [r3, #1]	@ zero_extendqisi2
 7847 0154 5D4B     		ldr	r3, .L318
 7848 0156 9A72     		strb	r2, [r3, #10]
1958:.\EncoreImpl.c ****     
1959:.\EncoreImpl.c ****     
1960:.\EncoreImpl.c ****     //Money Decimal Points
1961:.\EncoreImpl.c ****     switch(ptrbuff[0x02])
 7849              		.loc 1 1961 0
 7850 0158 FB68     		ldr	r3, [r7, #12]
 7851 015a 0233     		adds	r3, r3, #2
 7852 015c 1B78     		ldrb	r3, [r3]	@ zero_extendqisi2
 7853 015e 013B     		subs	r3, r3, #1
 7854 0160 032B     		cmp	r3, #3
 7855 0162 1BD8     		bhi	.L290
ARM GAS  C:\Users\RECEPC~1\AppData\Local\Temp\ccMZb0bC.s 			page 174


 7856 0164 01A2     		adr	r2, .L292
 7857 0166 52F823F0 		ldr	pc, [r2, r3, lsl #2]
 7858 016a 00BF     		.p2align 2
 7859              	.L292:
 7860 016c 7D010000 		.word	.L291+1
 7861 0170 85010000 		.word	.L293+1
 7862 0174 8D010000 		.word	.L294+1
 7863 0178 95010000 		.word	.L295+1
 7864              		.p2align 1
 7865              	.L291:
1962:.\EncoreImpl.c ****     {
1963:.\EncoreImpl.c ****         case 0x01:
1964:.\EncoreImpl.c ****         _g_dispenserlayoutinfo._moneydecimals = 0;
 7866              		.loc 1 1964 0
 7867 017c 534B     		ldr	r3, .L318
 7868 017e 0022     		movs	r2, #0
 7869 0180 DA71     		strb	r2, [r3, #7]
1965:.\EncoreImpl.c ****         break;
 7870              		.loc 1 1965 0
 7871 0182 0BE0     		b	.L290
 7872              	.L293:
1966:.\EncoreImpl.c ****         case 0x02:
1967:.\EncoreImpl.c ****         _g_dispenserlayoutinfo._moneydecimals = 1;
 7873              		.loc 1 1967 0
 7874 0184 514B     		ldr	r3, .L318
 7875 0186 0122     		movs	r2, #1
 7876 0188 DA71     		strb	r2, [r3, #7]
1968:.\EncoreImpl.c ****         break;
 7877              		.loc 1 1968 0
 7878 018a 07E0     		b	.L290
 7879              	.L294:
1969:.\EncoreImpl.c ****         case 0x03:
1970:.\EncoreImpl.c ****         _g_dispenserlayoutinfo._moneydecimals = 2;
 7880              		.loc 1 1970 0
 7881 018c 4F4B     		ldr	r3, .L318
 7882 018e 0222     		movs	r2, #2
 7883 0190 DA71     		strb	r2, [r3, #7]
1971:.\EncoreImpl.c ****         break;
 7884              		.loc 1 1971 0
 7885 0192 03E0     		b	.L290
 7886              	.L295:
1972:.\EncoreImpl.c ****         case 0x04:
1973:.\EncoreImpl.c ****         _g_dispenserlayoutinfo._moneydecimals = 3;
 7887              		.loc 1 1973 0
 7888 0194 4D4B     		ldr	r3, .L318
 7889 0196 0322     		movs	r2, #3
 7890 0198 DA71     		strb	r2, [r3, #7]
1974:.\EncoreImpl.c ****         break;
 7891              		.loc 1 1974 0
 7892 019a 00BF     		nop
 7893              	.L290:
1975:.\EncoreImpl.c ****     }
1976:.\EncoreImpl.c ****     
1977:.\EncoreImpl.c ****     //Volume Decimal Points
1978:.\EncoreImpl.c ****     switch(ptrbuff[0x03])
 7894              		.loc 1 1978 0
 7895 019c FB68     		ldr	r3, [r7, #12]
ARM GAS  C:\Users\RECEPC~1\AppData\Local\Temp\ccMZb0bC.s 			page 175


 7896 019e 0333     		adds	r3, r3, #3
 7897 01a0 1B78     		ldrb	r3, [r3]	@ zero_extendqisi2
 7898 01a2 013B     		subs	r3, r3, #1
 7899 01a4 102B     		cmp	r3, #16
 7900 01a6 45D8     		bhi	.L296
 7901 01a8 01A2     		adr	r2, .L298
 7902 01aa 52F823F0 		ldr	pc, [r2, r3, lsl #2]
 7903 01ae 00BF     		.p2align 2
 7904              	.L298:
 7905 01b0 F5010000 		.word	.L297+1
 7906 01b4 FD010000 		.word	.L299+1
 7907 01b8 05020000 		.word	.L300+1
 7908 01bc 0D020000 		.word	.L301+1
 7909 01c0 15020000 		.word	.L302+1
 7910 01c4 1D020000 		.word	.L303+1
 7911 01c8 25020000 		.word	.L304+1
 7912 01cc 35020000 		.word	.L296+1
 7913 01d0 35020000 		.word	.L296+1
 7914 01d4 35020000 		.word	.L296+1
 7915 01d8 35020000 		.word	.L296+1
 7916 01dc 35020000 		.word	.L296+1
 7917 01e0 35020000 		.word	.L296+1
 7918 01e4 35020000 		.word	.L296+1
 7919 01e8 35020000 		.word	.L296+1
 7920 01ec 35020000 		.word	.L296+1
 7921 01f0 2D020000 		.word	.L305+1
 7922              		.p2align 1
 7923              	.L297:
1979:.\EncoreImpl.c ****     {
1980:.\EncoreImpl.c ****         case 0x01:
1981:.\EncoreImpl.c ****         _g_dispenserlayoutinfo._volumedecimals = 3;
 7924              		.loc 1 1981 0
 7925 01f4 354B     		ldr	r3, .L318
 7926 01f6 0322     		movs	r2, #3
 7927 01f8 5A72     		strb	r2, [r3, #9]
1982:.\EncoreImpl.c ****         break;
 7928              		.loc 1 1982 0
 7929 01fa 1BE0     		b	.L296
 7930              	.L299:
1983:.\EncoreImpl.c ****         case 0x02:
1984:.\EncoreImpl.c ****         _g_dispenserlayoutinfo._volumedecimals = 1;
 7931              		.loc 1 1984 0
 7932 01fc 334B     		ldr	r3, .L318
 7933 01fe 0122     		movs	r2, #1
 7934 0200 5A72     		strb	r2, [r3, #9]
1985:.\EncoreImpl.c ****         break;
 7935              		.loc 1 1985 0
 7936 0202 17E0     		b	.L296
 7937              	.L300:
1986:.\EncoreImpl.c ****         case 0x03:
1987:.\EncoreImpl.c ****         _g_dispenserlayoutinfo._volumedecimals = 2;
 7938              		.loc 1 1987 0
 7939 0204 314B     		ldr	r3, .L318
 7940 0206 0222     		movs	r2, #2
 7941 0208 5A72     		strb	r2, [r3, #9]
1988:.\EncoreImpl.c ****         break;
 7942              		.loc 1 1988 0
ARM GAS  C:\Users\RECEPC~1\AppData\Local\Temp\ccMZb0bC.s 			page 176


 7943 020a 13E0     		b	.L296
 7944              	.L301:
1989:.\EncoreImpl.c ****         case 0x04:
1990:.\EncoreImpl.c ****         _g_dispenserlayoutinfo._volumedecimals = 3;
 7945              		.loc 1 1990 0
 7946 020c 2F4B     		ldr	r3, .L318
 7947 020e 0322     		movs	r2, #3
 7948 0210 5A72     		strb	r2, [r3, #9]
1991:.\EncoreImpl.c ****         break;
 7949              		.loc 1 1991 0
 7950 0212 0FE0     		b	.L296
 7951              	.L302:
1992:.\EncoreImpl.c ****         case 0x05:
1993:.\EncoreImpl.c ****         _g_dispenserlayoutinfo._volumedecimals = 4;
 7952              		.loc 1 1993 0
 7953 0214 2D4B     		ldr	r3, .L318
 7954 0216 0422     		movs	r2, #4
 7955 0218 5A72     		strb	r2, [r3, #9]
1994:.\EncoreImpl.c ****         break;
 7956              		.loc 1 1994 0
 7957 021a 0BE0     		b	.L296
 7958              	.L303:
1995:.\EncoreImpl.c ****         case 0x06:
1996:.\EncoreImpl.c ****         _g_dispenserlayoutinfo._volumedecimals = 5;
 7959              		.loc 1 1996 0
 7960 021c 2B4B     		ldr	r3, .L318
 7961 021e 0522     		movs	r2, #5
 7962 0220 5A72     		strb	r2, [r3, #9]
1997:.\EncoreImpl.c ****         break;
 7963              		.loc 1 1997 0
 7964 0222 07E0     		b	.L296
 7965              	.L304:
1998:.\EncoreImpl.c ****         case 0x07:
1999:.\EncoreImpl.c ****         _g_dispenserlayoutinfo._volumedecimals = 6;
 7966              		.loc 1 1999 0
 7967 0224 294B     		ldr	r3, .L318
 7968 0226 0622     		movs	r2, #6
 7969 0228 5A72     		strb	r2, [r3, #9]
2000:.\EncoreImpl.c ****         break;
 7970              		.loc 1 2000 0
 7971 022a 03E0     		b	.L296
 7972              	.L305:
2001:.\EncoreImpl.c ****         case 0x11:
2002:.\EncoreImpl.c ****         _g_dispenserlayoutinfo._volumedecimals = 0;
 7973              		.loc 1 2002 0
 7974 022c 274B     		ldr	r3, .L318
 7975 022e 0022     		movs	r2, #0
 7976 0230 5A72     		strb	r2, [r3, #9]
2003:.\EncoreImpl.c ****         break;
 7977              		.loc 1 2003 0
 7978 0232 00BF     		nop
 7979              	.L296:
2004:.\EncoreImpl.c ****     }
2005:.\EncoreImpl.c ****     
2006:.\EncoreImpl.c ****     //PPU Decimal Points
2007:.\EncoreImpl.c ****     switch(ptrbuff[0x04])
 7980              		.loc 1 2007 0
ARM GAS  C:\Users\RECEPC~1\AppData\Local\Temp\ccMZb0bC.s 			page 177


 7981 0234 FB68     		ldr	r3, [r7, #12]
 7982 0236 0433     		adds	r3, r3, #4
 7983 0238 1B78     		ldrb	r3, [r3]	@ zero_extendqisi2
 7984 023a 013B     		subs	r3, r3, #1
 7985 023c 032B     		cmp	r3, #3
 7986 023e 1BD8     		bhi	.L306
 7987 0240 01A2     		adr	r2, .L308
 7988 0242 52F823F0 		ldr	pc, [r2, r3, lsl #2]
 7989 0246 00BF     		.p2align 2
 7990              	.L308:
 7991 0248 59020000 		.word	.L307+1
 7992 024c 61020000 		.word	.L309+1
 7993 0250 69020000 		.word	.L310+1
 7994 0254 71020000 		.word	.L311+1
 7995              		.p2align 1
 7996              	.L307:
2008:.\EncoreImpl.c ****     {
2009:.\EncoreImpl.c ****         case 0x01:
2010:.\EncoreImpl.c ****         _g_dispenserlayoutinfo._ppudecimals = 0;
 7997              		.loc 1 2010 0
 7998 0258 1C4B     		ldr	r3, .L318
 7999 025a 0022     		movs	r2, #0
 8000 025c 1A72     		strb	r2, [r3, #8]
2011:.\EncoreImpl.c ****         break;
 8001              		.loc 1 2011 0
 8002 025e 0BE0     		b	.L306
 8003              	.L309:
2012:.\EncoreImpl.c ****         case 0x02:
2013:.\EncoreImpl.c ****         _g_dispenserlayoutinfo._ppudecimals = 1;
 8004              		.loc 1 2013 0
 8005 0260 1A4B     		ldr	r3, .L318
 8006 0262 0122     		movs	r2, #1
 8007 0264 1A72     		strb	r2, [r3, #8]
2014:.\EncoreImpl.c ****         break;
 8008              		.loc 1 2014 0
 8009 0266 07E0     		b	.L306
 8010              	.L310:
2015:.\EncoreImpl.c ****         case 0x03:
2016:.\EncoreImpl.c ****         _g_dispenserlayoutinfo._ppudecimals = 2;
 8011              		.loc 1 2016 0
 8012 0268 184B     		ldr	r3, .L318
 8013 026a 0222     		movs	r2, #2
 8014 026c 1A72     		strb	r2, [r3, #8]
2017:.\EncoreImpl.c ****         break;
 8015              		.loc 1 2017 0
 8016 026e 03E0     		b	.L306
 8017              	.L311:
2018:.\EncoreImpl.c ****         case 0x04:
2019:.\EncoreImpl.c ****         _g_dispenserlayoutinfo._ppudecimals = 3;
 8018              		.loc 1 2019 0
 8019 0270 164B     		ldr	r3, .L318
 8020 0272 0322     		movs	r2, #3
 8021 0274 1A72     		strb	r2, [r3, #8]
2020:.\EncoreImpl.c ****         break;
 8022              		.loc 1 2020 0
 8023 0276 00BF     		nop
 8024              	.L306:
ARM GAS  C:\Users\RECEPC~1\AppData\Local\Temp\ccMZb0bC.s 			page 178


2021:.\EncoreImpl.c ****     }
2022:.\EncoreImpl.c ****     
2023:.\EncoreImpl.c ****     switch(ptrbuff[0x05])
 8025              		.loc 1 2023 0
 8026 0278 FB68     		ldr	r3, [r7, #12]
 8027 027a 0533     		adds	r3, r3, #5
 8028 027c 1B78     		ldrb	r3, [r3]	@ zero_extendqisi2
 8029 027e 032B     		cmp	r3, #3
 8030 0280 1AD8     		bhi	.L312
 8031 0282 01A2     		adr	r2, .L314
 8032 0284 52F823F0 		ldr	pc, [r2, r3, lsl #2]
 8033              		.p2align 2
 8034              	.L314:
 8035 0288 99020000 		.word	.L313+1
 8036 028c A1020000 		.word	.L315+1
 8037 0290 A9020000 		.word	.L316+1
 8038 0294 B1020000 		.word	.L317+1
 8039              		.p2align 1
 8040              	.L313:
2024:.\EncoreImpl.c ****     {
2025:.\EncoreImpl.c ****         case 0x00:
2026:.\EncoreImpl.c ****             _g_dispenserlayoutinfo._displaydigitsmode = 0x05; //5 money digits
 8041              		.loc 1 2026 0
 8042 0298 0C4B     		ldr	r3, .L318
 8043 029a 0522     		movs	r2, #5
 8044 029c 1A74     		strb	r2, [r3, #16]
2027:.\EncoreImpl.c ****             break;
 8045              		.loc 1 2027 0
 8046 029e 0BE0     		b	.L312
 8047              	.L315:
2028:.\EncoreImpl.c ****         case 0x01:
2029:.\EncoreImpl.c ****             _g_dispenserlayoutinfo._displaydigitsmode = 0x06; //6 money digits
 8048              		.loc 1 2029 0
 8049 02a0 0A4B     		ldr	r3, .L318
 8050 02a2 0622     		movs	r2, #6
 8051 02a4 1A74     		strb	r2, [r3, #16]
2030:.\EncoreImpl.c ****             break;
 8052              		.loc 1 2030 0
 8053 02a6 07E0     		b	.L312
 8054              	.L316:
2031:.\EncoreImpl.c ****         case 0x02:
2032:.\EncoreImpl.c ****             _g_dispenserlayoutinfo._displaydigitsmode = 0x07; //7 money digits
 8055              		.loc 1 2032 0
 8056 02a8 084B     		ldr	r3, .L318
 8057 02aa 0722     		movs	r2, #7
 8058 02ac 1A74     		strb	r2, [r3, #16]
2033:.\EncoreImpl.c ****             break;
 8059              		.loc 1 2033 0
 8060 02ae 03E0     		b	.L312
 8061              	.L317:
2034:.\EncoreImpl.c ****         case 0x03:
2035:.\EncoreImpl.c ****             _g_dispenserlayoutinfo._displaydigitsmode = 0x08; //8 money digits
 8062              		.loc 1 2035 0
 8063 02b0 064B     		ldr	r3, .L318
 8064 02b2 0822     		movs	r2, #8
 8065 02b4 1A74     		strb	r2, [r3, #16]
2036:.\EncoreImpl.c ****             break;
ARM GAS  C:\Users\RECEPC~1\AppData\Local\Temp\ccMZb0bC.s 			page 179


 8066              		.loc 1 2036 0
 8067 02b6 00BF     		nop
 8068              	.L312:
2037:.\EncoreImpl.c ****     }
2038:.\EncoreImpl.c ****     
2039:.\EncoreImpl.c ****     //_g_dispenserlayoutinfo._pointcommadecimalmode = _POINT_AS_DECIMAL_SEPARATOR_;
2040:.\EncoreImpl.c ****     _g_dispenserlayoutinfo._pointcommadecimalmode = _COMMA_AS_DECIMAL_SEPARATOR_;
 8069              		.loc 1 2040 0
 8070 02b8 044A     		ldr	r2, .L318
 8071 02ba D37C     		ldrb	r3, [r2, #19]
 8072 02bc 43F00103 		orr	r3, r3, #1
 8073 02c0 D374     		strb	r3, [r2, #19]
2041:.\EncoreImpl.c **** }
 8074              		.loc 1 2041 0
 8075 02c2 1437     		adds	r7, r7, #20
 8076              		.cfi_def_cfa_offset 4
 8077 02c4 BD46     		mov	sp, r7
 8078              		.cfi_def_cfa_register 13
 8079              		@ sp needed
 8080 02c6 5DF8047B 		ldr	r7, [sp], #4
 8081              		.cfi_restore 7
 8082              		.cfi_def_cfa_offset 0
 8083 02ca 7047     		bx	lr
 8084              	.L319:
 8085              		.align	2
 8086              	.L318:
 8087 02cc 00000000 		.word	_g_dispenserlayoutinfo
 8088              		.cfi_endproc
 8089              	.LFE92:
 8090              		.size	AcquireDispenserLayoutInformation, .-AcquireDispenserLayoutInformation
 8091              		.section	.text.AcquirePumpSpecialFunctionResponseResolver,"ax",%progbits
 8092              		.align	2
 8093              		.global	AcquirePumpSpecialFunctionResponseResolver
 8094              		.thumb
 8095              		.thumb_func
 8096              		.type	AcquirePumpSpecialFunctionResponseResolver, %function
 8097              	AcquirePumpSpecialFunctionResponseResolver:
 8098              	.LFB93:
2042:.\EncoreImpl.c **** 
2043:.\EncoreImpl.c **** //@Created By: HIJH
2044:.\EncoreImpl.c **** //@Date: Septembre de 2016
2045:.\EncoreImpl.c **** //Resolves the completeness for the arriving data after the SFs invocation
2046:.\EncoreImpl.c **** bool AcquirePumpSpecialFunctionResponseResolver(void *pparam, void *pbuffer, uint16 buffersize)
2047:.\EncoreImpl.c **** {
 8099              		.loc 1 2047 0
 8100              		.cfi_startproc
 8101              		@ args = 0, pretend = 0, frame = 32
 8102              		@ frame_needed = 1, uses_anonymous_args = 0
 8103 0000 90B5     		push	{r4, r7, lr}
 8104              		.cfi_def_cfa_offset 12
 8105              		.cfi_offset 4, -12
 8106              		.cfi_offset 7, -8
 8107              		.cfi_offset 14, -4
 8108 0002 89B0     		sub	sp, sp, #36
 8109              		.cfi_def_cfa_offset 48
 8110 0004 00AF     		add	r7, sp, #0
 8111              		.cfi_def_cfa_register 7
ARM GAS  C:\Users\RECEPC~1\AppData\Local\Temp\ccMZb0bC.s 			page 180


 8112 0006 F860     		str	r0, [r7, #12]
 8113 0008 B960     		str	r1, [r7, #8]
 8114 000a 1346     		mov	r3, r2
 8115 000c FB80     		strh	r3, [r7, #6]	@ movhi
2048:.\EncoreImpl.c ****     bool retval = false;
 8116              		.loc 1 2048 0
 8117 000e 0023     		movs	r3, #0
 8118 0010 FB77     		strb	r3, [r7, #31]
2049:.\EncoreImpl.c ****     static uint8 index = 0;
2050:.\EncoreImpl.c ****     PNEAR_PUMPPTR ppump = (PNEAR_PUMPPTR)pparam;
 8119              		.loc 1 2050 0
 8120 0012 FB68     		ldr	r3, [r7, #12]
 8121 0014 BB61     		str	r3, [r7, #24]
2051:.\EncoreImpl.c ****     //Since after the third byte we can start inquiry for the message length in words (this is acco
2052:.\EncoreImpl.c ****     //that is  the reason for the number "3"
2053:.\EncoreImpl.c ****     if((PSTRCAST(pbuffer)[0 + 45*index] == 0xBA) && buffersize >= 3)
 8122              		.loc 1 2053 0
 8123 0016 434B     		ldr	r3, .L324
 8124 0018 1B78     		ldrb	r3, [r3]	@ zero_extendqisi2
 8125 001a 1A46     		mov	r2, r3
 8126 001c 1346     		mov	r3, r2
 8127 001e 5B00     		lsls	r3, r3, #1
 8128 0020 1344     		add	r3, r3, r2
 8129 0022 1A01     		lsls	r2, r3, #4
 8130 0024 D31A     		subs	r3, r2, r3
 8131 0026 1A46     		mov	r2, r3
 8132 0028 BB68     		ldr	r3, [r7, #8]
 8133 002a 1344     		add	r3, r3, r2
 8134 002c 1B78     		ldrb	r3, [r3]	@ zero_extendqisi2
 8135 002e BA2B     		cmp	r3, #186
 8136 0030 73D1     		bne	.L321
 8137              		.loc 1 2053 0 is_stmt 0 discriminator 1
 8138 0032 FB88     		ldrh	r3, [r7, #6]
 8139 0034 022B     		cmp	r3, #2
 8140 0036 70D9     		bls	.L321
 8141              	.LBB56:
2054:.\EncoreImpl.c ****     {
2055:.\EncoreImpl.c ****         //char8 buff[24];
2056:.\EncoreImpl.c ****         //memcpy(buff, PSTRCAST(pbuffer), buffersize);
2057:.\EncoreImpl.c ****         uint8 msglength = (TranslateSpecialFuncionDigit(PSTRCAST(pbuffer)[1 + 45*index]) << 0x04) |
 8142              		.loc 1 2057 0 is_stmt 1
 8143 0038 3A4B     		ldr	r3, .L324
 8144 003a 1B78     		ldrb	r3, [r3]	@ zero_extendqisi2
 8145 003c 1A46     		mov	r2, r3
 8146 003e 1346     		mov	r3, r2
 8147 0040 5B00     		lsls	r3, r3, #1
 8148 0042 1344     		add	r3, r3, r2
 8149 0044 1A01     		lsls	r2, r3, #4
 8150 0046 D31A     		subs	r3, r2, r3
 8151 0048 0133     		adds	r3, r3, #1
 8152 004a 1A46     		mov	r2, r3
 8153 004c BB68     		ldr	r3, [r7, #8]
 8154 004e 1344     		add	r3, r3, r2
 8155 0050 1B78     		ldrb	r3, [r3]	@ zero_extendqisi2
 8156 0052 1846     		mov	r0, r3
 8157 0054 FFF7FEFF 		bl	TranslateSpecialFuncionDigit
 8158 0058 0346     		mov	r3, r0
ARM GAS  C:\Users\RECEPC~1\AppData\Local\Temp\ccMZb0bC.s 			page 181


 8159 005a 1B01     		lsls	r3, r3, #4
 8160 005c DCB2     		uxtb	r4, r3
 8161 005e 314B     		ldr	r3, .L324
 8162 0060 1B78     		ldrb	r3, [r3]	@ zero_extendqisi2
 8163 0062 1A46     		mov	r2, r3
 8164 0064 1346     		mov	r3, r2
 8165 0066 5B00     		lsls	r3, r3, #1
 8166 0068 1344     		add	r3, r3, r2
 8167 006a 1A01     		lsls	r2, r3, #4
 8168 006c D31A     		subs	r3, r2, r3
 8169 006e 0233     		adds	r3, r3, #2
 8170 0070 1A46     		mov	r2, r3
 8171 0072 BB68     		ldr	r3, [r7, #8]
 8172 0074 1344     		add	r3, r3, r2
 8173 0076 1B78     		ldrb	r3, [r3]	@ zero_extendqisi2
 8174 0078 1846     		mov	r0, r3
 8175 007a FFF7FEFF 		bl	TranslateSpecialFuncionDigit
 8176 007e 0346     		mov	r3, r0
 8177 0080 DBB2     		uxtb	r3, r3
 8178 0082 2246     		mov	r2, r4
 8179 0084 1343     		orrs	r3, r3, r2
 8180 0086 DBB2     		uxtb	r3, r3
 8181 0088 FB75     		strb	r3, [r7, #23]
2058:.\EncoreImpl.c ****         //plus 13 since there are some fixed bytes in the frame that sum that value
2059:.\EncoreImpl.c ****         //msglength must be multiplied by 2 since this length is in words instead
2060:.\EncoreImpl.c ****         //If more than 1 block is coming then the first blocks come full which means that they carr
2061:.\EncoreImpl.c ****         //the maximum frame size which is 45 bytes (13 fixed bytes + 32 bytes for the message)
2062:.\EncoreImpl.c ****         if(buffersize >= ((2*msglength + 13) + 45*index))
 8182              		.loc 1 2062 0
 8183 008a FA88     		ldrh	r2, [r7, #6]
 8184 008c FB7D     		ldrb	r3, [r7, #23]	@ zero_extendqisi2
 8185 008e 5B00     		lsls	r3, r3, #1
 8186 0090 03F10D01 		add	r1, r3, #13
 8187 0094 234B     		ldr	r3, .L324
 8188 0096 1B78     		ldrb	r3, [r3]	@ zero_extendqisi2
 8189 0098 1846     		mov	r0, r3
 8190 009a 0346     		mov	r3, r0
 8191 009c 5B00     		lsls	r3, r3, #1
 8192 009e 0344     		add	r3, r3, r0
 8193 00a0 1801     		lsls	r0, r3, #4
 8194 00a2 C31A     		subs	r3, r0, r3
 8195 00a4 0B44     		add	r3, r3, r1
 8196 00a6 9A42     		cmp	r2, r3
 8197 00a8 37DB     		blt	.L321
 8198              	.LBB57:
2063:.\EncoreImpl.c ****         {
2064:.\EncoreImpl.c ****             uint8 remblocks = (TranslateSpecialFuncionDigit(PSTRCAST(pbuffer)[7 + 45*index]) << 0x0
 8199              		.loc 1 2064 0
 8200 00aa 1E4B     		ldr	r3, .L324
 8201 00ac 1B78     		ldrb	r3, [r3]	@ zero_extendqisi2
 8202 00ae 1A46     		mov	r2, r3
 8203 00b0 1346     		mov	r3, r2
 8204 00b2 5B00     		lsls	r3, r3, #1
 8205 00b4 1344     		add	r3, r3, r2
 8206 00b6 1A01     		lsls	r2, r3, #4
 8207 00b8 D31A     		subs	r3, r2, r3
 8208 00ba 0733     		adds	r3, r3, #7
ARM GAS  C:\Users\RECEPC~1\AppData\Local\Temp\ccMZb0bC.s 			page 182


 8209 00bc 1A46     		mov	r2, r3
 8210 00be BB68     		ldr	r3, [r7, #8]
 8211 00c0 1344     		add	r3, r3, r2
 8212 00c2 1B78     		ldrb	r3, [r3]	@ zero_extendqisi2
 8213 00c4 1846     		mov	r0, r3
 8214 00c6 FFF7FEFF 		bl	TranslateSpecialFuncionDigit
 8215 00ca 0346     		mov	r3, r0
 8216 00cc 1B01     		lsls	r3, r3, #4
 8217 00ce DCB2     		uxtb	r4, r3
 8218 00d0 144B     		ldr	r3, .L324
 8219 00d2 1B78     		ldrb	r3, [r3]	@ zero_extendqisi2
 8220 00d4 1A46     		mov	r2, r3
 8221 00d6 1346     		mov	r3, r2
 8222 00d8 5B00     		lsls	r3, r3, #1
 8223 00da 1344     		add	r3, r3, r2
 8224 00dc 1A01     		lsls	r2, r3, #4
 8225 00de D31A     		subs	r3, r2, r3
 8226 00e0 0833     		adds	r3, r3, #8
 8227 00e2 1A46     		mov	r2, r3
 8228 00e4 BB68     		ldr	r3, [r7, #8]
 8229 00e6 1344     		add	r3, r3, r2
 8230 00e8 1B78     		ldrb	r3, [r3]	@ zero_extendqisi2
 8231 00ea 1846     		mov	r0, r3
 8232 00ec FFF7FEFF 		bl	TranslateSpecialFuncionDigit
 8233 00f0 0346     		mov	r3, r0
 8234 00f2 DBB2     		uxtb	r3, r3
 8235 00f4 2246     		mov	r2, r4
 8236 00f6 1343     		orrs	r3, r3, r2
 8237 00f8 DBB2     		uxtb	r3, r3
 8238 00fa BB75     		strb	r3, [r7, #22]
2065:.\EncoreImpl.c ****             if(remblocks == 0)
 8239              		.loc 1 2065 0
 8240 00fc BB7D     		ldrb	r3, [r7, #22]	@ zero_extendqisi2
 8241 00fe 002B     		cmp	r3, #0
 8242 0100 05D1     		bne	.L322
2066:.\EncoreImpl.c ****             {
2067:.\EncoreImpl.c ****                 index = 0;
 8243              		.loc 1 2067 0
 8244 0102 084B     		ldr	r3, .L324
 8245 0104 0022     		movs	r2, #0
 8246 0106 1A70     		strb	r2, [r3]
2068:.\EncoreImpl.c ****                 retval = true;
 8247              		.loc 1 2068 0
 8248 0108 0123     		movs	r3, #1
 8249 010a FB77     		strb	r3, [r7, #31]
 8250 010c 05E0     		b	.L321
 8251              	.L322:
2069:.\EncoreImpl.c ****             }else{
2070:.\EncoreImpl.c ****                 index++;
 8252              		.loc 1 2070 0
 8253 010e 054B     		ldr	r3, .L324
 8254 0110 1B78     		ldrb	r3, [r3]	@ zero_extendqisi2
 8255 0112 0133     		adds	r3, r3, #1
 8256 0114 DAB2     		uxtb	r2, r3
 8257 0116 034B     		ldr	r3, .L324
 8258 0118 1A70     		strb	r2, [r3]
 8259              	.L321:
ARM GAS  C:\Users\RECEPC~1\AppData\Local\Temp\ccMZb0bC.s 			page 183


 8260              	.LBE57:
 8261              	.LBE56:
2071:.\EncoreImpl.c ****             }
2072:.\EncoreImpl.c ****         }
2073:.\EncoreImpl.c ****     }
2074:.\EncoreImpl.c ****     return retval;
 8262              		.loc 1 2074 0
 8263 011a FB7F     		ldrb	r3, [r7, #31]	@ zero_extendqisi2
2075:.\EncoreImpl.c **** }
 8264              		.loc 1 2075 0
 8265 011c 1846     		mov	r0, r3
 8266 011e 2437     		adds	r7, r7, #36
 8267              		.cfi_def_cfa_offset 12
 8268 0120 BD46     		mov	sp, r7
 8269              		.cfi_def_cfa_register 13
 8270              		@ sp needed
 8271 0122 90BD     		pop	{r4, r7, pc}
 8272              	.L325:
 8273              		.align	2
 8274              	.L324:
 8275 0124 00000000 		.word	index.9599
 8276              		.cfi_endproc
 8277              	.LFE93:
 8278              		.size	AcquirePumpSpecialFunctionResponseResolver, .-AcquirePumpSpecialFunctionResponseResolver
 8279              		.section	.text.PumpEnumeratorRequest,"ax",%progbits
 8280              		.align	2
 8281              		.global	PumpEnumeratorRequest
 8282              		.thumb
 8283              		.thumb_func
 8284              		.type	PumpEnumeratorRequest, %function
 8285              	PumpEnumeratorRequest:
 8286              	.LFB94:
2076:.\EncoreImpl.c **** 
2077:.\EncoreImpl.c **** //@Created By: HIJH
2078:.\EncoreImpl.c **** //@Septembre de 2016
2079:.\EncoreImpl.c **** void PumpEnumeratorRequest(LPVOID pparam)
2080:.\EncoreImpl.c **** {
 8287              		.loc 1 2080 0
 8288              		.cfi_startproc
 8289              		@ args = 0, pretend = 0, frame = 24
 8290              		@ frame_needed = 1, uses_anonymous_args = 0
 8291 0000 80B5     		push	{r7, lr}
 8292              		.cfi_def_cfa_offset 8
 8293              		.cfi_offset 7, -8
 8294              		.cfi_offset 14, -4
 8295 0002 86B0     		sub	sp, sp, #24
 8296              		.cfi_def_cfa_offset 32
 8297 0004 00AF     		add	r7, sp, #0
 8298              		.cfi_def_cfa_register 7
 8299 0006 7860     		str	r0, [r7, #4]
2081:.\EncoreImpl.c ****     PNEAR_PUMPPTR ppump = (PNEAR_PUMPPTR)pparam;
 8300              		.loc 1 2081 0
 8301 0008 7B68     		ldr	r3, [r7, #4]
 8302 000a 7B61     		str	r3, [r7, #20]
2082:.\EncoreImpl.c ****     if(ppump)
 8303              		.loc 1 2082 0
 8304 000c 7B69     		ldr	r3, [r7, #20]
ARM GAS  C:\Users\RECEPC~1\AppData\Local\Temp\ccMZb0bC.s 			page 184


 8305 000e 002B     		cmp	r3, #0
 8306 0010 23D0     		beq	.L326
 8307              	.LBB58:
2083:.\EncoreImpl.c ****     {
2084:.\EncoreImpl.c ****         uint8_t index = 0;
 8308              		.loc 1 2084 0
 8309 0012 0023     		movs	r3, #0
 8310 0014 FB74     		strb	r3, [r7, #19]
2085:.\EncoreImpl.c ****         memset(ppump->_rxbuffer, 0x00, _PUMP_RX_BUFFER_SIZE_);
 8311              		.loc 1 2085 0
 8312 0016 7B69     		ldr	r3, [r7, #20]
 8313 0018 03F5D073 		add	r3, r3, #416
 8314 001c 1846     		mov	r0, r3
 8315 001e 0021     		movs	r1, #0
 8316 0020 4FF4C072 		mov	r2, #384
 8317 0024 FFF7FEFF 		bl	memset
2086:.\EncoreImpl.c ****         PUARTMESSAGEPTR puartdisp = GetUARTMessageSlot(UART_DISPENSER);
 8318              		.loc 1 2086 0
 8319 0028 A220     		movs	r0, #162
 8320 002a FFF7FEFF 		bl	GetUARTMessageSlot
 8321 002e F860     		str	r0, [r7, #12]
2087:.\EncoreImpl.c ****         if(puartdisp)
 8322              		.loc 1 2087 0
 8323 0030 FB68     		ldr	r3, [r7, #12]
 8324 0032 002B     		cmp	r3, #0
 8325 0034 11D0     		beq	.L326
2088:.\EncoreImpl.c ****         {
2089:.\EncoreImpl.c ****             puartdisp->_messagetx[index++] = PUMP_COMMAND(PUMP_STATE_REQUEST, ppump->_pumpid);
 8326              		.loc 1 2089 0
 8327 0036 FB7C     		ldrb	r3, [r7, #19]	@ zero_extendqisi2
 8328 0038 5A1C     		adds	r2, r3, #1
 8329 003a FA74     		strb	r2, [r7, #19]
 8330 003c 1946     		mov	r1, r3
 8331 003e 7B69     		ldr	r3, [r7, #20]
 8332 0040 1B78     		ldrb	r3, [r3]	@ zero_extendqisi2
 8333 0042 03F00F03 		and	r3, r3, #15
 8334 0046 DAB2     		uxtb	r2, r3
 8335 0048 FB68     		ldr	r3, [r7, #12]
 8336 004a 0B44     		add	r3, r3, r1
 8337 004c 1A71     		strb	r2, [r3, #4]
2090:.\EncoreImpl.c ****             puartdisp->_messagelength = 1;//One byte
 8338              		.loc 1 2090 0
 8339 004e FB68     		ldr	r3, [r7, #12]
 8340 0050 0122     		movs	r2, #1
 8341 0052 5A80     		strh	r2, [r3, #2]	@ movhi
2091:.\EncoreImpl.c ****             puartdisp->_messagestate = PENDING;
 8342              		.loc 1 2091 0
 8343 0054 FB68     		ldr	r3, [r7, #12]
 8344 0056 C222     		movs	r2, #194
 8345 0058 1A70     		strb	r2, [r3]
 8346              	.L326:
 8347              	.LBE58:
2092:.\EncoreImpl.c ****         }
2093:.\EncoreImpl.c ****     }
2094:.\EncoreImpl.c **** }
 8348              		.loc 1 2094 0
 8349 005a 1837     		adds	r7, r7, #24
ARM GAS  C:\Users\RECEPC~1\AppData\Local\Temp\ccMZb0bC.s 			page 185


 8350              		.cfi_def_cfa_offset 8
 8351 005c BD46     		mov	sp, r7
 8352              		.cfi_def_cfa_register 13
 8353              		@ sp needed
 8354 005e 80BD     		pop	{r7, pc}
 8355              		.cfi_endproc
 8356              	.LFE94:
 8357              		.size	PumpEnumeratorRequest, .-PumpEnumeratorRequest
 8358              		.section	.text.AcquirePumpEnumeratorResponse,"ax",%progbits
 8359              		.align	2
 8360              		.global	AcquirePumpEnumeratorResponse
 8361              		.thumb
 8362              		.thumb_func
 8363              		.type	AcquirePumpEnumeratorResponse, %function
 8364              	AcquirePumpEnumeratorResponse:
 8365              	.LFB95:
2095:.\EncoreImpl.c **** 
2096:.\EncoreImpl.c **** //@Created By: HIJH
2097:.\EncoreImpl.c **** //@Septembre de 2016
2098:.\EncoreImpl.c **** void AcquirePumpEnumeratorResponse(LPVOID pparam)
2099:.\EncoreImpl.c **** {
 8366              		.loc 1 2099 0
 8367              		.cfi_startproc
 8368              		@ args = 0, pretend = 0, frame = 24
 8369              		@ frame_needed = 1, uses_anonymous_args = 0
 8370 0000 80B5     		push	{r7, lr}
 8371              		.cfi_def_cfa_offset 8
 8372              		.cfi_offset 7, -8
 8373              		.cfi_offset 14, -4
 8374 0002 86B0     		sub	sp, sp, #24
 8375              		.cfi_def_cfa_offset 32
 8376 0004 00AF     		add	r7, sp, #0
 8377              		.cfi_def_cfa_register 7
 8378 0006 7860     		str	r0, [r7, #4]
2100:.\EncoreImpl.c ****     AcquirePumpStateResponse(pparam);
 8379              		.loc 1 2100 0
 8380 0008 7868     		ldr	r0, [r7, #4]
 8381 000a FFF7FEFF 		bl	AcquirePumpStateResponse
2101:.\EncoreImpl.c ****     PPUMPTRANSACTIONJOBCONTEXTPTR pjob = (PPUMPTRANSACTIONJOBCONTEXTPTR)pparam;
 8382              		.loc 1 2101 0
 8383 000e 7B68     		ldr	r3, [r7, #4]
 8384 0010 7B61     		str	r3, [r7, #20]
2102:.\EncoreImpl.c ****     if(pjob->_ppump->_datacontainer._var0 < 0xF)
 8385              		.loc 1 2102 0
 8386 0012 7B69     		ldr	r3, [r7, #20]
 8387 0014 DB69     		ldr	r3, [r3, #28]
 8388 0016 93F8683B 		ldrb	r3, [r3, #2920]
 8389 001a DBB2     		uxtb	r3, r3
 8390 001c 0E2B     		cmp	r3, #14
 8391 001e 00F2FA80 		bhi	.L329
2103:.\EncoreImpl.c ****     {
2104:.\EncoreImpl.c ****         switch(pjob->_ppump->_datacontainer._var1)
 8392              		.loc 1 2104 0
 8393 0022 7B69     		ldr	r3, [r7, #20]
 8394 0024 DB69     		ldr	r3, [r3, #28]
 8395 0026 93F8693B 		ldrb	r3, [r3, #2921]
 8396 002a DBB2     		uxtb	r3, r3
ARM GAS  C:\Users\RECEPC~1\AppData\Local\Temp\ccMZb0bC.s 			page 186


 8397 002c 032B     		cmp	r3, #3
 8398 002e 00F2C580 		bhi	.L330
 8399 0032 01A2     		adr	r2, .L332
 8400 0034 52F823F0 		ldr	pc, [r2, r3, lsl #2]
 8401              		.p2align 2
 8402              	.L332:
 8403 0038 49000000 		.word	.L331+1
 8404 003c B5000000 		.word	.L333+1
 8405 0040 21010000 		.word	.L334+1
 8406 0044 8D010000 		.word	.L335+1
 8407              		.p2align 1
 8408              	.L331:
 8409              	.LBB59:
2105:.\EncoreImpl.c ****         {
2106:.\EncoreImpl.c ****             case 0:
2107:.\EncoreImpl.c ****             {
2108:.\EncoreImpl.c ****                 
2109:.\EncoreImpl.c ****                 ClearEepromBuffer();
 8410              		.loc 1 2109 0
 8411 0048 FFF7FEFF 		bl	ClearEepromBuffer
2110:.\EncoreImpl.c ****                 //Cleanup of the pump identifier in order to start the enumeration procedure
2111:.\EncoreImpl.c ****                 LoadEepromPage(EEPROM_DISPENSER_PUMP1_LAYOUT_PAGE);
 8412              		.loc 1 2111 0
 8413 004c 4FF40070 		mov	r0, #512
 8414 0050 FFF7FEFF 		bl	LoadEepromPage
2112:.\EncoreImpl.c ****                 GetEepromBuffer()[0] = pjob->_ppump->_pumpid;
 8415              		.loc 1 2112 0
 8416 0054 FFF7FEFF 		bl	GetEepromBuffer
 8417 0058 0246     		mov	r2, r0
 8418 005a 7B69     		ldr	r3, [r7, #20]
 8419 005c DB69     		ldr	r3, [r3, #28]
 8420 005e 1B78     		ldrb	r3, [r3]	@ zero_extendqisi2
 8421 0060 1370     		strb	r3, [r2]
2113:.\EncoreImpl.c ****                 StoreEepromPage(EEPROM_DISPENSER_PUMP1_LAYOUT_PAGE);
 8422              		.loc 1 2113 0
 8423 0062 4FF40070 		mov	r0, #512
 8424 0066 FFF7FEFF 		bl	StoreEepromPage
2114:.\EncoreImpl.c **** 
2115:.\EncoreImpl.c ****                 uint8 var0 = pjob->_ppump->_datacontainer._var0;
 8425              		.loc 1 2115 0
 8426 006a 7B69     		ldr	r3, [r7, #20]
 8427 006c DB69     		ldr	r3, [r3, #28]
 8428 006e 93F8683B 		ldrb	r3, [r3, #2920]
 8429 0072 FB74     		strb	r3, [r7, #19]
2116:.\EncoreImpl.c ****                 uint8 var1 = pjob->_ppump->_datacontainer._var1;
 8430              		.loc 1 2116 0
 8431 0074 7B69     		ldr	r3, [r7, #20]
 8432 0076 DB69     		ldr	r3, [r3, #28]
 8433 0078 93F8693B 		ldrb	r3, [r3, #2921]
 8434 007c BB74     		strb	r3, [r7, #18]
2117:.\EncoreImpl.c ****                 pjob->_ppump = &_g_pumps[var1 + 1];
 8435              		.loc 1 2117 0
 8436 007e BB7C     		ldrb	r3, [r7, #18]	@ zero_extendqisi2
 8437 0080 0133     		adds	r3, r3, #1
 8438 0082 40F6C832 		movw	r2, #3016
 8439 0086 02FB03F3 		mul	r3, r2, r3
 8440 008a 694A     		ldr	r2, .L339
ARM GAS  C:\Users\RECEPC~1\AppData\Local\Temp\ccMZb0bC.s 			page 187


 8441 008c 1A44     		add	r2, r2, r3
 8442 008e 7B69     		ldr	r3, [r7, #20]
 8443 0090 DA61     		str	r2, [r3, #28]
2118:.\EncoreImpl.c ****                 pjob->_ppump->_datacontainer._var1 = var1;
 8444              		.loc 1 2118 0
 8445 0092 7B69     		ldr	r3, [r7, #20]
 8446 0094 DB69     		ldr	r3, [r3, #28]
 8447 0096 BA7C     		ldrb	r2, [r7, #18]
 8448 0098 83F8692B 		strb	r2, [r3, #2921]
2119:.\EncoreImpl.c ****                 pjob->_ppump->_datacontainer._var0 = var0;
 8449              		.loc 1 2119 0
 8450 009c 7B69     		ldr	r3, [r7, #20]
 8451 009e DB69     		ldr	r3, [r3, #28]
 8452 00a0 FA7C     		ldrb	r2, [r7, #19]
 8453 00a2 83F8682B 		strb	r2, [r3, #2920]
2120:.\EncoreImpl.c ****                 _g_dispenserlayoutinfo._numpositions++;
 8454              		.loc 1 2120 0
 8455 00a6 634B     		ldr	r3, .L339+4
 8456 00a8 9B78     		ldrb	r3, [r3, #2]	@ zero_extendqisi2
 8457 00aa 0133     		adds	r3, r3, #1
 8458 00ac DAB2     		uxtb	r2, r3
 8459 00ae 614B     		ldr	r3, .L339+4
 8460 00b0 9A70     		strb	r2, [r3, #2]
2121:.\EncoreImpl.c ****                 
2122:.\EncoreImpl.c ****                 break;
 8461              		.loc 1 2122 0
 8462 00b2 83E0     		b	.L330
 8463              	.L333:
 8464              	.LBE59:
 8465              	.LBB60:
2123:.\EncoreImpl.c ****             }
2124:.\EncoreImpl.c ****             case 1:
2125:.\EncoreImpl.c ****             {
2126:.\EncoreImpl.c ****                 
2127:.\EncoreImpl.c ****                 ClearEepromBuffer();
 8466              		.loc 1 2127 0
 8467 00b4 FFF7FEFF 		bl	ClearEepromBuffer
2128:.\EncoreImpl.c ****                 //Cleanup of the pump identifier in order to start the enumeration procedure
2129:.\EncoreImpl.c ****                 LoadEepromPage(EEPROM_DISPENSER_PUMP2_LAYOUT_PAGE);
 8468              		.loc 1 2129 0
 8469 00b8 4FF41070 		mov	r0, #576
 8470 00bc FFF7FEFF 		bl	LoadEepromPage
2130:.\EncoreImpl.c ****                 GetEepromBuffer()[0] = pjob->_ppump->_pumpid;
 8471              		.loc 1 2130 0
 8472 00c0 FFF7FEFF 		bl	GetEepromBuffer
 8473 00c4 0246     		mov	r2, r0
 8474 00c6 7B69     		ldr	r3, [r7, #20]
 8475 00c8 DB69     		ldr	r3, [r3, #28]
 8476 00ca 1B78     		ldrb	r3, [r3]	@ zero_extendqisi2
 8477 00cc 1370     		strb	r3, [r2]
2131:.\EncoreImpl.c ****                 StoreEepromPage(EEPROM_DISPENSER_PUMP2_LAYOUT_PAGE);
 8478              		.loc 1 2131 0
 8479 00ce 4FF41070 		mov	r0, #576
 8480 00d2 FFF7FEFF 		bl	StoreEepromPage
2132:.\EncoreImpl.c ****                 
2133:.\EncoreImpl.c ****                 uint8 var0 = pjob->_ppump->_datacontainer._var0;
 8481              		.loc 1 2133 0
ARM GAS  C:\Users\RECEPC~1\AppData\Local\Temp\ccMZb0bC.s 			page 188


 8482 00d6 7B69     		ldr	r3, [r7, #20]
 8483 00d8 DB69     		ldr	r3, [r3, #28]
 8484 00da 93F8683B 		ldrb	r3, [r3, #2920]
 8485 00de 7B74     		strb	r3, [r7, #17]
2134:.\EncoreImpl.c ****                 uint8 var1 = pjob->_ppump->_datacontainer._var1;
 8486              		.loc 1 2134 0
 8487 00e0 7B69     		ldr	r3, [r7, #20]
 8488 00e2 DB69     		ldr	r3, [r3, #28]
 8489 00e4 93F8693B 		ldrb	r3, [r3, #2921]
 8490 00e8 3B74     		strb	r3, [r7, #16]
2135:.\EncoreImpl.c ****                 pjob->_ppump = &_g_pumps[var1 + 1];
 8491              		.loc 1 2135 0
 8492 00ea 3B7C     		ldrb	r3, [r7, #16]	@ zero_extendqisi2
 8493 00ec 0133     		adds	r3, r3, #1
 8494 00ee 40F6C832 		movw	r2, #3016
 8495 00f2 02FB03F3 		mul	r3, r2, r3
 8496 00f6 4E4A     		ldr	r2, .L339
 8497 00f8 1A44     		add	r2, r2, r3
 8498 00fa 7B69     		ldr	r3, [r7, #20]
 8499 00fc DA61     		str	r2, [r3, #28]
2136:.\EncoreImpl.c ****                 pjob->_ppump->_datacontainer._var1 = var1;
 8500              		.loc 1 2136 0
 8501 00fe 7B69     		ldr	r3, [r7, #20]
 8502 0100 DB69     		ldr	r3, [r3, #28]
 8503 0102 3A7C     		ldrb	r2, [r7, #16]
 8504 0104 83F8692B 		strb	r2, [r3, #2921]
2137:.\EncoreImpl.c ****                 pjob->_ppump->_datacontainer._var0 = var0;
 8505              		.loc 1 2137 0
 8506 0108 7B69     		ldr	r3, [r7, #20]
 8507 010a DB69     		ldr	r3, [r3, #28]
 8508 010c 7A7C     		ldrb	r2, [r7, #17]
 8509 010e 83F8682B 		strb	r2, [r3, #2920]
2138:.\EncoreImpl.c ****                 _g_dispenserlayoutinfo._numpositions++;
 8510              		.loc 1 2138 0
 8511 0112 484B     		ldr	r3, .L339+4
 8512 0114 9B78     		ldrb	r3, [r3, #2]	@ zero_extendqisi2
 8513 0116 0133     		adds	r3, r3, #1
 8514 0118 DAB2     		uxtb	r2, r3
 8515 011a 464B     		ldr	r3, .L339+4
 8516 011c 9A70     		strb	r2, [r3, #2]
2139:.\EncoreImpl.c ****                 
2140:.\EncoreImpl.c ****                 break;
 8517              		.loc 1 2140 0
 8518 011e 4DE0     		b	.L330
 8519              	.L334:
 8520              	.LBE60:
 8521              	.LBB61:
2141:.\EncoreImpl.c ****             }
2142:.\EncoreImpl.c ****             case 2:
2143:.\EncoreImpl.c ****             {
2144:.\EncoreImpl.c ****                 
2145:.\EncoreImpl.c ****                 ClearEepromBuffer();
 8522              		.loc 1 2145 0
 8523 0120 FFF7FEFF 		bl	ClearEepromBuffer
2146:.\EncoreImpl.c ****                 //Cleanup of the pump identifier in order to start the enumeration procedure
2147:.\EncoreImpl.c ****                 LoadEepromPage(EEPROM_DISPENSER_PUMP3_LAYOUT_PAGE);
 8524              		.loc 1 2147 0
ARM GAS  C:\Users\RECEPC~1\AppData\Local\Temp\ccMZb0bC.s 			page 189


 8525 0124 4FF42070 		mov	r0, #640
 8526 0128 FFF7FEFF 		bl	LoadEepromPage
2148:.\EncoreImpl.c ****                 GetEepromBuffer()[0] = pjob->_ppump->_pumpid;
 8527              		.loc 1 2148 0
 8528 012c FFF7FEFF 		bl	GetEepromBuffer
 8529 0130 0246     		mov	r2, r0
 8530 0132 7B69     		ldr	r3, [r7, #20]
 8531 0134 DB69     		ldr	r3, [r3, #28]
 8532 0136 1B78     		ldrb	r3, [r3]	@ zero_extendqisi2
 8533 0138 1370     		strb	r3, [r2]
2149:.\EncoreImpl.c ****                 StoreEepromPage(EEPROM_DISPENSER_PUMP3_LAYOUT_PAGE);
 8534              		.loc 1 2149 0
 8535 013a 4FF42070 		mov	r0, #640
 8536 013e FFF7FEFF 		bl	StoreEepromPage
2150:.\EncoreImpl.c ****                 
2151:.\EncoreImpl.c ****                 uint8 var0 = pjob->_ppump->_datacontainer._var0;
 8537              		.loc 1 2151 0
 8538 0142 7B69     		ldr	r3, [r7, #20]
 8539 0144 DB69     		ldr	r3, [r3, #28]
 8540 0146 93F8683B 		ldrb	r3, [r3, #2920]
 8541 014a FB73     		strb	r3, [r7, #15]
2152:.\EncoreImpl.c ****                 uint8 var1 = pjob->_ppump->_datacontainer._var1;
 8542              		.loc 1 2152 0
 8543 014c 7B69     		ldr	r3, [r7, #20]
 8544 014e DB69     		ldr	r3, [r3, #28]
 8545 0150 93F8693B 		ldrb	r3, [r3, #2921]
 8546 0154 BB73     		strb	r3, [r7, #14]
2153:.\EncoreImpl.c ****                 pjob->_ppump = &_g_pumps[var1 + 1];
 8547              		.loc 1 2153 0
 8548 0156 BB7B     		ldrb	r3, [r7, #14]	@ zero_extendqisi2
 8549 0158 0133     		adds	r3, r3, #1
 8550 015a 40F6C832 		movw	r2, #3016
 8551 015e 02FB03F3 		mul	r3, r2, r3
 8552 0162 334A     		ldr	r2, .L339
 8553 0164 1A44     		add	r2, r2, r3
 8554 0166 7B69     		ldr	r3, [r7, #20]
 8555 0168 DA61     		str	r2, [r3, #28]
2154:.\EncoreImpl.c ****                 pjob->_ppump->_datacontainer._var1 = var1;
 8556              		.loc 1 2154 0
 8557 016a 7B69     		ldr	r3, [r7, #20]
 8558 016c DB69     		ldr	r3, [r3, #28]
 8559 016e BA7B     		ldrb	r2, [r7, #14]
 8560 0170 83F8692B 		strb	r2, [r3, #2921]
2155:.\EncoreImpl.c ****                 pjob->_ppump->_datacontainer._var0 = var0;
 8561              		.loc 1 2155 0
 8562 0174 7B69     		ldr	r3, [r7, #20]
 8563 0176 DB69     		ldr	r3, [r3, #28]
 8564 0178 FA7B     		ldrb	r2, [r7, #15]
 8565 017a 83F8682B 		strb	r2, [r3, #2920]
2156:.\EncoreImpl.c ****                 _g_dispenserlayoutinfo._numpositions++;
 8566              		.loc 1 2156 0
 8567 017e 2D4B     		ldr	r3, .L339+4
 8568 0180 9B78     		ldrb	r3, [r3, #2]	@ zero_extendqisi2
 8569 0182 0133     		adds	r3, r3, #1
 8570 0184 DAB2     		uxtb	r2, r3
 8571 0186 2B4B     		ldr	r3, .L339+4
 8572 0188 9A70     		strb	r2, [r3, #2]
ARM GAS  C:\Users\RECEPC~1\AppData\Local\Temp\ccMZb0bC.s 			page 190


2157:.\EncoreImpl.c ****                 
2158:.\EncoreImpl.c ****                 break;
 8573              		.loc 1 2158 0
 8574 018a 17E0     		b	.L330
 8575              	.L335:
 8576              	.LBE61:
2159:.\EncoreImpl.c ****             }
2160:.\EncoreImpl.c ****             case 3:
2161:.\EncoreImpl.c ****             {
2162:.\EncoreImpl.c ****                 
2163:.\EncoreImpl.c ****                 ClearEepromBuffer();
 8577              		.loc 1 2163 0
 8578 018c FFF7FEFF 		bl	ClearEepromBuffer
2164:.\EncoreImpl.c ****                 //Cleanup of the pump identifier in order to start the enumeration procedure
2165:.\EncoreImpl.c ****                 LoadEepromPage(EEPROM_DISPENSER_PUMP4_LAYOUT_PAGE);
 8579              		.loc 1 2165 0
 8580 0190 4FF43070 		mov	r0, #704
 8581 0194 FFF7FEFF 		bl	LoadEepromPage
2166:.\EncoreImpl.c ****                 GetEepromBuffer()[0] = pjob->_ppump->_pumpid;                
 8582              		.loc 1 2166 0
 8583 0198 FFF7FEFF 		bl	GetEepromBuffer
 8584 019c 0246     		mov	r2, r0
 8585 019e 7B69     		ldr	r3, [r7, #20]
 8586 01a0 DB69     		ldr	r3, [r3, #28]
 8587 01a2 1B78     		ldrb	r3, [r3]	@ zero_extendqisi2
 8588 01a4 1370     		strb	r3, [r2]
2167:.\EncoreImpl.c ****                 StoreEepromPage(EEPROM_DISPENSER_PUMP4_LAYOUT_PAGE);
 8589              		.loc 1 2167 0
 8590 01a6 4FF43070 		mov	r0, #704
 8591 01aa FFF7FEFF 		bl	StoreEepromPage
2168:.\EncoreImpl.c ****                 _g_dispenserlayoutinfo._numpositions++;
 8592              		.loc 1 2168 0
 8593 01ae 214B     		ldr	r3, .L339+4
 8594 01b0 9B78     		ldrb	r3, [r3, #2]	@ zero_extendqisi2
 8595 01b2 0133     		adds	r3, r3, #1
 8596 01b4 DAB2     		uxtb	r2, r3
 8597 01b6 1F4B     		ldr	r3, .L339+4
 8598 01b8 9A70     		strb	r2, [r3, #2]
2169:.\EncoreImpl.c ****                 
2170:.\EncoreImpl.c ****                 break;
 8599              		.loc 1 2170 0
 8600 01ba 00BF     		nop
 8601              	.L330:
2171:.\EncoreImpl.c ****             }
2172:.\EncoreImpl.c ****         }
2173:.\EncoreImpl.c ****         pjob->_ppump->_datacontainer._var1++;
 8602              		.loc 1 2173 0
 8603 01bc 7B69     		ldr	r3, [r7, #20]
 8604 01be DB69     		ldr	r3, [r3, #28]
 8605 01c0 93F8692B 		ldrb	r2, [r3, #2921]
 8606 01c4 D2B2     		uxtb	r2, r2
 8607 01c6 0132     		adds	r2, r2, #1
 8608 01c8 D2B2     		uxtb	r2, r2
 8609 01ca 83F8692B 		strb	r2, [r3, #2921]
2174:.\EncoreImpl.c ****         if(pjob->_ppump->_datacontainer._var1 < _MAX_NUMBER_OF_PUMPS_)
 8610              		.loc 1 2174 0
 8611 01ce 7B69     		ldr	r3, [r7, #20]
ARM GAS  C:\Users\RECEPC~1\AppData\Local\Temp\ccMZb0bC.s 			page 191


 8612 01d0 DB69     		ldr	r3, [r3, #28]
 8613 01d2 93F8693B 		ldrb	r3, [r3, #2921]
 8614 01d6 DBB2     		uxtb	r3, r3
 8615 01d8 032B     		cmp	r3, #3
 8616 01da 11D8     		bhi	.L336
2175:.\EncoreImpl.c ****         {
2176:.\EncoreImpl.c ****             pjob->_ppump->_datacontainer._var0++;
 8617              		.loc 1 2176 0
 8618 01dc 7B69     		ldr	r3, [r7, #20]
 8619 01de DB69     		ldr	r3, [r3, #28]
 8620 01e0 93F8682B 		ldrb	r2, [r3, #2920]
 8621 01e4 D2B2     		uxtb	r2, r2
 8622 01e6 0132     		adds	r2, r2, #1
 8623 01e8 D2B2     		uxtb	r2, r2
 8624 01ea 83F8682B 		strb	r2, [r3, #2920]
2177:.\EncoreImpl.c ****             pjob->_ppump->_pumpid = pjob->_ppump->_datacontainer._var0;
 8625              		.loc 1 2177 0
 8626 01ee 7B69     		ldr	r3, [r7, #20]
 8627 01f0 DB69     		ldr	r3, [r3, #28]
 8628 01f2 7A69     		ldr	r2, [r7, #20]
 8629 01f4 D269     		ldr	r2, [r2, #28]
 8630 01f6 92F8682B 		ldrb	r2, [r2, #2920]
 8631 01fa D2B2     		uxtb	r2, r2
 8632 01fc 1A70     		strb	r2, [r3]
 8633 01fe 14E0     		b	.L328
 8634              	.L336:
2178:.\EncoreImpl.c ****         }else{//This is the end of the enumeration procedure
2179:.\EncoreImpl.c ****             pjob->_reenqueue = false;
 8635              		.loc 1 2179 0
 8636 0200 7B69     		ldr	r3, [r7, #20]
 8637 0202 0022     		movs	r2, #0
 8638 0204 1A70     		strb	r2, [r3]
2180:.\EncoreImpl.c ****             
2181:.\EncoreImpl.c ****             //Chance for any extra initialization
2182:.\EncoreImpl.c ****             if(_g_ptractprogramming == PNEAR_NULLPTR)
 8639              		.loc 1 2182 0
 8640 0206 0C4B     		ldr	r3, .L339+8
 8641 0208 1B68     		ldr	r3, [r3]
 8642 020a 002B     		cmp	r3, #0
 8643 020c 0DD1     		bne	.L328
2183:.\EncoreImpl.c ****                 _g_ptractprogramming = EncoreActivateProgramming;
 8644              		.loc 1 2183 0
 8645 020e 0A4B     		ldr	r3, .L339+8
 8646 0210 0A4A     		ldr	r2, .L339+12
 8647 0212 1A60     		str	r2, [r3]
 8648 0214 09E0     		b	.L328
 8649              	.L329:
2184:.\EncoreImpl.c ****         }
2185:.\EncoreImpl.c ****         
2186:.\EncoreImpl.c ****     }else{//This is the end of the enumeration procedure
2187:.\EncoreImpl.c ****         pjob->_reenqueue = false;
 8650              		.loc 1 2187 0
 8651 0216 7B69     		ldr	r3, [r7, #20]
 8652 0218 0022     		movs	r2, #0
 8653 021a 1A70     		strb	r2, [r3]
2188:.\EncoreImpl.c ****         
2189:.\EncoreImpl.c ****         //Chance for any extra initialization
ARM GAS  C:\Users\RECEPC~1\AppData\Local\Temp\ccMZb0bC.s 			page 192


2190:.\EncoreImpl.c ****         if(_g_ptractprogramming == PNEAR_NULLPTR)
 8654              		.loc 1 2190 0
 8655 021c 064B     		ldr	r3, .L339+8
 8656 021e 1B68     		ldr	r3, [r3]
 8657 0220 002B     		cmp	r3, #0
 8658 0222 02D1     		bne	.L328
2191:.\EncoreImpl.c ****             _g_ptractprogramming = EncoreActivateProgramming;
 8659              		.loc 1 2191 0
 8660 0224 044B     		ldr	r3, .L339+8
 8661 0226 054A     		ldr	r2, .L339+12
 8662 0228 1A60     		str	r2, [r3]
 8663              	.L328:
2192:.\EncoreImpl.c ****     }
2193:.\EncoreImpl.c **** }
 8664              		.loc 1 2193 0
 8665 022a 1837     		adds	r7, r7, #24
 8666              		.cfi_def_cfa_offset 8
 8667 022c BD46     		mov	sp, r7
 8668              		.cfi_def_cfa_register 13
 8669              		@ sp needed
 8670 022e 80BD     		pop	{r7, pc}
 8671              	.L340:
 8672              		.align	2
 8673              	.L339:
 8674 0230 00000000 		.word	_g_pumps
 8675 0234 00000000 		.word	_g_dispenserlayoutinfo
 8676 0238 00000000 		.word	_g_ptractprogramming
 8677 023c 00000000 		.word	EncoreActivateProgramming
 8678              		.cfi_endproc
 8679              	.LFE95:
 8680              		.size	AcquirePumpEnumeratorResponse, .-AcquirePumpEnumeratorResponse
 8681              		.section	.text.PumpEnumeratorTimeout,"ax",%progbits
 8682              		.align	2
 8683              		.global	PumpEnumeratorTimeout
 8684              		.thumb
 8685              		.thumb_func
 8686              		.type	PumpEnumeratorTimeout, %function
 8687              	PumpEnumeratorTimeout:
 8688              	.LFB96:
2194:.\EncoreImpl.c **** 
2195:.\EncoreImpl.c **** //@Created By: HIJH
2196:.\EncoreImpl.c **** //@Septembre de 2016
2197:.\EncoreImpl.c **** void PumpEnumeratorTimeout(void *pparam)
2198:.\EncoreImpl.c **** {
 8689              		.loc 1 2198 0
 8690              		.cfi_startproc
 8691              		@ args = 0, pretend = 0, frame = 16
 8692              		@ frame_needed = 1, uses_anonymous_args = 0
 8693              		@ link register save eliminated.
 8694 0000 80B4     		push	{r7}
 8695              		.cfi_def_cfa_offset 4
 8696              		.cfi_offset 7, -4
 8697 0002 85B0     		sub	sp, sp, #20
 8698              		.cfi_def_cfa_offset 24
 8699 0004 00AF     		add	r7, sp, #0
 8700              		.cfi_def_cfa_register 7
 8701 0006 7860     		str	r0, [r7, #4]
ARM GAS  C:\Users\RECEPC~1\AppData\Local\Temp\ccMZb0bC.s 			page 193


2199:.\EncoreImpl.c ****     PPUMPTRANSACTIONJOBCONTEXTPTR pjob = (PPUMPTRANSACTIONJOBCONTEXTPTR)pparam;
 8702              		.loc 1 2199 0
 8703 0008 7B68     		ldr	r3, [r7, #4]
 8704 000a FB60     		str	r3, [r7, #12]
2200:.\EncoreImpl.c ****     //_var0 holds the iterator index that goes from 0x0:pump16 to 0xF:pump15
2201:.\EncoreImpl.c ****     if(pjob->_ppump->_datacontainer._var0 < 0x10)
 8705              		.loc 1 2201 0
 8706 000c FB68     		ldr	r3, [r7, #12]
 8707 000e DB69     		ldr	r3, [r3, #28]
 8708 0010 93F8683B 		ldrb	r3, [r3, #2920]
 8709 0014 DBB2     		uxtb	r3, r3
 8710 0016 0F2B     		cmp	r3, #15
 8711 0018 14D8     		bhi	.L342
2202:.\EncoreImpl.c ****     {
2203:.\EncoreImpl.c ****         pjob->_retriescounter = 0;
 8712              		.loc 1 2203 0
 8713 001a FB68     		ldr	r3, [r7, #12]
 8714 001c 0022     		movs	r2, #0
 8715 001e DA81     		strh	r2, [r3, #14]	@ movhi
2204:.\EncoreImpl.c ****         pjob->_ppump->_datacontainer._var0++;
 8716              		.loc 1 2204 0
 8717 0020 FB68     		ldr	r3, [r7, #12]
 8718 0022 DB69     		ldr	r3, [r3, #28]
 8719 0024 93F8682B 		ldrb	r2, [r3, #2920]
 8720 0028 D2B2     		uxtb	r2, r2
 8721 002a 0132     		adds	r2, r2, #1
 8722 002c D2B2     		uxtb	r2, r2
 8723 002e 83F8682B 		strb	r2, [r3, #2920]
2205:.\EncoreImpl.c ****         pjob->_ppump->_pumpid = pjob->_ppump->_datacontainer._var0;
 8724              		.loc 1 2205 0
 8725 0032 FB68     		ldr	r3, [r7, #12]
 8726 0034 DB69     		ldr	r3, [r3, #28]
 8727 0036 FA68     		ldr	r2, [r7, #12]
 8728 0038 D269     		ldr	r2, [r2, #28]
 8729 003a 92F8682B 		ldrb	r2, [r2, #2920]
 8730 003e D2B2     		uxtb	r2, r2
 8731 0040 1A70     		strb	r2, [r3]
 8732 0042 09E0     		b	.L341
 8733              	.L342:
2206:.\EncoreImpl.c ****     }else{
2207:.\EncoreImpl.c ****         pjob->_reenqueue = false;
 8734              		.loc 1 2207 0
 8735 0044 FB68     		ldr	r3, [r7, #12]
 8736 0046 0022     		movs	r2, #0
 8737 0048 1A70     		strb	r2, [r3]
2208:.\EncoreImpl.c ****         
2209:.\EncoreImpl.c ****         if(_g_ptractprogramming == PNEAR_NULLPTR)
 8738              		.loc 1 2209 0
 8739 004a 064B     		ldr	r3, .L344
 8740 004c 1B68     		ldr	r3, [r3]
 8741 004e 002B     		cmp	r3, #0
 8742 0050 02D1     		bne	.L341
2210:.\EncoreImpl.c ****             _g_ptractprogramming = EncoreActivateProgramming;
 8743              		.loc 1 2210 0
 8744 0052 044B     		ldr	r3, .L344
 8745 0054 044A     		ldr	r2, .L344+4
 8746 0056 1A60     		str	r2, [r3]
ARM GAS  C:\Users\RECEPC~1\AppData\Local\Temp\ccMZb0bC.s 			page 194


 8747              	.L341:
2211:.\EncoreImpl.c ****     }
2212:.\EncoreImpl.c **** }
 8748              		.loc 1 2212 0
 8749 0058 1437     		adds	r7, r7, #20
 8750              		.cfi_def_cfa_offset 4
 8751 005a BD46     		mov	sp, r7
 8752              		.cfi_def_cfa_register 13
 8753              		@ sp needed
 8754 005c 5DF8047B 		ldr	r7, [sp], #4
 8755              		.cfi_restore 7
 8756              		.cfi_def_cfa_offset 0
 8757 0060 7047     		bx	lr
 8758              	.L345:
 8759 0062 00BF     		.align	2
 8760              	.L344:
 8761 0064 00000000 		.word	_g_ptractprogramming
 8762 0068 00000000 		.word	EncoreActivateProgramming
 8763              		.cfi_endproc
 8764              	.LFE96:
 8765              		.size	PumpEnumeratorTimeout, .-PumpEnumeratorTimeout
 8766              		.section	.text.AcquirePumpTotalsResponseResolver,"ax",%progbits
 8767              		.align	2
 8768              		.global	AcquirePumpTotalsResponseResolver
 8769              		.thumb
 8770              		.thumb_func
 8771              		.type	AcquirePumpTotalsResponseResolver, %function
 8772              	AcquirePumpTotalsResponseResolver:
 8773              	.LFB97:
2213:.\EncoreImpl.c **** 
2214:.\EncoreImpl.c **** //@Created By: HIJH
2215:.\EncoreImpl.c **** //@Septembre de 2016
2216:.\EncoreImpl.c **** bool AcquirePumpTotalsResponseResolver(void *pparam, void *pbuffer, uint16 buffersize)
2217:.\EncoreImpl.c **** {
 8774              		.loc 1 2217 0
 8775              		.cfi_startproc
 8776              		@ args = 0, pretend = 0, frame = 24
 8777              		@ frame_needed = 1, uses_anonymous_args = 0
 8778              		@ link register save eliminated.
 8779 0000 80B4     		push	{r7}
 8780              		.cfi_def_cfa_offset 4
 8781              		.cfi_offset 7, -4
 8782 0002 87B0     		sub	sp, sp, #28
 8783              		.cfi_def_cfa_offset 32
 8784 0004 00AF     		add	r7, sp, #0
 8785              		.cfi_def_cfa_register 7
 8786 0006 F860     		str	r0, [r7, #12]
 8787 0008 B960     		str	r1, [r7, #8]
 8788 000a 1346     		mov	r3, r2
 8789 000c FB80     		strh	r3, [r7, #6]	@ movhi
2218:.\EncoreImpl.c ****     bool retval = false;
 8790              		.loc 1 2218 0
 8791 000e 0023     		movs	r3, #0
 8792 0010 FB75     		strb	r3, [r7, #23]
2219:.\EncoreImpl.c ****     PNEAR_PUMPPTR ppump = (PNEAR_PUMPPTR)pparam;
 8793              		.loc 1 2219 0
 8794 0012 FB68     		ldr	r3, [r7, #12]
ARM GAS  C:\Users\RECEPC~1\AppData\Local\Temp\ccMZb0bC.s 			page 195


 8795 0014 3B61     		str	r3, [r7, #16]
2220:.\EncoreImpl.c ****     
2221:.\EncoreImpl.c ****     if(_g_dispenserlayoutinfo._displaydigitsmode == 0x06)
 8796              		.loc 1 2221 0
 8797 0016 504B     		ldr	r3, .L361
 8798 0018 1B7C     		ldrb	r3, [r3, #16]	@ zero_extendqisi2
 8799 001a 062B     		cmp	r3, #6
 8800 001c 4DD1     		bne	.L347
2222:.\EncoreImpl.c ****     {            
2223:.\EncoreImpl.c ****         switch(ppump->_pumpindex)
 8801              		.loc 1 2223 0
 8802 001e 3B69     		ldr	r3, [r7, #16]
 8803 0020 5B78     		ldrb	r3, [r3, #1]	@ zero_extendqisi2
 8804 0022 032B     		cmp	r3, #3
 8805 0024 00F29080 		bhi	.L354
 8806 0028 01A2     		adr	r2, .L350
 8807 002a 52F823F0 		ldr	pc, [r2, r3, lsl #2]
 8808 002e 00BF     		.p2align 2
 8809              	.L350:
 8810 0030 41000000 		.word	.L349+1
 8811 0034 5F000000 		.word	.L351+1
 8812 0038 7D000000 		.word	.L352+1
 8813 003c 9B000000 		.word	.L353+1
 8814              		.p2align 1
 8815              	.L349:
2224:.\EncoreImpl.c ****         {
2225:.\EncoreImpl.c ****             case 0x00:
2226:.\EncoreImpl.c ****                 retval = (buffersize >= (_g_dispenserlayoutinfo._hosesposition1*_PUMP_TOTALS_BUFFER
 8816              		.loc 1 2226 0
 8817 0040 FA88     		ldrh	r2, [r7, #6]
 8818 0042 454B     		ldr	r3, .L361
 8819 0044 DB78     		ldrb	r3, [r3, #3]	@ zero_extendqisi2
 8820 0046 1946     		mov	r1, r3
 8821 0048 0B46     		mov	r3, r1
 8822 004a 1B01     		lsls	r3, r3, #4
 8823 004c 5B1A     		subs	r3, r3, r1
 8824 004e 5B00     		lsls	r3, r3, #1
 8825 0050 0433     		adds	r3, r3, #4
 8826 0052 9A42     		cmp	r2, r3
 8827 0054 ACBF     		ite	ge
 8828 0056 0123     		movge	r3, #1
 8829 0058 0023     		movlt	r3, #0
 8830 005a FB75     		strb	r3, [r7, #23]
2227:.\EncoreImpl.c ****             break;
 8831              		.loc 1 2227 0
 8832 005c 2CE0     		b	.L348
 8833              	.L351:
2228:.\EncoreImpl.c ****             case 0x01:
2229:.\EncoreImpl.c ****                 retval = (buffersize >= (_g_dispenserlayoutinfo._hosesposition2*_PUMP_TOTALS_BUFFER
 8834              		.loc 1 2229 0
 8835 005e FA88     		ldrh	r2, [r7, #6]
 8836 0060 3D4B     		ldr	r3, .L361
 8837 0062 1B79     		ldrb	r3, [r3, #4]	@ zero_extendqisi2
 8838 0064 1946     		mov	r1, r3
 8839 0066 0B46     		mov	r3, r1
 8840 0068 1B01     		lsls	r3, r3, #4
 8841 006a 5B1A     		subs	r3, r3, r1
ARM GAS  C:\Users\RECEPC~1\AppData\Local\Temp\ccMZb0bC.s 			page 196


 8842 006c 5B00     		lsls	r3, r3, #1
 8843 006e 0433     		adds	r3, r3, #4
 8844 0070 9A42     		cmp	r2, r3
 8845 0072 ACBF     		ite	ge
 8846 0074 0123     		movge	r3, #1
 8847 0076 0023     		movlt	r3, #0
 8848 0078 FB75     		strb	r3, [r7, #23]
2230:.\EncoreImpl.c ****             break;
 8849              		.loc 1 2230 0
 8850 007a 1DE0     		b	.L348
 8851              	.L352:
2231:.\EncoreImpl.c ****             case 0x02:
2232:.\EncoreImpl.c ****                 retval = (buffersize >= (_g_dispenserlayoutinfo._hosesposition3*_PUMP_TOTALS_BUFFER
 8852              		.loc 1 2232 0
 8853 007c FA88     		ldrh	r2, [r7, #6]
 8854 007e 364B     		ldr	r3, .L361
 8855 0080 5B79     		ldrb	r3, [r3, #5]	@ zero_extendqisi2
 8856 0082 1946     		mov	r1, r3
 8857 0084 0B46     		mov	r3, r1
 8858 0086 1B01     		lsls	r3, r3, #4
 8859 0088 5B1A     		subs	r3, r3, r1
 8860 008a 5B00     		lsls	r3, r3, #1
 8861 008c 0433     		adds	r3, r3, #4
 8862 008e 9A42     		cmp	r2, r3
 8863 0090 ACBF     		ite	ge
 8864 0092 0123     		movge	r3, #1
 8865 0094 0023     		movlt	r3, #0
 8866 0096 FB75     		strb	r3, [r7, #23]
2233:.\EncoreImpl.c ****             break;
 8867              		.loc 1 2233 0
 8868 0098 0EE0     		b	.L348
 8869              	.L353:
2234:.\EncoreImpl.c ****             case 0x03:
2235:.\EncoreImpl.c ****                 retval = (buffersize >= (_g_dispenserlayoutinfo._hosesposition4*_PUMP_TOTALS_BUFFER
 8870              		.loc 1 2235 0
 8871 009a FA88     		ldrh	r2, [r7, #6]
 8872 009c 2E4B     		ldr	r3, .L361
 8873 009e 9B79     		ldrb	r3, [r3, #6]	@ zero_extendqisi2
 8874 00a0 1946     		mov	r1, r3
 8875 00a2 0B46     		mov	r3, r1
 8876 00a4 1B01     		lsls	r3, r3, #4
 8877 00a6 5B1A     		subs	r3, r3, r1
 8878 00a8 5B00     		lsls	r3, r3, #1
 8879 00aa 0433     		adds	r3, r3, #4
 8880 00ac 9A42     		cmp	r2, r3
 8881 00ae ACBF     		ite	ge
 8882 00b0 0123     		movge	r3, #1
 8883 00b2 0023     		movlt	r3, #0
 8884 00b4 FB75     		strb	r3, [r7, #23]
2236:.\EncoreImpl.c ****             break;
 8885              		.loc 1 2236 0
 8886 00b6 00BF     		nop
 8887              	.L348:
 8888 00b8 46E0     		b	.L354
 8889              	.L347:
2237:.\EncoreImpl.c ****         }
2238:.\EncoreImpl.c ****     }
ARM GAS  C:\Users\RECEPC~1\AppData\Local\Temp\ccMZb0bC.s 			page 197


2239:.\EncoreImpl.c ****     else
2240:.\EncoreImpl.c ****     {            
2241:.\EncoreImpl.c ****         switch(ppump->_pumpindex)
 8890              		.loc 1 2241 0
 8891 00ba 3B69     		ldr	r3, [r7, #16]
 8892 00bc 5B78     		ldrb	r3, [r3, #1]	@ zero_extendqisi2
 8893 00be 032B     		cmp	r3, #3
 8894 00c0 42D8     		bhi	.L354
 8895 00c2 01A2     		adr	r2, .L356
 8896 00c4 52F823F0 		ldr	pc, [r2, r3, lsl #2]
 8897              		.p2align 2
 8898              	.L356:
 8899 00c8 D9000000 		.word	.L355+1
 8900 00cc F5000000 		.word	.L357+1
 8901 00d0 11010000 		.word	.L358+1
 8902 00d4 2D010000 		.word	.L359+1
 8903              		.p2align 1
 8904              	.L355:
2242:.\EncoreImpl.c ****         {
2243:.\EncoreImpl.c ****             case 0x00:
2244:.\EncoreImpl.c ****                 retval = (buffersize >= (_g_dispenserlayoutinfo._hosesposition1*_PUMP_TOTALS_BUFFER
 8905              		.loc 1 2244 0
 8906 00d8 FA88     		ldrh	r2, [r7, #6]
 8907 00da 1F4B     		ldr	r3, .L361
 8908 00dc DB78     		ldrb	r3, [r3, #3]	@ zero_extendqisi2
 8909 00de 1946     		mov	r1, r3
 8910 00e0 2A23     		movs	r3, #42
 8911 00e2 03FB01F3 		mul	r3, r3, r1
 8912 00e6 0433     		adds	r3, r3, #4
 8913 00e8 9A42     		cmp	r2, r3
 8914 00ea ACBF     		ite	ge
 8915 00ec 0123     		movge	r3, #1
 8916 00ee 0023     		movlt	r3, #0
 8917 00f0 FB75     		strb	r3, [r7, #23]
2245:.\EncoreImpl.c ****             break;
 8918              		.loc 1 2245 0
 8919 00f2 29E0     		b	.L354
 8920              	.L357:
2246:.\EncoreImpl.c ****             case 0x01:
2247:.\EncoreImpl.c ****                 retval = (buffersize >= (_g_dispenserlayoutinfo._hosesposition2*_PUMP_TOTALS_BUFFER
 8921              		.loc 1 2247 0
 8922 00f4 FA88     		ldrh	r2, [r7, #6]
 8923 00f6 184B     		ldr	r3, .L361
 8924 00f8 1B79     		ldrb	r3, [r3, #4]	@ zero_extendqisi2
 8925 00fa 1946     		mov	r1, r3
 8926 00fc 2A23     		movs	r3, #42
 8927 00fe 03FB01F3 		mul	r3, r3, r1
 8928 0102 0433     		adds	r3, r3, #4
 8929 0104 9A42     		cmp	r2, r3
 8930 0106 ACBF     		ite	ge
 8931 0108 0123     		movge	r3, #1
 8932 010a 0023     		movlt	r3, #0
 8933 010c FB75     		strb	r3, [r7, #23]
2248:.\EncoreImpl.c ****             break;
 8934              		.loc 1 2248 0
 8935 010e 1BE0     		b	.L354
 8936              	.L358:
ARM GAS  C:\Users\RECEPC~1\AppData\Local\Temp\ccMZb0bC.s 			page 198


2249:.\EncoreImpl.c ****             case 0x02:
2250:.\EncoreImpl.c ****                 retval = (buffersize >= (_g_dispenserlayoutinfo._hosesposition3*_PUMP_TOTALS_BUFFER
 8937              		.loc 1 2250 0
 8938 0110 FA88     		ldrh	r2, [r7, #6]
 8939 0112 114B     		ldr	r3, .L361
 8940 0114 5B79     		ldrb	r3, [r3, #5]	@ zero_extendqisi2
 8941 0116 1946     		mov	r1, r3
 8942 0118 2A23     		movs	r3, #42
 8943 011a 03FB01F3 		mul	r3, r3, r1
 8944 011e 0433     		adds	r3, r3, #4
 8945 0120 9A42     		cmp	r2, r3
 8946 0122 ACBF     		ite	ge
 8947 0124 0123     		movge	r3, #1
 8948 0126 0023     		movlt	r3, #0
 8949 0128 FB75     		strb	r3, [r7, #23]
2251:.\EncoreImpl.c ****             break;
 8950              		.loc 1 2251 0
 8951 012a 0DE0     		b	.L354
 8952              	.L359:
2252:.\EncoreImpl.c ****             case 0x03:
2253:.\EncoreImpl.c ****                 retval = (buffersize >= (_g_dispenserlayoutinfo._hosesposition4*_PUMP_TOTALS_BUFFER
 8953              		.loc 1 2253 0
 8954 012c FA88     		ldrh	r2, [r7, #6]
 8955 012e 0A4B     		ldr	r3, .L361
 8956 0130 9B79     		ldrb	r3, [r3, #6]	@ zero_extendqisi2
 8957 0132 1946     		mov	r1, r3
 8958 0134 2A23     		movs	r3, #42
 8959 0136 03FB01F3 		mul	r3, r3, r1
 8960 013a 0433     		adds	r3, r3, #4
 8961 013c 9A42     		cmp	r2, r3
 8962 013e ACBF     		ite	ge
 8963 0140 0123     		movge	r3, #1
 8964 0142 0023     		movlt	r3, #0
 8965 0144 FB75     		strb	r3, [r7, #23]
2254:.\EncoreImpl.c ****             break;
 8966              		.loc 1 2254 0
 8967 0146 00BF     		nop
 8968              	.L354:
2255:.\EncoreImpl.c ****         }
2256:.\EncoreImpl.c ****     }
2257:.\EncoreImpl.c ****     
2258:.\EncoreImpl.c ****     return retval;
 8969              		.loc 1 2258 0
 8970 0148 FB7D     		ldrb	r3, [r7, #23]	@ zero_extendqisi2
2259:.\EncoreImpl.c **** }
 8971              		.loc 1 2259 0
 8972 014a 1846     		mov	r0, r3
 8973 014c 1C37     		adds	r7, r7, #28
 8974              		.cfi_def_cfa_offset 4
 8975 014e BD46     		mov	sp, r7
 8976              		.cfi_def_cfa_register 13
 8977              		@ sp needed
 8978 0150 5DF8047B 		ldr	r7, [sp], #4
 8979              		.cfi_restore 7
 8980              		.cfi_def_cfa_offset 0
 8981 0154 7047     		bx	lr
 8982              	.L362:
ARM GAS  C:\Users\RECEPC~1\AppData\Local\Temp\ccMZb0bC.s 			page 199


 8983 0156 00BF     		.align	2
 8984              	.L361:
 8985 0158 00000000 		.word	_g_dispenserlayoutinfo
 8986              		.cfi_endproc
 8987              	.LFE97:
 8988              		.size	AcquirePumpTotalsResponseResolver, .-AcquirePumpTotalsResponseResolver
 8989              		.section	.text.AcquirePumpTransactionDataResponseResolver,"ax",%progbits
 8990              		.align	2
 8991              		.global	AcquirePumpTransactionDataResponseResolver
 8992              		.thumb
 8993              		.thumb_func
 8994              		.type	AcquirePumpTransactionDataResponseResolver, %function
 8995              	AcquirePumpTransactionDataResponseResolver:
 8996              	.LFB98:
2260:.\EncoreImpl.c **** 
2261:.\EncoreImpl.c **** //@Created By: HIJH
2262:.\EncoreImpl.c **** //@Septembre de 2016
2263:.\EncoreImpl.c **** bool AcquirePumpTransactionDataResponseResolver(void *pparam, void *pbuffer, uint16 buffersize)
2264:.\EncoreImpl.c **** {
 8997              		.loc 1 2264 0
 8998              		.cfi_startproc
 8999              		@ args = 0, pretend = 0, frame = 24
 9000              		@ frame_needed = 1, uses_anonymous_args = 0
 9001              		@ link register save eliminated.
 9002 0000 80B4     		push	{r7}
 9003              		.cfi_def_cfa_offset 4
 9004              		.cfi_offset 7, -4
 9005 0002 87B0     		sub	sp, sp, #28
 9006              		.cfi_def_cfa_offset 32
 9007 0004 00AF     		add	r7, sp, #0
 9008              		.cfi_def_cfa_register 7
 9009 0006 F860     		str	r0, [r7, #12]
 9010 0008 B960     		str	r1, [r7, #8]
 9011 000a 1346     		mov	r3, r2
 9012 000c FB80     		strh	r3, [r7, #6]	@ movhi
2265:.\EncoreImpl.c ****     bool retval = false;
 9013              		.loc 1 2265 0
 9014 000e 0023     		movs	r3, #0
 9015 0010 FB75     		strb	r3, [r7, #23]
2266:.\EncoreImpl.c ****     PNEAR_PUMPPTR ppump = (PNEAR_PUMPPTR)pparam;
 9016              		.loc 1 2266 0
 9017 0012 FB68     		ldr	r3, [r7, #12]
 9018 0014 3B61     		str	r3, [r7, #16]
2267:.\EncoreImpl.c ****     
2268:.\EncoreImpl.c ****     if(_g_dispenserlayoutinfo._displaydigitsmode == 0x06)
 9019              		.loc 1 2268 0
 9020 0016 0C4B     		ldr	r3, .L367
 9021 0018 1B7C     		ldrb	r3, [r3, #16]	@ zero_extendqisi2
 9022 001a 062B     		cmp	r3, #6
 9023 001c 06D1     		bne	.L364
2269:.\EncoreImpl.c ****     {            
2270:.\EncoreImpl.c ****         retval = (buffersize >= PUMP_TRANSACTION_DATA_REQUEST_RESPONSE_SIZE_4DIGITS);
 9024              		.loc 1 2270 0
 9025 001e FB88     		ldrh	r3, [r7, #6]
 9026 0020 202B     		cmp	r3, #32
 9027 0022 8CBF     		ite	hi
 9028 0024 0123     		movhi	r3, #1
ARM GAS  C:\Users\RECEPC~1\AppData\Local\Temp\ccMZb0bC.s 			page 200


 9029 0026 0023     		movls	r3, #0
 9030 0028 FB75     		strb	r3, [r7, #23]
 9031 002a 05E0     		b	.L365
 9032              	.L364:
2271:.\EncoreImpl.c ****     }
2272:.\EncoreImpl.c ****     else
2273:.\EncoreImpl.c ****     {
2274:.\EncoreImpl.c ****         retval = (buffersize >= PUMP_TRANSACTION_DATA_REQUEST_RESPONSE_SIZE);
 9033              		.loc 1 2274 0
 9034 002c FB88     		ldrh	r3, [r7, #6]
 9035 002e 262B     		cmp	r3, #38
 9036 0030 8CBF     		ite	hi
 9037 0032 0123     		movhi	r3, #1
 9038 0034 0023     		movls	r3, #0
 9039 0036 FB75     		strb	r3, [r7, #23]
 9040              	.L365:
2275:.\EncoreImpl.c ****     }
2276:.\EncoreImpl.c ****     
2277:.\EncoreImpl.c ****     return retval;
 9041              		.loc 1 2277 0
 9042 0038 FB7D     		ldrb	r3, [r7, #23]	@ zero_extendqisi2
2278:.\EncoreImpl.c **** }
 9043              		.loc 1 2278 0
 9044 003a 1846     		mov	r0, r3
 9045 003c 1C37     		adds	r7, r7, #28
 9046              		.cfi_def_cfa_offset 4
 9047 003e BD46     		mov	sp, r7
 9048              		.cfi_def_cfa_register 13
 9049              		@ sp needed
 9050 0040 5DF8047B 		ldr	r7, [sp], #4
 9051              		.cfi_restore 7
 9052              		.cfi_def_cfa_offset 0
 9053 0044 7047     		bx	lr
 9054              	.L368:
 9055 0046 00BF     		.align	2
 9056              	.L367:
 9057 0048 00000000 		.word	_g_dispenserlayoutinfo
 9058              		.cfi_endproc
 9059              	.LFE98:
 9060              		.size	AcquirePumpTransactionDataResponseResolver, .-AcquirePumpTransactionDataResponseResolver
 9061              		.section	.text.AcquirePpuChangeResponse,"ax",%progbits
 9062              		.align	2
 9063              		.global	AcquirePpuChangeResponse
 9064              		.thumb
 9065              		.thumb_func
 9066              		.type	AcquirePpuChangeResponse, %function
 9067              	AcquirePpuChangeResponse:
 9068              	.LFB99:
2279:.\EncoreImpl.c **** 
2280:.\EncoreImpl.c **** void AcquirePpuChangeResponse(void *pparam)
2281:.\EncoreImpl.c **** {
 9069              		.loc 1 2281 0
 9070              		.cfi_startproc
 9071              		@ args = 0, pretend = 0, frame = 16
 9072              		@ frame_needed = 1, uses_anonymous_args = 0
 9073              		@ link register save eliminated.
 9074 0000 80B4     		push	{r7}
ARM GAS  C:\Users\RECEPC~1\AppData\Local\Temp\ccMZb0bC.s 			page 201


 9075              		.cfi_def_cfa_offset 4
 9076              		.cfi_offset 7, -4
 9077 0002 85B0     		sub	sp, sp, #20
 9078              		.cfi_def_cfa_offset 24
 9079 0004 00AF     		add	r7, sp, #0
 9080              		.cfi_def_cfa_register 7
 9081 0006 7860     		str	r0, [r7, #4]
2282:.\EncoreImpl.c ****     PPUMPTRANSACTIONJOBCONTEXTPTR pjob = (PPUMPTRANSACTIONJOBCONTEXTPTR)pparam;
 9082              		.loc 1 2282 0
 9083 0008 7B68     		ldr	r3, [r7, #4]
 9084 000a FB60     		str	r3, [r7, #12]
2283:.\EncoreImpl.c ****     if(pjob)
 9085              		.loc 1 2283 0
 9086 000c FB68     		ldr	r3, [r7, #12]
 9087 000e 002B     		cmp	r3, #0
 9088 0010 3AD0     		beq	.L369
2284:.\EncoreImpl.c ****     {
2285:.\EncoreImpl.c ****         pjob->_ppump->_pumpstate = ((pjob->_ppump->_rxbuffer[0x00] & 0xF0) >> 4);
 9089              		.loc 1 2285 0
 9090 0012 FB68     		ldr	r3, [r7, #12]
 9091 0014 DB69     		ldr	r3, [r3, #28]
 9092 0016 FA68     		ldr	r2, [r7, #12]
 9093 0018 D269     		ldr	r2, [r2, #28]
 9094 001a 92F8A021 		ldrb	r2, [r2, #416]	@ zero_extendqisi2
 9095 001e 1209     		lsrs	r2, r2, #4
 9096 0020 D2B2     		uxtb	r2, r2
 9097 0022 9A70     		strb	r2, [r3, #2]
2286:.\EncoreImpl.c ****         
2287:.\EncoreImpl.c ****         switch(_g_dispenserlayoutinfo._numpositions)
 9098              		.loc 1 2287 0
 9099 0024 1B4B     		ldr	r3, .L375
 9100 0026 9B78     		ldrb	r3, [r3, #2]	@ zero_extendqisi2
 9101 0028 022B     		cmp	r3, #2
 9102 002a 02D0     		beq	.L371
 9103 002c 042B     		cmp	r3, #4
 9104 002e 16D0     		beq	.L372
 9105 0030 2AE0     		b	.L369
 9106              	.L371:
2288:.\EncoreImpl.c ****         {
2289:.\EncoreImpl.c ****             case 0x02:
2290:.\EncoreImpl.c ****             {
2291:.\EncoreImpl.c ****                 if(pjob->_ppump->_pumpindex == (_g_dispenserlayoutinfo._numpositions - 1) && (pjob-
 9107              		.loc 1 2291 0
 9108 0032 FB68     		ldr	r3, [r7, #12]
 9109 0034 DB69     		ldr	r3, [r3, #28]
 9110 0036 5B78     		ldrb	r3, [r3, #1]	@ zero_extendqisi2
 9111 0038 1A46     		mov	r2, r3
 9112 003a 164B     		ldr	r3, .L375
 9113 003c 9B78     		ldrb	r3, [r3, #2]	@ zero_extendqisi2
 9114 003e 013B     		subs	r3, r3, #1
 9115 0040 9A42     		cmp	r2, r3
 9116 0042 0BD1     		bne	.L373
 9117              		.loc 1 2291 0 is_stmt 0 discriminator 1
 9118 0044 FB68     		ldr	r3, [r7, #12]
 9119 0046 DB69     		ldr	r3, [r3, #28]
 9120 0048 DB78     		ldrb	r3, [r3, #3]
 9121 004a DAB2     		uxtb	r2, r3
ARM GAS  C:\Users\RECEPC~1\AppData\Local\Temp\ccMZb0bC.s 			page 202


 9122 004c 114B     		ldr	r3, .L375
 9123 004e 1B79     		ldrb	r3, [r3, #4]	@ zero_extendqisi2
 9124 0050 9A42     		cmp	r2, r3
 9125 0052 03D1     		bne	.L373
2292:.\EncoreImpl.c ****                     _g_dispenserlayoutinfo._inconfiguration = false;
 9126              		.loc 1 2292 0 is_stmt 1
 9127 0054 0F4B     		ldr	r3, .L375
 9128 0056 0022     		movs	r2, #0
 9129 0058 1A70     		strb	r2, [r3]
2293:.\EncoreImpl.c ****                 
2294:.\EncoreImpl.c ****                 break;
 9130              		.loc 1 2294 0
 9131 005a 15E0     		b	.L369
 9132              	.L373:
 9133 005c 14E0     		b	.L369
 9134              	.L372:
2295:.\EncoreImpl.c ****             }
2296:.\EncoreImpl.c ****             case 0x04:
2297:.\EncoreImpl.c ****             {
2298:.\EncoreImpl.c ****                 if(pjob->_ppump->_pumpindex == (_g_dispenserlayoutinfo._numpositions - 1) && (pjob-
 9135              		.loc 1 2298 0
 9136 005e FB68     		ldr	r3, [r7, #12]
 9137 0060 DB69     		ldr	r3, [r3, #28]
 9138 0062 5B78     		ldrb	r3, [r3, #1]	@ zero_extendqisi2
 9139 0064 1A46     		mov	r2, r3
 9140 0066 0B4B     		ldr	r3, .L375
 9141 0068 9B78     		ldrb	r3, [r3, #2]	@ zero_extendqisi2
 9142 006a 013B     		subs	r3, r3, #1
 9143 006c 9A42     		cmp	r2, r3
 9144 006e 0AD1     		bne	.L374
 9145              		.loc 1 2298 0 is_stmt 0 discriminator 1
 9146 0070 FB68     		ldr	r3, [r7, #12]
 9147 0072 DB69     		ldr	r3, [r3, #28]
 9148 0074 DB78     		ldrb	r3, [r3, #3]
 9149 0076 DAB2     		uxtb	r2, r3
 9150 0078 064B     		ldr	r3, .L375
 9151 007a 9B79     		ldrb	r3, [r3, #6]	@ zero_extendqisi2
 9152 007c 9A42     		cmp	r2, r3
 9153 007e 02D1     		bne	.L374
2299:.\EncoreImpl.c ****                     _g_dispenserlayoutinfo._inconfiguration = false;
 9154              		.loc 1 2299 0 is_stmt 1
 9155 0080 044B     		ldr	r3, .L375
 9156 0082 0022     		movs	r2, #0
 9157 0084 1A70     		strb	r2, [r3]
 9158              	.L374:
2300:.\EncoreImpl.c ****                 
2301:.\EncoreImpl.c ****                 break;
 9159              		.loc 1 2301 0
 9160 0086 00BF     		nop
 9161              	.L369:
2302:.\EncoreImpl.c ****             }
2303:.\EncoreImpl.c ****         }
2304:.\EncoreImpl.c ****     }
2305:.\EncoreImpl.c **** }
 9162              		.loc 1 2305 0
 9163 0088 1437     		adds	r7, r7, #20
 9164              		.cfi_def_cfa_offset 4
ARM GAS  C:\Users\RECEPC~1\AppData\Local\Temp\ccMZb0bC.s 			page 203


 9165 008a BD46     		mov	sp, r7
 9166              		.cfi_def_cfa_register 13
 9167              		@ sp needed
 9168 008c 5DF8047B 		ldr	r7, [sp], #4
 9169              		.cfi_restore 7
 9170              		.cfi_def_cfa_offset 0
 9171 0090 7047     		bx	lr
 9172              	.L376:
 9173 0092 00BF     		.align	2
 9174              	.L375:
 9175 0094 00000000 		.word	_g_dispenserlayoutinfo
 9176              		.cfi_endproc
 9177              	.LFE99:
 9178              		.size	AcquirePpuChangeResponse, .-AcquirePpuChangeResponse
 9179              		.section	.text.EncoreActivateProgramming,"ax",%progbits
 9180              		.align	2
 9181              		.global	EncoreActivateProgramming
 9182              		.thumb
 9183              		.thumb_func
 9184              		.type	EncoreActivateProgramming, %function
 9185              	EncoreActivateProgramming:
 9186              	.LFB100:
2306:.\EncoreImpl.c **** 
2307:.\EncoreImpl.c **** //@Created By: HIJH
2308:.\EncoreImpl.c **** //@Novembre de 2016
2309:.\EncoreImpl.c **** void EncoreActivateProgramming(LPVOID pparam)
2310:.\EncoreImpl.c **** {
 9187              		.loc 1 2310 0
 9188              		.cfi_startproc
 9189              		@ args = 0, pretend = 0, frame = 24
 9190              		@ frame_needed = 1, uses_anonymous_args = 0
 9191 0000 80B5     		push	{r7, lr}
 9192              		.cfi_def_cfa_offset 8
 9193              		.cfi_offset 7, -8
 9194              		.cfi_offset 14, -4
 9195 0002 86B0     		sub	sp, sp, #24
 9196              		.cfi_def_cfa_offset 32
 9197 0004 00AF     		add	r7, sp, #0
 9198              		.cfi_def_cfa_register 7
 9199 0006 7860     		str	r0, [r7, #4]
2311:.\EncoreImpl.c ****     PNEAR_PUMPPTR ppump = &_g_pumps[0x00];
 9200              		.loc 1 2311 0
 9201 0008 264B     		ldr	r3, .L382
 9202 000a 3B61     		str	r3, [r7, #16]
2312:.\EncoreImpl.c ****     PSINKMESSAGEPTR pmsg = (PSINKMESSAGEPTR)pparam;
 9203              		.loc 1 2312 0
 9204 000c 7B68     		ldr	r3, [r7, #4]
 9205 000e FB60     		str	r3, [r7, #12]
2313:.\EncoreImpl.c ****     if(ppump)
 9206              		.loc 1 2313 0
 9207 0010 3B69     		ldr	r3, [r7, #16]
 9208 0012 002B     		cmp	r3, #0
 9209 0014 42D0     		beq	.L377
 9210              	.LBB62:
2314:.\EncoreImpl.c ****     {
2315:.\EncoreImpl.c ****         ppump->_acquiringstate = true;
 9211              		.loc 1 2315 0
ARM GAS  C:\Users\RECEPC~1\AppData\Local\Temp\ccMZb0bC.s 			page 204


 9212 0016 3B69     		ldr	r3, [r7, #16]
 9213 0018 0122     		movs	r2, #1
 9214 001a 5A71     		strb	r2, [r3, #5]
2316:.\EncoreImpl.c ****         ppump->_pcurrtransaction = GetTransactionByName(_PUMP_PROGRAM_MODE_);
 9215              		.loc 1 2316 0
 9216 001c 4F20     		movs	r0, #79
 9217 001e FFF7FEFF 		bl	GetTransactionByName
 9218 0022 0246     		mov	r2, r0
 9219 0024 3B69     		ldr	r3, [r7, #16]
 9220 0026 DA61     		str	r2, [r3, #28]
2317:.\EncoreImpl.c ****         PumpTransactionJob *ptrjob = &((PumpTransaction*)ppump->_pcurrtransaction)->_jobs[0];
 9221              		.loc 1 2317 0
 9222 0028 3B69     		ldr	r3, [r7, #16]
 9223 002a DB69     		ldr	r3, [r3, #28]
 9224 002c 0433     		adds	r3, r3, #4
 9225 002e 7B61     		str	r3, [r7, #20]
2318:.\EncoreImpl.c ****         if(ptrjob)
 9226              		.loc 1 2318 0
 9227 0030 7B69     		ldr	r3, [r7, #20]
 9228 0032 002B     		cmp	r3, #0
 9229 0034 32D0     		beq	.L377
2319:.\EncoreImpl.c ****         {
2320:.\EncoreImpl.c ****             while(ptrjob->Request != NULL)
 9230              		.loc 1 2320 0
 9231 0036 2DE0     		b	.L379
 9232              	.L381:
 9233              	.LBB63:
2321:.\EncoreImpl.c ****             {
2322:.\EncoreImpl.c ****                 PPUMPTRANSACTIONJOBCONTEXTPTR pjobcntr = _g_pumpjobqueue.Allocate(&_g_pumpjobqueue)
 9234              		.loc 1 2322 0
 9235 0038 1B4B     		ldr	r3, .L382+4
 9236 003a D3F84838 		ldr	r3, [r3, #2120]
 9237 003e 1A48     		ldr	r0, .L382+4
 9238 0040 9847     		blx	r3
 9239 0042 B860     		str	r0, [r7, #8]
2323:.\EncoreImpl.c ****                 if(pjobcntr)
 9240              		.loc 1 2323 0
 9241 0044 BB68     		ldr	r3, [r7, #8]
 9242 0046 002B     		cmp	r3, #0
 9243 0048 21D0     		beq	.L380
2324:.\EncoreImpl.c ****                 {
2325:.\EncoreImpl.c ****                     pjobcntr->_reenqueue = false;
 9244              		.loc 1 2325 0
 9245 004a BB68     		ldr	r3, [r7, #8]
 9246 004c 0022     		movs	r2, #0
 9247 004e 1A70     		strb	r2, [r3]
2326:.\EncoreImpl.c ****                     pjobcntr->_prequest = ptrjob;
 9248              		.loc 1 2326 0
 9249 0050 BB68     		ldr	r3, [r7, #8]
 9250 0052 7A69     		ldr	r2, [r7, #20]
 9251 0054 5A61     		str	r2, [r3, #20]
2327:.\EncoreImpl.c ****                     pjobcntr->_presponse = NULL;
 9252              		.loc 1 2327 0
 9253 0056 BB68     		ldr	r3, [r7, #8]
 9254 0058 0022     		movs	r2, #0
 9255 005a 9A61     		str	r2, [r3, #24]
2328:.\EncoreImpl.c ****                     pjobcntr->_ppump = ppump;
ARM GAS  C:\Users\RECEPC~1\AppData\Local\Temp\ccMZb0bC.s 			page 205


 9256              		.loc 1 2328 0
 9257 005c BB68     		ldr	r3, [r7, #8]
 9258 005e 3A69     		ldr	r2, [r7, #16]
 9259 0060 DA61     		str	r2, [r3, #28]
2329:.\EncoreImpl.c ****                     pjobcntr->_ppump->CleanUp(pjobcntr->_ppump);
 9260              		.loc 1 2329 0
 9261 0062 BB68     		ldr	r3, [r7, #8]
 9262 0064 DB69     		ldr	r3, [r3, #28]
 9263 0066 D3F8C03B 		ldr	r3, [r3, #3008]
 9264 006a BA68     		ldr	r2, [r7, #8]
 9265 006c D269     		ldr	r2, [r2, #28]
 9266 006e 1046     		mov	r0, r2
 9267 0070 9847     		blx	r3
2330:.\EncoreImpl.c ****                     //This callback will be invoked upon response (if exists)
2331:.\EncoreImpl.c ****                     pjobcntr->Callback = pmsg->Callback;
 9268              		.loc 1 2331 0
 9269 0072 FB68     		ldr	r3, [r7, #12]
 9270 0074 D3F89421 		ldr	r2, [r3, #404]
 9271 0078 BB68     		ldr	r3, [r7, #8]
 9272 007a 1A62     		str	r2, [r3, #32]
2332:.\EncoreImpl.c ****                     pjobcntr->_pdata = pmsg;
 9273              		.loc 1 2332 0
 9274 007c BB68     		ldr	r3, [r7, #8]
 9275 007e FA68     		ldr	r2, [r7, #12]
 9276 0080 5A62     		str	r2, [r3, #36]
2333:.\EncoreImpl.c ****                     
2334:.\EncoreImpl.c ****                     _g_pumpjobqueue.Enqueue(&_g_pumpjobqueue, pjobcntr);
 9277              		.loc 1 2334 0
 9278 0082 094B     		ldr	r3, .L382+4
 9279 0084 D3F84C38 		ldr	r3, [r3, #2124]
 9280 0088 0748     		ldr	r0, .L382+4
 9281 008a B968     		ldr	r1, [r7, #8]
 9282 008c 9847     		blx	r3
 9283              	.L380:
2335:.\EncoreImpl.c ****                 }
2336:.\EncoreImpl.c ****                 ptrjob++;
 9284              		.loc 1 2336 0
 9285 008e 7B69     		ldr	r3, [r7, #20]
 9286 0090 3433     		adds	r3, r3, #52
 9287 0092 7B61     		str	r3, [r7, #20]
 9288              	.L379:
 9289              	.LBE63:
2320:.\EncoreImpl.c ****             {
 9290              		.loc 1 2320 0
 9291 0094 7B69     		ldr	r3, [r7, #20]
 9292 0096 1B68     		ldr	r3, [r3]
 9293 0098 002B     		cmp	r3, #0
 9294 009a CDD1     		bne	.L381
 9295              	.L377:
 9296              	.LBE62:
2337:.\EncoreImpl.c ****             }
2338:.\EncoreImpl.c ****         }
2339:.\EncoreImpl.c ****     }
2340:.\EncoreImpl.c **** }
 9297              		.loc 1 2340 0
 9298 009c 1837     		adds	r7, r7, #24
 9299              		.cfi_def_cfa_offset 8
ARM GAS  C:\Users\RECEPC~1\AppData\Local\Temp\ccMZb0bC.s 			page 206


 9300 009e BD46     		mov	sp, r7
 9301              		.cfi_def_cfa_register 13
 9302              		@ sp needed
 9303 00a0 80BD     		pop	{r7, pc}
 9304              	.L383:
 9305 00a2 00BF     		.align	2
 9306              	.L382:
 9307 00a4 00000000 		.word	_g_pumps
 9308 00a8 00000000 		.word	_g_pumpjobqueue
 9309              		.cfi_endproc
 9310              	.LFE100:
 9311              		.size	EncoreActivateProgramming, .-EncoreActivateProgramming
 9312              		.section	.text.GetLRC,"ax",%progbits
 9313              		.align	2
 9314              		.global	GetLRC
 9315              		.thumb
 9316              		.thumb_func
 9317              		.type	GetLRC, %function
 9318              	GetLRC:
 9319              	.LFB101:
2341:.\EncoreImpl.c **** 
2342:.\EncoreImpl.c **** ///////////////////////////////////////////////////////////////////////////////////////////////////
2343:.\EncoreImpl.c **** //THESE ARE SUPPORT METHODS THAT WILL BE USED IN THE TRANSACTIONAL MACHINE
2344:.\EncoreImpl.c **** ///////////////////////////////////////////////////////////////////////////////////////////////////
2345:.\EncoreImpl.c **** //Calculation of the LRC according to the documentation
2346:.\EncoreImpl.c **** uint8_t GetLRC(char8 *_pbuffer)
2347:.\EncoreImpl.c **** {
 9320              		.loc 1 2347 0
 9321              		.cfi_startproc
 9322              		@ args = 0, pretend = 0, frame = 16
 9323              		@ frame_needed = 1, uses_anonymous_args = 0
 9324              		@ link register save eliminated.
 9325 0000 80B4     		push	{r7}
 9326              		.cfi_def_cfa_offset 4
 9327              		.cfi_offset 7, -4
 9328 0002 85B0     		sub	sp, sp, #20
 9329              		.cfi_def_cfa_offset 24
 9330 0004 00AF     		add	r7, sp, #0
 9331              		.cfi_def_cfa_register 7
 9332 0006 7860     		str	r0, [r7, #4]
2348:.\EncoreImpl.c ****     uint8_t lrc = 0;
 9333              		.loc 1 2348 0
 9334 0008 0023     		movs	r3, #0
 9335 000a FB73     		strb	r3, [r7, #15]
2349:.\EncoreImpl.c ****     while(*_pbuffer != 0xFB)
 9336              		.loc 1 2349 0
 9337 000c 0AE0     		b	.L385
 9338              	.L386:
2350:.\EncoreImpl.c ****     {
2351:.\EncoreImpl.c ****         lrc += (*_pbuffer & 0x0F);
 9339              		.loc 1 2351 0
 9340 000e 7B68     		ldr	r3, [r7, #4]
 9341 0010 1B78     		ldrb	r3, [r3]	@ zero_extendqisi2
 9342 0012 03F00F03 		and	r3, r3, #15
 9343 0016 DAB2     		uxtb	r2, r3
 9344 0018 FB7B     		ldrb	r3, [r7, #15]
 9345 001a 1344     		add	r3, r3, r2
ARM GAS  C:\Users\RECEPC~1\AppData\Local\Temp\ccMZb0bC.s 			page 207


 9346 001c FB73     		strb	r3, [r7, #15]
2352:.\EncoreImpl.c ****         _pbuffer++;
 9347              		.loc 1 2352 0
 9348 001e 7B68     		ldr	r3, [r7, #4]
 9349 0020 0133     		adds	r3, r3, #1
 9350 0022 7B60     		str	r3, [r7, #4]
 9351              	.L385:
2349:.\EncoreImpl.c ****     while(*_pbuffer != 0xFB)
 9352              		.loc 1 2349 0
 9353 0024 7B68     		ldr	r3, [r7, #4]
 9354 0026 1B78     		ldrb	r3, [r3]	@ zero_extendqisi2
 9355 0028 FB2B     		cmp	r3, #251
 9356 002a F0D1     		bne	.L386
2353:.\EncoreImpl.c ****     }
2354:.\EncoreImpl.c ****     lrc += (*_pbuffer & 0x0F);
 9357              		.loc 1 2354 0
 9358 002c 7B68     		ldr	r3, [r7, #4]
 9359 002e 1B78     		ldrb	r3, [r3]	@ zero_extendqisi2
 9360 0030 03F00F03 		and	r3, r3, #15
 9361 0034 DAB2     		uxtb	r2, r3
 9362 0036 FB7B     		ldrb	r3, [r7, #15]
 9363 0038 1344     		add	r3, r3, r2
 9364 003a FB73     		strb	r3, [r7, #15]
2355:.\EncoreImpl.c ****     return (((~lrc + 1) & 0x0F) | 0xE0);
 9365              		.loc 1 2355 0
 9366 003c FB7B     		ldrb	r3, [r7, #15]
 9367 003e 5B42     		negs	r3, r3
 9368 0040 DBB2     		uxtb	r3, r3
 9369 0042 DBB2     		uxtb	r3, r3
 9370 0044 03F00F03 		and	r3, r3, #15
 9371 0048 DBB2     		uxtb	r3, r3
 9372 004a 63F01F03 		orn	r3, r3, #31
 9373 004e DBB2     		uxtb	r3, r3
 9374 0050 DBB2     		uxtb	r3, r3
2356:.\EncoreImpl.c **** }
 9375              		.loc 1 2356 0
 9376 0052 1846     		mov	r0, r3
 9377 0054 1437     		adds	r7, r7, #20
 9378              		.cfi_def_cfa_offset 4
 9379 0056 BD46     		mov	sp, r7
 9380              		.cfi_def_cfa_register 13
 9381              		@ sp needed
 9382 0058 5DF8047B 		ldr	r7, [sp], #4
 9383              		.cfi_restore 7
 9384              		.cfi_def_cfa_offset 0
 9385 005c 7047     		bx	lr
 9386              		.cfi_endproc
 9387              	.LFE101:
 9388              		.size	GetLRC, .-GetLRC
 9389 005e 00BF     		.section	.text.FindLRC,"ax",%progbits
 9390              		.align	2
 9391              		.global	FindLRC
 9392              		.thumb
 9393              		.thumb_func
 9394              		.type	FindLRC, %function
 9395              	FindLRC:
 9396              	.LFB102:
ARM GAS  C:\Users\RECEPC~1\AppData\Local\Temp\ccMZb0bC.s 			page 208


2357:.\EncoreImpl.c **** 
2358:.\EncoreImpl.c **** uint8_t FindLRC(char8 *_pbuffer)
2359:.\EncoreImpl.c **** {
 9397              		.loc 1 2359 0
 9398              		.cfi_startproc
 9399              		@ args = 0, pretend = 0, frame = 16
 9400              		@ frame_needed = 1, uses_anonymous_args = 0
 9401              		@ link register save eliminated.
 9402 0000 80B4     		push	{r7}
 9403              		.cfi_def_cfa_offset 4
 9404              		.cfi_offset 7, -4
 9405 0002 85B0     		sub	sp, sp, #20
 9406              		.cfi_def_cfa_offset 24
 9407 0004 00AF     		add	r7, sp, #0
 9408              		.cfi_def_cfa_register 7
 9409 0006 7860     		str	r0, [r7, #4]
2360:.\EncoreImpl.c ****     uint8_t lrc = 0;
 9410              		.loc 1 2360 0
 9411 0008 0023     		movs	r3, #0
 9412 000a FB73     		strb	r3, [r7, #15]
2361:.\EncoreImpl.c ****     while(*_pbuffer != 0xFB)
 9413              		.loc 1 2361 0
 9414 000c 02E0     		b	.L389
 9415              	.L390:
2362:.\EncoreImpl.c ****     {
2363:.\EncoreImpl.c ****         _pbuffer++;
 9416              		.loc 1 2363 0
 9417 000e 7B68     		ldr	r3, [r7, #4]
 9418 0010 0133     		adds	r3, r3, #1
 9419 0012 7B60     		str	r3, [r7, #4]
 9420              	.L389:
2361:.\EncoreImpl.c ****     while(*_pbuffer != 0xFB)
 9421              		.loc 1 2361 0
 9422 0014 7B68     		ldr	r3, [r7, #4]
 9423 0016 1B78     		ldrb	r3, [r3]	@ zero_extendqisi2
 9424 0018 FB2B     		cmp	r3, #251
 9425 001a F8D1     		bne	.L390
2364:.\EncoreImpl.c ****     }
2365:.\EncoreImpl.c ****     return *(++_pbuffer);
 9426              		.loc 1 2365 0
 9427 001c 7B68     		ldr	r3, [r7, #4]
 9428 001e 0133     		adds	r3, r3, #1
 9429 0020 7B60     		str	r3, [r7, #4]
 9430 0022 7B68     		ldr	r3, [r7, #4]
 9431 0024 1B78     		ldrb	r3, [r3]	@ zero_extendqisi2
2366:.\EncoreImpl.c **** }
 9432              		.loc 1 2366 0
 9433 0026 1846     		mov	r0, r3
 9434 0028 1437     		adds	r7, r7, #20
 9435              		.cfi_def_cfa_offset 4
 9436 002a BD46     		mov	sp, r7
 9437              		.cfi_def_cfa_register 13
 9438              		@ sp needed
 9439 002c 5DF8047B 		ldr	r7, [sp], #4
 9440              		.cfi_restore 7
 9441              		.cfi_def_cfa_offset 0
 9442 0030 7047     		bx	lr
ARM GAS  C:\Users\RECEPC~1\AppData\Local\Temp\ccMZb0bC.s 			page 209


 9443              		.cfi_endproc
 9444              	.LFE102:
 9445              		.size	FindLRC, .-FindLRC
 9446 0032 00BF     		.section	.text.InitiateTransaction,"ax",%progbits
 9447              		.align	2
 9448              		.global	InitiateTransaction
 9449              		.thumb
 9450              		.thumb_func
 9451              		.type	InitiateTransaction, %function
 9452              	InitiateTransaction:
 9453              	.LFB103:
2367:.\EncoreImpl.c **** 
2368:.\EncoreImpl.c **** //@Created By: HIJH
2369:.\EncoreImpl.c **** //@Septembre de 2016
2370:.\EncoreImpl.c **** void InitiateTransaction(void *pparam)
2371:.\EncoreImpl.c **** {
 9454              		.loc 1 2371 0
 9455              		.cfi_startproc
 9456              		@ args = 0, pretend = 0, frame = 16
 9457              		@ frame_needed = 1, uses_anonymous_args = 0
 9458              		@ link register save eliminated.
 9459 0000 80B4     		push	{r7}
 9460              		.cfi_def_cfa_offset 4
 9461              		.cfi_offset 7, -4
 9462 0002 85B0     		sub	sp, sp, #20
 9463              		.cfi_def_cfa_offset 24
 9464 0004 00AF     		add	r7, sp, #0
 9465              		.cfi_def_cfa_register 7
 9466 0006 7860     		str	r0, [r7, #4]
2372:.\EncoreImpl.c ****     PumpTransactionJobContext *pjob = (PumpTransactionJobContext*)pparam;
 9467              		.loc 1 2372 0
 9468 0008 7B68     		ldr	r3, [r7, #4]
 9469 000a FB60     		str	r3, [r7, #12]
2373:.\EncoreImpl.c ****     if(pjob)
 9470              		.loc 1 2373 0
 9471 000c FB68     		ldr	r3, [r7, #12]
 9472 000e 002B     		cmp	r3, #0
 9473 0010 07D0     		beq	.L392
2374:.\EncoreImpl.c ****     {
2375:.\EncoreImpl.c ****         pjob->_ppump->_transhealth = _PUMP_OK_;
 9474              		.loc 1 2375 0
 9475 0012 FB68     		ldr	r3, [r7, #12]
 9476 0014 DB69     		ldr	r3, [r3, #28]
 9477 0016 0122     		movs	r2, #1
 9478 0018 1A76     		strb	r2, [r3, #24]
2376:.\EncoreImpl.c ****         pjob->_ppump->_transtate = _PUMP_BUSY_;
 9479              		.loc 1 2376 0
 9480 001a FB68     		ldr	r3, [r7, #12]
 9481 001c DB69     		ldr	r3, [r3, #28]
 9482 001e 0122     		movs	r2, #1
 9483 0020 5A76     		strb	r2, [r3, #25]
 9484              	.L392:
2377:.\EncoreImpl.c ****     }
2378:.\EncoreImpl.c **** }
 9485              		.loc 1 2378 0
 9486 0022 1437     		adds	r7, r7, #20
 9487              		.cfi_def_cfa_offset 4
ARM GAS  C:\Users\RECEPC~1\AppData\Local\Temp\ccMZb0bC.s 			page 210


 9488 0024 BD46     		mov	sp, r7
 9489              		.cfi_def_cfa_register 13
 9490              		@ sp needed
 9491 0026 5DF8047B 		ldr	r7, [sp], #4
 9492              		.cfi_restore 7
 9493              		.cfi_def_cfa_offset 0
 9494 002a 7047     		bx	lr
 9495              		.cfi_endproc
 9496              	.LFE103:
 9497              		.size	InitiateTransaction, .-InitiateTransaction
 9498              		.section	.text.TerminateTransaction,"ax",%progbits
 9499              		.align	2
 9500              		.global	TerminateTransaction
 9501              		.thumb
 9502              		.thumb_func
 9503              		.type	TerminateTransaction, %function
 9504              	TerminateTransaction:
 9505              	.LFB104:
2379:.\EncoreImpl.c **** 
2380:.\EncoreImpl.c **** //@Created By: HIJH
2381:.\EncoreImpl.c **** //@Septembre de 2016
2382:.\EncoreImpl.c **** void TerminateTransaction(void *pparam)
2383:.\EncoreImpl.c **** {
 9506              		.loc 1 2383 0
 9507              		.cfi_startproc
 9508              		@ args = 0, pretend = 0, frame = 16
 9509              		@ frame_needed = 1, uses_anonymous_args = 0
 9510              		@ link register save eliminated.
 9511 0000 80B4     		push	{r7}
 9512              		.cfi_def_cfa_offset 4
 9513              		.cfi_offset 7, -4
 9514 0002 85B0     		sub	sp, sp, #20
 9515              		.cfi_def_cfa_offset 24
 9516 0004 00AF     		add	r7, sp, #0
 9517              		.cfi_def_cfa_register 7
 9518 0006 7860     		str	r0, [r7, #4]
2384:.\EncoreImpl.c ****     PPUMPTRANSACTIONJOBCONTEXTPTR pjob = (PPUMPTRANSACTIONJOBCONTEXTPTR)pparam;
 9519              		.loc 1 2384 0
 9520 0008 7B68     		ldr	r3, [r7, #4]
 9521 000a FB60     		str	r3, [r7, #12]
2385:.\EncoreImpl.c ****     if(pjob)
 9522              		.loc 1 2385 0
 9523 000c FB68     		ldr	r3, [r7, #12]
 9524 000e 002B     		cmp	r3, #0
 9525 0010 07D0     		beq	.L394
2386:.\EncoreImpl.c ****     {
2387:.\EncoreImpl.c ****         pjob->_ppump->_transhealth = _PUMP_OK_;
 9526              		.loc 1 2387 0
 9527 0012 FB68     		ldr	r3, [r7, #12]
 9528 0014 DB69     		ldr	r3, [r3, #28]
 9529 0016 0122     		movs	r2, #1
 9530 0018 1A76     		strb	r2, [r3, #24]
2388:.\EncoreImpl.c ****         pjob->_ppump->_transtate = _PUMP_IDLE_;
 9531              		.loc 1 2388 0
 9532 001a FB68     		ldr	r3, [r7, #12]
 9533 001c DB69     		ldr	r3, [r3, #28]
 9534 001e 0222     		movs	r2, #2
ARM GAS  C:\Users\RECEPC~1\AppData\Local\Temp\ccMZb0bC.s 			page 211


 9535 0020 5A76     		strb	r2, [r3, #25]
 9536              	.L394:
2389:.\EncoreImpl.c ****         
2390:.\EncoreImpl.c ****     }
2391:.\EncoreImpl.c **** }
 9537              		.loc 1 2391 0
 9538 0022 1437     		adds	r7, r7, #20
 9539              		.cfi_def_cfa_offset 4
 9540 0024 BD46     		mov	sp, r7
 9541              		.cfi_def_cfa_register 13
 9542              		@ sp needed
 9543 0026 5DF8047B 		ldr	r7, [sp], #4
 9544              		.cfi_restore 7
 9545              		.cfi_def_cfa_offset 0
 9546 002a 7047     		bx	lr
 9547              		.cfi_endproc
 9548              	.LFE104:
 9549              		.size	TerminateTransaction, .-TerminateTransaction
 9550              		.section	.text.TerminateTransactionAndPrint,"ax",%progbits
 9551              		.align	2
 9552              		.global	TerminateTransactionAndPrint
 9553              		.thumb
 9554              		.thumb_func
 9555              		.type	TerminateTransactionAndPrint, %function
 9556              	TerminateTransactionAndPrint:
 9557              	.LFB105:
2392:.\EncoreImpl.c **** 
2393:.\EncoreImpl.c **** void TerminateTransactionAndPrint(void *pparam)
2394:.\EncoreImpl.c **** {
 9558              		.loc 1 2394 0
 9559              		.cfi_startproc
 9560              		@ args = 0, pretend = 0, frame = 16
 9561              		@ frame_needed = 1, uses_anonymous_args = 0
 9562 0000 90B5     		push	{r4, r7, lr}
 9563              		.cfi_def_cfa_offset 12
 9564              		.cfi_offset 4, -12
 9565              		.cfi_offset 7, -8
 9566              		.cfi_offset 14, -4
 9567 0002 85B0     		sub	sp, sp, #20
 9568              		.cfi_def_cfa_offset 32
 9569 0004 00AF     		add	r7, sp, #0
 9570              		.cfi_def_cfa_register 7
 9571 0006 7860     		str	r0, [r7, #4]
2395:.\EncoreImpl.c ****     PPUMPTRANSACTIONJOBCONTEXTPTR pjob = (PPUMPTRANSACTIONJOBCONTEXTPTR)pparam;
 9572              		.loc 1 2395 0
 9573 0008 7B68     		ldr	r3, [r7, #4]
 9574 000a FB60     		str	r3, [r7, #12]
2396:.\EncoreImpl.c ****     if(pjob)
 9575              		.loc 1 2396 0
 9576 000c FB68     		ldr	r3, [r7, #12]
 9577 000e 002B     		cmp	r3, #0
 9578 0010 00F01781 		beq	.L396
2397:.\EncoreImpl.c ****     {
2398:.\EncoreImpl.c ****         pjob->_ppump->_transhealth = _PUMP_OK_;
 9579              		.loc 1 2398 0
 9580 0014 FB68     		ldr	r3, [r7, #12]
 9581 0016 DB69     		ldr	r3, [r3, #28]
ARM GAS  C:\Users\RECEPC~1\AppData\Local\Temp\ccMZb0bC.s 			page 212


 9582 0018 0122     		movs	r2, #1
 9583 001a 1A76     		strb	r2, [r3, #24]
2399:.\EncoreImpl.c ****         pjob->_ppump->_transtate = _PUMP_IDLE_;
 9584              		.loc 1 2399 0
 9585 001c FB68     		ldr	r3, [r7, #12]
 9586 001e DB69     		ldr	r3, [r3, #28]
 9587 0020 0222     		movs	r2, #2
 9588 0022 5A76     		strb	r2, [r3, #25]
2400:.\EncoreImpl.c ****         
2401:.\EncoreImpl.c ****         //If printing has been selected then post the print job
2402:.\EncoreImpl.c ****         if(pjob->_ppump->_trasactionbuffer[GetBufferIndexFromDisplayID(DISPLAY_DESEA_IMPRIMIR_RECIB
 9589              		.loc 1 2402 0
 9590 0024 FB68     		ldr	r3, [r7, #12]
 9591 0026 DC69     		ldr	r4, [r3, #28]
 9592 0028 0B20     		movs	r0, #11
 9593 002a FFF7FEFF 		bl	GetBufferIndexFromDisplayID
 9594 002e 0346     		mov	r3, r0
 9595 0030 2344     		add	r3, r3, r4
 9596 0032 93F82030 		ldrb	r3, [r3, #32]	@ zero_extendqisi2
 9597 0036 392B     		cmp	r3, #57
 9598 0038 40F00381 		bne	.L396
 9599              	.LBB64:
2403:.\EncoreImpl.c ****         {
2404:.\EncoreImpl.c ****             _ALLOCATE_SINKMESSAGE_SLOT(psinkmsg);
 9600              		.loc 1 2404 0
 9601 003c FFF7FEFF 		bl	AllocateMessageSlot
 9602 0040 B860     		str	r0, [r7, #8]
2405:.\EncoreImpl.c ****             if(psinkmsg)
 9603              		.loc 1 2405 0
 9604 0042 BB68     		ldr	r3, [r7, #8]
 9605 0044 002B     		cmp	r3, #0
 9606 0046 00F0FC80 		beq	.L396
2406:.\EncoreImpl.c ****             {
2407:.\EncoreImpl.c ****                 switch(pjob->_ppump->_trasactionbuffer[GetBufferIndexFromDisplayID(DISPLAY_SIDE_DUM
 9607              		.loc 1 2407 0
 9608 004a FB68     		ldr	r3, [r7, #12]
 9609 004c DC69     		ldr	r4, [r3, #28]
 9610 004e FA20     		movs	r0, #250
 9611 0050 FFF7FEFF 		bl	GetBufferIndexFromDisplayID
 9612 0054 0346     		mov	r3, r0
 9613 0056 2344     		add	r3, r3, r4
 9614 0058 93F82030 		ldrb	r3, [r3, #32]	@ zero_extendqisi2
 9615 005c 002B     		cmp	r3, #0
 9616 005e 02D0     		beq	.L399
 9617 0060 012B     		cmp	r3, #1
 9618 0062 05D0     		beq	.L400
 9619 0064 09E0     		b	.L398
 9620              	.L399:
2408:.\EncoreImpl.c ****                 {
2409:.\EncoreImpl.c ****                     case DISPLAY1:
2410:.\EncoreImpl.c ****                     psinkmsg->_messageid = _g_printerlayout._printerportside1;
 9621              		.loc 1 2410 0
 9622 0066 784B     		ldr	r3, .L405
 9623 0068 1A78     		ldrb	r2, [r3]	@ zero_extendqisi2
 9624 006a BB68     		ldr	r3, [r7, #8]
 9625 006c 5A70     		strb	r2, [r3, #1]
2411:.\EncoreImpl.c ****                     break;
ARM GAS  C:\Users\RECEPC~1\AppData\Local\Temp\ccMZb0bC.s 			page 213


 9626              		.loc 1 2411 0
 9627 006e 04E0     		b	.L398
 9628              	.L400:
2412:.\EncoreImpl.c ****                     case DISPLAY2:
2413:.\EncoreImpl.c ****                     psinkmsg->_messageid = _g_printerlayout._printerportside2;
 9629              		.loc 1 2413 0
 9630 0070 754B     		ldr	r3, .L405
 9631 0072 5A78     		ldrb	r2, [r3, #1]	@ zero_extendqisi2
 9632 0074 BB68     		ldr	r3, [r7, #8]
 9633 0076 5A70     		strb	r2, [r3, #1]
2414:.\EncoreImpl.c ****                     break;
 9634              		.loc 1 2414 0
 9635 0078 00BF     		nop
 9636              	.L398:
2415:.\EncoreImpl.c ****                 }
2416:.\EncoreImpl.c ****                 psinkmsg->_messagetype = DELAYEDALLINTERESTED;
 9637              		.loc 1 2416 0
 9638 007a BB68     		ldr	r3, [r7, #8]
 9639 007c 0522     		movs	r2, #5
 9640 007e 9A70     		strb	r2, [r3, #2]
2417:.\EncoreImpl.c ****                 //Wait for 30 seconds before sending the command to the printer!
2418:.\EncoreImpl.c ****                 //This will give some time to allow the remote peer (NSX) to respond with the appro
2419:.\EncoreImpl.c ****                 if(_g_rfautorun._state == RF_AUTONOMOUS)
 9641              		.loc 1 2419 0
 9642 0080 724B     		ldr	r3, .L405+4
 9643 0082 1B78     		ldrb	r3, [r3]
 9644 0084 DBB2     		uxtb	r3, r3
 9645 0086 012B     		cmp	r3, #1
 9646 0088 04D1     		bne	.L401
2420:.\EncoreImpl.c ****                     psinkmsg->_messagedelay = _SINK_TIMEOUT_1S_;
 9647              		.loc 1 2420 0
 9648 008a BB68     		ldr	r3, [r7, #8]
 9649 008c 4FF47A72 		mov	r2, #1000
 9650 0090 9A80     		strh	r2, [r3, #4]	@ movhi
 9651 0092 03E0     		b	.L402
 9652              	.L401:
2421:.\EncoreImpl.c ****                 else
2422:.\EncoreImpl.c ****                     psinkmsg->_messagedelay = _SINK_TIMEOUT_30S_;
 9653              		.loc 1 2422 0
 9654 0094 BB68     		ldr	r3, [r7, #8]
 9655 0096 47F23052 		movw	r2, #30000
 9656 009a 9A80     		strh	r2, [r3, #4]	@ movhi
 9657              	.L402:
2423:.\EncoreImpl.c ****                 
2424:.\EncoreImpl.c ****                 //PUMP POSITION GOES IN THE ARRAY INDEX 0X00 (SEE THE FILE "PRINTERBLL.C")
2425:.\EncoreImpl.c ****                 psinkmsg->_buffer[0x00] = pjob->_ppump->_pumpid;
 9658              		.loc 1 2425 0
 9659 009c FB68     		ldr	r3, [r7, #12]
 9660 009e DB69     		ldr	r3, [r3, #28]
 9661 00a0 1A78     		ldrb	r2, [r3]	@ zero_extendqisi2
 9662 00a2 BB68     		ldr	r3, [r7, #8]
 9663 00a4 1A73     		strb	r2, [r3, #12]
2426:.\EncoreImpl.c ****                 //PUMP HOSE TO SELECT THE PRODUCT NAME
2427:.\EncoreImpl.c ****                 psinkmsg->_buffer[0x01] = pjob->_ppump->_authorizationinfo._hoseid;
 9664              		.loc 1 2427 0
 9665 00a6 FB68     		ldr	r3, [r7, #12]
 9666 00a8 DB69     		ldr	r3, [r3, #28]
ARM GAS  C:\Users\RECEPC~1\AppData\Local\Temp\ccMZb0bC.s 			page 214


 9667 00aa 93F8AA3B 		ldrb	r3, [r3, #2986]
 9668 00ae DAB2     		uxtb	r2, r3
 9669 00b0 BB68     		ldr	r3, [r7, #8]
 9670 00b2 5A73     		strb	r2, [r3, #13]
2428:.\EncoreImpl.c ****                 psinkmsg->_buffer[0x02] = 0x06;//Six bytes for the price (PPU)
 9671              		.loc 1 2428 0
 9672 00b4 BB68     		ldr	r3, [r7, #8]
 9673 00b6 0622     		movs	r2, #6
 9674 00b8 9A73     		strb	r2, [r3, #14]
2429:.\EncoreImpl.c ****                 memset(&psinkmsg->_buffer[0x03], 0x00, 0x08);
 9675              		.loc 1 2429 0
 9676 00ba BB68     		ldr	r3, [r7, #8]
 9677 00bc 0F33     		adds	r3, r3, #15
 9678 00be 1846     		mov	r0, r3
 9679 00c0 0021     		movs	r1, #0
 9680 00c2 0822     		movs	r2, #8
 9681 00c4 FFF7FEFF 		bl	memset
2430:.\EncoreImpl.c ****                 
2431:.\EncoreImpl.c ****                 if(pjob->_ppump->_trasactionbuffer[0x00] == 0x0E && _g_dispenserlayoutinfo._moneyde
 9682              		.loc 1 2431 0
 9683 00c8 FB68     		ldr	r3, [r7, #12]
 9684 00ca DB69     		ldr	r3, [r3, #28]
 9685 00cc 93F82030 		ldrb	r3, [r3, #32]	@ zero_extendqisi2
 9686 00d0 0E2B     		cmp	r3, #14
 9687 00d2 1DD1     		bne	.L403
 9688              		.loc 1 2431 0 is_stmt 0 discriminator 1
 9689 00d4 5E4B     		ldr	r3, .L405+8
 9690 00d6 DB79     		ldrb	r3, [r3, #7]	@ zero_extendqisi2
 9691 00d8 032B     		cmp	r3, #3
 9692 00da 19D1     		bne	.L403
 9693              		.loc 1 2431 0 discriminator 2
 9694 00dc 5C4B     		ldr	r3, .L405+8
 9695 00de 1B7A     		ldrb	r3, [r3, #8]	@ zero_extendqisi2
 9696 00e0 022B     		cmp	r3, #2
 9697 00e2 15D1     		bne	.L403
2432:.\EncoreImpl.c ****                     B78AD90CF552D9B30A(pjob->_ppump->_authorizationinfo._price * 10, PBYTECAST(&psi
 9698              		.loc 1 2432 0 is_stmt 1
 9699 00e4 FB68     		ldr	r3, [r7, #12]
 9700 00e6 DB69     		ldr	r3, [r3, #28]
 9701 00e8 B3F8AC3B 		ldrh	r3, [r3, #2988]	@ movhi
 9702 00ec 9BB2     		uxth	r3, r3
 9703 00ee 1A46     		mov	r2, r3
 9704 00f0 1346     		mov	r3, r2
 9705 00f2 9B00     		lsls	r3, r3, #2
 9706 00f4 1344     		add	r3, r3, r2
 9707 00f6 5B00     		lsls	r3, r3, #1
 9708 00f8 1A46     		mov	r2, r3
 9709 00fa 4FEAE273 		asr	r3, r2, #31
 9710 00fe B968     		ldr	r1, [r7, #8]
 9711 0100 01F10F04 		add	r4, r1, #15
 9712 0104 1046     		mov	r0, r2
 9713 0106 1946     		mov	r1, r3
 9714 0108 2246     		mov	r2, r4
 9715 010a FFF7FEFF 		bl	B78AD90CF552D9B30A
 9716 010e 0FE0     		b	.L404
 9717              	.L403:
2433:.\EncoreImpl.c ****                 else
ARM GAS  C:\Users\RECEPC~1\AppData\Local\Temp\ccMZb0bC.s 			page 215


2434:.\EncoreImpl.c ****                     B78AD90CF552D9B30A(pjob->_ppump->_authorizationinfo._price, PBYTECAST(&psinkmsg
 9718              		.loc 1 2434 0
 9719 0110 FB68     		ldr	r3, [r7, #12]
 9720 0112 DB69     		ldr	r3, [r3, #28]
 9721 0114 B3F8AC3B 		ldrh	r3, [r3, #2988]	@ movhi
 9722 0118 9BB2     		uxth	r3, r3
 9723 011a 9AB2     		uxth	r2, r3
 9724 011c 4FF00003 		mov	r3, #0
 9725 0120 B968     		ldr	r1, [r7, #8]
 9726 0122 01F10F04 		add	r4, r1, #15
 9727 0126 1046     		mov	r0, r2
 9728 0128 1946     		mov	r1, r3
 9729 012a 2246     		mov	r2, r4
 9730 012c FFF7FEFF 		bl	B78AD90CF552D9B30A
 9731              	.L404:
2435:.\EncoreImpl.c ****                     
2436:.\EncoreImpl.c ****                 psinkmsg->_buffer[0x09] = 0x08;//Eight bytes for the Volume
 9732              		.loc 1 2436 0
 9733 0130 BB68     		ldr	r3, [r7, #8]
 9734 0132 0822     		movs	r2, #8
 9735 0134 5A75     		strb	r2, [r3, #21]
2437:.\EncoreImpl.c ****                 memset(&psinkmsg->_buffer[0x0A], 0x00, 0x08);
 9736              		.loc 1 2437 0
 9737 0136 BB68     		ldr	r3, [r7, #8]
 9738 0138 1633     		adds	r3, r3, #22
 9739 013a 1846     		mov	r0, r3
 9740 013c 0021     		movs	r1, #0
 9741 013e 0822     		movs	r2, #8
 9742 0140 FFF7FEFF 		bl	memset
2438:.\EncoreImpl.c ****                 B78AD90CF552D9B30A(pjob->_ppump->_authorizationinfo._volumeamount, PBYTECAST(&psink
 9743              		.loc 1 2438 0
 9744 0144 FB68     		ldr	r3, [r7, #12]
 9745 0146 DB69     		ldr	r3, [r3, #28]
 9746 0148 D3F8B43B 		ldr	r3, [r3, #2996]
 9747 014c 1A46     		mov	r2, r3
 9748 014e 4FF00003 		mov	r3, #0
 9749 0152 B968     		ldr	r1, [r7, #8]
 9750 0154 01F11604 		add	r4, r1, #22
 9751 0158 1046     		mov	r0, r2
 9752 015a 1946     		mov	r1, r3
 9753 015c 2246     		mov	r2, r4
 9754 015e FFF7FEFF 		bl	B78AD90CF552D9B30A
2439:.\EncoreImpl.c ****                 psinkmsg->_buffer[0x12] = 0x08;//Eight bytes for the Preset
 9755              		.loc 1 2439 0
 9756 0162 BB68     		ldr	r3, [r7, #8]
 9757 0164 0822     		movs	r2, #8
 9758 0166 9A77     		strb	r2, [r3, #30]
2440:.\EncoreImpl.c ****                 memset(&psinkmsg->_buffer[0x13], 0x00, 0x08);
 9759              		.loc 1 2440 0
 9760 0168 BB68     		ldr	r3, [r7, #8]
 9761 016a 1F33     		adds	r3, r3, #31
 9762 016c 1846     		mov	r0, r3
 9763 016e 0021     		movs	r1, #0
 9764 0170 0822     		movs	r2, #8
 9765 0172 FFF7FEFF 		bl	memset
2441:.\EncoreImpl.c ****                 B78AD90CF552D9B30A(pjob->_ppump->_authorizationinfo._presetamount, PBYTECAST(&psink
 9766              		.loc 1 2441 0
ARM GAS  C:\Users\RECEPC~1\AppData\Local\Temp\ccMZb0bC.s 			page 216


 9767 0176 FB68     		ldr	r3, [r7, #12]
 9768 0178 DB69     		ldr	r3, [r3, #28]
 9769 017a D3F8B03B 		ldr	r3, [r3, #2992]
 9770 017e 1A46     		mov	r2, r3
 9771 0180 4FF00003 		mov	r3, #0
 9772 0184 B968     		ldr	r1, [r7, #8]
 9773 0186 01F11F04 		add	r4, r1, #31
 9774 018a 1046     		mov	r0, r2
 9775 018c 1946     		mov	r1, r3
 9776 018e 2246     		mov	r2, r4
 9777 0190 FFF7FEFF 		bl	B78AD90CF552D9B30A
2442:.\EncoreImpl.c ****                 
2443:.\EncoreImpl.c ****                 //This is the transaction type (Cash: 0x0D / Credit: 0x0E). See the documentation t
2444:.\EncoreImpl.c ****                 psinkmsg->_buffer[0x1B] = pjob->_ppump->_trasactionbuffer[GetBufferIndexFromDisplay
 9778              		.loc 1 2444 0
 9779 0194 FB68     		ldr	r3, [r7, #12]
 9780 0196 DC69     		ldr	r4, [r3, #28]
 9781 0198 0420     		movs	r0, #4
 9782 019a FFF7FEFF 		bl	GetBufferIndexFromDisplayID
 9783 019e 0346     		mov	r3, r0
 9784 01a0 2344     		add	r3, r3, r4
 9785 01a2 93F82020 		ldrb	r2, [r3, #32]	@ zero_extendqisi2
 9786 01a6 BB68     		ldr	r3, [r7, #8]
 9787 01a8 83F82720 		strb	r2, [r3, #39]
2445:.\EncoreImpl.c ****                 
2446:.\EncoreImpl.c ****                 //This means "N/A". This will be printed once the timeout has expired and no invoic
2447:.\EncoreImpl.c ****                 //has been received
2448:.\EncoreImpl.c ****                 psinkmsg->_buffer[0x20] = 0x4E;
 9788              		.loc 1 2448 0
 9789 01ac BB68     		ldr	r3, [r7, #8]
 9790 01ae 4E22     		movs	r2, #78
 9791 01b0 83F82C20 		strb	r2, [r3, #44]
2449:.\EncoreImpl.c ****                 psinkmsg->_buffer[0x21] = 0x2F;
 9792              		.loc 1 2449 0
 9793 01b4 BB68     		ldr	r3, [r7, #8]
 9794 01b6 2F22     		movs	r2, #47
 9795 01b8 83F82D20 		strb	r2, [r3, #45]
2450:.\EncoreImpl.c ****                 psinkmsg->_buffer[0x22] = 0x41;
 9796              		.loc 1 2450 0
 9797 01bc BB68     		ldr	r3, [r7, #8]
 9798 01be 4122     		movs	r2, #65
 9799 01c0 83F82E20 		strb	r2, [r3, #46]
2451:.\EncoreImpl.c ****                 //Car's plate
2452:.\EncoreImpl.c ****                 psinkmsg->_buffer[0x2A] = 0x4E;
 9800              		.loc 1 2452 0
 9801 01c4 BB68     		ldr	r3, [r7, #8]
 9802 01c6 4E22     		movs	r2, #78
 9803 01c8 83F83620 		strb	r2, [r3, #54]
2453:.\EncoreImpl.c ****                 psinkmsg->_buffer[0x2B] = 0x2F;
 9804              		.loc 1 2453 0
 9805 01cc BB68     		ldr	r3, [r7, #8]
 9806 01ce 2F22     		movs	r2, #47
 9807 01d0 83F83720 		strb	r2, [r3, #55]
2454:.\EncoreImpl.c ****                 psinkmsg->_buffer[0x2C] = 0x41;
 9808              		.loc 1 2454 0
 9809 01d4 BB68     		ldr	r3, [r7, #8]
 9810 01d6 4122     		movs	r2, #65
ARM GAS  C:\Users\RECEPC~1\AppData\Local\Temp\ccMZb0bC.s 			page 217


 9811 01d8 83F83820 		strb	r2, [r3, #56]
2455:.\EncoreImpl.c ****                 //Balance
2456:.\EncoreImpl.c ****                 psinkmsg->_buffer[0x32] = 0x4E;
 9812              		.loc 1 2456 0
 9813 01dc BB68     		ldr	r3, [r7, #8]
 9814 01de 4E22     		movs	r2, #78
 9815 01e0 83F83E20 		strb	r2, [r3, #62]
2457:.\EncoreImpl.c ****                 psinkmsg->_buffer[0x33] = 0x2F;
 9816              		.loc 1 2457 0
 9817 01e4 BB68     		ldr	r3, [r7, #8]
 9818 01e6 2F22     		movs	r2, #47
 9819 01e8 83F83F20 		strb	r2, [r3, #63]
2458:.\EncoreImpl.c ****                 psinkmsg->_buffer[0x34] = 0x41;
 9820              		.loc 1 2458 0
 9821 01ec BB68     		ldr	r3, [r7, #8]
 9822 01ee 4122     		movs	r2, #65
 9823 01f0 83F84020 		strb	r2, [r3, #64]
2459:.\EncoreImpl.c ****                 //Company
2460:.\EncoreImpl.c ****                 psinkmsg->_buffer[0x3C] = 0x4E;
 9824              		.loc 1 2460 0
 9825 01f4 BB68     		ldr	r3, [r7, #8]
 9826 01f6 4E22     		movs	r2, #78
 9827 01f8 83F84820 		strb	r2, [r3, #72]
2461:.\EncoreImpl.c ****                 psinkmsg->_buffer[0x3D] = 0x2F;
 9828              		.loc 1 2461 0
 9829 01fc BB68     		ldr	r3, [r7, #8]
 9830 01fe 2F22     		movs	r2, #47
 9831 0200 83F84920 		strb	r2, [r3, #73]
2462:.\EncoreImpl.c ****                 psinkmsg->_buffer[0x3E] = 0x41;
 9832              		.loc 1 2462 0
 9833 0204 BB68     		ldr	r3, [r7, #8]
 9834 0206 4122     		movs	r2, #65
 9835 0208 83F84A20 		strb	r2, [r3, #74]
2463:.\EncoreImpl.c ****                 //Account Name
2464:.\EncoreImpl.c ****                 psinkmsg->_buffer[0x50] = 0x4E;
 9836              		.loc 1 2464 0
 9837 020c BB68     		ldr	r3, [r7, #8]
 9838 020e 4E22     		movs	r2, #78
 9839 0210 83F85C20 		strb	r2, [r3, #92]
2465:.\EncoreImpl.c ****                 psinkmsg->_buffer[0x51] = 0x2F;
 9840              		.loc 1 2465 0
 9841 0214 BB68     		ldr	r3, [r7, #8]
 9842 0216 2F22     		movs	r2, #47
 9843 0218 83F85D20 		strb	r2, [r3, #93]
2466:.\EncoreImpl.c ****                 psinkmsg->_buffer[0x52] = 0x41;
 9844              		.loc 1 2466 0
 9845 021c BB68     		ldr	r3, [r7, #8]
 9846 021e 4122     		movs	r2, #65
 9847 0220 83F85E20 		strb	r2, [r3, #94]
2467:.\EncoreImpl.c ****                 //Daily Visits
2468:.\EncoreImpl.c ****                 psinkmsg->_buffer[0x64] = 0x00;
 9848              		.loc 1 2468 0
 9849 0224 BB68     		ldr	r3, [r7, #8]
 9850 0226 0022     		movs	r2, #0
 9851 0228 83F87020 		strb	r2, [r3, #112]
2469:.\EncoreImpl.c ****                 //Weekly Visits
2470:.\EncoreImpl.c ****                 psinkmsg->_buffer[0x65] = 0x00;
ARM GAS  C:\Users\RECEPC~1\AppData\Local\Temp\ccMZb0bC.s 			page 218


 9852              		.loc 1 2470 0
 9853 022c BB68     		ldr	r3, [r7, #8]
 9854 022e 0022     		movs	r2, #0
 9855 0230 83F87120 		strb	r2, [r3, #113]
2471:.\EncoreImpl.c ****                 //Monthly Visits
2472:.\EncoreImpl.c ****                 psinkmsg->_buffer[0x66] = 0x00;
 9856              		.loc 1 2472 0
 9857 0234 BB68     		ldr	r3, [r7, #8]
 9858 0236 0022     		movs	r2, #0
 9859 0238 83F87220 		strb	r2, [r3, #114]
2473:.\EncoreImpl.c **** 
2474:.\EncoreImpl.c ****                 psinkmsg->_messagestate = SINK_BUSY;
 9860              		.loc 1 2474 0
 9861 023c BB68     		ldr	r3, [r7, #8]
 9862 023e 0322     		movs	r2, #3
 9863 0240 DA70     		strb	r2, [r3, #3]
 9864              	.L396:
 9865              	.LBE64:
2475:.\EncoreImpl.c ****             }   
2476:.\EncoreImpl.c ****             
2477:.\EncoreImpl.c ****         }        
2478:.\EncoreImpl.c ****     }
2479:.\EncoreImpl.c **** }
 9866              		.loc 1 2479 0
 9867 0242 1437     		adds	r7, r7, #20
 9868              		.cfi_def_cfa_offset 12
 9869 0244 BD46     		mov	sp, r7
 9870              		.cfi_def_cfa_register 13
 9871              		@ sp needed
 9872 0246 90BD     		pop	{r4, r7, pc}
 9873              	.L406:
 9874              		.align	2
 9875              	.L405:
 9876 0248 00000000 		.word	_g_printerlayout
 9877 024c 00000000 		.word	_g_rfautorun
 9878 0250 00000000 		.word	_g_dispenserlayoutinfo
 9879              		.cfi_endproc
 9880              	.LFE105:
 9881              		.size	TerminateTransactionAndPrint, .-TerminateTransactionAndPrint
 9882              		.section	.text.CastVolumeValue,"ax",%progbits
 9883              		.align	2
 9884              		.global	CastVolumeValue
 9885              		.thumb
 9886              		.thumb_func
 9887              		.type	CastVolumeValue, %function
 9888              	CastVolumeValue:
 9889              	.LFB106:
2480:.\EncoreImpl.c **** 
2481:.\EncoreImpl.c **** //@Created by: HIJH
2482:.\EncoreImpl.c **** //@Date: Septembre de 2016
2483:.\EncoreImpl.c **** //This method arranges the PRESET buffer when this is a "Volume PRESET".
2484:.\EncoreImpl.c **** //Volume PRESETS must be multiplied by 1000
2485:.\EncoreImpl.c **** void CastVolumeValue(char8 *pbuffer, uint8 buffersize)
2486:.\EncoreImpl.c **** {
 9890              		.loc 1 2486 0
 9891              		.cfi_startproc
 9892              		@ args = 0, pretend = 0, frame = 16
ARM GAS  C:\Users\RECEPC~1\AppData\Local\Temp\ccMZb0bC.s 			page 219


 9893              		@ frame_needed = 1, uses_anonymous_args = 0
 9894              		@ link register save eliminated.
 9895 0000 80B4     		push	{r7}
 9896              		.cfi_def_cfa_offset 4
 9897              		.cfi_offset 7, -4
 9898 0002 85B0     		sub	sp, sp, #20
 9899              		.cfi_def_cfa_offset 24
 9900 0004 00AF     		add	r7, sp, #0
 9901              		.cfi_def_cfa_register 7
 9902 0006 7860     		str	r0, [r7, #4]
 9903 0008 0B46     		mov	r3, r1
 9904 000a FB70     		strb	r3, [r7, #3]
2487:.\EncoreImpl.c ****     uint8 delimiterindex = 0x00;
 9905              		.loc 1 2487 0
 9906 000c 0023     		movs	r3, #0
 9907 000e FB73     		strb	r3, [r7, #15]
2488:.\EncoreImpl.c ****     bool shiftbydelimiter = false;
 9908              		.loc 1 2488 0
 9909 0010 0023     		movs	r3, #0
 9910 0012 BB73     		strb	r3, [r7, #14]
2489:.\EncoreImpl.c ****     //If there is a "Comma" inside of the buffer, then just remove it before and count this for the
2490:.\EncoreImpl.c ****     FOR(int8 index = (buffersize - 1), index > 0, index--)
 9911              		.loc 1 2490 0
 9912 0014 FB78     		ldrb	r3, [r7, #3]
 9913 0016 013B     		subs	r3, r3, #1
 9914 0018 DBB2     		uxtb	r3, r3
 9915 001a 7B73     		strb	r3, [r7, #13]
 9916 001c 2CE0     		b	.L408
 9917              	.L412:
2491:.\EncoreImpl.c ****     {
2492:.\EncoreImpl.c ****         if(pbuffer[index] == 0x2C && !shiftbydelimiter)
 9918              		.loc 1 2492 0
 9919 001e 97F90D30 		ldrsb	r3, [r7, #13]
 9920 0022 7A68     		ldr	r2, [r7, #4]
 9921 0024 1344     		add	r3, r3, r2
 9922 0026 1B78     		ldrb	r3, [r3]	@ zero_extendqisi2
 9923 0028 2C2B     		cmp	r3, #44
 9924 002a 07D1     		bne	.L409
 9925              		.loc 1 2492 0 is_stmt 0 discriminator 1
 9926 002c BB7B     		ldrb	r3, [r7, #14]
 9927 002e 83F00103 		eor	r3, r3, #1
 9928 0032 DBB2     		uxtb	r3, r3
 9929 0034 002B     		cmp	r3, #0
 9930 0036 01D0     		beq	.L409
2493:.\EncoreImpl.c ****             shiftbydelimiter = true;
 9931              		.loc 1 2493 0 is_stmt 1
 9932 0038 0123     		movs	r3, #1
 9933 003a BB73     		strb	r3, [r7, #14]
 9934              	.L409:
2494:.\EncoreImpl.c **** 
2495:.\EncoreImpl.c ****         if(shiftbydelimiter)
 9935              		.loc 1 2495 0
 9936 003c BB7B     		ldrb	r3, [r7, #14]	@ zero_extendqisi2
 9937 003e 002B     		cmp	r3, #0
 9938 0040 12D0     		beq	.L410
2496:.\EncoreImpl.c ****         {
2497:.\EncoreImpl.c ****             pbuffer[index] = pbuffer[index - 1];
ARM GAS  C:\Users\RECEPC~1\AppData\Local\Temp\ccMZb0bC.s 			page 220


 9939              		.loc 1 2497 0
 9940 0042 97F90D30 		ldrsb	r3, [r7, #13]
 9941 0046 7A68     		ldr	r2, [r7, #4]
 9942 0048 1344     		add	r3, r3, r2
 9943 004a 97F90D20 		ldrsb	r2, [r7, #13]
 9944 004e 013A     		subs	r2, r2, #1
 9945 0050 7968     		ldr	r1, [r7, #4]
 9946 0052 0A44     		add	r2, r2, r1
 9947 0054 1278     		ldrb	r2, [r2]	@ zero_extendqisi2
 9948 0056 1A70     		strb	r2, [r3]
2498:.\EncoreImpl.c ****             pbuffer[index - 1] = 0x00;
 9949              		.loc 1 2498 0
 9950 0058 97F90D30 		ldrsb	r3, [r7, #13]
 9951 005c 013B     		subs	r3, r3, #1
 9952 005e 7A68     		ldr	r2, [r7, #4]
 9953 0060 1344     		add	r3, r3, r2
 9954 0062 0022     		movs	r2, #0
 9955 0064 1A70     		strb	r2, [r3]
 9956 0066 02E0     		b	.L411
 9957              	.L410:
2499:.\EncoreImpl.c ****         }else
2500:.\EncoreImpl.c ****             delimiterindex++;
 9958              		.loc 1 2500 0
 9959 0068 FB7B     		ldrb	r3, [r7, #15]	@ zero_extendqisi2
 9960 006a 0133     		adds	r3, r3, #1
 9961 006c FB73     		strb	r3, [r7, #15]
 9962              	.L411:
2490:.\EncoreImpl.c ****     {
 9963              		.loc 1 2490 0 discriminator 2
 9964 006e 7B7B     		ldrb	r3, [r7, #13]	@ zero_extendqisi2
 9965 0070 DBB2     		uxtb	r3, r3
 9966 0072 013B     		subs	r3, r3, #1
 9967 0074 DBB2     		uxtb	r3, r3
 9968 0076 7B73     		strb	r3, [r7, #13]
 9969              	.L408:
2490:.\EncoreImpl.c ****     {
 9970              		.loc 1 2490 0 is_stmt 0 discriminator 1
 9971 0078 97F90D30 		ldrsb	r3, [r7, #13]
 9972 007c 002B     		cmp	r3, #0
 9973 007e CEDC     		bgt	.L412
2501:.\EncoreImpl.c ****         
2502:.\EncoreImpl.c ****     }
2503:.\EncoreImpl.c ****     if(!shiftbydelimiter)
 9974              		.loc 1 2503 0 is_stmt 1
 9975 0080 BB7B     		ldrb	r3, [r7, #14]
 9976 0082 83F00103 		eor	r3, r3, #1
 9977 0086 DBB2     		uxtb	r3, r3
 9978 0088 002B     		cmp	r3, #0
 9979 008a 01D0     		beq	.L413
2504:.\EncoreImpl.c ****         delimiterindex = 0x00;
 9980              		.loc 1 2504 0
 9981 008c 0023     		movs	r3, #0
 9982 008e FB73     		strb	r3, [r7, #15]
 9983              	.L413:
2505:.\EncoreImpl.c ****     
2506:.\EncoreImpl.c ****     int8 shiftcount = (delimiterindex - ((_g_dispenserlayoutinfo._displaydigitsmode == 0x06)?_g_dis
 9984              		.loc 1 2506 0
ARM GAS  C:\Users\RECEPC~1\AppData\Local\Temp\ccMZb0bC.s 			page 221


 9985 0090 374B     		ldr	r3, .L426
 9986 0092 1B7C     		ldrb	r3, [r3, #16]	@ zero_extendqisi2
 9987 0094 062B     		cmp	r3, #6
 9988 0096 04D1     		bne	.L414
 9989              		.loc 1 2506 0 is_stmt 0 discriminator 1
 9990 0098 354B     		ldr	r3, .L426
 9991 009a 5B7A     		ldrb	r3, [r3, #9]	@ zero_extendqisi2
 9992 009c 013B     		subs	r3, r3, #1
 9993 009e DBB2     		uxtb	r3, r3
 9994 00a0 01E0     		b	.L415
 9995              	.L414:
 9996              		.loc 1 2506 0 discriminator 2
 9997 00a2 334B     		ldr	r3, .L426
 9998 00a4 5B7A     		ldrb	r3, [r3, #9]	@ zero_extendqisi2
 9999              	.L415:
 10000              		.loc 1 2506 0 discriminator 4
 10001 00a6 FA7B     		ldrb	r2, [r7, #15]
 10002 00a8 D31A     		subs	r3, r2, r3
 10003 00aa DBB2     		uxtb	r3, r3
 10004 00ac 3B73     		strb	r3, [r7, #12]
2507:.\EncoreImpl.c ****     //8 is the size of the allocated buffer space for the preset values according to the protocol.
2508:.\EncoreImpl.c ****     //The real buffer size allocated from the display side is 16 bytes. The buffer will be cast fro
2509:.\EncoreImpl.c ****     //the end to the beginning, so the startup index has been calculated "explicitly", this is (8 -
2510:.\EncoreImpl.c ****     //To multiply by 1000 we need to shift the entire buffer three bytes to shift the comma, so we
2511:.\EncoreImpl.c ****     //will subtract 3 bytes to the starting position in order to make the shifting.
2512:.\EncoreImpl.c ****     if(shiftcount > 0)
 10005              		.loc 1 2512 0 is_stmt 1 discriminator 4
 10006 00ae 97F90C30 		ldrsb	r3, [r7, #12]
 10007 00b2 002B     		cmp	r3, #0
 10008 00b4 29DD     		ble	.L416
2513:.\EncoreImpl.c ****     {
2514:.\EncoreImpl.c ****         while(shiftcount > 0)
 10009              		.loc 1 2514 0
 10010 00b6 23E0     		b	.L417
 10011              	.L420:
2515:.\EncoreImpl.c ****         {
2516:.\EncoreImpl.c ****             FOR(index = (buffersize - 1), index > 0, index--)
 10012              		.loc 1 2516 0
 10013 00b8 FB78     		ldrb	r3, [r7, #3]
 10014 00ba 013B     		subs	r3, r3, #1
 10015 00bc DBB2     		uxtb	r3, r3
 10016 00be 7B73     		strb	r3, [r7, #13]
 10017 00c0 15E0     		b	.L418
 10018              	.L419:
2517:.\EncoreImpl.c ****             {
2518:.\EncoreImpl.c ****                 pbuffer[index] = pbuffer[index - 1];
 10019              		.loc 1 2518 0 discriminator 3
 10020 00c2 97F90D30 		ldrsb	r3, [r7, #13]
 10021 00c6 7A68     		ldr	r2, [r7, #4]
 10022 00c8 1344     		add	r3, r3, r2
 10023 00ca 97F90D20 		ldrsb	r2, [r7, #13]
 10024 00ce 013A     		subs	r2, r2, #1
 10025 00d0 7968     		ldr	r1, [r7, #4]
 10026 00d2 0A44     		add	r2, r2, r1
 10027 00d4 1278     		ldrb	r2, [r2]	@ zero_extendqisi2
 10028 00d6 1A70     		strb	r2, [r3]
2519:.\EncoreImpl.c ****                 pbuffer[index] = 0x00;
ARM GAS  C:\Users\RECEPC~1\AppData\Local\Temp\ccMZb0bC.s 			page 222


 10029              		.loc 1 2519 0 discriminator 3
 10030 00d8 97F90D30 		ldrsb	r3, [r7, #13]
 10031 00dc 7A68     		ldr	r2, [r7, #4]
 10032 00de 1344     		add	r3, r3, r2
 10033 00e0 0022     		movs	r2, #0
 10034 00e2 1A70     		strb	r2, [r3]
2516:.\EncoreImpl.c ****             {
 10035              		.loc 1 2516 0 discriminator 3
 10036 00e4 7B7B     		ldrb	r3, [r7, #13]	@ zero_extendqisi2
 10037 00e6 DBB2     		uxtb	r3, r3
 10038 00e8 013B     		subs	r3, r3, #1
 10039 00ea DBB2     		uxtb	r3, r3
 10040 00ec 7B73     		strb	r3, [r7, #13]
 10041              	.L418:
2516:.\EncoreImpl.c ****             {
 10042              		.loc 1 2516 0 is_stmt 0 discriminator 1
 10043 00ee 97F90D30 		ldrsb	r3, [r7, #13]
 10044 00f2 002B     		cmp	r3, #0
 10045 00f4 E5DC     		bgt	.L419
2520:.\EncoreImpl.c ****             }
2521:.\EncoreImpl.c ****             shiftcount--;
 10046              		.loc 1 2521 0 is_stmt 1
 10047 00f6 3B7B     		ldrb	r3, [r7, #12]	@ zero_extendqisi2
 10048 00f8 DBB2     		uxtb	r3, r3
 10049 00fa 013B     		subs	r3, r3, #1
 10050 00fc DBB2     		uxtb	r3, r3
 10051 00fe 3B73     		strb	r3, [r7, #12]
 10052              	.L417:
2514:.\EncoreImpl.c ****         {
 10053              		.loc 1 2514 0
 10054 0100 97F90C30 		ldrsb	r3, [r7, #12]
 10055 0104 002B     		cmp	r3, #0
 10056 0106 D7DC     		bgt	.L420
 10057 0108 2DE0     		b	.L407
 10058              	.L416:
2522:.\EncoreImpl.c ****         }
2523:.\EncoreImpl.c ****     }
2524:.\EncoreImpl.c ****     else if(shiftcount < 0)
 10059              		.loc 1 2524 0
 10060 010a 97F90C30 		ldrsb	r3, [r7, #12]
 10061 010e 002B     		cmp	r3, #0
 10062 0110 29DA     		bge	.L407
2525:.\EncoreImpl.c ****     {
2526:.\EncoreImpl.c ****         while(shiftcount < 0)
 10063              		.loc 1 2526 0
 10064 0112 24E0     		b	.L422
 10065              	.L425:
2527:.\EncoreImpl.c ****         {
2528:.\EncoreImpl.c ****             FOR(index = 0, index < (buffersize  - 1), index++)
 10066              		.loc 1 2528 0
 10067 0114 0023     		movs	r3, #0
 10068 0116 7B73     		strb	r3, [r7, #13]
 10069 0118 16E0     		b	.L423
 10070              	.L424:
2529:.\EncoreImpl.c ****             {
2530:.\EncoreImpl.c ****                 pbuffer[index] = pbuffer[index + 1];
 10071              		.loc 1 2530 0 discriminator 3
ARM GAS  C:\Users\RECEPC~1\AppData\Local\Temp\ccMZb0bC.s 			page 223


 10072 011a 97F90D30 		ldrsb	r3, [r7, #13]
 10073 011e 7A68     		ldr	r2, [r7, #4]
 10074 0120 1344     		add	r3, r3, r2
 10075 0122 97F90D20 		ldrsb	r2, [r7, #13]
 10076 0126 0132     		adds	r2, r2, #1
 10077 0128 7968     		ldr	r1, [r7, #4]
 10078 012a 0A44     		add	r2, r2, r1
 10079 012c 1278     		ldrb	r2, [r2]	@ zero_extendqisi2
 10080 012e 1A70     		strb	r2, [r3]
2531:.\EncoreImpl.c ****                 pbuffer[index + 1] = 0x30;
 10081              		.loc 1 2531 0 discriminator 3
 10082 0130 97F90D30 		ldrsb	r3, [r7, #13]
 10083 0134 0133     		adds	r3, r3, #1
 10084 0136 7A68     		ldr	r2, [r7, #4]
 10085 0138 1344     		add	r3, r3, r2
 10086 013a 3022     		movs	r2, #48
 10087 013c 1A70     		strb	r2, [r3]
2528:.\EncoreImpl.c ****             {
 10088              		.loc 1 2528 0 discriminator 3
 10089 013e 7B7B     		ldrb	r3, [r7, #13]	@ zero_extendqisi2
 10090 0140 DBB2     		uxtb	r3, r3
 10091 0142 0133     		adds	r3, r3, #1
 10092 0144 DBB2     		uxtb	r3, r3
 10093 0146 7B73     		strb	r3, [r7, #13]
 10094              	.L423:
2528:.\EncoreImpl.c ****             {
 10095              		.loc 1 2528 0 is_stmt 0 discriminator 1
 10096 0148 97F90D20 		ldrsb	r2, [r7, #13]
 10097 014c FB78     		ldrb	r3, [r7, #3]	@ zero_extendqisi2
 10098 014e 013B     		subs	r3, r3, #1
 10099 0150 9A42     		cmp	r2, r3
 10100 0152 E2DB     		blt	.L424
2532:.\EncoreImpl.c ****             }
2533:.\EncoreImpl.c ****             shiftcount++;
 10101              		.loc 1 2533 0 is_stmt 1
 10102 0154 3B7B     		ldrb	r3, [r7, #12]	@ zero_extendqisi2
 10103 0156 DBB2     		uxtb	r3, r3
 10104 0158 0133     		adds	r3, r3, #1
 10105 015a DBB2     		uxtb	r3, r3
 10106 015c 3B73     		strb	r3, [r7, #12]
 10107              	.L422:
2526:.\EncoreImpl.c ****         {
 10108              		.loc 1 2526 0
 10109 015e 97F90C30 		ldrsb	r3, [r7, #12]
 10110 0162 002B     		cmp	r3, #0
 10111 0164 D6DB     		blt	.L425
 10112              	.L407:
2534:.\EncoreImpl.c ****         }
2535:.\EncoreImpl.c ****     }
2536:.\EncoreImpl.c **** }
 10113              		.loc 1 2536 0
 10114 0166 1437     		adds	r7, r7, #20
 10115              		.cfi_def_cfa_offset 4
 10116 0168 BD46     		mov	sp, r7
 10117              		.cfi_def_cfa_register 13
 10118              		@ sp needed
 10119 016a 5DF8047B 		ldr	r7, [sp], #4
ARM GAS  C:\Users\RECEPC~1\AppData\Local\Temp\ccMZb0bC.s 			page 224


 10120              		.cfi_restore 7
 10121              		.cfi_def_cfa_offset 0
 10122 016e 7047     		bx	lr
 10123              	.L427:
 10124              		.align	2
 10125              	.L426:
 10126 0170 00000000 		.word	_g_dispenserlayoutinfo
 10127              		.cfi_endproc
 10128              	.LFE106:
 10129              		.size	CastVolumeValue, .-CastVolumeValue
 10130              		.section	.text.CastMoneyValue,"ax",%progbits
 10131              		.align	2
 10132              		.global	CastMoneyValue
 10133              		.thumb
 10134              		.thumb_func
 10135              		.type	CastMoneyValue, %function
 10136              	CastMoneyValue:
 10137              	.LFB107:
2537:.\EncoreImpl.c **** 
2538:.\EncoreImpl.c **** //@Created by: HIJH
2539:.\EncoreImpl.c **** //@Date: Septembre de 2016
2540:.\EncoreImpl.c **** //This method arranges the PRESET buffer when this is a "Money PRESET".
2541:.\EncoreImpl.c **** void CastMoneyValue(char8 *pbuffer, uint8 buffersize)
2542:.\EncoreImpl.c **** {
 10138              		.loc 1 2542 0
 10139              		.cfi_startproc
 10140              		@ args = 0, pretend = 0, frame = 16
 10141              		@ frame_needed = 1, uses_anonymous_args = 0
 10142              		@ link register save eliminated.
 10143 0000 80B4     		push	{r7}
 10144              		.cfi_def_cfa_offset 4
 10145              		.cfi_offset 7, -4
 10146 0002 85B0     		sub	sp, sp, #20
 10147              		.cfi_def_cfa_offset 24
 10148 0004 00AF     		add	r7, sp, #0
 10149              		.cfi_def_cfa_register 7
 10150 0006 7860     		str	r0, [r7, #4]
 10151 0008 0B46     		mov	r3, r1
 10152 000a FB70     		strb	r3, [r7, #3]
2543:.\EncoreImpl.c ****     uint8 delimiterindex = 0x00;
 10153              		.loc 1 2543 0
 10154 000c 0023     		movs	r3, #0
 10155 000e FB73     		strb	r3, [r7, #15]
2544:.\EncoreImpl.c ****     bool shiftbydelimiter = false;
 10156              		.loc 1 2544 0
 10157 0010 0023     		movs	r3, #0
 10158 0012 BB73     		strb	r3, [r7, #14]
2545:.\EncoreImpl.c ****     //If there is a "Comma" inside of the buffer, then just remove it before and count this for the
2546:.\EncoreImpl.c ****     FOR(int8 index = (buffersize - 1), index > 0, index--)
 10159              		.loc 1 2546 0
 10160 0014 FB78     		ldrb	r3, [r7, #3]
 10161 0016 013B     		subs	r3, r3, #1
 10162 0018 DBB2     		uxtb	r3, r3
 10163 001a 7B73     		strb	r3, [r7, #13]
 10164 001c 2CE0     		b	.L429
 10165              	.L433:
2547:.\EncoreImpl.c ****     {
ARM GAS  C:\Users\RECEPC~1\AppData\Local\Temp\ccMZb0bC.s 			page 225


2548:.\EncoreImpl.c ****         if(pbuffer[index] == 0x2C && !shiftbydelimiter)
 10166              		.loc 1 2548 0
 10167 001e 97F90D30 		ldrsb	r3, [r7, #13]
 10168 0022 7A68     		ldr	r2, [r7, #4]
 10169 0024 1344     		add	r3, r3, r2
 10170 0026 1B78     		ldrb	r3, [r3]	@ zero_extendqisi2
 10171 0028 2C2B     		cmp	r3, #44
 10172 002a 07D1     		bne	.L430
 10173              		.loc 1 2548 0 is_stmt 0 discriminator 1
 10174 002c BB7B     		ldrb	r3, [r7, #14]
 10175 002e 83F00103 		eor	r3, r3, #1
 10176 0032 DBB2     		uxtb	r3, r3
 10177 0034 002B     		cmp	r3, #0
 10178 0036 01D0     		beq	.L430
2549:.\EncoreImpl.c ****             shiftbydelimiter = true;
 10179              		.loc 1 2549 0 is_stmt 1
 10180 0038 0123     		movs	r3, #1
 10181 003a BB73     		strb	r3, [r7, #14]
 10182              	.L430:
2550:.\EncoreImpl.c **** 
2551:.\EncoreImpl.c ****         if(shiftbydelimiter)
 10183              		.loc 1 2551 0
 10184 003c BB7B     		ldrb	r3, [r7, #14]	@ zero_extendqisi2
 10185 003e 002B     		cmp	r3, #0
 10186 0040 12D0     		beq	.L431
2552:.\EncoreImpl.c ****         {
2553:.\EncoreImpl.c ****             pbuffer[index] = pbuffer[index - 1];
 10187              		.loc 1 2553 0
 10188 0042 97F90D30 		ldrsb	r3, [r7, #13]
 10189 0046 7A68     		ldr	r2, [r7, #4]
 10190 0048 1344     		add	r3, r3, r2
 10191 004a 97F90D20 		ldrsb	r2, [r7, #13]
 10192 004e 013A     		subs	r2, r2, #1
 10193 0050 7968     		ldr	r1, [r7, #4]
 10194 0052 0A44     		add	r2, r2, r1
 10195 0054 1278     		ldrb	r2, [r2]	@ zero_extendqisi2
 10196 0056 1A70     		strb	r2, [r3]
2554:.\EncoreImpl.c ****             pbuffer[index - 1] = 0x00;
 10197              		.loc 1 2554 0
 10198 0058 97F90D30 		ldrsb	r3, [r7, #13]
 10199 005c 013B     		subs	r3, r3, #1
 10200 005e 7A68     		ldr	r2, [r7, #4]
 10201 0060 1344     		add	r3, r3, r2
 10202 0062 0022     		movs	r2, #0
 10203 0064 1A70     		strb	r2, [r3]
 10204 0066 02E0     		b	.L432
 10205              	.L431:
2555:.\EncoreImpl.c ****         }else
2556:.\EncoreImpl.c ****             delimiterindex++;
 10206              		.loc 1 2556 0
 10207 0068 FB7B     		ldrb	r3, [r7, #15]	@ zero_extendqisi2
 10208 006a 0133     		adds	r3, r3, #1
 10209 006c FB73     		strb	r3, [r7, #15]
 10210              	.L432:
2546:.\EncoreImpl.c ****     {
 10211              		.loc 1 2546 0 discriminator 2
 10212 006e 7B7B     		ldrb	r3, [r7, #13]	@ zero_extendqisi2
ARM GAS  C:\Users\RECEPC~1\AppData\Local\Temp\ccMZb0bC.s 			page 226


 10213 0070 DBB2     		uxtb	r3, r3
 10214 0072 013B     		subs	r3, r3, #1
 10215 0074 DBB2     		uxtb	r3, r3
 10216 0076 7B73     		strb	r3, [r7, #13]
 10217              	.L429:
2546:.\EncoreImpl.c ****     {
 10218              		.loc 1 2546 0 is_stmt 0 discriminator 1
 10219 0078 97F90D30 		ldrsb	r3, [r7, #13]
 10220 007c 002B     		cmp	r3, #0
 10221 007e CEDC     		bgt	.L433
2557:.\EncoreImpl.c ****         
2558:.\EncoreImpl.c ****     }
2559:.\EncoreImpl.c ****     if(!shiftbydelimiter)
 10222              		.loc 1 2559 0 is_stmt 1
 10223 0080 BB7B     		ldrb	r3, [r7, #14]
 10224 0082 83F00103 		eor	r3, r3, #1
 10225 0086 DBB2     		uxtb	r3, r3
 10226 0088 002B     		cmp	r3, #0
 10227 008a 01D0     		beq	.L434
2560:.\EncoreImpl.c ****         delimiterindex = 0x00;
 10228              		.loc 1 2560 0
 10229 008c 0023     		movs	r3, #0
 10230 008e FB73     		strb	r3, [r7, #15]
 10231              	.L434:
2561:.\EncoreImpl.c ****     
2562:.\EncoreImpl.c ****     int8 shiftcount = (delimiterindex - _g_dispenserlayoutinfo._moneydecimals);
 10232              		.loc 1 2562 0
 10233 0090 334B     		ldr	r3, .L445
 10234 0092 DB79     		ldrb	r3, [r3, #7]	@ zero_extendqisi2
 10235 0094 FA7B     		ldrb	r2, [r7, #15]
 10236 0096 D31A     		subs	r3, r2, r3
 10237 0098 DBB2     		uxtb	r3, r3
 10238 009a 3B73     		strb	r3, [r7, #12]
2563:.\EncoreImpl.c ****     //8 is the size of the allocated buffer space for the preset values according to the protocol.
2564:.\EncoreImpl.c ****     //The real buffer size allocated from the display side is 16 bytes. The buffer will be cast fro
2565:.\EncoreImpl.c ****     //the end to the beginning, so the startup index has been calculated "explicitly", this is (8 -
2566:.\EncoreImpl.c ****     //To multiply by 1000 we need to shift the entire buffer three bytes to shift the comma, so we
2567:.\EncoreImpl.c ****     //will subtract 3 bytes to the starting position in order to make the shifting.
2568:.\EncoreImpl.c ****     if(shiftcount > 0)
 10239              		.loc 1 2568 0
 10240 009c 97F90C30 		ldrsb	r3, [r7, #12]
 10241 00a0 002B     		cmp	r3, #0
 10242 00a2 29DD     		ble	.L435
2569:.\EncoreImpl.c ****     {
2570:.\EncoreImpl.c ****         while(shiftcount > 0)
 10243              		.loc 1 2570 0
 10244 00a4 23E0     		b	.L436
 10245              	.L439:
2571:.\EncoreImpl.c ****         {
2572:.\EncoreImpl.c ****             FOR(index = (buffersize - 1), index > 0, index--)
 10246              		.loc 1 2572 0
 10247 00a6 FB78     		ldrb	r3, [r7, #3]
 10248 00a8 013B     		subs	r3, r3, #1
 10249 00aa DBB2     		uxtb	r3, r3
 10250 00ac 7B73     		strb	r3, [r7, #13]
 10251 00ae 15E0     		b	.L437
 10252              	.L438:
ARM GAS  C:\Users\RECEPC~1\AppData\Local\Temp\ccMZb0bC.s 			page 227


2573:.\EncoreImpl.c ****             {
2574:.\EncoreImpl.c ****                 pbuffer[index] = pbuffer[index - 1];
 10253              		.loc 1 2574 0 discriminator 3
 10254 00b0 97F90D30 		ldrsb	r3, [r7, #13]
 10255 00b4 7A68     		ldr	r2, [r7, #4]
 10256 00b6 1344     		add	r3, r3, r2
 10257 00b8 97F90D20 		ldrsb	r2, [r7, #13]
 10258 00bc 013A     		subs	r2, r2, #1
 10259 00be 7968     		ldr	r1, [r7, #4]
 10260 00c0 0A44     		add	r2, r2, r1
 10261 00c2 1278     		ldrb	r2, [r2]	@ zero_extendqisi2
 10262 00c4 1A70     		strb	r2, [r3]
2575:.\EncoreImpl.c ****                 pbuffer[index] = 0x00;
 10263              		.loc 1 2575 0 discriminator 3
 10264 00c6 97F90D30 		ldrsb	r3, [r7, #13]
 10265 00ca 7A68     		ldr	r2, [r7, #4]
 10266 00cc 1344     		add	r3, r3, r2
 10267 00ce 0022     		movs	r2, #0
 10268 00d0 1A70     		strb	r2, [r3]
2572:.\EncoreImpl.c ****             {
 10269              		.loc 1 2572 0 discriminator 3
 10270 00d2 7B7B     		ldrb	r3, [r7, #13]	@ zero_extendqisi2
 10271 00d4 DBB2     		uxtb	r3, r3
 10272 00d6 013B     		subs	r3, r3, #1
 10273 00d8 DBB2     		uxtb	r3, r3
 10274 00da 7B73     		strb	r3, [r7, #13]
 10275              	.L437:
2572:.\EncoreImpl.c ****             {
 10276              		.loc 1 2572 0 is_stmt 0 discriminator 1
 10277 00dc 97F90D30 		ldrsb	r3, [r7, #13]
 10278 00e0 002B     		cmp	r3, #0
 10279 00e2 E5DC     		bgt	.L438
2576:.\EncoreImpl.c ****             }
2577:.\EncoreImpl.c ****             shiftcount--;
 10280              		.loc 1 2577 0 is_stmt 1
 10281 00e4 3B7B     		ldrb	r3, [r7, #12]	@ zero_extendqisi2
 10282 00e6 DBB2     		uxtb	r3, r3
 10283 00e8 013B     		subs	r3, r3, #1
 10284 00ea DBB2     		uxtb	r3, r3
 10285 00ec 3B73     		strb	r3, [r7, #12]
 10286              	.L436:
2570:.\EncoreImpl.c ****         {
 10287              		.loc 1 2570 0
 10288 00ee 97F90C30 		ldrsb	r3, [r7, #12]
 10289 00f2 002B     		cmp	r3, #0
 10290 00f4 D7DC     		bgt	.L439
 10291 00f6 2DE0     		b	.L428
 10292              	.L435:
2578:.\EncoreImpl.c ****         }
2579:.\EncoreImpl.c ****     }
2580:.\EncoreImpl.c ****     else if(shiftcount < 0)
 10293              		.loc 1 2580 0
 10294 00f8 97F90C30 		ldrsb	r3, [r7, #12]
 10295 00fc 002B     		cmp	r3, #0
 10296 00fe 29DA     		bge	.L428
2581:.\EncoreImpl.c ****     {
2582:.\EncoreImpl.c ****         while(shiftcount < 0)
ARM GAS  C:\Users\RECEPC~1\AppData\Local\Temp\ccMZb0bC.s 			page 228


 10297              		.loc 1 2582 0
 10298 0100 24E0     		b	.L441
 10299              	.L444:
2583:.\EncoreImpl.c ****         {
2584:.\EncoreImpl.c ****             FOR(index = 0, index < (buffersize  - 1), index++)
 10300              		.loc 1 2584 0
 10301 0102 0023     		movs	r3, #0
 10302 0104 7B73     		strb	r3, [r7, #13]
 10303 0106 16E0     		b	.L442
 10304              	.L443:
2585:.\EncoreImpl.c ****             {
2586:.\EncoreImpl.c ****                 pbuffer[index] = pbuffer[index + 1];
 10305              		.loc 1 2586 0 discriminator 3
 10306 0108 97F90D30 		ldrsb	r3, [r7, #13]
 10307 010c 7A68     		ldr	r2, [r7, #4]
 10308 010e 1344     		add	r3, r3, r2
 10309 0110 97F90D20 		ldrsb	r2, [r7, #13]
 10310 0114 0132     		adds	r2, r2, #1
 10311 0116 7968     		ldr	r1, [r7, #4]
 10312 0118 0A44     		add	r2, r2, r1
 10313 011a 1278     		ldrb	r2, [r2]	@ zero_extendqisi2
 10314 011c 1A70     		strb	r2, [r3]
2587:.\EncoreImpl.c ****                 pbuffer[index + 1] = 0x30;
 10315              		.loc 1 2587 0 discriminator 3
 10316 011e 97F90D30 		ldrsb	r3, [r7, #13]
 10317 0122 0133     		adds	r3, r3, #1
 10318 0124 7A68     		ldr	r2, [r7, #4]
 10319 0126 1344     		add	r3, r3, r2
 10320 0128 3022     		movs	r2, #48
 10321 012a 1A70     		strb	r2, [r3]
2584:.\EncoreImpl.c ****             {
 10322              		.loc 1 2584 0 discriminator 3
 10323 012c 7B7B     		ldrb	r3, [r7, #13]	@ zero_extendqisi2
 10324 012e DBB2     		uxtb	r3, r3
 10325 0130 0133     		adds	r3, r3, #1
 10326 0132 DBB2     		uxtb	r3, r3
 10327 0134 7B73     		strb	r3, [r7, #13]
 10328              	.L442:
2584:.\EncoreImpl.c ****             {
 10329              		.loc 1 2584 0 is_stmt 0 discriminator 1
 10330 0136 97F90D20 		ldrsb	r2, [r7, #13]
 10331 013a FB78     		ldrb	r3, [r7, #3]	@ zero_extendqisi2
 10332 013c 013B     		subs	r3, r3, #1
 10333 013e 9A42     		cmp	r2, r3
 10334 0140 E2DB     		blt	.L443
2588:.\EncoreImpl.c ****             }
2589:.\EncoreImpl.c ****             shiftcount++;
 10335              		.loc 1 2589 0 is_stmt 1
 10336 0142 3B7B     		ldrb	r3, [r7, #12]	@ zero_extendqisi2
 10337 0144 DBB2     		uxtb	r3, r3
 10338 0146 0133     		adds	r3, r3, #1
 10339 0148 DBB2     		uxtb	r3, r3
 10340 014a 3B73     		strb	r3, [r7, #12]
 10341              	.L441:
2582:.\EncoreImpl.c ****         {
 10342              		.loc 1 2582 0
 10343 014c 97F90C30 		ldrsb	r3, [r7, #12]
ARM GAS  C:\Users\RECEPC~1\AppData\Local\Temp\ccMZb0bC.s 			page 229


 10344 0150 002B     		cmp	r3, #0
 10345 0152 D6DB     		blt	.L444
 10346              	.L428:
2590:.\EncoreImpl.c ****         }
2591:.\EncoreImpl.c ****     }
2592:.\EncoreImpl.c **** }
 10347              		.loc 1 2592 0
 10348 0154 1437     		adds	r7, r7, #20
 10349              		.cfi_def_cfa_offset 4
 10350 0156 BD46     		mov	sp, r7
 10351              		.cfi_def_cfa_register 13
 10352              		@ sp needed
 10353 0158 5DF8047B 		ldr	r7, [sp], #4
 10354              		.cfi_restore 7
 10355              		.cfi_def_cfa_offset 0
 10356 015c 7047     		bx	lr
 10357              	.L446:
 10358 015e 00BF     		.align	2
 10359              	.L445:
 10360 0160 00000000 		.word	_g_dispenserlayoutinfo
 10361              		.cfi_endproc
 10362              	.LFE107:
 10363              		.size	CastMoneyValue, .-CastMoneyValue
 10364              		.global	_g_sfcharmap
 10365              		.data
 10366              		.align	2
 10367              		.type	_g_sfcharmap, %object
 10368              		.size	_g_sfcharmap, 32
 10369              	_g_sfcharmap:
 10370 0000 B1       		.byte	-79
 10371 0001 01       		.byte	1
 10372 0002 B2       		.byte	-78
 10373 0003 02       		.byte	2
 10374 0004 B3       		.byte	-77
 10375 0005 03       		.byte	3
 10376 0006 B4       		.byte	-76
 10377 0007 04       		.byte	4
 10378 0008 B5       		.byte	-75
 10379 0009 05       		.byte	5
 10380 000a B6       		.byte	-74
 10381 000b 06       		.byte	6
 10382 000c B7       		.byte	-73
 10383 000d 07       		.byte	7
 10384 000e B8       		.byte	-72
 10385 000f 08       		.byte	8
 10386 0010 B9       		.byte	-71
 10387 0011 09       		.byte	9
 10388 0012 C1       		.byte	-63
 10389 0013 0A       		.byte	10
 10390 0014 C2       		.byte	-62
 10391 0015 0B       		.byte	11
 10392 0016 C3       		.byte	-61
 10393 0017 0C       		.byte	12
 10394 0018 C4       		.byte	-60
 10395 0019 0D       		.byte	13
 10396 001a C5       		.byte	-59
 10397 001b 0E       		.byte	14
ARM GAS  C:\Users\RECEPC~1\AppData\Local\Temp\ccMZb0bC.s 			page 230


 10398 001c C6       		.byte	-58
 10399 001d 0F       		.byte	15
 10400 001e 00       		.byte	0
 10401 001f 00       		.byte	0
 10402              		.section	.text.TranslateSpecialFuncionDigit,"ax",%progbits
 10403              		.align	2
 10404              		.global	TranslateSpecialFuncionDigit
 10405              		.thumb
 10406              		.thumb_func
 10407              		.type	TranslateSpecialFuncionDigit, %function
 10408              	TranslateSpecialFuncionDigit:
 10409              	.LFB108:
2593:.\EncoreImpl.c **** 
2594:.\EncoreImpl.c **** //This is a char map to translate from the special functions word domain to the normal byte domain
2595:.\EncoreImpl.c **** char8 _g_sfcharmap[][2] = 
2596:.\EncoreImpl.c **** {
2597:.\EncoreImpl.c ****     { 0xB1, 0x01 }, { 0xB2, 0x02 }, { 0xB3, 0x03 }, { 0xB4, 0x04 }, { 0xB5, 0x05 }, { 0xB6, 0x06 },
2598:.\EncoreImpl.c ****     { 0xC1, 0x0A }, { 0xC2, 0x0B }, { 0xC3, 0x0C }, { 0xC4, 0x0D }, { 0xC5, 0x0E }, { 0xC6, 0x0F },
2599:.\EncoreImpl.c **** };
2600:.\EncoreImpl.c **** 
2601:.\EncoreImpl.c **** //@Created By: HIJH
2602:.\EncoreImpl.c **** //@Septembre de 2016
2603:.\EncoreImpl.c **** char8 TranslateSpecialFuncionDigit(char8 refval)
2604:.\EncoreImpl.c **** {
 10410              		.loc 1 2604 0
 10411              		.cfi_startproc
 10412              		@ args = 0, pretend = 0, frame = 16
 10413              		@ frame_needed = 1, uses_anonymous_args = 0
 10414              		@ link register save eliminated.
 10415 0000 80B4     		push	{r7}
 10416              		.cfi_def_cfa_offset 4
 10417              		.cfi_offset 7, -4
 10418 0002 85B0     		sub	sp, sp, #20
 10419              		.cfi_def_cfa_offset 24
 10420 0004 00AF     		add	r7, sp, #0
 10421              		.cfi_def_cfa_register 7
 10422 0006 0346     		mov	r3, r0
 10423 0008 FB71     		strb	r3, [r7, #7]
2605:.\EncoreImpl.c ****     char8 retval = 0x00;
 10424              		.loc 1 2605 0
 10425 000a 0023     		movs	r3, #0
 10426 000c FB73     		strb	r3, [r7, #15]
2606:.\EncoreImpl.c ****     PSTR ptrstr = (PSTR)&_g_sfcharmap[0];
 10427              		.loc 1 2606 0
 10428 000e 0D4B     		ldr	r3, .L453
 10429 0010 BB60     		str	r3, [r7, #8]
2607:.\EncoreImpl.c ****     while(*ptrstr != 0x00)
 10430              		.loc 1 2607 0
 10431 0012 0BE0     		b	.L448
 10432              	.L451:
2608:.\EncoreImpl.c ****     {
2609:.\EncoreImpl.c ****         if(ptrstr[0] == refval)
 10433              		.loc 1 2609 0
 10434 0014 BB68     		ldr	r3, [r7, #8]
 10435 0016 1B78     		ldrb	r3, [r3]	@ zero_extendqisi2
 10436 0018 FA79     		ldrb	r2, [r7, #7]	@ zero_extendqisi2
 10437 001a 9A42     		cmp	r2, r3
ARM GAS  C:\Users\RECEPC~1\AppData\Local\Temp\ccMZb0bC.s 			page 231


 10438 001c 03D1     		bne	.L449
2610:.\EncoreImpl.c ****         {
2611:.\EncoreImpl.c ****             retval = ptrstr[1];
 10439              		.loc 1 2611 0
 10440 001e BB68     		ldr	r3, [r7, #8]
 10441 0020 5B78     		ldrb	r3, [r3, #1]
 10442 0022 FB73     		strb	r3, [r7, #15]
2612:.\EncoreImpl.c ****             break;
 10443              		.loc 1 2612 0
 10444 0024 06E0     		b	.L450
 10445              	.L449:
2613:.\EncoreImpl.c ****         }
2614:.\EncoreImpl.c ****         ptrstr++;
 10446              		.loc 1 2614 0
 10447 0026 BB68     		ldr	r3, [r7, #8]
 10448 0028 0133     		adds	r3, r3, #1
 10449 002a BB60     		str	r3, [r7, #8]
 10450              	.L448:
2607:.\EncoreImpl.c ****     {
 10451              		.loc 1 2607 0
 10452 002c BB68     		ldr	r3, [r7, #8]
 10453 002e 1B78     		ldrb	r3, [r3]	@ zero_extendqisi2
 10454 0030 002B     		cmp	r3, #0
 10455 0032 EFD1     		bne	.L451
 10456              	.L450:
2615:.\EncoreImpl.c ****     }    
2616:.\EncoreImpl.c ****     return retval;
 10457              		.loc 1 2616 0
 10458 0034 FB7B     		ldrb	r3, [r7, #15]	@ zero_extendqisi2
2617:.\EncoreImpl.c **** }
 10459              		.loc 1 2617 0
 10460 0036 1846     		mov	r0, r3
 10461 0038 1437     		adds	r7, r7, #20
 10462              		.cfi_def_cfa_offset 4
 10463 003a BD46     		mov	sp, r7
 10464              		.cfi_def_cfa_register 13
 10465              		@ sp needed
 10466 003c 5DF8047B 		ldr	r7, [sp], #4
 10467              		.cfi_restore 7
 10468              		.cfi_def_cfa_offset 0
 10469 0040 7047     		bx	lr
 10470              	.L454:
 10471 0042 00BF     		.align	2
 10472              	.L453:
 10473 0044 00000000 		.word	_g_sfcharmap
 10474              		.cfi_endproc
 10475              	.LFE108:
 10476              		.size	TranslateSpecialFuncionDigit, .-TranslateSpecialFuncionDigit
 10477              		.bss
 10478              	index.9599:
 10479 0000 00       		.space	1
 10480              		.text
 10481              	.Letext0:
 10482              		.file 2 "c:\\program files (x86)\\cypress\\psoc creator\\3.3\\psoc creator\\import\\gnu\\arm\\4.9.
 10483              		.file 3 "c:\\program files (x86)\\cypress\\psoc creator\\3.3\\psoc creator\\import\\gnu\\arm\\4.9.
 10484              		.file 4 "Generated_Source\\PSoC5/cytypes.h"
 10485              		.file 5 ".\\GlobalDefinitions.h"
ARM GAS  C:\Users\RECEPC~1\AppData\Local\Temp\ccMZb0bC.s 			page 232


 10486              		.file 6 ".\\SinkManager.h"
 10487              		.file 7 ".\\SinkObservables.h"
 10488              		.file 8 ".\\UARTManager.h"
 10489              		.file 9 ".\\Display.h"
 10490              		.file 10 ".\\Encore.h"
 10491              		.file 11 ".\\Dispenser.h"
 10492              		.file 12 ".\\Eeprom.h"
 10493              		.file 13 ".\\RFLink.h"
 10494              		.file 14 ".\\Printer.h"
 10495              		.file 15 "Generated_Source\\PSoC5/core_cm3.h"
 10496              		.section	.debug_info,"",%progbits
 10497              	.Ldebug_info0:
 10498 0000 6D290000 		.4byte	0x296d
 10499 0004 0400     		.2byte	0x4
 10500 0006 00000000 		.4byte	.Ldebug_abbrev0
 10501 000a 04       		.byte	0x4
 10502 000b 01       		.uleb128 0x1
 10503 000c 97240000 		.4byte	.LASF564
 10504 0010 01       		.byte	0x1
 10505 0011 B71A0000 		.4byte	.LASF565
 10506 0015 E5170000 		.4byte	.LASF566
 10507 0019 00000000 		.4byte	.Ldebug_ranges0+0
 10508 001d 00000000 		.4byte	0
 10509 0021 00000000 		.4byte	.Ldebug_line0
 10510 0025 02       		.uleb128 0x2
 10511 0026 01       		.byte	0x1
 10512 0027 06       		.byte	0x6
 10513 0028 D60A0000 		.4byte	.LASF0
 10514 002c 03       		.uleb128 0x3
 10515 002d E4060000 		.4byte	.LASF4
 10516 0031 02       		.byte	0x2
 10517 0032 1D       		.byte	0x1d
 10518 0033 37000000 		.4byte	0x37
 10519 0037 02       		.uleb128 0x2
 10520 0038 01       		.byte	0x1
 10521 0039 08       		.byte	0x8
 10522 003a 1C0C0000 		.4byte	.LASF1
 10523 003e 02       		.uleb128 0x2
 10524 003f 02       		.byte	0x2
 10525 0040 05       		.byte	0x5
 10526 0041 47230000 		.4byte	.LASF2
 10527 0045 02       		.uleb128 0x2
 10528 0046 02       		.byte	0x2
 10529 0047 07       		.byte	0x7
 10530 0048 52280000 		.4byte	.LASF3
 10531 004c 03       		.uleb128 0x3
 10532 004d FF280000 		.4byte	.LASF5
 10533 0051 02       		.byte	0x2
 10534 0052 3F       		.byte	0x3f
 10535 0053 57000000 		.4byte	0x57
 10536 0057 02       		.uleb128 0x2
 10537 0058 04       		.byte	0x4
 10538 0059 05       		.byte	0x5
 10539 005a 1A080000 		.4byte	.LASF6
 10540 005e 02       		.uleb128 0x2
 10541 005f 04       		.byte	0x4
 10542 0060 07       		.byte	0x7
ARM GAS  C:\Users\RECEPC~1\AppData\Local\Temp\ccMZb0bC.s 			page 233


 10543 0061 D7130000 		.4byte	.LASF7
 10544 0065 02       		.uleb128 0x2
 10545 0066 08       		.byte	0x8
 10546 0067 05       		.byte	0x5
 10547 0068 B6160000 		.4byte	.LASF8
 10548 006c 02       		.uleb128 0x2
 10549 006d 08       		.byte	0x8
 10550 006e 07       		.byte	0x7
 10551 006f 071F0000 		.4byte	.LASF9
 10552 0073 04       		.uleb128 0x4
 10553 0074 04       		.byte	0x4
 10554 0075 05       		.byte	0x5
 10555 0076 696E7400 		.ascii	"int\000"
 10556 007a 02       		.uleb128 0x2
 10557 007b 04       		.byte	0x4
 10558 007c 07       		.byte	0x7
 10559 007d A7190000 		.4byte	.LASF10
 10560 0081 03       		.uleb128 0x3
 10561 0082 E20A0000 		.4byte	.LASF11
 10562 0086 03       		.byte	0x3
 10563 0087 15       		.byte	0x15
 10564 0088 2C000000 		.4byte	0x2c
 10565 008c 03       		.uleb128 0x3
 10566 008d 3A020000 		.4byte	.LASF12
 10567 0091 03       		.byte	0x3
 10568 0092 2C       		.byte	0x2c
 10569 0093 4C000000 		.4byte	0x4c
 10570 0097 05       		.uleb128 0x5
 10571 0098 FE220000 		.4byte	.LASF13
 10572 009c 04       		.byte	0x4
 10573 009d 3801     		.2byte	0x138
 10574 009f 37000000 		.4byte	0x37
 10575 00a3 05       		.uleb128 0x5
 10576 00a4 472A0000 		.4byte	.LASF14
 10577 00a8 04       		.byte	0x4
 10578 00a9 3901     		.2byte	0x139
 10579 00ab 45000000 		.4byte	0x45
 10580 00af 05       		.uleb128 0x5
 10581 00b0 D9020000 		.4byte	.LASF15
 10582 00b4 04       		.byte	0x4
 10583 00b5 3A01     		.2byte	0x13a
 10584 00b7 5E000000 		.4byte	0x5e
 10585 00bb 05       		.uleb128 0x5
 10586 00bc E7050000 		.4byte	.LASF16
 10587 00c0 04       		.byte	0x4
 10588 00c1 3B01     		.2byte	0x13b
 10589 00c3 25000000 		.4byte	0x25
 10590 00c7 02       		.uleb128 0x2
 10591 00c8 04       		.byte	0x4
 10592 00c9 04       		.byte	0x4
 10593 00ca D2180000 		.4byte	.LASF17
 10594 00ce 02       		.uleb128 0x2
 10595 00cf 08       		.byte	0x8
 10596 00d0 04       		.byte	0x4
 10597 00d1 9D170000 		.4byte	.LASF18
 10598 00d5 05       		.uleb128 0x5
 10599 00d6 13080000 		.4byte	.LASF19
ARM GAS  C:\Users\RECEPC~1\AppData\Local\Temp\ccMZb0bC.s 			page 234


 10600 00da 04       		.byte	0x4
 10601 00db 4401     		.2byte	0x144
 10602 00dd 6C000000 		.4byte	0x6c
 10603 00e1 05       		.uleb128 0x5
 10604 00e2 C0040000 		.4byte	.LASF20
 10605 00e6 04       		.byte	0x4
 10606 00e7 4901     		.2byte	0x149
 10607 00e9 ED000000 		.4byte	0xed
 10608 00ed 02       		.uleb128 0x2
 10609 00ee 01       		.byte	0x1
 10610 00ef 08       		.byte	0x8
 10611 00f0 A40D0000 		.4byte	.LASF21
 10612 00f4 06       		.uleb128 0x6
 10613 00f5 97000000 		.4byte	0x97
 10614 00f9 06       		.uleb128 0x6
 10615 00fa A3000000 		.4byte	0xa3
 10616 00fe 06       		.uleb128 0x6
 10617 00ff AF000000 		.4byte	0xaf
 10618 0103 07       		.uleb128 0x7
 10619 0104 04       		.byte	0x4
 10620 0105 09010000 		.4byte	0x109
 10621 0109 08       		.uleb128 0x8
 10622 010a 02       		.uleb128 0x2
 10623 010b 04       		.byte	0x4
 10624 010c 07       		.byte	0x7
 10625 010d B7000000 		.4byte	.LASF22
 10626 0111 09       		.uleb128 0x9
 10627 0112 04       		.byte	0x4
 10628 0113 07       		.uleb128 0x7
 10629 0114 04       		.byte	0x4
 10630 0115 ED000000 		.4byte	0xed
 10631 0119 0A       		.uleb128 0xa
 10632 011a 97000000 		.4byte	0x97
 10633 011e 29010000 		.4byte	0x129
 10634 0122 0B       		.uleb128 0xb
 10635 0123 0A010000 		.4byte	0x10a
 10636 0127 03       		.byte	0x3
 10637 0128 00       		.byte	0
 10638 0129 02       		.uleb128 0x2
 10639 012a 08       		.byte	0x8
 10640 012b 04       		.byte	0x4
 10641 012c 221D0000 		.4byte	.LASF23
 10642 0130 03       		.uleb128 0x3
 10643 0131 F21B0000 		.4byte	.LASF24
 10644 0135 05       		.byte	0x5
 10645 0136 29       		.byte	0x29
 10646 0137 11010000 		.4byte	0x111
 10647 013b 07       		.uleb128 0x7
 10648 013c 04       		.byte	0x4
 10649 013d E1000000 		.4byte	0xe1
 10650 0141 07       		.uleb128 0x7
 10651 0142 04       		.byte	0x4
 10652 0143 97000000 		.4byte	0x97
 10653 0147 0C       		.uleb128 0xc
 10654 0148 6D270000 		.4byte	.LASF33
 10655 014c 01       		.byte	0x1
 10656 014d 06       		.byte	0x6
ARM GAS  C:\Users\RECEPC~1\AppData\Local\Temp\ccMZb0bC.s 			page 235


 10657 014e 3F       		.byte	0x3f
 10658 014f 84010000 		.4byte	0x184
 10659 0153 0D       		.uleb128 0xd
 10660 0154 E9290000 		.4byte	.LASF25
 10661 0158 01       		.sleb128 1
 10662 0159 0D       		.uleb128 0xd
 10663 015a 4C1A0000 		.4byte	.LASF26
 10664 015e 02       		.sleb128 2
 10665 015f 0D       		.uleb128 0xd
 10666 0160 DE1B0000 		.4byte	.LASF27
 10667 0164 03       		.sleb128 3
 10668 0165 0D       		.uleb128 0xd
 10669 0166 75220000 		.4byte	.LASF28
 10670 016a 04       		.sleb128 4
 10671 016b 0D       		.uleb128 0xd
 10672 016c 62110000 		.4byte	.LASF29
 10673 0170 05       		.sleb128 5
 10674 0171 0D       		.uleb128 0xd
 10675 0172 9B250000 		.4byte	.LASF30
 10676 0176 06       		.sleb128 6
 10677 0177 0D       		.uleb128 0xd
 10678 0178 0E0E0000 		.4byte	.LASF31
 10679 017c 07       		.sleb128 7
 10680 017d 0D       		.uleb128 0xd
 10681 017e 65130000 		.4byte	.LASF32
 10682 0182 08       		.sleb128 8
 10683 0183 00       		.byte	0
 10684 0184 0C       		.uleb128 0xc
 10685 0185 CF290000 		.4byte	.LASF34
 10686 0189 01       		.byte	0x1
 10687 018a 06       		.byte	0x6
 10688 018b 4C       		.byte	0x4c
 10689 018c A3010000 		.4byte	0x1a3
 10690 0190 0D       		.uleb128 0xd
 10691 0191 DF290000 		.4byte	.LASF35
 10692 0195 01       		.sleb128 1
 10693 0196 0D       		.uleb128 0xd
 10694 0197 7A0D0000 		.4byte	.LASF36
 10695 019b 02       		.sleb128 2
 10696 019c 0D       		.uleb128 0xd
 10697 019d 73010000 		.4byte	.LASF37
 10698 01a1 03       		.sleb128 3
 10699 01a2 00       		.byte	0
 10700 01a3 0E       		.uleb128 0xe
 10701 01a4 58000000 		.4byte	.LASF96
 10702 01a8 9801     		.2byte	0x198
 10703 01aa 06       		.byte	0x6
 10704 01ab 53       		.byte	0x53
 10705 01ac 44020000 		.4byte	0x244
 10706 01b0 0F       		.uleb128 0xf
 10707 01b1 C8180000 		.4byte	.LASF38
 10708 01b5 06       		.byte	0x6
 10709 01b6 55       		.byte	0x55
 10710 01b7 44020000 		.4byte	0x244
 10711 01bb 00       		.byte	0
 10712 01bc 0F       		.uleb128 0xf
 10713 01bd D4220000 		.4byte	.LASF39
ARM GAS  C:\Users\RECEPC~1\AppData\Local\Temp\ccMZb0bC.s 			page 236


 10714 01c1 06       		.byte	0x6
 10715 01c2 56       		.byte	0x56
 10716 01c3 F4000000 		.4byte	0xf4
 10717 01c7 01       		.byte	0x1
 10718 01c8 0F       		.uleb128 0xf
 10719 01c9 73250000 		.4byte	.LASF40
 10720 01cd 06       		.byte	0x6
 10721 01ce 57       		.byte	0x57
 10722 01cf F4000000 		.4byte	0xf4
 10723 01d3 02       		.byte	0x2
 10724 01d4 0F       		.uleb128 0xf
 10725 01d5 F4260000 		.4byte	.LASF41
 10726 01d9 06       		.byte	0x6
 10727 01da 58       		.byte	0x58
 10728 01db F4000000 		.4byte	0xf4
 10729 01df 03       		.byte	0x3
 10730 01e0 0F       		.uleb128 0xf
 10731 01e1 1C0D0000 		.4byte	.LASF42
 10732 01e5 06       		.byte	0x6
 10733 01e6 5A       		.byte	0x5a
 10734 01e7 F9000000 		.4byte	0xf9
 10735 01eb 04       		.byte	0x4
 10736 01ec 0F       		.uleb128 0xf
 10737 01ed 0E100000 		.4byte	.LASF43
 10738 01f1 06       		.byte	0x6
 10739 01f2 5B       		.byte	0x5b
 10740 01f3 F9000000 		.4byte	0xf9
 10741 01f7 06       		.byte	0x6
 10742 01f8 0F       		.uleb128 0xf
 10743 01f9 77080000 		.4byte	.LASF44
 10744 01fd 06       		.byte	0x6
 10745 01fe 5C       		.byte	0x5c
 10746 01ff F9000000 		.4byte	0xf9
 10747 0203 08       		.byte	0x8
 10748 0204 0F       		.uleb128 0xf
 10749 0205 68240000 		.4byte	.LASF45
 10750 0209 06       		.byte	0x6
 10751 020a 5D       		.byte	0x5d
 10752 020b F9000000 		.4byte	0xf9
 10753 020f 0A       		.byte	0xa
 10754 0210 0F       		.uleb128 0xf
 10755 0211 7D070000 		.4byte	.LASF46
 10756 0215 06       		.byte	0x6
 10757 0216 5E       		.byte	0x5e
 10758 0217 50020000 		.4byte	0x250
 10759 021b 0C       		.byte	0xc
 10760 021c 10       		.uleb128 0x10
 10761 021d D32A0000 		.4byte	.LASF47
 10762 0221 06       		.byte	0x6
 10763 0222 5F       		.byte	0x5f
 10764 0223 F9000000 		.4byte	0xf9
 10765 0227 8C01     		.2byte	0x18c
 10766 0229 10       		.uleb128 0x10
 10767 022a E4140000 		.4byte	.LASF48
 10768 022e 06       		.byte	0x6
 10769 022f 62       		.byte	0x62
 10770 0230 11010000 		.4byte	0x111
ARM GAS  C:\Users\RECEPC~1\AppData\Local\Temp\ccMZb0bC.s 			page 237


 10771 0234 9001     		.2byte	0x190
 10772 0236 10       		.uleb128 0x10
 10773 0237 38150000 		.4byte	.LASF49
 10774 023b 06       		.byte	0x6
 10775 023c 63       		.byte	0x63
 10776 023d 6C020000 		.4byte	0x26c
 10777 0241 9401     		.2byte	0x194
 10778 0243 00       		.byte	0
 10779 0244 06       		.uleb128 0x6
 10780 0245 49020000 		.4byte	0x249
 10781 0249 02       		.uleb128 0x2
 10782 024a 01       		.byte	0x1
 10783 024b 02       		.byte	0x2
 10784 024c 3A0D0000 		.4byte	.LASF50
 10785 0250 0A       		.uleb128 0xa
 10786 0251 E1000000 		.4byte	0xe1
 10787 0255 61020000 		.4byte	0x261
 10788 0259 11       		.uleb128 0x11
 10789 025a 0A010000 		.4byte	0x10a
 10790 025e 7F01     		.2byte	0x17f
 10791 0260 00       		.byte	0
 10792 0261 12       		.uleb128 0x12
 10793 0262 6C020000 		.4byte	0x26c
 10794 0266 13       		.uleb128 0x13
 10795 0267 11010000 		.4byte	0x111
 10796 026b 00       		.byte	0
 10797 026c 07       		.uleb128 0x7
 10798 026d 04       		.byte	0x4
 10799 026e 61020000 		.4byte	0x261
 10800 0272 03       		.uleb128 0x3
 10801 0273 0D1A0000 		.4byte	.LASF51
 10802 0277 06       		.byte	0x6
 10803 0278 64       		.byte	0x64
 10804 0279 7D020000 		.4byte	0x27d
 10805 027d 07       		.uleb128 0x7
 10806 027e 04       		.byte	0x4
 10807 027f A3010000 		.4byte	0x1a3
 10808 0283 0C       		.uleb128 0xc
 10809 0284 CB070000 		.4byte	.LASF52
 10810 0288 01       		.byte	0x1
 10811 0289 07       		.byte	0x7
 10812 028a 0F       		.byte	0xf
 10813 028b 92030000 		.4byte	0x392
 10814 028f 0D       		.uleb128 0xd
 10815 0290 D91C0000 		.4byte	.LASF53
 10816 0294 01       		.sleb128 1
 10817 0295 0D       		.uleb128 0xd
 10818 0296 23210000 		.4byte	.LASF54
 10819 029a 02       		.sleb128 2
 10820 029b 0D       		.uleb128 0xd
 10821 029c 85020000 		.4byte	.LASF55
 10822 02a0 03       		.sleb128 3
 10823 02a1 0D       		.uleb128 0xd
 10824 02a2 A01F0000 		.4byte	.LASF56
 10825 02a6 04       		.sleb128 4
 10826 02a7 0D       		.uleb128 0xd
 10827 02a8 1F020000 		.4byte	.LASF57
ARM GAS  C:\Users\RECEPC~1\AppData\Local\Temp\ccMZb0bC.s 			page 238


 10828 02ac 05       		.sleb128 5
 10829 02ad 0D       		.uleb128 0xd
 10830 02ae FC040000 		.4byte	.LASF58
 10831 02b2 06       		.sleb128 6
 10832 02b3 0D       		.uleb128 0xd
 10833 02b4 3D170000 		.4byte	.LASF59
 10834 02b8 07       		.sleb128 7
 10835 02b9 0D       		.uleb128 0xd
 10836 02ba DE000000 		.4byte	.LASF60
 10837 02be 08       		.sleb128 8
 10838 02bf 0D       		.uleb128 0xd
 10839 02c0 41150000 		.4byte	.LASF61
 10840 02c4 09       		.sleb128 9
 10841 02c5 0D       		.uleb128 0xd
 10842 02c6 54080000 		.4byte	.LASF62
 10843 02ca 0A       		.sleb128 10
 10844 02cb 0D       		.uleb128 0xd
 10845 02cc 030A0000 		.4byte	.LASF63
 10846 02d0 0B       		.sleb128 11
 10847 02d1 0D       		.uleb128 0xd
 10848 02d2 87030000 		.4byte	.LASF64
 10849 02d6 0C       		.sleb128 12
 10850 02d7 0D       		.uleb128 0xd
 10851 02d8 05200000 		.4byte	.LASF65
 10852 02dc 0D       		.sleb128 13
 10853 02dd 0D       		.uleb128 0xd
 10854 02de 1E240000 		.4byte	.LASF66
 10855 02e2 0E       		.sleb128 14
 10856 02e3 0D       		.uleb128 0xd
 10857 02e4 F00C0000 		.4byte	.LASF67
 10858 02e8 0F       		.sleb128 15
 10859 02e9 0D       		.uleb128 0xd
 10860 02ea D2080000 		.4byte	.LASF68
 10861 02ee 10       		.sleb128 16
 10862 02ef 0D       		.uleb128 0xd
 10863 02f0 7C270000 		.4byte	.LASF69
 10864 02f4 11       		.sleb128 17
 10865 02f5 0D       		.uleb128 0xd
 10866 02f6 A2230000 		.4byte	.LASF70
 10867 02fa 12       		.sleb128 18
 10868 02fb 0D       		.uleb128 0xd
 10869 02fc E3040000 		.4byte	.LASF71
 10870 0300 13       		.sleb128 19
 10871 0301 0D       		.uleb128 0xd
 10872 0302 F91B0000 		.4byte	.LASF72
 10873 0306 14       		.sleb128 20
 10874 0307 0D       		.uleb128 0xd
 10875 0308 91080000 		.4byte	.LASF73
 10876 030c 15       		.sleb128 21
 10877 030d 0D       		.uleb128 0xd
 10878 030e 71160000 		.4byte	.LASF74
 10879 0312 16       		.sleb128 22
 10880 0313 0D       		.uleb128 0xd
 10881 0314 C90F0000 		.4byte	.LASF75
 10882 0318 17       		.sleb128 23
 10883 0319 0D       		.uleb128 0xd
 10884 031a C6050000 		.4byte	.LASF76
ARM GAS  C:\Users\RECEPC~1\AppData\Local\Temp\ccMZb0bC.s 			page 239


 10885 031e 18       		.sleb128 24
 10886 031f 0D       		.uleb128 0xd
 10887 0320 B7280000 		.4byte	.LASF77
 10888 0324 19       		.sleb128 25
 10889 0325 0D       		.uleb128 0xd
 10890 0326 DA210000 		.4byte	.LASF78
 10891 032a 1A       		.sleb128 26
 10892 032b 0D       		.uleb128 0xd
 10893 032c 280A0000 		.4byte	.LASF79
 10894 0330 1B       		.sleb128 27
 10895 0331 0D       		.uleb128 0xd
 10896 0332 0D120000 		.4byte	.LASF80
 10897 0336 1C       		.sleb128 28
 10898 0337 0D       		.uleb128 0xd
 10899 0338 B92A0000 		.4byte	.LASF81
 10900 033c 1D       		.sleb128 29
 10901 033d 0D       		.uleb128 0xd
 10902 033e 53270000 		.4byte	.LASF82
 10903 0342 1E       		.sleb128 30
 10904 0343 0D       		.uleb128 0xd
 10905 0344 DF230000 		.4byte	.LASF83
 10906 0348 1F       		.sleb128 31
 10907 0349 0D       		.uleb128 0xd
 10908 034a 65030000 		.4byte	.LASF84
 10909 034e 20       		.sleb128 32
 10910 034f 0D       		.uleb128 0xd
 10911 0350 F00B0000 		.4byte	.LASF85
 10912 0354 21       		.sleb128 33
 10913 0355 0D       		.uleb128 0xd
 10914 0356 67070000 		.4byte	.LASF86
 10915 035a 22       		.sleb128 34
 10916 035b 0D       		.uleb128 0xd
 10917 035c 0C230000 		.4byte	.LASF87
 10918 0360 23       		.sleb128 35
 10919 0361 0D       		.uleb128 0xd
 10920 0362 1F0E0000 		.4byte	.LASF88
 10921 0366 24       		.sleb128 36
 10922 0367 0D       		.uleb128 0xd
 10923 0368 DE090000 		.4byte	.LASF89
 10924 036c 25       		.sleb128 37
 10925 036d 0D       		.uleb128 0xd
 10926 036e 29270000 		.4byte	.LASF90
 10927 0372 26       		.sleb128 38
 10928 0373 0D       		.uleb128 0xd
 10929 0374 67020000 		.4byte	.LASF91
 10930 0378 27       		.sleb128 39
 10931 0379 0D       		.uleb128 0xd
 10932 037a 022A0000 		.4byte	.LASF92
 10933 037e 28       		.sleb128 40
 10934 037f 0D       		.uleb128 0xd
 10935 0380 B81B0000 		.4byte	.LASF93
 10936 0384 29       		.sleb128 41
 10937 0385 0D       		.uleb128 0xd
 10938 0386 C6040000 		.4byte	.LASF94
 10939 038a 2A       		.sleb128 42
 10940 038b 0D       		.uleb128 0xd
 10941 038c 3F160000 		.4byte	.LASF95
ARM GAS  C:\Users\RECEPC~1\AppData\Local\Temp\ccMZb0bC.s 			page 240


 10942 0390 2B       		.sleb128 43
 10943 0391 00       		.byte	0
 10944 0392 14       		.uleb128 0x14
 10945 0393 561A0000 		.4byte	.LASF97
 10946 0397 4C       		.byte	0x4c
 10947 0398 08       		.byte	0x8
 10948 0399 2C       		.byte	0x2c
 10949 039a 83040000 		.4byte	0x483
 10950 039e 0F       		.uleb128 0xf
 10951 039f 32200000 		.4byte	.LASF98
 10952 03a3 08       		.byte	0x8
 10953 03a4 2E       		.byte	0x2e
 10954 03a5 97000000 		.4byte	0x97
 10955 03a9 00       		.byte	0
 10956 03aa 0F       		.uleb128 0xf
 10957 03ab BD100000 		.4byte	.LASF99
 10958 03af 08       		.byte	0x8
 10959 03b0 31       		.byte	0x31
 10960 03b1 6C020000 		.4byte	0x26c
 10961 03b5 04       		.byte	0x4
 10962 03b6 0F       		.uleb128 0xf
 10963 03b7 921D0000 		.4byte	.LASF100
 10964 03bb 08       		.byte	0x8
 10965 03bc 34       		.byte	0x34
 10966 03bd 03010000 		.4byte	0x103
 10967 03c1 08       		.byte	0x8
 10968 03c2 0F       		.uleb128 0xf
 10969 03c3 A2030000 		.4byte	.LASF101
 10970 03c7 08       		.byte	0x8
 10971 03c8 35       		.byte	0x35
 10972 03c9 03010000 		.4byte	0x103
 10973 03cd 0C       		.byte	0xc
 10974 03ce 0F       		.uleb128 0xf
 10975 03cf B51F0000 		.4byte	.LASF102
 10976 03d3 08       		.byte	0x8
 10977 03d4 36       		.byte	0x36
 10978 03d5 88040000 		.4byte	0x488
 10979 03d9 10       		.byte	0x10
 10980 03da 0F       		.uleb128 0xf
 10981 03db A31B0000 		.4byte	.LASF103
 10982 03df 08       		.byte	0x8
 10983 03e0 37       		.byte	0x37
 10984 03e1 99040000 		.4byte	0x499
 10985 03e5 14       		.byte	0x14
 10986 03e6 0F       		.uleb128 0xf
 10987 03e7 40240000 		.4byte	.LASF104
 10988 03eb 08       		.byte	0x8
 10989 03ec 39       		.byte	0x39
 10990 03ed 88040000 		.4byte	0x488
 10991 03f1 18       		.byte	0x18
 10992 03f2 0F       		.uleb128 0xf
 10993 03f3 A00E0000 		.4byte	.LASF105
 10994 03f7 08       		.byte	0x8
 10995 03f8 3A       		.byte	0x3a
 10996 03f9 88040000 		.4byte	0x488
 10997 03fd 1C       		.byte	0x1c
 10998 03fe 0F       		.uleb128 0xf
ARM GAS  C:\Users\RECEPC~1\AppData\Local\Temp\ccMZb0bC.s 			page 241


 10999 03ff 450B0000 		.4byte	.LASF106
 11000 0403 08       		.byte	0x8
 11001 0404 3B       		.byte	0x3b
 11002 0405 88040000 		.4byte	0x488
 11003 0409 20       		.byte	0x20
 11004 040a 0F       		.uleb128 0xf
 11005 040b EB200000 		.4byte	.LASF107
 11006 040f 08       		.byte	0x8
 11007 0410 3C       		.byte	0x3c
 11008 0411 A4040000 		.4byte	0x4a4
 11009 0415 24       		.byte	0x24
 11010 0416 0F       		.uleb128 0xf
 11011 0417 201C0000 		.4byte	.LASF108
 11012 041b 08       		.byte	0x8
 11013 041c 3D       		.byte	0x3d
 11014 041d A4040000 		.4byte	0x4a4
 11015 0421 28       		.byte	0x28
 11016 0422 0F       		.uleb128 0xf
 11017 0423 370B0000 		.4byte	.LASF109
 11018 0427 08       		.byte	0x8
 11019 0428 3E       		.byte	0x3e
 11020 0429 03010000 		.4byte	0x103
 11021 042d 2C       		.byte	0x2c
 11022 042e 0F       		.uleb128 0xf
 11023 042f 6E0D0000 		.4byte	.LASF110
 11024 0433 08       		.byte	0x8
 11025 0434 40       		.byte	0x40
 11026 0435 99040000 		.4byte	0x499
 11027 0439 30       		.byte	0x30
 11028 043a 0F       		.uleb128 0xf
 11029 043b B4190000 		.4byte	.LASF111
 11030 043f 08       		.byte	0x8
 11031 0440 41       		.byte	0x41
 11032 0441 88040000 		.4byte	0x488
 11033 0445 34       		.byte	0x34
 11034 0446 0F       		.uleb128 0xf
 11035 0447 04230000 		.4byte	.LASF112
 11036 044b 08       		.byte	0x8
 11037 044c 42       		.byte	0x42
 11038 044d 99040000 		.4byte	0x499
 11039 0451 38       		.byte	0x38
 11040 0452 0F       		.uleb128 0xf
 11041 0453 7E100000 		.4byte	.LASF113
 11042 0457 08       		.byte	0x8
 11043 0458 43       		.byte	0x43
 11044 0459 C0040000 		.4byte	0x4c0
 11045 045d 3C       		.byte	0x3c
 11046 045e 0F       		.uleb128 0xf
 11047 045f 301F0000 		.4byte	.LASF114
 11048 0463 08       		.byte	0x8
 11049 0464 44       		.byte	0x44
 11050 0465 E1040000 		.4byte	0x4e1
 11051 0469 40       		.byte	0x40
 11052 046a 0F       		.uleb128 0xf
 11053 046b 1E0F0000 		.4byte	.LASF115
 11054 046f 08       		.byte	0x8
 11055 0470 45       		.byte	0x45
ARM GAS  C:\Users\RECEPC~1\AppData\Local\Temp\ccMZb0bC.s 			page 242


 11056 0471 99040000 		.4byte	0x499
 11057 0475 44       		.byte	0x44
 11058 0476 0F       		.uleb128 0xf
 11059 0477 8F170000 		.4byte	.LASF116
 11060 047b 08       		.byte	0x8
 11061 047c 46       		.byte	0x46
 11062 047d 03010000 		.4byte	0x103
 11063 0481 48       		.byte	0x48
 11064 0482 00       		.byte	0
 11065 0483 15       		.uleb128 0x15
 11066 0484 97000000 		.4byte	0x97
 11067 0488 07       		.uleb128 0x7
 11068 0489 04       		.byte	0x4
 11069 048a 83040000 		.4byte	0x483
 11070 048e 12       		.uleb128 0x12
 11071 048f 99040000 		.4byte	0x499
 11072 0493 13       		.uleb128 0x13
 11073 0494 97000000 		.4byte	0x97
 11074 0498 00       		.byte	0
 11075 0499 07       		.uleb128 0x7
 11076 049a 04       		.byte	0x4
 11077 049b 8E040000 		.4byte	0x48e
 11078 049f 15       		.uleb128 0x15
 11079 04a0 A3000000 		.4byte	0xa3
 11080 04a4 07       		.uleb128 0x7
 11081 04a5 04       		.byte	0x4
 11082 04a6 9F040000 		.4byte	0x49f
 11083 04aa 12       		.uleb128 0x12
 11084 04ab B5040000 		.4byte	0x4b5
 11085 04af 13       		.uleb128 0x13
 11086 04b0 B5040000 		.4byte	0x4b5
 11087 04b4 00       		.byte	0
 11088 04b5 07       		.uleb128 0x7
 11089 04b6 04       		.byte	0x4
 11090 04b7 BB040000 		.4byte	0x4bb
 11091 04bb 16       		.uleb128 0x16
 11092 04bc E1000000 		.4byte	0xe1
 11093 04c0 07       		.uleb128 0x7
 11094 04c1 04       		.byte	0x4
 11095 04c2 AA040000 		.4byte	0x4aa
 11096 04c6 12       		.uleb128 0x12
 11097 04c7 D6040000 		.4byte	0x4d6
 11098 04cb 13       		.uleb128 0x13
 11099 04cc D6040000 		.4byte	0x4d6
 11100 04d0 13       		.uleb128 0x13
 11101 04d1 97000000 		.4byte	0x97
 11102 04d5 00       		.byte	0
 11103 04d6 07       		.uleb128 0x7
 11104 04d7 04       		.byte	0x4
 11105 04d8 DC040000 		.4byte	0x4dc
 11106 04dc 16       		.uleb128 0x16
 11107 04dd 97000000 		.4byte	0x97
 11108 04e1 07       		.uleb128 0x7
 11109 04e2 04       		.byte	0x4
 11110 04e3 C6040000 		.4byte	0x4c6
 11111 04e7 03       		.uleb128 0x3
 11112 04e8 A7030000 		.4byte	.LASF117
ARM GAS  C:\Users\RECEPC~1\AppData\Local\Temp\ccMZb0bC.s 			page 243


 11113 04ec 08       		.byte	0x8
 11114 04ed 48       		.byte	0x48
 11115 04ee 92030000 		.4byte	0x392
 11116 04f2 0C       		.uleb128 0xc
 11117 04f3 B2060000 		.4byte	.LASF118
 11118 04f7 01       		.byte	0x1
 11119 04f8 08       		.byte	0x8
 11120 04f9 51       		.byte	0x51
 11121 04fa 14050000 		.4byte	0x514
 11122 04fe 0D       		.uleb128 0xd
 11123 04ff C00C0000 		.4byte	.LASF119
 11124 0503 C001     		.sleb128 192
 11125 0505 0D       		.uleb128 0xd
 11126 0506 F4220000 		.4byte	.LASF120
 11127 050a C101     		.sleb128 193
 11128 050c 0D       		.uleb128 0xd
 11129 050d E80B0000 		.4byte	.LASF121
 11130 0511 C201     		.sleb128 194
 11131 0513 00       		.byte	0
 11132 0514 0E       		.uleb128 0xe
 11133 0515 981D0000 		.4byte	.LASF122
 11134 0519 0C01     		.2byte	0x10c
 11135 051b 08       		.byte	0x8
 11136 051c 59       		.byte	0x59
 11137 051d 60050000 		.4byte	0x560
 11138 0521 0F       		.uleb128 0xf
 11139 0522 F4260000 		.4byte	.LASF41
 11140 0526 08       		.byte	0x8
 11141 0527 5B       		.byte	0x5b
 11142 0528 F4000000 		.4byte	0xf4
 11143 052c 00       		.byte	0
 11144 052d 0F       		.uleb128 0xf
 11145 052e FB000000 		.4byte	.LASF123
 11146 0532 08       		.byte	0x8
 11147 0533 5C       		.byte	0x5c
 11148 0534 F9000000 		.4byte	0xf9
 11149 0538 02       		.byte	0x2
 11150 0539 0F       		.uleb128 0xf
 11151 053a 75040000 		.4byte	.LASF124
 11152 053e 08       		.byte	0x8
 11153 053f 5D       		.byte	0x5d
 11154 0540 60050000 		.4byte	0x560
 11155 0544 04       		.byte	0x4
 11156 0545 10       		.uleb128 0x10
 11157 0546 8E280000 		.4byte	.LASF125
 11158 054a 08       		.byte	0x8
 11159 054b 5E       		.byte	0x5e
 11160 054c 80050000 		.4byte	0x580
 11161 0550 0401     		.2byte	0x104
 11162 0552 10       		.uleb128 0x10
 11163 0553 832A0000 		.4byte	.LASF126
 11164 0557 08       		.byte	0x8
 11165 0558 60       		.byte	0x60
 11166 0559 86050000 		.4byte	0x586
 11167 055d 0801     		.2byte	0x108
 11168 055f 00       		.byte	0
 11169 0560 0A       		.uleb128 0xa
ARM GAS  C:\Users\RECEPC~1\AppData\Local\Temp\ccMZb0bC.s 			page 244


 11170 0561 E1000000 		.4byte	0xe1
 11171 0565 70050000 		.4byte	0x570
 11172 0569 0B       		.uleb128 0xb
 11173 056a 0A010000 		.4byte	0x10a
 11174 056e FF       		.byte	0xff
 11175 056f 00       		.byte	0
 11176 0570 12       		.uleb128 0x12
 11177 0571 80050000 		.4byte	0x580
 11178 0575 13       		.uleb128 0x13
 11179 0576 97000000 		.4byte	0x97
 11180 057a 13       		.uleb128 0x13
 11181 057b 3B010000 		.4byte	0x13b
 11182 057f 00       		.byte	0
 11183 0580 07       		.uleb128 0x7
 11184 0581 04       		.byte	0x4
 11185 0582 70050000 		.4byte	0x570
 11186 0586 07       		.uleb128 0x7
 11187 0587 04       		.byte	0x4
 11188 0588 E7040000 		.4byte	0x4e7
 11189 058c 03       		.uleb128 0x3
 11190 058d FE1D0000 		.4byte	.LASF127
 11191 0591 08       		.byte	0x8
 11192 0592 61       		.byte	0x61
 11193 0593 97050000 		.4byte	0x597
 11194 0597 07       		.uleb128 0x7
 11195 0598 04       		.byte	0x4
 11196 0599 14050000 		.4byte	0x514
 11197 059d 0C       		.uleb128 0xc
 11198 059e 7D240000 		.4byte	.LASF128
 11199 05a2 01       		.byte	0x1
 11200 05a3 08       		.byte	0x8
 11201 05a4 6D       		.byte	0x6d
 11202 05a5 D4050000 		.4byte	0x5d4
 11203 05a9 0D       		.uleb128 0xd
 11204 05aa 32020000 		.4byte	.LASF129
 11205 05ae A001     		.sleb128 160
 11206 05b0 0D       		.uleb128 0xd
 11207 05b1 5A0E0000 		.4byte	.LASF130
 11208 05b5 A101     		.sleb128 161
 11209 05b7 0D       		.uleb128 0xd
 11210 05b8 AE150000 		.4byte	.LASF131
 11211 05bc A201     		.sleb128 162
 11212 05be 0D       		.uleb128 0xd
 11213 05bf 4A090000 		.4byte	.LASF132
 11214 05c3 A301     		.sleb128 163
 11215 05c5 0D       		.uleb128 0xd
 11216 05c6 58090000 		.4byte	.LASF133
 11217 05ca A401     		.sleb128 164
 11218 05cc 0D       		.uleb128 0xd
 11219 05cd EF1A0000 		.4byte	.LASF134
 11220 05d1 A501     		.sleb128 165
 11221 05d3 00       		.byte	0
 11222 05d4 0C       		.uleb128 0xc
 11223 05d5 3F080000 		.4byte	.LASF135
 11224 05d9 01       		.byte	0x1
 11225 05da 09       		.byte	0x9
 11226 05db 21       		.byte	0x21
ARM GAS  C:\Users\RECEPC~1\AppData\Local\Temp\ccMZb0bC.s 			page 245


 11227 05dc 47070000 		.4byte	0x747
 11228 05e0 0D       		.uleb128 0xd
 11229 05e1 32110000 		.4byte	.LASF136
 11230 05e5 01       		.sleb128 1
 11231 05e6 0D       		.uleb128 0xd
 11232 05e7 42110000 		.4byte	.LASF137
 11233 05eb 02       		.sleb128 2
 11234 05ec 0D       		.uleb128 0xd
 11235 05ed 52110000 		.4byte	.LASF138
 11236 05f1 03       		.sleb128 3
 11237 05f2 0D       		.uleb128 0xd
 11238 05f3 E71E0000 		.4byte	.LASF139
 11239 05f7 04       		.sleb128 4
 11240 05f8 0D       		.uleb128 0xd
 11241 05f9 63100000 		.4byte	.LASF140
 11242 05fd 05       		.sleb128 5
 11243 05fe 0D       		.uleb128 0xd
 11244 05ff 380C0000 		.4byte	.LASF141
 11245 0603 06       		.sleb128 6
 11246 0604 0D       		.uleb128 0xd
 11247 0605 25070000 		.4byte	.LASF142
 11248 0609 0F       		.sleb128 15
 11249 060a 0D       		.uleb128 0xd
 11250 060b 44180000 		.4byte	.LASF143
 11251 060f FE00     		.sleb128 126
 11252 0611 0D       		.uleb128 0xd
 11253 0612 61180000 		.4byte	.LASF144
 11254 0616 8601     		.sleb128 134
 11255 0618 0D       		.uleb128 0xd
 11256 0619 44010000 		.4byte	.LASF145
 11257 061d 07       		.sleb128 7
 11258 061e 0D       		.uleb128 0xd
 11259 061f 98210000 		.4byte	.LASF146
 11260 0623 08       		.sleb128 8
 11261 0624 0D       		.uleb128 0xd
 11262 0625 9B0F0000 		.4byte	.LASF147
 11263 0629 09       		.sleb128 9
 11264 062a 0D       		.uleb128 0xd
 11265 062b 371A0000 		.4byte	.LASF148
 11266 062f 0A       		.sleb128 10
 11267 0630 0D       		.uleb128 0xd
 11268 0631 F3160000 		.4byte	.LASF149
 11269 0635 0B       		.sleb128 11
 11270 0636 0D       		.uleb128 0xd
 11271 0637 86160000 		.4byte	.LASF150
 11272 063b 25       		.sleb128 37
 11273 063c 0D       		.uleb128 0xd
 11274 063d CD170000 		.4byte	.LASF151
 11275 0641 26       		.sleb128 38
 11276 0642 0D       		.uleb128 0xd
 11277 0643 92180000 		.4byte	.LASF152
 11278 0647 27       		.sleb128 39
 11279 0648 0D       		.uleb128 0xd
 11280 0649 4F1E0000 		.4byte	.LASF153
 11281 064d 2F       		.sleb128 47
 11282 064e 0D       		.uleb128 0xd
 11283 064f 160B0000 		.4byte	.LASF154
ARM GAS  C:\Users\RECEPC~1\AppData\Local\Temp\ccMZb0bC.s 			page 246


 11284 0653 2C       		.sleb128 44
 11285 0654 0D       		.uleb128 0xd
 11286 0655 11170000 		.4byte	.LASF155
 11287 0659 0C       		.sleb128 12
 11288 065a 0D       		.uleb128 0xd
 11289 065b 030B0000 		.4byte	.LASF156
 11290 065f 8501     		.sleb128 133
 11291 0661 0D       		.uleb128 0xd
 11292 0662 F4190000 		.4byte	.LASF157
 11293 0666 1C       		.sleb128 28
 11294 0667 0D       		.uleb128 0xd
 11295 0668 8E1E0000 		.4byte	.LASF158
 11296 066c 12       		.sleb128 18
 11297 066d 0D       		.uleb128 0xd
 11298 066e BD150000 		.4byte	.LASF159
 11299 0672 13       		.sleb128 19
 11300 0673 0D       		.uleb128 0xd
 11301 0674 3E250000 		.4byte	.LASF160
 11302 0678 24       		.sleb128 36
 11303 0679 0D       		.uleb128 0xd
 11304 067a 5A220000 		.4byte	.LASF161
 11305 067e 0D       		.sleb128 13
 11306 067f 0D       		.uleb128 0xd
 11307 0680 94090000 		.4byte	.LASF162
 11308 0684 0E       		.sleb128 14
 11309 0685 0D       		.uleb128 0xd
 11310 0686 C31D0000 		.4byte	.LASF163
 11311 068a 8301     		.sleb128 131
 11312 068c 0D       		.uleb128 0xd
 11313 068d 5D040000 		.4byte	.LASF164
 11314 0691 DA00     		.sleb128 90
 11315 0693 0D       		.uleb128 0xd
 11316 0694 E7020000 		.4byte	.LASF165
 11317 0698 31       		.sleb128 49
 11318 0699 0D       		.uleb128 0xd
 11319 069a 75140000 		.4byte	.LASF166
 11320 069e 35       		.sleb128 53
 11321 069f 0D       		.uleb128 0xd
 11322 06a0 CC0B0000 		.4byte	.LASF167
 11323 06a4 2E       		.sleb128 46
 11324 06a5 0D       		.uleb128 0xd
 11325 06a6 A71D0000 		.4byte	.LASF168
 11326 06aa 8C01     		.sleb128 140
 11327 06ac 0D       		.uleb128 0xd
 11328 06ad 810C0000 		.4byte	.LASF169
 11329 06b1 9601     		.sleb128 150
 11330 06b3 0D       		.uleb128 0xd
 11331 06b4 3D0A0000 		.4byte	.LASF170
 11332 06b8 39       		.sleb128 57
 11333 06b9 0D       		.uleb128 0xd
 11334 06ba D5160000 		.4byte	.LASF171
 11335 06be 9701     		.sleb128 151
 11336 06c0 0D       		.uleb128 0xd
 11337 06c1 082B0000 		.4byte	.LASF172
 11338 06c5 9801     		.sleb128 152
 11339 06c7 0D       		.uleb128 0xd
 11340 06c8 9D1C0000 		.4byte	.LASF173
ARM GAS  C:\Users\RECEPC~1\AppData\Local\Temp\ccMZb0bC.s 			page 247


 11341 06cc 3E       		.sleb128 62
 11342 06cd 0D       		.uleb128 0xd
 11343 06ce CD210000 		.4byte	.LASF174
 11344 06d2 3F       		.sleb128 63
 11345 06d3 0D       		.uleb128 0xd
 11346 06d4 950A0000 		.4byte	.LASF175
 11347 06d8 C000     		.sleb128 64
 11348 06da 0D       		.uleb128 0xd
 11349 06db 91260000 		.4byte	.LASF176
 11350 06df 8D01     		.sleb128 141
 11351 06e1 0D       		.uleb128 0xd
 11352 06e2 15040000 		.4byte	.LASF177
 11353 06e6 23       		.sleb128 35
 11354 06e7 0D       		.uleb128 0xd
 11355 06e8 AC0B0000 		.4byte	.LASF178
 11356 06ec 2A       		.sleb128 42
 11357 06ed 0D       		.uleb128 0xd
 11358 06ee 83220000 		.4byte	.LASF179
 11359 06f2 2B       		.sleb128 43
 11360 06f3 0D       		.uleb128 0xd
 11361 06f4 950B0000 		.4byte	.LASF180
 11362 06f8 3C       		.sleb128 60
 11363 06f9 0D       		.uleb128 0xd
 11364 06fa B6110000 		.4byte	.LASF181
 11365 06fe C100     		.sleb128 65
 11366 0700 0D       		.uleb128 0xd
 11367 0701 E90D0000 		.4byte	.LASF182
 11368 0705 EB00     		.sleb128 107
 11369 0707 0D       		.uleb128 0xd
 11370 0708 50160000 		.4byte	.LASF183
 11371 070c E700     		.sleb128 103
 11372 070e 0D       		.uleb128 0xd
 11373 070f 48070000 		.4byte	.LASF184
 11374 0713 E400     		.sleb128 100
 11375 0715 0D       		.uleb128 0xd
 11376 0716 51230000 		.4byte	.LASF185
 11377 071a E500     		.sleb128 101
 11378 071c 0D       		.uleb128 0xd
 11379 071d 17140000 		.4byte	.LASF186
 11380 0721 9901     		.sleb128 153
 11381 0723 0D       		.uleb128 0xd
 11382 0724 26140000 		.4byte	.LASF187
 11383 0728 9A01     		.sleb128 154
 11384 072a 0D       		.uleb128 0xd
 11385 072b 35140000 		.4byte	.LASF188
 11386 072f 9B01     		.sleb128 155
 11387 0731 0D       		.uleb128 0xd
 11388 0732 44140000 		.4byte	.LASF189
 11389 0736 9C01     		.sleb128 156
 11390 0738 0D       		.uleb128 0xd
 11391 0739 821C0000 		.4byte	.LASF190
 11392 073d FA01     		.sleb128 250
 11393 073f 0D       		.uleb128 0xd
 11394 0740 7E230000 		.4byte	.LASF191
 11395 0744 FF01     		.sleb128 255
 11396 0746 00       		.byte	0
 11397 0747 17       		.uleb128 0x17
ARM GAS  C:\Users\RECEPC~1\AppData\Local\Temp\ccMZb0bC.s 			page 248


 11398 0748 01       		.byte	0x1
 11399 0749 09       		.byte	0x9
 11400 074a 82       		.byte	0x82
 11401 074b 5C070000 		.4byte	0x75c
 11402 074f 0D       		.uleb128 0xd
 11403 0750 46000000 		.4byte	.LASF192
 11404 0754 00       		.sleb128 0
 11405 0755 0D       		.uleb128 0xd
 11406 0756 4F000000 		.4byte	.LASF193
 11407 075a 01       		.sleb128 1
 11408 075b 00       		.byte	0
 11409 075c 07       		.uleb128 0x7
 11410 075d 04       		.byte	0x4
 11411 075e 62070000 		.4byte	0x762
 11412 0762 18       		.uleb128 0x18
 11413 0763 49020000 		.4byte	0x249
 11414 0767 71070000 		.4byte	0x771
 11415 076b 13       		.uleb128 0x13
 11416 076c 11010000 		.4byte	0x111
 11417 0770 00       		.byte	0
 11418 0771 03       		.uleb128 0x3
 11419 0772 AD0E0000 		.4byte	.LASF194
 11420 0776 0A       		.byte	0xa
 11421 0777 21       		.byte	0x21
 11422 0778 13010000 		.4byte	0x113
 11423 077c 03       		.uleb128 0x3
 11424 077d 3F270000 		.4byte	.LASF195
 11425 0781 0A       		.byte	0xa
 11426 0782 22       		.byte	0x22
 11427 0783 41010000 		.4byte	0x141
 11428 0787 0C       		.uleb128 0xc
 11429 0788 021D0000 		.4byte	.LASF196
 11430 078c 01       		.byte	0x1
 11431 078d 0A       		.byte	0xa
 11432 078e 64       		.byte	0x64
 11433 078f A0070000 		.4byte	0x7a0
 11434 0793 0D       		.uleb128 0xd
 11435 0794 00150000 		.4byte	.LASF197
 11436 0798 00       		.sleb128 0
 11437 0799 0D       		.uleb128 0xd
 11438 079a 97200000 		.4byte	.LASF198
 11439 079e 01       		.sleb128 1
 11440 079f 00       		.byte	0
 11441 07a0 0C       		.uleb128 0xc
 11442 07a1 F6030000 		.4byte	.LASF199
 11443 07a5 01       		.byte	0x1
 11444 07a6 0A       		.byte	0xa
 11445 07a7 7C       		.byte	0x7c
 11446 07a8 E8070000 		.4byte	0x7e8
 11447 07ac 0D       		.uleb128 0xd
 11448 07ad 371D0000 		.4byte	.LASF200
 11449 07b1 00       		.sleb128 0
 11450 07b2 0D       		.uleb128 0xd
 11451 07b3 1D010000 		.4byte	.LASF201
 11452 07b7 10       		.sleb128 16
 11453 07b8 0D       		.uleb128 0xd
 11454 07b9 95270000 		.4byte	.LASF202
ARM GAS  C:\Users\RECEPC~1\AppData\Local\Temp\ccMZb0bC.s 			page 249


 11455 07bd 20       		.sleb128 32
 11456 07be 0D       		.uleb128 0xd
 11457 07bf 38230000 		.4byte	.LASF203
 11458 07c3 30       		.sleb128 48
 11459 07c4 0D       		.uleb128 0xd
 11460 07c5 1C260000 		.4byte	.LASF204
 11461 07c9 C000     		.sleb128 64
 11462 07cb 0D       		.uleb128 0xd
 11463 07cc 780F0000 		.4byte	.LASF205
 11464 07d0 D000     		.sleb128 80
 11465 07d2 0D       		.uleb128 0xd
 11466 07d3 73060000 		.4byte	.LASF206
 11467 07d7 E000     		.sleb128 96
 11468 07d9 0D       		.uleb128 0xd
 11469 07da 42030000 		.4byte	.LASF207
 11470 07de F000     		.sleb128 112
 11471 07e0 0D       		.uleb128 0xd
 11472 07e1 7E180000 		.4byte	.LASF208
 11473 07e5 FC01     		.sleb128 252
 11474 07e7 00       		.byte	0
 11475 07e8 0C       		.uleb128 0xc
 11476 07e9 7A200000 		.4byte	.LASF209
 11477 07ed 01       		.byte	0x1
 11478 07ee 0A       		.byte	0xa
 11479 07ef 8B       		.byte	0x8b
 11480 07f0 42080000 		.4byte	0x842
 11481 07f4 19       		.uleb128 0x19
 11482 07f5 534F4D00 		.ascii	"SOM\000"
 11483 07f9 FF01     		.sleb128 255
 11484 07fb 19       		.uleb128 0x19
 11485 07fc 56505400 		.ascii	"VPT\000"
 11486 0800 F101     		.sleb128 241
 11487 0802 19       		.uleb128 0x19
 11488 0803 4D505400 		.ascii	"MPT\000"
 11489 0807 F201     		.sleb128 242
 11490 0809 19       		.uleb128 0x19
 11491 080a 48446E00 		.ascii	"HDn\000"
 11492 080e F601     		.sleb128 246
 11493 0810 0D       		.uleb128 0xd
 11494 0811 51260000 		.4byte	.LASF210
 11495 0815 F701     		.sleb128 247
 11496 0817 0D       		.uleb128 0xd
 11497 0818 300E0000 		.4byte	.LASF211
 11498 081c F801     		.sleb128 248
 11499 081e 19       		.uleb128 0x19
 11500 081f 56446E00 		.ascii	"VDn\000"
 11501 0823 F901     		.sleb128 249
 11502 0825 19       		.uleb128 0x19
 11503 0826 4D446E00 		.ascii	"MDn\000"
 11504 082a FA01     		.sleb128 250
 11505 082c 0D       		.uleb128 0xd
 11506 082d 170C0000 		.4byte	.LASF212
 11507 0831 FB01     		.sleb128 251
 11508 0833 19       		.uleb128 0x19
 11509 0834 53466E00 		.ascii	"SFn\000"
 11510 0838 FE01     		.sleb128 254
 11511 083a 19       		.uleb128 0x19
ARM GAS  C:\Users\RECEPC~1\AppData\Local\Temp\ccMZb0bC.s 			page 250


 11512 083b 454F4D00 		.ascii	"EOM\000"
 11513 083f F001     		.sleb128 240
 11514 0841 00       		.byte	0
 11515 0842 0C       		.uleb128 0xc
 11516 0843 F1280000 		.4byte	.LASF213
 11517 0847 01       		.byte	0x1
 11518 0848 0A       		.byte	0xa
 11519 0849 9A       		.byte	0x9a
 11520 084a 8C080000 		.4byte	0x88c
 11521 084e 0D       		.uleb128 0xd
 11522 084f 881D0000 		.4byte	.LASF214
 11523 0853 00       		.sleb128 0
 11524 0854 0D       		.uleb128 0xd
 11525 0855 CF250000 		.4byte	.LASF215
 11526 0859 06       		.sleb128 6
 11527 085a 0D       		.uleb128 0xd
 11528 085b D11B0000 		.4byte	.LASF216
 11529 085f 07       		.sleb128 7
 11530 0860 0D       		.uleb128 0xd
 11531 0861 75020000 		.4byte	.LASF217
 11532 0865 08       		.sleb128 8
 11533 0866 0D       		.uleb128 0xd
 11534 0867 910F0000 		.4byte	.LASF218
 11535 086b 09       		.sleb128 9
 11536 086c 0D       		.uleb128 0xd
 11537 086d 961F0000 		.4byte	.LASF219
 11538 0871 0A       		.sleb128 10
 11539 0872 0D       		.uleb128 0xd
 11540 0873 D71D0000 		.4byte	.LASF220
 11541 0877 0B       		.sleb128 11
 11542 0878 0D       		.uleb128 0xd
 11543 0879 C2290000 		.4byte	.LASF221
 11544 087d 0C       		.sleb128 12
 11545 087e 0D       		.uleb128 0xd
 11546 087f AC210000 		.4byte	.LASF222
 11547 0883 0D       		.sleb128 13
 11548 0884 0D       		.uleb128 0xd
 11549 0885 35030000 		.4byte	.LASF223
 11550 0889 FF01     		.sleb128 255
 11551 088b 00       		.byte	0
 11552 088c 0C       		.uleb128 0xc
 11553 088d FA0F0000 		.4byte	.LASF224
 11554 0891 01       		.byte	0x1
 11555 0892 0A       		.byte	0xa
 11556 0893 EF       		.byte	0xef
 11557 0894 00090000 		.4byte	0x900
 11558 0898 0D       		.uleb128 0xd
 11559 0899 DF220000 		.4byte	.LASF225
 11560 089d 0F       		.sleb128 15
 11561 089e 0D       		.uleb128 0xd
 11562 089f 4A1D0000 		.4byte	.LASF226
 11563 08a3 10       		.sleb128 16
 11564 08a4 0D       		.uleb128 0xd
 11565 08a5 18270000 		.4byte	.LASF227
 11566 08a9 C300     		.sleb128 67
 11567 08ab 0D       		.uleb128 0xd
 11568 08ac D4050000 		.4byte	.LASF228
ARM GAS  C:\Users\RECEPC~1\AppData\Local\Temp\ccMZb0bC.s 			page 251


 11569 08b0 C400     		.sleb128 68
 11570 08b2 0D       		.uleb128 0xd
 11571 08b3 1E1F0000 		.4byte	.LASF229
 11572 08b7 C500     		.sleb128 69
 11573 08b9 0D       		.uleb128 0xd
 11574 08ba 29220000 		.4byte	.LASF230
 11575 08be C600     		.sleb128 70
 11576 08c0 0D       		.uleb128 0xd
 11577 08c1 F1070000 		.4byte	.LASF231
 11578 08c5 C700     		.sleb128 71
 11579 08c7 0D       		.uleb128 0xd
 11580 08c8 B6130000 		.4byte	.LASF232
 11581 08cc C800     		.sleb128 72
 11582 08ce 0D       		.uleb128 0xd
 11583 08cf 48270000 		.4byte	.LASF233
 11584 08d3 C900     		.sleb128 73
 11585 08d5 0D       		.uleb128 0xd
 11586 08d6 24060000 		.4byte	.LASF234
 11587 08da CA00     		.sleb128 74
 11588 08dc 0D       		.uleb128 0xd
 11589 08dd 66090000 		.4byte	.LASF235
 11590 08e1 CB00     		.sleb128 75
 11591 08e3 0D       		.uleb128 0xd
 11592 08e4 DB1E0000 		.4byte	.LASF236
 11593 08e8 CC00     		.sleb128 76
 11594 08ea 0D       		.uleb128 0xd
 11595 08eb 78260000 		.4byte	.LASF237
 11596 08ef CD00     		.sleb128 77
 11597 08f1 0D       		.uleb128 0xd
 11598 08f2 88100000 		.4byte	.LASF238
 11599 08f6 CE00     		.sleb128 78
 11600 08f8 0D       		.uleb128 0xd
 11601 08f9 03140000 		.4byte	.LASF239
 11602 08fd CF00     		.sleb128 79
 11603 08ff 00       		.byte	0
 11604 0900 1A       		.uleb128 0x1a
 11605 0901 DD0E0000 		.4byte	.LASF240
 11606 0905 01       		.byte	0x1
 11607 0906 0A       		.byte	0xa
 11608 0907 0201     		.2byte	0x102
 11609 0909 20090000 		.4byte	0x920
 11610 090d 0D       		.uleb128 0xd
 11611 090e 06280000 		.4byte	.LASF241
 11612 0912 01       		.sleb128 1
 11613 0913 0D       		.uleb128 0xd
 11614 0914 F7090000 		.4byte	.LASF242
 11615 0918 02       		.sleb128 2
 11616 0919 0D       		.uleb128 0xd
 11617 091a 53140000 		.4byte	.LASF243
 11618 091e 03       		.sleb128 3
 11619 091f 00       		.byte	0
 11620 0920 1A       		.uleb128 0x1a
 11621 0921 E2030000 		.4byte	.LASF244
 11622 0925 01       		.byte	0x1
 11623 0926 0A       		.byte	0xa
 11624 0927 0F01     		.2byte	0x10f
 11625 0929 3A090000 		.4byte	0x93a
ARM GAS  C:\Users\RECEPC~1\AppData\Local\Temp\ccMZb0bC.s 			page 252


 11626 092d 0D       		.uleb128 0xd
 11627 092e 0B190000 		.4byte	.LASF245
 11628 0932 01       		.sleb128 1
 11629 0933 0D       		.uleb128 0xd
 11630 0934 7C210000 		.4byte	.LASF246
 11631 0938 02       		.sleb128 2
 11632 0939 00       		.byte	0
 11633 093a 1B       		.uleb128 0x1b
 11634 093b 0401     		.2byte	0x104
 11635 093d 0A       		.byte	0xa
 11636 093e 1C01     		.2byte	0x11c
 11637 0940 7A090000 		.4byte	0x97a
 11638 0944 1C       		.uleb128 0x1c
 11639 0945 E0020000 		.4byte	.LASF247
 11640 0949 0A       		.byte	0xa
 11641 094a 1E01     		.2byte	0x11e
 11642 094c 97000000 		.4byte	0x97
 11643 0950 00       		.byte	0
 11644 0951 1C       		.uleb128 0x1c
 11645 0952 7D1D0000 		.4byte	.LASF248
 11646 0956 0A       		.byte	0xa
 11647 0957 1F01     		.2byte	0x11f
 11648 0959 97000000 		.4byte	0x97
 11649 095d 01       		.byte	0x1
 11650 095e 1C       		.uleb128 0x1c
 11651 095f 7D070000 		.4byte	.LASF46
 11652 0963 0A       		.byte	0xa
 11653 0964 2001     		.2byte	0x120
 11654 0966 7A090000 		.4byte	0x97a
 11655 096a 02       		.byte	0x2
 11656 096b 1D       		.uleb128 0x1d
 11657 096c D32A0000 		.4byte	.LASF47
 11658 0970 0A       		.byte	0xa
 11659 0971 2101     		.2byte	0x121
 11660 0973 A3000000 		.4byte	0xa3
 11661 0977 0201     		.2byte	0x102
 11662 0979 00       		.byte	0
 11663 097a 0A       		.uleb128 0xa
 11664 097b ED000000 		.4byte	0xed
 11665 097f 8A090000 		.4byte	0x98a
 11666 0983 0B       		.uleb128 0xb
 11667 0984 0A010000 		.4byte	0x10a
 11668 0988 FF       		.byte	0xff
 11669 0989 00       		.byte	0
 11670 098a 05       		.uleb128 0x5
 11671 098b 8A290000 		.4byte	.LASF249
 11672 098f 0A       		.byte	0xa
 11673 0990 2301     		.2byte	0x123
 11674 0992 3A090000 		.4byte	0x93a
 11675 0996 05       		.uleb128 0x5
 11676 0997 96110000 		.4byte	.LASF250
 11677 099b 0A       		.byte	0xa
 11678 099c 2301     		.2byte	0x123
 11679 099e A2090000 		.4byte	0x9a2
 11680 09a2 07       		.uleb128 0x7
 11681 09a3 04       		.byte	0x4
 11682 09a4 3A090000 		.4byte	0x93a
ARM GAS  C:\Users\RECEPC~1\AppData\Local\Temp\ccMZb0bC.s 			page 253


 11683 09a8 1E       		.uleb128 0x1e
 11684 09a9 40       		.byte	0x40
 11685 09aa 0A       		.byte	0xa
 11686 09ab 2501     		.2byte	0x125
 11687 09ad 4E0A0000 		.4byte	0xa4e
 11688 09b1 1C       		.uleb128 0x1c
 11689 09b2 BB210000 		.4byte	.LASF251
 11690 09b6 0A       		.byte	0xa
 11691 09b7 2701     		.2byte	0x127
 11692 09b9 F4000000 		.4byte	0xf4
 11693 09bd 00       		.byte	0
 11694 09be 1C       		.uleb128 0x1c
 11695 09bf C1210000 		.4byte	.LASF252
 11696 09c3 0A       		.byte	0xa
 11697 09c4 2801     		.2byte	0x128
 11698 09c6 F4000000 		.4byte	0xf4
 11699 09ca 01       		.byte	0x1
 11700 09cb 1C       		.uleb128 0x1c
 11701 09cc C7210000 		.4byte	.LASF253
 11702 09d0 0A       		.byte	0xa
 11703 09d1 2A01     		.2byte	0x12a
 11704 09d3 F9000000 		.4byte	0xf9
 11705 09d7 02       		.byte	0x2
 11706 09d8 1C       		.uleb128 0x1c
 11707 09d9 E51F0000 		.4byte	.LASF254
 11708 09dd 0A       		.byte	0xa
 11709 09de 2B01     		.2byte	0x12b
 11710 09e0 F9000000 		.4byte	0xf9
 11711 09e4 04       		.byte	0x4
 11712 09e5 1C       		.uleb128 0x1c
 11713 09e6 EB1F0000 		.4byte	.LASF255
 11714 09ea 0A       		.byte	0xa
 11715 09eb 2D01     		.2byte	0x12d
 11716 09ed FE000000 		.4byte	0xfe
 11717 09f1 08       		.byte	0x8
 11718 09f2 1C       		.uleb128 0x1c
 11719 09f3 EF210000 		.4byte	.LASF256
 11720 09f7 0A       		.byte	0xa
 11721 09f8 2E01     		.2byte	0x12e
 11722 09fa FE000000 		.4byte	0xfe
 11723 09fe 0C       		.byte	0xc
 11724 09ff 1C       		.uleb128 0x1c
 11725 0a00 F5210000 		.4byte	.LASF257
 11726 0a04 0A       		.byte	0xa
 11727 0a05 3301     		.2byte	0x133
 11728 0a07 4E0A0000 		.4byte	0xa4e
 11729 0a0b 10       		.byte	0x10
 11730 0a0c 1C       		.uleb128 0x1c
 11731 0a0d FB210000 		.4byte	.LASF258
 11732 0a11 0A       		.byte	0xa
 11733 0a12 3401     		.2byte	0x134
 11734 0a14 4E0A0000 		.4byte	0xa4e
 11735 0a18 18       		.byte	0x18
 11736 0a19 1C       		.uleb128 0x1c
 11737 0a1a 01220000 		.4byte	.LASF259
 11738 0a1e 0A       		.byte	0xa
 11739 0a1f 3501     		.2byte	0x135
ARM GAS  C:\Users\RECEPC~1\AppData\Local\Temp\ccMZb0bC.s 			page 254


 11740 0a21 4E0A0000 		.4byte	0xa4e
 11741 0a25 20       		.byte	0x20
 11742 0a26 1C       		.uleb128 0x1c
 11743 0a27 07220000 		.4byte	.LASF260
 11744 0a2b 0A       		.byte	0xa
 11745 0a2c 3601     		.2byte	0x136
 11746 0a2e 4E0A0000 		.4byte	0xa4e
 11747 0a32 28       		.byte	0x28
 11748 0a33 1C       		.uleb128 0x1c
 11749 0a34 3E220000 		.4byte	.LASF261
 11750 0a38 0A       		.byte	0xa
 11751 0a39 3801     		.2byte	0x138
 11752 0a3b 530A0000 		.4byte	0xa53
 11753 0a3f 30       		.byte	0x30
 11754 0a40 1C       		.uleb128 0x1c
 11755 0a41 44220000 		.4byte	.LASF262
 11756 0a45 0A       		.byte	0xa
 11757 0a46 3901     		.2byte	0x139
 11758 0a48 530A0000 		.4byte	0xa53
 11759 0a4c 38       		.byte	0x38
 11760 0a4d 00       		.byte	0
 11761 0a4e 06       		.uleb128 0x6
 11762 0a4f D5000000 		.4byte	0xd5
 11763 0a53 06       		.uleb128 0x6
 11764 0a54 CE000000 		.4byte	0xce
 11765 0a58 05       		.uleb128 0x5
 11766 0a59 70190000 		.4byte	.LASF263
 11767 0a5d 0A       		.byte	0xa
 11768 0a5e 3B01     		.2byte	0x13b
 11769 0a60 A8090000 		.4byte	0x9a8
 11770 0a64 1E       		.uleb128 0x1e
 11771 0a65 18       		.byte	0x18
 11772 0a66 0A       		.byte	0xa
 11773 0a67 4301     		.2byte	0x143
 11774 0a69 C90A0000 		.4byte	0xac9
 11775 0a6d 1C       		.uleb128 0x1c
 11776 0a6e 161D0000 		.4byte	.LASF264
 11777 0a72 0A       		.byte	0xa
 11778 0a73 4601     		.2byte	0x146
 11779 0a75 44020000 		.4byte	0x244
 11780 0a79 00       		.byte	0
 11781 0a7a 1C       		.uleb128 0x1c
 11782 0a7b 81050000 		.4byte	.LASF265
 11783 0a7f 0A       		.byte	0xa
 11784 0a80 4701     		.2byte	0x147
 11785 0a82 F4000000 		.4byte	0xf4
 11786 0a86 01       		.byte	0x1
 11787 0a87 1C       		.uleb128 0x1c
 11788 0a88 B9260000 		.4byte	.LASF266
 11789 0a8c 0A       		.byte	0xa
 11790 0a8d 4801     		.2byte	0x148
 11791 0a8f F4000000 		.4byte	0xf4
 11792 0a93 02       		.byte	0x2
 11793 0a94 1C       		.uleb128 0x1c
 11794 0a95 A0190000 		.4byte	.LASF267
 11795 0a99 0A       		.byte	0xa
 11796 0a9a 4901     		.2byte	0x149
ARM GAS  C:\Users\RECEPC~1\AppData\Local\Temp\ccMZb0bC.s 			page 255


 11797 0a9c F9000000 		.4byte	0xf9
 11798 0aa0 04       		.byte	0x4
 11799 0aa1 1C       		.uleb128 0x1c
 11800 0aa2 24200000 		.4byte	.LASF268
 11801 0aa6 0A       		.byte	0xa
 11802 0aa7 4A01     		.2byte	0x14a
 11803 0aa9 FE000000 		.4byte	0xfe
 11804 0aad 08       		.byte	0x8
 11805 0aae 1C       		.uleb128 0x1c
 11806 0aaf 500D0000 		.4byte	.LASF269
 11807 0ab3 0A       		.byte	0xa
 11808 0ab4 4B01     		.2byte	0x14b
 11809 0ab6 FE000000 		.4byte	0xfe
 11810 0aba 0C       		.byte	0xc
 11811 0abb 1C       		.uleb128 0x1c
 11812 0abc 790C0000 		.4byte	.LASF270
 11813 0ac0 0A       		.byte	0xa
 11814 0ac1 4C01     		.2byte	0x14c
 11815 0ac3 C90A0000 		.4byte	0xac9
 11816 0ac7 10       		.byte	0x10
 11817 0ac8 00       		.byte	0
 11818 0ac9 0A       		.uleb128 0xa
 11819 0aca E1000000 		.4byte	0xe1
 11820 0ace D90A0000 		.4byte	0xad9
 11821 0ad2 0B       		.uleb128 0xb
 11822 0ad3 0A010000 		.4byte	0x10a
 11823 0ad7 07       		.byte	0x7
 11824 0ad8 00       		.byte	0
 11825 0ad9 05       		.uleb128 0x5
 11826 0ada 68120000 		.4byte	.LASF271
 11827 0ade 0A       		.byte	0xa
 11828 0adf 4E01     		.2byte	0x14e
 11829 0ae1 640A0000 		.4byte	0xa64
 11830 0ae5 1F       		.uleb128 0x1f
 11831 0ae6 10160000 		.4byte	.LASF272
 11832 0aea C80B     		.2byte	0xbc8
 11833 0aec 0A       		.byte	0xa
 11834 0aed 5101     		.2byte	0x151
 11835 0aef CA0C0000 		.4byte	0xcca
 11836 0af3 1C       		.uleb128 0x1c
 11837 0af4 08110000 		.4byte	.LASF273
 11838 0af8 0A       		.byte	0xa
 11839 0af9 5301     		.2byte	0x153
 11840 0afb 97000000 		.4byte	0x97
 11841 0aff 00       		.byte	0
 11842 0b00 1C       		.uleb128 0x1c
 11843 0b01 9A220000 		.4byte	.LASF274
 11844 0b05 0A       		.byte	0xa
 11845 0b06 5401     		.2byte	0x154
 11846 0b08 97000000 		.4byte	0x97
 11847 0b0c 01       		.byte	0x1
 11848 0b0d 1C       		.uleb128 0x1c
 11849 0b0e 34080000 		.4byte	.LASF275
 11850 0b12 0A       		.byte	0xa
 11851 0b13 5601     		.2byte	0x156
 11852 0b15 F4000000 		.4byte	0xf4
 11853 0b19 02       		.byte	0x2
ARM GAS  C:\Users\RECEPC~1\AppData\Local\Temp\ccMZb0bC.s 			page 256


 11854 0b1a 1C       		.uleb128 0x1c
 11855 0b1b 5C200000 		.4byte	.LASF276
 11856 0b1f 0A       		.byte	0xa
 11857 0b20 5701     		.2byte	0x157
 11858 0b22 F4000000 		.4byte	0xf4
 11859 0b26 03       		.byte	0x3
 11860 0b27 1C       		.uleb128 0x1c
 11861 0b28 1E1E0000 		.4byte	.LASF277
 11862 0b2c 0A       		.byte	0xa
 11863 0b2d 5801     		.2byte	0x158
 11864 0b2f F4000000 		.4byte	0xf4
 11865 0b33 04       		.byte	0x4
 11866 0b34 1C       		.uleb128 0x1c
 11867 0b35 88210000 		.4byte	.LASF278
 11868 0b39 0A       		.byte	0xa
 11869 0b3a 5901     		.2byte	0x159
 11870 0b3c 44020000 		.4byte	0x244
 11871 0b40 05       		.byte	0x5
 11872 0b41 1C       		.uleb128 0x1c
 11873 0b42 161D0000 		.4byte	.LASF264
 11874 0b46 0A       		.byte	0xa
 11875 0b47 5C01     		.2byte	0x15c
 11876 0b49 44020000 		.4byte	0x244
 11877 0b4d 06       		.byte	0x6
 11878 0b4e 1C       		.uleb128 0x1c
 11879 0b4f 1D150000 		.4byte	.LASF279
 11880 0b53 0A       		.byte	0xa
 11881 0b54 5D01     		.2byte	0x15d
 11882 0b56 44020000 		.4byte	0x244
 11883 0b5a 07       		.byte	0x7
 11884 0b5b 1C       		.uleb128 0x1c
 11885 0b5c B4200000 		.4byte	.LASF280
 11886 0b60 0A       		.byte	0xa
 11887 0b61 5E01     		.2byte	0x15e
 11888 0b63 44020000 		.4byte	0x244
 11889 0b67 08       		.byte	0x8
 11890 0b68 1C       		.uleb128 0x1c
 11891 0b69 C8220000 		.4byte	.LASF281
 11892 0b6d 0A       		.byte	0xa
 11893 0b6e 5F01     		.2byte	0x15f
 11894 0b70 44020000 		.4byte	0x244
 11895 0b74 09       		.byte	0x9
 11896 0b75 1C       		.uleb128 0x1c
 11897 0b76 23080000 		.4byte	.LASF282
 11898 0b7a 0A       		.byte	0xa
 11899 0b7b 6001     		.2byte	0x160
 11900 0b7d F4000000 		.4byte	0xf4
 11901 0b81 0A       		.byte	0xa
 11902 0b82 1C       		.uleb128 0x1c
 11903 0b83 C60E0000 		.4byte	.LASF283
 11904 0b87 0A       		.byte	0xa
 11905 0b88 6101     		.2byte	0x161
 11906 0b8a 44020000 		.4byte	0x244
 11907 0b8e 0B       		.byte	0xb
 11908 0b8f 1C       		.uleb128 0x1c
 11909 0b90 22000000 		.4byte	.LASF284
 11910 0b94 0A       		.byte	0xa
ARM GAS  C:\Users\RECEPC~1\AppData\Local\Temp\ccMZb0bC.s 			page 257


 11911 0b95 6201     		.2byte	0x162
 11912 0b97 F4000000 		.4byte	0xf4
 11913 0b9b 0C       		.byte	0xc
 11914 0b9c 1C       		.uleb128 0x1c
 11915 0b9d FF270000 		.4byte	.LASF285
 11916 0ba1 0A       		.byte	0xa
 11917 0ba2 6401     		.2byte	0x164
 11918 0ba4 44020000 		.4byte	0x244
 11919 0ba8 0D       		.byte	0xd
 11920 0ba9 1C       		.uleb128 0x1c
 11921 0baa AC180000 		.4byte	.LASF286
 11922 0bae 0A       		.byte	0xa
 11923 0baf 6601     		.2byte	0x166
 11924 0bb1 FE000000 		.4byte	0xfe
 11925 0bb5 10       		.byte	0x10
 11926 0bb6 1C       		.uleb128 0x1c
 11927 0bb7 F6120000 		.4byte	.LASF287
 11928 0bbb 0A       		.byte	0xa
 11929 0bbc 6701     		.2byte	0x167
 11930 0bbe FE000000 		.4byte	0xfe
 11931 0bc2 14       		.byte	0x14
 11932 0bc3 1C       		.uleb128 0x1c
 11933 0bc4 301C0000 		.4byte	.LASF288
 11934 0bc8 0A       		.byte	0xa
 11935 0bc9 6A01     		.2byte	0x16a
 11936 0bcb F4000000 		.4byte	0xf4
 11937 0bcf 18       		.byte	0x18
 11938 0bd0 1C       		.uleb128 0x1c
 11939 0bd1 7D1D0000 		.4byte	.LASF248
 11940 0bd5 0A       		.byte	0xa
 11941 0bd6 6B01     		.2byte	0x16b
 11942 0bd8 F4000000 		.4byte	0xf4
 11943 0bdc 19       		.byte	0x19
 11944 0bdd 1C       		.uleb128 0x1c
 11945 0bde 391F0000 		.4byte	.LASF289
 11946 0be2 0A       		.byte	0xa
 11947 0be3 6D01     		.2byte	0x16d
 11948 0be5 11010000 		.4byte	0x111
 11949 0be9 1C       		.byte	0x1c
 11950 0bea 1C       		.uleb128 0x1c
 11951 0beb 27120000 		.4byte	.LASF290
 11952 0bef 0A       		.byte	0xa
 11953 0bf0 6E01     		.2byte	0x16e
 11954 0bf2 50020000 		.4byte	0x250
 11955 0bf6 20       		.byte	0x20
 11956 0bf7 1D       		.uleb128 0x1d
 11957 0bf8 77110000 		.4byte	.LASF291
 11958 0bfc 0A       		.byte	0xa
 11959 0bfd 7001     		.2byte	0x170
 11960 0bff 50020000 		.4byte	0x250
 11961 0c03 A001     		.2byte	0x1a0
 11962 0c05 1D       		.uleb128 0x1d
 11963 0c06 59020000 		.4byte	.LASF292
 11964 0c0a 0A       		.byte	0xa
 11965 0c0b 7101     		.2byte	0x171
 11966 0c0d A3000000 		.4byte	0xa3
 11967 0c11 2003     		.2byte	0x320
ARM GAS  C:\Users\RECEPC~1\AppData\Local\Temp\ccMZb0bC.s 			page 258


 11968 0c13 1D       		.uleb128 0x1d
 11969 0c14 10050000 		.4byte	.LASF293
 11970 0c18 0A       		.byte	0xa
 11971 0c19 7501     		.2byte	0x175
 11972 0c1b CA0C0000 		.4byte	0xcca
 11973 0c1f 2203     		.2byte	0x322
 11974 0c21 1D       		.uleb128 0x1d
 11975 0c22 450F0000 		.4byte	.LASF294
 11976 0c26 0A       		.byte	0xa
 11977 0c27 7701     		.2byte	0x177
 11978 0c29 44020000 		.4byte	0x244
 11979 0c2d 420B     		.2byte	0xb42
 11980 0c2f 1D       		.uleb128 0x1d
 11981 0c30 6B230000 		.4byte	.LASF295
 11982 0c34 0A       		.byte	0xa
 11983 0c35 7901     		.2byte	0x179
 11984 0c37 6C020000 		.4byte	0x26c
 11985 0c3b 440B     		.2byte	0xb44
 11986 0c3d 1D       		.uleb128 0x1d
 11987 0c3e 6E2A0000 		.4byte	.LASF296
 11988 0c42 0A       		.byte	0xa
 11989 0c43 7A01     		.2byte	0x17a
 11990 0c45 6C020000 		.4byte	0x26c
 11991 0c49 480B     		.2byte	0xb48
 11992 0c4b 1D       		.uleb128 0x1d
 11993 0c4c 7B280000 		.4byte	.LASF297
 11994 0c50 0A       		.byte	0xa
 11995 0c51 7B01     		.2byte	0x17b
 11996 0c53 EE0C0000 		.4byte	0xcee
 11997 0c57 4C0B     		.2byte	0xb4c
 11998 0c59 1D       		.uleb128 0x1d
 11999 0c5a F2230000 		.4byte	.LASF298
 12000 0c5e 0A       		.byte	0xa
 12001 0c5f 7C01     		.2byte	0x17c
 12002 0c61 040D0000 		.4byte	0xd04
 12003 0c65 500B     		.2byte	0xb50
 12004 0c67 1D       		.uleb128 0x1d
 12005 0c68 5A060000 		.4byte	.LASF299
 12006 0c6c 0A       		.byte	0xa
 12007 0c6d 7D01     		.2byte	0x17d
 12008 0c6f 040D0000 		.4byte	0xd04
 12009 0c73 540B     		.2byte	0xb54
 12010 0c75 1D       		.uleb128 0x1d
 12011 0c76 8B230000 		.4byte	.LASF300
 12012 0c7a 0A       		.byte	0xa
 12013 0c7b 7E01     		.2byte	0x17e
 12014 0c7d 190D0000 		.4byte	0xd19
 12015 0c81 580B     		.2byte	0xb58
 12016 0c83 1D       		.uleb128 0x1d
 12017 0c84 8E0D0000 		.4byte	.LASF301
 12018 0c88 0A       		.byte	0xa
 12019 0c89 7F01     		.2byte	0x17f
 12020 0c8b 190D0000 		.4byte	0xd19
 12021 0c8f 5C0B     		.2byte	0xb5c
 12022 0c91 1D       		.uleb128 0x1d
 12023 0c92 56260000 		.4byte	.LASF302
 12024 0c96 0A       		.byte	0xa
ARM GAS  C:\Users\RECEPC~1\AppData\Local\Temp\ccMZb0bC.s 			page 259


 12025 0c97 8101     		.2byte	0x181
 12026 0c99 5C070000 		.4byte	0x75c
 12027 0c9d 600B     		.2byte	0xb60
 12028 0c9f 1D       		.uleb128 0x1d
 12029 0ca0 A1290000 		.4byte	.LASF303
 12030 0ca4 0A       		.byte	0xa
 12031 0ca5 8301     		.2byte	0x183
 12032 0ca7 580A0000 		.4byte	0xa58
 12033 0cab 680B     		.2byte	0xb68
 12034 0cad 1D       		.uleb128 0x1d
 12035 0cae 65260000 		.4byte	.LASF304
 12036 0cb2 0A       		.byte	0xa
 12037 0cb3 8401     		.2byte	0x184
 12038 0cb5 D90A0000 		.4byte	0xad9
 12039 0cb9 A80B     		.2byte	0xba8
 12040 0cbb 1D       		.uleb128 0x1d
 12041 0cbc 861E0000 		.4byte	.LASF305
 12042 0cc0 0A       		.byte	0xa
 12043 0cc1 8601     		.2byte	0x186
 12044 0cc3 6C020000 		.4byte	0x26c
 12045 0cc7 C00B     		.2byte	0xbc0
 12046 0cc9 00       		.byte	0
 12047 0cca 0A       		.uleb128 0xa
 12048 0ccb 8A090000 		.4byte	0x98a
 12049 0ccf DA0C0000 		.4byte	0xcda
 12050 0cd3 0B       		.uleb128 0xb
 12051 0cd4 0A010000 		.4byte	0x10a
 12052 0cd8 07       		.byte	0x7
 12053 0cd9 00       		.byte	0
 12054 0cda 18       		.uleb128 0x18
 12055 0cdb 49020000 		.4byte	0x249
 12056 0cdf EE0C0000 		.4byte	0xcee
 12057 0ce3 13       		.uleb128 0x13
 12058 0ce4 11010000 		.4byte	0x111
 12059 0ce8 13       		.uleb128 0x13
 12060 0ce9 97000000 		.4byte	0x97
 12061 0ced 00       		.byte	0
 12062 0cee 07       		.uleb128 0x7
 12063 0cef 04       		.byte	0x4
 12064 0cf0 DA0C0000 		.4byte	0xcda
 12065 0cf4 12       		.uleb128 0x12
 12066 0cf5 040D0000 		.4byte	0xd04
 12067 0cf9 13       		.uleb128 0x13
 12068 0cfa 11010000 		.4byte	0x111
 12069 0cfe 13       		.uleb128 0x13
 12070 0cff 96090000 		.4byte	0x996
 12071 0d03 00       		.byte	0
 12072 0d04 07       		.uleb128 0x7
 12073 0d05 04       		.byte	0x4
 12074 0d06 F40C0000 		.4byte	0xcf4
 12075 0d0a 18       		.uleb128 0x18
 12076 0d0b 96090000 		.4byte	0x996
 12077 0d0f 190D0000 		.4byte	0xd19
 12078 0d13 13       		.uleb128 0x13
 12079 0d14 11010000 		.4byte	0x111
 12080 0d18 00       		.byte	0
 12081 0d19 07       		.uleb128 0x7
ARM GAS  C:\Users\RECEPC~1\AppData\Local\Temp\ccMZb0bC.s 			page 260


 12082 0d1a 04       		.byte	0x4
 12083 0d1b 0A0D0000 		.4byte	0xd0a
 12084 0d1f 05       		.uleb128 0x5
 12085 0d20 D61E0000 		.4byte	.LASF306
 12086 0d24 0A       		.byte	0xa
 12087 0d25 8801     		.2byte	0x188
 12088 0d27 E50A0000 		.4byte	0xae5
 12089 0d2b 05       		.uleb128 0x5
 12090 0d2c F01D0000 		.4byte	.LASF307
 12091 0d30 0A       		.byte	0xa
 12092 0d31 8801     		.2byte	0x188
 12093 0d33 370D0000 		.4byte	0xd37
 12094 0d37 07       		.uleb128 0x7
 12095 0d38 04       		.byte	0x4
 12096 0d39 E50A0000 		.4byte	0xae5
 12097 0d3d 20       		.uleb128 0x20
 12098 0d3e EB1C0000 		.4byte	.LASF308
 12099 0d42 34       		.byte	0x34
 12100 0d43 0A       		.byte	0xa
 12101 0d44 8D01     		.2byte	0x18d
 12102 0d46 010E0000 		.4byte	0xe01
 12103 0d4a 1C       		.uleb128 0x1c
 12104 0d4b A5220000 		.4byte	.LASF309
 12105 0d4f 0A       		.byte	0xa
 12106 0d50 8F01     		.2byte	0x18f
 12107 0d52 6C020000 		.4byte	0x26c
 12108 0d56 00       		.byte	0
 12109 0d57 1C       		.uleb128 0x1c
 12110 0d58 630B0000 		.4byte	.LASF310
 12111 0d5c 0A       		.byte	0xa
 12112 0d5d 9001     		.2byte	0x190
 12113 0d5f 6C020000 		.4byte	0x26c
 12114 0d63 04       		.byte	0x4
 12115 0d64 1C       		.uleb128 0x1c
 12116 0d65 761E0000 		.4byte	.LASF311
 12117 0d69 0A       		.byte	0xa
 12118 0d6a 9101     		.2byte	0x191
 12119 0d6c 6C020000 		.4byte	0x26c
 12120 0d70 08       		.byte	0x8
 12121 0d71 1C       		.uleb128 0x1c
 12122 0d72 89000000 		.4byte	.LASF312
 12123 0d76 0A       		.byte	0xa
 12124 0d77 9201     		.2byte	0x192
 12125 0d79 1A0E0000 		.4byte	0xe1a
 12126 0d7d 0C       		.byte	0xc
 12127 0d7e 1C       		.uleb128 0x1c
 12128 0d7f C7270000 		.4byte	.LASF313
 12129 0d83 0A       		.byte	0xa
 12130 0d84 9301     		.2byte	0x193
 12131 0d86 A3000000 		.4byte	0xa3
 12132 0d8a 10       		.byte	0x10
 12133 0d8b 1C       		.uleb128 0x1c
 12134 0d8c F11F0000 		.4byte	.LASF314
 12135 0d90 0A       		.byte	0xa
 12136 0d91 9401     		.2byte	0x194
 12137 0d93 AF000000 		.4byte	0xaf
 12138 0d97 14       		.byte	0x14
ARM GAS  C:\Users\RECEPC~1\AppData\Local\Temp\ccMZb0bC.s 			page 261


 12139 0d98 1C       		.uleb128 0x1c
 12140 0d99 81110000 		.4byte	.LASF315
 12141 0d9d 0A       		.byte	0xa
 12142 0d9e 9501     		.2byte	0x195
 12143 0da0 97000000 		.4byte	0x97
 12144 0da4 18       		.byte	0x18
 12145 0da5 1C       		.uleb128 0x1c
 12146 0da6 02270000 		.4byte	.LASF316
 12147 0daa 0A       		.byte	0xa
 12148 0dab 9701     		.2byte	0x197
 12149 0dad 49020000 		.4byte	0x249
 12150 0db1 19       		.byte	0x19
 12151 0db2 1C       		.uleb128 0x1c
 12152 0db3 440E0000 		.4byte	.LASF317
 12153 0db7 0A       		.byte	0xa
 12154 0db8 9B01     		.2byte	0x19b
 12155 0dba 200E0000 		.4byte	0xe20
 12156 0dbe 1A       		.byte	0x1a
 12157 0dbf 1C       		.uleb128 0x1c
 12158 0dc0 E11D0000 		.4byte	.LASF318
 12159 0dc4 0A       		.byte	0xa
 12160 0dc5 9D01     		.2byte	0x19d
 12161 0dc7 19010000 		.4byte	0x119
 12162 0dcb 1E       		.byte	0x1e
 12163 0dcc 1C       		.uleb128 0x1c
 12164 0dcd DD190000 		.4byte	.LASF319
 12165 0dd1 0A       		.byte	0xa
 12166 0dd2 A101     		.2byte	0x1a1
 12167 0dd4 200E0000 		.4byte	0xe20
 12168 0dd8 22       		.byte	0x22
 12169 0dd9 1C       		.uleb128 0x1c
 12170 0dda 80040000 		.4byte	.LASF320
 12171 0dde 0A       		.byte	0xa
 12172 0ddf A301     		.2byte	0x1a3
 12173 0de1 19010000 		.4byte	0x119
 12174 0de5 26       		.byte	0x26
 12175 0de6 1C       		.uleb128 0x1c
 12176 0de7 5E050000 		.4byte	.LASF321
 12177 0deb 0A       		.byte	0xa
 12178 0dec A501     		.2byte	0x1a5
 12179 0dee 6C020000 		.4byte	0x26c
 12180 0df2 2C       		.byte	0x2c
 12181 0df3 1C       		.uleb128 0x1c
 12182 0df4 2B150000 		.4byte	.LASF322
 12183 0df8 0A       		.byte	0xa
 12184 0df9 A601     		.2byte	0x1a6
 12185 0dfb 6C020000 		.4byte	0x26c
 12186 0dff 30       		.byte	0x30
 12187 0e00 00       		.byte	0
 12188 0e01 18       		.uleb128 0x18
 12189 0e02 49020000 		.4byte	0x249
 12190 0e06 1A0E0000 		.4byte	0xe1a
 12191 0e0a 13       		.uleb128 0x13
 12192 0e0b 11010000 		.4byte	0x111
 12193 0e0f 13       		.uleb128 0x13
 12194 0e10 11010000 		.4byte	0x111
 12195 0e14 13       		.uleb128 0x13
ARM GAS  C:\Users\RECEPC~1\AppData\Local\Temp\ccMZb0bC.s 			page 262


 12196 0e15 A3000000 		.4byte	0xa3
 12197 0e19 00       		.byte	0
 12198 0e1a 07       		.uleb128 0x7
 12199 0e1b 04       		.byte	0x4
 12200 0e1c 010E0000 		.4byte	0xe01
 12201 0e20 0A       		.uleb128 0xa
 12202 0e21 49020000 		.4byte	0x249
 12203 0e25 300E0000 		.4byte	0xe30
 12204 0e29 0B       		.uleb128 0xb
 12205 0e2a 0A010000 		.4byte	0x10a
 12206 0e2e 03       		.byte	0x3
 12207 0e2f 00       		.byte	0
 12208 0e30 05       		.uleb128 0x5
 12209 0e31 C30A0000 		.4byte	.LASF323
 12210 0e35 0A       		.byte	0xa
 12211 0e36 A701     		.2byte	0x1a7
 12212 0e38 3D0D0000 		.4byte	0xd3d
 12213 0e3c 1F       		.uleb128 0x1f
 12214 0e3d 0A010000 		.4byte	.LASF324
 12215 0e41 AC03     		.2byte	0x3ac
 12216 0e43 0A       		.byte	0xa
 12217 0e44 A901     		.2byte	0x1a9
 12218 0e46 650E0000 		.4byte	0xe65
 12219 0e4a 1C       		.uleb128 0x1c
 12220 0e4b C4160000 		.4byte	.LASF325
 12221 0e4f 0A       		.byte	0xa
 12222 0e50 AB01     		.2byte	0x1ab
 12223 0e52 81000000 		.4byte	0x81
 12224 0e56 00       		.byte	0
 12225 0e57 1C       		.uleb128 0x1c
 12226 0e58 53020000 		.4byte	.LASF326
 12227 0e5c 0A       		.byte	0xa
 12228 0e5d AC01     		.2byte	0x1ac
 12229 0e5f 650E0000 		.4byte	0xe65
 12230 0e63 04       		.byte	0x4
 12231 0e64 00       		.byte	0
 12232 0e65 0A       		.uleb128 0xa
 12233 0e66 300E0000 		.4byte	0xe30
 12234 0e6a 750E0000 		.4byte	0xe75
 12235 0e6e 0B       		.uleb128 0xb
 12236 0e6f 0A010000 		.4byte	0x10a
 12237 0e73 11       		.byte	0x11
 12238 0e74 00       		.byte	0
 12239 0e75 05       		.uleb128 0x5
 12240 0e76 D50C0000 		.4byte	.LASF327
 12241 0e7a 0A       		.byte	0xa
 12242 0e7b AD01     		.2byte	0x1ad
 12243 0e7d 3C0E0000 		.4byte	0xe3c
 12244 0e81 1E       		.uleb128 0x1e
 12245 0e82 28       		.byte	0x28
 12246 0e83 0A       		.byte	0xa
 12247 0e84 B601     		.2byte	0x1b6
 12248 0e86 5B0F0000 		.4byte	0xf5b
 12249 0e8a 1C       		.uleb128 0x1c
 12250 0e8b A30A0000 		.4byte	.LASF328
 12251 0e8f 0A       		.byte	0xa
 12252 0e90 B801     		.2byte	0x1b8
ARM GAS  C:\Users\RECEPC~1\AppData\Local\Temp\ccMZb0bC.s 			page 263


 12253 0e92 44020000 		.4byte	0x244
 12254 0e96 00       		.byte	0
 12255 0e97 1C       		.uleb128 0x1c
 12256 0e98 B0290000 		.4byte	.LASF329
 12257 0e9c 0A       		.byte	0xa
 12258 0e9d B901     		.2byte	0x1b9
 12259 0e9f F4000000 		.4byte	0xf4
 12260 0ea3 01       		.byte	0x1
 12261 0ea4 1C       		.uleb128 0x1c
 12262 0ea5 E0020000 		.4byte	.LASF247
 12263 0ea9 0A       		.byte	0xa
 12264 0eaa BC01     		.2byte	0x1bc
 12265 0eac F4000000 		.4byte	0xf4
 12266 0eb0 02       		.byte	0x2
 12267 0eb1 1C       		.uleb128 0x1c
 12268 0eb2 06130000 		.4byte	.LASF330
 12269 0eb6 0A       		.byte	0xa
 12270 0eb7 BE01     		.2byte	0x1be
 12271 0eb9 F9000000 		.4byte	0xf9
 12272 0ebd 04       		.byte	0x4
 12273 0ebe 1C       		.uleb128 0x1c
 12274 0ebf 82190000 		.4byte	.LASF331
 12275 0ec3 0A       		.byte	0xa
 12276 0ec4 BF01     		.2byte	0x1bf
 12277 0ec6 F9000000 		.4byte	0xf9
 12278 0eca 06       		.byte	0x6
 12279 0ecb 1C       		.uleb128 0x1c
 12280 0ecc 58250000 		.4byte	.LASF332
 12281 0ed0 0A       		.byte	0xa
 12282 0ed1 C101     		.2byte	0x1c1
 12283 0ed3 F9000000 		.4byte	0xf9
 12284 0ed7 08       		.byte	0x8
 12285 0ed8 1C       		.uleb128 0x1c
 12286 0ed9 A6260000 		.4byte	.LASF333
 12287 0edd 0A       		.byte	0xa
 12288 0ede C201     		.2byte	0x1c2
 12289 0ee0 F9000000 		.4byte	0xf9
 12290 0ee4 0A       		.byte	0xa
 12291 0ee5 1C       		.uleb128 0x1c
 12292 0ee6 9E000000 		.4byte	.LASF334
 12293 0eea 0A       		.byte	0xa
 12294 0eeb C301     		.2byte	0x1c3
 12295 0eed F9000000 		.4byte	0xf9
 12296 0ef1 0C       		.byte	0xc
 12297 0ef2 1C       		.uleb128 0x1c
 12298 0ef3 101C0000 		.4byte	.LASF335
 12299 0ef7 0A       		.byte	0xa
 12300 0ef8 C501     		.2byte	0x1c5
 12301 0efa F9000000 		.4byte	0xf9
 12302 0efe 0E       		.byte	0xe
 12303 0eff 1C       		.uleb128 0x1c
 12304 0f00 D3150000 		.4byte	.LASF336
 12305 0f04 0A       		.byte	0xa
 12306 0f05 C601     		.2byte	0x1c6
 12307 0f07 F9000000 		.4byte	0xf9
 12308 0f0b 10       		.byte	0x10
 12309 0f0c 1C       		.uleb128 0x1c
ARM GAS  C:\Users\RECEPC~1\AppData\Local\Temp\ccMZb0bC.s 			page 264


 12310 0f0d DE070000 		.4byte	.LASF337
 12311 0f11 0A       		.byte	0xa
 12312 0f12 C701     		.2byte	0x1c7
 12313 0f14 F9000000 		.4byte	0xf9
 12314 0f18 12       		.byte	0x12
 12315 0f19 1C       		.uleb128 0x1c
 12316 0f1a 83150000 		.4byte	.LASF338
 12317 0f1e 0A       		.byte	0xa
 12318 0f1f C901     		.2byte	0x1c9
 12319 0f21 5B0F0000 		.4byte	0xf5b
 12320 0f25 14       		.byte	0x14
 12321 0f26 1C       		.uleb128 0x1c
 12322 0f27 C10B0000 		.4byte	.LASF339
 12323 0f2b 0A       		.byte	0xa
 12324 0f2c CA01     		.2byte	0x1ca
 12325 0f2e 5B0F0000 		.4byte	0xf5b
 12326 0f32 18       		.byte	0x18
 12327 0f33 1C       		.uleb128 0x1c
 12328 0f34 D60E0000 		.4byte	.LASF340
 12329 0f38 0A       		.byte	0xa
 12330 0f39 CB01     		.2byte	0x1cb
 12331 0f3b 610F0000 		.4byte	0xf61
 12332 0f3f 1C       		.byte	0x1c
 12333 0f40 1C       		.uleb128 0x1c
 12334 0f41 38150000 		.4byte	.LASF49
 12335 0f45 0A       		.byte	0xa
 12336 0f46 CD01     		.2byte	0x1cd
 12337 0f48 6C020000 		.4byte	0x26c
 12338 0f4c 20       		.byte	0x20
 12339 0f4d 1C       		.uleb128 0x1c
 12340 0f4e E4140000 		.4byte	.LASF48
 12341 0f52 0A       		.byte	0xa
 12342 0f53 CE01     		.2byte	0x1ce
 12343 0f55 11010000 		.4byte	0x111
 12344 0f59 24       		.byte	0x24
 12345 0f5a 00       		.byte	0
 12346 0f5b 07       		.uleb128 0x7
 12347 0f5c 04       		.byte	0x4
 12348 0f5d 300E0000 		.4byte	0xe30
 12349 0f61 07       		.uleb128 0x7
 12350 0f62 04       		.byte	0x4
 12351 0f63 1F0D0000 		.4byte	0xd1f
 12352 0f67 05       		.uleb128 0x5
 12353 0f68 6B1F0000 		.4byte	.LASF341
 12354 0f6c 0A       		.byte	0xa
 12355 0f6d D001     		.2byte	0x1d0
 12356 0f6f 810E0000 		.4byte	0xe81
 12357 0f73 05       		.uleb128 0x5
 12358 0f74 531B0000 		.4byte	.LASF342
 12359 0f78 0A       		.byte	0xa
 12360 0f79 D001     		.2byte	0x1d0
 12361 0f7b 7F0F0000 		.4byte	0xf7f
 12362 0f7f 07       		.uleb128 0x7
 12363 0f80 04       		.byte	0x4
 12364 0f81 810E0000 		.4byte	0xe81
 12365 0f85 1F       		.uleb128 0x1f
 12366 0f86 42020000 		.4byte	.LASF343
ARM GAS  C:\Users\RECEPC~1\AppData\Local\Temp\ccMZb0bC.s 			page 265


 12367 0f8a 5C08     		.2byte	0x85c
 12368 0f8c 0A       		.byte	0xa
 12369 0f8d D201     		.2byte	0x1d2
 12370 0f8f 10100000 		.4byte	0x1010
 12371 0f93 1C       		.uleb128 0x1c
 12372 0f94 8A1A0000 		.4byte	.LASF344
 12373 0f98 0A       		.byte	0xa
 12374 0f99 D401     		.2byte	0x1d4
 12375 0f9b F9000000 		.4byte	0xf9
 12376 0f9f 00       		.byte	0
 12377 0fa0 1C       		.uleb128 0x1c
 12378 0fa1 A31E0000 		.4byte	.LASF345
 12379 0fa5 0A       		.byte	0xa
 12380 0fa6 D601     		.2byte	0x1d6
 12381 0fa8 10100000 		.4byte	0x1010
 12382 0fac 04       		.byte	0x4
 12383 0fad 1D       		.uleb128 0x1d
 12384 0fae 80090000 		.4byte	.LASF346
 12385 0fb2 0A       		.byte	0xa
 12386 0fb3 D701     		.2byte	0x1d7
 12387 0fb5 20100000 		.4byte	0x1020
 12388 0fb9 8407     		.2byte	0x784
 12389 0fbb 1D       		.uleb128 0x1d
 12390 0fbc 8F110000 		.4byte	.LASF347
 12391 0fc0 0A       		.byte	0xa
 12392 0fc1 D901     		.2byte	0x1d9
 12393 0fc3 6C020000 		.4byte	0x26c
 12394 0fc7 4408     		.2byte	0x844
 12395 0fc9 1D       		.uleb128 0x1d
 12396 0fca 2E1D0000 		.4byte	.LASF348
 12397 0fce 0A       		.byte	0xa
 12398 0fcf DA01     		.2byte	0x1da
 12399 0fd1 45100000 		.4byte	0x1045
 12400 0fd5 4808     		.2byte	0x848
 12401 0fd7 1D       		.uleb128 0x1d
 12402 0fd8 4A120000 		.4byte	.LASF349
 12403 0fdc 0A       		.byte	0xa
 12404 0fdd DB01     		.2byte	0x1db
 12405 0fdf 5B100000 		.4byte	0x105b
 12406 0fe3 4C08     		.2byte	0x84c
 12407 0fe5 1D       		.uleb128 0x1d
 12408 0fe6 890D0000 		.4byte	.LASF350
 12409 0fea 0A       		.byte	0xa
 12410 0feb DC01     		.2byte	0x1dc
 12411 0fed 45100000 		.4byte	0x1045
 12412 0ff1 5008     		.2byte	0x850
 12413 0ff3 1D       		.uleb128 0x1d
 12414 0ff4 16240000 		.4byte	.LASF351
 12415 0ff8 0A       		.byte	0xa
 12416 0ff9 DD01     		.2byte	0x1dd
 12417 0ffb 6C020000 		.4byte	0x26c
 12418 0fff 5408     		.2byte	0x854
 12419 1001 1D       		.uleb128 0x1d
 12420 1002 A6100000 		.4byte	.LASF352
 12421 1006 0A       		.byte	0xa
 12422 1007 DE01     		.2byte	0x1de
 12423 1009 6C020000 		.4byte	0x26c
ARM GAS  C:\Users\RECEPC~1\AppData\Local\Temp\ccMZb0bC.s 			page 266


 12424 100d 5808     		.2byte	0x858
 12425 100f 00       		.byte	0
 12426 1010 0A       		.uleb128 0xa
 12427 1011 670F0000 		.4byte	0xf67
 12428 1015 20100000 		.4byte	0x1020
 12429 1019 0B       		.uleb128 0xb
 12430 101a 0A010000 		.4byte	0x10a
 12431 101e 2F       		.byte	0x2f
 12432 101f 00       		.byte	0
 12433 1020 0A       		.uleb128 0xa
 12434 1021 30100000 		.4byte	0x1030
 12435 1025 30100000 		.4byte	0x1030
 12436 1029 0B       		.uleb128 0xb
 12437 102a 0A010000 		.4byte	0x10a
 12438 102e 2F       		.byte	0x2f
 12439 102f 00       		.byte	0
 12440 1030 07       		.uleb128 0x7
 12441 1031 04       		.byte	0x4
 12442 1032 670F0000 		.4byte	0xf67
 12443 1036 18       		.uleb128 0x18
 12444 1037 30100000 		.4byte	0x1030
 12445 103b 45100000 		.4byte	0x1045
 12446 103f 13       		.uleb128 0x13
 12447 1040 11010000 		.4byte	0x111
 12448 1044 00       		.byte	0
 12449 1045 07       		.uleb128 0x7
 12450 1046 04       		.byte	0x4
 12451 1047 36100000 		.4byte	0x1036
 12452 104b 12       		.uleb128 0x12
 12453 104c 5B100000 		.4byte	0x105b
 12454 1050 13       		.uleb128 0x13
 12455 1051 11010000 		.4byte	0x111
 12456 1055 13       		.uleb128 0x13
 12457 1056 30100000 		.4byte	0x1030
 12458 105a 00       		.byte	0
 12459 105b 07       		.uleb128 0x7
 12460 105c 04       		.byte	0x4
 12461 105d 4B100000 		.4byte	0x104b
 12462 1061 05       		.uleb128 0x5
 12463 1062 D5030000 		.4byte	.LASF353
 12464 1066 0A       		.byte	0xa
 12465 1067 E001     		.2byte	0x1e0
 12466 1069 850F0000 		.4byte	0xf85
 12467 106d 1E       		.uleb128 0x1e
 12468 106e 14       		.byte	0x14
 12469 106f 0A       		.byte	0xa
 12470 1070 EC01     		.2byte	0x1ec
 12471 1072 57110000 		.4byte	0x1157
 12472 1076 1C       		.uleb128 0x1c
 12473 1077 A5130000 		.4byte	.LASF354
 12474 107b 0A       		.byte	0xa
 12475 107c EE01     		.2byte	0x1ee
 12476 107e 44020000 		.4byte	0x244
 12477 1082 00       		.byte	0
 12478 1083 1C       		.uleb128 0x1c
 12479 1084 851F0000 		.4byte	.LASF355
 12480 1088 0A       		.byte	0xa
ARM GAS  C:\Users\RECEPC~1\AppData\Local\Temp\ccMZb0bC.s 			page 267


 12481 1089 EF01     		.2byte	0x1ef
 12482 108b 44020000 		.4byte	0x244
 12483 108f 01       		.byte	0x1
 12484 1090 1C       		.uleb128 0x1c
 12485 1091 2A0C0000 		.4byte	.LASF356
 12486 1095 0A       		.byte	0xa
 12487 1096 F301     		.2byte	0x1f3
 12488 1098 97000000 		.4byte	0x97
 12489 109c 02       		.byte	0x2
 12490 109d 1C       		.uleb128 0x1c
 12491 109e 0E1E0000 		.4byte	.LASF357
 12492 10a2 0A       		.byte	0xa
 12493 10a3 0102     		.2byte	0x201
 12494 10a5 97000000 		.4byte	0x97
 12495 10a9 03       		.byte	0x3
 12496 10aa 1C       		.uleb128 0x1c
 12497 10ab 400D0000 		.4byte	.LASF358
 12498 10af 0A       		.byte	0xa
 12499 10b0 0202     		.2byte	0x202
 12500 10b2 97000000 		.4byte	0x97
 12501 10b6 04       		.byte	0x4
 12502 10b7 1C       		.uleb128 0x1c
 12503 10b8 2F1E0000 		.4byte	.LASF359
 12504 10bc 0A       		.byte	0xa
 12505 10bd 0302     		.2byte	0x203
 12506 10bf 97000000 		.4byte	0x97
 12507 10c3 05       		.byte	0x5
 12508 10c4 1C       		.uleb128 0x1c
 12509 10c5 3F1E0000 		.4byte	.LASF360
 12510 10c9 0A       		.byte	0xa
 12511 10ca 0402     		.2byte	0x204
 12512 10cc 97000000 		.4byte	0x97
 12513 10d0 06       		.byte	0x6
 12514 10d1 1C       		.uleb128 0x1c
 12515 10d2 910E0000 		.4byte	.LASF361
 12516 10d6 0A       		.byte	0xa
 12517 10d7 0602     		.2byte	0x206
 12518 10d9 97000000 		.4byte	0x97
 12519 10dd 07       		.byte	0x7
 12520 10de 1C       		.uleb128 0x1c
 12521 10df FB100000 		.4byte	.LASF362
 12522 10e3 0A       		.byte	0xa
 12523 10e4 0702     		.2byte	0x207
 12524 10e6 97000000 		.4byte	0x97
 12525 10ea 08       		.byte	0x8
 12526 10eb 1C       		.uleb128 0x1c
 12527 10ec 2A0D0000 		.4byte	.LASF363
 12528 10f0 0A       		.byte	0xa
 12529 10f1 0802     		.2byte	0x208
 12530 10f3 97000000 		.4byte	0x97
 12531 10f7 09       		.byte	0x9
 12532 10f8 1C       		.uleb128 0x1c
 12533 10f9 3A000000 		.4byte	.LASF364
 12534 10fd 0A       		.byte	0xa
 12535 10fe 0A02     		.2byte	0x20a
 12536 1100 97000000 		.4byte	0x97
 12537 1104 0A       		.byte	0xa
ARM GAS  C:\Users\RECEPC~1\AppData\Local\Temp\ccMZb0bC.s 			page 268


 12538 1105 1C       		.uleb128 0x1c
 12539 1106 B20E0000 		.4byte	.LASF365
 12540 110a 0A       		.byte	0xa
 12541 110b 0C02     		.2byte	0x20c
 12542 110d A3000000 		.4byte	0xa3
 12543 1111 0C       		.byte	0xc
 12544 1112 1C       		.uleb128 0x1c
 12545 1113 661E0000 		.4byte	.LASF366
 12546 1117 0A       		.byte	0xa
 12547 1118 0D02     		.2byte	0x20d
 12548 111a A3000000 		.4byte	0xa3
 12549 111e 0E       		.byte	0xe
 12550 111f 1C       		.uleb128 0x1c
 12551 1120 342A0000 		.4byte	.LASF367
 12552 1124 0A       		.byte	0xa
 12553 1125 0F02     		.2byte	0x20f
 12554 1127 97000000 		.4byte	0x97
 12555 112b 10       		.byte	0x10
 12556 112c 1C       		.uleb128 0x1c
 12557 112d 090C0000 		.4byte	.LASF368
 12558 1131 0A       		.byte	0xa
 12559 1132 1102     		.2byte	0x211
 12560 1134 97000000 		.4byte	0x97
 12561 1138 11       		.byte	0x11
 12562 1139 1C       		.uleb128 0x1c
 12563 113a 12000000 		.4byte	.LASF369
 12564 113e 0A       		.byte	0xa
 12565 113f 1302     		.2byte	0x213
 12566 1141 97000000 		.4byte	0x97
 12567 1145 12       		.byte	0x12
 12568 1146 21       		.uleb128 0x21
 12569 1147 A01A0000 		.4byte	.LASF567
 12570 114b 0A       		.byte	0xa
 12571 114c 1502     		.2byte	0x215
 12572 114e 97000000 		.4byte	0x97
 12573 1152 01       		.byte	0x1
 12574 1153 01       		.byte	0x1
 12575 1154 07       		.byte	0x7
 12576 1155 13       		.byte	0x13
 12577 1156 00       		.byte	0
 12578 1157 05       		.uleb128 0x5
 12579 1158 F3200000 		.4byte	.LASF370
 12580 115c 0A       		.byte	0xa
 12581 115d 1602     		.2byte	0x216
 12582 115f 6D100000 		.4byte	0x106d
 12583 1163 03       		.uleb128 0x3
 12584 1164 67000000 		.4byte	.LASF371
 12585 1168 0B       		.byte	0xb
 12586 1169 97       		.byte	0x97
 12587 116a 6C020000 		.4byte	0x26c
 12588 116e 0C       		.uleb128 0xc
 12589 116f FF070000 		.4byte	.LASF372
 12590 1173 02       		.byte	0x2
 12591 1174 0C       		.byte	0xc
 12592 1175 2A       		.byte	0x2a
 12593 1176 92120000 		.4byte	0x1292
 12594 117a 0D       		.uleb128 0xd
ARM GAS  C:\Users\RECEPC~1\AppData\Local\Temp\ccMZb0bC.s 			page 269


 12595 117b 58010000 		.4byte	.LASF373
 12596 117f 00       		.sleb128 0
 12597 1180 0D       		.uleb128 0xd
 12598 1181 29040000 		.4byte	.LASF374
 12599 1185 C000     		.sleb128 64
 12600 1187 0D       		.uleb128 0xd
 12601 1188 7D010000 		.4byte	.LASF375
 12602 118c 8001     		.sleb128 128
 12603 118e 0D       		.uleb128 0xd
 12604 118f 98010000 		.4byte	.LASF376
 12605 1193 C001     		.sleb128 192
 12606 1195 0D       		.uleb128 0xd
 12607 1196 B3010000 		.4byte	.LASF377
 12608 119a 8002     		.sleb128 256
 12609 119c 0D       		.uleb128 0xd
 12610 119d CE010000 		.4byte	.LASF378
 12611 11a1 C002     		.sleb128 320
 12612 11a3 0D       		.uleb128 0xd
 12613 11a4 E9010000 		.4byte	.LASF379
 12614 11a8 8003     		.sleb128 384
 12615 11aa 0D       		.uleb128 0xd
 12616 11ab 04020000 		.4byte	.LASF380
 12617 11af C003     		.sleb128 448
 12618 11b1 0D       		.uleb128 0xd
 12619 11b2 37060000 		.4byte	.LASF381
 12620 11b6 8004     		.sleb128 512
 12621 11b8 0D       		.uleb128 0xd
 12622 11b9 ED080000 		.4byte	.LASF382
 12623 11bd C004     		.sleb128 576
 12624 11bf 0D       		.uleb128 0xd
 12625 11c0 12280000 		.4byte	.LASF383
 12626 11c4 8005     		.sleb128 640
 12627 11c6 0D       		.uleb128 0xd
 12628 11c7 D70F0000 		.4byte	.LASF384
 12629 11cb C005     		.sleb128 704
 12630 11cd 0D       		.uleb128 0xd
 12631 11ce 26050000 		.4byte	.LASF385
 12632 11d2 8006     		.sleb128 768
 12633 11d4 0D       		.uleb128 0xd
 12634 11d5 670E0000 		.4byte	.LASF386
 12635 11d9 C006     		.sleb128 832
 12636 11db 0D       		.uleb128 0xd
 12637 11dc 60290000 		.4byte	.LASF387
 12638 11e0 8007     		.sleb128 896
 12639 11e2 0D       		.uleb128 0xd
 12640 11e3 0D130000 		.4byte	.LASF388
 12641 11e7 C007     		.sleb128 960
 12642 11e9 0D       		.uleb128 0xd
 12643 11ea 10090000 		.4byte	.LASF389
 12644 11ee 8008     		.sleb128 1024
 12645 11f0 0D       		.uleb128 0xd
 12646 11f1 B11E0000 		.4byte	.LASF390
 12647 11f5 C008     		.sleb128 1088
 12648 11f7 0D       		.uleb128 0xd
 12649 11f8 D9250000 		.4byte	.LASF391
 12650 11fc 8009     		.sleb128 1152
 12651 11fe 0D       		.uleb128 0xd
ARM GAS  C:\Users\RECEPC~1\AppData\Local\Temp\ccMZb0bC.s 			page 270


 12652 11ff E8110000 		.4byte	.LASF392
 12653 1203 C009     		.sleb128 1216
 12654 1205 0D       		.uleb128 0xd
 12655 1206 7E120000 		.4byte	.LASF393
 12656 120a 800A     		.sleb128 1280
 12657 120c 0D       		.uleb128 0xd
 12658 120d 9C120000 		.4byte	.LASF394
 12659 1211 C00A     		.sleb128 1344
 12660 1213 0D       		.uleb128 0xd
 12661 1214 BA120000 		.4byte	.LASF395
 12662 1218 800B     		.sleb128 1408
 12663 121a 0D       		.uleb128 0xd
 12664 121b D8120000 		.4byte	.LASF396
 12665 121f C00B     		.sleb128 1472
 12666 1221 0D       		.uleb128 0xd
 12667 1222 15190000 		.4byte	.LASF397
 12668 1226 800C     		.sleb128 1536
 12669 1228 0D       		.uleb128 0xd
 12670 1229 711B0000 		.4byte	.LASF398
 12671 122d C00C     		.sleb128 1600
 12672 122f 0D       		.uleb128 0xd
 12673 1230 6C0B0000 		.4byte	.LASF399
 12674 1234 800D     		.sleb128 1664
 12675 1236 0D       		.uleb128 0xd
 12676 1237 A2070000 		.4byte	.LASF400
 12677 123b C00D     		.sleb128 1728
 12678 123d 0D       		.uleb128 0xd
 12679 123e 591C0000 		.4byte	.LASF401
 12680 1242 800E     		.sleb128 1792
 12681 1244 0D       		.uleb128 0xd
 12682 1245 DF2A0000 		.4byte	.LASF402
 12683 1249 C00E     		.sleb128 1856
 12684 124b 0D       		.uleb128 0xd
 12685 124c F00E0000 		.4byte	.LASF403
 12686 1250 800F     		.sleb128 1920
 12687 1252 0D       		.uleb128 0xd
 12688 1253 9D050000 		.4byte	.LASF404
 12689 1257 C00F     		.sleb128 1984
 12690 1259 0D       		.uleb128 0xd
 12691 125a C61A0000 		.4byte	.LASF405
 12692 125e 8010     		.sleb128 2048
 12693 1260 0D       		.uleb128 0xd
 12694 1261 A4170000 		.4byte	.LASF406
 12695 1265 C010     		.sleb128 2112
 12696 1267 0D       		.uleb128 0xd
 12697 1268 EE060000 		.4byte	.LASF407
 12698 126c 8011     		.sleb128 2176
 12699 126e 0D       		.uleb128 0xd
 12700 126f 0C030000 		.4byte	.LASF408
 12701 1273 C011     		.sleb128 2240
 12702 1275 0D       		.uleb128 0xd
 12703 1276 E2180000 		.4byte	.LASF409
 12704 127a 8012     		.sleb128 2304
 12705 127c 0D       		.uleb128 0xd
 12706 127d E7150000 		.4byte	.LASF410
 12707 1281 C012     		.sleb128 2368
 12708 1283 0D       		.uleb128 0xd
ARM GAS  C:\Users\RECEPC~1\AppData\Local\Temp\ccMZb0bC.s 			page 271


 12709 1284 97040000 		.4byte	.LASF411
 12710 1288 8013     		.sleb128 2432
 12711 128a 0D       		.uleb128 0xd
 12712 128b 53210000 		.4byte	.LASF412
 12713 128f C013     		.sleb128 2496
 12714 1291 00       		.byte	0
 12715 1292 17       		.uleb128 0x17
 12716 1293 01       		.byte	0x1
 12717 1294 0D       		.byte	0xd
 12718 1295 26       		.byte	0x26
 12719 1296 AC130000 		.4byte	0x13ac
 12720 129a 0D       		.uleb128 0xd
 12721 129b 560A0000 		.4byte	.LASF413
 12722 129f A101     		.sleb128 161
 12723 12a1 0D       		.uleb128 0xd
 12724 12a2 4D0B0000 		.4byte	.LASF414
 12725 12a6 A101     		.sleb128 161
 12726 12a8 0D       		.uleb128 0xd
 12727 12a9 A0020000 		.4byte	.LASF415
 12728 12ad A201     		.sleb128 162
 12729 12af 0D       		.uleb128 0xd
 12730 12b0 30210000 		.4byte	.LASF416
 12731 12b4 A201     		.sleb128 162
 12732 12b6 0D       		.uleb128 0xd
 12733 12b7 1E100000 		.4byte	.LASF417
 12734 12bb A301     		.sleb128 163
 12735 12bd 0D       		.uleb128 0xd
 12736 12be C8260000 		.4byte	.LASF418
 12737 12c2 A301     		.sleb128 163
 12738 12c4 0D       		.uleb128 0xd
 12739 12c5 6B0A0000 		.4byte	.LASF419
 12740 12c9 AE01     		.sleb128 174
 12741 12cb 0D       		.uleb128 0xd
 12742 12cc B3090000 		.4byte	.LASF420
 12743 12d0 AE01     		.sleb128 174
 12744 12d2 0D       		.uleb128 0xd
 12745 12d3 510C0000 		.4byte	.LASF421
 12746 12d7 AA01     		.sleb128 170
 12747 12d9 0D       		.uleb128 0xd
 12748 12da A7270000 		.4byte	.LASF422
 12749 12de AA01     		.sleb128 170
 12750 12e0 0D       		.uleb128 0xd
 12751 12e1 F91A0000 		.4byte	.LASF423
 12752 12e5 A401     		.sleb128 164
 12753 12e7 0D       		.uleb128 0xd
 12754 12e8 A9140000 		.4byte	.LASF424
 12755 12ec A401     		.sleb128 164
 12756 12ee 0D       		.uleb128 0xd
 12757 12ef CE140000 		.4byte	.LASF425
 12758 12f3 A501     		.sleb128 165
 12759 12f5 0D       		.uleb128 0xd
 12760 12f6 9F160000 		.4byte	.LASF426
 12761 12fa A501     		.sleb128 165
 12762 12fc 0D       		.uleb128 0xd
 12763 12fd DE100000 		.4byte	.LASF427
 12764 1301 E801     		.sleb128 232
 12765 1303 0D       		.uleb128 0xd
ARM GAS  C:\Users\RECEPC~1\AppData\Local\Temp\ccMZb0bC.s 			page 272


 12766 1304 BB1C0000 		.4byte	.LASF428
 12767 1308 E801     		.sleb128 232
 12768 130a 0D       		.uleb128 0xd
 12769 130b 0D220000 		.4byte	.LASF429
 12770 130f A601     		.sleb128 166
 12771 1311 0D       		.uleb128 0xd
 12772 1312 35280000 		.4byte	.LASF430
 12773 1316 A601     		.sleb128 166
 12774 1318 0D       		.uleb128 0xd
 12775 1319 43290000 		.4byte	.LASF431
 12776 131d A701     		.sleb128 167
 12777 131f 0D       		.uleb128 0xd
 12778 1320 912A0000 		.4byte	.LASF432
 12779 1324 A701     		.sleb128 167
 12780 1326 0D       		.uleb128 0xd
 12781 1327 C80D0000 		.4byte	.LASF433
 12782 132b A801     		.sleb128 168
 12783 132d 0D       		.uleb128 0xd
 12784 132e 90060000 		.4byte	.LASF434
 12785 1332 A801     		.sleb128 168
 12786 1334 0D       		.uleb128 0xd
 12787 1335 68170000 		.4byte	.LASF435
 12788 1339 A901     		.sleb128 169
 12789 133b 0D       		.uleb128 0xd
 12790 133c 4B1F0000 		.4byte	.LASF436
 12791 1340 A901     		.sleb128 169
 12792 1342 0D       		.uleb128 0xd
 12793 1343 37130000 		.4byte	.LASF437
 12794 1347 AC01     		.sleb128 172
 12795 1349 0D       		.uleb128 0xd
 12796 134a 102A0000 		.4byte	.LASF438
 12797 134e AC01     		.sleb128 172
 12798 1350 0D       		.uleb128 0xd
 12799 1351 3E200000 		.4byte	.LASF439
 12800 1355 AD01     		.sleb128 173
 12801 1357 0D       		.uleb128 0xd
 12802 1358 A90D0000 		.4byte	.LASF440
 12803 135c AD01     		.sleb128 173
 12804 135e 0D       		.uleb128 0xd
 12805 135f C5280000 		.4byte	.LASF441
 12806 1363 E101     		.sleb128 225
 12807 1365 0D       		.uleb128 0xd
 12808 1366 FE250000 		.4byte	.LASF442
 12809 136a E101     		.sleb128 225
 12810 136c 0D       		.uleb128 0xd
 12811 136d C3230000 		.4byte	.LASF443
 12812 1371 E201     		.sleb128 226
 12813 1373 0D       		.uleb128 0xd
 12814 1374 C7060000 		.4byte	.LASF444
 12815 1378 E201     		.sleb128 226
 12816 137a 0D       		.uleb128 0xd
 12817 137b 4E2A0000 		.4byte	.LASF445
 12818 137f E301     		.sleb128 227
 12819 1381 0D       		.uleb128 0xd
 12820 1382 EC050000 		.4byte	.LASF446
 12821 1386 E301     		.sleb128 227
 12822 1388 0D       		.uleb128 0xd
ARM GAS  C:\Users\RECEPC~1\AppData\Local\Temp\ccMZb0bC.s 			page 273


 12823 1389 C91F0000 		.4byte	.LASF447
 12824 138d E401     		.sleb128 228
 12825 138f 0D       		.uleb128 0xd
 12826 1390 85070000 		.4byte	.LASF448
 12827 1394 E401     		.sleb128 228
 12828 1396 0D       		.uleb128 0xd
 12829 1397 6D050000 		.4byte	.LASF449
 12830 139b E601     		.sleb128 230
 12831 139d 0D       		.uleb128 0xd
 12832 139e 09290000 		.4byte	.LASF450
 12833 13a2 E601     		.sleb128 230
 12834 13a4 0D       		.uleb128 0xd
 12835 13a5 A2150000 		.4byte	.LASF451
 12836 13a9 FF01     		.sleb128 255
 12837 13ab 00       		.byte	0
 12838 13ac 0C       		.uleb128 0xc
 12839 13ad B3030000 		.4byte	.LASF452
 12840 13b1 01       		.byte	0x1
 12841 13b2 0D       		.byte	0xd
 12842 13b3 8A       		.byte	0x8a
 12843 13b4 E9130000 		.4byte	0x13e9
 12844 13b8 0D       		.uleb128 0xd
 12845 13b9 44040000 		.4byte	.LASF453
 12846 13bd 08       		.sleb128 8
 12847 13be 0D       		.uleb128 0xd
 12848 13bf 2F170000 		.4byte	.LASF454
 12849 13c3 01       		.sleb128 1
 12850 13c4 0D       		.uleb128 0xd
 12851 13c5 3D1C0000 		.4byte	.LASF455
 12852 13c9 02       		.sleb128 2
 12853 13ca 0D       		.uleb128 0xd
 12854 13cb 26230000 		.4byte	.LASF456
 12855 13cf 03       		.sleb128 3
 12856 13d0 0D       		.uleb128 0xd
 12857 13d1 C50C0000 		.4byte	.LASF457
 12858 13d5 05       		.sleb128 5
 12859 13d6 0D       		.uleb128 0xd
 12860 13d7 30010000 		.4byte	.LASF458
 12861 13db 06       		.sleb128 6
 12862 13dc 0D       		.uleb128 0xd
 12863 13dd E91B0000 		.4byte	.LASF459
 12864 13e1 04       		.sleb128 4
 12865 13e2 0D       		.uleb128 0xd
 12866 13e3 4A220000 		.4byte	.LASF460
 12867 13e7 0B       		.sleb128 11
 12868 13e8 00       		.byte	0
 12869 13e9 0C       		.uleb128 0xc
 12870 13ea 35090000 		.4byte	.LASF461
 12871 13ee 01       		.byte	0x1
 12872 13ef 0D       		.byte	0xd
 12873 13f0 AB       		.byte	0xab
 12874 13f1 02140000 		.4byte	0x1402
 12875 13f5 0D       		.uleb128 0xd
 12876 13f6 50050000 		.4byte	.LASF462
 12877 13fa 01       		.sleb128 1
 12878 13fb 0D       		.uleb128 0xd
 12879 13fc CF110000 		.4byte	.LASF463
ARM GAS  C:\Users\RECEPC~1\AppData\Local\Temp\ccMZb0bC.s 			page 274


 12880 1400 02       		.sleb128 2
 12881 1401 00       		.byte	0
 12882 1402 22       		.uleb128 0x22
 12883 1403 0A       		.byte	0xa
 12884 1404 0D       		.byte	0xd
 12885 1405 B1       		.byte	0xb1
 12886 1406 47140000 		.4byte	0x1447
 12887 140a 0F       		.uleb128 0xf
 12888 140b E0020000 		.4byte	.LASF247
 12889 140f 0D       		.byte	0xd
 12890 1410 B3       		.byte	0xb3
 12891 1411 F4000000 		.4byte	0xf4
 12892 1415 00       		.byte	0
 12893 1416 0F       		.uleb128 0xf
 12894 1417 0D060000 		.4byte	.LASF464
 12895 141b 0D       		.byte	0xd
 12896 141c B4       		.byte	0xb4
 12897 141d F9000000 		.4byte	0xf9
 12898 1421 02       		.byte	0x2
 12899 1422 0F       		.uleb128 0xf
 12900 1423 8D150000 		.4byte	.LASF465
 12901 1427 0D       		.byte	0xd
 12902 1428 B5       		.byte	0xb5
 12903 1429 F4000000 		.4byte	0xf4
 12904 142d 04       		.byte	0x4
 12905 142e 0F       		.uleb128 0xf
 12906 142f 03040000 		.4byte	.LASF466
 12907 1433 0D       		.byte	0xd
 12908 1434 B7       		.byte	0xb7
 12909 1435 F9000000 		.4byte	0xf9
 12910 1439 06       		.byte	0x6
 12911 143a 0F       		.uleb128 0xf
 12912 143b 9B280000 		.4byte	.LASF467
 12913 143f 0D       		.byte	0xd
 12914 1440 B8       		.byte	0xb8
 12915 1441 F9000000 		.4byte	0xf9
 12916 1445 08       		.byte	0x8
 12917 1446 00       		.byte	0
 12918 1447 03       		.uleb128 0x3
 12919 1448 AF2A0000 		.4byte	.LASF468
 12920 144c 0D       		.byte	0xd
 12921 144d B9       		.byte	0xb9
 12922 144e 02140000 		.4byte	0x1402
 12923 1452 22       		.uleb128 0x22
 12924 1453 02       		.byte	0x2
 12925 1454 0E       		.byte	0xe
 12926 1455 72       		.byte	0x72
 12927 1456 73140000 		.4byte	0x1473
 12928 145a 0F       		.uleb128 0xf
 12929 145b 272B0000 		.4byte	.LASF469
 12930 145f 0E       		.byte	0xe
 12931 1460 74       		.byte	0x74
 12932 1461 97000000 		.4byte	0x97
 12933 1465 00       		.byte	0
 12934 1466 0F       		.uleb128 0xf
 12935 1467 00000000 		.4byte	.LASF470
 12936 146b 0E       		.byte	0xe
ARM GAS  C:\Users\RECEPC~1\AppData\Local\Temp\ccMZb0bC.s 			page 275


 12937 146c 75       		.byte	0x75
 12938 146d 97000000 		.4byte	0x97
 12939 1471 01       		.byte	0x1
 12940 1472 00       		.byte	0
 12941 1473 03       		.uleb128 0x3
 12942 1474 08240000 		.4byte	.LASF471
 12943 1478 0E       		.byte	0xe
 12944 1479 77       		.byte	0x77
 12945 147a 52140000 		.4byte	0x1452
 12946 147e 23       		.uleb128 0x23
 12947 147f 90140000 		.4byte	.LASF474
 12948 1483 01       		.byte	0x1
 12949 1484 2A       		.byte	0x2a
 12950 1485 00000000 		.4byte	.LFB63
 12951 1489 AA000000 		.4byte	.LFE63-.LFB63
 12952 148d 01       		.uleb128 0x1
 12953 148e 9C       		.byte	0x9c
 12954 148f C8140000 		.4byte	0x14c8
 12955 1493 24       		.uleb128 0x24
 12956 1494 1F230000 		.4byte	.LASF476
 12957 1498 01       		.byte	0x1
 12958 1499 2A       		.byte	0x2a
 12959 149a 11010000 		.4byte	0x111
 12960 149e 02       		.uleb128 0x2
 12961 149f 91       		.byte	0x91
 12962 14a0 6C       		.sleb128 -20
 12963 14a1 25       		.uleb128 0x25
 12964 14a2 021F0000 		.4byte	.LASF472
 12965 14a6 01       		.byte	0x1
 12966 14a7 2C       		.byte	0x2c
 12967 14a8 730F0000 		.4byte	0xf73
 12968 14ac 02       		.uleb128 0x2
 12969 14ad 91       		.byte	0x91
 12970 14ae 74       		.sleb128 -12
 12971 14af 26       		.uleb128 0x26
 12972 14b0 12000000 		.4byte	.LBB2
 12973 14b4 92000000 		.4byte	.LBE2-.LBB2
 12974 14b8 25       		.uleb128 0x25
 12975 14b9 1C050000 		.4byte	.LASF473
 12976 14bd 01       		.byte	0x1
 12977 14be 2F       		.byte	0x2f
 12978 14bf 97000000 		.4byte	0x97
 12979 14c3 02       		.uleb128 0x2
 12980 14c4 91       		.byte	0x91
 12981 14c5 73       		.sleb128 -13
 12982 14c6 00       		.byte	0
 12983 14c7 00       		.byte	0
 12984 14c8 27       		.uleb128 0x27
 12985 14c9 49100000 		.4byte	.LASF475
 12986 14cd 01       		.byte	0x1
 12987 14ce 4A       		.byte	0x4a
 12988 14cf 00000000 		.4byte	.LFB64
 12989 14d3 48000000 		.4byte	.LFE64-.LFB64
 12990 14d7 01       		.uleb128 0x1
 12991 14d8 9C       		.byte	0x9c
 12992 14d9 FA140000 		.4byte	0x14fa
 12993 14dd 24       		.uleb128 0x24
ARM GAS  C:\Users\RECEPC~1\AppData\Local\Temp\ccMZb0bC.s 			page 276


 12994 14de 1F230000 		.4byte	.LASF476
 12995 14e2 01       		.byte	0x1
 12996 14e3 4A       		.byte	0x4a
 12997 14e4 11010000 		.4byte	0x111
 12998 14e8 02       		.uleb128 0x2
 12999 14e9 91       		.byte	0x91
 13000 14ea 6C       		.sleb128 -20
 13001 14eb 25       		.uleb128 0x25
 13002 14ec 021F0000 		.4byte	.LASF472
 13003 14f0 01       		.byte	0x1
 13004 14f1 4C       		.byte	0x4c
 13005 14f2 730F0000 		.4byte	0xf73
 13006 14f6 02       		.uleb128 0x2
 13007 14f7 91       		.byte	0x91
 13008 14f8 74       		.sleb128 -12
 13009 14f9 00       		.byte	0
 13010 14fa 23       		.uleb128 0x23
 13011 14fb AF0F0000 		.4byte	.LASF477
 13012 14ff 01       		.byte	0x1
 13013 1500 54       		.byte	0x54
 13014 1501 00000000 		.4byte	.LFB65
 13015 1505 E0000000 		.4byte	.LFE65-.LFB65
 13016 1509 01       		.uleb128 0x1
 13017 150a 9C       		.byte	0x9c
 13018 150b 2C150000 		.4byte	0x152c
 13019 150f 24       		.uleb128 0x24
 13020 1510 1F230000 		.4byte	.LASF476
 13021 1514 01       		.byte	0x1
 13022 1515 54       		.byte	0x54
 13023 1516 11010000 		.4byte	0x111
 13024 151a 02       		.uleb128 0x2
 13025 151b 91       		.byte	0x91
 13026 151c 64       		.sleb128 -28
 13027 151d 25       		.uleb128 0x25
 13028 151e 021F0000 		.4byte	.LASF472
 13029 1522 01       		.byte	0x1
 13030 1523 56       		.byte	0x56
 13031 1524 730F0000 		.4byte	0xf73
 13032 1528 02       		.uleb128 0x2
 13033 1529 91       		.byte	0x91
 13034 152a 6C       		.sleb128 -20
 13035 152b 00       		.byte	0
 13036 152c 23       		.uleb128 0x23
 13037 152d AD220000 		.4byte	.LASF478
 13038 1531 01       		.byte	0x1
 13039 1532 66       		.byte	0x66
 13040 1533 00000000 		.4byte	.LFB66
 13041 1537 06100000 		.4byte	.LFE66-.LFB66
 13042 153b 01       		.uleb128 0x1
 13043 153c 9C       		.byte	0x9c
 13044 153d C8150000 		.4byte	0x15c8
 13045 1541 24       		.uleb128 0x24
 13046 1542 1F230000 		.4byte	.LASF476
 13047 1546 01       		.byte	0x1
 13048 1547 66       		.byte	0x66
 13049 1548 11010000 		.4byte	0x111
 13050 154c 02       		.uleb128 0x2
ARM GAS  C:\Users\RECEPC~1\AppData\Local\Temp\ccMZb0bC.s 			page 277


 13051 154d 91       		.byte	0x91
 13052 154e 54       		.sleb128 -44
 13053 154f 25       		.uleb128 0x25
 13054 1550 021F0000 		.4byte	.LASF472
 13055 1554 01       		.byte	0x1
 13056 1555 68       		.byte	0x68
 13057 1556 730F0000 		.4byte	0xf73
 13058 155a 02       		.uleb128 0x2
 13059 155b 91       		.byte	0x91
 13060 155c 64       		.sleb128 -28
 13061 155d 26       		.uleb128 0x26
 13062 155e 16000000 		.4byte	.LBB3
 13063 1562 E80F0000 		.4byte	.LBE3-.LBB3
 13064 1566 25       		.uleb128 0x25
 13065 1567 3A260000 		.4byte	.LASF479
 13066 156b 01       		.byte	0x1
 13067 156c 6C       		.byte	0x6c
 13068 156d 97000000 		.4byte	0x97
 13069 1571 02       		.uleb128 0x2
 13070 1572 91       		.byte	0x91
 13071 1573 63       		.sleb128 -29
 13072 1574 25       		.uleb128 0x25
 13073 1575 3F070000 		.4byte	.LASF480
 13074 1579 01       		.byte	0x1
 13075 157a 6D       		.byte	0x6d
 13076 157b 97000000 		.4byte	0x97
 13077 157f 02       		.uleb128 0x2
 13078 1580 91       		.byte	0x91
 13079 1581 62       		.sleb128 -30
 13080 1582 28       		.uleb128 0x28
 13081 1583 70747300 		.ascii	"pts\000"
 13082 1587 01       		.byte	0x1
 13083 1588 0F02     		.2byte	0x20f
 13084 158a 96090000 		.4byte	0x996
 13085 158e 02       		.uleb128 0x2
 13086 158f 91       		.byte	0x91
 13087 1590 58       		.sleb128 -40
 13088 1591 29       		.uleb128 0x29
 13089 1592 A8000000 		.4byte	.LBB4
 13090 1596 D4010000 		.4byte	.LBE4-.LBB4
 13091 159a AD150000 		.4byte	0x15ad
 13092 159e 25       		.uleb128 0x25
 13093 159f E50C0000 		.4byte	.LASF481
 13094 15a3 01       		.byte	0x1
 13095 15a4 81       		.byte	0x81
 13096 15a5 A3000000 		.4byte	0xa3
 13097 15a9 02       		.uleb128 0x2
 13098 15aa 91       		.byte	0x91
 13099 15ab 60       		.sleb128 -32
 13100 15ac 00       		.byte	0
 13101 15ad 26       		.uleb128 0x26
 13102 15ae D8070000 		.4byte	.LBB5
 13103 15b2 BE010000 		.4byte	.LBE5-.LBB5
 13104 15b6 2A       		.uleb128 0x2a
 13105 15b7 E50C0000 		.4byte	.LASF481
 13106 15bb 01       		.byte	0x1
 13107 15bc 4501     		.2byte	0x145
ARM GAS  C:\Users\RECEPC~1\AppData\Local\Temp\ccMZb0bC.s 			page 278


 13108 15be A3000000 		.4byte	0xa3
 13109 15c2 02       		.uleb128 0x2
 13110 15c3 91       		.byte	0x91
 13111 15c4 5E       		.sleb128 -34
 13112 15c5 00       		.byte	0
 13113 15c6 00       		.byte	0
 13114 15c7 00       		.byte	0
 13115 15c8 2B       		.uleb128 0x2b
 13116 15c9 6E1A0000 		.4byte	.LASF482
 13117 15cd 01       		.byte	0x1
 13118 15ce 2202     		.2byte	0x222
 13119 15d0 00000000 		.4byte	.LFB67
 13120 15d4 A0010000 		.4byte	.LFE67-.LFB67
 13121 15d8 01       		.uleb128 0x1
 13122 15d9 9C       		.byte	0x9c
 13123 15da 52160000 		.4byte	0x1652
 13124 15de 2C       		.uleb128 0x2c
 13125 15df 1F230000 		.4byte	.LASF476
 13126 15e3 01       		.byte	0x1
 13127 15e4 2202     		.2byte	0x222
 13128 15e6 11010000 		.4byte	0x111
 13129 15ea 02       		.uleb128 0x2
 13130 15eb 91       		.byte	0x91
 13131 15ec 64       		.sleb128 -28
 13132 15ed 2A       		.uleb128 0x2a
 13133 15ee 021F0000 		.4byte	.LASF472
 13134 15f2 01       		.byte	0x1
 13135 15f3 2402     		.2byte	0x224
 13136 15f5 730F0000 		.4byte	0xf73
 13137 15f9 02       		.uleb128 0x2
 13138 15fa 91       		.byte	0x91
 13139 15fb 74       		.sleb128 -12
 13140 15fc 26       		.uleb128 0x26
 13141 15fd 14000000 		.4byte	.LBB6
 13142 1601 82010000 		.4byte	.LBE6-.LBB6
 13143 1605 2A       		.uleb128 0x2a
 13144 1606 90040000 		.4byte	.LASF483
 13145 160a 01       		.byte	0x1
 13146 160b 2702     		.2byte	0x227
 13147 160d 49020000 		.4byte	0x249
 13148 1611 02       		.uleb128 0x2
 13149 1612 91       		.byte	0x91
 13150 1613 73       		.sleb128 -13
 13151 1614 2A       		.uleb128 0x2a
 13152 1615 651A0000 		.4byte	.LASF484
 13153 1619 01       		.byte	0x1
 13154 161a 2802     		.2byte	0x228
 13155 161c 97000000 		.4byte	0x97
 13156 1620 02       		.uleb128 0x2
 13157 1621 91       		.byte	0x91
 13158 1622 72       		.sleb128 -14
 13159 1623 2A       		.uleb128 0x2a
 13160 1624 C0250000 		.4byte	.LASF485
 13161 1628 01       		.byte	0x1
 13162 1629 3A02     		.2byte	0x23a
 13163 162b 49020000 		.4byte	0x249
 13164 162f 02       		.uleb128 0x2
ARM GAS  C:\Users\RECEPC~1\AppData\Local\Temp\ccMZb0bC.s 			page 279


 13165 1630 91       		.byte	0x91
 13166 1631 71       		.sleb128 -15
 13167 1632 28       		.uleb128 0x28
 13168 1633 70747300 		.ascii	"pts\000"
 13169 1637 01       		.byte	0x1
 13170 1638 3B02     		.2byte	0x23b
 13171 163a 96090000 		.4byte	0x996
 13172 163e 02       		.uleb128 0x2
 13173 163f 91       		.byte	0x91
 13174 1640 6C       		.sleb128 -20
 13175 1641 2A       		.uleb128 0x2a
 13176 1642 5D150000 		.4byte	.LASF486
 13177 1646 01       		.byte	0x1
 13178 1647 3C02     		.2byte	0x23c
 13179 1649 96090000 		.4byte	0x996
 13180 164d 02       		.uleb128 0x2
 13181 164e 91       		.byte	0x91
 13182 164f 68       		.sleb128 -24
 13183 1650 00       		.byte	0
 13184 1651 00       		.byte	0
 13185 1652 2B       		.uleb128 0x2b
 13186 1653 C0000000 		.4byte	.LASF487
 13187 1657 01       		.byte	0x1
 13188 1658 5D02     		.2byte	0x25d
 13189 165a 00000000 		.4byte	.LFB68
 13190 165e 2C000000 		.4byte	.LFE68-.LFB68
 13191 1662 01       		.uleb128 0x1
 13192 1663 9C       		.byte	0x9c
 13193 1664 87160000 		.4byte	0x1687
 13194 1668 2C       		.uleb128 0x2c
 13195 1669 1F230000 		.4byte	.LASF476
 13196 166d 01       		.byte	0x1
 13197 166e 5D02     		.2byte	0x25d
 13198 1670 11010000 		.4byte	0x111
 13199 1674 02       		.uleb128 0x2
 13200 1675 91       		.byte	0x91
 13201 1676 6C       		.sleb128 -20
 13202 1677 2A       		.uleb128 0x2a
 13203 1678 021F0000 		.4byte	.LASF472
 13204 167c 01       		.byte	0x1
 13205 167d 5F02     		.2byte	0x25f
 13206 167f 730F0000 		.4byte	0xf73
 13207 1683 02       		.uleb128 0x2
 13208 1684 91       		.byte	0x91
 13209 1685 74       		.sleb128 -12
 13210 1686 00       		.byte	0
 13211 1687 2D       		.uleb128 0x2d
 13212 1688 E2280000 		.4byte	.LASF488
 13213 168c 01       		.byte	0x1
 13214 168d A302     		.2byte	0x2a3
 13215 168f 00000000 		.4byte	.LFB69
 13216 1693 36000000 		.4byte	.LFE69-.LFB69
 13217 1697 01       		.uleb128 0x1
 13218 1698 9C       		.byte	0x9c
 13219 1699 BC160000 		.4byte	0x16bc
 13220 169d 2C       		.uleb128 0x2c
 13221 169e 1F230000 		.4byte	.LASF476
ARM GAS  C:\Users\RECEPC~1\AppData\Local\Temp\ccMZb0bC.s 			page 280


 13222 16a2 01       		.byte	0x1
 13223 16a3 A302     		.2byte	0x2a3
 13224 16a5 11010000 		.4byte	0x111
 13225 16a9 02       		.uleb128 0x2
 13226 16aa 91       		.byte	0x91
 13227 16ab 6C       		.sleb128 -20
 13228 16ac 2A       		.uleb128 0x2a
 13229 16ad 021F0000 		.4byte	.LASF472
 13230 16b1 01       		.byte	0x1
 13231 16b2 A502     		.2byte	0x2a5
 13232 16b4 730F0000 		.4byte	0xf73
 13233 16b8 02       		.uleb128 0x2
 13234 16b9 91       		.byte	0x91
 13235 16ba 74       		.sleb128 -12
 13236 16bb 00       		.byte	0
 13237 16bc 2D       		.uleb128 0x2d
 13238 16bd EE290000 		.4byte	.LASF489
 13239 16c1 01       		.byte	0x1
 13240 16c2 B402     		.2byte	0x2b4
 13241 16c4 00000000 		.4byte	.LFB70
 13242 16c8 36000000 		.4byte	.LFE70-.LFB70
 13243 16cc 01       		.uleb128 0x1
 13244 16cd 9C       		.byte	0x9c
 13245 16ce F1160000 		.4byte	0x16f1
 13246 16d2 2C       		.uleb128 0x2c
 13247 16d3 1F230000 		.4byte	.LASF476
 13248 16d7 01       		.byte	0x1
 13249 16d8 B402     		.2byte	0x2b4
 13250 16da 11010000 		.4byte	0x111
 13251 16de 02       		.uleb128 0x2
 13252 16df 91       		.byte	0x91
 13253 16e0 6C       		.sleb128 -20
 13254 16e1 2A       		.uleb128 0x2a
 13255 16e2 021F0000 		.4byte	.LASF472
 13256 16e6 01       		.byte	0x1
 13257 16e7 B602     		.2byte	0x2b6
 13258 16e9 730F0000 		.4byte	0xf73
 13259 16ed 02       		.uleb128 0x2
 13260 16ee 91       		.byte	0x91
 13261 16ef 74       		.sleb128 -12
 13262 16f0 00       		.byte	0
 13263 16f1 2B       		.uleb128 0x2b
 13264 16f2 CC100000 		.4byte	.LASF490
 13265 16f6 01       		.byte	0x1
 13266 16f7 C902     		.2byte	0x2c9
 13267 16f9 00000000 		.4byte	.LFB71
 13268 16fd 82000000 		.4byte	.LFE71-.LFB71
 13269 1701 01       		.uleb128 0x1
 13270 1702 9C       		.byte	0x9c
 13271 1703 4E170000 		.4byte	0x174e
 13272 1707 2C       		.uleb128 0x2c
 13273 1708 1F230000 		.4byte	.LASF476
 13274 170c 01       		.byte	0x1
 13275 170d C902     		.2byte	0x2c9
 13276 170f 11010000 		.4byte	0x111
 13277 1713 02       		.uleb128 0x2
 13278 1714 91       		.byte	0x91
ARM GAS  C:\Users\RECEPC~1\AppData\Local\Temp\ccMZb0bC.s 			page 281


 13279 1715 64       		.sleb128 -28
 13280 1716 2A       		.uleb128 0x2a
 13281 1717 34000000 		.4byte	.LASF491
 13282 171b 01       		.byte	0x1
 13283 171c CB02     		.2byte	0x2cb
 13284 171e 2B0D0000 		.4byte	0xd2b
 13285 1722 02       		.uleb128 0x2
 13286 1723 91       		.byte	0x91
 13287 1724 74       		.sleb128 -12
 13288 1725 26       		.uleb128 0x26
 13289 1726 12000000 		.4byte	.LBB7
 13290 172a 6A000000 		.4byte	.LBE7-.LBB7
 13291 172e 2A       		.uleb128 0x2a
 13292 172f 38250000 		.4byte	.LASF492
 13293 1733 01       		.byte	0x1
 13294 1734 D202     		.2byte	0x2d2
 13295 1736 81000000 		.4byte	0x81
 13296 173a 02       		.uleb128 0x2
 13297 173b 91       		.byte	0x91
 13298 173c 73       		.sleb128 -13
 13299 173d 2A       		.uleb128 0x2a
 13300 173e B60C0000 		.4byte	.LASF493
 13301 1742 01       		.byte	0x1
 13302 1743 D402     		.2byte	0x2d4
 13303 1745 8C050000 		.4byte	0x58c
 13304 1749 02       		.uleb128 0x2
 13305 174a 91       		.byte	0x91
 13306 174b 6C       		.sleb128 -20
 13307 174c 00       		.byte	0
 13308 174d 00       		.byte	0
 13309 174e 2B       		.uleb128 0x2b
 13310 174f EA0A0000 		.4byte	.LASF494
 13311 1753 01       		.byte	0x1
 13312 1754 E402     		.2byte	0x2e4
 13313 1756 00000000 		.4byte	.LFB72
 13314 175a 70000000 		.4byte	.LFE72-.LFB72
 13315 175e 01       		.uleb128 0x1
 13316 175f 9C       		.byte	0x9c
 13317 1760 AB170000 		.4byte	0x17ab
 13318 1764 2C       		.uleb128 0x2c
 13319 1765 1F230000 		.4byte	.LASF476
 13320 1769 01       		.byte	0x1
 13321 176a E402     		.2byte	0x2e4
 13322 176c 11010000 		.4byte	0x111
 13323 1770 02       		.uleb128 0x2
 13324 1771 91       		.byte	0x91
 13325 1772 64       		.sleb128 -28
 13326 1773 2A       		.uleb128 0x2a
 13327 1774 34000000 		.4byte	.LASF491
 13328 1778 01       		.byte	0x1
 13329 1779 E602     		.2byte	0x2e6
 13330 177b 2B0D0000 		.4byte	0xd2b
 13331 177f 02       		.uleb128 0x2
 13332 1780 91       		.byte	0x91
 13333 1781 74       		.sleb128 -12
 13334 1782 26       		.uleb128 0x26
 13335 1783 12000000 		.4byte	.LBB8
ARM GAS  C:\Users\RECEPC~1\AppData\Local\Temp\ccMZb0bC.s 			page 282


 13336 1787 58000000 		.4byte	.LBE8-.LBB8
 13337 178b 2A       		.uleb128 0x2a
 13338 178c 38250000 		.4byte	.LASF492
 13339 1790 01       		.byte	0x1
 13340 1791 E902     		.2byte	0x2e9
 13341 1793 81000000 		.4byte	0x81
 13342 1797 02       		.uleb128 0x2
 13343 1798 91       		.byte	0x91
 13344 1799 73       		.sleb128 -13
 13345 179a 2A       		.uleb128 0x2a
 13346 179b B60C0000 		.4byte	.LASF493
 13347 179f 01       		.byte	0x1
 13348 17a0 EB02     		.2byte	0x2eb
 13349 17a2 8C050000 		.4byte	0x58c
 13350 17a6 02       		.uleb128 0x2
 13351 17a7 91       		.byte	0x91
 13352 17a8 6C       		.sleb128 -20
 13353 17a9 00       		.byte	0
 13354 17aa 00       		.byte	0
 13355 17ab 2B       		.uleb128 0x2b
 13356 17ac 4C040000 		.4byte	.LASF495
 13357 17b0 01       		.byte	0x1
 13358 17b1 FB02     		.2byte	0x2fb
 13359 17b3 00000000 		.4byte	.LFB73
 13360 17b7 60000000 		.4byte	.LFE73-.LFB73
 13361 17bb 01       		.uleb128 0x1
 13362 17bc 9C       		.byte	0x9c
 13363 17bd 08180000 		.4byte	0x1808
 13364 17c1 2C       		.uleb128 0x2c
 13365 17c2 1F230000 		.4byte	.LASF476
 13366 17c6 01       		.byte	0x1
 13367 17c7 FB02     		.2byte	0x2fb
 13368 17c9 11010000 		.4byte	0x111
 13369 17cd 02       		.uleb128 0x2
 13370 17ce 91       		.byte	0x91
 13371 17cf 64       		.sleb128 -28
 13372 17d0 2A       		.uleb128 0x2a
 13373 17d1 34000000 		.4byte	.LASF491
 13374 17d5 01       		.byte	0x1
 13375 17d6 FD02     		.2byte	0x2fd
 13376 17d8 2B0D0000 		.4byte	0xd2b
 13377 17dc 02       		.uleb128 0x2
 13378 17dd 91       		.byte	0x91
 13379 17de 74       		.sleb128 -12
 13380 17df 26       		.uleb128 0x26
 13381 17e0 12000000 		.4byte	.LBB9
 13382 17e4 48000000 		.4byte	.LBE9-.LBB9
 13383 17e8 2A       		.uleb128 0x2a
 13384 17e9 38250000 		.4byte	.LASF492
 13385 17ed 01       		.byte	0x1
 13386 17ee 0003     		.2byte	0x300
 13387 17f0 81000000 		.4byte	0x81
 13388 17f4 02       		.uleb128 0x2
 13389 17f5 91       		.byte	0x91
 13390 17f6 73       		.sleb128 -13
 13391 17f7 2A       		.uleb128 0x2a
 13392 17f8 B60C0000 		.4byte	.LASF493
ARM GAS  C:\Users\RECEPC~1\AppData\Local\Temp\ccMZb0bC.s 			page 283


 13393 17fc 01       		.byte	0x1
 13394 17fd 0203     		.2byte	0x302
 13395 17ff 8C050000 		.4byte	0x58c
 13396 1803 02       		.uleb128 0x2
 13397 1804 91       		.byte	0x91
 13398 1805 6C       		.sleb128 -20
 13399 1806 00       		.byte	0
 13400 1807 00       		.byte	0
 13401 1808 2B       		.uleb128 0x2b
 13402 1809 25250000 		.4byte	.LASF496
 13403 180d 01       		.byte	0x1
 13404 180e 0E03     		.2byte	0x30e
 13405 1810 00000000 		.4byte	.LFB74
 13406 1814 6A000000 		.4byte	.LFE74-.LFB74
 13407 1818 01       		.uleb128 0x1
 13408 1819 9C       		.byte	0x9c
 13409 181a 65180000 		.4byte	0x1865
 13410 181e 2C       		.uleb128 0x2c
 13411 181f 1F230000 		.4byte	.LASF476
 13412 1823 01       		.byte	0x1
 13413 1824 0E03     		.2byte	0x30e
 13414 1826 11010000 		.4byte	0x111
 13415 182a 02       		.uleb128 0x2
 13416 182b 91       		.byte	0x91
 13417 182c 64       		.sleb128 -28
 13418 182d 2A       		.uleb128 0x2a
 13419 182e 34000000 		.4byte	.LASF491
 13420 1832 01       		.byte	0x1
 13421 1833 1003     		.2byte	0x310
 13422 1835 2B0D0000 		.4byte	0xd2b
 13423 1839 02       		.uleb128 0x2
 13424 183a 91       		.byte	0x91
 13425 183b 74       		.sleb128 -12
 13426 183c 26       		.uleb128 0x26
 13427 183d 12000000 		.4byte	.LBB10
 13428 1841 52000000 		.4byte	.LBE10-.LBB10
 13429 1845 2A       		.uleb128 0x2a
 13430 1846 38250000 		.4byte	.LASF492
 13431 184a 01       		.byte	0x1
 13432 184b 1303     		.2byte	0x313
 13433 184d 81000000 		.4byte	0x81
 13434 1851 02       		.uleb128 0x2
 13435 1852 91       		.byte	0x91
 13436 1853 73       		.sleb128 -13
 13437 1854 2A       		.uleb128 0x2a
 13438 1855 B60C0000 		.4byte	.LASF493
 13439 1859 01       		.byte	0x1
 13440 185a 1503     		.2byte	0x315
 13441 185c 8C050000 		.4byte	0x58c
 13442 1860 02       		.uleb128 0x2
 13443 1861 91       		.byte	0x91
 13444 1862 6C       		.sleb128 -20
 13445 1863 00       		.byte	0
 13446 1864 00       		.byte	0
 13447 1865 2B       		.uleb128 0x2b
 13448 1866 80250000 		.4byte	.LASF497
 13449 186a 01       		.byte	0x1
ARM GAS  C:\Users\RECEPC~1\AppData\Local\Temp\ccMZb0bC.s 			page 284


 13450 186b 2203     		.2byte	0x322
 13451 186d 00000000 		.4byte	.LFB75
 13452 1871 6A000000 		.4byte	.LFE75-.LFB75
 13453 1875 01       		.uleb128 0x1
 13454 1876 9C       		.byte	0x9c
 13455 1877 C2180000 		.4byte	0x18c2
 13456 187b 2C       		.uleb128 0x2c
 13457 187c 1F230000 		.4byte	.LASF476
 13458 1880 01       		.byte	0x1
 13459 1881 2203     		.2byte	0x322
 13460 1883 11010000 		.4byte	0x111
 13461 1887 02       		.uleb128 0x2
 13462 1888 91       		.byte	0x91
 13463 1889 64       		.sleb128 -28
 13464 188a 2A       		.uleb128 0x2a
 13465 188b 34000000 		.4byte	.LASF491
 13466 188f 01       		.byte	0x1
 13467 1890 2403     		.2byte	0x324
 13468 1892 2B0D0000 		.4byte	0xd2b
 13469 1896 02       		.uleb128 0x2
 13470 1897 91       		.byte	0x91
 13471 1898 74       		.sleb128 -12
 13472 1899 26       		.uleb128 0x26
 13473 189a 12000000 		.4byte	.LBB11
 13474 189e 52000000 		.4byte	.LBE11-.LBB11
 13475 18a2 2A       		.uleb128 0x2a
 13476 18a3 38250000 		.4byte	.LASF492
 13477 18a7 01       		.byte	0x1
 13478 18a8 2703     		.2byte	0x327
 13479 18aa 81000000 		.4byte	0x81
 13480 18ae 02       		.uleb128 0x2
 13481 18af 91       		.byte	0x91
 13482 18b0 73       		.sleb128 -13
 13483 18b1 2A       		.uleb128 0x2a
 13484 18b2 B60C0000 		.4byte	.LASF493
 13485 18b6 01       		.byte	0x1
 13486 18b7 2903     		.2byte	0x329
 13487 18b9 8C050000 		.4byte	0x58c
 13488 18bd 02       		.uleb128 0x2
 13489 18be 91       		.byte	0x91
 13490 18bf 6C       		.sleb128 -20
 13491 18c0 00       		.byte	0
 13492 18c1 00       		.byte	0
 13493 18c2 2B       		.uleb128 0x2b
 13494 18c3 BF030000 		.4byte	.LASF498
 13495 18c7 01       		.byte	0x1
 13496 18c8 3703     		.2byte	0x337
 13497 18ca 00000000 		.4byte	.LFB76
 13498 18ce 6A000000 		.4byte	.LFE76-.LFB76
 13499 18d2 01       		.uleb128 0x1
 13500 18d3 9C       		.byte	0x9c
 13501 18d4 1F190000 		.4byte	0x191f
 13502 18d8 2C       		.uleb128 0x2c
 13503 18d9 1F230000 		.4byte	.LASF476
 13504 18dd 01       		.byte	0x1
 13505 18de 3703     		.2byte	0x337
 13506 18e0 11010000 		.4byte	0x111
ARM GAS  C:\Users\RECEPC~1\AppData\Local\Temp\ccMZb0bC.s 			page 285


 13507 18e4 02       		.uleb128 0x2
 13508 18e5 91       		.byte	0x91
 13509 18e6 64       		.sleb128 -28
 13510 18e7 2A       		.uleb128 0x2a
 13511 18e8 34000000 		.4byte	.LASF491
 13512 18ec 01       		.byte	0x1
 13513 18ed 3903     		.2byte	0x339
 13514 18ef 2B0D0000 		.4byte	0xd2b
 13515 18f3 02       		.uleb128 0x2
 13516 18f4 91       		.byte	0x91
 13517 18f5 74       		.sleb128 -12
 13518 18f6 26       		.uleb128 0x26
 13519 18f7 12000000 		.4byte	.LBB12
 13520 18fb 52000000 		.4byte	.LBE12-.LBB12
 13521 18ff 2A       		.uleb128 0x2a
 13522 1900 38250000 		.4byte	.LASF492
 13523 1904 01       		.byte	0x1
 13524 1905 3C03     		.2byte	0x33c
 13525 1907 81000000 		.4byte	0x81
 13526 190b 02       		.uleb128 0x2
 13527 190c 91       		.byte	0x91
 13528 190d 73       		.sleb128 -13
 13529 190e 2A       		.uleb128 0x2a
 13530 190f B60C0000 		.4byte	.LASF493
 13531 1913 01       		.byte	0x1
 13532 1914 3E03     		.2byte	0x33e
 13533 1916 8C050000 		.4byte	0x58c
 13534 191a 02       		.uleb128 0x2
 13535 191b 91       		.byte	0x91
 13536 191c 6C       		.sleb128 -20
 13537 191d 00       		.byte	0
 13538 191e 00       		.byte	0
 13539 191f 2B       		.uleb128 0x2b
 13540 1920 350E0000 		.4byte	.LASF499
 13541 1924 01       		.byte	0x1
 13542 1925 4C03     		.2byte	0x34c
 13543 1927 00000000 		.4byte	.LFB77
 13544 192b 6A000000 		.4byte	.LFE77-.LFB77
 13545 192f 01       		.uleb128 0x1
 13546 1930 9C       		.byte	0x9c
 13547 1931 7C190000 		.4byte	0x197c
 13548 1935 2C       		.uleb128 0x2c
 13549 1936 1F230000 		.4byte	.LASF476
 13550 193a 01       		.byte	0x1
 13551 193b 4C03     		.2byte	0x34c
 13552 193d 11010000 		.4byte	0x111
 13553 1941 02       		.uleb128 0x2
 13554 1942 91       		.byte	0x91
 13555 1943 64       		.sleb128 -28
 13556 1944 2A       		.uleb128 0x2a
 13557 1945 34000000 		.4byte	.LASF491
 13558 1949 01       		.byte	0x1
 13559 194a 4E03     		.2byte	0x34e
 13560 194c 2B0D0000 		.4byte	0xd2b
 13561 1950 02       		.uleb128 0x2
 13562 1951 91       		.byte	0x91
 13563 1952 74       		.sleb128 -12
ARM GAS  C:\Users\RECEPC~1\AppData\Local\Temp\ccMZb0bC.s 			page 286


 13564 1953 26       		.uleb128 0x26
 13565 1954 12000000 		.4byte	.LBB13
 13566 1958 52000000 		.4byte	.LBE13-.LBB13
 13567 195c 2A       		.uleb128 0x2a
 13568 195d 38250000 		.4byte	.LASF492
 13569 1961 01       		.byte	0x1
 13570 1962 5103     		.2byte	0x351
 13571 1964 81000000 		.4byte	0x81
 13572 1968 02       		.uleb128 0x2
 13573 1969 91       		.byte	0x91
 13574 196a 73       		.sleb128 -13
 13575 196b 2A       		.uleb128 0x2a
 13576 196c B60C0000 		.4byte	.LASF493
 13577 1970 01       		.byte	0x1
 13578 1971 5303     		.2byte	0x353
 13579 1973 8C050000 		.4byte	0x58c
 13580 1977 02       		.uleb128 0x2
 13581 1978 91       		.byte	0x91
 13582 1979 6C       		.sleb128 -20
 13583 197a 00       		.byte	0
 13584 197b 00       		.byte	0
 13585 197c 2B       		.uleb128 0x2b
 13586 197d 371B0000 		.4byte	.LASF500
 13587 1981 01       		.byte	0x1
 13588 1982 6403     		.2byte	0x364
 13589 1984 00000000 		.4byte	.LFB78
 13590 1988 9E030000 		.4byte	.LFE78-.LFB78
 13591 198c 01       		.uleb128 0x1
 13592 198d 9C       		.byte	0x9c
 13593 198e 721A0000 		.4byte	0x1a72
 13594 1992 2C       		.uleb128 0x2c
 13595 1993 1F230000 		.4byte	.LASF476
 13596 1997 01       		.byte	0x1
 13597 1998 6403     		.2byte	0x364
 13598 199a 11010000 		.4byte	0x111
 13599 199e 02       		.uleb128 0x2
 13600 199f 91       		.byte	0x91
 13601 19a0 4C       		.sleb128 -52
 13602 19a1 2A       		.uleb128 0x2a
 13603 19a2 34000000 		.4byte	.LASF491
 13604 19a6 01       		.byte	0x1
 13605 19a7 6603     		.2byte	0x366
 13606 19a9 2B0D0000 		.4byte	0xd2b
 13607 19ad 02       		.uleb128 0x2
 13608 19ae 91       		.byte	0x91
 13609 19af 68       		.sleb128 -24
 13610 19b0 26       		.uleb128 0x26
 13611 19b1 14000000 		.4byte	.LBB14
 13612 19b5 84030000 		.4byte	.LBE14-.LBB14
 13613 19b9 2A       		.uleb128 0x2a
 13614 19ba 38250000 		.4byte	.LASF492
 13615 19be 01       		.byte	0x1
 13616 19bf 6903     		.2byte	0x369
 13617 19c1 81000000 		.4byte	0x81
 13618 19c5 02       		.uleb128 0x2
 13619 19c6 91       		.byte	0x91
 13620 19c7 6F       		.sleb128 -17
ARM GAS  C:\Users\RECEPC~1\AppData\Local\Temp\ccMZb0bC.s 			page 287


 13621 19c8 2A       		.uleb128 0x2a
 13622 19c9 B60C0000 		.4byte	.LASF493
 13623 19cd 01       		.byte	0x1
 13624 19ce 6A03     		.2byte	0x36a
 13625 19d0 8C050000 		.4byte	0x58c
 13626 19d4 02       		.uleb128 0x2
 13627 19d5 91       		.byte	0x91
 13628 19d6 64       		.sleb128 -28
 13629 19d7 29       		.uleb128 0x29
 13630 19d8 5A000000 		.4byte	.LBB15
 13631 19dc A8010000 		.4byte	.LBE15-.LBB15
 13632 19e0 391A0000 		.4byte	0x1a39
 13633 19e4 2A       		.uleb128 0x2a
 13634 19e5 87260000 		.4byte	.LASF501
 13635 19e9 01       		.byte	0x1
 13636 19ea 7203     		.2byte	0x372
 13637 19ec 97000000 		.4byte	0x97
 13638 19f0 02       		.uleb128 0x2
 13639 19f1 91       		.byte	0x91
 13640 19f2 63       		.sleb128 -29
 13641 19f3 28       		.uleb128 0x28
 13642 19f4 70747200 		.ascii	"ptr\000"
 13643 19f8 01       		.byte	0x1
 13644 19f9 8703     		.2byte	0x387
 13645 19fb 3B010000 		.4byte	0x13b
 13646 19ff 02       		.uleb128 0x2
 13647 1a00 91       		.byte	0x91
 13648 1a01 5C       		.sleb128 -36
 13649 1a02 29       		.uleb128 0x29
 13650 1a03 54010000 		.4byte	.LBB16
 13651 1a07 4E000000 		.4byte	.LBE16-.LBB16
 13652 1a0b 1F1A0000 		.4byte	0x1a1f
 13653 1a0f 2A       		.uleb128 0x2a
 13654 1a10 37160000 		.4byte	.LASF502
 13655 1a14 01       		.byte	0x1
 13656 1a15 8C03     		.2byte	0x38c
 13657 1a17 97000000 		.4byte	0x97
 13658 1a1b 02       		.uleb128 0x2
 13659 1a1c 91       		.byte	0x91
 13660 1a1d 6E       		.sleb128 -18
 13661 1a1e 00       		.byte	0
 13662 1a1f 26       		.uleb128 0x26
 13663 1a20 A4010000 		.4byte	.LBB17
 13664 1a24 5E000000 		.4byte	.LBE17-.LBB17
 13665 1a28 2A       		.uleb128 0x2a
 13666 1a29 37160000 		.4byte	.LASF502
 13667 1a2d 01       		.byte	0x1
 13668 1a2e 9403     		.2byte	0x394
 13669 1a30 97000000 		.4byte	0x97
 13670 1a34 02       		.uleb128 0x2
 13671 1a35 91       		.byte	0x91
 13672 1a36 6D       		.sleb128 -19
 13673 1a37 00       		.byte	0
 13674 1a38 00       		.byte	0
 13675 1a39 26       		.uleb128 0x26
 13676 1a3a 04020000 		.4byte	.LBB18
 13677 1a3e 36010000 		.4byte	.LBE18-.LBB18
ARM GAS  C:\Users\RECEPC~1\AppData\Local\Temp\ccMZb0bC.s 			page 288


 13678 1a42 2A       		.uleb128 0x2a
 13679 1a43 87260000 		.4byte	.LASF501
 13680 1a47 01       		.byte	0x1
 13681 1a48 9E03     		.2byte	0x39e
 13682 1a4a 97000000 		.4byte	0x97
 13683 1a4e 02       		.uleb128 0x2
 13684 1a4f 91       		.byte	0x91
 13685 1a50 5B       		.sleb128 -37
 13686 1a51 28       		.uleb128 0x28
 13687 1a52 70747200 		.ascii	"ptr\000"
 13688 1a56 01       		.byte	0x1
 13689 1a57 AC03     		.2byte	0x3ac
 13690 1a59 3B010000 		.4byte	0x13b
 13691 1a5d 02       		.uleb128 0x2
 13692 1a5e 91       		.byte	0x91
 13693 1a5f 54       		.sleb128 -44
 13694 1a60 2A       		.uleb128 0x2a
 13695 1a61 37160000 		.4byte	.LASF502
 13696 1a65 01       		.byte	0x1
 13697 1a66 B203     		.2byte	0x3b2
 13698 1a68 97000000 		.4byte	0x97
 13699 1a6c 02       		.uleb128 0x2
 13700 1a6d 91       		.byte	0x91
 13701 1a6e 6C       		.sleb128 -20
 13702 1a6f 00       		.byte	0
 13703 1a70 00       		.byte	0
 13704 1a71 00       		.byte	0
 13705 1a72 2B       		.uleb128 0x2b
 13706 1a73 AD080000 		.4byte	.LASF503
 13707 1a77 01       		.byte	0x1
 13708 1a78 CD03     		.2byte	0x3cd
 13709 1a7a 00000000 		.4byte	.LFB79
 13710 1a7e 58030000 		.4byte	.LFE79-.LFB79
 13711 1a82 01       		.uleb128 0x1
 13712 1a83 9C       		.byte	0x9c
 13713 1a84 681B0000 		.4byte	0x1b68
 13714 1a88 2C       		.uleb128 0x2c
 13715 1a89 1F230000 		.4byte	.LASF476
 13716 1a8d 01       		.byte	0x1
 13717 1a8e CD03     		.2byte	0x3cd
 13718 1a90 11010000 		.4byte	0x111
 13719 1a94 02       		.uleb128 0x2
 13720 1a95 91       		.byte	0x91
 13721 1a96 4C       		.sleb128 -52
 13722 1a97 2A       		.uleb128 0x2a
 13723 1a98 34000000 		.4byte	.LASF491
 13724 1a9c 01       		.byte	0x1
 13725 1a9d CF03     		.2byte	0x3cf
 13726 1a9f 2B0D0000 		.4byte	0xd2b
 13727 1aa3 02       		.uleb128 0x2
 13728 1aa4 91       		.byte	0x91
 13729 1aa5 68       		.sleb128 -24
 13730 1aa6 26       		.uleb128 0x26
 13731 1aa7 14000000 		.4byte	.LBB19
 13732 1aab 3A030000 		.4byte	.LBE19-.LBB19
 13733 1aaf 2A       		.uleb128 0x2a
 13734 1ab0 38250000 		.4byte	.LASF492
ARM GAS  C:\Users\RECEPC~1\AppData\Local\Temp\ccMZb0bC.s 			page 289


 13735 1ab4 01       		.byte	0x1
 13736 1ab5 D203     		.2byte	0x3d2
 13737 1ab7 81000000 		.4byte	0x81
 13738 1abb 02       		.uleb128 0x2
 13739 1abc 91       		.byte	0x91
 13740 1abd 6F       		.sleb128 -17
 13741 1abe 2A       		.uleb128 0x2a
 13742 1abf B60C0000 		.4byte	.LASF493
 13743 1ac3 01       		.byte	0x1
 13744 1ac4 D303     		.2byte	0x3d3
 13745 1ac6 8C050000 		.4byte	0x58c
 13746 1aca 02       		.uleb128 0x2
 13747 1acb 91       		.byte	0x91
 13748 1acc 64       		.sleb128 -28
 13749 1acd 29       		.uleb128 0x29
 13750 1ace 5A000000 		.4byte	.LBB20
 13751 1ad2 88010000 		.4byte	.LBE20-.LBB20
 13752 1ad6 2F1B0000 		.4byte	0x1b2f
 13753 1ada 2A       		.uleb128 0x2a
 13754 1adb 87260000 		.4byte	.LASF501
 13755 1adf 01       		.byte	0x1
 13756 1ae0 DB03     		.2byte	0x3db
 13757 1ae2 97000000 		.4byte	0x97
 13758 1ae6 02       		.uleb128 0x2
 13759 1ae7 91       		.byte	0x91
 13760 1ae8 63       		.sleb128 -29
 13761 1ae9 28       		.uleb128 0x28
 13762 1aea 70747200 		.ascii	"ptr\000"
 13763 1aee 01       		.byte	0x1
 13764 1aef EF03     		.2byte	0x3ef
 13765 1af1 3B010000 		.4byte	0x13b
 13766 1af5 02       		.uleb128 0x2
 13767 1af6 91       		.byte	0x91
 13768 1af7 5C       		.sleb128 -36
 13769 1af8 29       		.uleb128 0x29
 13770 1af9 28010000 		.4byte	.LBB21
 13771 1afd 54000000 		.4byte	.LBE21-.LBB21
 13772 1b01 151B0000 		.4byte	0x1b15
 13773 1b05 2A       		.uleb128 0x2a
 13774 1b06 37160000 		.4byte	.LASF502
 13775 1b0a 01       		.byte	0x1
 13776 1b0b F403     		.2byte	0x3f4
 13777 1b0d 97000000 		.4byte	0x97
 13778 1b11 02       		.uleb128 0x2
 13779 1b12 91       		.byte	0x91
 13780 1b13 6E       		.sleb128 -18
 13781 1b14 00       		.byte	0
 13782 1b15 26       		.uleb128 0x26
 13783 1b16 7E010000 		.4byte	.LBB22
 13784 1b1a 64000000 		.4byte	.LBE22-.LBB22
 13785 1b1e 2A       		.uleb128 0x2a
 13786 1b1f 37160000 		.4byte	.LASF502
 13787 1b23 01       		.byte	0x1
 13788 1b24 FC03     		.2byte	0x3fc
 13789 1b26 97000000 		.4byte	0x97
 13790 1b2a 02       		.uleb128 0x2
 13791 1b2b 91       		.byte	0x91
ARM GAS  C:\Users\RECEPC~1\AppData\Local\Temp\ccMZb0bC.s 			page 290


 13792 1b2c 6D       		.sleb128 -19
 13793 1b2d 00       		.byte	0
 13794 1b2e 00       		.byte	0
 13795 1b2f 26       		.uleb128 0x26
 13796 1b30 E4010000 		.4byte	.LBB23
 13797 1b34 0C010000 		.4byte	.LBE23-.LBB23
 13798 1b38 2A       		.uleb128 0x2a
 13799 1b39 87260000 		.4byte	.LASF501
 13800 1b3d 01       		.byte	0x1
 13801 1b3e 0604     		.2byte	0x406
 13802 1b40 97000000 		.4byte	0x97
 13803 1b44 02       		.uleb128 0x2
 13804 1b45 91       		.byte	0x91
 13805 1b46 5B       		.sleb128 -37
 13806 1b47 28       		.uleb128 0x28
 13807 1b48 70747200 		.ascii	"ptr\000"
 13808 1b4c 01       		.byte	0x1
 13809 1b4d 1304     		.2byte	0x413
 13810 1b4f 3B010000 		.4byte	0x13b
 13811 1b53 02       		.uleb128 0x2
 13812 1b54 91       		.byte	0x91
 13813 1b55 54       		.sleb128 -44
 13814 1b56 2A       		.uleb128 0x2a
 13815 1b57 37160000 		.4byte	.LASF502
 13816 1b5b 01       		.byte	0x1
 13817 1b5c 1904     		.2byte	0x419
 13818 1b5e 97000000 		.4byte	0x97
 13819 1b62 02       		.uleb128 0x2
 13820 1b63 91       		.byte	0x91
 13821 1b64 6C       		.sleb128 -20
 13822 1b65 00       		.byte	0
 13823 1b66 00       		.byte	0
 13824 1b67 00       		.byte	0
 13825 1b68 2B       		.uleb128 0x2b
 13826 1b69 76030000 		.4byte	.LASF504
 13827 1b6d 01       		.byte	0x1
 13828 1b6e 3204     		.2byte	0x432
 13829 1b70 00000000 		.4byte	.LFB80
 13830 1b74 BC020000 		.4byte	.LFE80-.LFB80
 13831 1b78 01       		.uleb128 0x1
 13832 1b79 9C       		.byte	0x9c
 13833 1b7a 5E1C0000 		.4byte	0x1c5e
 13834 1b7e 2C       		.uleb128 0x2c
 13835 1b7f 1F230000 		.4byte	.LASF476
 13836 1b83 01       		.byte	0x1
 13837 1b84 3204     		.2byte	0x432
 13838 1b86 11010000 		.4byte	0x111
 13839 1b8a 02       		.uleb128 0x2
 13840 1b8b 91       		.byte	0x91
 13841 1b8c 4C       		.sleb128 -52
 13842 1b8d 2A       		.uleb128 0x2a
 13843 1b8e 34000000 		.4byte	.LASF491
 13844 1b92 01       		.byte	0x1
 13845 1b93 3404     		.2byte	0x434
 13846 1b95 2B0D0000 		.4byte	0xd2b
 13847 1b99 02       		.uleb128 0x2
 13848 1b9a 91       		.byte	0x91
ARM GAS  C:\Users\RECEPC~1\AppData\Local\Temp\ccMZb0bC.s 			page 291


 13849 1b9b 68       		.sleb128 -24
 13850 1b9c 26       		.uleb128 0x26
 13851 1b9d 14000000 		.4byte	.LBB24
 13852 1ba1 9E020000 		.4byte	.LBE24-.LBB24
 13853 1ba5 2A       		.uleb128 0x2a
 13854 1ba6 38250000 		.4byte	.LASF492
 13855 1baa 01       		.byte	0x1
 13856 1bab 3704     		.2byte	0x437
 13857 1bad 81000000 		.4byte	0x81
 13858 1bb1 02       		.uleb128 0x2
 13859 1bb2 91       		.byte	0x91
 13860 1bb3 6F       		.sleb128 -17
 13861 1bb4 2A       		.uleb128 0x2a
 13862 1bb5 B60C0000 		.4byte	.LASF493
 13863 1bb9 01       		.byte	0x1
 13864 1bba 3904     		.2byte	0x439
 13865 1bbc 8C050000 		.4byte	0x58c
 13866 1bc0 02       		.uleb128 0x2
 13867 1bc1 91       		.byte	0x91
 13868 1bc2 64       		.sleb128 -28
 13869 1bc3 29       		.uleb128 0x29
 13870 1bc4 5A000000 		.4byte	.LBB25
 13871 1bc8 30010000 		.4byte	.LBE25-.LBB25
 13872 1bcc 251C0000 		.4byte	0x1c25
 13873 1bd0 2A       		.uleb128 0x2a
 13874 1bd1 87260000 		.4byte	.LASF501
 13875 1bd5 01       		.byte	0x1
 13876 1bd6 4004     		.2byte	0x440
 13877 1bd8 97000000 		.4byte	0x97
 13878 1bdc 02       		.uleb128 0x2
 13879 1bdd 91       		.byte	0x91
 13880 1bde 63       		.sleb128 -29
 13881 1bdf 28       		.uleb128 0x28
 13882 1be0 70747200 		.ascii	"ptr\000"
 13883 1be4 01       		.byte	0x1
 13884 1be5 4E04     		.2byte	0x44e
 13885 1be7 3B010000 		.4byte	0x13b
 13886 1beb 02       		.uleb128 0x2
 13887 1bec 91       		.byte	0x91
 13888 1bed 5C       		.sleb128 -36
 13889 1bee 29       		.uleb128 0x29
 13890 1bef D0000000 		.4byte	.LBB26
 13891 1bf3 54000000 		.4byte	.LBE26-.LBB26
 13892 1bf7 0B1C0000 		.4byte	0x1c0b
 13893 1bfb 2A       		.uleb128 0x2a
 13894 1bfc 37160000 		.4byte	.LASF502
 13895 1c00 01       		.byte	0x1
 13896 1c01 5304     		.2byte	0x453
 13897 1c03 97000000 		.4byte	0x97
 13898 1c07 02       		.uleb128 0x2
 13899 1c08 91       		.byte	0x91
 13900 1c09 6E       		.sleb128 -18
 13901 1c0a 00       		.byte	0
 13902 1c0b 26       		.uleb128 0x26
 13903 1c0c 26010000 		.4byte	.LBB27
 13904 1c10 64000000 		.4byte	.LBE27-.LBB27
 13905 1c14 2A       		.uleb128 0x2a
ARM GAS  C:\Users\RECEPC~1\AppData\Local\Temp\ccMZb0bC.s 			page 292


 13906 1c15 37160000 		.4byte	.LASF502
 13907 1c19 01       		.byte	0x1
 13908 1c1a 5B04     		.2byte	0x45b
 13909 1c1c 97000000 		.4byte	0x97
 13910 1c20 02       		.uleb128 0x2
 13911 1c21 91       		.byte	0x91
 13912 1c22 6D       		.sleb128 -19
 13913 1c23 00       		.byte	0
 13914 1c24 00       		.byte	0
 13915 1c25 26       		.uleb128 0x26
 13916 1c26 8C010000 		.4byte	.LBB28
 13917 1c2a C8000000 		.4byte	.LBE28-.LBB28
 13918 1c2e 2A       		.uleb128 0x2a
 13919 1c2f 87260000 		.4byte	.LASF501
 13920 1c33 01       		.byte	0x1
 13921 1c34 6504     		.2byte	0x465
 13922 1c36 97000000 		.4byte	0x97
 13923 1c3a 02       		.uleb128 0x2
 13924 1c3b 91       		.byte	0x91
 13925 1c3c 5B       		.sleb128 -37
 13926 1c3d 28       		.uleb128 0x28
 13927 1c3e 70747200 		.ascii	"ptr\000"
 13928 1c42 01       		.byte	0x1
 13929 1c43 6C04     		.2byte	0x46c
 13930 1c45 3B010000 		.4byte	0x13b
 13931 1c49 02       		.uleb128 0x2
 13932 1c4a 91       		.byte	0x91
 13933 1c4b 54       		.sleb128 -44
 13934 1c4c 2A       		.uleb128 0x2a
 13935 1c4d 37160000 		.4byte	.LASF502
 13936 1c51 01       		.byte	0x1
 13937 1c52 7204     		.2byte	0x472
 13938 1c54 97000000 		.4byte	0x97
 13939 1c58 02       		.uleb128 0x2
 13940 1c59 91       		.byte	0x91
 13941 1c5a 6C       		.sleb128 -20
 13942 1c5b 00       		.byte	0
 13943 1c5c 00       		.byte	0
 13944 1c5d 00       		.byte	0
 13945 1c5e 2B       		.uleb128 0x2b
 13946 1c5f 2E0F0000 		.4byte	.LASF505
 13947 1c63 01       		.byte	0x1
 13948 1c64 8504     		.2byte	0x485
 13949 1c66 00000000 		.4byte	.LFB81
 13950 1c6a B6010000 		.4byte	.LFE81-.LFB81
 13951 1c6e 01       		.uleb128 0x1
 13952 1c6f 9C       		.byte	0x9c
 13953 1c70 D41C0000 		.4byte	0x1cd4
 13954 1c74 2C       		.uleb128 0x2c
 13955 1c75 1F230000 		.4byte	.LASF476
 13956 1c79 01       		.byte	0x1
 13957 1c7a 8504     		.2byte	0x485
 13958 1c7c 30010000 		.4byte	0x130
 13959 1c80 02       		.uleb128 0x2
 13960 1c81 91       		.byte	0x91
 13961 1c82 5C       		.sleb128 -36
 13962 1c83 2A       		.uleb128 0x2a
ARM GAS  C:\Users\RECEPC~1\AppData\Local\Temp\ccMZb0bC.s 			page 293


 13963 1c84 021F0000 		.4byte	.LASF472
 13964 1c88 01       		.byte	0x1
 13965 1c89 8704     		.2byte	0x487
 13966 1c8b 730F0000 		.4byte	0xf73
 13967 1c8f 02       		.uleb128 0x2
 13968 1c90 91       		.byte	0x91
 13969 1c91 6C       		.sleb128 -20
 13970 1c92 26       		.uleb128 0x26
 13971 1c93 14000000 		.4byte	.LBB29
 13972 1c97 9C010000 		.4byte	.LBE29-.LBB29
 13973 1c9b 28       		.uleb128 0x28
 13974 1c9c 70747300 		.ascii	"pts\000"
 13975 1ca0 01       		.byte	0x1
 13976 1ca1 8E04     		.2byte	0x48e
 13977 1ca3 96090000 		.4byte	0x996
 13978 1ca7 02       		.uleb128 0x2
 13979 1ca8 91       		.byte	0x91
 13980 1ca9 68       		.sleb128 -24
 13981 1caa 26       		.uleb128 0x26
 13982 1cab 4E000000 		.4byte	.LBB30
 13983 1caf 62010000 		.4byte	.LBE30-.LBB30
 13984 1cb3 2A       		.uleb128 0x2a
 13985 1cb4 38250000 		.4byte	.LASF492
 13986 1cb8 01       		.byte	0x1
 13987 1cb9 9204     		.2byte	0x492
 13988 1cbb 97000000 		.4byte	0x97
 13989 1cbf 02       		.uleb128 0x2
 13990 1cc0 91       		.byte	0x91
 13991 1cc1 67       		.sleb128 -25
 13992 1cc2 2A       		.uleb128 0x2a
 13993 1cc3 5D150000 		.4byte	.LASF486
 13994 1cc7 01       		.byte	0x1
 13995 1cc8 A704     		.2byte	0x4a7
 13996 1cca 96090000 		.4byte	0x996
 13997 1cce 02       		.uleb128 0x2
 13998 1ccf 91       		.byte	0x91
 13999 1cd0 60       		.sleb128 -32
 14000 1cd1 00       		.byte	0
 14001 1cd2 00       		.byte	0
 14002 1cd3 00       		.byte	0
 14003 1cd4 2B       		.uleb128 0x2b
 14004 1cd5 601D0000 		.4byte	.LASF506
 14005 1cd9 01       		.byte	0x1
 14006 1cda B804     		.2byte	0x4b8
 14007 1cdc 00000000 		.4byte	.LFB82
 14008 1ce0 E8000000 		.4byte	.LFE82-.LFB82
 14009 1ce4 01       		.uleb128 0x1
 14010 1ce5 9C       		.byte	0x9c
 14011 1ce6 4A1D0000 		.4byte	0x1d4a
 14012 1cea 2C       		.uleb128 0x2c
 14013 1ceb 1F230000 		.4byte	.LASF476
 14014 1cef 01       		.byte	0x1
 14015 1cf0 B804     		.2byte	0x4b8
 14016 1cf2 30010000 		.4byte	0x130
 14017 1cf6 02       		.uleb128 0x2
 14018 1cf7 91       		.byte	0x91
 14019 1cf8 64       		.sleb128 -28
ARM GAS  C:\Users\RECEPC~1\AppData\Local\Temp\ccMZb0bC.s 			page 294


 14020 1cf9 2A       		.uleb128 0x2a
 14021 1cfa 021F0000 		.4byte	.LASF472
 14022 1cfe 01       		.byte	0x1
 14023 1cff BA04     		.2byte	0x4ba
 14024 1d01 730F0000 		.4byte	0xf73
 14025 1d05 02       		.uleb128 0x2
 14026 1d06 91       		.byte	0x91
 14027 1d07 74       		.sleb128 -12
 14028 1d08 26       		.uleb128 0x26
 14029 1d09 12000000 		.4byte	.LBB31
 14030 1d0d D0000000 		.4byte	.LBE31-.LBB31
 14031 1d11 28       		.uleb128 0x28
 14032 1d12 70747300 		.ascii	"pts\000"
 14033 1d16 01       		.byte	0x1
 14034 1d17 C104     		.2byte	0x4c1
 14035 1d19 96090000 		.4byte	0x996
 14036 1d1d 02       		.uleb128 0x2
 14037 1d1e 91       		.byte	0x91
 14038 1d1f 70       		.sleb128 -16
 14039 1d20 26       		.uleb128 0x26
 14040 1d21 4A000000 		.4byte	.LBB32
 14041 1d25 98000000 		.4byte	.LBE32-.LBB32
 14042 1d29 2A       		.uleb128 0x2a
 14043 1d2a 38250000 		.4byte	.LASF492
 14044 1d2e 01       		.byte	0x1
 14045 1d2f C504     		.2byte	0x4c5
 14046 1d31 97000000 		.4byte	0x97
 14047 1d35 02       		.uleb128 0x2
 14048 1d36 91       		.byte	0x91
 14049 1d37 6F       		.sleb128 -17
 14050 1d38 2A       		.uleb128 0x2a
 14051 1d39 5D150000 		.4byte	.LASF486
 14052 1d3d 01       		.byte	0x1
 14053 1d3e CB04     		.2byte	0x4cb
 14054 1d40 96090000 		.4byte	0x996
 14055 1d44 02       		.uleb128 0x2
 14056 1d45 91       		.byte	0x91
 14057 1d46 68       		.sleb128 -24
 14058 1d47 00       		.byte	0
 14059 1d48 00       		.byte	0
 14060 1d49 00       		.byte	0
 14061 1d4a 2B       		.uleb128 0x2b
 14062 1d4b AD250000 		.4byte	.LASF507
 14063 1d4f 01       		.byte	0x1
 14064 1d50 E204     		.2byte	0x4e2
 14065 1d52 00000000 		.4byte	.LFB83
 14066 1d56 1C030000 		.4byte	.LFE83-.LFB83
 14067 1d5a 01       		.uleb128 0x1
 14068 1d5b 9C       		.byte	0x9c
 14069 1d5c 191E0000 		.4byte	0x1e19
 14070 1d60 2C       		.uleb128 0x2c
 14071 1d61 1F230000 		.4byte	.LASF476
 14072 1d65 01       		.byte	0x1
 14073 1d66 E204     		.2byte	0x4e2
 14074 1d68 11010000 		.4byte	0x111
 14075 1d6c 02       		.uleb128 0x2
 14076 1d6d 91       		.byte	0x91
ARM GAS  C:\Users\RECEPC~1\AppData\Local\Temp\ccMZb0bC.s 			page 295


 14077 1d6e 4C       		.sleb128 -52
 14078 1d6f 2A       		.uleb128 0x2a
 14079 1d70 34000000 		.4byte	.LASF491
 14080 1d74 01       		.byte	0x1
 14081 1d75 E404     		.2byte	0x4e4
 14082 1d77 2B0D0000 		.4byte	0xd2b
 14083 1d7b 02       		.uleb128 0x2
 14084 1d7c 91       		.byte	0x91
 14085 1d7d 68       		.sleb128 -24
 14086 1d7e 26       		.uleb128 0x26
 14087 1d7f 14000000 		.4byte	.LBB33
 14088 1d83 FE020000 		.4byte	.LBE33-.LBB33
 14089 1d87 2A       		.uleb128 0x2a
 14090 1d88 38250000 		.4byte	.LASF492
 14091 1d8c 01       		.byte	0x1
 14092 1d8d E704     		.2byte	0x4e7
 14093 1d8f 81000000 		.4byte	0x81
 14094 1d93 02       		.uleb128 0x2
 14095 1d94 91       		.byte	0x91
 14096 1d95 6F       		.sleb128 -17
 14097 1d96 2A       		.uleb128 0x2a
 14098 1d97 B60C0000 		.4byte	.LASF493
 14099 1d9b 01       		.byte	0x1
 14100 1d9c E804     		.2byte	0x4e8
 14101 1d9e 8C050000 		.4byte	0x58c
 14102 1da2 02       		.uleb128 0x2
 14103 1da3 91       		.byte	0x91
 14104 1da4 64       		.sleb128 -28
 14105 1da5 29       		.uleb128 0x29
 14106 1da6 5A000000 		.4byte	.LBB34
 14107 1daa 2C010000 		.4byte	.LBE34-.LBB34
 14108 1dae E01D0000 		.4byte	0x1de0
 14109 1db2 2A       		.uleb128 0x2a
 14110 1db3 87260000 		.4byte	.LASF501
 14111 1db7 01       		.byte	0x1
 14112 1db8 F404     		.2byte	0x4f4
 14113 1dba 97000000 		.4byte	0x97
 14114 1dbe 02       		.uleb128 0x2
 14115 1dbf 91       		.byte	0x91
 14116 1dc0 63       		.sleb128 -29
 14117 1dc1 28       		.uleb128 0x28
 14118 1dc2 70747200 		.ascii	"ptr\000"
 14119 1dc6 01       		.byte	0x1
 14120 1dc7 0005     		.2byte	0x500
 14121 1dc9 3B010000 		.4byte	0x13b
 14122 1dcd 02       		.uleb128 0x2
 14123 1dce 91       		.byte	0x91
 14124 1dcf 5C       		.sleb128 -36
 14125 1dd0 2A       		.uleb128 0x2a
 14126 1dd1 37160000 		.4byte	.LASF502
 14127 1dd5 01       		.byte	0x1
 14128 1dd6 0905     		.2byte	0x509
 14129 1dd8 97000000 		.4byte	0x97
 14130 1ddc 02       		.uleb128 0x2
 14131 1ddd 91       		.byte	0x91
 14132 1dde 6E       		.sleb128 -18
 14133 1ddf 00       		.byte	0
ARM GAS  C:\Users\RECEPC~1\AppData\Local\Temp\ccMZb0bC.s 			page 296


 14134 1de0 26       		.uleb128 0x26
 14135 1de1 88010000 		.4byte	.LBB35
 14136 1de5 2C010000 		.4byte	.LBE35-.LBB35
 14137 1de9 2A       		.uleb128 0x2a
 14138 1dea 87260000 		.4byte	.LASF501
 14139 1dee 01       		.byte	0x1
 14140 1def 1305     		.2byte	0x513
 14141 1df1 97000000 		.4byte	0x97
 14142 1df5 02       		.uleb128 0x2
 14143 1df6 91       		.byte	0x91
 14144 1df7 5B       		.sleb128 -37
 14145 1df8 28       		.uleb128 0x28
 14146 1df9 70747200 		.ascii	"ptr\000"
 14147 1dfd 01       		.byte	0x1
 14148 1dfe 1F05     		.2byte	0x51f
 14149 1e00 3B010000 		.4byte	0x13b
 14150 1e04 02       		.uleb128 0x2
 14151 1e05 91       		.byte	0x91
 14152 1e06 54       		.sleb128 -44
 14153 1e07 2A       		.uleb128 0x2a
 14154 1e08 37160000 		.4byte	.LASF502
 14155 1e0c 01       		.byte	0x1
 14156 1e0d 2805     		.2byte	0x528
 14157 1e0f 97000000 		.4byte	0x97
 14158 1e13 02       		.uleb128 0x2
 14159 1e14 91       		.byte	0x91
 14160 1e15 6D       		.sleb128 -19
 14161 1e16 00       		.byte	0
 14162 1e17 00       		.byte	0
 14163 1e18 00       		.byte	0
 14164 1e19 2B       		.uleb128 0x2b
 14165 1e1a AE0A0000 		.4byte	.LASF508
 14166 1e1e 01       		.byte	0x1
 14167 1e1f 4305     		.2byte	0x543
 14168 1e21 00000000 		.4byte	.LFB84
 14169 1e25 74020000 		.4byte	.LFE84-.LFB84
 14170 1e29 01       		.uleb128 0x1
 14171 1e2a 9C       		.byte	0x9c
 14172 1e2b E81E0000 		.4byte	0x1ee8
 14173 1e2f 2C       		.uleb128 0x2c
 14174 1e30 1F230000 		.4byte	.LASF476
 14175 1e34 01       		.byte	0x1
 14176 1e35 4305     		.2byte	0x543
 14177 1e37 11010000 		.4byte	0x111
 14178 1e3b 02       		.uleb128 0x2
 14179 1e3c 91       		.byte	0x91
 14180 1e3d 4C       		.sleb128 -52
 14181 1e3e 2A       		.uleb128 0x2a
 14182 1e3f 34000000 		.4byte	.LASF491
 14183 1e43 01       		.byte	0x1
 14184 1e44 4505     		.2byte	0x545
 14185 1e46 2B0D0000 		.4byte	0xd2b
 14186 1e4a 02       		.uleb128 0x2
 14187 1e4b 91       		.byte	0x91
 14188 1e4c 68       		.sleb128 -24
 14189 1e4d 26       		.uleb128 0x26
 14190 1e4e 14000000 		.4byte	.LBB36
ARM GAS  C:\Users\RECEPC~1\AppData\Local\Temp\ccMZb0bC.s 			page 297


 14191 1e52 54020000 		.4byte	.LBE36-.LBB36
 14192 1e56 2A       		.uleb128 0x2a
 14193 1e57 38250000 		.4byte	.LASF492
 14194 1e5b 01       		.byte	0x1
 14195 1e5c 4805     		.2byte	0x548
 14196 1e5e 81000000 		.4byte	0x81
 14197 1e62 02       		.uleb128 0x2
 14198 1e63 91       		.byte	0x91
 14199 1e64 6F       		.sleb128 -17
 14200 1e65 2A       		.uleb128 0x2a
 14201 1e66 B60C0000 		.4byte	.LASF493
 14202 1e6a 01       		.byte	0x1
 14203 1e6b 4905     		.2byte	0x549
 14204 1e6d 8C050000 		.4byte	0x58c
 14205 1e71 02       		.uleb128 0x2
 14206 1e72 91       		.byte	0x91
 14207 1e73 64       		.sleb128 -28
 14208 1e74 29       		.uleb128 0x29
 14209 1e75 60000000 		.4byte	.LBB37
 14210 1e79 D4000000 		.4byte	.LBE37-.LBB37
 14211 1e7d AF1E0000 		.4byte	0x1eaf
 14212 1e81 2A       		.uleb128 0x2a
 14213 1e82 87260000 		.4byte	.LASF501
 14214 1e86 01       		.byte	0x1
 14215 1e87 5705     		.2byte	0x557
 14216 1e89 97000000 		.4byte	0x97
 14217 1e8d 02       		.uleb128 0x2
 14218 1e8e 91       		.byte	0x91
 14219 1e8f 63       		.sleb128 -29
 14220 1e90 28       		.uleb128 0x28
 14221 1e91 70747200 		.ascii	"ptr\000"
 14222 1e95 01       		.byte	0x1
 14223 1e96 5E05     		.2byte	0x55e
 14224 1e98 3B010000 		.4byte	0x13b
 14225 1e9c 02       		.uleb128 0x2
 14226 1e9d 91       		.byte	0x91
 14227 1e9e 5C       		.sleb128 -36
 14228 1e9f 2A       		.uleb128 0x2a
 14229 1ea0 37160000 		.4byte	.LASF502
 14230 1ea4 01       		.byte	0x1
 14231 1ea5 6805     		.2byte	0x568
 14232 1ea7 97000000 		.4byte	0x97
 14233 1eab 02       		.uleb128 0x2
 14234 1eac 91       		.byte	0x91
 14235 1ead 6E       		.sleb128 -18
 14236 1eae 00       		.byte	0
 14237 1eaf 26       		.uleb128 0x26
 14238 1eb0 36010000 		.4byte	.LBB38
 14239 1eb4 D4000000 		.4byte	.LBE38-.LBB38
 14240 1eb8 2A       		.uleb128 0x2a
 14241 1eb9 87260000 		.4byte	.LASF501
 14242 1ebd 01       		.byte	0x1
 14243 1ebe 7205     		.2byte	0x572
 14244 1ec0 97000000 		.4byte	0x97
 14245 1ec4 02       		.uleb128 0x2
 14246 1ec5 91       		.byte	0x91
 14247 1ec6 5B       		.sleb128 -37
ARM GAS  C:\Users\RECEPC~1\AppData\Local\Temp\ccMZb0bC.s 			page 298


 14248 1ec7 28       		.uleb128 0x28
 14249 1ec8 70747200 		.ascii	"ptr\000"
 14250 1ecc 01       		.byte	0x1
 14251 1ecd 7905     		.2byte	0x579
 14252 1ecf 3B010000 		.4byte	0x13b
 14253 1ed3 02       		.uleb128 0x2
 14254 1ed4 91       		.byte	0x91
 14255 1ed5 54       		.sleb128 -44
 14256 1ed6 2A       		.uleb128 0x2a
 14257 1ed7 37160000 		.4byte	.LASF502
 14258 1edb 01       		.byte	0x1
 14259 1edc 8305     		.2byte	0x583
 14260 1ede 97000000 		.4byte	0x97
 14261 1ee2 02       		.uleb128 0x2
 14262 1ee3 91       		.byte	0x91
 14263 1ee4 6D       		.sleb128 -19
 14264 1ee5 00       		.byte	0
 14265 1ee6 00       		.byte	0
 14266 1ee7 00       		.byte	0
 14267 1ee8 2B       		.uleb128 0x2b
 14268 1ee9 17070000 		.4byte	.LASF509
 14269 1eed 01       		.byte	0x1
 14270 1eee 9C05     		.2byte	0x59c
 14271 1ef0 00000000 		.4byte	.LFB85
 14272 1ef4 C4020000 		.4byte	.LFE85-.LFB85
 14273 1ef8 01       		.uleb128 0x1
 14274 1ef9 9C       		.byte	0x9c
 14275 1efa B21F0000 		.4byte	0x1fb2
 14276 1efe 2C       		.uleb128 0x2c
 14277 1eff 1F230000 		.4byte	.LASF476
 14278 1f03 01       		.byte	0x1
 14279 1f04 9C05     		.2byte	0x59c
 14280 1f06 11010000 		.4byte	0x111
 14281 1f0a 02       		.uleb128 0x2
 14282 1f0b 91       		.byte	0x91
 14283 1f0c 54       		.sleb128 -44
 14284 1f0d 2A       		.uleb128 0x2a
 14285 1f0e 34000000 		.4byte	.LASF491
 14286 1f12 01       		.byte	0x1
 14287 1f13 9E05     		.2byte	0x59e
 14288 1f15 2B0D0000 		.4byte	0xd2b
 14289 1f19 02       		.uleb128 0x2
 14290 1f1a 91       		.byte	0x91
 14291 1f1b 68       		.sleb128 -24
 14292 1f1c 26       		.uleb128 0x26
 14293 1f1d 14000000 		.4byte	.LBB39
 14294 1f21 A4020000 		.4byte	.LBE39-.LBB39
 14295 1f25 2A       		.uleb128 0x2a
 14296 1f26 38250000 		.4byte	.LASF492
 14297 1f2a 01       		.byte	0x1
 14298 1f2b A105     		.2byte	0x5a1
 14299 1f2d 81000000 		.4byte	0x81
 14300 1f31 02       		.uleb128 0x2
 14301 1f32 91       		.byte	0x91
 14302 1f33 6F       		.sleb128 -17
 14303 1f34 2A       		.uleb128 0x2a
 14304 1f35 B60C0000 		.4byte	.LASF493
ARM GAS  C:\Users\RECEPC~1\AppData\Local\Temp\ccMZb0bC.s 			page 299


 14305 1f39 01       		.byte	0x1
 14306 1f3a A305     		.2byte	0x5a3
 14307 1f3c 8C050000 		.4byte	0x58c
 14308 1f40 02       		.uleb128 0x2
 14309 1f41 91       		.byte	0x91
 14310 1f42 64       		.sleb128 -28
 14311 1f43 26       		.uleb128 0x26
 14312 1f44 3A000000 		.4byte	.LBB40
 14313 1f48 7E020000 		.4byte	.LBE40-.LBB40
 14314 1f4c 2A       		.uleb128 0x2a
 14315 1f4d E50C0000 		.4byte	.LASF481
 14316 1f51 01       		.byte	0x1
 14317 1f52 B505     		.2byte	0x5b5
 14318 1f54 A3000000 		.4byte	0xa3
 14319 1f58 02       		.uleb128 0x2
 14320 1f59 91       		.byte	0x91
 14321 1f5a 62       		.sleb128 -30
 14322 1f5b 2A       		.uleb128 0x2a
 14323 1f5c 5B120000 		.4byte	.LASF510
 14324 1f60 01       		.byte	0x1
 14325 1f61 D005     		.2byte	0x5d0
 14326 1f63 97000000 		.4byte	0x97
 14327 1f67 02       		.uleb128 0x2
 14328 1f68 91       		.byte	0x91
 14329 1f69 61       		.sleb128 -31
 14330 1f6a 28       		.uleb128 0x28
 14331 1f6b 70747200 		.ascii	"ptr\000"
 14332 1f6f 01       		.byte	0x1
 14333 1f70 D105     		.2byte	0x5d1
 14334 1f72 3B010000 		.4byte	0x13b
 14335 1f76 02       		.uleb128 0x2
 14336 1f77 91       		.byte	0x91
 14337 1f78 5C       		.sleb128 -36
 14338 1f79 29       		.uleb128 0x29
 14339 1f7a D6010000 		.4byte	.LBB41
 14340 1f7e 34000000 		.4byte	.LBE41-.LBB41
 14341 1f82 961F0000 		.4byte	0x1f96
 14342 1f86 2A       		.uleb128 0x2a
 14343 1f87 37160000 		.4byte	.LASF502
 14344 1f8b 01       		.byte	0x1
 14345 1f8c D505     		.2byte	0x5d5
 14346 1f8e 97000000 		.4byte	0x97
 14347 1f92 02       		.uleb128 0x2
 14348 1f93 91       		.byte	0x91
 14349 1f94 6E       		.sleb128 -18
 14350 1f95 00       		.byte	0
 14351 1f96 26       		.uleb128 0x26
 14352 1f97 0C020000 		.4byte	.LBB42
 14353 1f9b 34000000 		.4byte	.LBE42-.LBB42
 14354 1f9f 2A       		.uleb128 0x2a
 14355 1fa0 37160000 		.4byte	.LASF502
 14356 1fa4 01       		.byte	0x1
 14357 1fa5 DA05     		.2byte	0x5da
 14358 1fa7 97000000 		.4byte	0x97
 14359 1fab 02       		.uleb128 0x2
 14360 1fac 91       		.byte	0x91
 14361 1fad 6D       		.sleb128 -19
ARM GAS  C:\Users\RECEPC~1\AppData\Local\Temp\ccMZb0bC.s 			page 300


 14362 1fae 00       		.byte	0
 14363 1faf 00       		.byte	0
 14364 1fb0 00       		.byte	0
 14365 1fb1 00       		.byte	0
 14366 1fb2 2B       		.uleb128 0x2b
 14367 1fb3 C1190000 		.4byte	.LASF511
 14368 1fb7 01       		.byte	0x1
 14369 1fb8 EC05     		.2byte	0x5ec
 14370 1fba 00000000 		.4byte	.LFB86
 14371 1fbe B0010000 		.4byte	.LFE86-.LFB86
 14372 1fc2 01       		.uleb128 0x1
 14373 1fc3 9C       		.byte	0x9c
 14374 1fc4 5E200000 		.4byte	0x205e
 14375 1fc8 2C       		.uleb128 0x2c
 14376 1fc9 1F230000 		.4byte	.LASF476
 14377 1fcd 01       		.byte	0x1
 14378 1fce EC05     		.2byte	0x5ec
 14379 1fd0 11010000 		.4byte	0x111
 14380 1fd4 02       		.uleb128 0x2
 14381 1fd5 91       		.byte	0x91
 14382 1fd6 5C       		.sleb128 -36
 14383 1fd7 2A       		.uleb128 0x2a
 14384 1fd8 34000000 		.4byte	.LASF491
 14385 1fdc 01       		.byte	0x1
 14386 1fdd EE05     		.2byte	0x5ee
 14387 1fdf 2B0D0000 		.4byte	0xd2b
 14388 1fe3 02       		.uleb128 0x2
 14389 1fe4 91       		.byte	0x91
 14390 1fe5 68       		.sleb128 -24
 14391 1fe6 26       		.uleb128 0x26
 14392 1fe7 14000000 		.4byte	.LBB43
 14393 1feb 92010000 		.4byte	.LBE43-.LBB43
 14394 1fef 2A       		.uleb128 0x2a
 14395 1ff0 38250000 		.4byte	.LASF492
 14396 1ff4 01       		.byte	0x1
 14397 1ff5 F105     		.2byte	0x5f1
 14398 1ff7 81000000 		.4byte	0x81
 14399 1ffb 02       		.uleb128 0x2
 14400 1ffc 91       		.byte	0x91
 14401 1ffd 6F       		.sleb128 -17
 14402 1ffe 2A       		.uleb128 0x2a
 14403 1fff B60C0000 		.4byte	.LASF493
 14404 2003 01       		.byte	0x1
 14405 2004 F305     		.2byte	0x5f3
 14406 2006 8C050000 		.4byte	0x58c
 14407 200a 02       		.uleb128 0x2
 14408 200b 91       		.byte	0x91
 14409 200c 64       		.sleb128 -28
 14410 200d 26       		.uleb128 0x26
 14411 200e 3A000000 		.4byte	.LBB44
 14412 2012 6C010000 		.4byte	.LBE44-.LBB44
 14413 2016 28       		.uleb128 0x28
 14414 2017 70747200 		.ascii	"ptr\000"
 14415 201b 01       		.byte	0x1
 14416 201c 0806     		.2byte	0x608
 14417 201e 3B010000 		.4byte	0x13b
 14418 2022 02       		.uleb128 0x2
ARM GAS  C:\Users\RECEPC~1\AppData\Local\Temp\ccMZb0bC.s 			page 301


 14419 2023 91       		.byte	0x91
 14420 2024 60       		.sleb128 -32
 14421 2025 29       		.uleb128 0x29
 14422 2026 EC000000 		.4byte	.LBB45
 14423 202a 34000000 		.4byte	.LBE45-.LBB45
 14424 202e 42200000 		.4byte	0x2042
 14425 2032 2A       		.uleb128 0x2a
 14426 2033 37160000 		.4byte	.LASF502
 14427 2037 01       		.byte	0x1
 14428 2038 0C06     		.2byte	0x60c
 14429 203a 97000000 		.4byte	0x97
 14430 203e 02       		.uleb128 0x2
 14431 203f 91       		.byte	0x91
 14432 2040 6E       		.sleb128 -18
 14433 2041 00       		.byte	0
 14434 2042 26       		.uleb128 0x26
 14435 2043 22010000 		.4byte	.LBB46
 14436 2047 34000000 		.4byte	.LBE46-.LBB46
 14437 204b 2A       		.uleb128 0x2a
 14438 204c 37160000 		.4byte	.LASF502
 14439 2050 01       		.byte	0x1
 14440 2051 1106     		.2byte	0x611
 14441 2053 97000000 		.4byte	0x97
 14442 2057 02       		.uleb128 0x2
 14443 2058 91       		.byte	0x91
 14444 2059 6D       		.sleb128 -19
 14445 205a 00       		.byte	0
 14446 205b 00       		.byte	0
 14447 205c 00       		.byte	0
 14448 205d 00       		.byte	0
 14449 205e 2B       		.uleb128 0x2b
 14450 205f 07210000 		.4byte	.LASF512
 14451 2063 01       		.byte	0x1
 14452 2064 2306     		.2byte	0x623
 14453 2066 00000000 		.4byte	.LFB87
 14454 206a 3C020000 		.4byte	.LFE87-.LFB87
 14455 206e 01       		.uleb128 0x1
 14456 206f 9C       		.byte	0x9c
 14457 2070 19210000 		.4byte	0x2119
 14458 2074 2C       		.uleb128 0x2c
 14459 2075 1F230000 		.4byte	.LASF476
 14460 2079 01       		.byte	0x1
 14461 207a 2306     		.2byte	0x623
 14462 207c 11010000 		.4byte	0x111
 14463 2080 02       		.uleb128 0x2
 14464 2081 91       		.byte	0x91
 14465 2082 54       		.sleb128 -44
 14466 2083 2A       		.uleb128 0x2a
 14467 2084 34000000 		.4byte	.LASF491
 14468 2088 01       		.byte	0x1
 14469 2089 2506     		.2byte	0x625
 14470 208b 2B0D0000 		.4byte	0xd2b
 14471 208f 02       		.uleb128 0x2
 14472 2090 91       		.byte	0x91
 14473 2091 68       		.sleb128 -24
 14474 2092 26       		.uleb128 0x26
 14475 2093 14000000 		.4byte	.LBB47
ARM GAS  C:\Users\RECEPC~1\AppData\Local\Temp\ccMZb0bC.s 			page 302


 14476 2097 1E020000 		.4byte	.LBE47-.LBB47
 14477 209b 2A       		.uleb128 0x2a
 14478 209c 38250000 		.4byte	.LASF492
 14479 20a0 01       		.byte	0x1
 14480 20a1 2806     		.2byte	0x628
 14481 20a3 81000000 		.4byte	0x81
 14482 20a7 02       		.uleb128 0x2
 14483 20a8 91       		.byte	0x91
 14484 20a9 6F       		.sleb128 -17
 14485 20aa 2A       		.uleb128 0x2a
 14486 20ab B60C0000 		.4byte	.LASF493
 14487 20af 01       		.byte	0x1
 14488 20b0 2A06     		.2byte	0x62a
 14489 20b2 8C050000 		.4byte	0x58c
 14490 20b6 02       		.uleb128 0x2
 14491 20b7 91       		.byte	0x91
 14492 20b8 64       		.sleb128 -28
 14493 20b9 26       		.uleb128 0x26
 14494 20ba 3A000000 		.4byte	.LBB48
 14495 20be F2010000 		.4byte	.LBE48-.LBB48
 14496 20c2 2A       		.uleb128 0x2a
 14497 20c3 E50C0000 		.4byte	.LASF481
 14498 20c7 01       		.byte	0x1
 14499 20c8 3E06     		.2byte	0x63e
 14500 20ca A3000000 		.4byte	0xa3
 14501 20ce 02       		.uleb128 0x2
 14502 20cf 91       		.byte	0x91
 14503 20d0 62       		.sleb128 -30
 14504 20d1 28       		.uleb128 0x28
 14505 20d2 70747200 		.ascii	"ptr\000"
 14506 20d6 01       		.byte	0x1
 14507 20d7 5506     		.2byte	0x655
 14508 20d9 3B010000 		.4byte	0x13b
 14509 20dd 02       		.uleb128 0x2
 14510 20de 91       		.byte	0x91
 14511 20df 5C       		.sleb128 -36
 14512 20e0 29       		.uleb128 0x29
 14513 20e1 78010000 		.4byte	.LBB49
 14514 20e5 34000000 		.4byte	.LBE49-.LBB49
 14515 20e9 FD200000 		.4byte	0x20fd
 14516 20ed 2A       		.uleb128 0x2a
 14517 20ee 37160000 		.4byte	.LASF502
 14518 20f2 01       		.byte	0x1
 14519 20f3 5906     		.2byte	0x659
 14520 20f5 97000000 		.4byte	0x97
 14521 20f9 02       		.uleb128 0x2
 14522 20fa 91       		.byte	0x91
 14523 20fb 6E       		.sleb128 -18
 14524 20fc 00       		.byte	0
 14525 20fd 26       		.uleb128 0x26
 14526 20fe AE010000 		.4byte	.LBB50
 14527 2102 34000000 		.4byte	.LBE50-.LBB50
 14528 2106 2A       		.uleb128 0x2a
 14529 2107 37160000 		.4byte	.LASF502
 14530 210b 01       		.byte	0x1
 14531 210c 5E06     		.2byte	0x65e
 14532 210e 97000000 		.4byte	0x97
ARM GAS  C:\Users\RECEPC~1\AppData\Local\Temp\ccMZb0bC.s 			page 303


 14533 2112 02       		.uleb128 0x2
 14534 2113 91       		.byte	0x91
 14535 2114 6D       		.sleb128 -19
 14536 2115 00       		.byte	0
 14537 2116 00       		.byte	0
 14538 2117 00       		.byte	0
 14539 2118 00       		.byte	0
 14540 2119 2B       		.uleb128 0x2b
 14541 211a FC020000 		.4byte	.LASF513
 14542 211e 01       		.byte	0x1
 14543 211f 7406     		.2byte	0x674
 14544 2121 00000000 		.4byte	.LFB88
 14545 2125 6A000000 		.4byte	.LFE88-.LFB88
 14546 2129 01       		.uleb128 0x1
 14547 212a 9C       		.byte	0x9c
 14548 212b 76210000 		.4byte	0x2176
 14549 212f 2C       		.uleb128 0x2c
 14550 2130 1F230000 		.4byte	.LASF476
 14551 2134 01       		.byte	0x1
 14552 2135 7406     		.2byte	0x674
 14553 2137 11010000 		.4byte	0x111
 14554 213b 02       		.uleb128 0x2
 14555 213c 91       		.byte	0x91
 14556 213d 64       		.sleb128 -28
 14557 213e 2A       		.uleb128 0x2a
 14558 213f 34000000 		.4byte	.LASF491
 14559 2143 01       		.byte	0x1
 14560 2144 7606     		.2byte	0x676
 14561 2146 2B0D0000 		.4byte	0xd2b
 14562 214a 02       		.uleb128 0x2
 14563 214b 91       		.byte	0x91
 14564 214c 74       		.sleb128 -12
 14565 214d 26       		.uleb128 0x26
 14566 214e 12000000 		.4byte	.LBB51
 14567 2152 52000000 		.4byte	.LBE51-.LBB51
 14568 2156 2A       		.uleb128 0x2a
 14569 2157 38250000 		.4byte	.LASF492
 14570 215b 01       		.byte	0x1
 14571 215c 7906     		.2byte	0x679
 14572 215e 81000000 		.4byte	0x81
 14573 2162 02       		.uleb128 0x2
 14574 2163 91       		.byte	0x91
 14575 2164 73       		.sleb128 -13
 14576 2165 2A       		.uleb128 0x2a
 14577 2166 B60C0000 		.4byte	.LASF493
 14578 216a 01       		.byte	0x1
 14579 216b 7B06     		.2byte	0x67b
 14580 216d 8C050000 		.4byte	0x58c
 14581 2171 02       		.uleb128 0x2
 14582 2172 91       		.byte	0x91
 14583 2173 6C       		.sleb128 -20
 14584 2174 00       		.byte	0
 14585 2175 00       		.byte	0
 14586 2176 2B       		.uleb128 0x2b
 14587 2177 62140000 		.4byte	.LASF514
 14588 217b 01       		.byte	0x1
 14589 217c 8806     		.2byte	0x688
ARM GAS  C:\Users\RECEPC~1\AppData\Local\Temp\ccMZb0bC.s 			page 304


 14590 217e 00000000 		.4byte	.LFB89
 14591 2182 60000000 		.4byte	.LFE89-.LFB89
 14592 2186 01       		.uleb128 0x1
 14593 2187 9C       		.byte	0x9c
 14594 2188 D3210000 		.4byte	0x21d3
 14595 218c 2C       		.uleb128 0x2c
 14596 218d 1F230000 		.4byte	.LASF476
 14597 2191 01       		.byte	0x1
 14598 2192 8806     		.2byte	0x688
 14599 2194 11010000 		.4byte	0x111
 14600 2198 02       		.uleb128 0x2
 14601 2199 91       		.byte	0x91
 14602 219a 64       		.sleb128 -28
 14603 219b 2A       		.uleb128 0x2a
 14604 219c 34000000 		.4byte	.LASF491
 14605 21a0 01       		.byte	0x1
 14606 21a1 8A06     		.2byte	0x68a
 14607 21a3 2B0D0000 		.4byte	0xd2b
 14608 21a7 02       		.uleb128 0x2
 14609 21a8 91       		.byte	0x91
 14610 21a9 74       		.sleb128 -12
 14611 21aa 26       		.uleb128 0x26
 14612 21ab 12000000 		.4byte	.LBB52
 14613 21af 48000000 		.4byte	.LBE52-.LBB52
 14614 21b3 2A       		.uleb128 0x2a
 14615 21b4 38250000 		.4byte	.LASF492
 14616 21b8 01       		.byte	0x1
 14617 21b9 8D06     		.2byte	0x68d
 14618 21bb 81000000 		.4byte	0x81
 14619 21bf 02       		.uleb128 0x2
 14620 21c0 91       		.byte	0x91
 14621 21c1 73       		.sleb128 -13
 14622 21c2 2A       		.uleb128 0x2a
 14623 21c3 B60C0000 		.4byte	.LASF493
 14624 21c7 01       		.byte	0x1
 14625 21c8 8F06     		.2byte	0x68f
 14626 21ca 8C050000 		.4byte	0x58c
 14627 21ce 02       		.uleb128 0x2
 14628 21cf 91       		.byte	0x91
 14629 21d0 6C       		.sleb128 -20
 14630 21d1 00       		.byte	0
 14631 21d2 00       		.byte	0
 14632 21d3 2B       		.uleb128 0x2b
 14633 21d4 1D1B0000 		.4byte	.LASF515
 14634 21d8 01       		.byte	0x1
 14635 21d9 9C06     		.2byte	0x69c
 14636 21db 00000000 		.4byte	.LFB90
 14637 21df E6000000 		.4byte	.LFE90-.LFB90
 14638 21e3 01       		.uleb128 0x1
 14639 21e4 9C       		.byte	0x9c
 14640 21e5 30220000 		.4byte	0x2230
 14641 21e9 2C       		.uleb128 0x2c
 14642 21ea 1F230000 		.4byte	.LASF476
 14643 21ee 01       		.byte	0x1
 14644 21ef 9C06     		.2byte	0x69c
 14645 21f1 30010000 		.4byte	0x130
 14646 21f5 02       		.uleb128 0x2
ARM GAS  C:\Users\RECEPC~1\AppData\Local\Temp\ccMZb0bC.s 			page 305


 14647 21f6 91       		.byte	0x91
 14648 21f7 5C       		.sleb128 -36
 14649 21f8 2A       		.uleb128 0x2a
 14650 21f9 34000000 		.4byte	.LASF491
 14651 21fd 01       		.byte	0x1
 14652 21fe 9E06     		.2byte	0x69e
 14653 2200 2B0D0000 		.4byte	0xd2b
 14654 2204 02       		.uleb128 0x2
 14655 2205 91       		.byte	0x91
 14656 2206 6C       		.sleb128 -20
 14657 2207 26       		.uleb128 0x26
 14658 2208 12000000 		.4byte	.LBB53
 14659 220c CE000000 		.4byte	.LBE53-.LBB53
 14660 2210 2A       		.uleb128 0x2a
 14661 2211 38250000 		.4byte	.LASF492
 14662 2215 01       		.byte	0x1
 14663 2216 A106     		.2byte	0x6a1
 14664 2218 81000000 		.4byte	0x81
 14665 221c 02       		.uleb128 0x2
 14666 221d 91       		.byte	0x91
 14667 221e 6B       		.sleb128 -21
 14668 221f 2A       		.uleb128 0x2a
 14669 2220 B60C0000 		.4byte	.LASF493
 14670 2224 01       		.byte	0x1
 14671 2225 A306     		.2byte	0x6a3
 14672 2227 8C050000 		.4byte	0x58c
 14673 222b 02       		.uleb128 0x2
 14674 222c 91       		.byte	0x91
 14675 222d 64       		.sleb128 -28
 14676 222e 00       		.byte	0
 14677 222f 00       		.byte	0
 14678 2230 2B       		.uleb128 0x2b
 14679 2231 570F0000 		.4byte	.LASF516
 14680 2235 01       		.byte	0x1
 14681 2236 BB06     		.2byte	0x6bb
 14682 2238 00000000 		.4byte	.LFB91
 14683 223c 54040000 		.4byte	.LFE91-.LFB91
 14684 2240 01       		.uleb128 0x1
 14685 2241 9C       		.byte	0x9c
 14686 2242 F1220000 		.4byte	0x22f1
 14687 2246 2C       		.uleb128 0x2c
 14688 2247 1F230000 		.4byte	.LASF476
 14689 224b 01       		.byte	0x1
 14690 224c BB06     		.2byte	0x6bb
 14691 224e 11010000 		.4byte	0x111
 14692 2252 02       		.uleb128 0x2
 14693 2253 91       		.byte	0x91
 14694 2254 54       		.sleb128 -44
 14695 2255 2A       		.uleb128 0x2a
 14696 2256 021F0000 		.4byte	.LASF472
 14697 225a 01       		.byte	0x1
 14698 225b BD06     		.2byte	0x6bd
 14699 225d 730F0000 		.4byte	0xf73
 14700 2261 02       		.uleb128 0x2
 14701 2262 91       		.byte	0x91
 14702 2263 68       		.sleb128 -24
 14703 2264 26       		.uleb128 0x26
ARM GAS  C:\Users\RECEPC~1\AppData\Local\Temp\ccMZb0bC.s 			page 306


 14704 2265 14000000 		.4byte	.LBB54
 14705 2269 34040000 		.4byte	.LBE54-.LBB54
 14706 226d 2A       		.uleb128 0x2a
 14707 226e 38250000 		.4byte	.LASF492
 14708 2272 01       		.byte	0x1
 14709 2273 C006     		.2byte	0x6c0
 14710 2275 97000000 		.4byte	0x97
 14711 2279 02       		.uleb128 0x2
 14712 227a 91       		.byte	0x91
 14713 227b 67       		.sleb128 -25
 14714 227c 2A       		.uleb128 0x2a
 14715 227d 4F1C0000 		.4byte	.LASF517
 14716 2281 01       		.byte	0x1
 14717 2282 C306     		.2byte	0x6c3
 14718 2284 97000000 		.4byte	0x97
 14719 2288 02       		.uleb128 0x2
 14720 2289 91       		.byte	0x91
 14721 228a 66       		.sleb128 -26
 14722 228b 26       		.uleb128 0x26
 14723 228c 74000000 		.4byte	.LBB55
 14724 2290 D4030000 		.4byte	.LBE55-.LBB55
 14725 2294 2A       		.uleb128 0x2a
 14726 2295 65280000 		.4byte	.LASF518
 14727 2299 01       		.byte	0x1
 14728 229a C906     		.2byte	0x6c9
 14729 229c 49020000 		.4byte	0x249
 14730 22a0 02       		.uleb128 0x2
 14731 22a1 91       		.byte	0x91
 14732 22a2 6F       		.sleb128 -17
 14733 22a3 2A       		.uleb128 0x2a
 14734 22a4 26290000 		.4byte	.LASF519
 14735 22a8 01       		.byte	0x1
 14736 22a9 CA06     		.2byte	0x6ca
 14737 22ab A3000000 		.4byte	0xa3
 14738 22af 02       		.uleb128 0x2
 14739 22b0 91       		.byte	0x91
 14740 22b1 6C       		.sleb128 -20
 14741 22b2 2A       		.uleb128 0x2a
 14742 22b3 D8180000 		.4byte	.LASF520
 14743 22b7 01       		.byte	0x1
 14744 22b8 EA06     		.2byte	0x6ea
 14745 22ba 7C070000 		.4byte	0x77c
 14746 22be 02       		.uleb128 0x2
 14747 22bf 91       		.byte	0x91
 14748 22c0 60       		.sleb128 -32
 14749 22c1 2A       		.uleb128 0x2a
 14750 22c2 9A1B0000 		.4byte	.LASF521
 14751 22c6 01       		.byte	0x1
 14752 22c7 EC06     		.2byte	0x6ec
 14753 22c9 97000000 		.4byte	0x97
 14754 22cd 02       		.uleb128 0x2
 14755 22ce 91       		.byte	0x91
 14756 22cf 5F       		.sleb128 -33
 14757 22d0 2A       		.uleb128 0x2a
 14758 22d1 961A0000 		.4byte	.LASF522
 14759 22d5 01       		.byte	0x1
 14760 22d6 ED06     		.2byte	0x6ed
ARM GAS  C:\Users\RECEPC~1\AppData\Local\Temp\ccMZb0bC.s 			page 307


 14761 22d8 97000000 		.4byte	0x97
 14762 22dc 02       		.uleb128 0x2
 14763 22dd 91       		.byte	0x91
 14764 22de 5E       		.sleb128 -34
 14765 22df 2A       		.uleb128 0x2a
 14766 22e0 52120000 		.4byte	.LASF523
 14767 22e4 01       		.byte	0x1
 14768 22e5 2407     		.2byte	0x724
 14769 22e7 72020000 		.4byte	0x272
 14770 22eb 02       		.uleb128 0x2
 14771 22ec 91       		.byte	0x91
 14772 22ed 58       		.sleb128 -40
 14773 22ee 00       		.byte	0
 14774 22ef 00       		.byte	0
 14775 22f0 00       		.byte	0
 14776 22f1 2D       		.uleb128 0x2d
 14777 22f2 10110000 		.4byte	.LASF524
 14778 22f6 01       		.byte	0x1
 14779 22f7 3B07     		.2byte	0x73b
 14780 22f9 00000000 		.4byte	.LFB92
 14781 22fd D0020000 		.4byte	.LFE92-.LFB92
 14782 2301 01       		.uleb128 0x1
 14783 2302 9C       		.byte	0x9c
 14784 2303 26230000 		.4byte	0x2326
 14785 2307 2C       		.uleb128 0x2c
 14786 2308 1F230000 		.4byte	.LASF476
 14787 230c 01       		.byte	0x1
 14788 230d 3B07     		.2byte	0x73b
 14789 230f 30010000 		.4byte	0x130
 14790 2313 02       		.uleb128 0x2
 14791 2314 91       		.byte	0x91
 14792 2315 6C       		.sleb128 -20
 14793 2316 2A       		.uleb128 0x2a
 14794 2317 87170000 		.4byte	.LASF525
 14795 231b 01       		.byte	0x1
 14796 231c 3D07     		.2byte	0x73d
 14797 231e 7C070000 		.4byte	0x77c
 14798 2322 02       		.uleb128 0x2
 14799 2323 91       		.byte	0x91
 14800 2324 74       		.sleb128 -12
 14801 2325 00       		.byte	0
 14802 2326 2E       		.uleb128 0x2e
 14803 2327 7A130000 		.4byte	.LASF534
 14804 232b 01       		.byte	0x1
 14805 232c FE07     		.2byte	0x7fe
 14806 232e 49020000 		.4byte	0x249
 14807 2332 00000000 		.4byte	.LFB93
 14808 2336 28010000 		.4byte	.LFE93-.LFB93
 14809 233a 01       		.uleb128 0x1
 14810 233b 9C       		.byte	0x9c
 14811 233c D0230000 		.4byte	0x23d0
 14812 2340 2C       		.uleb128 0x2c
 14813 2341 1F230000 		.4byte	.LASF476
 14814 2345 01       		.byte	0x1
 14815 2346 FE07     		.2byte	0x7fe
 14816 2348 11010000 		.4byte	0x111
 14817 234c 02       		.uleb128 0x2
ARM GAS  C:\Users\RECEPC~1\AppData\Local\Temp\ccMZb0bC.s 			page 308


 14818 234d 91       		.byte	0x91
 14819 234e 5C       		.sleb128 -36
 14820 234f 2C       		.uleb128 0x2c
 14821 2350 260F0000 		.4byte	.LASF526
 14822 2354 01       		.byte	0x1
 14823 2355 FE07     		.2byte	0x7fe
 14824 2357 11010000 		.4byte	0x111
 14825 235b 02       		.uleb128 0x2
 14826 235c 91       		.byte	0x91
 14827 235d 58       		.sleb128 -40
 14828 235e 2C       		.uleb128 0x2c
 14829 235f 1D1A0000 		.4byte	.LASF527
 14830 2363 01       		.byte	0x1
 14831 2364 FE07     		.2byte	0x7fe
 14832 2366 A3000000 		.4byte	0xa3
 14833 236a 02       		.uleb128 0x2
 14834 236b 91       		.byte	0x91
 14835 236c 56       		.sleb128 -42
 14836 236d 2A       		.uleb128 0x2a
 14837 236e E0150000 		.4byte	.LASF528
 14838 2372 01       		.byte	0x1
 14839 2373 0008     		.2byte	0x800
 14840 2375 49020000 		.4byte	0x249
 14841 2379 02       		.uleb128 0x2
 14842 237a 91       		.byte	0x91
 14843 237b 6F       		.sleb128 -17
 14844 237c 2A       		.uleb128 0x2a
 14845 237d 38250000 		.4byte	.LASF492
 14846 2381 01       		.byte	0x1
 14847 2382 0108     		.2byte	0x801
 14848 2384 97000000 		.4byte	0x97
 14849 2388 05       		.uleb128 0x5
 14850 2389 03       		.byte	0x3
 14851 238a 00000000 		.4byte	index.9599
 14852 238e 2A       		.uleb128 0x2a
 14853 238f 34000000 		.4byte	.LASF491
 14854 2393 01       		.byte	0x1
 14855 2394 0208     		.2byte	0x802
 14856 2396 2B0D0000 		.4byte	0xd2b
 14857 239a 02       		.uleb128 0x2
 14858 239b 91       		.byte	0x91
 14859 239c 68       		.sleb128 -24
 14860 239d 26       		.uleb128 0x26
 14861 239e 38000000 		.4byte	.LBB56
 14862 23a2 E2000000 		.4byte	.LBE56-.LBB56
 14863 23a6 2A       		.uleb128 0x2a
 14864 23a7 961A0000 		.4byte	.LASF522
 14865 23ab 01       		.byte	0x1
 14866 23ac 0908     		.2byte	0x809
 14867 23ae 97000000 		.4byte	0x97
 14868 23b2 02       		.uleb128 0x2
 14869 23b3 91       		.byte	0x91
 14870 23b4 67       		.sleb128 -25
 14871 23b5 26       		.uleb128 0x26
 14872 23b6 AA000000 		.4byte	.LBB57
 14873 23ba 70000000 		.4byte	.LBE57-.LBB57
 14874 23be 2A       		.uleb128 0x2a
ARM GAS  C:\Users\RECEPC~1\AppData\Local\Temp\ccMZb0bC.s 			page 309


 14875 23bf 4F1C0000 		.4byte	.LASF517
 14876 23c3 01       		.byte	0x1
 14877 23c4 1008     		.2byte	0x810
 14878 23c6 97000000 		.4byte	0x97
 14879 23ca 02       		.uleb128 0x2
 14880 23cb 91       		.byte	0x91
 14881 23cc 66       		.sleb128 -26
 14882 23cd 00       		.byte	0
 14883 23ce 00       		.byte	0
 14884 23cf 00       		.byte	0
 14885 23d0 2B       		.uleb128 0x2b
 14886 23d1 BC080000 		.4byte	.LASF529
 14887 23d5 01       		.byte	0x1
 14888 23d6 1F08     		.2byte	0x81f
 14889 23d8 00000000 		.4byte	.LFB94
 14890 23dc 60000000 		.4byte	.LFE94-.LFB94
 14891 23e0 01       		.uleb128 0x1
 14892 23e1 9C       		.byte	0x9c
 14893 23e2 2D240000 		.4byte	0x242d
 14894 23e6 2C       		.uleb128 0x2c
 14895 23e7 1F230000 		.4byte	.LASF476
 14896 23eb 01       		.byte	0x1
 14897 23ec 1F08     		.2byte	0x81f
 14898 23ee 30010000 		.4byte	0x130
 14899 23f2 02       		.uleb128 0x2
 14900 23f3 91       		.byte	0x91
 14901 23f4 64       		.sleb128 -28
 14902 23f5 2A       		.uleb128 0x2a
 14903 23f6 34000000 		.4byte	.LASF491
 14904 23fa 01       		.byte	0x1
 14905 23fb 2108     		.2byte	0x821
 14906 23fd 2B0D0000 		.4byte	0xd2b
 14907 2401 02       		.uleb128 0x2
 14908 2402 91       		.byte	0x91
 14909 2403 74       		.sleb128 -12
 14910 2404 26       		.uleb128 0x26
 14911 2405 12000000 		.4byte	.LBB58
 14912 2409 48000000 		.4byte	.LBE58-.LBB58
 14913 240d 2A       		.uleb128 0x2a
 14914 240e 38250000 		.4byte	.LASF492
 14915 2412 01       		.byte	0x1
 14916 2413 2408     		.2byte	0x824
 14917 2415 81000000 		.4byte	0x81
 14918 2419 02       		.uleb128 0x2
 14919 241a 91       		.byte	0x91
 14920 241b 73       		.sleb128 -13
 14921 241c 2A       		.uleb128 0x2a
 14922 241d B60C0000 		.4byte	.LASF493
 14923 2421 01       		.byte	0x1
 14924 2422 2608     		.2byte	0x826
 14925 2424 8C050000 		.4byte	0x58c
 14926 2428 02       		.uleb128 0x2
 14927 2429 91       		.byte	0x91
 14928 242a 6C       		.sleb128 -20
 14929 242b 00       		.byte	0
 14930 242c 00       		.byte	0
 14931 242d 2B       		.uleb128 0x2b
ARM GAS  C:\Users\RECEPC~1\AppData\Local\Temp\ccMZb0bC.s 			page 310


 14932 242e 65150000 		.4byte	.LASF530
 14933 2432 01       		.byte	0x1
 14934 2433 3208     		.2byte	0x832
 14935 2435 00000000 		.4byte	.LFB95
 14936 2439 40020000 		.4byte	.LFE95-.LFB95
 14937 243d 01       		.uleb128 0x1
 14938 243e 9C       		.byte	0x9c
 14939 243f E2240000 		.4byte	0x24e2
 14940 2443 2C       		.uleb128 0x2c
 14941 2444 1F230000 		.4byte	.LASF476
 14942 2448 01       		.byte	0x1
 14943 2449 3208     		.2byte	0x832
 14944 244b 30010000 		.4byte	0x130
 14945 244f 02       		.uleb128 0x2
 14946 2450 91       		.byte	0x91
 14947 2451 64       		.sleb128 -28
 14948 2452 2A       		.uleb128 0x2a
 14949 2453 021F0000 		.4byte	.LASF472
 14950 2457 01       		.byte	0x1
 14951 2458 3508     		.2byte	0x835
 14952 245a 730F0000 		.4byte	0xf73
 14953 245e 02       		.uleb128 0x2
 14954 245f 91       		.byte	0x91
 14955 2460 74       		.sleb128 -12
 14956 2461 29       		.uleb128 0x29
 14957 2462 48000000 		.4byte	.LBB59
 14958 2466 6C000000 		.4byte	.LBE59-.LBB59
 14959 246a 8D240000 		.4byte	0x248d
 14960 246e 2A       		.uleb128 0x2a
 14961 246f C10E0000 		.4byte	.LASF531
 14962 2473 01       		.byte	0x1
 14963 2474 4308     		.2byte	0x843
 14964 2476 97000000 		.4byte	0x97
 14965 247a 02       		.uleb128 0x2
 14966 247b 91       		.byte	0x91
 14967 247c 73       		.sleb128 -13
 14968 247d 2A       		.uleb128 0x2a
 14969 247e 190F0000 		.4byte	.LASF532
 14970 2482 01       		.byte	0x1
 14971 2483 4408     		.2byte	0x844
 14972 2485 97000000 		.4byte	0x97
 14973 2489 02       		.uleb128 0x2
 14974 248a 91       		.byte	0x91
 14975 248b 72       		.sleb128 -14
 14976 248c 00       		.byte	0
 14977 248d 29       		.uleb128 0x29
 14978 248e B4000000 		.4byte	.LBB60
 14979 2492 6C000000 		.4byte	.LBE60-.LBB60
 14980 2496 B9240000 		.4byte	0x24b9
 14981 249a 2A       		.uleb128 0x2a
 14982 249b C10E0000 		.4byte	.LASF531
 14983 249f 01       		.byte	0x1
 14984 24a0 5508     		.2byte	0x855
 14985 24a2 97000000 		.4byte	0x97
 14986 24a6 02       		.uleb128 0x2
 14987 24a7 91       		.byte	0x91
 14988 24a8 71       		.sleb128 -15
ARM GAS  C:\Users\RECEPC~1\AppData\Local\Temp\ccMZb0bC.s 			page 311


 14989 24a9 2A       		.uleb128 0x2a
 14990 24aa 190F0000 		.4byte	.LASF532
 14991 24ae 01       		.byte	0x1
 14992 24af 5608     		.2byte	0x856
 14993 24b1 97000000 		.4byte	0x97
 14994 24b5 02       		.uleb128 0x2
 14995 24b6 91       		.byte	0x91
 14996 24b7 70       		.sleb128 -16
 14997 24b8 00       		.byte	0
 14998 24b9 26       		.uleb128 0x26
 14999 24ba 20010000 		.4byte	.LBB61
 15000 24be 6C000000 		.4byte	.LBE61-.LBB61
 15001 24c2 2A       		.uleb128 0x2a
 15002 24c3 C10E0000 		.4byte	.LASF531
 15003 24c7 01       		.byte	0x1
 15004 24c8 6708     		.2byte	0x867
 15005 24ca 97000000 		.4byte	0x97
 15006 24ce 02       		.uleb128 0x2
 15007 24cf 91       		.byte	0x91
 15008 24d0 6F       		.sleb128 -17
 15009 24d1 2A       		.uleb128 0x2a
 15010 24d2 190F0000 		.4byte	.LASF532
 15011 24d6 01       		.byte	0x1
 15012 24d7 6808     		.2byte	0x868
 15013 24d9 97000000 		.4byte	0x97
 15014 24dd 02       		.uleb128 0x2
 15015 24de 91       		.byte	0x91
 15016 24df 6E       		.sleb128 -18
 15017 24e0 00       		.byte	0
 15018 24e1 00       		.byte	0
 15019 24e2 2D       		.uleb128 0x2d
 15020 24e3 A00C0000 		.4byte	.LASF533
 15021 24e7 01       		.byte	0x1
 15022 24e8 9508     		.2byte	0x895
 15023 24ea 00000000 		.4byte	.LFB96
 15024 24ee 6C000000 		.4byte	.LFE96-.LFB96
 15025 24f2 01       		.uleb128 0x1
 15026 24f3 9C       		.byte	0x9c
 15027 24f4 17250000 		.4byte	0x2517
 15028 24f8 2C       		.uleb128 0x2c
 15029 24f9 1F230000 		.4byte	.LASF476
 15030 24fd 01       		.byte	0x1
 15031 24fe 9508     		.2byte	0x895
 15032 2500 11010000 		.4byte	0x111
 15033 2504 02       		.uleb128 0x2
 15034 2505 91       		.byte	0x91
 15035 2506 6C       		.sleb128 -20
 15036 2507 2A       		.uleb128 0x2a
 15037 2508 021F0000 		.4byte	.LASF472
 15038 250c 01       		.byte	0x1
 15039 250d 9708     		.2byte	0x897
 15040 250f 730F0000 		.4byte	0xf73
 15041 2513 02       		.uleb128 0x2
 15042 2514 91       		.byte	0x91
 15043 2515 74       		.sleb128 -12
 15044 2516 00       		.byte	0
 15045 2517 2F       		.uleb128 0x2f
ARM GAS  C:\Users\RECEPC~1\AppData\Local\Temp\ccMZb0bC.s 			page 312


 15046 2518 DD270000 		.4byte	.LASF535
 15047 251c 01       		.byte	0x1
 15048 251d A808     		.2byte	0x8a8
 15049 251f 49020000 		.4byte	0x249
 15050 2523 00000000 		.4byte	.LFB97
 15051 2527 5C010000 		.4byte	.LFE97-.LFB97
 15052 252b 01       		.uleb128 0x1
 15053 252c 9C       		.byte	0x9c
 15054 252d 7D250000 		.4byte	0x257d
 15055 2531 2C       		.uleb128 0x2c
 15056 2532 1F230000 		.4byte	.LASF476
 15057 2536 01       		.byte	0x1
 15058 2537 A808     		.2byte	0x8a8
 15059 2539 11010000 		.4byte	0x111
 15060 253d 02       		.uleb128 0x2
 15061 253e 91       		.byte	0x91
 15062 253f 6C       		.sleb128 -20
 15063 2540 2C       		.uleb128 0x2c
 15064 2541 260F0000 		.4byte	.LASF526
 15065 2545 01       		.byte	0x1
 15066 2546 A808     		.2byte	0x8a8
 15067 2548 11010000 		.4byte	0x111
 15068 254c 02       		.uleb128 0x2
 15069 254d 91       		.byte	0x91
 15070 254e 68       		.sleb128 -24
 15071 254f 2C       		.uleb128 0x2c
 15072 2550 1D1A0000 		.4byte	.LASF527
 15073 2554 01       		.byte	0x1
 15074 2555 A808     		.2byte	0x8a8
 15075 2557 A3000000 		.4byte	0xa3
 15076 255b 02       		.uleb128 0x2
 15077 255c 91       		.byte	0x91
 15078 255d 66       		.sleb128 -26
 15079 255e 2A       		.uleb128 0x2a
 15080 255f E0150000 		.4byte	.LASF528
 15081 2563 01       		.byte	0x1
 15082 2564 AA08     		.2byte	0x8aa
 15083 2566 49020000 		.4byte	0x249
 15084 256a 02       		.uleb128 0x2
 15085 256b 91       		.byte	0x91
 15086 256c 77       		.sleb128 -9
 15087 256d 2A       		.uleb128 0x2a
 15088 256e 34000000 		.4byte	.LASF491
 15089 2572 01       		.byte	0x1
 15090 2573 AB08     		.2byte	0x8ab
 15091 2575 2B0D0000 		.4byte	0xd2b
 15092 2579 02       		.uleb128 0x2
 15093 257a 91       		.byte	0x91
 15094 257b 70       		.sleb128 -16
 15095 257c 00       		.byte	0
 15096 257d 2F       		.uleb128 0x2f
 15097 257e C0200000 		.4byte	.LASF536
 15098 2582 01       		.byte	0x1
 15099 2583 D708     		.2byte	0x8d7
 15100 2585 49020000 		.4byte	0x249
 15101 2589 00000000 		.4byte	.LFB98
 15102 258d 4C000000 		.4byte	.LFE98-.LFB98
ARM GAS  C:\Users\RECEPC~1\AppData\Local\Temp\ccMZb0bC.s 			page 313


 15103 2591 01       		.uleb128 0x1
 15104 2592 9C       		.byte	0x9c
 15105 2593 E3250000 		.4byte	0x25e3
 15106 2597 2C       		.uleb128 0x2c
 15107 2598 1F230000 		.4byte	.LASF476
 15108 259c 01       		.byte	0x1
 15109 259d D708     		.2byte	0x8d7
 15110 259f 11010000 		.4byte	0x111
 15111 25a3 02       		.uleb128 0x2
 15112 25a4 91       		.byte	0x91
 15113 25a5 6C       		.sleb128 -20
 15114 25a6 2C       		.uleb128 0x2c
 15115 25a7 260F0000 		.4byte	.LASF526
 15116 25ab 01       		.byte	0x1
 15117 25ac D708     		.2byte	0x8d7
 15118 25ae 11010000 		.4byte	0x111
 15119 25b2 02       		.uleb128 0x2
 15120 25b3 91       		.byte	0x91
 15121 25b4 68       		.sleb128 -24
 15122 25b5 2C       		.uleb128 0x2c
 15123 25b6 1D1A0000 		.4byte	.LASF527
 15124 25ba 01       		.byte	0x1
 15125 25bb D708     		.2byte	0x8d7
 15126 25bd A3000000 		.4byte	0xa3
 15127 25c1 02       		.uleb128 0x2
 15128 25c2 91       		.byte	0x91
 15129 25c3 66       		.sleb128 -26
 15130 25c4 2A       		.uleb128 0x2a
 15131 25c5 E0150000 		.4byte	.LASF528
 15132 25c9 01       		.byte	0x1
 15133 25ca D908     		.2byte	0x8d9
 15134 25cc 49020000 		.4byte	0x249
 15135 25d0 02       		.uleb128 0x2
 15136 25d1 91       		.byte	0x91
 15137 25d2 77       		.sleb128 -9
 15138 25d3 2A       		.uleb128 0x2a
 15139 25d4 34000000 		.4byte	.LASF491
 15140 25d8 01       		.byte	0x1
 15141 25d9 DA08     		.2byte	0x8da
 15142 25db 2B0D0000 		.4byte	0xd2b
 15143 25df 02       		.uleb128 0x2
 15144 25e0 91       		.byte	0x91
 15145 25e1 70       		.sleb128 -16
 15146 25e2 00       		.byte	0
 15147 25e3 2D       		.uleb128 0x2d
 15148 25e4 1E160000 		.4byte	.LASF537
 15149 25e8 01       		.byte	0x1
 15150 25e9 E808     		.2byte	0x8e8
 15151 25eb 00000000 		.4byte	.LFB99
 15152 25ef 98000000 		.4byte	.LFE99-.LFB99
 15153 25f3 01       		.uleb128 0x1
 15154 25f4 9C       		.byte	0x9c
 15155 25f5 18260000 		.4byte	0x2618
 15156 25f9 2C       		.uleb128 0x2c
 15157 25fa 1F230000 		.4byte	.LASF476
 15158 25fe 01       		.byte	0x1
 15159 25ff E808     		.2byte	0x8e8
ARM GAS  C:\Users\RECEPC~1\AppData\Local\Temp\ccMZb0bC.s 			page 314


 15160 2601 11010000 		.4byte	0x111
 15161 2605 02       		.uleb128 0x2
 15162 2606 91       		.byte	0x91
 15163 2607 6C       		.sleb128 -20
 15164 2608 2A       		.uleb128 0x2a
 15165 2609 021F0000 		.4byte	.LASF472
 15166 260d 01       		.byte	0x1
 15167 260e EA08     		.2byte	0x8ea
 15168 2610 730F0000 		.4byte	0xf73
 15169 2614 02       		.uleb128 0x2
 15170 2615 91       		.byte	0x91
 15171 2616 74       		.sleb128 -12
 15172 2617 00       		.byte	0
 15173 2618 2B       		.uleb128 0x2b
 15174 2619 E9130000 		.4byte	.LASF538
 15175 261d 01       		.byte	0x1
 15176 261e 0509     		.2byte	0x905
 15177 2620 00000000 		.4byte	.LFB100
 15178 2624 AC000000 		.4byte	.LFE100-.LFB100
 15179 2628 01       		.uleb128 0x1
 15180 2629 9C       		.byte	0x9c
 15181 262a 8E260000 		.4byte	0x268e
 15182 262e 2C       		.uleb128 0x2c
 15183 262f 1F230000 		.4byte	.LASF476
 15184 2633 01       		.byte	0x1
 15185 2634 0509     		.2byte	0x905
 15186 2636 30010000 		.4byte	0x130
 15187 263a 02       		.uleb128 0x2
 15188 263b 91       		.byte	0x91
 15189 263c 64       		.sleb128 -28
 15190 263d 2A       		.uleb128 0x2a
 15191 263e 34000000 		.4byte	.LASF491
 15192 2642 01       		.byte	0x1
 15193 2643 0709     		.2byte	0x907
 15194 2645 2B0D0000 		.4byte	0xd2b
 15195 2649 02       		.uleb128 0x2
 15196 264a 91       		.byte	0x91
 15197 264b 70       		.sleb128 -16
 15198 264c 2A       		.uleb128 0x2a
 15199 264d 6E250000 		.4byte	.LASF539
 15200 2651 01       		.byte	0x1
 15201 2652 0809     		.2byte	0x908
 15202 2654 72020000 		.4byte	0x272
 15203 2658 02       		.uleb128 0x2
 15204 2659 91       		.byte	0x91
 15205 265a 6C       		.sleb128 -20
 15206 265b 26       		.uleb128 0x26
 15207 265c 16000000 		.4byte	.LBB62
 15208 2660 86000000 		.4byte	.LBE62-.LBB62
 15209 2664 2A       		.uleb128 0x2a
 15210 2665 E1110000 		.4byte	.LASF540
 15211 2669 01       		.byte	0x1
 15212 266a 0D09     		.2byte	0x90d
 15213 266c 5B0F0000 		.4byte	0xf5b
 15214 2670 02       		.uleb128 0x2
 15215 2671 91       		.byte	0x91
 15216 2672 74       		.sleb128 -12
ARM GAS  C:\Users\RECEPC~1\AppData\Local\Temp\ccMZb0bC.s 			page 315


 15217 2673 26       		.uleb128 0x26
 15218 2674 38000000 		.4byte	.LBB63
 15219 2678 5C000000 		.4byte	.LBE63-.LBB63
 15220 267c 2A       		.uleb128 0x2a
 15221 267d 700C0000 		.4byte	.LASF541
 15222 2681 01       		.byte	0x1
 15223 2682 1209     		.2byte	0x912
 15224 2684 730F0000 		.4byte	0xf73
 15225 2688 02       		.uleb128 0x2
 15226 2689 91       		.byte	0x91
 15227 268a 68       		.sleb128 -24
 15228 268b 00       		.byte	0
 15229 268c 00       		.byte	0
 15230 268d 00       		.byte	0
 15231 268e 2F       		.uleb128 0x2f
 15232 268f 7F160000 		.4byte	.LASF542
 15233 2693 01       		.byte	0x1
 15234 2694 2A09     		.2byte	0x92a
 15235 2696 81000000 		.4byte	0x81
 15236 269a 00000000 		.4byte	.LFB101
 15237 269e 5E000000 		.4byte	.LFE101-.LFB101
 15238 26a2 01       		.uleb128 0x1
 15239 26a3 9C       		.byte	0x9c
 15240 26a4 C7260000 		.4byte	0x26c7
 15241 26a8 2C       		.uleb128 0x2c
 15242 26a9 2E0B0000 		.4byte	.LASF543
 15243 26ad 01       		.byte	0x1
 15244 26ae 2A09     		.2byte	0x92a
 15245 26b0 3B010000 		.4byte	0x13b
 15246 26b4 02       		.uleb128 0x2
 15247 26b5 91       		.byte	0x91
 15248 26b6 6C       		.sleb128 -20
 15249 26b7 28       		.uleb128 0x28
 15250 26b8 6C726300 		.ascii	"lrc\000"
 15251 26bc 01       		.byte	0x1
 15252 26bd 2C09     		.2byte	0x92c
 15253 26bf 81000000 		.4byte	0x81
 15254 26c3 02       		.uleb128 0x2
 15255 26c4 91       		.byte	0x91
 15256 26c5 77       		.sleb128 -9
 15257 26c6 00       		.byte	0
 15258 26c7 2F       		.uleb128 0x2f
 15259 26c8 39120000 		.4byte	.LASF544
 15260 26cc 01       		.byte	0x1
 15261 26cd 3609     		.2byte	0x936
 15262 26cf 81000000 		.4byte	0x81
 15263 26d3 00000000 		.4byte	.LFB102
 15264 26d7 32000000 		.4byte	.LFE102-.LFB102
 15265 26db 01       		.uleb128 0x1
 15266 26dc 9C       		.byte	0x9c
 15267 26dd 00270000 		.4byte	0x2700
 15268 26e1 2C       		.uleb128 0x2c
 15269 26e2 2E0B0000 		.4byte	.LASF543
 15270 26e6 01       		.byte	0x1
 15271 26e7 3609     		.2byte	0x936
 15272 26e9 3B010000 		.4byte	0x13b
 15273 26ed 02       		.uleb128 0x2
ARM GAS  C:\Users\RECEPC~1\AppData\Local\Temp\ccMZb0bC.s 			page 316


 15274 26ee 91       		.byte	0x91
 15275 26ef 6C       		.sleb128 -20
 15276 26f0 28       		.uleb128 0x28
 15277 26f1 6C726300 		.ascii	"lrc\000"
 15278 26f5 01       		.byte	0x1
 15279 26f6 3809     		.2byte	0x938
 15280 26f8 81000000 		.4byte	0x81
 15281 26fc 02       		.uleb128 0x2
 15282 26fd 91       		.byte	0x91
 15283 26fe 77       		.sleb128 -9
 15284 26ff 00       		.byte	0
 15285 2700 2D       		.uleb128 0x2d
 15286 2701 C3130000 		.4byte	.LASF545
 15287 2705 01       		.byte	0x1
 15288 2706 4209     		.2byte	0x942
 15289 2708 00000000 		.4byte	.LFB103
 15290 270c 2C000000 		.4byte	.LFE103-.LFB103
 15291 2710 01       		.uleb128 0x1
 15292 2711 9C       		.byte	0x9c
 15293 2712 35270000 		.4byte	0x2735
 15294 2716 2C       		.uleb128 0x2c
 15295 2717 1F230000 		.4byte	.LASF476
 15296 271b 01       		.byte	0x1
 15297 271c 4209     		.2byte	0x942
 15298 271e 11010000 		.4byte	0x111
 15299 2722 02       		.uleb128 0x2
 15300 2723 91       		.byte	0x91
 15301 2724 6C       		.sleb128 -20
 15302 2725 2A       		.uleb128 0x2a
 15303 2726 021F0000 		.4byte	.LASF472
 15304 272a 01       		.byte	0x1
 15305 272b 4409     		.2byte	0x944
 15306 272d 30100000 		.4byte	0x1030
 15307 2731 02       		.uleb128 0x2
 15308 2732 91       		.byte	0x91
 15309 2733 74       		.sleb128 -12
 15310 2734 00       		.byte	0
 15311 2735 2D       		.uleb128 0x2d
 15312 2736 EB140000 		.4byte	.LASF546
 15313 273a 01       		.byte	0x1
 15314 273b 4E09     		.2byte	0x94e
 15315 273d 00000000 		.4byte	.LFB104
 15316 2741 2C000000 		.4byte	.LFE104-.LFB104
 15317 2745 01       		.uleb128 0x1
 15318 2746 9C       		.byte	0x9c
 15319 2747 6A270000 		.4byte	0x276a
 15320 274b 2C       		.uleb128 0x2c
 15321 274c 1F230000 		.4byte	.LASF476
 15322 2750 01       		.byte	0x1
 15323 2751 4E09     		.2byte	0x94e
 15324 2753 11010000 		.4byte	0x111
 15325 2757 02       		.uleb128 0x2
 15326 2758 91       		.byte	0x91
 15327 2759 6C       		.sleb128 -20
 15328 275a 2A       		.uleb128 0x2a
 15329 275b 021F0000 		.4byte	.LASF472
 15330 275f 01       		.byte	0x1
ARM GAS  C:\Users\RECEPC~1\AppData\Local\Temp\ccMZb0bC.s 			page 317


 15331 2760 5009     		.2byte	0x950
 15332 2762 730F0000 		.4byte	0xf73
 15333 2766 02       		.uleb128 0x2
 15334 2767 91       		.byte	0x91
 15335 2768 74       		.sleb128 -12
 15336 2769 00       		.byte	0
 15337 276a 2B       		.uleb128 0x2b
 15338 276b 3E190000 		.4byte	.LASF547
 15339 276f 01       		.byte	0x1
 15340 2770 5909     		.2byte	0x959
 15341 2772 00000000 		.4byte	.LFB105
 15342 2776 54020000 		.4byte	.LFE105-.LFB105
 15343 277a 01       		.uleb128 0x1
 15344 277b 9C       		.byte	0x9c
 15345 277c B8270000 		.4byte	0x27b8
 15346 2780 2C       		.uleb128 0x2c
 15347 2781 1F230000 		.4byte	.LASF476
 15348 2785 01       		.byte	0x1
 15349 2786 5909     		.2byte	0x959
 15350 2788 11010000 		.4byte	0x111
 15351 278c 02       		.uleb128 0x2
 15352 278d 91       		.byte	0x91
 15353 278e 64       		.sleb128 -28
 15354 278f 2A       		.uleb128 0x2a
 15355 2790 021F0000 		.4byte	.LASF472
 15356 2794 01       		.byte	0x1
 15357 2795 5B09     		.2byte	0x95b
 15358 2797 730F0000 		.4byte	0xf73
 15359 279b 02       		.uleb128 0x2
 15360 279c 91       		.byte	0x91
 15361 279d 6C       		.sleb128 -20
 15362 279e 26       		.uleb128 0x26
 15363 279f 3C000000 		.4byte	.LBB64
 15364 27a3 06020000 		.4byte	.LBE64-.LBB64
 15365 27a7 2A       		.uleb128 0x2a
 15366 27a8 52120000 		.4byte	.LASF523
 15367 27ac 01       		.byte	0x1
 15368 27ad 6409     		.2byte	0x964
 15369 27af 72020000 		.4byte	0x272
 15370 27b3 02       		.uleb128 0x2
 15371 27b4 91       		.byte	0x91
 15372 27b5 68       		.sleb128 -24
 15373 27b6 00       		.byte	0
 15374 27b7 00       		.byte	0
 15375 27b8 2D       		.uleb128 0x2d
 15376 27b9 5E0D0000 		.4byte	.LASF548
 15377 27bd 01       		.byte	0x1
 15378 27be B509     		.2byte	0x9b5
 15379 27c0 00000000 		.4byte	.LFB106
 15380 27c4 74010000 		.4byte	.LFE106-.LFB106
 15381 27c8 01       		.uleb128 0x1
 15382 27c9 9C       		.byte	0x9c
 15383 27ca 29280000 		.4byte	0x2829
 15384 27ce 2C       		.uleb128 0x2c
 15385 27cf 260F0000 		.4byte	.LASF526
 15386 27d3 01       		.byte	0x1
 15387 27d4 B509     		.2byte	0x9b5
ARM GAS  C:\Users\RECEPC~1\AppData\Local\Temp\ccMZb0bC.s 			page 318


 15388 27d6 3B010000 		.4byte	0x13b
 15389 27da 02       		.uleb128 0x2
 15390 27db 91       		.byte	0x91
 15391 27dc 6C       		.sleb128 -20
 15392 27dd 2C       		.uleb128 0x2c
 15393 27de 1D1A0000 		.4byte	.LASF527
 15394 27e2 01       		.byte	0x1
 15395 27e3 B509     		.2byte	0x9b5
 15396 27e5 97000000 		.4byte	0x97
 15397 27e9 02       		.uleb128 0x2
 15398 27ea 91       		.byte	0x91
 15399 27eb 6B       		.sleb128 -21
 15400 27ec 2A       		.uleb128 0x2a
 15401 27ed 281A0000 		.4byte	.LASF549
 15402 27f1 01       		.byte	0x1
 15403 27f2 B709     		.2byte	0x9b7
 15404 27f4 97000000 		.4byte	0x97
 15405 27f8 02       		.uleb128 0x2
 15406 27f9 91       		.byte	0x91
 15407 27fa 77       		.sleb128 -9
 15408 27fb 2A       		.uleb128 0x2a
 15409 27fc AC100000 		.4byte	.LASF550
 15410 2800 01       		.byte	0x1
 15411 2801 B809     		.2byte	0x9b8
 15412 2803 49020000 		.4byte	0x249
 15413 2807 02       		.uleb128 0x2
 15414 2808 91       		.byte	0x91
 15415 2809 76       		.sleb128 -10
 15416 280a 2A       		.uleb128 0x2a
 15417 280b 38250000 		.4byte	.LASF492
 15418 280f 01       		.byte	0x1
 15419 2810 BA09     		.2byte	0x9ba
 15420 2812 BB000000 		.4byte	0xbb
 15421 2816 02       		.uleb128 0x2
 15422 2817 91       		.byte	0x91
 15423 2818 75       		.sleb128 -11
 15424 2819 2A       		.uleb128 0x2a
 15425 281a 5A130000 		.4byte	.LASF551
 15426 281e 01       		.byte	0x1
 15427 281f CA09     		.2byte	0x9ca
 15428 2821 BB000000 		.4byte	0xbb
 15429 2825 02       		.uleb128 0x2
 15430 2826 91       		.byte	0x91
 15431 2827 74       		.sleb128 -12
 15432 2828 00       		.byte	0
 15433 2829 2D       		.uleb128 0x2d
 15434 282a 42260000 		.4byte	.LASF552
 15435 282e 01       		.byte	0x1
 15436 282f ED09     		.2byte	0x9ed
 15437 2831 00000000 		.4byte	.LFB107
 15438 2835 64010000 		.4byte	.LFE107-.LFB107
 15439 2839 01       		.uleb128 0x1
 15440 283a 9C       		.byte	0x9c
 15441 283b 9A280000 		.4byte	0x289a
 15442 283f 2C       		.uleb128 0x2c
 15443 2840 260F0000 		.4byte	.LASF526
 15444 2844 01       		.byte	0x1
ARM GAS  C:\Users\RECEPC~1\AppData\Local\Temp\ccMZb0bC.s 			page 319


 15445 2845 ED09     		.2byte	0x9ed
 15446 2847 3B010000 		.4byte	0x13b
 15447 284b 02       		.uleb128 0x2
 15448 284c 91       		.byte	0x91
 15449 284d 6C       		.sleb128 -20
 15450 284e 2C       		.uleb128 0x2c
 15451 284f 1D1A0000 		.4byte	.LASF527
 15452 2853 01       		.byte	0x1
 15453 2854 ED09     		.2byte	0x9ed
 15454 2856 97000000 		.4byte	0x97
 15455 285a 02       		.uleb128 0x2
 15456 285b 91       		.byte	0x91
 15457 285c 6B       		.sleb128 -21
 15458 285d 2A       		.uleb128 0x2a
 15459 285e 281A0000 		.4byte	.LASF549
 15460 2862 01       		.byte	0x1
 15461 2863 EF09     		.2byte	0x9ef
 15462 2865 97000000 		.4byte	0x97
 15463 2869 02       		.uleb128 0x2
 15464 286a 91       		.byte	0x91
 15465 286b 77       		.sleb128 -9
 15466 286c 2A       		.uleb128 0x2a
 15467 286d AC100000 		.4byte	.LASF550
 15468 2871 01       		.byte	0x1
 15469 2872 F009     		.2byte	0x9f0
 15470 2874 49020000 		.4byte	0x249
 15471 2878 02       		.uleb128 0x2
 15472 2879 91       		.byte	0x91
 15473 287a 76       		.sleb128 -10
 15474 287b 2A       		.uleb128 0x2a
 15475 287c 38250000 		.4byte	.LASF492
 15476 2880 01       		.byte	0x1
 15477 2881 F209     		.2byte	0x9f2
 15478 2883 BB000000 		.4byte	0xbb
 15479 2887 02       		.uleb128 0x2
 15480 2888 91       		.byte	0x91
 15481 2889 75       		.sleb128 -11
 15482 288a 2A       		.uleb128 0x2a
 15483 288b 5A130000 		.4byte	.LASF551
 15484 288f 01       		.byte	0x1
 15485 2890 020A     		.2byte	0xa02
 15486 2892 BB000000 		.4byte	0xbb
 15487 2896 02       		.uleb128 0x2
 15488 2897 91       		.byte	0x91
 15489 2898 74       		.sleb128 -12
 15490 2899 00       		.byte	0
 15491 289a 2F       		.uleb128 0x2f
 15492 289b 4B240000 		.4byte	.LASF553
 15493 289f 01       		.byte	0x1
 15494 28a0 2B0A     		.2byte	0xa2b
 15495 28a2 E1000000 		.4byte	0xe1
 15496 28a6 00000000 		.4byte	.LFB108
 15497 28aa 48000000 		.4byte	.LFE108-.LFB108
 15498 28ae 01       		.uleb128 0x1
 15499 28af 9C       		.byte	0x9c
 15500 28b0 E2280000 		.4byte	0x28e2
 15501 28b4 2C       		.uleb128 0x2c
ARM GAS  C:\Users\RECEPC~1\AppData\Local\Temp\ccMZb0bC.s 			page 320


 15502 28b5 C1260000 		.4byte	.LASF554
 15503 28b9 01       		.byte	0x1
 15504 28ba 2B0A     		.2byte	0xa2b
 15505 28bc E1000000 		.4byte	0xe1
 15506 28c0 02       		.uleb128 0x2
 15507 28c1 91       		.byte	0x91
 15508 28c2 6F       		.sleb128 -17
 15509 28c3 2A       		.uleb128 0x2a
 15510 28c4 E0150000 		.4byte	.LASF528
 15511 28c8 01       		.byte	0x1
 15512 28c9 2D0A     		.2byte	0xa2d
 15513 28cb E1000000 		.4byte	0xe1
 15514 28cf 02       		.uleb128 0x2
 15515 28d0 91       		.byte	0x91
 15516 28d1 77       		.sleb128 -9
 15517 28d2 2A       		.uleb128 0x2a
 15518 28d3 4C1B0000 		.4byte	.LASF555
 15519 28d7 01       		.byte	0x1
 15520 28d8 2E0A     		.2byte	0xa2e
 15521 28da 71070000 		.4byte	0x771
 15522 28de 02       		.uleb128 0x2
 15523 28df 91       		.byte	0x91
 15524 28e0 70       		.sleb128 -16
 15525 28e1 00       		.byte	0
 15526 28e2 30       		.uleb128 0x30
 15527 28e3 BB180000 		.4byte	.LASF556
 15528 28e7 0F       		.byte	0xf
 15529 28e8 5506     		.2byte	0x655
 15530 28ea EE280000 		.4byte	0x28ee
 15531 28ee 06       		.uleb128 0x6
 15532 28ef 8C000000 		.4byte	0x8c
 15533 28f3 30       		.uleb128 0x30
 15534 28f4 8D050000 		.4byte	.LASF557
 15535 28f8 0A       		.byte	0xa
 15536 28f9 4F02     		.2byte	0x24f
 15537 28fb 61100000 		.4byte	0x1061
 15538 28ff 0A       		.uleb128 0xa
 15539 2900 1F0D0000 		.4byte	0xd1f
 15540 2904 0F290000 		.4byte	0x290f
 15541 2908 0B       		.uleb128 0xb
 15542 2909 0A010000 		.4byte	0x10a
 15543 290d 03       		.byte	0x3
 15544 290e 00       		.byte	0
 15545 290f 30       		.uleb128 0x30
 15546 2910 41120000 		.4byte	.LASF558
 15547 2914 0A       		.byte	0xa
 15548 2915 5002     		.2byte	0x250
 15549 2917 FF280000 		.4byte	0x28ff
 15550 291b 30       		.uleb128 0x30
 15551 291c C2020000 		.4byte	.LASF559
 15552 2920 0A       		.byte	0xa
 15553 2921 5202     		.2byte	0x252
 15554 2923 57110000 		.4byte	0x1157
 15555 2927 31       		.uleb128 0x31
 15556 2928 8A200000 		.4byte	.LASF560
 15557 292c 0D       		.byte	0xd
 15558 292d C2       		.byte	0xc2
ARM GAS  C:\Users\RECEPC~1\AppData\Local\Temp\ccMZb0bC.s 			page 321


 15559 292e 47140000 		.4byte	0x1447
 15560 2932 31       		.uleb128 0x31
 15561 2933 69200000 		.4byte	.LASF561
 15562 2937 0E       		.byte	0xe
 15563 2938 79       		.byte	0x79
 15564 2939 73140000 		.4byte	0x1473
 15565 293d 31       		.uleb128 0x31
 15566 293e 5B190000 		.4byte	.LASF562
 15567 2942 01       		.byte	0x1
 15568 2943 25       		.byte	0x25
 15569 2944 63110000 		.4byte	0x1163
 15570 2948 0A       		.uleb128 0xa
 15571 2949 E1000000 		.4byte	0xe1
 15572 294d 5E290000 		.4byte	0x295e
 15573 2951 0B       		.uleb128 0xb
 15574 2952 0A010000 		.4byte	0x10a
 15575 2956 0F       		.byte	0xf
 15576 2957 0B       		.uleb128 0xb
 15577 2958 0A010000 		.4byte	0x10a
 15578 295c 01       		.byte	0x1
 15579 295d 00       		.byte	0
 15580 295e 32       		.uleb128 0x32
 15581 295f 93190000 		.4byte	.LASF563
 15582 2963 01       		.byte	0x1
 15583 2964 230A     		.2byte	0xa23
 15584 2966 48290000 		.4byte	0x2948
 15585 296a 05       		.uleb128 0x5
 15586 296b 03       		.byte	0x3
 15587 296c 00000000 		.4byte	_g_sfcharmap
 15588 2970 00       		.byte	0
 15589              		.section	.debug_abbrev,"",%progbits
 15590              	.Ldebug_abbrev0:
 15591 0000 01       		.uleb128 0x1
 15592 0001 11       		.uleb128 0x11
 15593 0002 01       		.byte	0x1
 15594 0003 25       		.uleb128 0x25
 15595 0004 0E       		.uleb128 0xe
 15596 0005 13       		.uleb128 0x13
 15597 0006 0B       		.uleb128 0xb
 15598 0007 03       		.uleb128 0x3
 15599 0008 0E       		.uleb128 0xe
 15600 0009 1B       		.uleb128 0x1b
 15601 000a 0E       		.uleb128 0xe
 15602 000b 55       		.uleb128 0x55
 15603 000c 17       		.uleb128 0x17
 15604 000d 11       		.uleb128 0x11
 15605 000e 01       		.uleb128 0x1
 15606 000f 10       		.uleb128 0x10
 15607 0010 17       		.uleb128 0x17
 15608 0011 00       		.byte	0
 15609 0012 00       		.byte	0
 15610 0013 02       		.uleb128 0x2
 15611 0014 24       		.uleb128 0x24
 15612 0015 00       		.byte	0
 15613 0016 0B       		.uleb128 0xb
 15614 0017 0B       		.uleb128 0xb
 15615 0018 3E       		.uleb128 0x3e
ARM GAS  C:\Users\RECEPC~1\AppData\Local\Temp\ccMZb0bC.s 			page 322


 15616 0019 0B       		.uleb128 0xb
 15617 001a 03       		.uleb128 0x3
 15618 001b 0E       		.uleb128 0xe
 15619 001c 00       		.byte	0
 15620 001d 00       		.byte	0
 15621 001e 03       		.uleb128 0x3
 15622 001f 16       		.uleb128 0x16
 15623 0020 00       		.byte	0
 15624 0021 03       		.uleb128 0x3
 15625 0022 0E       		.uleb128 0xe
 15626 0023 3A       		.uleb128 0x3a
 15627 0024 0B       		.uleb128 0xb
 15628 0025 3B       		.uleb128 0x3b
 15629 0026 0B       		.uleb128 0xb
 15630 0027 49       		.uleb128 0x49
 15631 0028 13       		.uleb128 0x13
 15632 0029 00       		.byte	0
 15633 002a 00       		.byte	0
 15634 002b 04       		.uleb128 0x4
 15635 002c 24       		.uleb128 0x24
 15636 002d 00       		.byte	0
 15637 002e 0B       		.uleb128 0xb
 15638 002f 0B       		.uleb128 0xb
 15639 0030 3E       		.uleb128 0x3e
 15640 0031 0B       		.uleb128 0xb
 15641 0032 03       		.uleb128 0x3
 15642 0033 08       		.uleb128 0x8
 15643 0034 00       		.byte	0
 15644 0035 00       		.byte	0
 15645 0036 05       		.uleb128 0x5
 15646 0037 16       		.uleb128 0x16
 15647 0038 00       		.byte	0
 15648 0039 03       		.uleb128 0x3
 15649 003a 0E       		.uleb128 0xe
 15650 003b 3A       		.uleb128 0x3a
 15651 003c 0B       		.uleb128 0xb
 15652 003d 3B       		.uleb128 0x3b
 15653 003e 05       		.uleb128 0x5
 15654 003f 49       		.uleb128 0x49
 15655 0040 13       		.uleb128 0x13
 15656 0041 00       		.byte	0
 15657 0042 00       		.byte	0
 15658 0043 06       		.uleb128 0x6
 15659 0044 35       		.uleb128 0x35
 15660 0045 00       		.byte	0
 15661 0046 49       		.uleb128 0x49
 15662 0047 13       		.uleb128 0x13
 15663 0048 00       		.byte	0
 15664 0049 00       		.byte	0
 15665 004a 07       		.uleb128 0x7
 15666 004b 0F       		.uleb128 0xf
 15667 004c 00       		.byte	0
 15668 004d 0B       		.uleb128 0xb
 15669 004e 0B       		.uleb128 0xb
 15670 004f 49       		.uleb128 0x49
 15671 0050 13       		.uleb128 0x13
 15672 0051 00       		.byte	0
ARM GAS  C:\Users\RECEPC~1\AppData\Local\Temp\ccMZb0bC.s 			page 323


 15673 0052 00       		.byte	0
 15674 0053 08       		.uleb128 0x8
 15675 0054 15       		.uleb128 0x15
 15676 0055 00       		.byte	0
 15677 0056 27       		.uleb128 0x27
 15678 0057 19       		.uleb128 0x19
 15679 0058 00       		.byte	0
 15680 0059 00       		.byte	0
 15681 005a 09       		.uleb128 0x9
 15682 005b 0F       		.uleb128 0xf
 15683 005c 00       		.byte	0
 15684 005d 0B       		.uleb128 0xb
 15685 005e 0B       		.uleb128 0xb
 15686 005f 00       		.byte	0
 15687 0060 00       		.byte	0
 15688 0061 0A       		.uleb128 0xa
 15689 0062 01       		.uleb128 0x1
 15690 0063 01       		.byte	0x1
 15691 0064 49       		.uleb128 0x49
 15692 0065 13       		.uleb128 0x13
 15693 0066 01       		.uleb128 0x1
 15694 0067 13       		.uleb128 0x13
 15695 0068 00       		.byte	0
 15696 0069 00       		.byte	0
 15697 006a 0B       		.uleb128 0xb
 15698 006b 21       		.uleb128 0x21
 15699 006c 00       		.byte	0
 15700 006d 49       		.uleb128 0x49
 15701 006e 13       		.uleb128 0x13
 15702 006f 2F       		.uleb128 0x2f
 15703 0070 0B       		.uleb128 0xb
 15704 0071 00       		.byte	0
 15705 0072 00       		.byte	0
 15706 0073 0C       		.uleb128 0xc
 15707 0074 04       		.uleb128 0x4
 15708 0075 01       		.byte	0x1
 15709 0076 03       		.uleb128 0x3
 15710 0077 0E       		.uleb128 0xe
 15711 0078 0B       		.uleb128 0xb
 15712 0079 0B       		.uleb128 0xb
 15713 007a 3A       		.uleb128 0x3a
 15714 007b 0B       		.uleb128 0xb
 15715 007c 3B       		.uleb128 0x3b
 15716 007d 0B       		.uleb128 0xb
 15717 007e 01       		.uleb128 0x1
 15718 007f 13       		.uleb128 0x13
 15719 0080 00       		.byte	0
 15720 0081 00       		.byte	0
 15721 0082 0D       		.uleb128 0xd
 15722 0083 28       		.uleb128 0x28
 15723 0084 00       		.byte	0
 15724 0085 03       		.uleb128 0x3
 15725 0086 0E       		.uleb128 0xe
 15726 0087 1C       		.uleb128 0x1c
 15727 0088 0D       		.uleb128 0xd
 15728 0089 00       		.byte	0
 15729 008a 00       		.byte	0
ARM GAS  C:\Users\RECEPC~1\AppData\Local\Temp\ccMZb0bC.s 			page 324


 15730 008b 0E       		.uleb128 0xe
 15731 008c 13       		.uleb128 0x13
 15732 008d 01       		.byte	0x1
 15733 008e 03       		.uleb128 0x3
 15734 008f 0E       		.uleb128 0xe
 15735 0090 0B       		.uleb128 0xb
 15736 0091 05       		.uleb128 0x5
 15737 0092 3A       		.uleb128 0x3a
 15738 0093 0B       		.uleb128 0xb
 15739 0094 3B       		.uleb128 0x3b
 15740 0095 0B       		.uleb128 0xb
 15741 0096 01       		.uleb128 0x1
 15742 0097 13       		.uleb128 0x13
 15743 0098 00       		.byte	0
 15744 0099 00       		.byte	0
 15745 009a 0F       		.uleb128 0xf
 15746 009b 0D       		.uleb128 0xd
 15747 009c 00       		.byte	0
 15748 009d 03       		.uleb128 0x3
 15749 009e 0E       		.uleb128 0xe
 15750 009f 3A       		.uleb128 0x3a
 15751 00a0 0B       		.uleb128 0xb
 15752 00a1 3B       		.uleb128 0x3b
 15753 00a2 0B       		.uleb128 0xb
 15754 00a3 49       		.uleb128 0x49
 15755 00a4 13       		.uleb128 0x13
 15756 00a5 38       		.uleb128 0x38
 15757 00a6 0B       		.uleb128 0xb
 15758 00a7 00       		.byte	0
 15759 00a8 00       		.byte	0
 15760 00a9 10       		.uleb128 0x10
 15761 00aa 0D       		.uleb128 0xd
 15762 00ab 00       		.byte	0
 15763 00ac 03       		.uleb128 0x3
 15764 00ad 0E       		.uleb128 0xe
 15765 00ae 3A       		.uleb128 0x3a
 15766 00af 0B       		.uleb128 0xb
 15767 00b0 3B       		.uleb128 0x3b
 15768 00b1 0B       		.uleb128 0xb
 15769 00b2 49       		.uleb128 0x49
 15770 00b3 13       		.uleb128 0x13
 15771 00b4 38       		.uleb128 0x38
 15772 00b5 05       		.uleb128 0x5
 15773 00b6 00       		.byte	0
 15774 00b7 00       		.byte	0
 15775 00b8 11       		.uleb128 0x11
 15776 00b9 21       		.uleb128 0x21
 15777 00ba 00       		.byte	0
 15778 00bb 49       		.uleb128 0x49
 15779 00bc 13       		.uleb128 0x13
 15780 00bd 2F       		.uleb128 0x2f
 15781 00be 05       		.uleb128 0x5
 15782 00bf 00       		.byte	0
 15783 00c0 00       		.byte	0
 15784 00c1 12       		.uleb128 0x12
 15785 00c2 15       		.uleb128 0x15
 15786 00c3 01       		.byte	0x1
ARM GAS  C:\Users\RECEPC~1\AppData\Local\Temp\ccMZb0bC.s 			page 325


 15787 00c4 27       		.uleb128 0x27
 15788 00c5 19       		.uleb128 0x19
 15789 00c6 01       		.uleb128 0x1
 15790 00c7 13       		.uleb128 0x13
 15791 00c8 00       		.byte	0
 15792 00c9 00       		.byte	0
 15793 00ca 13       		.uleb128 0x13
 15794 00cb 05       		.uleb128 0x5
 15795 00cc 00       		.byte	0
 15796 00cd 49       		.uleb128 0x49
 15797 00ce 13       		.uleb128 0x13
 15798 00cf 00       		.byte	0
 15799 00d0 00       		.byte	0
 15800 00d1 14       		.uleb128 0x14
 15801 00d2 13       		.uleb128 0x13
 15802 00d3 01       		.byte	0x1
 15803 00d4 03       		.uleb128 0x3
 15804 00d5 0E       		.uleb128 0xe
 15805 00d6 0B       		.uleb128 0xb
 15806 00d7 0B       		.uleb128 0xb
 15807 00d8 3A       		.uleb128 0x3a
 15808 00d9 0B       		.uleb128 0xb
 15809 00da 3B       		.uleb128 0x3b
 15810 00db 0B       		.uleb128 0xb
 15811 00dc 01       		.uleb128 0x1
 15812 00dd 13       		.uleb128 0x13
 15813 00de 00       		.byte	0
 15814 00df 00       		.byte	0
 15815 00e0 15       		.uleb128 0x15
 15816 00e1 15       		.uleb128 0x15
 15817 00e2 00       		.byte	0
 15818 00e3 27       		.uleb128 0x27
 15819 00e4 19       		.uleb128 0x19
 15820 00e5 49       		.uleb128 0x49
 15821 00e6 13       		.uleb128 0x13
 15822 00e7 00       		.byte	0
 15823 00e8 00       		.byte	0
 15824 00e9 16       		.uleb128 0x16
 15825 00ea 26       		.uleb128 0x26
 15826 00eb 00       		.byte	0
 15827 00ec 49       		.uleb128 0x49
 15828 00ed 13       		.uleb128 0x13
 15829 00ee 00       		.byte	0
 15830 00ef 00       		.byte	0
 15831 00f0 17       		.uleb128 0x17
 15832 00f1 04       		.uleb128 0x4
 15833 00f2 01       		.byte	0x1
 15834 00f3 0B       		.uleb128 0xb
 15835 00f4 0B       		.uleb128 0xb
 15836 00f5 3A       		.uleb128 0x3a
 15837 00f6 0B       		.uleb128 0xb
 15838 00f7 3B       		.uleb128 0x3b
 15839 00f8 0B       		.uleb128 0xb
 15840 00f9 01       		.uleb128 0x1
 15841 00fa 13       		.uleb128 0x13
 15842 00fb 00       		.byte	0
 15843 00fc 00       		.byte	0
ARM GAS  C:\Users\RECEPC~1\AppData\Local\Temp\ccMZb0bC.s 			page 326


 15844 00fd 18       		.uleb128 0x18
 15845 00fe 15       		.uleb128 0x15
 15846 00ff 01       		.byte	0x1
 15847 0100 27       		.uleb128 0x27
 15848 0101 19       		.uleb128 0x19
 15849 0102 49       		.uleb128 0x49
 15850 0103 13       		.uleb128 0x13
 15851 0104 01       		.uleb128 0x1
 15852 0105 13       		.uleb128 0x13
 15853 0106 00       		.byte	0
 15854 0107 00       		.byte	0
 15855 0108 19       		.uleb128 0x19
 15856 0109 28       		.uleb128 0x28
 15857 010a 00       		.byte	0
 15858 010b 03       		.uleb128 0x3
 15859 010c 08       		.uleb128 0x8
 15860 010d 1C       		.uleb128 0x1c
 15861 010e 0D       		.uleb128 0xd
 15862 010f 00       		.byte	0
 15863 0110 00       		.byte	0
 15864 0111 1A       		.uleb128 0x1a
 15865 0112 04       		.uleb128 0x4
 15866 0113 01       		.byte	0x1
 15867 0114 03       		.uleb128 0x3
 15868 0115 0E       		.uleb128 0xe
 15869 0116 0B       		.uleb128 0xb
 15870 0117 0B       		.uleb128 0xb
 15871 0118 3A       		.uleb128 0x3a
 15872 0119 0B       		.uleb128 0xb
 15873 011a 3B       		.uleb128 0x3b
 15874 011b 05       		.uleb128 0x5
 15875 011c 01       		.uleb128 0x1
 15876 011d 13       		.uleb128 0x13
 15877 011e 00       		.byte	0
 15878 011f 00       		.byte	0
 15879 0120 1B       		.uleb128 0x1b
 15880 0121 13       		.uleb128 0x13
 15881 0122 01       		.byte	0x1
 15882 0123 0B       		.uleb128 0xb
 15883 0124 05       		.uleb128 0x5
 15884 0125 3A       		.uleb128 0x3a
 15885 0126 0B       		.uleb128 0xb
 15886 0127 3B       		.uleb128 0x3b
 15887 0128 05       		.uleb128 0x5
 15888 0129 01       		.uleb128 0x1
 15889 012a 13       		.uleb128 0x13
 15890 012b 00       		.byte	0
 15891 012c 00       		.byte	0
 15892 012d 1C       		.uleb128 0x1c
 15893 012e 0D       		.uleb128 0xd
 15894 012f 00       		.byte	0
 15895 0130 03       		.uleb128 0x3
 15896 0131 0E       		.uleb128 0xe
 15897 0132 3A       		.uleb128 0x3a
 15898 0133 0B       		.uleb128 0xb
 15899 0134 3B       		.uleb128 0x3b
 15900 0135 05       		.uleb128 0x5
ARM GAS  C:\Users\RECEPC~1\AppData\Local\Temp\ccMZb0bC.s 			page 327


 15901 0136 49       		.uleb128 0x49
 15902 0137 13       		.uleb128 0x13
 15903 0138 38       		.uleb128 0x38
 15904 0139 0B       		.uleb128 0xb
 15905 013a 00       		.byte	0
 15906 013b 00       		.byte	0
 15907 013c 1D       		.uleb128 0x1d
 15908 013d 0D       		.uleb128 0xd
 15909 013e 00       		.byte	0
 15910 013f 03       		.uleb128 0x3
 15911 0140 0E       		.uleb128 0xe
 15912 0141 3A       		.uleb128 0x3a
 15913 0142 0B       		.uleb128 0xb
 15914 0143 3B       		.uleb128 0x3b
 15915 0144 05       		.uleb128 0x5
 15916 0145 49       		.uleb128 0x49
 15917 0146 13       		.uleb128 0x13
 15918 0147 38       		.uleb128 0x38
 15919 0148 05       		.uleb128 0x5
 15920 0149 00       		.byte	0
 15921 014a 00       		.byte	0
 15922 014b 1E       		.uleb128 0x1e
 15923 014c 13       		.uleb128 0x13
 15924 014d 01       		.byte	0x1
 15925 014e 0B       		.uleb128 0xb
 15926 014f 0B       		.uleb128 0xb
 15927 0150 3A       		.uleb128 0x3a
 15928 0151 0B       		.uleb128 0xb
 15929 0152 3B       		.uleb128 0x3b
 15930 0153 05       		.uleb128 0x5
 15931 0154 01       		.uleb128 0x1
 15932 0155 13       		.uleb128 0x13
 15933 0156 00       		.byte	0
 15934 0157 00       		.byte	0
 15935 0158 1F       		.uleb128 0x1f
 15936 0159 13       		.uleb128 0x13
 15937 015a 01       		.byte	0x1
 15938 015b 03       		.uleb128 0x3
 15939 015c 0E       		.uleb128 0xe
 15940 015d 0B       		.uleb128 0xb
 15941 015e 05       		.uleb128 0x5
 15942 015f 3A       		.uleb128 0x3a
 15943 0160 0B       		.uleb128 0xb
 15944 0161 3B       		.uleb128 0x3b
 15945 0162 05       		.uleb128 0x5
 15946 0163 01       		.uleb128 0x1
 15947 0164 13       		.uleb128 0x13
 15948 0165 00       		.byte	0
 15949 0166 00       		.byte	0
 15950 0167 20       		.uleb128 0x20
 15951 0168 13       		.uleb128 0x13
 15952 0169 01       		.byte	0x1
 15953 016a 03       		.uleb128 0x3
 15954 016b 0E       		.uleb128 0xe
 15955 016c 0B       		.uleb128 0xb
 15956 016d 0B       		.uleb128 0xb
 15957 016e 3A       		.uleb128 0x3a
ARM GAS  C:\Users\RECEPC~1\AppData\Local\Temp\ccMZb0bC.s 			page 328


 15958 016f 0B       		.uleb128 0xb
 15959 0170 3B       		.uleb128 0x3b
 15960 0171 05       		.uleb128 0x5
 15961 0172 01       		.uleb128 0x1
 15962 0173 13       		.uleb128 0x13
 15963 0174 00       		.byte	0
 15964 0175 00       		.byte	0
 15965 0176 21       		.uleb128 0x21
 15966 0177 0D       		.uleb128 0xd
 15967 0178 00       		.byte	0
 15968 0179 03       		.uleb128 0x3
 15969 017a 0E       		.uleb128 0xe
 15970 017b 3A       		.uleb128 0x3a
 15971 017c 0B       		.uleb128 0xb
 15972 017d 3B       		.uleb128 0x3b
 15973 017e 05       		.uleb128 0x5
 15974 017f 49       		.uleb128 0x49
 15975 0180 13       		.uleb128 0x13
 15976 0181 0B       		.uleb128 0xb
 15977 0182 0B       		.uleb128 0xb
 15978 0183 0D       		.uleb128 0xd
 15979 0184 0B       		.uleb128 0xb
 15980 0185 0C       		.uleb128 0xc
 15981 0186 0B       		.uleb128 0xb
 15982 0187 38       		.uleb128 0x38
 15983 0188 0B       		.uleb128 0xb
 15984 0189 00       		.byte	0
 15985 018a 00       		.byte	0
 15986 018b 22       		.uleb128 0x22
 15987 018c 13       		.uleb128 0x13
 15988 018d 01       		.byte	0x1
 15989 018e 0B       		.uleb128 0xb
 15990 018f 0B       		.uleb128 0xb
 15991 0190 3A       		.uleb128 0x3a
 15992 0191 0B       		.uleb128 0xb
 15993 0192 3B       		.uleb128 0x3b
 15994 0193 0B       		.uleb128 0xb
 15995 0194 01       		.uleb128 0x1
 15996 0195 13       		.uleb128 0x13
 15997 0196 00       		.byte	0
 15998 0197 00       		.byte	0
 15999 0198 23       		.uleb128 0x23
 16000 0199 2E       		.uleb128 0x2e
 16001 019a 01       		.byte	0x1
 16002 019b 3F       		.uleb128 0x3f
 16003 019c 19       		.uleb128 0x19
 16004 019d 03       		.uleb128 0x3
 16005 019e 0E       		.uleb128 0xe
 16006 019f 3A       		.uleb128 0x3a
 16007 01a0 0B       		.uleb128 0xb
 16008 01a1 3B       		.uleb128 0x3b
 16009 01a2 0B       		.uleb128 0xb
 16010 01a3 27       		.uleb128 0x27
 16011 01a4 19       		.uleb128 0x19
 16012 01a5 11       		.uleb128 0x11
 16013 01a6 01       		.uleb128 0x1
 16014 01a7 12       		.uleb128 0x12
ARM GAS  C:\Users\RECEPC~1\AppData\Local\Temp\ccMZb0bC.s 			page 329


 16015 01a8 06       		.uleb128 0x6
 16016 01a9 40       		.uleb128 0x40
 16017 01aa 18       		.uleb128 0x18
 16018 01ab 9642     		.uleb128 0x2116
 16019 01ad 19       		.uleb128 0x19
 16020 01ae 01       		.uleb128 0x1
 16021 01af 13       		.uleb128 0x13
 16022 01b0 00       		.byte	0
 16023 01b1 00       		.byte	0
 16024 01b2 24       		.uleb128 0x24
 16025 01b3 05       		.uleb128 0x5
 16026 01b4 00       		.byte	0
 16027 01b5 03       		.uleb128 0x3
 16028 01b6 0E       		.uleb128 0xe
 16029 01b7 3A       		.uleb128 0x3a
 16030 01b8 0B       		.uleb128 0xb
 16031 01b9 3B       		.uleb128 0x3b
 16032 01ba 0B       		.uleb128 0xb
 16033 01bb 49       		.uleb128 0x49
 16034 01bc 13       		.uleb128 0x13
 16035 01bd 02       		.uleb128 0x2
 16036 01be 18       		.uleb128 0x18
 16037 01bf 00       		.byte	0
 16038 01c0 00       		.byte	0
 16039 01c1 25       		.uleb128 0x25
 16040 01c2 34       		.uleb128 0x34
 16041 01c3 00       		.byte	0
 16042 01c4 03       		.uleb128 0x3
 16043 01c5 0E       		.uleb128 0xe
 16044 01c6 3A       		.uleb128 0x3a
 16045 01c7 0B       		.uleb128 0xb
 16046 01c8 3B       		.uleb128 0x3b
 16047 01c9 0B       		.uleb128 0xb
 16048 01ca 49       		.uleb128 0x49
 16049 01cb 13       		.uleb128 0x13
 16050 01cc 02       		.uleb128 0x2
 16051 01cd 18       		.uleb128 0x18
 16052 01ce 00       		.byte	0
 16053 01cf 00       		.byte	0
 16054 01d0 26       		.uleb128 0x26
 16055 01d1 0B       		.uleb128 0xb
 16056 01d2 01       		.byte	0x1
 16057 01d3 11       		.uleb128 0x11
 16058 01d4 01       		.uleb128 0x1
 16059 01d5 12       		.uleb128 0x12
 16060 01d6 06       		.uleb128 0x6
 16061 01d7 00       		.byte	0
 16062 01d8 00       		.byte	0
 16063 01d9 27       		.uleb128 0x27
 16064 01da 2E       		.uleb128 0x2e
 16065 01db 01       		.byte	0x1
 16066 01dc 3F       		.uleb128 0x3f
 16067 01dd 19       		.uleb128 0x19
 16068 01de 03       		.uleb128 0x3
 16069 01df 0E       		.uleb128 0xe
 16070 01e0 3A       		.uleb128 0x3a
 16071 01e1 0B       		.uleb128 0xb
ARM GAS  C:\Users\RECEPC~1\AppData\Local\Temp\ccMZb0bC.s 			page 330


 16072 01e2 3B       		.uleb128 0x3b
 16073 01e3 0B       		.uleb128 0xb
 16074 01e4 27       		.uleb128 0x27
 16075 01e5 19       		.uleb128 0x19
 16076 01e6 11       		.uleb128 0x11
 16077 01e7 01       		.uleb128 0x1
 16078 01e8 12       		.uleb128 0x12
 16079 01e9 06       		.uleb128 0x6
 16080 01ea 40       		.uleb128 0x40
 16081 01eb 18       		.uleb128 0x18
 16082 01ec 9742     		.uleb128 0x2117
 16083 01ee 19       		.uleb128 0x19
 16084 01ef 01       		.uleb128 0x1
 16085 01f0 13       		.uleb128 0x13
 16086 01f1 00       		.byte	0
 16087 01f2 00       		.byte	0
 16088 01f3 28       		.uleb128 0x28
 16089 01f4 34       		.uleb128 0x34
 16090 01f5 00       		.byte	0
 16091 01f6 03       		.uleb128 0x3
 16092 01f7 08       		.uleb128 0x8
 16093 01f8 3A       		.uleb128 0x3a
 16094 01f9 0B       		.uleb128 0xb
 16095 01fa 3B       		.uleb128 0x3b
 16096 01fb 05       		.uleb128 0x5
 16097 01fc 49       		.uleb128 0x49
 16098 01fd 13       		.uleb128 0x13
 16099 01fe 02       		.uleb128 0x2
 16100 01ff 18       		.uleb128 0x18
 16101 0200 00       		.byte	0
 16102 0201 00       		.byte	0
 16103 0202 29       		.uleb128 0x29
 16104 0203 0B       		.uleb128 0xb
 16105 0204 01       		.byte	0x1
 16106 0205 11       		.uleb128 0x11
 16107 0206 01       		.uleb128 0x1
 16108 0207 12       		.uleb128 0x12
 16109 0208 06       		.uleb128 0x6
 16110 0209 01       		.uleb128 0x1
 16111 020a 13       		.uleb128 0x13
 16112 020b 00       		.byte	0
 16113 020c 00       		.byte	0
 16114 020d 2A       		.uleb128 0x2a
 16115 020e 34       		.uleb128 0x34
 16116 020f 00       		.byte	0
 16117 0210 03       		.uleb128 0x3
 16118 0211 0E       		.uleb128 0xe
 16119 0212 3A       		.uleb128 0x3a
 16120 0213 0B       		.uleb128 0xb
 16121 0214 3B       		.uleb128 0x3b
 16122 0215 05       		.uleb128 0x5
 16123 0216 49       		.uleb128 0x49
 16124 0217 13       		.uleb128 0x13
 16125 0218 02       		.uleb128 0x2
 16126 0219 18       		.uleb128 0x18
 16127 021a 00       		.byte	0
 16128 021b 00       		.byte	0
ARM GAS  C:\Users\RECEPC~1\AppData\Local\Temp\ccMZb0bC.s 			page 331


 16129 021c 2B       		.uleb128 0x2b
 16130 021d 2E       		.uleb128 0x2e
 16131 021e 01       		.byte	0x1
 16132 021f 3F       		.uleb128 0x3f
 16133 0220 19       		.uleb128 0x19
 16134 0221 03       		.uleb128 0x3
 16135 0222 0E       		.uleb128 0xe
 16136 0223 3A       		.uleb128 0x3a
 16137 0224 0B       		.uleb128 0xb
 16138 0225 3B       		.uleb128 0x3b
 16139 0226 05       		.uleb128 0x5
 16140 0227 27       		.uleb128 0x27
 16141 0228 19       		.uleb128 0x19
 16142 0229 11       		.uleb128 0x11
 16143 022a 01       		.uleb128 0x1
 16144 022b 12       		.uleb128 0x12
 16145 022c 06       		.uleb128 0x6
 16146 022d 40       		.uleb128 0x40
 16147 022e 18       		.uleb128 0x18
 16148 022f 9642     		.uleb128 0x2116
 16149 0231 19       		.uleb128 0x19
 16150 0232 01       		.uleb128 0x1
 16151 0233 13       		.uleb128 0x13
 16152 0234 00       		.byte	0
 16153 0235 00       		.byte	0
 16154 0236 2C       		.uleb128 0x2c
 16155 0237 05       		.uleb128 0x5
 16156 0238 00       		.byte	0
 16157 0239 03       		.uleb128 0x3
 16158 023a 0E       		.uleb128 0xe
 16159 023b 3A       		.uleb128 0x3a
 16160 023c 0B       		.uleb128 0xb
 16161 023d 3B       		.uleb128 0x3b
 16162 023e 05       		.uleb128 0x5
 16163 023f 49       		.uleb128 0x49
 16164 0240 13       		.uleb128 0x13
 16165 0241 02       		.uleb128 0x2
 16166 0242 18       		.uleb128 0x18
 16167 0243 00       		.byte	0
 16168 0244 00       		.byte	0
 16169 0245 2D       		.uleb128 0x2d
 16170 0246 2E       		.uleb128 0x2e
 16171 0247 01       		.byte	0x1
 16172 0248 3F       		.uleb128 0x3f
 16173 0249 19       		.uleb128 0x19
 16174 024a 03       		.uleb128 0x3
 16175 024b 0E       		.uleb128 0xe
 16176 024c 3A       		.uleb128 0x3a
 16177 024d 0B       		.uleb128 0xb
 16178 024e 3B       		.uleb128 0x3b
 16179 024f 05       		.uleb128 0x5
 16180 0250 27       		.uleb128 0x27
 16181 0251 19       		.uleb128 0x19
 16182 0252 11       		.uleb128 0x11
 16183 0253 01       		.uleb128 0x1
 16184 0254 12       		.uleb128 0x12
 16185 0255 06       		.uleb128 0x6
ARM GAS  C:\Users\RECEPC~1\AppData\Local\Temp\ccMZb0bC.s 			page 332


 16186 0256 40       		.uleb128 0x40
 16187 0257 18       		.uleb128 0x18
 16188 0258 9742     		.uleb128 0x2117
 16189 025a 19       		.uleb128 0x19
 16190 025b 01       		.uleb128 0x1
 16191 025c 13       		.uleb128 0x13
 16192 025d 00       		.byte	0
 16193 025e 00       		.byte	0
 16194 025f 2E       		.uleb128 0x2e
 16195 0260 2E       		.uleb128 0x2e
 16196 0261 01       		.byte	0x1
 16197 0262 3F       		.uleb128 0x3f
 16198 0263 19       		.uleb128 0x19
 16199 0264 03       		.uleb128 0x3
 16200 0265 0E       		.uleb128 0xe
 16201 0266 3A       		.uleb128 0x3a
 16202 0267 0B       		.uleb128 0xb
 16203 0268 3B       		.uleb128 0x3b
 16204 0269 05       		.uleb128 0x5
 16205 026a 27       		.uleb128 0x27
 16206 026b 19       		.uleb128 0x19
 16207 026c 49       		.uleb128 0x49
 16208 026d 13       		.uleb128 0x13
 16209 026e 11       		.uleb128 0x11
 16210 026f 01       		.uleb128 0x1
 16211 0270 12       		.uleb128 0x12
 16212 0271 06       		.uleb128 0x6
 16213 0272 40       		.uleb128 0x40
 16214 0273 18       		.uleb128 0x18
 16215 0274 9642     		.uleb128 0x2116
 16216 0276 19       		.uleb128 0x19
 16217 0277 01       		.uleb128 0x1
 16218 0278 13       		.uleb128 0x13
 16219 0279 00       		.byte	0
 16220 027a 00       		.byte	0
 16221 027b 2F       		.uleb128 0x2f
 16222 027c 2E       		.uleb128 0x2e
 16223 027d 01       		.byte	0x1
 16224 027e 3F       		.uleb128 0x3f
 16225 027f 19       		.uleb128 0x19
 16226 0280 03       		.uleb128 0x3
 16227 0281 0E       		.uleb128 0xe
 16228 0282 3A       		.uleb128 0x3a
 16229 0283 0B       		.uleb128 0xb
 16230 0284 3B       		.uleb128 0x3b
 16231 0285 05       		.uleb128 0x5
 16232 0286 27       		.uleb128 0x27
 16233 0287 19       		.uleb128 0x19
 16234 0288 49       		.uleb128 0x49
 16235 0289 13       		.uleb128 0x13
 16236 028a 11       		.uleb128 0x11
 16237 028b 01       		.uleb128 0x1
 16238 028c 12       		.uleb128 0x12
 16239 028d 06       		.uleb128 0x6
 16240 028e 40       		.uleb128 0x40
 16241 028f 18       		.uleb128 0x18
 16242 0290 9742     		.uleb128 0x2117
ARM GAS  C:\Users\RECEPC~1\AppData\Local\Temp\ccMZb0bC.s 			page 333


 16243 0292 19       		.uleb128 0x19
 16244 0293 01       		.uleb128 0x1
 16245 0294 13       		.uleb128 0x13
 16246 0295 00       		.byte	0
 16247 0296 00       		.byte	0
 16248 0297 30       		.uleb128 0x30
 16249 0298 34       		.uleb128 0x34
 16250 0299 00       		.byte	0
 16251 029a 03       		.uleb128 0x3
 16252 029b 0E       		.uleb128 0xe
 16253 029c 3A       		.uleb128 0x3a
 16254 029d 0B       		.uleb128 0xb
 16255 029e 3B       		.uleb128 0x3b
 16256 029f 05       		.uleb128 0x5
 16257 02a0 49       		.uleb128 0x49
 16258 02a1 13       		.uleb128 0x13
 16259 02a2 3F       		.uleb128 0x3f
 16260 02a3 19       		.uleb128 0x19
 16261 02a4 3C       		.uleb128 0x3c
 16262 02a5 19       		.uleb128 0x19
 16263 02a6 00       		.byte	0
 16264 02a7 00       		.byte	0
 16265 02a8 31       		.uleb128 0x31
 16266 02a9 34       		.uleb128 0x34
 16267 02aa 00       		.byte	0
 16268 02ab 03       		.uleb128 0x3
 16269 02ac 0E       		.uleb128 0xe
 16270 02ad 3A       		.uleb128 0x3a
 16271 02ae 0B       		.uleb128 0xb
 16272 02af 3B       		.uleb128 0x3b
 16273 02b0 0B       		.uleb128 0xb
 16274 02b1 49       		.uleb128 0x49
 16275 02b2 13       		.uleb128 0x13
 16276 02b3 3F       		.uleb128 0x3f
 16277 02b4 19       		.uleb128 0x19
 16278 02b5 3C       		.uleb128 0x3c
 16279 02b6 19       		.uleb128 0x19
 16280 02b7 00       		.byte	0
 16281 02b8 00       		.byte	0
 16282 02b9 32       		.uleb128 0x32
 16283 02ba 34       		.uleb128 0x34
 16284 02bb 00       		.byte	0
 16285 02bc 03       		.uleb128 0x3
 16286 02bd 0E       		.uleb128 0xe
 16287 02be 3A       		.uleb128 0x3a
 16288 02bf 0B       		.uleb128 0xb
 16289 02c0 3B       		.uleb128 0x3b
 16290 02c1 05       		.uleb128 0x5
 16291 02c2 49       		.uleb128 0x49
 16292 02c3 13       		.uleb128 0x13
 16293 02c4 3F       		.uleb128 0x3f
 16294 02c5 19       		.uleb128 0x19
 16295 02c6 02       		.uleb128 0x2
 16296 02c7 18       		.uleb128 0x18
 16297 02c8 00       		.byte	0
 16298 02c9 00       		.byte	0
 16299 02ca 00       		.byte	0
ARM GAS  C:\Users\RECEPC~1\AppData\Local\Temp\ccMZb0bC.s 			page 334


 16300              		.section	.debug_aranges,"",%progbits
 16301 0000 84010000 		.4byte	0x184
 16302 0004 0200     		.2byte	0x2
 16303 0006 00000000 		.4byte	.Ldebug_info0
 16304 000a 04       		.byte	0x4
 16305 000b 00       		.byte	0
 16306 000c 0000     		.2byte	0
 16307 000e 0000     		.2byte	0
 16308 0010 00000000 		.4byte	.LFB63
 16309 0014 AA000000 		.4byte	.LFE63-.LFB63
 16310 0018 00000000 		.4byte	.LFB64
 16311 001c 48000000 		.4byte	.LFE64-.LFB64
 16312 0020 00000000 		.4byte	.LFB65
 16313 0024 E0000000 		.4byte	.LFE65-.LFB65
 16314 0028 00000000 		.4byte	.LFB66
 16315 002c 06100000 		.4byte	.LFE66-.LFB66
 16316 0030 00000000 		.4byte	.LFB67
 16317 0034 A0010000 		.4byte	.LFE67-.LFB67
 16318 0038 00000000 		.4byte	.LFB68
 16319 003c 2C000000 		.4byte	.LFE68-.LFB68
 16320 0040 00000000 		.4byte	.LFB69
 16321 0044 36000000 		.4byte	.LFE69-.LFB69
 16322 0048 00000000 		.4byte	.LFB70
 16323 004c 36000000 		.4byte	.LFE70-.LFB70
 16324 0050 00000000 		.4byte	.LFB71
 16325 0054 82000000 		.4byte	.LFE71-.LFB71
 16326 0058 00000000 		.4byte	.LFB72
 16327 005c 70000000 		.4byte	.LFE72-.LFB72
 16328 0060 00000000 		.4byte	.LFB73
 16329 0064 60000000 		.4byte	.LFE73-.LFB73
 16330 0068 00000000 		.4byte	.LFB74
 16331 006c 6A000000 		.4byte	.LFE74-.LFB74
 16332 0070 00000000 		.4byte	.LFB75
 16333 0074 6A000000 		.4byte	.LFE75-.LFB75
 16334 0078 00000000 		.4byte	.LFB76
 16335 007c 6A000000 		.4byte	.LFE76-.LFB76
 16336 0080 00000000 		.4byte	.LFB77
 16337 0084 6A000000 		.4byte	.LFE77-.LFB77
 16338 0088 00000000 		.4byte	.LFB78
 16339 008c 9E030000 		.4byte	.LFE78-.LFB78
 16340 0090 00000000 		.4byte	.LFB79
 16341 0094 58030000 		.4byte	.LFE79-.LFB79
 16342 0098 00000000 		.4byte	.LFB80
 16343 009c BC020000 		.4byte	.LFE80-.LFB80
 16344 00a0 00000000 		.4byte	.LFB81
 16345 00a4 B6010000 		.4byte	.LFE81-.LFB81
 16346 00a8 00000000 		.4byte	.LFB82
 16347 00ac E8000000 		.4byte	.LFE82-.LFB82
 16348 00b0 00000000 		.4byte	.LFB83
 16349 00b4 1C030000 		.4byte	.LFE83-.LFB83
 16350 00b8 00000000 		.4byte	.LFB84
 16351 00bc 74020000 		.4byte	.LFE84-.LFB84
 16352 00c0 00000000 		.4byte	.LFB85
 16353 00c4 C4020000 		.4byte	.LFE85-.LFB85
 16354 00c8 00000000 		.4byte	.LFB86
 16355 00cc B0010000 		.4byte	.LFE86-.LFB86
 16356 00d0 00000000 		.4byte	.LFB87
ARM GAS  C:\Users\RECEPC~1\AppData\Local\Temp\ccMZb0bC.s 			page 335


 16357 00d4 3C020000 		.4byte	.LFE87-.LFB87
 16358 00d8 00000000 		.4byte	.LFB88
 16359 00dc 6A000000 		.4byte	.LFE88-.LFB88
 16360 00e0 00000000 		.4byte	.LFB89
 16361 00e4 60000000 		.4byte	.LFE89-.LFB89
 16362 00e8 00000000 		.4byte	.LFB90
 16363 00ec E6000000 		.4byte	.LFE90-.LFB90
 16364 00f0 00000000 		.4byte	.LFB91
 16365 00f4 54040000 		.4byte	.LFE91-.LFB91
 16366 00f8 00000000 		.4byte	.LFB92
 16367 00fc D0020000 		.4byte	.LFE92-.LFB92
 16368 0100 00000000 		.4byte	.LFB93
 16369 0104 28010000 		.4byte	.LFE93-.LFB93
 16370 0108 00000000 		.4byte	.LFB94
 16371 010c 60000000 		.4byte	.LFE94-.LFB94
 16372 0110 00000000 		.4byte	.LFB95
 16373 0114 40020000 		.4byte	.LFE95-.LFB95
 16374 0118 00000000 		.4byte	.LFB96
 16375 011c 6C000000 		.4byte	.LFE96-.LFB96
 16376 0120 00000000 		.4byte	.LFB97
 16377 0124 5C010000 		.4byte	.LFE97-.LFB97
 16378 0128 00000000 		.4byte	.LFB98
 16379 012c 4C000000 		.4byte	.LFE98-.LFB98
 16380 0130 00000000 		.4byte	.LFB99
 16381 0134 98000000 		.4byte	.LFE99-.LFB99
 16382 0138 00000000 		.4byte	.LFB100
 16383 013c AC000000 		.4byte	.LFE100-.LFB100
 16384 0140 00000000 		.4byte	.LFB101
 16385 0144 5E000000 		.4byte	.LFE101-.LFB101
 16386 0148 00000000 		.4byte	.LFB102
 16387 014c 32000000 		.4byte	.LFE102-.LFB102
 16388 0150 00000000 		.4byte	.LFB103
 16389 0154 2C000000 		.4byte	.LFE103-.LFB103
 16390 0158 00000000 		.4byte	.LFB104
 16391 015c 2C000000 		.4byte	.LFE104-.LFB104
 16392 0160 00000000 		.4byte	.LFB105
 16393 0164 54020000 		.4byte	.LFE105-.LFB105
 16394 0168 00000000 		.4byte	.LFB106
 16395 016c 74010000 		.4byte	.LFE106-.LFB106
 16396 0170 00000000 		.4byte	.LFB107
 16397 0174 64010000 		.4byte	.LFE107-.LFB107
 16398 0178 00000000 		.4byte	.LFB108
 16399 017c 48000000 		.4byte	.LFE108-.LFB108
 16400 0180 00000000 		.4byte	0
 16401 0184 00000000 		.4byte	0
 16402              		.section	.debug_ranges,"",%progbits
 16403              	.Ldebug_ranges0:
 16404 0000 00000000 		.4byte	.LFB63
 16405 0004 AA000000 		.4byte	.LFE63
 16406 0008 00000000 		.4byte	.LFB64
 16407 000c 48000000 		.4byte	.LFE64
 16408 0010 00000000 		.4byte	.LFB65
 16409 0014 E0000000 		.4byte	.LFE65
 16410 0018 00000000 		.4byte	.LFB66
 16411 001c 06100000 		.4byte	.LFE66
 16412 0020 00000000 		.4byte	.LFB67
 16413 0024 A0010000 		.4byte	.LFE67
ARM GAS  C:\Users\RECEPC~1\AppData\Local\Temp\ccMZb0bC.s 			page 336


 16414 0028 00000000 		.4byte	.LFB68
 16415 002c 2C000000 		.4byte	.LFE68
 16416 0030 00000000 		.4byte	.LFB69
 16417 0034 36000000 		.4byte	.LFE69
 16418 0038 00000000 		.4byte	.LFB70
 16419 003c 36000000 		.4byte	.LFE70
 16420 0040 00000000 		.4byte	.LFB71
 16421 0044 82000000 		.4byte	.LFE71
 16422 0048 00000000 		.4byte	.LFB72
 16423 004c 70000000 		.4byte	.LFE72
 16424 0050 00000000 		.4byte	.LFB73
 16425 0054 60000000 		.4byte	.LFE73
 16426 0058 00000000 		.4byte	.LFB74
 16427 005c 6A000000 		.4byte	.LFE74
 16428 0060 00000000 		.4byte	.LFB75
 16429 0064 6A000000 		.4byte	.LFE75
 16430 0068 00000000 		.4byte	.LFB76
 16431 006c 6A000000 		.4byte	.LFE76
 16432 0070 00000000 		.4byte	.LFB77
 16433 0074 6A000000 		.4byte	.LFE77
 16434 0078 00000000 		.4byte	.LFB78
 16435 007c 9E030000 		.4byte	.LFE78
 16436 0080 00000000 		.4byte	.LFB79
 16437 0084 58030000 		.4byte	.LFE79
 16438 0088 00000000 		.4byte	.LFB80
 16439 008c BC020000 		.4byte	.LFE80
 16440 0090 00000000 		.4byte	.LFB81
 16441 0094 B6010000 		.4byte	.LFE81
 16442 0098 00000000 		.4byte	.LFB82
 16443 009c E8000000 		.4byte	.LFE82
 16444 00a0 00000000 		.4byte	.LFB83
 16445 00a4 1C030000 		.4byte	.LFE83
 16446 00a8 00000000 		.4byte	.LFB84
 16447 00ac 74020000 		.4byte	.LFE84
 16448 00b0 00000000 		.4byte	.LFB85
 16449 00b4 C4020000 		.4byte	.LFE85
 16450 00b8 00000000 		.4byte	.LFB86
 16451 00bc B0010000 		.4byte	.LFE86
 16452 00c0 00000000 		.4byte	.LFB87
 16453 00c4 3C020000 		.4byte	.LFE87
 16454 00c8 00000000 		.4byte	.LFB88
 16455 00cc 6A000000 		.4byte	.LFE88
 16456 00d0 00000000 		.4byte	.LFB89
 16457 00d4 60000000 		.4byte	.LFE89
 16458 00d8 00000000 		.4byte	.LFB90
 16459 00dc E6000000 		.4byte	.LFE90
 16460 00e0 00000000 		.4byte	.LFB91
 16461 00e4 54040000 		.4byte	.LFE91
 16462 00e8 00000000 		.4byte	.LFB92
 16463 00ec D0020000 		.4byte	.LFE92
 16464 00f0 00000000 		.4byte	.LFB93
 16465 00f4 28010000 		.4byte	.LFE93
 16466 00f8 00000000 		.4byte	.LFB94
 16467 00fc 60000000 		.4byte	.LFE94
 16468 0100 00000000 		.4byte	.LFB95
 16469 0104 40020000 		.4byte	.LFE95
 16470 0108 00000000 		.4byte	.LFB96
ARM GAS  C:\Users\RECEPC~1\AppData\Local\Temp\ccMZb0bC.s 			page 337


 16471 010c 6C000000 		.4byte	.LFE96
 16472 0110 00000000 		.4byte	.LFB97
 16473 0114 5C010000 		.4byte	.LFE97
 16474 0118 00000000 		.4byte	.LFB98
 16475 011c 4C000000 		.4byte	.LFE98
 16476 0120 00000000 		.4byte	.LFB99
 16477 0124 98000000 		.4byte	.LFE99
 16478 0128 00000000 		.4byte	.LFB100
 16479 012c AC000000 		.4byte	.LFE100
 16480 0130 00000000 		.4byte	.LFB101
 16481 0134 5E000000 		.4byte	.LFE101
 16482 0138 00000000 		.4byte	.LFB102
 16483 013c 32000000 		.4byte	.LFE102
 16484 0140 00000000 		.4byte	.LFB103
 16485 0144 2C000000 		.4byte	.LFE103
 16486 0148 00000000 		.4byte	.LFB104
 16487 014c 2C000000 		.4byte	.LFE104
 16488 0150 00000000 		.4byte	.LFB105
 16489 0154 54020000 		.4byte	.LFE105
 16490 0158 00000000 		.4byte	.LFB106
 16491 015c 74010000 		.4byte	.LFE106
 16492 0160 00000000 		.4byte	.LFB107
 16493 0164 64010000 		.4byte	.LFE107
 16494 0168 00000000 		.4byte	.LFB108
 16495 016c 48000000 		.4byte	.LFE108
 16496 0170 00000000 		.4byte	0
 16497 0174 00000000 		.4byte	0
 16498              		.section	.debug_line,"",%progbits
 16499              	.Ldebug_line0:
 16500 0000 820D0000 		.section	.debug_str,"MS",%progbits,1
 16500      0200FE01 
 16500      00000201 
 16500      FB0E0D00 
 16500      01010101 
 16501              	.LASF470:
 16502 0000 5F707269 		.ascii	"_printerportside2\000"
 16502      6E746572 
 16502      706F7274 
 16502      73696465 
 16502      3200
 16503              	.LASF369:
 16504 0012 5F706F73 		.ascii	"_positionoffset\000"
 16504      6974696F 
 16504      6E6F6666 
 16504      73657400 
 16505              	.LASF284:
 16506 0022 5F70756D 		.ascii	"_pumprftransstate\000"
 16506      70726674 
 16506      72616E73 
 16506      73746174 
 16506      6500
 16507              	.LASF491:
 16508 0034 7070756D 		.ascii	"ppump\000"
 16508      7000
 16509              	.LASF364:
 16510 003a 5F766F6C 		.ascii	"_volumeunit\000"
 16510      756D6575 
ARM GAS  C:\Users\RECEPC~1\AppData\Local\Temp\ccMZb0bC.s 			page 338


 16510      6E697400 
 16511              	.LASF192:
 16512 0046 44495350 		.ascii	"DISPLAY1\000"
 16512      4C415931 
 16512      00
 16513              	.LASF193:
 16514 004f 44495350 		.ascii	"DISPLAY2\000"
 16514      4C415932 
 16514      00
 16515              	.LASF96:
 16516 0058 5F53494E 		.ascii	"_SINK_MESSAGE_\000"
 16516      4B5F4D45 
 16516      53534147 
 16516      455F00
 16517              	.LASF371:
 16518 0067 504E4541 		.ascii	"PNEARDISPENSERACTIVATEPROGRAMMING\000"
 16518      52444953 
 16518      50454E53 
 16518      45524143 
 16518      54495641 
 16519              	.LASF312:
 16520 0089 52657370 		.ascii	"ResponseSizeResolver\000"
 16520      6F6E7365 
 16520      53697A65 
 16520      5265736F 
 16520      6C766572 
 16521              	.LASF334:
 16522 009e 5F726570 		.ascii	"_repushtimeoutmultiplier\000"
 16522      75736874 
 16522      696D656F 
 16522      75746D75 
 16522      6C746970 
 16523              	.LASF22:
 16524 00b7 73697A65 		.ascii	"sizetype\000"
 16524      74797065 
 16524      00
 16525              	.LASF487:
 16526 00c0 50726F63 		.ascii	"ProcessPumpTotalsDataPpuCheck\000"
 16526      65737350 
 16526      756D7054 
 16526      6F74616C 
 16526      73446174 
 16527              	.LASF60:
 16528 00de 44495350 		.ascii	"DISPENSER_ACQUIRE_PUMP_STATE\000"
 16528      454E5345 
 16528      525F4143 
 16528      51554952 
 16528      455F5055 
 16529              	.LASF123:
 16530 00fb 5F6D6573 		.ascii	"_messagelength\000"
 16530      73616765 
 16530      6C656E67 
 16530      746800
 16531              	.LASF324:
 16532 010a 5F50554D 		.ascii	"_PUMP_TRANSACTION_\000"
 16532      505F5452 
 16532      414E5341 
ARM GAS  C:\Users\RECEPC~1\AppData\Local\Temp\ccMZb0bC.s 			page 339


 16532      4354494F 
 16532      4E5F00
 16533              	.LASF201:
 16534 011d 50554D50 		.ascii	"PUMP_AUTHORIZATION\000"
 16534      5F415554 
 16534      484F5249 
 16534      5A415449 
 16534      4F4E00
 16535              	.LASF458:
 16536 0130 52465F43 		.ascii	"RF_CREDITSALEREPORT\000"
 16536      52454449 
 16536      5453414C 
 16536      45524550 
 16536      4F525400 
 16537              	.LASF145:
 16538 0144 44495350 		.ascii	"DISPLAY_SUBA_MANIJA\000"
 16538      4C41595F 
 16538      53554241 
 16538      5F4D414E 
 16538      494A4100 
 16539              	.LASF373:
 16540 0158 45455052 		.ascii	"EEPROM_CONFIGURATION_PAGE0\000"
 16540      4F4D5F43 
 16540      4F4E4649 
 16540      47555241 
 16540      54494F4E 
 16541              	.LASF37:
 16542 0173 53494E4B 		.ascii	"SINK_BUSY\000"
 16542      5F425553 
 16542      5900
 16543              	.LASF375:
 16544 017d 45455052 		.ascii	"EEPROM_CONFIGURATION_PAGE2\000"
 16544      4F4D5F43 
 16544      4F4E4649 
 16544      47555241 
 16544      54494F4E 
 16545              	.LASF376:
 16546 0198 45455052 		.ascii	"EEPROM_CONFIGURATION_PAGE3\000"
 16546      4F4D5F43 
 16546      4F4E4649 
 16546      47555241 
 16546      54494F4E 
 16547              	.LASF377:
 16548 01b3 45455052 		.ascii	"EEPROM_CONFIGURATION_PAGE4\000"
 16548      4F4D5F43 
 16548      4F4E4649 
 16548      47555241 
 16548      54494F4E 
 16549              	.LASF378:
 16550 01ce 45455052 		.ascii	"EEPROM_CONFIGURATION_PAGE5\000"
 16550      4F4D5F43 
 16550      4F4E4649 
 16550      47555241 
 16550      54494F4E 
 16551              	.LASF379:
 16552 01e9 45455052 		.ascii	"EEPROM_CONFIGURATION_PAGE6\000"
 16552      4F4D5F43 
ARM GAS  C:\Users\RECEPC~1\AppData\Local\Temp\ccMZb0bC.s 			page 340


 16552      4F4E4649 
 16552      47555241 
 16552      54494F4E 
 16553              	.LASF380:
 16554 0204 45455052 		.ascii	"EEPROM_CONFIGURATION_PAGE7\000"
 16554      4F4D5F43 
 16554      4F4E4649 
 16554      47555241 
 16554      54494F4E 
 16555              	.LASF57:
 16556 021f 53494E4B 		.ascii	"SINK_RELEASE_BY_ID\000"
 16556      5F52454C 
 16556      45415345 
 16556      5F42595F 
 16556      494400
 16557              	.LASF129:
 16558 0232 55415254 		.ascii	"UART_RF\000"
 16558      5F524600 
 16559              	.LASF12:
 16560 023a 696E7433 		.ascii	"int32_t\000"
 16560      325F7400 
 16561              	.LASF343:
 16562 0242 5F50554D 		.ascii	"_PUMP_JOB_QUEUE_\000"
 16562      505F4A4F 
 16562      425F5155 
 16562      4555455F 
 16562      00
 16563              	.LASF326:
 16564 0253 5F6A6F62 		.ascii	"_jobs\000"
 16564      7300
 16565              	.LASF292:
 16566 0259 5F727862 		.ascii	"_rxbuffersize\000"
 16566      75666665 
 16566      7273697A 
 16566      6500
 16567              	.LASF91:
 16568 0267 49425554 		.ascii	"IBUTTON1_SCAN\000"
 16568      544F4E31 
 16568      5F534341 
 16568      4E00
 16569              	.LASF217:
 16570 0275 50554D50 		.ascii	"PUMP_AUTHORIZED\000"
 16570      5F415554 
 16570      484F5249 
 16570      5A454400 
 16571              	.LASF55:
 16572 0285 55415254 		.ascii	"UART_RF_AUTONOMOUS_MONITOR\000"
 16572      5F52465F 
 16572      4155544F 
 16572      4E4F4D4F 
 16572      55535F4D 
 16573              	.LASF415:
 16574 02a0 52465F4D 		.ascii	"RF_MUX_CREDIT_SERIAL_AUTH_REQUEST\000"
 16574      55585F43 
 16574      52454449 
 16574      545F5345 
 16574      5249414C 
ARM GAS  C:\Users\RECEPC~1\AppData\Local\Temp\ccMZb0bC.s 			page 341


 16575              	.LASF559:
 16576 02c2 5F675F64 		.ascii	"_g_dispenserlayoutinfo\000"
 16576      69737065 
 16576      6E736572 
 16576      6C61796F 
 16576      7574696E 
 16577              	.LASF15:
 16578 02d9 75696E74 		.ascii	"uint32\000"
 16578      333200
 16579              	.LASF247:
 16580 02e0 5F737461 		.ascii	"_state\000"
 16580      746500
 16581              	.LASF165:
 16582 02e7 44495350 		.ascii	"DISPLAY_COPIA_RECIBO\000"
 16582      4C41595F 
 16582      434F5049 
 16582      415F5245 
 16582      4349424F 
 16583              	.LASF513:
 16584 02fc 50756D70 		.ascii	"PumpStopRequest\000"
 16584      53746F70 
 16584      52657175 
 16584      65737400 
 16585              	.LASF408:
 16586 030c 45455052 		.ascii	"EEPROM_DISPENSER_PUMP34_TRANSACTION_PAGE\000"
 16586      4F4D5F44 
 16586      49535045 
 16586      4E534552 
 16586      5F50554D 
 16587              	.LASF223:
 16588 0335 50554D50 		.ascii	"PUMP_UNKNOWN\000"
 16588      5F554E4B 
 16588      4E4F574E 
 16588      00
 16589              	.LASF207:
 16590 0342 50554D50 		.ascii	"PUMP_REAL_TIME_HOSE_VOLUME_REQUEST\000"
 16590      5F524541 
 16590      4C5F5449 
 16590      4D455F48 
 16590      4F53455F 
 16591              	.LASF84:
 16592 0365 44495350 		.ascii	"DISPLAY1_MESSAGE\000"
 16592      4C415931 
 16592      5F4D4553 
 16592      53414745 
 16592      00
 16593              	.LASF504:
 16594 0376 50756D70 		.ascii	"PumpPresetNoHose\000"
 16594      50726573 
 16594      65744E6F 
 16594      486F7365 
 16594      00
 16595              	.LASF64:
 16596 0387 44495350 		.ascii	"DISPENSER_UNLOCK_EOT_PUMPS\000"
 16596      454E5345 
 16596      525F554E 
 16596      4C4F434B 
ARM GAS  C:\Users\RECEPC~1\AppData\Local\Temp\ccMZb0bC.s 			page 342


 16596      5F454F54 
 16597              	.LASF101:
 16598 03a2 53746F70 		.ascii	"Stop\000"
 16598      00
 16599              	.LASF117:
 16600 03a7 55415254 		.ascii	"UARTManager\000"
 16600      4D616E61 
 16600      67657200 
 16601              	.LASF452:
 16602 03b3 5F52465F 		.ascii	"_RF_STATES_\000"
 16602      53544154 
 16602      45535F00 
 16603              	.LASF498:
 16604 03bf 50756D70 		.ascii	"PumpTotalsDataRequest\000"
 16604      546F7461 
 16604      6C734461 
 16604      74615265 
 16604      71756573 
 16605              	.LASF353:
 16606 03d5 50756D70 		.ascii	"PumpJobQueue\000"
 16606      4A6F6251 
 16606      75657565 
 16606      00
 16607              	.LASF244:
 16608 03e2 5F50554D 		.ascii	"_PUMP_TRANS_HEALTH_\000"
 16608      505F5452 
 16608      414E535F 
 16608      4845414C 
 16608      54485F00 
 16609              	.LASF199:
 16610 03f6 5F434F4D 		.ascii	"_COMMAND_ID_\000"
 16610      4D414E44 
 16610      5F49445F 
 16610      00
 16611              	.LASF466:
 16612 0403 5F74696D 		.ascii	"_timeouttoreceive\000"
 16612      656F7574 
 16612      746F7265 
 16612      63656976 
 16612      6500
 16613              	.LASF177:
 16614 0415 44495350 		.ascii	"DISPLAY_ABRIR_TURNO\000"
 16614      4C41595F 
 16614      41425249 
 16614      525F5455 
 16614      524E4F00 
 16615              	.LASF374:
 16616 0429 45455052 		.ascii	"EEPROM_CONFIGURATION_PAGE1\000"
 16616      4F4D5F43 
 16616      4F4E4649 
 16616      47555241 
 16616      54494F4E 
 16617              	.LASF453:
 16618 0444 52465F49 		.ascii	"RF_IDLE\000"
 16618      444C4500 
 16619              	.LASF495:
 16620 044c 50756D70 		.ascii	"PumpStateRequest\000"
ARM GAS  C:\Users\RECEPC~1\AppData\Local\Temp\ccMZb0bC.s 			page 343


 16620      53746174 
 16620      65526571 
 16620      75657374 
 16620      00
 16621              	.LASF164:
 16622 045d 44495350 		.ascii	"DISPLAY_CONFIGURACIONES\000"
 16622      4C41595F 
 16622      434F4E46 
 16622      49475552 
 16622      4143494F 
 16623              	.LASF124:
 16624 0475 5F6D6573 		.ascii	"_messagetx\000"
 16624      73616765 
 16624      747800
 16625              	.LASF320:
 16626 0480 5F706F73 		.ascii	"_postconditions\000"
 16626      74636F6E 
 16626      64697469 
 16626      6F6E7300 
 16627              	.LASF483:
 16628 0490 64617461 		.ascii	"dataok\000"
 16628      6F6B00
 16629              	.LASF411:
 16630 0497 45455052 		.ascii	"EEPROM_DISPENSER_PUMP43_TRANSACTION_PAGE\000"
 16630      4F4D5F44 
 16630      49535045 
 16630      4E534552 
 16630      5F50554D 
 16631              	.LASF20:
 16632 04c0 63686172 		.ascii	"char8\000"
 16632      3800
 16633              	.LASF94:
 16634 04c6 544F4747 		.ascii	"TOGGLE_SCREEN_AND_WRITE_TEST\000"
 16634      4C455F53 
 16634      43524545 
 16634      4E5F414E 
 16634      445F5752 
 16635              	.LASF71:
 16636 04e3 44495350 		.ascii	"DISPENSER_ACQUIRE_TOTALS\000"
 16636      454E5345 
 16636      525F4143 
 16636      51554952 
 16636      455F544F 
 16637              	.LASF58:
 16638 04fc 53494E4B 		.ascii	"SINK_RELEASE_BY_PTR\000"
 16638      5F52454C 
 16638      45415345 
 16638      5F42595F 
 16638      50545200 
 16639              	.LASF293:
 16640 0510 5F747261 		.ascii	"_transqueue\000"
 16640      6E737175 
 16640      65756500 
 16641              	.LASF473:
 16642 051c 70726576 		.ascii	"prevstate\000"
 16642      73746174 
 16642      6500
ARM GAS  C:\Users\RECEPC~1\AppData\Local\Temp\ccMZb0bC.s 			page 344


 16643              	.LASF385:
 16644 0526 45455052 		.ascii	"EEPROM_DISPENSER_PUMP1_PRODUCT_NAMES_PAGE\000"
 16644      4F4D5F44 
 16644      49535045 
 16644      4E534552 
 16644      5F50554D 
 16645              	.LASF462:
 16646 0550 52465F41 		.ascii	"RF_AUTONOMOUS\000"
 16646      55544F4E 
 16646      4F4D4F55 
 16646      5300
 16647              	.LASF321:
 16648 055e 496E6974 		.ascii	"Initialization\000"
 16648      69616C69 
 16648      7A617469 
 16648      6F6E00
 16649              	.LASF449:
 16650 056d 52465F4D 		.ascii	"RF_MUX_COPY_REQUEST\000"
 16650      55585F43 
 16650      4F50595F 
 16650      52455155 
 16650      45535400 
 16651              	.LASF265:
 16652 0581 5F707265 		.ascii	"_presettype\000"
 16652      73657474 
 16652      79706500 
 16653              	.LASF557:
 16654 058d 5F675F70 		.ascii	"_g_pumpjobqueue\000"
 16654      756D706A 
 16654      6F627175 
 16654      65756500 
 16655              	.LASF404:
 16656 059d 45455052 		.ascii	"EEPROM_DISPENSER_PUMP24_TRANSACTION_PAGE\000"
 16656      4F4D5F44 
 16656      49535045 
 16656      4E534552 
 16656      5F50554D 
 16657              	.LASF76:
 16658 05c6 5052494E 		.ascii	"PRINTER21_JOB\000"
 16658      54455232 
 16658      315F4A4F 
 16658      4200
 16659              	.LASF228:
 16660 05d4 5F50554D 		.ascii	"_PUMP_FILL_CREDIT_\000"
 16660      505F4649 
 16660      4C4C5F43 
 16660      52454449 
 16660      545F00
 16661              	.LASF16:
 16662 05e7 696E7438 		.ascii	"int8\000"
 16662      00
 16663              	.LASF446:
 16664 05ec 52465F4D 		.ascii	"RF_MUX_ISLAND_OPER_DATA_RESPONSE\000"
 16664      55585F49 
 16664      534C414E 
 16664      445F4F50 
 16664      45525F44 
ARM GAS  C:\Users\RECEPC~1\AppData\Local\Temp\ccMZb0bC.s 			page 345


 16665              	.LASF464:
 16666 060d 5F746F61 		.ascii	"_toautonomoustimetoken\000"
 16666      75746F6E 
 16666      6F6D6F75 
 16666      7374696D 
 16666      65746F6B 
 16667              	.LASF234:
 16668 0624 5F50554D 		.ascii	"_PUMP_EOT_STARTUP_\000"
 16668      505F454F 
 16668      545F5354 
 16668      41525455 
 16668      505F00
 16669              	.LASF381:
 16670 0637 45455052 		.ascii	"EEPROM_DISPENSER_PUMP1_LAYOUT_PAGE\000"
 16670      4F4D5F44 
 16670      49535045 
 16670      4E534552 
 16670      5F50554D 
 16671              	.LASF299:
 16672 065a 50756D70 		.ascii	"PumpTransQueueDeallocate\000"
 16672      5472616E 
 16672      73517565 
 16672      75654465 
 16672      616C6C6F 
 16673              	.LASF206:
 16674 0673 50554D50 		.ascii	"PUMP_REAL_TIME_MONEY_REQUEST\000"
 16674      5F524541 
 16674      4C5F5449 
 16674      4D455F4D 
 16674      4F4E4559 
 16675              	.LASF434:
 16676 0690 52465F4D 		.ascii	"RF_MUX_CREDIT_SALE_PRINT_RESPONSE\000"
 16676      55585F43 
 16676      52454449 
 16676      545F5341 
 16676      4C455F50 
 16677              	.LASF118:
 16678 06b2 5F554152 		.ascii	"_UART_MESSAGE_STATE_\000"
 16678      545F4D45 
 16678      53534147 
 16678      455F5354 
 16678      4154455F 
 16679              	.LASF444:
 16680 06c7 52465F4D 		.ascii	"RF_MUX_POSITION_CFG_RESPONSE\000"
 16680      55585F50 
 16680      4F534954 
 16680      494F4E5F 
 16680      4346475F 
 16681              	.LASF4:
 16682 06e4 5F5F7569 		.ascii	"__uint8_t\000"
 16682      6E74385F 
 16682      7400
 16683              	.LASF407:
 16684 06ee 45455052 		.ascii	"EEPROM_DISPENSER_PUMP33_TRANSACTION_PAGE\000"
 16684      4F4D5F44 
 16684      49535045 
 16684      4E534552 
ARM GAS  C:\Users\RECEPC~1\AppData\Local\Temp\ccMZb0bC.s 			page 346


 16684      5F50554D 
 16685              	.LASF509:
 16686 0717 50756D70 		.ascii	"PumpPpuChange\000"
 16686      50707543 
 16686      68616E67 
 16686      6500
 16687              	.LASF142:
 16688 0725 44495350 		.ascii	"DISPLAY_INTRODUZCA_VALOR2\000"
 16688      4C41595F 
 16688      494E5452 
 16688      4F44555A 
 16688      43415F56 
 16689              	.LASF480:
 16690 073f 6C6F6361 		.ascii	"locallrc\000"
 16690      6C6C7263 
 16690      00
 16691              	.LASF184:
 16692 0748 44495350 		.ascii	"DISPLAY_IDENTIFICADOR_ESTACION\000"
 16692      4C41595F 
 16692      4944454E 
 16692      54494649 
 16692      4341444F 
 16693              	.LASF86:
 16694 0767 44495350 		.ascii	"DISPLAY1_ANIMATE_HOME\000"
 16694      4C415931 
 16694      5F414E49 
 16694      4D415445 
 16694      5F484F4D 
 16695              	.LASF46:
 16696 077d 5F627566 		.ascii	"_buffer\000"
 16696      66657200 
 16697              	.LASF448:
 16698 0785 52465F4D 		.ascii	"RF_MUX_ISLAND_ADMIN_RESPONSE\000"
 16698      55585F49 
 16698      534C414E 
 16698      445F4144 
 16698      4D494E5F 
 16699              	.LASF400:
 16700 07a2 45455052 		.ascii	"EEPROM_DISPENSER_PUMP14_TRANSACTION_PAGE\000"
 16700      4F4D5F44 
 16700      49535045 
 16700      4E534552 
 16700      5F50554D 
 16701              	.LASF52:
 16702 07cb 5F53494E 		.ascii	"_SINK_OBSERVABLES_\000"
 16702      4B5F4F42 
 16702      53455256 
 16702      41424C45 
 16702      535F00
 16703              	.LASF337:
 16704 07de 5F74696D 		.ascii	"_timeoutmultiplier\000"
 16704      656F7574 
 16704      6D756C74 
 16704      69706C69 
 16704      657200
 16705              	.LASF231:
 16706 07f1 5F50554D 		.ascii	"_PUMP_TOTALS_\000"
ARM GAS  C:\Users\RECEPC~1\AppData\Local\Temp\ccMZb0bC.s 			page 347


 16706      505F544F 
 16706      54414C53 
 16706      5F00
 16707              	.LASF372:
 16708 07ff 5F454550 		.ascii	"_EEPROM_MEM_FORMAT_\000"
 16708      524F4D5F 
 16708      4D454D5F 
 16708      464F524D 
 16708      41545F00 
 16709              	.LASF19:
 16710 0813 75696E74 		.ascii	"uint64\000"
 16710      363400
 16711              	.LASF6:
 16712 081a 6C6F6E67 		.ascii	"long int\000"
 16712      20696E74 
 16712      00
 16713              	.LASF282:
 16714 0823 5F726F75 		.ascii	"_roundrobinstate\000"
 16714      6E64726F 
 16714      62696E73 
 16714      74617465 
 16714      00
 16715              	.LASF275:
 16716 0834 5F70756D 		.ascii	"_pumpstate\000"
 16716      70737461 
 16716      746500
 16717              	.LASF135:
 16718 083f 5F415641 		.ascii	"_AVAILABLE_DISPLAYS_\000"
 16718      494C4142 
 16718      4C455F44 
 16718      4953504C 
 16718      4159535F 
 16719              	.LASF62:
 16720 0854 44495350 		.ascii	"DISPENSER_EXECUTE_CASH_TRANSACTION\000"
 16720      454E5345 
 16720      525F4558 
 16720      45435554 
 16720      455F4341 
 16721              	.LASF44:
 16722 0877 5F6D6573 		.ascii	"_messagetimeoutmultiplier\000"
 16722      73616765 
 16722      74696D65 
 16722      6F75746D 
 16722      756C7469 
 16723              	.LASF73:
 16724 0891 44495350 		.ascii	"DISPENSER_PUMP_BEEP_WARNING\000"
 16724      454E5345 
 16724      525F5055 
 16724      4D505F42 
 16724      4545505F 
 16725              	.LASF503:
 16726 08ad 50756D70 		.ascii	"PumpPresetHose\000"
 16726      50726573 
 16726      6574486F 
 16726      736500
 16727              	.LASF529:
 16728 08bc 50756D70 		.ascii	"PumpEnumeratorRequest\000"
ARM GAS  C:\Users\RECEPC~1\AppData\Local\Temp\ccMZb0bC.s 			page 348


 16728      456E756D 
 16728      65726174 
 16728      6F725265 
 16728      71756573 
 16729              	.LASF68:
 16730 08d2 44495350 		.ascii	"DISPENSER_CONFIGURE_PRICES\000"
 16730      454E5345 
 16730      525F434F 
 16730      4E464947 
 16730      5552455F 
 16731              	.LASF382:
 16732 08ed 45455052 		.ascii	"EEPROM_DISPENSER_PUMP2_LAYOUT_PAGE\000"
 16732      4F4D5F44 
 16732      49535045 
 16732      4E534552 
 16732      5F50554D 
 16733              	.LASF389:
 16734 0910 45455052 		.ascii	"EEPROM_DISPENSER_PUMP1_PPU_INFO_PAGE\000"
 16734      4F4D5F44 
 16734      49535045 
 16734      4E534552 
 16734      5F50554D 
 16735              	.LASF461:
 16736 0935 5F52465F 		.ascii	"_RF_AUTONOMOUS_MODE_\000"
 16736      4155544F 
 16736      4E4F4D4F 
 16736      55535F4D 
 16736      4F44455F 
 16737              	.LASF132:
 16738 094a 55415254 		.ascii	"UART_DISPLAY1\000"
 16738      5F444953 
 16738      504C4159 
 16738      3100
 16739              	.LASF133:
 16740 0958 55415254 		.ascii	"UART_DISPLAY2\000"
 16740      5F444953 
 16740      504C4159 
 16740      3200
 16741              	.LASF235:
 16742 0966 5F50554D 		.ascii	"_PUMP_NETWORK_ENUMERATOR_\000"
 16742      505F4E45 
 16742      54574F52 
 16742      4B5F454E 
 16742      554D4552 
 16743              	.LASF346:
 16744 0980 5F706A6F 		.ascii	"_pjobqueueallocated\000"
 16744      62717565 
 16744      7565616C 
 16744      6C6F6361 
 16744      74656400 
 16745              	.LASF162:
 16746 0994 44495350 		.ascii	"DISPLAY_INTRODUZCA_KILOMETRAJE\000"
 16746      4C41595F 
 16746      494E5452 
 16746      4F44555A 
 16746      43415F4B 
 16747              	.LASF420:
ARM GAS  C:\Users\RECEPC~1\AppData\Local\Temp\ccMZb0bC.s 			page 349


 16748 09b3 52465F4D 		.ascii	"RF_MUX_CREDIT_PRESET_NOTIFICATION_RESPONSE\000"
 16748      55585F43 
 16748      52454449 
 16748      545F5052 
 16748      45534554 
 16749              	.LASF89:
 16750 09de 44495350 		.ascii	"DISPLAY2_UPDATE_DATETIME\000"
 16750      4C415932 
 16750      5F555044 
 16750      4154455F 
 16750      44415445 
 16751              	.LASF242:
 16752 09f7 5F50554D 		.ascii	"_PUMP_IDLE_\000"
 16752      505F4944 
 16752      4C455F00 
 16753              	.LASF63:
 16754 0a03 44495350 		.ascii	"DISPENSER_EXECUTE_CREDIT_TRANSACTION\000"
 16754      454E5345 
 16754      525F4558 
 16754      45435554 
 16754      455F4352 
 16755              	.LASF79:
 16756 0a28 5052494E 		.ascii	"PRINTER2_GENERIC_JOB\000"
 16756      54455232 
 16756      5F47454E 
 16756      45524943 
 16756      5F4A4F42 
 16757              	.LASF170:
 16758 0a3d 44495350 		.ascii	"DISPLAY_POR_FAVOR_ESPERE\000"
 16758      4C41595F 
 16758      504F525F 
 16758      4641564F 
 16758      525F4553 
 16759              	.LASF413:
 16760 0a56 52465F4D 		.ascii	"RF_MUX_STATE_REQUEST\000"
 16760      55585F53 
 16760      54415445 
 16760      5F524551 
 16760      55455354 
 16761              	.LASF419:
 16762 0a6b 52465F4D 		.ascii	"RF_MUX_CREDIT_PRESET_NOTIFICATION_REQUEST\000"
 16762      55585F43 
 16762      52454449 
 16762      545F5052 
 16762      45534554 
 16763              	.LASF175:
 16764 0a95 44495350 		.ascii	"DISPLAY_FECHA\000"
 16764      4C41595F 
 16764      46454348 
 16764      4100
 16765              	.LASF328:
 16766 0aa3 5F726565 		.ascii	"_reenqueue\000"
 16766      6E717565 
 16766      756500
 16767              	.LASF508:
 16768 0aae 50756D70 		.ascii	"PumpFullPresetNoHose\000"
 16768      46756C6C 
ARM GAS  C:\Users\RECEPC~1\AppData\Local\Temp\ccMZb0bC.s 			page 350


 16768      50726573 
 16768      65744E6F 
 16768      486F7365 
 16769              	.LASF323:
 16770 0ac3 50756D70 		.ascii	"PumpTransactionJob\000"
 16770      5472616E 
 16770      73616374 
 16770      696F6E4A 
 16770      6F6200
 16771              	.LASF0:
 16772 0ad6 7369676E 		.ascii	"signed char\000"
 16772      65642063 
 16772      68617200 
 16773              	.LASF11:
 16774 0ae2 75696E74 		.ascii	"uint8_t\000"
 16774      385F7400 
 16775              	.LASF494:
 16776 0aea 50756D70 		.ascii	"PumpStartupAuthorization\000"
 16776      53746172 
 16776      74757041 
 16776      7574686F 
 16776      72697A61 
 16777              	.LASF156:
 16778 0b03 44495350 		.ascii	"DISPLAY_ID_DIGITAL\000"
 16778      4C41595F 
 16778      49445F44 
 16778      49474954 
 16778      414C00
 16779              	.LASF154:
 16780 0b16 44495350 		.ascii	"DISPLAY_TIEMPO_EXPIRADO\000"
 16780      4C41595F 
 16780      5449454D 
 16780      504F5F45 
 16780      58504952 
 16781              	.LASF543:
 16782 0b2e 5F706275 		.ascii	"_pbuffer\000"
 16782      66666572 
 16782      00
 16783              	.LASF109:
 16784 0b37 436C6561 		.ascii	"ClearRxBuffer\000"
 16784      72527842 
 16784      75666665 
 16784      7200
 16785              	.LASF106:
 16786 0b45 47657443 		.ascii	"GetChar\000"
 16786      68617200 
 16787              	.LASF414:
 16788 0b4d 52465F4D 		.ascii	"RF_MUX_STATE_RESPONSE\000"
 16788      55585F53 
 16788      54415445 
 16788      5F524553 
 16788      504F4E53 
 16789              	.LASF310:
 16790 0b63 52657370 		.ascii	"Response\000"
 16790      6F6E7365 
 16790      00
 16791              	.LASF399:
ARM GAS  C:\Users\RECEPC~1\AppData\Local\Temp\ccMZb0bC.s 			page 351


 16792 0b6c 45455052 		.ascii	"EEPROM_DISPENSER_PUMP13_TRANSACTION_PAGE\000"
 16792      4F4D5F44 
 16792      49535045 
 16792      4E534552 
 16792      5F50554D 
 16793              	.LASF180:
 16794 0b95 44495350 		.ascii	"DISPLAY_USUARIO_VALIDO\000"
 16794      4C41595F 
 16794      55535541 
 16794      52494F5F 
 16794      56414C49 
 16795              	.LASF178:
 16796 0bac 44495350 		.ascii	"DISPLAY_CERRAR_TURNO\000"
 16796      4C41595F 
 16796      43455252 
 16796      41525F54 
 16796      55524E4F 
 16797              	.LASF339:
 16798 0bc1 5F707265 		.ascii	"_presponse\000"
 16798      73706F6E 
 16798      736500
 16799              	.LASF167:
 16800 0bcc 44495350 		.ascii	"DISPLAY_SELECCIONE_POSICION\000"
 16800      4C41595F 
 16800      53454C45 
 16800      4343494F 
 16800      4E455F50 
 16801              	.LASF121:
 16802 0be8 50454E44 		.ascii	"PENDING\000"
 16802      494E4700 
 16803              	.LASF85:
 16804 0bf0 44495350 		.ascii	"DISPLAY1_UPDATE_DATETIME\000"
 16804      4C415931 
 16804      5F555044 
 16804      4154455F 
 16804      44415445 
 16805              	.LASF368:
 16806 0c09 5F707265 		.ascii	"_presetdigits\000"
 16806      73657464 
 16806      69676974 
 16806      7300
 16807              	.LASF212:
 16808 0c17 4C52436E 		.ascii	"LRCn\000"
 16808      00
 16809              	.LASF1:
 16810 0c1c 756E7369 		.ascii	"unsigned char\000"
 16810      676E6564 
 16810      20636861 
 16810      7200
 16811              	.LASF356:
 16812 0c2a 5F6E756D 		.ascii	"_numpositions\000"
 16812      706F7369 
 16812      74696F6E 
 16812      7300
 16813              	.LASF141:
 16814 0c38 44495350 		.ascii	"DISPLAY_INTRODUZCA_VALOR\000"
 16814      4C41595F 
ARM GAS  C:\Users\RECEPC~1\AppData\Local\Temp\ccMZb0bC.s 			page 352


 16814      494E5452 
 16814      4F44555A 
 16814      43415F56 
 16815              	.LASF421:
 16816 0c51 52465F4D 		.ascii	"RF_MUX_CASH_SALE_START_REQUEST\000"
 16816      55585F43 
 16816      4153485F 
 16816      53414C45 
 16816      5F535441 
 16817              	.LASF541:
 16818 0c70 706A6F62 		.ascii	"pjobcntr\000"
 16818      636E7472 
 16818      00
 16819              	.LASF270:
 16820 0c79 5F736572 		.ascii	"_serial\000"
 16820      69616C00 
 16821              	.LASF169:
 16822 0c81 44495350 		.ascii	"DISPLAY_ESPERANDO_AUTORIZACION\000"
 16822      4C41595F 
 16822      45535045 
 16822      52414E44 
 16822      4F5F4155 
 16823              	.LASF533:
 16824 0ca0 50756D70 		.ascii	"PumpEnumeratorTimeout\000"
 16824      456E756D 
 16824      65726174 
 16824      6F725469 
 16824      6D656F75 
 16825              	.LASF493:
 16826 0cb6 70756172 		.ascii	"puartdisp\000"
 16826      74646973 
 16826      7000
 16827              	.LASF119:
 16828 0cc0 46524545 		.ascii	"FREE\000"
 16828      00
 16829              	.LASF457:
 16830 0cc5 52465F57 		.ascii	"RF_WORKSHIFTREQ\000"
 16830      4F524B53 
 16830      48494654 
 16830      52455100 
 16831              	.LASF327:
 16832 0cd5 50756D70 		.ascii	"PumpTransaction\000"
 16832      5472616E 
 16832      73616374 
 16832      696F6E00 
 16833              	.LASF481:
 16834 0ce5 65657072 		.ascii	"eeprompage\000"
 16834      6F6D7061 
 16834      676500
 16835              	.LASF67:
 16836 0cf0 44495350 		.ascii	"DISPENSER_ACQUIRE_CONFIGURATION_INFORMATION\000"
 16836      454E5345 
 16836      525F4143 
 16836      51554952 
 16836      455F434F 
 16837              	.LASF42:
 16838 0d1c 5F6D6573 		.ascii	"_messagedelay\000"
ARM GAS  C:\Users\RECEPC~1\AppData\Local\Temp\ccMZb0bC.s 			page 353


 16838      73616765 
 16838      64656C61 
 16838      7900
 16839              	.LASF363:
 16840 0d2a 5F766F6C 		.ascii	"_volumedecimals\000"
 16840      756D6564 
 16840      6563696D 
 16840      616C7300 
 16841              	.LASF50:
 16842 0d3a 5F426F6F 		.ascii	"_Bool\000"
 16842      6C00
 16843              	.LASF358:
 16844 0d40 5F686F73 		.ascii	"_hosesposition2\000"
 16844      6573706F 
 16844      73697469 
 16844      6F6E3200 
 16845              	.LASF269:
 16846 0d50 5F766F6C 		.ascii	"_volumeamount\000"
 16846      756D6561 
 16846      6D6F756E 
 16846      7400
 16847              	.LASF548:
 16848 0d5e 43617374 		.ascii	"CastVolumeValue\000"
 16848      566F6C75 
 16848      6D655661 
 16848      6C756500 
 16849              	.LASF110:
 16850 0d6e 57726974 		.ascii	"WriteTxData\000"
 16850      65547844 
 16850      61746100 
 16851              	.LASF36:
 16852 0d7a 53494E4B 		.ascii	"SINK_ALLOCATED\000"
 16852      5F414C4C 
 16852      4F434154 
 16852      454400
 16853              	.LASF350:
 16854 0d89 5065656B 		.ascii	"Peek\000"
 16854      00
 16855              	.LASF301:
 16856 0d8e 50756D70 		.ascii	"PumpTransQueueDequeue\000"
 16856      5472616E 
 16856      73517565 
 16856      75654465 
 16856      71756575 
 16857              	.LASF21:
 16858 0da4 63686172 		.ascii	"char\000"
 16858      00
 16859              	.LASF440:
 16860 0da9 52465F4D 		.ascii	"RF_MUX_LAST_CASH_SALE_RESPONSE\000"
 16860      55585F4C 
 16860      4153545F 
 16860      43415348 
 16860      5F53414C 
 16861              	.LASF433:
 16862 0dc8 52465F4D 		.ascii	"RF_MUX_CREDIT_SALE_PRINT_REQUEST\000"
 16862      55585F43 
 16862      52454449 
ARM GAS  C:\Users\RECEPC~1\AppData\Local\Temp\ccMZb0bC.s 			page 354


 16862      545F5341 
 16862      4C455F50 
 16863              	.LASF182:
 16864 0de9 44495350 		.ascii	"DISPLAY_AMBAS_IMPRESORAS_FUNCIONANDO\000"
 16864      4C41595F 
 16864      414D4241 
 16864      535F494D 
 16864      50524553 
 16865              	.LASF31:
 16866 0e0e 42524F41 		.ascii	"BROADCASTFOREVER\000"
 16866      44434153 
 16866      54464F52 
 16866      45564552 
 16866      00
 16867              	.LASF88:
 16868 0e1f 44495350 		.ascii	"DISPLAY2_MESSAGE\000"
 16868      4C415932 
 16868      5F4D4553 
 16868      53414745 
 16868      00
 16869              	.LASF211:
 16870 0e30 5052446E 		.ascii	"PRDn\000"
 16870      00
 16871              	.LASF499:
 16872 0e35 50756D70 		.ascii	"PumpDataToPump\000"
 16872      44617461 
 16872      546F5075 
 16872      6D7000
 16873              	.LASF317:
 16874 0e44 5F6F6E65 		.ascii	"_oneshotpreconditions\000"
 16874      73686F74 
 16874      70726563 
 16874      6F6E6469 
 16874      74696F6E 
 16875              	.LASF130:
 16876 0e5a 55415254 		.ascii	"UART_PRINTER\000"
 16876      5F505249 
 16876      4E544552 
 16876      00
 16877              	.LASF386:
 16878 0e67 45455052 		.ascii	"EEPROM_DISPENSER_PUMP2_PRODUCT_NAMES_PAGE\000"
 16878      4F4D5F44 
 16878      49535045 
 16878      4E534552 
 16878      5F50554D 
 16879              	.LASF361:
 16880 0e91 5F6D6F6E 		.ascii	"_moneydecimals\000"
 16880      65796465 
 16880      63696D61 
 16880      6C7300
 16881              	.LASF105:
 16882 0ea0 52656164 		.ascii	"ReadRxStatus\000"
 16882      52785374 
 16882      61747573 
 16882      00
 16883              	.LASF194:
 16884 0ead 50535452 		.ascii	"PSTR\000"
ARM GAS  C:\Users\RECEPC~1\AppData\Local\Temp\ccMZb0bC.s 			page 355


 16884      00
 16885              	.LASF365:
 16886 0eb2 5F6D696E 		.ascii	"_minmoneyvalue\000"
 16886      6D6F6E65 
 16886      7976616C 
 16886      756500
 16887              	.LASF531:
 16888 0ec1 76617230 		.ascii	"var0\000"
 16888      00
 16889              	.LASF283:
 16890 0ec6 5F706F73 		.ascii	"_positionlocked\000"
 16890      6974696F 
 16890      6E6C6F63 
 16890      6B656400 
 16891              	.LASF340:
 16892 0ed6 5F707075 		.ascii	"_ppump\000"
 16892      6D7000
 16893              	.LASF240:
 16894 0edd 5F50554D 		.ascii	"_PUMP_TRANS_STATE_\000"
 16894      505F5452 
 16894      414E535F 
 16894      53544154 
 16894      455F00
 16895              	.LASF403:
 16896 0ef0 45455052 		.ascii	"EEPROM_DISPENSER_PUMP23_TRANSACTION_PAGE\000"
 16896      4F4D5F44 
 16896      49535045 
 16896      4E534552 
 16896      5F50554D 
 16897              	.LASF532:
 16898 0f19 76617231 		.ascii	"var1\000"
 16898      00
 16899              	.LASF115:
 16900 0f1e 50757443 		.ascii	"PutCRLF\000"
 16900      524C4600 
 16901              	.LASF526:
 16902 0f26 70627566 		.ascii	"pbuffer\000"
 16902      66657200 
 16903              	.LASF505:
 16904 0f2e 50756D70 		.ascii	"PumpPresetNotification\000"
 16904      50726573 
 16904      65744E6F 
 16904      74696669 
 16904      63617469 
 16905              	.LASF294:
 16906 0f45 5F747261 		.ascii	"_transqueuelocked\000"
 16906      6E737175 
 16906      6575656C 
 16906      6F636B65 
 16906      6400
 16907              	.LASF516:
 16908 0f57 41637175 		.ascii	"AcquirePumpCompleteConfiguration\000"
 16908      69726550 
 16908      756D7043 
 16908      6F6D706C 
 16908      65746543 
 16909              	.LASF205:
ARM GAS  C:\Users\RECEPC~1\AppData\Local\Temp\ccMZb0bC.s 			page 356


 16910 0f78 50554D50 		.ascii	"PUMP_TOTALS_DATA_REQUEST\000"
 16910      5F544F54 
 16910      414C535F 
 16910      44415441 
 16910      5F524551 
 16911              	.LASF218:
 16912 0f91 50554D50 		.ascii	"PUMP_BUSY\000"
 16912      5F425553 
 16912      5900
 16913              	.LASF147:
 16914 0f9b 44495350 		.ascii	"DISPLAY_BAJE_MANIJA\000"
 16914      4C41595F 
 16914      42414A45 
 16914      5F4D414E 
 16914      494A4100 
 16915              	.LASF477:
 16916 0faf 50726F63 		.ascii	"ProcessPumpRTMoneyRequest\000"
 16916      65737350 
 16916      756D7052 
 16916      544D6F6E 
 16916      65795265 
 16917              	.LASF75:
 16918 0fc9 5052494E 		.ascii	"PRINTER12_JOB\000"
 16918      54455231 
 16918      325F4A4F 
 16918      4200
 16919              	.LASF384:
 16920 0fd7 45455052 		.ascii	"EEPROM_DISPENSER_PUMP4_LAYOUT_PAGE\000"
 16920      4F4D5F44 
 16920      49535045 
 16920      4E534552 
 16920      5F50554D 
 16921              	.LASF224:
 16922 0ffa 5F545241 		.ascii	"_TRANSACTION_NAMES_\000"
 16922      4E534143 
 16922      54494F4E 
 16922      5F4E414D 
 16922      45535F00 
 16923              	.LASF43:
 16924 100e 5F6D6573 		.ascii	"_messagetimeout\000"
 16924      73616765 
 16924      74696D65 
 16924      6F757400 
 16925              	.LASF417:
 16926 101e 52465F4D 		.ascii	"RF_MUX_CREDIT_PRESET_AUTHORIZATION_REQUEST\000"
 16926      55585F43 
 16926      52454449 
 16926      545F5052 
 16926      45534554 
 16927              	.LASF475:
 16928 1049 41637175 		.ascii	"AcquireDatatoPumpResponse\000"
 16928      69726544 
 16928      61746174 
 16928      6F50756D 
 16928      70526573 
 16929              	.LASF140:
 16930 1063 44495350 		.ascii	"DISPLAY_FORMA_PROGRAMACION\000"
ARM GAS  C:\Users\RECEPC~1\AppData\Local\Temp\ccMZb0bC.s 			page 357


 16930      4C41595F 
 16930      464F524D 
 16930      415F5052 
 16930      4F475241 
 16931              	.LASF113:
 16932 107e 50757453 		.ascii	"PutString\000"
 16932      7472696E 
 16932      6700
 16933              	.LASF238:
 16934 1088 5F50554D 		.ascii	"_PUMP_COMPLETE_CONFIGURATION_\000"
 16934      505F434F 
 16934      4D504C45 
 16934      54455F43 
 16934      4F4E4649 
 16935              	.LASF352:
 16936 10a6 436C6561 		.ascii	"Clear\000"
 16936      7200
 16937              	.LASF550:
 16938 10ac 73686966 		.ascii	"shiftbydelimiter\000"
 16938      74627964 
 16938      656C696D 
 16938      69746572 
 16938      00
 16939              	.LASF99:
 16940 10bd 43757374 		.ascii	"CustomUARTSend\000"
 16940      6F6D5541 
 16940      52545365 
 16940      6E6400
 16941              	.LASF490:
 16942 10cc 50756D70 		.ascii	"PumpAuthorization\000"
 16942      41757468 
 16942      6F72697A 
 16942      6174696F 
 16942      6E00
 16943              	.LASF427:
 16944 10de 52465F4D 		.ascii	"RF_MUX_TOTALS_REPORT_REQUEST\000"
 16944      55585F54 
 16944      4F54414C 
 16944      535F5245 
 16944      504F5254 
 16945              	.LASF362:
 16946 10fb 5F707075 		.ascii	"_ppudecimals\000"
 16946      64656369 
 16946      6D616C73 
 16946      00
 16947              	.LASF273:
 16948 1108 5F70756D 		.ascii	"_pumpid\000"
 16948      70696400 
 16949              	.LASF524:
 16950 1110 41637175 		.ascii	"AcquireDispenserLayoutInformation\000"
 16950      69726544 
 16950      69737065 
 16950      6E736572 
 16950      4C61796F 
 16951              	.LASF136:
 16952 1132 44495350 		.ascii	"DISPLAY_INICIO0\000"
 16952      4C41595F 
ARM GAS  C:\Users\RECEPC~1\AppData\Local\Temp\ccMZb0bC.s 			page 358


 16952      494E4943 
 16952      494F3000 
 16953              	.LASF137:
 16954 1142 44495350 		.ascii	"DISPLAY_INICIO1\000"
 16954      4C41595F 
 16954      494E4943 
 16954      494F3100 
 16955              	.LASF138:
 16956 1152 44495350 		.ascii	"DISPLAY_INICIO2\000"
 16956      4C41595F 
 16956      494E4943 
 16956      494F3200 
 16957              	.LASF29:
 16958 1162 44454C41 		.ascii	"DELAYEDALLINTERESTED\000"
 16958      59454441 
 16958      4C4C494E 
 16958      54455245 
 16958      53544544 
 16959              	.LASF291:
 16960 1177 5F727862 		.ascii	"_rxbuffer\000"
 16960      75666665 
 16960      7200
 16961              	.LASF315:
 16962 1181 5F726573 		.ascii	"_responsesize\000"
 16962      706F6E73 
 16962      6573697A 
 16962      6500
 16963              	.LASF347:
 16964 118f 526F7461 		.ascii	"Rotate\000"
 16964      746500
 16965              	.LASF250:
 16966 1196 504E4541 		.ascii	"PNEAR_PUMPTRANSACTIONALSTATEPTR\000"
 16966      525F5055 
 16966      4D505452 
 16966      414E5341 
 16966      4354494F 
 16967              	.LASF181:
 16968 11b6 44495350 		.ascii	"DISPLAY_USUARIO_INVALIDO\000"
 16968      4C41595F 
 16968      55535541 
 16968      52494F5F 
 16968      494E5641 
 16969              	.LASF463:
 16970 11cf 52465F4E 		.ascii	"RF_NON_AUTONOMOUS\000"
 16970      4F4E5F41 
 16970      55544F4E 
 16970      4F4D4F55 
 16970      5300
 16971              	.LASF540:
 16972 11e1 7074726A 		.ascii	"ptrjob\000"
 16972      6F6200
 16973              	.LASF392:
 16974 11e8 45455052 		.ascii	"EEPROM_DISPENSER_PUMP4_PPU_INFO_PAGE\000"
 16974      4F4D5F44 
 16974      49535045 
 16974      4E534552 
 16974      5F50554D 
ARM GAS  C:\Users\RECEPC~1\AppData\Local\Temp\ccMZb0bC.s 			page 359


 16975              	.LASF80:
 16976 120d 5052494E 		.ascii	"PRINTER1_GENERIC_JOB_LOGO\000"
 16976      54455231 
 16976      5F47454E 
 16976      45524943 
 16976      5F4A4F42 
 16977              	.LASF290:
 16978 1227 5F747261 		.ascii	"_trasactionbuffer\000"
 16978      73616374 
 16978      696F6E62 
 16978      75666665 
 16978      7200
 16979              	.LASF544:
 16980 1239 46696E64 		.ascii	"FindLRC\000"
 16980      4C524300 
 16981              	.LASF558:
 16982 1241 5F675F70 		.ascii	"_g_pumps\000"
 16982      756D7073 
 16982      00
 16983              	.LASF349:
 16984 124a 456E7175 		.ascii	"Enqueue\000"
 16984      65756500 
 16985              	.LASF523:
 16986 1252 7073696E 		.ascii	"psinkmsg\000"
 16986      6B6D7367 
 16986      00
 16987              	.LASF510:
 16988 125b 62756666 		.ascii	"bufferlength\000"
 16988      65726C65 
 16988      6E677468 
 16988      00
 16989              	.LASF271:
 16990 1268 50756D70 		.ascii	"PumpAuthorizationInfo\000"
 16990      41757468 
 16990      6F72697A 
 16990      6174696F 
 16990      6E496E66 
 16991              	.LASF393:
 16992 127e 45455052 		.ascii	"EEPROM_INSEPET_RESERVED_PAGE1\000"
 16992      4F4D5F49 
 16992      4E534550 
 16992      45545F52 
 16992      45534552 
 16993              	.LASF394:
 16994 129c 45455052 		.ascii	"EEPROM_INSEPET_RESERVED_PAGE2\000"
 16994      4F4D5F49 
 16994      4E534550 
 16994      45545F52 
 16994      45534552 
 16995              	.LASF395:
 16996 12ba 45455052 		.ascii	"EEPROM_INSEPET_RESERVED_PAGE3\000"
 16996      4F4D5F49 
 16996      4E534550 
 16996      45545F52 
 16996      45534552 
 16997              	.LASF396:
 16998 12d8 45455052 		.ascii	"EEPROM_INSEPET_RESERVED_PAGE4\000"
ARM GAS  C:\Users\RECEPC~1\AppData\Local\Temp\ccMZb0bC.s 			page 360


 16998      4F4D5F49 
 16998      4E534550 
 16998      45545F52 
 16998      45534552 
 16999              	.LASF287:
 17000 12f6 5F727476 		.ascii	"_rtvolumeamount\000"
 17000      6F6C756D 
 17000      65616D6F 
 17000      756E7400 
 17001              	.LASF330:
 17002 1306 5F64656C 		.ascii	"_delay\000"
 17002      617900
 17003              	.LASF388:
 17004 130d 45455052 		.ascii	"EEPROM_DISPENSER_PUMP4_PRODUCT_NAMES_PAGE\000"
 17004      4F4D5F44 
 17004      49535045 
 17004      4E534552 
 17004      5F50554D 
 17005              	.LASF437:
 17006 1337 52465F4D 		.ascii	"RF_MUX_PENDING_CREDIT_SALE_REQUEST\000"
 17006      55585F50 
 17006      454E4449 
 17006      4E475F43 
 17006      52454449 
 17007              	.LASF551:
 17008 135a 73686966 		.ascii	"shiftcount\000"
 17008      74636F75 
 17008      6E7400
 17009              	.LASF32:
 17010 1365 414C4C49 		.ascii	"ALLINTERESTEDFOREVER\000"
 17010      4E544552 
 17010      45535445 
 17010      44464F52 
 17010      45564552 
 17011              	.LASF534:
 17012 137a 41637175 		.ascii	"AcquirePumpSpecialFunctionResponseResolver\000"
 17012      69726550 
 17012      756D7053 
 17012      70656369 
 17012      616C4675 
 17013              	.LASF354:
 17014 13a5 5F696E63 		.ascii	"_inconfiguration\000"
 17014      6F6E6669 
 17014      67757261 
 17014      74696F6E 
 17014      00
 17015              	.LASF232:
 17016 13b6 5F50554D 		.ascii	"_PUMP_STATE_\000"
 17016      505F5354 
 17016      4154455F 
 17016      00
 17017              	.LASF545:
 17018 13c3 496E6974 		.ascii	"InitiateTransaction\000"
 17018      69617465 
 17018      5472616E 
 17018      73616374 
 17018      696F6E00 
ARM GAS  C:\Users\RECEPC~1\AppData\Local\Temp\ccMZb0bC.s 			page 361


 17019              	.LASF7:
 17020 13d7 6C6F6E67 		.ascii	"long unsigned int\000"
 17020      20756E73 
 17020      69676E65 
 17020      6420696E 
 17020      7400
 17021              	.LASF538:
 17022 13e9 456E636F 		.ascii	"EncoreActivateProgramming\000"
 17022      72654163 
 17022      74697661 
 17022      74655072 
 17022      6F677261 
 17023              	.LASF239:
 17024 1403 5F50554D 		.ascii	"_PUMP_PROGRAM_MODE_\000"
 17024      505F5052 
 17024      4F475241 
 17024      4D5F4D4F 
 17024      44455F00 
 17025              	.LASF186:
 17026 1417 44495350 		.ascii	"DISPLAY_DUMMY0\000"
 17026      4C41595F 
 17026      44554D4D 
 17026      593000
 17027              	.LASF187:
 17028 1426 44495350 		.ascii	"DISPLAY_DUMMY1\000"
 17028      4C41595F 
 17028      44554D4D 
 17028      593100
 17029              	.LASF188:
 17030 1435 44495350 		.ascii	"DISPLAY_DUMMY2\000"
 17030      4C41595F 
 17030      44554D4D 
 17030      593200
 17031              	.LASF189:
 17032 1444 44495350 		.ascii	"DISPLAY_DUMMY3\000"
 17032      4C41595F 
 17032      44554D4D 
 17032      593300
 17033              	.LASF243:
 17034 1453 5F50554D 		.ascii	"_PUMP_UNKNOWN_\000"
 17034      505F554E 
 17034      4B4E4F57 
 17034      4E5F00
 17035              	.LASF514:
 17036 1462 50756D70 		.ascii	"PumpStopAllRequest\000"
 17036      53746F70 
 17036      416C6C52 
 17036      65717565 
 17036      737400
 17037              	.LASF166:
 17038 1475 44495350 		.ascii	"DISPLAY_IMPRIMIENDO_RECIBO\000"
 17038      4C41595F 
 17038      494D5052 
 17038      494D4945 
 17038      4E444F5F 
 17039              	.LASF474:
 17040 1490 41637175 		.ascii	"AcquirePumpStateResponse\000"
ARM GAS  C:\Users\RECEPC~1\AppData\Local\Temp\ccMZb0bC.s 			page 362


 17040      69726550 
 17040      756D7053 
 17040      74617465 
 17040      52657370 
 17041              	.LASF424:
 17042 14a9 52465F4D 		.ascii	"RF_MUX_CASH_SALE_END_REPORT_RESPONSE\000"
 17042      55585F43 
 17042      4153485F 
 17042      53414C45 
 17042      5F454E44 
 17043              	.LASF425:
 17044 14ce 52465F4D 		.ascii	"RF_MUX_TOTALS_REQUEST\000"
 17044      55585F54 
 17044      4F54414C 
 17044      535F5245 
 17044      51554553 
 17045              	.LASF48:
 17046 14e4 5F706461 		.ascii	"_pdata\000"
 17046      746100
 17047              	.LASF546:
 17048 14eb 5465726D 		.ascii	"TerminateTransaction\000"
 17048      696E6174 
 17048      65547261 
 17048      6E736163 
 17048      74696F6E 
 17049              	.LASF197:
 17050 1500 5F504F49 		.ascii	"_POINT_AS_DECIMAL_SEPARATOR_\000"
 17050      4E545F41 
 17050      535F4445 
 17050      43494D41 
 17050      4C5F5345 
 17051              	.LASF279:
 17052 151d 5F726573 		.ascii	"_restoreprice\000"
 17052      746F7265 
 17052      70726963 
 17052      6500
 17053              	.LASF322:
 17054 152b 46696E61 		.ascii	"Finalization\000"
 17054      6C697A61 
 17054      74696F6E 
 17054      00
 17055              	.LASF49:
 17056 1538 43616C6C 		.ascii	"Callback\000"
 17056      6261636B 
 17056      00
 17057              	.LASF61:
 17058 1541 44495350 		.ascii	"DISPENSER_ACQUIRE_PUMP_HOSE\000"
 17058      454E5345 
 17058      525F4143 
 17058      51554952 
 17058      455F5055 
 17059              	.LASF486:
 17060 155d 70747374 		.ascii	"ptstemp\000"
 17060      656D7000 
 17061              	.LASF530:
 17062 1565 41637175 		.ascii	"AcquirePumpEnumeratorResponse\000"
 17062      69726550 
ARM GAS  C:\Users\RECEPC~1\AppData\Local\Temp\ccMZb0bC.s 			page 363


 17062      756D7045 
 17062      6E756D65 
 17062      7261746F 
 17063              	.LASF338:
 17064 1583 5F707265 		.ascii	"_prequest\000"
 17064      71756573 
 17064      7400
 17065              	.LASF465:
 17066 158d 5F74696D 		.ascii	"_timeouttoautonomous\000"
 17066      656F7574 
 17066      746F6175 
 17066      746F6E6F 
 17066      6D6F7573 
 17067              	.LASF451:
 17068 15a2 52465F4D 		.ascii	"RF_MUX_NULL\000"
 17068      55585F4E 
 17068      554C4C00 
 17069              	.LASF131:
 17070 15ae 55415254 		.ascii	"UART_DISPENSER\000"
 17070      5F444953 
 17070      50454E53 
 17070      455200
 17071              	.LASF159:
 17072 15bd 44495350 		.ascii	"DISPLAY_ID_RECONOCIDO\000"
 17072      4C41595F 
 17072      49445F52 
 17072      45434F4E 
 17072      4F434944 
 17073              	.LASF336:
 17074 15d3 5F74696D 		.ascii	"_timeoutseed\000"
 17074      656F7574 
 17074      73656564 
 17074      00
 17075              	.LASF528:
 17076 15e0 72657476 		.ascii	"retval\000"
 17076      616C00
 17077              	.LASF410:
 17078 15e7 45455052 		.ascii	"EEPROM_DISPENSER_PUMP42_TRANSACTION_PAGE\000"
 17078      4F4D5F44 
 17078      49535045 
 17078      4E534552 
 17078      5F50554D 
 17079              	.LASF272:
 17080 1610 5F50554D 		.ascii	"_PUMP_LAYOUT_\000"
 17080      505F4C41 
 17080      594F5554 
 17080      5F00
 17081              	.LASF537:
 17082 161e 41637175 		.ascii	"AcquirePpuChangeResponse\000"
 17082      69726550 
 17082      70754368 
 17082      616E6765 
 17082      52657370 
 17083              	.LASF502:
 17084 1637 62756666 		.ascii	"buffndx\000"
 17084      6E647800 
 17085              	.LASF95:
ARM GAS  C:\Users\RECEPC~1\AppData\Local\Temp\ccMZb0bC.s 			page 364


 17086 163f 57415443 		.ascii	"WATCHDOG_STARTUP\000"
 17086      48444F47 
 17086      5F535441 
 17086      52545550 
 17086      00
 17087              	.LASF183:
 17088 1650 44495350 		.ascii	"DISPLAY_IMPRESORA_NO_FUNCIONANDO\000"
 17088      4C41595F 
 17088      494D5052 
 17088      45534F52 
 17088      415F4E4F 
 17089              	.LASF74:
 17090 1671 5052494E 		.ascii	"PRINTER11_JOB\000"
 17090      54455231 
 17090      315F4A4F 
 17090      4200
 17091              	.LASF542:
 17092 167f 4765744C 		.ascii	"GetLRC\000"
 17092      524300
 17093              	.LASF150:
 17094 1686 44495350 		.ascii	"DISPLAY_INGRESE_PASSWORD\000"
 17094      4C41595F 
 17094      494E4752 
 17094      4553455F 
 17094      50415353 
 17095              	.LASF426:
 17096 169f 52465F4D 		.ascii	"RF_MUX_TOTALS_RESPONSE\000"
 17096      55585F54 
 17096      4F54414C 
 17096      535F5245 
 17096      53504F4E 
 17097              	.LASF8:
 17098 16b6 6C6F6E67 		.ascii	"long long int\000"
 17098      206C6F6E 
 17098      6720696E 
 17098      7400
 17099              	.LASF325:
 17100 16c4 5F747261 		.ascii	"_transactionname\000"
 17100      6E736163 
 17100      74696F6E 
 17100      6E616D65 
 17100      00
 17101              	.LASF171:
 17102 16d5 44495350 		.ascii	"DISPLAY_AUTORIZACION_ACEPTADA\000"
 17102      4C41595F 
 17102      4155544F 
 17102      52495A41 
 17102      43494F4E 
 17103              	.LASF149:
 17104 16f3 44495350 		.ascii	"DISPLAY_DESEA_IMPRIMIR_RECIBO\000"
 17104      4C41595F 
 17104      44455345 
 17104      415F494D 
 17104      5052494D 
 17105              	.LASF155:
 17106 1711 44495350 		.ascii	"DISPLAY_GRACIAS_VUELVA_PRONTO\000"
 17106      4C41595F 
ARM GAS  C:\Users\RECEPC~1\AppData\Local\Temp\ccMZb0bC.s 			page 365


 17106      47524143 
 17106      4941535F 
 17106      5655454C 
 17107              	.LASF454:
 17108 172f 52465F44 		.ascii	"RF_DELIVERING\000"
 17108      454C4956 
 17108      4552494E 
 17108      4700
 17109              	.LASF59:
 17110 173d 44495350 		.ascii	"DISPENSER_UPDATE_PUMP_TRANSACTION_TIMEOUTS\000"
 17110      454E5345 
 17110      525F5550 
 17110      44415445 
 17110      5F50554D 
 17111              	.LASF435:
 17112 1768 52465F4D 		.ascii	"RF_MUX_CASH_SALE_PRINT_REQUEST\000"
 17112      55585F43 
 17112      4153485F 
 17112      53414C45 
 17112      5F505249 
 17113              	.LASF525:
 17114 1787 70747262 		.ascii	"ptrbuff\000"
 17114      75666600 
 17115              	.LASF116:
 17116 178f 436C6561 		.ascii	"ClearTxBuffer\000"
 17116      72547842 
 17116      75666665 
 17116      7200
 17117              	.LASF18:
 17118 179d 646F7562 		.ascii	"double\000"
 17118      6C6500
 17119              	.LASF406:
 17120 17a4 45455052 		.ascii	"EEPROM_DISPENSER_PUMP32_TRANSACTION_PAGE\000"
 17120      4F4D5F44 
 17120      49535045 
 17120      4E534552 
 17120      5F50554D 
 17121              	.LASF151:
 17122 17cd 44495350 		.ascii	"DISPLAY_PASSWORD_VALIDO\000"
 17122      4C41595F 
 17122      50415353 
 17122      574F5244 
 17122      5F56414C 
 17123              	.LASF566:
 17124 17e5 433A5C54 		.ascii	"C:\\TeamInsepet\\NSX-Prime\\Hardware\\CorEx-MUX-Ker"
 17124      65616D49 
 17124      6E736570 
 17124      65745C4E 
 17124      53582D50 
 17125 1814 6E656C2D 		.ascii	"nel-Enhanced\\Workspace01\\CorEx-Mux-Kernel.cydsn\000"
 17125      456E6861 
 17125      6E636564 
 17125      5C576F72 
 17125      6B737061 
 17126              	.LASF143:
 17127 1844 44495350 		.ascii	"DISPLAY_SELECCIONE_PRODUCTO3\000"
 17127      4C41595F 
ARM GAS  C:\Users\RECEPC~1\AppData\Local\Temp\ccMZb0bC.s 			page 366


 17127      53454C45 
 17127      4343494F 
 17127      4E455F50 
 17128              	.LASF144:
 17129 1861 44495350 		.ascii	"DISPLAY_SELECCIONE_PRODUCTO4\000"
 17129      4C41595F 
 17129      53454C45 
 17129      4343494F 
 17129      4E455F50 
 17130              	.LASF208:
 17131 187e 50554D50 		.ascii	"PUMP_ALL_PUMPS_STOP\000"
 17131      5F414C4C 
 17131      5F50554D 
 17131      50535F53 
 17131      544F5000 
 17132              	.LASF152:
 17133 1892 44495350 		.ascii	"DISPLAY_PASSWORD_INVALIDO\000"
 17133      4C41595F 
 17133      50415353 
 17133      574F5244 
 17133      5F494E56 
 17134              	.LASF286:
 17135 18ac 5F72746D 		.ascii	"_rtmoneyamount\000"
 17135      6F6E6579 
 17135      616D6F75 
 17135      6E7400
 17136              	.LASF556:
 17137 18bb 49544D5F 		.ascii	"ITM_RxBuffer\000"
 17137      52784275 
 17137      66666572 
 17137      00
 17138              	.LASF38:
 17139 18c8 5F73656C 		.ascii	"_selfkill\000"
 17139      666B696C 
 17139      6C00
 17140              	.LASF17:
 17141 18d2 666C6F61 		.ascii	"float\000"
 17141      7400
 17142              	.LASF520:
 17143 18d8 70747265 		.ascii	"ptreeprom\000"
 17143      6570726F 
 17143      6D00
 17144              	.LASF409:
 17145 18e2 45455052 		.ascii	"EEPROM_DISPENSER_PUMP41_TRANSACTION_PAGE\000"
 17145      4F4D5F44 
 17145      49535045 
 17145      4E534552 
 17145      5F50554D 
 17146              	.LASF245:
 17147 190b 5F50554D 		.ascii	"_PUMP_OK_\000"
 17147      505F4F4B 
 17147      5F00
 17148              	.LASF397:
 17149 1915 45455052 		.ascii	"EEPROM_DISPENSER_PUMP11_TRANSACTION_PAGE\000"
 17149      4F4D5F44 
 17149      49535045 
 17149      4E534552 
ARM GAS  C:\Users\RECEPC~1\AppData\Local\Temp\ccMZb0bC.s 			page 367


 17149      5F50554D 
 17150              	.LASF547:
 17151 193e 5465726D 		.ascii	"TerminateTransactionAndPrint\000"
 17151      696E6174 
 17151      65547261 
 17151      6E736163 
 17151      74696F6E 
 17152              	.LASF562:
 17153 195b 5F675F70 		.ascii	"_g_ptractprogramming\000"
 17153      74726163 
 17153      7470726F 
 17153      6772616D 
 17153      6D696E67 
 17154              	.LASF263:
 17155 1970 50756D70 		.ascii	"PumpDataContainer\000"
 17155      44617461 
 17155      436F6E74 
 17155      61696E65 
 17155      7200
 17156              	.LASF331:
 17157 1982 5F64656C 		.ascii	"_delaymultiplier\000"
 17157      61796D75 
 17157      6C746970 
 17157      6C696572 
 17157      00
 17158              	.LASF563:
 17159 1993 5F675F73 		.ascii	"_g_sfcharmap\000"
 17159      66636861 
 17159      726D6170 
 17159      00
 17160              	.LASF267:
 17161 19a0 5F707269 		.ascii	"_price\000"
 17161      636500
 17162              	.LASF10:
 17163 19a7 756E7369 		.ascii	"unsigned int\000"
 17163      676E6564 
 17163      20696E74 
 17163      00
 17164              	.LASF111:
 17165 19b4 52656164 		.ascii	"ReadTxStatus\000"
 17165      54785374 
 17165      61747573 
 17165      00
 17166              	.LASF511:
 17167 19c1 50756D70 		.ascii	"PumpDefault2CreditPpuChange\000"
 17167      44656661 
 17167      756C7432 
 17167      43726564 
 17167      69745070 
 17168              	.LASF319:
 17169 19dd 5F6F6E65 		.ascii	"_oneshotpostconditions\000"
 17169      73686F74 
 17169      706F7374 
 17169      636F6E64 
 17169      6974696F 
 17170              	.LASF157:
 17171 19f4 44495350 		.ascii	"DISPLAY_ID_NO_RECONOCIDO\000"
ARM GAS  C:\Users\RECEPC~1\AppData\Local\Temp\ccMZb0bC.s 			page 368


 17171      4C41595F 
 17171      49445F4E 
 17171      4F5F5245 
 17171      434F4E4F 
 17172              	.LASF51:
 17173 1a0d 5053494E 		.ascii	"PSINKMESSAGEPTR\000"
 17173      4B4D4553 
 17173      53414745 
 17173      50545200 
 17174              	.LASF527:
 17175 1a1d 62756666 		.ascii	"buffersize\000"
 17175      65727369 
 17175      7A6500
 17176              	.LASF549:
 17177 1a28 64656C69 		.ascii	"delimiterindex\000"
 17177      6D697465 
 17177      72696E64 
 17177      657800
 17178              	.LASF148:
 17179 1a37 44495350 		.ascii	"DISPLAY_DIGITE_PLACA\000"
 17179      4C41595F 
 17179      44494749 
 17179      54455F50 
 17179      4C414341 
 17180              	.LASF26:
 17181 1a4c 42524F41 		.ascii	"BROADCAST\000"
 17181      44434153 
 17181      5400
 17182              	.LASF97:
 17183 1a56 5F554152 		.ascii	"_UART_MANAGER_\000"
 17183      545F4D41 
 17183      4E414745 
 17183      525F00
 17184              	.LASF484:
 17185 1a65 6E756D68 		.ascii	"numhoses\000"
 17185      6F736573 
 17185      00
 17186              	.LASF482:
 17187 1a6e 50726F63 		.ascii	"ProcessPumpTotalsDataReport\000"
 17187      65737350 
 17187      756D7054 
 17187      6F74616C 
 17187      73446174 
 17188              	.LASF344:
 17189 1a8a 5F717565 		.ascii	"_queueindex\000"
 17189      7565696E 
 17189      64657800 
 17190              	.LASF522:
 17191 1a96 6D73676C 		.ascii	"msglength\000"
 17191      656E6774 
 17191      6800
 17192              	.LASF567:
 17193 1aa0 5F706F69 		.ascii	"_pointcommadecimalmode\000"
 17193      6E74636F 
 17193      6D6D6164 
 17193      6563696D 
 17193      616C6D6F 
ARM GAS  C:\Users\RECEPC~1\AppData\Local\Temp\ccMZb0bC.s 			page 369


 17194              	.LASF565:
 17195 1ab7 2E5C456E 		.ascii	".\\EncoreImpl.c\000"
 17195      636F7265 
 17195      496D706C 
 17195      2E6300
 17196              	.LASF405:
 17197 1ac6 45455052 		.ascii	"EEPROM_DISPENSER_PUMP31_TRANSACTION_PAGE\000"
 17197      4F4D5F44 
 17197      49535045 
 17197      4E534552 
 17197      5F50554D 
 17198              	.LASF134:
 17199 1aef 55415254 		.ascii	"UART_NULL\000"
 17199      5F4E554C 
 17199      4C00
 17200              	.LASF423:
 17201 1af9 52465F4D 		.ascii	"RF_MUX_CASH_SALE_END_REPORT_REQUEST\000"
 17201      55585F43 
 17201      4153485F 
 17201      53414C45 
 17201      5F454E44 
 17202              	.LASF515:
 17203 1b1d 50756D70 		.ascii	"PumpCompleteConfiguration\000"
 17203      436F6D70 
 17203      6C657465 
 17203      436F6E66 
 17203      69677572 
 17204              	.LASF500:
 17205 1b37 50756D70 		.ascii	"PumpCreditPresetHose\000"
 17205      43726564 
 17205      69745072 
 17205      65736574 
 17205      486F7365 
 17206              	.LASF555:
 17207 1b4c 70747273 		.ascii	"ptrstr\000"
 17207      747200
 17208              	.LASF342:
 17209 1b53 5050554D 		.ascii	"PPUMPTRANSACTIONJOBCONTEXTPTR\000"
 17209      50545241 
 17209      4E534143 
 17209      54494F4E 
 17209      4A4F4243 
 17210              	.LASF398:
 17211 1b71 45455052 		.ascii	"EEPROM_DISPENSER_PUMP12_TRANSACTION_PAGE\000"
 17211      4F4D5F44 
 17211      49535045 
 17211      4E534552 
 17211      5F50554D 
 17212              	.LASF521:
 17213 1b9a 626C6B69 		.ascii	"blkindex\000"
 17213      6E646578 
 17213      00
 17214              	.LASF103:
 17215 1ba3 57726974 		.ascii	"WriteControlRegister\000"
 17215      65436F6E 
 17215      74726F6C 
 17215      52656769 
ARM GAS  C:\Users\RECEPC~1\AppData\Local\Temp\ccMZb0bC.s 			page 370


 17215      73746572 
 17216              	.LASF93:
 17217 1bb8 474C4F42 		.ascii	"GLOBAL_TICK_NOTIFICATION\000"
 17217      414C5F54 
 17217      49434B5F 
 17217      4E4F5449 
 17217      46494341 
 17218              	.LASF216:
 17219 1bd1 50554D50 		.ascii	"PUMP_CALLING\000"
 17219      5F43414C 
 17219      4C494E47 
 17219      00
 17220              	.LASF27:
 17221 1bde 46495253 		.ascii	"FIRSTFOUND\000"
 17221      54464F55 
 17221      4E4400
 17222              	.LASF459:
 17223 1be9 52465F45 		.ascii	"RF_ERROR\000"
 17223      52524F52 
 17223      00
 17224              	.LASF24:
 17225 1bf2 4C50564F 		.ascii	"LPVOID\000"
 17225      494400
 17226              	.LASF72:
 17227 1bf9 44495350 		.ascii	"DISPENSER_PUMP_HANDLER\000"
 17227      454E5345 
 17227      525F5055 
 17227      4D505F48 
 17227      414E444C 
 17228              	.LASF335:
 17229 1c10 5F726574 		.ascii	"_retriescounter\000"
 17229      72696573 
 17229      636F756E 
 17229      74657200 
 17230              	.LASF108:
 17231 1c20 47657452 		.ascii	"GetRxBufferSize\000"
 17231      78427566 
 17231      66657253 
 17231      697A6500 
 17232              	.LASF288:
 17233 1c30 5F747261 		.ascii	"_transhealth\000"
 17233      6E736865 
 17233      616C7468 
 17233      00
 17234              	.LASF455:
 17235 1c3d 52465F43 		.ascii	"RF_CASHSALEREPORT\000"
 17235      41534853 
 17235      414C4552 
 17235      45504F52 
 17235      5400
 17236              	.LASF517:
 17237 1c4f 72656D62 		.ascii	"remblocks\000"
 17237      6C6F636B 
 17237      7300
 17238              	.LASF401:
 17239 1c59 45455052 		.ascii	"EEPROM_DISPENSER_PUMP21_TRANSACTION_PAGE\000"
 17239      4F4D5F44 
ARM GAS  C:\Users\RECEPC~1\AppData\Local\Temp\ccMZb0bC.s 			page 371


 17239      49535045 
 17239      4E534552 
 17239      5F50554D 
 17240              	.LASF190:
 17241 1c82 44495350 		.ascii	"DISPLAY_SIDE_DUMMY_DISPLAY\000"
 17241      4C41595F 
 17241      53494445 
 17241      5F44554D 
 17241      4D595F44 
 17242              	.LASF173:
 17243 1c9d 44495350 		.ascii	"DISPLAY_CONFIGURAR_FECHA_HORA\000"
 17243      4C41595F 
 17243      434F4E46 
 17243      49475552 
 17243      41525F46 
 17244              	.LASF428:
 17245 1cbb 52465F4D 		.ascii	"RF_MUX_TOTALS_REPORT_RESPONSE\000"
 17245      55585F54 
 17245      4F54414C 
 17245      535F5245 
 17245      504F5254 
 17246              	.LASF53:
 17247 1cd9 55415254 		.ascii	"UART_RF_RECEPTION\000"
 17247      5F52465F 
 17247      52454345 
 17247      5054494F 
 17247      4E00
 17248              	.LASF308:
 17249 1ceb 5F50554D 		.ascii	"_PUMP_TRANSACTION_JOB_\000"
 17249      505F5452 
 17249      414E5341 
 17249      4354494F 
 17249      4E5F4A4F 
 17250              	.LASF196:
 17251 1d02 5F444543 		.ascii	"_DECIMAL_SEPARATOR_\000"
 17251      494D414C 
 17251      5F534550 
 17251      41524154 
 17251      4F525F00 
 17252              	.LASF264:
 17253 1d16 5F617574 		.ascii	"_authorized\000"
 17253      686F7269 
 17253      7A656400 
 17254              	.LASF23:
 17255 1d22 6C6F6E67 		.ascii	"long double\000"
 17255      20646F75 
 17255      626C6500 
 17256              	.LASF348:
 17257 1d2e 416C6C6F 		.ascii	"Allocate\000"
 17257      63617465 
 17257      00
 17258              	.LASF200:
 17259 1d37 50554D50 		.ascii	"PUMP_STATE_REQUEST\000"
 17259      5F535441 
 17259      54455F52 
 17259      45515545 
 17259      535400
ARM GAS  C:\Users\RECEPC~1\AppData\Local\Temp\ccMZb0bC.s 			page 372


 17260              	.LASF226:
 17261 1d4a 5F50554D 		.ascii	"_PUMP_FILL_BY_VOLUME_\000"
 17261      505F4649 
 17261      4C4C5F42 
 17261      595F564F 
 17261      4C554D45 
 17262              	.LASF506:
 17263 1d60 50756D70 		.ascii	"PumpCreditPresetNotification\000"
 17263      43726564 
 17263      69745072 
 17263      65736574 
 17263      4E6F7469 
 17264              	.LASF248:
 17265 1d7d 5F747261 		.ascii	"_transtate\000"
 17265      6E737461 
 17265      746500
 17266              	.LASF214:
 17267 1d88 50554D50 		.ascii	"PUMP_FAIL\000"
 17267      5F464149 
 17267      4C00
 17268              	.LASF100:
 17269 1d92 53746172 		.ascii	"Start\000"
 17269      7400
 17270              	.LASF122:
 17271 1d98 5F554152 		.ascii	"_UART_MESSAGE_\000"
 17271      545F4D45 
 17271      53534147 
 17271      455F00
 17272              	.LASF168:
 17273 1da7 44495350 		.ascii	"DISPLAY_OPERACION_CANCELADA\000"
 17273      4C41595F 
 17273      4F504552 
 17273      4143494F 
 17273      4E5F4341 
 17274              	.LASF163:
 17275 1dc3 44495350 		.ascii	"DISPLAY_OPERACIONES\000"
 17275      4C41595F 
 17275      4F504552 
 17275      4143494F 
 17275      4E455300 
 17276              	.LASF220:
 17277 1dd7 50554D50 		.ascii	"PUMP_FEOT\000"
 17277      5F46454F 
 17277      5400
 17278              	.LASF318:
 17279 1de1 5F707265 		.ascii	"_preconditions\000"
 17279      636F6E64 
 17279      6974696F 
 17279      6E7300
 17280              	.LASF307:
 17281 1df0 504E4541 		.ascii	"PNEAR_PUMPPTR\000"
 17281      525F5055 
 17281      4D505054 
 17281      5200
 17282              	.LASF127:
 17283 1dfe 50554152 		.ascii	"PUARTMESSAGEPTR\000"
 17283      544D4553 
ARM GAS  C:\Users\RECEPC~1\AppData\Local\Temp\ccMZb0bC.s 			page 373


 17283      53414745 
 17283      50545200 
 17284              	.LASF357:
 17285 1e0e 5F686F73 		.ascii	"_hosesposition1\000"
 17285      6573706F 
 17285      73697469 
 17285      6F6E3100 
 17286              	.LASF277:
 17287 1e1e 5F686F73 		.ascii	"_hoseactivestate\000"
 17287      65616374 
 17287      69766573 
 17287      74617465 
 17287      00
 17288              	.LASF359:
 17289 1e2f 5F686F73 		.ascii	"_hosesposition3\000"
 17289      6573706F 
 17289      73697469 
 17289      6F6E3300 
 17290              	.LASF360:
 17291 1e3f 5F686F73 		.ascii	"_hosesposition4\000"
 17291      6573706F 
 17291      73697469 
 17291      6F6E3400 
 17292              	.LASF153:
 17293 1e4f 44495350 		.ascii	"DISPLAY_NUEVO_PASSWORD\000"
 17293      4C41595F 
 17293      4E554556 
 17293      4F5F5041 
 17293      5353574F 
 17294              	.LASF366:
 17295 1e66 5F6D696E 		.ascii	"_minvolumevalue\000"
 17295      766F6C75 
 17295      6D657661 
 17295      6C756500 
 17296              	.LASF311:
 17297 1e76 54696D65 		.ascii	"TimeoutCallback\000"
 17297      6F757443 
 17297      616C6C62 
 17297      61636B00 
 17298              	.LASF305:
 17299 1e86 436C6561 		.ascii	"CleanUp\000"
 17299      6E557000 
 17300              	.LASF158:
 17301 1e8e 44495350 		.ascii	"DISPLAY_ESPERANDO_ID\000"
 17301      4C41595F 
 17301      45535045 
 17301      52414E44 
 17301      4F5F4944 
 17302              	.LASF345:
 17303 1ea3 5F6A6F62 		.ascii	"_jobqueueheap\000"
 17303      71756575 
 17303      65686561 
 17303      7000
 17304              	.LASF390:
 17305 1eb1 45455052 		.ascii	"EEPROM_DISPENSER_PUMP2_PPU_INFO_PAGE\000"
 17305      4F4D5F44 
 17305      49535045 
ARM GAS  C:\Users\RECEPC~1\AppData\Local\Temp\ccMZb0bC.s 			page 374


 17305      4E534552 
 17305      5F50554D 
 17306              	.LASF306:
 17307 1ed6 50756D70 		.ascii	"Pump\000"
 17307      00
 17308              	.LASF236:
 17309 1edb 5F50554D 		.ascii	"_PUMP_STOP_\000"
 17309      505F5354 
 17309      4F505F00 
 17310              	.LASF139:
 17311 1ee7 44495350 		.ascii	"DISPLAY_FORMA_PAGO_DESEADA\000"
 17311      4C41595F 
 17311      464F524D 
 17311      415F5041 
 17311      474F5F44 
 17312              	.LASF472:
 17313 1f02 706A6F62 		.ascii	"pjob\000"
 17313      00
 17314              	.LASF9:
 17315 1f07 6C6F6E67 		.ascii	"long long unsigned int\000"
 17315      206C6F6E 
 17315      6720756E 
 17315      7369676E 
 17315      65642069 
 17316              	.LASF229:
 17317 1f1e 5F50554D 		.ascii	"_PUMP_PPU_CHANGE_\000"
 17317      505F5050 
 17317      555F4348 
 17317      414E4745 
 17317      5F00
 17318              	.LASF114:
 17319 1f30 50757441 		.ascii	"PutArray\000"
 17319      72726179 
 17319      00
 17320              	.LASF289:
 17321 1f39 5F706375 		.ascii	"_pcurrtransaction\000"
 17321      72727472 
 17321      616E7361 
 17321      6374696F 
 17321      6E00
 17322              	.LASF436:
 17323 1f4b 52465F4D 		.ascii	"RF_MUX_CASH_SALE_PRINT_RESPONSE\000"
 17323      55585F43 
 17323      4153485F 
 17323      53414C45 
 17323      5F505249 
 17324              	.LASF341:
 17325 1f6b 50756D70 		.ascii	"PumpTransactionJobContext\000"
 17325      5472616E 
 17325      73616374 
 17325      696F6E4A 
 17325      6F62436F 
 17326              	.LASF355:
 17327 1f85 5F637572 		.ascii	"_currentloopopen\000"
 17327      72656E74 
 17327      6C6F6F70 
 17327      6F70656E 
ARM GAS  C:\Users\RECEPC~1\AppData\Local\Temp\ccMZb0bC.s 			page 375


 17327      00
 17328              	.LASF219:
 17329 1f96 50554D50 		.ascii	"PUMP_PEOT\000"
 17329      5F50454F 
 17329      5400
 17330              	.LASF56:
 17331 1fa0 53494E4B 		.ascii	"SINK_UPDATE_COUNTERS\000"
 17331      5F555044 
 17331      4154455F 
 17331      434F554E 
 17331      54455253 
 17332              	.LASF102:
 17333 1fb5 52656164 		.ascii	"ReadControlRegister\000"
 17333      436F6E74 
 17333      726F6C52 
 17333      65676973 
 17333      74657200 
 17334              	.LASF447:
 17335 1fc9 52465F4D 		.ascii	"RF_MUX_ISLAND_ADMIN_REQUEST\000"
 17335      55585F49 
 17335      534C414E 
 17335      445F4144 
 17335      4D494E5F 
 17336              	.LASF254:
 17337 1fe5 5F766172 		.ascii	"_var3\000"
 17337      3300
 17338              	.LASF255:
 17339 1feb 5F766172 		.ascii	"_var4\000"
 17339      3400
 17340              	.LASF314:
 17341 1ff1 5F726570 		.ascii	"_repushtimeoutlimit\000"
 17341      75736874 
 17341      696D656F 
 17341      75746C69 
 17341      6D697400 
 17342              	.LASF65:
 17343 2005 44495350 		.ascii	"DISPENSER_LOAD_EEPROM_SETTINGS\000"
 17343      454E5345 
 17343      525F4C4F 
 17343      41445F45 
 17343      4550524F 
 17344              	.LASF268:
 17345 2024 5F707265 		.ascii	"_presetamount\000"
 17345      73657461 
 17345      6D6F756E 
 17345      7400
 17346              	.LASF98:
 17347 2032 5F696465 		.ascii	"_identifier\000"
 17347      6E746966 
 17347      69657200 
 17348              	.LASF439:
 17349 203e 52465F4D 		.ascii	"RF_MUX_LAST_CASH_SALE_REQUEST\000"
 17349      55585F4C 
 17349      4153545F 
 17349      43415348 
 17349      5F53414C 
 17350              	.LASF276:
ARM GAS  C:\Users\RECEPC~1\AppData\Local\Temp\ccMZb0bC.s 			page 376


 17351 205c 5F637572 		.ascii	"_currenthose\000"
 17351      72656E74 
 17351      686F7365 
 17351      00
 17352              	.LASF561:
 17353 2069 5F675F70 		.ascii	"_g_printerlayout\000"
 17353      72696E74 
 17353      65726C61 
 17353      796F7574 
 17353      00
 17354              	.LASF209:
 17355 207a 5F434F4E 		.ascii	"_CONTROL_WORDS_\000"
 17355      54524F4C 
 17355      5F574F52 
 17355      44535F00 
 17356              	.LASF560:
 17357 208a 5F675F72 		.ascii	"_g_rfautorun\000"
 17357      66617574 
 17357      6F72756E 
 17357      00
 17358              	.LASF198:
 17359 2097 5F434F4D 		.ascii	"_COMMA_AS_DECIMAL_SEPARATOR_\000"
 17359      4D415F41 
 17359      535F4445 
 17359      43494D41 
 17359      4C5F5345 
 17360              	.LASF280:
 17361 20b4 5F707265 		.ascii	"_presetdone\000"
 17361      73657464 
 17361      6F6E6500 
 17362              	.LASF536:
 17363 20c0 41637175 		.ascii	"AcquirePumpTransactionDataResponseResolver\000"
 17363      69726550 
 17363      756D7054 
 17363      72616E73 
 17363      61637469 
 17364              	.LASF107:
 17365 20eb 47657442 		.ascii	"GetByte\000"
 17365      79746500 
 17366              	.LASF370:
 17367 20f3 44697370 		.ascii	"DispenserLayoutInfo\000"
 17367      656E7365 
 17367      724C6179 
 17367      6F757449 
 17367      6E666F00 
 17368              	.LASF512:
 17369 2107 50756D70 		.ascii	"PumpCredit2DefaultPpuChange\000"
 17369      43726564 
 17369      69743244 
 17369      65666175 
 17369      6C745070 
 17370              	.LASF54:
 17371 2123 55415254 		.ascii	"UART_RF_TEST\000"
 17371      5F52465F 
 17371      54455354 
 17371      00
 17372              	.LASF416:
ARM GAS  C:\Users\RECEPC~1\AppData\Local\Temp\ccMZb0bC.s 			page 377


 17373 2130 52465F4D 		.ascii	"RF_MUX_CREDIT_SERIAL_AUTH_RESPONSE\000"
 17373      55585F43 
 17373      52454449 
 17373      545F5345 
 17373      5249414C 
 17374              	.LASF412:
 17375 2153 45455052 		.ascii	"EEPROM_DISPENSER_PUMP44_TRANSACTION_PAGE\000"
 17375      4F4D5F44 
 17375      49535045 
 17375      4E534552 
 17375      5F50554D 
 17376              	.LASF246:
 17377 217c 5F50554D 		.ascii	"_PUMP_FAIL_\000"
 17377      505F4641 
 17377      494C5F00 
 17378              	.LASF278:
 17379 2188 5F616371 		.ascii	"_acquiringstate\000"
 17379      75697269 
 17379      6E677374 
 17379      61746500 
 17380              	.LASF146:
 17381 2198 44495350 		.ascii	"DISPLAY_DESPACHANDO\000"
 17381      4C41595F 
 17381      44455350 
 17381      41434841 
 17381      4E444F00 
 17382              	.LASF222:
 17383 21ac 50554D50 		.ascii	"PUMP_SEND_DATA\000"
 17383      5F53454E 
 17383      445F4441 
 17383      544100
 17384              	.LASF251:
 17385 21bb 5F766172 		.ascii	"_var0\000"
 17385      3000
 17386              	.LASF252:
 17387 21c1 5F766172 		.ascii	"_var1\000"
 17387      3100
 17388              	.LASF253:
 17389 21c7 5F766172 		.ascii	"_var2\000"
 17389      3200
 17390              	.LASF174:
 17391 21cd 44495350 		.ascii	"DISPLAY_HORA\000"
 17391      4C41595F 
 17391      484F5241 
 17391      00
 17392              	.LASF78:
 17393 21da 5052494E 		.ascii	"PRINTER1_GENERIC_JOB\000"
 17393      54455231 
 17393      5F47454E 
 17393      45524943 
 17393      5F4A4F42 
 17394              	.LASF256:
 17395 21ef 5F766172 		.ascii	"_var5\000"
 17395      3500
 17396              	.LASF257:
 17397 21f5 5F766172 		.ascii	"_var6\000"
 17397      3600
ARM GAS  C:\Users\RECEPC~1\AppData\Local\Temp\ccMZb0bC.s 			page 378


 17398              	.LASF258:
 17399 21fb 5F766172 		.ascii	"_var7\000"
 17399      3700
 17400              	.LASF259:
 17401 2201 5F766172 		.ascii	"_var8\000"
 17401      3800
 17402              	.LASF260:
 17403 2207 5F766172 		.ascii	"_var9\000"
 17403      3900
 17404              	.LASF429:
 17405 220d 52465F4D 		.ascii	"RF_MUX_PRICE_CHANGE_REQUEST\000"
 17405      55585F50 
 17405      52494345 
 17405      5F434841 
 17405      4E47455F 
 17406              	.LASF230:
 17407 2229 5F50554D 		.ascii	"_PUMP_RESTORE_PRICE_\000"
 17407      505F5245 
 17407      53544F52 
 17407      455F5052 
 17407      4943455F 
 17408              	.LASF261:
 17409 223e 5F766172 		.ascii	"_varA\000"
 17409      4100
 17410              	.LASF262:
 17411 2244 5F766172 		.ascii	"_varB\000"
 17411      4200
 17412              	.LASF460:
 17413 224a 52465F43 		.ascii	"RF_COPY_RECEIPT\000"
 17413      4F50595F 
 17413      52454345 
 17413      49505400 
 17414              	.LASF161:
 17415 225a 44495350 		.ascii	"DISPLAY_INTRODUZCA_VOLUMEN\000"
 17415      4C41595F 
 17415      494E5452 
 17415      4F44555A 
 17415      43415F56 
 17416              	.LASF28:
 17417 2275 414C4C49 		.ascii	"ALLINTERESTED\000"
 17417      4E544552 
 17417      45535445 
 17417      4400
 17418              	.LASF179:
 17419 2283 44495350 		.ascii	"DISPLAY_CANCELADO_X_PC\000"
 17419      4C41595F 
 17419      43414E43 
 17419      454C4144 
 17419      4F5F585F 
 17420              	.LASF274:
 17421 229a 5F70756D 		.ascii	"_pumpindex\000"
 17421      70696E64 
 17421      657800
 17422              	.LASF309:
 17423 22a5 52657175 		.ascii	"Request\000"
 17423      65737400 
 17424              	.LASF478:
ARM GAS  C:\Users\RECEPC~1\AppData\Local\Temp\ccMZb0bC.s 			page 379


 17425 22ad 50726F63 		.ascii	"ProcessPumpTransactionData\000"
 17425      65737350 
 17425      756D7054 
 17425      72616E73 
 17425      61637469 
 17426              	.LASF281:
 17427 22c8 5F70756D 		.ascii	"_pumplocked\000"
 17427      706C6F63 
 17427      6B656400 
 17428              	.LASF39:
 17429 22d4 5F6D6573 		.ascii	"_messageid\000"
 17429      73616765 
 17429      696400
 17430              	.LASF225:
 17431 22df 5F50554D 		.ascii	"_PUMP_FILL_BY_MONEY_\000"
 17431      505F4649 
 17431      4C4C5F42 
 17431      595F4D4F 
 17431      4E45595F 
 17432              	.LASF120:
 17433 22f4 414C4C4F 		.ascii	"ALLOCATED\000"
 17433      43415445 
 17433      4400
 17434              	.LASF13:
 17435 22fe 75696E74 		.ascii	"uint8\000"
 17435      3800
 17436              	.LASF112:
 17437 2304 50757443 		.ascii	"PutChar\000"
 17437      68617200 
 17438              	.LASF87:
 17439 230c 44495350 		.ascii	"DISPLAY2_RECEPTION\000"
 17439      4C415932 
 17439      5F524543 
 17439      45505449 
 17439      4F4E00
 17440              	.LASF476:
 17441 231f 70706172 		.ascii	"pparam\000"
 17441      616D00
 17442              	.LASF456:
 17443 2326 52465F43 		.ascii	"RF_CREDITSALEAUTH\000"
 17443      52454449 
 17443      5453414C 
 17443      45415554 
 17443      4800
 17444              	.LASF203:
 17445 2338 50554D50 		.ascii	"PUMP_PUMP_STOP\000"
 17445      5F50554D 
 17445      505F5354 
 17445      4F5000
 17446              	.LASF2:
 17447 2347 73686F72 		.ascii	"short int\000"
 17447      7420696E 
 17447      7400
 17448              	.LASF185:
 17449 2351 44495350 		.ascii	"DISPLAY_PRECIO_POR_UNIDAD\000"
 17449      4C41595F 
 17449      50524543 
ARM GAS  C:\Users\RECEPC~1\AppData\Local\Temp\ccMZb0bC.s 			page 380


 17449      494F5F50 
 17449      4F525F55 
 17450              	.LASF295:
 17451 236b 50756D70 		.ascii	"PumpTransQueueLock\000"
 17451      5472616E 
 17451      73517565 
 17451      75654C6F 
 17451      636B00
 17452              	.LASF191:
 17453 237e 44495350 		.ascii	"DISPLAY_NULL\000"
 17453      4C41595F 
 17453      4E554C4C 
 17453      00
 17454              	.LASF300:
 17455 238b 50756D70 		.ascii	"PumpTransQueueAllocate\000"
 17455      5472616E 
 17455      73517565 
 17455      7565416C 
 17455      6C6F6361 
 17456              	.LASF70:
 17457 23a2 44495350 		.ascii	"DISPENSER_CONFIGURE_SINGLE_PRICE\000"
 17457      454E5345 
 17457      525F434F 
 17457      4E464947 
 17457      5552455F 
 17458              	.LASF443:
 17459 23c3 52465F4D 		.ascii	"RF_MUX_POSITION_CFG_REQUEST\000"
 17459      55585F50 
 17459      4F534954 
 17459      494F4E5F 
 17459      4346475F 
 17460              	.LASF83:
 17461 23df 44495350 		.ascii	"DISPLAY1_RECEPTION\000"
 17461      4C415931 
 17461      5F524543 
 17461      45505449 
 17461      4F4E00
 17462              	.LASF298:
 17463 23f2 50756D70 		.ascii	"PumpTransQueueEnqueue\000"
 17463      5472616E 
 17463      73517565 
 17463      7565456E 
 17463      71756575 
 17464              	.LASF471:
 17465 2408 5072696E 		.ascii	"PrinterLayout\000"
 17465      7465724C 
 17465      61796F75 
 17465      7400
 17466              	.LASF351:
 17467 2416 44657175 		.ascii	"Dequeue\000"
 17467      65756500 
 17468              	.LASF66:
 17469 241e 44495350 		.ascii	"DISPENSER_ENUMERATE_VISIBLE_PUMPS\000"
 17469      454E5345 
 17469      525F454E 
 17469      554D4552 
 17469      4154455F 
ARM GAS  C:\Users\RECEPC~1\AppData\Local\Temp\ccMZb0bC.s 			page 381


 17470              	.LASF104:
 17471 2440 52656164 		.ascii	"ReadRxData\000"
 17471      52784461 
 17471      746100
 17472              	.LASF553:
 17473 244b 5472616E 		.ascii	"TranslateSpecialFuncionDigit\000"
 17473      736C6174 
 17473      65537065 
 17473      6369616C 
 17473      46756E63 
 17474              	.LASF45:
 17475 2468 5F6D6573 		.ascii	"_messagetimeoutlimit\000"
 17475      73616765 
 17475      74696D65 
 17475      6F75746C 
 17475      696D6974 
 17476              	.LASF128:
 17477 247d 5F554152 		.ascii	"_UART_MANAGERS_AVAILABLE_\000"
 17477      545F4D41 
 17477      4E414745 
 17477      52535F41 
 17477      5641494C 
 17478              	.LASF564:
 17479 2497 474E5520 		.ascii	"GNU C 4.9.3 20150303 (release) [ARM/embedded-4_9-br"
 17479      4320342E 
 17479      392E3320 
 17479      32303135 
 17479      30333033 
 17480 24ca 616E6368 		.ascii	"anch revision 221220] -mcpu=cortex-m3 -mthumb -g -O"
 17480      20726576 
 17480      6973696F 
 17480      6E203232 
 17480      31323230 
 17481 24fd 30202D66 		.ascii	"0 -ffunction-sections -ffat-lto-objects\000"
 17481      66756E63 
 17481      74696F6E 
 17481      2D736563 
 17481      74696F6E 
 17482              	.LASF496:
 17483 2525 50756D70 		.ascii	"PumpRTMoneyRequest\000"
 17483      52544D6F 
 17483      6E657952 
 17483      65717565 
 17483      737400
 17484              	.LASF492:
 17485 2538 696E6465 		.ascii	"index\000"
 17485      7800
 17486              	.LASF160:
 17487 253e 44495350 		.ascii	"DISPLAY_INTRODUZCA_CEDULA\000"
 17487      4C41595F 
 17487      494E5452 
 17487      4F44555A 
 17487      43415F43 
 17488              	.LASF332:
 17489 2558 5F726570 		.ascii	"_repushretriescounter\000"
 17489      75736872 
 17489      65747269 
ARM GAS  C:\Users\RECEPC~1\AppData\Local\Temp\ccMZb0bC.s 			page 382


 17489      6573636F 
 17489      756E7465 
 17490              	.LASF539:
 17491 256e 706D7367 		.ascii	"pmsg\000"
 17491      00
 17492              	.LASF40:
 17493 2573 5F6D6573 		.ascii	"_messagetype\000"
 17493      73616765 
 17493      74797065 
 17493      00
 17494              	.LASF497:
 17495 2580 50756D70 		.ascii	"PumpTransactionDataRequest\000"
 17495      5472616E 
 17495      73616374 
 17495      696F6E44 
 17495      61746152 
 17496              	.LASF30:
 17497 259b 46495253 		.ascii	"FIRSTFOUNDFOREVER\000"
 17497      54464F55 
 17497      4E44464F 
 17497      52455645 
 17497      5200
 17498              	.LASF507:
 17499 25ad 50756D70 		.ascii	"PumpFullPresetHose\000"
 17499      46756C6C 
 17499      50726573 
 17499      6574486F 
 17499      736500
 17500              	.LASF485:
 17501 25c0 7472616E 		.ascii	"transtatefound\000"
 17501      73746174 
 17501      65666F75 
 17501      6E6400
 17502              	.LASF215:
 17503 25cf 50554D50 		.ascii	"PUMP_IDLE\000"
 17503      5F49444C 
 17503      4500
 17504              	.LASF391:
 17505 25d9 45455052 		.ascii	"EEPROM_DISPENSER_PUMP3_PPU_INFO_PAGE\000"
 17505      4F4D5F44 
 17505      49535045 
 17505      4E534552 
 17505      5F50554D 
 17506              	.LASF442:
 17507 25fe 52465F4D 		.ascii	"RF_MUX_BROADCAST_CFG_RESPONSE\000"
 17507      55585F42 
 17507      524F4144 
 17507      43415354 
 17507      5F434647 
 17508              	.LASF204:
 17509 261c 50554D50 		.ascii	"PUMP_TRANSACTION_DATA_REQUEST\000"
 17509      5F545241 
 17509      4E534143 
 17509      54494F4E 
 17509      5F444154 
 17510              	.LASF479:
 17511 263a 7374726D 		.ascii	"strmlrc\000"
ARM GAS  C:\Users\RECEPC~1\AppData\Local\Temp\ccMZb0bC.s 			page 383


 17511      6C726300 
 17512              	.LASF552:
 17513 2642 43617374 		.ascii	"CastMoneyValue\000"
 17513      4D6F6E65 
 17513      7956616C 
 17513      756500
 17514              	.LASF210:
 17515 2651 5055446E 		.ascii	"PUDn\000"
 17515      00
 17516              	.LASF302:
 17517 2656 50756D70 		.ascii	"PumpValidState\000"
 17517      56616C69 
 17517      64537461 
 17517      746500
 17518              	.LASF304:
 17519 2665 5F617574 		.ascii	"_authorizationinfo\000"
 17519      686F7269 
 17519      7A617469 
 17519      6F6E696E 
 17519      666F00
 17520              	.LASF237:
 17521 2678 5F50554D 		.ascii	"_PUMP_STOPALL_\000"
 17521      505F5354 
 17521      4F50414C 
 17521      4C5F00
 17522              	.LASF501:
 17523 2687 7472616E 		.ascii	"transtype\000"
 17523      73747970 
 17523      6500
 17524              	.LASF176:
 17525 2691 44495350 		.ascii	"DISPLAY_OPCION_TURNO\000"
 17525      4C41595F 
 17525      4F504349 
 17525      4F4E5F54 
 17525      55524E4F 
 17526              	.LASF333:
 17527 26a6 5F726570 		.ascii	"_repushtimeoutseed\000"
 17527      75736874 
 17527      696D656F 
 17527      75747365 
 17527      656400
 17528              	.LASF266:
 17529 26b9 5F686F73 		.ascii	"_hoseid\000"
 17529      65696400 
 17530              	.LASF554:
 17531 26c1 72656676 		.ascii	"refval\000"
 17531      616C00
 17532              	.LASF418:
 17533 26c8 52465F4D 		.ascii	"RF_MUX_CREDIT_PRESET_AUTHORIZATION_RESPONSE\000"
 17533      55585F43 
 17533      52454449 
 17533      545F5052 
 17533      45534554 
 17534              	.LASF41:
 17535 26f4 5F6D6573 		.ascii	"_messagestate\000"
 17535      73616765 
 17535      73746174 
ARM GAS  C:\Users\RECEPC~1\AppData\Local\Temp\ccMZb0bC.s 			page 384


 17535      6500
 17536              	.LASF316:
 17537 2702 5F726574 		.ascii	"_retryinsteadofrepush\000"
 17537      7279696E 
 17537      73746561 
 17537      646F6672 
 17537      65707573 
 17538              	.LASF227:
 17539 2718 5F50554D 		.ascii	"_PUMP_FILL_FULL_\000"
 17539      505F4649 
 17539      4C4C5F46 
 17539      554C4C5F 
 17539      00
 17540              	.LASF90:
 17541 2729 44495350 		.ascii	"DISPLAY2_ANIMATE_HOME\000"
 17541      4C415932 
 17541      5F414E49 
 17541      4D415445 
 17541      5F484F4D 
 17542              	.LASF195:
 17543 273f 4C505241 		.ascii	"LPRAWPTR\000"
 17543      57505452 
 17543      00
 17544              	.LASF233:
 17545 2748 5F50554D 		.ascii	"_PUMP_EOT_\000"
 17545      505F454F 
 17545      545F00
 17546              	.LASF82:
 17547 2753 44495350 		.ascii	"DISPLAY_UPDATE_PUMP_STATE\000"
 17547      4C41595F 
 17547      55504441 
 17547      54455F50 
 17547      554D505F 
 17548              	.LASF33:
 17549 276d 5F4D4553 		.ascii	"_MESSAGE_TYPE_\000"
 17549      53414745 
 17549      5F545950 
 17549      455F00
 17550              	.LASF69:
 17551 277c 44495350 		.ascii	"DISPENSER_RESTORE_PRICES\000"
 17551      454E5345 
 17551      525F5245 
 17551      53544F52 
 17551      455F5052 
 17552              	.LASF202:
 17553 2795 50554D50 		.ascii	"PUMP_DATA_TO_PUMP\000"
 17553      5F444154 
 17553      415F544F 
 17553      5F50554D 
 17553      5000
 17554              	.LASF422:
 17555 27a7 52465F4D 		.ascii	"RF_MUX_CASH_SALE_START_RESPONSE\000"
 17555      55585F43 
 17555      4153485F 
 17555      53414C45 
 17555      5F535441 
 17556              	.LASF313:
ARM GAS  C:\Users\RECEPC~1\AppData\Local\Temp\ccMZb0bC.s 			page 385


 17557 27c7 5F726573 		.ascii	"_responsetimeoutlimit\000"
 17557      706F6E73 
 17557      6574696D 
 17557      656F7574 
 17557      6C696D69 
 17558              	.LASF535:
 17559 27dd 41637175 		.ascii	"AcquirePumpTotalsResponseResolver\000"
 17559      69726550 
 17559      756D7054 
 17559      6F74616C 
 17559      73526573 
 17560              	.LASF285:
 17561 27ff 5F707269 		.ascii	"_print\000"
 17561      6E7400
 17562              	.LASF241:
 17563 2806 5F50554D 		.ascii	"_PUMP_BUSY_\000"
 17563      505F4255 
 17563      53595F00 
 17564              	.LASF383:
 17565 2812 45455052 		.ascii	"EEPROM_DISPENSER_PUMP3_LAYOUT_PAGE\000"
 17565      4F4D5F44 
 17565      49535045 
 17565      4E534552 
 17565      5F50554D 
 17566              	.LASF430:
 17567 2835 52465F4D 		.ascii	"RF_MUX_PRICE_CHANGE_RESPONSE\000"
 17567      55585F50 
 17567      52494345 
 17567      5F434841 
 17567      4E47455F 
 17568              	.LASF3:
 17569 2852 73686F72 		.ascii	"short unsigned int\000"
 17569      7420756E 
 17569      7369676E 
 17569      65642069 
 17569      6E7400
 17570              	.LASF518:
 17571 2865 74617267 		.ascii	"targetmemoryareafound\000"
 17571      65746D65 
 17571      6D6F7279 
 17571      61726561 
 17571      666F756E 
 17572              	.LASF297:
 17573 287b 50756D70 		.ascii	"PumpTransQueueFind\000"
 17573      5472616E 
 17573      73517565 
 17573      75654669 
 17573      6E6400
 17574              	.LASF125:
 17575 288e 4572726F 		.ascii	"ErrorHandler\000"
 17575      7248616E 
 17575      646C6572 
 17575      00
 17576              	.LASF467:
 17577 289b 5F74696D 		.ascii	"_timeouttoreceivemultiplier\000"
 17577      656F7574 
 17577      746F7265 
ARM GAS  C:\Users\RECEPC~1\AppData\Local\Temp\ccMZb0bC.s 			page 386


 17577      63656976 
 17577      656D756C 
 17578              	.LASF77:
 17579 28b7 5052494E 		.ascii	"PRINTER22_JOB\000"
 17579      54455232 
 17579      325F4A4F 
 17579      4200
 17580              	.LASF441:
 17581 28c5 52465F4D 		.ascii	"RF_MUX_BROADCAST_CFG_REQUEST\000"
 17581      55585F42 
 17581      524F4144 
 17581      43415354 
 17581      5F434647 
 17582              	.LASF488:
 17583 28e2 50756D70 		.ascii	"PumpJobTimeout\000"
 17583      4A6F6254 
 17583      696D656F 
 17583      757400
 17584              	.LASF213:
 17585 28f1 5F50554D 		.ascii	"_PUMP_STATES_\000"
 17585      505F5354 
 17585      41544553 
 17585      5F00
 17586              	.LASF5:
 17587 28ff 5F5F696E 		.ascii	"__int32_t\000"
 17587      7433325F 
 17587      7400
 17588              	.LASF450:
 17589 2909 52465F4D 		.ascii	"RF_MUX_COPY_REQUEST_RESPONSE\000"
 17589      55585F43 
 17589      4F50595F 
 17589      52455155 
 17589      4553545F 
 17590              	.LASF519:
 17591 2926 65657072 		.ascii	"eeprompumpconfigmemorypageid\000"
 17591      6F6D7075 
 17591      6D70636F 
 17591      6E666967 
 17591      6D656D6F 
 17592              	.LASF431:
 17593 2943 52465F4D 		.ascii	"RF_MUX_GENERAL_PRINT_REQUEST\000"
 17593      55585F47 
 17593      454E4552 
 17593      414C5F50 
 17593      52494E54 
 17594              	.LASF387:
 17595 2960 45455052 		.ascii	"EEPROM_DISPENSER_PUMP3_PRODUCT_NAMES_PAGE\000"
 17595      4F4D5F44 
 17595      49535045 
 17595      4E534552 
 17595      5F50554D 
 17596              	.LASF249:
 17597 298a 50756D70 		.ascii	"PumpTransactionalState\000"
 17597      5472616E 
 17597      73616374 
 17597      696F6E61 
 17597      6C537461 
ARM GAS  C:\Users\RECEPC~1\AppData\Local\Temp\ccMZb0bC.s 			page 387


 17598              	.LASF303:
 17599 29a1 5F646174 		.ascii	"_datacontainer\000"
 17599      61636F6E 
 17599      7461696E 
 17599      657200
 17600              	.LASF329:
 17601 29b0 5F726565 		.ascii	"_reenqueuecounter\000"
 17601      6E717565 
 17601      7565636F 
 17601      756E7465 
 17601      7200
 17602              	.LASF221:
 17603 29c2 50554D50 		.ascii	"PUMP_STOPPED\000"
 17603      5F53544F 
 17603      50504544 
 17603      00
 17604              	.LASF34:
 17605 29cf 5F4D4553 		.ascii	"_MESSAGE_STATE_\000"
 17605      53414745 
 17605      5F535441 
 17605      54455F00 
 17606              	.LASF35:
 17607 29df 53494E4B 		.ascii	"SINK_FREE\000"
 17607      5F465245 
 17607      4500
 17608              	.LASF25:
 17609 29e9 4E4F4E45 		.ascii	"NONE\000"
 17609      00
 17610              	.LASF489:
 17611 29ee 50756D70 		.ascii	"PumpStateJobTimeout\000"
 17611      53746174 
 17611      654A6F62 
 17611      54696D65 
 17611      6F757400 
 17612              	.LASF92:
 17613 2a02 49425554 		.ascii	"IBUTTON2_SCAN\000"
 17613      544F4E32 
 17613      5F534341 
 17613      4E00
 17614              	.LASF438:
 17615 2a10 52465F4D 		.ascii	"RF_MUX_PENDING_CREDIT_SALE_RESPONSE\000"
 17615      55585F50 
 17615      454E4449 
 17615      4E475F43 
 17615      52454449 
 17616              	.LASF367:
 17617 2a34 5F646973 		.ascii	"_displaydigitsmode\000"
 17617      706C6179 
 17617      64696769 
 17617      74736D6F 
 17617      646500
 17618              	.LASF14:
 17619 2a47 75696E74 		.ascii	"uint16\000"
 17619      313600
 17620              	.LASF445:
 17621 2a4e 52465F4D 		.ascii	"RF_MUX_ISLAND_OPER_DATA_REQUEST\000"
 17621      55585F49 
ARM GAS  C:\Users\RECEPC~1\AppData\Local\Temp\ccMZb0bC.s 			page 388


 17621      534C414E 
 17621      445F4F50 
 17621      45525F44 
 17622              	.LASF296:
 17623 2a6e 50756D70 		.ascii	"PumpTransQueueUnlock\000"
 17623      5472616E 
 17623      73517565 
 17623      7565556E 
 17623      6C6F636B 
 17624              	.LASF126:
 17625 2a83 5F707561 		.ascii	"_puartmanager\000"
 17625      72746D61 
 17625      6E616765 
 17625      7200
 17626              	.LASF432:
 17627 2a91 52465F4D 		.ascii	"RF_MUX_GENERAL_PRINT_RESPONSE\000"
 17627      55585F47 
 17627      454E4552 
 17627      414C5F50 
 17627      52494E54 
 17628              	.LASF468:
 17629 2aaf 52464175 		.ascii	"RFAutoRun\000"
 17629      746F5275 
 17629      6E00
 17630              	.LASF81:
 17631 2ab9 5052494E 		.ascii	"PRINTER2_GENERIC_JOB_LOGO\000"
 17631      54455232 
 17631      5F47454E 
 17631      45524943 
 17631      5F4A4F42 
 17632              	.LASF47:
 17633 2ad3 5F627566 		.ascii	"_buffersize\000"
 17633      66657273 
 17633      697A6500 
 17634              	.LASF402:
 17635 2adf 45455052 		.ascii	"EEPROM_DISPENSER_PUMP22_TRANSACTION_PAGE\000"
 17635      4F4D5F44 
 17635      49535045 
 17635      4E534552 
 17635      5F50554D 
 17636              	.LASF172:
 17637 2b08 44495350 		.ascii	"DISPLAY_AUTORIZACION_RECHAZADA\000"
 17637      4C41595F 
 17637      4155544F 
 17637      52495A41 
 17637      43494F4E 
 17638              	.LASF469:
 17639 2b27 5F707269 		.ascii	"_printerportside1\000"
 17639      6E746572 
 17639      706F7274 
 17639      73696465 
 17639      3100
 17640              		.ident	"GCC: (GNU Tools for ARM Embedded Processors) 4.9.3 20150303 (release) [ARM/embedded-4_9-br
