ARM GAS  C:\Users\RECEPC~1\AppData\Local\Temp\ccAtWeRe.s 			page 1


   1              		.syntax unified
   2              		.cpu cortex-m3
   3              		.fpu softvfp
   4              		.eabi_attribute 20, 1
   5              		.eabi_attribute 21, 1
   6              		.eabi_attribute 23, 3
   7              		.eabi_attribute 24, 1
   8              		.eabi_attribute 25, 1
   9              		.eabi_attribute 26, 1
  10              		.eabi_attribute 30, 6
  11              		.eabi_attribute 34, 1
  12              		.eabi_attribute 18, 4
  13              		.thumb
  14              		.file	"Encore.c"
  15              		.text
  16              	.Ltext0:
  17              		.cfi_sections	.debug_frame
  18              		.comm	_g_pumpjobqueue,2140,4
  19              		.comm	_g_pumps,12064,8
  20              		.comm	_g_dispenserlayoutinfo,20,4
  21              		.section	.text.InitProtocol,"ax",%progbits
  22              		.align	2
  23              		.global	InitProtocol
  24              		.thumb
  25              		.thumb_func
  26              		.type	InitProtocol, %function
  27              	InitProtocol:
  28              	.LFB63:
  29              		.file 1 ".\\Encore.c"
   1:.\Encore.c    **** /* ========================================
   2:.\Encore.c    ****  *
   3:.\Encore.c    ****  * Copyright INSEPET SISTEMAS, 2016
   4:.\Encore.c    ****  * All Rights Reserved
   5:.\Encore.c    ****  * UNPUBLISHED, LICENSED SOFTWARE.
   6:.\Encore.c    ****  *
   7:.\Encore.c    ****  * CONFIDENTIAL AND PROPRIETARY INFORMATION
   8:.\Encore.c    ****  * WHICH IS THE PROPERTY OF your company.
   9:.\Encore.c    ****  *
  10:.\Encore.c    ****  * ========================================
  11:.\Encore.c    **** @Created By: HIJH
  12:.\Encore.c    **** @Date: Novembre de 2016
  13:.\Encore.c    **** */
  14:.\Encore.c    **** #include <project.h>
  15:.\Encore.c    **** #include "GlobalDefinitions.h"
  16:.\Encore.c    **** #include "Dispenser.h"
  17:.\Encore.c    **** #include "RFLink.h"
  18:.\Encore.c    **** 
  19:.\Encore.c    **** #ifdef ENCORE_PROTOCOL
  20:.\Encore.c    ****     
  21:.\Encore.c    **** PumpJobQueue _g_pumpjobqueue;
  22:.\Encore.c    **** Pump _g_pumps[_MAX_NUMBER_OF_PUMPS_];
  23:.\Encore.c    **** //This structure holds the entire configuration information of the dispenser acquired through SFs
  24:.\Encore.c    **** DispenserLayoutInfo _g_dispenserlayoutinfo;
  25:.\Encore.c    **** 
  26:.\Encore.c    **** void PumpJobRotate(void *this);
  27:.\Encore.c    **** PumpTransactionJobContext *PumpJobAllocate(void *this); 
  28:.\Encore.c    **** void PumpJobEnqueue(void *this, PumpTransactionJobContext *pjob);
ARM GAS  C:\Users\RECEPC~1\AppData\Local\Temp\ccAtWeRe.s 			page 2


  29:.\Encore.c    **** PumpTransactionJobContext *PumpJobQueuePeek(void *this); 
  30:.\Encore.c    **** void PumpJobDequeue(void *this); 
  31:.\Encore.c    **** void PumpJobQueueClear(void *this);
  32:.\Encore.c    **** bool PumpIsInValidState(void *this);
  33:.\Encore.c    **** void PumpTransactionalStateEnqueue(LPVOID pvthis, PNEAR_PUMPTRANSACTIONALSTATEPTR pts);
  34:.\Encore.c    **** void PumpTransactionalStateDeallocate(LPVOID pvthis, PNEAR_PUMPTRANSACTIONALSTATEPTR pts);
  35:.\Encore.c    **** PNEAR_PUMPTRANSACTIONALSTATEPTR PumpTransactionalStateAllocate(LPVOID pvthis);
  36:.\Encore.c    **** PNEAR_PUMPTRANSACTIONALSTATEPTR PumpTransactionalStateDequeue(LPVOID pvthis);
  37:.\Encore.c    **** void PumpTransactionalStateLock(LPVOID pvthis);
  38:.\Encore.c    **** void PumpTransactionalStateUnlock(LPVOID pvthis);
  39:.\Encore.c    **** bool PumpTransactionalStateFind(LPVOID pvthis, uint8 transtate);
  40:.\Encore.c    **** void PumpCleanUp(LPVOID pparam);
  41:.\Encore.c    **** 
  42:.\Encore.c    **** //@Created By: HIJH
  43:.\Encore.c    **** //@Septembre de 2016
  44:.\Encore.c    **** void InitProtocol()
  45:.\Encore.c    **** {
  30              		.loc 1 45 0
  31              		.cfi_startproc
  32              		@ args = 0, pretend = 0, frame = 8
  33              		@ frame_needed = 1, uses_anonymous_args = 0
  34 0000 80B5     		push	{r7, lr}
  35              		.cfi_def_cfa_offset 8
  36              		.cfi_offset 7, -8
  37              		.cfi_offset 14, -4
  38 0002 82B0     		sub	sp, sp, #8
  39              		.cfi_def_cfa_offset 16
  40 0004 00AF     		add	r7, sp, #0
  41              		.cfi_def_cfa_register 7
  46:.\Encore.c    ****     _g_dispenserlayoutinfo._inconfiguration = true;
  42              		.loc 1 46 0
  43 0006 B74B     		ldr	r3, .L8
  44 0008 0122     		movs	r2, #1
  45 000a 1A70     		strb	r2, [r3]
  47:.\Encore.c    ****     _g_dispenserlayoutinfo._currentloopopen = false;
  46              		.loc 1 47 0
  47 000c B54B     		ldr	r3, .L8
  48 000e 0022     		movs	r2, #0
  49 0010 5A70     		strb	r2, [r3, #1]
  48:.\Encore.c    ****     
  49:.\Encore.c    ****     FOR(uint8 index = 0, index < _MAX_NUMBER_OF_PUMPS_, index++)
  50              		.loc 1 49 0
  51 0012 0023     		movs	r3, #0
  52 0014 FB71     		strb	r3, [r7, #7]
  53 0016 40E1     		b	.L2
  54              	.L7:
  55              	.LBB2:
  50:.\Encore.c    ****     {
  51:.\Encore.c    ****         _g_pumps[index]._pumpid = 0x00;
  56              		.loc 1 51 0
  57 0018 FB79     		ldrb	r3, [r7, #7]	@ zero_extendqisi2
  58 001a B34A     		ldr	r2, .L8+4
  59 001c 40F6C831 		movw	r1, #3016
  60 0020 01FB03F3 		mul	r3, r1, r3
  61 0024 1344     		add	r3, r3, r2
  62 0026 0022     		movs	r2, #0
  63 0028 1A70     		strb	r2, [r3]
ARM GAS  C:\Users\RECEPC~1\AppData\Local\Temp\ccAtWeRe.s 			page 3


  52:.\Encore.c    ****         _g_pumps[index]._pumpindex = index;
  64              		.loc 1 52 0
  65 002a FB79     		ldrb	r3, [r7, #7]	@ zero_extendqisi2
  66 002c AE4A     		ldr	r2, .L8+4
  67 002e 40F6C831 		movw	r1, #3016
  68 0032 01FB03F3 		mul	r3, r1, r3
  69 0036 1344     		add	r3, r3, r2
  70 0038 FA79     		ldrb	r2, [r7, #7]
  71 003a 5A70     		strb	r2, [r3, #1]
  53:.\Encore.c    ****         _g_pumps[index]._pumpstate = PUMP_IDLE;
  72              		.loc 1 53 0
  73 003c FB79     		ldrb	r3, [r7, #7]	@ zero_extendqisi2
  74 003e AA4A     		ldr	r2, .L8+4
  75 0040 40F6C831 		movw	r1, #3016
  76 0044 01FB03F3 		mul	r3, r1, r3
  77 0048 1344     		add	r3, r3, r2
  78 004a 0622     		movs	r2, #6
  79 004c 9A70     		strb	r2, [r3, #2]
  54:.\Encore.c    ****         _g_pumps[index]._currenthose = HOSEUNKNOWN;
  80              		.loc 1 54 0
  81 004e FB79     		ldrb	r3, [r7, #7]	@ zero_extendqisi2
  82 0050 A54A     		ldr	r2, .L8+4
  83 0052 40F6C831 		movw	r1, #3016
  84 0056 01FB03F3 		mul	r3, r1, r3
  85 005a 1344     		add	r3, r3, r2
  86 005c FF22     		movs	r2, #255
  87 005e DA70     		strb	r2, [r3, #3]
  55:.\Encore.c    ****         _g_pumps[index]._transhealth = _PUMP_OK_;
  88              		.loc 1 55 0
  89 0060 FB79     		ldrb	r3, [r7, #7]	@ zero_extendqisi2
  90 0062 A14A     		ldr	r2, .L8+4
  91 0064 40F6C831 		movw	r1, #3016
  92 0068 01FB03F3 		mul	r3, r1, r3
  93 006c 1344     		add	r3, r3, r2
  94 006e 1833     		adds	r3, r3, #24
  95 0070 0122     		movs	r2, #1
  96 0072 1A70     		strb	r2, [r3]
  56:.\Encore.c    ****         _g_pumps[index]._transtate = _PUMP_IDLE_;
  97              		.loc 1 56 0
  98 0074 FB79     		ldrb	r3, [r7, #7]	@ zero_extendqisi2
  99 0076 9C4A     		ldr	r2, .L8+4
 100 0078 40F6C831 		movw	r1, #3016
 101 007c 01FB03F3 		mul	r3, r1, r3
 102 0080 1344     		add	r3, r3, r2
 103 0082 1833     		adds	r3, r3, #24
 104 0084 0222     		movs	r2, #2
 105 0086 5A70     		strb	r2, [r3, #1]
  57:.\Encore.c    ****         _g_pumps[index]._pumprftransstate = RF_IDLE;
 106              		.loc 1 57 0
 107 0088 FB79     		ldrb	r3, [r7, #7]	@ zero_extendqisi2
 108 008a 974A     		ldr	r2, .L8+4
 109 008c 40F6C831 		movw	r1, #3016
 110 0090 01FB03F3 		mul	r3, r1, r3
 111 0094 1344     		add	r3, r3, r2
 112 0096 0833     		adds	r3, r3, #8
 113 0098 0822     		movs	r2, #8
 114 009a 1A71     		strb	r2, [r3, #4]
ARM GAS  C:\Users\RECEPC~1\AppData\Local\Temp\ccAtWeRe.s 			page 4


  58:.\Encore.c    ****         _g_pumps[index]._pumplocked = false;
 115              		.loc 1 58 0
 116 009c FB79     		ldrb	r3, [r7, #7]	@ zero_extendqisi2
 117 009e 924A     		ldr	r2, .L8+4
 118 00a0 40F6C831 		movw	r1, #3016
 119 00a4 01FB03F3 		mul	r3, r1, r3
 120 00a8 1344     		add	r3, r3, r2
 121 00aa 0833     		adds	r3, r3, #8
 122 00ac 0022     		movs	r2, #0
 123 00ae 5A70     		strb	r2, [r3, #1]
  59:.\Encore.c    ****         _g_pumps[index]._restoreprice = false;
 124              		.loc 1 59 0
 125 00b0 FB79     		ldrb	r3, [r7, #7]	@ zero_extendqisi2
 126 00b2 8D4A     		ldr	r2, .L8+4
 127 00b4 40F6C831 		movw	r1, #3016
 128 00b8 01FB03F3 		mul	r3, r1, r3
 129 00bc 1344     		add	r3, r3, r2
 130 00be 0022     		movs	r2, #0
 131 00c0 DA71     		strb	r2, [r3, #7]
  60:.\Encore.c    ****         _g_pumps[index]._print = false;
 132              		.loc 1 60 0
 133 00c2 FB79     		ldrb	r3, [r7, #7]	@ zero_extendqisi2
 134 00c4 884A     		ldr	r2, .L8+4
 135 00c6 40F6C831 		movw	r1, #3016
 136 00ca 01FB03F3 		mul	r3, r1, r3
 137 00ce 1344     		add	r3, r3, r2
 138 00d0 0833     		adds	r3, r3, #8
 139 00d2 0022     		movs	r2, #0
 140 00d4 5A71     		strb	r2, [r3, #5]
  61:.\Encore.c    ****         _g_pumps[index]._acquiringstate = false;
 141              		.loc 1 61 0
 142 00d6 FB79     		ldrb	r3, [r7, #7]	@ zero_extendqisi2
 143 00d8 834A     		ldr	r2, .L8+4
 144 00da 40F6C831 		movw	r1, #3016
 145 00de 01FB03F3 		mul	r3, r1, r3
 146 00e2 1344     		add	r3, r3, r2
 147 00e4 0022     		movs	r2, #0
 148 00e6 5A71     		strb	r2, [r3, #5]
  62:.\Encore.c    ****         if(index == 0)
 149              		.loc 1 62 0
 150 00e8 FB79     		ldrb	r3, [r7, #7]	@ zero_extendqisi2
 151 00ea 002B     		cmp	r3, #0
 152 00ec 0AD1     		bne	.L3
  63:.\Encore.c    ****             _g_pumps[index]._roundrobinstate = _PUMP_RR_ACTIVE_;
 153              		.loc 1 63 0
 154 00ee FB79     		ldrb	r3, [r7, #7]	@ zero_extendqisi2
 155 00f0 7D4A     		ldr	r2, .L8+4
 156 00f2 40F6C831 		movw	r1, #3016
 157 00f6 01FB03F3 		mul	r3, r1, r3
 158 00fa 1344     		add	r3, r3, r2
 159 00fc 0833     		adds	r3, r3, #8
 160 00fe 0122     		movs	r2, #1
 161 0100 9A70     		strb	r2, [r3, #2]
 162 0102 09E0     		b	.L4
 163              	.L3:
  64:.\Encore.c    ****         else
  65:.\Encore.c    ****             _g_pumps[index]._roundrobinstate = _PUMP_RR_INACTIVE_;
ARM GAS  C:\Users\RECEPC~1\AppData\Local\Temp\ccAtWeRe.s 			page 5


 164              		.loc 1 65 0
 165 0104 FB79     		ldrb	r3, [r7, #7]	@ zero_extendqisi2
 166 0106 784A     		ldr	r2, .L8+4
 167 0108 40F6C831 		movw	r1, #3016
 168 010c 01FB03F3 		mul	r3, r1, r3
 169 0110 1344     		add	r3, r3, r2
 170 0112 0833     		adds	r3, r3, #8
 171 0114 0222     		movs	r2, #2
 172 0116 9A70     		strb	r2, [r3, #2]
 173              	.L4:
  66:.\Encore.c    ****         
  67:.\Encore.c    ****         FOR(uint8 transindex = 0, transindex < _PUMP_MAX_QUEUE_TRANSTATES_, transindex++)
 174              		.loc 1 67 0
 175 0118 0023     		movs	r3, #0
 176 011a BB71     		strb	r3, [r7, #6]
 177 011c 51E0     		b	.L5
 178              	.L6:
  68:.\Encore.c    ****         {
  69:.\Encore.c    ****             _g_pumps[index]._transqueue[transindex]._state = _PUMP_TRANSTATE_FREE_;
 179              		.loc 1 69 0 discriminator 3
 180 011e F979     		ldrb	r1, [r7, #7]	@ zero_extendqisi2
 181 0120 BA79     		ldrb	r2, [r7, #6]	@ zero_extendqisi2
 182 0122 7148     		ldr	r0, .L8+4
 183 0124 1346     		mov	r3, r2
 184 0126 9B01     		lsls	r3, r3, #6
 185 0128 1344     		add	r3, r3, r2
 186 012a 9B00     		lsls	r3, r3, #2
 187 012c 40F6C832 		movw	r2, #3016
 188 0130 02FB01F2 		mul	r2, r2, r1
 189 0134 1344     		add	r3, r3, r2
 190 0136 0344     		add	r3, r3, r0
 191 0138 03F54873 		add	r3, r3, #800
 192 013c 0022     		movs	r2, #0
 193 013e 9A70     		strb	r2, [r3, #2]
  70:.\Encore.c    ****             _g_pumps[index]._transqueue[transindex]._transtate = _PUMP_POSITION_IDLE_;
 194              		.loc 1 70 0 discriminator 3
 195 0140 F979     		ldrb	r1, [r7, #7]	@ zero_extendqisi2
 196 0142 BA79     		ldrb	r2, [r7, #6]	@ zero_extendqisi2
 197 0144 6848     		ldr	r0, .L8+4
 198 0146 1346     		mov	r3, r2
 199 0148 9B01     		lsls	r3, r3, #6
 200 014a 1344     		add	r3, r3, r2
 201 014c 9B00     		lsls	r3, r3, #2
 202 014e 40F6C832 		movw	r2, #3016
 203 0152 02FB01F2 		mul	r2, r2, r1
 204 0156 1344     		add	r3, r3, r2
 205 0158 0344     		add	r3, r3, r0
 206 015a 03F54873 		add	r3, r3, #800
 207 015e 0822     		movs	r2, #8
 208 0160 DA70     		strb	r2, [r3, #3]
  71:.\Encore.c    ****             _g_pumps[index]._transqueue[transindex]._buffersize = 0;
 209              		.loc 1 71 0 discriminator 3
 210 0162 F979     		ldrb	r1, [r7, #7]	@ zero_extendqisi2
 211 0164 BA79     		ldrb	r2, [r7, #6]	@ zero_extendqisi2
 212 0166 6048     		ldr	r0, .L8+4
 213 0168 1346     		mov	r3, r2
 214 016a 9B01     		lsls	r3, r3, #6
ARM GAS  C:\Users\RECEPC~1\AppData\Local\Temp\ccAtWeRe.s 			page 6


 215 016c 1344     		add	r3, r3, r2
 216 016e 9B00     		lsls	r3, r3, #2
 217 0170 40F6C832 		movw	r2, #3016
 218 0174 02FB01F2 		mul	r2, r2, r1
 219 0178 1344     		add	r3, r3, r2
 220 017a 0344     		add	r3, r3, r0
 221 017c 03F58463 		add	r3, r3, #1056
 222 0180 0022     		movs	r2, #0
 223 0182 9A80     		strh	r2, [r3, #4]	@ movhi
  72:.\Encore.c    ****             _g_pumps[index]._transqueue[transindex]._transtate = 0x00;
 224              		.loc 1 72 0 discriminator 3
 225 0184 F979     		ldrb	r1, [r7, #7]	@ zero_extendqisi2
 226 0186 BA79     		ldrb	r2, [r7, #6]	@ zero_extendqisi2
 227 0188 5748     		ldr	r0, .L8+4
 228 018a 1346     		mov	r3, r2
 229 018c 9B01     		lsls	r3, r3, #6
 230 018e 1344     		add	r3, r3, r2
 231 0190 9B00     		lsls	r3, r3, #2
 232 0192 40F6C832 		movw	r2, #3016
 233 0196 02FB01F2 		mul	r2, r2, r1
 234 019a 1344     		add	r3, r3, r2
 235 019c 0344     		add	r3, r3, r0
 236 019e 03F54873 		add	r3, r3, #800
 237 01a2 0022     		movs	r2, #0
 238 01a4 DA70     		strb	r2, [r3, #3]
  73:.\Encore.c    ****             _g_pumps[index].CleanUp = PumpCleanUp;
 239              		.loc 1 73 0 discriminator 3
 240 01a6 FB79     		ldrb	r3, [r7, #7]	@ zero_extendqisi2
 241 01a8 4F4A     		ldr	r2, .L8+4
 242 01aa 40F6C831 		movw	r1, #3016
 243 01ae 01FB03F3 		mul	r3, r1, r3
 244 01b2 1344     		add	r3, r3, r2
 245 01b4 03F53C63 		add	r3, r3, #3008
 246 01b8 4C4A     		ldr	r2, .L8+8
 247 01ba 1A60     		str	r2, [r3]
  67:.\Encore.c    ****         {
 248              		.loc 1 67 0 discriminator 3
 249 01bc BB79     		ldrb	r3, [r7, #6]	@ zero_extendqisi2
 250 01be 0133     		adds	r3, r3, #1
 251 01c0 BB71     		strb	r3, [r7, #6]
 252              	.L5:
  67:.\Encore.c    ****         {
 253              		.loc 1 67 0 is_stmt 0 discriminator 1
 254 01c2 BB79     		ldrb	r3, [r7, #6]	@ zero_extendqisi2
 255 01c4 072B     		cmp	r3, #7
 256 01c6 AAD9     		bls	.L6
  74:.\Encore.c    ****         }
  75:.\Encore.c    ****         
  76:.\Encore.c    ****         memset(&_g_pumps[index]._authorizationinfo, 0x00, sizeof(PumpAuthorizationInfo));
 257              		.loc 1 76 0 is_stmt 1 discriminator 2
 258 01c8 FB79     		ldrb	r3, [r7, #7]	@ zero_extendqisi2
 259 01ca 40F6C832 		movw	r2, #3016
 260 01ce 02FB03F3 		mul	r3, r2, r3
 261 01d2 03F6A833 		addw	r3, r3, #2984
 262 01d6 444A     		ldr	r2, .L8+4
 263 01d8 1344     		add	r3, r3, r2
 264 01da 1846     		mov	r0, r3
ARM GAS  C:\Users\RECEPC~1\AppData\Local\Temp\ccAtWeRe.s 			page 7


 265 01dc 0021     		movs	r1, #0
 266 01de 1822     		movs	r2, #24
 267 01e0 FFF7FEFF 		bl	memset
  77:.\Encore.c    **** 
  78:.\Encore.c    ****         _g_pumps[index].PumpTransQueueLock = PumpTransactionalStateLock;
 268              		.loc 1 78 0 discriminator 2
 269 01e4 FB79     		ldrb	r3, [r7, #7]	@ zero_extendqisi2
 270 01e6 404A     		ldr	r2, .L8+4
 271 01e8 40F6C831 		movw	r1, #3016
 272 01ec 01FB03F3 		mul	r3, r1, r3
 273 01f0 1344     		add	r3, r3, r2
 274 01f2 03F53463 		add	r3, r3, #2880
 275 01f6 3E4A     		ldr	r2, .L8+12
 276 01f8 5A60     		str	r2, [r3, #4]
  79:.\Encore.c    ****         _g_pumps[index].PumpTransQueueUnlock = PumpTransactionalStateUnlock;
 277              		.loc 1 79 0 discriminator 2
 278 01fa FB79     		ldrb	r3, [r7, #7]	@ zero_extendqisi2
 279 01fc 3A4A     		ldr	r2, .L8+4
 280 01fe 40F6C831 		movw	r1, #3016
 281 0202 01FB03F3 		mul	r3, r1, r3
 282 0206 1344     		add	r3, r3, r2
 283 0208 03F64833 		addw	r3, r3, #2888
 284 020c 394A     		ldr	r2, .L8+16
 285 020e 1A60     		str	r2, [r3]
  80:.\Encore.c    ****         
  81:.\Encore.c    ****         _g_pumps[index].PumpTransQueueFind = PumpTransactionalStateFind;
 286              		.loc 1 81 0 discriminator 2
 287 0210 FB79     		ldrb	r3, [r7, #7]	@ zero_extendqisi2
 288 0212 354A     		ldr	r2, .L8+4
 289 0214 40F6C831 		movw	r1, #3016
 290 0218 01FB03F3 		mul	r3, r1, r3
 291 021c 1344     		add	r3, r3, r2
 292 021e 03F64833 		addw	r3, r3, #2888
 293 0222 354A     		ldr	r2, .L8+20
 294 0224 5A60     		str	r2, [r3, #4]
  82:.\Encore.c    ****         _g_pumps[index].PumpTransQueueEnqueue = PumpTransactionalStateEnqueue;
 295              		.loc 1 82 0 discriminator 2
 296 0226 FB79     		ldrb	r3, [r7, #7]	@ zero_extendqisi2
 297 0228 2F4A     		ldr	r2, .L8+4
 298 022a 40F6C831 		movw	r1, #3016
 299 022e 01FB03F3 		mul	r3, r1, r3
 300 0232 1344     		add	r3, r3, r2
 301 0234 03F53563 		add	r3, r3, #2896
 302 0238 304A     		ldr	r2, .L8+24
 303 023a 1A60     		str	r2, [r3]
  83:.\Encore.c    ****         _g_pumps[index].PumpTransQueueDequeue = PumpTransactionalStateDequeue;
 304              		.loc 1 83 0 discriminator 2
 305 023c FB79     		ldrb	r3, [r7, #7]	@ zero_extendqisi2
 306 023e 2A4A     		ldr	r2, .L8+4
 307 0240 40F6C831 		movw	r1, #3016
 308 0244 01FB03F3 		mul	r3, r1, r3
 309 0248 1344     		add	r3, r3, r2
 310 024a 03F65833 		addw	r3, r3, #2904
 311 024e 2C4A     		ldr	r2, .L8+28
 312 0250 5A60     		str	r2, [r3, #4]
  84:.\Encore.c    ****         _g_pumps[index].PumpTransQueueAllocate = PumpTransactionalStateAllocate;
 313              		.loc 1 84 0 discriminator 2
ARM GAS  C:\Users\RECEPC~1\AppData\Local\Temp\ccAtWeRe.s 			page 8


 314 0252 FB79     		ldrb	r3, [r7, #7]	@ zero_extendqisi2
 315 0254 244A     		ldr	r2, .L8+4
 316 0256 40F6C831 		movw	r1, #3016
 317 025a 01FB03F3 		mul	r3, r1, r3
 318 025e 1344     		add	r3, r3, r2
 319 0260 03F65833 		addw	r3, r3, #2904
 320 0264 274A     		ldr	r2, .L8+32
 321 0266 1A60     		str	r2, [r3]
  85:.\Encore.c    ****         _g_pumps[index].PumpTransQueueDeallocate = PumpTransactionalStateDeallocate;
 322              		.loc 1 85 0 discriminator 2
 323 0268 FB79     		ldrb	r3, [r7, #7]	@ zero_extendqisi2
 324 026a 1F4A     		ldr	r2, .L8+4
 325 026c 40F6C831 		movw	r1, #3016
 326 0270 01FB03F3 		mul	r3, r1, r3
 327 0274 1344     		add	r3, r3, r2
 328 0276 03F53563 		add	r3, r3, #2896
 329 027a 234A     		ldr	r2, .L8+36
 330 027c 5A60     		str	r2, [r3, #4]
  86:.\Encore.c    **** 
  87:.\Encore.c    ****         _g_pumps[index].PumpValidState = PumpIsInValidState;
 331              		.loc 1 87 0 discriminator 2
 332 027e FB79     		ldrb	r3, [r7, #7]	@ zero_extendqisi2
 333 0280 194A     		ldr	r2, .L8+4
 334 0282 40F6C831 		movw	r1, #3016
 335 0286 01FB03F3 		mul	r3, r1, r3
 336 028a 1344     		add	r3, r3, r2
 337 028c 03F53663 		add	r3, r3, #2912
 338 0290 1E4A     		ldr	r2, .L8+40
 339 0292 1A60     		str	r2, [r3]
 340              	.LBE2:
  49:.\Encore.c    ****     {
 341              		.loc 1 49 0 discriminator 2
 342 0294 FB79     		ldrb	r3, [r7, #7]	@ zero_extendqisi2
 343 0296 0133     		adds	r3, r3, #1
 344 0298 FB71     		strb	r3, [r7, #7]
 345              	.L2:
  49:.\Encore.c    ****     {
 346              		.loc 1 49 0 is_stmt 0 discriminator 1
 347 029a FB79     		ldrb	r3, [r7, #7]	@ zero_extendqisi2
 348 029c 032B     		cmp	r3, #3
 349 029e 7FF6BBAE 		bls	.L7
  88:.\Encore.c    ****     }
  89:.\Encore.c    **** 
  90:.\Encore.c    ****     _g_pumpjobqueue.Clear = PumpJobQueueClear;
 350              		.loc 1 90 0 is_stmt 1
 351 02a2 1B4B     		ldr	r3, .L8+44
 352 02a4 1B4A     		ldr	r2, .L8+48
 353 02a6 C3F85828 		str	r2, [r3, #2136]
  91:.\Encore.c    ****     _g_pumpjobqueue.Allocate = PumpJobAllocate;
 354              		.loc 1 91 0
 355 02aa 194B     		ldr	r3, .L8+44
 356 02ac 1A4A     		ldr	r2, .L8+52
 357 02ae C3F84828 		str	r2, [r3, #2120]
  92:.\Encore.c    ****     _g_pumpjobqueue.Enqueue = PumpJobEnqueue;
 358              		.loc 1 92 0
 359 02b2 174B     		ldr	r3, .L8+44
 360 02b4 194A     		ldr	r2, .L8+56
ARM GAS  C:\Users\RECEPC~1\AppData\Local\Temp\ccAtWeRe.s 			page 9


 361 02b6 C3F84C28 		str	r2, [r3, #2124]
  93:.\Encore.c    ****     _g_pumpjobqueue.Peek = PumpJobQueuePeek;
 362              		.loc 1 93 0
 363 02ba 154B     		ldr	r3, .L8+44
 364 02bc 184A     		ldr	r2, .L8+60
 365 02be C3F85028 		str	r2, [r3, #2128]
  94:.\Encore.c    ****     _g_pumpjobqueue.Dequeue = PumpJobDequeue;
 366              		.loc 1 94 0
 367 02c2 134B     		ldr	r3, .L8+44
 368 02c4 174A     		ldr	r2, .L8+64
 369 02c6 C3F85428 		str	r2, [r3, #2132]
  95:.\Encore.c    ****     _g_pumpjobqueue.Rotate = PumpJobRotate;
 370              		.loc 1 95 0
 371 02ca 114B     		ldr	r3, .L8+44
 372 02cc 164A     		ldr	r2, .L8+68
 373 02ce C3F84428 		str	r2, [r3, #2116]
  96:.\Encore.c    ****     
  97:.\Encore.c    ****     _g_pumpjobqueue.Clear(&_g_pumpjobqueue);
 374              		.loc 1 97 0
 375 02d2 0F4B     		ldr	r3, .L8+44
 376 02d4 D3F85838 		ldr	r3, [r3, #2136]
 377 02d8 0D48     		ldr	r0, .L8+44
 378 02da 9847     		blx	r3
  98:.\Encore.c    ****     
  99:.\Encore.c    **** }
 379              		.loc 1 99 0
 380 02dc 0837     		adds	r7, r7, #8
 381              		.cfi_def_cfa_offset 8
 382 02de BD46     		mov	sp, r7
 383              		.cfi_def_cfa_register 13
 384              		@ sp needed
 385 02e0 80BD     		pop	{r7, pc}
 386              	.L9:
 387 02e2 00BF     		.align	2
 388              	.L8:
 389 02e4 00000000 		.word	_g_dispenserlayoutinfo
 390 02e8 00000000 		.word	_g_pumps
 391 02ec 00000000 		.word	PumpCleanUp
 392 02f0 00000000 		.word	PumpTransactionalStateLock
 393 02f4 00000000 		.word	PumpTransactionalStateUnlock
 394 02f8 00000000 		.word	PumpTransactionalStateFind
 395 02fc 00000000 		.word	PumpTransactionalStateEnqueue
 396 0300 00000000 		.word	PumpTransactionalStateDequeue
 397 0304 00000000 		.word	PumpTransactionalStateAllocate
 398 0308 00000000 		.word	PumpTransactionalStateDeallocate
 399 030c 00000000 		.word	PumpIsInValidState
 400 0310 00000000 		.word	_g_pumpjobqueue
 401 0314 00000000 		.word	PumpJobQueueClear
 402 0318 00000000 		.word	PumpJobAllocate
 403 031c 00000000 		.word	PumpJobEnqueue
 404 0320 00000000 		.word	PumpJobQueuePeek
 405 0324 00000000 		.word	PumpJobDequeue
 406 0328 00000000 		.word	PumpJobRotate
 407              		.cfi_endproc
 408              	.LFE63:
 409              		.size	InitProtocol, .-InitProtocol
 410              		.section	.text.PumpIsInValidState,"ax",%progbits
ARM GAS  C:\Users\RECEPC~1\AppData\Local\Temp\ccAtWeRe.s 			page 10


 411              		.align	2
 412              		.global	PumpIsInValidState
 413              		.thumb
 414              		.thumb_func
 415              		.type	PumpIsInValidState, %function
 416              	PumpIsInValidState:
 417              	.LFB64:
 100:.\Encore.c    **** 
 101:.\Encore.c    **** //@Created By: HIJH
 102:.\Encore.c    **** //@Septembre de 2016
 103:.\Encore.c    **** bool PumpIsInValidState(void *this)
 104:.\Encore.c    **** {
 418              		.loc 1 104 0
 419              		.cfi_startproc
 420              		@ args = 0, pretend = 0, frame = 16
 421              		@ frame_needed = 1, uses_anonymous_args = 0
 422              		@ link register save eliminated.
 423 0000 80B4     		push	{r7}
 424              		.cfi_def_cfa_offset 4
 425              		.cfi_offset 7, -4
 426 0002 85B0     		sub	sp, sp, #20
 427              		.cfi_def_cfa_offset 24
 428 0004 00AF     		add	r7, sp, #0
 429              		.cfi_def_cfa_register 7
 430 0006 7860     		str	r0, [r7, #4]
 105:.\Encore.c    ****     bool retval = false;
 431              		.loc 1 105 0
 432 0008 0023     		movs	r3, #0
 433 000a FB73     		strb	r3, [r7, #15]
 106:.\Encore.c    ****     PNEAR_PUMPPTR pthis = (PNEAR_PUMPPTR)this;
 434              		.loc 1 106 0
 435 000c 7B68     		ldr	r3, [r7, #4]
 436 000e BB60     		str	r3, [r7, #8]
 107:.\Encore.c    ****     switch(pthis->_pumpstate)
 437              		.loc 1 107 0
 438 0010 BB68     		ldr	r3, [r7, #8]
 439 0012 9B78     		ldrb	r3, [r3, #2]
 440 0014 DBB2     		uxtb	r3, r3
 441 0016 002B     		cmp	r3, #0
 442 0018 04D0     		beq	.L12
 443 001a 002B     		cmp	r3, #0
 444 001c 05DB     		blt	.L11
 445 001e 063B     		subs	r3, r3, #6
 446 0020 062B     		cmp	r3, #6
 447 0022 02D8     		bhi	.L11
 448              	.L12:
 108:.\Encore.c    ****     {
 109:.\Encore.c    ****         case PUMP_IDLE:
 110:.\Encore.c    ****         case PUMP_CALLING:
 111:.\Encore.c    ****         case PUMP_AUTHORIZED:
 112:.\Encore.c    ****         case PUMP_BUSY:
 113:.\Encore.c    ****         case PUMP_PEOT:
 114:.\Encore.c    ****         case PUMP_FEOT:
 115:.\Encore.c    ****         case PUMP_STOPPED:
 116:.\Encore.c    ****         case PUMP_FAIL:
 117:.\Encore.c    ****             retval = true;
 449              		.loc 1 117 0
ARM GAS  C:\Users\RECEPC~1\AppData\Local\Temp\ccAtWeRe.s 			page 11


 450 0024 0123     		movs	r3, #1
 451 0026 FB73     		strb	r3, [r7, #15]
 118:.\Encore.c    ****             break;
 452              		.loc 1 118 0
 453 0028 00BF     		nop
 454              	.L11:
 119:.\Encore.c    ****     }
 120:.\Encore.c    ****     return retval;
 455              		.loc 1 120 0
 456 002a FB7B     		ldrb	r3, [r7, #15]	@ zero_extendqisi2
 121:.\Encore.c    **** }
 457              		.loc 1 121 0
 458 002c 1846     		mov	r0, r3
 459 002e 1437     		adds	r7, r7, #20
 460              		.cfi_def_cfa_offset 4
 461 0030 BD46     		mov	sp, r7
 462              		.cfi_def_cfa_register 13
 463              		@ sp needed
 464 0032 5DF8047B 		ldr	r7, [sp], #4
 465              		.cfi_restore 7
 466              		.cfi_def_cfa_offset 0
 467 0036 7047     		bx	lr
 468              		.cfi_endproc
 469              	.LFE64:
 470              		.size	PumpIsInValidState, .-PumpIsInValidState
 471              		.section	.text.PumpJobQueueClear,"ax",%progbits
 472              		.align	2
 473              		.global	PumpJobQueueClear
 474              		.thumb
 475              		.thumb_func
 476              		.type	PumpJobQueueClear, %function
 477              	PumpJobQueueClear:
 478              	.LFB65:
 122:.\Encore.c    **** 
 123:.\Encore.c    **** //@Created By: HIJH
 124:.\Encore.c    **** //@Septembre de 2016
 125:.\Encore.c    **** void PumpJobQueueClear(void *this)
 126:.\Encore.c    **** {    
 479              		.loc 1 126 0
 480              		.cfi_startproc
 481              		@ args = 0, pretend = 0, frame = 16
 482              		@ frame_needed = 1, uses_anonymous_args = 0
 483              		@ link register save eliminated.
 484 0000 80B4     		push	{r7}
 485              		.cfi_def_cfa_offset 4
 486              		.cfi_offset 7, -4
 487 0002 85B0     		sub	sp, sp, #20
 488              		.cfi_def_cfa_offset 24
 489 0004 00AF     		add	r7, sp, #0
 490              		.cfi_def_cfa_register 7
 491 0006 7860     		str	r0, [r7, #4]
 127:.\Encore.c    ****     PumpJobQueue *pthis = (PumpJobQueue*)this;    
 492              		.loc 1 127 0
 493 0008 7B68     		ldr	r3, [r7, #4]
 494 000a BB60     		str	r3, [r7, #8]
 128:.\Encore.c    ****     FOR(uint8 index = 0, index < _PUMP_JOB_QUEUE_SIZE_, index++)
 495              		.loc 1 128 0
ARM GAS  C:\Users\RECEPC~1\AppData\Local\Temp\ccAtWeRe.s 			page 12


 496 000c 0023     		movs	r3, #0
 497 000e FB73     		strb	r3, [r7, #15]
 498 0010 31E0     		b	.L15
 499              	.L16:
 129:.\Encore.c    ****     {
 130:.\Encore.c    ****         pthis->_jobqueueheap[index]._state = QUEUE_JOB_FREE;
 500              		.loc 1 130 0 discriminator 3
 501 0012 FA7B     		ldrb	r2, [r7, #15]	@ zero_extendqisi2
 502 0014 B968     		ldr	r1, [r7, #8]
 503 0016 1346     		mov	r3, r2
 504 0018 9B00     		lsls	r3, r3, #2
 505 001a 1344     		add	r3, r3, r2
 506 001c DB00     		lsls	r3, r3, #3
 507 001e 0B44     		add	r3, r3, r1
 508 0020 0022     		movs	r2, #0
 509 0022 9A71     		strb	r2, [r3, #6]
 131:.\Encore.c    ****         pthis->_jobqueueheap[index]._ppump = NULL;
 510              		.loc 1 131 0 discriminator 3
 511 0024 FA7B     		ldrb	r2, [r7, #15]	@ zero_extendqisi2
 512 0026 B968     		ldr	r1, [r7, #8]
 513 0028 1346     		mov	r3, r2
 514 002a 9B00     		lsls	r3, r3, #2
 515 002c 1344     		add	r3, r3, r2
 516 002e DB00     		lsls	r3, r3, #3
 517 0030 0B44     		add	r3, r3, r1
 518 0032 1833     		adds	r3, r3, #24
 519 0034 0022     		movs	r2, #0
 520 0036 9A60     		str	r2, [r3, #8]
 132:.\Encore.c    ****         pthis->_jobqueueheap[index]._prequest = NULL;
 521              		.loc 1 132 0 discriminator 3
 522 0038 FA7B     		ldrb	r2, [r7, #15]	@ zero_extendqisi2
 523 003a B968     		ldr	r1, [r7, #8]
 524 003c 1346     		mov	r3, r2
 525 003e 9B00     		lsls	r3, r3, #2
 526 0040 1344     		add	r3, r3, r2
 527 0042 DB00     		lsls	r3, r3, #3
 528 0044 0B44     		add	r3, r3, r1
 529 0046 1033     		adds	r3, r3, #16
 530 0048 0022     		movs	r2, #0
 531 004a 9A60     		str	r2, [r3, #8]
 133:.\Encore.c    ****         pthis->_jobqueueheap[index]._presponse = NULL;
 532              		.loc 1 133 0 discriminator 3
 533 004c FA7B     		ldrb	r2, [r7, #15]	@ zero_extendqisi2
 534 004e B968     		ldr	r1, [r7, #8]
 535 0050 1346     		mov	r3, r2
 536 0052 9B00     		lsls	r3, r3, #2
 537 0054 1344     		add	r3, r3, r2
 538 0056 DB00     		lsls	r3, r3, #3
 539 0058 0B44     		add	r3, r3, r1
 540 005a 1833     		adds	r3, r3, #24
 541 005c 0022     		movs	r2, #0
 542 005e 5A60     		str	r2, [r3, #4]
 134:.\Encore.c    ****         
 135:.\Encore.c    ****         pthis->_pjobqueueallocated[index] = NULL;
 543              		.loc 1 135 0 discriminator 3
 544 0060 FB7B     		ldrb	r3, [r7, #15]	@ zero_extendqisi2
 545 0062 BA68     		ldr	r2, [r7, #8]
ARM GAS  C:\Users\RECEPC~1\AppData\Local\Temp\ccAtWeRe.s 			page 13


 546 0064 03F5F073 		add	r3, r3, #480
 547 0068 9B00     		lsls	r3, r3, #2
 548 006a 1344     		add	r3, r3, r2
 549 006c 0022     		movs	r2, #0
 550 006e 5A60     		str	r2, [r3, #4]
 128:.\Encore.c    ****     {
 551              		.loc 1 128 0 discriminator 3
 552 0070 FB7B     		ldrb	r3, [r7, #15]	@ zero_extendqisi2
 553 0072 0133     		adds	r3, r3, #1
 554 0074 FB73     		strb	r3, [r7, #15]
 555              	.L15:
 128:.\Encore.c    ****     {
 556              		.loc 1 128 0 is_stmt 0 discriminator 1
 557 0076 FB7B     		ldrb	r3, [r7, #15]	@ zero_extendqisi2
 558 0078 2F2B     		cmp	r3, #47
 559 007a CAD9     		bls	.L16
 136:.\Encore.c    ****     }
 137:.\Encore.c    ****     pthis->_queueindex = 0;
 560              		.loc 1 137 0 is_stmt 1
 561 007c BB68     		ldr	r3, [r7, #8]
 562 007e 0022     		movs	r2, #0
 563 0080 1A80     		strh	r2, [r3]	@ movhi
 138:.\Encore.c    **** }
 564              		.loc 1 138 0
 565 0082 1437     		adds	r7, r7, #20
 566              		.cfi_def_cfa_offset 4
 567 0084 BD46     		mov	sp, r7
 568              		.cfi_def_cfa_register 13
 569              		@ sp needed
 570 0086 5DF8047B 		ldr	r7, [sp], #4
 571              		.cfi_restore 7
 572              		.cfi_def_cfa_offset 0
 573 008a 7047     		bx	lr
 574              		.cfi_endproc
 575              	.LFE65:
 576              		.size	PumpJobQueueClear, .-PumpJobQueueClear
 577              		.section	.text.PumpJobAllocate,"ax",%progbits
 578              		.align	2
 579              		.global	PumpJobAllocate
 580              		.thumb
 581              		.thumb_func
 582              		.type	PumpJobAllocate, %function
 583              	PumpJobAllocate:
 584              	.LFB66:
 139:.\Encore.c    **** 
 140:.\Encore.c    **** //@Created By: HIJH
 141:.\Encore.c    **** //@Septembre de 2016
 142:.\Encore.c    **** PPUMPTRANSACTIONJOBCONTEXTPTR PumpJobAllocate(void *this)
 143:.\Encore.c    **** {    
 585              		.loc 1 143 0
 586              		.cfi_startproc
 587              		@ args = 0, pretend = 0, frame = 24
 588              		@ frame_needed = 1, uses_anonymous_args = 0
 589              		@ link register save eliminated.
 590 0000 80B4     		push	{r7}
 591              		.cfi_def_cfa_offset 4
 592              		.cfi_offset 7, -4
ARM GAS  C:\Users\RECEPC~1\AppData\Local\Temp\ccAtWeRe.s 			page 14


 593 0002 87B0     		sub	sp, sp, #28
 594              		.cfi_def_cfa_offset 32
 595 0004 00AF     		add	r7, sp, #0
 596              		.cfi_def_cfa_register 7
 597 0006 7860     		str	r0, [r7, #4]
 144:.\Encore.c    ****     PPUMPTRANSACTIONJOBCONTEXTPTR pretval = NULL;
 598              		.loc 1 144 0
 599 0008 0023     		movs	r3, #0
 600 000a 7B61     		str	r3, [r7, #20]
 145:.\Encore.c    ****     PumpJobQueue *pthis = (PumpJobQueue*)this;
 601              		.loc 1 145 0
 602 000c 7B68     		ldr	r3, [r7, #4]
 603 000e FB60     		str	r3, [r7, #12]
 146:.\Encore.c    ****         
 147:.\Encore.c    ****     FOR(uint8 index = 0, index < _PUMP_JOB_QUEUE_SIZE_, index++)
 604              		.loc 1 147 0
 605 0010 0023     		movs	r3, #0
 606 0012 FB74     		strb	r3, [r7, #19]
 607 0014 8BE0     		b	.L18
 608              	.L21:
 148:.\Encore.c    ****     {
 149:.\Encore.c    ****         if(pthis->_jobqueueheap[index]._state == QUEUE_JOB_FREE)
 609              		.loc 1 149 0
 610 0016 FA7C     		ldrb	r2, [r7, #19]	@ zero_extendqisi2
 611 0018 F968     		ldr	r1, [r7, #12]
 612 001a 1346     		mov	r3, r2
 613 001c 9B00     		lsls	r3, r3, #2
 614 001e 1344     		add	r3, r3, r2
 615 0020 DB00     		lsls	r3, r3, #3
 616 0022 0B44     		add	r3, r3, r1
 617 0024 9B79     		ldrb	r3, [r3, #6]
 618 0026 DBB2     		uxtb	r3, r3
 619 0028 002B     		cmp	r3, #0
 620 002a 7DD1     		bne	.L19
 150:.\Encore.c    ****         {
 151:.\Encore.c    ****             pthis->_jobqueueheap[index]._state = QUEUE_JOB_ALLOCATED;
 621              		.loc 1 151 0
 622 002c FA7C     		ldrb	r2, [r7, #19]	@ zero_extendqisi2
 623 002e F968     		ldr	r1, [r7, #12]
 624 0030 1346     		mov	r3, r2
 625 0032 9B00     		lsls	r3, r3, #2
 626 0034 1344     		add	r3, r3, r2
 627 0036 DB00     		lsls	r3, r3, #3
 628 0038 0B44     		add	r3, r3, r1
 629 003a 0122     		movs	r2, #1
 630 003c 9A71     		strb	r2, [r3, #6]
 152:.\Encore.c    ****             pthis->_jobqueueheap[index]._delay = 0x0000;
 631              		.loc 1 152 0
 632 003e FA7C     		ldrb	r2, [r7, #19]	@ zero_extendqisi2
 633 0040 F968     		ldr	r1, [r7, #12]
 634 0042 1346     		mov	r3, r2
 635 0044 9B00     		lsls	r3, r3, #2
 636 0046 1344     		add	r3, r3, r2
 637 0048 DB00     		lsls	r3, r3, #3
 638 004a 0B44     		add	r3, r3, r1
 639 004c 0022     		movs	r2, #0
 640 004e 1A81     		strh	r2, [r3, #8]	@ movhi
ARM GAS  C:\Users\RECEPC~1\AppData\Local\Temp\ccAtWeRe.s 			page 15


 153:.\Encore.c    ****             pthis->_jobqueueheap[index]._delaymultiplier = 0x0000;
 641              		.loc 1 153 0
 642 0050 FA7C     		ldrb	r2, [r7, #19]	@ zero_extendqisi2
 643 0052 F968     		ldr	r1, [r7, #12]
 644 0054 1346     		mov	r3, r2
 645 0056 9B00     		lsls	r3, r3, #2
 646 0058 1344     		add	r3, r3, r2
 647 005a DB00     		lsls	r3, r3, #3
 648 005c 0B44     		add	r3, r3, r1
 649 005e 0022     		movs	r2, #0
 650 0060 5A81     		strh	r2, [r3, #10]	@ movhi
 154:.\Encore.c    **** 
 155:.\Encore.c    ****             pthis->_jobqueueheap[index]._repushretriescounter = 0x0000;
 651              		.loc 1 155 0
 652 0062 FA7C     		ldrb	r2, [r7, #19]	@ zero_extendqisi2
 653 0064 F968     		ldr	r1, [r7, #12]
 654 0066 1346     		mov	r3, r2
 655 0068 9B00     		lsls	r3, r3, #2
 656 006a 1344     		add	r3, r3, r2
 657 006c DB00     		lsls	r3, r3, #3
 658 006e 0B44     		add	r3, r3, r1
 659 0070 0833     		adds	r3, r3, #8
 660 0072 0022     		movs	r2, #0
 661 0074 9A80     		strh	r2, [r3, #4]	@ movhi
 156:.\Encore.c    ****             pthis->_jobqueueheap[index]._repushtimeoutseed = 0x0000;
 662              		.loc 1 156 0
 663 0076 FA7C     		ldrb	r2, [r7, #19]	@ zero_extendqisi2
 664 0078 F968     		ldr	r1, [r7, #12]
 665 007a 1346     		mov	r3, r2
 666 007c 9B00     		lsls	r3, r3, #2
 667 007e 1344     		add	r3, r3, r2
 668 0080 DB00     		lsls	r3, r3, #3
 669 0082 0B44     		add	r3, r3, r1
 670 0084 0833     		adds	r3, r3, #8
 671 0086 0022     		movs	r2, #0
 672 0088 DA80     		strh	r2, [r3, #6]	@ movhi
 157:.\Encore.c    ****             pthis->_jobqueueheap[index]._repushtimeoutmultiplier = 0x0000;
 673              		.loc 1 157 0
 674 008a FA7C     		ldrb	r2, [r7, #19]	@ zero_extendqisi2
 675 008c F968     		ldr	r1, [r7, #12]
 676 008e 1346     		mov	r3, r2
 677 0090 9B00     		lsls	r3, r3, #2
 678 0092 1344     		add	r3, r3, r2
 679 0094 DB00     		lsls	r3, r3, #3
 680 0096 0B44     		add	r3, r3, r1
 681 0098 0833     		adds	r3, r3, #8
 682 009a 0022     		movs	r2, #0
 683 009c 1A81     		strh	r2, [r3, #8]	@ movhi
 158:.\Encore.c    ****             
 159:.\Encore.c    ****             pthis->_jobqueueheap[index]._retriescounter = 0x0000;
 684              		.loc 1 159 0
 685 009e FA7C     		ldrb	r2, [r7, #19]	@ zero_extendqisi2
 686 00a0 F968     		ldr	r1, [r7, #12]
 687 00a2 1346     		mov	r3, r2
 688 00a4 9B00     		lsls	r3, r3, #2
 689 00a6 1344     		add	r3, r3, r2
 690 00a8 DB00     		lsls	r3, r3, #3
ARM GAS  C:\Users\RECEPC~1\AppData\Local\Temp\ccAtWeRe.s 			page 16


 691 00aa 0B44     		add	r3, r3, r1
 692 00ac 0833     		adds	r3, r3, #8
 693 00ae 0022     		movs	r2, #0
 694 00b0 5A81     		strh	r2, [r3, #10]	@ movhi
 160:.\Encore.c    ****             pthis->_jobqueueheap[index]._timeoutseed = 0x0000;
 695              		.loc 1 160 0
 696 00b2 FA7C     		ldrb	r2, [r7, #19]	@ zero_extendqisi2
 697 00b4 F968     		ldr	r1, [r7, #12]
 698 00b6 1346     		mov	r3, r2
 699 00b8 9B00     		lsls	r3, r3, #2
 700 00ba 1344     		add	r3, r3, r2
 701 00bc DB00     		lsls	r3, r3, #3
 702 00be 0B44     		add	r3, r3, r1
 703 00c0 1033     		adds	r3, r3, #16
 704 00c2 0022     		movs	r2, #0
 705 00c4 9A80     		strh	r2, [r3, #4]	@ movhi
 161:.\Encore.c    ****             pthis->_jobqueueheap[index]._timeoutmultiplier = 0x0000;
 706              		.loc 1 161 0
 707 00c6 FA7C     		ldrb	r2, [r7, #19]	@ zero_extendqisi2
 708 00c8 F968     		ldr	r1, [r7, #12]
 709 00ca 1346     		mov	r3, r2
 710 00cc 9B00     		lsls	r3, r3, #2
 711 00ce 1344     		add	r3, r3, r2
 712 00d0 DB00     		lsls	r3, r3, #3
 713 00d2 0B44     		add	r3, r3, r1
 714 00d4 1033     		adds	r3, r3, #16
 715 00d6 0022     		movs	r2, #0
 716 00d8 DA80     		strh	r2, [r3, #6]	@ movhi
 162:.\Encore.c    ****             
 163:.\Encore.c    ****             pthis->_jobqueueheap[index]._reenqueue = false;
 717              		.loc 1 163 0
 718 00da FA7C     		ldrb	r2, [r7, #19]	@ zero_extendqisi2
 719 00dc F968     		ldr	r1, [r7, #12]
 720 00de 1346     		mov	r3, r2
 721 00e0 9B00     		lsls	r3, r3, #2
 722 00e2 1344     		add	r3, r3, r2
 723 00e4 DB00     		lsls	r3, r3, #3
 724 00e6 0B44     		add	r3, r3, r1
 725 00e8 0022     		movs	r2, #0
 726 00ea 1A71     		strb	r2, [r3, #4]
 164:.\Encore.c    **** 
 165:.\Encore.c    ****             pthis->_jobqueueheap[index].Callback = PNEAR_NULLPTR;
 727              		.loc 1 165 0
 728 00ec FA7C     		ldrb	r2, [r7, #19]	@ zero_extendqisi2
 729 00ee F968     		ldr	r1, [r7, #12]
 730 00f0 1346     		mov	r3, r2
 731 00f2 9B00     		lsls	r3, r3, #2
 732 00f4 1344     		add	r3, r3, r2
 733 00f6 DB00     		lsls	r3, r3, #3
 734 00f8 0B44     		add	r3, r3, r1
 735 00fa 2033     		adds	r3, r3, #32
 736 00fc 0022     		movs	r2, #0
 737 00fe 5A60     		str	r2, [r3, #4]
 166:.\Encore.c    ****             pthis->_jobqueueheap[index]._pdata = PNEAR_NULLPTR;
 738              		.loc 1 166 0
 739 0100 FA7C     		ldrb	r2, [r7, #19]	@ zero_extendqisi2
 740 0102 F968     		ldr	r1, [r7, #12]
ARM GAS  C:\Users\RECEPC~1\AppData\Local\Temp\ccAtWeRe.s 			page 17


 741 0104 1346     		mov	r3, r2
 742 0106 9B00     		lsls	r3, r3, #2
 743 0108 1344     		add	r3, r3, r2
 744 010a DB00     		lsls	r3, r3, #3
 745 010c 0B44     		add	r3, r3, r1
 746 010e 2033     		adds	r3, r3, #32
 747 0110 0022     		movs	r2, #0
 748 0112 9A60     		str	r2, [r3, #8]
 167:.\Encore.c    ****             
 168:.\Encore.c    ****             pretval = &(pthis->_jobqueueheap[index]);
 749              		.loc 1 168 0
 750 0114 FA7C     		ldrb	r2, [r7, #19]	@ zero_extendqisi2
 751 0116 1346     		mov	r3, r2
 752 0118 9B00     		lsls	r3, r3, #2
 753 011a 1344     		add	r3, r3, r2
 754 011c DB00     		lsls	r3, r3, #3
 755 011e FA68     		ldr	r2, [r7, #12]
 756 0120 1344     		add	r3, r3, r2
 757 0122 0433     		adds	r3, r3, #4
 758 0124 7B61     		str	r3, [r7, #20]
 169:.\Encore.c    ****             break;
 759              		.loc 1 169 0
 760 0126 06E0     		b	.L20
 761              	.L19:
 147:.\Encore.c    ****     {
 762              		.loc 1 147 0 discriminator 2
 763 0128 FB7C     		ldrb	r3, [r7, #19]	@ zero_extendqisi2
 764 012a 0133     		adds	r3, r3, #1
 765 012c FB74     		strb	r3, [r7, #19]
 766              	.L18:
 147:.\Encore.c    ****     {
 767              		.loc 1 147 0 is_stmt 0 discriminator 1
 768 012e FB7C     		ldrb	r3, [r7, #19]	@ zero_extendqisi2
 769 0130 2F2B     		cmp	r3, #47
 770 0132 7FF670AF 		bls	.L21
 771              	.L20:
 170:.\Encore.c    ****         }
 171:.\Encore.c    ****     }
 172:.\Encore.c    ****     return pretval;
 772              		.loc 1 172 0 is_stmt 1
 773 0136 7B69     		ldr	r3, [r7, #20]
 173:.\Encore.c    **** }
 774              		.loc 1 173 0
 775 0138 1846     		mov	r0, r3
 776 013a 1C37     		adds	r7, r7, #28
 777              		.cfi_def_cfa_offset 4
 778 013c BD46     		mov	sp, r7
 779              		.cfi_def_cfa_register 13
 780              		@ sp needed
 781 013e 5DF8047B 		ldr	r7, [sp], #4
 782              		.cfi_restore 7
 783              		.cfi_def_cfa_offset 0
 784 0142 7047     		bx	lr
 785              		.cfi_endproc
 786              	.LFE66:
 787              		.size	PumpJobAllocate, .-PumpJobAllocate
 788              		.section	.text.PumpJobEnqueue,"ax",%progbits
ARM GAS  C:\Users\RECEPC~1\AppData\Local\Temp\ccAtWeRe.s 			page 18


 789              		.align	2
 790              		.global	PumpJobEnqueue
 791              		.thumb
 792              		.thumb_func
 793              		.type	PumpJobEnqueue, %function
 794              	PumpJobEnqueue:
 795              	.LFB67:
 174:.\Encore.c    **** 
 175:.\Encore.c    **** //@Created By: HIJH
 176:.\Encore.c    **** //@Septembre de 2016
 177:.\Encore.c    **** void PumpJobEnqueue(void *this, PPUMPTRANSACTIONJOBCONTEXTPTR pjob)
 178:.\Encore.c    **** {
 796              		.loc 1 178 0
 797              		.cfi_startproc
 798              		@ args = 0, pretend = 0, frame = 16
 799              		@ frame_needed = 1, uses_anonymous_args = 0
 800              		@ link register save eliminated.
 801 0000 80B4     		push	{r7}
 802              		.cfi_def_cfa_offset 4
 803              		.cfi_offset 7, -4
 804 0002 85B0     		sub	sp, sp, #20
 805              		.cfi_def_cfa_offset 24
 806 0004 00AF     		add	r7, sp, #0
 807              		.cfi_def_cfa_register 7
 808 0006 7860     		str	r0, [r7, #4]
 809 0008 3960     		str	r1, [r7]
 179:.\Encore.c    ****     PumpJobQueue *pthis = (PumpJobQueue*)this;
 810              		.loc 1 179 0
 811 000a 7B68     		ldr	r3, [r7, #4]
 812 000c FB60     		str	r3, [r7, #12]
 180:.\Encore.c    ****     
 181:.\Encore.c    ****     if(pthis->_queueindex < _PUMP_JOB_QUEUE_SIZE_)
 813              		.loc 1 181 0
 814 000e FB68     		ldr	r3, [r7, #12]
 815 0010 1B88     		ldrh	r3, [r3]	@ movhi
 816 0012 9BB2     		uxth	r3, r3
 817 0014 2F2B     		cmp	r3, #47
 818 0016 1BD8     		bhi	.L23
 182:.\Encore.c    ****     {
 183:.\Encore.c    ****         pthis->_pjobqueueallocated[pthis->_queueindex] = pjob;
 819              		.loc 1 183 0
 820 0018 FB68     		ldr	r3, [r7, #12]
 821 001a 1B88     		ldrh	r3, [r3]	@ movhi
 822 001c 9BB2     		uxth	r3, r3
 823 001e FA68     		ldr	r2, [r7, #12]
 824 0020 03F5F073 		add	r3, r3, #480
 825 0024 9B00     		lsls	r3, r3, #2
 826 0026 1344     		add	r3, r3, r2
 827 0028 3A68     		ldr	r2, [r7]
 828 002a 5A60     		str	r2, [r3, #4]
 184:.\Encore.c    ****         pthis->_pjobqueueallocated[pthis->_queueindex]->_state = QUEUE_JOB_BUSY;
 829              		.loc 1 184 0
 830 002c FB68     		ldr	r3, [r7, #12]
 831 002e 1B88     		ldrh	r3, [r3]	@ movhi
 832 0030 9BB2     		uxth	r3, r3
 833 0032 FA68     		ldr	r2, [r7, #12]
 834 0034 03F5F073 		add	r3, r3, #480
ARM GAS  C:\Users\RECEPC~1\AppData\Local\Temp\ccAtWeRe.s 			page 19


 835 0038 9B00     		lsls	r3, r3, #2
 836 003a 1344     		add	r3, r3, r2
 837 003c 5B68     		ldr	r3, [r3, #4]
 838 003e 0222     		movs	r2, #2
 839 0040 9A70     		strb	r2, [r3, #2]
 185:.\Encore.c    ****         pthis->_queueindex++;
 840              		.loc 1 185 0
 841 0042 FB68     		ldr	r3, [r7, #12]
 842 0044 1B88     		ldrh	r3, [r3]	@ movhi
 843 0046 9BB2     		uxth	r3, r3
 844 0048 0133     		adds	r3, r3, #1
 845 004a 9AB2     		uxth	r2, r3
 846 004c FB68     		ldr	r3, [r7, #12]
 847 004e 1A80     		strh	r2, [r3]	@ movhi
 848              	.L23:
 186:.\Encore.c    ****     }
 187:.\Encore.c    **** }
 849              		.loc 1 187 0
 850 0050 1437     		adds	r7, r7, #20
 851              		.cfi_def_cfa_offset 4
 852 0052 BD46     		mov	sp, r7
 853              		.cfi_def_cfa_register 13
 854              		@ sp needed
 855 0054 5DF8047B 		ldr	r7, [sp], #4
 856              		.cfi_restore 7
 857              		.cfi_def_cfa_offset 0
 858 0058 7047     		bx	lr
 859              		.cfi_endproc
 860              	.LFE67:
 861              		.size	PumpJobEnqueue, .-PumpJobEnqueue
 862 005a 00BF     		.section	.text.PumpJobQueuePeek,"ax",%progbits
 863              		.align	2
 864              		.global	PumpJobQueuePeek
 865              		.thumb
 866              		.thumb_func
 867              		.type	PumpJobQueuePeek, %function
 868              	PumpJobQueuePeek:
 869              	.LFB68:
 188:.\Encore.c    **** 
 189:.\Encore.c    **** //@Created By: HIJH
 190:.\Encore.c    **** //@Septembre de 2016
 191:.\Encore.c    **** PPUMPTRANSACTIONJOBCONTEXTPTR PumpJobQueuePeek(void *this)
 192:.\Encore.c    **** {   
 870              		.loc 1 192 0
 871              		.cfi_startproc
 872              		@ args = 0, pretend = 0, frame = 16
 873              		@ frame_needed = 1, uses_anonymous_args = 0
 874              		@ link register save eliminated.
 875 0000 80B4     		push	{r7}
 876              		.cfi_def_cfa_offset 4
 877              		.cfi_offset 7, -4
 878 0002 85B0     		sub	sp, sp, #20
 879              		.cfi_def_cfa_offset 24
 880 0004 00AF     		add	r7, sp, #0
 881              		.cfi_def_cfa_register 7
 882 0006 7860     		str	r0, [r7, #4]
 193:.\Encore.c    ****     PPUMPTRANSACTIONJOBCONTEXTPTR pretval = NULL;
ARM GAS  C:\Users\RECEPC~1\AppData\Local\Temp\ccAtWeRe.s 			page 20


 883              		.loc 1 193 0
 884 0008 0023     		movs	r3, #0
 885 000a FB60     		str	r3, [r7, #12]
 194:.\Encore.c    ****     PumpJobQueue *pthis = (PumpJobQueue*)this;
 886              		.loc 1 194 0
 887 000c 7B68     		ldr	r3, [r7, #4]
 888 000e BB60     		str	r3, [r7, #8]
 195:.\Encore.c    ****         
 196:.\Encore.c    ****     if(pthis->_queueindex > 0)
 889              		.loc 1 196 0
 890 0010 BB68     		ldr	r3, [r7, #8]
 891 0012 1B88     		ldrh	r3, [r3]	@ movhi
 892 0014 9BB2     		uxth	r3, r3
 893 0016 002B     		cmp	r3, #0
 894 0018 03D0     		beq	.L26
 197:.\Encore.c    ****         pretval = pthis->_pjobqueueallocated[0];
 895              		.loc 1 197 0
 896 001a BB68     		ldr	r3, [r7, #8]
 897 001c D3F88437 		ldr	r3, [r3, #1924]
 898 0020 FB60     		str	r3, [r7, #12]
 899              	.L26:
 198:.\Encore.c    ****         
 199:.\Encore.c    ****     return pretval;
 900              		.loc 1 199 0
 901 0022 FB68     		ldr	r3, [r7, #12]
 200:.\Encore.c    **** }
 902              		.loc 1 200 0
 903 0024 1846     		mov	r0, r3
 904 0026 1437     		adds	r7, r7, #20
 905              		.cfi_def_cfa_offset 4
 906 0028 BD46     		mov	sp, r7
 907              		.cfi_def_cfa_register 13
 908              		@ sp needed
 909 002a 5DF8047B 		ldr	r7, [sp], #4
 910              		.cfi_restore 7
 911              		.cfi_def_cfa_offset 0
 912 002e 7047     		bx	lr
 913              		.cfi_endproc
 914              	.LFE68:
 915              		.size	PumpJobQueuePeek, .-PumpJobQueuePeek
 916              		.section	.text.PumpJobDequeue,"ax",%progbits
 917              		.align	2
 918              		.global	PumpJobDequeue
 919              		.thumb
 920              		.thumb_func
 921              		.type	PumpJobDequeue, %function
 922              	PumpJobDequeue:
 923              	.LFB69:
 201:.\Encore.c    **** 
 202:.\Encore.c    **** //@Created By: HIJH
 203:.\Encore.c    **** //@Septembre de 2016
 204:.\Encore.c    **** void PumpJobDequeue(void *this)
 205:.\Encore.c    **** {    
 924              		.loc 1 205 0
 925              		.cfi_startproc
 926              		@ args = 0, pretend = 0, frame = 16
 927              		@ frame_needed = 1, uses_anonymous_args = 0
ARM GAS  C:\Users\RECEPC~1\AppData\Local\Temp\ccAtWeRe.s 			page 21


 928              		@ link register save eliminated.
 929 0000 80B4     		push	{r7}
 930              		.cfi_def_cfa_offset 4
 931              		.cfi_offset 7, -4
 932 0002 85B0     		sub	sp, sp, #20
 933              		.cfi_def_cfa_offset 24
 934 0004 00AF     		add	r7, sp, #0
 935              		.cfi_def_cfa_register 7
 936 0006 7860     		str	r0, [r7, #4]
 206:.\Encore.c    ****     PumpJobQueue *pthis = (PumpJobQueue*)this;
 937              		.loc 1 206 0
 938 0008 7B68     		ldr	r3, [r7, #4]
 939 000a BB60     		str	r3, [r7, #8]
 207:.\Encore.c    ****     
 208:.\Encore.c    ****     if(pthis->_queueindex > 0)
 940              		.loc 1 208 0
 941 000c BB68     		ldr	r3, [r7, #8]
 942 000e 1B88     		ldrh	r3, [r3]	@ movhi
 943 0010 9BB2     		uxth	r3, r3
 944 0012 002B     		cmp	r3, #0
 945 0014 4BD0     		beq	.L28
 946              	.LBB3:
 209:.\Encore.c    ****     {
 210:.\Encore.c    ****         pthis->_pjobqueueallocated[0]->_state = QUEUE_JOB_FREE;
 947              		.loc 1 210 0
 948 0016 BB68     		ldr	r3, [r7, #8]
 949 0018 D3F88437 		ldr	r3, [r3, #1924]
 950 001c 0022     		movs	r2, #0
 951 001e 9A70     		strb	r2, [r3, #2]
 211:.\Encore.c    ****         pthis->_pjobqueueallocated[0]->_ppump = NULL;
 952              		.loc 1 211 0
 953 0020 BB68     		ldr	r3, [r7, #8]
 954 0022 D3F88437 		ldr	r3, [r3, #1924]
 955 0026 0022     		movs	r2, #0
 956 0028 DA61     		str	r2, [r3, #28]
 212:.\Encore.c    ****         pthis->_pjobqueueallocated[0]->_prequest = NULL;
 957              		.loc 1 212 0
 958 002a BB68     		ldr	r3, [r7, #8]
 959 002c D3F88437 		ldr	r3, [r3, #1924]
 960 0030 0022     		movs	r2, #0
 961 0032 5A61     		str	r2, [r3, #20]
 213:.\Encore.c    ****         pthis->_pjobqueueallocated[0]->_presponse = NULL;
 962              		.loc 1 213 0
 963 0034 BB68     		ldr	r3, [r7, #8]
 964 0036 D3F88437 		ldr	r3, [r3, #1924]
 965 003a 0022     		movs	r2, #0
 966 003c 9A61     		str	r2, [r3, #24]
 214:.\Encore.c    ****         FOR(uint8 index = 1, index < pthis->_queueindex, index++)
 967              		.loc 1 214 0
 968 003e 0123     		movs	r3, #1
 969 0040 FB73     		strb	r3, [r7, #15]
 970 0042 11E0     		b	.L30
 971              	.L31:
 215:.\Encore.c    ****             pthis->_pjobqueueallocated[index - 1] = pthis->_pjobqueueallocated[index];
 972              		.loc 1 215 0 discriminator 3
 973 0044 FB7B     		ldrb	r3, [r7, #15]	@ zero_extendqisi2
 974 0046 581E     		subs	r0, r3, #1
ARM GAS  C:\Users\RECEPC~1\AppData\Local\Temp\ccAtWeRe.s 			page 22


 975 0048 FB7B     		ldrb	r3, [r7, #15]	@ zero_extendqisi2
 976 004a BA68     		ldr	r2, [r7, #8]
 977 004c 03F5F073 		add	r3, r3, #480
 978 0050 9B00     		lsls	r3, r3, #2
 979 0052 1344     		add	r3, r3, r2
 980 0054 5A68     		ldr	r2, [r3, #4]
 981 0056 B968     		ldr	r1, [r7, #8]
 982 0058 00F5F073 		add	r3, r0, #480
 983 005c 9B00     		lsls	r3, r3, #2
 984 005e 0B44     		add	r3, r3, r1
 985 0060 5A60     		str	r2, [r3, #4]
 214:.\Encore.c    ****         FOR(uint8 index = 1, index < pthis->_queueindex, index++)
 986              		.loc 1 214 0 discriminator 3
 987 0062 FB7B     		ldrb	r3, [r7, #15]	@ zero_extendqisi2
 988 0064 0133     		adds	r3, r3, #1
 989 0066 FB73     		strb	r3, [r7, #15]
 990              	.L30:
 214:.\Encore.c    ****         FOR(uint8 index = 1, index < pthis->_queueindex, index++)
 991              		.loc 1 214 0 is_stmt 0 discriminator 1
 992 0068 FB7B     		ldrb	r3, [r7, #15]	@ zero_extendqisi2
 993 006a 9AB2     		uxth	r2, r3
 994 006c BB68     		ldr	r3, [r7, #8]
 995 006e 1B88     		ldrh	r3, [r3]	@ movhi
 996 0070 9BB2     		uxth	r3, r3
 997 0072 9A42     		cmp	r2, r3
 998 0074 E6D3     		bcc	.L31
 216:.\Encore.c    **** 
 217:.\Encore.c    ****         FOR(index = (pthis->_queueindex - 1), index < _PUMP_JOB_QUEUE_SIZE_, index++)
 999              		.loc 1 217 0 is_stmt 1
 1000 0076 BB68     		ldr	r3, [r7, #8]
 1001 0078 1B88     		ldrh	r3, [r3]	@ movhi
 1002 007a 9BB2     		uxth	r3, r3
 1003 007c DBB2     		uxtb	r3, r3
 1004 007e 013B     		subs	r3, r3, #1
 1005 0080 FB73     		strb	r3, [r7, #15]
 1006 0082 0AE0     		b	.L32
 1007              	.L33:
 218:.\Encore.c    ****             pthis->_pjobqueueallocated[index] = NULL;
 1008              		.loc 1 218 0 discriminator 3
 1009 0084 FB7B     		ldrb	r3, [r7, #15]	@ zero_extendqisi2
 1010 0086 BA68     		ldr	r2, [r7, #8]
 1011 0088 03F5F073 		add	r3, r3, #480
 1012 008c 9B00     		lsls	r3, r3, #2
 1013 008e 1344     		add	r3, r3, r2
 1014 0090 0022     		movs	r2, #0
 1015 0092 5A60     		str	r2, [r3, #4]
 217:.\Encore.c    ****             pthis->_pjobqueueallocated[index] = NULL;
 1016              		.loc 1 217 0 discriminator 3
 1017 0094 FB7B     		ldrb	r3, [r7, #15]	@ zero_extendqisi2
 1018 0096 0133     		adds	r3, r3, #1
 1019 0098 FB73     		strb	r3, [r7, #15]
 1020              	.L32:
 217:.\Encore.c    ****             pthis->_pjobqueueallocated[index] = NULL;
 1021              		.loc 1 217 0 is_stmt 0 discriminator 1
 1022 009a FB7B     		ldrb	r3, [r7, #15]	@ zero_extendqisi2
 1023 009c 2F2B     		cmp	r3, #47
 1024 009e F1D9     		bls	.L33
ARM GAS  C:\Users\RECEPC~1\AppData\Local\Temp\ccAtWeRe.s 			page 23


 219:.\Encore.c    ****             
 220:.\Encore.c    ****         pthis->_queueindex--;
 1025              		.loc 1 220 0 is_stmt 1
 1026 00a0 BB68     		ldr	r3, [r7, #8]
 1027 00a2 1B88     		ldrh	r3, [r3]	@ movhi
 1028 00a4 9BB2     		uxth	r3, r3
 1029 00a6 013B     		subs	r3, r3, #1
 1030 00a8 9AB2     		uxth	r2, r3
 1031 00aa BB68     		ldr	r3, [r7, #8]
 1032 00ac 1A80     		strh	r2, [r3]	@ movhi
 1033              	.L28:
 1034              	.LBE3:
 221:.\Encore.c    ****     }
 222:.\Encore.c    **** }
 1035              		.loc 1 222 0
 1036 00ae 1437     		adds	r7, r7, #20
 1037              		.cfi_def_cfa_offset 4
 1038 00b0 BD46     		mov	sp, r7
 1039              		.cfi_def_cfa_register 13
 1040              		@ sp needed
 1041 00b2 5DF8047B 		ldr	r7, [sp], #4
 1042              		.cfi_restore 7
 1043              		.cfi_def_cfa_offset 0
 1044 00b6 7047     		bx	lr
 1045              		.cfi_endproc
 1046              	.LFE69:
 1047              		.size	PumpJobDequeue, .-PumpJobDequeue
 1048              		.section	.text.PumpJobRotate,"ax",%progbits
 1049              		.align	2
 1050              		.global	PumpJobRotate
 1051              		.thumb
 1052              		.thumb_func
 1053              		.type	PumpJobRotate, %function
 1054              	PumpJobRotate:
 1055              	.LFB70:
 223:.\Encore.c    **** 
 224:.\Encore.c    **** //@Created By: HIJH
 225:.\Encore.c    **** //@Septembre de 2016
 226:.\Encore.c    **** void PumpJobRotate(void *this)
 227:.\Encore.c    **** {    
 1056              		.loc 1 227 0
 1057              		.cfi_startproc
 1058              		@ args = 0, pretend = 0, frame = 24
 1059              		@ frame_needed = 1, uses_anonymous_args = 0
 1060              		@ link register save eliminated.
 1061 0000 80B4     		push	{r7}
 1062              		.cfi_def_cfa_offset 4
 1063              		.cfi_offset 7, -4
 1064 0002 87B0     		sub	sp, sp, #28
 1065              		.cfi_def_cfa_offset 32
 1066 0004 00AF     		add	r7, sp, #0
 1067              		.cfi_def_cfa_register 7
 1068 0006 7860     		str	r0, [r7, #4]
 228:.\Encore.c    ****     PumpJobQueue *pthis = (PumpJobQueue*)this;
 1069              		.loc 1 228 0
 1070 0008 7B68     		ldr	r3, [r7, #4]
 1071 000a 3B61     		str	r3, [r7, #16]
ARM GAS  C:\Users\RECEPC~1\AppData\Local\Temp\ccAtWeRe.s 			page 24


 229:.\Encore.c    ****     
 230:.\Encore.c    ****     if(pthis->_queueindex > 0)
 1072              		.loc 1 230 0
 1073 000c 3B69     		ldr	r3, [r7, #16]
 1074 000e 1B88     		ldrh	r3, [r3]	@ movhi
 1075 0010 9BB2     		uxth	r3, r3
 1076 0012 002B     		cmp	r3, #0
 1077 0014 2AD0     		beq	.L34
 1078              	.LBB4:
 231:.\Encore.c    ****     {
 232:.\Encore.c    ****         PPUMPTRANSACTIONJOBCONTEXTPTR ptopjob = pthis->_pjobqueueallocated[0x00];
 1079              		.loc 1 232 0
 1080 0016 3B69     		ldr	r3, [r7, #16]
 1081 0018 D3F88437 		ldr	r3, [r3, #1924]
 1082 001c FB60     		str	r3, [r7, #12]
 233:.\Encore.c    ****         
 234:.\Encore.c    ****         FOR(uint8 index = 1, index < pthis->_queueindex, index++)
 1083              		.loc 1 234 0
 1084 001e 0123     		movs	r3, #1
 1085 0020 FB75     		strb	r3, [r7, #23]
 1086 0022 11E0     		b	.L36
 1087              	.L37:
 235:.\Encore.c    ****             pthis->_pjobqueueallocated[index - 1] = pthis->_pjobqueueallocated[index];
 1088              		.loc 1 235 0 discriminator 3
 1089 0024 FB7D     		ldrb	r3, [r7, #23]	@ zero_extendqisi2
 1090 0026 581E     		subs	r0, r3, #1
 1091 0028 FB7D     		ldrb	r3, [r7, #23]	@ zero_extendqisi2
 1092 002a 3A69     		ldr	r2, [r7, #16]
 1093 002c 03F5F073 		add	r3, r3, #480
 1094 0030 9B00     		lsls	r3, r3, #2
 1095 0032 1344     		add	r3, r3, r2
 1096 0034 5A68     		ldr	r2, [r3, #4]
 1097 0036 3969     		ldr	r1, [r7, #16]
 1098 0038 00F5F073 		add	r3, r0, #480
 1099 003c 9B00     		lsls	r3, r3, #2
 1100 003e 0B44     		add	r3, r3, r1
 1101 0040 5A60     		str	r2, [r3, #4]
 234:.\Encore.c    ****             pthis->_pjobqueueallocated[index - 1] = pthis->_pjobqueueallocated[index];
 1102              		.loc 1 234 0 discriminator 3
 1103 0042 FB7D     		ldrb	r3, [r7, #23]	@ zero_extendqisi2
 1104 0044 0133     		adds	r3, r3, #1
 1105 0046 FB75     		strb	r3, [r7, #23]
 1106              	.L36:
 234:.\Encore.c    ****             pthis->_pjobqueueallocated[index - 1] = pthis->_pjobqueueallocated[index];
 1107              		.loc 1 234 0 is_stmt 0 discriminator 1
 1108 0048 FB7D     		ldrb	r3, [r7, #23]	@ zero_extendqisi2
 1109 004a 9AB2     		uxth	r2, r3
 1110 004c 3B69     		ldr	r3, [r7, #16]
 1111 004e 1B88     		ldrh	r3, [r3]	@ movhi
 1112 0050 9BB2     		uxth	r3, r3
 1113 0052 9A42     		cmp	r2, r3
 1114 0054 E6D3     		bcc	.L37
 236:.\Encore.c    **** 
 237:.\Encore.c    ****         pthis->_pjobqueueallocated[pthis->_queueindex - 1] = ptopjob;
 1115              		.loc 1 237 0 is_stmt 1
 1116 0056 3B69     		ldr	r3, [r7, #16]
 1117 0058 1B88     		ldrh	r3, [r3]	@ movhi
ARM GAS  C:\Users\RECEPC~1\AppData\Local\Temp\ccAtWeRe.s 			page 25


 1118 005a 9BB2     		uxth	r3, r3
 1119 005c 013B     		subs	r3, r3, #1
 1120 005e 3A69     		ldr	r2, [r7, #16]
 1121 0060 03F5F073 		add	r3, r3, #480
 1122 0064 9B00     		lsls	r3, r3, #2
 1123 0066 1344     		add	r3, r3, r2
 1124 0068 FA68     		ldr	r2, [r7, #12]
 1125 006a 5A60     		str	r2, [r3, #4]
 1126              	.L34:
 1127              	.LBE4:
 238:.\Encore.c    ****     }
 239:.\Encore.c    **** }
 1128              		.loc 1 239 0
 1129 006c 1C37     		adds	r7, r7, #28
 1130              		.cfi_def_cfa_offset 4
 1131 006e BD46     		mov	sp, r7
 1132              		.cfi_def_cfa_register 13
 1133              		@ sp needed
 1134 0070 5DF8047B 		ldr	r7, [sp], #4
 1135              		.cfi_restore 7
 1136              		.cfi_def_cfa_offset 0
 1137 0074 7047     		bx	lr
 1138              		.cfi_endproc
 1139              	.LFE70:
 1140              		.size	PumpJobRotate, .-PumpJobRotate
 1141 0076 00BF     		.section	.text.PumpTransactionalStateDequeue,"ax",%progbits
 1142              		.align	2
 1143              		.global	PumpTransactionalStateDequeue
 1144              		.thumb
 1145              		.thumb_func
 1146              		.type	PumpTransactionalStateDequeue, %function
 1147              	PumpTransactionalStateDequeue:
 1148              	.LFB71:
 240:.\Encore.c    **** 
 241:.\Encore.c    **** //@Created By: HIJH
 242:.\Encore.c    **** //@Septembre de 2016
 243:.\Encore.c    **** PNEAR_PUMPTRANSACTIONALSTATEPTR PumpTransactionalStateDequeue(LPVOID pvthis)
 244:.\Encore.c    **** {
 1149              		.loc 1 244 0
 1150              		.cfi_startproc
 1151              		@ args = 0, pretend = 0, frame = 24
 1152              		@ frame_needed = 1, uses_anonymous_args = 0
 1153              		@ link register save eliminated.
 1154 0000 80B4     		push	{r7}
 1155              		.cfi_def_cfa_offset 4
 1156              		.cfi_offset 7, -4
 1157 0002 87B0     		sub	sp, sp, #28
 1158              		.cfi_def_cfa_offset 32
 1159 0004 00AF     		add	r7, sp, #0
 1160              		.cfi_def_cfa_register 7
 1161 0006 7860     		str	r0, [r7, #4]
 245:.\Encore.c    ****     PNEAR_PUMPPTR pthispump = (PNEAR_PUMPPTR)pvthis;
 1162              		.loc 1 245 0
 1163 0008 7B68     		ldr	r3, [r7, #4]
 1164 000a FB60     		str	r3, [r7, #12]
 246:.\Encore.c    ****     PNEAR_PUMPTRANSACTIONALSTATEPTR pretval = PNEAR_NULLPTR;
 1165              		.loc 1 246 0
ARM GAS  C:\Users\RECEPC~1\AppData\Local\Temp\ccAtWeRe.s 			page 26


 1166 000c 0023     		movs	r3, #0
 1167 000e 7B61     		str	r3, [r7, #20]
 247:.\Encore.c    ****     
 248:.\Encore.c    ****     FOR(uint8 index = 0, index < _PUMP_MAX_QUEUE_TRANSTATES_, index++)
 1168              		.loc 1 248 0
 1169 0010 0023     		movs	r3, #0
 1170 0012 FB74     		strb	r3, [r7, #19]
 1171 0014 1AE0     		b	.L39
 1172              	.L42:
 249:.\Encore.c    ****     {
 250:.\Encore.c    ****         if(pthispump->_transqueue[index]._state == _PUMP_TRANSTATE_BUSY_)
 1173              		.loc 1 250 0
 1174 0016 FA7C     		ldrb	r2, [r7, #19]	@ zero_extendqisi2
 1175 0018 F968     		ldr	r1, [r7, #12]
 1176 001a 1346     		mov	r3, r2
 1177 001c 9B01     		lsls	r3, r3, #6
 1178 001e 1344     		add	r3, r3, r2
 1179 0020 9B00     		lsls	r3, r3, #2
 1180 0022 0B44     		add	r3, r3, r1
 1181 0024 03F54873 		add	r3, r3, #800
 1182 0028 9B78     		ldrb	r3, [r3, #2]	@ zero_extendqisi2
 1183 002a 022B     		cmp	r3, #2
 1184 002c 0BD1     		bne	.L40
 251:.\Encore.c    ****         {
 252:.\Encore.c    ****             pretval = &(pthispump->_transqueue[index]);
 1185              		.loc 1 252 0
 1186 002e FA7C     		ldrb	r2, [r7, #19]	@ zero_extendqisi2
 1187 0030 1346     		mov	r3, r2
 1188 0032 9B01     		lsls	r3, r3, #6
 1189 0034 1344     		add	r3, r3, r2
 1190 0036 9B00     		lsls	r3, r3, #2
 1191 0038 03F54873 		add	r3, r3, #800
 1192 003c FA68     		ldr	r2, [r7, #12]
 1193 003e 1344     		add	r3, r3, r2
 1194 0040 0233     		adds	r3, r3, #2
 1195 0042 7B61     		str	r3, [r7, #20]
 253:.\Encore.c    ****             break;
 1196              		.loc 1 253 0
 1197 0044 05E0     		b	.L41
 1198              	.L40:
 248:.\Encore.c    ****     {
 1199              		.loc 1 248 0 discriminator 2
 1200 0046 FB7C     		ldrb	r3, [r7, #19]	@ zero_extendqisi2
 1201 0048 0133     		adds	r3, r3, #1
 1202 004a FB74     		strb	r3, [r7, #19]
 1203              	.L39:
 248:.\Encore.c    ****     {
 1204              		.loc 1 248 0 is_stmt 0 discriminator 1
 1205 004c FB7C     		ldrb	r3, [r7, #19]	@ zero_extendqisi2
 1206 004e 072B     		cmp	r3, #7
 1207 0050 E1D9     		bls	.L42
 1208              	.L41:
 254:.\Encore.c    ****         }
 255:.\Encore.c    ****     }
 256:.\Encore.c    ****     return pretval;
 1209              		.loc 1 256 0 is_stmt 1
 1210 0052 7B69     		ldr	r3, [r7, #20]
ARM GAS  C:\Users\RECEPC~1\AppData\Local\Temp\ccAtWeRe.s 			page 27


 257:.\Encore.c    **** }
 1211              		.loc 1 257 0
 1212 0054 1846     		mov	r0, r3
 1213 0056 1C37     		adds	r7, r7, #28
 1214              		.cfi_def_cfa_offset 4
 1215 0058 BD46     		mov	sp, r7
 1216              		.cfi_def_cfa_register 13
 1217              		@ sp needed
 1218 005a 5DF8047B 		ldr	r7, [sp], #4
 1219              		.cfi_restore 7
 1220              		.cfi_def_cfa_offset 0
 1221 005e 7047     		bx	lr
 1222              		.cfi_endproc
 1223              	.LFE71:
 1224              		.size	PumpTransactionalStateDequeue, .-PumpTransactionalStateDequeue
 1225              		.section	.text.PumpTransactionalStateEnqueue,"ax",%progbits
 1226              		.align	2
 1227              		.global	PumpTransactionalStateEnqueue
 1228              		.thumb
 1229              		.thumb_func
 1230              		.type	PumpTransactionalStateEnqueue, %function
 1231              	PumpTransactionalStateEnqueue:
 1232              	.LFB72:
 258:.\Encore.c    **** 
 259:.\Encore.c    **** //@Created By: HIJH
 260:.\Encore.c    **** //@Septembre de 2016
 261:.\Encore.c    **** void PumpTransactionalStateEnqueue(LPVOID pvthis, PNEAR_PUMPTRANSACTIONALSTATEPTR pts)
 262:.\Encore.c    **** {
 1233              		.loc 1 262 0
 1234              		.cfi_startproc
 1235              		@ args = 0, pretend = 0, frame = 16
 1236              		@ frame_needed = 1, uses_anonymous_args = 0
 1237              		@ link register save eliminated.
 1238 0000 80B4     		push	{r7}
 1239              		.cfi_def_cfa_offset 4
 1240              		.cfi_offset 7, -4
 1241 0002 85B0     		sub	sp, sp, #20
 1242              		.cfi_def_cfa_offset 24
 1243 0004 00AF     		add	r7, sp, #0
 1244              		.cfi_def_cfa_register 7
 1245 0006 7860     		str	r0, [r7, #4]
 1246 0008 3960     		str	r1, [r7]
 263:.\Encore.c    ****     PNEAR_PUMPPTR pthispump = (PNEAR_PUMPPTR)pvthis;
 1247              		.loc 1 263 0
 1248 000a 7B68     		ldr	r3, [r7, #4]
 1249 000c FB60     		str	r3, [r7, #12]
 264:.\Encore.c    ****     pts->_state = _PUMP_TRANSTATE_BUSY_;    
 1250              		.loc 1 264 0
 1251 000e 3B68     		ldr	r3, [r7]
 1252 0010 0222     		movs	r2, #2
 1253 0012 1A70     		strb	r2, [r3]
 265:.\Encore.c    **** }
 1254              		.loc 1 265 0
 1255 0014 1437     		adds	r7, r7, #20
 1256              		.cfi_def_cfa_offset 4
 1257 0016 BD46     		mov	sp, r7
 1258              		.cfi_def_cfa_register 13
ARM GAS  C:\Users\RECEPC~1\AppData\Local\Temp\ccAtWeRe.s 			page 28


 1259              		@ sp needed
 1260 0018 5DF8047B 		ldr	r7, [sp], #4
 1261              		.cfi_restore 7
 1262              		.cfi_def_cfa_offset 0
 1263 001c 7047     		bx	lr
 1264              		.cfi_endproc
 1265              	.LFE72:
 1266              		.size	PumpTransactionalStateEnqueue, .-PumpTransactionalStateEnqueue
 1267 001e 00BF     		.section	.text.PumpTransactionalStateDeallocate,"ax",%progbits
 1268              		.align	2
 1269              		.global	PumpTransactionalStateDeallocate
 1270              		.thumb
 1271              		.thumb_func
 1272              		.type	PumpTransactionalStateDeallocate, %function
 1273              	PumpTransactionalStateDeallocate:
 1274              	.LFB73:
 266:.\Encore.c    **** 
 267:.\Encore.c    **** //@Created By: HIJH
 268:.\Encore.c    **** //@Septembre de 2016
 269:.\Encore.c    **** void PumpTransactionalStateDeallocate(LPVOID pvthis, PNEAR_PUMPTRANSACTIONALSTATEPTR pts)
 270:.\Encore.c    **** {
 1275              		.loc 1 270 0
 1276              		.cfi_startproc
 1277              		@ args = 0, pretend = 0, frame = 16
 1278              		@ frame_needed = 1, uses_anonymous_args = 0
 1279 0000 80B5     		push	{r7, lr}
 1280              		.cfi_def_cfa_offset 8
 1281              		.cfi_offset 7, -8
 1282              		.cfi_offset 14, -4
 1283 0002 84B0     		sub	sp, sp, #16
 1284              		.cfi_def_cfa_offset 24
 1285 0004 00AF     		add	r7, sp, #0
 1286              		.cfi_def_cfa_register 7
 1287 0006 7860     		str	r0, [r7, #4]
 1288 0008 3960     		str	r1, [r7]
 271:.\Encore.c    ****     PNEAR_PUMPPTR pthispump = (PNEAR_PUMPPTR)pvthis;
 1289              		.loc 1 271 0
 1290 000a 7B68     		ldr	r3, [r7, #4]
 1291 000c BB60     		str	r3, [r7, #8]
 272:.\Encore.c    ****     
 273:.\Encore.c    ****     pts->_state = _PUMP_TRANSTATE_FREE_;
 1292              		.loc 1 273 0
 1293 000e 3B68     		ldr	r3, [r7]
 1294 0010 0022     		movs	r2, #0
 1295 0012 1A70     		strb	r2, [r3]
 274:.\Encore.c    ****     
 275:.\Encore.c    ****     FOR(uint8 index = 0, index < (_PUMP_MAX_QUEUE_TRANSTATES_ - 1), index++)
 1296              		.loc 1 275 0
 1297 0014 0023     		movs	r3, #0
 1298 0016 FB73     		strb	r3, [r7, #15]
 1299 0018 35E0     		b	.L46
 1300              	.L48:
 276:.\Encore.c    ****     {
 277:.\Encore.c    ****         if(pthispump->_transqueue[index]._state == _PUMP_TRANSTATE_FREE_)
 1301              		.loc 1 277 0
 1302 001a FA7B     		ldrb	r2, [r7, #15]	@ zero_extendqisi2
 1303 001c B968     		ldr	r1, [r7, #8]
ARM GAS  C:\Users\RECEPC~1\AppData\Local\Temp\ccAtWeRe.s 			page 29


 1304 001e 1346     		mov	r3, r2
 1305 0020 9B01     		lsls	r3, r3, #6
 1306 0022 1344     		add	r3, r3, r2
 1307 0024 9B00     		lsls	r3, r3, #2
 1308 0026 0B44     		add	r3, r3, r1
 1309 0028 03F54873 		add	r3, r3, #800
 1310 002c 9B78     		ldrb	r3, [r3, #2]	@ zero_extendqisi2
 1311 002e 002B     		cmp	r3, #0
 1312 0030 26D1     		bne	.L47
 278:.\Encore.c    ****         {
 279:.\Encore.c    ****             memcpy(&(pthispump->_transqueue[index]), &(pthispump->_transqueue[index + 1]), sizeof(P
 1313              		.loc 1 279 0
 1314 0032 FA7B     		ldrb	r2, [r7, #15]	@ zero_extendqisi2
 1315 0034 1346     		mov	r3, r2
 1316 0036 9B01     		lsls	r3, r3, #6
 1317 0038 1344     		add	r3, r3, r2
 1318 003a 9B00     		lsls	r3, r3, #2
 1319 003c 03F54873 		add	r3, r3, #800
 1320 0040 BA68     		ldr	r2, [r7, #8]
 1321 0042 1344     		add	r3, r3, r2
 1322 0044 991C     		adds	r1, r3, #2
 1323 0046 FB7B     		ldrb	r3, [r7, #15]	@ zero_extendqisi2
 1324 0048 5A1C     		adds	r2, r3, #1
 1325 004a 1346     		mov	r3, r2
 1326 004c 9B01     		lsls	r3, r3, #6
 1327 004e 1344     		add	r3, r3, r2
 1328 0050 9B00     		lsls	r3, r3, #2
 1329 0052 03F54873 		add	r3, r3, #800
 1330 0056 BA68     		ldr	r2, [r7, #8]
 1331 0058 1344     		add	r3, r3, r2
 1332 005a 0233     		adds	r3, r3, #2
 1333 005c 0846     		mov	r0, r1
 1334 005e 1946     		mov	r1, r3
 1335 0060 4FF48272 		mov	r2, #260
 1336 0064 FFF7FEFF 		bl	memcpy
 280:.\Encore.c    ****             pthispump->_transqueue[index + 1]._state = _PUMP_TRANSTATE_FREE_;
 1337              		.loc 1 280 0
 1338 0068 FB7B     		ldrb	r3, [r7, #15]	@ zero_extendqisi2
 1339 006a 5A1C     		adds	r2, r3, #1
 1340 006c B968     		ldr	r1, [r7, #8]
 1341 006e 1346     		mov	r3, r2
 1342 0070 9B01     		lsls	r3, r3, #6
 1343 0072 1344     		add	r3, r3, r2
 1344 0074 9B00     		lsls	r3, r3, #2
 1345 0076 0B44     		add	r3, r3, r1
 1346 0078 03F54873 		add	r3, r3, #800
 1347 007c 0022     		movs	r2, #0
 1348 007e 9A70     		strb	r2, [r3, #2]
 1349              	.L47:
 275:.\Encore.c    ****     {
 1350              		.loc 1 275 0 discriminator 2
 1351 0080 FB7B     		ldrb	r3, [r7, #15]	@ zero_extendqisi2
 1352 0082 0133     		adds	r3, r3, #1
 1353 0084 FB73     		strb	r3, [r7, #15]
 1354              	.L46:
 275:.\Encore.c    ****     {
 1355              		.loc 1 275 0 is_stmt 0 discriminator 1
ARM GAS  C:\Users\RECEPC~1\AppData\Local\Temp\ccAtWeRe.s 			page 30


 1356 0086 FB7B     		ldrb	r3, [r7, #15]	@ zero_extendqisi2
 1357 0088 062B     		cmp	r3, #6
 1358 008a C6D9     		bls	.L48
 281:.\Encore.c    ****         }
 282:.\Encore.c    ****     }
 283:.\Encore.c    ****     
 284:.\Encore.c    **** }
 1359              		.loc 1 284 0 is_stmt 1
 1360 008c 1037     		adds	r7, r7, #16
 1361              		.cfi_def_cfa_offset 8
 1362 008e BD46     		mov	sp, r7
 1363              		.cfi_def_cfa_register 13
 1364              		@ sp needed
 1365 0090 80BD     		pop	{r7, pc}
 1366              		.cfi_endproc
 1367              	.LFE73:
 1368              		.size	PumpTransactionalStateDeallocate, .-PumpTransactionalStateDeallocate
 1369 0092 00BF     		.section	.text.PumpTransactionalStateFind,"ax",%progbits
 1370              		.align	2
 1371              		.global	PumpTransactionalStateFind
 1372              		.thumb
 1373              		.thumb_func
 1374              		.type	PumpTransactionalStateFind, %function
 1375              	PumpTransactionalStateFind:
 1376              	.LFB74:
 285:.\Encore.c    **** 
 286:.\Encore.c    **** //@Created By: HIJH
 287:.\Encore.c    **** //@Septembre de 2016
 288:.\Encore.c    **** bool PumpTransactionalStateFind(LPVOID pvthis, uint8 transtate)
 289:.\Encore.c    **** {
 1377              		.loc 1 289 0
 1378              		.cfi_startproc
 1379              		@ args = 0, pretend = 0, frame = 16
 1380              		@ frame_needed = 1, uses_anonymous_args = 0
 1381              		@ link register save eliminated.
 1382 0000 80B4     		push	{r7}
 1383              		.cfi_def_cfa_offset 4
 1384              		.cfi_offset 7, -4
 1385 0002 85B0     		sub	sp, sp, #20
 1386              		.cfi_def_cfa_offset 24
 1387 0004 00AF     		add	r7, sp, #0
 1388              		.cfi_def_cfa_register 7
 1389 0006 7860     		str	r0, [r7, #4]
 1390 0008 0B46     		mov	r3, r1
 1391 000a FB70     		strb	r3, [r7, #3]
 290:.\Encore.c    ****     bool retval = false;
 1392              		.loc 1 290 0
 1393 000c 0023     		movs	r3, #0
 1394 000e FB73     		strb	r3, [r7, #15]
 291:.\Encore.c    ****     PNEAR_PUMPPTR pthispump = (PNEAR_PUMPPTR)pvthis;
 1395              		.loc 1 291 0
 1396 0010 7B68     		ldr	r3, [r7, #4]
 1397 0012 BB60     		str	r3, [r7, #8]
 292:.\Encore.c    ****     FOR(uint8 index = 0, index < _PUMP_MAX_QUEUE_TRANSTATES_, index++)
 1398              		.loc 1 292 0
 1399 0014 0023     		movs	r3, #0
 1400 0016 BB73     		strb	r3, [r7, #14]
ARM GAS  C:\Users\RECEPC~1\AppData\Local\Temp\ccAtWeRe.s 			page 31


 1401 0018 12E0     		b	.L50
 1402              	.L53:
 293:.\Encore.c    ****     {
 294:.\Encore.c    ****         if(pthispump->_transqueue[index]._transtate == transtate)
 1403              		.loc 1 294 0
 1404 001a BA7B     		ldrb	r2, [r7, #14]	@ zero_extendqisi2
 1405 001c B968     		ldr	r1, [r7, #8]
 1406 001e 1346     		mov	r3, r2
 1407 0020 9B01     		lsls	r3, r3, #6
 1408 0022 1344     		add	r3, r3, r2
 1409 0024 9B00     		lsls	r3, r3, #2
 1410 0026 0B44     		add	r3, r3, r1
 1411 0028 03F54873 		add	r3, r3, #800
 1412 002c DB78     		ldrb	r3, [r3, #3]	@ zero_extendqisi2
 1413 002e FA78     		ldrb	r2, [r7, #3]	@ zero_extendqisi2
 1414 0030 9A42     		cmp	r2, r3
 1415 0032 02D1     		bne	.L51
 295:.\Encore.c    ****         {
 296:.\Encore.c    ****             retval = true;
 1416              		.loc 1 296 0
 1417 0034 0123     		movs	r3, #1
 1418 0036 FB73     		strb	r3, [r7, #15]
 297:.\Encore.c    ****             break;
 1419              		.loc 1 297 0
 1420 0038 05E0     		b	.L52
 1421              	.L51:
 292:.\Encore.c    ****     {
 1422              		.loc 1 292 0 discriminator 2
 1423 003a BB7B     		ldrb	r3, [r7, #14]	@ zero_extendqisi2
 1424 003c 0133     		adds	r3, r3, #1
 1425 003e BB73     		strb	r3, [r7, #14]
 1426              	.L50:
 292:.\Encore.c    ****     {
 1427              		.loc 1 292 0 is_stmt 0 discriminator 1
 1428 0040 BB7B     		ldrb	r3, [r7, #14]	@ zero_extendqisi2
 1429 0042 072B     		cmp	r3, #7
 1430 0044 E9D9     		bls	.L53
 1431              	.L52:
 298:.\Encore.c    ****         }
 299:.\Encore.c    ****     }
 300:.\Encore.c    ****     return retval;
 1432              		.loc 1 300 0 is_stmt 1
 1433 0046 FB7B     		ldrb	r3, [r7, #15]	@ zero_extendqisi2
 301:.\Encore.c    **** }
 1434              		.loc 1 301 0
 1435 0048 1846     		mov	r0, r3
 1436 004a 1437     		adds	r7, r7, #20
 1437              		.cfi_def_cfa_offset 4
 1438 004c BD46     		mov	sp, r7
 1439              		.cfi_def_cfa_register 13
 1440              		@ sp needed
 1441 004e 5DF8047B 		ldr	r7, [sp], #4
 1442              		.cfi_restore 7
 1443              		.cfi_def_cfa_offset 0
 1444 0052 7047     		bx	lr
 1445              		.cfi_endproc
 1446              	.LFE74:
ARM GAS  C:\Users\RECEPC~1\AppData\Local\Temp\ccAtWeRe.s 			page 32


 1447              		.size	PumpTransactionalStateFind, .-PumpTransactionalStateFind
 1448              		.section	.text.PumpTransactionalStateAllocate,"ax",%progbits
 1449              		.align	2
 1450              		.global	PumpTransactionalStateAllocate
 1451              		.thumb
 1452              		.thumb_func
 1453              		.type	PumpTransactionalStateAllocate, %function
 1454              	PumpTransactionalStateAllocate:
 1455              	.LFB75:
 302:.\Encore.c    **** 
 303:.\Encore.c    **** //@Created By: HIJH
 304:.\Encore.c    **** //@Septembre de 2016
 305:.\Encore.c    **** PNEAR_PUMPTRANSACTIONALSTATEPTR PumpTransactionalStateAllocate(LPVOID pvthis)
 306:.\Encore.c    **** {
 1456              		.loc 1 306 0
 1457              		.cfi_startproc
 1458              		@ args = 0, pretend = 0, frame = 24
 1459              		@ frame_needed = 1, uses_anonymous_args = 0
 1460 0000 80B5     		push	{r7, lr}
 1461              		.cfi_def_cfa_offset 8
 1462              		.cfi_offset 7, -8
 1463              		.cfi_offset 14, -4
 1464 0002 86B0     		sub	sp, sp, #24
 1465              		.cfi_def_cfa_offset 32
 1466 0004 00AF     		add	r7, sp, #0
 1467              		.cfi_def_cfa_register 7
 1468 0006 7860     		str	r0, [r7, #4]
 307:.\Encore.c    ****     PNEAR_PUMPPTR pthispump = (PNEAR_PUMPPTR)pvthis;
 1469              		.loc 1 307 0
 1470 0008 7B68     		ldr	r3, [r7, #4]
 1471 000a FB60     		str	r3, [r7, #12]
 308:.\Encore.c    ****     PNEAR_PUMPTRANSACTIONALSTATEPTR pretval = PNEAR_NULLPTR;
 1472              		.loc 1 308 0
 1473 000c 0023     		movs	r3, #0
 1474 000e 7B61     		str	r3, [r7, #20]
 309:.\Encore.c    **** 
 310:.\Encore.c    ****     //IF A SLOT COULDN'T BE ALLOCATED, THEN THE STATE WILL BE LOST!! 
 311:.\Encore.c    ****     //THIS REQUIRES A FAST POLLING FROM THE REMOTE PEER
 312:.\Encore.c    ****     //TO PICK UP CAUSAL STATES QUICKLY!!
 313:.\Encore.c    ****     FOR(uint8 index = 0, index < _PUMP_MAX_QUEUE_TRANSTATES_, index++)
 1475              		.loc 1 313 0
 1476 0010 0023     		movs	r3, #0
 1477 0012 FB74     		strb	r3, [r7, #19]
 1478 0014 35E0     		b	.L56
 1479              	.L59:
 314:.\Encore.c    ****     {
 315:.\Encore.c    ****         if(pthispump->_transqueue[index]._state == _PUMP_TRANSTATE_FREE_)
 1480              		.loc 1 315 0
 1481 0016 FA7C     		ldrb	r2, [r7, #19]	@ zero_extendqisi2
 1482 0018 F968     		ldr	r1, [r7, #12]
 1483 001a 1346     		mov	r3, r2
 1484 001c 9B01     		lsls	r3, r3, #6
 1485 001e 1344     		add	r3, r3, r2
 1486 0020 9B00     		lsls	r3, r3, #2
 1487 0022 0B44     		add	r3, r3, r1
 1488 0024 03F54873 		add	r3, r3, #800
 1489 0028 9B78     		ldrb	r3, [r3, #2]	@ zero_extendqisi2
ARM GAS  C:\Users\RECEPC~1\AppData\Local\Temp\ccAtWeRe.s 			page 33


 1490 002a 002B     		cmp	r3, #0
 1491 002c 26D1     		bne	.L57
 316:.\Encore.c    ****         {
 317:.\Encore.c    ****             memset(pthispump->_transqueue[index]._buffer, 0x00, _PUMP_TRANSTATE_BUFFER_SIZE_);
 1492              		.loc 1 317 0
 1493 002e FA7C     		ldrb	r2, [r7, #19]	@ zero_extendqisi2
 1494 0030 1346     		mov	r3, r2
 1495 0032 9B01     		lsls	r3, r3, #6
 1496 0034 1344     		add	r3, r3, r2
 1497 0036 9B00     		lsls	r3, r3, #2
 1498 0038 03F54873 		add	r3, r3, #800
 1499 003c FA68     		ldr	r2, [r7, #12]
 1500 003e 1344     		add	r3, r3, r2
 1501 0040 0433     		adds	r3, r3, #4
 1502 0042 1846     		mov	r0, r3
 1503 0044 0021     		movs	r1, #0
 1504 0046 4FF48072 		mov	r2, #256
 1505 004a FFF7FEFF 		bl	memset
 318:.\Encore.c    ****             pthispump->_transqueue[index]._state = _PUMP_TRANSTATE_ALLOCATED_;
 1506              		.loc 1 318 0
 1507 004e FA7C     		ldrb	r2, [r7, #19]	@ zero_extendqisi2
 1508 0050 F968     		ldr	r1, [r7, #12]
 1509 0052 1346     		mov	r3, r2
 1510 0054 9B01     		lsls	r3, r3, #6
 1511 0056 1344     		add	r3, r3, r2
 1512 0058 9B00     		lsls	r3, r3, #2
 1513 005a 0B44     		add	r3, r3, r1
 1514 005c 03F54873 		add	r3, r3, #800
 1515 0060 0122     		movs	r2, #1
 1516 0062 9A70     		strb	r2, [r3, #2]
 319:.\Encore.c    ****             pretval = &(pthispump->_transqueue[index]);
 1517              		.loc 1 319 0
 1518 0064 FA7C     		ldrb	r2, [r7, #19]	@ zero_extendqisi2
 1519 0066 1346     		mov	r3, r2
 1520 0068 9B01     		lsls	r3, r3, #6
 1521 006a 1344     		add	r3, r3, r2
 1522 006c 9B00     		lsls	r3, r3, #2
 1523 006e 03F54873 		add	r3, r3, #800
 1524 0072 FA68     		ldr	r2, [r7, #12]
 1525 0074 1344     		add	r3, r3, r2
 1526 0076 0233     		adds	r3, r3, #2
 1527 0078 7B61     		str	r3, [r7, #20]
 320:.\Encore.c    ****             break;
 1528              		.loc 1 320 0
 1529 007a 05E0     		b	.L58
 1530              	.L57:
 313:.\Encore.c    ****     {
 1531              		.loc 1 313 0 discriminator 2
 1532 007c FB7C     		ldrb	r3, [r7, #19]	@ zero_extendqisi2
 1533 007e 0133     		adds	r3, r3, #1
 1534 0080 FB74     		strb	r3, [r7, #19]
 1535              	.L56:
 313:.\Encore.c    ****     {
 1536              		.loc 1 313 0 is_stmt 0 discriminator 1
 1537 0082 FB7C     		ldrb	r3, [r7, #19]	@ zero_extendqisi2
 1538 0084 072B     		cmp	r3, #7
 1539 0086 C6D9     		bls	.L59
ARM GAS  C:\Users\RECEPC~1\AppData\Local\Temp\ccAtWeRe.s 			page 34


 1540              	.L58:
 321:.\Encore.c    ****         }
 322:.\Encore.c    ****     }
 323:.\Encore.c    ****     return pretval;
 1541              		.loc 1 323 0 is_stmt 1
 1542 0088 7B69     		ldr	r3, [r7, #20]
 324:.\Encore.c    **** }
 1543              		.loc 1 324 0
 1544 008a 1846     		mov	r0, r3
 1545 008c 1837     		adds	r7, r7, #24
 1546              		.cfi_def_cfa_offset 8
 1547 008e BD46     		mov	sp, r7
 1548              		.cfi_def_cfa_register 13
 1549              		@ sp needed
 1550 0090 80BD     		pop	{r7, pc}
 1551              		.cfi_endproc
 1552              	.LFE75:
 1553              		.size	PumpTransactionalStateAllocate, .-PumpTransactionalStateAllocate
 1554              		.global	__aeabi_i2d
 1555              		.global	__aeabi_ddiv
 1556              		.global	__aeabi_d2uiz
 1557 0092 00BF     		.section	.text.PumpTransactionalStateLock,"ax",%progbits
 1558              		.align	2
 1559              		.global	PumpTransactionalStateLock
 1560              		.thumb
 1561              		.thumb_func
 1562              		.type	PumpTransactionalStateLock, %function
 1563              	PumpTransactionalStateLock:
 1564              	.LFB76:
 325:.\Encore.c    **** 
 326:.\Encore.c    **** void PumpTransactionalStateLock(LPVOID pvthis)
 327:.\Encore.c    **** {
 1565              		.loc 1 327 0
 1566              		.cfi_startproc
 1567              		@ args = 0, pretend = 0, frame = 16
 1568              		@ frame_needed = 1, uses_anonymous_args = 0
 1569 0000 80B5     		push	{r7, lr}
 1570              		.cfi_def_cfa_offset 8
 1571              		.cfi_offset 7, -8
 1572              		.cfi_offset 14, -4
 1573 0002 84B0     		sub	sp, sp, #16
 1574              		.cfi_def_cfa_offset 24
 1575 0004 00AF     		add	r7, sp, #0
 1576              		.cfi_def_cfa_register 7
 1577 0006 7860     		str	r0, [r7, #4]
 328:.\Encore.c    ****     PNEAR_PUMPPTR pthispump = (PNEAR_PUMPPTR)pvthis;
 1578              		.loc 1 328 0
 1579 0008 7B68     		ldr	r3, [r7, #4]
 1580 000a FB60     		str	r3, [r7, #12]
 1581              	.L62:
 329:.\Encore.c    ****     do
 330:.\Encore.c    ****     {
 331:.\Encore.c    ****         //This is to Desynchronize REENTRANT calls
 332:.\Encore.c    ****         CyDelayUs(5*(uint16)((double)rand()/(double)RAND_MAX) + 1);
 1582              		.loc 1 332 0 discriminator 1
 1583 000c FFF7FEFF 		bl	rand
 1584 0010 0346     		mov	r3, r0
ARM GAS  C:\Users\RECEPC~1\AppData\Local\Temp\ccAtWeRe.s 			page 35


 1585 0012 1846     		mov	r0, r3
 1586 0014 FFF7FEFF 		bl	__aeabi_i2d
 1587 0018 0246     		mov	r2, r0
 1588 001a 0B46     		mov	r3, r1
 1589 001c 1046     		mov	r0, r2
 1590 001e 1946     		mov	r1, r3
 1591 0020 11A3     		adr	r3, .L63
 1592 0022 D3E90023 		ldrd	r2, [r3]
 1593 0026 FFF7FEFF 		bl	__aeabi_ddiv
 1594 002a 0246     		mov	r2, r0
 1595 002c 0B46     		mov	r3, r1
 1596 002e 1046     		mov	r0, r2
 1597 0030 1946     		mov	r1, r3
 1598 0032 FFF7FEFF 		bl	__aeabi_d2uiz
 1599 0036 0346     		mov	r3, r0
 1600 0038 9BB2     		uxth	r3, r3
 1601 003a 1A46     		mov	r2, r3	@ movhi
 1602 003c 9200     		lsls	r2, r2, #2
 1603 003e 1344     		add	r3, r3, r2
 1604 0040 9BB2     		uxth	r3, r3
 1605 0042 0133     		adds	r3, r3, #1
 1606 0044 9BB2     		uxth	r3, r3
 1607 0046 1846     		mov	r0, r3
 1608 0048 FFF7FEFF 		bl	CyDelayUs
 333:.\Encore.c    ****     }
 334:.\Encore.c    ****     while(pthispump->_transqueuelocked);
 1609              		.loc 1 334 0 discriminator 1
 1610 004c FB68     		ldr	r3, [r7, #12]
 1611 004e 93F8423B 		ldrb	r3, [r3, #2882]
 1612 0052 DBB2     		uxtb	r3, r3
 1613 0054 002B     		cmp	r3, #0
 1614 0056 D9D1     		bne	.L62
 335:.\Encore.c    ****     //Transactional Queue Lock to avoid concurrent access to the Queue
 336:.\Encore.c    ****     pthispump->_transqueuelocked = true;
 1615              		.loc 1 336 0
 1616 0058 FB68     		ldr	r3, [r7, #12]
 1617 005a 0122     		movs	r2, #1
 1618 005c 83F8422B 		strb	r2, [r3, #2882]
 337:.\Encore.c    **** }
 1619              		.loc 1 337 0
 1620 0060 1037     		adds	r7, r7, #16
 1621              		.cfi_def_cfa_offset 8
 1622 0062 BD46     		mov	sp, r7
 1623              		.cfi_def_cfa_register 13
 1624              		@ sp needed
 1625 0064 80BD     		pop	{r7, pc}
 1626              	.L64:
 1627 0066 00BF     		.align	3
 1628              	.L63:
 1629 0068 0000C0FF 		.word	-4194304
 1630 006c FFFFDF41 		.word	1105199103
 1631              		.cfi_endproc
 1632              	.LFE76:
 1633              		.size	PumpTransactionalStateLock, .-PumpTransactionalStateLock
 1634              		.section	.text.PumpTransactionalStateUnlock,"ax",%progbits
 1635              		.align	2
 1636              		.global	PumpTransactionalStateUnlock
ARM GAS  C:\Users\RECEPC~1\AppData\Local\Temp\ccAtWeRe.s 			page 36


 1637              		.thumb
 1638              		.thumb_func
 1639              		.type	PumpTransactionalStateUnlock, %function
 1640              	PumpTransactionalStateUnlock:
 1641              	.LFB77:
 338:.\Encore.c    **** 
 339:.\Encore.c    **** void PumpTransactionalStateUnlock(LPVOID pvthis)
 340:.\Encore.c    **** {
 1642              		.loc 1 340 0
 1643              		.cfi_startproc
 1644              		@ args = 0, pretend = 0, frame = 16
 1645              		@ frame_needed = 1, uses_anonymous_args = 0
 1646              		@ link register save eliminated.
 1647 0000 80B4     		push	{r7}
 1648              		.cfi_def_cfa_offset 4
 1649              		.cfi_offset 7, -4
 1650 0002 85B0     		sub	sp, sp, #20
 1651              		.cfi_def_cfa_offset 24
 1652 0004 00AF     		add	r7, sp, #0
 1653              		.cfi_def_cfa_register 7
 1654 0006 7860     		str	r0, [r7, #4]
 341:.\Encore.c    ****     PNEAR_PUMPPTR pthispump = (PNEAR_PUMPPTR)pvthis;
 1655              		.loc 1 341 0
 1656 0008 7B68     		ldr	r3, [r7, #4]
 1657 000a FB60     		str	r3, [r7, #12]
 342:.\Encore.c    ****     pthispump->_transqueuelocked = false;
 1658              		.loc 1 342 0
 1659 000c FB68     		ldr	r3, [r7, #12]
 1660 000e 0022     		movs	r2, #0
 1661 0010 83F8422B 		strb	r2, [r3, #2882]
 343:.\Encore.c    **** }
 1662              		.loc 1 343 0
 1663 0014 1437     		adds	r7, r7, #20
 1664              		.cfi_def_cfa_offset 4
 1665 0016 BD46     		mov	sp, r7
 1666              		.cfi_def_cfa_register 13
 1667              		@ sp needed
 1668 0018 5DF8047B 		ldr	r7, [sp], #4
 1669              		.cfi_restore 7
 1670              		.cfi_def_cfa_offset 0
 1671 001c 7047     		bx	lr
 1672              		.cfi_endproc
 1673              	.LFE77:
 1674              		.size	PumpTransactionalStateUnlock, .-PumpTransactionalStateUnlock
 1675 001e 00BF     		.section	.text.PumpCleanUp,"ax",%progbits
 1676              		.align	2
 1677              		.global	PumpCleanUp
 1678              		.thumb
 1679              		.thumb_func
 1680              		.type	PumpCleanUp, %function
 1681              	PumpCleanUp:
 1682              	.LFB78:
 344:.\Encore.c    ****     
 345:.\Encore.c    **** 
 346:.\Encore.c    **** //@Created By: HIJH
 347:.\Encore.c    **** //@Septembre de 2016
 348:.\Encore.c    **** void PumpCleanUp(LPVOID pparam)
ARM GAS  C:\Users\RECEPC~1\AppData\Local\Temp\ccAtWeRe.s 			page 37


 349:.\Encore.c    **** {
 1683              		.loc 1 349 0
 1684              		.cfi_startproc
 1685              		@ args = 0, pretend = 0, frame = 16
 1686              		@ frame_needed = 1, uses_anonymous_args = 0
 1687              		@ link register save eliminated.
 1688 0000 80B4     		push	{r7}
 1689              		.cfi_def_cfa_offset 4
 1690              		.cfi_offset 7, -4
 1691 0002 85B0     		sub	sp, sp, #20
 1692              		.cfi_def_cfa_offset 24
 1693 0004 00AF     		add	r7, sp, #0
 1694              		.cfi_def_cfa_register 7
 1695 0006 7860     		str	r0, [r7, #4]
 350:.\Encore.c    ****     PNEAR_PUMPPTR ppump = (PNEAR_PUMPPTR)pparam;
 1696              		.loc 1 350 0
 1697 0008 7B68     		ldr	r3, [r7, #4]
 1698 000a FB60     		str	r3, [r7, #12]
 351:.\Encore.c    ****     
 352:.\Encore.c    ****     ppump->_datacontainer._var0 = 0x00;
 1699              		.loc 1 352 0
 1700 000c FB68     		ldr	r3, [r7, #12]
 1701 000e 0022     		movs	r2, #0
 1702 0010 83F8682B 		strb	r2, [r3, #2920]
 353:.\Encore.c    ****     ppump->_datacontainer._var1 = 0x00;
 1703              		.loc 1 353 0
 1704 0014 FB68     		ldr	r3, [r7, #12]
 1705 0016 0022     		movs	r2, #0
 1706 0018 83F8692B 		strb	r2, [r3, #2921]
 354:.\Encore.c    ****     ppump->_datacontainer._var2 = 0x0000;
 1707              		.loc 1 354 0
 1708 001c FB68     		ldr	r3, [r7, #12]
 1709 001e 0022     		movs	r2, #0
 1710 0020 A3F86A2B 		strh	r2, [r3, #2922]	@ movhi
 355:.\Encore.c    ****     ppump->_datacontainer._var3 = 0x0000;
 1711              		.loc 1 355 0
 1712 0024 FB68     		ldr	r3, [r7, #12]
 1713 0026 0022     		movs	r2, #0
 1714 0028 A3F86C2B 		strh	r2, [r3, #2924]	@ movhi
 356:.\Encore.c    ****     ppump->_datacontainer._var4 = 0x00000000;
 1715              		.loc 1 356 0
 1716 002c FB68     		ldr	r3, [r7, #12]
 1717 002e 0022     		movs	r2, #0
 1718 0030 C3F8702B 		str	r2, [r3, #2928]
 357:.\Encore.c    ****     ppump->_datacontainer._var5 = 0x00000000;
 1719              		.loc 1 357 0
 1720 0034 FB68     		ldr	r3, [r7, #12]
 1721 0036 0022     		movs	r2, #0
 1722 0038 C3F8742B 		str	r2, [r3, #2932]
 358:.\Encore.c    ****     ppump->_datacontainer._var6 = 0x0000000000000000;
 1723              		.loc 1 358 0
 1724 003c FB68     		ldr	r3, [r7, #12]
 1725 003e 03F67831 		addw	r1, r3, #2936
 1726 0042 4FF00002 		mov	r2, #0
 1727 0046 4FF00003 		mov	r3, #0
 1728 004a C1E90023 		strd	r2, [r1]
 359:.\Encore.c    ****     ppump->_datacontainer._var7 = 0x0000000000000000;
ARM GAS  C:\Users\RECEPC~1\AppData\Local\Temp\ccAtWeRe.s 			page 38


 1729              		.loc 1 359 0
 1730 004e FB68     		ldr	r3, [r7, #12]
 1731 0050 03F53861 		add	r1, r3, #2944
 1732 0054 4FF00002 		mov	r2, #0
 1733 0058 4FF00003 		mov	r3, #0
 1734 005c C1E90023 		strd	r2, [r1]
 360:.\Encore.c    ****     ppump->_datacontainer._var8 = 0x0000000000000000;
 1735              		.loc 1 360 0
 1736 0060 FB68     		ldr	r3, [r7, #12]
 1737 0062 03F68831 		addw	r1, r3, #2952
 1738 0066 4FF00002 		mov	r2, #0
 1739 006a 4FF00003 		mov	r3, #0
 1740 006e C1E90023 		strd	r2, [r1]
 361:.\Encore.c    ****     ppump->_datacontainer._var9 = 0x0000000000000000;
 1741              		.loc 1 361 0
 1742 0072 FB68     		ldr	r3, [r7, #12]
 1743 0074 03F53961 		add	r1, r3, #2960
 1744 0078 4FF00002 		mov	r2, #0
 1745 007c 4FF00003 		mov	r3, #0
 1746 0080 C1E90023 		strd	r2, [r1]
 362:.\Encore.c    ****     ppump->_datacontainer._varA = 0.0;
 1747              		.loc 1 362 0
 1748 0084 FB68     		ldr	r3, [r7, #12]
 1749 0086 03F69831 		addw	r1, r3, #2968
 1750 008a 4FF00002 		mov	r2, #0
 1751 008e 4FF00003 		mov	r3, #0
 1752 0092 C1E90023 		strd	r2, [r1]
 363:.\Encore.c    ****     ppump->_datacontainer._varB = 0.0;
 1753              		.loc 1 363 0
 1754 0096 FB68     		ldr	r3, [r7, #12]
 1755 0098 03F53A61 		add	r1, r3, #2976
 1756 009c 4FF00002 		mov	r2, #0
 1757 00a0 4FF00003 		mov	r3, #0
 1758 00a4 C1E90023 		strd	r2, [r1]
 364:.\Encore.c    **** }
 1759              		.loc 1 364 0
 1760 00a8 1437     		adds	r7, r7, #20
 1761              		.cfi_def_cfa_offset 4
 1762 00aa BD46     		mov	sp, r7
 1763              		.cfi_def_cfa_register 13
 1764              		@ sp needed
 1765 00ac 5DF8047B 		ldr	r7, [sp], #4
 1766              		.cfi_restore 7
 1767              		.cfi_def_cfa_offset 0
 1768 00b0 7047     		bx	lr
 1769              		.cfi_endproc
 1770              	.LFE78:
 1771              		.size	PumpCleanUp, .-PumpCleanUp
 1772 00b2 00BF     		.text
 1773              	.Letext0:
 1774              		.file 2 "c:\\program files (x86)\\cypress\\psoc creator\\3.3\\psoc creator\\import\\gnu\\arm\\4.9.
 1775              		.file 3 "c:\\program files (x86)\\cypress\\psoc creator\\3.3\\psoc creator\\import\\gnu\\arm\\4.9.
 1776              		.file 4 "Generated_Source\\PSoC5/cytypes.h"
 1777              		.file 5 ".\\GlobalDefinitions.h"
 1778              		.file 6 ".\\Encore.h"
 1779              		.file 7 ".\\Dispenser.h"
 1780              		.file 8 ".\\RFLink.h"
ARM GAS  C:\Users\RECEPC~1\AppData\Local\Temp\ccAtWeRe.s 			page 39


 1781              		.file 9 "Generated_Source\\PSoC5/core_cm3.h"
 1782              		.section	.debug_info,"",%progbits
 1783              	.Ldebug_info0:
 1784 0000 830F0000 		.4byte	0xf83
 1785 0004 0400     		.2byte	0x4
 1786 0006 00000000 		.4byte	.Ldebug_abbrev0
 1787 000a 04       		.byte	0x4
 1788 000b 01       		.uleb128 0x1
 1789 000c 75070000 		.4byte	.LASF230
 1790 0010 01       		.byte	0x1
 1791 0011 120D0000 		.4byte	.LASF231
 1792 0015 EC080000 		.4byte	.LASF232
 1793 0019 00000000 		.4byte	.Ldebug_ranges0+0
 1794 001d 00000000 		.4byte	0
 1795 0021 00000000 		.4byte	.Ldebug_line0
 1796 0025 02       		.uleb128 0x2
 1797 0026 01       		.byte	0x1
 1798 0027 06       		.byte	0x6
 1799 0028 D6010000 		.4byte	.LASF0
 1800 002c 02       		.uleb128 0x2
 1801 002d 01       		.byte	0x1
 1802 002e 08       		.byte	0x8
 1803 002f 59090000 		.4byte	.LASF1
 1804 0033 02       		.uleb128 0x2
 1805 0034 02       		.byte	0x2
 1806 0035 05       		.byte	0x5
 1807 0036 D4050000 		.4byte	.LASF2
 1808 003a 02       		.uleb128 0x2
 1809 003b 02       		.byte	0x2
 1810 003c 07       		.byte	0x7
 1811 003d 1F050000 		.4byte	.LASF3
 1812 0041 03       		.uleb128 0x3
 1813 0042 430B0000 		.4byte	.LASF9
 1814 0046 02       		.byte	0x2
 1815 0047 3F       		.byte	0x3f
 1816 0048 4C000000 		.4byte	0x4c
 1817 004c 02       		.uleb128 0x2
 1818 004d 04       		.byte	0x4
 1819 004e 05       		.byte	0x5
 1820 004f BD020000 		.4byte	.LASF4
 1821 0053 02       		.uleb128 0x2
 1822 0054 04       		.byte	0x4
 1823 0055 07       		.byte	0x7
 1824 0056 F20A0000 		.4byte	.LASF5
 1825 005a 02       		.uleb128 0x2
 1826 005b 08       		.byte	0x8
 1827 005c 05       		.byte	0x5
 1828 005d C8010000 		.4byte	.LASF6
 1829 0061 02       		.uleb128 0x2
 1830 0062 08       		.byte	0x8
 1831 0063 07       		.byte	0x7
 1832 0064 1A020000 		.4byte	.LASF7
 1833 0068 04       		.uleb128 0x4
 1834 0069 04       		.byte	0x4
 1835 006a 05       		.byte	0x5
 1836 006b 696E7400 		.ascii	"int\000"
 1837 006f 02       		.uleb128 0x2
ARM GAS  C:\Users\RECEPC~1\AppData\Local\Temp\ccAtWeRe.s 			page 40


 1838 0070 04       		.byte	0x4
 1839 0071 07       		.byte	0x7
 1840 0072 23040000 		.4byte	.LASF8
 1841 0076 03       		.uleb128 0x3
 1842 0077 51090000 		.4byte	.LASF10
 1843 007b 03       		.byte	0x3
 1844 007c 2C       		.byte	0x2c
 1845 007d 41000000 		.4byte	0x41
 1846 0081 05       		.uleb128 0x5
 1847 0082 F5040000 		.4byte	.LASF11
 1848 0086 04       		.byte	0x4
 1849 0087 3801     		.2byte	0x138
 1850 0089 2C000000 		.4byte	0x2c
 1851 008d 05       		.uleb128 0x5
 1852 008e 67090000 		.4byte	.LASF12
 1853 0092 04       		.byte	0x4
 1854 0093 3901     		.2byte	0x139
 1855 0095 3A000000 		.4byte	0x3a
 1856 0099 05       		.uleb128 0x5
 1857 009a 98030000 		.4byte	.LASF13
 1858 009e 04       		.byte	0x4
 1859 009f 3A01     		.2byte	0x13a
 1860 00a1 53000000 		.4byte	0x53
 1861 00a5 02       		.uleb128 0x2
 1862 00a6 04       		.byte	0x4
 1863 00a7 04       		.byte	0x4
 1864 00a8 F60C0000 		.4byte	.LASF14
 1865 00ac 02       		.uleb128 0x2
 1866 00ad 08       		.byte	0x8
 1867 00ae 04       		.byte	0x4
 1868 00af 48030000 		.4byte	.LASF15
 1869 00b3 05       		.uleb128 0x5
 1870 00b4 BD090000 		.4byte	.LASF16
 1871 00b8 04       		.byte	0x4
 1872 00b9 4401     		.2byte	0x144
 1873 00bb 61000000 		.4byte	0x61
 1874 00bf 05       		.uleb128 0x5
 1875 00c0 4D0B0000 		.4byte	.LASF17
 1876 00c4 04       		.byte	0x4
 1877 00c5 4901     		.2byte	0x149
 1878 00c7 CB000000 		.4byte	0xcb
 1879 00cb 02       		.uleb128 0x2
 1880 00cc 01       		.byte	0x1
 1881 00cd 08       		.byte	0x8
 1882 00ce 040B0000 		.4byte	.LASF18
 1883 00d2 06       		.uleb128 0x6
 1884 00d3 81000000 		.4byte	0x81
 1885 00d7 06       		.uleb128 0x6
 1886 00d8 8D000000 		.4byte	0x8d
 1887 00dc 06       		.uleb128 0x6
 1888 00dd 99000000 		.4byte	0x99
 1889 00e1 02       		.uleb128 0x2
 1890 00e2 04       		.byte	0x4
 1891 00e3 07       		.byte	0x7
 1892 00e4 84060000 		.4byte	.LASF19
 1893 00e8 07       		.uleb128 0x7
 1894 00e9 04       		.byte	0x4
ARM GAS  C:\Users\RECEPC~1\AppData\Local\Temp\ccAtWeRe.s 			page 41


 1895 00ea 08       		.uleb128 0x8
 1896 00eb 81000000 		.4byte	0x81
 1897 00ef FA000000 		.4byte	0xfa
 1898 00f3 09       		.uleb128 0x9
 1899 00f4 E1000000 		.4byte	0xe1
 1900 00f8 03       		.byte	0x3
 1901 00f9 00       		.byte	0
 1902 00fa 02       		.uleb128 0x2
 1903 00fb 08       		.byte	0x8
 1904 00fc 04       		.byte	0x4
 1905 00fd 8D060000 		.4byte	.LASF20
 1906 0101 03       		.uleb128 0x3
 1907 0102 520C0000 		.4byte	.LASF21
 1908 0106 05       		.byte	0x5
 1909 0107 29       		.byte	0x29
 1910 0108 E8000000 		.4byte	0xe8
 1911 010c 0A       		.uleb128 0xa
 1912 010d CF0A0000 		.4byte	.LASF27
 1913 0111 01       		.byte	0x1
 1914 0112 06       		.byte	0x6
 1915 0113 6D       		.byte	0x6d
 1916 0114 3C010000 		.4byte	0x13c
 1917 0118 0B       		.uleb128 0xb
 1918 0119 31020000 		.4byte	.LASF22
 1919 011d E001     		.sleb128 224
 1920 011f 0B       		.uleb128 0xb
 1921 0120 37020000 		.4byte	.LASF23
 1922 0124 E101     		.sleb128 225
 1923 0126 0B       		.uleb128 0xb
 1924 0127 3D020000 		.4byte	.LASF24
 1925 012b E201     		.sleb128 226
 1926 012d 0B       		.uleb128 0xb
 1927 012e 43020000 		.4byte	.LASF25
 1928 0132 E301     		.sleb128 227
 1929 0134 0B       		.uleb128 0xb
 1930 0135 B9030000 		.4byte	.LASF26
 1931 0139 FF01     		.sleb128 255
 1932 013b 00       		.byte	0
 1933 013c 0A       		.uleb128 0xa
 1934 013d AC050000 		.4byte	.LASF28
 1935 0141 01       		.byte	0x1
 1936 0142 06       		.byte	0x6
 1937 0143 9A       		.byte	0x9a
 1938 0144 86010000 		.4byte	0x186
 1939 0148 0B       		.uleb128 0xb
 1940 0149 4F030000 		.4byte	.LASF29
 1941 014d 00       		.sleb128 0
 1942 014e 0B       		.uleb128 0xb
 1943 014f 8E050000 		.4byte	.LASF30
 1944 0153 06       		.sleb128 6
 1945 0154 0B       		.uleb128 0xb
 1946 0155 53070000 		.4byte	.LASF31
 1947 0159 07       		.sleb128 7
 1948 015a 0B       		.uleb128 0xb
 1949 015b FF020000 		.4byte	.LASF32
 1950 015f 08       		.sleb128 8
 1951 0160 0B       		.uleb128 0xb
ARM GAS  C:\Users\RECEPC~1\AppData\Local\Temp\ccAtWeRe.s 			page 42


 1952 0161 D4000000 		.4byte	.LASF33
 1953 0165 09       		.sleb128 9
 1954 0166 0B       		.uleb128 0xb
 1955 0167 780C0000 		.4byte	.LASF34
 1956 016b 0A       		.sleb128 10
 1957 016c 0B       		.uleb128 0xb
 1958 016d B10D0000 		.4byte	.LASF35
 1959 0171 0B       		.sleb128 11
 1960 0172 0B       		.uleb128 0xb
 1961 0173 D8020000 		.4byte	.LASF36
 1962 0177 0C       		.sleb128 12
 1963 0178 0B       		.uleb128 0xb
 1964 0179 FC090000 		.4byte	.LASF37
 1965 017d 0D       		.sleb128 13
 1966 017e 0B       		.uleb128 0xb
 1967 017f 4F060000 		.4byte	.LASF38
 1968 0183 FF01     		.sleb128 255
 1969 0185 00       		.byte	0
 1970 0186 0C       		.uleb128 0xc
 1971 0187 EA0B0000 		.4byte	.LASF39
 1972 018b 01       		.byte	0x1
 1973 018c 06       		.byte	0x6
 1974 018d 0201     		.2byte	0x102
 1975 018f A6010000 		.4byte	0x1a6
 1976 0193 0B       		.uleb128 0xb
 1977 0194 03080000 		.4byte	.LASF40
 1978 0198 01       		.sleb128 1
 1979 0199 0B       		.uleb128 0xb
 1980 019a 11060000 		.4byte	.LASF41
 1981 019e 02       		.sleb128 2
 1982 019f 0B       		.uleb128 0xb
 1983 01a0 89030000 		.4byte	.LASF42
 1984 01a4 03       		.sleb128 3
 1985 01a5 00       		.byte	0
 1986 01a6 0C       		.uleb128 0xc
 1987 01a7 760D0000 		.4byte	.LASF43
 1988 01ab 01       		.byte	0x1
 1989 01ac 06       		.byte	0x6
 1990 01ad 0901     		.2byte	0x109
 1991 01af C0010000 		.4byte	0x1c0
 1992 01b3 0B       		.uleb128 0xb
 1993 01b4 76040000 		.4byte	.LASF44
 1994 01b8 01       		.sleb128 1
 1995 01b9 0B       		.uleb128 0xb
 1996 01ba 3F040000 		.4byte	.LASF45
 1997 01be 02       		.sleb128 2
 1998 01bf 00       		.byte	0
 1999 01c0 0C       		.uleb128 0xc
 2000 01c1 38010000 		.4byte	.LASF46
 2001 01c5 01       		.byte	0x1
 2002 01c6 06       		.byte	0x6
 2003 01c7 0F01     		.2byte	0x10f
 2004 01c9 DA010000 		.4byte	0x1da
 2005 01cd 0B       		.uleb128 0xb
 2006 01ce 38050000 		.4byte	.LASF47
 2007 01d2 01       		.sleb128 1
 2008 01d3 0B       		.uleb128 0xb
ARM GAS  C:\Users\RECEPC~1\AppData\Local\Temp\ccAtWeRe.s 			page 43


 2009 01d4 DC040000 		.4byte	.LASF48
 2010 01d8 02       		.sleb128 2
 2011 01d9 00       		.byte	0
 2012 01da 0C       		.uleb128 0xc
 2013 01db 2B0D0000 		.4byte	.LASF49
 2014 01df 01       		.byte	0x1
 2015 01e0 06       		.byte	0x6
 2016 01e1 1501     		.2byte	0x115
 2017 01e3 FA010000 		.4byte	0x1fa
 2018 01e7 0B       		.uleb128 0xb
 2019 01e8 CF060000 		.4byte	.LASF50
 2020 01ec 00       		.sleb128 0
 2021 01ed 0B       		.uleb128 0xb
 2022 01ee DB0C0000 		.4byte	.LASF51
 2023 01f2 01       		.sleb128 1
 2024 01f3 0B       		.uleb128 0xb
 2025 01f4 130C0000 		.4byte	.LASF52
 2026 01f8 02       		.sleb128 2
 2027 01f9 00       		.byte	0
 2028 01fa 0D       		.uleb128 0xd
 2029 01fb 0401     		.2byte	0x104
 2030 01fd 06       		.byte	0x6
 2031 01fe 1C01     		.2byte	0x11c
 2032 0200 3A020000 		.4byte	0x23a
 2033 0204 0E       		.uleb128 0xe
 2034 0205 86020000 		.4byte	.LASF53
 2035 0209 06       		.byte	0x6
 2036 020a 1E01     		.2byte	0x11e
 2037 020c 81000000 		.4byte	0x81
 2038 0210 00       		.byte	0
 2039 0211 0E       		.uleb128 0xe
 2040 0212 87040000 		.4byte	.LASF54
 2041 0216 06       		.byte	0x6
 2042 0217 1F01     		.2byte	0x11f
 2043 0219 81000000 		.4byte	0x81
 2044 021d 01       		.byte	0x1
 2045 021e 0E       		.uleb128 0xe
 2046 021f 40030000 		.4byte	.LASF55
 2047 0223 06       		.byte	0x6
 2048 0224 2001     		.2byte	0x120
 2049 0226 3A020000 		.4byte	0x23a
 2050 022a 02       		.byte	0x2
 2051 022b 0F       		.uleb128 0xf
 2052 022c BA040000 		.4byte	.LASF56
 2053 0230 06       		.byte	0x6
 2054 0231 2101     		.2byte	0x121
 2055 0233 8D000000 		.4byte	0x8d
 2056 0237 0201     		.2byte	0x102
 2057 0239 00       		.byte	0
 2058 023a 08       		.uleb128 0x8
 2059 023b CB000000 		.4byte	0xcb
 2060 023f 4A020000 		.4byte	0x24a
 2061 0243 09       		.uleb128 0x9
 2062 0244 E1000000 		.4byte	0xe1
 2063 0248 FF       		.byte	0xff
 2064 0249 00       		.byte	0
 2065 024a 05       		.uleb128 0x5
ARM GAS  C:\Users\RECEPC~1\AppData\Local\Temp\ccAtWeRe.s 			page 44


 2066 024b 0F080000 		.4byte	.LASF57
 2067 024f 06       		.byte	0x6
 2068 0250 2301     		.2byte	0x123
 2069 0252 FA010000 		.4byte	0x1fa
 2070 0256 05       		.uleb128 0x5
 2071 0257 530B0000 		.4byte	.LASF58
 2072 025b 06       		.byte	0x6
 2073 025c 2301     		.2byte	0x123
 2074 025e 62020000 		.4byte	0x262
 2075 0262 10       		.uleb128 0x10
 2076 0263 04       		.byte	0x4
 2077 0264 FA010000 		.4byte	0x1fa
 2078 0268 11       		.uleb128 0x11
 2079 0269 40       		.byte	0x40
 2080 026a 06       		.byte	0x6
 2081 026b 2501     		.2byte	0x125
 2082 026d 0E030000 		.4byte	0x30e
 2083 0271 0E       		.uleb128 0xe
 2084 0272 7E0A0000 		.4byte	.LASF59
 2085 0276 06       		.byte	0x6
 2086 0277 2701     		.2byte	0x127
 2087 0279 D2000000 		.4byte	0xd2
 2088 027d 00       		.byte	0
 2089 027e 0E       		.uleb128 0xe
 2090 027f 840A0000 		.4byte	.LASF60
 2091 0283 06       		.byte	0x6
 2092 0284 2801     		.2byte	0x128
 2093 0286 D2000000 		.4byte	0xd2
 2094 028a 01       		.byte	0x1
 2095 028b 0E       		.uleb128 0xe
 2096 028c 8A0A0000 		.4byte	.LASF61
 2097 0290 06       		.byte	0x6
 2098 0291 2A01     		.2byte	0x12a
 2099 0293 D7000000 		.4byte	0xd7
 2100 0297 02       		.byte	0x2
 2101 0298 0E       		.uleb128 0xe
 2102 0299 900A0000 		.4byte	.LASF62
 2103 029d 06       		.byte	0x6
 2104 029e 2B01     		.2byte	0x12b
 2105 02a0 D7000000 		.4byte	0xd7
 2106 02a4 04       		.byte	0x4
 2107 02a5 0E       		.uleb128 0xe
 2108 02a6 B7090000 		.4byte	.LASF63
 2109 02aa 06       		.byte	0x6
 2110 02ab 2D01     		.2byte	0x12d
 2111 02ad DC000000 		.4byte	0xdc
 2112 02b1 08       		.byte	0x8
 2113 02b2 0E       		.uleb128 0xe
 2114 02b3 B40A0000 		.4byte	.LASF64
 2115 02b7 06       		.byte	0x6
 2116 02b8 2E01     		.2byte	0x12e
 2117 02ba DC000000 		.4byte	0xdc
 2118 02be 0C       		.byte	0xc
 2119 02bf 0E       		.uleb128 0xe
 2120 02c0 D1090000 		.4byte	.LASF65
 2121 02c4 06       		.byte	0x6
 2122 02c5 3301     		.2byte	0x133
ARM GAS  C:\Users\RECEPC~1\AppData\Local\Temp\ccAtWeRe.s 			page 45


 2123 02c7 0E030000 		.4byte	0x30e
 2124 02cb 10       		.byte	0x10
 2125 02cc 0E       		.uleb128 0xe
 2126 02cd C90A0000 		.4byte	.LASF66
 2127 02d1 06       		.byte	0x6
 2128 02d2 3401     		.2byte	0x134
 2129 02d4 0E030000 		.4byte	0x30e
 2130 02d8 18       		.byte	0x18
 2131 02d9 0E       		.uleb128 0xe
 2132 02da 34070000 		.4byte	.LASF67
 2133 02de 06       		.byte	0x6
 2134 02df 3501     		.2byte	0x135
 2135 02e1 0E030000 		.4byte	0x30e
 2136 02e5 20       		.byte	0x20
 2137 02e6 0E       		.uleb128 0xe
 2138 02e7 D90A0000 		.4byte	.LASF68
 2139 02eb 06       		.byte	0x6
 2140 02ec 3601     		.2byte	0x136
 2141 02ee 0E030000 		.4byte	0x30e
 2142 02f2 28       		.byte	0x28
 2143 02f3 0E       		.uleb128 0xe
 2144 02f4 3E0A0000 		.4byte	.LASF69
 2145 02f8 06       		.byte	0x6
 2146 02f9 3801     		.2byte	0x138
 2147 02fb 13030000 		.4byte	0x313
 2148 02ff 30       		.byte	0x30
 2149 0300 0E       		.uleb128 0xe
 2150 0301 090B0000 		.4byte	.LASF70
 2151 0305 06       		.byte	0x6
 2152 0306 3901     		.2byte	0x139
 2153 0308 13030000 		.4byte	0x313
 2154 030c 38       		.byte	0x38
 2155 030d 00       		.byte	0
 2156 030e 06       		.uleb128 0x6
 2157 030f B3000000 		.4byte	0xb3
 2158 0313 06       		.uleb128 0x6
 2159 0314 AC000000 		.4byte	0xac
 2160 0318 05       		.uleb128 0x5
 2161 0319 26080000 		.4byte	.LASF71
 2162 031d 06       		.byte	0x6
 2163 031e 3B01     		.2byte	0x13b
 2164 0320 68020000 		.4byte	0x268
 2165 0324 11       		.uleb128 0x11
 2166 0325 18       		.byte	0x18
 2167 0326 06       		.byte	0x6
 2168 0327 4301     		.2byte	0x143
 2169 0329 89030000 		.4byte	0x389
 2170 032d 0E       		.uleb128 0xe
 2171 032e E2010000 		.4byte	.LASF72
 2172 0332 06       		.byte	0x6
 2173 0333 4601     		.2byte	0x146
 2174 0335 89030000 		.4byte	0x389
 2175 0339 00       		.byte	0
 2176 033a 0E       		.uleb128 0xe
 2177 033b C60C0000 		.4byte	.LASF73
 2178 033f 06       		.byte	0x6
 2179 0340 4701     		.2byte	0x147
ARM GAS  C:\Users\RECEPC~1\AppData\Local\Temp\ccAtWeRe.s 			page 46


 2180 0342 D2000000 		.4byte	0xd2
 2181 0346 01       		.byte	0x1
 2182 0347 0E       		.uleb128 0xe
 2183 0348 7D080000 		.4byte	.LASF74
 2184 034c 06       		.byte	0x6
 2185 034d 4801     		.2byte	0x148
 2186 034f D2000000 		.4byte	0xd2
 2187 0353 02       		.byte	0x2
 2188 0354 0E       		.uleb128 0xe
 2189 0355 C1010000 		.4byte	.LASF75
 2190 0359 06       		.byte	0x6
 2191 035a 4901     		.2byte	0x149
 2192 035c D7000000 		.4byte	0xd7
 2193 0360 04       		.byte	0x4
 2194 0361 0E       		.uleb128 0xe
 2195 0362 E6000000 		.4byte	.LASF76
 2196 0366 06       		.byte	0x6
 2197 0367 4A01     		.2byte	0x14a
 2198 0369 DC000000 		.4byte	0xdc
 2199 036d 08       		.byte	0x8
 2200 036e 0E       		.uleb128 0xe
 2201 036f 76060000 		.4byte	.LASF77
 2202 0373 06       		.byte	0x6
 2203 0374 4B01     		.2byte	0x14b
 2204 0376 DC000000 		.4byte	0xdc
 2205 037a 0C       		.byte	0xc
 2206 037b 0E       		.uleb128 0xe
 2207 037c 52040000 		.4byte	.LASF78
 2208 0380 06       		.byte	0x6
 2209 0381 4C01     		.2byte	0x14c
 2210 0383 95030000 		.4byte	0x395
 2211 0387 10       		.byte	0x10
 2212 0388 00       		.byte	0
 2213 0389 06       		.uleb128 0x6
 2214 038a 8E030000 		.4byte	0x38e
 2215 038e 02       		.uleb128 0x2
 2216 038f 01       		.byte	0x1
 2217 0390 02       		.byte	0x2
 2218 0391 4B090000 		.4byte	.LASF79
 2219 0395 08       		.uleb128 0x8
 2220 0396 BF000000 		.4byte	0xbf
 2221 039a A5030000 		.4byte	0x3a5
 2222 039e 09       		.uleb128 0x9
 2223 039f E1000000 		.4byte	0xe1
 2224 03a3 07       		.byte	0x7
 2225 03a4 00       		.byte	0
 2226 03a5 05       		.uleb128 0x5
 2227 03a6 E5060000 		.4byte	.LASF80
 2228 03aa 06       		.byte	0x6
 2229 03ab 4E01     		.2byte	0x14e
 2230 03ad 24030000 		.4byte	0x324
 2231 03b1 12       		.uleb128 0x12
 2232 03b2 700A0000 		.4byte	.LASF116
 2233 03b6 C80B     		.2byte	0xbc8
 2234 03b8 06       		.byte	0x6
 2235 03b9 5101     		.2byte	0x151
 2236 03bb 96050000 		.4byte	0x596
ARM GAS  C:\Users\RECEPC~1\AppData\Local\Temp\ccAtWeRe.s 			page 47


 2237 03bf 0E       		.uleb128 0xe
 2238 03c0 DE000000 		.4byte	.LASF81
 2239 03c4 06       		.byte	0x6
 2240 03c5 5301     		.2byte	0x153
 2241 03c7 81000000 		.4byte	0x81
 2242 03cb 00       		.byte	0
 2243 03cc 0E       		.uleb128 0xe
 2244 03cd 170B0000 		.4byte	.LASF82
 2245 03d1 06       		.byte	0x6
 2246 03d2 5401     		.2byte	0x154
 2247 03d4 81000000 		.4byte	0x81
 2248 03d8 01       		.byte	0x1
 2249 03d9 0E       		.uleb128 0xe
 2250 03da 2D0B0000 		.4byte	.LASF83
 2251 03de 06       		.byte	0x6
 2252 03df 5601     		.2byte	0x156
 2253 03e1 D2000000 		.4byte	0xd2
 2254 03e5 02       		.byte	0x2
 2255 03e6 0E       		.uleb128 0xe
 2256 03e7 16040000 		.4byte	.LASF84
 2257 03eb 06       		.byte	0x6
 2258 03ec 5701     		.2byte	0x157
 2259 03ee D2000000 		.4byte	0xd2
 2260 03f2 03       		.byte	0x3
 2261 03f3 0E       		.uleb128 0xe
 2262 03f4 69030000 		.4byte	.LASF85
 2263 03f8 06       		.byte	0x6
 2264 03f9 5801     		.2byte	0x158
 2265 03fb D2000000 		.4byte	0xd2
 2266 03ff 04       		.byte	0x4
 2267 0400 0E       		.uleb128 0xe
 2268 0401 4C0A0000 		.4byte	.LASF86
 2269 0405 06       		.byte	0x6
 2270 0406 5901     		.2byte	0x159
 2271 0408 89030000 		.4byte	0x389
 2272 040c 05       		.byte	0x5
 2273 040d 0E       		.uleb128 0xe
 2274 040e E2010000 		.4byte	.LASF72
 2275 0412 06       		.byte	0x6
 2276 0413 5C01     		.2byte	0x15c
 2277 0415 89030000 		.4byte	0x389
 2278 0419 06       		.byte	0x6
 2279 041a 0E       		.uleb128 0xe
 2280 041b 1D0D0000 		.4byte	.LASF87
 2281 041f 06       		.byte	0x6
 2282 0420 5D01     		.2byte	0x15d
 2283 0422 89030000 		.4byte	0x389
 2284 0426 07       		.byte	0x7
 2285 0427 0E       		.uleb128 0xe
 2286 0428 F3020000 		.4byte	.LASF88
 2287 042c 06       		.byte	0x6
 2288 042d 5E01     		.2byte	0x15e
 2289 042f 89030000 		.4byte	0x389
 2290 0433 08       		.byte	0x8
 2291 0434 0E       		.uleb128 0xe
 2292 0435 C8050000 		.4byte	.LASF89
 2293 0439 06       		.byte	0x6
ARM GAS  C:\Users\RECEPC~1\AppData\Local\Temp\ccAtWeRe.s 			page 48


 2294 043a 5F01     		.2byte	0x15f
 2295 043c 89030000 		.4byte	0x389
 2296 0440 09       		.byte	0x9
 2297 0441 0E       		.uleb128 0xe
 2298 0442 42050000 		.4byte	.LASF90
 2299 0446 06       		.byte	0x6
 2300 0447 6001     		.2byte	0x160
 2301 0449 D2000000 		.4byte	0xd2
 2302 044d 0A       		.byte	0xa
 2303 044e 0E       		.uleb128 0xe
 2304 044f 92090000 		.4byte	.LASF91
 2305 0453 06       		.byte	0x6
 2306 0454 6101     		.2byte	0x161
 2307 0456 89030000 		.4byte	0x389
 2308 045a 0B       		.byte	0xb
 2309 045b 0E       		.uleb128 0xe
 2310 045c 6E090000 		.4byte	.LASF92
 2311 0460 06       		.byte	0x6
 2312 0461 6201     		.2byte	0x162
 2313 0463 D2000000 		.4byte	0xd2
 2314 0467 0C       		.byte	0xc
 2315 0468 0E       		.uleb128 0xe
 2316 0469 E9030000 		.4byte	.LASF93
 2317 046d 06       		.byte	0x6
 2318 046e 6401     		.2byte	0x164
 2319 0470 89030000 		.4byte	0x389
 2320 0474 0D       		.byte	0xd
 2321 0475 0E       		.uleb128 0xe
 2322 0476 73000000 		.4byte	.LASF94
 2323 047a 06       		.byte	0x6
 2324 047b 6601     		.2byte	0x166
 2325 047d DC000000 		.4byte	0xdc
 2326 0481 10       		.byte	0x10
 2327 0482 0E       		.uleb128 0xe
 2328 0483 6D080000 		.4byte	.LASF95
 2329 0487 06       		.byte	0x6
 2330 0488 6701     		.2byte	0x167
 2331 048a DC000000 		.4byte	0xdc
 2332 048e 14       		.byte	0x14
 2333 048f 0E       		.uleb128 0xe
 2334 0490 57000000 		.4byte	.LASF96
 2335 0494 06       		.byte	0x6
 2336 0495 6A01     		.2byte	0x16a
 2337 0497 D2000000 		.4byte	0xd2
 2338 049b 18       		.byte	0x18
 2339 049c 0E       		.uleb128 0xe
 2340 049d 87040000 		.4byte	.LASF54
 2341 04a1 06       		.byte	0x6
 2342 04a2 6B01     		.2byte	0x16b
 2343 04a4 D2000000 		.4byte	0xd2
 2344 04a8 19       		.byte	0x19
 2345 04a9 0E       		.uleb128 0xe
 2346 04aa 47080000 		.4byte	.LASF97
 2347 04ae 06       		.byte	0x6
 2348 04af 6D01     		.2byte	0x16d
 2349 04b1 E8000000 		.4byte	0xe8
 2350 04b5 1C       		.byte	0x1c
ARM GAS  C:\Users\RECEPC~1\AppData\Local\Temp\ccAtWeRe.s 			page 49


 2351 04b6 0E       		.uleb128 0xe
 2352 04b7 A7030000 		.4byte	.LASF98
 2353 04bb 06       		.byte	0x6
 2354 04bc 6E01     		.2byte	0x16e
 2355 04be 96050000 		.4byte	0x596
 2356 04c2 20       		.byte	0x20
 2357 04c3 0F       		.uleb128 0xf
 2358 04c4 53050000 		.4byte	.LASF99
 2359 04c8 06       		.byte	0x6
 2360 04c9 7001     		.2byte	0x170
 2361 04cb 96050000 		.4byte	0x596
 2362 04cf A001     		.2byte	0x1a0
 2363 04d1 0F       		.uleb128 0xf
 2364 04d2 25010000 		.4byte	.LASF100
 2365 04d6 06       		.byte	0x6
 2366 04d7 7101     		.2byte	0x171
 2367 04d9 8D000000 		.4byte	0x8d
 2368 04dd 2003     		.2byte	0x320
 2369 04df 0F       		.uleb128 0xf
 2370 04e0 DE050000 		.4byte	.LASF101
 2371 04e4 06       		.byte	0x6
 2372 04e5 7501     		.2byte	0x175
 2373 04e7 A7050000 		.4byte	0x5a7
 2374 04eb 2203     		.2byte	0x322
 2375 04ed 0F       		.uleb128 0xf
 2376 04ee D7030000 		.4byte	.LASF102
 2377 04f2 06       		.byte	0x6
 2378 04f3 7701     		.2byte	0x177
 2379 04f5 89030000 		.4byte	0x389
 2380 04f9 420B     		.2byte	0xb42
 2381 04fb 0F       		.uleb128 0xf
 2382 04fc 900C0000 		.4byte	.LASF103
 2383 0500 06       		.byte	0x6
 2384 0501 7901     		.2byte	0x179
 2385 0503 C2050000 		.4byte	0x5c2
 2386 0507 440B     		.2byte	0xb44
 2387 0509 0F       		.uleb128 0xf
 2388 050a 60070000 		.4byte	.LASF104
 2389 050e 06       		.byte	0x6
 2390 050f 7A01     		.2byte	0x17a
 2391 0511 C2050000 		.4byte	0x5c2
 2392 0515 480B     		.2byte	0xb48
 2393 0517 0F       		.uleb128 0xf
 2394 0518 3C060000 		.4byte	.LASF105
 2395 051c 06       		.byte	0x6
 2396 051d 7B01     		.2byte	0x17b
 2397 051f DC050000 		.4byte	0x5dc
 2398 0523 4C0B     		.2byte	0xb4c
 2399 0525 0F       		.uleb128 0xf
 2400 0526 C6040000 		.4byte	.LASF106
 2401 052a 06       		.byte	0x6
 2402 052b 7C01     		.2byte	0x17c
 2403 052d F2050000 		.4byte	0x5f2
 2404 0531 500B     		.2byte	0xb50
 2405 0533 0F       		.uleb128 0xf
 2406 0534 5F010000 		.4byte	.LASF107
 2407 0538 06       		.byte	0x6
ARM GAS  C:\Users\RECEPC~1\AppData\Local\Temp\ccAtWeRe.s 			page 50


 2408 0539 7D01     		.2byte	0x17d
 2409 053b F2050000 		.4byte	0x5f2
 2410 053f 540B     		.2byte	0xb54
 2411 0541 0F       		.uleb128 0xf
 2412 0542 33000000 		.4byte	.LASF108
 2413 0546 06       		.byte	0x6
 2414 0547 7E01     		.2byte	0x17e
 2415 0549 07060000 		.4byte	0x607
 2416 054d 580B     		.2byte	0xb58
 2417 054f 0F       		.uleb128 0xf
 2418 0550 8E0D0000 		.4byte	.LASF109
 2419 0554 06       		.byte	0x6
 2420 0555 7F01     		.2byte	0x17f
 2421 0557 07060000 		.4byte	0x607
 2422 055b 5C0B     		.2byte	0xb5c
 2423 055d 0F       		.uleb128 0xf
 2424 055e 82000000 		.4byte	.LASF110
 2425 0562 06       		.byte	0x6
 2426 0563 8101     		.2byte	0x181
 2427 0565 1C060000 		.4byte	0x61c
 2428 0569 600B     		.2byte	0xb60
 2429 056b 0F       		.uleb128 0xf
 2430 056c 38080000 		.4byte	.LASF111
 2431 0570 06       		.byte	0x6
 2432 0571 8301     		.2byte	0x183
 2433 0573 18030000 		.4byte	0x318
 2434 0577 680B     		.2byte	0xb68
 2435 0579 0F       		.uleb128 0xf
 2436 057a A30C0000 		.4byte	.LASF112
 2437 057e 06       		.byte	0x6
 2438 057f 8401     		.2byte	0x184
 2439 0581 A5030000 		.4byte	0x3a5
 2440 0585 A80B     		.2byte	0xba8
 2441 0587 0F       		.uleb128 0xf
 2442 0588 9F030000 		.4byte	.LASF113
 2443 058c 06       		.byte	0x6
 2444 058d 8601     		.2byte	0x186
 2445 058f C2050000 		.4byte	0x5c2
 2446 0593 C00B     		.2byte	0xbc0
 2447 0595 00       		.byte	0
 2448 0596 08       		.uleb128 0x8
 2449 0597 BF000000 		.4byte	0xbf
 2450 059b A7050000 		.4byte	0x5a7
 2451 059f 13       		.uleb128 0x13
 2452 05a0 E1000000 		.4byte	0xe1
 2453 05a4 7F01     		.2byte	0x17f
 2454 05a6 00       		.byte	0
 2455 05a7 08       		.uleb128 0x8
 2456 05a8 4A020000 		.4byte	0x24a
 2457 05ac B7050000 		.4byte	0x5b7
 2458 05b0 09       		.uleb128 0x9
 2459 05b1 E1000000 		.4byte	0xe1
 2460 05b5 07       		.byte	0x7
 2461 05b6 00       		.byte	0
 2462 05b7 14       		.uleb128 0x14
 2463 05b8 C2050000 		.4byte	0x5c2
 2464 05bc 15       		.uleb128 0x15
ARM GAS  C:\Users\RECEPC~1\AppData\Local\Temp\ccAtWeRe.s 			page 51


 2465 05bd E8000000 		.4byte	0xe8
 2466 05c1 00       		.byte	0
 2467 05c2 10       		.uleb128 0x10
 2468 05c3 04       		.byte	0x4
 2469 05c4 B7050000 		.4byte	0x5b7
 2470 05c8 16       		.uleb128 0x16
 2471 05c9 8E030000 		.4byte	0x38e
 2472 05cd DC050000 		.4byte	0x5dc
 2473 05d1 15       		.uleb128 0x15
 2474 05d2 E8000000 		.4byte	0xe8
 2475 05d6 15       		.uleb128 0x15
 2476 05d7 81000000 		.4byte	0x81
 2477 05db 00       		.byte	0
 2478 05dc 10       		.uleb128 0x10
 2479 05dd 04       		.byte	0x4
 2480 05de C8050000 		.4byte	0x5c8
 2481 05e2 14       		.uleb128 0x14
 2482 05e3 F2050000 		.4byte	0x5f2
 2483 05e7 15       		.uleb128 0x15
 2484 05e8 E8000000 		.4byte	0xe8
 2485 05ec 15       		.uleb128 0x15
 2486 05ed 56020000 		.4byte	0x256
 2487 05f1 00       		.byte	0
 2488 05f2 10       		.uleb128 0x10
 2489 05f3 04       		.byte	0x4
 2490 05f4 E2050000 		.4byte	0x5e2
 2491 05f8 16       		.uleb128 0x16
 2492 05f9 56020000 		.4byte	0x256
 2493 05fd 07060000 		.4byte	0x607
 2494 0601 15       		.uleb128 0x15
 2495 0602 E8000000 		.4byte	0xe8
 2496 0606 00       		.byte	0
 2497 0607 10       		.uleb128 0x10
 2498 0608 04       		.byte	0x4
 2499 0609 F8050000 		.4byte	0x5f8
 2500 060d 16       		.uleb128 0x16
 2501 060e 8E030000 		.4byte	0x38e
 2502 0612 1C060000 		.4byte	0x61c
 2503 0616 15       		.uleb128 0x15
 2504 0617 E8000000 		.4byte	0xe8
 2505 061b 00       		.byte	0
 2506 061c 10       		.uleb128 0x10
 2507 061d 04       		.byte	0x4
 2508 061e 0D060000 		.4byte	0x60d
 2509 0622 05       		.uleb128 0x5
 2510 0623 19010000 		.4byte	.LASF114
 2511 0627 06       		.byte	0x6
 2512 0628 8801     		.2byte	0x188
 2513 062a B1030000 		.4byte	0x3b1
 2514 062e 05       		.uleb128 0x5
 2515 062f 64020000 		.4byte	.LASF115
 2516 0633 06       		.byte	0x6
 2517 0634 8801     		.2byte	0x188
 2518 0636 3A060000 		.4byte	0x63a
 2519 063a 10       		.uleb128 0x10
 2520 063b 04       		.byte	0x4
 2521 063c B1030000 		.4byte	0x3b1
ARM GAS  C:\Users\RECEPC~1\AppData\Local\Temp\ccAtWeRe.s 			page 52


 2522 0640 17       		.uleb128 0x17
 2523 0641 FF030000 		.4byte	.LASF117
 2524 0645 34       		.byte	0x34
 2525 0646 06       		.byte	0x6
 2526 0647 8D01     		.2byte	0x18d
 2527 0649 04070000 		.4byte	0x704
 2528 064d 0E       		.uleb128 0xe
 2529 064e 0F0B0000 		.4byte	.LASF118
 2530 0652 06       		.byte	0x6
 2531 0653 8F01     		.2byte	0x18f
 2532 0655 C2050000 		.4byte	0x5c2
 2533 0659 00       		.byte	0
 2534 065a 0E       		.uleb128 0xe
 2535 065b 85080000 		.4byte	.LASF119
 2536 065f 06       		.byte	0x6
 2537 0660 9001     		.2byte	0x190
 2538 0662 C2050000 		.4byte	0x5c2
 2539 0666 04       		.byte	0x4
 2540 0667 0E       		.uleb128 0xe
 2541 0668 A2090000 		.4byte	.LASF120
 2542 066c 06       		.byte	0x6
 2543 066d 9101     		.2byte	0x191
 2544 066f C2050000 		.4byte	0x5c2
 2545 0673 08       		.byte	0x8
 2546 0674 0E       		.uleb128 0xe
 2547 0675 91000000 		.4byte	.LASF121
 2548 0679 06       		.byte	0x6
 2549 067a 9201     		.2byte	0x192
 2550 067c 1D070000 		.4byte	0x71d
 2551 0680 0C       		.byte	0xc
 2552 0681 0E       		.uleb128 0xe
 2553 0682 8E080000 		.4byte	.LASF122
 2554 0686 06       		.byte	0x6
 2555 0687 9301     		.2byte	0x193
 2556 0689 8D000000 		.4byte	0x8d
 2557 068d 10       		.byte	0x10
 2558 068e 0E       		.uleb128 0xe
 2559 068f 5C0A0000 		.4byte	.LASF123
 2560 0693 06       		.byte	0x6
 2561 0694 9401     		.2byte	0x194
 2562 0696 99000000 		.4byte	0x99
 2563 069a 14       		.byte	0x14
 2564 069b 0E       		.uleb128 0xe
 2565 069c E5020000 		.4byte	.LASF124
 2566 06a0 06       		.byte	0x6
 2567 06a1 9501     		.2byte	0x195
 2568 06a3 81000000 		.4byte	0x81
 2569 06a7 18       		.byte	0x18
 2570 06a8 0E       		.uleb128 0xe
 2571 06a9 A4080000 		.4byte	.LASF125
 2572 06ad 06       		.byte	0x6
 2573 06ae 9701     		.2byte	0x197
 2574 06b0 8E030000 		.4byte	0x38e
 2575 06b4 19       		.byte	0x19
 2576 06b5 0E       		.uleb128 0xe
 2577 06b6 D6080000 		.4byte	.LASF126
 2578 06ba 06       		.byte	0x6
ARM GAS  C:\Users\RECEPC~1\AppData\Local\Temp\ccAtWeRe.s 			page 53


 2579 06bb 9B01     		.2byte	0x19b
 2580 06bd 23070000 		.4byte	0x723
 2581 06c1 1A       		.byte	0x1a
 2582 06c2 0E       		.uleb128 0xe
 2583 06c3 730B0000 		.4byte	.LASF127
 2584 06c7 06       		.byte	0x6
 2585 06c8 9D01     		.2byte	0x19d
 2586 06ca EA000000 		.4byte	0xea
 2587 06ce 1E       		.byte	0x1e
 2588 06cf 0E       		.uleb128 0xe
 2589 06d0 EE010000 		.4byte	.LASF128
 2590 06d4 06       		.byte	0x6
 2591 06d5 A101     		.2byte	0x1a1
 2592 06d7 23070000 		.4byte	0x723
 2593 06db 22       		.byte	0x22
 2594 06dc 0E       		.uleb128 0xe
 2595 06dd 59030000 		.4byte	.LASF129
 2596 06e1 06       		.byte	0x6
 2597 06e2 A301     		.2byte	0x1a3
 2598 06e4 EA000000 		.4byte	0xea
 2599 06e8 26       		.byte	0x26
 2600 06e9 0E       		.uleb128 0xe
 2601 06ea CC0D0000 		.4byte	.LASF130
 2602 06ee 06       		.byte	0x6
 2603 06ef A501     		.2byte	0x1a5
 2604 06f1 C2050000 		.4byte	0x5c2
 2605 06f5 2C       		.byte	0x2c
 2606 06f6 0E       		.uleb128 0xe
 2607 06f7 00000000 		.4byte	.LASF131
 2608 06fb 06       		.byte	0x6
 2609 06fc A601     		.2byte	0x1a6
 2610 06fe C2050000 		.4byte	0x5c2
 2611 0702 30       		.byte	0x30
 2612 0703 00       		.byte	0
 2613 0704 16       		.uleb128 0x16
 2614 0705 8E030000 		.4byte	0x38e
 2615 0709 1D070000 		.4byte	0x71d
 2616 070d 15       		.uleb128 0x15
 2617 070e E8000000 		.4byte	0xe8
 2618 0712 15       		.uleb128 0x15
 2619 0713 E8000000 		.4byte	0xe8
 2620 0717 15       		.uleb128 0x15
 2621 0718 8D000000 		.4byte	0x8d
 2622 071c 00       		.byte	0
 2623 071d 10       		.uleb128 0x10
 2624 071e 04       		.byte	0x4
 2625 071f 04070000 		.4byte	0x704
 2626 0723 08       		.uleb128 0x8
 2627 0724 8E030000 		.4byte	0x38e
 2628 0728 33070000 		.4byte	0x733
 2629 072c 09       		.uleb128 0x9
 2630 072d E1000000 		.4byte	0xe1
 2631 0731 03       		.byte	0x3
 2632 0732 00       		.byte	0
 2633 0733 05       		.uleb128 0x5
 2634 0734 290C0000 		.4byte	.LASF132
 2635 0738 06       		.byte	0x6
ARM GAS  C:\Users\RECEPC~1\AppData\Local\Temp\ccAtWeRe.s 			page 54


 2636 0739 A701     		.2byte	0x1a7
 2637 073b 40060000 		.4byte	0x640
 2638 073f 0C       		.uleb128 0xc
 2639 0740 80090000 		.4byte	.LASF133
 2640 0744 01       		.byte	0x1
 2641 0745 06       		.byte	0x6
 2642 0746 AF01     		.2byte	0x1af
 2643 0748 5F070000 		.4byte	0x75f
 2644 074c 0B       		.uleb128 0xb
 2645 074d 44070000 		.4byte	.LASF134
 2646 0751 00       		.sleb128 0
 2647 0752 0B       		.uleb128 0xb
 2648 0753 FB040000 		.4byte	.LASF135
 2649 0757 01       		.sleb128 1
 2650 0758 0B       		.uleb128 0xb
 2651 0759 30040000 		.4byte	.LASF136
 2652 075d 02       		.sleb128 2
 2653 075e 00       		.byte	0
 2654 075f 11       		.uleb128 0x11
 2655 0760 28       		.byte	0x28
 2656 0761 06       		.byte	0x6
 2657 0762 B601     		.2byte	0x1b6
 2658 0764 39080000 		.4byte	0x839
 2659 0768 0E       		.uleb128 0xe
 2660 0769 380B0000 		.4byte	.LASF137
 2661 076d 06       		.byte	0x6
 2662 076e B801     		.2byte	0x1b8
 2663 0770 89030000 		.4byte	0x389
 2664 0774 00       		.byte	0
 2665 0775 0E       		.uleb128 0xe
 2666 0776 C5030000 		.4byte	.LASF138
 2667 077a 06       		.byte	0x6
 2668 077b B901     		.2byte	0x1b9
 2669 077d D2000000 		.4byte	0xd2
 2670 0781 01       		.byte	0x1
 2671 0782 0E       		.uleb128 0xe
 2672 0783 86020000 		.4byte	.LASF53
 2673 0787 06       		.byte	0x6
 2674 0788 BC01     		.2byte	0x1bc
 2675 078a D2000000 		.4byte	0xd2
 2676 078e 02       		.byte	0x2
 2677 078f 0E       		.uleb128 0xe
 2678 0790 91010000 		.4byte	.LASF139
 2679 0794 06       		.byte	0x6
 2680 0795 BE01     		.2byte	0x1be
 2681 0797 D7000000 		.4byte	0xd7
 2682 079b 04       		.byte	0x4
 2683 079c 0E       		.uleb128 0xe
 2684 079d AA0B0000 		.4byte	.LASF140
 2685 07a1 06       		.byte	0x6
 2686 07a2 BF01     		.2byte	0x1bf
 2687 07a4 D7000000 		.4byte	0xd7
 2688 07a8 06       		.byte	0x6
 2689 07a9 0E       		.uleb128 0xe
 2690 07aa FD0B0000 		.4byte	.LASF141
 2691 07ae 06       		.byte	0x6
 2692 07af C101     		.2byte	0x1c1
ARM GAS  C:\Users\RECEPC~1\AppData\Local\Temp\ccAtWeRe.s 			page 55


 2693 07b1 D7000000 		.4byte	0xd7
 2694 07b5 08       		.byte	0x8
 2695 07b6 0E       		.uleb128 0xe
 2696 07b7 4C010000 		.4byte	.LASF142
 2697 07bb 06       		.byte	0x6
 2698 07bc C201     		.2byte	0x1c2
 2699 07be D7000000 		.4byte	0xd7
 2700 07c2 0A       		.byte	0xa
 2701 07c3 0E       		.uleb128 0xe
 2702 07c4 78010000 		.4byte	.LASF143
 2703 07c8 06       		.byte	0x6
 2704 07c9 C301     		.2byte	0x1c3
 2705 07cb D7000000 		.4byte	0xd7
 2706 07cf 0C       		.byte	0xc
 2707 07d0 0E       		.uleb128 0xe
 2708 07d1 0F050000 		.4byte	.LASF144
 2709 07d5 06       		.byte	0x6
 2710 07d6 C501     		.2byte	0x1c5
 2711 07d8 D7000000 		.4byte	0xd7
 2712 07dc 0E       		.byte	0xe
 2713 07dd 0E       		.uleb128 0xe
 2714 07de C4090000 		.4byte	.LASF145
 2715 07e2 06       		.byte	0x6
 2716 07e3 C601     		.2byte	0x1c6
 2717 07e5 D7000000 		.4byte	0xd7
 2718 07e9 10       		.byte	0x10
 2719 07ea 0E       		.uleb128 0xe
 2720 07eb DF0A0000 		.4byte	.LASF146
 2721 07ef 06       		.byte	0x6
 2722 07f0 C701     		.2byte	0x1c7
 2723 07f2 D7000000 		.4byte	0xd7
 2724 07f6 12       		.byte	0x12
 2725 07f7 0E       		.uleb128 0xe
 2726 07f8 EA050000 		.4byte	.LASF147
 2727 07fc 06       		.byte	0x6
 2728 07fd C901     		.2byte	0x1c9
 2729 07ff 39080000 		.4byte	0x839
 2730 0803 14       		.byte	0x14
 2731 0804 0E       		.uleb128 0xe
 2732 0805 0F030000 		.4byte	.LASF148
 2733 0809 06       		.byte	0x6
 2734 080a CA01     		.2byte	0x1ca
 2735 080c 39080000 		.4byte	0x839
 2736 0810 18       		.byte	0x18
 2737 0811 0E       		.uleb128 0xe
 2738 0812 1A030000 		.4byte	.LASF149
 2739 0816 06       		.byte	0x6
 2740 0817 CB01     		.2byte	0x1cb
 2741 0819 3F080000 		.4byte	0x83f
 2742 081d 1C       		.byte	0x1c
 2743 081e 0E       		.uleb128 0xe
 2744 081f B6000000 		.4byte	.LASF150
 2745 0823 06       		.byte	0x6
 2746 0824 CD01     		.2byte	0x1cd
 2747 0826 C2050000 		.4byte	0x5c2
 2748 082a 20       		.byte	0x20
 2749 082b 0E       		.uleb128 0xe
ARM GAS  C:\Users\RECEPC~1\AppData\Local\Temp\ccAtWeRe.s 			page 56


 2750 082c BF000000 		.4byte	.LASF151
 2751 0830 06       		.byte	0x6
 2752 0831 CE01     		.2byte	0x1ce
 2753 0833 E8000000 		.4byte	0xe8
 2754 0837 24       		.byte	0x24
 2755 0838 00       		.byte	0
 2756 0839 10       		.uleb128 0x10
 2757 083a 04       		.byte	0x4
 2758 083b 33070000 		.4byte	0x733
 2759 083f 10       		.uleb128 0x10
 2760 0840 04       		.byte	0x4
 2761 0841 22060000 		.4byte	0x622
 2762 0845 05       		.uleb128 0x5
 2763 0846 A5060000 		.4byte	.LASF152
 2764 084a 06       		.byte	0x6
 2765 084b D001     		.2byte	0x1d0
 2766 084d 5F070000 		.4byte	0x75f
 2767 0851 05       		.uleb128 0x5
 2768 0852 16070000 		.4byte	.LASF153
 2769 0856 06       		.byte	0x6
 2770 0857 D001     		.2byte	0x1d0
 2771 0859 5D080000 		.4byte	0x85d
 2772 085d 10       		.uleb128 0x10
 2773 085e 04       		.byte	0x4
 2774 085f 5F070000 		.4byte	0x75f
 2775 0863 12       		.uleb128 0x12
 2776 0864 470D0000 		.4byte	.LASF154
 2777 0868 5C08     		.2byte	0x85c
 2778 086a 06       		.byte	0x6
 2779 086b D201     		.2byte	0x1d2
 2780 086d EE080000 		.4byte	0x8ee
 2781 0871 0E       		.uleb128 0xe
 2782 0872 99060000 		.4byte	.LASF155
 2783 0876 06       		.byte	0x6
 2784 0877 D401     		.2byte	0x1d4
 2785 0879 D7000000 		.4byte	0xd7
 2786 087d 00       		.byte	0
 2787 087e 0E       		.uleb128 0xe
 2788 087f BA050000 		.4byte	.LASF156
 2789 0883 06       		.byte	0x6
 2790 0884 D601     		.2byte	0x1d6
 2791 0886 EE080000 		.4byte	0x8ee
 2792 088a 04       		.byte	0x4
 2793 088b 0F       		.uleb128 0xf
 2794 088c 59080000 		.4byte	.LASF157
 2795 0890 06       		.byte	0x6
 2796 0891 D701     		.2byte	0x1d7
 2797 0893 FE080000 		.4byte	0x8fe
 2798 0897 8407     		.2byte	0x784
 2799 0899 0F       		.uleb128 0xf
 2800 089a 4B0C0000 		.4byte	.LASF158
 2801 089e 06       		.byte	0x6
 2802 089f D901     		.2byte	0x1d9
 2803 08a1 C2050000 		.4byte	0x5c2
 2804 08a5 4408     		.2byte	0x844
 2805 08a7 0F       		.uleb128 0xf
 2806 08a8 72020000 		.4byte	.LASF159
ARM GAS  C:\Users\RECEPC~1\AppData\Local\Temp\ccAtWeRe.s 			page 57


 2807 08ac 06       		.byte	0x6
 2808 08ad DA01     		.2byte	0x1da
 2809 08af 23090000 		.4byte	0x923
 2810 08b3 4808     		.2byte	0x848
 2811 08b5 0F       		.uleb128 0xf
 2812 08b6 0D000000 		.4byte	.LASF160
 2813 08ba 06       		.byte	0x6
 2814 08bb DB01     		.2byte	0x1db
 2815 08bd 39090000 		.4byte	0x939
 2816 08c1 4C08     		.2byte	0x84c
 2817 08c3 0F       		.uleb128 0xf
 2818 08c4 B2090000 		.4byte	.LASF161
 2819 08c8 06       		.byte	0x6
 2820 08c9 DC01     		.2byte	0x1dc
 2821 08cb 23090000 		.4byte	0x923
 2822 08cf 5008     		.2byte	0x850
 2823 08d1 0F       		.uleb128 0xf
 2824 08d2 6E060000 		.4byte	.LASF162
 2825 08d6 06       		.byte	0x6
 2826 08d7 DD01     		.2byte	0x1dd
 2827 08d9 C2050000 		.4byte	0x5c2
 2828 08dd 5408     		.2byte	0x854
 2829 08df 0F       		.uleb128 0xf
 2830 08e0 32050000 		.4byte	.LASF163
 2831 08e4 06       		.byte	0x6
 2832 08e5 DE01     		.2byte	0x1de
 2833 08e7 C2050000 		.4byte	0x5c2
 2834 08eb 5808     		.2byte	0x858
 2835 08ed 00       		.byte	0
 2836 08ee 08       		.uleb128 0x8
 2837 08ef 45080000 		.4byte	0x845
 2838 08f3 FE080000 		.4byte	0x8fe
 2839 08f7 09       		.uleb128 0x9
 2840 08f8 E1000000 		.4byte	0xe1
 2841 08fc 2F       		.byte	0x2f
 2842 08fd 00       		.byte	0
 2843 08fe 08       		.uleb128 0x8
 2844 08ff 0E090000 		.4byte	0x90e
 2845 0903 0E090000 		.4byte	0x90e
 2846 0907 09       		.uleb128 0x9
 2847 0908 E1000000 		.4byte	0xe1
 2848 090c 2F       		.byte	0x2f
 2849 090d 00       		.byte	0
 2850 090e 10       		.uleb128 0x10
 2851 090f 04       		.byte	0x4
 2852 0910 45080000 		.4byte	0x845
 2853 0914 16       		.uleb128 0x16
 2854 0915 0E090000 		.4byte	0x90e
 2855 0919 23090000 		.4byte	0x923
 2856 091d 15       		.uleb128 0x15
 2857 091e E8000000 		.4byte	0xe8
 2858 0922 00       		.byte	0
 2859 0923 10       		.uleb128 0x10
 2860 0924 04       		.byte	0x4
 2861 0925 14090000 		.4byte	0x914
 2862 0929 14       		.uleb128 0x14
 2863 092a 39090000 		.4byte	0x939
ARM GAS  C:\Users\RECEPC~1\AppData\Local\Temp\ccAtWeRe.s 			page 58


 2864 092e 15       		.uleb128 0x15
 2865 092f E8000000 		.4byte	0xe8
 2866 0933 15       		.uleb128 0x15
 2867 0934 0E090000 		.4byte	0x90e
 2868 0938 00       		.byte	0
 2869 0939 10       		.uleb128 0x10
 2870 093a 04       		.byte	0x4
 2871 093b 29090000 		.4byte	0x929
 2872 093f 05       		.uleb128 0x5
 2873 0940 4A000000 		.4byte	.LASF164
 2874 0944 06       		.byte	0x6
 2875 0945 E001     		.2byte	0x1e0
 2876 0947 63080000 		.4byte	0x863
 2877 094b 11       		.uleb128 0x11
 2878 094c 14       		.byte	0x14
 2879 094d 06       		.byte	0x6
 2880 094e EC01     		.2byte	0x1ec
 2881 0950 350A0000 		.4byte	0xa35
 2882 0954 0E       		.uleb128 0xe
 2883 0955 F4000000 		.4byte	.LASF165
 2884 0959 06       		.byte	0x6
 2885 095a EE01     		.2byte	0x1ee
 2886 095c 89030000 		.4byte	0x389
 2887 0960 00       		.byte	0
 2888 0961 0E       		.uleb128 0xe
 2889 0962 BB0D0000 		.4byte	.LASF166
 2890 0966 06       		.byte	0x6
 2891 0967 EF01     		.2byte	0x1ef
 2892 0969 89030000 		.4byte	0x389
 2893 096d 01       		.byte	0x1
 2894 096e 0E       		.uleb128 0xe
 2895 096f 5A040000 		.4byte	.LASF167
 2896 0973 06       		.byte	0x6
 2897 0974 F301     		.2byte	0x1f3
 2898 0976 81000000 		.4byte	0x81
 2899 097a 02       		.byte	0x2
 2900 097b 0E       		.uleb128 0xe
 2901 097c 9A0B0000 		.4byte	.LASF168
 2902 0980 06       		.byte	0x6
 2903 0981 0102     		.2byte	0x201
 2904 0983 81000000 		.4byte	0x81
 2905 0987 03       		.byte	0x3
 2906 0988 0E       		.uleb128 0xe
 2907 0989 8D020000 		.4byte	.LASF169
 2908 098d 06       		.byte	0x6
 2909 098e 0202     		.2byte	0x202
 2910 0990 81000000 		.4byte	0x81
 2911 0994 04       		.byte	0x4
 2912 0995 0E       		.uleb128 0xe
 2913 0996 9D020000 		.4byte	.LASF170
 2914 099a 06       		.byte	0x6
 2915 099b 0302     		.2byte	0x203
 2916 099d 81000000 		.4byte	0x81
 2917 09a1 05       		.byte	0x5
 2918 09a2 0E       		.uleb128 0xe
 2919 09a3 AD020000 		.4byte	.LASF171
 2920 09a7 06       		.byte	0x6
ARM GAS  C:\Users\RECEPC~1\AppData\Local\Temp\ccAtWeRe.s 			page 59


 2921 09a8 0402     		.2byte	0x204
 2922 09aa 81000000 		.4byte	0x81
 2923 09ae 06       		.byte	0x6
 2924 09af 0E       		.uleb128 0xe
 2925 09b0 64000000 		.4byte	.LASF172
 2926 09b4 06       		.byte	0x6
 2927 09b5 0602     		.2byte	0x206
 2928 09b7 81000000 		.4byte	0x81
 2929 09bb 07       		.byte	0x7
 2930 09bc 0E       		.uleb128 0xe
 2931 09bd E8040000 		.4byte	.LASF173
 2932 09c1 06       		.byte	0x6
 2933 09c2 0702     		.2byte	0x207
 2934 09c4 81000000 		.4byte	0x81
 2935 09c8 08       		.byte	0x8
 2936 09c9 0E       		.uleb128 0xe
 2937 09ca 7E050000 		.4byte	.LASF174
 2938 09ce 06       		.byte	0x6
 2939 09cf 0802     		.2byte	0x208
 2940 09d1 81000000 		.4byte	0x81
 2941 09d5 09       		.byte	0x9
 2942 09d6 0E       		.uleb128 0xe
 2943 09d7 CB0B0000 		.4byte	.LASF175
 2944 09db 06       		.byte	0x6
 2945 09dc 0A02     		.2byte	0x20a
 2946 09de 81000000 		.4byte	0x81
 2947 09e2 0A       		.byte	0xa
 2948 09e3 0E       		.uleb128 0xe
 2949 09e4 3C0C0000 		.4byte	.LASF176
 2950 09e8 06       		.byte	0x6
 2951 09e9 0C02     		.2byte	0x20c
 2952 09eb 8D000000 		.4byte	0x8d
 2953 09ef 0C       		.byte	0xc
 2954 09f0 0E       		.uleb128 0xe
 2955 09f1 220A0000 		.4byte	.LASF177
 2956 09f5 06       		.byte	0x6
 2957 09f6 0D02     		.2byte	0x20d
 2958 09f8 8D000000 		.4byte	0x8d
 2959 09fc 0E       		.byte	0xe
 2960 09fd 0E       		.uleb128 0xe
 2961 09fe D70B0000 		.4byte	.LASF178
 2962 0a02 06       		.byte	0x6
 2963 0a03 0F02     		.2byte	0x20f
 2964 0a05 81000000 		.4byte	0x81
 2965 0a09 10       		.byte	0x10
 2966 0a0a 0E       		.uleb128 0xe
 2967 0a0b C6000000 		.4byte	.LASF179
 2968 0a0f 06       		.byte	0x6
 2969 0a10 1102     		.2byte	0x211
 2970 0a12 81000000 		.4byte	0x81
 2971 0a16 11       		.byte	0x11
 2972 0a17 0E       		.uleb128 0xe
 2973 0a18 FC0C0000 		.4byte	.LASF180
 2974 0a1c 06       		.byte	0x6
 2975 0a1d 1302     		.2byte	0x213
 2976 0a1f 81000000 		.4byte	0x81
 2977 0a23 12       		.byte	0x12
ARM GAS  C:\Users\RECEPC~1\AppData\Local\Temp\ccAtWeRe.s 			page 60


 2978 0a24 18       		.uleb128 0x18
 2979 0a25 A3040000 		.4byte	.LASF233
 2980 0a29 06       		.byte	0x6
 2981 0a2a 1502     		.2byte	0x215
 2982 0a2c 81000000 		.4byte	0x81
 2983 0a30 01       		.byte	0x1
 2984 0a31 01       		.byte	0x1
 2985 0a32 07       		.byte	0x7
 2986 0a33 13       		.byte	0x13
 2987 0a34 00       		.byte	0
 2988 0a35 05       		.uleb128 0x5
 2989 0a36 98050000 		.4byte	.LASF181
 2990 0a3a 06       		.byte	0x6
 2991 0a3b 1602     		.2byte	0x216
 2992 0a3d 4B090000 		.4byte	0x94b
 2993 0a41 0A       		.uleb128 0xa
 2994 0a42 0B0A0000 		.4byte	.LASF182
 2995 0a46 01       		.byte	0x1
 2996 0a47 07       		.byte	0x7
 2997 0a48 7C       		.byte	0x7c
 2998 0a49 720A0000 		.4byte	0xa72
 2999 0a4d 0B       		.uleb128 0xb
 3000 0a4e 05020000 		.4byte	.LASF183
 3001 0a52 08       		.sleb128 8
 3002 0a53 0B       		.uleb128 0xb
 3003 0a54 820B0000 		.4byte	.LASF184
 3004 0a58 00       		.sleb128 0
 3005 0a59 0B       		.uleb128 0xb
 3006 0a5a FB060000 		.4byte	.LASF185
 3007 0a5e 01       		.sleb128 1
 3008 0a5f 0B       		.uleb128 0xb
 3009 0a60 BA080000 		.4byte	.LASF186
 3010 0a64 02       		.sleb128 2
 3011 0a65 0B       		.uleb128 0xb
 3012 0a66 21030000 		.4byte	.LASF187
 3013 0a6a 03       		.sleb128 3
 3014 0a6b 0B       		.uleb128 0xb
 3015 0a6c D7090000 		.4byte	.LASF188
 3016 0a70 04       		.sleb128 4
 3017 0a71 00       		.byte	0
 3018 0a72 0A       		.uleb128 0xa
 3019 0a73 320A0000 		.4byte	.LASF189
 3020 0a77 01       		.byte	0x1
 3021 0a78 08       		.byte	0x8
 3022 0a79 8A       		.byte	0x8a
 3023 0a7a AF0A0000 		.4byte	0xaaf
 3024 0a7e 0B       		.uleb128 0xb
 3025 0a7f 38030000 		.4byte	.LASF190
 3026 0a83 08       		.sleb128 8
 3027 0a84 0B       		.uleb128 0xb
 3028 0a85 68040000 		.4byte	.LASF191
 3029 0a89 01       		.sleb128 1
 3030 0a8a 0B       		.uleb128 0xb
 3031 0a8b 5C060000 		.4byte	.LASF192
 3032 0a8f 02       		.sleb128 2
 3033 0a90 0B       		.uleb128 0xb
 3034 0a91 C6020000 		.4byte	.LASF193
ARM GAS  C:\Users\RECEPC~1\AppData\Local\Temp\ccAtWeRe.s 			page 61


 3035 0a95 03       		.sleb128 3
 3036 0a96 0B       		.uleb128 0xb
 3037 0a97 BF060000 		.4byte	.LASF194
 3038 0a9b 05       		.sleb128 5
 3039 0a9c 0B       		.uleb128 0xb
 3040 0a9d 05010000 		.4byte	.LASF195
 3041 0aa1 06       		.sleb128 6
 3042 0aa2 0B       		.uleb128 0xb
 3043 0aa3 F0030000 		.4byte	.LASF196
 3044 0aa7 04       		.sleb128 4
 3045 0aa8 0B       		.uleb128 0xb
 3046 0aa9 BB0B0000 		.4byte	.LASF197
 3047 0aad 0B       		.sleb128 11
 3048 0aae 00       		.byte	0
 3049 0aaf 19       		.uleb128 0x19
 3050 0ab0 A40D0000 		.4byte	.LASF234
 3051 0ab4 01       		.byte	0x1
 3052 0ab5 2C       		.byte	0x2c
 3053 0ab6 00000000 		.4byte	.LFB63
 3054 0aba 2C030000 		.4byte	.LFE63-.LFB63
 3055 0abe 01       		.uleb128 0x1
 3056 0abf 9C       		.byte	0x9c
 3057 0ac0 EB0A0000 		.4byte	0xaeb
 3058 0ac4 1A       		.uleb128 0x1a
 3059 0ac5 270B0000 		.4byte	.LASF198
 3060 0ac9 01       		.byte	0x1
 3061 0aca 31       		.byte	0x31
 3062 0acb 81000000 		.4byte	0x81
 3063 0acf 02       		.uleb128 0x2
 3064 0ad0 91       		.byte	0x91
 3065 0ad1 77       		.sleb128 -9
 3066 0ad2 1B       		.uleb128 0x1b
 3067 0ad3 18000000 		.4byte	.LBB2
 3068 0ad7 7C020000 		.4byte	.LBE2-.LBB2
 3069 0adb 1A       		.uleb128 0x1a
 3070 0adc 7B020000 		.4byte	.LASF199
 3071 0ae0 01       		.byte	0x1
 3072 0ae1 43       		.byte	0x43
 3073 0ae2 81000000 		.4byte	0x81
 3074 0ae6 02       		.uleb128 0x2
 3075 0ae7 91       		.byte	0x91
 3076 0ae8 76       		.sleb128 -10
 3077 0ae9 00       		.byte	0
 3078 0aea 00       		.byte	0
 3079 0aeb 1C       		.uleb128 0x1c
 3080 0aec 590C0000 		.4byte	.LASF203
 3081 0af0 01       		.byte	0x1
 3082 0af1 67       		.byte	0x67
 3083 0af2 8E030000 		.4byte	0x38e
 3084 0af6 00000000 		.4byte	.LFB64
 3085 0afa 38000000 		.4byte	.LFE64-.LFB64
 3086 0afe 01       		.uleb128 0x1
 3087 0aff 9C       		.byte	0x9c
 3088 0b00 2F0B0000 		.4byte	0xb2f
 3089 0b04 1D       		.uleb128 0x1d
 3090 0b05 33010000 		.4byte	.LASF202
 3091 0b09 01       		.byte	0x1
ARM GAS  C:\Users\RECEPC~1\AppData\Local\Temp\ccAtWeRe.s 			page 62


 3092 0b0a 67       		.byte	0x67
 3093 0b0b E8000000 		.4byte	0xe8
 3094 0b0f 02       		.uleb128 0x2
 3095 0b10 91       		.byte	0x91
 3096 0b11 6C       		.sleb128 -20
 3097 0b12 1A       		.uleb128 0x1a
 3098 0b13 1E010000 		.4byte	.LASF200
 3099 0b17 01       		.byte	0x1
 3100 0b18 69       		.byte	0x69
 3101 0b19 8E030000 		.4byte	0x38e
 3102 0b1d 02       		.uleb128 0x2
 3103 0b1e 91       		.byte	0x91
 3104 0b1f 77       		.sleb128 -9
 3105 0b20 1A       		.uleb128 0x1a
 3106 0b21 F9030000 		.4byte	.LASF201
 3107 0b25 01       		.byte	0x1
 3108 0b26 6A       		.byte	0x6a
 3109 0b27 2E060000 		.4byte	0x62e
 3110 0b2b 02       		.uleb128 0x2
 3111 0b2c 91       		.byte	0x91
 3112 0b2d 70       		.sleb128 -16
 3113 0b2e 00       		.byte	0
 3114 0b2f 1E       		.uleb128 0x1e
 3115 0b30 98010000 		.4byte	.LASF206
 3116 0b34 01       		.byte	0x1
 3117 0b35 7D       		.byte	0x7d
 3118 0b36 00000000 		.4byte	.LFB65
 3119 0b3a 8C000000 		.4byte	.LFE65-.LFB65
 3120 0b3e 01       		.uleb128 0x1
 3121 0b3f 9C       		.byte	0x9c
 3122 0b40 6F0B0000 		.4byte	0xb6f
 3123 0b44 1D       		.uleb128 0x1d
 3124 0b45 33010000 		.4byte	.LASF202
 3125 0b49 01       		.byte	0x1
 3126 0b4a 7D       		.byte	0x7d
 3127 0b4b E8000000 		.4byte	0xe8
 3128 0b4f 02       		.uleb128 0x2
 3129 0b50 91       		.byte	0x91
 3130 0b51 6C       		.sleb128 -20
 3131 0b52 1A       		.uleb128 0x1a
 3132 0b53 F9030000 		.4byte	.LASF201
 3133 0b57 01       		.byte	0x1
 3134 0b58 7F       		.byte	0x7f
 3135 0b59 6F0B0000 		.4byte	0xb6f
 3136 0b5d 02       		.uleb128 0x2
 3137 0b5e 91       		.byte	0x91
 3138 0b5f 70       		.sleb128 -16
 3139 0b60 1A       		.uleb128 0x1a
 3140 0b61 270B0000 		.4byte	.LASF198
 3141 0b65 01       		.byte	0x1
 3142 0b66 80       		.byte	0x80
 3143 0b67 81000000 		.4byte	0x81
 3144 0b6b 02       		.uleb128 0x2
 3145 0b6c 91       		.byte	0x91
 3146 0b6d 77       		.sleb128 -9
 3147 0b6e 00       		.byte	0
 3148 0b6f 10       		.uleb128 0x10
ARM GAS  C:\Users\RECEPC~1\AppData\Local\Temp\ccAtWeRe.s 			page 63


 3149 0b70 04       		.byte	0x4
 3150 0b71 3F090000 		.4byte	0x93f
 3151 0b75 1C       		.uleb128 0x1c
 3152 0b76 B60C0000 		.4byte	.LASF204
 3153 0b7a 01       		.byte	0x1
 3154 0b7b 8E       		.byte	0x8e
 3155 0b7c 5D080000 		.4byte	0x85d
 3156 0b80 00000000 		.4byte	.LFB66
 3157 0b84 44010000 		.4byte	.LFE66-.LFB66
 3158 0b88 01       		.uleb128 0x1
 3159 0b89 9C       		.byte	0x9c
 3160 0b8a C70B0000 		.4byte	0xbc7
 3161 0b8e 1D       		.uleb128 0x1d
 3162 0b8f 33010000 		.4byte	.LASF202
 3163 0b93 01       		.byte	0x1
 3164 0b94 8E       		.byte	0x8e
 3165 0b95 E8000000 		.4byte	0xe8
 3166 0b99 02       		.uleb128 0x2
 3167 0b9a 91       		.byte	0x91
 3168 0b9b 64       		.sleb128 -28
 3169 0b9c 1A       		.uleb128 0x1a
 3170 0b9d 440A0000 		.4byte	.LASF205
 3171 0ba1 01       		.byte	0x1
 3172 0ba2 90       		.byte	0x90
 3173 0ba3 51080000 		.4byte	0x851
 3174 0ba7 02       		.uleb128 0x2
 3175 0ba8 91       		.byte	0x91
 3176 0ba9 74       		.sleb128 -12
 3177 0baa 1A       		.uleb128 0x1a
 3178 0bab F9030000 		.4byte	.LASF201
 3179 0baf 01       		.byte	0x1
 3180 0bb0 91       		.byte	0x91
 3181 0bb1 6F0B0000 		.4byte	0xb6f
 3182 0bb5 02       		.uleb128 0x2
 3183 0bb6 91       		.byte	0x91
 3184 0bb7 6C       		.sleb128 -20
 3185 0bb8 1A       		.uleb128 0x1a
 3186 0bb9 270B0000 		.4byte	.LASF198
 3187 0bbd 01       		.byte	0x1
 3188 0bbe 93       		.byte	0x93
 3189 0bbf 81000000 		.4byte	0x81
 3190 0bc3 02       		.uleb128 0x2
 3191 0bc4 91       		.byte	0x91
 3192 0bc5 73       		.sleb128 -13
 3193 0bc6 00       		.byte	0
 3194 0bc7 1E       		.uleb128 0x1e
 3195 0bc8 7A030000 		.4byte	.LASF207
 3196 0bcc 01       		.byte	0x1
 3197 0bcd B1       		.byte	0xb1
 3198 0bce 00000000 		.4byte	.LFB67
 3199 0bd2 5A000000 		.4byte	.LFE67-.LFB67
 3200 0bd6 01       		.uleb128 0x1
 3201 0bd7 9C       		.byte	0x9c
 3202 0bd8 070C0000 		.4byte	0xc07
 3203 0bdc 1D       		.uleb128 0x1d
 3204 0bdd 33010000 		.4byte	.LASF202
 3205 0be1 01       		.byte	0x1
ARM GAS  C:\Users\RECEPC~1\AppData\Local\Temp\ccAtWeRe.s 			page 64


 3206 0be2 B1       		.byte	0xb1
 3207 0be3 E8000000 		.4byte	0xe8
 3208 0be7 02       		.uleb128 0x2
 3209 0be8 91       		.byte	0x91
 3210 0be9 6C       		.sleb128 -20
 3211 0bea 1D       		.uleb128 0x1d
 3212 0beb 220B0000 		.4byte	.LASF208
 3213 0bef 01       		.byte	0x1
 3214 0bf0 B1       		.byte	0xb1
 3215 0bf1 51080000 		.4byte	0x851
 3216 0bf5 02       		.uleb128 0x2
 3217 0bf6 91       		.byte	0x91
 3218 0bf7 68       		.sleb128 -24
 3219 0bf8 1A       		.uleb128 0x1a
 3220 0bf9 F9030000 		.4byte	.LASF201
 3221 0bfd 01       		.byte	0x1
 3222 0bfe B3       		.byte	0xb3
 3223 0bff 6F0B0000 		.4byte	0xb6f
 3224 0c03 02       		.uleb128 0x2
 3225 0c04 91       		.byte	0x91
 3226 0c05 74       		.sleb128 -12
 3227 0c06 00       		.byte	0
 3228 0c07 1C       		.uleb128 0x1c
 3229 0c08 92040000 		.4byte	.LASF209
 3230 0c0c 01       		.byte	0x1
 3231 0c0d BF       		.byte	0xbf
 3232 0c0e 5D080000 		.4byte	0x85d
 3233 0c12 00000000 		.4byte	.LFB68
 3234 0c16 30000000 		.4byte	.LFE68-.LFB68
 3235 0c1a 01       		.uleb128 0x1
 3236 0c1b 9C       		.byte	0x9c
 3237 0c1c 4B0C0000 		.4byte	0xc4b
 3238 0c20 1D       		.uleb128 0x1d
 3239 0c21 33010000 		.4byte	.LASF202
 3240 0c25 01       		.byte	0x1
 3241 0c26 BF       		.byte	0xbf
 3242 0c27 E8000000 		.4byte	0xe8
 3243 0c2b 02       		.uleb128 0x2
 3244 0c2c 91       		.byte	0x91
 3245 0c2d 6C       		.sleb128 -20
 3246 0c2e 1A       		.uleb128 0x1a
 3247 0c2f 440A0000 		.4byte	.LASF205
 3248 0c33 01       		.byte	0x1
 3249 0c34 C1       		.byte	0xc1
 3250 0c35 51080000 		.4byte	0x851
 3251 0c39 02       		.uleb128 0x2
 3252 0c3a 91       		.byte	0x91
 3253 0c3b 74       		.sleb128 -12
 3254 0c3c 1A       		.uleb128 0x1a
 3255 0c3d F9030000 		.4byte	.LASF201
 3256 0c41 01       		.byte	0x1
 3257 0c42 C2       		.byte	0xc2
 3258 0c43 6F0B0000 		.4byte	0xb6f
 3259 0c47 02       		.uleb128 0x2
 3260 0c48 91       		.byte	0x91
 3261 0c49 70       		.sleb128 -16
 3262 0c4a 00       		.byte	0
ARM GAS  C:\Users\RECEPC~1\AppData\Local\Temp\ccAtWeRe.s 			page 65


 3263 0c4b 1E       		.uleb128 0x1e
 3264 0c4c BA0A0000 		.4byte	.LASF210
 3265 0c50 01       		.byte	0x1
 3266 0c51 CC       		.byte	0xcc
 3267 0c52 00000000 		.4byte	.LFB69
 3268 0c56 B8000000 		.4byte	.LFE69-.LFB69
 3269 0c5a 01       		.uleb128 0x1
 3270 0c5b 9C       		.byte	0x9c
 3271 0c5c 950C0000 		.4byte	0xc95
 3272 0c60 1D       		.uleb128 0x1d
 3273 0c61 33010000 		.4byte	.LASF202
 3274 0c65 01       		.byte	0x1
 3275 0c66 CC       		.byte	0xcc
 3276 0c67 E8000000 		.4byte	0xe8
 3277 0c6b 02       		.uleb128 0x2
 3278 0c6c 91       		.byte	0x91
 3279 0c6d 6C       		.sleb128 -20
 3280 0c6e 1A       		.uleb128 0x1a
 3281 0c6f F9030000 		.4byte	.LASF201
 3282 0c73 01       		.byte	0x1
 3283 0c74 CE       		.byte	0xce
 3284 0c75 6F0B0000 		.4byte	0xb6f
 3285 0c79 02       		.uleb128 0x2
 3286 0c7a 91       		.byte	0x91
 3287 0c7b 70       		.sleb128 -16
 3288 0c7c 1B       		.uleb128 0x1b
 3289 0c7d 16000000 		.4byte	.LBB3
 3290 0c81 98000000 		.4byte	.LBE3-.LBB3
 3291 0c85 1A       		.uleb128 0x1a
 3292 0c86 270B0000 		.4byte	.LASF198
 3293 0c8a 01       		.byte	0x1
 3294 0c8b D6       		.byte	0xd6
 3295 0c8c 81000000 		.4byte	0x81
 3296 0c90 02       		.uleb128 0x2
 3297 0c91 91       		.byte	0x91
 3298 0c92 77       		.sleb128 -9
 3299 0c93 00       		.byte	0
 3300 0c94 00       		.byte	0
 3301 0c95 1E       		.uleb128 0x1e
 3302 0c96 820C0000 		.4byte	.LASF211
 3303 0c9a 01       		.byte	0x1
 3304 0c9b E2       		.byte	0xe2
 3305 0c9c 00000000 		.4byte	.LFB70
 3306 0ca0 76000000 		.4byte	.LFE70-.LFB70
 3307 0ca4 01       		.uleb128 0x1
 3308 0ca5 9C       		.byte	0x9c
 3309 0ca6 ED0C0000 		.4byte	0xced
 3310 0caa 1D       		.uleb128 0x1d
 3311 0cab 33010000 		.4byte	.LASF202
 3312 0caf 01       		.byte	0x1
 3313 0cb0 E2       		.byte	0xe2
 3314 0cb1 E8000000 		.4byte	0xe8
 3315 0cb5 02       		.uleb128 0x2
 3316 0cb6 91       		.byte	0x91
 3317 0cb7 64       		.sleb128 -28
 3318 0cb8 1A       		.uleb128 0x1a
 3319 0cb9 F9030000 		.4byte	.LASF201
ARM GAS  C:\Users\RECEPC~1\AppData\Local\Temp\ccAtWeRe.s 			page 66


 3320 0cbd 01       		.byte	0x1
 3321 0cbe E4       		.byte	0xe4
 3322 0cbf 6F0B0000 		.4byte	0xb6f
 3323 0cc3 02       		.uleb128 0x2
 3324 0cc4 91       		.byte	0x91
 3325 0cc5 70       		.sleb128 -16
 3326 0cc6 1B       		.uleb128 0x1b
 3327 0cc7 16000000 		.4byte	.LBB4
 3328 0ccb 56000000 		.4byte	.LBE4-.LBB4
 3329 0ccf 1A       		.uleb128 0x1a
 3330 0cd0 ED090000 		.4byte	.LASF212
 3331 0cd4 01       		.byte	0x1
 3332 0cd5 E8       		.byte	0xe8
 3333 0cd6 51080000 		.4byte	0x851
 3334 0cda 02       		.uleb128 0x2
 3335 0cdb 91       		.byte	0x91
 3336 0cdc 6C       		.sleb128 -20
 3337 0cdd 1A       		.uleb128 0x1a
 3338 0cde 270B0000 		.4byte	.LASF198
 3339 0ce2 01       		.byte	0x1
 3340 0ce3 EA       		.byte	0xea
 3341 0ce4 81000000 		.4byte	0x81
 3342 0ce8 02       		.uleb128 0x2
 3343 0ce9 91       		.byte	0x91
 3344 0cea 77       		.sleb128 -9
 3345 0ceb 00       		.byte	0
 3346 0cec 00       		.byte	0
 3347 0ced 1C       		.uleb128 0x1c
 3348 0cee 960A0000 		.4byte	.LASF213
 3349 0cf2 01       		.byte	0x1
 3350 0cf3 F3       		.byte	0xf3
 3351 0cf4 56020000 		.4byte	0x256
 3352 0cf8 00000000 		.4byte	.LFB71
 3353 0cfc 60000000 		.4byte	.LFE71-.LFB71
 3354 0d00 01       		.uleb128 0x1
 3355 0d01 9C       		.byte	0x9c
 3356 0d02 3F0D0000 		.4byte	0xd3f
 3357 0d06 1D       		.uleb128 0x1d
 3358 0d07 6F0D0000 		.4byte	.LASF214
 3359 0d0b 01       		.byte	0x1
 3360 0d0c F3       		.byte	0xf3
 3361 0d0d 01010000 		.4byte	0x101
 3362 0d11 02       		.uleb128 0x2
 3363 0d12 91       		.byte	0x91
 3364 0d13 64       		.sleb128 -28
 3365 0d14 1A       		.uleb128 0x1a
 3366 0d15 3A070000 		.4byte	.LASF215
 3367 0d19 01       		.byte	0x1
 3368 0d1a F5       		.byte	0xf5
 3369 0d1b 2E060000 		.4byte	0x62e
 3370 0d1f 02       		.uleb128 0x2
 3371 0d20 91       		.byte	0x91
 3372 0d21 6C       		.sleb128 -20
 3373 0d22 1A       		.uleb128 0x1a
 3374 0d23 440A0000 		.4byte	.LASF205
 3375 0d27 01       		.byte	0x1
 3376 0d28 F6       		.byte	0xf6
ARM GAS  C:\Users\RECEPC~1\AppData\Local\Temp\ccAtWeRe.s 			page 67


 3377 0d29 56020000 		.4byte	0x256
 3378 0d2d 02       		.uleb128 0x2
 3379 0d2e 91       		.byte	0x91
 3380 0d2f 74       		.sleb128 -12
 3381 0d30 1A       		.uleb128 0x1a
 3382 0d31 270B0000 		.4byte	.LASF198
 3383 0d35 01       		.byte	0x1
 3384 0d36 F8       		.byte	0xf8
 3385 0d37 81000000 		.4byte	0x81
 3386 0d3b 02       		.uleb128 0x2
 3387 0d3c 91       		.byte	0x91
 3388 0d3d 73       		.sleb128 -13
 3389 0d3e 00       		.byte	0
 3390 0d3f 1F       		.uleb128 0x1f
 3391 0d40 15000000 		.4byte	.LASF216
 3392 0d44 01       		.byte	0x1
 3393 0d45 0501     		.2byte	0x105
 3394 0d47 00000000 		.4byte	.LFB72
 3395 0d4b 1E000000 		.4byte	.LFE72-.LFB72
 3396 0d4f 01       		.uleb128 0x1
 3397 0d50 9C       		.byte	0x9c
 3398 0d51 830D0000 		.4byte	0xd83
 3399 0d55 20       		.uleb128 0x20
 3400 0d56 6F0D0000 		.4byte	.LASF214
 3401 0d5a 01       		.byte	0x1
 3402 0d5b 0501     		.2byte	0x105
 3403 0d5d 01010000 		.4byte	0x101
 3404 0d61 02       		.uleb128 0x2
 3405 0d62 91       		.byte	0x91
 3406 0d63 6C       		.sleb128 -20
 3407 0d64 21       		.uleb128 0x21
 3408 0d65 70747300 		.ascii	"pts\000"
 3409 0d69 01       		.byte	0x1
 3410 0d6a 0501     		.2byte	0x105
 3411 0d6c 56020000 		.4byte	0x256
 3412 0d70 02       		.uleb128 0x2
 3413 0d71 91       		.byte	0x91
 3414 0d72 68       		.sleb128 -24
 3415 0d73 22       		.uleb128 0x22
 3416 0d74 3A070000 		.4byte	.LASF215
 3417 0d78 01       		.byte	0x1
 3418 0d79 0701     		.2byte	0x107
 3419 0d7b 2E060000 		.4byte	0x62e
 3420 0d7f 02       		.uleb128 0x2
 3421 0d80 91       		.byte	0x91
 3422 0d81 74       		.sleb128 -12
 3423 0d82 00       		.byte	0
 3424 0d83 23       		.uleb128 0x23
 3425 0d84 5D050000 		.4byte	.LASF217
 3426 0d88 01       		.byte	0x1
 3427 0d89 0D01     		.2byte	0x10d
 3428 0d8b 00000000 		.4byte	.LFB73
 3429 0d8f 92000000 		.4byte	.LFE73-.LFB73
 3430 0d93 01       		.uleb128 0x1
 3431 0d94 9C       		.byte	0x9c
 3432 0d95 D60D0000 		.4byte	0xdd6
 3433 0d99 20       		.uleb128 0x20
ARM GAS  C:\Users\RECEPC~1\AppData\Local\Temp\ccAtWeRe.s 			page 68


 3434 0d9a 6F0D0000 		.4byte	.LASF214
 3435 0d9e 01       		.byte	0x1
 3436 0d9f 0D01     		.2byte	0x10d
 3437 0da1 01010000 		.4byte	0x101
 3438 0da5 02       		.uleb128 0x2
 3439 0da6 91       		.byte	0x91
 3440 0da7 6C       		.sleb128 -20
 3441 0da8 21       		.uleb128 0x21
 3442 0da9 70747300 		.ascii	"pts\000"
 3443 0dad 01       		.byte	0x1
 3444 0dae 0D01     		.2byte	0x10d
 3445 0db0 56020000 		.4byte	0x256
 3446 0db4 02       		.uleb128 0x2
 3447 0db5 91       		.byte	0x91
 3448 0db6 68       		.sleb128 -24
 3449 0db7 22       		.uleb128 0x22
 3450 0db8 3A070000 		.4byte	.LASF215
 3451 0dbc 01       		.byte	0x1
 3452 0dbd 0F01     		.2byte	0x10f
 3453 0dbf 2E060000 		.4byte	0x62e
 3454 0dc3 02       		.uleb128 0x2
 3455 0dc4 91       		.byte	0x91
 3456 0dc5 70       		.sleb128 -16
 3457 0dc6 22       		.uleb128 0x22
 3458 0dc7 270B0000 		.4byte	.LASF198
 3459 0dcb 01       		.byte	0x1
 3460 0dcc 1301     		.2byte	0x113
 3461 0dce 81000000 		.4byte	0x81
 3462 0dd2 02       		.uleb128 0x2
 3463 0dd3 91       		.byte	0x91
 3464 0dd4 77       		.sleb128 -9
 3465 0dd5 00       		.byte	0
 3466 0dd6 24       		.uleb128 0x24
 3467 0dd7 49020000 		.4byte	.LASF218
 3468 0ddb 01       		.byte	0x1
 3469 0ddc 2001     		.2byte	0x120
 3470 0dde 8E030000 		.4byte	0x38e
 3471 0de2 00000000 		.4byte	.LFB74
 3472 0de6 54000000 		.4byte	.LFE74-.LFB74
 3473 0dea 01       		.uleb128 0x1
 3474 0deb 9C       		.byte	0x9c
 3475 0dec 3C0E0000 		.4byte	0xe3c
 3476 0df0 20       		.uleb128 0x20
 3477 0df1 6F0D0000 		.4byte	.LASF214
 3478 0df5 01       		.byte	0x1
 3479 0df6 2001     		.2byte	0x120
 3480 0df8 01010000 		.4byte	0x101
 3481 0dfc 02       		.uleb128 0x2
 3482 0dfd 91       		.byte	0x91
 3483 0dfe 6C       		.sleb128 -20
 3484 0dff 20       		.uleb128 0x20
 3485 0e00 B7010000 		.4byte	.LASF219
 3486 0e04 01       		.byte	0x1
 3487 0e05 2001     		.2byte	0x120
 3488 0e07 81000000 		.4byte	0x81
 3489 0e0b 02       		.uleb128 0x2
 3490 0e0c 91       		.byte	0x91
ARM GAS  C:\Users\RECEPC~1\AppData\Local\Temp\ccAtWeRe.s 			page 69


 3491 0e0d 6B       		.sleb128 -21
 3492 0e0e 22       		.uleb128 0x22
 3493 0e0f 1E010000 		.4byte	.LASF200
 3494 0e13 01       		.byte	0x1
 3495 0e14 2201     		.2byte	0x122
 3496 0e16 8E030000 		.4byte	0x38e
 3497 0e1a 02       		.uleb128 0x2
 3498 0e1b 91       		.byte	0x91
 3499 0e1c 77       		.sleb128 -9
 3500 0e1d 22       		.uleb128 0x22
 3501 0e1e 3A070000 		.4byte	.LASF215
 3502 0e22 01       		.byte	0x1
 3503 0e23 2301     		.2byte	0x123
 3504 0e25 2E060000 		.4byte	0x62e
 3505 0e29 02       		.uleb128 0x2
 3506 0e2a 91       		.byte	0x91
 3507 0e2b 70       		.sleb128 -16
 3508 0e2c 22       		.uleb128 0x22
 3509 0e2d 270B0000 		.4byte	.LASF198
 3510 0e31 01       		.byte	0x1
 3511 0e32 2401     		.2byte	0x124
 3512 0e34 81000000 		.4byte	0x81
 3513 0e38 02       		.uleb128 0x2
 3514 0e39 91       		.byte	0x91
 3515 0e3a 76       		.sleb128 -10
 3516 0e3b 00       		.byte	0
 3517 0e3c 25       		.uleb128 0x25
 3518 0e3d 1D060000 		.4byte	.LASF220
 3519 0e41 01       		.byte	0x1
 3520 0e42 3101     		.2byte	0x131
 3521 0e44 56020000 		.4byte	0x256
 3522 0e48 00000000 		.4byte	.LFB75
 3523 0e4c 92000000 		.4byte	.LFE75-.LFB75
 3524 0e50 01       		.uleb128 0x1
 3525 0e51 9C       		.byte	0x9c
 3526 0e52 930E0000 		.4byte	0xe93
 3527 0e56 20       		.uleb128 0x20
 3528 0e57 6F0D0000 		.4byte	.LASF214
 3529 0e5b 01       		.byte	0x1
 3530 0e5c 3101     		.2byte	0x131
 3531 0e5e 01010000 		.4byte	0x101
 3532 0e62 02       		.uleb128 0x2
 3533 0e63 91       		.byte	0x91
 3534 0e64 64       		.sleb128 -28
 3535 0e65 22       		.uleb128 0x22
 3536 0e66 3A070000 		.4byte	.LASF215
 3537 0e6a 01       		.byte	0x1
 3538 0e6b 3301     		.2byte	0x133
 3539 0e6d 2E060000 		.4byte	0x62e
 3540 0e71 02       		.uleb128 0x2
 3541 0e72 91       		.byte	0x91
 3542 0e73 6C       		.sleb128 -20
 3543 0e74 22       		.uleb128 0x22
 3544 0e75 440A0000 		.4byte	.LASF205
 3545 0e79 01       		.byte	0x1
 3546 0e7a 3401     		.2byte	0x134
 3547 0e7c 56020000 		.4byte	0x256
ARM GAS  C:\Users\RECEPC~1\AppData\Local\Temp\ccAtWeRe.s 			page 70


 3548 0e80 02       		.uleb128 0x2
 3549 0e81 91       		.byte	0x91
 3550 0e82 74       		.sleb128 -12
 3551 0e83 22       		.uleb128 0x22
 3552 0e84 270B0000 		.4byte	.LASF198
 3553 0e88 01       		.byte	0x1
 3554 0e89 3901     		.2byte	0x139
 3555 0e8b 81000000 		.4byte	0x81
 3556 0e8f 02       		.uleb128 0x2
 3557 0e90 91       		.byte	0x91
 3558 0e91 73       		.sleb128 -13
 3559 0e92 00       		.byte	0
 3560 0e93 23       		.uleb128 0x23
 3561 0e94 DB0D0000 		.4byte	.LASF221
 3562 0e98 01       		.byte	0x1
 3563 0e99 4601     		.2byte	0x146
 3564 0e9b 00000000 		.4byte	.LFB76
 3565 0e9f 70000000 		.4byte	.LFE76-.LFB76
 3566 0ea3 01       		.uleb128 0x1
 3567 0ea4 9C       		.byte	0x9c
 3568 0ea5 C80E0000 		.4byte	0xec8
 3569 0ea9 20       		.uleb128 0x20
 3570 0eaa 6F0D0000 		.4byte	.LASF214
 3571 0eae 01       		.byte	0x1
 3572 0eaf 4601     		.2byte	0x146
 3573 0eb1 01010000 		.4byte	0x101
 3574 0eb5 02       		.uleb128 0x2
 3575 0eb6 91       		.byte	0x91
 3576 0eb7 6C       		.sleb128 -20
 3577 0eb8 22       		.uleb128 0x22
 3578 0eb9 3A070000 		.4byte	.LASF215
 3579 0ebd 01       		.byte	0x1
 3580 0ebe 4801     		.2byte	0x148
 3581 0ec0 2E060000 		.4byte	0x62e
 3582 0ec4 02       		.uleb128 0x2
 3583 0ec5 91       		.byte	0x91
 3584 0ec6 74       		.sleb128 -12
 3585 0ec7 00       		.byte	0
 3586 0ec8 1F       		.uleb128 0x1f
 3587 0ec9 F4050000 		.4byte	.LASF222
 3588 0ecd 01       		.byte	0x1
 3589 0ece 5301     		.2byte	0x153
 3590 0ed0 00000000 		.4byte	.LFB77
 3591 0ed4 1E000000 		.4byte	.LFE77-.LFB77
 3592 0ed8 01       		.uleb128 0x1
 3593 0ed9 9C       		.byte	0x9c
 3594 0eda FD0E0000 		.4byte	0xefd
 3595 0ede 20       		.uleb128 0x20
 3596 0edf 6F0D0000 		.4byte	.LASF214
 3597 0ee3 01       		.byte	0x1
 3598 0ee4 5301     		.2byte	0x153
 3599 0ee6 01010000 		.4byte	0x101
 3600 0eea 02       		.uleb128 0x2
 3601 0eeb 91       		.byte	0x91
 3602 0eec 6C       		.sleb128 -20
 3603 0eed 22       		.uleb128 0x22
 3604 0eee 3A070000 		.4byte	.LASF215
ARM GAS  C:\Users\RECEPC~1\AppData\Local\Temp\ccAtWeRe.s 			page 71


 3605 0ef2 01       		.byte	0x1
 3606 0ef3 5501     		.2byte	0x155
 3607 0ef5 2E060000 		.4byte	0x62e
 3608 0ef9 02       		.uleb128 0x2
 3609 0efa 91       		.byte	0x91
 3610 0efb 74       		.sleb128 -12
 3611 0efc 00       		.byte	0
 3612 0efd 1F       		.uleb128 0x1f
 3613 0efe 6C0C0000 		.4byte	.LASF223
 3614 0f02 01       		.byte	0x1
 3615 0f03 5C01     		.2byte	0x15c
 3616 0f05 00000000 		.4byte	.LFB78
 3617 0f09 B2000000 		.4byte	.LFE78-.LFB78
 3618 0f0d 01       		.uleb128 0x1
 3619 0f0e 9C       		.byte	0x9c
 3620 0f0f 320F0000 		.4byte	0xf32
 3621 0f13 20       		.uleb128 0x20
 3622 0f14 F5090000 		.4byte	.LASF224
 3623 0f18 01       		.byte	0x1
 3624 0f19 5C01     		.2byte	0x15c
 3625 0f1b 01010000 		.4byte	0x101
 3626 0f1f 02       		.uleb128 0x2
 3627 0f20 91       		.byte	0x91
 3628 0f21 6C       		.sleb128 -20
 3629 0f22 22       		.uleb128 0x22
 3630 0f23 0C0D0000 		.4byte	.LASF225
 3631 0f27 01       		.byte	0x1
 3632 0f28 5E01     		.2byte	0x15e
 3633 0f2a 2E060000 		.4byte	0x62e
 3634 0f2e 02       		.uleb128 0x2
 3635 0f2f 91       		.byte	0x91
 3636 0f30 74       		.sleb128 -12
 3637 0f31 00       		.byte	0
 3638 0f32 26       		.uleb128 0x26
 3639 0f33 AA010000 		.4byte	.LASF226
 3640 0f37 09       		.byte	0x9
 3641 0f38 5506     		.2byte	0x655
 3642 0f3a 3E0F0000 		.4byte	0xf3e
 3643 0f3e 06       		.uleb128 0x6
 3644 0f3f 76000000 		.4byte	0x76
 3645 0f43 27       		.uleb128 0x27
 3646 0f44 A6000000 		.4byte	.LASF227
 3647 0f48 01       		.byte	0x1
 3648 0f49 15       		.byte	0x15
 3649 0f4a 3F090000 		.4byte	0x93f
 3650 0f4e 05       		.uleb128 0x5
 3651 0f4f 03       		.byte	0x3
 3652 0f50 00000000 		.4byte	_g_pumpjobqueue
 3653 0f54 08       		.uleb128 0x8
 3654 0f55 22060000 		.4byte	0x622
 3655 0f59 640F0000 		.4byte	0xf64
 3656 0f5d 09       		.uleb128 0x9
 3657 0f5e E1000000 		.4byte	0xe1
 3658 0f62 03       		.byte	0x3
 3659 0f63 00       		.byte	0
 3660 0f64 27       		.uleb128 0x27
 3661 0f65 D20C0000 		.4byte	.LASF228
ARM GAS  C:\Users\RECEPC~1\AppData\Local\Temp\ccAtWeRe.s 			page 72


 3662 0f69 01       		.byte	0x1
 3663 0f6a 16       		.byte	0x16
 3664 0f6b 540F0000 		.4byte	0xf54
 3665 0f6f 05       		.uleb128 0x5
 3666 0f70 03       		.byte	0x3
 3667 0f71 00000000 		.4byte	_g_pumps
 3668 0f75 27       		.uleb128 0x27
 3669 0f76 580D0000 		.4byte	.LASF229
 3670 0f7a 01       		.byte	0x1
 3671 0f7b 18       		.byte	0x18
 3672 0f7c 350A0000 		.4byte	0xa35
 3673 0f80 05       		.uleb128 0x5
 3674 0f81 03       		.byte	0x3
 3675 0f82 00000000 		.4byte	_g_dispenserlayoutinfo
 3676 0f86 00       		.byte	0
 3677              		.section	.debug_abbrev,"",%progbits
 3678              	.Ldebug_abbrev0:
 3679 0000 01       		.uleb128 0x1
 3680 0001 11       		.uleb128 0x11
 3681 0002 01       		.byte	0x1
 3682 0003 25       		.uleb128 0x25
 3683 0004 0E       		.uleb128 0xe
 3684 0005 13       		.uleb128 0x13
 3685 0006 0B       		.uleb128 0xb
 3686 0007 03       		.uleb128 0x3
 3687 0008 0E       		.uleb128 0xe
 3688 0009 1B       		.uleb128 0x1b
 3689 000a 0E       		.uleb128 0xe
 3690 000b 55       		.uleb128 0x55
 3691 000c 17       		.uleb128 0x17
 3692 000d 11       		.uleb128 0x11
 3693 000e 01       		.uleb128 0x1
 3694 000f 10       		.uleb128 0x10
 3695 0010 17       		.uleb128 0x17
 3696 0011 00       		.byte	0
 3697 0012 00       		.byte	0
 3698 0013 02       		.uleb128 0x2
 3699 0014 24       		.uleb128 0x24
 3700 0015 00       		.byte	0
 3701 0016 0B       		.uleb128 0xb
 3702 0017 0B       		.uleb128 0xb
 3703 0018 3E       		.uleb128 0x3e
 3704 0019 0B       		.uleb128 0xb
 3705 001a 03       		.uleb128 0x3
 3706 001b 0E       		.uleb128 0xe
 3707 001c 00       		.byte	0
 3708 001d 00       		.byte	0
 3709 001e 03       		.uleb128 0x3
 3710 001f 16       		.uleb128 0x16
 3711 0020 00       		.byte	0
 3712 0021 03       		.uleb128 0x3
 3713 0022 0E       		.uleb128 0xe
 3714 0023 3A       		.uleb128 0x3a
 3715 0024 0B       		.uleb128 0xb
 3716 0025 3B       		.uleb128 0x3b
 3717 0026 0B       		.uleb128 0xb
 3718 0027 49       		.uleb128 0x49
ARM GAS  C:\Users\RECEPC~1\AppData\Local\Temp\ccAtWeRe.s 			page 73


 3719 0028 13       		.uleb128 0x13
 3720 0029 00       		.byte	0
 3721 002a 00       		.byte	0
 3722 002b 04       		.uleb128 0x4
 3723 002c 24       		.uleb128 0x24
 3724 002d 00       		.byte	0
 3725 002e 0B       		.uleb128 0xb
 3726 002f 0B       		.uleb128 0xb
 3727 0030 3E       		.uleb128 0x3e
 3728 0031 0B       		.uleb128 0xb
 3729 0032 03       		.uleb128 0x3
 3730 0033 08       		.uleb128 0x8
 3731 0034 00       		.byte	0
 3732 0035 00       		.byte	0
 3733 0036 05       		.uleb128 0x5
 3734 0037 16       		.uleb128 0x16
 3735 0038 00       		.byte	0
 3736 0039 03       		.uleb128 0x3
 3737 003a 0E       		.uleb128 0xe
 3738 003b 3A       		.uleb128 0x3a
 3739 003c 0B       		.uleb128 0xb
 3740 003d 3B       		.uleb128 0x3b
 3741 003e 05       		.uleb128 0x5
 3742 003f 49       		.uleb128 0x49
 3743 0040 13       		.uleb128 0x13
 3744 0041 00       		.byte	0
 3745 0042 00       		.byte	0
 3746 0043 06       		.uleb128 0x6
 3747 0044 35       		.uleb128 0x35
 3748 0045 00       		.byte	0
 3749 0046 49       		.uleb128 0x49
 3750 0047 13       		.uleb128 0x13
 3751 0048 00       		.byte	0
 3752 0049 00       		.byte	0
 3753 004a 07       		.uleb128 0x7
 3754 004b 0F       		.uleb128 0xf
 3755 004c 00       		.byte	0
 3756 004d 0B       		.uleb128 0xb
 3757 004e 0B       		.uleb128 0xb
 3758 004f 00       		.byte	0
 3759 0050 00       		.byte	0
 3760 0051 08       		.uleb128 0x8
 3761 0052 01       		.uleb128 0x1
 3762 0053 01       		.byte	0x1
 3763 0054 49       		.uleb128 0x49
 3764 0055 13       		.uleb128 0x13
 3765 0056 01       		.uleb128 0x1
 3766 0057 13       		.uleb128 0x13
 3767 0058 00       		.byte	0
 3768 0059 00       		.byte	0
 3769 005a 09       		.uleb128 0x9
 3770 005b 21       		.uleb128 0x21
 3771 005c 00       		.byte	0
 3772 005d 49       		.uleb128 0x49
 3773 005e 13       		.uleb128 0x13
 3774 005f 2F       		.uleb128 0x2f
 3775 0060 0B       		.uleb128 0xb
ARM GAS  C:\Users\RECEPC~1\AppData\Local\Temp\ccAtWeRe.s 			page 74


 3776 0061 00       		.byte	0
 3777 0062 00       		.byte	0
 3778 0063 0A       		.uleb128 0xa
 3779 0064 04       		.uleb128 0x4
 3780 0065 01       		.byte	0x1
 3781 0066 03       		.uleb128 0x3
 3782 0067 0E       		.uleb128 0xe
 3783 0068 0B       		.uleb128 0xb
 3784 0069 0B       		.uleb128 0xb
 3785 006a 3A       		.uleb128 0x3a
 3786 006b 0B       		.uleb128 0xb
 3787 006c 3B       		.uleb128 0x3b
 3788 006d 0B       		.uleb128 0xb
 3789 006e 01       		.uleb128 0x1
 3790 006f 13       		.uleb128 0x13
 3791 0070 00       		.byte	0
 3792 0071 00       		.byte	0
 3793 0072 0B       		.uleb128 0xb
 3794 0073 28       		.uleb128 0x28
 3795 0074 00       		.byte	0
 3796 0075 03       		.uleb128 0x3
 3797 0076 0E       		.uleb128 0xe
 3798 0077 1C       		.uleb128 0x1c
 3799 0078 0D       		.uleb128 0xd
 3800 0079 00       		.byte	0
 3801 007a 00       		.byte	0
 3802 007b 0C       		.uleb128 0xc
 3803 007c 04       		.uleb128 0x4
 3804 007d 01       		.byte	0x1
 3805 007e 03       		.uleb128 0x3
 3806 007f 0E       		.uleb128 0xe
 3807 0080 0B       		.uleb128 0xb
 3808 0081 0B       		.uleb128 0xb
 3809 0082 3A       		.uleb128 0x3a
 3810 0083 0B       		.uleb128 0xb
 3811 0084 3B       		.uleb128 0x3b
 3812 0085 05       		.uleb128 0x5
 3813 0086 01       		.uleb128 0x1
 3814 0087 13       		.uleb128 0x13
 3815 0088 00       		.byte	0
 3816 0089 00       		.byte	0
 3817 008a 0D       		.uleb128 0xd
 3818 008b 13       		.uleb128 0x13
 3819 008c 01       		.byte	0x1
 3820 008d 0B       		.uleb128 0xb
 3821 008e 05       		.uleb128 0x5
 3822 008f 3A       		.uleb128 0x3a
 3823 0090 0B       		.uleb128 0xb
 3824 0091 3B       		.uleb128 0x3b
 3825 0092 05       		.uleb128 0x5
 3826 0093 01       		.uleb128 0x1
 3827 0094 13       		.uleb128 0x13
 3828 0095 00       		.byte	0
 3829 0096 00       		.byte	0
 3830 0097 0E       		.uleb128 0xe
 3831 0098 0D       		.uleb128 0xd
 3832 0099 00       		.byte	0
ARM GAS  C:\Users\RECEPC~1\AppData\Local\Temp\ccAtWeRe.s 			page 75


 3833 009a 03       		.uleb128 0x3
 3834 009b 0E       		.uleb128 0xe
 3835 009c 3A       		.uleb128 0x3a
 3836 009d 0B       		.uleb128 0xb
 3837 009e 3B       		.uleb128 0x3b
 3838 009f 05       		.uleb128 0x5
 3839 00a0 49       		.uleb128 0x49
 3840 00a1 13       		.uleb128 0x13
 3841 00a2 38       		.uleb128 0x38
 3842 00a3 0B       		.uleb128 0xb
 3843 00a4 00       		.byte	0
 3844 00a5 00       		.byte	0
 3845 00a6 0F       		.uleb128 0xf
 3846 00a7 0D       		.uleb128 0xd
 3847 00a8 00       		.byte	0
 3848 00a9 03       		.uleb128 0x3
 3849 00aa 0E       		.uleb128 0xe
 3850 00ab 3A       		.uleb128 0x3a
 3851 00ac 0B       		.uleb128 0xb
 3852 00ad 3B       		.uleb128 0x3b
 3853 00ae 05       		.uleb128 0x5
 3854 00af 49       		.uleb128 0x49
 3855 00b0 13       		.uleb128 0x13
 3856 00b1 38       		.uleb128 0x38
 3857 00b2 05       		.uleb128 0x5
 3858 00b3 00       		.byte	0
 3859 00b4 00       		.byte	0
 3860 00b5 10       		.uleb128 0x10
 3861 00b6 0F       		.uleb128 0xf
 3862 00b7 00       		.byte	0
 3863 00b8 0B       		.uleb128 0xb
 3864 00b9 0B       		.uleb128 0xb
 3865 00ba 49       		.uleb128 0x49
 3866 00bb 13       		.uleb128 0x13
 3867 00bc 00       		.byte	0
 3868 00bd 00       		.byte	0
 3869 00be 11       		.uleb128 0x11
 3870 00bf 13       		.uleb128 0x13
 3871 00c0 01       		.byte	0x1
 3872 00c1 0B       		.uleb128 0xb
 3873 00c2 0B       		.uleb128 0xb
 3874 00c3 3A       		.uleb128 0x3a
 3875 00c4 0B       		.uleb128 0xb
 3876 00c5 3B       		.uleb128 0x3b
 3877 00c6 05       		.uleb128 0x5
 3878 00c7 01       		.uleb128 0x1
 3879 00c8 13       		.uleb128 0x13
 3880 00c9 00       		.byte	0
 3881 00ca 00       		.byte	0
 3882 00cb 12       		.uleb128 0x12
 3883 00cc 13       		.uleb128 0x13
 3884 00cd 01       		.byte	0x1
 3885 00ce 03       		.uleb128 0x3
 3886 00cf 0E       		.uleb128 0xe
 3887 00d0 0B       		.uleb128 0xb
 3888 00d1 05       		.uleb128 0x5
 3889 00d2 3A       		.uleb128 0x3a
ARM GAS  C:\Users\RECEPC~1\AppData\Local\Temp\ccAtWeRe.s 			page 76


 3890 00d3 0B       		.uleb128 0xb
 3891 00d4 3B       		.uleb128 0x3b
 3892 00d5 05       		.uleb128 0x5
 3893 00d6 01       		.uleb128 0x1
 3894 00d7 13       		.uleb128 0x13
 3895 00d8 00       		.byte	0
 3896 00d9 00       		.byte	0
 3897 00da 13       		.uleb128 0x13
 3898 00db 21       		.uleb128 0x21
 3899 00dc 00       		.byte	0
 3900 00dd 49       		.uleb128 0x49
 3901 00de 13       		.uleb128 0x13
 3902 00df 2F       		.uleb128 0x2f
 3903 00e0 05       		.uleb128 0x5
 3904 00e1 00       		.byte	0
 3905 00e2 00       		.byte	0
 3906 00e3 14       		.uleb128 0x14
 3907 00e4 15       		.uleb128 0x15
 3908 00e5 01       		.byte	0x1
 3909 00e6 27       		.uleb128 0x27
 3910 00e7 19       		.uleb128 0x19
 3911 00e8 01       		.uleb128 0x1
 3912 00e9 13       		.uleb128 0x13
 3913 00ea 00       		.byte	0
 3914 00eb 00       		.byte	0
 3915 00ec 15       		.uleb128 0x15
 3916 00ed 05       		.uleb128 0x5
 3917 00ee 00       		.byte	0
 3918 00ef 49       		.uleb128 0x49
 3919 00f0 13       		.uleb128 0x13
 3920 00f1 00       		.byte	0
 3921 00f2 00       		.byte	0
 3922 00f3 16       		.uleb128 0x16
 3923 00f4 15       		.uleb128 0x15
 3924 00f5 01       		.byte	0x1
 3925 00f6 27       		.uleb128 0x27
 3926 00f7 19       		.uleb128 0x19
 3927 00f8 49       		.uleb128 0x49
 3928 00f9 13       		.uleb128 0x13
 3929 00fa 01       		.uleb128 0x1
 3930 00fb 13       		.uleb128 0x13
 3931 00fc 00       		.byte	0
 3932 00fd 00       		.byte	0
 3933 00fe 17       		.uleb128 0x17
 3934 00ff 13       		.uleb128 0x13
 3935 0100 01       		.byte	0x1
 3936 0101 03       		.uleb128 0x3
 3937 0102 0E       		.uleb128 0xe
 3938 0103 0B       		.uleb128 0xb
 3939 0104 0B       		.uleb128 0xb
 3940 0105 3A       		.uleb128 0x3a
 3941 0106 0B       		.uleb128 0xb
 3942 0107 3B       		.uleb128 0x3b
 3943 0108 05       		.uleb128 0x5
 3944 0109 01       		.uleb128 0x1
 3945 010a 13       		.uleb128 0x13
 3946 010b 00       		.byte	0
ARM GAS  C:\Users\RECEPC~1\AppData\Local\Temp\ccAtWeRe.s 			page 77


 3947 010c 00       		.byte	0
 3948 010d 18       		.uleb128 0x18
 3949 010e 0D       		.uleb128 0xd
 3950 010f 00       		.byte	0
 3951 0110 03       		.uleb128 0x3
 3952 0111 0E       		.uleb128 0xe
 3953 0112 3A       		.uleb128 0x3a
 3954 0113 0B       		.uleb128 0xb
 3955 0114 3B       		.uleb128 0x3b
 3956 0115 05       		.uleb128 0x5
 3957 0116 49       		.uleb128 0x49
 3958 0117 13       		.uleb128 0x13
 3959 0118 0B       		.uleb128 0xb
 3960 0119 0B       		.uleb128 0xb
 3961 011a 0D       		.uleb128 0xd
 3962 011b 0B       		.uleb128 0xb
 3963 011c 0C       		.uleb128 0xc
 3964 011d 0B       		.uleb128 0xb
 3965 011e 38       		.uleb128 0x38
 3966 011f 0B       		.uleb128 0xb
 3967 0120 00       		.byte	0
 3968 0121 00       		.byte	0
 3969 0122 19       		.uleb128 0x19
 3970 0123 2E       		.uleb128 0x2e
 3971 0124 01       		.byte	0x1
 3972 0125 3F       		.uleb128 0x3f
 3973 0126 19       		.uleb128 0x19
 3974 0127 03       		.uleb128 0x3
 3975 0128 0E       		.uleb128 0xe
 3976 0129 3A       		.uleb128 0x3a
 3977 012a 0B       		.uleb128 0xb
 3978 012b 3B       		.uleb128 0x3b
 3979 012c 0B       		.uleb128 0xb
 3980 012d 11       		.uleb128 0x11
 3981 012e 01       		.uleb128 0x1
 3982 012f 12       		.uleb128 0x12
 3983 0130 06       		.uleb128 0x6
 3984 0131 40       		.uleb128 0x40
 3985 0132 18       		.uleb128 0x18
 3986 0133 9642     		.uleb128 0x2116
 3987 0135 19       		.uleb128 0x19
 3988 0136 01       		.uleb128 0x1
 3989 0137 13       		.uleb128 0x13
 3990 0138 00       		.byte	0
 3991 0139 00       		.byte	0
 3992 013a 1A       		.uleb128 0x1a
 3993 013b 34       		.uleb128 0x34
 3994 013c 00       		.byte	0
 3995 013d 03       		.uleb128 0x3
 3996 013e 0E       		.uleb128 0xe
 3997 013f 3A       		.uleb128 0x3a
 3998 0140 0B       		.uleb128 0xb
 3999 0141 3B       		.uleb128 0x3b
 4000 0142 0B       		.uleb128 0xb
 4001 0143 49       		.uleb128 0x49
 4002 0144 13       		.uleb128 0x13
 4003 0145 02       		.uleb128 0x2
ARM GAS  C:\Users\RECEPC~1\AppData\Local\Temp\ccAtWeRe.s 			page 78


 4004 0146 18       		.uleb128 0x18
 4005 0147 00       		.byte	0
 4006 0148 00       		.byte	0
 4007 0149 1B       		.uleb128 0x1b
 4008 014a 0B       		.uleb128 0xb
 4009 014b 01       		.byte	0x1
 4010 014c 11       		.uleb128 0x11
 4011 014d 01       		.uleb128 0x1
 4012 014e 12       		.uleb128 0x12
 4013 014f 06       		.uleb128 0x6
 4014 0150 00       		.byte	0
 4015 0151 00       		.byte	0
 4016 0152 1C       		.uleb128 0x1c
 4017 0153 2E       		.uleb128 0x2e
 4018 0154 01       		.byte	0x1
 4019 0155 3F       		.uleb128 0x3f
 4020 0156 19       		.uleb128 0x19
 4021 0157 03       		.uleb128 0x3
 4022 0158 0E       		.uleb128 0xe
 4023 0159 3A       		.uleb128 0x3a
 4024 015a 0B       		.uleb128 0xb
 4025 015b 3B       		.uleb128 0x3b
 4026 015c 0B       		.uleb128 0xb
 4027 015d 27       		.uleb128 0x27
 4028 015e 19       		.uleb128 0x19
 4029 015f 49       		.uleb128 0x49
 4030 0160 13       		.uleb128 0x13
 4031 0161 11       		.uleb128 0x11
 4032 0162 01       		.uleb128 0x1
 4033 0163 12       		.uleb128 0x12
 4034 0164 06       		.uleb128 0x6
 4035 0165 40       		.uleb128 0x40
 4036 0166 18       		.uleb128 0x18
 4037 0167 9742     		.uleb128 0x2117
 4038 0169 19       		.uleb128 0x19
 4039 016a 01       		.uleb128 0x1
 4040 016b 13       		.uleb128 0x13
 4041 016c 00       		.byte	0
 4042 016d 00       		.byte	0
 4043 016e 1D       		.uleb128 0x1d
 4044 016f 05       		.uleb128 0x5
 4045 0170 00       		.byte	0
 4046 0171 03       		.uleb128 0x3
 4047 0172 0E       		.uleb128 0xe
 4048 0173 3A       		.uleb128 0x3a
 4049 0174 0B       		.uleb128 0xb
 4050 0175 3B       		.uleb128 0x3b
 4051 0176 0B       		.uleb128 0xb
 4052 0177 49       		.uleb128 0x49
 4053 0178 13       		.uleb128 0x13
 4054 0179 02       		.uleb128 0x2
 4055 017a 18       		.uleb128 0x18
 4056 017b 00       		.byte	0
 4057 017c 00       		.byte	0
 4058 017d 1E       		.uleb128 0x1e
 4059 017e 2E       		.uleb128 0x2e
 4060 017f 01       		.byte	0x1
ARM GAS  C:\Users\RECEPC~1\AppData\Local\Temp\ccAtWeRe.s 			page 79


 4061 0180 3F       		.uleb128 0x3f
 4062 0181 19       		.uleb128 0x19
 4063 0182 03       		.uleb128 0x3
 4064 0183 0E       		.uleb128 0xe
 4065 0184 3A       		.uleb128 0x3a
 4066 0185 0B       		.uleb128 0xb
 4067 0186 3B       		.uleb128 0x3b
 4068 0187 0B       		.uleb128 0xb
 4069 0188 27       		.uleb128 0x27
 4070 0189 19       		.uleb128 0x19
 4071 018a 11       		.uleb128 0x11
 4072 018b 01       		.uleb128 0x1
 4073 018c 12       		.uleb128 0x12
 4074 018d 06       		.uleb128 0x6
 4075 018e 40       		.uleb128 0x40
 4076 018f 18       		.uleb128 0x18
 4077 0190 9742     		.uleb128 0x2117
 4078 0192 19       		.uleb128 0x19
 4079 0193 01       		.uleb128 0x1
 4080 0194 13       		.uleb128 0x13
 4081 0195 00       		.byte	0
 4082 0196 00       		.byte	0
 4083 0197 1F       		.uleb128 0x1f
 4084 0198 2E       		.uleb128 0x2e
 4085 0199 01       		.byte	0x1
 4086 019a 3F       		.uleb128 0x3f
 4087 019b 19       		.uleb128 0x19
 4088 019c 03       		.uleb128 0x3
 4089 019d 0E       		.uleb128 0xe
 4090 019e 3A       		.uleb128 0x3a
 4091 019f 0B       		.uleb128 0xb
 4092 01a0 3B       		.uleb128 0x3b
 4093 01a1 05       		.uleb128 0x5
 4094 01a2 27       		.uleb128 0x27
 4095 01a3 19       		.uleb128 0x19
 4096 01a4 11       		.uleb128 0x11
 4097 01a5 01       		.uleb128 0x1
 4098 01a6 12       		.uleb128 0x12
 4099 01a7 06       		.uleb128 0x6
 4100 01a8 40       		.uleb128 0x40
 4101 01a9 18       		.uleb128 0x18
 4102 01aa 9742     		.uleb128 0x2117
 4103 01ac 19       		.uleb128 0x19
 4104 01ad 01       		.uleb128 0x1
 4105 01ae 13       		.uleb128 0x13
 4106 01af 00       		.byte	0
 4107 01b0 00       		.byte	0
 4108 01b1 20       		.uleb128 0x20
 4109 01b2 05       		.uleb128 0x5
 4110 01b3 00       		.byte	0
 4111 01b4 03       		.uleb128 0x3
 4112 01b5 0E       		.uleb128 0xe
 4113 01b6 3A       		.uleb128 0x3a
 4114 01b7 0B       		.uleb128 0xb
 4115 01b8 3B       		.uleb128 0x3b
 4116 01b9 05       		.uleb128 0x5
 4117 01ba 49       		.uleb128 0x49
ARM GAS  C:\Users\RECEPC~1\AppData\Local\Temp\ccAtWeRe.s 			page 80


 4118 01bb 13       		.uleb128 0x13
 4119 01bc 02       		.uleb128 0x2
 4120 01bd 18       		.uleb128 0x18
 4121 01be 00       		.byte	0
 4122 01bf 00       		.byte	0
 4123 01c0 21       		.uleb128 0x21
 4124 01c1 05       		.uleb128 0x5
 4125 01c2 00       		.byte	0
 4126 01c3 03       		.uleb128 0x3
 4127 01c4 08       		.uleb128 0x8
 4128 01c5 3A       		.uleb128 0x3a
 4129 01c6 0B       		.uleb128 0xb
 4130 01c7 3B       		.uleb128 0x3b
 4131 01c8 05       		.uleb128 0x5
 4132 01c9 49       		.uleb128 0x49
 4133 01ca 13       		.uleb128 0x13
 4134 01cb 02       		.uleb128 0x2
 4135 01cc 18       		.uleb128 0x18
 4136 01cd 00       		.byte	0
 4137 01ce 00       		.byte	0
 4138 01cf 22       		.uleb128 0x22
 4139 01d0 34       		.uleb128 0x34
 4140 01d1 00       		.byte	0
 4141 01d2 03       		.uleb128 0x3
 4142 01d3 0E       		.uleb128 0xe
 4143 01d4 3A       		.uleb128 0x3a
 4144 01d5 0B       		.uleb128 0xb
 4145 01d6 3B       		.uleb128 0x3b
 4146 01d7 05       		.uleb128 0x5
 4147 01d8 49       		.uleb128 0x49
 4148 01d9 13       		.uleb128 0x13
 4149 01da 02       		.uleb128 0x2
 4150 01db 18       		.uleb128 0x18
 4151 01dc 00       		.byte	0
 4152 01dd 00       		.byte	0
 4153 01de 23       		.uleb128 0x23
 4154 01df 2E       		.uleb128 0x2e
 4155 01e0 01       		.byte	0x1
 4156 01e1 3F       		.uleb128 0x3f
 4157 01e2 19       		.uleb128 0x19
 4158 01e3 03       		.uleb128 0x3
 4159 01e4 0E       		.uleb128 0xe
 4160 01e5 3A       		.uleb128 0x3a
 4161 01e6 0B       		.uleb128 0xb
 4162 01e7 3B       		.uleb128 0x3b
 4163 01e8 05       		.uleb128 0x5
 4164 01e9 27       		.uleb128 0x27
 4165 01ea 19       		.uleb128 0x19
 4166 01eb 11       		.uleb128 0x11
 4167 01ec 01       		.uleb128 0x1
 4168 01ed 12       		.uleb128 0x12
 4169 01ee 06       		.uleb128 0x6
 4170 01ef 40       		.uleb128 0x40
 4171 01f0 18       		.uleb128 0x18
 4172 01f1 9642     		.uleb128 0x2116
 4173 01f3 19       		.uleb128 0x19
 4174 01f4 01       		.uleb128 0x1
ARM GAS  C:\Users\RECEPC~1\AppData\Local\Temp\ccAtWeRe.s 			page 81


 4175 01f5 13       		.uleb128 0x13
 4176 01f6 00       		.byte	0
 4177 01f7 00       		.byte	0
 4178 01f8 24       		.uleb128 0x24
 4179 01f9 2E       		.uleb128 0x2e
 4180 01fa 01       		.byte	0x1
 4181 01fb 3F       		.uleb128 0x3f
 4182 01fc 19       		.uleb128 0x19
 4183 01fd 03       		.uleb128 0x3
 4184 01fe 0E       		.uleb128 0xe
 4185 01ff 3A       		.uleb128 0x3a
 4186 0200 0B       		.uleb128 0xb
 4187 0201 3B       		.uleb128 0x3b
 4188 0202 05       		.uleb128 0x5
 4189 0203 27       		.uleb128 0x27
 4190 0204 19       		.uleb128 0x19
 4191 0205 49       		.uleb128 0x49
 4192 0206 13       		.uleb128 0x13
 4193 0207 11       		.uleb128 0x11
 4194 0208 01       		.uleb128 0x1
 4195 0209 12       		.uleb128 0x12
 4196 020a 06       		.uleb128 0x6
 4197 020b 40       		.uleb128 0x40
 4198 020c 18       		.uleb128 0x18
 4199 020d 9742     		.uleb128 0x2117
 4200 020f 19       		.uleb128 0x19
 4201 0210 01       		.uleb128 0x1
 4202 0211 13       		.uleb128 0x13
 4203 0212 00       		.byte	0
 4204 0213 00       		.byte	0
 4205 0214 25       		.uleb128 0x25
 4206 0215 2E       		.uleb128 0x2e
 4207 0216 01       		.byte	0x1
 4208 0217 3F       		.uleb128 0x3f
 4209 0218 19       		.uleb128 0x19
 4210 0219 03       		.uleb128 0x3
 4211 021a 0E       		.uleb128 0xe
 4212 021b 3A       		.uleb128 0x3a
 4213 021c 0B       		.uleb128 0xb
 4214 021d 3B       		.uleb128 0x3b
 4215 021e 05       		.uleb128 0x5
 4216 021f 27       		.uleb128 0x27
 4217 0220 19       		.uleb128 0x19
 4218 0221 49       		.uleb128 0x49
 4219 0222 13       		.uleb128 0x13
 4220 0223 11       		.uleb128 0x11
 4221 0224 01       		.uleb128 0x1
 4222 0225 12       		.uleb128 0x12
 4223 0226 06       		.uleb128 0x6
 4224 0227 40       		.uleb128 0x40
 4225 0228 18       		.uleb128 0x18
 4226 0229 9642     		.uleb128 0x2116
 4227 022b 19       		.uleb128 0x19
 4228 022c 01       		.uleb128 0x1
 4229 022d 13       		.uleb128 0x13
 4230 022e 00       		.byte	0
 4231 022f 00       		.byte	0
ARM GAS  C:\Users\RECEPC~1\AppData\Local\Temp\ccAtWeRe.s 			page 82


 4232 0230 26       		.uleb128 0x26
 4233 0231 34       		.uleb128 0x34
 4234 0232 00       		.byte	0
 4235 0233 03       		.uleb128 0x3
 4236 0234 0E       		.uleb128 0xe
 4237 0235 3A       		.uleb128 0x3a
 4238 0236 0B       		.uleb128 0xb
 4239 0237 3B       		.uleb128 0x3b
 4240 0238 05       		.uleb128 0x5
 4241 0239 49       		.uleb128 0x49
 4242 023a 13       		.uleb128 0x13
 4243 023b 3F       		.uleb128 0x3f
 4244 023c 19       		.uleb128 0x19
 4245 023d 3C       		.uleb128 0x3c
 4246 023e 19       		.uleb128 0x19
 4247 023f 00       		.byte	0
 4248 0240 00       		.byte	0
 4249 0241 27       		.uleb128 0x27
 4250 0242 34       		.uleb128 0x34
 4251 0243 00       		.byte	0
 4252 0244 03       		.uleb128 0x3
 4253 0245 0E       		.uleb128 0xe
 4254 0246 3A       		.uleb128 0x3a
 4255 0247 0B       		.uleb128 0xb
 4256 0248 3B       		.uleb128 0x3b
 4257 0249 0B       		.uleb128 0xb
 4258 024a 49       		.uleb128 0x49
 4259 024b 13       		.uleb128 0x13
 4260 024c 3F       		.uleb128 0x3f
 4261 024d 19       		.uleb128 0x19
 4262 024e 02       		.uleb128 0x2
 4263 024f 18       		.uleb128 0x18
 4264 0250 00       		.byte	0
 4265 0251 00       		.byte	0
 4266 0252 00       		.byte	0
 4267              		.section	.debug_aranges,"",%progbits
 4268 0000 94000000 		.4byte	0x94
 4269 0004 0200     		.2byte	0x2
 4270 0006 00000000 		.4byte	.Ldebug_info0
 4271 000a 04       		.byte	0x4
 4272 000b 00       		.byte	0
 4273 000c 0000     		.2byte	0
 4274 000e 0000     		.2byte	0
 4275 0010 00000000 		.4byte	.LFB63
 4276 0014 2C030000 		.4byte	.LFE63-.LFB63
 4277 0018 00000000 		.4byte	.LFB64
 4278 001c 38000000 		.4byte	.LFE64-.LFB64
 4279 0020 00000000 		.4byte	.LFB65
 4280 0024 8C000000 		.4byte	.LFE65-.LFB65
 4281 0028 00000000 		.4byte	.LFB66
 4282 002c 44010000 		.4byte	.LFE66-.LFB66
 4283 0030 00000000 		.4byte	.LFB67
 4284 0034 5A000000 		.4byte	.LFE67-.LFB67
 4285 0038 00000000 		.4byte	.LFB68
 4286 003c 30000000 		.4byte	.LFE68-.LFB68
 4287 0040 00000000 		.4byte	.LFB69
 4288 0044 B8000000 		.4byte	.LFE69-.LFB69
ARM GAS  C:\Users\RECEPC~1\AppData\Local\Temp\ccAtWeRe.s 			page 83


 4289 0048 00000000 		.4byte	.LFB70
 4290 004c 76000000 		.4byte	.LFE70-.LFB70
 4291 0050 00000000 		.4byte	.LFB71
 4292 0054 60000000 		.4byte	.LFE71-.LFB71
 4293 0058 00000000 		.4byte	.LFB72
 4294 005c 1E000000 		.4byte	.LFE72-.LFB72
 4295 0060 00000000 		.4byte	.LFB73
 4296 0064 92000000 		.4byte	.LFE73-.LFB73
 4297 0068 00000000 		.4byte	.LFB74
 4298 006c 54000000 		.4byte	.LFE74-.LFB74
 4299 0070 00000000 		.4byte	.LFB75
 4300 0074 92000000 		.4byte	.LFE75-.LFB75
 4301 0078 00000000 		.4byte	.LFB76
 4302 007c 70000000 		.4byte	.LFE76-.LFB76
 4303 0080 00000000 		.4byte	.LFB77
 4304 0084 1E000000 		.4byte	.LFE77-.LFB77
 4305 0088 00000000 		.4byte	.LFB78
 4306 008c B2000000 		.4byte	.LFE78-.LFB78
 4307 0090 00000000 		.4byte	0
 4308 0094 00000000 		.4byte	0
 4309              		.section	.debug_ranges,"",%progbits
 4310              	.Ldebug_ranges0:
 4311 0000 00000000 		.4byte	.LFB63
 4312 0004 2C030000 		.4byte	.LFE63
 4313 0008 00000000 		.4byte	.LFB64
 4314 000c 38000000 		.4byte	.LFE64
 4315 0010 00000000 		.4byte	.LFB65
 4316 0014 8C000000 		.4byte	.LFE65
 4317 0018 00000000 		.4byte	.LFB66
 4318 001c 44010000 		.4byte	.LFE66
 4319 0020 00000000 		.4byte	.LFB67
 4320 0024 5A000000 		.4byte	.LFE67
 4321 0028 00000000 		.4byte	.LFB68
 4322 002c 30000000 		.4byte	.LFE68
 4323 0030 00000000 		.4byte	.LFB69
 4324 0034 B8000000 		.4byte	.LFE69
 4325 0038 00000000 		.4byte	.LFB70
 4326 003c 76000000 		.4byte	.LFE70
 4327 0040 00000000 		.4byte	.LFB71
 4328 0044 60000000 		.4byte	.LFE71
 4329 0048 00000000 		.4byte	.LFB72
 4330 004c 1E000000 		.4byte	.LFE72
 4331 0050 00000000 		.4byte	.LFB73
 4332 0054 92000000 		.4byte	.LFE73
 4333 0058 00000000 		.4byte	.LFB74
 4334 005c 54000000 		.4byte	.LFE74
 4335 0060 00000000 		.4byte	.LFB75
 4336 0064 92000000 		.4byte	.LFE75
 4337 0068 00000000 		.4byte	.LFB76
 4338 006c 70000000 		.4byte	.LFE76
 4339 0070 00000000 		.4byte	.LFB77
 4340 0074 1E000000 		.4byte	.LFE77
 4341 0078 00000000 		.4byte	.LFB78
 4342 007c B2000000 		.4byte	.LFE78
 4343 0080 00000000 		.4byte	0
 4344 0084 00000000 		.4byte	0
 4345              		.section	.debug_line,"",%progbits
ARM GAS  C:\Users\RECEPC~1\AppData\Local\Temp\ccAtWeRe.s 			page 84


 4346              	.Ldebug_line0:
 4347 0000 3D040000 		.section	.debug_str,"MS",%progbits,1
 4347      02009101 
 4347      00000201 
 4347      FB0E0D00 
 4347      01010101 
 4348              	.LASF131:
 4349 0000 46696E61 		.ascii	"Finalization\000"
 4349      6C697A61 
 4349      74696F6E 
 4349      00
 4350              	.LASF160:
 4351 000d 456E7175 		.ascii	"Enqueue\000"
 4351      65756500 
 4352              	.LASF216:
 4353 0015 50756D70 		.ascii	"PumpTransactionalStateEnqueue\000"
 4353      5472616E 
 4353      73616374 
 4353      696F6E61 
 4353      6C537461 
 4354              	.LASF108:
 4355 0033 50756D70 		.ascii	"PumpTransQueueAllocate\000"
 4355      5472616E 
 4355      73517565 
 4355      7565416C 
 4355      6C6F6361 
 4356              	.LASF164:
 4357 004a 50756D70 		.ascii	"PumpJobQueue\000"
 4357      4A6F6251 
 4357      75657565 
 4357      00
 4358              	.LASF96:
 4359 0057 5F747261 		.ascii	"_transhealth\000"
 4359      6E736865 
 4359      616C7468 
 4359      00
 4360              	.LASF172:
 4361 0064 5F6D6F6E 		.ascii	"_moneydecimals\000"
 4361      65796465 
 4361      63696D61 
 4361      6C7300
 4362              	.LASF94:
 4363 0073 5F72746D 		.ascii	"_rtmoneyamount\000"
 4363      6F6E6579 
 4363      616D6F75 
 4363      6E7400
 4364              	.LASF110:
 4365 0082 50756D70 		.ascii	"PumpValidState\000"
 4365      56616C69 
 4365      64537461 
 4365      746500
 4366              	.LASF121:
 4367 0091 52657370 		.ascii	"ResponseSizeResolver\000"
 4367      6F6E7365 
 4367      53697A65 
 4367      5265736F 
 4367      6C766572 
ARM GAS  C:\Users\RECEPC~1\AppData\Local\Temp\ccAtWeRe.s 			page 85


 4368              	.LASF227:
 4369 00a6 5F675F70 		.ascii	"_g_pumpjobqueue\000"
 4369      756D706A 
 4369      6F627175 
 4369      65756500 
 4370              	.LASF150:
 4371 00b6 43616C6C 		.ascii	"Callback\000"
 4371      6261636B 
 4371      00
 4372              	.LASF151:
 4373 00bf 5F706461 		.ascii	"_pdata\000"
 4373      746100
 4374              	.LASF179:
 4375 00c6 5F707265 		.ascii	"_presetdigits\000"
 4375      73657464 
 4375      69676974 
 4375      7300
 4376              	.LASF33:
 4377 00d4 50554D50 		.ascii	"PUMP_BUSY\000"
 4377      5F425553 
 4377      5900
 4378              	.LASF81:
 4379 00de 5F70756D 		.ascii	"_pumpid\000"
 4379      70696400 
 4380              	.LASF76:
 4381 00e6 5F707265 		.ascii	"_presetamount\000"
 4381      73657461 
 4381      6D6F756E 
 4381      7400
 4382              	.LASF165:
 4383 00f4 5F696E63 		.ascii	"_inconfiguration\000"
 4383      6F6E6669 
 4383      67757261 
 4383      74696F6E 
 4383      00
 4384              	.LASF195:
 4385 0105 52465F43 		.ascii	"RF_CREDITSALEREPORT\000"
 4385      52454449 
 4385      5453414C 
 4385      45524550 
 4385      4F525400 
 4386              	.LASF114:
 4387 0119 50756D70 		.ascii	"Pump\000"
 4387      00
 4388              	.LASF200:
 4389 011e 72657476 		.ascii	"retval\000"
 4389      616C00
 4390              	.LASF100:
 4391 0125 5F727862 		.ascii	"_rxbuffersize\000"
 4391      75666665 
 4391      7273697A 
 4391      6500
 4392              	.LASF202:
 4393 0133 74686973 		.ascii	"this\000"
 4393      00
 4394              	.LASF46:
 4395 0138 5F50554D 		.ascii	"_PUMP_TRANS_HEALTH_\000"
ARM GAS  C:\Users\RECEPC~1\AppData\Local\Temp\ccAtWeRe.s 			page 86


 4395      505F5452 
 4395      414E535F 
 4395      4845414C 
 4395      54485F00 
 4396              	.LASF142:
 4397 014c 5F726570 		.ascii	"_repushtimeoutseed\000"
 4397      75736874 
 4397      696D656F 
 4397      75747365 
 4397      656400
 4398              	.LASF107:
 4399 015f 50756D70 		.ascii	"PumpTransQueueDeallocate\000"
 4399      5472616E 
 4399      73517565 
 4399      75654465 
 4399      616C6C6F 
 4400              	.LASF143:
 4401 0178 5F726570 		.ascii	"_repushtimeoutmultiplier\000"
 4401      75736874 
 4401      696D656F 
 4401      75746D75 
 4401      6C746970 
 4402              	.LASF139:
 4403 0191 5F64656C 		.ascii	"_delay\000"
 4403      617900
 4404              	.LASF206:
 4405 0198 50756D70 		.ascii	"PumpJobQueueClear\000"
 4405      4A6F6251 
 4405      75657565 
 4405      436C6561 
 4405      7200
 4406              	.LASF226:
 4407 01aa 49544D5F 		.ascii	"ITM_RxBuffer\000"
 4407      52784275 
 4407      66666572 
 4407      00
 4408              	.LASF219:
 4409 01b7 7472616E 		.ascii	"transtate\000"
 4409      73746174 
 4409      6500
 4410              	.LASF75:
 4411 01c1 5F707269 		.ascii	"_price\000"
 4411      636500
 4412              	.LASF6:
 4413 01c8 6C6F6E67 		.ascii	"long long int\000"
 4413      206C6F6E 
 4413      6720696E 
 4413      7400
 4414              	.LASF0:
 4415 01d6 7369676E 		.ascii	"signed char\000"
 4415      65642063 
 4415      68617200 
 4416              	.LASF72:
 4417 01e2 5F617574 		.ascii	"_authorized\000"
 4417      686F7269 
 4417      7A656400 
 4418              	.LASF128:
ARM GAS  C:\Users\RECEPC~1\AppData\Local\Temp\ccAtWeRe.s 			page 87


 4419 01ee 5F6F6E65 		.ascii	"_oneshotpostconditions\000"
 4419      73686F74 
 4419      706F7374 
 4419      636F6E64 
 4419      6974696F 
 4420              	.LASF183:
 4421 0205 5F50554D 		.ascii	"_PUMP_POSITION_IDLE_\000"
 4421      505F504F 
 4421      53495449 
 4421      4F4E5F49 
 4421      444C455F 
 4422              	.LASF7:
 4423 021a 6C6F6E67 		.ascii	"long long unsigned int\000"
 4423      206C6F6E 
 4423      6720756E 
 4423      7369676E 
 4423      65642069 
 4424              	.LASF22:
 4425 0231 484F5345 		.ascii	"HOSE0\000"
 4425      3000
 4426              	.LASF23:
 4427 0237 484F5345 		.ascii	"HOSE1\000"
 4427      3100
 4428              	.LASF24:
 4429 023d 484F5345 		.ascii	"HOSE2\000"
 4429      3200
 4430              	.LASF25:
 4431 0243 484F5345 		.ascii	"HOSE3\000"
 4431      3300
 4432              	.LASF218:
 4433 0249 50756D70 		.ascii	"PumpTransactionalStateFind\000"
 4433      5472616E 
 4433      73616374 
 4433      696F6E61 
 4433      6C537461 
 4434              	.LASF115:
 4435 0264 504E4541 		.ascii	"PNEAR_PUMPPTR\000"
 4435      525F5055 
 4435      4D505054 
 4435      5200
 4436              	.LASF159:
 4437 0272 416C6C6F 		.ascii	"Allocate\000"
 4437      63617465 
 4437      00
 4438              	.LASF199:
 4439 027b 7472616E 		.ascii	"transindex\000"
 4439      73696E64 
 4439      657800
 4440              	.LASF53:
 4441 0286 5F737461 		.ascii	"_state\000"
 4441      746500
 4442              	.LASF169:
 4443 028d 5F686F73 		.ascii	"_hosesposition2\000"
 4443      6573706F 
 4443      73697469 
 4443      6F6E3200 
 4444              	.LASF170:
ARM GAS  C:\Users\RECEPC~1\AppData\Local\Temp\ccAtWeRe.s 			page 88


 4445 029d 5F686F73 		.ascii	"_hosesposition3\000"
 4445      6573706F 
 4445      73697469 
 4445      6F6E3300 
 4446              	.LASF171:
 4447 02ad 5F686F73 		.ascii	"_hosesposition4\000"
 4447      6573706F 
 4447      73697469 
 4447      6F6E3400 
 4448              	.LASF4:
 4449 02bd 6C6F6E67 		.ascii	"long int\000"
 4449      20696E74 
 4449      00
 4450              	.LASF193:
 4451 02c6 52465F43 		.ascii	"RF_CREDITSALEAUTH\000"
 4451      52454449 
 4451      5453414C 
 4451      45415554 
 4451      4800
 4452              	.LASF36:
 4453 02d8 50554D50 		.ascii	"PUMP_STOPPED\000"
 4453      5F53544F 
 4453      50504544 
 4453      00
 4454              	.LASF124:
 4455 02e5 5F726573 		.ascii	"_responsesize\000"
 4455      706F6E73 
 4455      6573697A 
 4455      6500
 4456              	.LASF88:
 4457 02f3 5F707265 		.ascii	"_presetdone\000"
 4457      73657464 
 4457      6F6E6500 
 4458              	.LASF32:
 4459 02ff 50554D50 		.ascii	"PUMP_AUTHORIZED\000"
 4459      5F415554 
 4459      484F5249 
 4459      5A454400 
 4460              	.LASF148:
 4461 030f 5F707265 		.ascii	"_presponse\000"
 4461      73706F6E 
 4461      736500
 4462              	.LASF149:
 4463 031a 5F707075 		.ascii	"_ppump\000"
 4463      6D7000
 4464              	.LASF187:
 4465 0321 5F50554D 		.ascii	"_PUMP_POSITION_CREDIT_\000"
 4465      505F504F 
 4465      53495449 
 4465      4F4E5F43 
 4465      52454449 
 4466              	.LASF190:
 4467 0338 52465F49 		.ascii	"RF_IDLE\000"
 4467      444C4500 
 4468              	.LASF55:
 4469 0340 5F627566 		.ascii	"_buffer\000"
 4469      66657200 
ARM GAS  C:\Users\RECEPC~1\AppData\Local\Temp\ccAtWeRe.s 			page 89


 4470              	.LASF15:
 4471 0348 646F7562 		.ascii	"double\000"
 4471      6C6500
 4472              	.LASF29:
 4473 034f 50554D50 		.ascii	"PUMP_FAIL\000"
 4473      5F464149 
 4473      4C00
 4474              	.LASF129:
 4475 0359 5F706F73 		.ascii	"_postconditions\000"
 4475      74636F6E 
 4475      64697469 
 4475      6F6E7300 
 4476              	.LASF85:
 4477 0369 5F686F73 		.ascii	"_hoseactivestate\000"
 4477      65616374 
 4477      69766573 
 4477      74617465 
 4477      00
 4478              	.LASF207:
 4479 037a 50756D70 		.ascii	"PumpJobEnqueue\000"
 4479      4A6F6245 
 4479      6E717565 
 4479      756500
 4480              	.LASF42:
 4481 0389 5F50554D 		.ascii	"_PUMP_UNKNOWN_\000"
 4481      505F554E 
 4481      4B4E4F57 
 4481      4E5F00
 4482              	.LASF13:
 4483 0398 75696E74 		.ascii	"uint32\000"
 4483      333200
 4484              	.LASF113:
 4485 039f 436C6561 		.ascii	"CleanUp\000"
 4485      6E557000 
 4486              	.LASF98:
 4487 03a7 5F747261 		.ascii	"_trasactionbuffer\000"
 4487      73616374 
 4487      696F6E62 
 4487      75666665 
 4487      7200
 4488              	.LASF26:
 4489 03b9 484F5345 		.ascii	"HOSEUNKNOWN\000"
 4489      554E4B4E 
 4489      4F574E00 
 4490              	.LASF138:
 4491 03c5 5F726565 		.ascii	"_reenqueuecounter\000"
 4491      6E717565 
 4491      7565636F 
 4491      756E7465 
 4491      7200
 4492              	.LASF102:
 4493 03d7 5F747261 		.ascii	"_transqueuelocked\000"
 4493      6E737175 
 4493      6575656C 
 4493      6F636B65 
 4493      6400
 4494              	.LASF93:
ARM GAS  C:\Users\RECEPC~1\AppData\Local\Temp\ccAtWeRe.s 			page 90


 4495 03e9 5F707269 		.ascii	"_print\000"
 4495      6E7400
 4496              	.LASF196:
 4497 03f0 52465F45 		.ascii	"RF_ERROR\000"
 4497      52524F52 
 4497      00
 4498              	.LASF201:
 4499 03f9 70746869 		.ascii	"pthis\000"
 4499      7300
 4500              	.LASF117:
 4501 03ff 5F50554D 		.ascii	"_PUMP_TRANSACTION_JOB_\000"
 4501      505F5452 
 4501      414E5341 
 4501      4354494F 
 4501      4E5F4A4F 
 4502              	.LASF84:
 4503 0416 5F637572 		.ascii	"_currenthose\000"
 4503      72656E74 
 4503      686F7365 
 4503      00
 4504              	.LASF8:
 4505 0423 756E7369 		.ascii	"unsigned int\000"
 4505      676E6564 
 4505      20696E74 
 4505      00
 4506              	.LASF136:
 4507 0430 51554555 		.ascii	"QUEUE_JOB_BUSY\000"
 4507      455F4A4F 
 4507      425F4255 
 4507      535900
 4508              	.LASF45:
 4509 043f 5F50554D 		.ascii	"_PUMP_RR_INACTIVE_\000"
 4509      505F5252 
 4509      5F494E41 
 4509      43544956 
 4509      455F00
 4510              	.LASF78:
 4511 0452 5F736572 		.ascii	"_serial\000"
 4511      69616C00 
 4512              	.LASF167:
 4513 045a 5F6E756D 		.ascii	"_numpositions\000"
 4513      706F7369 
 4513      74696F6E 
 4513      7300
 4514              	.LASF191:
 4515 0468 52465F44 		.ascii	"RF_DELIVERING\000"
 4515      454C4956 
 4515      4552494E 
 4515      4700
 4516              	.LASF44:
 4517 0476 5F50554D 		.ascii	"_PUMP_RR_ACTIVE_\000"
 4517      505F5252 
 4517      5F414354 
 4517      4956455F 
 4517      00
 4518              	.LASF54:
 4519 0487 5F747261 		.ascii	"_transtate\000"
ARM GAS  C:\Users\RECEPC~1\AppData\Local\Temp\ccAtWeRe.s 			page 91


 4519      6E737461 
 4519      746500
 4520              	.LASF209:
 4521 0492 50756D70 		.ascii	"PumpJobQueuePeek\000"
 4521      4A6F6251 
 4521      75657565 
 4521      5065656B 
 4521      00
 4522              	.LASF233:
 4523 04a3 5F706F69 		.ascii	"_pointcommadecimalmode\000"
 4523      6E74636F 
 4523      6D6D6164 
 4523      6563696D 
 4523      616C6D6F 
 4524              	.LASF56:
 4525 04ba 5F627566 		.ascii	"_buffersize\000"
 4525      66657273 
 4525      697A6500 
 4526              	.LASF106:
 4527 04c6 50756D70 		.ascii	"PumpTransQueueEnqueue\000"
 4527      5472616E 
 4527      73517565 
 4527      7565456E 
 4527      71756575 
 4528              	.LASF48:
 4529 04dc 5F50554D 		.ascii	"_PUMP_FAIL_\000"
 4529      505F4641 
 4529      494C5F00 
 4530              	.LASF173:
 4531 04e8 5F707075 		.ascii	"_ppudecimals\000"
 4531      64656369 
 4531      6D616C73 
 4531      00
 4532              	.LASF11:
 4533 04f5 75696E74 		.ascii	"uint8\000"
 4533      3800
 4534              	.LASF135:
 4535 04fb 51554555 		.ascii	"QUEUE_JOB_ALLOCATED\000"
 4535      455F4A4F 
 4535      425F414C 
 4535      4C4F4341 
 4535      54454400 
 4536              	.LASF144:
 4537 050f 5F726574 		.ascii	"_retriescounter\000"
 4537      72696573 
 4537      636F756E 
 4537      74657200 
 4538              	.LASF3:
 4539 051f 73686F72 		.ascii	"short unsigned int\000"
 4539      7420756E 
 4539      7369676E 
 4539      65642069 
 4539      6E7400
 4540              	.LASF163:
 4541 0532 436C6561 		.ascii	"Clear\000"
 4541      7200
 4542              	.LASF47:
ARM GAS  C:\Users\RECEPC~1\AppData\Local\Temp\ccAtWeRe.s 			page 92


 4543 0538 5F50554D 		.ascii	"_PUMP_OK_\000"
 4543      505F4F4B 
 4543      5F00
 4544              	.LASF90:
 4545 0542 5F726F75 		.ascii	"_roundrobinstate\000"
 4545      6E64726F 
 4545      62696E73 
 4545      74617465 
 4545      00
 4546              	.LASF99:
 4547 0553 5F727862 		.ascii	"_rxbuffer\000"
 4547      75666665 
 4547      7200
 4548              	.LASF217:
 4549 055d 50756D70 		.ascii	"PumpTransactionalStateDeallocate\000"
 4549      5472616E 
 4549      73616374 
 4549      696F6E61 
 4549      6C537461 
 4550              	.LASF174:
 4551 057e 5F766F6C 		.ascii	"_volumedecimals\000"
 4551      756D6564 
 4551      6563696D 
 4551      616C7300 
 4552              	.LASF30:
 4553 058e 50554D50 		.ascii	"PUMP_IDLE\000"
 4553      5F49444C 
 4553      4500
 4554              	.LASF181:
 4555 0598 44697370 		.ascii	"DispenserLayoutInfo\000"
 4555      656E7365 
 4555      724C6179 
 4555      6F757449 
 4555      6E666F00 
 4556              	.LASF28:
 4557 05ac 5F50554D 		.ascii	"_PUMP_STATES_\000"
 4557      505F5354 
 4557      41544553 
 4557      5F00
 4558              	.LASF156:
 4559 05ba 5F6A6F62 		.ascii	"_jobqueueheap\000"
 4559      71756575 
 4559      65686561 
 4559      7000
 4560              	.LASF89:
 4561 05c8 5F70756D 		.ascii	"_pumplocked\000"
 4561      706C6F63 
 4561      6B656400 
 4562              	.LASF2:
 4563 05d4 73686F72 		.ascii	"short int\000"
 4563      7420696E 
 4563      7400
 4564              	.LASF101:
 4565 05de 5F747261 		.ascii	"_transqueue\000"
 4565      6E737175 
 4565      65756500 
 4566              	.LASF147:
ARM GAS  C:\Users\RECEPC~1\AppData\Local\Temp\ccAtWeRe.s 			page 93


 4567 05ea 5F707265 		.ascii	"_prequest\000"
 4567      71756573 
 4567      7400
 4568              	.LASF222:
 4569 05f4 50756D70 		.ascii	"PumpTransactionalStateUnlock\000"
 4569      5472616E 
 4569      73616374 
 4569      696F6E61 
 4569      6C537461 
 4570              	.LASF41:
 4571 0611 5F50554D 		.ascii	"_PUMP_IDLE_\000"
 4571      505F4944 
 4571      4C455F00 
 4572              	.LASF220:
 4573 061d 50756D70 		.ascii	"PumpTransactionalStateAllocate\000"
 4573      5472616E 
 4573      73616374 
 4573      696F6E61 
 4573      6C537461 
 4574              	.LASF105:
 4575 063c 50756D70 		.ascii	"PumpTransQueueFind\000"
 4575      5472616E 
 4575      73517565 
 4575      75654669 
 4575      6E6400
 4576              	.LASF38:
 4577 064f 50554D50 		.ascii	"PUMP_UNKNOWN\000"
 4577      5F554E4B 
 4577      4E4F574E 
 4577      00
 4578              	.LASF192:
 4579 065c 52465F43 		.ascii	"RF_CASHSALEREPORT\000"
 4579      41534853 
 4579      414C4552 
 4579      45504F52 
 4579      5400
 4580              	.LASF162:
 4581 066e 44657175 		.ascii	"Dequeue\000"
 4581      65756500 
 4582              	.LASF77:
 4583 0676 5F766F6C 		.ascii	"_volumeamount\000"
 4583      756D6561 
 4583      6D6F756E 
 4583      7400
 4584              	.LASF19:
 4585 0684 73697A65 		.ascii	"sizetype\000"
 4585      74797065 
 4585      00
 4586              	.LASF20:
 4587 068d 6C6F6E67 		.ascii	"long double\000"
 4587      20646F75 
 4587      626C6500 
 4588              	.LASF155:
 4589 0699 5F717565 		.ascii	"_queueindex\000"
 4589      7565696E 
 4589      64657800 
 4590              	.LASF152:
ARM GAS  C:\Users\RECEPC~1\AppData\Local\Temp\ccAtWeRe.s 			page 94


 4591 06a5 50756D70 		.ascii	"PumpTransactionJobContext\000"
 4591      5472616E 
 4591      73616374 
 4591      696F6E4A 
 4591      6F62436F 
 4592              	.LASF194:
 4593 06bf 52465F57 		.ascii	"RF_WORKSHIFTREQ\000"
 4593      4F524B53 
 4593      48494654 
 4593      52455100 
 4594              	.LASF50:
 4595 06cf 5F50554D 		.ascii	"_PUMP_TRANSTATE_FREE_\000"
 4595      505F5452 
 4595      414E5354 
 4595      4154455F 
 4595      46524545 
 4596              	.LASF80:
 4597 06e5 50756D70 		.ascii	"PumpAuthorizationInfo\000"
 4597      41757468 
 4597      6F72697A 
 4597      6174696F 
 4597      6E496E66 
 4598              	.LASF185:
 4599 06fb 5F50554D 		.ascii	"_PUMP_POSITION_DISPENSING_\000"
 4599      505F504F 
 4599      53495449 
 4599      4F4E5F44 
 4599      49535045 
 4600              	.LASF153:
 4601 0716 5050554D 		.ascii	"PPUMPTRANSACTIONJOBCONTEXTPTR\000"
 4601      50545241 
 4601      4E534143 
 4601      54494F4E 
 4601      4A4F4243 
 4602              	.LASF67:
 4603 0734 5F766172 		.ascii	"_var8\000"
 4603      3800
 4604              	.LASF215:
 4605 073a 70746869 		.ascii	"pthispump\000"
 4605      7370756D 
 4605      7000
 4606              	.LASF134:
 4607 0744 51554555 		.ascii	"QUEUE_JOB_FREE\000"
 4607      455F4A4F 
 4607      425F4652 
 4607      454500
 4608              	.LASF31:
 4609 0753 50554D50 		.ascii	"PUMP_CALLING\000"
 4609      5F43414C 
 4609      4C494E47 
 4609      00
 4610              	.LASF104:
 4611 0760 50756D70 		.ascii	"PumpTransQueueUnlock\000"
 4611      5472616E 
 4611      73517565 
 4611      7565556E 
 4611      6C6F636B 
ARM GAS  C:\Users\RECEPC~1\AppData\Local\Temp\ccAtWeRe.s 			page 95


 4612              	.LASF230:
 4613 0775 474E5520 		.ascii	"GNU C 4.9.3 20150303 (release) [ARM/embedded-4_9-br"
 4613      4320342E 
 4613      392E3320 
 4613      32303135 
 4613      30333033 
 4614 07a8 616E6368 		.ascii	"anch revision 221220] -mcpu=cortex-m3 -mthumb -g -O"
 4614      20726576 
 4614      6973696F 
 4614      6E203232 
 4614      31323230 
 4615 07db 30202D66 		.ascii	"0 -ffunction-sections -ffat-lto-objects\000"
 4615      66756E63 
 4615      74696F6E 
 4615      2D736563 
 4615      74696F6E 
 4616              	.LASF40:
 4617 0803 5F50554D 		.ascii	"_PUMP_BUSY_\000"
 4617      505F4255 
 4617      53595F00 
 4618              	.LASF57:
 4619 080f 50756D70 		.ascii	"PumpTransactionalState\000"
 4619      5472616E 
 4619      73616374 
 4619      696F6E61 
 4619      6C537461 
 4620              	.LASF71:
 4621 0826 50756D70 		.ascii	"PumpDataContainer\000"
 4621      44617461 
 4621      436F6E74 
 4621      61696E65 
 4621      7200
 4622              	.LASF111:
 4623 0838 5F646174 		.ascii	"_datacontainer\000"
 4623      61636F6E 
 4623      7461696E 
 4623      657200
 4624              	.LASF97:
 4625 0847 5F706375 		.ascii	"_pcurrtransaction\000"
 4625      72727472 
 4625      616E7361 
 4625      6374696F 
 4625      6E00
 4626              	.LASF157:
 4627 0859 5F706A6F 		.ascii	"_pjobqueueallocated\000"
 4627      62717565 
 4627      7565616C 
 4627      6C6F6361 
 4627      74656400 
 4628              	.LASF95:
 4629 086d 5F727476 		.ascii	"_rtvolumeamount\000"
 4629      6F6C756D 
 4629      65616D6F 
 4629      756E7400 
 4630              	.LASF74:
 4631 087d 5F686F73 		.ascii	"_hoseid\000"
 4631      65696400 
ARM GAS  C:\Users\RECEPC~1\AppData\Local\Temp\ccAtWeRe.s 			page 96


 4632              	.LASF119:
 4633 0885 52657370 		.ascii	"Response\000"
 4633      6F6E7365 
 4633      00
 4634              	.LASF122:
 4635 088e 5F726573 		.ascii	"_responsetimeoutlimit\000"
 4635      706F6E73 
 4635      6574696D 
 4635      656F7574 
 4635      6C696D69 
 4636              	.LASF125:
 4637 08a4 5F726574 		.ascii	"_retryinsteadofrepush\000"
 4637      7279696E 
 4637      73746561 
 4637      646F6672 
 4637      65707573 
 4638              	.LASF186:
 4639 08ba 5F50554D 		.ascii	"_PUMP_POSITION_TRANSREPORT_\000"
 4639      505F504F 
 4639      53495449 
 4639      4F4E5F54 
 4639      52414E53 
 4640              	.LASF126:
 4641 08d6 5F6F6E65 		.ascii	"_oneshotpreconditions\000"
 4641      73686F74 
 4641      70726563 
 4641      6F6E6469 
 4641      74696F6E 
 4642              	.LASF232:
 4643 08ec 433A5C54 		.ascii	"C:\\TeamInsepet\\NSX-Prime\\Hardware\\CorEx-MUX-Ker"
 4643      65616D49 
 4643      6E736570 
 4643      65745C4E 
 4643      53582D50 
 4644 091b 6E656C2D 		.ascii	"nel-Enhanced\\Workspace01\\CorEx-Mux-Kernel.cydsn\000"
 4644      456E6861 
 4644      6E636564 
 4644      5C576F72 
 4644      6B737061 
 4645              	.LASF79:
 4646 094b 5F426F6F 		.ascii	"_Bool\000"
 4646      6C00
 4647              	.LASF10:
 4648 0951 696E7433 		.ascii	"int32_t\000"
 4648      325F7400 
 4649              	.LASF1:
 4650 0959 756E7369 		.ascii	"unsigned char\000"
 4650      676E6564 
 4650      20636861 
 4650      7200
 4651              	.LASF12:
 4652 0967 75696E74 		.ascii	"uint16\000"
 4652      313600
 4653              	.LASF92:
 4654 096e 5F70756D 		.ascii	"_pumprftransstate\000"
 4654      70726674 
 4654      72616E73 
ARM GAS  C:\Users\RECEPC~1\AppData\Local\Temp\ccAtWeRe.s 			page 97


 4654      73746174 
 4654      6500
 4655              	.LASF133:
 4656 0980 5F515545 		.ascii	"_QUEUE_JOB_STATE_\000"
 4656      55455F4A 
 4656      4F425F53 
 4656      54415445 
 4656      5F00
 4657              	.LASF91:
 4658 0992 5F706F73 		.ascii	"_positionlocked\000"
 4658      6974696F 
 4658      6E6C6F63 
 4658      6B656400 
 4659              	.LASF120:
 4660 09a2 54696D65 		.ascii	"TimeoutCallback\000"
 4660      6F757443 
 4660      616C6C62 
 4660      61636B00 
 4661              	.LASF161:
 4662 09b2 5065656B 		.ascii	"Peek\000"
 4662      00
 4663              	.LASF63:
 4664 09b7 5F766172 		.ascii	"_var4\000"
 4664      3400
 4665              	.LASF16:
 4666 09bd 75696E74 		.ascii	"uint64\000"
 4666      363400
 4667              	.LASF145:
 4668 09c4 5F74696D 		.ascii	"_timeoutseed\000"
 4668      656F7574 
 4668      73656564 
 4668      00
 4669              	.LASF65:
 4670 09d1 5F766172 		.ascii	"_var6\000"
 4670      3600
 4671              	.LASF188:
 4672 09d7 5F50554D 		.ascii	"_PUMP_POSITION_ERROR_\000"
 4672      505F504F 
 4672      53495449 
 4672      4F4E5F45 
 4672      52524F52 
 4673              	.LASF212:
 4674 09ed 70746F70 		.ascii	"ptopjob\000"
 4674      6A6F6200 
 4675              	.LASF224:
 4676 09f5 70706172 		.ascii	"pparam\000"
 4676      616D00
 4677              	.LASF37:
 4678 09fc 50554D50 		.ascii	"PUMP_SEND_DATA\000"
 4678      5F53454E 
 4678      445F4441 
 4678      544100
 4679              	.LASF182:
 4680 0a0b 5F545241 		.ascii	"_TRANSACTIONAL_STATES_\000"
 4680      4E534143 
 4680      54494F4E 
 4680      414C5F53 
ARM GAS  C:\Users\RECEPC~1\AppData\Local\Temp\ccAtWeRe.s 			page 98


 4680      54415445 
 4681              	.LASF177:
 4682 0a22 5F6D696E 		.ascii	"_minvolumevalue\000"
 4682      766F6C75 
 4682      6D657661 
 4682      6C756500 
 4683              	.LASF189:
 4684 0a32 5F52465F 		.ascii	"_RF_STATES_\000"
 4684      53544154 
 4684      45535F00 
 4685              	.LASF69:
 4686 0a3e 5F766172 		.ascii	"_varA\000"
 4686      4100
 4687              	.LASF205:
 4688 0a44 70726574 		.ascii	"pretval\000"
 4688      76616C00 
 4689              	.LASF86:
 4690 0a4c 5F616371 		.ascii	"_acquiringstate\000"
 4690      75697269 
 4690      6E677374 
 4690      61746500 
 4691              	.LASF123:
 4692 0a5c 5F726570 		.ascii	"_repushtimeoutlimit\000"
 4692      75736874 
 4692      696D656F 
 4692      75746C69 
 4692      6D697400 
 4693              	.LASF116:
 4694 0a70 5F50554D 		.ascii	"_PUMP_LAYOUT_\000"
 4694      505F4C41 
 4694      594F5554 
 4694      5F00
 4695              	.LASF59:
 4696 0a7e 5F766172 		.ascii	"_var0\000"
 4696      3000
 4697              	.LASF60:
 4698 0a84 5F766172 		.ascii	"_var1\000"
 4698      3100
 4699              	.LASF61:
 4700 0a8a 5F766172 		.ascii	"_var2\000"
 4700      3200
 4701              	.LASF62:
 4702 0a90 5F766172 		.ascii	"_var3\000"
 4702      3300
 4703              	.LASF213:
 4704 0a96 50756D70 		.ascii	"PumpTransactionalStateDequeue\000"
 4704      5472616E 
 4704      73616374 
 4704      696F6E61 
 4704      6C537461 
 4705              	.LASF64:
 4706 0ab4 5F766172 		.ascii	"_var5\000"
 4706      3500
 4707              	.LASF210:
 4708 0aba 50756D70 		.ascii	"PumpJobDequeue\000"
 4708      4A6F6244 
 4708      65717565 
ARM GAS  C:\Users\RECEPC~1\AppData\Local\Temp\ccAtWeRe.s 			page 99


 4708      756500
 4709              	.LASF66:
 4710 0ac9 5F766172 		.ascii	"_var7\000"
 4710      3700
 4711              	.LASF27:
 4712 0acf 5F484F53 		.ascii	"_HOSE_ID_\000"
 4712      455F4944 
 4712      5F00
 4713              	.LASF68:
 4714 0ad9 5F766172 		.ascii	"_var9\000"
 4714      3900
 4715              	.LASF146:
 4716 0adf 5F74696D 		.ascii	"_timeoutmultiplier\000"
 4716      656F7574 
 4716      6D756C74 
 4716      69706C69 
 4716      657200
 4717              	.LASF5:
 4718 0af2 6C6F6E67 		.ascii	"long unsigned int\000"
 4718      20756E73 
 4718      69676E65 
 4718      6420696E 
 4718      7400
 4719              	.LASF18:
 4720 0b04 63686172 		.ascii	"char\000"
 4720      00
 4721              	.LASF70:
 4722 0b09 5F766172 		.ascii	"_varB\000"
 4722      4200
 4723              	.LASF118:
 4724 0b0f 52657175 		.ascii	"Request\000"
 4724      65737400 
 4725              	.LASF82:
 4726 0b17 5F70756D 		.ascii	"_pumpindex\000"
 4726      70696E64 
 4726      657800
 4727              	.LASF208:
 4728 0b22 706A6F62 		.ascii	"pjob\000"
 4728      00
 4729              	.LASF198:
 4730 0b27 696E6465 		.ascii	"index\000"
 4730      7800
 4731              	.LASF83:
 4732 0b2d 5F70756D 		.ascii	"_pumpstate\000"
 4732      70737461 
 4732      746500
 4733              	.LASF137:
 4734 0b38 5F726565 		.ascii	"_reenqueue\000"
 4734      6E717565 
 4734      756500
 4735              	.LASF9:
 4736 0b43 5F5F696E 		.ascii	"__int32_t\000"
 4736      7433325F 
 4736      7400
 4737              	.LASF17:
 4738 0b4d 63686172 		.ascii	"char8\000"
 4738      3800
ARM GAS  C:\Users\RECEPC~1\AppData\Local\Temp\ccAtWeRe.s 			page 100


 4739              	.LASF58:
 4740 0b53 504E4541 		.ascii	"PNEAR_PUMPTRANSACTIONALSTATEPTR\000"
 4740      525F5055 
 4740      4D505452 
 4740      414E5341 
 4740      4354494F 
 4741              	.LASF127:
 4742 0b73 5F707265 		.ascii	"_preconditions\000"
 4742      636F6E64 
 4742      6974696F 
 4742      6E7300
 4743              	.LASF184:
 4744 0b82 5F50554D 		.ascii	"_PUMP_POSITION_UNKNOWN_\000"
 4744      505F504F 
 4744      53495449 
 4744      4F4E5F55 
 4744      4E4B4E4F 
 4745              	.LASF168:
 4746 0b9a 5F686F73 		.ascii	"_hosesposition1\000"
 4746      6573706F 
 4746      73697469 
 4746      6F6E3100 
 4747              	.LASF140:
 4748 0baa 5F64656C 		.ascii	"_delaymultiplier\000"
 4748      61796D75 
 4748      6C746970 
 4748      6C696572 
 4748      00
 4749              	.LASF197:
 4750 0bbb 52465F43 		.ascii	"RF_COPY_RECEIPT\000"
 4750      4F50595F 
 4750      52454345 
 4750      49505400 
 4751              	.LASF175:
 4752 0bcb 5F766F6C 		.ascii	"_volumeunit\000"
 4752      756D6575 
 4752      6E697400 
 4753              	.LASF178:
 4754 0bd7 5F646973 		.ascii	"_displaydigitsmode\000"
 4754      706C6179 
 4754      64696769 
 4754      74736D6F 
 4754      646500
 4755              	.LASF39:
 4756 0bea 5F50554D 		.ascii	"_PUMP_TRANS_STATE_\000"
 4756      505F5452 
 4756      414E535F 
 4756      53544154 
 4756      455F00
 4757              	.LASF141:
 4758 0bfd 5F726570 		.ascii	"_repushretriescounter\000"
 4758      75736872 
 4758      65747269 
 4758      6573636F 
 4758      756E7465 
 4759              	.LASF52:
 4760 0c13 5F50554D 		.ascii	"_PUMP_TRANSTATE_BUSY_\000"
ARM GAS  C:\Users\RECEPC~1\AppData\Local\Temp\ccAtWeRe.s 			page 101


 4760      505F5452 
 4760      414E5354 
 4760      4154455F 
 4760      42555359 
 4761              	.LASF132:
 4762 0c29 50756D70 		.ascii	"PumpTransactionJob\000"
 4762      5472616E 
 4762      73616374 
 4762      696F6E4A 
 4762      6F6200
 4763              	.LASF176:
 4764 0c3c 5F6D696E 		.ascii	"_minmoneyvalue\000"
 4764      6D6F6E65 
 4764      7976616C 
 4764      756500
 4765              	.LASF158:
 4766 0c4b 526F7461 		.ascii	"Rotate\000"
 4766      746500
 4767              	.LASF21:
 4768 0c52 4C50564F 		.ascii	"LPVOID\000"
 4768      494400
 4769              	.LASF203:
 4770 0c59 50756D70 		.ascii	"PumpIsInValidState\000"
 4770      4973496E 
 4770      56616C69 
 4770      64537461 
 4770      746500
 4771              	.LASF223:
 4772 0c6c 50756D70 		.ascii	"PumpCleanUp\000"
 4772      436C6561 
 4772      6E557000 
 4773              	.LASF34:
 4774 0c78 50554D50 		.ascii	"PUMP_PEOT\000"
 4774      5F50454F 
 4774      5400
 4775              	.LASF211:
 4776 0c82 50756D70 		.ascii	"PumpJobRotate\000"
 4776      4A6F6252 
 4776      6F746174 
 4776      6500
 4777              	.LASF103:
 4778 0c90 50756D70 		.ascii	"PumpTransQueueLock\000"
 4778      5472616E 
 4778      73517565 
 4778      75654C6F 
 4778      636B00
 4779              	.LASF112:
 4780 0ca3 5F617574 		.ascii	"_authorizationinfo\000"
 4780      686F7269 
 4780      7A617469 
 4780      6F6E696E 
 4780      666F00
 4781              	.LASF204:
 4782 0cb6 50756D70 		.ascii	"PumpJobAllocate\000"
 4782      4A6F6241 
 4782      6C6C6F63 
 4782      61746500 
ARM GAS  C:\Users\RECEPC~1\AppData\Local\Temp\ccAtWeRe.s 			page 102


 4783              	.LASF73:
 4784 0cc6 5F707265 		.ascii	"_presettype\000"
 4784      73657474 
 4784      79706500 
 4785              	.LASF228:
 4786 0cd2 5F675F70 		.ascii	"_g_pumps\000"
 4786      756D7073 
 4786      00
 4787              	.LASF51:
 4788 0cdb 5F50554D 		.ascii	"_PUMP_TRANSTATE_ALLOCATED_\000"
 4788      505F5452 
 4788      414E5354 
 4788      4154455F 
 4788      414C4C4F 
 4789              	.LASF14:
 4790 0cf6 666C6F61 		.ascii	"float\000"
 4790      7400
 4791              	.LASF180:
 4792 0cfc 5F706F73 		.ascii	"_positionoffset\000"
 4792      6974696F 
 4792      6E6F6666 
 4792      73657400 
 4793              	.LASF225:
 4794 0d0c 7070756D 		.ascii	"ppump\000"
 4794      7000
 4795              	.LASF231:
 4796 0d12 2E5C456E 		.ascii	".\\Encore.c\000"
 4796      636F7265 
 4796      2E6300
 4797              	.LASF87:
 4798 0d1d 5F726573 		.ascii	"_restoreprice\000"
 4798      746F7265 
 4798      70726963 
 4798      6500
 4799              	.LASF49:
 4800 0d2b 5F50554D 		.ascii	"_PUMP_TRANSTATE_NODE_STATE_\000"
 4800      505F5452 
 4800      414E5354 
 4800      4154455F 
 4800      4E4F4445 
 4801              	.LASF154:
 4802 0d47 5F50554D 		.ascii	"_PUMP_JOB_QUEUE_\000"
 4802      505F4A4F 
 4802      425F5155 
 4802      4555455F 
 4802      00
 4803              	.LASF229:
 4804 0d58 5F675F64 		.ascii	"_g_dispenserlayoutinfo\000"
 4804      69737065 
 4804      6E736572 
 4804      6C61796F 
 4804      7574696E 
 4805              	.LASF214:
 4806 0d6f 70767468 		.ascii	"pvthis\000"
 4806      697300
 4807              	.LASF43:
 4808 0d76 5F50554D 		.ascii	"_PUMP_ROUNDROBIN_STATE_\000"
ARM GAS  C:\Users\RECEPC~1\AppData\Local\Temp\ccAtWeRe.s 			page 103


 4808      505F524F 
 4808      554E4452 
 4808      4F42494E 
 4808      5F535441 
 4809              	.LASF109:
 4810 0d8e 50756D70 		.ascii	"PumpTransQueueDequeue\000"
 4810      5472616E 
 4810      73517565 
 4810      75654465 
 4810      71756575 
 4811              	.LASF234:
 4812 0da4 496E6974 		.ascii	"InitProtocol\000"
 4812      50726F74 
 4812      6F636F6C 
 4812      00
 4813              	.LASF35:
 4814 0db1 50554D50 		.ascii	"PUMP_FEOT\000"
 4814      5F46454F 
 4814      5400
 4815              	.LASF166:
 4816 0dbb 5F637572 		.ascii	"_currentloopopen\000"
 4816      72656E74 
 4816      6C6F6F70 
 4816      6F70656E 
 4816      00
 4817              	.LASF130:
 4818 0dcc 496E6974 		.ascii	"Initialization\000"
 4818      69616C69 
 4818      7A617469 
 4818      6F6E00
 4819              	.LASF221:
 4820 0ddb 50756D70 		.ascii	"PumpTransactionalStateLock\000"
 4820      5472616E 
 4820      73616374 
 4820      696F6E61 
 4820      6C537461 
 4821              		.ident	"GCC: (GNU Tools for ARM Embedded Processors) 4.9.3 20150303 (release) [ARM/embedded-4_9-br
