ARM GAS  C:\Users\RECEPC~1\AppData\Local\Temp\ccAtWeRe.s 			page 1


   1              		.syntax unified
   2              		.cpu cortex-m3
   3              		.fpu softvfp
   4              		.eabi_attribute 20, 1
   5              		.eabi_attribute 21, 1
   6              		.eabi_attribute 23, 3
   7              		.eabi_attribute 24, 1
   8              		.eabi_attribute 25, 1
   9              		.eabi_attribute 26, 1
  10              		.eabi_attribute 30, 6
  11              		.eabi_attribute 34, 1
  12              		.eabi_attribute 18, 4
  13              		.thumb
  14              		.file	"Encore.c"
  15              		.text
  16              	.Ltext0:
  17              		.cfi_sections	.debug_frame
  18              		.comm	_g_pumpjobqueue,2140,4
  19              		.comm	_g_pumps,12064,8
  20              		.comm	_g_dispenserlayoutinfo,20,4
  21              		.section	.text.InitProtocol,"ax",%progbits
  22              		.align	2
  23              		.global	InitProtocol
  24              		.thumb
  25              		.thumb_func
  26              		.type	InitProtocol, %function
  27              	InitProtocol:
  28              	.LFB63:
  29              		.file 1 ".\\Encore.c"
   1:.\Encore.c    **** /* ========================================
   2:.\Encore.c    ****  *
   3:.\Encore.c    ****  * Copyright INSEPET SISTEMAS, 2016
   4:.\Encore.c    ****  * All Rights Reserved
   5:.\Encore.c    ****  * UNPUBLISHED, LICENSED SOFTWARE.
   6:.\Encore.c    ****  *
   7:.\Encore.c    ****  * CONFIDENTIAL AND PROPRIETARY INFORMATION
   8:.\Encore.c    ****  * WHICH IS THE PROPERTY OF your company.
   9:.\Encore.c    ****  *
  10:.\Encore.c    ****  * ========================================
  11:.\Encore.c    **** @Created By: HIJH
  12:.\Encore.c    **** @Date: Novembre de 2016
  13:.\Encore.c    **** */
  14:.\Encore.c    **** #include <project.h>
  15:.\Encore.c    **** #include "GlobalDefinitions.h"
  16:.\Encore.c    **** #include "Dispenser.h"
  17:.\Encore.c    **** #include "RFLink.h"
  18:.\Encore.c    **** 
  19:.\Encore.c    **** #ifdef ENCORE_PROTOCOL
  20:.\Encore.c    ****     
  21:.\Encore.c    **** PumpJobQueue _g_pumpjobqueue;
  22:.\Encore.c    **** Pump _g_pumps[_MAX_NUMBER_OF_PUMPS_];
  23:.\Encore.c    **** //This structure holds the entire configuration information of the dispenser acquired through SFs
  24:.\Encore.c    **** DispenserLayoutInfo _g_dispenserlayoutinfo;
  25:.\Encore.c    **** 
  26:.\Encore.c    **** void PumpJobRotate(void *this);
  27:.\Encore.c    **** PumpTransactionJobContext *PumpJobAllocate(void *this); 
  28:.\Encore.c    **** void PumpJobEnqueue(void *this, PumpTransactionJobContext *pjob);
ARM GAS  C:\Users\RECEPC~1\AppData\Local\Temp\ccAtWeRe.s 			page 2


  29:.\Encore.c    **** PumpTransactionJobContext *PumpJobQueuePeek(void *this); 
  30:.\Encore.c    **** void PumpJobDequeue(void *this); 
  31:.\Encore.c    **** void PumpJobQueueClear(void *this);
  32:.\Encore.c    **** bool PumpIsInValidState(void *this);
  33:.\Encore.c    **** void PumpTransactionalStateEnqueue(LPVOID pvthis, PNEAR_PUMPTRANSACTIONALSTATEPTR pts);
  34:.\Encore.c    **** void PumpTransactionalStateDeallocate(LPVOID pvthis, PNEAR_PUMPTRANSACTIONALSTATEPTR pts);
  35:.\Encore.c    **** PNEAR_PUMPTRANSACTIONALSTATEPTR PumpTransactionalStateAllocate(LPVOID pvthis);
  36:.\Encore.c    **** PNEAR_PUMPTRANSACTIONALSTATEPTR PumpTransactionalStateDequeue(LPVOID pvthis);
  37:.\Encore.c    **** void PumpTransactionalStateLock(LPVOID pvthis);
  38:.\Encore.c    **** void PumpTransactionalStateUnlock(LPVOID pvthis);
  39:.\Encore.c    **** bool PumpTransactionalStateFind(LPVOID pvthis, uint8 transtate);
  40:.\Encore.c    **** void PumpCleanUp(LPVOID pparam);
  41:.\Encore.c    **** 
  42:.\Encore.c    **** //@Created By: HIJH
  43:.\Encore.c    **** //@Septembre de 2016
  44:.\Encore.c    **** void InitProtocol()
  45:.\Encore.c    **** {
  30              		.loc 1 45 0
  31              		.cfi_startproc
  32              		@ args = 0, pretend = 0, frame = 8
  33              		@ frame_needed = 1, uses_anonymous_args = 0
  34 0000 80B5     		push	{r7, lr}
  35              		.cfi_def_cfa_offset 8
  36              		.cfi_offset 7, -8
  37              		.cfi_offset 14, -4
  38 0002 82B0     		sub	sp, sp, #8
  39              		.cfi_def_cfa_offset 16
  40 0004 00AF     		add	r7, sp, #0
  41              		.cfi_def_cfa_register 7
  46:.\Encore.c    ****     _g_dispenserlayoutinfo._inconfiguration = true;
  42              		.loc 1 46 0
  43 0006 B74B     		ldr	r3, .L8
  44 0008 0122     		movs	r2, #1
  45 000a 1A70     		strb	r2, [r3]
  47:.\Encore.c    ****     _g_dispenserlayoutinfo._currentloopopen = false;
  46              		.loc 1 47 0
  47 000c B54B     		ldr	r3, .L8
  48 000e 0022     		movs	r2, #0
  49 0010 5A70     		strb	r2, [r3, #1]
  48:.\Encore.c    ****     
  49:.\Encore.c    ****     FOR(uint8 index = 0, index < _MAX_NUMBER_OF_PUMPS_, index++)
  50              		.loc 1 49 0
  51 0012 0023     		movs	r3, #0
  52 0014 FB71     		strb	r3, [r7, #7]
  53 0016 40E1     		b	.L2
  54              	.L7:
  55              	.LBB2:
  50:.\Encore.c    ****     {
  51:.\Encore.c    ****         _g_pumps[index]._pumpid = 0x00;
  56              		.loc 1 51 0
  57 0018 FB79     		ldrb	r3, [r7, #7]	@ zero_extendqisi2
  58 001a B34A     		ldr	r2, .L8+4
  59 001c 40F6C831 		movw	r1, #3016
  60 0020 01FB03F3 		mul	r3, r1, r3
  61 0024 1344     		add	r3, r3, r2
  62 0026 0022     		movs	r2, #0
  63 0028 1A70     		strb	r2, [r3]
ARM GAS  C:\Users\RECEPC~1\AppData\Local\Temp\ccAtWeRe.s 			page 3


  52:.\Encore.c    ****         _g_pumps[index]._pumpindex = index;
  64              		.loc 1 52 0
  65 002a FB79     		ldrb	r3, [r7, #7]	@ zero_extendqisi2
  66 002c AE4A     		ldr	r2, .L8+4
  67 002e 40F6C831 		movw	r1, #3016
  68 0032 01FB03F3 		mul	r3, r1, r3
  69 0036 1344     		add	r3, r3, r2
  70 0038 FA79     		ldrb	r2, [r7, #7]
  71 003a 5A70     		strb	r2, [r3, #1]
  53:.\Encore.c    ****         _g_pumps[index]._pumpstate = PUMP_IDLE;
  72              		.loc 1 53 0
  73 003c FB79     		ldrb	r3, [r7, #7]	@ zero_extendqisi2
  74 003e AA4A     		ldr	r2, .L8+4
  75 0040 40F6C831 		movw	r1, #3016
  76 0044 01FB03F3 		mul	r3, r1, r3
  77 0048 1344     		add	r3, r3, r2
  78 004a 0622     		movs	r2, #6
  79 004c 9A70     		strb	r2, [r3, #2]
  54:.\Encore.c    ****         _g_pumps[index]._currenthose = HOSEUNKNOWN;
  80              		.loc 1 54 0
  81 004e FB79     		ldrb	r3, [r7, #7]	@ zero_extendqisi2
  82 0050 A54A     		ldr	r2, .L8+4
  83 0052 40F6C831 		movw	r1, #3016
  84 0056 01FB03F3 		mul	r3, r1, r3
  85 005a 1344     		add	r3, r3, r2
  86 005c FF22     		movs	r2, #255
  87 005e DA70     		strb	r2, [r3, #3]
  55:.\Encore.c    ****         _g_pumps[index]._transhealth = _PUMP_OK_;
  88              		.loc 1 55 0
  89 0060 FB79     		ldrb	r3, [r7, #7]	@ zero_extendqisi2
  90 0062 A14A     		ldr	r2, .L8+4
  91 0064 40F6C831 		movw	r1, #3016
  92 0068 01FB03F3 		mul	r3, r1, r3
  93 006c 1344     		add	r3, r3, r2
  94 006e 1833     		adds	r3, r3, #24
  95 0070 0122     		movs	r2, #1
  96 0072 1A70     		strb	r2, [r3]
  56:.\Encore.c    ****         _g_pumps[index]._transtate = _PUMP_IDLE_;
  97              		.loc 1 56 0
  98 0074 FB79     		ldrb	r3, [r7, #7]	@ zero_extendqisi2
  99 0076 9C4A     		ldr	r2, .L8+4
 100 0078 40F6C831 		movw	r1, #3016
 101 007c 01FB03F3 		mul	r3, r1, r3
 102 0080 1344     		add	r3, r3, r2
 103 0082 1833     		adds	r3, r3, #24
 104 0084 0222     		movs	r2, #2
 105 0086 5A70     		strb	r2, [r3, #1]
  57:.\Encore.c    ****         _g_pumps[index]._pumprftransstate = RF_IDLE;
 106              		.loc 1 57 0
 107 0088 FB79     		ldrb	r3, [r7, #7]	@ zero_extendqisi2
 108 008a 974A     		ldr	r2, .L8+4
 109 008c 40F6C831 		movw	r1, #3016
 110 0090 01FB03F3 		mul	r3, r1, r3
 111 0094 1344     		add	r3, r3, r2
 112 0096 0833     		adds	r3, r3, #8
 113 0098 0822     		movs	r2, #8
 114 009a 1A71     		strb	r2, [r3, #4]
ARM GAS  C:\Users\RECEPC~1\AppData\Local\Temp\ccAtWeRe.s 			page 4


  58:.\Encore.c    ****         _g_pumps[index]._pumplocked = false;
 115              		.loc 1 58 0
 116 009c FB79     		ldrb	r3, [r7, #7]	@ zero_extendqisi2
 117 009e 924A     		ldr	r2, .L8+4
 118 00a0 40F6C831 		movw	r1, #3016
 119 00a4 01FB03F3 		mul	r3, r1, r3
 120 00a8 1344     		add	r3, r3, r2
 121 00aa 0833     		adds	r3, r3, #8
 122 00ac 0022     		movs	r2, #0
 123 00ae 5A70     		strb	r2, [r3, #1]
  59:.\Encore.c    ****         _g_pumps[index]._restoreprice = false;
 124              		.loc 1 59 0
 125 00b0 FB79     		ldrb	r3, [r7, #7]	@ zero_extendqisi2
 126 00b2 8D4A     		ldr	r2, .L8+4
 127 00b4 40F6C831 		movw	r1, #3016
 128 00b8 01FB03F3 		mul	r3, r1, r3
 129 00bc 1344     		add	r3, r3, r2
 130 00be 0022     		movs	r2, #0
 131 00c0 DA71     		strb	r2, [r3, #7]
  60:.\Encore.c    ****         _g_pumps[index]._print = false;
 132              		.loc 1 60 0
 133 00c2 FB79     		ldrb	r3, [r7, #7]	@ zero_extendqisi2
 134 00c4 884A     		ldr	r2, .L8+4
 135 00c6 40F6C831 		movw	r1, #3016
 136 00ca 01FB03F3 		mul	r3, r1, r3
 137 00ce 1344     		add	r3, r3, r2
 138 00d0 0833     		adds	r3, r3, #8
 139 00d2 0022     		movs	r2, #0
 140 00d4 5A71     		strb	r2, [r3, #5]
  61:.\Encore.c    ****         _g_pumps[index]._acquiringstate = false;
 141              		.loc 1 61 0
 142 00d6 FB79     		ldrb	r3, [r7, #7]	@ zero_extendqisi2
 143 00d8 834A     		ldr	r2, .L8+4
 144 00da 40F6C831 		movw	r1, #3016
 145 00de 01FB03F3 		mul	r3, r1, r3
 146 00e2 1344     		add	r3, r3, r2
 147 00e4 0022     		movs	r2, #0
 148 00e6 5A71     		strb	r2, [r3, #5]
  62:.\Encore.c    ****         if(index == 0)
 149              		.loc 1 62 0
 150 00e8 FB79     		ldrb	r3, [r7, #7]	@ zero_extendqisi2
 151 00ea 002B     		cmp	r3, #0
 152 00ec 0AD1     		bne	.L3
  63:.\Encore.c    ****             _g_pumps[index]._roundrobinstate = _PUMP_RR_ACTIVE_;
 153              		.loc 1 63 0
 154 00ee FB79     		ldrb	r3, [r7, #7]	@ zero_extendqisi2
 155 00f0 7D4A     		ldr	r2, .L8+4
 156 00f2 40F6C831 		movw	r1, #3016
 157 00f6 01FB03F3 		mul	r3, r1, r3
 158 00fa 1344     		add	r3, r3, r2
 159 00fc 0833     		adds	r3, r3, #8
 160 00fe 0122     		movs	r2, #1
 161 0100 9A70     		strb	r2, [r3, #2]
 162 0102 09E0     		b	.L4
 163              	.L3:
  64:.\Encore.c    ****         else
  65:.\Encore.c    ****             _g_pumps[index]._roundrobinstate = _PUMP_RR_INACTIVE_;
ARM GAS  C:\Users\RECEPC~1\AppData\Local\Temp\ccAtWeRe.s 			page 5


 164              		.loc 1 65 0
 165 0104 FB79     		ldrb	r3, [r7, #7]	@ zero_extendqisi2
 166 0106 784A     		ldr	r2, .L8+4
 167 0108 40F6C831 		movw	r1, #3016
 168 010c 01FB03F3 		mul	r3, r1, r3
 169 0110 1344     		add	r3, r3, r2
 170 0112 0833     		adds	r3, r3, #8
 171 0114 0222     		movs	r2, #2
 172 0116 9A70     		strb	r2, [r3, #2]
 173              	.L4:
  66:.\Encore.c    ****         
  67:.\Encore.c    ****         FOR(uint8 transindex = 0, transindex < _PUMP_MAX_QUEUE_TRANSTATES_, transindex++)
 174              		.loc 1 67 0
 175 0118 0023     		movs	r3, #0
 176 011a BB71     		strb	r3, [r7, #6]
 177 011c 51E0     		b	.L5
 178              	.L6:
  68:.\Encore.c    ****         {
  69:.\Encore.c    ****             _g_pumps[index]._transqueue[transindex]._state = _PUMP_TRANSTATE_FREE_;
 179              		.loc 1 69 0 discriminator 3
 180 011e F979     		ldrb	r1, [r7, #7]	@ zero_extendqisi2
 181 0120 BA79     		ldrb	r2, [r7, #6]	@ zero_extendqisi2
 182 0122 7148     		ldr	r0, .L8+4
 183 0124 1346     		mov	r3, r2
 184 0126 9B01     		lsls	r3, r3, #6
 185 0128 1344     		add	r3, r3, r2
 186 012a 9B00     		lsls	r3, r3, #2
 187 012c 40F6C832 		movw	r2, #3016
 188 0130 02FB01F2 		mul	r2, r2, r1
 189 0134 1344     		add	r3, r3, r2
 190 0136 0344     		add	r3, r3, r0
 191 0138 03F54873 		add	r3, r3, #800
 192 013c 0022     		movs	r2, #0
 193 013e 9A70     		strb	r2, [r3, #2]
  70:.\Encore.c    ****             _g_pumps[index]._transqueue[transindex]._transtate = _PUMP_POSITION_IDLE_;
 194              		.loc 1 70 0 discriminator 3
 195 0140 F979     		ldrb	r1, [r7, #7]	@ zero_extendqisi2
 196 0142 BA79     		ldrb	r2, [r7, #6]	@ zero_extendqisi2
 197 0144 6848     		ldr	r0, .L8+4
 198 0146 1346     		mov	r3, r2
 199 0148 9B01     		lsls	r3, r3, #6
 200 014a 1344     		add	r3, r3, r2
 201 014c 9B00     		lsls	r3, r3, #2
 202 014e 40F6C832 		movw	r2, #3016
 203 0152 02FB01F2 		mul	r2, r2, r1
 204 0156 1344     		add	r3, r3, r2
 205 0158 0344     		add	r3, r3, r0
 206 015a 03F54873 		add	r3, r3, #800
 207 015e 0822     		movs	r2, #8
 208 0160 DA70     		strb	r2, [r3, #3]
  71:.\Encore.c    ****             _g_pumps[index]._transqueue[transindex]._buffersize = 0;
 209              		.loc 1 71 0 discriminator 3
 210 0162 F979     		ldrb	r1, [r7, #7]	@ zero_extendqisi2
 211 0164 BA79     		ldrb	r2, [r7, #6]	@ zero_extendqisi2
 212 0166 6048     		ldr	r0, .L8+4
 213 0168 1346     		mov	r3, r2
 214 016a 9B01     		lsls	r3, r3, #6
ARM GAS  C:\Users\RECEPC~1\AppData\Local\Temp\ccAtWeRe.s 			page 6


 215 016c 1344     		add	r3, r3, r2
 216 016e 9B00     		lsls	r3, r3, #2
 217 0170 40F6C832 		movw	r2, #3016
 218 0174 02FB01F2 		mul	r2, r2, r1
 219 0178 1344     		add	r3, r3, r2
 220 017a 0344     		add	r3, r3, r0
 221 017c 03F58463 		add	r3, r3, #1056
 222 0180 0022     		movs	r2, #0
 223 0182 9A80     		strh	r2, [r3, #4]	@ movhi
  72:.\Encore.c    ****             _g_pumps[index]._transqueue[transindex]._transtate = 0x00;
 224              		.loc 1 72 0 discriminator 3
 225 0184 F979     		ldrb	r1, [r7, #7]	@ zero_extendqisi2
 226 0186 BA79     		ldrb	r2, [r7, #6]	@ zero_extendqisi2
 227 0188 5748     		ldr	r0, .L8+4
 228 018a 1346     		mov	r3, r2
 229 018c 9B01     		lsls	r3, r3, #6
 230 018e 1344     		add	r3, r3, r2
 231 0190 9B00     		lsls	r3, r3, #2
 232 0192 40F6C832 		movw	r2, #3016
 233 0196 02FB01F2 		mul	r2, r2, r1
 234 019a 1344     		add	r3, r3, r2
 235 019c 0344     		add	r3, r3, r0
 236 019e 03F54873 		add	r3, r3, #800
 237 01a2 0022     		movs	r2, #0
 238 01a4 DA70     		strb	r2, [r3, #3]
  73:.\Encore.c    ****             _g_pumps[index].CleanUp = PumpCleanUp;
 239              		.loc 1 73 0 discriminator 3
 240 01a6 FB79     		ldrb	r3, [r7, #7]	@ zero_extendqisi2
 241 01a8 4F4A     		ldr	r2, .L8+4
 242 01aa 40F6C831 		movw	r1, #3016
 243 01ae 01FB03F3 		mul	r3, r1, r3
 244 01b2 1344     		add	r3, r3, r2
 245 01b4 03F53C63 		add	r3, r3, #3008
 246 01b8 4C4A     		ldr	r2, .L8+8
 247 01ba 1A60     		str	r2, [r3]
  67:.\Encore.c    ****         {
 248              		.loc 1 67 0 discriminator 3
 249 01bc BB79     		ldrb	r3, [r7, #6]	@ zero_extendqisi2
 250 01be 0133     		adds	r3, r3, #1
 251 01c0 BB71     		strb	r3, [r7, #6]
 252              	.L5:
  67:.\Encore.c    ****         {
 253              		.loc 1 67 0 is_stmt 0 discriminator 1
 254 01c2 BB79     		ldrb	r3, [r7, #6]	@ zero_extendqisi2
 255 01c4 072B     		cmp	r3, #7
 256 01c6 AAD9     		bls	.L6
  74:.\Encore.c    ****         }
  75:.\Encore.c    ****         
  76:.\Encore.c    ****         memset(&_g_pumps[index]._authorizationinfo, 0x00, sizeof(PumpAuthorizationInfo));
 257              		.loc 1 76 0 is_stmt 1 discriminator 2
 258 01c8 FB79     		ldrb	r3, [r7, #7]	@ zero_extendqisi2
 259 01ca 40F6C832 		movw	r2, #3016
 260 01ce 02FB03F3 		mul	r3, r2, r3
 261 01d2 03F6A833 		addw	r3, r3, #2984
 262 01d6 444A     		ldr	r2, .L8+4
 263 01d8 1344     		add	r3, r3, r2
 264 01da 1846     		mov	r0, r3
ARM GAS  C:\Users\RECEPC~1\AppData\Local\Temp\ccAtWeRe.s 			page 7


 265 01dc 0021     		movs	r1, #0
 266 01de 1822     		movs	r2, #24
 267 01e0 FFF7FEFF 		bl	memset
  77:.\Encore.c    **** 
  78:.\Encore.c    ****         _g_pumps[index].PumpTransQueueLock = PumpTransactionalStateLock;
 268              		.loc 1 78 0 discriminator 2
 269 01e4 FB79     		ldrb	r3, [r7, #7]	@ zero_extendqisi2
 270 01e6 404A     		ldr	r2, .L8+4
 271 01e8 40F6C831 		movw	r1, #3016
 272 01ec 01FB03F3 		mul	r3, r1, r3
 273 01f0 1344     		add	r3, r3, r2
 274 01f2 03F53463 		add	r3, r3, #2880
 275 01f6 3E4A     		ldr	r2, .L8+12
 276 01f8 5A60     		str	r2, [r3, #4]
  79:.\Encore.c    ****         _g_pumps[index].PumpTransQueueUnlock = PumpTransactionalStateUnlock;
 277              		.loc 1 79 0 discriminator 2
 278 01fa FB79     		ldrb	r3, [r7, #7]	@ zero_extendqisi2
 279 01fc 3A4A     		ldr	r2, .L8+4
 280 01fe 40F6C831 		movw	r1, #3016
 281 0202 01FB03F3 		mul	r3, r1, r3
 282 0206 1344     		add	r3, r3, r2
 283 0208 03F64833 		addw	r3, r3, #2888
 284 020c 394A     		ldr	r2, .L8+16
 285 020e 1A60     		str	r2, [r3]
  80:.\Encore.c    ****         
  81:.\Encore.c    ****         _g_pumps[index].PumpTransQueueFind = PumpTransactionalStateFind;
 286              		.loc 1 81 0 discriminator 2
 287 0210 FB79     		ldrb	r3, [r7, #7]	@ zero_extendqisi2
 288 0212 354A     		ldr	r2, .L8+4
 289 0214 40F6C831 		movw	r1, #3016
 290 0218 01FB03F3 		mul	r3, r1, r3
 291 021c 1344     		add	r3, r3, r2
 292 021e 03F64833 		addw	r3, r3, #2888
 293 0222 354A     		ldr	r2, .L8+20
 294 0224 5A60     		str	r2, [r3, #4]
  82:.\Encore.c    ****         _g_pumps[index].PumpTransQueueEnqueue = PumpTransactionalStateEnqueue;
 295              		.loc 1 82 0 discriminator 2
 296 0226 FB79     		ldrb	r3, [r7, #7]	@ zero_extendqisi2
 297 0228 2F4A     		ldr	r2, .L8+4
 298 022a 40F6C831 		movw	r1, #3016
 299 022e 01FB03F3 		mul	r3, r1, r3
 300 0232 1344     		add	r3, r3, r2
 301 0234 03F53563 		add	r3, r3, #2896
 302 0238 304A     		ldr	r2, .L8+24
 303 023a 1A60     		str	r2, [r3]
  83:.\Encore.c    ****         _g_pumps[index].PumpTransQueueDequeue = PumpTransactionalStateDequeue;
 304              		.loc 1 83 0 discriminator 2
 305 023c FB79     		ldrb	r3, [r7, #7]	@ zero_extendqisi2
 306 023e 2A4A     		ldr	r2, .L8+4
 307 0240 40F6C831 		movw	r1, #3016
 308 0244 01FB03F3 		mul	r3, r1, r3
 309 0248 1344     		add	r3, r3, r2
 310 024a 03F65833 		addw	r3, r3, #2904
 311 024e 2C4A     		ldr	r2, .L8+28
 312 0250 5A60     		str	r2, [r3, #4]
  84:.\Encore.c    ****         _g_pumps[index].PumpTransQueueAllocate = PumpTransactionalStateAllocate;
 313              		.loc 1 84 0 discriminator 2
ARM GAS  C:\Users\RECEPC~1\AppData\Local\Temp\ccAtWeRe.s 			page 8


 314 0252 FB79     		ldrb	r3, [r7, #7]	@ zero_extendqisi2
 315 0254 244A     		ldr	r2, .L8+4
 316 0256 40F6C831 		movw	r1, #3016
 317 025a 01FB03F3 		mul	r3, r1, r3
 318 025e 1344     		add	r3, r3, r2
 319 0260 03F65833 		addw	r3, r3, #2904
 320 0264 274A     		ldr	r2, .L8+32
 321 0266 1A60     		str	r2, [r3]
  85:.\Encore.c    ****         _g_pumps[index].PumpTransQueueDeallocate = PumpTransactionalStateDeallocate;
 322              		.loc 1 85 0 discriminator 2
 323 0268 FB79     		ldrb	r3, [r7, #7]	@ zero_extendqisi2
 324 026a 1F4A     		ldr	r2, .L8+4
 325 026c 40F6C831 		movw	r1, #3016
 326 0270 01FB03F3 		mul	r3, r1, r3
 327 0274 1344     		add	r3, r3, r2
 328 0276 03F53563 		add	r3, r3, #2896
 329 027a 234A     		ldr	r2, .L8+36
 330 027c 5A60     		str	r2, [r3, #4]
  86:.\Encore.c    **** 
  87:.\Encore.c    ****         _g_pumps[index].PumpValidState = PumpIsInValidState;
 331              		.loc 1 87 0 discriminator 2
 332 027e FB79     		ldrb	r3, [r7, #7]	@ zero_extendqisi2
 333 0280 194A     		ldr	r2, .L8+4
 334 0282 40F6C831 		movw	r1, #3016
 335 0286 01FB03F3 		mul	r3, r1, r3
 336 028a 1344     		add	r3, r3, r2
 337 028c 03F53663 		add	r3, r3, #2912
 338 0290 1E4A     		ldr	r2, .L8+40
 339 0292 1A60     		str	r2, [r3]
 340              	.LBE2:
  49:.\Encore.c    ****     {
 341              		.loc 1 49 0 discriminator 2
 342 0294 FB79     		ldrb	r3, [r7, #7]	@ zero_extendqisi2
 343 0296 0133     		adds	r3, r3, #1
 344 0298 FB71     		strb	r3, [r7, #7]
 345              	.L2:
  49:.\Encore.c    ****     {
 346              		.loc 1 49 0 is_stmt 0 discriminator 1
 347 029a FB79     		ldrb	r3, [r7, #7]	@ zero_extendqisi2
 348 029c 032B     		cmp	r3, #3
 349 029e 7FF6BBAE 		bls	.L7
  88:.\Encore.c    ****     }
  89:.\Encore.c    **** 
  90:.\Encore.c    ****     _g_pumpjobqueue.Clear = PumpJobQueueClear;
 350              		.loc 1 90 0 is_stmt 1
 351 02a2 1B4B     		ldr	r3, .L8+44
 352 02a4 1B4A     		ldr	r2, .L8+48
 353 02a6 C3F85828 		str	r2, [r3, #2136]
  91:.\Encore.c    ****     _g_pumpjobqueue.Allocate = PumpJobAllocate;
 354              		.loc 1 91 0
 355 02aa 194B     		ldr	r3, .L8+44
 356 02ac 1A4A     		ldr	r2, .L8+52
 357 02ae C3F84828 		str	r2, [r3, #2120]
  92:.\Encore.c    ****     _g_pumpjobqueue.Enqueue = PumpJobEnqueue;
 358              		.loc 1 92 0
 359 02b2 174B     		ldr	r3, .L8+44
 360 02b4 194A     		ldr	r2, .L8+56
ARM GAS  C:\Users\RECEPC~1\AppData\Local\Temp\ccAtWeRe.s 			page 9


 361 02b6 C3F84C28 		str	r2, [r3, #2124]
  93:.\Encore.c    ****     _g_pumpjobqueue.Peek = PumpJobQueuePeek;
 362              		.loc 1 93 0
 363 02ba 154B     		ldr	r3, .L8+44
 364 02bc 184A     		ldr	r2, .L8+60
 365 02be C3F85028 		str	r2, [r3, #2128]
  94:.\Encore.c    ****     _g_pumpjobqueue.Dequeue = PumpJobDequeue;
 366              		.loc 1 94 0
 367 02c2 134B     		ldr	r3, .L8+44
 368 02c4 174A     		ldr	r2, .L8+64
 369 02c6 C3F85428 		str	r2, [r3, #2132]
  95:.\Encore.c    ****     _g_pumpjobqueue.Rotate = PumpJobRotate;
 370              		.loc 1 95 0
 371 02ca 114B     		ldr	r3, .L8+44
 372 02cc 164A     		ldr	r2, .L8+68
 373 02ce C3F84428 		str	r2, [r3, #2116]
  96:.\Encore.c    ****     
  97:.\Encore.c    ****     _g_pumpjobqueue.Clear(&_g_pumpjobqueue);
 374              		.loc 1 97 0
 375 02d2 0F4B     		ldr	r3, .L8+44
 376 02d4 D3F85838 		ldr	r3, [r3, #2136]
 377 02d8 0D48     		ldr	r0, .L8+44
 378 02da 9847     		blx	r3
  98:.\Encore.c    ****     
  99:.\Encore.c    **** }
 379              		.loc 1 99 0
 380 02dc 0837     		adds	r7, r7, #8
 381              		.cfi_def_cfa_offset 8
 382 02de BD46     		mov	sp, r7
 383              		.cfi_def_cfa_register 13
 384              		@ sp needed
 385 02e0 80BD     		pop	{r7, pc}
 386              	.L9:
 387 02e2 00BF     		.align	2
 388              	.L8:
 389 02e4 00000000 		.word	_g_dispenserlayoutinfo
 390 02e8 00000000 		.word	_g_pumps
 391 02ec 00000000 		.word	PumpCleanUp
 392 02f0 00000000 		.word	PumpTransactionalStateLock
 393 02f4 00000000 		.word	PumpTransactionalStateUnlock
 394 02f8 00000000 		.word	PumpTransactionalStateFind
 395 02fc 00000000 		.word	PumpTransactionalStateEnqueue
 396 0300 00000000 		.word	PumpTransactionalStateDequeue
 397 0304 00000000 		.word	PumpTransactionalStateAllocate
 398 0308 00000000 		.word	PumpTransactionalStateDeallocate
 399 030c 00000000 		.word	PumpIsInValidState
 400 0310 00000000 		.word	_g_pumpjobqueue
 401 0314 00000000 		.word	PumpJobQueueClear
 402 0318 00000000 		.word	PumpJobAllocate
 403 031c 00000000 		.word	PumpJobEnqueue
 404 0320 00000000 		.word	PumpJobQueuePeek
 405 0324 00000000 		.word	PumpJobDequeue
 406 0328 00000000 		.word	PumpJobRotate
 407              		.cfi_endproc
 408              	.LFE63:
 409              		.size	InitProtocol, .-InitProtocol
 410              		.section	.text.PumpIsInValidState,"ax",%progbits
ARM GAS  C:\Users\RECEPC~1\AppData\Local\Temp\ccAtWeRe.s 			page 10


 411              		.align	2
 412              		.global	PumpIsInValidState
 413              		.thumb
 414              		.thumb_func
 415              		.type	PumpIsInValidState, %function
 416              	PumpIsInValidState:
 417              	.LFB64:
 100:.\Encore.c    **** 
 101:.\Encore.c    **** //@Created By: HIJH
 102:.\Encore.c    **** //@Septembre de 2016
 103:.\Encore.c    **** bool PumpIsInValidState(void *this)
 104:.\Encore.c    **** {
 418              		.loc 1 104 0
 419              		.cfi_startproc
 420              		@ args = 0, pretend = 0, frame = 16
 421              		@ frame_needed = 1, uses_anonymous_args = 0
 422              		@ link register save eliminated.
 423 0000 80B4     		push	{r7}
 424              		.cfi_def_cfa_offset 4
 425              		.cfi_offset 7, -4
 426 0002 85B0     		sub	sp, sp, #20
 427              		.cfi_def_cfa_offset 24
 428 0004 00AF     		add	r7, sp, #0
 429              		.cfi_def_cfa_register 7
 430 0006 7860     		str	r0, [r7, #4]
 105:.\Encore.c    ****     bool retval = false;
 431              		.loc 1 105 0
 432 0008 0023     		movs	r3, #0
 433 000a FB73     		strb	r3, [r7, #15]
 106:.\Encore.c    ****     PNEAR_PUMPPTR pthis = (PNEAR_PUMPPTR)this;
 434              		.loc 1 106 0
 435 000c 7B68     		ldr	r3, [r7, #4]
 436 000e BB60     		str	r3, [r7, #8]
 107:.\Encore.c    ****     switch(pthis->_pumpstate)
 437              		.loc 1 107 0
 438 0010 BB68     		ldr	r3, [r7, #8]
 439 0012 9B78     		ldrb	r3, [r3, #2]
 440 0014 DBB2     		uxtb	r3, r3
 441 0016 002B     		cmp	r3, #0
 442 0018 04D0     		beq	.L12
 443 001a 002B     		cmp	r3, #0
 444 001c 05DB     		blt	.L11
 445 001e 063B     		subs	r3, r3, #6
 446 0020 062B     		cmp	r3, #6
 447 0022 02D8     		bhi	.L11
 448              	.L12:
 108:.\Encore.c    ****     {
 109:.\Encore.c    ****         case PUMP_IDLE:
 110:.\Encore.c    ****         case PUMP_CALLING:
 111:.\Encore.c    ****         case PUMP_AUTHORIZED:
 112:.\Encore.c    ****         case PUMP_BUSY:
 113:.\Encore.c    ****         case PUMP_PEOT:
 114:.\Encore.c    ****         case PUMP_FEOT:
 115:.\Encore.c    ****         case PUMP_STOPPED:
 116:.\Encore.c    ****         case PUMP_FAIL:
 117:.\Encore.c    ****             retval = true;
 449              		.loc 1 117 0
ARM GAS  C:\Users\RECEPC~1\AppData\Local\Temp\ccAtWeRe.s 			page 11


 450 0024 0123     		movs	r3, #1
 451 0026 FB73     		strb	r3, [r7, #15]
 118:.\Encore.c    ****             break;
 452              		.loc 1 118 0
 453 0028 00BF     		nop
 454              	.L11:
 119:.\Encore.c    ****     }
 120:.\Encore.c    ****     return retval;
 455              		.loc 1 120 0
 456 002a FB7B     		ldrb	r3, [r7, #15]	@ zero_extendqisi2
 121:.\Encore.c    **** }
 457              		.loc 1 121 0
 458 002c 1846     		mov	r0, r3
 459 002e 1437     		adds	r7, r7, #20
 460              		.cfi_def_cfa_offset 4
 461 0030 BD46     		mov	sp, r7
 462              		.cfi_def_cfa_register 13
 463              		@ sp needed
 464 0032 5DF8047B 		ldr	r7, [sp], #4
 465              		.cfi_restore 7
 466              		.cfi_def_cfa_offset 0
 467 0036 7047     		bx	lr
 468              		.cfi_endproc
 469              	.LFE64:
 470              		.size	PumpIsInValidState, .-PumpIsInValidState
 471              		.section	.text.PumpJobQueueClear,"ax",%progbits
 472              		.align	2
 473              		.global	PumpJobQueueClear
 474              		.thumb
 475              		.thumb_func
 476              		.type	PumpJobQueueClear, %function
 477              	PumpJobQueueClear:
 478              	.LFB65:
 122:.\Encore.c    **** 
 123:.\Encore.c    **** //@Created By: HIJH
 124:.\Encore.c    **** //@Septembre de 2016
 125:.\Encore.c    **** void PumpJobQueueClear(void *this)
 126:.\Encore.c    **** {    
 479              		.loc 1 126 0
 480              		.cfi_startproc
 481              		@ args = 0, pretend = 0, frame = 16
 482              		@ frame_needed = 1, uses_anonymous_args = 0
 483              		@ link register save eliminated.
 484 0000 80B4     		push	{r7}
 485              		.cfi_def_cfa_offset 4
 486              		.cfi_offset 7, -4
 487 0002 85B0     		sub	sp, sp, #20
 488              		.cfi_def_cfa_offset 24
 489 0004 00AF     		add	r7, sp, #0
 490              		.cfi_def_cfa_register 7
 491 0006 7860     		str	r0, [r7, #4]
 127:.\Encore.c    ****     PumpJobQueue *pthis = (PumpJobQueue*)this;    
 492              		.loc 1 127 0
 493 0008 7B68     		ldr	r3, [r7, #4]
 494 000a BB60     		str	r3, [r7, #8]
 128:.\Encore.c    ****     FOR(uint8 index = 0, index < _PUMP_JOB_QUEUE_SIZE_, index++)
 495              		.loc 1 128 0
ARM GAS  C:\Users\RECEPC~1\AppData\Local\Temp\ccAtWeRe.s 			page 12


 496 000c 0023     		movs	r3, #0
 497 000e FB73     		strb	r3, [r7, #15]
 498 0010 31E0     		b	.L15
 499              	.L16:
 129:.\Encore.c    ****     {
 130:.\Encore.c    ****         pthis->_jobqueueheap[index]._state = QUEUE_JOB_FREE;
 500              		.loc 1 130 0 discriminator 3
 501 0012 FA7B     		ldrb	r2, [r7, #15]	@ zero_extendqisi2
 502 0014 B968     		ldr	r1, [r7, #8]
 503 0016 1346     		mov	r3, r2
 504 0018 9B00     		lsls	r3, r3, #2
 505 001a 1344     		add	r3, r3, r2
 506 001c DB00     		lsls	r3, r3, #3
 507 001e 0B44     		add	r3, r3, r1
 508 0020 0022     		movs	r2, #0
 509 0022 9A71     		strb	r2, [r3, #6]
 131:.\Encore.c    ****         pthis->_jobqueueheap[index]._ppump = NULL;
 510              		.loc 1 131 0 discriminator 3
 511 0024 FA7B     		ldrb	r2, [r7, #15]	@ zero_extendqisi2
 512 0026 B968     		ldr	r1, [r7, #8]
 513 0028 1346     		mov	r3, r2
 514 002a 9B00     		lsls	r3, r3, #2
 515 002c 1344     		add	r3, r3, r2
 516 002e DB00     		lsls	r3, r3, #3
 517 0030 0B44     		add	r3, r3, r1
 518 0032 1833     		adds	r3, r3, #24
 519 0034 0022     		movs	r2, #0
 520 0036 9A60     		str	r2, [r3, #8]
 132:.\Encore.c    ****         pthis->_jobqueueheap[index]._prequest = NULL;
 521              		.loc 1 132 0 discriminator 3
 522 0038 FA7B     		ldrb	r2, [r7, #15]	@ zero_extendqisi2
 523 003a B968     		ldr	r1, [r7, #8]
 524 003c 1346     		mov	r3, r2
 525 003e 9B00     		lsls	r3, r3, #2
 526 0040 1344     		add	r3, r3, r2
 527 0042 DB00     		lsls	r3, r3, #3
 528 0044 0B44     		add	r3, r3, r1
 529 0046 1033     		adds	r3, r3, #16
 530 0048 0022     		movs	r2, #0
 531 004a 9A60     		str	r2, [r3, #8]
 133:.\Encore.c    ****         pthis->_jobqueueheap[index]._presponse = NULL;
 532              		.loc 1 133 0 discriminator 3
 533 004c FA7B     		ldrb	r2, [r7, #15]	@ zero_extendqisi2
 534 004e B968     		ldr	r1, [r7, #8]
 535 0050 1346     		mov	r3, r2
 536 0052 9B00     		lsls	r3, r3, #2
 537 0054 1344     		add	r3, r3, r2
 538 0056 DB00     		lsls	r3, r3, #3
 539 0058 0B44     		add	r3, r3, r1
 540 005a 1833     		adds	r3, r3, #24
 541 005c 0022     		movs	r2, #0
 542 005e 5A60     		str	r2, [r3, #4]
 134:.\Encore.c    ****         
 135:.\Encore.c    ****         pthis->_pjobqueueallocated[index] = NULL;
 543              		.loc 1 135 0 discriminator 3
 544 0060 FB7B     		ldrb	r3, [r7, #15]	@ zero_extendqisi2
 545 0062 BA68     		ldr	r2, [r7, #8]
ARM GAS  C:\Users\RECEPC~1\AppData\Local\Temp\ccAtWeRe.s 			page 13


 546 0064 03F5F073 		add	r3, r3, #480
 547 0068 9B00     		lsls	r3, r3, #2
 548 006a 1344     		add	r3, r3, r2
 549 006c 0022     		movs	r2, #0
 550 006e 5A60     		str	r2, [r3, #4]
 128:.\Encore.c    ****     {
 551              		.loc 1 128 0 discriminator 3
 552 0070 FB7B     		ldrb	r3, [r7, #15]	@ zero_extendqisi2
 553 0072 0133     		adds	r3, r3, #1
 554 0074 FB73     		strb	r3, [r7, #15]
 555              	.L15:
 128:.\Encore.c    ****     {
 556              		.loc 1 128 0 is_stmt 0 discriminator 1
 557 0076 FB7B     		ldrb	r3, [r7, #15]	@ zero_extendqisi2
 558 0078 2F2B     		cmp	r3, #47
 559 007a CAD9     		bls	.L16
 136:.\Encore.c    ****     }
 137:.\Encore.c    ****     pthis->_queueindex = 0;
 560              		.loc 1 137 0 is_stmt 1
 561 007c BB68     		ldr	r3, [r7, #8]
 562 007e 0022     		movs	r2, #0
 563 0080 1A80     		strh	r2, [r3]	@ movhi
 138:.\Encore.c    **** }
 564              		.loc 1 138 0
 565 0082 1437     		adds	r7, r7, #20
 566              		.cfi_def_cfa_offset 4
 567 0084 BD46     		mov	sp, r7
 568              		.cfi_def_cfa_register 13
 569              		@ sp needed
 570 0086 5DF8047B 		ldr	r7, [sp], #4
 571              		.cfi_restore 7
 572              		.cfi_def_cfa_offset 0
 573 008a 7047     		bx	lr
 574              		.cfi_endproc
 575              	.LFE65:
 576              		.size	PumpJobQueueClear, .-PumpJobQueueClear
 577              		.section	.text.PumpJobAllocate,"ax",%progbits
 578              		.align	2
 579              		.global	PumpJobAllocate
 580              		.thumb
 581              		.thumb_func
 582              		.type	PumpJobAllocate, %function
 583              	PumpJobAllocate:
 584              	.LFB66:
 139:.\Encore.c    **** 
 140:.\Encore.c    **** //@Created By: HIJH
 141:.\Encore.c    **** //@Septembre de 2016
 142:.\Encore.c    **** PPUMPTRANSACTIONJOBCONTEXTPTR PumpJobAllocate(void *this)
 143:.\Encore.c    **** {    
 585              		.loc 1 143 0
 586              		.cfi_startproc
 587              		@ args = 0, pretend = 0, frame = 24
 588              		@ frame_needed = 1, uses_anonymous_args = 0
 589              		@ link register save eliminated.
 590 0000 80B4     		push	{r7}
 591              		.cfi_def_cfa_offset 4
 592              		.cfi_offset 7, -4
ARM GAS  C:\Users\RECEPC~1\AppData\Local\Temp\ccAtWeRe.s 			page 14


 593 0002 87B0     		sub	sp, sp, #28
 594              		.cfi_def_cfa_offset 32
 595 0004 00AF     		add	r7, sp, #0
 596              		.cfi_def_cfa_register 7
 597 0006 7860     		str	r0, [r7, #4]
 144:.\Encore.c    ****     PPUMPTRANSACTIONJOBCONTEXTPTR pretval = NULL;
 598              		.loc 1 144 0
 599 0008 0023     		movs	r3, #0
 600 000a 7B61     		str	r3, [r7, #20]
 145:.\Encore.c    ****     PumpJobQueue *pthis = (PumpJobQueue*)this;
 601              		.loc 1 145 0
 602 000c 7B68     		ldr	r3, [r7, #4]
 603 000e FB60     		str	r3, [r7, #12]
 146:.\Encore.c    ****         
 147:.\Encore.c    ****     FOR(uint8 index = 0, index < _PUMP_JOB_QUEUE_SIZE_, index++)
 604              		.loc 1 147 0
 605 0010 0023     		movs	r3, #0
 606 0012 FB74     		strb	r3, [r7, #19]
 607 0014 8BE0     		b	.L18
 608              	.L21:
 148:.\Encore.c    ****     {
 149:.\Encore.c    ****         if(pthis->_jobqueueheap[index]._state == QUEUE_JOB_FREE)
 609              		.loc 1 149 0
 610 0016 FA7C     		ldrb	r2, [r7, #19]	@ zero_extendqisi2
 611 0018 F968     		ldr	r1, [r7, #12]
 612 001a 1346     		mov	r3, r2
 613 001c 9B00     		lsls	r3, r3, #2
 614 001e 1344     		add	r3, r3, r2
 615 0020 DB00     		lsls	r3, r3, #3
 616 0022 0B44     		add	r3, r3, r1
 617 0024 9B79     		ldrb	r3, [r3, #6]
 618 0026 DBB2     		uxtb	r3, r3
 619 0028 002B     		cmp	r3, #0
 620 002a 7DD1     		bne	.L19
 150:.\Encore.c    ****         {
 151:.\Encore.c    ****             pthis->_jobqueueheap[index]._state = QUEUE_JOB_ALLOCATED;
 621              		.loc 1 151 0
 622 002c FA7C     		ldrb	r2, [r7, #19]	@ zero_extendqisi2
 623 002e F968     		ldr	r1, [r7, #12]
 624 0030 1346     		mov	r3, r2
 625 0032 9B00     		lsls	r3, r3, #2
 626 0034 1344     		add	r3, r3, r2
 627 0036 DB00     		lsls	r3, r3, #3
 628 0038 0B44     		add	r3, r3, r1
 629 003a 0122     		movs	r2, #1
 630 003c 9A71     		strb	r2, [r3, #6]
 152:.\Encore.c    ****             pthis->_jobqueueheap[index]._delay = 0x0000;
 631              		.loc 1 152 0
 632 003e FA7C     		ldrb	r2, [r7, #19]	@ zero_extendqisi2
 633 0040 F968     		ldr	r1, [r7, #12]
 634 0042 1346     		mov	r3, r2
 635 0044 9B00     		lsls	r3, r3, #2
 636 0046 1344     		add	r3, r3, r2
 637 0048 DB00     		lsls	r3, r3, #3
 638 004a 0B44     		add	r3, r3, r1
 639 004c 0022     		movs	r2, #0
 640 004e 1A81     		strh	r2, [r3, #8]	@ movhi
ARM GAS  C:\Users\RECEPC~1\AppData\Local\Temp\ccAtWeRe.s 			page 15


 153:.\Encore.c    ****             pthis->_jobqueueheap[index]._delaymultiplier = 0x0000;
 641              		.loc 1 153 0
 642 0050 FA7C     		ldrb	r2, [r7, #19]	@ zero_extendqisi2
 643 0052 F968     		ldr	r1, [r7, #12]
 644 0054 1346     		mov	r3, r2
 645 0056 9B00     		lsls	r3, r3, #2
 646 0058 1344     		add	r3, r3, r2
 647 005a DB00     		lsls	r3, r3, #3
 648 005c 0B44     		add	r3, r3, r1
 649 005e 0022     		movs	r2, #0
 650 0060 5A81     		strh	r2, [r3, #10]	@ movhi
 154:.\Encore.c    **** 
 155:.\Encore.c    ****             pthis->_jobqueueheap[index]._repushretriescounter = 0x0000;
 651              		.loc 1 155 0
 652 0062 FA7C     		ldrb	r2, [r7, #19]	@ zero_extendqisi2
 653 0064 F968     		ldr	r1, [r7, #12]
 654 0066 1346     		mov	r3, r2
 655 0068 9B00     		lsls	r3, r3, #2
 656 006a 1344     		add	r3, r3, r2
 657 006c DB00     		lsls	r3, r3, #3
 658 006e 0B44     		add	r3, r3, r1
 659 0070 0833     		adds	r3, r3, #8
 660 0072 0022     		movs	r2, #0
 661 0074 9A80     		strh	r2, [r3, #4]	@ movhi
 156:.\Encore.c    ****             pthis->_jobqueueheap[index]._repushtimeoutseed = 0x0000;
 662              		.loc 1 156 0
 663 0076 FA7C     		ldrb	r2, [r7, #19]	@ zero_extendqisi2
 664 0078 F968     		ldr	r1, [r7, #12]
 665 007a 1346     		mov	r3, r2
 666 007c 9B00     		lsls	r3, r3, #2
 667 007e 1344     		add	r3, r3, r2
 668 0080 DB00     		lsls	r3, r3, #3
 669 0082 0B44     		add	r3, r3, r1
 670 0084 0833     		adds	r3, r3, #8
 671 0086 0022     		movs	r2, #0
 672 0088 DA80     		strh	r2, [r3, #6]	@ movhi
 157:.\Encore.c    ****             pthis->_jobqueueheap[index]._repushtimeoutmultiplier = 0x0000;
 673              		.loc 1 157 0
 674 008a FA7C     		ldrb	r2, [r7, #19]	@ zero_extendqisi2
 675 008c F968     		ldr	r1, [r7, #12]
 676 008e 1346     		mov	r3, r2
 677 0090 9B00     		lsls	r3, r3, #2
 678 0092 1344     		add	r3, r3, r2
 679 0094 DB00     		lsls	r3, r3, #3
 680 0096 0B44     		add	r3, r3, r1
 681 0098 0833     		adds	r3, r3, #8
 682 009a 0022     		movs	r2, #0
 683 009c 1A81     		strh	r2, [r3, #8]	@ movhi
 158:.\Encore.c    ****             
 159:.\Encore.c    ****             pthis->_jobqueueheap[index]._retriescounter = 0x0000;
 684              		.loc 1 159 0
 685 009e FA7C     		ldrb	r2, [r7, #19]	@ zero_extendqisi2
 686 00a0 F968     		ldr	r1, [r7, #12]
 687 00a2 1346     		mov	r3, r2
 688 00a4 9B00     		lsls	r3, r3, #2
 689 00a6 1344     		add	r3, r3, r2
 690 00a8 DB00     		lsls	r3, r3, #3
ARM GAS  C:\Users\RECEPC~1\AppData\Local\Temp\ccAtWeRe.s 			page 16


 691 00aa 0B44     		add	r3, r3, r1
 692 00ac 0833     		adds	r3, r3, #8
 693 00ae 0022     		movs	r2, #0
 694 00b0 5A81     		strh	r2, [r3, #10]	@ movhi
 160:.\Encore.c    ****             pthis->_jobqueueheap[index]._timeoutseed = 0x0000;
 695              		.loc 1 160 0
 696 00b2 FA7C     		ldrb	r2, [r7, #19]	@ zero_extendqisi2
 697 00b4 F968     		ldr	r1, [r7, #12]
 698 00b6 1346     		mov	r3, r2
 699 00b8 9B00     		lsls	r3, r3, #2
 700 00ba 1344     		add	r3, r3, r2
 701 00bc DB00     		lsls	r3, r3, #3
 702 00be 0B44     		add	r3, r3, r1
 703 00c0 1033     		adds	r3, r3, #16
 704 00c2 0022     		movs	r2, #0
 705 00c4 9A80     		strh	r2, [r3, #4]	@ movhi
 161:.\Encore.c    ****             pthis->_jobqueueheap[index]._timeoutmultiplier = 0x0000;
 706              		.loc 1 161 0
 707 00c6 FA7C     		ldrb	r2, [r7, #19]	@ zero_extendqisi2
 708 00c8 F968     		ldr	r1, [r7, #12]
 709 00ca 1346     		mov	r3, r2
 710 00cc 9B00     		lsls	r3, r3, #2
 711 00ce 1344     		add	r3, r3, r2
 712 00d0 DB00     		lsls	r3, r3, #3
 713 00d2 0B44     		add	r3, r3, r1
 714 00d4 1033     		adds	r3, r3, #16
 715 00d6 0022     		movs	r2, #0
 716 00d8 DA80     		strh	r2, [r3, #6]	@ movhi
 162:.\Encore.c    ****             
 163:.\Encore.c    ****             pthis->_jobqueueheap[index]._reenqueue = false;
 717              		.loc 1 163 0
 718 00da FA7C     		ldrb	r2, [r7, #19]	@ zero_extendqisi2
 719 00dc F968     		ldr	r1, [r7, #12]
 720 00de 1346     		mov	r3, r2
 721 00e0 9B00     		lsls	r3, r3, #2
 722 00e2 1344     		add	r3, r3, r2
 723 00e4 DB00     		lsls	r3, r3, #3
 724 00e6 0B44     		add	r3, r3, r1
 725 00e8 0022     		movs	r2, #0
 726 00ea 1A71     		strb	r2, [r3, #4]
 164:.\Encore.c    **** 
 165:.\Encore.c    ****             pthis->_jobqueueheap[index].Callback = PNEAR_NULLPTR;
 727              		.loc 1 165 0
 728 00ec FA7C     		ldrb	r2, [r7, #19]	@ zero_extendqisi2
 729 00ee F968     		ldr	r1, [r7, #12]
 730 00f0 1346     		mov	r3, r2
 731 00f2 9B00     		lsls	r3, r3, #2
 732 00f4 1344     		add	r3, r3, r2
 733 00f6 DB00     		lsls	r3, r3, #3
 734 00f8 0B44     		add	r3, r3, r1
 735 00fa 2033     		adds	r3, r3, #32
 736 00fc 0022     		movs	r2, #0
 737 00fe 5A60     		str	r2, [r3, #4]
 166:.\Encore.c    ****             pthis->_jobqueueheap[index]._pdata = PNEAR_NULLPTR;
 738              		.loc 1 166 0
 739 0100 FA7C     		ldrb	r2, [r7, #19]	@ zero_extendqisi2
 740 0102 F968     		ldr	r1, [r7, #12]
ARM GAS  C:\Users\RECEPC~1\AppData\Local\Temp\ccAtWeRe.s 			page 17


 741 0104 1346     		mov	r3, r2
 742 0106 9B00     		lsls	r3, r3, #2
 743 0108 1344     		add	r3, r3, r2
 744 010a DB00     		lsls	r3, r3, #3
 745 010c 0B44     		add	r3, r3, r1
 746 010e 2033     		adds	r3, r3, #32
 747 0110 0022     		movs	r2, #0
 748 0112 9A60     		str	r2, [r3, #8]
 167:.\Encore.c    ****             
 168:.\Encore.c    ****             pretval = &(pthis->_jobqueueheap[index]);
 749              		.loc 1 168 0
 750 0114 FA7C     		ldrb	r2, [r7, #19]	@ zero_extendqisi2
 751 0116 1346     		mov	r3, r2
 752 0118 9B00     		lsls	r3, r3, #2
 753 011a 1344     		add	r3, r3, r2
 754 011c DB00     		lsls	r3, r3, #3
 755 011e FA68     		ldr	r2, [r7, #12]
 756 0120 1344     		add	r3, r3, r2
 757 0122 0433     		adds	r3, r3, #4
 758 0124 7B61     		str	r3, [r7, #20]
 169:.\Encore.c    ****             break;
 759              		.loc 1 169 0
 760 0126 06E0     		b	.L20
 761              	.L19:
 147:.\Encore.c    ****     {
 762              		.loc 1 147 0 discriminator 2
 763 0128 FB7C     		ldrb	r3, [r7, #19]	@ zero_extendqisi2
 764 012a 0133     		adds	r3, r3, #1
 765 012c FB74     		strb	r3, [r7, #19]
 766              	.L18:
 147:.\Encore.c    ****     {
 767              		.loc 1 147 0 is_stmt 0 discriminator 1
 768 012e FB7C     		ldrb	r3, [r7, #19]	@ zero_extendqisi2
 769 0130 2F2B     		cmp	r3, #47
 770 0132 7FF670AF 		bls	.L21
 771              	.L20:
 170:.\Encore.c    ****         }
 171:.\Encore.c    ****     }
 172:.\Encore.c    ****     return pretval;
 772              		.loc 1 172 0 is_stmt 1
 773 0136 7B69     		ldr	r3, [r7, #20]
 173:.\Encore.c    **** }
 774              		.loc 1 173 0
 775 0138 1846     		mov	r0, r3
 776 013a 1C37     		adds	r7, r7, #28
 777              		.cfi_def_cfa_offset 4
 778 013c BD46     		mov	sp, r7
 779              		.cfi_def_cfa_register 13
 780              		@ sp needed
 781 013e 5DF8047B 		ldr	r7, [sp], #4
 782              		.cfi_restore 7
 783              		.cfi_def_cfa_offset 0
 784 0142 7047     		bx	lr
 785              		.cfi_endproc
 786              	.LFE66:
 787              		.size	PumpJobAllocate, .-PumpJobAllocate
 788              		.section	.text.PumpJobEnqueue,"ax",%progbits
ARM GAS  C:\Users\RECEPC~1\AppData\Local\Temp\ccAtWeRe.s 			page 18


 789              		.align	2
 790              		.global	PumpJobEnqueue
 791              		.thumb
 792              		.thumb_func
 793              		.type	PumpJobEnqueue, %function
 794              	PumpJobEnqueue:
 795              	.LFB67:
 174:.\Encore.c    **** 
 175:.\Encore.c    **** //@Created By: HIJH
 176:.\Encore.c    **** //@Septembre de 2016
 177:.\Encore.c    **** void PumpJobEnqueue(void *this, PPUMPTRANSACTIONJOBCONTEXTPTR pjob)
 178:.\Encore.c    **** {
 796              		.loc 1 178 0
 797              		.cfi_startproc
 798              		@ args = 0, pretend = 0, frame = 16
 799              		@ frame_needed = 1, uses_anonymous_args = 0
 800              		@ link register save eliminated.
 801 0000 80B4     		push	{r7}
 802              		.cfi_def_cfa_offset 4
 803              		.cfi_offset 7, -4
 804 0002 85B0     		sub	sp, sp, #20
 805              		.cfi_def_cfa_offset 24
 806 0004 00AF     		add	r7, sp, #0
 807              		.cfi_def_cfa_register 7
 808 0006 7860     		str	r0, [r7, #4]
 809 0008 3960     		str	r1, [r7]
 179:.\Encore.c    ****     PumpJobQueue *pthis = (PumpJobQueue*)this;
 810              		.loc 1 179 0
 811 000a 7B68     		ldr	r3, [r7, #4]
 812 000c FB60     		str	r3, [r7, #12]
 180:.\Encore.c    ****     
 181:.\Encore.c    ****     if(pthis->_queueindex < _PUMP_JOB_QUEUE_SIZE_)
 813              		.loc 1 181 0
 814 000e FB68     		ldr	r3, [r7, #12]
 815 0010 1B88     		ldrh	r3, [r3]	@ movhi
 816 0012 9BB2     		uxth	r3, r3
 817 0014 2F2B     		cmp	r3, #47
 818 0016 1BD8     		bhi	.L23
 182:.\Encore.c    ****     {
 183:.\Encore.c    ****         pthis->_pjobqueueallocated[pthis->_queueindex] = pjob;
 819              		.loc 1 183 0
 820 0018 FB68     		ldr	r3, [r7, #12]
 821 001a 1B88     		ldrh	r3, [r3]	@ movhi
 822 001c 9BB2     		uxth	r3, r3
 823 001e FA68     		ldr	r2, [r7, #12]
 824 0020 03F5F073 		add	r3, r3, #480
 825 0024 9B00     		lsls	r3, r3, #2
 826 0026 1344     		add	r3, r3, r2
 827 0028 3A68     		ldr	r2, [r7]
 828 002a 5A60     		str	r2, [r3, #4]
 184:.\Encore.c    ****         pthis->_pjobqueueallocated[pthis->_queueindex]->_state = QUEUE_JOB_BUSY;
 829              		.loc 1 184 0
 830 002c FB68     		ldr	r3, [r7, #12]
 831 002e 1B88     		ldrh	r3, [r3]	@ movhi
 832 0030 9BB2     		uxth	r3, r3
 833 0032 FA68     		ldr	r2, [r7, #12]
 834 0034 03F5F073 		add	r3, r3, #480
ARM GAS  C:\Users\RECEPC~1\AppData\Local\Temp\ccAtWeRe.s 			page 19


 835 0038 9B00     		lsls	r3, r3, #2
 836 003a 1344     		add	r3, r3, r2
 837 003c 5B68     		ldr	r3, [r3, #4]
 838 003e 0222     		movs	r2, #2
 839 0040 9A70     		strb	r2, [r3, #2]
 185:.\Encore.c    ****         pthis->_queueindex++;
 840              		.loc 1 185 0
 841 0042 FB68     		ldr	r3, [r7, #12]
 842 0044 1B88     		ldrh	r3, [r3]	@ movhi
 843 0046 9BB2     		uxth	r3, r3
 844 0048 0133     		adds	r3, r3, #1
 845 004a 9AB2     		uxth	r2, r3
 846 004c FB68     		ldr	r3, [r7, #12]
 847 004e 1A80     		strh	r2, [r3]	@ movhi
 848              	.L23:
 186:.\Encore.c    ****     }
 187:.\Encore.c    **** }
 849              		.loc 1 187 0
 850 0050 1437     		adds	r7, r7, #20
 851              		.cfi_def_cfa_offset 4
 852 0052 BD46     		mov	sp, r7
 853              		.cfi_def_cfa_register 13
 854              		@ sp needed
 855 0054 5DF8047B 		ldr	r7, [sp], #4
 856              		.cfi_restore 7
 857              		.cfi_def_cfa_offset 0
 858 0058 7047     		bx	lr
 859              		.cfi_endproc
 860              	.LFE67:
 861              		.size	PumpJobEnqueue, .-PumpJobEnqueue
 862 005a 00BF     		.section	.text.PumpJobQueuePeek,"ax",%progbits
 863              		.align	2
 864              		.global	PumpJobQueuePeek
 865              		.thumb
 866              		.thumb_func
 867              		.type	PumpJobQueuePeek, %function
 868              	PumpJobQueuePeek:
 869              	.LFB68:
 188:.\Encore.c    **** 
 189:.\Encore.c    **** //@Created By: HIJH
 190:.\Encore.c    **** //@Septembre de 2016
 191:.\Encore.c    **** PPUMPTRANSACTIONJOBCONTEXTPTR PumpJobQueuePeek(void *this)
 192:.\Encore.c    **** {   
 870              		.loc 1 192 0
 871              		.cfi_startproc
 872              		@ args = 0, pretend = 0, frame = 16
 873              		@ frame_needed = 1, uses_anonymous_args = 0
 874              		@ link register save eliminated.
 875 0000 80B4     		push	{r7}
 876              		.cfi_def_cfa_offset 4
 877              		.cfi_offset 7, -4
 878 0002 85B0     		sub	sp, sp, #20
 879              		.cfi_def_cfa_offset 24
 880 0004 00AF     		add	r7, sp, #0
 881              		.cfi_def_cfa_register 7
 882 0006 7860     		str	r0, [r7, #4]
 193:.\Encore.c    ****     PPUMPTRANSACTIONJOBCONTEXTPTR pretval = NULL;
ARM GAS  C:\Users\RECEPC~1\AppData\Local\Temp\ccAtWeRe.s 			page 20


 883              		.loc 1 193 0
 884 0008 0023     		movs	r3, #0
 885 000a FB60     		str	r3, [r7, #12]
 194:.\Encore.c    ****     PumpJobQueue *pthis = (PumpJobQueue*)this;
 886              		.loc 1 194 0
 887 000c 7B68     		ldr	r3, [r7, #4]
 888 000e BB60     		str	r3, [r7, #8]
 195:.\Encore.c    ****         
 196:.\Encore.c    ****     if(pthis->_queueindex > 0)
 889              		.loc 1 196 0
 890 0010 BB68     		ldr	r3, [r7, #8]
 891 0012 1B88     		ldrh	r3, [r3]	@ movhi
 892 0014 9BB2     		uxth	r3, r3
 893 0016 002B     		cmp	r3, #0
 894 0018 03D0     		beq	.L26
 197:.\Encore.c    ****         pretval = pthis->_pjobqueueallocated[0];
 895              		.loc 1 197 0
 896 001a BB68     		ldr	r3, [r7, #8]
 897 001c D3F88437 		ldr	r3, [r3, #1924]
 898 0020 FB60     		str	r3, [r7, #12]
 899              	.L26:
 198:.\Encore.c    ****         
 199:.\Encore.c    ****     return pretval;
 900              		.loc 1 199 0
 901 0022 FB68     		ldr	r3, [r7, #12]
 200:.\Encore.c    **** }
 902              		.loc 1 200 0
 903 0024 1846     		mov	r0, r3
 904 0026 1437     		adds	r7, r7, #20
 905              		.cfi_def_cfa_offset 4
 906 0028 BD46     		mov	sp, r7
 907              		.cfi_def_cfa_register 13
 908              		@ sp needed
 909 002a 5DF8047B 		ldr	r7, [sp], #4
 910              		.cfi_restore 7
 911              		.cfi_def_cfa_offset 0
 912 002e 7047     		bx	lr
 913              		.cfi_endproc
 914              	.LFE68:
 915              		.size	PumpJobQueuePeek, .-PumpJobQueuePeek
 916              		.section	.text.PumpJobDequeue,"ax",%progbits
 917              		.align	2
 918              		.global	PumpJobDequeue
 919              		.thumb
 920              		.thumb_func
 921              		.type	PumpJobDequeue, %function
 922              	PumpJobDequeue:
 923              	.LFB69:
 201:.\Encore.c    **** 
 202:.\Encore.c    **** //@Created By: HIJH
 203:.\Encore.c    **** //@Septembre de 2016
 204:.\Encore.c    **** void PumpJobDequeue(void *this)
 205:.\Encore.c    **** {    
 924              		.loc 1 205 0
 925              		.cfi_startproc
 926              		@ args = 0, pretend = 0, frame = 16
 927              		@ frame_needed = 1, uses_anonymous_args = 0
ARM GAS  C:\Users\RECEPC~1\AppData\Local\Temp\ccAtWeRe.s 			page 21


 928              		@ link register save eliminated.
 929 0000 80B4     		push	{r7}
 930              		.cfi_def_cfa_offset 4
 931              		.cfi_offset 7, -4
 932 0002 85B0     		sub	sp, sp, #20
 933              		.cfi_def_cfa_offset 24
 934 0004 00AF     		add	r7, sp, #0
 935              		.cfi_def_cfa_register 7
 936 0006 7860     		str	r0, [r7, #4]
 206:.\Encore.c    ****     PumpJobQueue *pthis = (PumpJobQueue*)this;
 937              		.loc 1 206 0
 938 0008 7B68     		ldr	r3, [r7, #4]
 939 000a BB60     		str	r3, [r7, #8]
 207:.\Encore.c    ****     
 208:.\Encore.c    ****     if(pthis->_queueindex > 0)
 940              		.loc 1 208 0
 941 000c BB68     		ldr	r3, [r7, #8]
 942 000e 1B88     		ldrh	r3, [r3]	@ movhi
 943 0010 9BB2     		uxth	r3, r3
 944 0012 002B     		cmp	r3, #0
 945 0014 4BD0     		beq	.L28
 946              	.LBB3:
 209:.\Encore.c    ****     {
 210:.\Encore.c    ****         pthis->_pjobqueueallocated[0]->_state = QUEUE_JOB_FREE;
 947              		.loc 1 210 0
 948 0016 BB68     		ldr	r3, [r7, #8]
 949 0018 D3F88437 		ldr	r3, [r3, #1924]
 950 001c 0022     		movs	r2, #0
 951 001e 9A70     		strb	r2, [r3, #2]
 211:.\Encore.c    ****         pthis->_pjobqueueallocated[0]->_ppump = NULL;
 952              		.loc 1 211 0
 953 0020 BB68     		ldr	r3, [r7, #8]
 954 0022 D3F88437 		ldr	r3, [r3, #1924]
 955 0026 0022     		movs	r2, #0
 956 0028 DA61     		str	r2, [r3, #28]
 212:.\Encore.c    ****         pthis->_pjobqueueallocated[0]->_prequest = NULL;
 957              		.loc 1 212 0
 958 002a BB68     		ldr	r3, [r7, #8]
 959 002c D3F88437 		ldr	r3, [r3, #1924]
 960 0030 0022     		movs	r2, #0
 961 0032 5A61     		str	r2, [r3, #20]
 213:.\Encore.c    ****         pthis->_pjobqueueallocated[0]->_presponse = NULL;
 962              		.loc 1 213 0
 963 0034 BB68     		ldr	r3, [r7, #8]
 964 0036 D3F88437 		ldr	r3, [r3, #1924]
 965 003a 0022     		movs	r2, #0
 966 003c 9A61     		str	r2, [r3, #24]
 214:.\Encore.c    ****         FOR(uint8 index = 1, index < pthis->_queueindex, index++)
 967              		.loc 1 214 0
 968 003e 0123     		movs	r3, #1
 969 0040 FB73     		strb	r3, [r7, #15]
 970 0042 11E0     		b	.L30
 971              	.L31:
 215:.\Encore.c    ****             pthis->_pjobqueueallocated[index - 1] = pthis->_pjobqueueallocated[index];
 972              		.loc 1 215 0 discriminator 3
 973 0044 FB7B     		ldrb	r3, [r7, #15]	@ zero_extendqisi2
 974 0046 581E     		subs	r0, r3, #1
ARM GAS  C:\Users\RECEPC~1\AppData\Local\Temp\ccAtWeRe.s 			page 22


 975 0048 FB7B     		ldrb	r3, [r7, #15]	@ zero_extendqisi2
 976 004a BA68     		ldr	r2, [r7, #8]
 977 004c 03F5F073 		add	r3, r3, #480
 978 0050 9B00     		lsls	r3, r3, #2
 979 0052 1344     		add	r3, r3, r2
 980 0054 5A68     		ldr	r2, [r3, #4]
 981 0056 B968     		ldr	r1, [r7, #8]
 982 0058 00F5F073 		add	r3, r0, #480
 983 005c 9B00     		lsls	r3, r3, #2
 984 005e 0B44     		add	r3, r3, r1
 985 0060 5A60     		str	r2, [r3, #4]
 214:.\Encore.c    ****         FOR(uint8 index = 1, index < pthis->_queueindex, index++)
 986              		.loc 1 214 0 discriminator 3
 987 0062 FB7B     		ldrb	r3, [r7, #15]	@ zero_extendqisi2
 988 0064 0133     		adds	r3, r3, #1
 989 0066 FB73     		strb	r3, [r7, #15]
 990              	.L30:
 214:.\Encore.c    ****         FOR(uint8 index = 1, index < pthis->_queueindex, index++)
 991              		.loc 1 214 0 is_stmt 0 discriminator 1
 992 0068 FB7B     		ldrb	r3, [r7, #15]	@ zero_extendqisi2
 993 006a 9AB2     		uxth	r2, r3
 994 006c BB68     		ldr	r3, [r7, #8]
 995 006e 1B88     		ldrh	r3, [r3]	@ movhi
 996 0070 9BB2     		uxth	r3, r3
 997 0072 9A42     		cmp	r2, r3
 998 0074 E6D3     		bcc	.L31
 216:.\Encore.c    **** 
 217:.\Encore.c    ****         FOR(index = (pthis->_queueindex - 1), index < _PUMP_JOB_QUEUE_SIZE_, index++)
 999              		.loc 1 217 0 is_stmt 1
 1000 0076 BB68     		ldr	r3, [r7, #8]
 1001 0078 1B88     		ldrh	r3, [r3]	@ movhi
 1002 007a 9BB2     		uxth	r3, r3
 1003 007c DBB2     		uxtb	r3, r3
 1004 007e 013B     		subs	r3, r3, #1
 1005 0080 FB73     		strb	r3, [r7, #15]
 1006 0082 0AE0     		b	.L32
 1007              	.L33:
 218:.\Encore.c    ****             pthis->_pjobqueueallocated[index] = NULL;
 1008              		.loc 1 218 0 discriminator 3
 1009 0084 FB7B     		ldrb	r3, [r7, #15]	@ zero_extendqisi2
 1010 0086 BA68     		ldr	r2, [r7, #8]
 1011 0088 03F5F073 		add	r3, r3, #480
 1012 008c 9B00     		lsls	r3, r3, #2
 1013 008e 1344     		add	r3, r3, r2
 1014 0090 0022     		movs	r2, #0
 1015 0092 5A60     		str	r2, [r3, #4]
 217:.\Encore.c    ****             pthis->_pjobqueueallocated[index] = NULL;
 1016              		.loc 1 217 0 discriminator 3
 1017 0094 FB7B     		ldrb	r3, [r7, #15]	@ zero_extendqisi2
 1018 0096 0133     		adds	r3, r3, #1
 1019 0098 FB73     		strb	r3, [r7, #15]
 1020              	.L32:
 217:.\Encore.c    ****             pthis->_pjobqueueallocated[index] = NULL;
 1021              		.loc 1 217 0 is_stmt 0 discriminator 1
 1022 009a FB7B     		ldrb	r3, [r7, #15]	@ zero_extendqisi2
 1023 009c 2F2B     		cmp	r3, #47
 1024 009e F1D9     		bls	.L33
ARM GAS  C:\Users\RECEPC~1\AppData\Local\Temp\ccAtWeRe.s 			page 23


 219:.\Encore.c    ****             
 220:.\Encore.c    ****         pthis->_queueindex--;
 1025              		.loc 1 220 0 is_stmt 1
 1026 00a0 BB68     		ldr	r3, [r7, #8]
 1027 00a2 1B88     		ldrh	r3, [r3]	@ movhi
 1028 00a4 9BB2     		uxth	r3, r3
 1029 00a6 013B     		subs	r3, r3, #1
 1030 00a8 9AB2     		uxth	r2, r3
 1031 00aa BB68     		ldr	r3, [r7, #8]
 1032 00ac 1A80     		strh	r2, [r3]	@ movhi
 1033              	.L28:
 1034              	.LBE3:
 221:.\Encore.c    ****     }
 222:.\Encore.c    **** }
 1035              		.loc 1 222 0
 1036 00ae 1437     		adds	r7, r7, #20
 1037              		.cfi_def_cfa_offset 4
 1038 00b0 BD46     		mov	sp, r7
 1039              		.cfi_def_cfa_register 13
 1040              		@ sp needed
 1041 00b2 5DF8047B 		ldr	r7, [sp], #4
 1042              		.cfi_restore 7
 1043              		.cfi_def_cfa_offset 0
 1044 00b6 7047     		bx	lr
 1045              		.cfi_endproc
 1046              	.LFE69:
 1047              		.size	PumpJobDequeue, .-PumpJobDequeue
 1048              		.section	.text.PumpJobRotate,"ax",%progbits
 1049              		.align	2
 1050              		.global	PumpJobRotate
 1051              		.thumb
 1052              		.thumb_func
 1053              		.type	PumpJobRotate, %function
 1054              	PumpJobRotate:
 1055              	.LFB70:
 223:.\Encore.c    **** 
 224:.\Encore.c    **** //@Created By: HIJH
 225:.\Encore.c    **** //@Septembre de 2016
 226:.\Encore.c    **** void PumpJobRotate(void *this)
 227:.\Encore.c    **** {    
 1056              		.loc 1 227 0
 1057              		.cfi_startproc
 1058              		@ args = 0, pretend = 0, frame = 24
 1059              		@ frame_needed = 1, uses_anonymous_args = 0
 1060              		@ link register save eliminated.
 1061 0000 80B4     		push	{r7}
 1062              		.cfi_def_cfa_offset 4
 1063              		.cfi_offset 7, -4
 1064 0002 87B0     		sub	sp, sp, #28
 1065              		.cfi_def_cfa_offset 32
 1066 0004 00AF     		add	r7, sp, #0
 1067              		.cfi_def_cfa_register 7
 1068 0006 7860     		str	r0, [r7, #4]
 228:.\Encore.c    ****     PumpJobQueue *pthis = (PumpJobQueue*)this;
 1069              		.loc 1 228 0
 1070 0008 7B68     		ldr	r3, [r7, #4]
 1071 000a 3B61     		str	r3, [r7, #16]
ARM GAS  C:\Users\RECEPC~1\AppData\Local\Temp\ccAtWeRe.s 			page 24


 229:.\Encore.c    ****     
 230:.\Encore.c    ****     if(pthis->_queueindex > 0)
 1072              		.loc 1 230 0
 1073 000c 3B69     		ldr	r3, [r7, #16]
 1074 000e 1B88     		ldrh	r3, [r3]	@ movhi
 1075 0010 9BB2     		uxth	r3, r3
 1076 0012 002B     		cmp	r3, #0
 1077 0014 2AD0     		beq	.L34
 1078              	.LBB4:
 231:.\Encore.c    ****     {
 232:.\Encore.c    ****         PPUMPTRANSACTIONJOBCONTEXTPTR ptopjob = pthis->_pjobqueueallocated[0x00];
 1079              		.loc 1 232 0
 1080 0016 3B69     		ldr	r3, [r7, #16]
 1081 0018 D3F88437 		ldr	r3, [r3, #1924]
 1082 001c FB60     		str	r3, [r7, #12]
 233:.\Encore.c    ****         
 234:.\Encore.c    ****         FOR(uint8 index = 1, index < pthis->_queueindex, index++)
 1083              		.loc 1 234 0
 1084 001e 0123     		movs	r3, #1
 1085 0020 FB75     		strb	r3, [r7, #23]
 1086 0022 11E0     		b	.L36
 1087              	.L37:
 235:.\Encore.c    ****             pthis->_pjobqueueallocated[index - 1] = pthis->_pjobqueueallocated[index];
 1088              		.loc 1 235 0 discriminator 3
 1089 0024 FB7D     		ldrb	r3, [r7, #23]	@ zero_extendqisi2
 1090 0026 581E     		subs	r0, r3, #1
 1091 0028 FB7D     		ldrb	r3, [r7, #23]	@ zero_extendqisi2
 1092 002a 3A69     		ldr	r2, [r7, #16]
 1093 002c 03F5F073 		add	r3, r3, #480
 1094 0030 9B00     		lsls	r3, r3, #2
 1095 0032 1344     		add	r3, r3, r2
 1096 0034 5A68     		ldr	r2, [r3, #4]
 1097 0036 3969     		ldr	r1, [r7, #16]
 1098 0038 00F5F073 		add	r3, r0, #480
 1099 003c 9B00     		lsls	r3, r3, #2
 1100 003e 0B44     		add	r3, r3, r1
 1101 0040 5A60     		str	r2, [r3, #4]
 234:.\Encore.c    ****             pthis->_pjobqueueallocated[index - 1] = pthis->_pjobqueueallocated[index];
 1102              		.loc 1 234 0 discriminator 3
 1103 0042 FB7D     		ldrb	r3, [r7, #23]	@ zero_extendqisi2
 1104 0044 0133     		adds	r3, r3, #1
 1105 0046 FB75     		strb	r3, [r7, #23]
 1106              	.L36:
 234:.\Encore.c    ****             pthis->_pjobqueueallocated[index - 1] = pthis->_pjobqueueallocated[index];
 1107              		.loc 1 234 0 is_stmt 0 discriminator 1
 1108 0048 FB7D     		ldrb	r3, [r7, #23]	@ zero_extendqisi2
 1109 004a 9AB2     		uxth	r2, r3
 1110 004c 3B69     		ldr	r3, [r7, #16]
 1111 004e 1B88     		ldrh	r3, [r3]	@ movhi
 1112 0050 9BB2     		uxth	r3, r3
 1113 0052 9A42     		cmp	r2, r3
 1114 0054 E6D3     		bcc	.L37
 236:.\Encore.c    **** 
 237:.\Encore.c    ****         pthis->_pjobqueueallocated[pthis->_queueindex - 1] = ptopjob;
 1115              		.loc 1 237 0 is_stmt 1
 1116 0056 3B69     		ldr	r3, [r7, #16]
 1117 0058 1B88     		ldrh	r3, [r3]	@ movhi
ARM GAS  C:\Users\RECEPC~1\AppData\Local\Temp\ccAtWeRe.s 			page 25


 1118 005a 9BB2     		uxth	r3, r3
 1119 005c 013B     		subs	r3, r3, #1
 1120 005e 3A69     		ldr	r2, [r7, #16]
 1121 0060 03F5F073 		add	r3, r3, #480
 1122 0064 9B00     		lsls	r3, r3, #2
 1123 0066 1344     		add	r3, r3, r2
 1124 0068 FA68     		ldr	r2, [r7, #12]
 1125 006a 5A60     		str	r2, [r3, #4]
 1126              	.L34:
 1127              	.LBE4:
 238:.\Encore.c    ****     }
 239:.\Encore.c    **** }
 1128              		.loc 1 239 0
 1129 006c 1C37     		adds	r7, r7, #28
 1130              		.cfi_def_cfa_offset 4
 1131 006e BD46     		mov	sp, r7
 1132              		.cfi_def_cfa_register 13
 1133              		@ sp needed
 1134 0070 5DF8047B 		ldr	r7, [sp], #4
 1135              		.cfi_restore 7
 1136              		.cfi_def_cfa_offset 0
 1137 0074 7047     		bx	lr
 1138              		.cfi_endproc
 1139              	.LFE70:
 1140              		.size	PumpJobRotate, .-PumpJobRotate
 1141 0076 00BF     		.section	.text.PumpTransactionalStateDequeue,"ax",%progbits
 1142              		.align	2
 1143              		.global	PumpTransactionalStateDequeue
 1144              		.thumb
 1145              		.thumb_func
 1146              		.type	PumpTransactionalStateDequeue, %function
 1147              	PumpTransactionalStateDequeue:
 1148              	.LFB71:
 240:.\Encore.c    **** 
 241:.\Encore.c    **** //@Created By: HIJH
 242:.\Encore.c    **** //@Septembre de 2016
 243:.\Encore.c    **** PNEAR_PUMPTRANSACTIONALSTATEPTR PumpTransactionalStateDequeue(LPVOID pvthis)
 244:.\Encore.c    **** {
 1149              		.loc 1 244 0
 1150              		.cfi_startproc
 1151              		@ args = 0, pretend = 0, frame = 24
 1152              		@ frame_needed = 1, uses_anonymous_args = 0
 1153              		@ link register save eliminated.
 1154 0000 80B4     		push	{r7}
 1155              		.cfi_def_cfa_offset 4
 1156              		.cfi_offset 7, -4
 1157 0002 87B0     		sub	sp, sp, #28
 1158              		.cfi_def_cfa_offset 32
 1159 0004 00AF     		add	r7, sp, #0
 1160              		.cfi_def_cfa_register 7
 1161 0006 7860     		str	r0, [r7, #4]
 245:.\Encore.c    ****     PNEAR_PUMPPTR pthispump = (PNEAR_PUMPPTR)pvthis;
 1162              		.loc 1 245 0
 1163 0008 7B68     		ldr	r3, [r7, #4]
 1164 000a FB60     		str	r3, [r7, #12]
 246:.\Encore.c    ****     PNEAR_PUMPTRANSACTIONALSTATEPTR pretval = PNEAR_NULLPTR;
 1165              		.loc 1 246 0
ARM GAS  C:\Users\RECEPC~1\AppData\Local\Temp\ccAtWeRe.s 			page 26


 1166 000c 0023     		movs	r3, #0
 1167 000e 7B61     		str	r3, [r7, #20]
 247:.\Encore.c    ****     
 248:.\Encore.c    ****     FOR(uint8 index = 0, index < _PUMP_MAX_QUEUE_TRANSTATES_, index++)
 1168              		.loc 1 248 0
 1169 0010 0023     		movs	r3, #0
 1170 0012 FB74     		strb	r3, [r7, #19]
 1171 0014 1AE0     		b	.L39
 1172              	.L42:
 249:.\Encore.c    ****     {
 250:.\Encore.c    ****         if(pthispump->_transqueue[index]._state == _PUMP_TRANSTATE_BUSY_)
 1173              		.loc 1 250 0
 1174 0016 FA7C     		ldrb	r2, [r7, #19]	@ zero_extendqisi2
 1175 0018 F968     		ldr	r1, [r7, #12]
 1176 001a 1346     		mov	r3, r2
 1177 001c 9B01     		lsls	r3, r3, #6
 1178 001e 1344     		add	r3, r3, r2
 1179 0020 9B00     		lsls	r3, r3, #2
 1180 0022 0B44     		add	r3, r3, r1
 1181 0024 03F54873 		add	r3, r3, #800
 1182 0028 9B78     		ldrb	r3, [r3, #2]	@ zero_extendqisi2
 1183 002a 022B     		cmp	r3, #2
 1184 002c 0BD1     		bne	.L40
 251:.\Encore.c    ****         {
 252:.\Encore.c    ****             pretval = &(pthispump->_transqueue[index]);
 1185              		.loc 1 252 0
 1186 002e FA7C     		ldrb	r2, [r7, #19]	@ zero_extendqisi2
 1187 0030 1346     		mov	r3, r2
 1188 0032 9B01     		lsls	r3, r3, #6
 1189 0034 1344     		add	r3, r3, r2
 1190 0036 9B00     		lsls	r3, r3, #2
 1191 0038 03F54873 		add	r3, r3, #800
 1192 003c FA68     		ldr	r2, [r7, #12]
 1193 003e 1344     		add	r3, r3, r2
 1194 0040 0233     		adds	r3, r3, #2
 1195 0042 7B61     		str	r3, [r7, #20]
 253:.\Encore.c    ****             break;
 1196              		.loc 1 253 0
 1197 0044 05E0     		b	.L41
 1198              	.L40:
 248:.\Encore.c    ****     {
 1199              		.loc 1 248 0 discriminator 2
 1200 0046 FB7C     		ldrb	r3, [r7, #19]	@ zero_extendqisi2
 1201 0048 0133     		adds	r3, r3, #1
 1202 004a FB74     		strb	r3, [r7, #19]
 1203              	.L39:
 248:.\Encore.c    ****     {
 1204              		.loc 1 248 0 is_stmt 0 discriminator 1
 1205 004c FB7C     		ldrb	r3, [r7, #19]	@ zero_extendqisi2
 1206 004e 072B     		cmp	r3, #7
 1207 0050 E1D9     		bls	.L42
 1208              	.L41:
 254:.\Encore.c    ****         }
 255:.\Encore.c    ****     }
 256:.\Encore.c    ****     return pretval;
 1209              		.loc 1 256 0 is_stmt 1
 1210 0052 7B69     		ldr	r3, [r7, #20]
ARM GAS  C:\Users\RECEPC~1\AppData\Local\Temp\ccAtWeRe.s 			page 27


 257:.\Encore.c    **** }
 1211              		.loc 1 257 0
 1212 0054 1846     		mov	r0, r3
 1213 0056 1C37     		adds	r7, r7, #28
 1214              		.cfi_def_cfa_offset 4
 1215 0058 BD46     		mov	sp, r7
 1216              		.cfi_def_cfa_register 13
 1217              		@ sp needed
 1218 005a 5DF8047B 		ldr	r7, [sp], #4
 1219              		.cfi_restore 7
 1220              		.cfi_def_cfa_offset 0
 1221 005e 7047     		bx	lr
 1222              		.cfi_endproc
 1223              	.LFE71:
 1224              		.size	PumpTransactionalStateDequeue, .-PumpTransactionalStateDequeue
 1225              		.section	.text.PumpTransactionalStateEnqueue,"ax",%progbits
 1226              		.align	2
 1227              		.global	PumpTransactionalStateEnqueue
 1228              		.thumb
 1229              		.thumb_func
 1230              		.type	PumpTransactionalStateEnqueue, %function
 1231              	PumpTransactionalStateEnqueue:
 1232              	.LFB72:
 258:.\Encore.c    **** 
 259:.\Encore.c    **** //@Created By: HIJH
 260:.\Encore.c    **** //@Septembre de 2016
 261:.\Encore.c    **** void PumpTransactionalStateEnqueue(LPVOID pvthis, PNEAR_PUMPTRANSACTIONALSTATEPTR pts)
 262:.\Encore.c    **** {
 1233              		.loc 1 262 0
 1234              		.cfi_startproc
 1235              		@ args = 0, pretend = 0, frame = 16
 1236              		@ frame_needed = 1, uses_anonymous_args = 0
 1237              		@ link register save eliminated.
 1238 0000 80B4     		push	{r7}
 1239              		.cfi_def_cfa_offset 4
 1240              		.cfi_offset 7, -4
 1241 0002 85B0     		sub	sp, sp, #20
 1242              		.cfi_def_cfa_offset 24
 1243 0004 00AF     		add	r7, sp, #0
 1244              		.cfi_def_cfa_register 7
 1245 0006 7860     		str	r0, [r7, #4]
 1246 0008 3960     		str	r1, [r7]
 263:.\Encore.c    ****     PNEAR_PUMPPTR pthispump = (PNEAR_PUMPPTR)pvthis;
 1247              		.loc 1 263 0
 1248 000a 7B68     		ldr	r3, [r7, #4]
 1249 000c FB60     		str	r3, [r7, #12]
 264:.\Encore.c    ****     pts->_state = _PUMP_TRANSTATE_BUSY_;    
 1250              		.loc 1 264 0
 1251 000e 3B68     		ldr	r3, [r7]
 1252 0010 0222     		movs	r2, #2
 1253 0012 1A70     		strb	r2, [r3]
 265:.\Encore.c    **** }
 1254              		.loc 1 265 0
 1255 0014 1437     		adds	r7, r7, #20
 1256              		.cfi_def_cfa_offset 4
 1257 0016 BD46     		mov	sp, r7
 1258              		.cfi_def_cfa_register 13
ARM GAS  C:\Users\RECEPC~1\AppData\Local\Temp\ccAtWeRe.s 			page 28


 1259              		@ sp needed
 1260 0018 5DF8047B 		ldr	r7, [sp], #4
 1261              		.cfi_restore 7
 1262              		.cfi_def_cfa_offset 0
 1263 001c 7047     		bx	lr
 1264              		.cfi_endproc
 1265              	.LFE72:
 1266              		.size	PumpTransactionalStateEnqueue, .-PumpTransactionalStateEnqueue
 1267 001e 00BF     		.section	.text.PumpTransactionalStateDeallocate,"ax",%progbits
 1268              		.align	2
 1269              		.global	PumpTransactionalStateDeallocate
 1270              		.thumb
 1271              		.thumb_func
 1272              		.type	PumpTransactionalStateDeallocate, %function
 1273              	PumpTransactionalStateDeallocate:
 1274              	.LFB73:
 266:.\Encore.c    **** 
 267:.\Encore.c    **** //@Created By: HIJH
 268:.\Encore.c    **** //@Septembre de 2016
 269:.\Encore.c    **** void PumpTransactionalStateDeallocate(LPVOID pvthis, PNEAR_PUMPTRANSACTIONALSTATEPTR pts)
 270:.\Encore.c    **** {
 1275              		.loc 1 270 0
 1276              		.cfi_startproc
 1277              		@ args = 0, pretend = 0, frame = 16
 1278              		@ frame_needed = 1, uses_anonymous_args = 0
 1279 0000 80B5     		push	{r7, lr}
 1280              		.cfi_def_cfa_offset 8
 1281              		.cfi_offset 7, -8
 1282              		.cfi_offset 14, -4
 1283 0002 84B0     		sub	sp, sp, #16
 1284              		.cfi_def_cfa_offset 24
 1285 0004 00AF     		add	r7, sp, #0
 1286              		.cfi_def_cfa_register 7
 1287 0006 7860     		str	r0, [r7, #4]
 1288 0008 3960     		str	r1, [r7]
 271:.\Encore.c    ****     PNEAR_PUMPPTR pthispump = (PNEAR_PUMPPTR)pvthis;
 1289              		.loc 1 271 0
 1290 000a 7B68     		ldr	r3, [r7, #4]
 1291 000c BB60     		str	r3, [r7, #8]
 272:.\Encore.c    ****     
 273:.\Encore.c    ****     pts->_state = _PUMP_TRANSTATE_FREE_;
 1292              		.loc 1 273 0
 1293 000e 3B68     		ldr	r3, [r7]
 1294 0010 0022     		movs	r2, #0
 1295 0012 1A70     		strb	r2, [r3]
 274:.\Encore.c    ****     
 275:.\Encore.c    ****     FOR(uint8 index = 0, index < (_PUMP_MAX_QUEUE_TRANSTATES_ - 1), index++)
 1296              		.loc 1 275 0
 1297 0014 0023     		movs	r3, #0
 1298 0016 FB73     		strb	r3, [r7, #15]
 1299 0018 35E0     		b	.L46
 1300              	.L48:
 276:.\Encore.c    ****     {
 277:.\Encore.c    ****         if(pthispump->_transqueue[index]._state == _PUMP_TRANSTATE_FREE_)
 1301              		.loc 1 277 0
 1302 001a FA7B     		ldrb	r2, [r7, #15]	@ zero_extendqisi2
 1303 001c B968     		ldr	r1, [r7, #8]
ARM GAS  C:\Users\RECEPC~1\AppData\Local\Temp\ccAtWeRe.s 			page 29


 1304 001e 1346     		mov	r3, r2
 1305 0020 9B01     		lsls	r3, r3, #6
 1306 0022 1344     		add	r3, r3, r2
 1307 0024 9B00     		lsls	r3, r3, #2
 1308 0026 0B44     		add	r3, r3, r1
 1309 0028 03F54873 		add	r3, r3, #800
 1310 002c 9B78     		ldrb	r3, [r3, #2]	@ zero_extendqisi2
 1311 002e 002B     		cmp	r3, #0
 1312 0030 26D1     		bne	.L47
 278:.\Encore.c    ****         {
 279:.\Encore.c    ****             memcpy(&(pthispump->_transqueue[index]), &(pthispump->_transqueue[index + 1]), sizeof(P
 1313              		.loc 1 279 0
 1314 0032 FA7B     		ldrb	r2, [r7, #15]	@ zero_extendqisi2
 1315 0034 1346     		mov	r3, r2
 1316 0036 9B01     		lsls	r3, r3, #6
 1317 0038 1344     		add	r3, r3, r2
 1318 003a 9B00     		lsls	r3, r3, #2
 1319 003c 03F54873 		add	r3, r3, #800
 1320 0040 BA68     		ldr	r2, [r7, #8]
 1321 0042 1344     		add	r3, r3, r2
 1322 0044 991C     		adds	r1, r3, #2
 1323 0046 FB7B     		ldrb	r3, [r7, #15]	@ zero_extendqisi2
 1324 0048 5A1C     		adds	r2, r3, #1
 1325 004a 1346     		mov	r3, r2
 1326 004c 9B01     		lsls	r3, r3, #6
 1327 004e 1344     		add	r3, r3, r2
 1328 0050 9B00     		lsls	r3, r3, #2
 1329 0052 03F54873 		add	r3, r3, #800
 1330 0056 BA68     		ldr	r2, [r7, #8]
 1331 0058 1344     		add	r3, r3, r2
 1332 005a 0233     		adds	r3, r3, #2
 1333 005c 0846     		mov	r0, r1
 1334 005e 1946     		mov	r1, r3
 1335 0060 4FF48272 		mov	r2, #260
 1336 0064 FFF7FEFF 		bl	memcpy
 280:.\Encore.c    ****             pthispump->_transqueue[index + 1]._state = _PUMP_TRANSTATE_FREE_;
 1337              		.loc 1 280 0
 1338 0068 FB7B     		ldrb	r3, [r7, #15]	@ zero_extendqisi2
 1339 006a 5A1C     		adds	r2, r3, #1
 1340 006c B968     		ldr	r1, [r7, #8]
 1341 006e 1346     		mov	r3, r2
 1342 0070 9B01     		lsls	r3, r3, #6
 1343 0072 1344     		add	r3, r3, r2
 1344 0074 9B00     		lsls	r3, r3, #2
 1345 0076 0B44     		add	r3, r3, r1
 1346 0078 03F54873 		add	r3, r3, #800
 1347 007c 0022     		movs	r2, #0
 1348 007e 9A70     		strb	r2, [r3, #2]
 1349              	.L47:
 275:.\Encore.c    ****     {
 1350              		.loc 1 275 0 discriminator 2
 1351 0080 FB7B     		ldrb	r3, [r7, #15]	@ zero_extendqisi2
 1352 0082 0133     		adds	r3, r3, #1
 1353 0084 FB73     		strb	r3, [r7, #15]
 1354              	.L46:
 275:.\Encore.c    ****     {
 1355              		.loc 1 275 0 is_stmt 0 discriminator 1
ARM GAS  C:\Users\RECEPC~1\AppData\Local\Temp\ccAtWeRe.s 			page 30


 1356 0086 FB7B     		ldrb	r3, [r7, #15]	@ zero_extendqisi2
 1357 0088 062B     		cmp	r3, #6
 1358 008a C6D9     		bls	.L48
 281:.\Encore.c    ****         }
 282:.\Encore.c    ****     }
 283:.\Encore.c    ****     
 284:.\Encore.c    **** }
 1359              		.loc 1 284 0 is_stmt 1
 1360 008c 1037     		adds	r7, r7, #16
 1361              		.cfi_def_cfa_offset 8
 1362 008e BD46     		mov	sp, r7
 1363              		.cfi_def_cfa_register 13
 1364              		@ sp needed
 1365 0090 80BD     		pop	{r7, pc}
 1366              		.cfi_endproc
 1367              	.LFE73:
 1368              		.size	PumpTransactionalStateDeallocate, .-PumpTransactionalStateDeallocate
 1369 0092 00BF     		.section	.text.PumpTransactionalStateFind,"ax",%progbits
 1370              		.align	2
 1371              		.global	PumpTransactionalStateFind
 1372              		.thumb
 1373              		.thumb_func
 1374              		.type	PumpTransactionalStateFind, %function
 1375              	PumpTransactionalStateFind:
 1376              	.LFB74:
 285:.\Encore.c    **** 
 286:.\Encore.c    **** //@Created By: HIJH
 287:.\Encore.c    **** //@Septembre de 2016
 288:.\Encore.c    **** bool PumpTransactionalStateFind(LPVOID pvthis, uint8 transtate)
 289:.\Encore.c    **** {
 1377              		.loc 1 289 0
 1378              		.cfi_startproc
 1379              		@ args = 0, pretend = 0, frame = 16
 1380              		@ frame_needed = 1, uses_anonymous_args = 0
 1381              		@ link register save eliminated.
 1382 0000 80B4     		push	{r7}
 1383              		.cfi_def_cfa_offset 4
 1384              		.cfi_offset 7, -4
 1385 0002 85B0     		sub	sp, sp, #20
 1386              		.cfi_def_cfa_offset 24
 1387 0004 00AF     		add	r7, sp, #0
 1388              		.cfi_def_cfa_register 7
 1389 0006 7860     		str	r0, [r7, #4]
 1390 0008 0B46     		mov	r3, r1
 1391 000a FB70     		strb	r3, [r7, #3]
 290:.\Encore.c    ****     bool retval = false;
 1392              		.loc 1 290 0
 1393 000c 0023     		movs	r3, #0
 1394 000e FB73     		strb	r3, [r7, #15]
 291:.\Encore.c    ****     PNEAR_PUMPPTR pthispump = (PNEAR_PUMPPTR)pvthis;
 1395              		.loc 1 291 0
 1396 0010 7B68     		ldr	r3, [r7, #4]
 1397 0012 BB60     		str	r3, [r7, #8]
 292:.\Encore.c    ****     FOR(uint8 index = 0, index < _PUMP_MAX_QUEUE_TRANSTATES_, index++)
 1398              		.loc 1 292 0
 1399 0014 0023     		movs	r3, #0
 1400 0016 BB73     		strb	r3, [r7, #14]
ARM GAS  C:\Users\RECEPC~1\AppData\Local\Temp\ccAtWeRe.s 			page 31


 1401 0018 12E0     		b	.L50
 1402              	.L53:
 293:.\Encore.c    ****     {
 294:.\Encore.c    ****         if(pthispump->_transqueue[index]._transtate == transtate)
 1403              		.loc 1 294 0
 1404 001a BA7B     		ldrb	r2, [r7, #14]	@ zero_extendqisi2
 1405 001c B968     		ldr	r1, [r7, #8]
 1406 001e 1346     		mov	r3, r2
 1407 0020 9B01     		lsls	r3, r3, #6
 1408 0022 1344     		add	r3, r3, r2
 1409 0024 9B00     		lsls	r3, r3, #2
 1410 0026 0B44     		add	r3, r3, r1
 1411 0028 03F54873 		add	r3, r3, #800
 1412 002c DB78     		ldrb	r3, [r3, #3]	@ zero_extendqisi2
 1413 002e FA78     		ldrb	r2, [r7, #3]	@ zero_extendqisi2
 1414 0030 9A42     		cmp	r2, r3
 1415 0032 02D1     		bne	.L51
 295:.\Encore.c    ****         {
 296:.\Encore.c    ****             retval = true;
 1416              		.loc 1 296 0
 1417 0034 0123     		movs	r3, #1
 1418 0036 FB73     		strb	r3, [r7, #15]
 297:.\Encore.c    ****             break;
 1419              		.loc 1 297 0
 1420 0038 05E0     		b	.L52
 1421              	.L51:
 292:.\Encore.c    ****     {
 1422              		.loc 1 292 0 discriminator 2
 1423 003a BB7B     		ldrb	r3, [r7, #14]	@ zero_extendqisi2
 1424 003c 0133     		adds	r3, r3, #1
 1425 003e BB73     		strb	r3, [r7, #14]
 1426              	.L50:
 292:.\Encore.c    ****     {
 1427              		.loc 1 292 0 is_stmt 0 discriminator 1
 1428 0040 BB7B     		ldrb	r3, [r7, #14]	@ zero_extendqisi2
 1429 0042 072B     		cmp	r3, #7
 1430 0044 E9D9     		bls	.L53
 1431              	.L52:
 298:.\Encore.c    ****         }
 299:.\Encore.c    ****     }
 300:.\Encore.c    ****     return retval;
 1432              		.loc 1 300 0 is_stmt 1
 1433 0046 FB7B     		ldrb	r3, [r7, #15]	@ zero_extendqisi2
 301:.\Encore.c    **** }
 1434              		.loc 1 301 0
 1435 0048 1846     		mov	r0, r3
 1436 004a 1437     		adds	r7, r7, #20
 1437              		.cfi_def_cfa_offset 4
 1438 004c BD46     		mov	sp, r7
 1439              		.cfi_def_cfa_register 13
 1440              		@ sp needed
 1441 004e 5DF8047B 		ldr	r7, [sp], #4
 1442              		.cfi_restore 7
 1443              		.cfi_def_cfa_offset 0
 1444 0052 7047     		bx	lr
 1445              		.cfi_endproc
 1446              	.LFE74:
ARM GAS  C:\Users\RECEPC~1\AppData\Local\Temp\ccAtWeRe.s 			page 32


 1447              		.size	PumpTransactionalStateFind, .-PumpTransactionalStateFind
 1448              		.section	.text.PumpTransactionalStateAllocate,"ax",%progbits
 1449              		.align	2
 1450              		.global	PumpTransactionalStateAllocate
 1451              		.thumb
 1452              		.thumb_func
 1453              		.type	PumpTransactionalStateAllocate, %function
 1454              	PumpTransactionalStateAllocate:
 1455              	.LFB75:
 302:.\Encore.c    **** 
 303:.\Encore.c    **** //@Created By: HIJH
 304:.\Encore.c    **** //@Septembre de 2016
 305:.\Encore.c    **** PNEAR_PUMPTRANSACTIONALSTATEPTR PumpTransactionalStateAllocate(LPVOID pvthis)
 306:.\Encore.c    **** {
 1456              		.loc 1 306 0
 1457              		.cfi_startproc
 1458              		@ args = 0, pretend = 0, frame = 24
 1459              		@ frame_needed = 1, uses_anonymous_args = 0
 1460 0000 80B5     		push	{r7, lr}
 1461              		.cfi_def_cfa_offset 8
 1462              		.cfi_offset 7, -8
 1463              		.cfi_offset 14, -4
 1464 0002 86B0     		sub	sp, sp, #24
 1465              		.cfi_def_cfa_offset 32
 1466 0004 00AF     		add	r7, sp, #0
 1467              		.cfi_def_cfa_register 7
 1468 0006 7860     		str	r0, [r7, #4]
 307:.\Encore.c    ****     PNEAR_PUMPPTR pthispump = (PNEAR_PUMPPTR)pvthis;
 1469              		.loc 1 307 0
 1470 0008 7B68     		ldr	r3, [r7, #4]
 1471 000a FB60     		str	r3, [r7, #12]
 308:.\Encore.c    ****     PNEAR_PUMPTRANSACTIONALSTATEPTR pretval = PNEAR_NULLPTR;
 1472              		.loc 1 308 0
 1473 000c 0023     		movs	r3, #0
 1474 000e 7B61     		str	r3, [r7, #20]
 309:.\Encore.c    **** 
 310:.\Encore.c    ****     //IF A SLOT COULDN'T BE ALLOCATED, THEN THE STATE WILL BE LOST!! 
 311:.\Encore.c    ****     //THIS REQUIRES A FAST POLLING FROM THE REMOTE PEER
 312:.\Encore.c    ****     //TO PICK UP CAUSAL STATES QUICKLY!!
 313:.\Encore.c    ****     FOR(uint8 index = 0, index < _PUMP_MAX_QUEUE_TRANSTATES_, index++)
 1475              		.loc 1 313 0
 1476 0010 0023     		movs	r3, #0
 1477 0012 FB74     		strb	r3, [r7, #19]
 1478 0014 35E0     		b	.L56
 1479              	.L59:
 314:.\Encore.c    ****     {
 315:.\Encore.c    ****         if(pthispump->_transqueue[index]._state == _PUMP_TRANSTATE_FREE_)
 1480              		.loc 1 315 0
 1481 0016 FA7C     		ldrb	r2, [r7, #19]	@ zero_extendqisi2
 1482 0018 F968     		ldr	r1, [r7, #12]
 1483 001a 1346     		mov	r3, r2
 1484 001c 9B01     		lsls	r3, r3, #6
 1485 001e 1344     		add	r3, r3, r2
 1486 0020 9B00     		lsls	r3, r3, #2
 1487 0022 0B44     		add	r3, r3, r1
 1488 0024 03F54873 		add	r3, r3, #800
 1489 0028 9B78     		ldrb	r3, [r3, #2]	@ zero_extendqisi2
ARM GAS  C:\Users\RECEPC~1\AppData\Local\Temp\ccAtWeRe.s 			page 33


 1490 002a 002B     		cmp	r3, #0
 1491 002c 26D1     		bne	.L57
 316:.\Encore.c    ****         {
 317:.\Encore.c    ****             memset(pthispump->_transqueue[index]._buffer, 0x00, _PUMP_TRANSTATE_BUFFER_SIZE_);
 1492              		.loc 1 317 0
 1493 002e FA7C     		ldrb	r2, [r7, #19]	@ zero_extendqisi2
 1494 0030 1346     		mov	r3, r2
 1495 0032 9B01     		lsls	r3, r3, #6
 1496 0034 1344     		add	r3, r3, r2
 1497 0036 9B00     		lsls	r3, r3, #2
 1498 0038 03F54873 		add	r3, r3, #800
 1499 003c FA68     		ldr	r2, [r7, #12]
 1500 003e 1344     		add	r3, r3, r2
 1501 0040 0433     		adds	r3, r3, #4
 1502 0042 1846     		mov	r0, r3
 1503 0044 0021     		movs	r1, #0
 1504 0046 4FF48072 		mov	r2, #256
 1505 004a FFF7FEFF 		bl	memset
 318:.\Encore.c    ****             pthispump->_transqueue[index]._state = _PUMP_TRANSTATE_ALLOCATED_;
 1506              		.loc 1 318 0
 1507 004e FA7C     		ldrb	r2, [r7, #19]	@ zero_extendqisi2
 1508 0050 F968     		ldr	r1, [r7, #12]
 1509 0052 1346     		mov	r3, r2
 1510 0054 9B01     		lsls	r3, r3, #6
 1511 0056 1344     		add	r3, r3, r2
 1512 0058 9B00     		lsls	r3, r3, #2
 1513 005a 0B44     		add	r3, r3, r1
 1514 005c 03F54873 		add	r3, r3, #800
 1515 0060 0122     		movs	r2, #1
 1516 0062 9A70     		strb	r2, [r3, #2]
 319:.\Encore.c    ****             pretval = &(pthispump->_transqueue[index]);
 1517              		.loc 1 319 0
 1518 0064 FA7C     		ldrb	r2, [r7, #19]	@ zero_extendqisi2
 1519 0066 1346     		mov	r3, r2
 1520 0068 9B01     		lsls	r3, r3, #6
 1521 006a 1344     		add	r3, r3, r2
 1522 006c 9B00     		lsls	r3, r3, #2
 1523 006e 03F54873 		add	r3, r3, #800
 1524 0072 FA68     		ldr	r2, [r7, #12]
 1525 0074 1344     		add	r3, r3, r2
 1526 0076 0233     		adds	r3, r3, #2
 1527 0078 7B61     		str	r3, [r7, #20]
 320:.\Encore.c    ****             break;
 1528              		.loc 1 320 0
 1529 007a 05E0     		b	.L58
 1530              	.L57:
 313:.\Encore.c    ****     {
 1531              		.loc 1 313 0 discriminator 2
 1532 007c FB7C     		ldrb	r3, [r7, #19]	@ zero_extendqisi2
 1533 007e 0133     		adds	r3, r3, #1
 1534 0080 FB74     		strb	r3, [r7, #19]
 1535              	.L56:
 313:.\Encore.c    ****     {
 1536              		.loc 1 313 0 is_stmt 0 discriminator 1
 1537 0082 FB7C     		ldrb	r3, [r7, #19]	@ zero_extendqisi2
 1538 0084 072B     		cmp	r3, #7
 1539 0086 C6D9     		bls	.L59
ARM GAS  C:\Users\RECEPC~1\AppData\Local\Temp\ccAtWeRe.s 			page 34


 1540              	.L58:
 321:.\Encore.c    ****         }
 322:.\Encore.c    ****     }
 323:.\Encore.c    ****     return pretval;
 1541              		.loc 1 323 0 is_stmt 1
 1542 0088 7B69     		ldr	r3, [r7, #20]
 324:.\Encore.c    **** }
 1543              		.loc 1 324 0
 1544 008a 1846     		mov	r0, r3
 1545 008c 1837     		adds	r7, r7, #24
 1546              		.cfi_def_cfa_offset 8
 1547 008e BD46     		mov	sp, r7
 1548              		.cfi_def_cfa_register 13
 1549              		@ sp needed
 1550 0090 80BD     		pop	{r7, pc}
 1551              		.cfi_endproc
 1552              	.LFE75:
 1553              		.size	PumpTransactionalStateAllocate, .-PumpTransactionalStateAllocate
 1554              		.global	__aeabi_i2d
 1555              		.global	__aeabi_ddiv
 1556              		.global	__aeabi_d2uiz
 1557 0092 00BF     		.section	.text.PumpTransactionalStateLock,"ax",%progbits
 1558              		.align	2
 1559              		.global	PumpTransactionalStateLock
 1560              		.thumb
 1561              		.thumb_func
 1562              		.type	PumpTransactionalStateLock, %function
 1563              	PumpTransactionalStateLock:
 1564              	.LFB76:
 325:.\Encore.c    **** 
 326:.\Encore.c    **** void PumpTransactionalStateLock(LPVOID pvthis)
 327:.\Encore.c    **** {
 1565              		.loc 1 327 0
 1566              		.cfi_startproc
 1567              		@ args = 0, pretend = 0, frame = 16
 1568              		@ frame_needed = 1, uses_anonymous_args = 0
 1569 0000 80B5     		push	{r7, lr}
 1570              		.cfi_def_cfa_offset 8
 1571              		.cfi_offset 7, -8
 1572              		.cfi_offset 14, -4
 1573 0002 84B0     		sub	sp, sp, #16
 1574              		.cfi_def_cfa_offset 24
 1575 0004 00AF     		add	r7, sp, #0
 1576              		.cfi_def_cfa_register 7
 1577 0006 7860     		str	r0, [r7, #4]
 328:.\Encore.c    ****     PNEAR_PUMPPTR pthispump = (PNEAR_PUMPPTR)pvthis;
 1578              		.loc 1 328 0
 1579 0008 7B68     		ldr	r3, [r7, #4]
 1580 000a FB60     		str	r3, [r7, #12]
 1581              	.L62:
 329:.\Encore.c    ****     do
 330:.\Encore.c    ****     {
 331:.\Encore.c    ****         //This is to Desynchronize REENTRANT calls
 332:.\Encore.c    ****         CyDelayUs(5*(uint16)((double)rand()/(double)RAND_MAX) + 1);
 1582              		.loc 1 332 0 discriminator 1
 1583 000c FFF7FEFF 		bl	rand
 1584 0010 0346     		mov	r3, r0
ARM GAS  C:\Users\RECEPC~1\AppData\Local\Temp\ccAtWeRe.s 			page 35


 1585 0012 1846     		mov	r0, r3
 1586 0014 FFF7FEFF 		bl	__aeabi_i2d
 1587 0018 0246     		mov	r2, r0
 1588 001a 0B46     		mov	r3, r1
 1589 001c 1046     		mov	r0, r2
 1590 001e 1946     		mov	r1, r3
 1591 0020 11A3     		adr	r3, .L63
 1592 0022 D3E90023 		ldrd	r2, [r3]
 1593 0026 FFF7FEFF 		bl	__aeabi_ddiv
 1594 002a 0246     		mov	r2, r0
 1595 002c 0B46     		mov	r3, r1
 1596 002e 1046     		mov	r0, r2
 1597 0030 1946     		mov	r1, r3
 1598 0032 FFF7FEFF 		bl	__aeabi_d2uiz
 1599 0036 0346     		mov	r3, r0
 1600 0038 9BB2     		uxth	r3, r3
 1601 003a 1A46     		mov	r2, r3	@ movhi
 1602 003c 9200     		lsls	r2, r2, #2
 1603 003e 1344     		add	r3, r3, r2
 1604 0040 9BB2     		uxth	r3, r3
 1605 0042 0133     		adds	r3, r3, #1
 1606 0044 9BB2     		uxth	r3, r3
 1607 0046 1846     		mov	r0, r3
 1608 0048 FFF7FEFF 		bl	CyDelayUs
 333:.\Encore.c    ****     }
 334:.\Encore.c    ****     while(pthispump->_transqueuelocked);
 1609              		.loc 1 334 0 discriminator 1
 1610 004c FB68     		ldr	r3, [r7, #12]
 1611 004e 93F8423B 		ldrb	r3, [r3, #2882]
 1612 0052 DBB2     		uxtb	r3, r3
 1613 0054 002B     		cmp	r3, #0
 1614 0056 D9D1     		bne	.L62
 335:.\Encore.c    ****     //Transactional Queue Lock to avoid concurrent access to the Queue
 336:.\Encore.c    ****     pthispump->_transqueuelocked = true;
 1615              		.loc 1 336 0
 1616 0058 FB68     		ldr	r3, [r7, #12]
 1617 005a 0122     		movs	r2, #1
 1618 005c 83F8422B 		strb	r2, [r3, #2882]
 337:.\Encore.c    **** }
 1619              		.loc 1 337 0
 1620 0060 1037     		adds	r7, r7, #16
 1621              		.cfi_def_cfa_offset 8
 1622 0062 BD46     		mov	sp, r7
 1623              		.cfi_def_cfa_register 13
 1624              		@ sp needed
 1625 0064 80BD     		pop	{r7, pc}
 1626              	.L64:
 1627 0066 00BF     		.align	3
 1628              	.L63:
 1629 0068 0000C0FF 		.word	-4194304
 1630 006c FFFFDF41 		.word	1105199103
 1631              		.cfi_endproc
 1632              	.LFE76:
 1633              		.size	PumpTransactionalStateLock, .-PumpTransactionalStateLock
 1634              		.section	.text.PumpTransactionalStateUnlock,"ax",%progbits
 1635              		.align	2
 1636              		.global	PumpTransactionalStateUnlock
ARM GAS  C:\Users\RECEPC~1\AppData\Local\Temp\ccAtWeRe.s 			page 36


 1637              		.thumb
 1638              		.thumb_func
 1639              		.type	PumpTransactionalStateUnlock, %function
 1640              	PumpTransactionalStateUnlock:
 1641              	.LFB77:
 338:.\Encore.c    **** 
 339:.\Encore.c    **** void PumpTransactionalStateUnlock(LPVOID pvthis)
 340:.\Encore.c    **** {
 1642              		.loc 1 340 0
 1643              		.cfi_startproc
 1644              		@ args = 0, pretend = 0, frame = 16
 1645              		@ frame_needed = 1, uses_anonymous_args = 0
 1646              		@ link register save eliminated.
 1647 0000 80B4     		push	{r7}
 1648              		.cfi_def_cfa_offset 4
 1649              		.cfi_offset 7, -4
 1650 0002 85B0     		sub	sp, sp, #20
 1651              		.cfi_def_cfa_offset 24
 1652 0004 00AF     		add	r7, sp, #0
 1653              		.cfi_def_cfa_register 7
 1654 0006 7860     		str	r0, [r7, #4]
 341:.\Encore.c    ****     PNEAR_PUMPPTR pthispump = (PNEAR_PUMPPTR)pvthis;
 1655              		.loc 1 341 0
 1656 0008 7B68     		ldr	r3, [r7, #4]
 1657 000a FB60     		str	r3, [r7, #12]
 342:.\Encore.c    ****     pthispump->_transqueuelocked = false;
 1658              		.loc 1 342 0
 1659 000c FB68     		ldr	r3, [r7, #12]
 1660 000e 0022     		movs	r2, #0
 1661 0010 83F8422B 		strb	r2, [r3, #2882]
 343:.\Encore.c    **** }
 1662              		.loc 1 343 0
 1663 0014 1437     		adds	r7, r7, #20
 1664              		.cfi_def_cfa_offset 4
 1665 0016 BD46     		mov	sp, r7
 1666              		.cfi_def_cfa_register 13
 1667              		@ sp needed
 1668 0018 5DF8047B 		ldr	r7, [sp], #4
 1669              		.cfi_restore 7
 1670              		.cfi_def_cfa_offset 0
 1671 001c 7047     		bx	lr
 1672              		.cfi_endproc
 1673              	.LFE77:
 1674              		.size	PumpTransactionalStateUnlock, .-PumpTransactionalStateUnlock
 1675 001e 00BF     		.section	.text.PumpCleanUp,"ax",%progbits
 1676              		.align	2
 1677              		.global	PumpCleanUp
 1678              		.thumb
 1679              		.thumb_func
 1680              		.type	PumpCleanUp, %function
 1681              	PumpCleanUp:
 1682              	.LFB78:
 344:.\Encore.c    ****     
 345:.\Encore.c    **** 
 346:.\Encore.c    **** //@Created By: HIJH
 347:.\Encore.c    **** //@Septembre de 2016
 348:.\Encore.c    **** void PumpCleanUp(LPVOID pparam)
ARM GAS  C:\Users\RECEPC~1\AppData\Local\Temp\ccAtWeRe.s 			page 37


 349:.\Encore.c    **** {
 1683              		.loc 1 349 0
 1684              		.cfi_startproc
 1685              		@ args = 0, pretend = 0, frame = 16
 1686              		@ frame_needed = 1, uses_anonymous_args = 0
 1687              		@ link register save eliminated.
 1688 0000 80B4     		push	{r7}
 1689              		.cfi_def_cfa_offset 4
 1690              		.cfi_offset 7, -4
 1691 0002 85B0     		sub	sp, sp, #20
 1692              		.cfi_def_cfa_offset 24
 1693 0004 00AF     		add	r7, sp, #0
 1694              		.cfi_def_cfa_register 7
 1695 0006 7860     		str	r0, [r7, #4]
 350:.\Encore.c    ****     PNEAR_PUMPPTR ppump = (PNEAR_PUMPPTR)pparam;
 1696              		.loc 1 350 0
 1697 0008 7B68     		ldr	r3, [r7, #4]
 1698 000a FB60     		str	r3, [r7, #12]
 351:.\Encore.c    ****     
 352:.\Encore.c    ****     ppump->_datacontainer._var0 = 0x00;
 1699              		.loc 1 352 0
 1700 000c FB68     		ldr	r3, [r7, #12]
 1701 000e 0022     		movs	r2, #0
 1702 0010 83F8682B 		strb	r2, [r3, #2920]
 353:.\Encore.c    ****     ppump->_datacontainer._var1 = 0x00;
 1703              		.loc 1 353 0
 1704 0014 FB68     		ldr	r3, [r7, #12]
 1705 0016 0022     		movs	r2, #0
 1706 0018 83F8692B 		strb	r2, [r3, #2921]
 354:.\Encore.c    ****     ppump->_datacontainer._var2 = 0x0000;
 1707              		.loc 1 354 0
 1708 001c FB68     		ldr	r3, [r7, #12]
 1709 001e 0022     		movs	r2, #0
 1710 0020 A3F86A2B 		strh	r2, [r3, #2922]	@ movhi
 355:.\Encore.c    ****     ppump->_datacontainer._var3 = 0x0000;
 1711              		.loc 1 355 0
 1712 0024 FB68     		ldr	r3, [r7, #12]
 1713 0026 0022     		movs	r2, #0
 1714 0028 A3F86C2B 		strh	r2, [r3, #2924]	@ movhi
 356:.\Encore.c    ****     ppump->_datacontainer._var4 = 0x00000000;
 1715              		.loc 1 356 0
 1716 002c FB68     		ldr	r3, [r7, #12]
 1717 002e 0022     		movs	r2, #0
 1718 0030 C3F8702B 		str	r2, [r3, #2928]
 357:.\Encore.c    ****     ppump->_datacontainer._var5 = 0x00000000;
 1719              		.loc 1 357 0
 1720 0034 FB68     		ldr	r3, [r7, #12]
 1721 0036 0022     		movs	r2, #0
 1722 0038 C3F8742B 		str	r2, [r3, #2932]
 358:.\Encore.c    ****     ppump->_datacontainer._var6 = 0x0000000000000000;
 1723              		.loc 1 358 0
 1724 003c FB68     		ldr	r3, [r7, #12]
 1725 003e 03F67831 		addw	r1, r3, #2936
 1726 0042 4FF00002 		mov	r2, #0
 1727 0046 4FF00003 		mov	r3, #0
 1728 004a C1E90023 		strd	r2, [r1]
 359:.\Encore.c    ****     ppump->_datacontainer._var7 = 0x0000000000000000;
ARM GAS  C:\Users\RECEPC~1\AppData\Local\Temp\ccAtWeRe.s 			page 38


 1729              		.loc 1 359 0
 1730 004e FB68     		ldr	r3, [r7, #12]
 1731 0050 03F53861 		add	r1, r3, #2944
 1732 0054 4FF00002 		mov	r2, #0
 1733 0058 4FF00003 		mov	r3, #0
 1734 005c C1E90023 		strd	r2, [r1]
 360:.\Encore.c    ****     ppump->_datacontainer._var8 = 0x0000000000000000;
 1735              		.loc 1 360 0
 1736 0060 FB68     		ldr	r3, [r7, #12]
 1737 0062 03F68831 		addw	r1, r3, #2952
 1738 0066 4FF00002 		mov	r2, #0
 1739 006a 4FF00003 		mov	r3, #0
 1740 006e C1E90023 		strd	r2, [r1]
 361:.\Encore.c    ****     ppump->_datacontainer._var9 = 0x0000000000000000;
 1741              		.loc 1 361 0
 1742 0072 FB68     		ldr	r3, [r7, #12]
 1743 0074 03F53961 		add	r1, r3, #2960
 1744 0078 4FF00002 		mov	r2, #0
 1745 007c 4FF00003 		mov	r3, #0
 1746 0080 C1E90023 		strd	r2, [r1]
 362:.\Encore.c    ****     ppump->_datacontainer._varA = 0.0;
 1747              		.loc 1 362 0
 1748 0084 FB68     		ldr	r3, [r7, #12]
 1749 0086 03F69831 		addw	r1, r3, #2968
 1750 008a 4FF00002 		mov	r2, #0
 1751 008e 4FF00003 		mov	r3, #0
 1752 0092 C1E90023 		strd	r2, [r1]
 363:.\Encore.c    ****     ppump->_datacontainer._varB = 0.0;
 1753              		.loc 1 363 0
 1754 0096 FB68     		ldr	r3, [r7, #12]
 1755 0098 03F53A61 		add	r1, r3, #2976
 1756 009c 4FF00002 		mov	r2, #0
 1757 00a0 4FF00003 		mov	r3, #0
 1758 00a4 C1E90023 		strd	r2, [r1]
 364:.\Encore.c    **** }
 1759              		.loc 1 364 0
 1760 00a8 1437     		adds	r7, r7, #20
 1761              		.cfi_def_cfa_offset 4
 1762 00aa BD46     		mov	sp, r7
 1763              		.cfi_def_cfa_register 13
 1764              		@ sp needed
 1765 00ac 5DF8047B 		ldr	r7, [sp], #4
 1766              		.cfi_restore 7
 1767              		.cfi_def_cfa_offset 0
 1768 00b0 7047     		bx	lr
 1769              		.cfi_endproc
 1770              	.LFE78:
 1771              		.size	PumpCleanUp, .-PumpCleanUp
 1772 00b2 00BF     		.text
 1773              	.Letext0:
 1774              		.file 2 "c:\\program files (x86)\\cypress\\psoc creator\\3.3\\psoc creator\\import\\gnu\\arm\\4.9.
 1775              		.file 3 "c:\\program files (x86)\\cypress\\psoc creator\\3.3\\psoc creator\\import\\gnu\\arm\\4.9.
 1776              		.file 4 "Generated_Source\\PSoC5/cytypes.h"
 1777              		.file 5 ".\\GlobalDefinitions.h"
 1778              		.file 6 ".\\Encore.h"
 1779              		.file 7 ".\\Dispenser.h"
 1780              		.file 8 ".\\RFLink.h"
ARM GAS  C:\Users\RECEPC~1\AppData\Local\Temp\ccAtWeRe.s 			page 39


 1781              		.file 9 "Generated_Source\\PSoC5/core_cm3.h"