ARM GAS  C:\Users\RECEPC~1\AppData\Local\Temp\ccFc1mZV.s 			page 1


   1              		.syntax unified
   2              		.cpu cortex-m3
   3              		.fpu softvfp
   4              		.eabi_attribute 20, 1
   5              		.eabi_attribute 21, 1
   6              		.eabi_attribute 23, 3
   7              		.eabi_attribute 24, 1
   8              		.eabi_attribute 25, 1
   9              		.eabi_attribute 26, 1
  10              		.eabi_attribute 30, 6
  11              		.eabi_attribute 34, 1
  12              		.eabi_attribute 18, 4
  13              		.thumb
  14              		.file	"EncoreImpl.c"
  15              		.text
  16              	.Ltext0:
  17              		.cfi_sections	.debug_frame
  18              		.section	.text.AcquirePumpStateResponse,"ax",%progbits
  19              		.align	2
  20              		.global	AcquirePumpStateResponse
  21              		.thumb
  22              		.thumb_func
  23              		.type	AcquirePumpStateResponse, %function
  24              	AcquirePumpStateResponse:
  25              	.LFB63:
  26              		.file 1 ".\\EncoreImpl.c"
   1:.\EncoreImpl.c **** /* ========================================
   2:.\EncoreImpl.c ****  *
   3:.\EncoreImpl.c ****  * Copyright INSEPET SISTEMAS, 2016
   4:.\EncoreImpl.c ****  * All Rights Reserved
   5:.\EncoreImpl.c ****  * UNPUBLISHED, LICENSED SOFTWARE.
   6:.\EncoreImpl.c ****  *
   7:.\EncoreImpl.c ****  * CONFIDENTIAL AND PROPRIETARY INFORMATION
   8:.\EncoreImpl.c ****  * WHICH IS THE PROPERTY OF your company.
   9:.\EncoreImpl.c ****  *
  10:.\EncoreImpl.c ****  * ========================================
  11:.\EncoreImpl.c **** @Created By: HIJH
  12:.\EncoreImpl.c **** @Date: Novembre de 2016
  13:.\EncoreImpl.c **** */
  14:.\EncoreImpl.c **** 
  15:.\EncoreImpl.c **** #include <project.h>
  16:.\EncoreImpl.c **** #include "GlobalDefinitions.h"
  17:.\EncoreImpl.c **** #include "SinkManager.h"
  18:.\EncoreImpl.c **** #include "SinkObservables.h"
  19:.\EncoreImpl.c **** #include "UARTManager.h"
  20:.\EncoreImpl.c **** #include "Display.h"
  21:.\EncoreImpl.c **** #include "Dispenser.h"
  22:.\EncoreImpl.c **** #include "Eeprom.h"
  23:.\EncoreImpl.c **** #include "RFLink.h"
  24:.\EncoreImpl.c **** #include "Printer.h"
  25:.\EncoreImpl.c **** #include "Rtc.h"
  26:.\EncoreImpl.c **** 
  27:.\EncoreImpl.c **** #ifdef ENCORE_PROTOCOL
  28:.\EncoreImpl.c **** 
  29:.\EncoreImpl.c **** uint8_t FindLRC(char8 *_pbuffer);
  30:.\EncoreImpl.c **** uint8_t GetLRC(char8 *_pbuffer);
  31:.\EncoreImpl.c **** 
ARM GAS  C:\Users\RECEPC~1\AppData\Local\Temp\ccFc1mZV.s 			page 2


  32:.\EncoreImpl.c **** ///////////////////////////////////////////////////////////////////////////////////////////////////
  33:.\EncoreImpl.c **** //////////////////////                 BLOCK OF AVAILABLE RESPONSE HANDLERS
  34:.\EncoreImpl.c **** ///////////////////////////////////////////////////////////////////////////////////////////////////
  35:.\EncoreImpl.c **** 
  36:.\EncoreImpl.c **** void EncoreActivateProgramming(LPVOID pparam);
  37:.\EncoreImpl.c **** extern PNEARDISPENSERACTIVATEPROGRAMMING _g_ptractprogramming;
  38:.\EncoreImpl.c **** 
  39:.\EncoreImpl.c **** //@Created By: HIJH
  40:.\EncoreImpl.c **** //@Date: Septembre de 2016
  41:.\EncoreImpl.c **** //Updates the pump state into the pump structure
  42:.\EncoreImpl.c **** void AcquirePumpStateResponse(void *pparam)
  43:.\EncoreImpl.c **** {
  27              		.loc 1 43 0
  28              		.cfi_startproc
  29              		@ args = 0, pretend = 0, frame = 16
  30              		@ frame_needed = 1, uses_anonymous_args = 0
  31 0000 80B5     		push	{r7, lr}
  32              		.cfi_def_cfa_offset 8
  33              		.cfi_offset 7, -8
  34              		.cfi_offset 14, -4
  35 0002 84B0     		sub	sp, sp, #16
  36              		.cfi_def_cfa_offset 24
  37 0004 00AF     		add	r7, sp, #0
  38              		.cfi_def_cfa_register 7
  39 0006 7860     		str	r0, [r7, #4]
  44:.\EncoreImpl.c ****     PPUMPTRANSACTIONJOBCONTEXTPTR pjob = (PPUMPTRANSACTIONJOBCONTEXTPTR)pparam;
  40              		.loc 1 44 0
  41 0008 7B68     		ldr	r3, [r7, #4]
  42 000a FB60     		str	r3, [r7, #12]
  45:.\EncoreImpl.c ****     if(pjob)
  43              		.loc 1 45 0
  44 000c FB68     		ldr	r3, [r7, #12]
  45 000e 002B     		cmp	r3, #0
  46 0010 4ED0     		beq	.L1
  47              	.LBB2:
  46:.\EncoreImpl.c ****     {
  47:.\EncoreImpl.c ****         uint8 prevstate = pjob->_ppump->_pumpstate;
  48              		.loc 1 47 0
  49 0012 FB68     		ldr	r3, [r7, #12]
  50 0014 DB69     		ldr	r3, [r3, #28]
  51 0016 9B78     		ldrb	r3, [r3, #2]
  52 0018 FB72     		strb	r3, [r7, #11]
  48:.\EncoreImpl.c ****         pjob->_ppump->_pumpstate = ((pjob->_ppump->_rxbuffer[0x00] & 0xF0) >> 4);
  53              		.loc 1 48 0
  54 001a FB68     		ldr	r3, [r7, #12]
  55 001c DB69     		ldr	r3, [r3, #28]
  56 001e FA68     		ldr	r2, [r7, #12]
  57 0020 D269     		ldr	r2, [r2, #28]
  58 0022 92F8A021 		ldrb	r2, [r2, #416]	@ zero_extendqisi2
  59 0026 1209     		lsrs	r2, r2, #4
  60 0028 D2B2     		uxtb	r2, r2
  61 002a 9A70     		strb	r2, [r3, #2]
  49:.\EncoreImpl.c ****         if(pjob->_ppump->PumpValidState(pjob->_ppump))
  62              		.loc 1 49 0
  63 002c FB68     		ldr	r3, [r7, #12]
  64 002e DB69     		ldr	r3, [r3, #28]
  65 0030 D3F8603B 		ldr	r3, [r3, #2912]
ARM GAS  C:\Users\RECEPC~1\AppData\Local\Temp\ccFc1mZV.s 			page 3


  66 0034 FA68     		ldr	r2, [r7, #12]
  67 0036 D269     		ldr	r2, [r2, #28]
  68 0038 1046     		mov	r0, r2
  69 003a 9847     		blx	r3
  70 003c 0346     		mov	r3, r0
  71 003e 002B     		cmp	r3, #0
  72 0040 04D0     		beq	.L3
  50:.\EncoreImpl.c ****             pjob->_ppump->_transhealth = _PUMP_OK_;
  73              		.loc 1 50 0
  74 0042 FB68     		ldr	r3, [r7, #12]
  75 0044 DB69     		ldr	r3, [r3, #28]
  76 0046 0122     		movs	r2, #1
  77 0048 1A76     		strb	r2, [r3, #24]
  78 004a 07E0     		b	.L4
  79              	.L3:
  51:.\EncoreImpl.c ****         else
  52:.\EncoreImpl.c ****         {
  53:.\EncoreImpl.c ****             pjob->_ppump->_transhealth = _PUMP_FAIL_;
  80              		.loc 1 53 0
  81 004c FB68     		ldr	r3, [r7, #12]
  82 004e DB69     		ldr	r3, [r3, #28]
  83 0050 0222     		movs	r2, #2
  84 0052 1A76     		strb	r2, [r3, #24]
  54:.\EncoreImpl.c ****             pjob->_ppump->_pumpstate = prevstate;
  85              		.loc 1 54 0
  86 0054 FB68     		ldr	r3, [r7, #12]
  87 0056 DB69     		ldr	r3, [r3, #28]
  88 0058 FA7A     		ldrb	r2, [r7, #11]
  89 005a 9A70     		strb	r2, [r3, #2]
  90              	.L4:
  55:.\EncoreImpl.c ****         }
  56:.\EncoreImpl.c ****         
  57:.\EncoreImpl.c ****         if(pjob->_ppump->_pumpstate == PUMP_CALLING)
  91              		.loc 1 57 0
  92 005c FB68     		ldr	r3, [r7, #12]
  93 005e DB69     		ldr	r3, [r3, #28]
  94 0060 9B78     		ldrb	r3, [r3, #2]
  95 0062 DBB2     		uxtb	r3, r3
  96 0064 072B     		cmp	r3, #7
  97 0066 03D1     		bne	.L5
  58:.\EncoreImpl.c ****             pjob->_ppump->_pumplocked = false;
  98              		.loc 1 58 0
  99 0068 FB68     		ldr	r3, [r7, #12]
 100 006a DB69     		ldr	r3, [r3, #28]
 101 006c 0022     		movs	r2, #0
 102 006e 5A72     		strb	r2, [r3, #9]
 103              	.L5:
  59:.\EncoreImpl.c ****         
  60:.\EncoreImpl.c ****         if((pjob->_ppump->_pumpstate == PUMP_IDLE || pjob->_ppump->_pumpstate == PUMP_CALLING) && 
 104              		.loc 1 60 0
 105 0070 FB68     		ldr	r3, [r7, #12]
 106 0072 DB69     		ldr	r3, [r3, #28]
 107 0074 9B78     		ldrb	r3, [r3, #2]
 108 0076 DBB2     		uxtb	r3, r3
 109 0078 062B     		cmp	r3, #6
 110 007a 05D0     		beq	.L6
 111              		.loc 1 60 0 is_stmt 0 discriminator 2
ARM GAS  C:\Users\RECEPC~1\AppData\Local\Temp\ccFc1mZV.s 			page 4


 112 007c FB68     		ldr	r3, [r7, #12]
 113 007e DB69     		ldr	r3, [r3, #28]
 114 0080 9B78     		ldrb	r3, [r3, #2]
 115 0082 DBB2     		uxtb	r3, r3
 116 0084 072B     		cmp	r3, #7
 117 0086 0FD1     		bne	.L7
 118              	.L6:
 119              		.loc 1 60 0 discriminator 3
 120 0088 FB7A     		ldrb	r3, [r7, #11]	@ zero_extendqisi2
 121 008a 0B2B     		cmp	r3, #11
 122 008c 08D0     		beq	.L8
  61:.\EncoreImpl.c ****             (prevstate == PUMP_FEOT || prevstate == PUMP_PEOT || prevstate == PUMP_BUSY || prevstat
 123              		.loc 1 61 0 is_stmt 1
 124 008e FB7A     		ldrb	r3, [r7, #11]	@ zero_extendqisi2
 125 0090 0A2B     		cmp	r3, #10
 126 0092 05D0     		beq	.L8
 127              		.loc 1 61 0 is_stmt 0 discriminator 1
 128 0094 FB7A     		ldrb	r3, [r7, #11]	@ zero_extendqisi2
 129 0096 092B     		cmp	r3, #9
 130 0098 02D0     		beq	.L8
 131              		.loc 1 61 0 discriminator 2
 132 009a FB7A     		ldrb	r3, [r7, #11]	@ zero_extendqisi2
 133 009c 082B     		cmp	r3, #8
 134 009e 03D1     		bne	.L7
 135              	.L8:
  62:.\EncoreImpl.c ****             pjob->_ppump->_pumprftransstate = RF_IDLE;
 136              		.loc 1 62 0 is_stmt 1
 137 00a0 FB68     		ldr	r3, [r7, #12]
 138 00a2 DB69     		ldr	r3, [r3, #28]
 139 00a4 0822     		movs	r2, #8
 140 00a6 1A73     		strb	r2, [r3, #12]
 141              	.L7:
  63:.\EncoreImpl.c ****         
  64:.\EncoreImpl.c ****         pjob->_ppump->_acquiringstate = false;
 142              		.loc 1 64 0
 143 00a8 FB68     		ldr	r3, [r7, #12]
 144 00aa DB69     		ldr	r3, [r3, #28]
 145 00ac 0022     		movs	r2, #0
 146 00ae 5A71     		strb	r2, [r3, #5]
 147              	.L1:
 148              	.LBE2:
  65:.\EncoreImpl.c ****     }
  66:.\EncoreImpl.c **** }
 149              		.loc 1 66 0
 150 00b0 1037     		adds	r7, r7, #16
 151              		.cfi_def_cfa_offset 8
 152 00b2 BD46     		mov	sp, r7
 153              		.cfi_def_cfa_register 13
 154              		@ sp needed
 155 00b4 80BD     		pop	{r7, pc}
 156              		.cfi_endproc
 157              	.LFE63:
 158              		.size	AcquirePumpStateResponse, .-AcquirePumpStateResponse
 159 00b6 00BF     		.section	.text.AcquireDatatoPumpResponse,"ax",%progbits
 160              		.align	2
 161              		.global	AcquireDatatoPumpResponse
 162              		.thumb
ARM GAS  C:\Users\RECEPC~1\AppData\Local\Temp\ccFc1mZV.s 			page 5


 163              		.thumb_func
 164              		.type	AcquireDatatoPumpResponse, %function
 165              	AcquireDatatoPumpResponse:
 166              	.LFB64:
  67:.\EncoreImpl.c **** 
  68:.\EncoreImpl.c **** //@Created By: HIJH
  69:.\EncoreImpl.c **** //@Date: Septembre de 2016
  70:.\EncoreImpl.c **** //Validates the response from the pump previous batch transfer (0xDp)
  71:.\EncoreImpl.c **** void AcquireDatatoPumpResponse(void *pparam)
  72:.\EncoreImpl.c **** {
 167              		.loc 1 72 0
 168              		.cfi_startproc
 169              		@ args = 0, pretend = 0, frame = 16
 170              		@ frame_needed = 1, uses_anonymous_args = 0
 171              		@ link register save eliminated.
 172 0000 80B4     		push	{r7}
 173              		.cfi_def_cfa_offset 4
 174              		.cfi_offset 7, -4
 175 0002 85B0     		sub	sp, sp, #20
 176              		.cfi_def_cfa_offset 24
 177 0004 00AF     		add	r7, sp, #0
 178              		.cfi_def_cfa_register 7
 179 0006 7860     		str	r0, [r7, #4]
  73:.\EncoreImpl.c ****     PPUMPTRANSACTIONJOBCONTEXTPTR pjob = (PPUMPTRANSACTIONJOBCONTEXTPTR)pparam;
 180              		.loc 1 73 0
 181 0008 7B68     		ldr	r3, [r7, #4]
 182 000a FB60     		str	r3, [r7, #12]
  74:.\EncoreImpl.c ****     if(pjob)
 183              		.loc 1 74 0
 184 000c FB68     		ldr	r3, [r7, #12]
 185 000e 002B     		cmp	r3, #0
 186 0010 15D0     		beq	.L9
  75:.\EncoreImpl.c ****     {
  76:.\EncoreImpl.c ****         if((0x0F & pjob->_ppump->_pumpid) == (pjob->_ppump->_rxbuffer[0x00] & 0x0F))
 187              		.loc 1 76 0
 188 0012 FB68     		ldr	r3, [r7, #12]
 189 0014 DB69     		ldr	r3, [r3, #28]
 190 0016 1B78     		ldrb	r3, [r3]	@ zero_extendqisi2
 191 0018 1A46     		mov	r2, r3
 192 001a FB68     		ldr	r3, [r7, #12]
 193 001c DB69     		ldr	r3, [r3, #28]
 194 001e 93F8A031 		ldrb	r3, [r3, #416]	@ zero_extendqisi2
 195 0022 5340     		eors	r3, r3, r2
 196 0024 03F00F03 		and	r3, r3, #15
 197 0028 002B     		cmp	r3, #0
 198 002a 08D1     		bne	.L9
  77:.\EncoreImpl.c ****             pjob->_ppump->_pumpstate = ((pjob->_ppump->_rxbuffer[0x00] >> 4)& 0x0F);
 199              		.loc 1 77 0
 200 002c FB68     		ldr	r3, [r7, #12]
 201 002e DB69     		ldr	r3, [r3, #28]
 202 0030 FA68     		ldr	r2, [r7, #12]
 203 0032 D269     		ldr	r2, [r2, #28]
 204 0034 92F8A021 		ldrb	r2, [r2, #416]	@ zero_extendqisi2
 205 0038 1209     		lsrs	r2, r2, #4
 206 003a D2B2     		uxtb	r2, r2
 207 003c 9A70     		strb	r2, [r3, #2]
 208              	.L9:
ARM GAS  C:\Users\RECEPC~1\AppData\Local\Temp\ccFc1mZV.s 			page 6


  78:.\EncoreImpl.c ****     }
  79:.\EncoreImpl.c **** }
 209              		.loc 1 79 0
 210 003e 1437     		adds	r7, r7, #20
 211              		.cfi_def_cfa_offset 4
 212 0040 BD46     		mov	sp, r7
 213              		.cfi_def_cfa_register 13
 214              		@ sp needed
 215 0042 5DF8047B 		ldr	r7, [sp], #4
 216              		.cfi_restore 7
 217              		.cfi_def_cfa_offset 0
 218 0046 7047     		bx	lr
 219              		.cfi_endproc
 220              	.LFE64:
 221              		.size	AcquireDatatoPumpResponse, .-AcquireDatatoPumpResponse
 222              		.section	.text.ProcessPumpRTMoneyRequest,"ax",%progbits
 223              		.align	2
 224              		.global	ProcessPumpRTMoneyRequest
 225              		.thumb
 226              		.thumb_func
 227              		.type	ProcessPumpRTMoneyRequest, %function
 228              	ProcessPumpRTMoneyRequest:
 229              	.LFB65:
  80:.\EncoreImpl.c **** 
  81:.\EncoreImpl.c **** void ProcessPumpRTMoneyRequest(void *pparam)
  82:.\EncoreImpl.c **** {
 230              		.loc 1 82 0
 231              		.cfi_startproc
 232              		@ args = 0, pretend = 0, frame = 16
 233              		@ frame_needed = 1, uses_anonymous_args = 0
 234 0000 90B5     		push	{r4, r7, lr}
 235              		.cfi_def_cfa_offset 12
 236              		.cfi_offset 4, -12
 237              		.cfi_offset 7, -8
 238              		.cfi_offset 14, -4
 239 0002 85B0     		sub	sp, sp, #20
 240              		.cfi_def_cfa_offset 32
 241 0004 00AF     		add	r7, sp, #0
 242              		.cfi_def_cfa_register 7
 243 0006 7860     		str	r0, [r7, #4]
  83:.\EncoreImpl.c ****     PPUMPTRANSACTIONJOBCONTEXTPTR pjob = (PPUMPTRANSACTIONJOBCONTEXTPTR)pparam;
 244              		.loc 1 83 0
 245 0008 7B68     		ldr	r3, [r7, #4]
 246 000a FB60     		str	r3, [r7, #12]
  84:.\EncoreImpl.c ****     if(pjob)
 247              		.loc 1 84 0
 248 000c FB68     		ldr	r3, [r7, #12]
 249 000e 002B     		cmp	r3, #0
 250 0010 63D0     		beq	.L11
  85:.\EncoreImpl.c ****     {
  86:.\EncoreImpl.c ****         //Bytes from index 0 to 7 are the digits for the Real Time Money Data in BCD format
  87:.\EncoreImpl.c ****         pjob->_ppump->_rxbuffer[0x00] = (pjob->_ppump->_rxbuffer[0x00] & 0x0F);
 251              		.loc 1 87 0
 252 0012 FB68     		ldr	r3, [r7, #12]
 253 0014 DB69     		ldr	r3, [r3, #28]
 254 0016 FA68     		ldr	r2, [r7, #12]
 255 0018 D269     		ldr	r2, [r2, #28]
ARM GAS  C:\Users\RECEPC~1\AppData\Local\Temp\ccFc1mZV.s 			page 7


 256 001a 92F8A021 		ldrb	r2, [r2, #416]	@ zero_extendqisi2
 257 001e 02F00F02 		and	r2, r2, #15
 258 0022 D2B2     		uxtb	r2, r2
 259 0024 83F8A021 		strb	r2, [r3, #416]
  88:.\EncoreImpl.c ****         pjob->_ppump->_rxbuffer[0x01] = (pjob->_ppump->_rxbuffer[0x01] & 0x0F);
 260              		.loc 1 88 0
 261 0028 FB68     		ldr	r3, [r7, #12]
 262 002a DB69     		ldr	r3, [r3, #28]
 263 002c FA68     		ldr	r2, [r7, #12]
 264 002e D269     		ldr	r2, [r2, #28]
 265 0030 92F8A121 		ldrb	r2, [r2, #417]	@ zero_extendqisi2
 266 0034 02F00F02 		and	r2, r2, #15
 267 0038 D2B2     		uxtb	r2, r2
 268 003a 83F8A121 		strb	r2, [r3, #417]
  89:.\EncoreImpl.c ****         pjob->_ppump->_rxbuffer[0x02] = (pjob->_ppump->_rxbuffer[0x02] & 0x0F);
 269              		.loc 1 89 0
 270 003e FB68     		ldr	r3, [r7, #12]
 271 0040 DB69     		ldr	r3, [r3, #28]
 272 0042 FA68     		ldr	r2, [r7, #12]
 273 0044 D269     		ldr	r2, [r2, #28]
 274 0046 92F8A221 		ldrb	r2, [r2, #418]	@ zero_extendqisi2
 275 004a 02F00F02 		and	r2, r2, #15
 276 004e D2B2     		uxtb	r2, r2
 277 0050 83F8A221 		strb	r2, [r3, #418]
  90:.\EncoreImpl.c ****         pjob->_ppump->_rxbuffer[0x03] = (pjob->_ppump->_rxbuffer[0x03] & 0x0F);
 278              		.loc 1 90 0
 279 0054 FB68     		ldr	r3, [r7, #12]
 280 0056 DB69     		ldr	r3, [r3, #28]
 281 0058 FA68     		ldr	r2, [r7, #12]
 282 005a D269     		ldr	r2, [r2, #28]
 283 005c 92F8A321 		ldrb	r2, [r2, #419]	@ zero_extendqisi2
 284 0060 02F00F02 		and	r2, r2, #15
 285 0064 D2B2     		uxtb	r2, r2
 286 0066 83F8A321 		strb	r2, [r3, #419]
  91:.\EncoreImpl.c ****         pjob->_ppump->_rxbuffer[0x04] = (pjob->_ppump->_rxbuffer[0x04] & 0x0F);
 287              		.loc 1 91 0
 288 006a FB68     		ldr	r3, [r7, #12]
 289 006c DB69     		ldr	r3, [r3, #28]
 290 006e FA68     		ldr	r2, [r7, #12]
 291 0070 D269     		ldr	r2, [r2, #28]
 292 0072 92F8A421 		ldrb	r2, [r2, #420]	@ zero_extendqisi2
 293 0076 02F00F02 		and	r2, r2, #15
 294 007a D2B2     		uxtb	r2, r2
 295 007c 83F8A421 		strb	r2, [r3, #420]
  92:.\EncoreImpl.c ****         pjob->_ppump->_rxbuffer[0x05] = (pjob->_ppump->_rxbuffer[0x05] & 0x0F);
 296              		.loc 1 92 0
 297 0080 FB68     		ldr	r3, [r7, #12]
 298 0082 DB69     		ldr	r3, [r3, #28]
 299 0084 FA68     		ldr	r2, [r7, #12]
 300 0086 D269     		ldr	r2, [r2, #28]
 301 0088 92F8A521 		ldrb	r2, [r2, #421]	@ zero_extendqisi2
 302 008c 02F00F02 		and	r2, r2, #15
 303 0090 D2B2     		uxtb	r2, r2
 304 0092 83F8A521 		strb	r2, [r3, #421]
  93:.\EncoreImpl.c ****         pjob->_ppump->_rxbuffer[0x06] = (pjob->_ppump->_rxbuffer[0x06] & 0x0F);
 305              		.loc 1 93 0
 306 0096 FB68     		ldr	r3, [r7, #12]
ARM GAS  C:\Users\RECEPC~1\AppData\Local\Temp\ccFc1mZV.s 			page 8


 307 0098 DB69     		ldr	r3, [r3, #28]
 308 009a FA68     		ldr	r2, [r7, #12]
 309 009c D269     		ldr	r2, [r2, #28]
 310 009e 92F8A621 		ldrb	r2, [r2, #422]	@ zero_extendqisi2
 311 00a2 02F00F02 		and	r2, r2, #15
 312 00a6 D2B2     		uxtb	r2, r2
 313 00a8 83F8A621 		strb	r2, [r3, #422]
  94:.\EncoreImpl.c ****         pjob->_ppump->_rxbuffer[0x07] = (pjob->_ppump->_rxbuffer[0x07] & 0x0F);
 314              		.loc 1 94 0
 315 00ac FB68     		ldr	r3, [r7, #12]
 316 00ae DB69     		ldr	r3, [r3, #28]
 317 00b0 FA68     		ldr	r2, [r7, #12]
 318 00b2 D269     		ldr	r2, [r2, #28]
 319 00b4 92F8A721 		ldrb	r2, [r2, #423]	@ zero_extendqisi2
 320 00b8 02F00F02 		and	r2, r2, #15
 321 00bc D2B2     		uxtb	r2, r2
 322 00be 83F8A721 		strb	r2, [r3, #423]
  95:.\EncoreImpl.c ****         pjob->_ppump->_rtmoneyamount = LSDBCDBUFF2HEX(PBYTECAST(&pjob->_ppump->_rxbuffer[0x00]), 0x
 323              		.loc 1 95 0
 324 00c2 FB68     		ldr	r3, [r7, #12]
 325 00c4 DC69     		ldr	r4, [r3, #28]
 326 00c6 FB68     		ldr	r3, [r7, #12]
 327 00c8 DB69     		ldr	r3, [r3, #28]
 328 00ca 03F5D073 		add	r3, r3, #416
 329 00ce 1846     		mov	r0, r3
 330 00d0 0821     		movs	r1, #8
 331 00d2 FFF7FEFF 		bl	LSDBCDBUFF2HEX
 332 00d6 0346     		mov	r3, r0
 333 00d8 2361     		str	r3, [r4, #16]
 334              	.L11:
  96:.\EncoreImpl.c ****     }
  97:.\EncoreImpl.c **** }
 335              		.loc 1 97 0
 336 00da 1437     		adds	r7, r7, #20
 337              		.cfi_def_cfa_offset 12
 338 00dc BD46     		mov	sp, r7
 339              		.cfi_def_cfa_register 13
 340              		@ sp needed
 341 00de 90BD     		pop	{r4, r7, pc}
 342              		.cfi_endproc
 343              	.LFE65:
 344              		.size	ProcessPumpRTMoneyRequest, .-ProcessPumpRTMoneyRequest
 345              		.global	__aeabi_ui2d
 346              		.global	__aeabi_i2d
 347              		.global	__aeabi_dmul
 348              		.global	__aeabi_d2uiz
 349              		.section	.text.ProcessPumpTransactionData,"ax",%progbits
 350              		.align	2
 351              		.global	ProcessPumpTransactionData
 352              		.thumb
 353              		.thumb_func
 354              		.type	ProcessPumpTransactionData, %function
 355              	ProcessPumpTransactionData:
 356              	.LFB66:
  98:.\EncoreImpl.c **** 
  99:.\EncoreImpl.c **** void ProcessPumpTransactionData(void *pparam)
 100:.\EncoreImpl.c **** {
ARM GAS  C:\Users\RECEPC~1\AppData\Local\Temp\ccFc1mZV.s 			page 9


 357              		.loc 1 100 0
 358              		.cfi_startproc
 359              		@ args = 0, pretend = 0, frame = 24
 360              		@ frame_needed = 1, uses_anonymous_args = 0
 361 0000 2DE9B043 		push	{r4, r5, r7, r8, r9, lr}
 362              		.cfi_def_cfa_offset 24
 363              		.cfi_offset 4, -24
 364              		.cfi_offset 5, -20
 365              		.cfi_offset 7, -16
 366              		.cfi_offset 8, -12
 367              		.cfi_offset 9, -8
 368              		.cfi_offset 14, -4
 369 0004 86B0     		sub	sp, sp, #24
 370              		.cfi_def_cfa_offset 48
 371 0006 00AF     		add	r7, sp, #0
 372              		.cfi_def_cfa_register 7
 373 0008 7860     		str	r0, [r7, #4]
 101:.\EncoreImpl.c ****     PPUMPTRANSACTIONJOBCONTEXTPTR pjob = (PPUMPTRANSACTIONJOBCONTEXTPTR)pparam;
 374              		.loc 1 101 0
 375 000a 7B68     		ldr	r3, [r7, #4]
 376 000c 7B61     		str	r3, [r7, #20]
 102:.\EncoreImpl.c ****     if(pjob)
 377              		.loc 1 102 0
 378 000e 7B69     		ldr	r3, [r7, #20]
 379 0010 002B     		cmp	r3, #0
 380 0012 00F0F487 		beq	.L13
 381              	.LBB3:
 103:.\EncoreImpl.c ****     {
 104:.\EncoreImpl.c ****         {
 105:.\EncoreImpl.c ****             uint8 strmlrc = FindLRC(pjob->_ppump->_rxbuffer);
 382              		.loc 1 105 0
 383 0016 7B69     		ldr	r3, [r7, #20]
 384 0018 DB69     		ldr	r3, [r3, #28]
 385 001a 03F5D073 		add	r3, r3, #416
 386 001e 1846     		mov	r0, r3
 387 0020 FFF7FEFF 		bl	FindLRC
 388 0024 0346     		mov	r3, r0
 389 0026 FB74     		strb	r3, [r7, #19]
 106:.\EncoreImpl.c ****             uint8 locallrc = GetLRC(pjob->_ppump->_rxbuffer);
 390              		.loc 1 106 0
 391 0028 7B69     		ldr	r3, [r7, #20]
 392 002a DB69     		ldr	r3, [r3, #28]
 393 002c 03F5D073 		add	r3, r3, #416
 394 0030 1846     		mov	r0, r3
 395 0032 FFF7FEFF 		bl	GetLRC
 396 0036 0346     		mov	r3, r0
 397 0038 BB74     		strb	r3, [r7, #18]
 107:.\EncoreImpl.c ****             
 108:.\EncoreImpl.c ****             if(strmlrc != locallrc && pjob->_reenqueuecounter < _MAX_RETRIES_)
 398              		.loc 1 108 0
 399 003a FA7C     		ldrb	r2, [r7, #19]	@ zero_extendqisi2
 400 003c BB7C     		ldrb	r3, [r7, #18]	@ zero_extendqisi2
 401 003e 9A42     		cmp	r2, r3
 402 0040 10D0     		beq	.L15
 403              		.loc 1 108 0 is_stmt 0 discriminator 1
 404 0042 7B69     		ldr	r3, [r7, #20]
 405 0044 5B78     		ldrb	r3, [r3, #1]
ARM GAS  C:\Users\RECEPC~1\AppData\Local\Temp\ccFc1mZV.s 			page 10


 406 0046 DBB2     		uxtb	r3, r3
 407 0048 132B     		cmp	r3, #19
 408 004a 0BD8     		bhi	.L15
 109:.\EncoreImpl.c ****             {
 110:.\EncoreImpl.c ****                 pjob->_reenqueuecounter++;
 409              		.loc 1 110 0 is_stmt 1
 410 004c 7B69     		ldr	r3, [r7, #20]
 411 004e 5B78     		ldrb	r3, [r3, #1]
 412 0050 DBB2     		uxtb	r3, r3
 413 0052 0133     		adds	r3, r3, #1
 414 0054 DAB2     		uxtb	r2, r3
 415 0056 7B69     		ldr	r3, [r7, #20]
 416 0058 5A70     		strb	r2, [r3, #1]
 111:.\EncoreImpl.c ****                 pjob->_reenqueue = true;
 417              		.loc 1 111 0
 418 005a 7B69     		ldr	r3, [r7, #20]
 419 005c 0122     		movs	r2, #1
 420 005e 1A70     		strb	r2, [r3]
 112:.\EncoreImpl.c ****                 return;
 421              		.loc 1 112 0
 422 0060 00F0CDBF 		b	.L13
 423              	.L15:
 113:.\EncoreImpl.c ****             }
 114:.\EncoreImpl.c ****             pjob->_reenqueue = false;
 424              		.loc 1 114 0
 425 0064 7B69     		ldr	r3, [r7, #20]
 426 0066 0022     		movs	r2, #0
 427 0068 1A70     		strb	r2, [r3]
 115:.\EncoreImpl.c **** 
 116:.\EncoreImpl.c ****             if(_g_dispenserlayoutinfo._displaydigitsmode == 0x06)
 428              		.loc 1 116 0
 429 006a 854B     		ldr	r3, .L54
 430 006c 1B7C     		ldrb	r3, [r3, #16]	@ zero_extendqisi2
 431 006e 062B     		cmp	r3, #6
 432 0070 40F09883 		bne	.L16
 117:.\EncoreImpl.c ****             {            
 118:.\EncoreImpl.c ****                 pjob->_ppump->_rxbuffer[0x09] = (pjob->_ppump->_rxbuffer[0x09] & 0x0F);//Hose id
 433              		.loc 1 118 0
 434 0074 7B69     		ldr	r3, [r7, #20]
 435 0076 DB69     		ldr	r3, [r3, #28]
 436 0078 7A69     		ldr	r2, [r7, #20]
 437 007a D269     		ldr	r2, [r2, #28]
 438 007c 92F8A921 		ldrb	r2, [r2, #425]	@ zero_extendqisi2
 439 0080 02F00F02 		and	r2, r2, #15
 440 0084 D2B2     		uxtb	r2, r2
 441 0086 83F8A921 		strb	r2, [r3, #425]
 119:.\EncoreImpl.c ****                 pjob->_ppump->_authorizationinfo._hoseid = pjob->_ppump->_rxbuffer[0x09];//Hose id
 442              		.loc 1 119 0
 443 008a 7B69     		ldr	r3, [r7, #20]
 444 008c DB69     		ldr	r3, [r3, #28]
 445 008e 7A69     		ldr	r2, [r7, #20]
 446 0090 D269     		ldr	r2, [r2, #28]
 447 0092 92F8A921 		ldrb	r2, [r2, #425]	@ zero_extendqisi2
 448 0096 83F8AA2B 		strb	r2, [r3, #2986]
 120:.\EncoreImpl.c ****                 
 121:.\EncoreImpl.c ****                 //In this position is located the payment type (CREDIT: 0x0E , CASH:0x0D)
 122:.\EncoreImpl.c ****                 if(pjob->_ppump->_trasactionbuffer[0x00] == 0x0D)
ARM GAS  C:\Users\RECEPC~1\AppData\Local\Temp\ccFc1mZV.s 			page 11


 449              		.loc 1 122 0
 450 009a 7B69     		ldr	r3, [r7, #20]
 451 009c DB69     		ldr	r3, [r3, #28]
 452 009e 93F82030 		ldrb	r3, [r3, #32]	@ zero_extendqisi2
 453 00a2 0D2B     		cmp	r3, #13
 454 00a4 40F0EE80 		bne	.L17
 455              	.LBB4:
 123:.\EncoreImpl.c ****                 {
 124:.\EncoreImpl.c ****                     I2CBusLock();
 456              		.loc 1 124 0
 457 00a8 FFF7FEFF 		bl	I2CBusLock
 125:.\EncoreImpl.c ****                     ClearEepromBuffer();
 458              		.loc 1 125 0
 459 00ac FFF7FEFF 		bl	ClearEepromBuffer
 126:.\EncoreImpl.c ****                     uint16 eeprompage = DispenserGetEepromPPUPageFromPumpID(pjob->_ppump->_pumpid);
 460              		.loc 1 126 0
 461 00b0 7B69     		ldr	r3, [r7, #20]
 462 00b2 DB69     		ldr	r3, [r3, #28]
 463 00b4 1B78     		ldrb	r3, [r3]	@ zero_extendqisi2
 464 00b6 1846     		mov	r0, r3
 465 00b8 FFF7FEFF 		bl	DispenserGetEepromPPUPageFromPumpID
 466 00bc 0346     		mov	r3, r0
 467 00be 3B82     		strh	r3, [r7, #16]	@ movhi
 127:.\EncoreImpl.c ****                     LoadEepromPage(eeprompage);
 468              		.loc 1 127 0
 469 00c0 3B8A     		ldrh	r3, [r7, #16]
 470 00c2 1846     		mov	r0, r3
 471 00c4 FFF7FEFF 		bl	LoadEepromPage
 128:.\EncoreImpl.c ****                     switch(pjob->_ppump->_authorizationinfo._hoseid)
 472              		.loc 1 128 0
 473 00c8 7B69     		ldr	r3, [r7, #20]
 474 00ca DB69     		ldr	r3, [r3, #28]
 475 00cc 93F8AA3B 		ldrb	r3, [r3, #2986]
 476 00d0 DBB2     		uxtb	r3, r3
 477 00d2 032B     		cmp	r3, #3
 478 00d4 64D8     		bhi	.L18
 479 00d6 01A2     		adr	r2, .L20
 480 00d8 52F823F0 		ldr	pc, [r2, r3, lsl #2]
 481              		.p2align 2
 482              	.L20:
 483 00dc ED000000 		.word	.L19+1
 484 00e0 17010000 		.word	.L21+1
 485 00e4 45010000 		.word	.L22+1
 486 00e8 73010000 		.word	.L23+1
 487              		.p2align 1
 488              	.L19:
 129:.\EncoreImpl.c ****                     {
 130:.\EncoreImpl.c ****                         case 0x00:
 131:.\EncoreImpl.c ****                         //Six bytes only since the PPU is constrained to this length
 132:.\EncoreImpl.c ****                         memcpy(PBYTECAST(&pjob->_ppump->_trasactionbuffer[GetBufferIndexFromDisplay
 489              		.loc 1 132 0
 490 00ec 7B69     		ldr	r3, [r7, #20]
 491 00ee DC69     		ldr	r4, [r3, #28]
 492 00f0 6520     		movs	r0, #101
 493 00f2 FFF7FEFF 		bl	GetBufferIndexFromDisplayID
 494 00f6 0346     		mov	r3, r0
 495 00f8 2033     		adds	r3, r3, #32
ARM GAS  C:\Users\RECEPC~1\AppData\Local\Temp\ccFc1mZV.s 			page 12


 496 00fa 1C44     		add	r4, r4, r3
 497 00fc FFF7FEFF 		bl	GetEepromBuffer
 498 0100 0546     		mov	r5, r0
 499 0102 6520     		movs	r0, #101
 500 0104 FFF7FEFF 		bl	GetBufferLengthFromDisplayID
 501 0108 0346     		mov	r3, r0
 502 010a 2046     		mov	r0, r4
 503 010c 2946     		mov	r1, r5
 504 010e 1A46     		mov	r2, r3
 505 0110 FFF7FEFF 		bl	memcpy
 133:.\EncoreImpl.c ****                         break;
 506              		.loc 1 133 0
 507 0114 44E0     		b	.L18
 508              	.L21:
 134:.\EncoreImpl.c ****                         case 0x01:
 135:.\EncoreImpl.c ****                         //Six bytes only since the PPU is constrained to this length
 136:.\EncoreImpl.c ****                         memcpy(PBYTECAST(&pjob->_ppump->_trasactionbuffer[GetBufferIndexFromDisplay
 509              		.loc 1 136 0
 510 0116 7B69     		ldr	r3, [r7, #20]
 511 0118 DC69     		ldr	r4, [r3, #28]
 512 011a 6520     		movs	r0, #101
 513 011c FFF7FEFF 		bl	GetBufferIndexFromDisplayID
 514 0120 0346     		mov	r3, r0
 515 0122 2033     		adds	r3, r3, #32
 516 0124 E518     		adds	r5, r4, r3
 517 0126 FFF7FEFF 		bl	GetEepromBuffer
 518 012a 0346     		mov	r3, r0
 519 012c 03F11004 		add	r4, r3, #16
 520 0130 6520     		movs	r0, #101
 521 0132 FFF7FEFF 		bl	GetBufferLengthFromDisplayID
 522 0136 0346     		mov	r3, r0
 523 0138 2846     		mov	r0, r5
 524 013a 2146     		mov	r1, r4
 525 013c 1A46     		mov	r2, r3
 526 013e FFF7FEFF 		bl	memcpy
 137:.\EncoreImpl.c ****                         break;
 527              		.loc 1 137 0
 528 0142 2DE0     		b	.L18
 529              	.L22:
 138:.\EncoreImpl.c ****                         case 0x02:
 139:.\EncoreImpl.c ****                         //Six bytes only since the PPU is constrained to this length
 140:.\EncoreImpl.c ****                         memcpy(PBYTECAST(&pjob->_ppump->_trasactionbuffer[GetBufferIndexFromDisplay
 530              		.loc 1 140 0
 531 0144 7B69     		ldr	r3, [r7, #20]
 532 0146 DC69     		ldr	r4, [r3, #28]
 533 0148 6520     		movs	r0, #101
 534 014a FFF7FEFF 		bl	GetBufferIndexFromDisplayID
 535 014e 0346     		mov	r3, r0
 536 0150 2033     		adds	r3, r3, #32
 537 0152 E518     		adds	r5, r4, r3
 538 0154 FFF7FEFF 		bl	GetEepromBuffer
 539 0158 0346     		mov	r3, r0
 540 015a 03F12004 		add	r4, r3, #32
 541 015e 6520     		movs	r0, #101
 542 0160 FFF7FEFF 		bl	GetBufferLengthFromDisplayID
 543 0164 0346     		mov	r3, r0
 544 0166 2846     		mov	r0, r5
ARM GAS  C:\Users\RECEPC~1\AppData\Local\Temp\ccFc1mZV.s 			page 13


 545 0168 2146     		mov	r1, r4
 546 016a 1A46     		mov	r2, r3
 547 016c FFF7FEFF 		bl	memcpy
 141:.\EncoreImpl.c ****                         break;
 548              		.loc 1 141 0
 549 0170 16E0     		b	.L18
 550              	.L23:
 142:.\EncoreImpl.c ****                         case 0x03:
 143:.\EncoreImpl.c ****                         //Six bytes only since the PPU is constrained to this length
 144:.\EncoreImpl.c ****                         memcpy(PBYTECAST(&pjob->_ppump->_trasactionbuffer[GetBufferIndexFromDisplay
 551              		.loc 1 144 0
 552 0172 7B69     		ldr	r3, [r7, #20]
 553 0174 DC69     		ldr	r4, [r3, #28]
 554 0176 6520     		movs	r0, #101
 555 0178 FFF7FEFF 		bl	GetBufferIndexFromDisplayID
 556 017c 0346     		mov	r3, r0
 557 017e 2033     		adds	r3, r3, #32
 558 0180 E518     		adds	r5, r4, r3
 559 0182 FFF7FEFF 		bl	GetEepromBuffer
 560 0186 0346     		mov	r3, r0
 561 0188 03F13004 		add	r4, r3, #48
 562 018c 6520     		movs	r0, #101
 563 018e FFF7FEFF 		bl	GetBufferLengthFromDisplayID
 564 0192 0346     		mov	r3, r0
 565 0194 2846     		mov	r0, r5
 566 0196 2146     		mov	r1, r4
 567 0198 1A46     		mov	r2, r3
 568 019a FFF7FEFF 		bl	memcpy
 145:.\EncoreImpl.c ****                         break;
 569              		.loc 1 145 0
 570 019e 00BF     		nop
 571              	.L18:
 146:.\EncoreImpl.c ****                     }
 147:.\EncoreImpl.c ****                     I2CBusUnlock();
 572              		.loc 1 147 0
 573 01a0 FFF7FEFF 		bl	I2CBusUnlock
 148:.\EncoreImpl.c ****                     
 149:.\EncoreImpl.c ****                     memcpy(PBYTECAST(&pjob->_ppump->_rxbuffer[0x0C]), PBYTECAST(&pjob->_ppump->_tra
 574              		.loc 1 149 0
 575 01a4 7B69     		ldr	r3, [r7, #20]
 576 01a6 DB69     		ldr	r3, [r3, #28]
 577 01a8 03F5D675 		add	r5, r3, #428
 578 01ac 7B69     		ldr	r3, [r7, #20]
 579 01ae DC69     		ldr	r4, [r3, #28]
 580 01b0 6520     		movs	r0, #101
 581 01b2 FFF7FEFF 		bl	GetBufferIndexFromDisplayID
 582 01b6 0346     		mov	r3, r0
 583 01b8 2033     		adds	r3, r3, #32
 584 01ba 2344     		add	r3, r3, r4
 585 01bc 2846     		mov	r0, r5
 586 01be 1946     		mov	r1, r3
 587 01c0 0422     		movs	r2, #4
 588 01c2 FFF7FEFF 		bl	memcpy
 150:.\EncoreImpl.c ****                     
 151:.\EncoreImpl.c ****                     //Bytes from index 12 to 17 are the digits for the PPU used for the transaction
 152:.\EncoreImpl.c ****                     //Digits are in BCD format
 153:.\EncoreImpl.c ****                     pjob->_ppump->_rxbuffer[0x0C] = (pjob->_ppump->_rxbuffer[0x0C] & 0x0F);
ARM GAS  C:\Users\RECEPC~1\AppData\Local\Temp\ccFc1mZV.s 			page 14


 589              		.loc 1 153 0
 590 01c6 7B69     		ldr	r3, [r7, #20]
 591 01c8 DB69     		ldr	r3, [r3, #28]
 592 01ca 7A69     		ldr	r2, [r7, #20]
 593 01cc D269     		ldr	r2, [r2, #28]
 594 01ce 92F8AC21 		ldrb	r2, [r2, #428]	@ zero_extendqisi2
 595 01d2 02F00F02 		and	r2, r2, #15
 596 01d6 D2B2     		uxtb	r2, r2
 597 01d8 83F8AC21 		strb	r2, [r3, #428]
 154:.\EncoreImpl.c ****                     pjob->_ppump->_rxbuffer[0x0D] = (pjob->_ppump->_rxbuffer[0x0D] & 0x0F);
 598              		.loc 1 154 0
 599 01dc 7B69     		ldr	r3, [r7, #20]
 600 01de DB69     		ldr	r3, [r3, #28]
 601 01e0 7A69     		ldr	r2, [r7, #20]
 602 01e2 D269     		ldr	r2, [r2, #28]
 603 01e4 92F8AD21 		ldrb	r2, [r2, #429]	@ zero_extendqisi2
 604 01e8 02F00F02 		and	r2, r2, #15
 605 01ec D2B2     		uxtb	r2, r2
 606 01ee 83F8AD21 		strb	r2, [r3, #429]
 155:.\EncoreImpl.c ****                     pjob->_ppump->_rxbuffer[0x0E] = (pjob->_ppump->_rxbuffer[0x0E] & 0x0F);
 607              		.loc 1 155 0
 608 01f2 7B69     		ldr	r3, [r7, #20]
 609 01f4 DB69     		ldr	r3, [r3, #28]
 610 01f6 7A69     		ldr	r2, [r7, #20]
 611 01f8 D269     		ldr	r2, [r2, #28]
 612 01fa 92F8AE21 		ldrb	r2, [r2, #430]	@ zero_extendqisi2
 613 01fe 02F00F02 		and	r2, r2, #15
 614 0202 D2B2     		uxtb	r2, r2
 615 0204 83F8AE21 		strb	r2, [r3, #430]
 156:.\EncoreImpl.c ****                     pjob->_ppump->_rxbuffer[0x0F] = (pjob->_ppump->_rxbuffer[0x0F] & 0x0F);
 616              		.loc 1 156 0
 617 0208 7B69     		ldr	r3, [r7, #20]
 618 020a DB69     		ldr	r3, [r3, #28]
 619 020c 7A69     		ldr	r2, [r7, #20]
 620 020e D269     		ldr	r2, [r2, #28]
 621 0210 92F8AF21 		ldrb	r2, [r2, #431]	@ zero_extendqisi2
 622 0214 02F00F02 		and	r2, r2, #15
 623 0218 D2B2     		uxtb	r2, r2
 624 021a 83F8AF21 		strb	r2, [r3, #431]
 157:.\EncoreImpl.c ****                     pjob->_ppump->_authorizationinfo._price = LSDBCDBUFF2HEX(PBYTECAST(&pjob->_ppum
 625              		.loc 1 157 0
 626 021e 7B69     		ldr	r3, [r7, #20]
 627 0220 DC69     		ldr	r4, [r3, #28]
 628 0222 7B69     		ldr	r3, [r7, #20]
 629 0224 DB69     		ldr	r3, [r3, #28]
 630 0226 03F5D673 		add	r3, r3, #428
 631 022a 1846     		mov	r0, r3
 632 022c 0421     		movs	r1, #4
 633 022e FFF7FEFF 		bl	LSDBCDBUFF2HEX
 634 0232 0346     		mov	r3, r0
 635 0234 1846     		mov	r0, r3
 636 0236 FFF7FEFF 		bl	__aeabi_ui2d
 637 023a 8046     		mov	r8, r0
 638 023c 8946     		mov	r9, r1
 639 023e 104B     		ldr	r3, .L54
 640 0240 DB79     		ldrb	r3, [r3, #7]	@ zero_extendqisi2
 641 0242 1A46     		mov	r2, r3
ARM GAS  C:\Users\RECEPC~1\AppData\Local\Temp\ccFc1mZV.s 			page 15


 642 0244 0E4B     		ldr	r3, .L54
 643 0246 1B7A     		ldrb	r3, [r3, #8]	@ zero_extendqisi2
 644 0248 D31A     		subs	r3, r2, r3
 645 024a 1846     		mov	r0, r3
 646 024c FFF7FEFF 		bl	__aeabi_i2d
 647 0250 0246     		mov	r2, r0
 648 0252 0B46     		mov	r3, r1
 649 0254 1046     		mov	r0, r2
 650 0256 1946     		mov	r1, r3
 651 0258 FFF7FEFF 		bl	pow10
 652 025c 0246     		mov	r2, r0
 653 025e 0B46     		mov	r3, r1
 654 0260 4046     		mov	r0, r8
 655 0262 4946     		mov	r1, r9
 656 0264 FFF7FEFF 		bl	__aeabi_dmul
 657 0268 0246     		mov	r2, r0
 658 026a 0B46     		mov	r3, r1
 659 026c 1046     		mov	r0, r2
 660 026e 1946     		mov	r1, r3
 661 0270 FFF7FEFF 		bl	__aeabi_d2uiz
 662 0274 0346     		mov	r3, r0
 663 0276 9BB2     		uxth	r3, r3
 664 0278 A4F8AC3B 		strh	r3, [r4, #2988]	@ movhi
 665              	.LBE4:
 666 027c 2EE0     		b	.L24
 667              	.L55:
 668 027e 00BF     		.align	2
 669              	.L54:
 670 0280 00000000 		.word	_g_dispenserlayoutinfo
 671              	.L17:
 158:.\EncoreImpl.c ****                     
 159:.\EncoreImpl.c ****                 }
 160:.\EncoreImpl.c ****                 else
 161:.\EncoreImpl.c ****                 {
 162:.\EncoreImpl.c ****                     pjob->_ppump->_rxbuffer[0x0C] = (pjob->_ppump->_rxbuffer[0x0C] & 0x0F);
 672              		.loc 1 162 0
 673 0284 7B69     		ldr	r3, [r7, #20]
 674 0286 DB69     		ldr	r3, [r3, #28]
 675 0288 7A69     		ldr	r2, [r7, #20]
 676 028a D269     		ldr	r2, [r2, #28]
 677 028c 92F8AC21 		ldrb	r2, [r2, #428]	@ zero_extendqisi2
 678 0290 02F00F02 		and	r2, r2, #15
 679 0294 D2B2     		uxtb	r2, r2
 680 0296 83F8AC21 		strb	r2, [r3, #428]
 163:.\EncoreImpl.c ****                     pjob->_ppump->_rxbuffer[0x0D] = (pjob->_ppump->_rxbuffer[0x0D] & 0x0F);
 681              		.loc 1 163 0
 682 029a 7B69     		ldr	r3, [r7, #20]
 683 029c DB69     		ldr	r3, [r3, #28]
 684 029e 7A69     		ldr	r2, [r7, #20]
 685 02a0 D269     		ldr	r2, [r2, #28]
 686 02a2 92F8AD21 		ldrb	r2, [r2, #429]	@ zero_extendqisi2
 687 02a6 02F00F02 		and	r2, r2, #15
 688 02aa D2B2     		uxtb	r2, r2
 689 02ac 83F8AD21 		strb	r2, [r3, #429]
 164:.\EncoreImpl.c ****                     pjob->_ppump->_rxbuffer[0x0E] = (pjob->_ppump->_rxbuffer[0x0E] & 0x0F);
 690              		.loc 1 164 0
 691 02b0 7B69     		ldr	r3, [r7, #20]
ARM GAS  C:\Users\RECEPC~1\AppData\Local\Temp\ccFc1mZV.s 			page 16


 692 02b2 DB69     		ldr	r3, [r3, #28]
 693 02b4 7A69     		ldr	r2, [r7, #20]
 694 02b6 D269     		ldr	r2, [r2, #28]
 695 02b8 92F8AE21 		ldrb	r2, [r2, #430]	@ zero_extendqisi2
 696 02bc 02F00F02 		and	r2, r2, #15
 697 02c0 D2B2     		uxtb	r2, r2
 698 02c2 83F8AE21 		strb	r2, [r3, #430]
 165:.\EncoreImpl.c ****                     pjob->_ppump->_rxbuffer[0x0F] = (pjob->_ppump->_rxbuffer[0x0F] & 0x0F);
 699              		.loc 1 165 0
 700 02c6 7B69     		ldr	r3, [r7, #20]
 701 02c8 DB69     		ldr	r3, [r3, #28]
 702 02ca 7A69     		ldr	r2, [r7, #20]
 703 02cc D269     		ldr	r2, [r2, #28]
 704 02ce 92F8AF21 		ldrb	r2, [r2, #431]	@ zero_extendqisi2
 705 02d2 02F00F02 		and	r2, r2, #15
 706 02d6 D2B2     		uxtb	r2, r2
 707 02d8 83F8AF21 		strb	r2, [r3, #431]
 708              	.L24:
 166:.\EncoreImpl.c ****                 }
 167:.\EncoreImpl.c ****                 
 168:.\EncoreImpl.c ****                 //Bytes from index 19 to 26 are the digits for the fuel volume delivered in the tra
 169:.\EncoreImpl.c ****                 //Digits are in BCD format
 170:.\EncoreImpl.c ****                 pjob->_ppump->_rxbuffer[0x11] = (pjob->_ppump->_rxbuffer[0x11] & 0x0F);
 709              		.loc 1 170 0
 710 02dc 7B69     		ldr	r3, [r7, #20]
 711 02de DB69     		ldr	r3, [r3, #28]
 712 02e0 7A69     		ldr	r2, [r7, #20]
 713 02e2 D269     		ldr	r2, [r2, #28]
 714 02e4 92F8B121 		ldrb	r2, [r2, #433]	@ zero_extendqisi2
 715 02e8 02F00F02 		and	r2, r2, #15
 716 02ec D2B2     		uxtb	r2, r2
 717 02ee 83F8B121 		strb	r2, [r3, #433]
 171:.\EncoreImpl.c ****                 pjob->_ppump->_rxbuffer[0x12] = (pjob->_ppump->_rxbuffer[0x12] & 0x0F);
 718              		.loc 1 171 0
 719 02f2 7B69     		ldr	r3, [r7, #20]
 720 02f4 DB69     		ldr	r3, [r3, #28]
 721 02f6 7A69     		ldr	r2, [r7, #20]
 722 02f8 D269     		ldr	r2, [r2, #28]
 723 02fa 92F8B221 		ldrb	r2, [r2, #434]	@ zero_extendqisi2
 724 02fe 02F00F02 		and	r2, r2, #15
 725 0302 D2B2     		uxtb	r2, r2
 726 0304 83F8B221 		strb	r2, [r3, #434]
 172:.\EncoreImpl.c ****                 pjob->_ppump->_rxbuffer[0x13] = (pjob->_ppump->_rxbuffer[0x13] & 0x0F);
 727              		.loc 1 172 0
 728 0308 7B69     		ldr	r3, [r7, #20]
 729 030a DB69     		ldr	r3, [r3, #28]
 730 030c 7A69     		ldr	r2, [r7, #20]
 731 030e D269     		ldr	r2, [r2, #28]
 732 0310 92F8B321 		ldrb	r2, [r2, #435]	@ zero_extendqisi2
 733 0314 02F00F02 		and	r2, r2, #15
 734 0318 D2B2     		uxtb	r2, r2
 735 031a 83F8B321 		strb	r2, [r3, #435]
 173:.\EncoreImpl.c ****                 pjob->_ppump->_rxbuffer[0x14] = (pjob->_ppump->_rxbuffer[0x14] & 0x0F);
 736              		.loc 1 173 0
 737 031e 7B69     		ldr	r3, [r7, #20]
 738 0320 DB69     		ldr	r3, [r3, #28]
 739 0322 7A69     		ldr	r2, [r7, #20]
ARM GAS  C:\Users\RECEPC~1\AppData\Local\Temp\ccFc1mZV.s 			page 17


 740 0324 D269     		ldr	r2, [r2, #28]
 741 0326 92F8B421 		ldrb	r2, [r2, #436]	@ zero_extendqisi2
 742 032a 02F00F02 		and	r2, r2, #15
 743 032e D2B2     		uxtb	r2, r2
 744 0330 83F8B421 		strb	r2, [r3, #436]
 174:.\EncoreImpl.c ****                 pjob->_ppump->_rxbuffer[0x15] = (pjob->_ppump->_rxbuffer[0x15] & 0x0F);
 745              		.loc 1 174 0
 746 0334 7B69     		ldr	r3, [r7, #20]
 747 0336 DB69     		ldr	r3, [r3, #28]
 748 0338 7A69     		ldr	r2, [r7, #20]
 749 033a D269     		ldr	r2, [r2, #28]
 750 033c 92F8B521 		ldrb	r2, [r2, #437]	@ zero_extendqisi2
 751 0340 02F00F02 		and	r2, r2, #15
 752 0344 D2B2     		uxtb	r2, r2
 753 0346 83F8B521 		strb	r2, [r3, #437]
 175:.\EncoreImpl.c ****                 pjob->_ppump->_rxbuffer[0x16] = (pjob->_ppump->_rxbuffer[0x16] & 0x0F);
 754              		.loc 1 175 0
 755 034a 7B69     		ldr	r3, [r7, #20]
 756 034c DB69     		ldr	r3, [r3, #28]
 757 034e 7A69     		ldr	r2, [r7, #20]
 758 0350 D269     		ldr	r2, [r2, #28]
 759 0352 92F8B621 		ldrb	r2, [r2, #438]	@ zero_extendqisi2
 760 0356 02F00F02 		and	r2, r2, #15
 761 035a D2B2     		uxtb	r2, r2
 762 035c 83F8B621 		strb	r2, [r3, #438]
 176:.\EncoreImpl.c ****                 pjob->_ppump->_authorizationinfo._volumeamount = LSDBCDBUFF2HEX(PBYTECAST(&pjob->_p
 763              		.loc 1 176 0
 764 0360 7B69     		ldr	r3, [r7, #20]
 765 0362 DC69     		ldr	r4, [r3, #28]
 766 0364 7B69     		ldr	r3, [r7, #20]
 767 0366 DB69     		ldr	r3, [r3, #28]
 768 0368 03F2B113 		addw	r3, r3, #433
 769 036c 1846     		mov	r0, r3
 770 036e 0621     		movs	r1, #6
 771 0370 FFF7FEFF 		bl	LSDBCDBUFF2HEX
 772 0374 0346     		mov	r3, r0
 773 0376 C4F8B43B 		str	r3, [r4, #2996]
 177:.\EncoreImpl.c ****                 
 178:.\EncoreImpl.c ****                 ////////////////////////////////////////////////////////////////////////////////
 179:.\EncoreImpl.c ****                 ////////////////////////////////////////////////////////////////////////////////
 180:.\EncoreImpl.c ****                 
 181:.\EncoreImpl.c ****                 //Bytes from index 28 to 35 are the digits for the money charged to the transaction
 182:.\EncoreImpl.c ****                 //Digits are in BCD format
 183:.\EncoreImpl.c ****                 pjob->_ppump->_rxbuffer[0x18] = (pjob->_ppump->_rxbuffer[0x18] & 0x0F);
 774              		.loc 1 183 0
 775 037a 7B69     		ldr	r3, [r7, #20]
 776 037c DB69     		ldr	r3, [r3, #28]
 777 037e 7A69     		ldr	r2, [r7, #20]
 778 0380 D269     		ldr	r2, [r2, #28]
 779 0382 92F8B821 		ldrb	r2, [r2, #440]	@ zero_extendqisi2
 780 0386 02F00F02 		and	r2, r2, #15
 781 038a D2B2     		uxtb	r2, r2
 782 038c 83F8B821 		strb	r2, [r3, #440]
 184:.\EncoreImpl.c ****                 
 185:.\EncoreImpl.c ****                 pjob->_ppump->_rxbuffer[0x19] = (pjob->_ppump->_rxbuffer[0x19] & 0x0F);
 783              		.loc 1 185 0
 784 0390 7B69     		ldr	r3, [r7, #20]
ARM GAS  C:\Users\RECEPC~1\AppData\Local\Temp\ccFc1mZV.s 			page 18


 785 0392 DB69     		ldr	r3, [r3, #28]
 786 0394 7A69     		ldr	r2, [r7, #20]
 787 0396 D269     		ldr	r2, [r2, #28]
 788 0398 92F8B921 		ldrb	r2, [r2, #441]	@ zero_extendqisi2
 789 039c 02F00F02 		and	r2, r2, #15
 790 03a0 D2B2     		uxtb	r2, r2
 791 03a2 83F8B921 		strb	r2, [r3, #441]
 186:.\EncoreImpl.c ****                 pjob->_ppump->_rxbuffer[0x1A] = (pjob->_ppump->_rxbuffer[0x1A] & 0x0F);
 792              		.loc 1 186 0
 793 03a6 7B69     		ldr	r3, [r7, #20]
 794 03a8 DB69     		ldr	r3, [r3, #28]
 795 03aa 7A69     		ldr	r2, [r7, #20]
 796 03ac D269     		ldr	r2, [r2, #28]
 797 03ae 92F8BA21 		ldrb	r2, [r2, #442]	@ zero_extendqisi2
 798 03b2 02F00F02 		and	r2, r2, #15
 799 03b6 D2B2     		uxtb	r2, r2
 800 03b8 83F8BA21 		strb	r2, [r3, #442]
 187:.\EncoreImpl.c ****                 pjob->_ppump->_rxbuffer[0x1B] = (pjob->_ppump->_rxbuffer[0x1B] & 0x0F);
 801              		.loc 1 187 0
 802 03bc 7B69     		ldr	r3, [r7, #20]
 803 03be DB69     		ldr	r3, [r3, #28]
 804 03c0 7A69     		ldr	r2, [r7, #20]
 805 03c2 D269     		ldr	r2, [r2, #28]
 806 03c4 92F8BB21 		ldrb	r2, [r2, #443]	@ zero_extendqisi2
 807 03c8 02F00F02 		and	r2, r2, #15
 808 03cc D2B2     		uxtb	r2, r2
 809 03ce 83F8BB21 		strb	r2, [r3, #443]
 188:.\EncoreImpl.c ****                 pjob->_ppump->_rxbuffer[0x1C] = (pjob->_ppump->_rxbuffer[0x1C] & 0x0F);
 810              		.loc 1 188 0
 811 03d2 7B69     		ldr	r3, [r7, #20]
 812 03d4 DB69     		ldr	r3, [r3, #28]
 813 03d6 7A69     		ldr	r2, [r7, #20]
 814 03d8 D269     		ldr	r2, [r2, #28]
 815 03da 92F8BC21 		ldrb	r2, [r2, #444]	@ zero_extendqisi2
 816 03de 02F00F02 		and	r2, r2, #15
 817 03e2 D2B2     		uxtb	r2, r2
 818 03e4 83F8BC21 		strb	r2, [r3, #444]
 189:.\EncoreImpl.c ****                 pjob->_ppump->_rxbuffer[0x1D] = (pjob->_ppump->_rxbuffer[0x1D] & 0x0F);
 819              		.loc 1 189 0
 820 03e8 7B69     		ldr	r3, [r7, #20]
 821 03ea DB69     		ldr	r3, [r3, #28]
 822 03ec 7A69     		ldr	r2, [r7, #20]
 823 03ee D269     		ldr	r2, [r2, #28]
 824 03f0 92F8BD21 		ldrb	r2, [r2, #445]	@ zero_extendqisi2
 825 03f4 02F00F02 		and	r2, r2, #15
 826 03f8 D2B2     		uxtb	r2, r2
 827 03fa 83F8BD21 		strb	r2, [r3, #445]
 190:.\EncoreImpl.c ****                 //INQUIRY ABOUT THE EXTRA x10 RESULT SINCE THERE IS AN EXTRA 0 IN THE RESPONSE FOR 
 191:.\EncoreImpl.c ****                 //MEANWHILE DIVIDING BY 10 TO REMOVE THE ZERO
 192:.\EncoreImpl.c ****                 pjob->_ppump->_authorizationinfo._presetamount = LSDBCDBUFF2HEX(PBYTECAST(&pjob->_p
 828              		.loc 1 192 0
 829 03fe 7B69     		ldr	r3, [r7, #20]
 830 0400 DC69     		ldr	r4, [r3, #28]
 831 0402 7B69     		ldr	r3, [r7, #20]
 832 0404 DB69     		ldr	r3, [r3, #28]
 833 0406 03F5DC73 		add	r3, r3, #440
 834 040a 1846     		mov	r0, r3
ARM GAS  C:\Users\RECEPC~1\AppData\Local\Temp\ccFc1mZV.s 			page 19


 835 040c 0621     		movs	r1, #6
 836 040e FFF7FEFF 		bl	LSDBCDBUFF2HEX
 837 0412 0346     		mov	r3, r0
 838 0414 C4F8B03B 		str	r3, [r4, #2992]
 193:.\EncoreImpl.c ****                     
 194:.\EncoreImpl.c ****                 ClearRtcBuffer();
 839              		.loc 1 194 0
 840 0418 FFF7FEFF 		bl	ClearRtcBuffer
 195:.\EncoreImpl.c ****                 ReadRTC();
 841              		.loc 1 195 0
 842 041c FFF7FEFF 		bl	ReadRTC
 196:.\EncoreImpl.c ****                 //CAREFUL WITH RETURNS BETWEEN THE LOCK/UNLOCK CALLS
 197:.\EncoreImpl.c ****                 //AND RECURSIVE CALLS THAT WOULD DEADLOCK!
 198:.\EncoreImpl.c ****                 I2CBusLock();
 843              		.loc 1 198 0
 844 0420 FFF7FEFF 		bl	I2CBusLock
 199:.\EncoreImpl.c ****             
 200:.\EncoreImpl.c ****                 ClearEepromBuffer();
 845              		.loc 1 200 0
 846 0424 FFF7FEFF 		bl	ClearEepromBuffer
 201:.\EncoreImpl.c ****                 //In this position is located the payment type (CREDIT: 0x0E , CASH:0x0D)
 202:.\EncoreImpl.c ****                 if(pjob->_ppump->_trasactionbuffer[0x00] == 0x0D)
 847              		.loc 1 202 0
 848 0428 7B69     		ldr	r3, [r7, #20]
 849 042a DB69     		ldr	r3, [r3, #28]
 850 042c 93F82030 		ldrb	r3, [r3, #32]	@ zero_extendqisi2
 851 0430 0D2B     		cmp	r3, #13
 852 0432 40F0DB80 		bne	.L25
 203:.\EncoreImpl.c ****                 {
 204:.\EncoreImpl.c ****                     //HERE WE STORE THE LAST TRANSACTION IN EEPROM! ALWAYS THE PREVIOUS TRANSACTION
 205:.\EncoreImpl.c ****                     //WILL BE OVERWRITTEN AND LOST.
 206:.\EncoreImpl.c ****                     //IN CASE OF A "CREDIT SALE", THE WHOLE DATA WILL BE STORED IN A SEPARATE MEMOR
 207:.\EncoreImpl.c ****                     //SINCE IN CASE OF A RF LINK DROP, THE STATE OF THE SALE COULD BE RECOVERED BY 
 208:.\EncoreImpl.c ****                     LoadEepromPage(EEPROM_DISPENSER_PUMP1_LAYOUT_PAGE);
 853              		.loc 1 208 0
 854 0436 4FF40070 		mov	r0, #512
 855 043a FFF7FEFF 		bl	LoadEepromPage
 209:.\EncoreImpl.c ****                     if(GetEepromBuffer()[0] == ((pjob->_ppump->_rxbuffer[0x04] & 0x0F) + 1))
 856              		.loc 1 209 0
 857 043e FFF7FEFF 		bl	GetEepromBuffer
 858 0442 0346     		mov	r3, r0
 859 0444 1B78     		ldrb	r3, [r3]	@ zero_extendqisi2
 860 0446 1A46     		mov	r2, r3
 861 0448 7B69     		ldr	r3, [r7, #20]
 862 044a DB69     		ldr	r3, [r3, #28]
 863 044c 93F8A431 		ldrb	r3, [r3, #420]	@ zero_extendqisi2
 864 0450 03F00F03 		and	r3, r3, #15
 865 0454 0133     		adds	r3, r3, #1
 866 0456 9A42     		cmp	r2, r3
 867 0458 22D1     		bne	.L26
 210:.\EncoreImpl.c ****                     {
 211:.\EncoreImpl.c ****                         ClearEepromBuffer();
 868              		.loc 1 211 0
 869 045a FFF7FEFF 		bl	ClearEepromBuffer
 212:.\EncoreImpl.c ****                         //Storing the current Date/Time for this transaction
 213:.\EncoreImpl.c ****                         memcpy(GetEepromBuffer(), GetRtcBuffer(), 0x07);
 870              		.loc 1 213 0
ARM GAS  C:\Users\RECEPC~1\AppData\Local\Temp\ccFc1mZV.s 			page 20


 871 045e FFF7FEFF 		bl	GetEepromBuffer
 872 0462 0446     		mov	r4, r0
 873 0464 FFF7FEFF 		bl	GetRtcBuffer
 874 0468 0346     		mov	r3, r0
 875 046a 2046     		mov	r0, r4
 876 046c 1946     		mov	r1, r3
 877 046e 0722     		movs	r2, #7
 878 0470 FFF7FEFF 		bl	memcpy
 214:.\EncoreImpl.c ****                         memcpy(&GetEepromBuffer()[0x07], pjob->_ppump->_rxbuffer, pjob->_ppump->_rx
 879              		.loc 1 214 0
 880 0474 FFF7FEFF 		bl	GetEepromBuffer
 881 0478 0346     		mov	r3, r0
 882 047a D91D     		adds	r1, r3, #7
 883 047c 7B69     		ldr	r3, [r7, #20]
 884 047e DB69     		ldr	r3, [r3, #28]
 885 0480 03F5D072 		add	r2, r3, #416
 886 0484 7B69     		ldr	r3, [r7, #20]
 887 0486 DB69     		ldr	r3, [r3, #28]
 888 0488 B3F82033 		ldrh	r3, [r3, #800]
 889 048c 0846     		mov	r0, r1
 890 048e 1146     		mov	r1, r2
 891 0490 1A46     		mov	r2, r3
 892 0492 FFF7FEFF 		bl	memcpy
 215:.\EncoreImpl.c ****                         StoreEepromPage(EEPROM_DISPENSER_PUMP12_TRANSACTION_PAGE);
 893              		.loc 1 215 0
 894 0496 4FF4C860 		mov	r0, #1600
 895 049a FFF7FEFF 		bl	StoreEepromPage
 896 049e 7EE1     		b	.L30
 897              	.L26:
 216:.\EncoreImpl.c ****                     }
 217:.\EncoreImpl.c ****                     else
 218:.\EncoreImpl.c ****                     {
 219:.\EncoreImpl.c ****                         ClearEepromBuffer();
 898              		.loc 1 219 0
 899 04a0 FFF7FEFF 		bl	ClearEepromBuffer
 220:.\EncoreImpl.c ****                         LoadEepromPage(EEPROM_DISPENSER_PUMP2_LAYOUT_PAGE);
 900              		.loc 1 220 0
 901 04a4 4FF41070 		mov	r0, #576
 902 04a8 FFF7FEFF 		bl	LoadEepromPage
 221:.\EncoreImpl.c ****                         if(GetEepromBuffer()[0] == ((pjob->_ppump->_rxbuffer[0x04] & 0x0F) + 1))
 903              		.loc 1 221 0
 904 04ac FFF7FEFF 		bl	GetEepromBuffer
 905 04b0 0346     		mov	r3, r0
 906 04b2 1B78     		ldrb	r3, [r3]	@ zero_extendqisi2
 907 04b4 1A46     		mov	r2, r3
 908 04b6 7B69     		ldr	r3, [r7, #20]
 909 04b8 DB69     		ldr	r3, [r3, #28]
 910 04ba 93F8A431 		ldrb	r3, [r3, #420]	@ zero_extendqisi2
 911 04be 03F00F03 		and	r3, r3, #15
 912 04c2 0133     		adds	r3, r3, #1
 913 04c4 9A42     		cmp	r2, r3
 914 04c6 22D1     		bne	.L28
 222:.\EncoreImpl.c ****                         {
 223:.\EncoreImpl.c ****                             ClearEepromBuffer();
 915              		.loc 1 223 0
 916 04c8 FFF7FEFF 		bl	ClearEepromBuffer
 224:.\EncoreImpl.c ****                             //Storing the current Date/Time for this transaction
ARM GAS  C:\Users\RECEPC~1\AppData\Local\Temp\ccFc1mZV.s 			page 21


 225:.\EncoreImpl.c ****                             memcpy(GetEepromBuffer(), GetRtcBuffer(), 0x07);
 917              		.loc 1 225 0
 918 04cc FFF7FEFF 		bl	GetEepromBuffer
 919 04d0 0446     		mov	r4, r0
 920 04d2 FFF7FEFF 		bl	GetRtcBuffer
 921 04d6 0346     		mov	r3, r0
 922 04d8 2046     		mov	r0, r4
 923 04da 1946     		mov	r1, r3
 924 04dc 0722     		movs	r2, #7
 925 04de FFF7FEFF 		bl	memcpy
 226:.\EncoreImpl.c ****                             memcpy(&GetEepromBuffer()[0x07], pjob->_ppump->_rxbuffer, pjob->_ppump-
 926              		.loc 1 226 0
 927 04e2 FFF7FEFF 		bl	GetEepromBuffer
 928 04e6 0346     		mov	r3, r0
 929 04e8 D91D     		adds	r1, r3, #7
 930 04ea 7B69     		ldr	r3, [r7, #20]
 931 04ec DB69     		ldr	r3, [r3, #28]
 932 04ee 03F5D072 		add	r2, r3, #416
 933 04f2 7B69     		ldr	r3, [r7, #20]
 934 04f4 DB69     		ldr	r3, [r3, #28]
 935 04f6 B3F82033 		ldrh	r3, [r3, #800]
 936 04fa 0846     		mov	r0, r1
 937 04fc 1146     		mov	r1, r2
 938 04fe 1A46     		mov	r2, r3
 939 0500 FFF7FEFF 		bl	memcpy
 227:.\EncoreImpl.c ****                             StoreEepromPage(EEPROM_DISPENSER_PUMP22_TRANSACTION_PAGE);
 940              		.loc 1 227 0
 941 0504 4FF4E860 		mov	r0, #1856
 942 0508 FFF7FEFF 		bl	StoreEepromPage
 943 050c 47E1     		b	.L30
 944              	.L28:
 228:.\EncoreImpl.c ****                         }
 229:.\EncoreImpl.c ****                         else
 230:.\EncoreImpl.c ****                         {
 231:.\EncoreImpl.c ****                             ClearEepromBuffer();
 945              		.loc 1 231 0
 946 050e FFF7FEFF 		bl	ClearEepromBuffer
 232:.\EncoreImpl.c ****                             LoadEepromPage(EEPROM_DISPENSER_PUMP3_LAYOUT_PAGE);
 947              		.loc 1 232 0
 948 0512 4FF42070 		mov	r0, #640
 949 0516 FFF7FEFF 		bl	LoadEepromPage
 233:.\EncoreImpl.c ****                             if(GetEepromBuffer()[0] == ((pjob->_ppump->_rxbuffer[0x04] & 0x0F) + 1)
 950              		.loc 1 233 0
 951 051a FFF7FEFF 		bl	GetEepromBuffer
 952 051e 0346     		mov	r3, r0
 953 0520 1B78     		ldrb	r3, [r3]	@ zero_extendqisi2
 954 0522 1A46     		mov	r2, r3
 955 0524 7B69     		ldr	r3, [r7, #20]
 956 0526 DB69     		ldr	r3, [r3, #28]
 957 0528 93F8A431 		ldrb	r3, [r3, #420]	@ zero_extendqisi2
 958 052c 03F00F03 		and	r3, r3, #15
 959 0530 0133     		adds	r3, r3, #1
 960 0532 9A42     		cmp	r2, r3
 961 0534 22D1     		bne	.L29
 234:.\EncoreImpl.c ****                             {
 235:.\EncoreImpl.c ****                                 ClearEepromBuffer();
 962              		.loc 1 235 0
ARM GAS  C:\Users\RECEPC~1\AppData\Local\Temp\ccFc1mZV.s 			page 22


 963 0536 FFF7FEFF 		bl	ClearEepromBuffer
 236:.\EncoreImpl.c ****                                 //Storing the current Date/Time for this transaction
 237:.\EncoreImpl.c ****                                 memcpy(GetEepromBuffer(), GetRtcBuffer(), 0x07);
 964              		.loc 1 237 0
 965 053a FFF7FEFF 		bl	GetEepromBuffer
 966 053e 0446     		mov	r4, r0
 967 0540 FFF7FEFF 		bl	GetRtcBuffer
 968 0544 0346     		mov	r3, r0
 969 0546 2046     		mov	r0, r4
 970 0548 1946     		mov	r1, r3
 971 054a 0722     		movs	r2, #7
 972 054c FFF7FEFF 		bl	memcpy
 238:.\EncoreImpl.c ****                                 memcpy(&GetEepromBuffer()[0x07], pjob->_ppump->_rxbuffer, pjob->_pp
 973              		.loc 1 238 0
 974 0550 FFF7FEFF 		bl	GetEepromBuffer
 975 0554 0346     		mov	r3, r0
 976 0556 D91D     		adds	r1, r3, #7
 977 0558 7B69     		ldr	r3, [r7, #20]
 978 055a DB69     		ldr	r3, [r3, #28]
 979 055c 03F5D072 		add	r2, r3, #416
 980 0560 7B69     		ldr	r3, [r7, #20]
 981 0562 DB69     		ldr	r3, [r3, #28]
 982 0564 B3F82033 		ldrh	r3, [r3, #800]
 983 0568 0846     		mov	r0, r1
 984 056a 1146     		mov	r1, r2
 985 056c 1A46     		mov	r2, r3
 986 056e FFF7FEFF 		bl	memcpy
 239:.\EncoreImpl.c ****                                 StoreEepromPage(EEPROM_DISPENSER_PUMP32_TRANSACTION_PAGE);
 987              		.loc 1 239 0
 988 0572 4FF40460 		mov	r0, #2112
 989 0576 FFF7FEFF 		bl	StoreEepromPage
 990 057a 10E1     		b	.L30
 991              	.L29:
 240:.\EncoreImpl.c ****                             }
 241:.\EncoreImpl.c ****                             else
 242:.\EncoreImpl.c ****                             {
 243:.\EncoreImpl.c ****                                 ClearEepromBuffer();
 992              		.loc 1 243 0
 993 057c FFF7FEFF 		bl	ClearEepromBuffer
 244:.\EncoreImpl.c ****                                 LoadEepromPage(EEPROM_DISPENSER_PUMP4_LAYOUT_PAGE);
 994              		.loc 1 244 0
 995 0580 4FF43070 		mov	r0, #704
 996 0584 FFF7FEFF 		bl	LoadEepromPage
 245:.\EncoreImpl.c ****                                 if(GetEepromBuffer()[0] == ((pjob->_ppump->_rxbuffer[0x04] & 0x0F) 
 997              		.loc 1 245 0
 998 0588 FFF7FEFF 		bl	GetEepromBuffer
 999 058c 0346     		mov	r3, r0
 1000 058e 1B78     		ldrb	r3, [r3]	@ zero_extendqisi2
 1001 0590 1A46     		mov	r2, r3
 1002 0592 7B69     		ldr	r3, [r7, #20]
 1003 0594 DB69     		ldr	r3, [r3, #28]
 1004 0596 93F8A431 		ldrb	r3, [r3, #420]	@ zero_extendqisi2
 1005 059a 03F00F03 		and	r3, r3, #15
 1006 059e 0133     		adds	r3, r3, #1
 1007 05a0 9A42     		cmp	r2, r3
 1008 05a2 40F0FC80 		bne	.L30
 246:.\EncoreImpl.c ****                                 {
ARM GAS  C:\Users\RECEPC~1\AppData\Local\Temp\ccFc1mZV.s 			page 23


 247:.\EncoreImpl.c ****                                     ClearEepromBuffer();
 1009              		.loc 1 247 0
 1010 05a6 FFF7FEFF 		bl	ClearEepromBuffer
 248:.\EncoreImpl.c ****                                     //Storing the current Date/Time for this transaction
 249:.\EncoreImpl.c ****                                     memcpy(GetEepromBuffer(), GetRtcBuffer(), 0x07);
 1011              		.loc 1 249 0
 1012 05aa FFF7FEFF 		bl	GetEepromBuffer
 1013 05ae 0446     		mov	r4, r0
 1014 05b0 FFF7FEFF 		bl	GetRtcBuffer
 1015 05b4 0346     		mov	r3, r0
 1016 05b6 2046     		mov	r0, r4
 1017 05b8 1946     		mov	r1, r3
 1018 05ba 0722     		movs	r2, #7
 1019 05bc FFF7FEFF 		bl	memcpy
 250:.\EncoreImpl.c ****                                     memcpy(&GetEepromBuffer()[0x07], pjob->_ppump->_rxbuffer, pjob-
 1020              		.loc 1 250 0
 1021 05c0 FFF7FEFF 		bl	GetEepromBuffer
 1022 05c4 0346     		mov	r3, r0
 1023 05c6 D91D     		adds	r1, r3, #7
 1024 05c8 7B69     		ldr	r3, [r7, #20]
 1025 05ca DB69     		ldr	r3, [r3, #28]
 1026 05cc 03F5D072 		add	r2, r3, #416
 1027 05d0 7B69     		ldr	r3, [r7, #20]
 1028 05d2 DB69     		ldr	r3, [r3, #28]
 1029 05d4 B3F82033 		ldrh	r3, [r3, #800]
 1030 05d8 0846     		mov	r0, r1
 1031 05da 1146     		mov	r1, r2
 1032 05dc 1A46     		mov	r2, r3
 1033 05de FFF7FEFF 		bl	memcpy
 251:.\EncoreImpl.c ****                                     StoreEepromPage(EEPROM_DISPENSER_PUMP42_TRANSACTION_PAGE);
 1034              		.loc 1 251 0
 1035 05e2 4FF41460 		mov	r0, #2368
 1036 05e6 FFF7FEFF 		bl	StoreEepromPage
 1037 05ea D8E0     		b	.L30
 1038              	.L25:
 252:.\EncoreImpl.c ****                                 }
 253:.\EncoreImpl.c ****                             }
 254:.\EncoreImpl.c ****                         }
 255:.\EncoreImpl.c ****                     }
 256:.\EncoreImpl.c ****                 }else{//CREDIT TRANSACTION
 257:.\EncoreImpl.c ****                     //HERE WE STORE THE LAST TRANSACTION IN EEPROM! ALWAYS THE PREVIOUS TRANSACTION
 258:.\EncoreImpl.c ****                     //WILL BE OVERWRITTEN AND LOST.
 259:.\EncoreImpl.c ****                     //IN CASE OF A "CREDIT SALE", THE WHOLE DATA WILL BE STORED IN A SEPARATE MEMOR
 260:.\EncoreImpl.c ****                     //SINCE IN CASE OF A RF LINK DROP, THE STATE OF THE SALE COULD BE RECOVERED BY 
 261:.\EncoreImpl.c ****                     LoadEepromPage(EEPROM_DISPENSER_PUMP1_LAYOUT_PAGE);
 1039              		.loc 1 261 0
 1040 05ec 4FF40070 		mov	r0, #512
 1041 05f0 FFF7FEFF 		bl	LoadEepromPage
 262:.\EncoreImpl.c ****                     if(GetEepromBuffer()[0] == ((pjob->_ppump->_rxbuffer[0x04] & 0x0F) + 1))
 1042              		.loc 1 262 0
 1043 05f4 FFF7FEFF 		bl	GetEepromBuffer
 1044 05f8 0346     		mov	r3, r0
 1045 05fa 1B78     		ldrb	r3, [r3]	@ zero_extendqisi2
 1046 05fc 1A46     		mov	r2, r3
 1047 05fe 7B69     		ldr	r3, [r7, #20]
 1048 0600 DB69     		ldr	r3, [r3, #28]
 1049 0602 93F8A431 		ldrb	r3, [r3, #420]	@ zero_extendqisi2
ARM GAS  C:\Users\RECEPC~1\AppData\Local\Temp\ccFc1mZV.s 			page 24


 1050 0606 03F00F03 		and	r3, r3, #15
 1051 060a 0133     		adds	r3, r3, #1
 1052 060c 9A42     		cmp	r2, r3
 1053 060e 22D1     		bne	.L31
 263:.\EncoreImpl.c ****                     {
 264:.\EncoreImpl.c ****                         ClearEepromBuffer();
 1054              		.loc 1 264 0
 1055 0610 FFF7FEFF 		bl	ClearEepromBuffer
 265:.\EncoreImpl.c ****                         //Storing the current Date/Time for this transaction
 266:.\EncoreImpl.c ****                         memcpy(GetEepromBuffer(), GetRtcBuffer(), 0x07);
 1056              		.loc 1 266 0
 1057 0614 FFF7FEFF 		bl	GetEepromBuffer
 1058 0618 0446     		mov	r4, r0
 1059 061a FFF7FEFF 		bl	GetRtcBuffer
 1060 061e 0346     		mov	r3, r0
 1061 0620 2046     		mov	r0, r4
 1062 0622 1946     		mov	r1, r3
 1063 0624 0722     		movs	r2, #7
 1064 0626 FFF7FEFF 		bl	memcpy
 267:.\EncoreImpl.c ****                         memcpy(&GetEepromBuffer()[0x07], pjob->_ppump->_rxbuffer, pjob->_ppump->_rx
 1065              		.loc 1 267 0
 1066 062a FFF7FEFF 		bl	GetEepromBuffer
 1067 062e 0346     		mov	r3, r0
 1068 0630 D91D     		adds	r1, r3, #7
 1069 0632 7B69     		ldr	r3, [r7, #20]
 1070 0634 DB69     		ldr	r3, [r3, #28]
 1071 0636 03F5D072 		add	r2, r3, #416
 1072 063a 7B69     		ldr	r3, [r7, #20]
 1073 063c DB69     		ldr	r3, [r3, #28]
 1074 063e B3F82033 		ldrh	r3, [r3, #800]
 1075 0642 0846     		mov	r0, r1
 1076 0644 1146     		mov	r1, r2
 1077 0646 1A46     		mov	r2, r3
 1078 0648 FFF7FEFF 		bl	memcpy
 268:.\EncoreImpl.c ****                         StoreEepromPage(EEPROM_DISPENSER_PUMP14_TRANSACTION_PAGE);
 1079              		.loc 1 268 0
 1080 064c 4FF4D860 		mov	r0, #1728
 1081 0650 FFF7FEFF 		bl	StoreEepromPage
 1082 0654 A3E0     		b	.L30
 1083              	.L31:
 269:.\EncoreImpl.c ****                     }
 270:.\EncoreImpl.c ****                     else
 271:.\EncoreImpl.c ****                     {
 272:.\EncoreImpl.c ****                         ClearEepromBuffer();
 1084              		.loc 1 272 0
 1085 0656 FFF7FEFF 		bl	ClearEepromBuffer
 273:.\EncoreImpl.c ****                         LoadEepromPage(EEPROM_DISPENSER_PUMP2_LAYOUT_PAGE);
 1086              		.loc 1 273 0
 1087 065a 4FF41070 		mov	r0, #576
 1088 065e FFF7FEFF 		bl	LoadEepromPage
 274:.\EncoreImpl.c ****                         if(GetEepromBuffer()[0] == ((pjob->_ppump->_rxbuffer[0x04] & 0x0F) + 1))
 1089              		.loc 1 274 0
 1090 0662 FFF7FEFF 		bl	GetEepromBuffer
 1091 0666 0346     		mov	r3, r0
 1092 0668 1B78     		ldrb	r3, [r3]	@ zero_extendqisi2
 1093 066a 1A46     		mov	r2, r3
 1094 066c 7B69     		ldr	r3, [r7, #20]
ARM GAS  C:\Users\RECEPC~1\AppData\Local\Temp\ccFc1mZV.s 			page 25


 1095 066e DB69     		ldr	r3, [r3, #28]
 1096 0670 93F8A431 		ldrb	r3, [r3, #420]	@ zero_extendqisi2
 1097 0674 03F00F03 		and	r3, r3, #15
 1098 0678 0133     		adds	r3, r3, #1
 1099 067a 9A42     		cmp	r2, r3
 1100 067c 22D1     		bne	.L32
 275:.\EncoreImpl.c ****                         {
 276:.\EncoreImpl.c ****                             ClearEepromBuffer();
 1101              		.loc 1 276 0
 1102 067e FFF7FEFF 		bl	ClearEepromBuffer
 277:.\EncoreImpl.c ****                             //Storing the current Date/Time for this transaction
 278:.\EncoreImpl.c ****                             memcpy(GetEepromBuffer(), GetRtcBuffer(), 0x07);
 1103              		.loc 1 278 0
 1104 0682 FFF7FEFF 		bl	GetEepromBuffer
 1105 0686 0446     		mov	r4, r0
 1106 0688 FFF7FEFF 		bl	GetRtcBuffer
 1107 068c 0346     		mov	r3, r0
 1108 068e 2046     		mov	r0, r4
 1109 0690 1946     		mov	r1, r3
 1110 0692 0722     		movs	r2, #7
 1111 0694 FFF7FEFF 		bl	memcpy
 279:.\EncoreImpl.c ****                             memcpy(&GetEepromBuffer()[0x07], pjob->_ppump->_rxbuffer, pjob->_ppump-
 1112              		.loc 1 279 0
 1113 0698 FFF7FEFF 		bl	GetEepromBuffer
 1114 069c 0346     		mov	r3, r0
 1115 069e D91D     		adds	r1, r3, #7
 1116 06a0 7B69     		ldr	r3, [r7, #20]
 1117 06a2 DB69     		ldr	r3, [r3, #28]
 1118 06a4 03F5D072 		add	r2, r3, #416
 1119 06a8 7B69     		ldr	r3, [r7, #20]
 1120 06aa DB69     		ldr	r3, [r3, #28]
 1121 06ac B3F82033 		ldrh	r3, [r3, #800]
 1122 06b0 0846     		mov	r0, r1
 1123 06b2 1146     		mov	r1, r2
 1124 06b4 1A46     		mov	r2, r3
 1125 06b6 FFF7FEFF 		bl	memcpy
 280:.\EncoreImpl.c ****                             StoreEepromPage(EEPROM_DISPENSER_PUMP24_TRANSACTION_PAGE);
 1126              		.loc 1 280 0
 1127 06ba 4FF4F860 		mov	r0, #1984
 1128 06be FFF7FEFF 		bl	StoreEepromPage
 1129 06c2 6CE0     		b	.L30
 1130              	.L32:
 281:.\EncoreImpl.c ****                         }
 282:.\EncoreImpl.c ****                         else
 283:.\EncoreImpl.c ****                         {
 284:.\EncoreImpl.c ****                             ClearEepromBuffer();
 1131              		.loc 1 284 0
 1132 06c4 FFF7FEFF 		bl	ClearEepromBuffer
 285:.\EncoreImpl.c ****                             LoadEepromPage(EEPROM_DISPENSER_PUMP3_LAYOUT_PAGE);
 1133              		.loc 1 285 0
 1134 06c8 4FF42070 		mov	r0, #640
 1135 06cc FFF7FEFF 		bl	LoadEepromPage
 286:.\EncoreImpl.c ****                             if(GetEepromBuffer()[0] == ((pjob->_ppump->_rxbuffer[0x04] & 0x0F) + 1)
 1136              		.loc 1 286 0
 1137 06d0 FFF7FEFF 		bl	GetEepromBuffer
 1138 06d4 0346     		mov	r3, r0
 1139 06d6 1B78     		ldrb	r3, [r3]	@ zero_extendqisi2
ARM GAS  C:\Users\RECEPC~1\AppData\Local\Temp\ccFc1mZV.s 			page 26


 1140 06d8 1A46     		mov	r2, r3
 1141 06da 7B69     		ldr	r3, [r7, #20]
 1142 06dc DB69     		ldr	r3, [r3, #28]
 1143 06de 93F8A431 		ldrb	r3, [r3, #420]	@ zero_extendqisi2
 1144 06e2 03F00F03 		and	r3, r3, #15
 1145 06e6 0133     		adds	r3, r3, #1
 1146 06e8 9A42     		cmp	r2, r3
 1147 06ea 22D1     		bne	.L33
 287:.\EncoreImpl.c ****                             {
 288:.\EncoreImpl.c ****                                 ClearEepromBuffer();
 1148              		.loc 1 288 0
 1149 06ec FFF7FEFF 		bl	ClearEepromBuffer
 289:.\EncoreImpl.c ****                                 //Storing the current Date/Time for this transaction
 290:.\EncoreImpl.c ****                                 memcpy(GetEepromBuffer(), GetRtcBuffer(), 0x07);
 1150              		.loc 1 290 0
 1151 06f0 FFF7FEFF 		bl	GetEepromBuffer
 1152 06f4 0446     		mov	r4, r0
 1153 06f6 FFF7FEFF 		bl	GetRtcBuffer
 1154 06fa 0346     		mov	r3, r0
 1155 06fc 2046     		mov	r0, r4
 1156 06fe 1946     		mov	r1, r3
 1157 0700 0722     		movs	r2, #7
 1158 0702 FFF7FEFF 		bl	memcpy
 291:.\EncoreImpl.c ****                                 memcpy(&GetEepromBuffer()[0x07], pjob->_ppump->_rxbuffer, pjob->_pp
 1159              		.loc 1 291 0
 1160 0706 FFF7FEFF 		bl	GetEepromBuffer
 1161 070a 0346     		mov	r3, r0
 1162 070c D91D     		adds	r1, r3, #7
 1163 070e 7B69     		ldr	r3, [r7, #20]
 1164 0710 DB69     		ldr	r3, [r3, #28]
 1165 0712 03F5D072 		add	r2, r3, #416
 1166 0716 7B69     		ldr	r3, [r7, #20]
 1167 0718 DB69     		ldr	r3, [r3, #28]
 1168 071a B3F82033 		ldrh	r3, [r3, #800]
 1169 071e 0846     		mov	r0, r1
 1170 0720 1146     		mov	r1, r2
 1171 0722 1A46     		mov	r2, r3
 1172 0724 FFF7FEFF 		bl	memcpy
 292:.\EncoreImpl.c ****                                 StoreEepromPage(EEPROM_DISPENSER_PUMP34_TRANSACTION_PAGE);
 1173              		.loc 1 292 0
 1174 0728 4FF40C60 		mov	r0, #2240
 1175 072c FFF7FEFF 		bl	StoreEepromPage
 1176 0730 35E0     		b	.L30
 1177              	.L33:
 293:.\EncoreImpl.c ****                             }
 294:.\EncoreImpl.c ****                             else
 295:.\EncoreImpl.c ****                             {
 296:.\EncoreImpl.c ****                                 ClearEepromBuffer();
 1178              		.loc 1 296 0
 1179 0732 FFF7FEFF 		bl	ClearEepromBuffer
 297:.\EncoreImpl.c ****                                 LoadEepromPage(EEPROM_DISPENSER_PUMP4_LAYOUT_PAGE);
 1180              		.loc 1 297 0
 1181 0736 4FF43070 		mov	r0, #704
 1182 073a FFF7FEFF 		bl	LoadEepromPage
 298:.\EncoreImpl.c ****                                 if(GetEepromBuffer()[0] == ((pjob->_ppump->_rxbuffer[0x04] & 0x0F) 
 1183              		.loc 1 298 0
 1184 073e FFF7FEFF 		bl	GetEepromBuffer
ARM GAS  C:\Users\RECEPC~1\AppData\Local\Temp\ccFc1mZV.s 			page 27


 1185 0742 0346     		mov	r3, r0
 1186 0744 1B78     		ldrb	r3, [r3]	@ zero_extendqisi2
 1187 0746 1A46     		mov	r2, r3
 1188 0748 7B69     		ldr	r3, [r7, #20]
 1189 074a DB69     		ldr	r3, [r3, #28]
 1190 074c 93F8A431 		ldrb	r3, [r3, #420]	@ zero_extendqisi2
 1191 0750 03F00F03 		and	r3, r3, #15
 1192 0754 0133     		adds	r3, r3, #1
 1193 0756 9A42     		cmp	r2, r3
 1194 0758 21D1     		bne	.L30
 299:.\EncoreImpl.c ****                                 {
 300:.\EncoreImpl.c ****                                     ClearEepromBuffer();
 1195              		.loc 1 300 0
 1196 075a FFF7FEFF 		bl	ClearEepromBuffer
 301:.\EncoreImpl.c ****                                     //Storing the current Date/Time for this transaction
 302:.\EncoreImpl.c ****                                     memcpy(GetEepromBuffer(), GetRtcBuffer(), 0x07);
 1197              		.loc 1 302 0
 1198 075e FFF7FEFF 		bl	GetEepromBuffer
 1199 0762 0446     		mov	r4, r0
 1200 0764 FFF7FEFF 		bl	GetRtcBuffer
 1201 0768 0346     		mov	r3, r0
 1202 076a 2046     		mov	r0, r4
 1203 076c 1946     		mov	r1, r3
 1204 076e 0722     		movs	r2, #7
 1205 0770 FFF7FEFF 		bl	memcpy
 303:.\EncoreImpl.c ****                                     memcpy(&GetEepromBuffer()[0x07], pjob->_ppump->_rxbuffer, pjob-
 1206              		.loc 1 303 0
 1207 0774 FFF7FEFF 		bl	GetEepromBuffer
 1208 0778 0346     		mov	r3, r0
 1209 077a D91D     		adds	r1, r3, #7
 1210 077c 7B69     		ldr	r3, [r7, #20]
 1211 077e DB69     		ldr	r3, [r3, #28]
 1212 0780 03F5D072 		add	r2, r3, #416
 1213 0784 7B69     		ldr	r3, [r7, #20]
 1214 0786 DB69     		ldr	r3, [r3, #28]
 1215 0788 B3F82033 		ldrh	r3, [r3, #800]
 1216 078c 0846     		mov	r0, r1
 1217 078e 1146     		mov	r1, r2
 1218 0790 1A46     		mov	r2, r3
 1219 0792 FFF7FEFF 		bl	memcpy
 304:.\EncoreImpl.c ****                                     StoreEepromPage(EEPROM_DISPENSER_PUMP44_TRANSACTION_PAGE);
 1220              		.loc 1 304 0
 1221 0796 4FF41C60 		mov	r0, #2496
 1222 079a FFF7FEFF 		bl	StoreEepromPage
 1223              	.L30:
 305:.\EncoreImpl.c ****                                 }
 306:.\EncoreImpl.c ****                             }
 307:.\EncoreImpl.c ****                         }
 308:.\EncoreImpl.c ****                     }
 309:.\EncoreImpl.c ****                 }
 310:.\EncoreImpl.c ****                 I2CBusUnlock();
 1224              		.loc 1 310 0
 1225 079e FFF7FEFF 		bl	I2CBusUnlock
 1226 07a2 DEE3     		b	.L34
 1227              	.L16:
 311:.\EncoreImpl.c ****             }
 312:.\EncoreImpl.c ****             else
ARM GAS  C:\Users\RECEPC~1\AppData\Local\Temp\ccFc1mZV.s 			page 28


 313:.\EncoreImpl.c ****             {            
 314:.\EncoreImpl.c ****                 pjob->_ppump->_rxbuffer[0x09] = (pjob->_ppump->_rxbuffer[0x09] & 0x0F);//Hose id
 1228              		.loc 1 314 0
 1229 07a4 7B69     		ldr	r3, [r7, #20]
 1230 07a6 DB69     		ldr	r3, [r3, #28]
 1231 07a8 7A69     		ldr	r2, [r7, #20]
 1232 07aa D269     		ldr	r2, [r2, #28]
 1233 07ac 92F8A921 		ldrb	r2, [r2, #425]	@ zero_extendqisi2
 1234 07b0 02F00F02 		and	r2, r2, #15
 1235 07b4 D2B2     		uxtb	r2, r2
 1236 07b6 83F8A921 		strb	r2, [r3, #425]
 315:.\EncoreImpl.c ****                 pjob->_ppump->_authorizationinfo._hoseid = pjob->_ppump->_rxbuffer[0x09];//Hose id
 1237              		.loc 1 315 0
 1238 07ba 7B69     		ldr	r3, [r7, #20]
 1239 07bc DB69     		ldr	r3, [r3, #28]
 1240 07be 7A69     		ldr	r2, [r7, #20]
 1241 07c0 D269     		ldr	r2, [r2, #28]
 1242 07c2 92F8A921 		ldrb	r2, [r2, #425]	@ zero_extendqisi2
 1243 07c6 83F8AA2B 		strb	r2, [r3, #2986]
 316:.\EncoreImpl.c ****                 
 317:.\EncoreImpl.c ****                 //In this position is located the payment type (CREDIT: 0x0E , CASH:0x0D)
 318:.\EncoreImpl.c ****                 if(pjob->_ppump->_trasactionbuffer[0x00] == 0x0D)
 1244              		.loc 1 318 0
 1245 07ca 7B69     		ldr	r3, [r7, #20]
 1246 07cc DB69     		ldr	r3, [r3, #28]
 1247 07ce 93F82030 		ldrb	r3, [r3, #32]	@ zero_extendqisi2
 1248 07d2 0D2B     		cmp	r3, #13
 1249 07d4 40F0E080 		bne	.L35
 1250              	.LBB5:
 319:.\EncoreImpl.c ****                 {
 320:.\EncoreImpl.c ****                     I2CBusLock();
 1251              		.loc 1 320 0
 1252 07d8 FFF7FEFF 		bl	I2CBusLock
 321:.\EncoreImpl.c ****                     ClearEepromBuffer();
 1253              		.loc 1 321 0
 1254 07dc FFF7FEFF 		bl	ClearEepromBuffer
 322:.\EncoreImpl.c ****                     uint16 eeprompage = DispenserGetEepromPPUPageFromPumpID(pjob->_ppump->_pumpid);
 1255              		.loc 1 322 0
 1256 07e0 7B69     		ldr	r3, [r7, #20]
 1257 07e2 DB69     		ldr	r3, [r3, #28]
 1258 07e4 1B78     		ldrb	r3, [r3]	@ zero_extendqisi2
 1259 07e6 1846     		mov	r0, r3
 1260 07e8 FFF7FEFF 		bl	DispenserGetEepromPPUPageFromPumpID
 1261 07ec 0346     		mov	r3, r0
 1262 07ee FB81     		strh	r3, [r7, #14]	@ movhi
 323:.\EncoreImpl.c ****                     LoadEepromPage(eeprompage);
 1263              		.loc 1 323 0
 1264 07f0 FB89     		ldrh	r3, [r7, #14]
 1265 07f2 1846     		mov	r0, r3
 1266 07f4 FFF7FEFF 		bl	LoadEepromPage
 324:.\EncoreImpl.c ****                     switch(pjob->_ppump->_authorizationinfo._hoseid)
 1267              		.loc 1 324 0
 1268 07f8 7B69     		ldr	r3, [r7, #20]
 1269 07fa DB69     		ldr	r3, [r3, #28]
 1270 07fc 93F8AA3B 		ldrb	r3, [r3, #2986]
 1271 0800 DBB2     		uxtb	r3, r3
 1272 0802 032B     		cmp	r3, #3
ARM GAS  C:\Users\RECEPC~1\AppData\Local\Temp\ccFc1mZV.s 			page 29


 1273 0804 64D8     		bhi	.L36
 1274 0806 01A2     		adr	r2, .L38
 1275 0808 52F823F0 		ldr	pc, [r2, r3, lsl #2]
 1276              		.p2align 2
 1277              	.L38:
 1278 080c 1D080000 		.word	.L37+1
 1279 0810 47080000 		.word	.L39+1
 1280 0814 75080000 		.word	.L40+1
 1281 0818 A3080000 		.word	.L41+1
 1282              		.p2align 1
 1283              	.L37:
 325:.\EncoreImpl.c ****                     {
 326:.\EncoreImpl.c ****                         case 0x00:
 327:.\EncoreImpl.c ****                         //Six bytes only since the PPU is constrained to this length
 328:.\EncoreImpl.c ****                         memcpy(PBYTECAST(&pjob->_ppump->_trasactionbuffer[GetBufferIndexFromDisplay
 1284              		.loc 1 328 0
 1285 081c 7B69     		ldr	r3, [r7, #20]
 1286 081e DC69     		ldr	r4, [r3, #28]
 1287 0820 6520     		movs	r0, #101
 1288 0822 FFF7FEFF 		bl	GetBufferIndexFromDisplayID
 1289 0826 0346     		mov	r3, r0
 1290 0828 2033     		adds	r3, r3, #32
 1291 082a 1C44     		add	r4, r4, r3
 1292 082c FFF7FEFF 		bl	GetEepromBuffer
 1293 0830 0546     		mov	r5, r0
 1294 0832 6520     		movs	r0, #101
 1295 0834 FFF7FEFF 		bl	GetBufferLengthFromDisplayID
 1296 0838 0346     		mov	r3, r0
 1297 083a 2046     		mov	r0, r4
 1298 083c 2946     		mov	r1, r5
 1299 083e 1A46     		mov	r2, r3
 1300 0840 FFF7FEFF 		bl	memcpy
 329:.\EncoreImpl.c ****                         break;
 1301              		.loc 1 329 0
 1302 0844 44E0     		b	.L36
 1303              	.L39:
 330:.\EncoreImpl.c ****                         case 0x01:
 331:.\EncoreImpl.c ****                         //Six bytes only since the PPU is constrained to this length
 332:.\EncoreImpl.c ****                         memcpy(PBYTECAST(&pjob->_ppump->_trasactionbuffer[GetBufferIndexFromDisplay
 1304              		.loc 1 332 0
 1305 0846 7B69     		ldr	r3, [r7, #20]
 1306 0848 DC69     		ldr	r4, [r3, #28]
 1307 084a 6520     		movs	r0, #101
 1308 084c FFF7FEFF 		bl	GetBufferIndexFromDisplayID
 1309 0850 0346     		mov	r3, r0
 1310 0852 2033     		adds	r3, r3, #32
 1311 0854 E518     		adds	r5, r4, r3
 1312 0856 FFF7FEFF 		bl	GetEepromBuffer
 1313 085a 0346     		mov	r3, r0
 1314 085c 03F11004 		add	r4, r3, #16
 1315 0860 6520     		movs	r0, #101
 1316 0862 FFF7FEFF 		bl	GetBufferLengthFromDisplayID
 1317 0866 0346     		mov	r3, r0
 1318 0868 2846     		mov	r0, r5
 1319 086a 2146     		mov	r1, r4
 1320 086c 1A46     		mov	r2, r3
 1321 086e FFF7FEFF 		bl	memcpy
ARM GAS  C:\Users\RECEPC~1\AppData\Local\Temp\ccFc1mZV.s 			page 30


 333:.\EncoreImpl.c ****                         break;
 1322              		.loc 1 333 0
 1323 0872 2DE0     		b	.L36
 1324              	.L40:
 334:.\EncoreImpl.c ****                         case 0x02:
 335:.\EncoreImpl.c ****                         //Six bytes only since the PPU is constrained to this length
 336:.\EncoreImpl.c ****                         memcpy(PBYTECAST(&pjob->_ppump->_trasactionbuffer[GetBufferIndexFromDisplay
 1325              		.loc 1 336 0
 1326 0874 7B69     		ldr	r3, [r7, #20]
 1327 0876 DC69     		ldr	r4, [r3, #28]
 1328 0878 6520     		movs	r0, #101
 1329 087a FFF7FEFF 		bl	GetBufferIndexFromDisplayID
 1330 087e 0346     		mov	r3, r0
 1331 0880 2033     		adds	r3, r3, #32
 1332 0882 E518     		adds	r5, r4, r3
 1333 0884 FFF7FEFF 		bl	GetEepromBuffer
 1334 0888 0346     		mov	r3, r0
 1335 088a 03F12004 		add	r4, r3, #32
 1336 088e 6520     		movs	r0, #101
 1337 0890 FFF7FEFF 		bl	GetBufferLengthFromDisplayID
 1338 0894 0346     		mov	r3, r0
 1339 0896 2846     		mov	r0, r5
 1340 0898 2146     		mov	r1, r4
 1341 089a 1A46     		mov	r2, r3
 1342 089c FFF7FEFF 		bl	memcpy
 337:.\EncoreImpl.c ****                         break;
 1343              		.loc 1 337 0
 1344 08a0 16E0     		b	.L36
 1345              	.L41:
 338:.\EncoreImpl.c ****                         case 0x03:
 339:.\EncoreImpl.c ****                         //Six bytes only since the PPU is constrained to this length
 340:.\EncoreImpl.c ****                         memcpy(PBYTECAST(&pjob->_ppump->_trasactionbuffer[GetBufferIndexFromDisplay
 1346              		.loc 1 340 0
 1347 08a2 7B69     		ldr	r3, [r7, #20]
 1348 08a4 DC69     		ldr	r4, [r3, #28]
 1349 08a6 6520     		movs	r0, #101
 1350 08a8 FFF7FEFF 		bl	GetBufferIndexFromDisplayID
 1351 08ac 0346     		mov	r3, r0
 1352 08ae 2033     		adds	r3, r3, #32
 1353 08b0 E518     		adds	r5, r4, r3
 1354 08b2 FFF7FEFF 		bl	GetEepromBuffer
 1355 08b6 0346     		mov	r3, r0
 1356 08b8 03F13004 		add	r4, r3, #48
 1357 08bc 6520     		movs	r0, #101
 1358 08be FFF7FEFF 		bl	GetBufferLengthFromDisplayID
 1359 08c2 0346     		mov	r3, r0
 1360 08c4 2846     		mov	r0, r5
 1361 08c6 2146     		mov	r1, r4
 1362 08c8 1A46     		mov	r2, r3
 1363 08ca FFF7FEFF 		bl	memcpy
 341:.\EncoreImpl.c ****                         break;
 1364              		.loc 1 341 0
 1365 08ce 00BF     		nop
 1366              	.L36:
 342:.\EncoreImpl.c ****                     }
 343:.\EncoreImpl.c ****                     I2CBusUnlock();
 1367              		.loc 1 343 0
ARM GAS  C:\Users\RECEPC~1\AppData\Local\Temp\ccFc1mZV.s 			page 31


 1368 08d0 FFF7FEFF 		bl	I2CBusUnlock
 344:.\EncoreImpl.c ****                     
 345:.\EncoreImpl.c ****                     memcpy(PBYTECAST(&pjob->_ppump->_rxbuffer[0x0C]), PBYTECAST(&pjob->_ppump->_tra
 1369              		.loc 1 345 0
 1370 08d4 7B69     		ldr	r3, [r7, #20]
 1371 08d6 DB69     		ldr	r3, [r3, #28]
 1372 08d8 03F5D675 		add	r5, r3, #428
 1373 08dc 7B69     		ldr	r3, [r7, #20]
 1374 08de DC69     		ldr	r4, [r3, #28]
 1375 08e0 6520     		movs	r0, #101
 1376 08e2 FFF7FEFF 		bl	GetBufferIndexFromDisplayID
 1377 08e6 0346     		mov	r3, r0
 1378 08e8 2033     		adds	r3, r3, #32
 1379 08ea 2344     		add	r3, r3, r4
 1380 08ec 2846     		mov	r0, r5
 1381 08ee 1946     		mov	r1, r3
 1382 08f0 0622     		movs	r2, #6
 1383 08f2 FFF7FEFF 		bl	memcpy
 346:.\EncoreImpl.c ****                     
 347:.\EncoreImpl.c ****                     //Bytes from index 12 to 17 are the digits for the PPU used for the transaction
 348:.\EncoreImpl.c ****                     //Digits are in BCD format
 349:.\EncoreImpl.c ****                     pjob->_ppump->_rxbuffer[0x0C] = (pjob->_ppump->_rxbuffer[0x0C] & 0x0F);
 1384              		.loc 1 349 0
 1385 08f6 7B69     		ldr	r3, [r7, #20]
 1386 08f8 DB69     		ldr	r3, [r3, #28]
 1387 08fa 7A69     		ldr	r2, [r7, #20]
 1388 08fc D269     		ldr	r2, [r2, #28]
 1389 08fe 92F8AC21 		ldrb	r2, [r2, #428]	@ zero_extendqisi2
 1390 0902 02F00F02 		and	r2, r2, #15
 1391 0906 D2B2     		uxtb	r2, r2
 1392 0908 83F8AC21 		strb	r2, [r3, #428]
 350:.\EncoreImpl.c ****                     pjob->_ppump->_rxbuffer[0x0D] = (pjob->_ppump->_rxbuffer[0x0D] & 0x0F);
 1393              		.loc 1 350 0
 1394 090c 7B69     		ldr	r3, [r7, #20]
 1395 090e DB69     		ldr	r3, [r3, #28]
 1396 0910 7A69     		ldr	r2, [r7, #20]
 1397 0912 D269     		ldr	r2, [r2, #28]
 1398 0914 92F8AD21 		ldrb	r2, [r2, #429]	@ zero_extendqisi2
 1399 0918 02F00F02 		and	r2, r2, #15
 1400 091c D2B2     		uxtb	r2, r2
 1401 091e 83F8AD21 		strb	r2, [r3, #429]
 351:.\EncoreImpl.c ****                     pjob->_ppump->_rxbuffer[0x0E] = (pjob->_ppump->_rxbuffer[0x0E] & 0x0F);
 1402              		.loc 1 351 0
 1403 0922 7B69     		ldr	r3, [r7, #20]
 1404 0924 DB69     		ldr	r3, [r3, #28]
 1405 0926 7A69     		ldr	r2, [r7, #20]
 1406 0928 D269     		ldr	r2, [r2, #28]
 1407 092a 92F8AE21 		ldrb	r2, [r2, #430]	@ zero_extendqisi2
 1408 092e 02F00F02 		and	r2, r2, #15
 1409 0932 D2B2     		uxtb	r2, r2
 1410 0934 83F8AE21 		strb	r2, [r3, #430]
 352:.\EncoreImpl.c ****                     pjob->_ppump->_rxbuffer[0x0F] = (pjob->_ppump->_rxbuffer[0x0F] & 0x0F);
 1411              		.loc 1 352 0
 1412 0938 7B69     		ldr	r3, [r7, #20]
 1413 093a DB69     		ldr	r3, [r3, #28]
 1414 093c 7A69     		ldr	r2, [r7, #20]
 1415 093e D269     		ldr	r2, [r2, #28]
ARM GAS  C:\Users\RECEPC~1\AppData\Local\Temp\ccFc1mZV.s 			page 32


 1416 0940 92F8AF21 		ldrb	r2, [r2, #431]	@ zero_extendqisi2
 1417 0944 02F00F02 		and	r2, r2, #15
 1418 0948 D2B2     		uxtb	r2, r2
 1419 094a 83F8AF21 		strb	r2, [r3, #431]
 353:.\EncoreImpl.c ****                     pjob->_ppump->_rxbuffer[0x10] = (pjob->_ppump->_rxbuffer[0x10] & 0x0F);
 1420              		.loc 1 353 0
 1421 094e 7B69     		ldr	r3, [r7, #20]
 1422 0950 DB69     		ldr	r3, [r3, #28]
 1423 0952 7A69     		ldr	r2, [r7, #20]
 1424 0954 D269     		ldr	r2, [r2, #28]
 1425 0956 92F8B021 		ldrb	r2, [r2, #432]	@ zero_extendqisi2
 1426 095a 02F00F02 		and	r2, r2, #15
 1427 095e D2B2     		uxtb	r2, r2
 1428 0960 83F8B021 		strb	r2, [r3, #432]
 354:.\EncoreImpl.c ****                     pjob->_ppump->_rxbuffer[0x11] = (pjob->_ppump->_rxbuffer[0x11] & 0x0F);
 1429              		.loc 1 354 0
 1430 0964 7B69     		ldr	r3, [r7, #20]
 1431 0966 DB69     		ldr	r3, [r3, #28]
 1432 0968 7A69     		ldr	r2, [r7, #20]
 1433 096a D269     		ldr	r2, [r2, #28]
 1434 096c 92F8B121 		ldrb	r2, [r2, #433]	@ zero_extendqisi2
 1435 0970 02F00F02 		and	r2, r2, #15
 1436 0974 D2B2     		uxtb	r2, r2
 1437 0976 83F8B121 		strb	r2, [r3, #433]
 355:.\EncoreImpl.c ****                     pjob->_ppump->_authorizationinfo._price = LSDBCDBUFF2HEX(PBYTECAST(&pjob->_ppum
 1438              		.loc 1 355 0
 1439 097a 7B69     		ldr	r3, [r7, #20]
 1440 097c DC69     		ldr	r4, [r3, #28]
 1441 097e 7B69     		ldr	r3, [r7, #20]
 1442 0980 DB69     		ldr	r3, [r3, #28]
 1443 0982 03F5D673 		add	r3, r3, #428
 1444 0986 1846     		mov	r0, r3
 1445 0988 0621     		movs	r1, #6
 1446 098a FFF7FEFF 		bl	LSDBCDBUFF2HEX
 1447 098e 0346     		mov	r3, r0
 1448 0990 9BB2     		uxth	r3, r3
 1449 0992 A4F8AC3B 		strh	r3, [r4, #2988]	@ movhi
 1450              	.LBE5:
 1451 0996 41E0     		b	.L42
 1452              	.L35:
 356:.\EncoreImpl.c ****                     
 357:.\EncoreImpl.c ****                 }
 358:.\EncoreImpl.c ****                 else
 359:.\EncoreImpl.c ****                 {
 360:.\EncoreImpl.c ****                     pjob->_ppump->_rxbuffer[0x0C] = (pjob->_ppump->_rxbuffer[0x0C] & 0x0F);
 1453              		.loc 1 360 0
 1454 0998 7B69     		ldr	r3, [r7, #20]
 1455 099a DB69     		ldr	r3, [r3, #28]
 1456 099c 7A69     		ldr	r2, [r7, #20]
 1457 099e D269     		ldr	r2, [r2, #28]
 1458 09a0 92F8AC21 		ldrb	r2, [r2, #428]	@ zero_extendqisi2
 1459 09a4 02F00F02 		and	r2, r2, #15
 1460 09a8 D2B2     		uxtb	r2, r2
 1461 09aa 83F8AC21 		strb	r2, [r3, #428]
 361:.\EncoreImpl.c ****                     pjob->_ppump->_rxbuffer[0x0D] = (pjob->_ppump->_rxbuffer[0x0D] & 0x0F);
 1462              		.loc 1 361 0
 1463 09ae 7B69     		ldr	r3, [r7, #20]
ARM GAS  C:\Users\RECEPC~1\AppData\Local\Temp\ccFc1mZV.s 			page 33


 1464 09b0 DB69     		ldr	r3, [r3, #28]
 1465 09b2 7A69     		ldr	r2, [r7, #20]
 1466 09b4 D269     		ldr	r2, [r2, #28]
 1467 09b6 92F8AD21 		ldrb	r2, [r2, #429]	@ zero_extendqisi2
 1468 09ba 02F00F02 		and	r2, r2, #15
 1469 09be D2B2     		uxtb	r2, r2
 1470 09c0 83F8AD21 		strb	r2, [r3, #429]
 362:.\EncoreImpl.c ****                     pjob->_ppump->_rxbuffer[0x0E] = (pjob->_ppump->_rxbuffer[0x0E] & 0x0F);
 1471              		.loc 1 362 0
 1472 09c4 7B69     		ldr	r3, [r7, #20]
 1473 09c6 DB69     		ldr	r3, [r3, #28]
 1474 09c8 7A69     		ldr	r2, [r7, #20]
 1475 09ca D269     		ldr	r2, [r2, #28]
 1476 09cc 92F8AE21 		ldrb	r2, [r2, #430]	@ zero_extendqisi2
 1477 09d0 02F00F02 		and	r2, r2, #15
 1478 09d4 D2B2     		uxtb	r2, r2
 1479 09d6 83F8AE21 		strb	r2, [r3, #430]
 363:.\EncoreImpl.c ****                     pjob->_ppump->_rxbuffer[0x0F] = (pjob->_ppump->_rxbuffer[0x0F] & 0x0F);
 1480              		.loc 1 363 0
 1481 09da 7B69     		ldr	r3, [r7, #20]
 1482 09dc DB69     		ldr	r3, [r3, #28]
 1483 09de 7A69     		ldr	r2, [r7, #20]
 1484 09e0 D269     		ldr	r2, [r2, #28]
 1485 09e2 92F8AF21 		ldrb	r2, [r2, #431]	@ zero_extendqisi2
 1486 09e6 02F00F02 		and	r2, r2, #15
 1487 09ea D2B2     		uxtb	r2, r2
 1488 09ec 83F8AF21 		strb	r2, [r3, #431]
 364:.\EncoreImpl.c ****                     pjob->_ppump->_rxbuffer[0x10] = (pjob->_ppump->_rxbuffer[0x10] & 0x0F);
 1489              		.loc 1 364 0
 1490 09f0 7B69     		ldr	r3, [r7, #20]
 1491 09f2 DB69     		ldr	r3, [r3, #28]
 1492 09f4 7A69     		ldr	r2, [r7, #20]
 1493 09f6 D269     		ldr	r2, [r2, #28]
 1494 09f8 92F8B021 		ldrb	r2, [r2, #432]	@ zero_extendqisi2
 1495 09fc 02F00F02 		and	r2, r2, #15
 1496 0a00 D2B2     		uxtb	r2, r2
 1497 0a02 83F8B021 		strb	r2, [r3, #432]
 365:.\EncoreImpl.c ****                     pjob->_ppump->_rxbuffer[0x11] = (pjob->_ppump->_rxbuffer[0x11] & 0x0F);
 1498              		.loc 1 365 0
 1499 0a06 7B69     		ldr	r3, [r7, #20]
 1500 0a08 DB69     		ldr	r3, [r3, #28]
 1501 0a0a 7A69     		ldr	r2, [r7, #20]
 1502 0a0c D269     		ldr	r2, [r2, #28]
 1503 0a0e 92F8B121 		ldrb	r2, [r2, #433]	@ zero_extendqisi2
 1504 0a12 02F00F02 		and	r2, r2, #15
 1505 0a16 D2B2     		uxtb	r2, r2
 1506 0a18 83F8B121 		strb	r2, [r3, #433]
 1507              	.L42:
 366:.\EncoreImpl.c ****                 }
 367:.\EncoreImpl.c ****                 
 368:.\EncoreImpl.c ****                 //Bytes from index 19 to 26 are the digits for the fuel volume delivered in the tra
 369:.\EncoreImpl.c ****                 //Digits are in BCD format
 370:.\EncoreImpl.c ****                 pjob->_ppump->_rxbuffer[0x13] = (pjob->_ppump->_rxbuffer[0x13] & 0x0F);
 1508              		.loc 1 370 0
 1509 0a1c 7B69     		ldr	r3, [r7, #20]
 1510 0a1e DB69     		ldr	r3, [r3, #28]
 1511 0a20 7A69     		ldr	r2, [r7, #20]
ARM GAS  C:\Users\RECEPC~1\AppData\Local\Temp\ccFc1mZV.s 			page 34


 1512 0a22 D269     		ldr	r2, [r2, #28]
 1513 0a24 92F8B321 		ldrb	r2, [r2, #435]	@ zero_extendqisi2
 1514 0a28 02F00F02 		and	r2, r2, #15
 1515 0a2c D2B2     		uxtb	r2, r2
 1516 0a2e 83F8B321 		strb	r2, [r3, #435]
 371:.\EncoreImpl.c ****                 pjob->_ppump->_rxbuffer[0x14] = (pjob->_ppump->_rxbuffer[0x14] & 0x0F);
 1517              		.loc 1 371 0
 1518 0a32 7B69     		ldr	r3, [r7, #20]
 1519 0a34 DB69     		ldr	r3, [r3, #28]
 1520 0a36 7A69     		ldr	r2, [r7, #20]
 1521 0a38 D269     		ldr	r2, [r2, #28]
 1522 0a3a 92F8B421 		ldrb	r2, [r2, #436]	@ zero_extendqisi2
 1523 0a3e 02F00F02 		and	r2, r2, #15
 1524 0a42 D2B2     		uxtb	r2, r2
 1525 0a44 83F8B421 		strb	r2, [r3, #436]
 372:.\EncoreImpl.c ****                 pjob->_ppump->_rxbuffer[0x15] = (pjob->_ppump->_rxbuffer[0x15] & 0x0F);
 1526              		.loc 1 372 0
 1527 0a48 7B69     		ldr	r3, [r7, #20]
 1528 0a4a DB69     		ldr	r3, [r3, #28]
 1529 0a4c 7A69     		ldr	r2, [r7, #20]
 1530 0a4e D269     		ldr	r2, [r2, #28]
 1531 0a50 92F8B521 		ldrb	r2, [r2, #437]	@ zero_extendqisi2
 1532 0a54 02F00F02 		and	r2, r2, #15
 1533 0a58 D2B2     		uxtb	r2, r2
 1534 0a5a 83F8B521 		strb	r2, [r3, #437]
 373:.\EncoreImpl.c ****                 pjob->_ppump->_rxbuffer[0x16] = (pjob->_ppump->_rxbuffer[0x16] & 0x0F);
 1535              		.loc 1 373 0
 1536 0a5e 7B69     		ldr	r3, [r7, #20]
 1537 0a60 DB69     		ldr	r3, [r3, #28]
 1538 0a62 7A69     		ldr	r2, [r7, #20]
 1539 0a64 D269     		ldr	r2, [r2, #28]
 1540 0a66 92F8B621 		ldrb	r2, [r2, #438]	@ zero_extendqisi2
 1541 0a6a 02F00F02 		and	r2, r2, #15
 1542 0a6e D2B2     		uxtb	r2, r2
 1543 0a70 83F8B621 		strb	r2, [r3, #438]
 374:.\EncoreImpl.c ****                 pjob->_ppump->_rxbuffer[0x17] = (pjob->_ppump->_rxbuffer[0x17] & 0x0F);
 1544              		.loc 1 374 0
 1545 0a74 7B69     		ldr	r3, [r7, #20]
 1546 0a76 DB69     		ldr	r3, [r3, #28]
 1547 0a78 7A69     		ldr	r2, [r7, #20]
 1548 0a7a D269     		ldr	r2, [r2, #28]
 1549 0a7c 92F8B721 		ldrb	r2, [r2, #439]	@ zero_extendqisi2
 1550 0a80 02F00F02 		and	r2, r2, #15
 1551 0a84 D2B2     		uxtb	r2, r2
 1552 0a86 83F8B721 		strb	r2, [r3, #439]
 375:.\EncoreImpl.c ****                 pjob->_ppump->_rxbuffer[0x18] = (pjob->_ppump->_rxbuffer[0x18] & 0x0F);
 1553              		.loc 1 375 0
 1554 0a8a 7B69     		ldr	r3, [r7, #20]
 1555 0a8c DB69     		ldr	r3, [r3, #28]
 1556 0a8e 7A69     		ldr	r2, [r7, #20]
 1557 0a90 D269     		ldr	r2, [r2, #28]
 1558 0a92 92F8B821 		ldrb	r2, [r2, #440]	@ zero_extendqisi2
 1559 0a96 02F00F02 		and	r2, r2, #15
 1560 0a9a D2B2     		uxtb	r2, r2
 1561 0a9c 83F8B821 		strb	r2, [r3, #440]
 376:.\EncoreImpl.c ****                 pjob->_ppump->_rxbuffer[0x19] = (pjob->_ppump->_rxbuffer[0x19] & 0x0F);
 1562              		.loc 1 376 0
ARM GAS  C:\Users\RECEPC~1\AppData\Local\Temp\ccFc1mZV.s 			page 35


 1563 0aa0 7B69     		ldr	r3, [r7, #20]
 1564 0aa2 DB69     		ldr	r3, [r3, #28]
 1565 0aa4 7A69     		ldr	r2, [r7, #20]
 1566 0aa6 D269     		ldr	r2, [r2, #28]
 1567 0aa8 92F8B921 		ldrb	r2, [r2, #441]	@ zero_extendqisi2
 1568 0aac 02F00F02 		and	r2, r2, #15
 1569 0ab0 D2B2     		uxtb	r2, r2
 1570 0ab2 83F8B921 		strb	r2, [r3, #441]
 377:.\EncoreImpl.c ****                 pjob->_ppump->_rxbuffer[0x1A] = (pjob->_ppump->_rxbuffer[0x1A] & 0x0F);
 1571              		.loc 1 377 0
 1572 0ab6 7B69     		ldr	r3, [r7, #20]
 1573 0ab8 DB69     		ldr	r3, [r3, #28]
 1574 0aba 7A69     		ldr	r2, [r7, #20]
 1575 0abc D269     		ldr	r2, [r2, #28]
 1576 0abe 92F8BA21 		ldrb	r2, [r2, #442]	@ zero_extendqisi2
 1577 0ac2 02F00F02 		and	r2, r2, #15
 1578 0ac6 D2B2     		uxtb	r2, r2
 1579 0ac8 83F8BA21 		strb	r2, [r3, #442]
 378:.\EncoreImpl.c ****                 pjob->_ppump->_authorizationinfo._volumeamount = LSDBCDBUFF2HEX(PBYTECAST(&pjob->_p
 1580              		.loc 1 378 0
 1581 0acc 7B69     		ldr	r3, [r7, #20]
 1582 0ace DC69     		ldr	r4, [r3, #28]
 1583 0ad0 7B69     		ldr	r3, [r7, #20]
 1584 0ad2 DB69     		ldr	r3, [r3, #28]
 1585 0ad4 03F2B313 		addw	r3, r3, #435
 1586 0ad8 1846     		mov	r0, r3
 1587 0ada 0821     		movs	r1, #8
 1588 0adc FFF7FEFF 		bl	LSDBCDBUFF2HEX
 1589 0ae0 0346     		mov	r3, r0
 1590 0ae2 C4F8B43B 		str	r3, [r4, #2996]
 379:.\EncoreImpl.c ****                 
 380:.\EncoreImpl.c ****                 ////////////////////////////////////////////////////////////////////////////////
 381:.\EncoreImpl.c ****                 ////////////////////////////////////////////////////////////////////////////////
 382:.\EncoreImpl.c ****                 
 383:.\EncoreImpl.c ****                 //Bytes from index 28 to 35 are the digits for the money charged to the transaction
 384:.\EncoreImpl.c ****                 //Digits are in BCD format
 385:.\EncoreImpl.c ****                 pjob->_ppump->_rxbuffer[0x1C] = (pjob->_ppump->_rxbuffer[0x1C] & 0x00);//Zero to ma
 1591              		.loc 1 385 0
 1592 0ae6 7B69     		ldr	r3, [r7, #20]
 1593 0ae8 DB69     		ldr	r3, [r3, #28]
 1594 0aea 0022     		movs	r2, #0
 1595 0aec 83F8BC21 		strb	r2, [r3, #444]
 386:.\EncoreImpl.c ****                 
 387:.\EncoreImpl.c ****                 pjob->_ppump->_rxbuffer[0x1D] = (pjob->_ppump->_rxbuffer[0x1D] & 0x0F);
 1596              		.loc 1 387 0
 1597 0af0 7B69     		ldr	r3, [r7, #20]
 1598 0af2 DB69     		ldr	r3, [r3, #28]
 1599 0af4 7A69     		ldr	r2, [r7, #20]
 1600 0af6 D269     		ldr	r2, [r2, #28]
 1601 0af8 92F8BD21 		ldrb	r2, [r2, #445]	@ zero_extendqisi2
 1602 0afc 02F00F02 		and	r2, r2, #15
 1603 0b00 D2B2     		uxtb	r2, r2
 1604 0b02 83F8BD21 		strb	r2, [r3, #445]
 388:.\EncoreImpl.c ****                 pjob->_ppump->_rxbuffer[0x1E] = (pjob->_ppump->_rxbuffer[0x1E] & 0x0F);
 1605              		.loc 1 388 0
 1606 0b06 7B69     		ldr	r3, [r7, #20]
 1607 0b08 DB69     		ldr	r3, [r3, #28]
ARM GAS  C:\Users\RECEPC~1\AppData\Local\Temp\ccFc1mZV.s 			page 36


 1608 0b0a 7A69     		ldr	r2, [r7, #20]
 1609 0b0c D269     		ldr	r2, [r2, #28]
 1610 0b0e 92F8BE21 		ldrb	r2, [r2, #446]	@ zero_extendqisi2
 1611 0b12 02F00F02 		and	r2, r2, #15
 1612 0b16 D2B2     		uxtb	r2, r2
 1613 0b18 83F8BE21 		strb	r2, [r3, #446]
 389:.\EncoreImpl.c ****                 pjob->_ppump->_rxbuffer[0x1F] = (pjob->_ppump->_rxbuffer[0x1F] & 0x0F);
 1614              		.loc 1 389 0
 1615 0b1c 7B69     		ldr	r3, [r7, #20]
 1616 0b1e DB69     		ldr	r3, [r3, #28]
 1617 0b20 7A69     		ldr	r2, [r7, #20]
 1618 0b22 D269     		ldr	r2, [r2, #28]
 1619 0b24 92F8BF21 		ldrb	r2, [r2, #447]	@ zero_extendqisi2
 1620 0b28 02F00F02 		and	r2, r2, #15
 1621 0b2c D2B2     		uxtb	r2, r2
 1622 0b2e 83F8BF21 		strb	r2, [r3, #447]
 390:.\EncoreImpl.c ****                 pjob->_ppump->_rxbuffer[0x20] = (pjob->_ppump->_rxbuffer[0x20] & 0x0F);
 1623              		.loc 1 390 0
 1624 0b32 7B69     		ldr	r3, [r7, #20]
 1625 0b34 DB69     		ldr	r3, [r3, #28]
 1626 0b36 7A69     		ldr	r2, [r7, #20]
 1627 0b38 D269     		ldr	r2, [r2, #28]
 1628 0b3a 92F8C021 		ldrb	r2, [r2, #448]	@ zero_extendqisi2
 1629 0b3e 02F00F02 		and	r2, r2, #15
 1630 0b42 D2B2     		uxtb	r2, r2
 1631 0b44 83F8C021 		strb	r2, [r3, #448]
 391:.\EncoreImpl.c ****                 pjob->_ppump->_rxbuffer[0x21] = (pjob->_ppump->_rxbuffer[0x21] & 0x0F);
 1632              		.loc 1 391 0
 1633 0b48 7B69     		ldr	r3, [r7, #20]
 1634 0b4a DB69     		ldr	r3, [r3, #28]
 1635 0b4c 7A69     		ldr	r2, [r7, #20]
 1636 0b4e D269     		ldr	r2, [r2, #28]
 1637 0b50 92F8C121 		ldrb	r2, [r2, #449]	@ zero_extendqisi2
 1638 0b54 02F00F02 		and	r2, r2, #15
 1639 0b58 D2B2     		uxtb	r2, r2
 1640 0b5a 83F8C121 		strb	r2, [r3, #449]
 392:.\EncoreImpl.c ****                 pjob->_ppump->_rxbuffer[0x22] = (pjob->_ppump->_rxbuffer[0x22] & 0x0F);
 1641              		.loc 1 392 0
 1642 0b5e 7B69     		ldr	r3, [r7, #20]
 1643 0b60 DB69     		ldr	r3, [r3, #28]
 1644 0b62 7A69     		ldr	r2, [r7, #20]
 1645 0b64 D269     		ldr	r2, [r2, #28]
 1646 0b66 92F8C221 		ldrb	r2, [r2, #450]	@ zero_extendqisi2
 1647 0b6a 02F00F02 		and	r2, r2, #15
 1648 0b6e D2B2     		uxtb	r2, r2
 1649 0b70 83F8C221 		strb	r2, [r3, #450]
 393:.\EncoreImpl.c ****                 pjob->_ppump->_rxbuffer[0x23] = (pjob->_ppump->_rxbuffer[0x23] & 0x0F);
 1650              		.loc 1 393 0
 1651 0b74 7B69     		ldr	r3, [r7, #20]
 1652 0b76 DB69     		ldr	r3, [r3, #28]
 1653 0b78 7A69     		ldr	r2, [r7, #20]
 1654 0b7a D269     		ldr	r2, [r2, #28]
 1655 0b7c 92F8C321 		ldrb	r2, [r2, #451]	@ zero_extendqisi2
 1656 0b80 02F00F02 		and	r2, r2, #15
 1657 0b84 D2B2     		uxtb	r2, r2
 1658 0b86 83F8C321 		strb	r2, [r3, #451]
 394:.\EncoreImpl.c ****                 //INQUIRY ABOUT THE EXTRA x10 RESULT SINCE THERE IS AN EXTRA 0 IN THE RESPONSE FOR 
ARM GAS  C:\Users\RECEPC~1\AppData\Local\Temp\ccFc1mZV.s 			page 37


 395:.\EncoreImpl.c ****                 //MEANWHILE DIVIDING BY 10 TO REMOVE THE ZERO
 396:.\EncoreImpl.c ****                 if(_g_dispenserlayoutinfo._displaydigitsmode == 0x07)
 1659              		.loc 1 396 0
 1660 0b8a BC4B     		ldr	r3, .L56
 1661 0b8c 1B7C     		ldrb	r3, [r3, #16]	@ zero_extendqisi2
 1662 0b8e 072B     		cmp	r3, #7
 1663 0b90 11D1     		bne	.L43
 397:.\EncoreImpl.c ****                     pjob->_ppump->_authorizationinfo._presetamount = (LSDBCDBUFF2HEX(PBYTECAST(&pjo
 1664              		.loc 1 397 0
 1665 0b92 7B69     		ldr	r3, [r7, #20]
 1666 0b94 DC69     		ldr	r4, [r3, #28]
 1667 0b96 7B69     		ldr	r3, [r7, #20]
 1668 0b98 DB69     		ldr	r3, [r3, #28]
 1669 0b9a 03F5DE73 		add	r3, r3, #444
 1670 0b9e 1846     		mov	r0, r3
 1671 0ba0 0821     		movs	r1, #8
 1672 0ba2 FFF7FEFF 		bl	LSDBCDBUFF2HEX
 1673 0ba6 0246     		mov	r2, r0
 1674 0ba8 B54B     		ldr	r3, .L56+4
 1675 0baa A3FB0223 		umull	r2, r3, r3, r2
 1676 0bae DB08     		lsrs	r3, r3, #3
 1677 0bb0 C4F8B03B 		str	r3, [r4, #2992]
 1678 0bb4 0CE0     		b	.L44
 1679              	.L43:
 398:.\EncoreImpl.c ****                 else
 399:.\EncoreImpl.c ****                     pjob->_ppump->_authorizationinfo._presetamount = LSDBCDBUFF2HEX(PBYTECAST(&pjob
 1680              		.loc 1 399 0
 1681 0bb6 7B69     		ldr	r3, [r7, #20]
 1682 0bb8 DC69     		ldr	r4, [r3, #28]
 1683 0bba 7B69     		ldr	r3, [r7, #20]
 1684 0bbc DB69     		ldr	r3, [r3, #28]
 1685 0bbe 03F5DE73 		add	r3, r3, #444
 1686 0bc2 1846     		mov	r0, r3
 1687 0bc4 0821     		movs	r1, #8
 1688 0bc6 FFF7FEFF 		bl	LSDBCDBUFF2HEX
 1689 0bca 0346     		mov	r3, r0
 1690 0bcc C4F8B03B 		str	r3, [r4, #2992]
 1691              	.L44:
 400:.\EncoreImpl.c ****                     
 401:.\EncoreImpl.c ****                 ClearRtcBuffer();
 1692              		.loc 1 401 0
 1693 0bd0 FFF7FEFF 		bl	ClearRtcBuffer
 402:.\EncoreImpl.c ****                 ReadRTC();
 1694              		.loc 1 402 0
 1695 0bd4 FFF7FEFF 		bl	ReadRTC
 403:.\EncoreImpl.c ****                 //CAREFUL WITH RETURNS BETWEEN THE LOCK/UNLOCK CALLS
 404:.\EncoreImpl.c ****                 //AND RECURSIVE CALLS THAT WOULD DEADLOCK!
 405:.\EncoreImpl.c ****                 I2CBusLock();
 1696              		.loc 1 405 0
 1697 0bd8 FFF7FEFF 		bl	I2CBusLock
 406:.\EncoreImpl.c ****             
 407:.\EncoreImpl.c ****                 ClearEepromBuffer();
 1698              		.loc 1 407 0
 1699 0bdc FFF7FEFF 		bl	ClearEepromBuffer
 408:.\EncoreImpl.c ****                 //In this position is located the payment type (CREDIT: 0x0E , CASH:0x0D)
 409:.\EncoreImpl.c ****                 if(pjob->_ppump->_trasactionbuffer[0x00] == 0x0D)
 1700              		.loc 1 409 0
ARM GAS  C:\Users\RECEPC~1\AppData\Local\Temp\ccFc1mZV.s 			page 38


 1701 0be0 7B69     		ldr	r3, [r7, #20]
 1702 0be2 DB69     		ldr	r3, [r3, #28]
 1703 0be4 93F82030 		ldrb	r3, [r3, #32]	@ zero_extendqisi2
 1704 0be8 0D2B     		cmp	r3, #13
 1705 0bea 40F0DB80 		bne	.L45
 410:.\EncoreImpl.c ****                 {
 411:.\EncoreImpl.c ****                     //HERE WE STORE THE LAST TRANSACTION IN EEPROM! ALWAYS THE PREVIOUS TRANSACTION
 412:.\EncoreImpl.c ****                     //WILL BE OVERWRITTEN AND LOST.
 413:.\EncoreImpl.c ****                     //IN CASE OF A "CREDIT SALE", THE WHOLE DATA WILL BE STORED IN A SEPARATE MEMOR
 414:.\EncoreImpl.c ****                     //SINCE IN CASE OF A RF LINK DROP, THE STATE OF THE SALE COULD BE RECOVERED BY 
 415:.\EncoreImpl.c ****                     LoadEepromPage(EEPROM_DISPENSER_PUMP1_LAYOUT_PAGE);
 1706              		.loc 1 415 0
 1707 0bee 4FF40070 		mov	r0, #512
 1708 0bf2 FFF7FEFF 		bl	LoadEepromPage
 416:.\EncoreImpl.c ****                     if(GetEepromBuffer()[0] == ((pjob->_ppump->_rxbuffer[0x04] & 0x0F) + 1))
 1709              		.loc 1 416 0
 1710 0bf6 FFF7FEFF 		bl	GetEepromBuffer
 1711 0bfa 0346     		mov	r3, r0
 1712 0bfc 1B78     		ldrb	r3, [r3]	@ zero_extendqisi2
 1713 0bfe 1A46     		mov	r2, r3
 1714 0c00 7B69     		ldr	r3, [r7, #20]
 1715 0c02 DB69     		ldr	r3, [r3, #28]
 1716 0c04 93F8A431 		ldrb	r3, [r3, #420]	@ zero_extendqisi2
 1717 0c08 03F00F03 		and	r3, r3, #15
 1718 0c0c 0133     		adds	r3, r3, #1
 1719 0c0e 9A42     		cmp	r2, r3
 1720 0c10 22D1     		bne	.L46
 417:.\EncoreImpl.c ****                     {
 418:.\EncoreImpl.c ****                         ClearEepromBuffer();
 1721              		.loc 1 418 0
 1722 0c12 FFF7FEFF 		bl	ClearEepromBuffer
 419:.\EncoreImpl.c ****                         //Storing the current Date/Time for this transaction
 420:.\EncoreImpl.c ****                         memcpy(GetEepromBuffer(), GetRtcBuffer(), 0x07);
 1723              		.loc 1 420 0
 1724 0c16 FFF7FEFF 		bl	GetEepromBuffer
 1725 0c1a 0446     		mov	r4, r0
 1726 0c1c FFF7FEFF 		bl	GetRtcBuffer
 1727 0c20 0346     		mov	r3, r0
 1728 0c22 2046     		mov	r0, r4
 1729 0c24 1946     		mov	r1, r3
 1730 0c26 0722     		movs	r2, #7
 1731 0c28 FFF7FEFF 		bl	memcpy
 421:.\EncoreImpl.c ****                         memcpy(&GetEepromBuffer()[0x07], pjob->_ppump->_rxbuffer, pjob->_ppump->_rx
 1732              		.loc 1 421 0
 1733 0c2c FFF7FEFF 		bl	GetEepromBuffer
 1734 0c30 0346     		mov	r3, r0
 1735 0c32 D91D     		adds	r1, r3, #7
 1736 0c34 7B69     		ldr	r3, [r7, #20]
 1737 0c36 DB69     		ldr	r3, [r3, #28]
 1738 0c38 03F5D072 		add	r2, r3, #416
 1739 0c3c 7B69     		ldr	r3, [r7, #20]
 1740 0c3e DB69     		ldr	r3, [r3, #28]
 1741 0c40 B3F82033 		ldrh	r3, [r3, #800]
 1742 0c44 0846     		mov	r0, r1
 1743 0c46 1146     		mov	r1, r2
 1744 0c48 1A46     		mov	r2, r3
 1745 0c4a FFF7FEFF 		bl	memcpy
ARM GAS  C:\Users\RECEPC~1\AppData\Local\Temp\ccFc1mZV.s 			page 39


 422:.\EncoreImpl.c ****                         StoreEepromPage(EEPROM_DISPENSER_PUMP12_TRANSACTION_PAGE);
 1746              		.loc 1 422 0
 1747 0c4e 4FF4C860 		mov	r0, #1600
 1748 0c52 FFF7FEFF 		bl	StoreEepromPage
 1749 0c56 82E1     		b	.L50
 1750              	.L46:
 423:.\EncoreImpl.c ****                     }
 424:.\EncoreImpl.c ****                     else
 425:.\EncoreImpl.c ****                     {
 426:.\EncoreImpl.c ****                         ClearEepromBuffer();
 1751              		.loc 1 426 0
 1752 0c58 FFF7FEFF 		bl	ClearEepromBuffer
 427:.\EncoreImpl.c ****                         LoadEepromPage(EEPROM_DISPENSER_PUMP2_LAYOUT_PAGE);
 1753              		.loc 1 427 0
 1754 0c5c 4FF41070 		mov	r0, #576
 1755 0c60 FFF7FEFF 		bl	LoadEepromPage
 428:.\EncoreImpl.c ****                         if(GetEepromBuffer()[0] == ((pjob->_ppump->_rxbuffer[0x04] & 0x0F) + 1))
 1756              		.loc 1 428 0
 1757 0c64 FFF7FEFF 		bl	GetEepromBuffer
 1758 0c68 0346     		mov	r3, r0
 1759 0c6a 1B78     		ldrb	r3, [r3]	@ zero_extendqisi2
 1760 0c6c 1A46     		mov	r2, r3
 1761 0c6e 7B69     		ldr	r3, [r7, #20]
 1762 0c70 DB69     		ldr	r3, [r3, #28]
 1763 0c72 93F8A431 		ldrb	r3, [r3, #420]	@ zero_extendqisi2
 1764 0c76 03F00F03 		and	r3, r3, #15
 1765 0c7a 0133     		adds	r3, r3, #1
 1766 0c7c 9A42     		cmp	r2, r3
 1767 0c7e 22D1     		bne	.L48
 429:.\EncoreImpl.c ****                         {
 430:.\EncoreImpl.c ****                             ClearEepromBuffer();
 1768              		.loc 1 430 0
 1769 0c80 FFF7FEFF 		bl	ClearEepromBuffer
 431:.\EncoreImpl.c ****                             //Storing the current Date/Time for this transaction
 432:.\EncoreImpl.c ****                             memcpy(GetEepromBuffer(), GetRtcBuffer(), 0x07);
 1770              		.loc 1 432 0
 1771 0c84 FFF7FEFF 		bl	GetEepromBuffer
 1772 0c88 0446     		mov	r4, r0
 1773 0c8a FFF7FEFF 		bl	GetRtcBuffer
 1774 0c8e 0346     		mov	r3, r0
 1775 0c90 2046     		mov	r0, r4
 1776 0c92 1946     		mov	r1, r3
 1777 0c94 0722     		movs	r2, #7
 1778 0c96 FFF7FEFF 		bl	memcpy
 433:.\EncoreImpl.c ****                             memcpy(&GetEepromBuffer()[0x07], pjob->_ppump->_rxbuffer, pjob->_ppump-
 1779              		.loc 1 433 0
 1780 0c9a FFF7FEFF 		bl	GetEepromBuffer
 1781 0c9e 0346     		mov	r3, r0
 1782 0ca0 D91D     		adds	r1, r3, #7
 1783 0ca2 7B69     		ldr	r3, [r7, #20]
 1784 0ca4 DB69     		ldr	r3, [r3, #28]
 1785 0ca6 03F5D072 		add	r2, r3, #416
 1786 0caa 7B69     		ldr	r3, [r7, #20]
 1787 0cac DB69     		ldr	r3, [r3, #28]
 1788 0cae B3F82033 		ldrh	r3, [r3, #800]
 1789 0cb2 0846     		mov	r0, r1
 1790 0cb4 1146     		mov	r1, r2
ARM GAS  C:\Users\RECEPC~1\AppData\Local\Temp\ccFc1mZV.s 			page 40


 1791 0cb6 1A46     		mov	r2, r3
 1792 0cb8 FFF7FEFF 		bl	memcpy
 434:.\EncoreImpl.c ****                             StoreEepromPage(EEPROM_DISPENSER_PUMP22_TRANSACTION_PAGE);
 1793              		.loc 1 434 0
 1794 0cbc 4FF4E860 		mov	r0, #1856
 1795 0cc0 FFF7FEFF 		bl	StoreEepromPage
 1796 0cc4 4BE1     		b	.L50
 1797              	.L48:
 435:.\EncoreImpl.c ****                         }
 436:.\EncoreImpl.c ****                         else
 437:.\EncoreImpl.c ****                         {
 438:.\EncoreImpl.c ****                             ClearEepromBuffer();
 1798              		.loc 1 438 0
 1799 0cc6 FFF7FEFF 		bl	ClearEepromBuffer
 439:.\EncoreImpl.c ****                             LoadEepromPage(EEPROM_DISPENSER_PUMP3_LAYOUT_PAGE);
 1800              		.loc 1 439 0
 1801 0cca 4FF42070 		mov	r0, #640
 1802 0cce FFF7FEFF 		bl	LoadEepromPage
 440:.\EncoreImpl.c ****                             if(GetEepromBuffer()[0] == ((pjob->_ppump->_rxbuffer[0x04] & 0x0F) + 1)
 1803              		.loc 1 440 0
 1804 0cd2 FFF7FEFF 		bl	GetEepromBuffer
 1805 0cd6 0346     		mov	r3, r0
 1806 0cd8 1B78     		ldrb	r3, [r3]	@ zero_extendqisi2
 1807 0cda 1A46     		mov	r2, r3
 1808 0cdc 7B69     		ldr	r3, [r7, #20]
 1809 0cde DB69     		ldr	r3, [r3, #28]
 1810 0ce0 93F8A431 		ldrb	r3, [r3, #420]	@ zero_extendqisi2
 1811 0ce4 03F00F03 		and	r3, r3, #15
 1812 0ce8 0133     		adds	r3, r3, #1
 1813 0cea 9A42     		cmp	r2, r3
 1814 0cec 22D1     		bne	.L49
 441:.\EncoreImpl.c ****                             {
 442:.\EncoreImpl.c ****                                 ClearEepromBuffer();
 1815              		.loc 1 442 0
 1816 0cee FFF7FEFF 		bl	ClearEepromBuffer
 443:.\EncoreImpl.c ****                                 //Storing the current Date/Time for this transaction
 444:.\EncoreImpl.c ****                                 memcpy(GetEepromBuffer(), GetRtcBuffer(), 0x07);
 1817              		.loc 1 444 0
 1818 0cf2 FFF7FEFF 		bl	GetEepromBuffer
 1819 0cf6 0446     		mov	r4, r0
 1820 0cf8 FFF7FEFF 		bl	GetRtcBuffer
 1821 0cfc 0346     		mov	r3, r0
 1822 0cfe 2046     		mov	r0, r4
 1823 0d00 1946     		mov	r1, r3
 1824 0d02 0722     		movs	r2, #7
 1825 0d04 FFF7FEFF 		bl	memcpy
 445:.\EncoreImpl.c ****                                 memcpy(&GetEepromBuffer()[0x07], pjob->_ppump->_rxbuffer, pjob->_pp
 1826              		.loc 1 445 0
 1827 0d08 FFF7FEFF 		bl	GetEepromBuffer
 1828 0d0c 0346     		mov	r3, r0
 1829 0d0e D91D     		adds	r1, r3, #7
 1830 0d10 7B69     		ldr	r3, [r7, #20]
 1831 0d12 DB69     		ldr	r3, [r3, #28]
 1832 0d14 03F5D072 		add	r2, r3, #416
 1833 0d18 7B69     		ldr	r3, [r7, #20]
 1834 0d1a DB69     		ldr	r3, [r3, #28]
 1835 0d1c B3F82033 		ldrh	r3, [r3, #800]
ARM GAS  C:\Users\RECEPC~1\AppData\Local\Temp\ccFc1mZV.s 			page 41


 1836 0d20 0846     		mov	r0, r1
 1837 0d22 1146     		mov	r1, r2
 1838 0d24 1A46     		mov	r2, r3
 1839 0d26 FFF7FEFF 		bl	memcpy
 446:.\EncoreImpl.c ****                                 StoreEepromPage(EEPROM_DISPENSER_PUMP32_TRANSACTION_PAGE);
 1840              		.loc 1 446 0
 1841 0d2a 4FF40460 		mov	r0, #2112
 1842 0d2e FFF7FEFF 		bl	StoreEepromPage
 1843 0d32 14E1     		b	.L50
 1844              	.L49:
 447:.\EncoreImpl.c ****                             }
 448:.\EncoreImpl.c ****                             else
 449:.\EncoreImpl.c ****                             {
 450:.\EncoreImpl.c ****                                 ClearEepromBuffer();
 1845              		.loc 1 450 0
 1846 0d34 FFF7FEFF 		bl	ClearEepromBuffer
 451:.\EncoreImpl.c ****                                 LoadEepromPage(EEPROM_DISPENSER_PUMP4_LAYOUT_PAGE);
 1847              		.loc 1 451 0
 1848 0d38 4FF43070 		mov	r0, #704
 1849 0d3c FFF7FEFF 		bl	LoadEepromPage
 452:.\EncoreImpl.c ****                                 if(GetEepromBuffer()[0] == ((pjob->_ppump->_rxbuffer[0x04] & 0x0F) 
 1850              		.loc 1 452 0
 1851 0d40 FFF7FEFF 		bl	GetEepromBuffer
 1852 0d44 0346     		mov	r3, r0
 1853 0d46 1B78     		ldrb	r3, [r3]	@ zero_extendqisi2
 1854 0d48 1A46     		mov	r2, r3
 1855 0d4a 7B69     		ldr	r3, [r7, #20]
 1856 0d4c DB69     		ldr	r3, [r3, #28]
 1857 0d4e 93F8A431 		ldrb	r3, [r3, #420]	@ zero_extendqisi2
 1858 0d52 03F00F03 		and	r3, r3, #15
 1859 0d56 0133     		adds	r3, r3, #1
 1860 0d58 9A42     		cmp	r2, r3
 1861 0d5a 40F00081 		bne	.L50
 453:.\EncoreImpl.c ****                                 {
 454:.\EncoreImpl.c ****                                     ClearEepromBuffer();
 1862              		.loc 1 454 0
 1863 0d5e FFF7FEFF 		bl	ClearEepromBuffer
 455:.\EncoreImpl.c ****                                     //Storing the current Date/Time for this transaction
 456:.\EncoreImpl.c ****                                     memcpy(GetEepromBuffer(), GetRtcBuffer(), 0x07);
 1864              		.loc 1 456 0
 1865 0d62 FFF7FEFF 		bl	GetEepromBuffer
 1866 0d66 0446     		mov	r4, r0
 1867 0d68 FFF7FEFF 		bl	GetRtcBuffer
 1868 0d6c 0346     		mov	r3, r0
 1869 0d6e 2046     		mov	r0, r4
 1870 0d70 1946     		mov	r1, r3
 1871 0d72 0722     		movs	r2, #7
 1872 0d74 FFF7FEFF 		bl	memcpy
 457:.\EncoreImpl.c ****                                     memcpy(&GetEepromBuffer()[0x07], pjob->_ppump->_rxbuffer, pjob-
 1873              		.loc 1 457 0
 1874 0d78 FFF7FEFF 		bl	GetEepromBuffer
 1875 0d7c 0346     		mov	r3, r0
 1876 0d7e D91D     		adds	r1, r3, #7
 1877 0d80 7B69     		ldr	r3, [r7, #20]
 1878 0d82 DB69     		ldr	r3, [r3, #28]
 1879 0d84 03F5D072 		add	r2, r3, #416
 1880 0d88 7B69     		ldr	r3, [r7, #20]
ARM GAS  C:\Users\RECEPC~1\AppData\Local\Temp\ccFc1mZV.s 			page 42


 1881 0d8a DB69     		ldr	r3, [r3, #28]
 1882 0d8c B3F82033 		ldrh	r3, [r3, #800]
 1883 0d90 0846     		mov	r0, r1
 1884 0d92 1146     		mov	r1, r2
 1885 0d94 1A46     		mov	r2, r3
 1886 0d96 FFF7FEFF 		bl	memcpy
 458:.\EncoreImpl.c ****                                     StoreEepromPage(EEPROM_DISPENSER_PUMP42_TRANSACTION_PAGE);
 1887              		.loc 1 458 0
 1888 0d9a 4FF41460 		mov	r0, #2368
 1889 0d9e FFF7FEFF 		bl	StoreEepromPage
 1890 0da2 DCE0     		b	.L50
 1891              	.L45:
 459:.\EncoreImpl.c ****                                 }
 460:.\EncoreImpl.c ****                             }
 461:.\EncoreImpl.c ****                         }
 462:.\EncoreImpl.c ****                     }
 463:.\EncoreImpl.c ****                 }else{//CREDIT TRANSACTION
 464:.\EncoreImpl.c ****                     //HERE WE STORE THE LAST TRANSACTION IN EEPROM! ALWAYS THE PREVIOUS TRANSACTION
 465:.\EncoreImpl.c ****                     //WILL BE OVERWRITTEN AND LOST.
 466:.\EncoreImpl.c ****                     //IN CASE OF A "CREDIT SALE", THE WHOLE DATA WILL BE STORED IN A SEPARATE MEMOR
 467:.\EncoreImpl.c ****                     //SINCE IN CASE OF A RF LINK DROP, THE STATE OF THE SALE COULD BE RECOVERED BY 
 468:.\EncoreImpl.c ****                     LoadEepromPage(EEPROM_DISPENSER_PUMP1_LAYOUT_PAGE);
 1892              		.loc 1 468 0
 1893 0da4 4FF40070 		mov	r0, #512
 1894 0da8 FFF7FEFF 		bl	LoadEepromPage
 469:.\EncoreImpl.c ****                     if(GetEepromBuffer()[0] == ((pjob->_ppump->_rxbuffer[0x04] & 0x0F) + 1))
 1895              		.loc 1 469 0
 1896 0dac FFF7FEFF 		bl	GetEepromBuffer
 1897 0db0 0346     		mov	r3, r0
 1898 0db2 1B78     		ldrb	r3, [r3]	@ zero_extendqisi2
 1899 0db4 1A46     		mov	r2, r3
 1900 0db6 7B69     		ldr	r3, [r7, #20]
 1901 0db8 DB69     		ldr	r3, [r3, #28]
 1902 0dba 93F8A431 		ldrb	r3, [r3, #420]	@ zero_extendqisi2
 1903 0dbe 03F00F03 		and	r3, r3, #15
 1904 0dc2 0133     		adds	r3, r3, #1
 1905 0dc4 9A42     		cmp	r2, r3
 1906 0dc6 22D1     		bne	.L51
 470:.\EncoreImpl.c ****                     {
 471:.\EncoreImpl.c ****                         ClearEepromBuffer();
 1907              		.loc 1 471 0
 1908 0dc8 FFF7FEFF 		bl	ClearEepromBuffer
 472:.\EncoreImpl.c ****                         //Storing the current Date/Time for this transaction
 473:.\EncoreImpl.c ****                         memcpy(GetEepromBuffer(), GetRtcBuffer(), 0x07);
 1909              		.loc 1 473 0
 1910 0dcc FFF7FEFF 		bl	GetEepromBuffer
 1911 0dd0 0446     		mov	r4, r0
 1912 0dd2 FFF7FEFF 		bl	GetRtcBuffer
 1913 0dd6 0346     		mov	r3, r0
 1914 0dd8 2046     		mov	r0, r4
 1915 0dda 1946     		mov	r1, r3
 1916 0ddc 0722     		movs	r2, #7
 1917 0dde FFF7FEFF 		bl	memcpy
 474:.\EncoreImpl.c ****                         memcpy(&GetEepromBuffer()[0x07], pjob->_ppump->_rxbuffer, pjob->_ppump->_rx
 1918              		.loc 1 474 0
 1919 0de2 FFF7FEFF 		bl	GetEepromBuffer
 1920 0de6 0346     		mov	r3, r0
ARM GAS  C:\Users\RECEPC~1\AppData\Local\Temp\ccFc1mZV.s 			page 43


 1921 0de8 D91D     		adds	r1, r3, #7
 1922 0dea 7B69     		ldr	r3, [r7, #20]
 1923 0dec DB69     		ldr	r3, [r3, #28]
 1924 0dee 03F5D072 		add	r2, r3, #416
 1925 0df2 7B69     		ldr	r3, [r7, #20]
 1926 0df4 DB69     		ldr	r3, [r3, #28]
 1927 0df6 B3F82033 		ldrh	r3, [r3, #800]
 1928 0dfa 0846     		mov	r0, r1
 1929 0dfc 1146     		mov	r1, r2
 1930 0dfe 1A46     		mov	r2, r3
 1931 0e00 FFF7FEFF 		bl	memcpy
 475:.\EncoreImpl.c ****                         StoreEepromPage(EEPROM_DISPENSER_PUMP14_TRANSACTION_PAGE);
 1932              		.loc 1 475 0
 1933 0e04 4FF4D860 		mov	r0, #1728
 1934 0e08 FFF7FEFF 		bl	StoreEepromPage
 1935 0e0c A7E0     		b	.L50
 1936              	.L51:
 476:.\EncoreImpl.c ****                     }
 477:.\EncoreImpl.c ****                     else
 478:.\EncoreImpl.c ****                     {
 479:.\EncoreImpl.c ****                         ClearEepromBuffer();
 1937              		.loc 1 479 0
 1938 0e0e FFF7FEFF 		bl	ClearEepromBuffer
 480:.\EncoreImpl.c ****                         LoadEepromPage(EEPROM_DISPENSER_PUMP2_LAYOUT_PAGE);
 1939              		.loc 1 480 0
 1940 0e12 4FF41070 		mov	r0, #576
 1941 0e16 FFF7FEFF 		bl	LoadEepromPage
 481:.\EncoreImpl.c ****                         if(GetEepromBuffer()[0] == ((pjob->_ppump->_rxbuffer[0x04] & 0x0F) + 1))
 1942              		.loc 1 481 0
 1943 0e1a FFF7FEFF 		bl	GetEepromBuffer
 1944 0e1e 0346     		mov	r3, r0
 1945 0e20 1B78     		ldrb	r3, [r3]	@ zero_extendqisi2
 1946 0e22 1A46     		mov	r2, r3
 1947 0e24 7B69     		ldr	r3, [r7, #20]
 1948 0e26 DB69     		ldr	r3, [r3, #28]
 1949 0e28 93F8A431 		ldrb	r3, [r3, #420]	@ zero_extendqisi2
 1950 0e2c 03F00F03 		and	r3, r3, #15
 1951 0e30 0133     		adds	r3, r3, #1
 1952 0e32 9A42     		cmp	r2, r3
 1953 0e34 26D1     		bne	.L52
 482:.\EncoreImpl.c ****                         {
 483:.\EncoreImpl.c ****                             ClearEepromBuffer();
 1954              		.loc 1 483 0
 1955 0e36 FFF7FEFF 		bl	ClearEepromBuffer
 484:.\EncoreImpl.c ****                             //Storing the current Date/Time for this transaction
 485:.\EncoreImpl.c ****                             memcpy(GetEepromBuffer(), GetRtcBuffer(), 0x07);
 1956              		.loc 1 485 0
 1957 0e3a FFF7FEFF 		bl	GetEepromBuffer
 1958 0e3e 0446     		mov	r4, r0
 1959 0e40 FFF7FEFF 		bl	GetRtcBuffer
 1960 0e44 0346     		mov	r3, r0
 1961 0e46 2046     		mov	r0, r4
 1962 0e48 1946     		mov	r1, r3
 1963 0e4a 0722     		movs	r2, #7
 1964 0e4c FFF7FEFF 		bl	memcpy
 486:.\EncoreImpl.c ****                             memcpy(&GetEepromBuffer()[0x07], pjob->_ppump->_rxbuffer, pjob->_ppump-
 1965              		.loc 1 486 0
ARM GAS  C:\Users\RECEPC~1\AppData\Local\Temp\ccFc1mZV.s 			page 44


 1966 0e50 FFF7FEFF 		bl	GetEepromBuffer
 1967 0e54 0346     		mov	r3, r0
 1968 0e56 D91D     		adds	r1, r3, #7
 1969 0e58 7B69     		ldr	r3, [r7, #20]
 1970 0e5a DB69     		ldr	r3, [r3, #28]
 1971 0e5c 03F5D072 		add	r2, r3, #416
 1972 0e60 7B69     		ldr	r3, [r7, #20]
 1973 0e62 DB69     		ldr	r3, [r3, #28]
 1974 0e64 B3F82033 		ldrh	r3, [r3, #800]
 1975 0e68 0846     		mov	r0, r1
 1976 0e6a 1146     		mov	r1, r2
 1977 0e6c 1A46     		mov	r2, r3
 1978 0e6e FFF7FEFF 		bl	memcpy
 487:.\EncoreImpl.c ****                             StoreEepromPage(EEPROM_DISPENSER_PUMP24_TRANSACTION_PAGE);
 1979              		.loc 1 487 0
 1980 0e72 4FF4F860 		mov	r0, #1984
 1981 0e76 FFF7FEFF 		bl	StoreEepromPage
 1982 0e7a 70E0     		b	.L50
 1983              	.L57:
 1984              		.align	2
 1985              	.L56:
 1986 0e7c 00000000 		.word	_g_dispenserlayoutinfo
 1987 0e80 CDCCCCCC 		.word	-858993459
 1988              	.L52:
 488:.\EncoreImpl.c ****                         }
 489:.\EncoreImpl.c ****                         else
 490:.\EncoreImpl.c ****                         {
 491:.\EncoreImpl.c ****                             ClearEepromBuffer();
 1989              		.loc 1 491 0
 1990 0e84 FFF7FEFF 		bl	ClearEepromBuffer
 492:.\EncoreImpl.c ****                             LoadEepromPage(EEPROM_DISPENSER_PUMP3_LAYOUT_PAGE);
 1991              		.loc 1 492 0
 1992 0e88 4FF42070 		mov	r0, #640
 1993 0e8c FFF7FEFF 		bl	LoadEepromPage
 493:.\EncoreImpl.c ****                             if(GetEepromBuffer()[0] == ((pjob->_ppump->_rxbuffer[0x04] & 0x0F) + 1)
 1994              		.loc 1 493 0
 1995 0e90 FFF7FEFF 		bl	GetEepromBuffer
 1996 0e94 0346     		mov	r3, r0
 1997 0e96 1B78     		ldrb	r3, [r3]	@ zero_extendqisi2
 1998 0e98 1A46     		mov	r2, r3
 1999 0e9a 7B69     		ldr	r3, [r7, #20]
 2000 0e9c DB69     		ldr	r3, [r3, #28]
 2001 0e9e 93F8A431 		ldrb	r3, [r3, #420]	@ zero_extendqisi2
 2002 0ea2 03F00F03 		and	r3, r3, #15
 2003 0ea6 0133     		adds	r3, r3, #1
 2004 0ea8 9A42     		cmp	r2, r3
 2005 0eaa 22D1     		bne	.L53
 494:.\EncoreImpl.c ****                             {
 495:.\EncoreImpl.c ****                                 ClearEepromBuffer();
 2006              		.loc 1 495 0
 2007 0eac FFF7FEFF 		bl	ClearEepromBuffer
 496:.\EncoreImpl.c ****                                 //Storing the current Date/Time for this transaction
 497:.\EncoreImpl.c ****                                 memcpy(GetEepromBuffer(), GetRtcBuffer(), 0x07);
 2008              		.loc 1 497 0
 2009 0eb0 FFF7FEFF 		bl	GetEepromBuffer
 2010 0eb4 0446     		mov	r4, r0
 2011 0eb6 FFF7FEFF 		bl	GetRtcBuffer
ARM GAS  C:\Users\RECEPC~1\AppData\Local\Temp\ccFc1mZV.s 			page 45


 2012 0eba 0346     		mov	r3, r0
 2013 0ebc 2046     		mov	r0, r4
 2014 0ebe 1946     		mov	r1, r3
 2015 0ec0 0722     		movs	r2, #7
 2016 0ec2 FFF7FEFF 		bl	memcpy
 498:.\EncoreImpl.c ****                                 memcpy(&GetEepromBuffer()[0x07], pjob->_ppump->_rxbuffer, pjob->_pp
 2017              		.loc 1 498 0
 2018 0ec6 FFF7FEFF 		bl	GetEepromBuffer
 2019 0eca 0346     		mov	r3, r0
 2020 0ecc D91D     		adds	r1, r3, #7
 2021 0ece 7B69     		ldr	r3, [r7, #20]
 2022 0ed0 DB69     		ldr	r3, [r3, #28]
 2023 0ed2 03F5D072 		add	r2, r3, #416
 2024 0ed6 7B69     		ldr	r3, [r7, #20]
 2025 0ed8 DB69     		ldr	r3, [r3, #28]
 2026 0eda B3F82033 		ldrh	r3, [r3, #800]
 2027 0ede 0846     		mov	r0, r1
 2028 0ee0 1146     		mov	r1, r2
 2029 0ee2 1A46     		mov	r2, r3
 2030 0ee4 FFF7FEFF 		bl	memcpy
 499:.\EncoreImpl.c ****                                 StoreEepromPage(EEPROM_DISPENSER_PUMP34_TRANSACTION_PAGE);
 2031              		.loc 1 499 0
 2032 0ee8 4FF40C60 		mov	r0, #2240
 2033 0eec FFF7FEFF 		bl	StoreEepromPage
 2034 0ef0 35E0     		b	.L50
 2035              	.L53:
 500:.\EncoreImpl.c ****                             }
 501:.\EncoreImpl.c ****                             else
 502:.\EncoreImpl.c ****                             {
 503:.\EncoreImpl.c ****                                 ClearEepromBuffer();
 2036              		.loc 1 503 0
 2037 0ef2 FFF7FEFF 		bl	ClearEepromBuffer
 504:.\EncoreImpl.c ****                                 LoadEepromPage(EEPROM_DISPENSER_PUMP4_LAYOUT_PAGE);
 2038              		.loc 1 504 0
 2039 0ef6 4FF43070 		mov	r0, #704
 2040 0efa FFF7FEFF 		bl	LoadEepromPage
 505:.\EncoreImpl.c ****                                 if(GetEepromBuffer()[0] == ((pjob->_ppump->_rxbuffer[0x04] & 0x0F) 
 2041              		.loc 1 505 0
 2042 0efe FFF7FEFF 		bl	GetEepromBuffer
 2043 0f02 0346     		mov	r3, r0
 2044 0f04 1B78     		ldrb	r3, [r3]	@ zero_extendqisi2
 2045 0f06 1A46     		mov	r2, r3
 2046 0f08 7B69     		ldr	r3, [r7, #20]
 2047 0f0a DB69     		ldr	r3, [r3, #28]
 2048 0f0c 93F8A431 		ldrb	r3, [r3, #420]	@ zero_extendqisi2
 2049 0f10 03F00F03 		and	r3, r3, #15
 2050 0f14 0133     		adds	r3, r3, #1
 2051 0f16 9A42     		cmp	r2, r3
 2052 0f18 21D1     		bne	.L50
 506:.\EncoreImpl.c ****                                 {
 507:.\EncoreImpl.c ****                                     ClearEepromBuffer();
 2053              		.loc 1 507 0
 2054 0f1a FFF7FEFF 		bl	ClearEepromBuffer
 508:.\EncoreImpl.c ****                                     //Storing the current Date/Time for this transaction
 509:.\EncoreImpl.c ****                                     memcpy(GetEepromBuffer(), GetRtcBuffer(), 0x07);
 2055              		.loc 1 509 0
 2056 0f1e FFF7FEFF 		bl	GetEepromBuffer
ARM GAS  C:\Users\RECEPC~1\AppData\Local\Temp\ccFc1mZV.s 			page 46


 2057 0f22 0446     		mov	r4, r0
 2058 0f24 FFF7FEFF 		bl	GetRtcBuffer
 2059 0f28 0346     		mov	r3, r0
 2060 0f2a 2046     		mov	r0, r4
 2061 0f2c 1946     		mov	r1, r3
 2062 0f2e 0722     		movs	r2, #7
 2063 0f30 FFF7FEFF 		bl	memcpy
 510:.\EncoreImpl.c ****                                     memcpy(&GetEepromBuffer()[0x07], pjob->_ppump->_rxbuffer, pjob-
 2064              		.loc 1 510 0
 2065 0f34 FFF7FEFF 		bl	GetEepromBuffer
 2066 0f38 0346     		mov	r3, r0
 2067 0f3a D91D     		adds	r1, r3, #7
 2068 0f3c 7B69     		ldr	r3, [r7, #20]
 2069 0f3e DB69     		ldr	r3, [r3, #28]
 2070 0f40 03F5D072 		add	r2, r3, #416
 2071 0f44 7B69     		ldr	r3, [r7, #20]
 2072 0f46 DB69     		ldr	r3, [r3, #28]
 2073 0f48 B3F82033 		ldrh	r3, [r3, #800]
 2074 0f4c 0846     		mov	r0, r1
 2075 0f4e 1146     		mov	r1, r2
 2076 0f50 1A46     		mov	r2, r3
 2077 0f52 FFF7FEFF 		bl	memcpy
 511:.\EncoreImpl.c ****                                     StoreEepromPage(EEPROM_DISPENSER_PUMP44_TRANSACTION_PAGE);
 2078              		.loc 1 511 0
 2079 0f56 4FF41C60 		mov	r0, #2496
 2080 0f5a FFF7FEFF 		bl	StoreEepromPage
 2081              	.L50:
 512:.\EncoreImpl.c ****                                 }
 513:.\EncoreImpl.c ****                             }
 514:.\EncoreImpl.c ****                         }
 515:.\EncoreImpl.c ****                     }
 516:.\EncoreImpl.c ****                 }
 517:.\EncoreImpl.c ****                 I2CBusUnlock();
 2082              		.loc 1 517 0
 2083 0f5e FFF7FEFF 		bl	I2CBusUnlock
 2084              	.L34:
 518:.\EncoreImpl.c ****             }
 519:.\EncoreImpl.c ****                 
 520:.\EncoreImpl.c ****             //HERE WE ATTEMPT TO PUSH THE TRANSACTION INTO THE PUMP'S TRANSACTIONAL QUEUE.
 521:.\EncoreImpl.c ****             //THIS IS DONE ONLY IF THERE IS ROOM IN THE QUEUE, OTHERWISE THIS STATE WON'T
 522:.\EncoreImpl.c ****             //BE REPORTED TO THE REMOTE PEER.
 523:.\EncoreImpl.c ****             pjob->_ppump->PumpTransQueueLock(pjob->_ppump);
 2085              		.loc 1 523 0
 2086 0f62 7B69     		ldr	r3, [r7, #20]
 2087 0f64 DB69     		ldr	r3, [r3, #28]
 2088 0f66 D3F8443B 		ldr	r3, [r3, #2884]
 2089 0f6a 7A69     		ldr	r2, [r7, #20]
 2090 0f6c D269     		ldr	r2, [r2, #28]
 2091 0f6e 1046     		mov	r0, r2
 2092 0f70 9847     		blx	r3
 524:.\EncoreImpl.c ****             PNEAR_PUMPTRANSACTIONALSTATEPTR pts = pjob->_ppump->PumpTransQueueAllocate(pjob->_ppump
 2093              		.loc 1 524 0
 2094 0f72 7B69     		ldr	r3, [r7, #20]
 2095 0f74 DB69     		ldr	r3, [r3, #28]
 2096 0f76 D3F8583B 		ldr	r3, [r3, #2904]
 2097 0f7a 7A69     		ldr	r2, [r7, #20]
 2098 0f7c D269     		ldr	r2, [r2, #28]
ARM GAS  C:\Users\RECEPC~1\AppData\Local\Temp\ccFc1mZV.s 			page 47


 2099 0f7e 1046     		mov	r0, r2
 2100 0f80 9847     		blx	r3
 2101 0f82 B860     		str	r0, [r7, #8]
 525:.\EncoreImpl.c ****             pjob->_ppump->PumpTransQueueUnlock(pjob->_ppump);
 2102              		.loc 1 525 0
 2103 0f84 7B69     		ldr	r3, [r7, #20]
 2104 0f86 DB69     		ldr	r3, [r3, #28]
 2105 0f88 D3F8483B 		ldr	r3, [r3, #2888]
 2106 0f8c 7A69     		ldr	r2, [r7, #20]
 2107 0f8e D269     		ldr	r2, [r2, #28]
 2108 0f90 1046     		mov	r0, r2
 2109 0f92 9847     		blx	r3
 526:.\EncoreImpl.c ****             if(pts)
 2110              		.loc 1 526 0
 2111 0f94 BB68     		ldr	r3, [r7, #8]
 2112 0f96 002B     		cmp	r3, #0
 2113 0f98 31D0     		beq	.L13
 527:.\EncoreImpl.c ****             {
 528:.\EncoreImpl.c ****                 pts->_transtate = RF_MUX_CASH_SALE_END_REPORT_RESPONSE;
 2114              		.loc 1 528 0
 2115 0f9a BB68     		ldr	r3, [r7, #8]
 2116 0f9c A422     		movs	r2, #164
 2117 0f9e 5A70     		strb	r2, [r3, #1]
 529:.\EncoreImpl.c ****                 memcpy(pts->_buffer, pjob->_ppump->_rxbuffer, pjob->_ppump->_rxbuffersize);
 2118              		.loc 1 529 0
 2119 0fa0 BB68     		ldr	r3, [r7, #8]
 2120 0fa2 991C     		adds	r1, r3, #2
 2121 0fa4 7B69     		ldr	r3, [r7, #20]
 2122 0fa6 DB69     		ldr	r3, [r3, #28]
 2123 0fa8 03F5D072 		add	r2, r3, #416
 2124 0fac 7B69     		ldr	r3, [r7, #20]
 2125 0fae DB69     		ldr	r3, [r3, #28]
 2126 0fb0 B3F82033 		ldrh	r3, [r3, #800]
 2127 0fb4 0846     		mov	r0, r1
 2128 0fb6 1146     		mov	r1, r2
 2129 0fb8 1A46     		mov	r2, r3
 2130 0fba FFF7FEFF 		bl	memcpy
 530:.\EncoreImpl.c ****                 pts->_buffersize = pjob->_ppump->_rxbuffersize;
 2131              		.loc 1 530 0
 2132 0fbe 7B69     		ldr	r3, [r7, #20]
 2133 0fc0 DB69     		ldr	r3, [r3, #28]
 2134 0fc2 B3F82023 		ldrh	r2, [r3, #800]
 2135 0fc6 BB68     		ldr	r3, [r7, #8]
 2136 0fc8 A3F80221 		strh	r2, [r3, #258]	@ movhi
 531:.\EncoreImpl.c ****                 
 532:.\EncoreImpl.c ****                 pjob->_ppump->PumpTransQueueLock(pjob->_ppump);
 2137              		.loc 1 532 0
 2138 0fcc 7B69     		ldr	r3, [r7, #20]
 2139 0fce DB69     		ldr	r3, [r3, #28]
 2140 0fd0 D3F8443B 		ldr	r3, [r3, #2884]
 2141 0fd4 7A69     		ldr	r2, [r7, #20]
 2142 0fd6 D269     		ldr	r2, [r2, #28]
 2143 0fd8 1046     		mov	r0, r2
 2144 0fda 9847     		blx	r3
 533:.\EncoreImpl.c ****                 pjob->_ppump->PumpTransQueueEnqueue(pjob->_ppump, pts);
 2145              		.loc 1 533 0
 2146 0fdc 7B69     		ldr	r3, [r7, #20]
ARM GAS  C:\Users\RECEPC~1\AppData\Local\Temp\ccFc1mZV.s 			page 48


 2147 0fde DB69     		ldr	r3, [r3, #28]
 2148 0fe0 D3F8503B 		ldr	r3, [r3, #2896]
 2149 0fe4 7A69     		ldr	r2, [r7, #20]
 2150 0fe6 D269     		ldr	r2, [r2, #28]
 2151 0fe8 1046     		mov	r0, r2
 2152 0fea B968     		ldr	r1, [r7, #8]
 2153 0fec 9847     		blx	r3
 534:.\EncoreImpl.c ****                 pjob->_ppump->PumpTransQueueUnlock(pjob->_ppump);
 2154              		.loc 1 534 0
 2155 0fee 7B69     		ldr	r3, [r7, #20]
 2156 0ff0 DB69     		ldr	r3, [r3, #28]
 2157 0ff2 D3F8483B 		ldr	r3, [r3, #2888]
 2158 0ff6 7A69     		ldr	r2, [r7, #20]
 2159 0ff8 D269     		ldr	r2, [r2, #28]
 2160 0ffa 1046     		mov	r0, r2
 2161 0ffc 9847     		blx	r3
 2162              	.L13:
 2163              	.LBE3:
 535:.\EncoreImpl.c ****             }
 536:.\EncoreImpl.c ****             
 537:.\EncoreImpl.c ****         }  
 538:.\EncoreImpl.c ****     }
 539:.\EncoreImpl.c **** }
 2164              		.loc 1 539 0
 2165 0ffe 1837     		adds	r7, r7, #24
 2166              		.cfi_def_cfa_offset 24
 2167 1000 BD46     		mov	sp, r7
 2168              		.cfi_def_cfa_register 13
 2169              		@ sp needed
 2170 1002 BDE8B083 		pop	{r4, r5, r7, r8, r9, pc}
 2171              		.cfi_endproc
 2172              	.LFE66:
 2173              		.size	ProcessPumpTransactionData, .-ProcessPumpTransactionData
 2174 1006 00BF     		.section	.text.ProcessPumpTotalsDataReport,"ax",%progbits
 2175              		.align	2
 2176              		.global	ProcessPumpTotalsDataReport
 2177              		.thumb
 2178              		.thumb_func
 2179              		.type	ProcessPumpTotalsDataReport, %function
 2180              	ProcessPumpTotalsDataReport:
 2181              	.LFB67:
 540:.\EncoreImpl.c **** 
 541:.\EncoreImpl.c **** //@Created By: HIJH
 542:.\EncoreImpl.c **** //@Septembre de 2016
 543:.\EncoreImpl.c **** void ProcessPumpTotalsDataReport(void *pparam)
 544:.\EncoreImpl.c **** {
 2182              		.loc 1 544 0
 2183              		.cfi_startproc
 2184              		@ args = 0, pretend = 0, frame = 24
 2185              		@ frame_needed = 1, uses_anonymous_args = 0
 2186 0000 80B5     		push	{r7, lr}
 2187              		.cfi_def_cfa_offset 8
 2188              		.cfi_offset 7, -8
 2189              		.cfi_offset 14, -4
 2190 0002 86B0     		sub	sp, sp, #24
 2191              		.cfi_def_cfa_offset 32
 2192 0004 00AF     		add	r7, sp, #0
ARM GAS  C:\Users\RECEPC~1\AppData\Local\Temp\ccFc1mZV.s 			page 49


 2193              		.cfi_def_cfa_register 7
 2194 0006 7860     		str	r0, [r7, #4]
 545:.\EncoreImpl.c ****     PPUMPTRANSACTIONJOBCONTEXTPTR pjob = (PPUMPTRANSACTIONJOBCONTEXTPTR)pparam;
 2195              		.loc 1 545 0
 2196 0008 7B68     		ldr	r3, [r7, #4]
 2197 000a 7B61     		str	r3, [r7, #20]
 546:.\EncoreImpl.c ****     if(pjob)
 2198              		.loc 1 546 0
 2199 000c 7B69     		ldr	r3, [r7, #20]
 2200 000e 002B     		cmp	r3, #0
 2201 0010 00F0C180 		beq	.L58
 2202              	.LBB6:
 547:.\EncoreImpl.c ****     {
 548:.\EncoreImpl.c ****         bool dataok = true;
 2203              		.loc 1 548 0
 2204 0014 0123     		movs	r3, #1
 2205 0016 FB74     		strb	r3, [r7, #19]
 549:.\EncoreImpl.c ****         uint8 numhoses = 0x00;
 2206              		.loc 1 549 0
 2207 0018 0023     		movs	r3, #0
 2208 001a BB74     		strb	r3, [r7, #18]
 550:.\EncoreImpl.c ****         switch(pjob->_ppump->_pumpindex)
 2209              		.loc 1 550 0
 2210 001c 7B69     		ldr	r3, [r7, #20]
 2211 001e DB69     		ldr	r3, [r3, #28]
 2212 0020 5B78     		ldrb	r3, [r3, #1]	@ zero_extendqisi2
 2213 0022 002B     		cmp	r3, #0
 2214 0024 02D0     		beq	.L61
 2215 0026 012B     		cmp	r3, #1
 2216 0028 04D0     		beq	.L62
 2217 002a 07E0     		b	.L60
 2218              	.L61:
 551:.\EncoreImpl.c ****         {
 552:.\EncoreImpl.c ****             case 0x00:
 553:.\EncoreImpl.c ****             {
 554:.\EncoreImpl.c ****                 numhoses = _g_dispenserlayoutinfo._hosesposition1;
 2219              		.loc 1 554 0
 2220 002c 5B4B     		ldr	r3, .L66
 2221 002e DB78     		ldrb	r3, [r3, #3]
 2222 0030 BB74     		strb	r3, [r7, #18]
 555:.\EncoreImpl.c ****                 break;
 2223              		.loc 1 555 0
 2224 0032 03E0     		b	.L60
 2225              	.L62:
 556:.\EncoreImpl.c ****             }
 557:.\EncoreImpl.c ****             case 0x01:
 558:.\EncoreImpl.c ****             {
 559:.\EncoreImpl.c ****                 numhoses = _g_dispenserlayoutinfo._hosesposition2;
 2226              		.loc 1 559 0
 2227 0034 594B     		ldr	r3, .L66
 2228 0036 1B79     		ldrb	r3, [r3, #4]
 2229 0038 BB74     		strb	r3, [r7, #18]
 560:.\EncoreImpl.c ****                 break;
 2230              		.loc 1 560 0
 2231 003a 00BF     		nop
 2232              	.L60:
 561:.\EncoreImpl.c ****             }
ARM GAS  C:\Users\RECEPC~1\AppData\Local\Temp\ccFc1mZV.s 			page 50


 562:.\EncoreImpl.c ****         }
 563:.\EncoreImpl.c ****         
 564:.\EncoreImpl.c ****         pjob->_reenqueue = false;
 2233              		.loc 1 564 0
 2234 003c 7B69     		ldr	r3, [r7, #20]
 2235 003e 0022     		movs	r2, #0
 2236 0040 1A70     		strb	r2, [r3]
 565:.\EncoreImpl.c ****         
 566:.\EncoreImpl.c ****         pjob->_ppump->PumpTransQueueLock(pjob->_ppump);
 2237              		.loc 1 566 0
 2238 0042 7B69     		ldr	r3, [r7, #20]
 2239 0044 DB69     		ldr	r3, [r3, #28]
 2240 0046 D3F8443B 		ldr	r3, [r3, #2884]
 2241 004a 7A69     		ldr	r2, [r7, #20]
 2242 004c D269     		ldr	r2, [r2, #28]
 2243 004e 1046     		mov	r0, r2
 2244 0050 9847     		blx	r3
 567:.\EncoreImpl.c ****         bool transtatefound = pjob->_ppump->PumpTransQueueFind(pjob->_ppump, RF_MUX_TOTALS_REPORT_R
 2245              		.loc 1 567 0
 2246 0052 7B69     		ldr	r3, [r7, #20]
 2247 0054 DB69     		ldr	r3, [r3, #28]
 2248 0056 D3F84C3B 		ldr	r3, [r3, #2892]
 2249 005a 7A69     		ldr	r2, [r7, #20]
 2250 005c D269     		ldr	r2, [r2, #28]
 2251 005e 1046     		mov	r0, r2
 2252 0060 E821     		movs	r1, #232
 2253 0062 9847     		blx	r3
 2254 0064 0346     		mov	r3, r0
 2255 0066 7B74     		strb	r3, [r7, #17]
 568:.\EncoreImpl.c ****         PNEAR_PUMPTRANSACTIONALSTATEPTR pts = pjob->_ppump->PumpTransQueueAllocate(pjob->_ppump);
 2256              		.loc 1 568 0
 2257 0068 7B69     		ldr	r3, [r7, #20]
 2258 006a DB69     		ldr	r3, [r3, #28]
 2259 006c D3F8583B 		ldr	r3, [r3, #2904]
 2260 0070 7A69     		ldr	r2, [r7, #20]
 2261 0072 D269     		ldr	r2, [r2, #28]
 2262 0074 1046     		mov	r0, r2
 2263 0076 9847     		blx	r3
 2264 0078 F860     		str	r0, [r7, #12]
 569:.\EncoreImpl.c ****         PNEAR_PUMPTRANSACTIONALSTATEPTR ptstemp = pjob->_ppump->PumpTransQueueAllocate(pjob->_ppump
 2265              		.loc 1 569 0
 2266 007a 7B69     		ldr	r3, [r7, #20]
 2267 007c DB69     		ldr	r3, [r3, #28]
 2268 007e D3F8583B 		ldr	r3, [r3, #2904]
 2269 0082 7A69     		ldr	r2, [r7, #20]
 2270 0084 D269     		ldr	r2, [r2, #28]
 2271 0086 1046     		mov	r0, r2
 2272 0088 9847     		blx	r3
 2273 008a B860     		str	r0, [r7, #8]
 570:.\EncoreImpl.c ****         
 571:.\EncoreImpl.c ****         pjob->_ppump->PumpTransQueueUnlock(pjob->_ppump);
 2274              		.loc 1 571 0
 2275 008c 7B69     		ldr	r3, [r7, #20]
 2276 008e DB69     		ldr	r3, [r3, #28]
 2277 0090 D3F8483B 		ldr	r3, [r3, #2888]
 2278 0094 7A69     		ldr	r2, [r7, #20]
 2279 0096 D269     		ldr	r2, [r2, #28]
ARM GAS  C:\Users\RECEPC~1\AppData\Local\Temp\ccFc1mZV.s 			page 51


 2280 0098 1046     		mov	r0, r2
 2281 009a 9847     		blx	r3
 572:.\EncoreImpl.c ****         if(ptstemp)
 2282              		.loc 1 572 0
 2283 009c BB68     		ldr	r3, [r7, #8]
 2284 009e 002B     		cmp	r3, #0
 2285 00a0 68D0     		beq	.L63
 573:.\EncoreImpl.c ****         {
 574:.\EncoreImpl.c ****             if(pts && !transtatefound)
 2286              		.loc 1 574 0
 2287 00a2 FB68     		ldr	r3, [r7, #12]
 2288 00a4 002B     		cmp	r3, #0
 2289 00a6 41D0     		beq	.L64
 2290              		.loc 1 574 0 is_stmt 0 discriminator 1
 2291 00a8 7B7C     		ldrb	r3, [r7, #17]
 2292 00aa 83F00103 		eor	r3, r3, #1
 2293 00ae DBB2     		uxtb	r3, r3
 2294 00b0 002B     		cmp	r3, #0
 2295 00b2 3BD0     		beq	.L64
 575:.\EncoreImpl.c ****             {
 576:.\EncoreImpl.c ****                 pts->_transtate = RF_MUX_TOTALS_REPORT_RESPONSE;
 2296              		.loc 1 576 0 is_stmt 1
 2297 00b4 FB68     		ldr	r3, [r7, #12]
 2298 00b6 E822     		movs	r2, #232
 2299 00b8 5A70     		strb	r2, [r3, #1]
 577:.\EncoreImpl.c ****                 
 578:.\EncoreImpl.c ****                 memcpy(pts->_buffer, pjob->_ppump->_rxbuffer, pjob->_ppump->_rxbuffersize);
 2300              		.loc 1 578 0
 2301 00ba FB68     		ldr	r3, [r7, #12]
 2302 00bc 991C     		adds	r1, r3, #2
 2303 00be 7B69     		ldr	r3, [r7, #20]
 2304 00c0 DB69     		ldr	r3, [r3, #28]
 2305 00c2 03F5D072 		add	r2, r3, #416
 2306 00c6 7B69     		ldr	r3, [r7, #20]
 2307 00c8 DB69     		ldr	r3, [r3, #28]
 2308 00ca B3F82033 		ldrh	r3, [r3, #800]
 2309 00ce 0846     		mov	r0, r1
 2310 00d0 1146     		mov	r1, r2
 2311 00d2 1A46     		mov	r2, r3
 2312 00d4 FFF7FEFF 		bl	memcpy
 579:.\EncoreImpl.c ****                 pts->_buffersize = pjob->_ppump->_rxbuffersize;
 2313              		.loc 1 579 0
 2314 00d8 7B69     		ldr	r3, [r7, #20]
 2315 00da DB69     		ldr	r3, [r3, #28]
 2316 00dc B3F82023 		ldrh	r2, [r3, #800]
 2317 00e0 FB68     		ldr	r3, [r7, #12]
 2318 00e2 A3F80221 		strh	r2, [r3, #258]	@ movhi
 580:.\EncoreImpl.c ****                 
 581:.\EncoreImpl.c ****                 pjob->_ppump->PumpTransQueueDeallocate(pjob->_ppump,ptstemp);
 2319              		.loc 1 581 0
 2320 00e6 7B69     		ldr	r3, [r7, #20]
 2321 00e8 DB69     		ldr	r3, [r3, #28]
 2322 00ea D3F8543B 		ldr	r3, [r3, #2900]
 2323 00ee 7A69     		ldr	r2, [r7, #20]
 2324 00f0 D269     		ldr	r2, [r2, #28]
 2325 00f2 1046     		mov	r0, r2
 2326 00f4 B968     		ldr	r1, [r7, #8]
ARM GAS  C:\Users\RECEPC~1\AppData\Local\Temp\ccFc1mZV.s 			page 52


 2327 00f6 9847     		blx	r3
 582:.\EncoreImpl.c ****                 pjob->_ppump->PumpTransQueueLock(pjob->_ppump);
 2328              		.loc 1 582 0
 2329 00f8 7B69     		ldr	r3, [r7, #20]
 2330 00fa DB69     		ldr	r3, [r3, #28]
 2331 00fc D3F8443B 		ldr	r3, [r3, #2884]
 2332 0100 7A69     		ldr	r2, [r7, #20]
 2333 0102 D269     		ldr	r2, [r2, #28]
 2334 0104 1046     		mov	r0, r2
 2335 0106 9847     		blx	r3
 583:.\EncoreImpl.c ****                 pjob->_ppump->PumpTransQueueEnqueue(pjob->_ppump, pts);
 2336              		.loc 1 583 0
 2337 0108 7B69     		ldr	r3, [r7, #20]
 2338 010a DB69     		ldr	r3, [r3, #28]
 2339 010c D3F8503B 		ldr	r3, [r3, #2896]
 2340 0110 7A69     		ldr	r2, [r7, #20]
 2341 0112 D269     		ldr	r2, [r2, #28]
 2342 0114 1046     		mov	r0, r2
 2343 0116 F968     		ldr	r1, [r7, #12]
 2344 0118 9847     		blx	r3
 584:.\EncoreImpl.c ****                 pjob->_ppump->PumpTransQueueUnlock(pjob->_ppump);
 2345              		.loc 1 584 0
 2346 011a 7B69     		ldr	r3, [r7, #20]
 2347 011c DB69     		ldr	r3, [r3, #28]
 2348 011e D3F8483B 		ldr	r3, [r3, #2888]
 2349 0122 7A69     		ldr	r2, [r7, #20]
 2350 0124 D269     		ldr	r2, [r2, #28]
 2351 0126 1046     		mov	r0, r2
 2352 0128 9847     		blx	r3
 2353 012a 18E0     		b	.L65
 2354              	.L64:
 585:.\EncoreImpl.c ****             }
 586:.\EncoreImpl.c ****             else
 587:.\EncoreImpl.c ****             {
 588:.\EncoreImpl.c ****                 pjob->_ppump->PumpTransQueueLock(pjob->_ppump);
 2355              		.loc 1 588 0
 2356 012c 7B69     		ldr	r3, [r7, #20]
 2357 012e DB69     		ldr	r3, [r3, #28]
 2358 0130 D3F8443B 		ldr	r3, [r3, #2884]
 2359 0134 7A69     		ldr	r2, [r7, #20]
 2360 0136 D269     		ldr	r2, [r2, #28]
 2361 0138 1046     		mov	r0, r2
 2362 013a 9847     		blx	r3
 589:.\EncoreImpl.c ****                 pjob->_ppump->PumpTransQueueDeallocate(pjob->_ppump, pts);
 2363              		.loc 1 589 0
 2364 013c 7B69     		ldr	r3, [r7, #20]
 2365 013e DB69     		ldr	r3, [r3, #28]
 2366 0140 D3F8543B 		ldr	r3, [r3, #2900]
 2367 0144 7A69     		ldr	r2, [r7, #20]
 2368 0146 D269     		ldr	r2, [r2, #28]
 2369 0148 1046     		mov	r0, r2
 2370 014a F968     		ldr	r1, [r7, #12]
 2371 014c 9847     		blx	r3
 590:.\EncoreImpl.c ****                 pjob->_ppump->PumpTransQueueUnlock(pjob->_ppump);
 2372              		.loc 1 590 0
 2373 014e 7B69     		ldr	r3, [r7, #20]
 2374 0150 DB69     		ldr	r3, [r3, #28]
ARM GAS  C:\Users\RECEPC~1\AppData\Local\Temp\ccFc1mZV.s 			page 53


 2375 0152 D3F8483B 		ldr	r3, [r3, #2888]
 2376 0156 7A69     		ldr	r2, [r7, #20]
 2377 0158 D269     		ldr	r2, [r2, #28]
 2378 015a 1046     		mov	r0, r2
 2379 015c 9847     		blx	r3
 2380              	.L65:
 591:.\EncoreImpl.c ****             }
 592:.\EncoreImpl.c ****             memset(pjob->_ppump->_rxbuffer, 0x00, _PUMP_RX_BUFFER_SIZE_);
 2381              		.loc 1 592 0
 2382 015e 7B69     		ldr	r3, [r7, #20]
 2383 0160 DB69     		ldr	r3, [r3, #28]
 2384 0162 03F5D073 		add	r3, r3, #416
 2385 0166 1846     		mov	r0, r3
 2386 0168 0021     		movs	r1, #0
 2387 016a 4FF4C072 		mov	r2, #384
 2388 016e FFF7FEFF 		bl	memset
 2389 0172 10E0     		b	.L58
 2390              	.L63:
 593:.\EncoreImpl.c ****         }else{
 594:.\EncoreImpl.c ****             pjob->_ppump->PumpTransQueueDeallocate(pjob->_ppump, pts);
 2391              		.loc 1 594 0
 2392 0174 7B69     		ldr	r3, [r7, #20]
 2393 0176 DB69     		ldr	r3, [r3, #28]
 2394 0178 D3F8543B 		ldr	r3, [r3, #2900]
 2395 017c 7A69     		ldr	r2, [r7, #20]
 2396 017e D269     		ldr	r2, [r2, #28]
 2397 0180 1046     		mov	r0, r2
 2398 0182 F968     		ldr	r1, [r7, #12]
 2399 0184 9847     		blx	r3
 595:.\EncoreImpl.c ****             pjob->_ppump->PumpTransQueueUnlock(pjob->_ppump);
 2400              		.loc 1 595 0
 2401 0186 7B69     		ldr	r3, [r7, #20]
 2402 0188 DB69     		ldr	r3, [r3, #28]
 2403 018a D3F8483B 		ldr	r3, [r3, #2888]
 2404 018e 7A69     		ldr	r2, [r7, #20]
 2405 0190 D269     		ldr	r2, [r2, #28]
 2406 0192 1046     		mov	r0, r2
 2407 0194 9847     		blx	r3
 2408              	.L58:
 2409              	.LBE6:
 596:.\EncoreImpl.c ****         }
 597:.\EncoreImpl.c ****     }
 598:.\EncoreImpl.c **** }
 2410              		.loc 1 598 0
 2411 0196 1837     		adds	r7, r7, #24
 2412              		.cfi_def_cfa_offset 8
 2413 0198 BD46     		mov	sp, r7
 2414              		.cfi_def_cfa_register 13
 2415              		@ sp needed
 2416 019a 80BD     		pop	{r7, pc}
 2417              	.L67:
 2418              		.align	2
 2419              	.L66:
 2420 019c 00000000 		.word	_g_dispenserlayoutinfo
 2421              		.cfi_endproc
 2422              	.LFE67:
 2423              		.size	ProcessPumpTotalsDataReport, .-ProcessPumpTotalsDataReport
ARM GAS  C:\Users\RECEPC~1\AppData\Local\Temp\ccFc1mZV.s 			page 54


 2424              		.section	.text.ProcessPumpTotalsDataPpuCheck,"ax",%progbits
 2425              		.align	2
 2426              		.global	ProcessPumpTotalsDataPpuCheck
 2427              		.thumb
 2428              		.thumb_func
 2429              		.type	ProcessPumpTotalsDataPpuCheck, %function
 2430              	ProcessPumpTotalsDataPpuCheck:
 2431              	.LFB68:
 599:.\EncoreImpl.c **** 
 600:.\EncoreImpl.c **** //@Created By: HIJH
 601:.\EncoreImpl.c **** //@Septembre de 2016
 602:.\EncoreImpl.c **** void ProcessPumpTotalsDataPpuCheck(void *pparam)
 603:.\EncoreImpl.c **** {
 2432              		.loc 1 603 0
 2433              		.cfi_startproc
 2434              		@ args = 0, pretend = 0, frame = 16
 2435              		@ frame_needed = 1, uses_anonymous_args = 0
 2436 0000 80B5     		push	{r7, lr}
 2437              		.cfi_def_cfa_offset 8
 2438              		.cfi_offset 7, -8
 2439              		.cfi_offset 14, -4
 2440 0002 84B0     		sub	sp, sp, #16
 2441              		.cfi_def_cfa_offset 24
 2442 0004 00AF     		add	r7, sp, #0
 2443              		.cfi_def_cfa_register 7
 2444 0006 7860     		str	r0, [r7, #4]
 604:.\EncoreImpl.c ****     PPUMPTRANSACTIONJOBCONTEXTPTR pjob = (PPUMPTRANSACTIONJOBCONTEXTPTR)pparam;
 2445              		.loc 1 604 0
 2446 0008 7B68     		ldr	r3, [r7, #4]
 2447 000a FB60     		str	r3, [r7, #12]
 605:.\EncoreImpl.c ****     if(pjob)
 2448              		.loc 1 605 0
 2449 000c FB68     		ldr	r3, [r7, #12]
 2450 000e 002B     		cmp	r3, #0
 2451 0010 09D0     		beq	.L68
 606:.\EncoreImpl.c ****     {
 607:.\EncoreImpl.c **** /*        
 608:.\EncoreImpl.c ****         
 609:.\EncoreImpl.c ****         PNEAR_PUMPTRANSACTIONALSTATEPTR pts = pjob->_ppump->PumpTransQueueAllocate(pjob->_ppump);
 610:.\EncoreImpl.c ****         if(pts)
 611:.\EncoreImpl.c ****         {
 612:.\EncoreImpl.c ****             pts->_transtate = _PUMP_POSITION_TRANSREPORT_;
 613:.\EncoreImpl.c ****             memcpy(pts->_buffer, pjob->_ppump->_rxbuffer, pjob->_ppump->_rxbuffersize);
 614:.\EncoreImpl.c ****             pts->_buffersize = pjob->_ppump->_rxbuffersize;
 615:.\EncoreImpl.c ****         }
 616:.\EncoreImpl.c ****         
 617:.\EncoreImpl.c ****         
 618:.\EncoreImpl.c ****         uint8 var = 0;//THIS IS A DUMMY VAR TO DROP THE WARNING IF THERE IS NO ASSIGNMENT!!
 619:.\EncoreImpl.c ****         uint8 index = 0;
 620:.\EncoreImpl.c ****         //All indexes were taken according to the documentation
 621:.\EncoreImpl.c ****         var = (pjob->_ppump->_rxbuffer[0x02 + _PUMP_TOTALS_BUFFER_SHIFT_*index] & 0x0F);//Hose id
 622:.\EncoreImpl.c **** 
 623:.\EncoreImpl.c ****         //Bytes from index 0x04 + _PUMP_TOTALS_BUFFER_SHIFT_*index to 0x0F + _PUMP_TOTALS_BUFFER_SH
 624:.\EncoreImpl.c ****         //are the digits for the total fuel volume delivered until now on this pump
 625:.\EncoreImpl.c ****         //Digits are in BCD format
 626:.\EncoreImpl.c ****         var = (pjob->_ppump->_rxbuffer[0x04 + _PUMP_TOTALS_BUFFER_SHIFT_*index] & 0x0F);
 627:.\EncoreImpl.c ****         var = (pjob->_ppump->_rxbuffer[0x05 + _PUMP_TOTALS_BUFFER_SHIFT_*index] & 0x0F);
ARM GAS  C:\Users\RECEPC~1\AppData\Local\Temp\ccFc1mZV.s 			page 55


 628:.\EncoreImpl.c ****         var = (pjob->_ppump->_rxbuffer[0x06 + _PUMP_TOTALS_BUFFER_SHIFT_*index] & 0x0F);
 629:.\EncoreImpl.c ****         var = (pjob->_ppump->_rxbuffer[0x07 + _PUMP_TOTALS_BUFFER_SHIFT_*index] & 0x0F);
 630:.\EncoreImpl.c ****         var = (pjob->_ppump->_rxbuffer[0x08 + _PUMP_TOTALS_BUFFER_SHIFT_*index] & 0x0F);
 631:.\EncoreImpl.c ****         var = (pjob->_ppump->_rxbuffer[0x09 + _PUMP_TOTALS_BUFFER_SHIFT_*index] & 0x0F);
 632:.\EncoreImpl.c ****         var = (pjob->_ppump->_rxbuffer[0x0A + _PUMP_TOTALS_BUFFER_SHIFT_*index] & 0x0F);
 633:.\EncoreImpl.c ****         var = (pjob->_ppump->_rxbuffer[0x0B + _PUMP_TOTALS_BUFFER_SHIFT_*index] & 0x0F);
 634:.\EncoreImpl.c ****         var = (pjob->_ppump->_rxbuffer[0x0C + _PUMP_TOTALS_BUFFER_SHIFT_*index] & 0x0F);
 635:.\EncoreImpl.c ****         var = (pjob->_ppump->_rxbuffer[0x0D + _PUMP_TOTALS_BUFFER_SHIFT_*index] & 0x0F);
 636:.\EncoreImpl.c ****         var = (pjob->_ppump->_rxbuffer[0x0E + _PUMP_TOTALS_BUFFER_SHIFT_*index] & 0x0F);
 637:.\EncoreImpl.c ****         var = (pjob->_ppump->_rxbuffer[0x0F + _PUMP_TOTALS_BUFFER_SHIFT_*index] & 0x0F);
 638:.\EncoreImpl.c **** 
 639:.\EncoreImpl.c ****         //Bytes from index 0x11 + _PUMP_TOTALS_BUFFER_SHIFT_*index to 0x1C + _PUMP_TOTALS_BUFFER_SH
 640:.\EncoreImpl.c ****         //are the digits for the total money charged until now on this pump
 641:.\EncoreImpl.c ****         //Digits are in BCD format
 642:.\EncoreImpl.c ****         var = (pjob->_ppump->_rxbuffer[0x11 + _PUMP_TOTALS_BUFFER_SHIFT_*index] & 0x0F);
 643:.\EncoreImpl.c ****         var = (pjob->_ppump->_rxbuffer[0x12 + _PUMP_TOTALS_BUFFER_SHIFT_*index] & 0x0F);
 644:.\EncoreImpl.c ****         var = (pjob->_ppump->_rxbuffer[0x13 + _PUMP_TOTALS_BUFFER_SHIFT_*index] & 0x0F);
 645:.\EncoreImpl.c ****         var = (pjob->_ppump->_rxbuffer[0x14 + _PUMP_TOTALS_BUFFER_SHIFT_*index] & 0x0F);
 646:.\EncoreImpl.c ****         var = (pjob->_ppump->_rxbuffer[0x15 + _PUMP_TOTALS_BUFFER_SHIFT_*index] & 0x0F);
 647:.\EncoreImpl.c ****         var = (pjob->_ppump->_rxbuffer[0x16 + _PUMP_TOTALS_BUFFER_SHIFT_*index] & 0x0F);
 648:.\EncoreImpl.c ****         var = (pjob->_ppump->_rxbuffer[0x17 + _PUMP_TOTALS_BUFFER_SHIFT_*index] & 0x0F);
 649:.\EncoreImpl.c ****         var = (pjob->_ppump->_rxbuffer[0x18 + _PUMP_TOTALS_BUFFER_SHIFT_*index] & 0x0F);
 650:.\EncoreImpl.c ****         var = (pjob->_ppump->_rxbuffer[0x19 + _PUMP_TOTALS_BUFFER_SHIFT_*index] & 0x0F);
 651:.\EncoreImpl.c ****         var = (pjob->_ppump->_rxbuffer[0x1A + _PUMP_TOTALS_BUFFER_SHIFT_*index] & 0x0F);
 652:.\EncoreImpl.c ****         var = (pjob->_ppump->_rxbuffer[0x1B + _PUMP_TOTALS_BUFFER_SHIFT_*index] & 0x0F);
 653:.\EncoreImpl.c ****         var = (pjob->_ppump->_rxbuffer[0x1C + _PUMP_TOTALS_BUFFER_SHIFT_*index] & 0x0F);
 654:.\EncoreImpl.c ****         
 655:.\EncoreImpl.c ****         //Bytes from index 0x1E + _PUMP_TOTALS_BUFFER_SHIFT_*index to 0x23 + _PUMP_TOTALS_BUFFER_SH
 656:.\EncoreImpl.c ****         //are the digits for the reference PPU used on this pump/hose
 657:.\EncoreImpl.c ****         //Digits are in BCD format
 658:.\EncoreImpl.c ****         var = (pjob->_ppump->_rxbuffer[0x1E + _PUMP_TOTALS_BUFFER_SHIFT_*index] & 0x0F);
 659:.\EncoreImpl.c ****         var = (pjob->_ppump->_rxbuffer[0x1F + _PUMP_TOTALS_BUFFER_SHIFT_*index] & 0x0F);
 660:.\EncoreImpl.c ****         var = (pjob->_ppump->_rxbuffer[0x20 + _PUMP_TOTALS_BUFFER_SHIFT_*index] & 0x0F);
 661:.\EncoreImpl.c ****         var = (pjob->_ppump->_rxbuffer[0x21 + _PUMP_TOTALS_BUFFER_SHIFT_*index] & 0x0F);
 662:.\EncoreImpl.c ****         var = (pjob->_ppump->_rxbuffer[0x22 + _PUMP_TOTALS_BUFFER_SHIFT_*index] & 0x0F);
 663:.\EncoreImpl.c ****         var = (pjob->_ppump->_rxbuffer[0x23 + _PUMP_TOTALS_BUFFER_SHIFT_*index] & 0x0F);
 664:.\EncoreImpl.c **** */        
 665:.\EncoreImpl.c ****         memset(pjob->_ppump->_rxbuffer, 0x00, _PUMP_RX_BUFFER_SIZE_);
 2452              		.loc 1 665 0
 2453 0012 FB68     		ldr	r3, [r7, #12]
 2454 0014 DB69     		ldr	r3, [r3, #28]
 2455 0016 03F5D073 		add	r3, r3, #416
 2456 001a 1846     		mov	r0, r3
 2457 001c 0021     		movs	r1, #0
 2458 001e 4FF4C072 		mov	r2, #384
 2459 0022 FFF7FEFF 		bl	memset
 2460              	.L68:
 666:.\EncoreImpl.c ****     }
 667:.\EncoreImpl.c **** }
 2461              		.loc 1 667 0
 2462 0026 1037     		adds	r7, r7, #16
 2463              		.cfi_def_cfa_offset 8
 2464 0028 BD46     		mov	sp, r7
 2465              		.cfi_def_cfa_register 13
 2466              		@ sp needed
 2467 002a 80BD     		pop	{r7, pc}
 2468              		.cfi_endproc
ARM GAS  C:\Users\RECEPC~1\AppData\Local\Temp\ccFc1mZV.s 			page 56


 2469              	.LFE68:
 2470              		.size	ProcessPumpTotalsDataPpuCheck, .-ProcessPumpTotalsDataPpuCheck
 2471              		.section	.text.PumpJobTimeout,"ax",%progbits
 2472              		.align	2
 2473              		.global	PumpJobTimeout
 2474              		.thumb
 2475              		.thumb_func
 2476              		.type	PumpJobTimeout, %function
 2477              	PumpJobTimeout:
 2478              	.LFB69:
 668:.\EncoreImpl.c **** 
 669:.\EncoreImpl.c **** //@Created By: HIJH
 670:.\EncoreImpl.c **** //@Date: Septembre de 2016
 671:.\EncoreImpl.c **** //This must be used to notify the log registry about the timeout issue
 672:.\EncoreImpl.c **** void PumpJobTimeout(void *pparam)
 673:.\EncoreImpl.c **** {
 2479              		.loc 1 673 0
 2480              		.cfi_startproc
 2481              		@ args = 0, pretend = 0, frame = 16
 2482              		@ frame_needed = 1, uses_anonymous_args = 0
 2483              		@ link register save eliminated.
 2484 0000 80B4     		push	{r7}
 2485              		.cfi_def_cfa_offset 4
 2486              		.cfi_offset 7, -4
 2487 0002 85B0     		sub	sp, sp, #20
 2488              		.cfi_def_cfa_offset 24
 2489 0004 00AF     		add	r7, sp, #0
 2490              		.cfi_def_cfa_register 7
 2491 0006 7860     		str	r0, [r7, #4]
 674:.\EncoreImpl.c ****     PPUMPTRANSACTIONJOBCONTEXTPTR pjob = (PPUMPTRANSACTIONJOBCONTEXTPTR)pparam;
 2492              		.loc 1 674 0
 2493 0008 7B68     		ldr	r3, [r7, #4]
 2494 000a FB60     		str	r3, [r7, #12]
 675:.\EncoreImpl.c ****     if(pjob)
 2495              		.loc 1 675 0
 2496 000c FB68     		ldr	r3, [r7, #12]
 2497 000e 002B     		cmp	r3, #0
 2498 0010 0CD0     		beq	.L70
 676:.\EncoreImpl.c ****     {
 677:.\EncoreImpl.c ****         //Release the Current Loop and log if possible
 678:.\EncoreImpl.c ****         if(pjob->_retriescounter >= _MAX_RETRIES_)
 2499              		.loc 1 678 0
 2500 0012 FB68     		ldr	r3, [r7, #12]
 2501 0014 DB89     		ldrh	r3, [r3, #14]	@ movhi
 2502 0016 9BB2     		uxth	r3, r3
 2503 0018 132B     		cmp	r3, #19
 2504 001a 07D9     		bls	.L70
 679:.\EncoreImpl.c ****         {
 680:.\EncoreImpl.c ****             pjob->_ppump->_pumpstate = PUMP_UNKNOWN;
 2505              		.loc 1 680 0
 2506 001c FB68     		ldr	r3, [r7, #12]
 2507 001e DB69     		ldr	r3, [r3, #28]
 2508 0020 FF22     		movs	r2, #255
 2509 0022 9A70     		strb	r2, [r3, #2]
 681:.\EncoreImpl.c ****             pjob->_ppump->_transhealth = _PUMP_FAIL_;
 2510              		.loc 1 681 0
 2511 0024 FB68     		ldr	r3, [r7, #12]
ARM GAS  C:\Users\RECEPC~1\AppData\Local\Temp\ccFc1mZV.s 			page 57


 2512 0026 DB69     		ldr	r3, [r3, #28]
 2513 0028 0222     		movs	r2, #2
 2514 002a 1A76     		strb	r2, [r3, #24]
 2515              	.L70:
 682:.\EncoreImpl.c ****         }
 683:.\EncoreImpl.c ****     }
 684:.\EncoreImpl.c **** }
 2516              		.loc 1 684 0
 2517 002c 1437     		adds	r7, r7, #20
 2518              		.cfi_def_cfa_offset 4
 2519 002e BD46     		mov	sp, r7
 2520              		.cfi_def_cfa_register 13
 2521              		@ sp needed
 2522 0030 5DF8047B 		ldr	r7, [sp], #4
 2523              		.cfi_restore 7
 2524              		.cfi_def_cfa_offset 0
 2525 0034 7047     		bx	lr
 2526              		.cfi_endproc
 2527              	.LFE69:
 2528              		.size	PumpJobTimeout, .-PumpJobTimeout
 2529 0036 00BF     		.section	.text.PumpStateJobTimeout,"ax",%progbits
 2530              		.align	2
 2531              		.global	PumpStateJobTimeout
 2532              		.thumb
 2533              		.thumb_func
 2534              		.type	PumpStateJobTimeout, %function
 2535              	PumpStateJobTimeout:
 2536              	.LFB70:
 685:.\EncoreImpl.c **** 
 686:.\EncoreImpl.c **** //@Created By: HIJH
 687:.\EncoreImpl.c **** //@Date: Septembre de 2016
 688:.\EncoreImpl.c **** //This must be used to notify the log registry about the timeout issue
 689:.\EncoreImpl.c **** void PumpStateJobTimeout(void *pparam)
 690:.\EncoreImpl.c **** {
 2537              		.loc 1 690 0
 2538              		.cfi_startproc
 2539              		@ args = 0, pretend = 0, frame = 16
 2540              		@ frame_needed = 1, uses_anonymous_args = 0
 2541              		@ link register save eliminated.
 2542 0000 80B4     		push	{r7}
 2543              		.cfi_def_cfa_offset 4
 2544              		.cfi_offset 7, -4
 2545 0002 85B0     		sub	sp, sp, #20
 2546              		.cfi_def_cfa_offset 24
 2547 0004 00AF     		add	r7, sp, #0
 2548              		.cfi_def_cfa_register 7
 2549 0006 7860     		str	r0, [r7, #4]
 691:.\EncoreImpl.c ****     PPUMPTRANSACTIONJOBCONTEXTPTR pjob = (PPUMPTRANSACTIONJOBCONTEXTPTR)pparam;
 2550              		.loc 1 691 0
 2551 0008 7B68     		ldr	r3, [r7, #4]
 2552 000a FB60     		str	r3, [r7, #12]
 692:.\EncoreImpl.c ****     if(pjob)
 2553              		.loc 1 692 0
 2554 000c FB68     		ldr	r3, [r7, #12]
 2555 000e 002B     		cmp	r3, #0
 2556 0010 0CD0     		beq	.L72
 693:.\EncoreImpl.c ****     {
ARM GAS  C:\Users\RECEPC~1\AppData\Local\Temp\ccFc1mZV.s 			page 58


 694:.\EncoreImpl.c ****         //Release the Current Loop and log if possible
 695:.\EncoreImpl.c ****         if(pjob->_retriescounter >= _MAX_RETRIES_)
 2557              		.loc 1 695 0
 2558 0012 FB68     		ldr	r3, [r7, #12]
 2559 0014 DB89     		ldrh	r3, [r3, #14]	@ movhi
 2560 0016 9BB2     		uxth	r3, r3
 2561 0018 132B     		cmp	r3, #19
 2562 001a 07D9     		bls	.L72
 696:.\EncoreImpl.c ****         {
 697:.\EncoreImpl.c ****             pjob->_ppump->_pumpstate = PUMP_UNKNOWN;
 2563              		.loc 1 697 0
 2564 001c FB68     		ldr	r3, [r7, #12]
 2565 001e DB69     		ldr	r3, [r3, #28]
 2566 0020 FF22     		movs	r2, #255
 2567 0022 9A70     		strb	r2, [r3, #2]
 698:.\EncoreImpl.c ****             pjob->_ppump->_transhealth = _PUMP_FAIL_;
 2568              		.loc 1 698 0
 2569 0024 FB68     		ldr	r3, [r7, #12]
 2570 0026 DB69     		ldr	r3, [r3, #28]
 2571 0028 0222     		movs	r2, #2
 2572 002a 1A76     		strb	r2, [r3, #24]
 2573              	.L72:
 699:.\EncoreImpl.c ****         }
 700:.\EncoreImpl.c ****     }
 701:.\EncoreImpl.c **** }
 2574              		.loc 1 701 0
 2575 002c 1437     		adds	r7, r7, #20
 2576              		.cfi_def_cfa_offset 4
 2577 002e BD46     		mov	sp, r7
 2578              		.cfi_def_cfa_register 13
 2579              		@ sp needed
 2580 0030 5DF8047B 		ldr	r7, [sp], #4
 2581              		.cfi_restore 7
 2582              		.cfi_def_cfa_offset 0
 2583 0034 7047     		bx	lr
 2584              		.cfi_endproc
 2585              	.LFE70:
 2586              		.size	PumpStateJobTimeout, .-PumpStateJobTimeout
 2587 0036 00BF     		.section	.text.PumpAuthorization,"ax",%progbits
 2588              		.align	2
 2589              		.global	PumpAuthorization
 2590              		.thumb
 2591              		.thumb_func
 2592              		.type	PumpAuthorization, %function
 2593              	PumpAuthorization:
 2594              	.LFB71:
 702:.\EncoreImpl.c **** 
 703:.\EncoreImpl.c **** ///////////////////////////////////////////////////////////////////////////////////////////////////
 704:.\EncoreImpl.c **** //////////////////////                 BLOCK OF AVAILABLE REQUEST HANDLERS
 705:.\EncoreImpl.c **** ///////////////////////////////////////////////////////////////////////////////////////////////////
 706:.\EncoreImpl.c **** 
 707:.\EncoreImpl.c **** //@Created By: HIJH
 708:.\EncoreImpl.c **** //@Date: Septembre de 2016
 709:.\EncoreImpl.c **** //Sends the authorization request to the pump. This is a single byte command with no response
 710:.\EncoreImpl.c **** void PumpAuthorization(void *pparam)
 711:.\EncoreImpl.c **** {
 2595              		.loc 1 711 0
ARM GAS  C:\Users\RECEPC~1\AppData\Local\Temp\ccFc1mZV.s 			page 59


 2596              		.cfi_startproc
 2597              		@ args = 0, pretend = 0, frame = 24
 2598              		@ frame_needed = 1, uses_anonymous_args = 0
 2599 0000 80B5     		push	{r7, lr}
 2600              		.cfi_def_cfa_offset 8
 2601              		.cfi_offset 7, -8
 2602              		.cfi_offset 14, -4
 2603 0002 86B0     		sub	sp, sp, #24
 2604              		.cfi_def_cfa_offset 32
 2605 0004 00AF     		add	r7, sp, #0
 2606              		.cfi_def_cfa_register 7
 2607 0006 7860     		str	r0, [r7, #4]
 712:.\EncoreImpl.c ****     PNEAR_PUMPPTR ppump = (PNEAR_PUMPPTR)pparam;
 2608              		.loc 1 712 0
 2609 0008 7B68     		ldr	r3, [r7, #4]
 2610 000a 7B61     		str	r3, [r7, #20]
 713:.\EncoreImpl.c ****     if(ppump)
 2611              		.loc 1 713 0
 2612 000c 7B69     		ldr	r3, [r7, #20]
 2613 000e 002B     		cmp	r3, #0
 2614 0010 34D0     		beq	.L74
 2615              	.LBB7:
 714:.\EncoreImpl.c ****     {
 715:.\EncoreImpl.c **** 
 716:.\EncoreImpl.c ****         if(!ppump->_presetdone)
 2616              		.loc 1 716 0
 2617 0012 7B69     		ldr	r3, [r7, #20]
 2618 0014 1B7A     		ldrb	r3, [r3, #8]
 2619 0016 DBB2     		uxtb	r3, r3
 2620 0018 83F00103 		eor	r3, r3, #1
 2621 001c DBB2     		uxtb	r3, r3
 2622 001e 002B     		cmp	r3, #0
 2623 0020 00D0     		beq	.L76
 717:.\EncoreImpl.c ****             return;
 2624              		.loc 1 717 0
 2625 0022 2BE0     		b	.L74
 2626              	.L76:
 718:.\EncoreImpl.c **** 
 719:.\EncoreImpl.c ****         uint8_t index = 0;
 2627              		.loc 1 719 0
 2628 0024 0023     		movs	r3, #0
 2629 0026 FB74     		strb	r3, [r7, #19]
 720:.\EncoreImpl.c ****         memset(ppump->_rxbuffer, 0x00, _PUMP_RX_BUFFER_SIZE_);
 2630              		.loc 1 720 0
 2631 0028 7B69     		ldr	r3, [r7, #20]
 2632 002a 03F5D073 		add	r3, r3, #416
 2633 002e 1846     		mov	r0, r3
 2634 0030 0021     		movs	r1, #0
 2635 0032 4FF4C072 		mov	r2, #384
 2636 0036 FFF7FEFF 		bl	memset
 721:.\EncoreImpl.c ****         PUARTMESSAGEPTR puartdisp = GetUARTMessageSlot(UART_DISPENSER);
 2637              		.loc 1 721 0
 2638 003a A220     		movs	r0, #162
 2639 003c FFF7FEFF 		bl	GetUARTMessageSlot
 2640 0040 F860     		str	r0, [r7, #12]
 722:.\EncoreImpl.c ****         if(puartdisp)
 2641              		.loc 1 722 0
ARM GAS  C:\Users\RECEPC~1\AppData\Local\Temp\ccFc1mZV.s 			page 60


 2642 0042 FB68     		ldr	r3, [r7, #12]
 2643 0044 002B     		cmp	r3, #0
 2644 0046 19D0     		beq	.L74
 723:.\EncoreImpl.c ****         {
 724:.\EncoreImpl.c ****             //Just one byte for the response
 725:.\EncoreImpl.c ****             puartdisp->_messagetx[index++] = PUMP_COMMAND(PUMP_AUTHORIZATION, ppump->_pumpid);
 2645              		.loc 1 725 0
 2646 0048 FB7C     		ldrb	r3, [r7, #19]	@ zero_extendqisi2
 2647 004a 5A1C     		adds	r2, r3, #1
 2648 004c FA74     		strb	r2, [r7, #19]
 2649 004e 1946     		mov	r1, r3
 2650 0050 7B69     		ldr	r3, [r7, #20]
 2651 0052 1B78     		ldrb	r3, [r3]	@ zero_extendqisi2
 2652 0054 DBB2     		uxtb	r3, r3
 2653 0056 03F00F03 		and	r3, r3, #15
 2654 005a DBB2     		uxtb	r3, r3
 2655 005c 43F01003 		orr	r3, r3, #16
 2656 0060 DBB2     		uxtb	r3, r3
 2657 0062 DAB2     		uxtb	r2, r3
 2658 0064 FB68     		ldr	r3, [r7, #12]
 2659 0066 0B44     		add	r3, r3, r1
 2660 0068 1A71     		strb	r2, [r3, #4]
 726:.\EncoreImpl.c ****             puartdisp->_messagelength = 1;//One byte
 2661              		.loc 1 726 0
 2662 006a FB68     		ldr	r3, [r7, #12]
 2663 006c 0122     		movs	r2, #1
 2664 006e 5A80     		strh	r2, [r3, #2]	@ movhi
 727:.\EncoreImpl.c ****             puartdisp->_messagestate = PENDING;
 2665              		.loc 1 727 0
 2666 0070 FB68     		ldr	r3, [r7, #12]
 2667 0072 C222     		movs	r2, #194
 2668 0074 1A70     		strb	r2, [r3]
 728:.\EncoreImpl.c ****             
 729:.\EncoreImpl.c ****             ppump->_authorized = true;
 2669              		.loc 1 729 0
 2670 0076 7B69     		ldr	r3, [r7, #20]
 2671 0078 0122     		movs	r2, #1
 2672 007a 9A71     		strb	r2, [r3, #6]
 2673              	.L74:
 2674              	.LBE7:
 730:.\EncoreImpl.c ****         }
 731:.\EncoreImpl.c ****     }
 732:.\EncoreImpl.c **** }
 2675              		.loc 1 732 0
 2676 007c 1837     		adds	r7, r7, #24
 2677              		.cfi_def_cfa_offset 8
 2678 007e BD46     		mov	sp, r7
 2679              		.cfi_def_cfa_register 13
 2680              		@ sp needed
 2681 0080 80BD     		pop	{r7, pc}
 2682              		.cfi_endproc
 2683              	.LFE71:
 2684              		.size	PumpAuthorization, .-PumpAuthorization
 2685 0082 00BF     		.section	.text.PumpStartupAuthorization,"ax",%progbits
 2686              		.align	2
 2687              		.global	PumpStartupAuthorization
 2688              		.thumb
ARM GAS  C:\Users\RECEPC~1\AppData\Local\Temp\ccFc1mZV.s 			page 61


 2689              		.thumb_func
 2690              		.type	PumpStartupAuthorization, %function
 2691              	PumpStartupAuthorization:
 2692              	.LFB72:
 733:.\EncoreImpl.c **** 
 734:.\EncoreImpl.c **** //@Created By: HIJH
 735:.\EncoreImpl.c **** //@Date: Septembre de 2016
 736:.\EncoreImpl.c **** //Sends the authorization request to the pump. This is a single byte command with no response
 737:.\EncoreImpl.c **** void PumpStartupAuthorization(void *pparam)
 738:.\EncoreImpl.c **** {
 2693              		.loc 1 738 0
 2694              		.cfi_startproc
 2695              		@ args = 0, pretend = 0, frame = 24
 2696              		@ frame_needed = 1, uses_anonymous_args = 0
 2697 0000 80B5     		push	{r7, lr}
 2698              		.cfi_def_cfa_offset 8
 2699              		.cfi_offset 7, -8
 2700              		.cfi_offset 14, -4
 2701 0002 86B0     		sub	sp, sp, #24
 2702              		.cfi_def_cfa_offset 32
 2703 0004 00AF     		add	r7, sp, #0
 2704              		.cfi_def_cfa_register 7
 2705 0006 7860     		str	r0, [r7, #4]
 739:.\EncoreImpl.c ****     PNEAR_PUMPPTR ppump = (PNEAR_PUMPPTR)pparam;
 2706              		.loc 1 739 0
 2707 0008 7B68     		ldr	r3, [r7, #4]
 2708 000a 7B61     		str	r3, [r7, #20]
 740:.\EncoreImpl.c ****     if(ppump)
 2709              		.loc 1 740 0
 2710 000c 7B69     		ldr	r3, [r7, #20]
 2711 000e 002B     		cmp	r3, #0
 2712 0010 2BD0     		beq	.L77
 2713              	.LBB8:
 741:.\EncoreImpl.c ****     {                
 742:.\EncoreImpl.c ****         uint8_t index = 0;
 2714              		.loc 1 742 0
 2715 0012 0023     		movs	r3, #0
 2716 0014 FB74     		strb	r3, [r7, #19]
 743:.\EncoreImpl.c ****         memset(ppump->_rxbuffer, 0x00, _PUMP_RX_BUFFER_SIZE_);
 2717              		.loc 1 743 0
 2718 0016 7B69     		ldr	r3, [r7, #20]
 2719 0018 03F5D073 		add	r3, r3, #416
 2720 001c 1846     		mov	r0, r3
 2721 001e 0021     		movs	r1, #0
 2722 0020 4FF4C072 		mov	r2, #384
 2723 0024 FFF7FEFF 		bl	memset
 744:.\EncoreImpl.c ****         PUARTMESSAGEPTR puartdisp = GetUARTMessageSlot(UART_DISPENSER);
 2724              		.loc 1 744 0
 2725 0028 A220     		movs	r0, #162
 2726 002a FFF7FEFF 		bl	GetUARTMessageSlot
 2727 002e F860     		str	r0, [r7, #12]
 745:.\EncoreImpl.c ****         if(puartdisp)
 2728              		.loc 1 745 0
 2729 0030 FB68     		ldr	r3, [r7, #12]
 2730 0032 002B     		cmp	r3, #0
 2731 0034 16D0     		beq	.L79
 746:.\EncoreImpl.c ****         {
ARM GAS  C:\Users\RECEPC~1\AppData\Local\Temp\ccFc1mZV.s 			page 62


 747:.\EncoreImpl.c ****             //Just one byte for the response
 748:.\EncoreImpl.c ****             puartdisp->_messagetx[index++] = PUMP_COMMAND(PUMP_AUTHORIZATION, ppump->_pumpid);
 2732              		.loc 1 748 0
 2733 0036 FB7C     		ldrb	r3, [r7, #19]	@ zero_extendqisi2
 2734 0038 5A1C     		adds	r2, r3, #1
 2735 003a FA74     		strb	r2, [r7, #19]
 2736 003c 1946     		mov	r1, r3
 2737 003e 7B69     		ldr	r3, [r7, #20]
 2738 0040 1B78     		ldrb	r3, [r3]	@ zero_extendqisi2
 2739 0042 DBB2     		uxtb	r3, r3
 2740 0044 03F00F03 		and	r3, r3, #15
 2741 0048 DBB2     		uxtb	r3, r3
 2742 004a 43F01003 		orr	r3, r3, #16
 2743 004e DBB2     		uxtb	r3, r3
 2744 0050 DAB2     		uxtb	r2, r3
 2745 0052 FB68     		ldr	r3, [r7, #12]
 2746 0054 0B44     		add	r3, r3, r1
 2747 0056 1A71     		strb	r2, [r3, #4]
 749:.\EncoreImpl.c ****             puartdisp->_messagelength = 1;//One byte
 2748              		.loc 1 749 0
 2749 0058 FB68     		ldr	r3, [r7, #12]
 2750 005a 0122     		movs	r2, #1
 2751 005c 5A80     		strh	r2, [r3, #2]	@ movhi
 750:.\EncoreImpl.c ****             puartdisp->_messagestate = PENDING;
 2752              		.loc 1 750 0
 2753 005e FB68     		ldr	r3, [r7, #12]
 2754 0060 C222     		movs	r2, #194
 2755 0062 1A70     		strb	r2, [r3]
 2756              	.L79:
 751:.\EncoreImpl.c ****             
 752:.\EncoreImpl.c ****         }
 753:.\EncoreImpl.c ****         CyDelay(100);
 2757              		.loc 1 753 0
 2758 0064 6420     		movs	r0, #100
 2759 0066 FFF7FEFF 		bl	CyDelay
 2760              	.L77:
 2761              	.LBE8:
 754:.\EncoreImpl.c ****     }
 755:.\EncoreImpl.c **** }
 2762              		.loc 1 755 0
 2763 006a 1837     		adds	r7, r7, #24
 2764              		.cfi_def_cfa_offset 8
 2765 006c BD46     		mov	sp, r7
 2766              		.cfi_def_cfa_register 13
 2767              		@ sp needed
 2768 006e 80BD     		pop	{r7, pc}
 2769              		.cfi_endproc
 2770              	.LFE72:
 2771              		.size	PumpStartupAuthorization, .-PumpStartupAuthorization
 2772              		.section	.text.PumpStateRequest,"ax",%progbits
 2773              		.align	2
 2774              		.global	PumpStateRequest
 2775              		.thumb
 2776              		.thumb_func
 2777              		.type	PumpStateRequest, %function
 2778              	PumpStateRequest:
 2779              	.LFB73:
ARM GAS  C:\Users\RECEPC~1\AppData\Local\Temp\ccFc1mZV.s 			page 63


 756:.\EncoreImpl.c **** 
 757:.\EncoreImpl.c **** //@Created By: HIJH
 758:.\EncoreImpl.c **** //@Date: Septembre de 2016
 759:.\EncoreImpl.c **** //Sends the state request to the pump. This is a single byte command with one byte of response
 760:.\EncoreImpl.c **** void PumpStateRequest(void *pparam)
 761:.\EncoreImpl.c **** {
 2780              		.loc 1 761 0
 2781              		.cfi_startproc
 2782              		@ args = 0, pretend = 0, frame = 24
 2783              		@ frame_needed = 1, uses_anonymous_args = 0
 2784 0000 80B5     		push	{r7, lr}
 2785              		.cfi_def_cfa_offset 8
 2786              		.cfi_offset 7, -8
 2787              		.cfi_offset 14, -4
 2788 0002 86B0     		sub	sp, sp, #24
 2789              		.cfi_def_cfa_offset 32
 2790 0004 00AF     		add	r7, sp, #0
 2791              		.cfi_def_cfa_register 7
 2792 0006 7860     		str	r0, [r7, #4]
 762:.\EncoreImpl.c ****     PNEAR_PUMPPTR ppump = (PNEAR_PUMPPTR)pparam;
 2793              		.loc 1 762 0
 2794 0008 7B68     		ldr	r3, [r7, #4]
 2795 000a 7B61     		str	r3, [r7, #20]
 763:.\EncoreImpl.c ****     if(ppump)
 2796              		.loc 1 763 0
 2797 000c 7B69     		ldr	r3, [r7, #20]
 2798 000e 002B     		cmp	r3, #0
 2799 0010 23D0     		beq	.L80
 2800              	.LBB9:
 764:.\EncoreImpl.c ****     {
 765:.\EncoreImpl.c ****         uint8_t index = 0;
 2801              		.loc 1 765 0
 2802 0012 0023     		movs	r3, #0
 2803 0014 FB74     		strb	r3, [r7, #19]
 766:.\EncoreImpl.c ****         memset(ppump->_rxbuffer, 0x00, _PUMP_RX_BUFFER_SIZE_);
 2804              		.loc 1 766 0
 2805 0016 7B69     		ldr	r3, [r7, #20]
 2806 0018 03F5D073 		add	r3, r3, #416
 2807 001c 1846     		mov	r0, r3
 2808 001e 0021     		movs	r1, #0
 2809 0020 4FF4C072 		mov	r2, #384
 2810 0024 FFF7FEFF 		bl	memset
 767:.\EncoreImpl.c ****         PUARTMESSAGEPTR puartdisp = GetUARTMessageSlot(UART_DISPENSER);
 2811              		.loc 1 767 0
 2812 0028 A220     		movs	r0, #162
 2813 002a FFF7FEFF 		bl	GetUARTMessageSlot
 2814 002e F860     		str	r0, [r7, #12]
 768:.\EncoreImpl.c ****         if(puartdisp)
 2815              		.loc 1 768 0
 2816 0030 FB68     		ldr	r3, [r7, #12]
 2817 0032 002B     		cmp	r3, #0
 2818 0034 11D0     		beq	.L80
 769:.\EncoreImpl.c ****         {
 770:.\EncoreImpl.c ****             puartdisp->_messagetx[index++] = PUMP_COMMAND(PUMP_STATE_REQUEST, ppump->_pumpid);
 2819              		.loc 1 770 0
 2820 0036 FB7C     		ldrb	r3, [r7, #19]	@ zero_extendqisi2
 2821 0038 5A1C     		adds	r2, r3, #1
ARM GAS  C:\Users\RECEPC~1\AppData\Local\Temp\ccFc1mZV.s 			page 64


 2822 003a FA74     		strb	r2, [r7, #19]
 2823 003c 1946     		mov	r1, r3
 2824 003e 7B69     		ldr	r3, [r7, #20]
 2825 0040 1B78     		ldrb	r3, [r3]	@ zero_extendqisi2
 2826 0042 03F00F03 		and	r3, r3, #15
 2827 0046 DAB2     		uxtb	r2, r3
 2828 0048 FB68     		ldr	r3, [r7, #12]
 2829 004a 0B44     		add	r3, r3, r1
 2830 004c 1A71     		strb	r2, [r3, #4]
 771:.\EncoreImpl.c ****             puartdisp->_messagelength = 1;//One byte
 2831              		.loc 1 771 0
 2832 004e FB68     		ldr	r3, [r7, #12]
 2833 0050 0122     		movs	r2, #1
 2834 0052 5A80     		strh	r2, [r3, #2]	@ movhi
 772:.\EncoreImpl.c ****             puartdisp->_messagestate = PENDING;
 2835              		.loc 1 772 0
 2836 0054 FB68     		ldr	r3, [r7, #12]
 2837 0056 C222     		movs	r2, #194
 2838 0058 1A70     		strb	r2, [r3]
 2839              	.L80:
 2840              	.LBE9:
 773:.\EncoreImpl.c ****         }
 774:.\EncoreImpl.c ****     }
 775:.\EncoreImpl.c **** }
 2841              		.loc 1 775 0
 2842 005a 1837     		adds	r7, r7, #24
 2843              		.cfi_def_cfa_offset 8
 2844 005c BD46     		mov	sp, r7
 2845              		.cfi_def_cfa_register 13
 2846              		@ sp needed
 2847 005e 80BD     		pop	{r7, pc}
 2848              		.cfi_endproc
 2849              	.LFE73:
 2850              		.size	PumpStateRequest, .-PumpStateRequest
 2851              		.section	.text.PumpRTMoneyRequest,"ax",%progbits
 2852              		.align	2
 2853              		.global	PumpRTMoneyRequest
 2854              		.thumb
 2855              		.thumb_func
 2856              		.type	PumpRTMoneyRequest, %function
 2857              	PumpRTMoneyRequest:
 2858              	.LFB74:
 776:.\EncoreImpl.c **** 
 777:.\EncoreImpl.c **** //@Created By: HIJH
 778:.\EncoreImpl.c **** //@Date: Septembre de 2016
 779:.\EncoreImpl.c **** void PumpRTMoneyRequest(void *pparam)
 780:.\EncoreImpl.c **** {
 2859              		.loc 1 780 0
 2860              		.cfi_startproc
 2861              		@ args = 0, pretend = 0, frame = 24
 2862              		@ frame_needed = 1, uses_anonymous_args = 0
 2863 0000 80B5     		push	{r7, lr}
 2864              		.cfi_def_cfa_offset 8
 2865              		.cfi_offset 7, -8
 2866              		.cfi_offset 14, -4
 2867 0002 86B0     		sub	sp, sp, #24
 2868              		.cfi_def_cfa_offset 32
ARM GAS  C:\Users\RECEPC~1\AppData\Local\Temp\ccFc1mZV.s 			page 65


 2869 0004 00AF     		add	r7, sp, #0
 2870              		.cfi_def_cfa_register 7
 2871 0006 7860     		str	r0, [r7, #4]
 781:.\EncoreImpl.c ****     PNEAR_PUMPPTR ppump = (PNEAR_PUMPPTR)pparam;
 2872              		.loc 1 781 0
 2873 0008 7B68     		ldr	r3, [r7, #4]
 2874 000a 7B61     		str	r3, [r7, #20]
 782:.\EncoreImpl.c ****     if(ppump)
 2875              		.loc 1 782 0
 2876 000c 7B69     		ldr	r3, [r7, #20]
 2877 000e 002B     		cmp	r3, #0
 2878 0010 28D0     		beq	.L82
 2879              	.LBB10:
 783:.\EncoreImpl.c ****     {
 784:.\EncoreImpl.c ****         uint8_t index = 0;
 2880              		.loc 1 784 0
 2881 0012 0023     		movs	r3, #0
 2882 0014 FB74     		strb	r3, [r7, #19]
 785:.\EncoreImpl.c ****         memset(ppump->_rxbuffer, 0x00, _PUMP_RX_BUFFER_SIZE_);
 2883              		.loc 1 785 0
 2884 0016 7B69     		ldr	r3, [r7, #20]
 2885 0018 03F5D073 		add	r3, r3, #416
 2886 001c 1846     		mov	r0, r3
 2887 001e 0021     		movs	r1, #0
 2888 0020 4FF4C072 		mov	r2, #384
 2889 0024 FFF7FEFF 		bl	memset
 786:.\EncoreImpl.c ****         PUARTMESSAGEPTR puartdisp = GetUARTMessageSlot(UART_DISPENSER);
 2890              		.loc 1 786 0
 2891 0028 A220     		movs	r0, #162
 2892 002a FFF7FEFF 		bl	GetUARTMessageSlot
 2893 002e F860     		str	r0, [r7, #12]
 787:.\EncoreImpl.c ****         if(puartdisp)
 2894              		.loc 1 787 0
 2895 0030 FB68     		ldr	r3, [r7, #12]
 2896 0032 002B     		cmp	r3, #0
 2897 0034 16D0     		beq	.L82
 788:.\EncoreImpl.c ****         {
 789:.\EncoreImpl.c ****             puartdisp->_messagetx[index++] = PUMP_COMMAND(PUMP_REAL_TIME_MONEY_REQUEST, ppump->_pum
 2898              		.loc 1 789 0
 2899 0036 FB7C     		ldrb	r3, [r7, #19]	@ zero_extendqisi2
 2900 0038 5A1C     		adds	r2, r3, #1
 2901 003a FA74     		strb	r2, [r7, #19]
 2902 003c 1946     		mov	r1, r3
 2903 003e 7B69     		ldr	r3, [r7, #20]
 2904 0040 1B78     		ldrb	r3, [r3]	@ zero_extendqisi2
 2905 0042 DBB2     		uxtb	r3, r3
 2906 0044 03F00F03 		and	r3, r3, #15
 2907 0048 DBB2     		uxtb	r3, r3
 2908 004a 43F06003 		orr	r3, r3, #96
 2909 004e DBB2     		uxtb	r3, r3
 2910 0050 DAB2     		uxtb	r2, r3
 2911 0052 FB68     		ldr	r3, [r7, #12]
 2912 0054 0B44     		add	r3, r3, r1
 2913 0056 1A71     		strb	r2, [r3, #4]
 790:.\EncoreImpl.c ****             puartdisp->_messagelength = 1;//One byte
 2914              		.loc 1 790 0
 2915 0058 FB68     		ldr	r3, [r7, #12]
ARM GAS  C:\Users\RECEPC~1\AppData\Local\Temp\ccFc1mZV.s 			page 66


 2916 005a 0122     		movs	r2, #1
 2917 005c 5A80     		strh	r2, [r3, #2]	@ movhi
 791:.\EncoreImpl.c ****             puartdisp->_messagestate = PENDING;
 2918              		.loc 1 791 0
 2919 005e FB68     		ldr	r3, [r7, #12]
 2920 0060 C222     		movs	r2, #194
 2921 0062 1A70     		strb	r2, [r3]
 2922              	.L82:
 2923              	.LBE10:
 792:.\EncoreImpl.c ****         }
 793:.\EncoreImpl.c ****     }
 794:.\EncoreImpl.c **** }
 2924              		.loc 1 794 0
 2925 0064 1837     		adds	r7, r7, #24
 2926              		.cfi_def_cfa_offset 8
 2927 0066 BD46     		mov	sp, r7
 2928              		.cfi_def_cfa_register 13
 2929              		@ sp needed
 2930 0068 80BD     		pop	{r7, pc}
 2931              		.cfi_endproc
 2932              	.LFE74:
 2933              		.size	PumpRTMoneyRequest, .-PumpRTMoneyRequest
 2934 006a 00BF     		.section	.text.PumpTransactionDataRequest,"ax",%progbits
 2935              		.align	2
 2936              		.global	PumpTransactionDataRequest
 2937              		.thumb
 2938              		.thumb_func
 2939              		.type	PumpTransactionDataRequest, %function
 2940              	PumpTransactionDataRequest:
 2941              	.LFB75:
 795:.\EncoreImpl.c **** 
 796:.\EncoreImpl.c **** //@Created By: HIJH
 797:.\EncoreImpl.c **** //@Date: Septembre de 2016
 798:.\EncoreImpl.c **** //Requests the last transaction data to the pump. This is a single byte command with a fixed length
 799:.\EncoreImpl.c **** void PumpTransactionDataRequest(void *pparam)
 800:.\EncoreImpl.c **** {
 2942              		.loc 1 800 0
 2943              		.cfi_startproc
 2944              		@ args = 0, pretend = 0, frame = 24
 2945              		@ frame_needed = 1, uses_anonymous_args = 0
 2946 0000 80B5     		push	{r7, lr}
 2947              		.cfi_def_cfa_offset 8
 2948              		.cfi_offset 7, -8
 2949              		.cfi_offset 14, -4
 2950 0002 86B0     		sub	sp, sp, #24
 2951              		.cfi_def_cfa_offset 32
 2952 0004 00AF     		add	r7, sp, #0
 2953              		.cfi_def_cfa_register 7
 2954 0006 7860     		str	r0, [r7, #4]
 801:.\EncoreImpl.c ****     PNEAR_PUMPPTR ppump = (PNEAR_PUMPPTR)pparam;
 2955              		.loc 1 801 0
 2956 0008 7B68     		ldr	r3, [r7, #4]
 2957 000a 7B61     		str	r3, [r7, #20]
 802:.\EncoreImpl.c ****     if(ppump)
 2958              		.loc 1 802 0
 2959 000c 7B69     		ldr	r3, [r7, #20]
 2960 000e 002B     		cmp	r3, #0
ARM GAS  C:\Users\RECEPC~1\AppData\Local\Temp\ccFc1mZV.s 			page 67


 2961 0010 28D0     		beq	.L84
 2962              	.LBB11:
 803:.\EncoreImpl.c ****     {        
 804:.\EncoreImpl.c ****         uint8_t index = 0;
 2963              		.loc 1 804 0
 2964 0012 0023     		movs	r3, #0
 2965 0014 FB74     		strb	r3, [r7, #19]
 805:.\EncoreImpl.c ****         memset(ppump->_rxbuffer, 0x00, _PUMP_RX_BUFFER_SIZE_);
 2966              		.loc 1 805 0
 2967 0016 7B69     		ldr	r3, [r7, #20]
 2968 0018 03F5D073 		add	r3, r3, #416
 2969 001c 1846     		mov	r0, r3
 2970 001e 0021     		movs	r1, #0
 2971 0020 4FF4C072 		mov	r2, #384
 2972 0024 FFF7FEFF 		bl	memset
 806:.\EncoreImpl.c ****         PUARTMESSAGEPTR puartdisp = GetUARTMessageSlot(UART_DISPENSER);
 2973              		.loc 1 806 0
 2974 0028 A220     		movs	r0, #162
 2975 002a FFF7FEFF 		bl	GetUARTMessageSlot
 2976 002e F860     		str	r0, [r7, #12]
 807:.\EncoreImpl.c ****         if(puartdisp)
 2977              		.loc 1 807 0
 2978 0030 FB68     		ldr	r3, [r7, #12]
 2979 0032 002B     		cmp	r3, #0
 2980 0034 16D0     		beq	.L84
 808:.\EncoreImpl.c ****         {
 809:.\EncoreImpl.c ****             puartdisp->_messagetx[index++] = PUMP_COMMAND(PUMP_TRANSACTION_DATA_REQUEST, ppump->_pu
 2981              		.loc 1 809 0
 2982 0036 FB7C     		ldrb	r3, [r7, #19]	@ zero_extendqisi2
 2983 0038 5A1C     		adds	r2, r3, #1
 2984 003a FA74     		strb	r2, [r7, #19]
 2985 003c 1946     		mov	r1, r3
 2986 003e 7B69     		ldr	r3, [r7, #20]
 2987 0040 1B78     		ldrb	r3, [r3]	@ zero_extendqisi2
 2988 0042 DBB2     		uxtb	r3, r3
 2989 0044 03F00F03 		and	r3, r3, #15
 2990 0048 DBB2     		uxtb	r3, r3
 2991 004a 43F04003 		orr	r3, r3, #64
 2992 004e DBB2     		uxtb	r3, r3
 2993 0050 DAB2     		uxtb	r2, r3
 2994 0052 FB68     		ldr	r3, [r7, #12]
 2995 0054 0B44     		add	r3, r3, r1
 2996 0056 1A71     		strb	r2, [r3, #4]
 810:.\EncoreImpl.c ****             puartdisp->_messagelength = 1;//One byte
 2997              		.loc 1 810 0
 2998 0058 FB68     		ldr	r3, [r7, #12]
 2999 005a 0122     		movs	r2, #1
 3000 005c 5A80     		strh	r2, [r3, #2]	@ movhi
 811:.\EncoreImpl.c ****             puartdisp->_messagestate = PENDING;
 3001              		.loc 1 811 0
 3002 005e FB68     		ldr	r3, [r7, #12]
 3003 0060 C222     		movs	r2, #194
 3004 0062 1A70     		strb	r2, [r3]
 3005              	.L84:
 3006              	.LBE11:
 812:.\EncoreImpl.c ****         }
 813:.\EncoreImpl.c ****     }
ARM GAS  C:\Users\RECEPC~1\AppData\Local\Temp\ccFc1mZV.s 			page 68


 814:.\EncoreImpl.c **** }
 3007              		.loc 1 814 0
 3008 0064 1837     		adds	r7, r7, #24
 3009              		.cfi_def_cfa_offset 8
 3010 0066 BD46     		mov	sp, r7
 3011              		.cfi_def_cfa_register 13
 3012              		@ sp needed
 3013 0068 80BD     		pop	{r7, pc}
 3014              		.cfi_endproc
 3015              	.LFE75:
 3016              		.size	PumpTransactionDataRequest, .-PumpTransactionDataRequest
 3017 006a 00BF     		.section	.text.PumpTotalsDataRequest,"ax",%progbits
 3018              		.align	2
 3019              		.global	PumpTotalsDataRequest
 3020              		.thumb
 3021              		.thumb_func
 3022              		.type	PumpTotalsDataRequest, %function
 3023              	PumpTotalsDataRequest:
 3024              	.LFB76:
 815:.\EncoreImpl.c **** 
 816:.\EncoreImpl.c **** //@Created By: HIJH
 817:.\EncoreImpl.c **** //@Date: Septembre de 2016
 818:.\EncoreImpl.c **** //Requests the report of totals for the current pump. This is a single byte command with a variable
 819:.\EncoreImpl.c **** //that depends on the number of available hoses.
 820:.\EncoreImpl.c **** void PumpTotalsDataRequest(void *pparam)
 821:.\EncoreImpl.c **** {
 3025              		.loc 1 821 0
 3026              		.cfi_startproc
 3027              		@ args = 0, pretend = 0, frame = 24
 3028              		@ frame_needed = 1, uses_anonymous_args = 0
 3029 0000 80B5     		push	{r7, lr}
 3030              		.cfi_def_cfa_offset 8
 3031              		.cfi_offset 7, -8
 3032              		.cfi_offset 14, -4
 3033 0002 86B0     		sub	sp, sp, #24
 3034              		.cfi_def_cfa_offset 32
 3035 0004 00AF     		add	r7, sp, #0
 3036              		.cfi_def_cfa_register 7
 3037 0006 7860     		str	r0, [r7, #4]
 822:.\EncoreImpl.c ****     PNEAR_PUMPPTR ppump = (PNEAR_PUMPPTR)pparam;
 3038              		.loc 1 822 0
 3039 0008 7B68     		ldr	r3, [r7, #4]
 3040 000a 7B61     		str	r3, [r7, #20]
 823:.\EncoreImpl.c ****     if(ppump)
 3041              		.loc 1 823 0
 3042 000c 7B69     		ldr	r3, [r7, #20]
 3043 000e 002B     		cmp	r3, #0
 3044 0010 28D0     		beq	.L86
 3045              	.LBB12:
 824:.\EncoreImpl.c ****     {        
 825:.\EncoreImpl.c ****         uint8_t index = 0;
 3046              		.loc 1 825 0
 3047 0012 0023     		movs	r3, #0
 3048 0014 FB74     		strb	r3, [r7, #19]
 826:.\EncoreImpl.c ****         memset(ppump->_rxbuffer, 0x00, _PUMP_RX_BUFFER_SIZE_);
 3049              		.loc 1 826 0
 3050 0016 7B69     		ldr	r3, [r7, #20]
ARM GAS  C:\Users\RECEPC~1\AppData\Local\Temp\ccFc1mZV.s 			page 69


 3051 0018 03F5D073 		add	r3, r3, #416
 3052 001c 1846     		mov	r0, r3
 3053 001e 0021     		movs	r1, #0
 3054 0020 4FF4C072 		mov	r2, #384
 3055 0024 FFF7FEFF 		bl	memset
 827:.\EncoreImpl.c ****         PUARTMESSAGEPTR puartdisp = GetUARTMessageSlot(UART_DISPENSER);
 3056              		.loc 1 827 0
 3057 0028 A220     		movs	r0, #162
 3058 002a FFF7FEFF 		bl	GetUARTMessageSlot
 3059 002e F860     		str	r0, [r7, #12]
 828:.\EncoreImpl.c ****         if(puartdisp)
 3060              		.loc 1 828 0
 3061 0030 FB68     		ldr	r3, [r7, #12]
 3062 0032 002B     		cmp	r3, #0
 3063 0034 16D0     		beq	.L86
 829:.\EncoreImpl.c ****         {
 830:.\EncoreImpl.c ****             puartdisp->_messagetx[index++] = PUMP_COMMAND(PUMP_TOTALS_DATA_REQUEST, ppump->_pumpid)
 3064              		.loc 1 830 0
 3065 0036 FB7C     		ldrb	r3, [r7, #19]	@ zero_extendqisi2
 3066 0038 5A1C     		adds	r2, r3, #1
 3067 003a FA74     		strb	r2, [r7, #19]
 3068 003c 1946     		mov	r1, r3
 3069 003e 7B69     		ldr	r3, [r7, #20]
 3070 0040 1B78     		ldrb	r3, [r3]	@ zero_extendqisi2
 3071 0042 DBB2     		uxtb	r3, r3
 3072 0044 03F00F03 		and	r3, r3, #15
 3073 0048 DBB2     		uxtb	r3, r3
 3074 004a 43F05003 		orr	r3, r3, #80
 3075 004e DBB2     		uxtb	r3, r3
 3076 0050 DAB2     		uxtb	r2, r3
 3077 0052 FB68     		ldr	r3, [r7, #12]
 3078 0054 0B44     		add	r3, r3, r1
 3079 0056 1A71     		strb	r2, [r3, #4]
 831:.\EncoreImpl.c ****             puartdisp->_messagelength = 1;//One byte
 3080              		.loc 1 831 0
 3081 0058 FB68     		ldr	r3, [r7, #12]
 3082 005a 0122     		movs	r2, #1
 3083 005c 5A80     		strh	r2, [r3, #2]	@ movhi
 832:.\EncoreImpl.c ****             puartdisp->_messagestate = PENDING;
 3084              		.loc 1 832 0
 3085 005e FB68     		ldr	r3, [r7, #12]
 3086 0060 C222     		movs	r2, #194
 3087 0062 1A70     		strb	r2, [r3]
 3088              	.L86:
 3089              	.LBE12:
 833:.\EncoreImpl.c ****         }
 834:.\EncoreImpl.c ****     }
 835:.\EncoreImpl.c **** }
 3090              		.loc 1 835 0
 3091 0064 1837     		adds	r7, r7, #24
 3092              		.cfi_def_cfa_offset 8
 3093 0066 BD46     		mov	sp, r7
 3094              		.cfi_def_cfa_register 13
 3095              		@ sp needed
 3096 0068 80BD     		pop	{r7, pc}
 3097              		.cfi_endproc
 3098              	.LFE76:
ARM GAS  C:\Users\RECEPC~1\AppData\Local\Temp\ccFc1mZV.s 			page 70


 3099              		.size	PumpTotalsDataRequest, .-PumpTotalsDataRequest
 3100 006a 00BF     		.section	.text.PumpDataToPump,"ax",%progbits
 3101              		.align	2
 3102              		.global	PumpDataToPump
 3103              		.thumb
 3104              		.thumb_func
 3105              		.type	PumpDataToPump, %function
 3106              	PumpDataToPump:
 3107              	.LFB77:
 836:.\EncoreImpl.c **** 
 837:.\EncoreImpl.c **** //@Created By: HIJH
 838:.\EncoreImpl.c **** //@Date: Septembre de 2016
 839:.\EncoreImpl.c **** //Requests the pump to enter in "SEND DATA" mode. This is a single byte command with a special one 
 840:.\EncoreImpl.c **** //that indicates that the pump is ready to receive data.
 841:.\EncoreImpl.c **** void PumpDataToPump(void *pparam)
 842:.\EncoreImpl.c **** {
 3108              		.loc 1 842 0
 3109              		.cfi_startproc
 3110              		@ args = 0, pretend = 0, frame = 24
 3111              		@ frame_needed = 1, uses_anonymous_args = 0
 3112 0000 80B5     		push	{r7, lr}
 3113              		.cfi_def_cfa_offset 8
 3114              		.cfi_offset 7, -8
 3115              		.cfi_offset 14, -4
 3116 0002 86B0     		sub	sp, sp, #24
 3117              		.cfi_def_cfa_offset 32
 3118 0004 00AF     		add	r7, sp, #0
 3119              		.cfi_def_cfa_register 7
 3120 0006 7860     		str	r0, [r7, #4]
 843:.\EncoreImpl.c ****     PNEAR_PUMPPTR ppump = (PNEAR_PUMPPTR)pparam;
 3121              		.loc 1 843 0
 3122 0008 7B68     		ldr	r3, [r7, #4]
 3123 000a 7B61     		str	r3, [r7, #20]
 844:.\EncoreImpl.c ****     if(ppump)
 3124              		.loc 1 844 0
 3125 000c 7B69     		ldr	r3, [r7, #20]
 3126 000e 002B     		cmp	r3, #0
 3127 0010 28D0     		beq	.L88
 3128              	.LBB13:
 845:.\EncoreImpl.c ****     {
 846:.\EncoreImpl.c ****         uint8_t index = 0;        
 3129              		.loc 1 846 0
 3130 0012 0023     		movs	r3, #0
 3131 0014 FB74     		strb	r3, [r7, #19]
 847:.\EncoreImpl.c ****         memset(ppump->_rxbuffer, 0x00, _PUMP_RX_BUFFER_SIZE_);
 3132              		.loc 1 847 0
 3133 0016 7B69     		ldr	r3, [r7, #20]
 3134 0018 03F5D073 		add	r3, r3, #416
 3135 001c 1846     		mov	r0, r3
 3136 001e 0021     		movs	r1, #0
 3137 0020 4FF4C072 		mov	r2, #384
 3138 0024 FFF7FEFF 		bl	memset
 848:.\EncoreImpl.c ****         PUARTMESSAGEPTR puartdisp = GetUARTMessageSlot(UART_DISPENSER);
 3139              		.loc 1 848 0
 3140 0028 A220     		movs	r0, #162
 3141 002a FFF7FEFF 		bl	GetUARTMessageSlot
 3142 002e F860     		str	r0, [r7, #12]
ARM GAS  C:\Users\RECEPC~1\AppData\Local\Temp\ccFc1mZV.s 			page 71


 849:.\EncoreImpl.c ****         if(puartdisp)
 3143              		.loc 1 849 0
 3144 0030 FB68     		ldr	r3, [r7, #12]
 3145 0032 002B     		cmp	r3, #0
 3146 0034 16D0     		beq	.L88
 850:.\EncoreImpl.c ****         {
 851:.\EncoreImpl.c ****             puartdisp->_messagetx[index++] = PUMP_COMMAND(PUMP_DATA_TO_PUMP, ppump->_pumpid);
 3147              		.loc 1 851 0
 3148 0036 FB7C     		ldrb	r3, [r7, #19]	@ zero_extendqisi2
 3149 0038 5A1C     		adds	r2, r3, #1
 3150 003a FA74     		strb	r2, [r7, #19]
 3151 003c 1946     		mov	r1, r3
 3152 003e 7B69     		ldr	r3, [r7, #20]
 3153 0040 1B78     		ldrb	r3, [r3]	@ zero_extendqisi2
 3154 0042 DBB2     		uxtb	r3, r3
 3155 0044 03F00F03 		and	r3, r3, #15
 3156 0048 DBB2     		uxtb	r3, r3
 3157 004a 43F02003 		orr	r3, r3, #32
 3158 004e DBB2     		uxtb	r3, r3
 3159 0050 DAB2     		uxtb	r2, r3
 3160 0052 FB68     		ldr	r3, [r7, #12]
 3161 0054 0B44     		add	r3, r3, r1
 3162 0056 1A71     		strb	r2, [r3, #4]
 852:.\EncoreImpl.c ****             puartdisp->_messagelength = 1;//One byte
 3163              		.loc 1 852 0
 3164 0058 FB68     		ldr	r3, [r7, #12]
 3165 005a 0122     		movs	r2, #1
 3166 005c 5A80     		strh	r2, [r3, #2]	@ movhi
 853:.\EncoreImpl.c ****             puartdisp->_messagestate = PENDING;
 3167              		.loc 1 853 0
 3168 005e FB68     		ldr	r3, [r7, #12]
 3169 0060 C222     		movs	r2, #194
 3170 0062 1A70     		strb	r2, [r3]
 3171              	.L88:
 3172              	.LBE13:
 854:.\EncoreImpl.c ****         }
 855:.\EncoreImpl.c ****     }
 856:.\EncoreImpl.c **** }
 3173              		.loc 1 856 0
 3174 0064 1837     		adds	r7, r7, #24
 3175              		.cfi_def_cfa_offset 8
 3176 0066 BD46     		mov	sp, r7
 3177              		.cfi_def_cfa_register 13
 3178              		@ sp needed
 3179 0068 80BD     		pop	{r7, pc}
 3180              		.cfi_endproc
 3181              	.LFE77:
 3182              		.size	PumpDataToPump, .-PumpDataToPump
 3183 006a 00BF     		.section	.text.PumpCreditPresetHose,"ax",%progbits
 3184              		.align	2
 3185              		.global	PumpCreditPresetHose
 3186              		.thumb
 3187              		.thumb_func
 3188              		.type	PumpCreditPresetHose, %function
 3189              	PumpCreditPresetHose:
 3190              	.LFB78:
 857:.\EncoreImpl.c **** 
ARM GAS  C:\Users\RECEPC~1\AppData\Local\Temp\ccFc1mZV.s 			page 72


 858:.\EncoreImpl.c **** 
 859:.\EncoreImpl.c **** //@Created By: HIJH
 860:.\EncoreImpl.c **** //@Septembre de 2016
 861:.\EncoreImpl.c **** ///////////////////////////////////////////////////////////////////////////////////////////////////
 862:.\EncoreImpl.c **** //This preset is a convention that applies to "Credit Transactions"
 863:.\EncoreImpl.c **** //The pump will hold all the necessary information for the preset.
 864:.\EncoreImpl.c **** //For this message the data comes as follows:
 865:.\EncoreImpl.c **** void PumpCreditPresetHose(void *pparam)
 866:.\EncoreImpl.c **** {
 3191              		.loc 1 866 0
 3192              		.cfi_startproc
 3193              		@ args = 0, pretend = 0, frame = 40
 3194              		@ frame_needed = 1, uses_anonymous_args = 0
 3195 0000 90B5     		push	{r4, r7, lr}
 3196              		.cfi_def_cfa_offset 12
 3197              		.cfi_offset 4, -12
 3198              		.cfi_offset 7, -8
 3199              		.cfi_offset 14, -4
 3200 0002 8BB0     		sub	sp, sp, #44
 3201              		.cfi_def_cfa_offset 56
 3202 0004 00AF     		add	r7, sp, #0
 3203              		.cfi_def_cfa_register 7
 3204 0006 7860     		str	r0, [r7, #4]
 867:.\EncoreImpl.c ****     PNEAR_PUMPPTR ppump = (PNEAR_PUMPPTR)pparam;
 3205              		.loc 1 867 0
 3206 0008 7B68     		ldr	r3, [r7, #4]
 3207 000a 3B62     		str	r3, [r7, #32]
 868:.\EncoreImpl.c ****     if(ppump)
 3208              		.loc 1 868 0
 3209 000c 3B6A     		ldr	r3, [r7, #32]
 3210 000e 002B     		cmp	r3, #0
 3211 0010 00F0C281 		beq	.L90
 3212              	.LBB14:
 869:.\EncoreImpl.c ****     {
 870:.\EncoreImpl.c ****         uint8_t index = 0;        
 3213              		.loc 1 870 0
 3214 0014 0023     		movs	r3, #0
 3215 0016 87F82730 		strb	r3, [r7, #39]
 871:.\EncoreImpl.c ****         PUARTMESSAGEPTR puartdisp = GetUARTMessageSlot(UART_DISPENSER);
 3216              		.loc 1 871 0
 3217 001a A220     		movs	r0, #162
 3218 001c FFF7FEFF 		bl	GetUARTMessageSlot
 3219 0020 F861     		str	r0, [r7, #28]
 872:.\EncoreImpl.c ****         memset(ppump->_rxbuffer, 0x00, _PUMP_RX_BUFFER_SIZE_);
 3220              		.loc 1 872 0
 3221 0022 3B6A     		ldr	r3, [r7, #32]
 3222 0024 03F5D073 		add	r3, r3, #416
 3223 0028 1846     		mov	r0, r3
 3224 002a 0021     		movs	r1, #0
 3225 002c 4FF4C072 		mov	r2, #384
 3226 0030 FFF7FEFF 		bl	memset
 873:.\EncoreImpl.c ****         if(puartdisp)
 3227              		.loc 1 873 0
 3228 0034 FB69     		ldr	r3, [r7, #28]
 3229 0036 002B     		cmp	r3, #0
 3230 0038 00F0AE81 		beq	.L90
 874:.\EncoreImpl.c ****         {
ARM GAS  C:\Users\RECEPC~1\AppData\Local\Temp\ccFc1mZV.s 			page 73


 875:.\EncoreImpl.c **** ///////////////////////////////////////////////////////////////////////////////////////////////////
 876:.\EncoreImpl.c ****             puartdisp->_messagetx[index++] = SOM;
 3231              		.loc 1 876 0
 3232 003c 97F82730 		ldrb	r3, [r7, #39]	@ zero_extendqisi2
 3233 0040 5A1C     		adds	r2, r3, #1
 3234 0042 87F82720 		strb	r2, [r7, #39]
 3235 0046 1A46     		mov	r2, r3
 3236 0048 FB69     		ldr	r3, [r7, #28]
 3237 004a 1344     		add	r3, r3, r2
 3238 004c FF22     		movs	r2, #255
 3239 004e 1A71     		strb	r2, [r3, #4]
 877:.\EncoreImpl.c ****             if(_g_dispenserlayoutinfo._displaydigitsmode == 0x06)
 3240              		.loc 1 877 0
 3241 0050 A94B     		ldr	r3, .L113
 3242 0052 1B7C     		ldrb	r3, [r3, #16]	@ zero_extendqisi2
 3243 0054 062B     		cmp	r3, #6
 3244 0056 40F0D580 		bne	.L92
 3245              	.LBB15:
 878:.\EncoreImpl.c ****             {
 879:.\EncoreImpl.c ****                 uint8 transtype = ((0xF0 | ppump->_authorizationinfo._presettype) == 0xF1)? 0xF2: 0
 3246              		.loc 1 879 0
 3247 005a 3B6A     		ldr	r3, [r7, #32]
 3248 005c 93F8A93B 		ldrb	r3, [r3, #2985]
 3249 0060 DBB2     		uxtb	r3, r3
 3250 0062 63F00F03 		orn	r3, r3, #15
 3251 0066 DBB2     		uxtb	r3, r3
 3252 0068 F12B     		cmp	r3, #241
 3253 006a 01D1     		bne	.L93
 3254              		.loc 1 879 0 is_stmt 0 discriminator 1
 3255 006c F223     		movs	r3, #242
 3256 006e 00E0     		b	.L94
 3257              	.L93:
 3258              		.loc 1 879 0 discriminator 2
 3259 0070 F123     		movs	r3, #241
 3260              	.L94:
 3261              		.loc 1 879 0 discriminator 4
 3262 0072 FB76     		strb	r3, [r7, #27]
 880:.\EncoreImpl.c ****                 if(transtype == 0xF1)
 3263              		.loc 1 880 0 is_stmt 1 discriminator 4
 3264 0074 FB7E     		ldrb	r3, [r7, #27]	@ zero_extendqisi2
 3265 0076 F12B     		cmp	r3, #241
 3266 0078 0AD1     		bne	.L95
 881:.\EncoreImpl.c ****                     puartdisp->_messagetx[index++] = 0xE3;
 3267              		.loc 1 881 0
 3268 007a 97F82730 		ldrb	r3, [r7, #39]	@ zero_extendqisi2
 3269 007e 5A1C     		adds	r2, r3, #1
 3270 0080 87F82720 		strb	r2, [r7, #39]
 3271 0084 1A46     		mov	r2, r3
 3272 0086 FB69     		ldr	r3, [r7, #28]
 3273 0088 1344     		add	r3, r3, r2
 3274 008a E322     		movs	r2, #227
 3275 008c 1A71     		strb	r2, [r3, #4]
 3276 008e 09E0     		b	.L96
 3277              	.L95:
 882:.\EncoreImpl.c ****                 else
 883:.\EncoreImpl.c ****                     puartdisp->_messagetx[index++] = 0xE2;
 3278              		.loc 1 883 0
ARM GAS  C:\Users\RECEPC~1\AppData\Local\Temp\ccFc1mZV.s 			page 74


 3279 0090 97F82730 		ldrb	r3, [r7, #39]	@ zero_extendqisi2
 3280 0094 5A1C     		adds	r2, r3, #1
 3281 0096 87F82720 		strb	r2, [r7, #39]
 3282 009a 1A46     		mov	r2, r3
 3283 009c FB69     		ldr	r3, [r7, #28]
 3284 009e 1344     		add	r3, r3, r2
 3285 00a0 E222     		movs	r2, #226
 3286 00a2 1A71     		strb	r2, [r3, #4]
 3287              	.L96:
 884:.\EncoreImpl.c ****                     
 885:.\EncoreImpl.c ****                 ///THIS IS AN APPLIED CONVENTION ===>> 0x0004 INDEX POSITION WITHIN THE PUMP'S BUFF
 886:.\EncoreImpl.c ****                 ///THESE CODES MUST BE MATCHED OTHERWISE THE LOGIC WILL BREAKUP THE CODE!
 887:.\EncoreImpl.c ****                 puartdisp->_messagetx[index++] = transtype;
 3288              		.loc 1 887 0
 3289 00a4 97F82730 		ldrb	r3, [r7, #39]	@ zero_extendqisi2
 3290 00a8 5A1C     		adds	r2, r3, #1
 3291 00aa 87F82720 		strb	r2, [r7, #39]
 3292 00ae 1A46     		mov	r2, r3
 3293 00b0 FB69     		ldr	r3, [r7, #28]
 3294 00b2 1344     		add	r3, r3, r2
 3295 00b4 FA7E     		ldrb	r2, [r7, #27]
 3296 00b6 1A71     		strb	r2, [r3, #4]
 888:.\EncoreImpl.c ****                 puartdisp->_messagetx[index++] = 0xF4;
 3297              		.loc 1 888 0
 3298 00b8 97F82730 		ldrb	r3, [r7, #39]	@ zero_extendqisi2
 3299 00bc 5A1C     		adds	r2, r3, #1
 3300 00be 87F82720 		strb	r2, [r7, #39]
 3301 00c2 1A46     		mov	r2, r3
 3302 00c4 FB69     		ldr	r3, [r7, #28]
 3303 00c6 1344     		add	r3, r3, r2
 3304 00c8 F422     		movs	r2, #244
 3305 00ca 1A71     		strb	r2, [r3, #4]
 889:.\EncoreImpl.c ****                 puartdisp->_messagetx[index++] = 0xF6; //Hose Data next
 3306              		.loc 1 889 0
 3307 00cc 97F82730 		ldrb	r3, [r7, #39]	@ zero_extendqisi2
 3308 00d0 5A1C     		adds	r2, r3, #1
 3309 00d2 87F82720 		strb	r2, [r7, #39]
 3310 00d6 1A46     		mov	r2, r3
 3311 00d8 FB69     		ldr	r3, [r7, #28]
 3312 00da 1344     		add	r3, r3, r2
 3313 00dc F622     		movs	r2, #246
 3314 00de 1A71     		strb	r2, [r3, #4]
 890:.\EncoreImpl.c ****                 ///THIS IS AN APPLIED CONVENTION ===>> 0x0006 INDEX POSITION WITHIN THE PUMP'S BUFF
 891:.\EncoreImpl.c ****                 ///THESE CODES MUST BE MATCHED OTHERWISE THE LOGIC WILL BREAKUP THE CODE!
 892:.\EncoreImpl.c ****                 puartdisp->_messagetx[index++] = (0xE0 | (ppump->_authorizationinfo._hoseid & 0x0F)
 3315              		.loc 1 892 0
 3316 00e0 97F82730 		ldrb	r3, [r7, #39]	@ zero_extendqisi2
 3317 00e4 5A1C     		adds	r2, r3, #1
 3318 00e6 87F82720 		strb	r2, [r7, #39]
 3319 00ea 1946     		mov	r1, r3
 3320 00ec 3B6A     		ldr	r3, [r7, #32]
 3321 00ee 93F8AA3B 		ldrb	r3, [r3, #2986]
 3322 00f2 DBB2     		uxtb	r3, r3
 3323 00f4 DBB2     		uxtb	r3, r3
 3324 00f6 03F00F03 		and	r3, r3, #15
 3325 00fa DBB2     		uxtb	r3, r3
 3326 00fc 63F01F03 		orn	r3, r3, #31
ARM GAS  C:\Users\RECEPC~1\AppData\Local\Temp\ccFc1mZV.s 			page 75


 3327 0100 DBB2     		uxtb	r3, r3
 3328 0102 DAB2     		uxtb	r2, r3
 3329 0104 FB69     		ldr	r3, [r7, #28]
 3330 0106 0B44     		add	r3, r3, r1
 3331 0108 1A71     		strb	r2, [r3, #4]
 893:.\EncoreImpl.c ****                 
 894:.\EncoreImpl.c ****                 puartdisp->_messagetx[index++] = 0xF8; //Preset Data next
 3332              		.loc 1 894 0
 3333 010a 97F82730 		ldrb	r3, [r7, #39]	@ zero_extendqisi2
 3334 010e 5A1C     		adds	r2, r3, #1
 3335 0110 87F82720 		strb	r2, [r7, #39]
 3336 0114 1A46     		mov	r2, r3
 3337 0116 FB69     		ldr	r3, [r7, #28]
 3338 0118 1344     		add	r3, r3, r2
 3339 011a F822     		movs	r2, #248
 3340 011c 1A71     		strb	r2, [r3, #4]
 895:.\EncoreImpl.c ****                 //Here we copy the remaining 8 bytes for the preset value
 896:.\EncoreImpl.c ****                 ///THIS IS AN APPLIED CONVENTION ===>> 0x0008 INDEX POSITION WITHIN THE PUMP'S BUFF
 897:.\EncoreImpl.c ****                 ///THESE CODES MUST BE MATCHED OTHERWISE THE LOGIC WILL BREAKUP THE CODE!
 898:.\EncoreImpl.c ****                 memset(PBYTECAST(&ppump->_trasactionbuffer[0x0008]),0x00, 0x0008);
 3341              		.loc 1 898 0
 3342 011e 3B6A     		ldr	r3, [r7, #32]
 3343 0120 2833     		adds	r3, r3, #40
 3344 0122 1846     		mov	r0, r3
 3345 0124 0021     		movs	r1, #0
 3346 0126 0822     		movs	r2, #8
 3347 0128 FFF7FEFF 		bl	memset
 899:.\EncoreImpl.c ****                 B78AD90CF552D9B30A(ppump->_authorizationinfo._presetamount, PBYTECAST(&ppump->_tras
 3348              		.loc 1 899 0
 3349 012c 3B6A     		ldr	r3, [r7, #32]
 3350 012e D3F8B03B 		ldr	r3, [r3, #2992]
 3351 0132 1A46     		mov	r2, r3
 3352 0134 4FF00003 		mov	r3, #0
 3353 0138 396A     		ldr	r1, [r7, #32]
 3354 013a 01F12804 		add	r4, r1, #40
 3355 013e 1046     		mov	r0, r2
 3356 0140 1946     		mov	r1, r3
 3357 0142 2246     		mov	r2, r4
 3358 0144 FFF7FEFF 		bl	B78AD90CF552D9B30A
 900:.\EncoreImpl.c ****                 char8 *ptr = &ppump->_trasactionbuffer[0x0008];
 3359              		.loc 1 900 0
 3360 0148 3B6A     		ldr	r3, [r7, #32]
 3361 014a 2833     		adds	r3, r3, #40
 3362 014c 7B61     		str	r3, [r7, #20]
 901:.\EncoreImpl.c ****                 if(transtype == 0xF1) //Volume PRESET, then multiply by 1000
 3363              		.loc 1 901 0
 3364 014e FB7E     		ldrb	r3, [r7, #27]	@ zero_extendqisi2
 3365 0150 F12B     		cmp	r3, #241
 3366 0152 27D1     		bne	.L97
 3367              	.LBB16:
 902:.\EncoreImpl.c ****                 {
 903:.\EncoreImpl.c ****                     CastVolumeValue(ptr, 0x08);
 3368              		.loc 1 903 0
 3369 0154 7869     		ldr	r0, [r7, #20]
 3370 0156 0821     		movs	r1, #8
 3371 0158 FFF7FEFF 		bl	CastVolumeValue
 904:.\EncoreImpl.c ****                     
ARM GAS  C:\Users\RECEPC~1\AppData\Local\Temp\ccFc1mZV.s 			page 76


 905:.\EncoreImpl.c ****                     FOR(uint8 buffndx = 0, buffndx < 0x05, buffndx++)
 3372              		.loc 1 905 0
 3373 015c 0023     		movs	r3, #0
 3374 015e 87F82630 		strb	r3, [r7, #38]
 3375 0162 1AE0     		b	.L98
 3376              	.L99:
 906:.\EncoreImpl.c ****                         puartdisp->_messagetx[index++] = (0xE0 | (ptr[buffndx] & 0x0F)); //Translat
 3377              		.loc 1 906 0 discriminator 3
 3378 0164 97F82730 		ldrb	r3, [r7, #39]	@ zero_extendqisi2
 3379 0168 5A1C     		adds	r2, r3, #1
 3380 016a 87F82720 		strb	r2, [r7, #39]
 3381 016e 1946     		mov	r1, r3
 3382 0170 97F82630 		ldrb	r3, [r7, #38]	@ zero_extendqisi2
 3383 0174 7A69     		ldr	r2, [r7, #20]
 3384 0176 1344     		add	r3, r3, r2
 3385 0178 1B78     		ldrb	r3, [r3]	@ zero_extendqisi2
 3386 017a DBB2     		uxtb	r3, r3
 3387 017c 03F00F03 		and	r3, r3, #15
 3388 0180 DBB2     		uxtb	r3, r3
 3389 0182 63F01F03 		orn	r3, r3, #31
 3390 0186 DBB2     		uxtb	r3, r3
 3391 0188 DAB2     		uxtb	r2, r3
 3392 018a FB69     		ldr	r3, [r7, #28]
 3393 018c 0B44     		add	r3, r3, r1
 3394 018e 1A71     		strb	r2, [r3, #4]
 905:.\EncoreImpl.c ****                         puartdisp->_messagetx[index++] = (0xE0 | (ptr[buffndx] & 0x0F)); //Translat
 3395              		.loc 1 905 0 discriminator 3
 3396 0190 97F82630 		ldrb	r3, [r7, #38]	@ zero_extendqisi2
 3397 0194 0133     		adds	r3, r3, #1
 3398 0196 87F82630 		strb	r3, [r7, #38]
 3399              	.L98:
 905:.\EncoreImpl.c ****                         puartdisp->_messagetx[index++] = (0xE0 | (ptr[buffndx] & 0x0F)); //Translat
 3400              		.loc 1 905 0 is_stmt 0 discriminator 1
 3401 019a 97F82630 		ldrb	r3, [r7, #38]	@ zero_extendqisi2
 3402 019e 042B     		cmp	r3, #4
 3403 01a0 E0D9     		bls	.L99
 3404              	.LBE16:
 3405 01a2 2EE0     		b	.L100
 3406              	.L97:
 3407              	.LBB17:
 907:.\EncoreImpl.c ****                 }
 908:.\EncoreImpl.c ****                 else
 909:.\EncoreImpl.c ****                 {
 910:.\EncoreImpl.c ****                     if(!(_g_dispenserlayoutinfo._moneydecimals == 0x03 && _g_dispenserlayoutinfo._p
 3408              		.loc 1 910 0 is_stmt 1
 3409 01a4 544B     		ldr	r3, .L113
 3410 01a6 DB79     		ldrb	r3, [r3, #7]	@ zero_extendqisi2
 3411 01a8 032B     		cmp	r3, #3
 3412 01aa 03D1     		bne	.L101
 3413              		.loc 1 910 0 is_stmt 0 discriminator 1
 3414 01ac 524B     		ldr	r3, .L113
 3415 01ae 1B7A     		ldrb	r3, [r3, #8]	@ zero_extendqisi2
 3416 01b0 022B     		cmp	r3, #2
 3417 01b2 03D0     		beq	.L102
 3418              	.L101:
 911:.\EncoreImpl.c ****                         CastMoneyValue(ptr, 0x08);
 3419              		.loc 1 911 0 is_stmt 1
ARM GAS  C:\Users\RECEPC~1\AppData\Local\Temp\ccFc1mZV.s 			page 77


 3420 01b4 7869     		ldr	r0, [r7, #20]
 3421 01b6 0821     		movs	r1, #8
 3422 01b8 FFF7FEFF 		bl	CastMoneyValue
 3423              	.L102:
 912:.\EncoreImpl.c ****                     
 913:.\EncoreImpl.c ****                     FOR(uint8 buffndx = 0, buffndx < 0x06, buffndx++)
 3424              		.loc 1 913 0
 3425 01bc 0023     		movs	r3, #0
 3426 01be 87F82530 		strb	r3, [r7, #37]
 3427 01c2 1AE0     		b	.L103
 3428              	.L104:
 914:.\EncoreImpl.c ****                         puartdisp->_messagetx[index++] = (0xE0 | (ptr[buffndx] & 0x0F)); //Translat
 3429              		.loc 1 914 0 discriminator 3
 3430 01c4 97F82730 		ldrb	r3, [r7, #39]	@ zero_extendqisi2
 3431 01c8 5A1C     		adds	r2, r3, #1
 3432 01ca 87F82720 		strb	r2, [r7, #39]
 3433 01ce 1946     		mov	r1, r3
 3434 01d0 97F82530 		ldrb	r3, [r7, #37]	@ zero_extendqisi2
 3435 01d4 7A69     		ldr	r2, [r7, #20]
 3436 01d6 1344     		add	r3, r3, r2
 3437 01d8 1B78     		ldrb	r3, [r3]	@ zero_extendqisi2
 3438 01da DBB2     		uxtb	r3, r3
 3439 01dc 03F00F03 		and	r3, r3, #15
 3440 01e0 DBB2     		uxtb	r3, r3
 3441 01e2 63F01F03 		orn	r3, r3, #31
 3442 01e6 DBB2     		uxtb	r3, r3
 3443 01e8 DAB2     		uxtb	r2, r3
 3444 01ea FB69     		ldr	r3, [r7, #28]
 3445 01ec 0B44     		add	r3, r3, r1
 3446 01ee 1A71     		strb	r2, [r3, #4]
 913:.\EncoreImpl.c ****                         puartdisp->_messagetx[index++] = (0xE0 | (ptr[buffndx] & 0x0F)); //Translat
 3447              		.loc 1 913 0 discriminator 3
 3448 01f0 97F82530 		ldrb	r3, [r7, #37]	@ zero_extendqisi2
 3449 01f4 0133     		adds	r3, r3, #1
 3450 01f6 87F82530 		strb	r3, [r7, #37]
 3451              	.L103:
 913:.\EncoreImpl.c ****                         puartdisp->_messagetx[index++] = (0xE0 | (ptr[buffndx] & 0x0F)); //Translat
 3452              		.loc 1 913 0 is_stmt 0 discriminator 1
 3453 01fa 97F82530 		ldrb	r3, [r7, #37]	@ zero_extendqisi2
 3454 01fe 052B     		cmp	r3, #5
 3455 0200 E0D9     		bls	.L104
 3456              	.L100:
 3457              	.LBE17:
 3458              	.LBE15:
 3459 0202 9AE0     		b	.L105
 3460              	.L92:
 3461              	.LBB18:
 915:.\EncoreImpl.c ****                 }
 916:.\EncoreImpl.c ****             }
 917:.\EncoreImpl.c ****             else
 918:.\EncoreImpl.c ****             {
 919:.\EncoreImpl.c ****                 puartdisp->_messagetx[index++] = 0xE1;
 3462              		.loc 1 919 0 is_stmt 1
 3463 0204 97F82730 		ldrb	r3, [r7, #39]	@ zero_extendqisi2
 3464 0208 5A1C     		adds	r2, r3, #1
 3465 020a 87F82720 		strb	r2, [r7, #39]
 3466 020e 1A46     		mov	r2, r3
ARM GAS  C:\Users\RECEPC~1\AppData\Local\Temp\ccFc1mZV.s 			page 78


 3467 0210 FB69     		ldr	r3, [r7, #28]
 3468 0212 1344     		add	r3, r3, r2
 3469 0214 E122     		movs	r2, #225
 3470 0216 1A71     		strb	r2, [r3, #4]
 920:.\EncoreImpl.c ****                     
 921:.\EncoreImpl.c ****                 ///THIS IS AN APPLIED CONVENTION ===>> 0x0004 INDEX POSITION WITHIN THE PUMP'S BUFF
 922:.\EncoreImpl.c ****                 ///THESE CODES MUST BE MATCHED OTHERWISE THE LOGIC WILL BREAKUP THE CODE!
 923:.\EncoreImpl.c ****                 uint8 transtype = ((0xF0 | ppump->_authorizationinfo._presettype) == 0xF1)? 0xF2: 0
 3471              		.loc 1 923 0
 3472 0218 3B6A     		ldr	r3, [r7, #32]
 3473 021a 93F8A93B 		ldrb	r3, [r3, #2985]
 3474 021e DBB2     		uxtb	r3, r3
 3475 0220 63F00F03 		orn	r3, r3, #15
 3476 0224 DBB2     		uxtb	r3, r3
 3477 0226 F12B     		cmp	r3, #241
 3478 0228 01D1     		bne	.L106
 3479              		.loc 1 923 0 is_stmt 0 discriminator 1
 3480 022a F223     		movs	r3, #242
 3481 022c 00E0     		b	.L107
 3482              	.L106:
 3483              		.loc 1 923 0 discriminator 2
 3484 022e F123     		movs	r3, #241
 3485              	.L107:
 3486              		.loc 1 923 0 discriminator 4
 3487 0230 FB74     		strb	r3, [r7, #19]
 924:.\EncoreImpl.c ****                 puartdisp->_messagetx[index++] = transtype;
 3488              		.loc 1 924 0 is_stmt 1 discriminator 4
 3489 0232 97F82730 		ldrb	r3, [r7, #39]	@ zero_extendqisi2
 3490 0236 5A1C     		adds	r2, r3, #1
 3491 0238 87F82720 		strb	r2, [r7, #39]
 3492 023c 1A46     		mov	r2, r3
 3493 023e FB69     		ldr	r3, [r7, #28]
 3494 0240 1344     		add	r3, r3, r2
 3495 0242 FA7C     		ldrb	r2, [r7, #19]
 3496 0244 1A71     		strb	r2, [r3, #4]
 925:.\EncoreImpl.c **** 
 926:.\EncoreImpl.c ****                 puartdisp->_messagetx[index++] = 0xF6; //Hose Data next
 3497              		.loc 1 926 0 discriminator 4
 3498 0246 97F82730 		ldrb	r3, [r7, #39]	@ zero_extendqisi2
 3499 024a 5A1C     		adds	r2, r3, #1
 3500 024c 87F82720 		strb	r2, [r7, #39]
 3501 0250 1A46     		mov	r2, r3
 3502 0252 FB69     		ldr	r3, [r7, #28]
 3503 0254 1344     		add	r3, r3, r2
 3504 0256 F622     		movs	r2, #246
 3505 0258 1A71     		strb	r2, [r3, #4]
 927:.\EncoreImpl.c ****                 ///THIS IS AN APPLIED CONVENTION ===>> 0x0006 INDEX POSITION WITHIN THE PUMP'S BUFF
 928:.\EncoreImpl.c ****                 ///THESE CODES MUST BE MATCHED OTHERWISE THE LOGIC WILL BREAKUP THE CODE!
 929:.\EncoreImpl.c ****                 puartdisp->_messagetx[index++] = (0xE0 | (ppump->_authorizationinfo._hoseid & 0x0F)
 3506              		.loc 1 929 0 discriminator 4
 3507 025a 97F82730 		ldrb	r3, [r7, #39]	@ zero_extendqisi2
 3508 025e 5A1C     		adds	r2, r3, #1
 3509 0260 87F82720 		strb	r2, [r7, #39]
 3510 0264 1946     		mov	r1, r3
 3511 0266 3B6A     		ldr	r3, [r7, #32]
 3512 0268 93F8AA3B 		ldrb	r3, [r3, #2986]
 3513 026c DBB2     		uxtb	r3, r3
ARM GAS  C:\Users\RECEPC~1\AppData\Local\Temp\ccFc1mZV.s 			page 79


 3514 026e DBB2     		uxtb	r3, r3
 3515 0270 03F00F03 		and	r3, r3, #15
 3516 0274 DBB2     		uxtb	r3, r3
 3517 0276 63F01F03 		orn	r3, r3, #31
 3518 027a DBB2     		uxtb	r3, r3
 3519 027c DAB2     		uxtb	r2, r3
 3520 027e FB69     		ldr	r3, [r7, #28]
 3521 0280 0B44     		add	r3, r3, r1
 3522 0282 1A71     		strb	r2, [r3, #4]
 930:.\EncoreImpl.c ****                 
 931:.\EncoreImpl.c ****                 puartdisp->_messagetx[index++] = 0xF8; //Preset Data next
 3523              		.loc 1 931 0 discriminator 4
 3524 0284 97F82730 		ldrb	r3, [r7, #39]	@ zero_extendqisi2
 3525 0288 5A1C     		adds	r2, r3, #1
 3526 028a 87F82720 		strb	r2, [r7, #39]
 3527 028e 1A46     		mov	r2, r3
 3528 0290 FB69     		ldr	r3, [r7, #28]
 3529 0292 1344     		add	r3, r3, r2
 3530 0294 F822     		movs	r2, #248
 3531 0296 1A71     		strb	r2, [r3, #4]
 932:.\EncoreImpl.c ****                 //Here we copy the remaining 8 bytes for the preset value
 933:.\EncoreImpl.c ****                 ///THIS IS AN APPLIED CONVENTION ===>> 0x0008 INDEX POSITION WITHIN THE PUMP'S BUFF
 934:.\EncoreImpl.c ****                 ///THESE CODES MUST BE MATCHED OTHERWISE THE LOGIC WILL BREAKUP THE CODE!
 935:.\EncoreImpl.c ****                 memset(PBYTECAST(&ppump->_trasactionbuffer[0x0008]),0x00, 0x0008);
 3532              		.loc 1 935 0 discriminator 4
 3533 0298 3B6A     		ldr	r3, [r7, #32]
 3534 029a 2833     		adds	r3, r3, #40
 3535 029c 1846     		mov	r0, r3
 3536 029e 0021     		movs	r1, #0
 3537 02a0 0822     		movs	r2, #8
 3538 02a2 FFF7FEFF 		bl	memset
 936:.\EncoreImpl.c ****                 B78AD90CF552D9B30A(ppump->_authorizationinfo._presetamount, PBYTECAST(&ppump->_tras
 3539              		.loc 1 936 0 discriminator 4
 3540 02a6 3B6A     		ldr	r3, [r7, #32]
 3541 02a8 D3F8B03B 		ldr	r3, [r3, #2992]
 3542 02ac 1A46     		mov	r2, r3
 3543 02ae 4FF00003 		mov	r3, #0
 3544 02b2 396A     		ldr	r1, [r7, #32]
 3545 02b4 01F12804 		add	r4, r1, #40
 3546 02b8 1046     		mov	r0, r2
 3547 02ba 1946     		mov	r1, r3
 3548 02bc 2246     		mov	r2, r4
 3549 02be FFF7FEFF 		bl	B78AD90CF552D9B30A
 937:.\EncoreImpl.c ****                 char8 *ptr = &ppump->_trasactionbuffer[0x0008];
 3550              		.loc 1 937 0 discriminator 4
 3551 02c2 3B6A     		ldr	r3, [r7, #32]
 3552 02c4 2833     		adds	r3, r3, #40
 3553 02c6 FB60     		str	r3, [r7, #12]
 938:.\EncoreImpl.c ****                 if(transtype == 0xF1) //Volume PRESET, then multiply by 1000
 3554              		.loc 1 938 0 discriminator 4
 3555 02c8 FB7C     		ldrb	r3, [r7, #19]	@ zero_extendqisi2
 3556 02ca F12B     		cmp	r3, #241
 3557 02cc 04D1     		bne	.L108
 939:.\EncoreImpl.c ****                     CastVolumeValue(ptr, 0x08);
 3558              		.loc 1 939 0
 3559 02ce F868     		ldr	r0, [r7, #12]
 3560 02d0 0821     		movs	r1, #8
ARM GAS  C:\Users\RECEPC~1\AppData\Local\Temp\ccFc1mZV.s 			page 80


 3561 02d2 FFF7FEFF 		bl	CastVolumeValue
 3562 02d6 0BE0     		b	.L109
 3563              	.L108:
 940:.\EncoreImpl.c ****                 else if(!(_g_dispenserlayoutinfo._moneydecimals == 0x03 && _g_dispenserlayoutinfo._
 3564              		.loc 1 940 0
 3565 02d8 074B     		ldr	r3, .L113
 3566 02da DB79     		ldrb	r3, [r3, #7]	@ zero_extendqisi2
 3567 02dc 032B     		cmp	r3, #3
 3568 02de 03D1     		bne	.L110
 3569              		.loc 1 940 0 is_stmt 0 discriminator 1
 3570 02e0 054B     		ldr	r3, .L113
 3571 02e2 1B7A     		ldrb	r3, [r3, #8]	@ zero_extendqisi2
 3572 02e4 022B     		cmp	r3, #2
 3573 02e6 03D0     		beq	.L109
 3574              	.L110:
 941:.\EncoreImpl.c ****                     CastMoneyValue(ptr, 0x08);
 3575              		.loc 1 941 0 is_stmt 1
 3576 02e8 F868     		ldr	r0, [r7, #12]
 3577 02ea 0821     		movs	r1, #8
 3578 02ec FFF7FEFF 		bl	CastMoneyValue
 3579              	.L109:
 942:.\EncoreImpl.c ****                     
 943:.\EncoreImpl.c ****                 FOR(uint8 buffndx = 0, buffndx < 0x08, buffndx++)
 3580              		.loc 1 943 0
 3581 02f0 0023     		movs	r3, #0
 3582 02f2 87F82430 		strb	r3, [r7, #36]
 3583 02f6 1CE0     		b	.L111
 3584              	.L114:
 3585              		.align	2
 3586              	.L113:
 3587 02f8 00000000 		.word	_g_dispenserlayoutinfo
 3588              	.L112:
 944:.\EncoreImpl.c ****                     puartdisp->_messagetx[index++] = (0xE0 | (ptr[buffndx] & 0x0F)); //Translate fr
 3589              		.loc 1 944 0 discriminator 3
 3590 02fc 97F82730 		ldrb	r3, [r7, #39]	@ zero_extendqisi2
 3591 0300 5A1C     		adds	r2, r3, #1
 3592 0302 87F82720 		strb	r2, [r7, #39]
 3593 0306 1946     		mov	r1, r3
 3594 0308 97F82430 		ldrb	r3, [r7, #36]	@ zero_extendqisi2
 3595 030c FA68     		ldr	r2, [r7, #12]
 3596 030e 1344     		add	r3, r3, r2
 3597 0310 1B78     		ldrb	r3, [r3]	@ zero_extendqisi2
 3598 0312 DBB2     		uxtb	r3, r3
 3599 0314 03F00F03 		and	r3, r3, #15
 3600 0318 DBB2     		uxtb	r3, r3
 3601 031a 63F01F03 		orn	r3, r3, #31
 3602 031e DBB2     		uxtb	r3, r3
 3603 0320 DAB2     		uxtb	r2, r3
 3604 0322 FB69     		ldr	r3, [r7, #28]
 3605 0324 0B44     		add	r3, r3, r1
 3606 0326 1A71     		strb	r2, [r3, #4]
 943:.\EncoreImpl.c ****                     puartdisp->_messagetx[index++] = (0xE0 | (ptr[buffndx] & 0x0F)); //Translate fr
 3607              		.loc 1 943 0 discriminator 3
 3608 0328 97F82430 		ldrb	r3, [r7, #36]	@ zero_extendqisi2
 3609 032c 0133     		adds	r3, r3, #1
 3610 032e 87F82430 		strb	r3, [r7, #36]
 3611              	.L111:
ARM GAS  C:\Users\RECEPC~1\AppData\Local\Temp\ccFc1mZV.s 			page 81


 943:.\EncoreImpl.c ****                     puartdisp->_messagetx[index++] = (0xE0 | (ptr[buffndx] & 0x0F)); //Translate fr
 3612              		.loc 1 943 0 is_stmt 0 discriminator 1
 3613 0332 97F82430 		ldrb	r3, [r7, #36]	@ zero_extendqisi2
 3614 0336 072B     		cmp	r3, #7
 3615 0338 E0D9     		bls	.L112
 3616              	.L105:
 3617              	.LBE18:
 945:.\EncoreImpl.c ****             }
 946:.\EncoreImpl.c ****             
 947:.\EncoreImpl.c ****             ppump->_presetdone = true;
 3618              		.loc 1 947 0 is_stmt 1
 3619 033a 3B6A     		ldr	r3, [r7, #32]
 3620 033c 0122     		movs	r2, #1
 3621 033e 1A72     		strb	r2, [r3, #8]
 948:.\EncoreImpl.c ****             puartdisp->_messagetx[index++] = LRCn; //LRC next
 3622              		.loc 1 948 0
 3623 0340 97F82730 		ldrb	r3, [r7, #39]	@ zero_extendqisi2
 3624 0344 5A1C     		adds	r2, r3, #1
 3625 0346 87F82720 		strb	r2, [r7, #39]
 3626 034a 1A46     		mov	r2, r3
 3627 034c FB69     		ldr	r3, [r7, #28]
 3628 034e 1344     		add	r3, r3, r2
 3629 0350 FB22     		movs	r2, #251
 3630 0352 1A71     		strb	r2, [r3, #4]
 949:.\EncoreImpl.c ****             puartdisp->_messagetx[index++] = GetLRC(puartdisp->_messagetx);
 3631              		.loc 1 949 0
 3632 0354 97F82730 		ldrb	r3, [r7, #39]	@ zero_extendqisi2
 3633 0358 5A1C     		adds	r2, r3, #1
 3634 035a 87F82720 		strb	r2, [r7, #39]
 3635 035e 1C46     		mov	r4, r3
 3636 0360 FB69     		ldr	r3, [r7, #28]
 3637 0362 0433     		adds	r3, r3, #4
 3638 0364 1846     		mov	r0, r3
 3639 0366 FFF7FEFF 		bl	GetLRC
 3640 036a 0346     		mov	r3, r0
 3641 036c 1A46     		mov	r2, r3
 3642 036e FB69     		ldr	r3, [r7, #28]
 3643 0370 2344     		add	r3, r3, r4
 3644 0372 1A71     		strb	r2, [r3, #4]
 950:.\EncoreImpl.c ****             puartdisp->_messagetx[index++] = EOM;
 3645              		.loc 1 950 0
 3646 0374 97F82730 		ldrb	r3, [r7, #39]	@ zero_extendqisi2
 3647 0378 5A1C     		adds	r2, r3, #1
 3648 037a 87F82720 		strb	r2, [r7, #39]
 3649 037e 1A46     		mov	r2, r3
 3650 0380 FB69     		ldr	r3, [r7, #28]
 3651 0382 1344     		add	r3, r3, r2
 3652 0384 F022     		movs	r2, #240
 3653 0386 1A71     		strb	r2, [r3, #4]
 951:.\EncoreImpl.c **** ///////////////////////////////////////////////////////////////////////////////////////////////////
 952:.\EncoreImpl.c ****             
 953:.\EncoreImpl.c ****             puartdisp->_messagelength = index;
 3654              		.loc 1 953 0
 3655 0388 97F82730 		ldrb	r3, [r7, #39]	@ zero_extendqisi2
 3656 038c 9AB2     		uxth	r2, r3
 3657 038e FB69     		ldr	r3, [r7, #28]
 3658 0390 5A80     		strh	r2, [r3, #2]	@ movhi
ARM GAS  C:\Users\RECEPC~1\AppData\Local\Temp\ccFc1mZV.s 			page 82


 954:.\EncoreImpl.c ****             puartdisp->_messagestate = PENDING;
 3659              		.loc 1 954 0
 3660 0392 FB69     		ldr	r3, [r7, #28]
 3661 0394 C222     		movs	r2, #194
 3662 0396 1A70     		strb	r2, [r3]
 3663              	.L90:
 3664              	.LBE14:
 955:.\EncoreImpl.c ****         }
 956:.\EncoreImpl.c ****     }
 957:.\EncoreImpl.c ****     
 958:.\EncoreImpl.c **** }
 3665              		.loc 1 958 0
 3666 0398 2C37     		adds	r7, r7, #44
 3667              		.cfi_def_cfa_offset 12
 3668 039a BD46     		mov	sp, r7
 3669              		.cfi_def_cfa_register 13
 3670              		@ sp needed
 3671 039c 90BD     		pop	{r4, r7, pc}
 3672              		.cfi_endproc
 3673              	.LFE78:
 3674              		.size	PumpCreditPresetHose, .-PumpCreditPresetHose
 3675 039e 00BF     		.section	.text.PumpPresetHose,"ax",%progbits
 3676              		.align	2
 3677              		.global	PumpPresetHose
 3678              		.thumb
 3679              		.thumb_func
 3680              		.type	PumpPresetHose, %function
 3681              	PumpPresetHose:
 3682              	.LFB79:
 959:.\EncoreImpl.c **** 
 960:.\EncoreImpl.c **** //@Created By: HIJH
 961:.\EncoreImpl.c **** //@Septembre de 2016
 962:.\EncoreImpl.c **** ///////////////////////////////////////////////////////////////////////////////////////////////////
 963:.\EncoreImpl.c **** //Preset values will be placed within the SinkMessage's buffer. This is a convention that applies t
 964:.\EncoreImpl.c **** //all of the available transactions. The pump function must deal with this while it is assembling t
 965:.\EncoreImpl.c **** //For this message the data comes as follows:
 966:.\EncoreImpl.c **** // - First byte is the preset type (Volume:1 / Money:2 )
 967:.\EncoreImpl.c **** // - Second byte is the Hose (A:0, B:1, C:2, D:3)
 968:.\EncoreImpl.c **** // - Block of 8 bytes for the preset value
 969:.\EncoreImpl.c **** //This block of data (10 bytes) must be moved to another position within the same buffer (even posi
 970:.\EncoreImpl.c **** void PumpPresetHose(void *pparam)
 971:.\EncoreImpl.c **** {
 3683              		.loc 1 971 0
 3684              		.cfi_startproc
 3685              		@ args = 0, pretend = 0, frame = 40
 3686              		@ frame_needed = 1, uses_anonymous_args = 0
 3687 0000 90B5     		push	{r4, r7, lr}
 3688              		.cfi_def_cfa_offset 12
 3689              		.cfi_offset 4, -12
 3690              		.cfi_offset 7, -8
 3691              		.cfi_offset 14, -4
 3692 0002 8BB0     		sub	sp, sp, #44
 3693              		.cfi_def_cfa_offset 56
 3694 0004 00AF     		add	r7, sp, #0
 3695              		.cfi_def_cfa_register 7
 3696 0006 7860     		str	r0, [r7, #4]
 972:.\EncoreImpl.c ****     PNEAR_PUMPPTR ppump = (PNEAR_PUMPPTR)pparam;
ARM GAS  C:\Users\RECEPC~1\AppData\Local\Temp\ccFc1mZV.s 			page 83


 3697              		.loc 1 972 0
 3698 0008 7B68     		ldr	r3, [r7, #4]
 3699 000a 3B62     		str	r3, [r7, #32]
 973:.\EncoreImpl.c ****     if(ppump)
 3700              		.loc 1 973 0
 3701 000c 3B6A     		ldr	r3, [r7, #32]
 3702 000e 002B     		cmp	r3, #0
 3703 0010 00F09D81 		beq	.L115
 3704              	.LBB19:
 974:.\EncoreImpl.c ****     {
 975:.\EncoreImpl.c ****         uint8_t index = 0;        
 3705              		.loc 1 975 0
 3706 0014 0023     		movs	r3, #0
 3707 0016 87F82730 		strb	r3, [r7, #39]
 976:.\EncoreImpl.c ****         PUARTMESSAGEPTR puartdisp = GetUARTMessageSlot(UART_DISPENSER);
 3708              		.loc 1 976 0
 3709 001a A220     		movs	r0, #162
 3710 001c FFF7FEFF 		bl	GetUARTMessageSlot
 3711 0020 F861     		str	r0, [r7, #28]
 977:.\EncoreImpl.c ****         memset(ppump->_rxbuffer, 0x00, _PUMP_RX_BUFFER_SIZE_);
 3712              		.loc 1 977 0
 3713 0022 3B6A     		ldr	r3, [r7, #32]
 3714 0024 03F5D073 		add	r3, r3, #416
 3715 0028 1846     		mov	r0, r3
 3716 002a 0021     		movs	r1, #0
 3717 002c 4FF4C072 		mov	r2, #384
 3718 0030 FFF7FEFF 		bl	memset
 978:.\EncoreImpl.c ****         if(puartdisp)
 3719              		.loc 1 978 0
 3720 0034 FB69     		ldr	r3, [r7, #28]
 3721 0036 002B     		cmp	r3, #0
 3722 0038 00F08981 		beq	.L115
 979:.\EncoreImpl.c ****         {
 980:.\EncoreImpl.c **** ///////////////////////////////////////////////////////////////////////////////////////////////////
 981:.\EncoreImpl.c ****             puartdisp->_messagetx[index++] = SOM;
 3723              		.loc 1 981 0
 3724 003c 97F82730 		ldrb	r3, [r7, #39]	@ zero_extendqisi2
 3725 0040 5A1C     		adds	r2, r3, #1
 3726 0042 87F82720 		strb	r2, [r7, #39]
 3727 0046 1A46     		mov	r2, r3
 3728 0048 FB69     		ldr	r3, [r7, #28]
 3729 004a 1344     		add	r3, r3, r2
 3730 004c FF22     		movs	r2, #255
 3731 004e 1A71     		strb	r2, [r3, #4]
 982:.\EncoreImpl.c ****             if(_g_dispenserlayoutinfo._displaydigitsmode == 0x06)
 3732              		.loc 1 982 0
 3733 0050 C04B     		ldr	r3, .L138
 3734 0052 1B7C     		ldrb	r3, [r3, #16]	@ zero_extendqisi2
 3735 0054 062B     		cmp	r3, #6
 3736 0056 40F0C580 		bne	.L117
 3737              	.LBB20:
 983:.\EncoreImpl.c ****             {
 984:.\EncoreImpl.c ****                 uint8 transtype = (0xF0 | ((ppump->_trasactionbuffer[0x0004] == 0x0F)? 0x02: 0x01))
 3738              		.loc 1 984 0
 3739 005a 3B6A     		ldr	r3, [r7, #32]
 3740 005c 93F82430 		ldrb	r3, [r3, #36]	@ zero_extendqisi2
 3741 0060 0F2B     		cmp	r3, #15
ARM GAS  C:\Users\RECEPC~1\AppData\Local\Temp\ccFc1mZV.s 			page 84


 3742 0062 01D1     		bne	.L118
 3743              		.loc 1 984 0 is_stmt 0 discriminator 1
 3744 0064 F223     		movs	r3, #242
 3745 0066 00E0     		b	.L119
 3746              	.L118:
 3747              		.loc 1 984 0 discriminator 2
 3748 0068 F123     		movs	r3, #241
 3749              	.L119:
 3750              		.loc 1 984 0 discriminator 4
 3751 006a FB76     		strb	r3, [r7, #27]
 985:.\EncoreImpl.c ****                 if(transtype == 0xF1)
 3752              		.loc 1 985 0 is_stmt 1 discriminator 4
 3753 006c FB7E     		ldrb	r3, [r7, #27]	@ zero_extendqisi2
 3754 006e F12B     		cmp	r3, #241
 3755 0070 0AD1     		bne	.L120
 986:.\EncoreImpl.c ****                     puartdisp->_messagetx[index++] = 0xE3;
 3756              		.loc 1 986 0
 3757 0072 97F82730 		ldrb	r3, [r7, #39]	@ zero_extendqisi2
 3758 0076 5A1C     		adds	r2, r3, #1
 3759 0078 87F82720 		strb	r2, [r7, #39]
 3760 007c 1A46     		mov	r2, r3
 3761 007e FB69     		ldr	r3, [r7, #28]
 3762 0080 1344     		add	r3, r3, r2
 3763 0082 E322     		movs	r2, #227
 3764 0084 1A71     		strb	r2, [r3, #4]
 3765 0086 09E0     		b	.L121
 3766              	.L120:
 987:.\EncoreImpl.c ****                 else
 988:.\EncoreImpl.c ****                     puartdisp->_messagetx[index++] = 0xE2;
 3767              		.loc 1 988 0
 3768 0088 97F82730 		ldrb	r3, [r7, #39]	@ zero_extendqisi2
 3769 008c 5A1C     		adds	r2, r3, #1
 3770 008e 87F82720 		strb	r2, [r7, #39]
 3771 0092 1A46     		mov	r2, r3
 3772 0094 FB69     		ldr	r3, [r7, #28]
 3773 0096 1344     		add	r3, r3, r2
 3774 0098 E222     		movs	r2, #226
 3775 009a 1A71     		strb	r2, [r3, #4]
 3776              	.L121:
 989:.\EncoreImpl.c ****                 
 990:.\EncoreImpl.c ****                 ///THIS IS AN APPLIED CONVENTION ===>> 0x0004 INDEX POSITION WITHIN THE PUMP'S BUFF
 991:.\EncoreImpl.c ****                 ///THESE CODES MUST BE MATCHED OTHERWISE THE LOGIC WILL BREAKUP THE CODE!
 992:.\EncoreImpl.c ****                 puartdisp->_messagetx[index++] = transtype;
 3777              		.loc 1 992 0
 3778 009c 97F82730 		ldrb	r3, [r7, #39]	@ zero_extendqisi2
 3779 00a0 5A1C     		adds	r2, r3, #1
 3780 00a2 87F82720 		strb	r2, [r7, #39]
 3781 00a6 1A46     		mov	r2, r3
 3782 00a8 FB69     		ldr	r3, [r7, #28]
 3783 00aa 1344     		add	r3, r3, r2
 3784 00ac FA7E     		ldrb	r2, [r7, #27]
 3785 00ae 1A71     		strb	r2, [r3, #4]
 993:.\EncoreImpl.c ****                 puartdisp->_messagetx[index++] = 0xF4;
 3786              		.loc 1 993 0
 3787 00b0 97F82730 		ldrb	r3, [r7, #39]	@ zero_extendqisi2
 3788 00b4 5A1C     		adds	r2, r3, #1
 3789 00b6 87F82720 		strb	r2, [r7, #39]
ARM GAS  C:\Users\RECEPC~1\AppData\Local\Temp\ccFc1mZV.s 			page 85


 3790 00ba 1A46     		mov	r2, r3
 3791 00bc FB69     		ldr	r3, [r7, #28]
 3792 00be 1344     		add	r3, r3, r2
 3793 00c0 F422     		movs	r2, #244
 3794 00c2 1A71     		strb	r2, [r3, #4]
 994:.\EncoreImpl.c ****                 puartdisp->_messagetx[index++] = 0xF6; //Hose Data next
 3795              		.loc 1 994 0
 3796 00c4 97F82730 		ldrb	r3, [r7, #39]	@ zero_extendqisi2
 3797 00c8 5A1C     		adds	r2, r3, #1
 3798 00ca 87F82720 		strb	r2, [r7, #39]
 3799 00ce 1A46     		mov	r2, r3
 3800 00d0 FB69     		ldr	r3, [r7, #28]
 3801 00d2 1344     		add	r3, r3, r2
 3802 00d4 F622     		movs	r2, #246
 3803 00d6 1A71     		strb	r2, [r3, #4]
 995:.\EncoreImpl.c ****                 ///THIS IS AN APPLIED CONVENTION ===>> 0x0006 INDEX POSITION WITHIN THE PUMP'S BUFF
 996:.\EncoreImpl.c ****                 ///THESE CODES MUST BE MATCHED OTHERWISE THE LOGIC WILL BREAKUP THE CODE!
 997:.\EncoreImpl.c ****                 puartdisp->_messagetx[index++] = (0xE0 | (0x0F & ppump->_trasactionbuffer[GetBuffer
 3804              		.loc 1 997 0
 3805 00d8 97F82730 		ldrb	r3, [r7, #39]	@ zero_extendqisi2
 3806 00dc 5A1C     		adds	r2, r3, #1
 3807 00de 87F82720 		strb	r2, [r7, #39]
 3808 00e2 1C46     		mov	r4, r3
 3809 00e4 0720     		movs	r0, #7
 3810 00e6 FFF7FEFF 		bl	GetBufferIndexFromDisplayID
 3811 00ea 0346     		mov	r3, r0
 3812 00ec 1A46     		mov	r2, r3
 3813 00ee 3B6A     		ldr	r3, [r7, #32]
 3814 00f0 1344     		add	r3, r3, r2
 3815 00f2 93F82030 		ldrb	r3, [r3, #32]	@ zero_extendqisi2
 3816 00f6 03F00F03 		and	r3, r3, #15
 3817 00fa DBB2     		uxtb	r3, r3
 3818 00fc 63F01F03 		orn	r3, r3, #31
 3819 0100 DAB2     		uxtb	r2, r3
 3820 0102 FB69     		ldr	r3, [r7, #28]
 3821 0104 2344     		add	r3, r3, r4
 3822 0106 1A71     		strb	r2, [r3, #4]
 998:.\EncoreImpl.c ****                 //puartdisp->_messagetx[index++] = 0xE0;
 999:.\EncoreImpl.c ****                 
1000:.\EncoreImpl.c ****                 puartdisp->_messagetx[index++] = 0xF8; //Preset Data next
 3823              		.loc 1 1000 0
 3824 0108 97F82730 		ldrb	r3, [r7, #39]	@ zero_extendqisi2
 3825 010c 5A1C     		adds	r2, r3, #1
 3826 010e 87F82720 		strb	r2, [r7, #39]
 3827 0112 1A46     		mov	r2, r3
 3828 0114 FB69     		ldr	r3, [r7, #28]
 3829 0116 1344     		add	r3, r3, r2
 3830 0118 F822     		movs	r2, #248
 3831 011a 1A71     		strb	r2, [r3, #4]
1001:.\EncoreImpl.c ****                 //Here we copy the remaining 8 bytes for the preset value
1002:.\EncoreImpl.c ****                 ///THIS IS AN APPLIED CONVENTION ===>> 0x0008 INDEX POSITION WITHIN THE PUMP'S BUFF
1003:.\EncoreImpl.c ****                 ///THESE CODES MUST BE MATCHED OTHERWISE THE LOGIC WILL BREAKUP THE CODE!
1004:.\EncoreImpl.c ****                 char8 *ptr = &ppump->_trasactionbuffer[0x0008];
 3832              		.loc 1 1004 0
 3833 011c 3B6A     		ldr	r3, [r7, #32]
 3834 011e 2833     		adds	r3, r3, #40
 3835 0120 7B61     		str	r3, [r7, #20]
ARM GAS  C:\Users\RECEPC~1\AppData\Local\Temp\ccFc1mZV.s 			page 86


1005:.\EncoreImpl.c ****                 if(transtype == 0xF1) //Volume PRESET, then multiply by 1000
 3836              		.loc 1 1005 0
 3837 0122 FB7E     		ldrb	r3, [r7, #27]	@ zero_extendqisi2
 3838 0124 F12B     		cmp	r3, #241
 3839 0126 2AD1     		bne	.L122
 3840              	.LBB21:
1006:.\EncoreImpl.c ****                 {
1007:.\EncoreImpl.c ****                     CastVolumeValue(ptr, 0x08);
 3841              		.loc 1 1007 0
 3842 0128 7869     		ldr	r0, [r7, #20]
 3843 012a 0821     		movs	r1, #8
 3844 012c FFF7FEFF 		bl	CastVolumeValue
1008:.\EncoreImpl.c ****                     
1009:.\EncoreImpl.c ****                     FOR(uint8 buffndx = 0, buffndx < 0x05, buffndx++)
 3845              		.loc 1 1009 0
 3846 0130 0023     		movs	r3, #0
 3847 0132 87F82630 		strb	r3, [r7, #38]
 3848 0136 1DE0     		b	.L123
 3849              	.L124:
1010:.\EncoreImpl.c ****                         puartdisp->_messagetx[index++] = (0xE0 | (ptr[7 - buffndx] & 0x0F)); //Tran
 3850              		.loc 1 1010 0 discriminator 3
 3851 0138 97F82730 		ldrb	r3, [r7, #39]	@ zero_extendqisi2
 3852 013c 5A1C     		adds	r2, r3, #1
 3853 013e 87F82720 		strb	r2, [r7, #39]
 3854 0142 1946     		mov	r1, r3
 3855 0144 97F82630 		ldrb	r3, [r7, #38]	@ zero_extendqisi2
 3856 0148 C3F10703 		rsb	r3, r3, #7
 3857 014c 1A46     		mov	r2, r3
 3858 014e 7B69     		ldr	r3, [r7, #20]
 3859 0150 1344     		add	r3, r3, r2
 3860 0152 1B78     		ldrb	r3, [r3]	@ zero_extendqisi2
 3861 0154 DBB2     		uxtb	r3, r3
 3862 0156 03F00F03 		and	r3, r3, #15
 3863 015a DBB2     		uxtb	r3, r3
 3864 015c 63F01F03 		orn	r3, r3, #31
 3865 0160 DBB2     		uxtb	r3, r3
 3866 0162 DAB2     		uxtb	r2, r3
 3867 0164 FB69     		ldr	r3, [r7, #28]
 3868 0166 0B44     		add	r3, r3, r1
 3869 0168 1A71     		strb	r2, [r3, #4]
1009:.\EncoreImpl.c ****                         puartdisp->_messagetx[index++] = (0xE0 | (ptr[7 - buffndx] & 0x0F)); //Tran
 3870              		.loc 1 1009 0 discriminator 3
 3871 016a 97F82630 		ldrb	r3, [r7, #38]	@ zero_extendqisi2
 3872 016e 0133     		adds	r3, r3, #1
 3873 0170 87F82630 		strb	r3, [r7, #38]
 3874              	.L123:
1009:.\EncoreImpl.c ****                         puartdisp->_messagetx[index++] = (0xE0 | (ptr[7 - buffndx] & 0x0F)); //Tran
 3875              		.loc 1 1009 0 is_stmt 0 discriminator 1
 3876 0174 97F82630 		ldrb	r3, [r7, #38]	@ zero_extendqisi2
 3877 0178 042B     		cmp	r3, #4
 3878 017a DDD9     		bls	.L124
 3879              	.LBE21:
 3880 017c 31E0     		b	.L125
 3881              	.L122:
 3882              	.LBB22:
1011:.\EncoreImpl.c ****                 }
1012:.\EncoreImpl.c ****                 else
ARM GAS  C:\Users\RECEPC~1\AppData\Local\Temp\ccFc1mZV.s 			page 87


1013:.\EncoreImpl.c ****                 {
1014:.\EncoreImpl.c ****                     if(!(_g_dispenserlayoutinfo._moneydecimals == 0x03 && _g_dispenserlayoutinfo._p
 3883              		.loc 1 1014 0 is_stmt 1
 3884 017e 754B     		ldr	r3, .L138
 3885 0180 DB79     		ldrb	r3, [r3, #7]	@ zero_extendqisi2
 3886 0182 032B     		cmp	r3, #3
 3887 0184 03D1     		bne	.L126
 3888              		.loc 1 1014 0 is_stmt 0 discriminator 1
 3889 0186 734B     		ldr	r3, .L138
 3890 0188 1B7A     		ldrb	r3, [r3, #8]	@ zero_extendqisi2
 3891 018a 022B     		cmp	r3, #2
 3892 018c 03D0     		beq	.L127
 3893              	.L126:
1015:.\EncoreImpl.c ****                         CastMoneyValue(ptr, 0x08);
 3894              		.loc 1 1015 0 is_stmt 1
 3895 018e 7869     		ldr	r0, [r7, #20]
 3896 0190 0821     		movs	r1, #8
 3897 0192 FFF7FEFF 		bl	CastMoneyValue
 3898              	.L127:
1016:.\EncoreImpl.c ****                     
1017:.\EncoreImpl.c ****                     FOR(uint8 buffndx = 0, buffndx < 0x06, buffndx++)
 3899              		.loc 1 1017 0
 3900 0196 0023     		movs	r3, #0
 3901 0198 87F82530 		strb	r3, [r7, #37]
 3902 019c 1DE0     		b	.L128
 3903              	.L129:
1018:.\EncoreImpl.c ****                         puartdisp->_messagetx[index++] = (0xE0 | (ptr[7 - buffndx] & 0x0F)); //Tran
 3904              		.loc 1 1018 0 discriminator 3
 3905 019e 97F82730 		ldrb	r3, [r7, #39]	@ zero_extendqisi2
 3906 01a2 5A1C     		adds	r2, r3, #1
 3907 01a4 87F82720 		strb	r2, [r7, #39]
 3908 01a8 1946     		mov	r1, r3
 3909 01aa 97F82530 		ldrb	r3, [r7, #37]	@ zero_extendqisi2
 3910 01ae C3F10703 		rsb	r3, r3, #7
 3911 01b2 1A46     		mov	r2, r3
 3912 01b4 7B69     		ldr	r3, [r7, #20]
 3913 01b6 1344     		add	r3, r3, r2
 3914 01b8 1B78     		ldrb	r3, [r3]	@ zero_extendqisi2
 3915 01ba DBB2     		uxtb	r3, r3
 3916 01bc 03F00F03 		and	r3, r3, #15
 3917 01c0 DBB2     		uxtb	r3, r3
 3918 01c2 63F01F03 		orn	r3, r3, #31
 3919 01c6 DBB2     		uxtb	r3, r3
 3920 01c8 DAB2     		uxtb	r2, r3
 3921 01ca FB69     		ldr	r3, [r7, #28]
 3922 01cc 0B44     		add	r3, r3, r1
 3923 01ce 1A71     		strb	r2, [r3, #4]
1017:.\EncoreImpl.c ****                         puartdisp->_messagetx[index++] = (0xE0 | (ptr[7 - buffndx] & 0x0F)); //Tran
 3924              		.loc 1 1017 0 discriminator 3
 3925 01d0 97F82530 		ldrb	r3, [r7, #37]	@ zero_extendqisi2
 3926 01d4 0133     		adds	r3, r3, #1
 3927 01d6 87F82530 		strb	r3, [r7, #37]
 3928              	.L128:
1017:.\EncoreImpl.c ****                         puartdisp->_messagetx[index++] = (0xE0 | (ptr[7 - buffndx] & 0x0F)); //Tran
 3929              		.loc 1 1017 0 is_stmt 0 discriminator 1
 3930 01da 97F82530 		ldrb	r3, [r7, #37]	@ zero_extendqisi2
 3931 01de 052B     		cmp	r3, #5
ARM GAS  C:\Users\RECEPC~1\AppData\Local\Temp\ccFc1mZV.s 			page 88


 3932 01e0 DDD9     		bls	.L129
 3933              	.L125:
 3934              	.LBE22:
 3935              	.LBE20:
 3936 01e2 85E0     		b	.L130
 3937              	.L117:
 3938              	.LBB23:
1019:.\EncoreImpl.c ****                 }
1020:.\EncoreImpl.c ****             }
1021:.\EncoreImpl.c ****             else
1022:.\EncoreImpl.c ****             {
1023:.\EncoreImpl.c ****                 puartdisp->_messagetx[index++] = 0xE1;
 3939              		.loc 1 1023 0 is_stmt 1
 3940 01e4 97F82730 		ldrb	r3, [r7, #39]	@ zero_extendqisi2
 3941 01e8 5A1C     		adds	r2, r3, #1
 3942 01ea 87F82720 		strb	r2, [r7, #39]
 3943 01ee 1A46     		mov	r2, r3
 3944 01f0 FB69     		ldr	r3, [r7, #28]
 3945 01f2 1344     		add	r3, r3, r2
 3946 01f4 E122     		movs	r2, #225
 3947 01f6 1A71     		strb	r2, [r3, #4]
1024:.\EncoreImpl.c ****                     
1025:.\EncoreImpl.c ****                 ///THIS IS AN APPLIED CONVENTION ===>> 0x0004 INDEX POSITION WITHIN THE PUMP'S BUFF
1026:.\EncoreImpl.c ****                 ///THESE CODES MUST BE MATCHED OTHERWISE THE LOGIC WILL BREAKUP THE CODE!
1027:.\EncoreImpl.c ****                 uint8 transtype = (0xF0 | ((ppump->_trasactionbuffer[0x0004] == 0x0F)? 0x02: 0x01))
 3948              		.loc 1 1027 0
 3949 01f8 3B6A     		ldr	r3, [r7, #32]
 3950 01fa 93F82430 		ldrb	r3, [r3, #36]	@ zero_extendqisi2
 3951 01fe 0F2B     		cmp	r3, #15
 3952 0200 01D1     		bne	.L131
 3953              		.loc 1 1027 0 is_stmt 0 discriminator 1
 3954 0202 F223     		movs	r3, #242
 3955 0204 00E0     		b	.L132
 3956              	.L131:
 3957              		.loc 1 1027 0 discriminator 2
 3958 0206 F123     		movs	r3, #241
 3959              	.L132:
 3960              		.loc 1 1027 0 discriminator 4
 3961 0208 FB74     		strb	r3, [r7, #19]
1028:.\EncoreImpl.c ****                 puartdisp->_messagetx[index++] = transtype;
 3962              		.loc 1 1028 0 is_stmt 1 discriminator 4
 3963 020a 97F82730 		ldrb	r3, [r7, #39]	@ zero_extendqisi2
 3964 020e 5A1C     		adds	r2, r3, #1
 3965 0210 87F82720 		strb	r2, [r7, #39]
 3966 0214 1A46     		mov	r2, r3
 3967 0216 FB69     		ldr	r3, [r7, #28]
 3968 0218 1344     		add	r3, r3, r2
 3969 021a FA7C     		ldrb	r2, [r7, #19]
 3970 021c 1A71     		strb	r2, [r3, #4]
1029:.\EncoreImpl.c **** 
1030:.\EncoreImpl.c ****                 puartdisp->_messagetx[index++] = 0xF6; //Hose Data next
 3971              		.loc 1 1030 0 discriminator 4
 3972 021e 97F82730 		ldrb	r3, [r7, #39]	@ zero_extendqisi2
 3973 0222 5A1C     		adds	r2, r3, #1
 3974 0224 87F82720 		strb	r2, [r7, #39]
 3975 0228 1A46     		mov	r2, r3
 3976 022a FB69     		ldr	r3, [r7, #28]
ARM GAS  C:\Users\RECEPC~1\AppData\Local\Temp\ccFc1mZV.s 			page 89


 3977 022c 1344     		add	r3, r3, r2
 3978 022e F622     		movs	r2, #246
 3979 0230 1A71     		strb	r2, [r3, #4]
1031:.\EncoreImpl.c ****                 ///THIS IS AN APPLIED CONVENTION ===>> 0x0006 INDEX POSITION WITHIN THE PUMP'S BUFF
1032:.\EncoreImpl.c ****                 ///THESE CODES MUST BE MATCHED OTHERWISE THE LOGIC WILL BREAKUP THE CODE!
1033:.\EncoreImpl.c ****                 puartdisp->_messagetx[index++] = (0xE0 | (0x0F & ppump->_trasactionbuffer[GetBuffer
 3980              		.loc 1 1033 0 discriminator 4
 3981 0232 97F82730 		ldrb	r3, [r7, #39]	@ zero_extendqisi2
 3982 0236 5A1C     		adds	r2, r3, #1
 3983 0238 87F82720 		strb	r2, [r7, #39]
 3984 023c 1C46     		mov	r4, r3
 3985 023e 0720     		movs	r0, #7
 3986 0240 FFF7FEFF 		bl	GetBufferIndexFromDisplayID
 3987 0244 0346     		mov	r3, r0
 3988 0246 1A46     		mov	r2, r3
 3989 0248 3B6A     		ldr	r3, [r7, #32]
 3990 024a 1344     		add	r3, r3, r2
 3991 024c 93F82030 		ldrb	r3, [r3, #32]	@ zero_extendqisi2
 3992 0250 03F00F03 		and	r3, r3, #15
 3993 0254 DBB2     		uxtb	r3, r3
 3994 0256 63F01F03 		orn	r3, r3, #31
 3995 025a DAB2     		uxtb	r2, r3
 3996 025c FB69     		ldr	r3, [r7, #28]
 3997 025e 2344     		add	r3, r3, r4
 3998 0260 1A71     		strb	r2, [r3, #4]
1034:.\EncoreImpl.c ****                 //puartdisp->_messagetx[index++] = 0xE0;
1035:.\EncoreImpl.c ****                 
1036:.\EncoreImpl.c ****                 puartdisp->_messagetx[index++] = 0xF8; //Preset Data next
 3999              		.loc 1 1036 0 discriminator 4
 4000 0262 97F82730 		ldrb	r3, [r7, #39]	@ zero_extendqisi2
 4001 0266 5A1C     		adds	r2, r3, #1
 4002 0268 87F82720 		strb	r2, [r7, #39]
 4003 026c 1A46     		mov	r2, r3
 4004 026e FB69     		ldr	r3, [r7, #28]
 4005 0270 1344     		add	r3, r3, r2
 4006 0272 F822     		movs	r2, #248
 4007 0274 1A71     		strb	r2, [r3, #4]
1037:.\EncoreImpl.c ****                 //Here we copy the remaining 8 bytes for the preset value
1038:.\EncoreImpl.c ****                 ///THIS IS AN APPLIED CONVENTION ===>> 0x0008 INDEX POSITION WITHIN THE PUMP'S BUFF
1039:.\EncoreImpl.c ****                 ///THESE CODES MUST BE MATCHED OTHERWISE THE LOGIC WILL BREAKUP THE CODE!
1040:.\EncoreImpl.c ****                 char8 *ptr = &ppump->_trasactionbuffer[0x0008];
 4008              		.loc 1 1040 0 discriminator 4
 4009 0276 3B6A     		ldr	r3, [r7, #32]
 4010 0278 2833     		adds	r3, r3, #40
 4011 027a FB60     		str	r3, [r7, #12]
1041:.\EncoreImpl.c ****                 if(transtype == 0xF1) //Volume PRESET, then multiply by 1000
 4012              		.loc 1 1041 0 discriminator 4
 4013 027c FB7C     		ldrb	r3, [r7, #19]	@ zero_extendqisi2
 4014 027e F12B     		cmp	r3, #241
 4015 0280 04D1     		bne	.L133
1042:.\EncoreImpl.c ****                     CastVolumeValue(ptr, 0x08);
 4016              		.loc 1 1042 0
 4017 0282 F868     		ldr	r0, [r7, #12]
 4018 0284 0821     		movs	r1, #8
 4019 0286 FFF7FEFF 		bl	CastVolumeValue
 4020 028a 0BE0     		b	.L134
 4021              	.L133:
ARM GAS  C:\Users\RECEPC~1\AppData\Local\Temp\ccFc1mZV.s 			page 90


1043:.\EncoreImpl.c ****                 else if(!(_g_dispenserlayoutinfo._moneydecimals == 0x03 && _g_dispenserlayoutinfo._
 4022              		.loc 1 1043 0
 4023 028c 314B     		ldr	r3, .L138
 4024 028e DB79     		ldrb	r3, [r3, #7]	@ zero_extendqisi2
 4025 0290 032B     		cmp	r3, #3
 4026 0292 03D1     		bne	.L135
 4027              		.loc 1 1043 0 is_stmt 0 discriminator 1
 4028 0294 2F4B     		ldr	r3, .L138
 4029 0296 1B7A     		ldrb	r3, [r3, #8]	@ zero_extendqisi2
 4030 0298 022B     		cmp	r3, #2
 4031 029a 03D0     		beq	.L134
 4032              	.L135:
1044:.\EncoreImpl.c ****                     CastMoneyValue(ptr, 0x08);
 4033              		.loc 1 1044 0 is_stmt 1
 4034 029c F868     		ldr	r0, [r7, #12]
 4035 029e 0821     		movs	r1, #8
 4036 02a0 FFF7FEFF 		bl	CastMoneyValue
 4037              	.L134:
1045:.\EncoreImpl.c ****                     
1046:.\EncoreImpl.c ****                 FOR(uint8 buffndx = 0, buffndx < 0x08, buffndx++)
 4038              		.loc 1 1046 0
 4039 02a4 0023     		movs	r3, #0
 4040 02a6 87F82430 		strb	r3, [r7, #36]
 4041 02aa 1DE0     		b	.L136
 4042              	.L137:
1047:.\EncoreImpl.c ****                     puartdisp->_messagetx[index++] = (0xE0 | (ptr[7 - buffndx] & 0x0F)); //Translat
 4043              		.loc 1 1047 0 discriminator 3
 4044 02ac 97F82730 		ldrb	r3, [r7, #39]	@ zero_extendqisi2
 4045 02b0 5A1C     		adds	r2, r3, #1
 4046 02b2 87F82720 		strb	r2, [r7, #39]
 4047 02b6 1946     		mov	r1, r3
 4048 02b8 97F82430 		ldrb	r3, [r7, #36]	@ zero_extendqisi2
 4049 02bc C3F10703 		rsb	r3, r3, #7
 4050 02c0 1A46     		mov	r2, r3
 4051 02c2 FB68     		ldr	r3, [r7, #12]
 4052 02c4 1344     		add	r3, r3, r2
 4053 02c6 1B78     		ldrb	r3, [r3]	@ zero_extendqisi2
 4054 02c8 DBB2     		uxtb	r3, r3
 4055 02ca 03F00F03 		and	r3, r3, #15
 4056 02ce DBB2     		uxtb	r3, r3
 4057 02d0 63F01F03 		orn	r3, r3, #31
 4058 02d4 DBB2     		uxtb	r3, r3
 4059 02d6 DAB2     		uxtb	r2, r3
 4060 02d8 FB69     		ldr	r3, [r7, #28]
 4061 02da 0B44     		add	r3, r3, r1
 4062 02dc 1A71     		strb	r2, [r3, #4]
1046:.\EncoreImpl.c ****                     puartdisp->_messagetx[index++] = (0xE0 | (ptr[7 - buffndx] & 0x0F)); //Translat
 4063              		.loc 1 1046 0 discriminator 3
 4064 02de 97F82430 		ldrb	r3, [r7, #36]	@ zero_extendqisi2
 4065 02e2 0133     		adds	r3, r3, #1
 4066 02e4 87F82430 		strb	r3, [r7, #36]
 4067              	.L136:
1046:.\EncoreImpl.c ****                     puartdisp->_messagetx[index++] = (0xE0 | (ptr[7 - buffndx] & 0x0F)); //Translat
 4068              		.loc 1 1046 0 is_stmt 0 discriminator 1
 4069 02e8 97F82430 		ldrb	r3, [r7, #36]	@ zero_extendqisi2
 4070 02ec 072B     		cmp	r3, #7
 4071 02ee DDD9     		bls	.L137
ARM GAS  C:\Users\RECEPC~1\AppData\Local\Temp\ccFc1mZV.s 			page 91


 4072              	.L130:
 4073              	.LBE23:
1048:.\EncoreImpl.c ****             }
1049:.\EncoreImpl.c ****             ppump->_presetdone = true;
 4074              		.loc 1 1049 0 is_stmt 1
 4075 02f0 3B6A     		ldr	r3, [r7, #32]
 4076 02f2 0122     		movs	r2, #1
 4077 02f4 1A72     		strb	r2, [r3, #8]
1050:.\EncoreImpl.c ****             puartdisp->_messagetx[index++] = LRCn; //LRC next
 4078              		.loc 1 1050 0
 4079 02f6 97F82730 		ldrb	r3, [r7, #39]	@ zero_extendqisi2
 4080 02fa 5A1C     		adds	r2, r3, #1
 4081 02fc 87F82720 		strb	r2, [r7, #39]
 4082 0300 1A46     		mov	r2, r3
 4083 0302 FB69     		ldr	r3, [r7, #28]
 4084 0304 1344     		add	r3, r3, r2
 4085 0306 FB22     		movs	r2, #251
 4086 0308 1A71     		strb	r2, [r3, #4]
1051:.\EncoreImpl.c ****             puartdisp->_messagetx[index++] = GetLRC(puartdisp->_messagetx);
 4087              		.loc 1 1051 0
 4088 030a 97F82730 		ldrb	r3, [r7, #39]	@ zero_extendqisi2
 4089 030e 5A1C     		adds	r2, r3, #1
 4090 0310 87F82720 		strb	r2, [r7, #39]
 4091 0314 1C46     		mov	r4, r3
 4092 0316 FB69     		ldr	r3, [r7, #28]
 4093 0318 0433     		adds	r3, r3, #4
 4094 031a 1846     		mov	r0, r3
 4095 031c FFF7FEFF 		bl	GetLRC
 4096 0320 0346     		mov	r3, r0
 4097 0322 1A46     		mov	r2, r3
 4098 0324 FB69     		ldr	r3, [r7, #28]
 4099 0326 2344     		add	r3, r3, r4
 4100 0328 1A71     		strb	r2, [r3, #4]
1052:.\EncoreImpl.c ****             puartdisp->_messagetx[index++] = EOM;
 4101              		.loc 1 1052 0
 4102 032a 97F82730 		ldrb	r3, [r7, #39]	@ zero_extendqisi2
 4103 032e 5A1C     		adds	r2, r3, #1
 4104 0330 87F82720 		strb	r2, [r7, #39]
 4105 0334 1A46     		mov	r2, r3
 4106 0336 FB69     		ldr	r3, [r7, #28]
 4107 0338 1344     		add	r3, r3, r2
 4108 033a F022     		movs	r2, #240
 4109 033c 1A71     		strb	r2, [r3, #4]
1053:.\EncoreImpl.c **** ///////////////////////////////////////////////////////////////////////////////////////////////////
1054:.\EncoreImpl.c ****             
1055:.\EncoreImpl.c ****             puartdisp->_messagelength = index;
 4110              		.loc 1 1055 0
 4111 033e 97F82730 		ldrb	r3, [r7, #39]	@ zero_extendqisi2
 4112 0342 9AB2     		uxth	r2, r3
 4113 0344 FB69     		ldr	r3, [r7, #28]
 4114 0346 5A80     		strh	r2, [r3, #2]	@ movhi
1056:.\EncoreImpl.c ****             puartdisp->_messagestate = PENDING;
 4115              		.loc 1 1056 0
 4116 0348 FB69     		ldr	r3, [r7, #28]
 4117 034a C222     		movs	r2, #194
 4118 034c 1A70     		strb	r2, [r3]
 4119              	.L115:
ARM GAS  C:\Users\RECEPC~1\AppData\Local\Temp\ccFc1mZV.s 			page 92


 4120              	.LBE19:
1057:.\EncoreImpl.c ****         }
1058:.\EncoreImpl.c ****     }
1059:.\EncoreImpl.c ****     
1060:.\EncoreImpl.c **** }
 4121              		.loc 1 1060 0
 4122 034e 2C37     		adds	r7, r7, #44
 4123              		.cfi_def_cfa_offset 12
 4124 0350 BD46     		mov	sp, r7
 4125              		.cfi_def_cfa_register 13
 4126              		@ sp needed
 4127 0352 90BD     		pop	{r4, r7, pc}
 4128              	.L139:
 4129              		.align	2
 4130              	.L138:
 4131 0354 00000000 		.word	_g_dispenserlayoutinfo
 4132              		.cfi_endproc
 4133              	.LFE79:
 4134              		.size	PumpPresetHose, .-PumpPresetHose
 4135              		.section	.text.PumpPresetNoHose,"ax",%progbits
 4136              		.align	2
 4137              		.global	PumpPresetNoHose
 4138              		.thumb
 4139              		.thumb_func
 4140              		.type	PumpPresetNoHose, %function
 4141              	PumpPresetNoHose:
 4142              	.LFB80:
1061:.\EncoreImpl.c **** 
1062:.\EncoreImpl.c **** //@Created By: HIJH
1063:.\EncoreImpl.c **** //@Septembre de 2016
1064:.\EncoreImpl.c **** ///////////////////////////////////////////////////////////////////////////////////////////////////
1065:.\EncoreImpl.c **** //Preset values will be placed within the SinkMessage's buffer. This is a convention that applies t
1066:.\EncoreImpl.c **** //all of the available transactions. The pump function must deal with this while it is assembling t
1067:.\EncoreImpl.c **** //For this message the data comes as follows:
1068:.\EncoreImpl.c **** // - First byte is the preset type (Volume:1 / Money:2 )
1069:.\EncoreImpl.c **** // - Block of 8 bytes for the preset value
1070:.\EncoreImpl.c **** //This block of data (10 bytes) must be moved to another position within the same buffer (even posi
1071:.\EncoreImpl.c **** void PumpPresetNoHose(void *pparam)
1072:.\EncoreImpl.c **** {
 4143              		.loc 1 1072 0
 4144              		.cfi_startproc
 4145              		@ args = 0, pretend = 0, frame = 40
 4146              		@ frame_needed = 1, uses_anonymous_args = 0
 4147 0000 90B5     		push	{r4, r7, lr}
 4148              		.cfi_def_cfa_offset 12
 4149              		.cfi_offset 4, -12
 4150              		.cfi_offset 7, -8
 4151              		.cfi_offset 14, -4
 4152 0002 8BB0     		sub	sp, sp, #44
 4153              		.cfi_def_cfa_offset 56
 4154 0004 00AF     		add	r7, sp, #0
 4155              		.cfi_def_cfa_register 7
 4156 0006 7860     		str	r0, [r7, #4]
1073:.\EncoreImpl.c ****     PNEAR_PUMPPTR ppump = (PNEAR_PUMPPTR)pparam;
 4157              		.loc 1 1073 0
 4158 0008 7B68     		ldr	r3, [r7, #4]
 4159 000a 3B62     		str	r3, [r7, #32]
ARM GAS  C:\Users\RECEPC~1\AppData\Local\Temp\ccFc1mZV.s 			page 93


1074:.\EncoreImpl.c ****     if(ppump)
 4160              		.loc 1 1074 0
 4161 000c 3B6A     		ldr	r3, [r7, #32]
 4162 000e 002B     		cmp	r3, #0
 4163 0010 00F04F81 		beq	.L140
 4164              	.LBB24:
1075:.\EncoreImpl.c ****     {
1076:.\EncoreImpl.c ****         uint8_t index = 0;
 4165              		.loc 1 1076 0
 4166 0014 0023     		movs	r3, #0
 4167 0016 87F82730 		strb	r3, [r7, #39]
1077:.\EncoreImpl.c ****         memset(ppump->_rxbuffer, 0x00, _PUMP_RX_BUFFER_SIZE_);
 4168              		.loc 1 1077 0
 4169 001a 3B6A     		ldr	r3, [r7, #32]
 4170 001c 03F5D073 		add	r3, r3, #416
 4171 0020 1846     		mov	r0, r3
 4172 0022 0021     		movs	r1, #0
 4173 0024 4FF4C072 		mov	r2, #384
 4174 0028 FFF7FEFF 		bl	memset
1078:.\EncoreImpl.c ****         PUARTMESSAGEPTR puartdisp = GetUARTMessageSlot(UART_DISPENSER);
