ARM GAS  C:\Users\RECEPC~1\AppData\Local\Temp\ccK6q0HL.s 			page 1


   1              		.syntax unified
   2              		.cpu cortex-m3
   3              		.fpu softvfp
   4              		.eabi_attribute 20, 1
   5              		.eabi_attribute 21, 1
   6              		.eabi_attribute 23, 3
   7              		.eabi_attribute 24, 1
   8              		.eabi_attribute 25, 1
   9              		.eabi_attribute 26, 1
  10              		.eabi_attribute 30, 6
  11              		.eabi_attribute 34, 1
  12              		.eabi_attribute 18, 4
  13              		.thumb
  14              		.file	"iButtonBLL.c"
  15              		.text
  16              	.Ltext0:
  17              		.cfi_sections	.debug_frame
  18              		.section	.text.iButton1Scan,"ax",%progbits
  19              		.align	2
  20              		.global	iButton1Scan
  21              		.thumb
  22              		.thumb_func
  23              		.type	iButton1Scan, %function
  24              	iButton1Scan:
  25              	.LFB63:
  26              		.file 1 ".\\iButtonBLL.c"
   1:.\iButtonBLL.c **** /* ========================================
   2:.\iButtonBLL.c ****  *
   3:.\iButtonBLL.c ****  * Copyright INSEPET SISTEMAS, 2016
   4:.\iButtonBLL.c ****  * All Rights Reserved
   5:.\iButtonBLL.c ****  * UNPUBLISHED, LICENSED SOFTWARE.
   6:.\iButtonBLL.c ****  *
   7:.\iButtonBLL.c ****  * CONFIDENTIAL AND PROPRIETARY INFORMATION
   8:.\iButtonBLL.c ****  * WHICH IS THE PROPERTY OF your company.
   9:.\iButtonBLL.c ****  *
  10:.\iButtonBLL.c ****  * ========================================
  11:.\iButtonBLL.c **** @Created By: HIJH
  12:.\iButtonBLL.c **** @Date: Septembre de 2016
  13:.\iButtonBLL.c **** */
  14:.\iButtonBLL.c **** #include <project.h>
  15:.\iButtonBLL.c **** #include "SinkManager.h"
  16:.\iButtonBLL.c **** #include "SinkObservables.h"
  17:.\iButtonBLL.c **** #include "GlobalDefinitions.h"
  18:.\iButtonBLL.c **** #include "iButton.h"
  19:.\iButtonBLL.c **** 
  20:.\iButtonBLL.c **** void iButtonCRCReset();
  21:.\iButtonBLL.c **** bool iButtonCRCCheck(char* pbuffer);
  22:.\iButtonBLL.c **** uint8 iButtonRead(uint8 port);
  23:.\iButtonBLL.c **** void iButtonWrite(uint8 port, uint8 data);
  24:.\iButtonBLL.c **** bool iButtonResetPresenceSequence(uint8 port);
  25:.\iButtonBLL.c **** 
  26:.\iButtonBLL.c **** 
  27:.\iButtonBLL.c **** //@Created by: HIJH
  28:.\iButtonBLL.c **** //@Date: Septembre de 2016
  29:.\iButtonBLL.c **** //Validates and acquires the unique identifier from the related iButton port
  30:.\iButtonBLL.c **** void iButton1Scan(void *pparam)
  31:.\iButtonBLL.c **** {
ARM GAS  C:\Users\RECEPC~1\AppData\Local\Temp\ccK6q0HL.s 			page 2


  27              		.loc 1 31 0
  28              		.cfi_startproc
  29              		@ args = 0, pretend = 0, frame = 16
  30              		@ frame_needed = 1, uses_anonymous_args = 0
  31 0000 90B5     		push	{r4, r7, lr}
  32              		.cfi_def_cfa_offset 12
  33              		.cfi_offset 4, -12
  34              		.cfi_offset 7, -8
  35              		.cfi_offset 14, -4
  36 0002 85B0     		sub	sp, sp, #20
  37              		.cfi_def_cfa_offset 32
  38 0004 00AF     		add	r7, sp, #0
  39              		.cfi_def_cfa_register 7
  40 0006 7860     		str	r0, [r7, #4]
  32:.\iButtonBLL.c ****     CyDelayFreq(0x00);
  41              		.loc 1 32 0
  42 0008 0020     		movs	r0, #0
  43 000a FFF7FEFF 		bl	CyDelayFreq
  33:.\iButtonBLL.c ****     
  34:.\iButtonBLL.c ****     PSINKMESSAGEPTR pmsg = (PSINKMESSAGEPTR)pparam;
  44              		.loc 1 34 0
  45 000e 7B68     		ldr	r3, [r7, #4]
  46 0010 BB60     		str	r3, [r7, #8]
  35:.\iButtonBLL.c ****     if(pmsg->_messageid != IBUTTON1_SCAN)
  47              		.loc 1 35 0
  48 0012 BB68     		ldr	r3, [r7, #8]
  49 0014 5B78     		ldrb	r3, [r3, #1]
  50 0016 DBB2     		uxtb	r3, r3
  51 0018 232B     		cmp	r3, #35
  52 001a 00D0     		beq	.L2
  36:.\iButtonBLL.c ****         return;
  53              		.loc 1 36 0
  54 001c 46E0     		b	.L1
  55              	.L2:
  37:.\iButtonBLL.c ****     
  38:.\iButtonBLL.c ****     if(iButtonResetPresenceSequence(_IBUTTON_PORT1_))
  56              		.loc 1 38 0
  57 001e 0120     		movs	r0, #1
  58 0020 FFF7FEFF 		bl	iButtonResetPresenceSequence
  59 0024 0346     		mov	r3, r0
  60 0026 002B     		cmp	r3, #0
  61 0028 40D0     		beq	.L1
  62              	.LBB2:
  39:.\iButtonBLL.c ****     {
  40:.\iButtonBLL.c ****         char8 crc = 0x00;
  63              		.loc 1 40 0
  64 002a 0023     		movs	r3, #0
  65 002c FB73     		strb	r3, [r7, #15]
  41:.\iButtonBLL.c ****         iButtonWrite(_IBUTTON_PORT1_, _IBUTTON_READ_ROM_);
  66              		.loc 1 41 0
  67 002e 0120     		movs	r0, #1
  68 0030 3321     		movs	r1, #51
  69 0032 FFF7FEFF 		bl	iButtonWrite
  42:.\iButtonBLL.c ****         FOR(uint8 index = 0, index < _IBUTTON_PAYLOAD_LENGTH_, index++)
  70              		.loc 1 42 0
  71 0036 0023     		movs	r3, #0
  72 0038 BB73     		strb	r3, [r7, #14]
ARM GAS  C:\Users\RECEPC~1\AppData\Local\Temp\ccK6q0HL.s 			page 3


  73 003a 0BE0     		b	.L4
  74              	.L5:
  43:.\iButtonBLL.c ****             pmsg->_buffer[index] = iButtonRead(_IBUTTON_PORT1_);
  75              		.loc 1 43 0 discriminator 3
  76 003c BC7B     		ldrb	r4, [r7, #14]	@ zero_extendqisi2
  77 003e 0120     		movs	r0, #1
  78 0040 FFF7FEFF 		bl	iButtonRead
  79 0044 0346     		mov	r3, r0
  80 0046 1A46     		mov	r2, r3
  81 0048 BB68     		ldr	r3, [r7, #8]
  82 004a 2344     		add	r3, r3, r4
  83 004c 1A73     		strb	r2, [r3, #12]
  42:.\iButtonBLL.c ****         FOR(uint8 index = 0, index < _IBUTTON_PAYLOAD_LENGTH_, index++)
  84              		.loc 1 42 0 discriminator 3
  85 004e BB7B     		ldrb	r3, [r7, #14]	@ zero_extendqisi2
  86 0050 0133     		adds	r3, r3, #1
  87 0052 BB73     		strb	r3, [r7, #14]
  88              	.L4:
  42:.\iButtonBLL.c ****         FOR(uint8 index = 0, index < _IBUTTON_PAYLOAD_LENGTH_, index++)
  89              		.loc 1 42 0 is_stmt 0 discriminator 1
  90 0054 BB7B     		ldrb	r3, [r7, #14]	@ zero_extendqisi2
  91 0056 072B     		cmp	r3, #7
  92 0058 F0D9     		bls	.L5
  44:.\iButtonBLL.c ****         
  45:.\iButtonBLL.c ****         FOR(index = 0, index < (_IBUTTON_PAYLOAD_LENGTH_ - 1), index++)
  93              		.loc 1 45 0 is_stmt 1
  94 005a 0023     		movs	r3, #0
  95 005c BB73     		strb	r3, [r7, #14]
  96 005e 0DE0     		b	.L6
  97              	.L7:
  46:.\iButtonBLL.c ****             crc = CRCCheck(crc, pmsg->_buffer[index]);
  98              		.loc 1 46 0 discriminator 3
  99 0060 BB7B     		ldrb	r3, [r7, #14]	@ zero_extendqisi2
 100 0062 BA68     		ldr	r2, [r7, #8]
 101 0064 1344     		add	r3, r3, r2
 102 0066 1B7B     		ldrb	r3, [r3, #12]	@ zero_extendqisi2
 103 0068 FA7B     		ldrb	r2, [r7, #15]	@ zero_extendqisi2
 104 006a 1046     		mov	r0, r2
 105 006c 1946     		mov	r1, r3
 106 006e FFF7FEFF 		bl	CRCCheck
 107 0072 0346     		mov	r3, r0
 108 0074 FB73     		strb	r3, [r7, #15]
  45:.\iButtonBLL.c ****             crc = CRCCheck(crc, pmsg->_buffer[index]);
 109              		.loc 1 45 0 discriminator 3
 110 0076 BB7B     		ldrb	r3, [r7, #14]	@ zero_extendqisi2
 111 0078 0133     		adds	r3, r3, #1
 112 007a BB73     		strb	r3, [r7, #14]
 113              	.L6:
  45:.\iButtonBLL.c ****             crc = CRCCheck(crc, pmsg->_buffer[index]);
 114              		.loc 1 45 0 is_stmt 0 discriminator 1
 115 007c BB7B     		ldrb	r3, [r7, #14]	@ zero_extendqisi2
 116 007e 062B     		cmp	r3, #6
 117 0080 EED9     		bls	.L7
  47:.\iButtonBLL.c ****         
  48:.\iButtonBLL.c ****         //iButton data stream integrity is ok after this check...
  49:.\iButtonBLL.c ****         if(crc == pmsg->_buffer[(_IBUTTON_PAYLOAD_LENGTH_ - 1)] && crc != 0x00)
 118              		.loc 1 49 0 is_stmt 1
ARM GAS  C:\Users\RECEPC~1\AppData\Local\Temp\ccK6q0HL.s 			page 4


 119 0082 BB68     		ldr	r3, [r7, #8]
 120 0084 DB7C     		ldrb	r3, [r3, #19]	@ zero_extendqisi2
 121 0086 FA7B     		ldrb	r2, [r7, #15]	@ zero_extendqisi2
 122 0088 9A42     		cmp	r2, r3
 123 008a 0FD1     		bne	.L1
 124              		.loc 1 49 0 is_stmt 0 discriminator 1
 125 008c FB7B     		ldrb	r3, [r7, #15]	@ zero_extendqisi2
 126 008e 002B     		cmp	r3, #0
 127 0090 0CD0     		beq	.L1
  50:.\iButtonBLL.c ****             if(pmsg->Callback)
 128              		.loc 1 50 0 is_stmt 1
 129 0092 BB68     		ldr	r3, [r7, #8]
 130 0094 D3F89431 		ldr	r3, [r3, #404]
 131 0098 002B     		cmp	r3, #0
 132 009a 07D0     		beq	.L1
  51:.\iButtonBLL.c ****             {
  52:.\iButtonBLL.c ****                 pmsg->_selfkill = true;
 133              		.loc 1 52 0
 134 009c BB68     		ldr	r3, [r7, #8]
 135 009e 0122     		movs	r2, #1
 136 00a0 1A70     		strb	r2, [r3]
  53:.\iButtonBLL.c ****                 pmsg->Callback(pmsg);
 137              		.loc 1 53 0
 138 00a2 BB68     		ldr	r3, [r7, #8]
 139 00a4 D3F89431 		ldr	r3, [r3, #404]
 140 00a8 B868     		ldr	r0, [r7, #8]
 141 00aa 9847     		blx	r3
 142              	.L1:
 143              	.LBE2:
  54:.\iButtonBLL.c ****             }
  55:.\iButtonBLL.c ****     }
  56:.\iButtonBLL.c **** }
 144              		.loc 1 56 0
 145 00ac 1437     		adds	r7, r7, #20
 146              		.cfi_def_cfa_offset 12
 147 00ae BD46     		mov	sp, r7
 148              		.cfi_def_cfa_register 13
 149              		@ sp needed
 150 00b0 90BD     		pop	{r4, r7, pc}
 151              		.cfi_endproc
 152              	.LFE63:
 153              		.size	iButton1Scan, .-iButton1Scan
 154 00b2 00BF     		.section	.text.iButton2Scan,"ax",%progbits
 155              		.align	2
 156              		.global	iButton2Scan
 157              		.thumb
 158              		.thumb_func
 159              		.type	iButton2Scan, %function
 160              	iButton2Scan:
 161              	.LFB64:
  57:.\iButtonBLL.c **** 
  58:.\iButtonBLL.c **** //@Created by: HIJH
  59:.\iButtonBLL.c **** //@Date: Septembre de 2016
  60:.\iButtonBLL.c **** //Validates and acquires the unique identifier from the related iButton port
  61:.\iButtonBLL.c **** void iButton2Scan(void *pparam)
  62:.\iButtonBLL.c **** {
 162              		.loc 1 62 0
ARM GAS  C:\Users\RECEPC~1\AppData\Local\Temp\ccK6q0HL.s 			page 5


 163              		.cfi_startproc
 164              		@ args = 0, pretend = 0, frame = 16
 165              		@ frame_needed = 1, uses_anonymous_args = 0
 166 0000 90B5     		push	{r4, r7, lr}
 167              		.cfi_def_cfa_offset 12
 168              		.cfi_offset 4, -12
 169              		.cfi_offset 7, -8
 170              		.cfi_offset 14, -4
 171 0002 85B0     		sub	sp, sp, #20
 172              		.cfi_def_cfa_offset 32
 173 0004 00AF     		add	r7, sp, #0
 174              		.cfi_def_cfa_register 7
 175 0006 7860     		str	r0, [r7, #4]
  63:.\iButtonBLL.c ****     CyDelayFreq(0x00);
 176              		.loc 1 63 0
 177 0008 0020     		movs	r0, #0
 178 000a FFF7FEFF 		bl	CyDelayFreq
  64:.\iButtonBLL.c ****     
  65:.\iButtonBLL.c ****     PSINKMESSAGEPTR pmsg = (PSINKMESSAGEPTR)pparam;
 179              		.loc 1 65 0
 180 000e 7B68     		ldr	r3, [r7, #4]
 181 0010 BB60     		str	r3, [r7, #8]
  66:.\iButtonBLL.c ****     if(iButtonResetPresenceSequence(_IBUTTON_PORT2_))
 182              		.loc 1 66 0
 183 0012 0220     		movs	r0, #2
 184 0014 FFF7FEFF 		bl	iButtonResetPresenceSequence
 185 0018 0346     		mov	r3, r0
 186 001a 002B     		cmp	r3, #0
 187 001c 40D0     		beq	.L8
 188              	.LBB3:
  67:.\iButtonBLL.c ****     {
  68:.\iButtonBLL.c ****         char8 crc = 0x00;
 189              		.loc 1 68 0
 190 001e 0023     		movs	r3, #0
 191 0020 FB73     		strb	r3, [r7, #15]
  69:.\iButtonBLL.c ****         iButtonWrite(_IBUTTON_PORT2_, _IBUTTON_READ_ROM_);
 192              		.loc 1 69 0
 193 0022 0220     		movs	r0, #2
 194 0024 3321     		movs	r1, #51
 195 0026 FFF7FEFF 		bl	iButtonWrite
  70:.\iButtonBLL.c ****         FOR(uint8 index = 0, index < _IBUTTON_PAYLOAD_LENGTH_, index++)
 196              		.loc 1 70 0
 197 002a 0023     		movs	r3, #0
 198 002c BB73     		strb	r3, [r7, #14]
 199 002e 0BE0     		b	.L10
 200              	.L11:
  71:.\iButtonBLL.c ****             pmsg->_buffer[index] = iButtonRead(_IBUTTON_PORT2_);
 201              		.loc 1 71 0 discriminator 3
 202 0030 BC7B     		ldrb	r4, [r7, #14]	@ zero_extendqisi2
 203 0032 0220     		movs	r0, #2
 204 0034 FFF7FEFF 		bl	iButtonRead
 205 0038 0346     		mov	r3, r0
 206 003a 1A46     		mov	r2, r3
 207 003c BB68     		ldr	r3, [r7, #8]
 208 003e 2344     		add	r3, r3, r4
 209 0040 1A73     		strb	r2, [r3, #12]
  70:.\iButtonBLL.c ****         FOR(uint8 index = 0, index < _IBUTTON_PAYLOAD_LENGTH_, index++)
ARM GAS  C:\Users\RECEPC~1\AppData\Local\Temp\ccK6q0HL.s 			page 6


 210              		.loc 1 70 0 discriminator 3
 211 0042 BB7B     		ldrb	r3, [r7, #14]	@ zero_extendqisi2
 212 0044 0133     		adds	r3, r3, #1
 213 0046 BB73     		strb	r3, [r7, #14]
 214              	.L10:
  70:.\iButtonBLL.c ****         FOR(uint8 index = 0, index < _IBUTTON_PAYLOAD_LENGTH_, index++)
 215              		.loc 1 70 0 is_stmt 0 discriminator 1
 216 0048 BB7B     		ldrb	r3, [r7, #14]	@ zero_extendqisi2
 217 004a 072B     		cmp	r3, #7
 218 004c F0D9     		bls	.L11
  72:.\iButtonBLL.c ****         
  73:.\iButtonBLL.c ****         FOR(index = 0, index < (_IBUTTON_PAYLOAD_LENGTH_ - 1), index++)
 219              		.loc 1 73 0 is_stmt 1
 220 004e 0023     		movs	r3, #0
 221 0050 BB73     		strb	r3, [r7, #14]
 222 0052 0DE0     		b	.L12
 223              	.L13:
  74:.\iButtonBLL.c ****             crc = CRCCheck(crc, pmsg->_buffer[index]);
 224              		.loc 1 74 0 discriminator 3
 225 0054 BB7B     		ldrb	r3, [r7, #14]	@ zero_extendqisi2
 226 0056 BA68     		ldr	r2, [r7, #8]
 227 0058 1344     		add	r3, r3, r2
 228 005a 1B7B     		ldrb	r3, [r3, #12]	@ zero_extendqisi2
 229 005c FA7B     		ldrb	r2, [r7, #15]	@ zero_extendqisi2
 230 005e 1046     		mov	r0, r2
 231 0060 1946     		mov	r1, r3
 232 0062 FFF7FEFF 		bl	CRCCheck
 233 0066 0346     		mov	r3, r0
 234 0068 FB73     		strb	r3, [r7, #15]
  73:.\iButtonBLL.c ****             crc = CRCCheck(crc, pmsg->_buffer[index]);
 235              		.loc 1 73 0 discriminator 3
 236 006a BB7B     		ldrb	r3, [r7, #14]	@ zero_extendqisi2
 237 006c 0133     		adds	r3, r3, #1
 238 006e BB73     		strb	r3, [r7, #14]
 239              	.L12:
  73:.\iButtonBLL.c ****             crc = CRCCheck(crc, pmsg->_buffer[index]);
 240              		.loc 1 73 0 is_stmt 0 discriminator 1
 241 0070 BB7B     		ldrb	r3, [r7, #14]	@ zero_extendqisi2
 242 0072 062B     		cmp	r3, #6
 243 0074 EED9     		bls	.L13
  75:.\iButtonBLL.c ****         
  76:.\iButtonBLL.c ****         //iButton data stream integrity is ok after this check...
  77:.\iButtonBLL.c ****         if(crc == pmsg->_buffer[(_IBUTTON_PAYLOAD_LENGTH_ - 1)] && crc != 0x00)
 244              		.loc 1 77 0 is_stmt 1
 245 0076 BB68     		ldr	r3, [r7, #8]
 246 0078 DB7C     		ldrb	r3, [r3, #19]	@ zero_extendqisi2
 247 007a FA7B     		ldrb	r2, [r7, #15]	@ zero_extendqisi2
 248 007c 9A42     		cmp	r2, r3
 249 007e 0FD1     		bne	.L8
 250              		.loc 1 77 0 is_stmt 0 discriminator 1
 251 0080 FB7B     		ldrb	r3, [r7, #15]	@ zero_extendqisi2
 252 0082 002B     		cmp	r3, #0
 253 0084 0CD0     		beq	.L8
  78:.\iButtonBLL.c ****             if(pmsg->Callback)
 254              		.loc 1 78 0 is_stmt 1
 255 0086 BB68     		ldr	r3, [r7, #8]
 256 0088 D3F89431 		ldr	r3, [r3, #404]
ARM GAS  C:\Users\RECEPC~1\AppData\Local\Temp\ccK6q0HL.s 			page 7


 257 008c 002B     		cmp	r3, #0
 258 008e 07D0     		beq	.L8
  79:.\iButtonBLL.c ****             {
  80:.\iButtonBLL.c ****                 pmsg->_selfkill = true;
 259              		.loc 1 80 0
 260 0090 BB68     		ldr	r3, [r7, #8]
 261 0092 0122     		movs	r2, #1
 262 0094 1A70     		strb	r2, [r3]
  81:.\iButtonBLL.c ****                 pmsg->Callback(pmsg);
 263              		.loc 1 81 0
 264 0096 BB68     		ldr	r3, [r7, #8]
 265 0098 D3F89431 		ldr	r3, [r3, #404]
 266 009c B868     		ldr	r0, [r7, #8]
 267 009e 9847     		blx	r3
 268              	.L8:
 269              	.LBE3:
  82:.\iButtonBLL.c ****             }
  83:.\iButtonBLL.c ****     }
  84:.\iButtonBLL.c **** }
 270              		.loc 1 84 0
 271 00a0 1437     		adds	r7, r7, #20
 272              		.cfi_def_cfa_offset 12
 273 00a2 BD46     		mov	sp, r7
 274              		.cfi_def_cfa_register 13
 275              		@ sp needed
 276 00a4 90BD     		pop	{r4, r7, pc}
 277              		.cfi_endproc
 278              	.LFE64:
 279              		.size	iButton2Scan, .-iButton2Scan
 280 00a6 00BF     		.section	.text.iButtonCRCReset,"ax",%progbits
 281              		.align	2
 282              		.global	iButtonCRCReset
 283              		.thumb
 284              		.thumb_func
 285              		.type	iButtonCRCReset, %function
 286              	iButtonCRCReset:
 287              	.LFB65:
  85:.\iButtonBLL.c **** 
  86:.\iButtonBLL.c **** //@Created By: HIJH
  87:.\iButtonBLL.c **** //@Septembre de 2016
  88:.\iButtonBLL.c **** void iButtonCRCReset()
  89:.\iButtonBLL.c **** {
 288              		.loc 1 89 0
 289              		.cfi_startproc
 290              		@ args = 0, pretend = 0, frame = 0
 291              		@ frame_needed = 1, uses_anonymous_args = 0
 292 0000 80B5     		push	{r7, lr}
 293              		.cfi_def_cfa_offset 8
 294              		.cfi_offset 7, -8
 295              		.cfi_offset 14, -4
 296 0002 00AF     		add	r7, sp, #0
 297              		.cfi_def_cfa_register 7
  90:.\iButtonBLL.c ****     Reset_iButton_Write(HIGH);
 298              		.loc 1 90 0
 299 0004 0120     		movs	r0, #1
 300 0006 FFF7FEFF 		bl	Reset_iButton_Write
  91:.\iButtonBLL.c ****     CRC_CLOCK_PULSE;
ARM GAS  C:\Users\RECEPC~1\AppData\Local\Temp\ccK6q0HL.s 			page 8


 301              		.loc 1 91 0
 302 000a 0120     		movs	r0, #1
 303 000c FFF7FEFF 		bl	Clock_iButton_Write
 304 0010 0120     		movs	r0, #1
 305 0012 FFF7FEFF 		bl	CyDelayUs
 306 0016 0020     		movs	r0, #0
 307 0018 FFF7FEFF 		bl	Clock_iButton_Write
 308 001c 0120     		movs	r0, #1
 309 001e FFF7FEFF 		bl	CyDelayUs
  92:.\iButtonBLL.c ****     Reset_iButton_Write(LOW);
 310              		.loc 1 92 0
 311 0022 0020     		movs	r0, #0
 312 0024 FFF7FEFF 		bl	Reset_iButton_Write
  93:.\iButtonBLL.c **** }
 313              		.loc 1 93 0
 314 0028 80BD     		pop	{r7, pc}
 315              		.cfi_endproc
 316              	.LFE65:
 317              		.size	iButtonCRCReset, .-iButtonCRCReset
 318 002a 00BF     		.section	.text.iButtonCastCRCOutput,"ax",%progbits
 319              		.align	2
 320              		.global	iButtonCastCRCOutput
 321              		.thumb
 322              		.thumb_func
 323              		.type	iButtonCastCRCOutput, %function
 324              	iButtonCastCRCOutput:
 325              	.LFB66:
  94:.\iButtonBLL.c **** 
  95:.\iButtonBLL.c **** //@Created By: HIJH
  96:.\iButtonBLL.c **** //@Septembre de 2016
  97:.\iButtonBLL.c **** uint8 iButtonCastCRCOutput()
  98:.\iButtonBLL.c **** {
 326              		.loc 1 98 0
 327              		.cfi_startproc
 328              		@ args = 0, pretend = 0, frame = 0
 329              		@ frame_needed = 1, uses_anonymous_args = 0
 330 0000 98B5     		push	{r3, r4, r7, lr}
 331              		.cfi_def_cfa_offset 16
 332              		.cfi_offset 3, -16
 333              		.cfi_offset 4, -12
 334              		.cfi_offset 7, -8
 335              		.cfi_offset 14, -4
 336 0002 00AF     		add	r7, sp, #0
 337              		.cfi_def_cfa_register 7
  99:.\iButtonBLL.c ****     return (((ShiftReg_iButtonCRC3MSB_ReadRegValue() << 5) & 0xE0) | ((StatusReg_iButton5thCRCBit_R
 338              		.loc 1 99 0
 339 0004 FFF7FEFF 		bl	ShiftReg_iButtonCRC3MSB_ReadRegValue
 340 0008 0346     		mov	r3, r0
 341 000a 5B01     		lsls	r3, r3, #5
 342 000c DCB2     		uxtb	r4, r3
 343 000e FFF7FEFF 		bl	StatusReg_iButton5thCRCBit_Read
 344 0012 0346     		mov	r3, r0
 345 0014 1B01     		lsls	r3, r3, #4
 346 0016 DBB2     		uxtb	r3, r3
 347 0018 03F01003 		and	r3, r3, #16
 348 001c DBB2     		uxtb	r3, r3
 349 001e 2246     		mov	r2, r4
ARM GAS  C:\Users\RECEPC~1\AppData\Local\Temp\ccK6q0HL.s 			page 9


 350 0020 1343     		orrs	r3, r3, r2
 351 0022 DCB2     		uxtb	r4, r3
 352 0024 FFF7FEFF 		bl	ShiftReg_iButtonCRC4LSB_ReadRegValue
 353 0028 0346     		mov	r3, r0
 354 002a DBB2     		uxtb	r3, r3
 355 002c 03F00F03 		and	r3, r3, #15
 356 0030 DBB2     		uxtb	r3, r3
 357 0032 2246     		mov	r2, r4
 358 0034 1343     		orrs	r3, r3, r2
 359 0036 DBB2     		uxtb	r3, r3
 360 0038 DBB2     		uxtb	r3, r3
 100:.\iButtonBLL.c **** }
 361              		.loc 1 100 0
 362 003a 1846     		mov	r0, r3
 363 003c 98BD     		pop	{r3, r4, r7, pc}
 364              		.cfi_endproc
 365              	.LFE66:
 366              		.size	iButtonCastCRCOutput, .-iButtonCastCRCOutput
 367 003e 00BF     		.section	.text.iButtonCRCCheck,"ax",%progbits
 368              		.align	2
 369              		.global	iButtonCRCCheck
 370              		.thumb
 371              		.thumb_func
 372              		.type	iButtonCRCCheck, %function
 373              	iButtonCRCCheck:
 374              	.LFB67:
 101:.\iButtonBLL.c **** 
 102:.\iButtonBLL.c **** //@Created By: HIJH
 103:.\iButtonBLL.c **** //@Septembre de 2016
 104:.\iButtonBLL.c **** bool iButtonCRCCheck(char* pbuffer)
 105:.\iButtonBLL.c **** {
 375              		.loc 1 105 0
 376              		.cfi_startproc
 377              		@ args = 0, pretend = 0, frame = 16
 378              		@ frame_needed = 1, uses_anonymous_args = 0
 379 0000 80B5     		push	{r7, lr}
 380              		.cfi_def_cfa_offset 8
 381              		.cfi_offset 7, -8
 382              		.cfi_offset 14, -4
 383 0002 84B0     		sub	sp, sp, #16
 384              		.cfi_def_cfa_offset 24
 385 0004 00AF     		add	r7, sp, #0
 386              		.cfi_def_cfa_register 7
 387 0006 7860     		str	r0, [r7, #4]
 106:.\iButtonBLL.c ****     FOR(uint8 byteindex = 0, byteindex < _IBUTTON_PAYLOAD_LENGTH_, byteindex++)
 388              		.loc 1 106 0
 389 0008 0023     		movs	r3, #0
 390 000a FB73     		strb	r3, [r7, #15]
 391 000c 26E0     		b	.L18
 392              	.L21:
 393              	.LBB4:
 107:.\iButtonBLL.c ****     {
 108:.\iButtonBLL.c ****         FOR(uint8 bitindex = 0, bitindex < 8, bitindex++)
 394              		.loc 1 108 0
 395 000e 0023     		movs	r3, #0
 396 0010 BB73     		strb	r3, [r7, #14]
 397 0012 1DE0     		b	.L19
ARM GAS  C:\Users\RECEPC~1\AppData\Local\Temp\ccK6q0HL.s 			page 10


 398              	.L20:
 109:.\iButtonBLL.c ****         {
 110:.\iButtonBLL.c ****             Input_iButton_Write((pbuffer[byteindex] >> bitindex) & 0x01);
 399              		.loc 1 110 0 discriminator 3
 400 0014 FB7B     		ldrb	r3, [r7, #15]	@ zero_extendqisi2
 401 0016 7A68     		ldr	r2, [r7, #4]
 402 0018 1344     		add	r3, r3, r2
 403 001a 1B78     		ldrb	r3, [r3]	@ zero_extendqisi2
 404 001c 1A46     		mov	r2, r3
 405 001e BB7B     		ldrb	r3, [r7, #14]	@ zero_extendqisi2
 406 0020 42FA03F3 		asr	r3, r2, r3
 407 0024 DBB2     		uxtb	r3, r3
 408 0026 03F00103 		and	r3, r3, #1
 409 002a DBB2     		uxtb	r3, r3
 410 002c 1846     		mov	r0, r3
 411 002e FFF7FEFF 		bl	Input_iButton_Write
 111:.\iButtonBLL.c ****             CRC_CLOCK_PULSE;
 412              		.loc 1 111 0 discriminator 3
 413 0032 0120     		movs	r0, #1
 414 0034 FFF7FEFF 		bl	Clock_iButton_Write
 415 0038 0120     		movs	r0, #1
 416 003a FFF7FEFF 		bl	CyDelayUs
 417 003e 0020     		movs	r0, #0
 418 0040 FFF7FEFF 		bl	Clock_iButton_Write
 419 0044 0120     		movs	r0, #1
 420 0046 FFF7FEFF 		bl	CyDelayUs
 108:.\iButtonBLL.c ****         {
 421              		.loc 1 108 0 discriminator 3
 422 004a BB7B     		ldrb	r3, [r7, #14]	@ zero_extendqisi2
 423 004c 0133     		adds	r3, r3, #1
 424 004e BB73     		strb	r3, [r7, #14]
 425              	.L19:
 108:.\iButtonBLL.c ****         {
 426              		.loc 1 108 0 is_stmt 0 discriminator 1
 427 0050 BB7B     		ldrb	r3, [r7, #14]	@ zero_extendqisi2
 428 0052 072B     		cmp	r3, #7
 429 0054 DED9     		bls	.L20
 430              	.LBE4:
 106:.\iButtonBLL.c ****     {
 431              		.loc 1 106 0 is_stmt 1 discriminator 2
 432 0056 FB7B     		ldrb	r3, [r7, #15]	@ zero_extendqisi2
 433 0058 0133     		adds	r3, r3, #1
 434 005a FB73     		strb	r3, [r7, #15]
 435              	.L18:
 106:.\iButtonBLL.c ****     {
 436              		.loc 1 106 0 is_stmt 0 discriminator 1
 437 005c FB7B     		ldrb	r3, [r7, #15]	@ zero_extendqisi2
 438 005e 072B     		cmp	r3, #7
 439 0060 D5D9     		bls	.L21
 112:.\iButtonBLL.c ****         }
 113:.\iButtonBLL.c ****     }
 114:.\iButtonBLL.c ****     return (iButtonCastCRCOutput() == 0x00);
 440              		.loc 1 114 0 is_stmt 1
 441 0062 FFF7FEFF 		bl	iButtonCastCRCOutput
 442 0066 0346     		mov	r3, r0
 443 0068 002B     		cmp	r3, #0
 444 006a 0CBF     		ite	eq
ARM GAS  C:\Users\RECEPC~1\AppData\Local\Temp\ccK6q0HL.s 			page 11


 445 006c 0123     		moveq	r3, #1
 446 006e 0023     		movne	r3, #0
 447 0070 DBB2     		uxtb	r3, r3
 115:.\iButtonBLL.c **** }
 448              		.loc 1 115 0
 449 0072 1846     		mov	r0, r3
 450 0074 1037     		adds	r7, r7, #16
 451              		.cfi_def_cfa_offset 8
 452 0076 BD46     		mov	sp, r7
 453              		.cfi_def_cfa_register 13
 454              		@ sp needed
 455 0078 80BD     		pop	{r7, pc}
 456              		.cfi_endproc
 457              	.LFE67:
 458              		.size	iButtonCRCCheck, .-iButtonCRCCheck
 459 007a 00BF     		.text
 460              	.Letext0:
 461              		.file 2 "c:\\program files (x86)\\cypress\\psoc creator\\3.3\\psoc creator\\import\\gnu\\arm\\4.9.
 462              		.file 3 "c:\\program files (x86)\\cypress\\psoc creator\\3.3\\psoc creator\\import\\gnu\\arm\\4.9.
 463              		.file 4 "Generated_Source\\PSoC5/cytypes.h"
 464              		.file 5 ".\\SinkManager.h"
 465              		.file 6 ".\\SinkObservables.h"
 466              		.file 7 ".\\iButton.h"
 467              		.file 8 "Generated_Source\\PSoC5/core_cm3.h"