ARM GAS  C:\Users\RECEPC~1\AppData\Local\Temp\ccAcinmb.s 			page 1


   1              		.syntax unified
   2              		.cpu cortex-m3
   3              		.fpu softvfp
   4              		.eabi_attribute 20, 1
   5              		.eabi_attribute 21, 1
   6              		.eabi_attribute 23, 3
   7              		.eabi_attribute 24, 1
   8              		.eabi_attribute 25, 1
   9              		.eabi_attribute 26, 1
  10              		.eabi_attribute 30, 6
  11              		.eabi_attribute 34, 1
  12              		.eabi_attribute 18, 4
  13              		.thumb
  14              		.file	"iButtonProtocol.c"
  15              		.text
  16              	.Ltext0:
  17              		.cfi_sections	.debug_frame
  18              		.comm	HoseDispenser,1,1
  19              		.section	.text.iButtonResetPresenceSequence,"ax",%progbits
  20              		.align	2
  21              		.global	iButtonResetPresenceSequence
  22              		.thumb
  23              		.thumb_func
  24              		.type	iButtonResetPresenceSequence, %function
  25              	iButtonResetPresenceSequence:
  26              	.LFB63:
  27              		.file 1 ".\\iButtonProtocol.c"
   1:.\iButtonProtocol.c **** /* ========================================
   2:.\iButtonProtocol.c ****  *
   3:.\iButtonProtocol.c ****  * Copyright INSEPET SISTEMAS, 2016
   4:.\iButtonProtocol.c ****  * All Rights Reserved
   5:.\iButtonProtocol.c ****  * UNPUBLISHED, LICENSED SOFTWARE.
   6:.\iButtonProtocol.c ****  *
   7:.\iButtonProtocol.c ****  * CONFIDENTIAL AND PROPRIETARY INFORMATION
   8:.\iButtonProtocol.c ****  * WHICH IS THE PROPERTY OF your company.
   9:.\iButtonProtocol.c ****  *
  10:.\iButtonProtocol.c ****  * ========================================
  11:.\iButtonProtocol.c **** @Created By: HIJH
  12:.\iButtonProtocol.c **** @Date: Septembre de 2016
  13:.\iButtonProtocol.c **** 
  14:.\iButtonProtocol.c **** This is the implementation of the 1-Wire protocol for the iButton communication
  15:.\iButtonProtocol.c **** 
  16:.\iButtonProtocol.c **** */
  17:.\iButtonProtocol.c **** #include <project.h>
  18:.\iButtonProtocol.c **** #include "SinkManager.h"
  19:.\iButtonProtocol.c **** #include "SinkObservables.h"
  20:.\iButtonProtocol.c **** #include "GlobalDefinitions.h"
  21:.\iButtonProtocol.c **** #include "iButton.h"
  22:.\iButtonProtocol.c **** 
  23:.\iButtonProtocol.c **** bool iButtonResetPresenceSequence(uint8 port)
  24:.\iButtonProtocol.c **** {
  28              		.loc 1 24 0
  29              		.cfi_startproc
  30              		@ args = 0, pretend = 0, frame = 16
  31              		@ frame_needed = 1, uses_anonymous_args = 0
  32 0000 80B5     		push	{r7, lr}
  33              		.cfi_def_cfa_offset 8
ARM GAS  C:\Users\RECEPC~1\AppData\Local\Temp\ccAcinmb.s 			page 2


  34              		.cfi_offset 7, -8
  35              		.cfi_offset 14, -4
  36 0002 84B0     		sub	sp, sp, #16
  37              		.cfi_def_cfa_offset 24
  38 0004 00AF     		add	r7, sp, #0
  39              		.cfi_def_cfa_register 7
  40 0006 0346     		mov	r3, r0
  41 0008 FB71     		strb	r3, [r7, #7]
  25:.\iButtonProtocol.c ****     bool retval = false;
  42              		.loc 1 25 0
  43 000a 0023     		movs	r3, #0
  44 000c FB73     		strb	r3, [r7, #15]
  26:.\iButtonProtocol.c ****     switch(port)
  45              		.loc 1 26 0
  46 000e FB79     		ldrb	r3, [r7, #7]	@ zero_extendqisi2
  47 0010 012B     		cmp	r3, #1
  48 0012 02D0     		beq	.L3
  49 0014 022B     		cmp	r3, #2
  50 0016 16D0     		beq	.L4
  51 0018 2BE0     		b	.L2
  52              	.L3:
  27:.\iButtonProtocol.c ****     {
  28:.\iButtonProtocol.c ****         case _IBUTTON_PORT1_:
  29:.\iButtonProtocol.c ****         {
  30:.\iButtonProtocol.c ****             iButton1_Write(LOW);
  53              		.loc 1 30 0
  54 001a 0020     		movs	r0, #0
  55 001c FFF7FEFF 		bl	iButton1_Write
  31:.\iButtonProtocol.c ****             _1WIRE_WAIT_RSTL;
  56              		.loc 1 31 0
  57 0020 4FF4FA70 		mov	r0, #500
  58 0024 FFF7FEFF 		bl	CyDelayUs
  32:.\iButtonProtocol.c ****             iButton1_Write(HIGH);
  59              		.loc 1 32 0
  60 0028 0120     		movs	r0, #1
  61 002a FFF7FEFF 		bl	iButton1_Write
  33:.\iButtonProtocol.c ****             _1WIRE_WAIT_PDL;
  62              		.loc 1 33 0
  63 002e 4620     		movs	r0, #70
  64 0030 FFF7FEFF 		bl	CyDelayUs
  34:.\iButtonProtocol.c ****             retval = !iButton1_Read(); //Ack/Nack
  65              		.loc 1 34 0
  66 0034 FFF7FEFF 		bl	iButton1_Read
  67 0038 0346     		mov	r3, r0
  68 003a 002B     		cmp	r3, #0
  69 003c 0CBF     		ite	eq
  70 003e 0123     		moveq	r3, #1
  71 0040 0023     		movne	r3, #0
  72 0042 FB73     		strb	r3, [r7, #15]
  35:.\iButtonProtocol.c ****             break;
  73              		.loc 1 35 0
  74 0044 15E0     		b	.L2
  75              	.L4:
  36:.\iButtonProtocol.c ****         }
  37:.\iButtonProtocol.c ****         case _IBUTTON_PORT2_:
  38:.\iButtonProtocol.c ****         {
  39:.\iButtonProtocol.c ****             iButton2_Write(LOW);
ARM GAS  C:\Users\RECEPC~1\AppData\Local\Temp\ccAcinmb.s 			page 3


  76              		.loc 1 39 0
  77 0046 0020     		movs	r0, #0
  78 0048 FFF7FEFF 		bl	iButton2_Write
  40:.\iButtonProtocol.c ****             _1WIRE_WAIT_RSTL;
  79              		.loc 1 40 0
  80 004c 4FF4FA70 		mov	r0, #500
  81 0050 FFF7FEFF 		bl	CyDelayUs
  41:.\iButtonProtocol.c ****             iButton2_Write(HIGH);
  82              		.loc 1 41 0
  83 0054 0120     		movs	r0, #1
  84 0056 FFF7FEFF 		bl	iButton2_Write
  42:.\iButtonProtocol.c ****             _1WIRE_WAIT_PDL;
  85              		.loc 1 42 0
  86 005a 4620     		movs	r0, #70
  87 005c FFF7FEFF 		bl	CyDelayUs
  43:.\iButtonProtocol.c ****             retval = !iButton2_Read(); //Ack/Nack
  88              		.loc 1 43 0
  89 0060 FFF7FEFF 		bl	iButton2_Read
  90 0064 0346     		mov	r3, r0
  91 0066 002B     		cmp	r3, #0
  92 0068 0CBF     		ite	eq
  93 006a 0123     		moveq	r3, #1
  94 006c 0023     		movne	r3, #0
  95 006e FB73     		strb	r3, [r7, #15]
  44:.\iButtonProtocol.c ****             break;
  96              		.loc 1 44 0
  97 0070 00BF     		nop
  98              	.L2:
  45:.\iButtonProtocol.c ****         }
  46:.\iButtonProtocol.c ****     }
  47:.\iButtonProtocol.c ****     _1WIRE_RESET_WAIT_TIME_SLOT;
  99              		.loc 1 47 0
 100 0072 6420     		movs	r0, #100
 101 0074 FFF7FEFF 		bl	CyDelayUs
  48:.\iButtonProtocol.c ****     return retval;
 102              		.loc 1 48 0
 103 0078 FB7B     		ldrb	r3, [r7, #15]	@ zero_extendqisi2
  49:.\iButtonProtocol.c **** }
 104              		.loc 1 49 0
 105 007a 1846     		mov	r0, r3
 106 007c 1037     		adds	r7, r7, #16
 107              		.cfi_def_cfa_offset 8
 108 007e BD46     		mov	sp, r7
 109              		.cfi_def_cfa_register 13
 110              		@ sp needed
 111 0080 80BD     		pop	{r7, pc}
 112              		.cfi_endproc
 113              	.LFE63:
 114              		.size	iButtonResetPresenceSequence, .-iButtonResetPresenceSequence
 115 0082 00BF     		.section	.text.iButtonRead,"ax",%progbits
 116              		.align	2
 117              		.global	iButtonRead
 118              		.thumb
 119              		.thumb_func
 120              		.type	iButtonRead, %function
 121              	iButtonRead:
 122              	.LFB64:
ARM GAS  C:\Users\RECEPC~1\AppData\Local\Temp\ccAcinmb.s 			page 4


  50:.\iButtonProtocol.c **** 
  51:.\iButtonProtocol.c **** uint8 iButtonRead(uint8 port)
  52:.\iButtonProtocol.c **** {
 123              		.loc 1 52 0
 124              		.cfi_startproc
 125              		@ args = 0, pretend = 0, frame = 16
 126              		@ frame_needed = 1, uses_anonymous_args = 0
 127 0000 80B5     		push	{r7, lr}
 128              		.cfi_def_cfa_offset 8
 129              		.cfi_offset 7, -8
 130              		.cfi_offset 14, -4
 131 0002 84B0     		sub	sp, sp, #16
 132              		.cfi_def_cfa_offset 24
 133 0004 00AF     		add	r7, sp, #0
 134              		.cfi_def_cfa_register 7
 135 0006 0346     		mov	r3, r0
 136 0008 FB71     		strb	r3, [r7, #7]
  53:.\iButtonProtocol.c ****     uint8 retval = 0x00;
 137              		.loc 1 53 0
 138 000a 0023     		movs	r3, #0
 139 000c FB73     		strb	r3, [r7, #15]
  54:.\iButtonProtocol.c ****     switch(port)
 140              		.loc 1 54 0
 141 000e FB79     		ldrb	r3, [r7, #7]	@ zero_extendqisi2
 142 0010 012B     		cmp	r3, #1
 143 0012 02D0     		beq	.L8
 144 0014 022B     		cmp	r3, #2
 145 0016 26D0     		beq	.L9
 146 0018 4BE0     		b	.L7
 147              	.L8:
 148              	.LBB2:
  55:.\iButtonProtocol.c ****     {
  56:.\iButtonProtocol.c ****         case _IBUTTON_PORT1_:
  57:.\iButtonProtocol.c ****         {
  58:.\iButtonProtocol.c ****             FOR(uint8 index = 0, index < 8, index++)
 149              		.loc 1 58 0
 150 001a 0023     		movs	r3, #0
 151 001c BB73     		strb	r3, [r7, #14]
 152 001e 1EE0     		b	.L10
 153              	.L11:
 154              	.LBB3:
  59:.\iButtonProtocol.c ****             {
  60:.\iButtonProtocol.c ****                 iButton1_Write(LOW);
 155              		.loc 1 60 0 discriminator 3
 156 0020 0020     		movs	r0, #0
 157 0022 FFF7FEFF 		bl	iButton1_Write
  61:.\iButtonProtocol.c ****                 _1WIRE_RL1_TIME;
 158              		.loc 1 61 0 discriminator 3
 159 0026 0620     		movs	r0, #6
 160 0028 FFF7FEFF 		bl	CyDelayUs
  62:.\iButtonProtocol.c ****                 iButton1_Write(HIGH);
 161              		.loc 1 62 0 discriminator 3
 162 002c 0120     		movs	r0, #1
 163 002e FFF7FEFF 		bl	iButton1_Write
  63:.\iButtonProtocol.c ****                 _1WIRE_MSR0_TIME;
 164              		.loc 1 63 0 discriminator 3
 165 0032 0920     		movs	r0, #9
ARM GAS  C:\Users\RECEPC~1\AppData\Local\Temp\ccAcinmb.s 			page 5


 166 0034 FFF7FEFF 		bl	CyDelayUs
  64:.\iButtonProtocol.c ****                 uint8 bitdata = iButton1_Read();
 167              		.loc 1 64 0 discriminator 3
 168 0038 FFF7FEFF 		bl	iButton1_Read
 169 003c 0346     		mov	r3, r0
 170 003e 3B73     		strb	r3, [r7, #12]
  65:.\iButtonProtocol.c ****                 retval |= (bitdata << index);
 171              		.loc 1 65 0 discriminator 3
 172 0040 3A7B     		ldrb	r2, [r7, #12]	@ zero_extendqisi2
 173 0042 BB7B     		ldrb	r3, [r7, #14]	@ zero_extendqisi2
 174 0044 02FA03F3 		lsl	r3, r2, r3
 175 0048 DAB2     		uxtb	r2, r3
 176 004a FB7B     		ldrb	r3, [r7, #15]	@ zero_extendqisi2
 177 004c 1343     		orrs	r3, r3, r2
 178 004e DBB2     		uxtb	r3, r3
 179 0050 FB73     		strb	r3, [r7, #15]
  66:.\iButtonProtocol.c ****                 _1WIRE_WAIT_TIME_SLOT;
 180              		.loc 1 66 0 discriminator 3
 181 0052 3720     		movs	r0, #55
 182 0054 FFF7FEFF 		bl	CyDelayUs
 183              	.LBE3:
  58:.\iButtonProtocol.c ****             {
 184              		.loc 1 58 0 discriminator 3
 185 0058 BB7B     		ldrb	r3, [r7, #14]	@ zero_extendqisi2
 186 005a 0133     		adds	r3, r3, #1
 187 005c BB73     		strb	r3, [r7, #14]
 188              	.L10:
  58:.\iButtonProtocol.c ****             {
 189              		.loc 1 58 0 is_stmt 0 discriminator 1
 190 005e BB7B     		ldrb	r3, [r7, #14]	@ zero_extendqisi2
 191 0060 072B     		cmp	r3, #7
 192 0062 DDD9     		bls	.L11
  67:.\iButtonProtocol.c ****             }
  68:.\iButtonProtocol.c ****             break;
 193              		.loc 1 68 0 is_stmt 1
 194 0064 25E0     		b	.L7
 195              	.L9:
 196              	.LBE2:
 197              	.LBB4:
  69:.\iButtonProtocol.c ****         }
  70:.\iButtonProtocol.c ****         case _IBUTTON_PORT2_:
  71:.\iButtonProtocol.c ****         {
  72:.\iButtonProtocol.c ****             FOR(uint8 index = 0, index < 8, index++)
 198              		.loc 1 72 0
 199 0066 0023     		movs	r3, #0
 200 0068 7B73     		strb	r3, [r7, #13]
 201 006a 1EE0     		b	.L12
 202              	.L13:
 203              	.LBB5:
  73:.\iButtonProtocol.c ****             {
  74:.\iButtonProtocol.c ****                 iButton2_Write(LOW);
 204              		.loc 1 74 0 discriminator 3
 205 006c 0020     		movs	r0, #0
 206 006e FFF7FEFF 		bl	iButton2_Write
  75:.\iButtonProtocol.c ****                 _1WIRE_RL1_TIME;
 207              		.loc 1 75 0 discriminator 3
 208 0072 0620     		movs	r0, #6
ARM GAS  C:\Users\RECEPC~1\AppData\Local\Temp\ccAcinmb.s 			page 6


 209 0074 FFF7FEFF 		bl	CyDelayUs
  76:.\iButtonProtocol.c ****                 iButton2_Write(HIGH);
 210              		.loc 1 76 0 discriminator 3
 211 0078 0120     		movs	r0, #1
 212 007a FFF7FEFF 		bl	iButton2_Write
  77:.\iButtonProtocol.c ****                 _1WIRE_MSR0_TIME;
 213              		.loc 1 77 0 discriminator 3
 214 007e 0920     		movs	r0, #9
 215 0080 FFF7FEFF 		bl	CyDelayUs
  78:.\iButtonProtocol.c ****                 uint8 bitdata = iButton2_Read();
 216              		.loc 1 78 0 discriminator 3
 217 0084 FFF7FEFF 		bl	iButton2_Read
 218 0088 0346     		mov	r3, r0
 219 008a FB72     		strb	r3, [r7, #11]
  79:.\iButtonProtocol.c ****                 retval |= (bitdata << index);
 220              		.loc 1 79 0 discriminator 3
 221 008c FA7A     		ldrb	r2, [r7, #11]	@ zero_extendqisi2
 222 008e 7B7B     		ldrb	r3, [r7, #13]	@ zero_extendqisi2
 223 0090 02FA03F3 		lsl	r3, r2, r3
 224 0094 DAB2     		uxtb	r2, r3
 225 0096 FB7B     		ldrb	r3, [r7, #15]	@ zero_extendqisi2
 226 0098 1343     		orrs	r3, r3, r2
 227 009a DBB2     		uxtb	r3, r3
 228 009c FB73     		strb	r3, [r7, #15]
  80:.\iButtonProtocol.c ****                 _1WIRE_WAIT_TIME_SLOT;
 229              		.loc 1 80 0 discriminator 3
 230 009e 3720     		movs	r0, #55
 231 00a0 FFF7FEFF 		bl	CyDelayUs
 232              	.LBE5:
  72:.\iButtonProtocol.c ****             {
 233              		.loc 1 72 0 discriminator 3
 234 00a4 7B7B     		ldrb	r3, [r7, #13]	@ zero_extendqisi2
 235 00a6 0133     		adds	r3, r3, #1
 236 00a8 7B73     		strb	r3, [r7, #13]
 237              	.L12:
  72:.\iButtonProtocol.c ****             {
 238              		.loc 1 72 0 is_stmt 0 discriminator 1
 239 00aa 7B7B     		ldrb	r3, [r7, #13]	@ zero_extendqisi2
 240 00ac 072B     		cmp	r3, #7
 241 00ae DDD9     		bls	.L13
  81:.\iButtonProtocol.c ****             }
  82:.\iButtonProtocol.c ****             break;
 242              		.loc 1 82 0 is_stmt 1
 243 00b0 00BF     		nop
 244              	.L7:
 245              	.LBE4:
  83:.\iButtonProtocol.c ****         }
  84:.\iButtonProtocol.c ****     }
  85:.\iButtonProtocol.c ****     return retval;
 246              		.loc 1 85 0
 247 00b2 FB7B     		ldrb	r3, [r7, #15]	@ zero_extendqisi2
  86:.\iButtonProtocol.c **** }
 248              		.loc 1 86 0
 249 00b4 1846     		mov	r0, r3
 250 00b6 1037     		adds	r7, r7, #16
 251              		.cfi_def_cfa_offset 8
 252 00b8 BD46     		mov	sp, r7
ARM GAS  C:\Users\RECEPC~1\AppData\Local\Temp\ccAcinmb.s 			page 7


 253              		.cfi_def_cfa_register 13
 254              		@ sp needed
 255 00ba 80BD     		pop	{r7, pc}
 256              		.cfi_endproc
 257              	.LFE64:
 258              		.size	iButtonRead, .-iButtonRead
 259              		.section	.text.iButtonWrite,"ax",%progbits
 260              		.align	2
 261              		.global	iButtonWrite
 262              		.thumb
 263              		.thumb_func
 264              		.type	iButtonWrite, %function
 265              	iButtonWrite:
 266              	.LFB65:
  87:.\iButtonProtocol.c **** 
  88:.\iButtonProtocol.c **** void iButtonWrite(uint8 port, uint8 data)
  89:.\iButtonProtocol.c **** {
 267              		.loc 1 89 0
 268              		.cfi_startproc
 269              		@ args = 0, pretend = 0, frame = 16
 270              		@ frame_needed = 1, uses_anonymous_args = 0
 271 0000 80B5     		push	{r7, lr}
 272              		.cfi_def_cfa_offset 8
 273              		.cfi_offset 7, -8
 274              		.cfi_offset 14, -4
 275 0002 84B0     		sub	sp, sp, #16
 276              		.cfi_def_cfa_offset 24
 277 0004 00AF     		add	r7, sp, #0
 278              		.cfi_def_cfa_register 7
 279 0006 0346     		mov	r3, r0
 280 0008 0A46     		mov	r2, r1
 281 000a FB71     		strb	r3, [r7, #7]
 282 000c 1346     		mov	r3, r2
 283 000e BB71     		strb	r3, [r7, #6]
  90:.\iButtonProtocol.c ****     switch(port)
 284              		.loc 1 90 0
 285 0010 FB79     		ldrb	r3, [r7, #7]	@ zero_extendqisi2
 286 0012 012B     		cmp	r3, #1
 287 0014 02D0     		beq	.L17
 288 0016 022B     		cmp	r3, #2
 289 0018 28D0     		beq	.L18
 290 001a 4FE0     		b	.L15
 291              	.L17:
 292              	.LBB6:
  91:.\iButtonProtocol.c ****     {
  92:.\iButtonProtocol.c ****         case _IBUTTON_PORT1_:
  93:.\iButtonProtocol.c ****         {
  94:.\iButtonProtocol.c ****             FOR(uint8 index = 0, index < 8, index++)
 293              		.loc 1 94 0
 294 001c 0023     		movs	r3, #0
 295 001e FB73     		strb	r3, [r7, #15]
 296 0020 20E0     		b	.L19
 297              	.L22:
  95:.\iButtonProtocol.c ****             {
  96:.\iButtonProtocol.c ****                 iButton1_Write(LOW);
 298              		.loc 1 96 0
 299 0022 0020     		movs	r0, #0
ARM GAS  C:\Users\RECEPC~1\AppData\Local\Temp\ccAcinmb.s 			page 8


 300 0024 FFF7FEFF 		bl	iButton1_Write
  97:.\iButtonProtocol.c ****                 if((data >> index) & 0x01)
 301              		.loc 1 97 0
 302 0028 BA79     		ldrb	r2, [r7, #6]	@ zero_extendqisi2
 303 002a FB7B     		ldrb	r3, [r7, #15]	@ zero_extendqisi2
 304 002c 42FA03F3 		asr	r3, r2, r3
 305 0030 03F00103 		and	r3, r3, #1
 306 0034 002B     		cmp	r3, #0
 307 0036 09D0     		beq	.L20
  98:.\iButtonProtocol.c ****                 {
  99:.\iButtonProtocol.c ****                     _1WIRE_WRITE1_DELAY;
 308              		.loc 1 99 0
 309 0038 0620     		movs	r0, #6
 310 003a FFF7FEFF 		bl	CyDelayUs
 100:.\iButtonProtocol.c ****                     iButton1_Write(HIGH);
 311              		.loc 1 100 0
 312 003e 0120     		movs	r0, #1
 313 0040 FFF7FEFF 		bl	iButton1_Write
 101:.\iButtonProtocol.c ****                     _1WIRE_WRITE1_TIME_SLOT_;
 314              		.loc 1 101 0
 315 0044 4020     		movs	r0, #64
 316 0046 FFF7FEFF 		bl	CyDelayUs
 317 004a 08E0     		b	.L21
 318              	.L20:
 102:.\iButtonProtocol.c ****                 }
 103:.\iButtonProtocol.c ****                 else
 104:.\iButtonProtocol.c ****                 {
 105:.\iButtonProtocol.c ****                     _1WIRE_WRITE0_DELAY;
 319              		.loc 1 105 0
 320 004c 3C20     		movs	r0, #60
 321 004e FFF7FEFF 		bl	CyDelayUs
 106:.\iButtonProtocol.c ****                     iButton1_Write(HIGH);
 322              		.loc 1 106 0
 323 0052 0120     		movs	r0, #1
 324 0054 FFF7FEFF 		bl	iButton1_Write
 107:.\iButtonProtocol.c ****                     _1WIRE_WRITE0_TIME_SLOT_;
 325              		.loc 1 107 0
 326 0058 0A20     		movs	r0, #10
 327 005a FFF7FEFF 		bl	CyDelayUs
 328              	.L21:
  94:.\iButtonProtocol.c ****             {
 329              		.loc 1 94 0 discriminator 2
 330 005e FB7B     		ldrb	r3, [r7, #15]	@ zero_extendqisi2
 331 0060 0133     		adds	r3, r3, #1
 332 0062 FB73     		strb	r3, [r7, #15]
 333              	.L19:
  94:.\iButtonProtocol.c ****             {
 334              		.loc 1 94 0 is_stmt 0 discriminator 1
 335 0064 FB7B     		ldrb	r3, [r7, #15]	@ zero_extendqisi2
 336 0066 072B     		cmp	r3, #7
 337 0068 DBD9     		bls	.L22
 108:.\iButtonProtocol.c **** 
 109:.\iButtonProtocol.c ****                 }
 110:.\iButtonProtocol.c ****             }
 111:.\iButtonProtocol.c ****             break;
 338              		.loc 1 111 0 is_stmt 1
 339 006a 27E0     		b	.L15
ARM GAS  C:\Users\RECEPC~1\AppData\Local\Temp\ccAcinmb.s 			page 9


 340              	.L18:
 341              	.LBE6:
 342              	.LBB7:
 112:.\iButtonProtocol.c ****         }
 113:.\iButtonProtocol.c ****         case _IBUTTON_PORT2_:
 114:.\iButtonProtocol.c ****         {
 115:.\iButtonProtocol.c ****             FOR(uint8 index = 0, index < 8, index++)
 343              		.loc 1 115 0
 344 006c 0023     		movs	r3, #0
 345 006e BB73     		strb	r3, [r7, #14]
 346 0070 20E0     		b	.L23
 347              	.L26:
 116:.\iButtonProtocol.c ****             {
 117:.\iButtonProtocol.c ****                 iButton2_Write(LOW);
 348              		.loc 1 117 0
 349 0072 0020     		movs	r0, #0
 350 0074 FFF7FEFF 		bl	iButton2_Write
 118:.\iButtonProtocol.c ****                 if((data >> index) & 0x01)
 351              		.loc 1 118 0
 352 0078 BA79     		ldrb	r2, [r7, #6]	@ zero_extendqisi2
 353 007a BB7B     		ldrb	r3, [r7, #14]	@ zero_extendqisi2
 354 007c 42FA03F3 		asr	r3, r2, r3
 355 0080 03F00103 		and	r3, r3, #1
 356 0084 002B     		cmp	r3, #0
 357 0086 09D0     		beq	.L24
 119:.\iButtonProtocol.c ****                 {
 120:.\iButtonProtocol.c ****                     _1WIRE_WRITE1_DELAY;
 358              		.loc 1 120 0
 359 0088 0620     		movs	r0, #6
 360 008a FFF7FEFF 		bl	CyDelayUs
 121:.\iButtonProtocol.c ****                     iButton2_Write(HIGH);
 361              		.loc 1 121 0
 362 008e 0120     		movs	r0, #1
 363 0090 FFF7FEFF 		bl	iButton2_Write
 122:.\iButtonProtocol.c ****                     _1WIRE_WRITE1_TIME_SLOT_;
 364              		.loc 1 122 0
 365 0094 4020     		movs	r0, #64
 366 0096 FFF7FEFF 		bl	CyDelayUs
 367 009a 08E0     		b	.L25
 368              	.L24:
 123:.\iButtonProtocol.c ****                 }
 124:.\iButtonProtocol.c ****                 else
 125:.\iButtonProtocol.c ****                 {
 126:.\iButtonProtocol.c ****                     _1WIRE_WRITE0_DELAY;
 369              		.loc 1 126 0
 370 009c 3C20     		movs	r0, #60
 371 009e FFF7FEFF 		bl	CyDelayUs
 127:.\iButtonProtocol.c ****                     iButton2_Write(HIGH);
 372              		.loc 1 127 0
 373 00a2 0120     		movs	r0, #1
 374 00a4 FFF7FEFF 		bl	iButton2_Write
 128:.\iButtonProtocol.c ****                     _1WIRE_WRITE0_TIME_SLOT_;
 375              		.loc 1 128 0
 376 00a8 0A20     		movs	r0, #10
 377 00aa FFF7FEFF 		bl	CyDelayUs
 378              	.L25:
 115:.\iButtonProtocol.c ****             {
ARM GAS  C:\Users\RECEPC~1\AppData\Local\Temp\ccAcinmb.s 			page 10


 379              		.loc 1 115 0 discriminator 2
 380 00ae BB7B     		ldrb	r3, [r7, #14]	@ zero_extendqisi2
 381 00b0 0133     		adds	r3, r3, #1
 382 00b2 BB73     		strb	r3, [r7, #14]
 383              	.L23:
 115:.\iButtonProtocol.c ****             {
 384              		.loc 1 115 0 is_stmt 0 discriminator 1
 385 00b4 BB7B     		ldrb	r3, [r7, #14]	@ zero_extendqisi2
 386 00b6 072B     		cmp	r3, #7
 387 00b8 DBD9     		bls	.L26
 129:.\iButtonProtocol.c ****                 }
 130:.\iButtonProtocol.c ****             }
 131:.\iButtonProtocol.c ****             break;
 388              		.loc 1 131 0 is_stmt 1
 389 00ba 00BF     		nop
 390              	.L15:
 391              	.LBE7:
 132:.\iButtonProtocol.c ****         }
 133:.\iButtonProtocol.c ****     }
 134:.\iButtonProtocol.c **** }
 392              		.loc 1 134 0
 393 00bc 1037     		adds	r7, r7, #16
 394              		.cfi_def_cfa_offset 8
 395 00be BD46     		mov	sp, r7
 396              		.cfi_def_cfa_register 13
 397              		@ sp needed
 398 00c0 80BD     		pop	{r7, pc}
 399              		.cfi_endproc
 400              	.LFE65:
 401              		.size	iButtonWrite, .-iButtonWrite
 402 00c2 00BF     		.text
 403              	.Letext0:
 404              		.file 2 "c:\\program files (x86)\\cypress\\psoc creator\\3.3\\psoc creator\\import\\gnu\\arm\\4.9.
 405              		.file 3 "c:\\program files (x86)\\cypress\\psoc creator\\3.3\\psoc creator\\import\\gnu\\arm\\4.9.
 406              		.file 4 "Generated_Source\\PSoC5/cytypes.h"
 407              		.file 5 "Generated_Source\\PSoC5/core_cm3.h"
 408              		.file 6 ".\\GlobalDefinitions.h"
 409              		.file 7 ".\\iButton.h"