ARM GAS  C:\Users\RECEPC~1\AppData\Local\Temp\cc0fFXnP.s 			page 1


   1              		.syntax unified
   2              		.cpu cortex-m3
   3              		.fpu softvfp
   4              		.eabi_attribute 20, 1
   5              		.eabi_attribute 21, 1
   6              		.eabi_attribute 23, 3
   7              		.eabi_attribute 24, 1
   8              		.eabi_attribute 25, 1
   9              		.eabi_attribute 26, 1
  10              		.eabi_attribute 30, 6
  11              		.eabi_attribute 34, 1
  12              		.eabi_attribute 18, 4
  13              		.thumb
  14              		.file	"iButtonSink.c"
  15              		.text
  16              	.Ltext0:
  17              		.cfi_sections	.debug_frame
  18              		.comm	HoseDispenser,1,1
  19              		.section	.text.iButtonSinkRegistration,"ax",%progbits
  20              		.align	2
  21              		.global	iButtonSinkRegistration
  22              		.thumb
  23              		.thumb_func
  24              		.type	iButtonSinkRegistration, %function
  25              	iButtonSinkRegistration:
  26              	.LFB63:
  27              		.file 1 ".\\iButtonSink.c"
   1:.\iButtonSink.c **** /* ========================================
   2:.\iButtonSink.c ****  *
   3:.\iButtonSink.c ****  * Copyright SISTEMAS INSEPET, 2016
   4:.\iButtonSink.c ****  * All Rights Reserved
   5:.\iButtonSink.c ****  * UNPUBLISHED, LICENSED SOFTWARE.
   6:.\iButtonSink.c ****  *
   7:.\iButtonSink.c ****  * CONFIDENTIAL AND PROPRIETARY INFORMATION
   8:.\iButtonSink.c ****  * WHICH IS THE PROPERTY OF SISTEMAS INSEPET.
   9:.\iButtonSink.c ****  *
  10:.\iButtonSink.c ****  * Created by: HIJH
  11:.\iButtonSink.c ****  * Date: Septembre 2 de 2016
  12:.\iButtonSink.c ****  *
  13:.\iButtonSink.c ****  * ========================================
  14:.\iButtonSink.c **** */
  15:.\iButtonSink.c **** 
  16:.\iButtonSink.c **** #include <project.h>
  17:.\iButtonSink.c **** #include "SinkManager.h"
  18:.\iButtonSink.c **** #include "SinkObservables.h"
  19:.\iButtonSink.c **** #include "GlobalDefinitions.h"
  20:.\iButtonSink.c **** 
  21:.\iButtonSink.c **** void iButton1Scan(void *pparam);
  22:.\iButtonSink.c **** void iButton2Scan(void *pparam);
  23:.\iButtonSink.c **** 
  24:.\iButtonSink.c **** void iButtonSinkRegistration()
  25:.\iButtonSink.c **** {
  28              		.loc 1 25 0
  29              		.cfi_startproc
  30              		@ args = 0, pretend = 0, frame = 8
  31              		@ frame_needed = 1, uses_anonymous_args = 0
  32 0000 80B5     		push	{r7, lr}
ARM GAS  C:\Users\RECEPC~1\AppData\Local\Temp\cc0fFXnP.s 			page 2


  33              		.cfi_def_cfa_offset 8
  34              		.cfi_offset 7, -8
  35              		.cfi_offset 14, -4
  36 0002 82B0     		sub	sp, sp, #8
  37              		.cfi_def_cfa_offset 16
  38 0004 00AF     		add	r7, sp, #0
  39              		.cfi_def_cfa_register 7
  26:.\iButtonSink.c ****     PSINKSUBSCRIBERPTR psubscriber = AllocateSubscriberSlot();
  40              		.loc 1 26 0
  41 0006 FFF7FEFF 		bl	AllocateSubscriberSlot
  42 000a 7860     		str	r0, [r7, #4]
  27:.\iButtonSink.c ****     if(psubscriber)
  43              		.loc 1 27 0
  44 000c 7B68     		ldr	r3, [r7, #4]
  45 000e 002B     		cmp	r3, #0
  46 0010 1DD0     		beq	.L1
  47              	.LBB2:
  28:.\iButtonSink.c ****     {
  29:.\iButtonSink.c ****         uint8 index = 0;
  48              		.loc 1 29 0
  49 0012 0023     		movs	r3, #0
  50 0014 FB70     		strb	r3, [r7, #3]
  30:.\iButtonSink.c ****         //The maximum number of observable identifiers is _OBSERVED_IDENTIFIERS_
  31:.\iButtonSink.c ****         //located in the header file "SinkManager.h"
  32:.\iButtonSink.c ****         //Every identifier is paired with its respective Callback method pointer
  33:.\iButtonSink.c ****         psubscriber->_arrmsgid[index] = IBUTTON1_SCAN;
  51              		.loc 1 33 0
  52 0016 FB78     		ldrb	r3, [r7, #3]	@ zero_extendqisi2
  53 0018 7A68     		ldr	r2, [r7, #4]
  54 001a 1344     		add	r3, r3, r2
  55 001c 2722     		movs	r2, #39
  56 001e 5A70     		strb	r2, [r3, #1]
  34:.\iButtonSink.c ****         psubscriber->Callback[index++] = iButton1Scan;
  57              		.loc 1 34 0
  58 0020 FB78     		ldrb	r3, [r7, #3]	@ zero_extendqisi2
  59 0022 5A1C     		adds	r2, r3, #1
  60 0024 FA70     		strb	r2, [r7, #3]
  61 0026 7A68     		ldr	r2, [r7, #4]
  62 0028 0233     		adds	r3, r3, #2
  63 002a 9B00     		lsls	r3, r3, #2
  64 002c 1344     		add	r3, r3, r2
  65 002e 094A     		ldr	r2, .L3
  66 0030 5A60     		str	r2, [r3, #4]
  35:.\iButtonSink.c ****         
  36:.\iButtonSink.c ****         psubscriber->_arrmsgid[index] = IBUTTON2_SCAN;
  67              		.loc 1 36 0
  68 0032 FB78     		ldrb	r3, [r7, #3]	@ zero_extendqisi2
  69 0034 7A68     		ldr	r2, [r7, #4]
  70 0036 1344     		add	r3, r3, r2
  71 0038 2822     		movs	r2, #40
  72 003a 5A70     		strb	r2, [r3, #1]
  37:.\iButtonSink.c ****         psubscriber->Callback[index++] = iButton2Scan;
  73              		.loc 1 37 0
  74 003c FB78     		ldrb	r3, [r7, #3]	@ zero_extendqisi2
  75 003e 5A1C     		adds	r2, r3, #1
  76 0040 FA70     		strb	r2, [r7, #3]
  77 0042 7A68     		ldr	r2, [r7, #4]
ARM GAS  C:\Users\RECEPC~1\AppData\Local\Temp\cc0fFXnP.s 			page 3


  78 0044 0233     		adds	r3, r3, #2
  79 0046 9B00     		lsls	r3, r3, #2
  80 0048 1344     		add	r3, r3, r2
  81 004a 034A     		ldr	r2, .L3+4
  82 004c 5A60     		str	r2, [r3, #4]
  83              	.L1:
  84              	.LBE2:
  38:.\iButtonSink.c ****     }
  39:.\iButtonSink.c **** }
  85              		.loc 1 39 0
  86 004e 0837     		adds	r7, r7, #8
  87              		.cfi_def_cfa_offset 8
  88 0050 BD46     		mov	sp, r7
  89              		.cfi_def_cfa_register 13
  90              		@ sp needed
  91 0052 80BD     		pop	{r7, pc}
  92              	.L4:
  93              		.align	2
  94              	.L3:
  95 0054 00000000 		.word	iButton1Scan
  96 0058 00000000 		.word	iButton2Scan
  97              		.cfi_endproc
  98              	.LFE63:
  99              		.size	iButtonSinkRegistration, .-iButtonSinkRegistration
 100              		.text
 101              	.Letext0:
 102              		.file 2 "c:\\program files (x86)\\cypress\\psoc creator\\3.3\\psoc creator\\import\\gnu\\arm\\4.9.
 103              		.file 3 "c:\\program files (x86)\\cypress\\psoc creator\\3.3\\psoc creator\\import\\gnu\\arm\\4.9.
 104              		.file 4 "Generated_Source\\PSoC5/cytypes.h"
 105              		.file 5 ".\\SinkManager.h"
 106              		.file 6 "Generated_Source\\PSoC5/core_cm3.h"
 107              		.file 7 ".\\GlobalDefinitions.h"
 108              		.file 8 ".\\SinkObservables.h"